ARM GAS  T:\msys\tmp\ccYAhFFW.s 			page 1


   1              		.cpu cortex-m4
   2              		.eabi_attribute 27, 1
   3              		.eabi_attribute 28, 1
   4              		.eabi_attribute 20, 1
   5              		.eabi_attribute 21, 1
   6              		.eabi_attribute 23, 3
   7              		.eabi_attribute 24, 1
   8              		.eabi_attribute 25, 1
   9              		.eabi_attribute 26, 1
  10              		.eabi_attribute 30, 2
  11              		.eabi_attribute 34, 1
  12              		.eabi_attribute 18, 4
  13              		.file	"los_sys.c"
  14              		.text
  15              	.Ltext0:
  16              		.cfi_sections	.debug_frame
  17              		.section	.text.LOS_TickCountGet,"ax",%progbits
  18              		.align	1
  19              		.p2align 2,,3
  20              		.global	LOS_TickCountGet
  21              		.arch armv7e-m
  22              		.syntax unified
  23              		.thumb
  24              		.thumb_func
  25              		.fpu fpv4-sp-d16
  27              	LOS_TickCountGet:
  28              	.LFB135:
  29              		.file 1 "D:/fchai/work/i-cube/I-CUBE-HUAWEI/Middlewares/Third_Party/Huawei/iot_link/os/liteos/base
   1:D:/fchai/work/i-cube/I-CUBE-HUAWEI/Middlewares/Third_Party/Huawei/iot_link/os/liteos/base/core\los_sys.c **** /*----------------------------------------------------------------------------
   2:D:/fchai/work/i-cube/I-CUBE-HUAWEI/Middlewares/Third_Party/Huawei/iot_link/os/liteos/base/core\los_sys.c ****  * Copyright (c) <2013-2015>, <Huawei Technologies Co., Ltd>
   3:D:/fchai/work/i-cube/I-CUBE-HUAWEI/Middlewares/Third_Party/Huawei/iot_link/os/liteos/base/core\los_sys.c ****  * All rights reserved.
   4:D:/fchai/work/i-cube/I-CUBE-HUAWEI/Middlewares/Third_Party/Huawei/iot_link/os/liteos/base/core\los_sys.c ****  * Redistribution and use in source and binary forms, with or without modification,
   5:D:/fchai/work/i-cube/I-CUBE-HUAWEI/Middlewares/Third_Party/Huawei/iot_link/os/liteos/base/core\los_sys.c ****  * are permitted provided that the following conditions are met:
   6:D:/fchai/work/i-cube/I-CUBE-HUAWEI/Middlewares/Third_Party/Huawei/iot_link/os/liteos/base/core\los_sys.c ****  * 1. Redistributions of source code must retain the above copyright notice, this list of
   7:D:/fchai/work/i-cube/I-CUBE-HUAWEI/Middlewares/Third_Party/Huawei/iot_link/os/liteos/base/core\los_sys.c ****  * conditions and the following disclaimer.
   8:D:/fchai/work/i-cube/I-CUBE-HUAWEI/Middlewares/Third_Party/Huawei/iot_link/os/liteos/base/core\los_sys.c ****  * 2. Redistributions in binary form must reproduce the above copyright notice, this list
   9:D:/fchai/work/i-cube/I-CUBE-HUAWEI/Middlewares/Third_Party/Huawei/iot_link/os/liteos/base/core\los_sys.c ****  * of conditions and the following disclaimer in the documentation and/or other materials
  10:D:/fchai/work/i-cube/I-CUBE-HUAWEI/Middlewares/Third_Party/Huawei/iot_link/os/liteos/base/core\los_sys.c ****  * provided with the distribution.
  11:D:/fchai/work/i-cube/I-CUBE-HUAWEI/Middlewares/Third_Party/Huawei/iot_link/os/liteos/base/core\los_sys.c ****  * 3. Neither the name of the copyright holder nor the names of its contributors may be used
  12:D:/fchai/work/i-cube/I-CUBE-HUAWEI/Middlewares/Third_Party/Huawei/iot_link/os/liteos/base/core\los_sys.c ****  * to endorse or promote products derived from this software without specific prior written
  13:D:/fchai/work/i-cube/I-CUBE-HUAWEI/Middlewares/Third_Party/Huawei/iot_link/os/liteos/base/core\los_sys.c ****  * permission.
  14:D:/fchai/work/i-cube/I-CUBE-HUAWEI/Middlewares/Third_Party/Huawei/iot_link/os/liteos/base/core\los_sys.c ****  * THIS SOFTWARE IS PROVIDED BY THE COPYRIGHT HOLDERS AND CONTRIBUTORS
  15:D:/fchai/work/i-cube/I-CUBE-HUAWEI/Middlewares/Third_Party/Huawei/iot_link/os/liteos/base/core\los_sys.c ****  * "AS IS" AND ANY EXPRESS OR IMPLIED WARRANTIES, INCLUDING, BUT NOT LIMITED TO,
  16:D:/fchai/work/i-cube/I-CUBE-HUAWEI/Middlewares/Third_Party/Huawei/iot_link/os/liteos/base/core\los_sys.c ****  * THE IMPLIED WARRANTIES OF MERCHANTABILITY AND FITNESS FOR A PARTICULAR
  17:D:/fchai/work/i-cube/I-CUBE-HUAWEI/Middlewares/Third_Party/Huawei/iot_link/os/liteos/base/core\los_sys.c ****  * PURPOSE ARE DISCLAIMED. IN NO EVENT SHALL THE COPYRIGHT HOLDER OR
  18:D:/fchai/work/i-cube/I-CUBE-HUAWEI/Middlewares/Third_Party/Huawei/iot_link/os/liteos/base/core\los_sys.c ****  * CONTRIBUTORS BE LIABLE FOR ANY DIRECT, INDIRECT, INCIDENTAL, SPECIAL,
  19:D:/fchai/work/i-cube/I-CUBE-HUAWEI/Middlewares/Third_Party/Huawei/iot_link/os/liteos/base/core\los_sys.c ****  * EXEMPLARY, OR CONSEQUENTIAL DAMAGES (INCLUDING, BUT NOT LIMITED TO,
  20:D:/fchai/work/i-cube/I-CUBE-HUAWEI/Middlewares/Third_Party/Huawei/iot_link/os/liteos/base/core\los_sys.c ****  * PROCUREMENT OF SUBSTITUTE GOODS OR SERVICES; LOSS OF USE, DATA, OR PROFITS;
  21:D:/fchai/work/i-cube/I-CUBE-HUAWEI/Middlewares/Third_Party/Huawei/iot_link/os/liteos/base/core\los_sys.c ****  * OR BUSINESS INTERRUPTION) HOWEVER CAUSED AND ON ANY THEORY OF LIABILITY,
  22:D:/fchai/work/i-cube/I-CUBE-HUAWEI/Middlewares/Third_Party/Huawei/iot_link/os/liteos/base/core\los_sys.c ****  * WHETHER IN CONTRACT, STRICT LIABILITY, OR TORT (INCLUDING NEGLIGENCE OR
  23:D:/fchai/work/i-cube/I-CUBE-HUAWEI/Middlewares/Third_Party/Huawei/iot_link/os/liteos/base/core\los_sys.c ****  * OTHERWISE) ARISING IN ANY WAY OUT OF THE USE OF THIS SOFTWARE, EVEN IF
  24:D:/fchai/work/i-cube/I-CUBE-HUAWEI/Middlewares/Third_Party/Huawei/iot_link/os/liteos/base/core\los_sys.c ****  * ADVISED OF THE POSSIBILITY OF SUCH DAMAGE.
  25:D:/fchai/work/i-cube/I-CUBE-HUAWEI/Middlewares/Third_Party/Huawei/iot_link/os/liteos/base/core\los_sys.c ****  *---------------------------------------------------------------------------*/
  26:D:/fchai/work/i-cube/I-CUBE-HUAWEI/Middlewares/Third_Party/Huawei/iot_link/os/liteos/base/core\los_sys.c **** /*----------------------------------------------------------------------------
  27:D:/fchai/work/i-cube/I-CUBE-HUAWEI/Middlewares/Third_Party/Huawei/iot_link/os/liteos/base/core\los_sys.c ****  * Notice of Export Control Law
  28:D:/fchai/work/i-cube/I-CUBE-HUAWEI/Middlewares/Third_Party/Huawei/iot_link/os/liteos/base/core\los_sys.c ****  * ===============================================
  29:D:/fchai/work/i-cube/I-CUBE-HUAWEI/Middlewares/Third_Party/Huawei/iot_link/os/liteos/base/core\los_sys.c ****  * Huawei LiteOS may be subject to applicable export control laws and regulations, which might
ARM GAS  T:\msys\tmp\ccYAhFFW.s 			page 2


  30:D:/fchai/work/i-cube/I-CUBE-HUAWEI/Middlewares/Third_Party/Huawei/iot_link/os/liteos/base/core\los_sys.c ****  * include those applicable to Huawei LiteOS of U.S. and the country in which you are located.
  31:D:/fchai/work/i-cube/I-CUBE-HUAWEI/Middlewares/Third_Party/Huawei/iot_link/os/liteos/base/core\los_sys.c ****  * Import, export and usage of Huawei LiteOS in any manner by you shall be in compliance with such
  32:D:/fchai/work/i-cube/I-CUBE-HUAWEI/Middlewares/Third_Party/Huawei/iot_link/os/liteos/base/core\los_sys.c ****  * applicable export control laws and regulations.
  33:D:/fchai/work/i-cube/I-CUBE-HUAWEI/Middlewares/Third_Party/Huawei/iot_link/os/liteos/base/core\los_sys.c ****  *---------------------------------------------------------------------------*/
  34:D:/fchai/work/i-cube/I-CUBE-HUAWEI/Middlewares/Third_Party/Huawei/iot_link/os/liteos/base/core\los_sys.c **** 
  35:D:/fchai/work/i-cube/I-CUBE-HUAWEI/Middlewares/Third_Party/Huawei/iot_link/os/liteos/base/core\los_sys.c **** #include "los_sys.inc"
  36:D:/fchai/work/i-cube/I-CUBE-HUAWEI/Middlewares/Third_Party/Huawei/iot_link/os/liteos/base/core\los_sys.c **** #include "los_tick.ph"
  37:D:/fchai/work/i-cube/I-CUBE-HUAWEI/Middlewares/Third_Party/Huawei/iot_link/os/liteos/base/core\los_sys.c **** 
  38:D:/fchai/work/i-cube/I-CUBE-HUAWEI/Middlewares/Third_Party/Huawei/iot_link/os/liteos/base/core\los_sys.c **** #ifdef __cplusplus
  39:D:/fchai/work/i-cube/I-CUBE-HUAWEI/Middlewares/Third_Party/Huawei/iot_link/os/liteos/base/core\los_sys.c **** #if __cplusplus
  40:D:/fchai/work/i-cube/I-CUBE-HUAWEI/Middlewares/Third_Party/Huawei/iot_link/os/liteos/base/core\los_sys.c **** extern "C" {
  41:D:/fchai/work/i-cube/I-CUBE-HUAWEI/Middlewares/Third_Party/Huawei/iot_link/os/liteos/base/core\los_sys.c **** #endif /* __cplusplus */
  42:D:/fchai/work/i-cube/I-CUBE-HUAWEI/Middlewares/Third_Party/Huawei/iot_link/os/liteos/base/core\los_sys.c **** #endif /* __cplusplus */
  43:D:/fchai/work/i-cube/I-CUBE-HUAWEI/Middlewares/Third_Party/Huawei/iot_link/os/liteos/base/core\los_sys.c **** 
  44:D:/fchai/work/i-cube/I-CUBE-HUAWEI/Middlewares/Third_Party/Huawei/iot_link/os/liteos/base/core\los_sys.c **** /*****************************************************************************
  45:D:/fchai/work/i-cube/I-CUBE-HUAWEI/Middlewares/Third_Party/Huawei/iot_link/os/liteos/base/core\los_sys.c **** Function   : LOS_TickCountGet
  46:D:/fchai/work/i-cube/I-CUBE-HUAWEI/Middlewares/Third_Party/Huawei/iot_link/os/liteos/base/core\los_sys.c **** Description: get current tick
  47:D:/fchai/work/i-cube/I-CUBE-HUAWEI/Middlewares/Third_Party/Huawei/iot_link/os/liteos/base/core\los_sys.c **** Input      : None
  48:D:/fchai/work/i-cube/I-CUBE-HUAWEI/Middlewares/Third_Party/Huawei/iot_link/os/liteos/base/core\los_sys.c **** Output     : None
  49:D:/fchai/work/i-cube/I-CUBE-HUAWEI/Middlewares/Third_Party/Huawei/iot_link/os/liteos/base/core\los_sys.c **** Return     : current tick
  50:D:/fchai/work/i-cube/I-CUBE-HUAWEI/Middlewares/Third_Party/Huawei/iot_link/os/liteos/base/core\los_sys.c **** *****************************************************************************/
  51:D:/fchai/work/i-cube/I-CUBE-HUAWEI/Middlewares/Third_Party/Huawei/iot_link/os/liteos/base/core\los_sys.c **** LITE_OS_SEC_TEXT_MINOR UINT64 LOS_TickCountGet (VOID)
  52:D:/fchai/work/i-cube/I-CUBE-HUAWEI/Middlewares/Third_Party/Huawei/iot_link/os/liteos/base/core\los_sys.c **** {
  30              		.loc 1 52 1 view -0
  31              		.cfi_startproc
  32              		@ args = 0, pretend = 0, frame = 0
  33              		@ frame_needed = 0, uses_anonymous_args = 0
  34              		@ link register save eliminated.
  53:D:/fchai/work/i-cube/I-CUBE-HUAWEI/Middlewares/Third_Party/Huawei/iot_link/os/liteos/base/core\los_sys.c ****     return g_ullTickCount;
  35              		.loc 1 53 5 view .LVU1
  36              		.loc 1 53 12 is_stmt 0 view .LVU2
  37 0000 014B     		ldr	r3, .L3
  54:D:/fchai/work/i-cube/I-CUBE-HUAWEI/Middlewares/Third_Party/Huawei/iot_link/os/liteos/base/core\los_sys.c **** }
  38              		.loc 1 54 1 view .LVU3
  39 0002 D3E90001 		ldrd	r0, [r3]
  40 0006 7047     		bx	lr
  41              	.L4:
  42              		.align	2
  43              	.L3:
  44 0008 00000000 		.word	g_ullTickCount
  45              		.cfi_endproc
  46              	.LFE135:
  48              		.section	.text.LOS_CyclePerTickGet,"ax",%progbits
  49              		.align	1
  50              		.p2align 2,,3
  51              		.global	LOS_CyclePerTickGet
  52              		.syntax unified
  53              		.thumb
  54              		.thumb_func
  55              		.fpu fpv4-sp-d16
  57              	LOS_CyclePerTickGet:
  58              	.LFB136:
  55:D:/fchai/work/i-cube/I-CUBE-HUAWEI/Middlewares/Third_Party/Huawei/iot_link/os/liteos/base/core\los_sys.c **** 
  56:D:/fchai/work/i-cube/I-CUBE-HUAWEI/Middlewares/Third_Party/Huawei/iot_link/os/liteos/base/core\los_sys.c **** /*****************************************************************************
  57:D:/fchai/work/i-cube/I-CUBE-HUAWEI/Middlewares/Third_Party/Huawei/iot_link/os/liteos/base/core\los_sys.c **** Function   : LOS_CyclePerTickGet
  58:D:/fchai/work/i-cube/I-CUBE-HUAWEI/Middlewares/Third_Party/Huawei/iot_link/os/liteos/base/core\los_sys.c **** Description: Get System cycle number corresponding to each tick
  59:D:/fchai/work/i-cube/I-CUBE-HUAWEI/Middlewares/Third_Party/Huawei/iot_link/os/liteos/base/core\los_sys.c **** Input      : None
ARM GAS  T:\msys\tmp\ccYAhFFW.s 			page 3


  60:D:/fchai/work/i-cube/I-CUBE-HUAWEI/Middlewares/Third_Party/Huawei/iot_link/os/liteos/base/core\los_sys.c **** Output     : None
  61:D:/fchai/work/i-cube/I-CUBE-HUAWEI/Middlewares/Third_Party/Huawei/iot_link/os/liteos/base/core\los_sys.c **** Return     : cycle number corresponding to each tick
  62:D:/fchai/work/i-cube/I-CUBE-HUAWEI/Middlewares/Third_Party/Huawei/iot_link/os/liteos/base/core\los_sys.c **** *****************************************************************************/
  63:D:/fchai/work/i-cube/I-CUBE-HUAWEI/Middlewares/Third_Party/Huawei/iot_link/os/liteos/base/core\los_sys.c **** LITE_OS_SEC_TEXT_MINOR UINT32 LOS_CyclePerTickGet(VOID)
  64:D:/fchai/work/i-cube/I-CUBE-HUAWEI/Middlewares/Third_Party/Huawei/iot_link/os/liteos/base/core\los_sys.c **** {
  59              		.loc 1 64 1 is_stmt 1 view -0
  60              		.cfi_startproc
  61              		@ args = 0, pretend = 0, frame = 0
  62              		@ frame_needed = 0, uses_anonymous_args = 0
  63              		@ link register save eliminated.
  65:D:/fchai/work/i-cube/I-CUBE-HUAWEI/Middlewares/Third_Party/Huawei/iot_link/os/liteos/base/core\los_sys.c ****     /*lint -e40*/
  66:D:/fchai/work/i-cube/I-CUBE-HUAWEI/Middlewares/Third_Party/Huawei/iot_link/os/liteos/base/core\los_sys.c ****     return OS_SYS_CLOCK / LOSCFG_BASE_CORE_TICK_PER_SECOND;/*lint !e160*/
  64              		.loc 1 66 5 view .LVU5
  65              		.loc 1 66 25 is_stmt 0 view .LVU6
  66 0000 034A     		ldr	r2, .L6
  67 0002 044B     		ldr	r3, .L6+4
  68 0004 1068     		ldr	r0, [r2]
  69 0006 A3FB0030 		umull	r3, r0, r3, r0
  67:D:/fchai/work/i-cube/I-CUBE-HUAWEI/Middlewares/Third_Party/Huawei/iot_link/os/liteos/base/core\los_sys.c ****     /*lint +e40*/
  68:D:/fchai/work/i-cube/I-CUBE-HUAWEI/Middlewares/Third_Party/Huawei/iot_link/os/liteos/base/core\los_sys.c **** }
  70              		.loc 1 68 1 view .LVU7
  71 000a 8009     		lsrs	r0, r0, #6
  72 000c 7047     		bx	lr
  73              	.L7:
  74 000e 00BF     		.align	2
  75              	.L6:
  76 0010 00000000 		.word	SystemCoreClock
  77 0014 D34D6210 		.word	274877907
  78              		.cfi_endproc
  79              	.LFE136:
  81              		.global	__aeabi_uldivmod
  82              		.global	__aeabi_ldivmod
  83              		.section	.text.LOS_MS2Tick,"ax",%progbits
  84              		.align	1
  85              		.p2align 2,,3
  86              		.global	LOS_MS2Tick
  87              		.syntax unified
  88              		.thumb
  89              		.thumb_func
  90              		.fpu fpv4-sp-d16
  92              	LOS_MS2Tick:
  93              	.LVL0:
  94              	.LFB137:
  69:D:/fchai/work/i-cube/I-CUBE-HUAWEI/Middlewares/Third_Party/Huawei/iot_link/os/liteos/base/core\los_sys.c **** 
  70:D:/fchai/work/i-cube/I-CUBE-HUAWEI/Middlewares/Third_Party/Huawei/iot_link/os/liteos/base/core\los_sys.c **** /*****************************************************************************
  71:D:/fchai/work/i-cube/I-CUBE-HUAWEI/Middlewares/Third_Party/Huawei/iot_link/os/liteos/base/core\los_sys.c **** Function   : LOS_MS2Tick
  72:D:/fchai/work/i-cube/I-CUBE-HUAWEI/Middlewares/Third_Party/Huawei/iot_link/os/liteos/base/core\los_sys.c **** Description: milliseconds convert to Tick
  73:D:/fchai/work/i-cube/I-CUBE-HUAWEI/Middlewares/Third_Party/Huawei/iot_link/os/liteos/base/core\los_sys.c **** Input      : milliseconds
  74:D:/fchai/work/i-cube/I-CUBE-HUAWEI/Middlewares/Third_Party/Huawei/iot_link/os/liteos/base/core\los_sys.c **** Output     : None
  75:D:/fchai/work/i-cube/I-CUBE-HUAWEI/Middlewares/Third_Party/Huawei/iot_link/os/liteos/base/core\los_sys.c **** Return     : Tick
  76:D:/fchai/work/i-cube/I-CUBE-HUAWEI/Middlewares/Third_Party/Huawei/iot_link/os/liteos/base/core\los_sys.c **** *****************************************************************************/
  77:D:/fchai/work/i-cube/I-CUBE-HUAWEI/Middlewares/Third_Party/Huawei/iot_link/os/liteos/base/core\los_sys.c **** LITE_OS_SEC_TEXT_MINOR UINT32 LOS_MS2Tick(UINT32 uwMillisec)
  78:D:/fchai/work/i-cube/I-CUBE-HUAWEI/Middlewares/Third_Party/Huawei/iot_link/os/liteos/base/core\los_sys.c **** {
  95              		.loc 1 78 1 is_stmt 1 view -0
  96              		.cfi_startproc
  97              		@ args = 0, pretend = 0, frame = 0
  98              		@ frame_needed = 0, uses_anonymous_args = 0
ARM GAS  T:\msys\tmp\ccYAhFFW.s 			page 4


  79:D:/fchai/work/i-cube/I-CUBE-HUAWEI/Middlewares/Third_Party/Huawei/iot_link/os/liteos/base/core\los_sys.c ****     if (0xFFFFFFFF == uwMillisec)
  99              		.loc 1 79 5 view .LVU9
 100              		.loc 1 79 8 is_stmt 0 view .LVU10
 101 0000 421C     		adds	r2, r0, #1
 102 0002 0AD0     		beq	.L12
  80:D:/fchai/work/i-cube/I-CUBE-HUAWEI/Middlewares/Third_Party/Huawei/iot_link/os/liteos/base/core\los_sys.c ****     {
  81:D:/fchai/work/i-cube/I-CUBE-HUAWEI/Middlewares/Third_Party/Huawei/iot_link/os/liteos/base/core\los_sys.c ****         return 0xFFFFFFFF;
  82:D:/fchai/work/i-cube/I-CUBE-HUAWEI/Middlewares/Third_Party/Huawei/iot_link/os/liteos/base/core\los_sys.c ****     }
  83:D:/fchai/work/i-cube/I-CUBE-HUAWEI/Middlewares/Third_Party/Huawei/iot_link/os/liteos/base/core\los_sys.c **** 
  84:D:/fchai/work/i-cube/I-CUBE-HUAWEI/Middlewares/Third_Party/Huawei/iot_link/os/liteos/base/core\los_sys.c ****     return ((UINT64)uwMillisec * LOSCFG_BASE_CORE_TICK_PER_SECOND) / OS_SYS_MS_PER_SECOND;
 103              		.loc 1 84 5 is_stmt 1 view .LVU11
  78:D:/fchai/work/i-cube/I-CUBE-HUAWEI/Middlewares/Third_Party/Huawei/iot_link/os/liteos/base/core\los_sys.c ****     if (0xFFFFFFFF == uwMillisec)
 104              		.loc 1 78 1 is_stmt 0 view .LVU12
 105 0004 08B5     		push	{r3, lr}
 106              	.LCFI0:
 107              		.cfi_def_cfa_offset 8
 108              		.cfi_offset 3, -8
 109              		.cfi_offset 14, -4
 110              		.loc 1 84 32 view .LVU13
 111 0006 4FF47A73 		mov	r3, #1000
 112              		.loc 1 84 68 view .LVU14
 113 000a A0FB0301 		umull	r0, r1, r0, r3
 114              	.LVL1:
 115              		.loc 1 84 68 view .LVU15
 116 000e 4FF47A72 		mov	r2, #1000
 117              	.LVL2:
 118              		.loc 1 84 68 view .LVU16
 119 0012 0023     		movs	r3, #0
 120 0014 FFF7FEFF 		bl	__aeabi_uldivmod
 121              	.LVL3:
  85:D:/fchai/work/i-cube/I-CUBE-HUAWEI/Middlewares/Third_Party/Huawei/iot_link/os/liteos/base/core\los_sys.c **** }
 122              		.loc 1 85 1 view .LVU17
 123 0018 08BD     		pop	{r3, pc}
 124              	.LVL4:
 125              	.L12:
 126              	.LCFI1:
 127              		.cfi_def_cfa_offset 0
 128              		.cfi_restore 3
 129              		.cfi_restore 14
 130              		.loc 1 85 1 view .LVU18
 131 001a 7047     		bx	lr
 132              		.cfi_endproc
 133              	.LFE137:
 135              		.section	.text.LOS_Tick2MS,"ax",%progbits
 136              		.align	1
 137              		.p2align 2,,3
 138              		.global	LOS_Tick2MS
 139              		.syntax unified
 140              		.thumb
 141              		.thumb_func
 142              		.fpu fpv4-sp-d16
 144              	LOS_Tick2MS:
 145              	.LVL5:
 146              	.LFB138:
  86:D:/fchai/work/i-cube/I-CUBE-HUAWEI/Middlewares/Third_Party/Huawei/iot_link/os/liteos/base/core\los_sys.c **** 
  87:D:/fchai/work/i-cube/I-CUBE-HUAWEI/Middlewares/Third_Party/Huawei/iot_link/os/liteos/base/core\los_sys.c **** /*****************************************************************************
  88:D:/fchai/work/i-cube/I-CUBE-HUAWEI/Middlewares/Third_Party/Huawei/iot_link/os/liteos/base/core\los_sys.c **** Function   : LOS_Tick2MS
ARM GAS  T:\msys\tmp\ccYAhFFW.s 			page 5


  89:D:/fchai/work/i-cube/I-CUBE-HUAWEI/Middlewares/Third_Party/Huawei/iot_link/os/liteos/base/core\los_sys.c **** Description: Tick convert to milliseconds
  90:D:/fchai/work/i-cube/I-CUBE-HUAWEI/Middlewares/Third_Party/Huawei/iot_link/os/liteos/base/core\los_sys.c **** Input      : TICK
  91:D:/fchai/work/i-cube/I-CUBE-HUAWEI/Middlewares/Third_Party/Huawei/iot_link/os/liteos/base/core\los_sys.c **** Output     : None
  92:D:/fchai/work/i-cube/I-CUBE-HUAWEI/Middlewares/Third_Party/Huawei/iot_link/os/liteos/base/core\los_sys.c **** Return     : milliseconds
  93:D:/fchai/work/i-cube/I-CUBE-HUAWEI/Middlewares/Third_Party/Huawei/iot_link/os/liteos/base/core\los_sys.c **** *****************************************************************************/
  94:D:/fchai/work/i-cube/I-CUBE-HUAWEI/Middlewares/Third_Party/Huawei/iot_link/os/liteos/base/core\los_sys.c **** LITE_OS_SEC_TEXT_MINOR UINT32 LOS_Tick2MS(UINT32 uwTick)
  95:D:/fchai/work/i-cube/I-CUBE-HUAWEI/Middlewares/Third_Party/Huawei/iot_link/os/liteos/base/core\los_sys.c **** {
 147              		.loc 1 95 1 is_stmt 1 view -0
 148              		.cfi_startproc
 149              		@ args = 0, pretend = 0, frame = 0
 150              		@ frame_needed = 0, uses_anonymous_args = 0
  96:D:/fchai/work/i-cube/I-CUBE-HUAWEI/Middlewares/Third_Party/Huawei/iot_link/os/liteos/base/core\los_sys.c ****     return ((UINT64)uwTick * OS_SYS_MS_PER_SECOND) / LOSCFG_BASE_CORE_TICK_PER_SECOND;
 151              		.loc 1 96 5 view .LVU20
  95:D:/fchai/work/i-cube/I-CUBE-HUAWEI/Middlewares/Third_Party/Huawei/iot_link/os/liteos/base/core\los_sys.c ****     return ((UINT64)uwTick * OS_SYS_MS_PER_SECOND) / LOSCFG_BASE_CORE_TICK_PER_SECOND;
 152              		.loc 1 95 1 is_stmt 0 view .LVU21
 153 0000 08B5     		push	{r3, lr}
 154              	.LCFI2:
 155              		.cfi_def_cfa_offset 8
 156              		.cfi_offset 3, -8
 157              		.cfi_offset 14, -4
 158              		.loc 1 96 28 view .LVU22
 159 0002 4FF47A73 		mov	r3, #1000
 160              		.loc 1 96 52 view .LVU23
 161 0006 A0FB0301 		umull	r0, r1, r0, r3
 162              	.LVL6:
 163              		.loc 1 96 52 view .LVU24
 164 000a 4FF47A72 		mov	r2, #1000
 165 000e 0023     		movs	r3, #0
 166 0010 FFF7FEFF 		bl	__aeabi_uldivmod
 167              	.LVL7:
  97:D:/fchai/work/i-cube/I-CUBE-HUAWEI/Middlewares/Third_Party/Huawei/iot_link/os/liteos/base/core\los_sys.c **** }
 168              		.loc 1 97 1 view .LVU25
 169 0014 08BD     		pop	{r3, pc}
 170              		.cfi_endproc
 171              	.LFE138:
 173              		.global	__aeabi_ul2d
 174              		.global	__aeabi_ui2d
 175              		.global	__aeabi_ddiv
 176              		.global	__aeabi_d2ulz
 177 0016 00BF     		.section	.text.osCpuTick2MS,"ax",%progbits
 178              		.align	1
 179              		.p2align 2,,3
 180              		.global	osCpuTick2MS
 181              		.syntax unified
 182              		.thumb
 183              		.thumb_func
 184              		.fpu fpv4-sp-d16
 186              	osCpuTick2MS:
 187              	.LVL8:
 188              	.LFB139:
  98:D:/fchai/work/i-cube/I-CUBE-HUAWEI/Middlewares/Third_Party/Huawei/iot_link/os/liteos/base/core\los_sys.c **** 
  99:D:/fchai/work/i-cube/I-CUBE-HUAWEI/Middlewares/Third_Party/Huawei/iot_link/os/liteos/base/core\los_sys.c **** /*****************************************************************************
 100:D:/fchai/work/i-cube/I-CUBE-HUAWEI/Middlewares/Third_Party/Huawei/iot_link/os/liteos/base/core\los_sys.c **** Function   : osCpuTick2MS
 101:D:/fchai/work/i-cube/I-CUBE-HUAWEI/Middlewares/Third_Party/Huawei/iot_link/os/liteos/base/core\los_sys.c **** Description: cycle convert to milliseconds
 102:D:/fchai/work/i-cube/I-CUBE-HUAWEI/Middlewares/Third_Party/Huawei/iot_link/os/liteos/base/core\los_sys.c **** Input      : uwInterval ---------- cycle
 103:D:/fchai/work/i-cube/I-CUBE-HUAWEI/Middlewares/Third_Party/Huawei/iot_link/os/liteos/base/core\los_sys.c **** Output     : puwUsHi    ---------- High 32 milliseconds
 104:D:/fchai/work/i-cube/I-CUBE-HUAWEI/Middlewares/Third_Party/Huawei/iot_link/os/liteos/base/core\los_sys.c ****              puwUsLo    ---------- Low 32 milliseconds
ARM GAS  T:\msys\tmp\ccYAhFFW.s 			page 6


 105:D:/fchai/work/i-cube/I-CUBE-HUAWEI/Middlewares/Third_Party/Huawei/iot_link/os/liteos/base/core\los_sys.c **** Return     : LOS_OK on success ,or error code on failure
 106:D:/fchai/work/i-cube/I-CUBE-HUAWEI/Middlewares/Third_Party/Huawei/iot_link/os/liteos/base/core\los_sys.c **** *****************************************************************************/
 107:D:/fchai/work/i-cube/I-CUBE-HUAWEI/Middlewares/Third_Party/Huawei/iot_link/os/liteos/base/core\los_sys.c **** LITE_OS_SEC_TEXT_INIT UINT32 osCpuTick2MS(CPU_TICK *pstCpuTick, UINT32 *puwMsHi, UINT32 *puwMsLo)
 108:D:/fchai/work/i-cube/I-CUBE-HUAWEI/Middlewares/Third_Party/Huawei/iot_link/os/liteos/base/core\los_sys.c **** {
 189              		.loc 1 108 1 is_stmt 1 view -0
 190              		.cfi_startproc
 191              		@ args = 0, pretend = 0, frame = 0
 192              		@ frame_needed = 0, uses_anonymous_args = 0
 109:D:/fchai/work/i-cube/I-CUBE-HUAWEI/Middlewares/Third_Party/Huawei/iot_link/os/liteos/base/core\los_sys.c ****     UINT64 ullCpuTick;
 193              		.loc 1 109 5 view .LVU27
 110:D:/fchai/work/i-cube/I-CUBE-HUAWEI/Middlewares/Third_Party/Huawei/iot_link/os/liteos/base/core\los_sys.c ****     double dTemp;
 194              		.loc 1 110 5 view .LVU28
 111:D:/fchai/work/i-cube/I-CUBE-HUAWEI/Middlewares/Third_Party/Huawei/iot_link/os/liteos/base/core\los_sys.c **** 
 112:D:/fchai/work/i-cube/I-CUBE-HUAWEI/Middlewares/Third_Party/Huawei/iot_link/os/liteos/base/core\los_sys.c ****     if ( (NULL == pstCpuTick) || (NULL == puwMsHi) || (NULL == puwMsLo) )
 195              		.loc 1 112 5 view .LVU29
 196              		.loc 1 112 8 is_stmt 0 view .LVU30
 197 0000 00B3     		cbz	r0, .L19
 108:D:/fchai/work/i-cube/I-CUBE-HUAWEI/Middlewares/Third_Party/Huawei/iot_link/os/liteos/base/core\los_sys.c ****     UINT64 ullCpuTick;
 198              		.loc 1 108 1 discriminator 1 view .LVU31
 199 0002 F8B5     		push	{r3, r4, r5, r6, r7, lr}
 200              	.LCFI3:
 201              		.cfi_def_cfa_offset 24
 202              		.cfi_offset 3, -24
 203              		.cfi_offset 4, -20
 204              		.cfi_offset 5, -16
 205              		.cfi_offset 6, -12
 206              		.cfi_offset 7, -8
 207              		.cfi_offset 14, -4
 208 0004 0C46     		mov	r4, r1
 209              		.loc 1 112 31 discriminator 1 view .LVU32
 210 0006 D9B1     		cbz	r1, .L21
 211 0008 1546     		mov	r5, r2
 212              		.loc 1 112 52 discriminator 2 view .LVU33
 213 000a CAB1     		cbz	r2, .L21
 113:D:/fchai/work/i-cube/I-CUBE-HUAWEI/Middlewares/Third_Party/Huawei/iot_link/os/liteos/base/core\los_sys.c ****     {
 114:D:/fchai/work/i-cube/I-CUBE-HUAWEI/Middlewares/Third_Party/Huawei/iot_link/os/liteos/base/core\los_sys.c ****         return LOS_ERRNO_SYS_PTR_NULL;
 115:D:/fchai/work/i-cube/I-CUBE-HUAWEI/Middlewares/Third_Party/Huawei/iot_link/os/liteos/base/core\los_sys.c ****     }
 116:D:/fchai/work/i-cube/I-CUBE-HUAWEI/Middlewares/Third_Party/Huawei/iot_link/os/liteos/base/core\los_sys.c **** 
 117:D:/fchai/work/i-cube/I-CUBE-HUAWEI/Middlewares/Third_Party/Huawei/iot_link/os/liteos/base/core\los_sys.c ****     ullCpuTick = ((UINT64)pstCpuTick->uwCntHi << OS_SYS_MV_32_BIT) | pstCpuTick->uwCntLo;
 214              		.loc 1 117 5 is_stmt 1 view .LVU34
 215              	.LVL9:
 118:D:/fchai/work/i-cube/I-CUBE-HUAWEI/Middlewares/Third_Party/Huawei/iot_link/os/liteos/base/core\los_sys.c ****     dTemp = ullCpuTick / (((double)OS_SYS_CLOCK) / OS_SYS_MS_PER_SECOND); /*lint !e160 !e653 !e40*/
 216              		.loc 1 118 5 view .LVU35
 217              		.loc 1 118 24 is_stmt 0 view .LVU36
 218 000c D0E90010 		ldrd	r1, r0, [r0]
 219              	.LVL10:
 220              		.loc 1 118 24 view .LVU37
 221 0010 FFF7FEFF 		bl	__aeabi_ul2d
 222              	.LVL11:
 223              		.loc 1 118 28 view .LVU38
 224 0014 0C4B     		ldr	r3, .L26
 225              		.loc 1 118 24 view .LVU39
 226 0016 0646     		mov	r6, r0
 227              		.loc 1 118 28 view .LVU40
 228 0018 1868     		ldr	r0, [r3]
 229              		.loc 1 118 24 view .LVU41
 230 001a 0F46     		mov	r7, r1
ARM GAS  T:\msys\tmp\ccYAhFFW.s 			page 7


 231              		.loc 1 118 28 view .LVU42
 232 001c FFF7FEFF 		bl	__aeabi_ui2d
 233              	.LVL12:
 234              		.loc 1 118 50 view .LVU43
 235 0020 0A4B     		ldr	r3, .L26+4
 236 0022 0022     		movs	r2, #0
 237 0024 FFF7FEFF 		bl	__aeabi_ddiv
 238              	.LVL13:
 239 0028 0246     		mov	r2, r0
 240 002a 0B46     		mov	r3, r1
 241              		.loc 1 118 11 view .LVU44
 242 002c 3046     		mov	r0, r6
 243 002e 3946     		mov	r1, r7
 244 0030 FFF7FEFF 		bl	__aeabi_ddiv
 245              	.LVL14:
 119:D:/fchai/work/i-cube/I-CUBE-HUAWEI/Middlewares/Third_Party/Huawei/iot_link/os/liteos/base/core\los_sys.c ****     ullCpuTick = (UINT64)dTemp;
 246              		.loc 1 119 5 is_stmt 1 view .LVU45
 247              		.loc 1 119 16 is_stmt 0 view .LVU46
 248 0034 FFF7FEFF 		bl	__aeabi_d2ulz
 249              	.LVL15:
 120:D:/fchai/work/i-cube/I-CUBE-HUAWEI/Middlewares/Third_Party/Huawei/iot_link/os/liteos/base/core\los_sys.c **** 
 121:D:/fchai/work/i-cube/I-CUBE-HUAWEI/Middlewares/Third_Party/Huawei/iot_link/os/liteos/base/core\los_sys.c ****     *puwMsLo = (UINT32)ullCpuTick;
 250              		.loc 1 121 5 is_stmt 1 view .LVU47
 251              		.loc 1 121 16 is_stmt 0 view .LVU48
 252 0038 2860     		str	r0, [r5]
 122:D:/fchai/work/i-cube/I-CUBE-HUAWEI/Middlewares/Third_Party/Huawei/iot_link/os/liteos/base/core\los_sys.c ****     *puwMsHi = (UINT32)(ullCpuTick >> OS_SYS_MV_32_BIT);
 253              		.loc 1 122 5 is_stmt 1 view .LVU49
 123:D:/fchai/work/i-cube/I-CUBE-HUAWEI/Middlewares/Third_Party/Huawei/iot_link/os/liteos/base/core\los_sys.c **** 
 124:D:/fchai/work/i-cube/I-CUBE-HUAWEI/Middlewares/Third_Party/Huawei/iot_link/os/liteos/base/core\los_sys.c ****     return LOS_OK;
 254              		.loc 1 124 12 is_stmt 0 view .LVU50
 255 003a 0020     		movs	r0, #0
 256              	.LVL16:
 122:D:/fchai/work/i-cube/I-CUBE-HUAWEI/Middlewares/Third_Party/Huawei/iot_link/os/liteos/base/core\los_sys.c ****     *puwMsHi = (UINT32)(ullCpuTick >> OS_SYS_MV_32_BIT);
 257              		.loc 1 122 16 view .LVU51
 258 003c 2160     		str	r1, [r4]
 259              	.LVL17:
 260              		.loc 1 124 5 is_stmt 1 view .LVU52
 125:D:/fchai/work/i-cube/I-CUBE-HUAWEI/Middlewares/Third_Party/Huawei/iot_link/os/liteos/base/core\los_sys.c **** }
 261              		.loc 1 125 1 is_stmt 0 view .LVU53
 262 003e F8BD     		pop	{r3, r4, r5, r6, r7, pc}
 263              	.LVL18:
 264              	.L21:
 114:D:/fchai/work/i-cube/I-CUBE-HUAWEI/Middlewares/Third_Party/Huawei/iot_link/os/liteos/base/core\los_sys.c ****     }
 265              		.loc 1 114 16 view .LVU54
 266 0040 0348     		ldr	r0, .L26+8
 267              	.LVL19:
 268              		.loc 1 125 1 view .LVU55
 269 0042 F8BD     		pop	{r3, r4, r5, r6, r7, pc}
 270              	.LVL20:
 271              	.L19:
 272              	.LCFI4:
 273              		.cfi_def_cfa_offset 0
 274              		.cfi_restore 3
 275              		.cfi_restore 4
 276              		.cfi_restore 5
 277              		.cfi_restore 6
 278              		.cfi_restore 7
ARM GAS  T:\msys\tmp\ccYAhFFW.s 			page 8


 279              		.cfi_restore 14
 114:D:/fchai/work/i-cube/I-CUBE-HUAWEI/Middlewares/Third_Party/Huawei/iot_link/os/liteos/base/core\los_sys.c ****     }
 280              		.loc 1 114 16 view .LVU56
 281 0044 0248     		ldr	r0, .L26+8
 282              	.LVL21:
 283              		.loc 1 125 1 view .LVU57
 284 0046 7047     		bx	lr
 285              	.L27:
 286              		.align	2
 287              	.L26:
 288 0048 00000000 		.word	SystemCoreClock
 289 004c 00408F40 		.word	1083129856
 290 0050 10000002 		.word	33554448
 291              		.cfi_endproc
 292              	.LFE139:
 294              		.section	.text.osCpuTick2US,"ax",%progbits
 295              		.align	1
 296              		.p2align 2,,3
 297              		.global	osCpuTick2US
 298              		.syntax unified
 299              		.thumb
 300              		.thumb_func
 301              		.fpu fpv4-sp-d16
 303              	osCpuTick2US:
 304              	.LVL22:
 305              	.LFB140:
 126:D:/fchai/work/i-cube/I-CUBE-HUAWEI/Middlewares/Third_Party/Huawei/iot_link/os/liteos/base/core\los_sys.c **** 
 127:D:/fchai/work/i-cube/I-CUBE-HUAWEI/Middlewares/Third_Party/Huawei/iot_link/os/liteos/base/core\los_sys.c **** /*****************************************************************************
 128:D:/fchai/work/i-cube/I-CUBE-HUAWEI/Middlewares/Third_Party/Huawei/iot_link/os/liteos/base/core\los_sys.c **** Function   : osCpuTick2US
 129:D:/fchai/work/i-cube/I-CUBE-HUAWEI/Middlewares/Third_Party/Huawei/iot_link/os/liteos/base/core\los_sys.c **** Description: cycle convert to Microsecond
 130:D:/fchai/work/i-cube/I-CUBE-HUAWEI/Middlewares/Third_Party/Huawei/iot_link/os/liteos/base/core\los_sys.c **** Input      : uwInterval ---------- cycle
 131:D:/fchai/work/i-cube/I-CUBE-HUAWEI/Middlewares/Third_Party/Huawei/iot_link/os/liteos/base/core\los_sys.c **** Output     : puwUsHi    ---------- High 32 Microsecond
 132:D:/fchai/work/i-cube/I-CUBE-HUAWEI/Middlewares/Third_Party/Huawei/iot_link/os/liteos/base/core\los_sys.c ****              puwUsLo    ---------- Low 32 Microsecond
 133:D:/fchai/work/i-cube/I-CUBE-HUAWEI/Middlewares/Third_Party/Huawei/iot_link/os/liteos/base/core\los_sys.c **** Return     : LOS_OK on success ,or error code on failure
 134:D:/fchai/work/i-cube/I-CUBE-HUAWEI/Middlewares/Third_Party/Huawei/iot_link/os/liteos/base/core\los_sys.c **** *****************************************************************************/
 135:D:/fchai/work/i-cube/I-CUBE-HUAWEI/Middlewares/Third_Party/Huawei/iot_link/os/liteos/base/core\los_sys.c **** LITE_OS_SEC_TEXT_INIT UINT32 osCpuTick2US(CPU_TICK *pstCpuTick, UINT32 *puwUsHi, UINT32 *puwUsLo)
 136:D:/fchai/work/i-cube/I-CUBE-HUAWEI/Middlewares/Third_Party/Huawei/iot_link/os/liteos/base/core\los_sys.c **** {
 306              		.loc 1 136 1 is_stmt 1 view -0
 307              		.cfi_startproc
 308              		@ args = 0, pretend = 0, frame = 0
 309              		@ frame_needed = 0, uses_anonymous_args = 0
 137:D:/fchai/work/i-cube/I-CUBE-HUAWEI/Middlewares/Third_Party/Huawei/iot_link/os/liteos/base/core\los_sys.c ****     UINT64 ullCpuTick;
 310              		.loc 1 137 5 view .LVU59
 138:D:/fchai/work/i-cube/I-CUBE-HUAWEI/Middlewares/Third_Party/Huawei/iot_link/os/liteos/base/core\los_sys.c ****     double dTemp;
 311              		.loc 1 138 5 view .LVU60
 139:D:/fchai/work/i-cube/I-CUBE-HUAWEI/Middlewares/Third_Party/Huawei/iot_link/os/liteos/base/core\los_sys.c **** 
 140:D:/fchai/work/i-cube/I-CUBE-HUAWEI/Middlewares/Third_Party/Huawei/iot_link/os/liteos/base/core\los_sys.c ****     if ( (NULL == pstCpuTick) || (NULL == puwUsHi) || (NULL == puwUsLo) )
 312              		.loc 1 140 5 view .LVU61
 313              		.loc 1 140 8 is_stmt 0 view .LVU62
 314 0000 08B3     		cbz	r0, .L30
 136:D:/fchai/work/i-cube/I-CUBE-HUAWEI/Middlewares/Third_Party/Huawei/iot_link/os/liteos/base/core\los_sys.c ****     UINT64 ullCpuTick;
 315              		.loc 1 136 1 discriminator 1 view .LVU63
 316 0002 F8B5     		push	{r3, r4, r5, r6, r7, lr}
 317              	.LCFI5:
 318              		.cfi_def_cfa_offset 24
 319              		.cfi_offset 3, -24
 320              		.cfi_offset 4, -20
ARM GAS  T:\msys\tmp\ccYAhFFW.s 			page 9


 321              		.cfi_offset 5, -16
 322              		.cfi_offset 6, -12
 323              		.cfi_offset 7, -8
 324              		.cfi_offset 14, -4
 325 0004 0C46     		mov	r4, r1
 326              		.loc 1 140 31 discriminator 1 view .LVU64
 327 0006 E1B1     		cbz	r1, .L32
 328 0008 1546     		mov	r5, r2
 329              		.loc 1 140 52 discriminator 2 view .LVU65
 330 000a D2B1     		cbz	r2, .L32
 141:D:/fchai/work/i-cube/I-CUBE-HUAWEI/Middlewares/Third_Party/Huawei/iot_link/os/liteos/base/core\los_sys.c ****     {
 142:D:/fchai/work/i-cube/I-CUBE-HUAWEI/Middlewares/Third_Party/Huawei/iot_link/os/liteos/base/core\los_sys.c ****         return LOS_ERRNO_SYS_PTR_NULL;
 143:D:/fchai/work/i-cube/I-CUBE-HUAWEI/Middlewares/Third_Party/Huawei/iot_link/os/liteos/base/core\los_sys.c ****     }
 144:D:/fchai/work/i-cube/I-CUBE-HUAWEI/Middlewares/Third_Party/Huawei/iot_link/os/liteos/base/core\los_sys.c **** 
 145:D:/fchai/work/i-cube/I-CUBE-HUAWEI/Middlewares/Third_Party/Huawei/iot_link/os/liteos/base/core\los_sys.c ****     ullCpuTick = ((UINT64)pstCpuTick->uwCntHi << OS_SYS_MV_32_BIT) | pstCpuTick->uwCntLo;
 331              		.loc 1 145 5 is_stmt 1 view .LVU66
 332              	.LVL23:
 146:D:/fchai/work/i-cube/I-CUBE-HUAWEI/Middlewares/Third_Party/Huawei/iot_link/os/liteos/base/core\los_sys.c ****     dTemp = ullCpuTick / (((double)OS_SYS_CLOCK) / OS_SYS_US_PER_SECOND); /*lint !e160 !e653 !e40*/
 333              		.loc 1 146 5 view .LVU67
 334              		.loc 1 146 24 is_stmt 0 view .LVU68
 335 000c D0E90010 		ldrd	r1, r0, [r0]
 336              	.LVL24:
 337              		.loc 1 146 24 view .LVU69
 338 0010 FFF7FEFF 		bl	__aeabi_ul2d
 339              	.LVL25:
 340              		.loc 1 146 28 view .LVU70
 341 0014 104B     		ldr	r3, .L37+8
 342              		.loc 1 146 24 view .LVU71
 343 0016 0646     		mov	r6, r0
 344              		.loc 1 146 28 view .LVU72
 345 0018 1868     		ldr	r0, [r3]
 346              		.loc 1 146 24 view .LVU73
 347 001a 0F46     		mov	r7, r1
 348              		.loc 1 146 28 view .LVU74
 349 001c FFF7FEFF 		bl	__aeabi_ui2d
 350              	.LVL26:
 351              		.loc 1 146 50 view .LVU75
 352 0020 0BA3     		adr	r3, .L37
 353 0022 D3E90023 		ldrd	r2, [r3]
 354 0026 FFF7FEFF 		bl	__aeabi_ddiv
 355              	.LVL27:
 356 002a 0246     		mov	r2, r0
 357 002c 0B46     		mov	r3, r1
 358              		.loc 1 146 11 view .LVU76
 359 002e 3046     		mov	r0, r6
 360 0030 3946     		mov	r1, r7
 361 0032 FFF7FEFF 		bl	__aeabi_ddiv
 362              	.LVL28:
 147:D:/fchai/work/i-cube/I-CUBE-HUAWEI/Middlewares/Third_Party/Huawei/iot_link/os/liteos/base/core\los_sys.c ****     ullCpuTick = (UINT64)dTemp;
 363              		.loc 1 147 5 is_stmt 1 view .LVU77
 364              		.loc 1 147 16 is_stmt 0 view .LVU78
 365 0036 FFF7FEFF 		bl	__aeabi_d2ulz
 366              	.LVL29:
 148:D:/fchai/work/i-cube/I-CUBE-HUAWEI/Middlewares/Third_Party/Huawei/iot_link/os/liteos/base/core\los_sys.c **** 
 149:D:/fchai/work/i-cube/I-CUBE-HUAWEI/Middlewares/Third_Party/Huawei/iot_link/os/liteos/base/core\los_sys.c ****     *puwUsLo = (UINT32)ullCpuTick;
 367              		.loc 1 149 5 is_stmt 1 view .LVU79
 368              		.loc 1 149 16 is_stmt 0 view .LVU80
ARM GAS  T:\msys\tmp\ccYAhFFW.s 			page 10


 369 003a 2860     		str	r0, [r5]
 150:D:/fchai/work/i-cube/I-CUBE-HUAWEI/Middlewares/Third_Party/Huawei/iot_link/os/liteos/base/core\los_sys.c ****     *puwUsHi = (UINT32)(ullCpuTick >> OS_SYS_MV_32_BIT);
 370              		.loc 1 150 5 is_stmt 1 view .LVU81
 151:D:/fchai/work/i-cube/I-CUBE-HUAWEI/Middlewares/Third_Party/Huawei/iot_link/os/liteos/base/core\los_sys.c **** 
 152:D:/fchai/work/i-cube/I-CUBE-HUAWEI/Middlewares/Third_Party/Huawei/iot_link/os/liteos/base/core\los_sys.c ****     return LOS_OK;
 371              		.loc 1 152 12 is_stmt 0 view .LVU82
 372 003c 0020     		movs	r0, #0
 373              	.LVL30:
 150:D:/fchai/work/i-cube/I-CUBE-HUAWEI/Middlewares/Third_Party/Huawei/iot_link/os/liteos/base/core\los_sys.c ****     *puwUsHi = (UINT32)(ullCpuTick >> OS_SYS_MV_32_BIT);
 374              		.loc 1 150 16 view .LVU83
 375 003e 2160     		str	r1, [r4]
 376              	.LVL31:
 377              		.loc 1 152 5 is_stmt 1 view .LVU84
 153:D:/fchai/work/i-cube/I-CUBE-HUAWEI/Middlewares/Third_Party/Huawei/iot_link/os/liteos/base/core\los_sys.c **** }
 378              		.loc 1 153 1 is_stmt 0 view .LVU85
 379 0040 F8BD     		pop	{r3, r4, r5, r6, r7, pc}
 380              	.LVL32:
 381              	.L32:
 142:D:/fchai/work/i-cube/I-CUBE-HUAWEI/Middlewares/Third_Party/Huawei/iot_link/os/liteos/base/core\los_sys.c ****     }
 382              		.loc 1 142 16 view .LVU86
 383 0042 0648     		ldr	r0, .L37+12
 384              	.LVL33:
 385              		.loc 1 153 1 view .LVU87
 386 0044 F8BD     		pop	{r3, r4, r5, r6, r7, pc}
 387              	.LVL34:
 388              	.L30:
 389              	.LCFI6:
 390              		.cfi_def_cfa_offset 0
 391              		.cfi_restore 3
 392              		.cfi_restore 4
 393              		.cfi_restore 5
 394              		.cfi_restore 6
 395              		.cfi_restore 7
 396              		.cfi_restore 14
 142:D:/fchai/work/i-cube/I-CUBE-HUAWEI/Middlewares/Third_Party/Huawei/iot_link/os/liteos/base/core\los_sys.c ****     }
 397              		.loc 1 142 16 view .LVU88
 398 0046 0548     		ldr	r0, .L37+12
 399              	.LVL35:
 400              		.loc 1 153 1 view .LVU89
 401 0048 7047     		bx	lr
 402              	.L38:
 403 004a 00BFAFF3 		.align	3
 403      0080
 404              	.L37:
 405 0050 00000000 		.word	0
 406 0054 80842E41 		.word	1093567616
 407 0058 00000000 		.word	SystemCoreClock
 408 005c 10000002 		.word	33554448
 409              		.cfi_endproc
 410              	.LFE140:
 412              		.text
 413              	.Letext0:
 414              		.file 2 "t:\\msys\\3rd\\gcc-arm-none-eabi-9-2020-q2-update-win32\\lib\\gcc\\arm-none-eabi\\9.3.1\\
 415              		.file 3 "t:\\msys\\3rd\\gcc-arm-none-eabi-9-2020-q2-update-win32\\arm-none-eabi\\include\\machine\
 416              		.file 4 "t:\\msys\\3rd\\gcc-arm-none-eabi-9-2020-q2-update-win32\\arm-none-eabi\\include\\sys\\_ty
 417              		.file 5 "t:\\msys\\3rd\\gcc-arm-none-eabi-9-2020-q2-update-win32\\arm-none-eabi\\include\\sys\\ree
 418              		.file 6 "t:\\msys\\3rd\\gcc-arm-none-eabi-9-2020-q2-update-win32\\arm-none-eabi\\include\\sys\\loc
ARM GAS  T:\msys\tmp\ccYAhFFW.s 			page 11


 419              		.file 7 "D:/fchai/work/i-cube/I-CUBE-HUAWEI/Middlewares/Third_Party/Huawei/iot_link/os/liteos/incl
 420              		.file 8 "t:\\msys\\3rd\\gcc-arm-none-eabi-9-2020-q2-update-win32\\arm-none-eabi\\include\\sys\\_st
 421              		.file 9 "D:/fchai/work/i-cube/I-CUBE-HUAWEI/Middlewares/Third_Party/Huawei/iot_link/os/liteos/arch
 422              		.file 10 "D:/fchai/work/i-cube/I-CUBE-HUAWEI/Drivers/CMSIS/Device/ST/STM32L4xx/Include/system_stm3
 423              		.file 11 "D:/fchai/work/i-cube/I-CUBE-HUAWEI/Drivers/STM32L4xx_HAL_Driver/Inc/stm32l4xx_hal_def.h"
 424              		.file 12 "D:/fchai/work/i-cube/I-CUBE-HUAWEI/Drivers/STM32L4xx_HAL_Driver/Inc/stm32l4xx_hal_flash.
 425              		.file 13 "D:/fchai/work/i-cube/I-CUBE-HUAWEI/Drivers/STM32L4xx_HAL_Driver/Inc/stm32l4xx_hal.h"
 426              		.file 14 "D:/fchai/work/i-cube/I-CUBE-HUAWEI/Middlewares/Third_Party/Huawei/iot_link/os/liteos/inc
 427              		.file 15 "D:/fchai/work/i-cube/I-CUBE-HUAWEI/Middlewares/Third_Party/Huawei/iot_link/os/liteos/inc
 428              		.file 16 "D:/fchai/work/i-cube/I-CUBE-HUAWEI/Middlewares/Third_Party/Huawei/iot_link/os/liteos/bas
 429              		.file 17 "D:/fchai/work/i-cube/I-CUBE-HUAWEI/Middlewares/Third_Party/Huawei/iot_link/os/liteos/arc
 430              		.file 18 "D:/fchai/work/i-cube/I-CUBE-HUAWEI/Middlewares/Third_Party/Huawei/iot_link/os/liteos/inc
 431              		.file 19 "D:/fchai/work/i-cube/I-CUBE-HUAWEI/Middlewares/Third_Party/Huawei/iot_link/os/liteos/bas
ARM GAS  T:\msys\tmp\ccYAhFFW.s 			page 12

