ARM GAS  T:\msys\tmp\ccehPeV4.s 			page 1


   1              		.cpu cortex-m4
   2              		.eabi_attribute 27, 1
   3              		.eabi_attribute 28, 1
   4              		.eabi_attribute 20, 1
   5              		.eabi_attribute 21, 1
   6              		.eabi_attribute 23, 3
   7              		.eabi_attribute 24, 1
   8              		.eabi_attribute 25, 1
   9              		.eabi_attribute 26, 1
  10              		.eabi_attribute 30, 2
  11              		.eabi_attribute 34, 1
  12              		.eabi_attribute 18, 4
  13              		.file	"los_task.c"
  14              		.text
  15              	.Ltext0:
  16              		.cfi_sections	.debug_frame
  17              		.section	.text.osIdleTask,"ax",%progbits
  18              		.align	1
  19              		.p2align 2,,3
  20              		.weak	osIdleTask
  21              		.arch armv7e-m
  22              		.syntax unified
  23              		.thumb
  24              		.thumb_func
  25              		.fpu fpv4-sp-d16
  27              	osIdleTask:
  28              	.LFB133:
  29              		.file 1 "D:/fchai/work/i-cube/I-CUBE-HUAWEI/Middlewares/Third_Party/Huawei/iot_link/os/liteos/base
   1:D:/fchai/work/i-cube/I-CUBE-HUAWEI/Middlewares/Third_Party/Huawei/iot_link/os/liteos/base/core\los_task.c **** /*----------------------------------------------------------------------------
   2:D:/fchai/work/i-cube/I-CUBE-HUAWEI/Middlewares/Third_Party/Huawei/iot_link/os/liteos/base/core\los_task.c ****  * Copyright (c) <2013-2015>, <Huawei Technologies Co., Ltd>
   3:D:/fchai/work/i-cube/I-CUBE-HUAWEI/Middlewares/Third_Party/Huawei/iot_link/os/liteos/base/core\los_task.c ****  * All rights reserved.
   4:D:/fchai/work/i-cube/I-CUBE-HUAWEI/Middlewares/Third_Party/Huawei/iot_link/os/liteos/base/core\los_task.c ****  * Redistribution and use in source and binary forms, with or without modification,
   5:D:/fchai/work/i-cube/I-CUBE-HUAWEI/Middlewares/Third_Party/Huawei/iot_link/os/liteos/base/core\los_task.c ****  * are permitted provided that the following conditions are met:
   6:D:/fchai/work/i-cube/I-CUBE-HUAWEI/Middlewares/Third_Party/Huawei/iot_link/os/liteos/base/core\los_task.c ****  * 1. Redistributions of source code must retain the above copyright notice, this list of
   7:D:/fchai/work/i-cube/I-CUBE-HUAWEI/Middlewares/Third_Party/Huawei/iot_link/os/liteos/base/core\los_task.c ****  * conditions and the following disclaimer.
   8:D:/fchai/work/i-cube/I-CUBE-HUAWEI/Middlewares/Third_Party/Huawei/iot_link/os/liteos/base/core\los_task.c ****  * 2. Redistributions in binary form must reproduce the above copyright notice, this list
   9:D:/fchai/work/i-cube/I-CUBE-HUAWEI/Middlewares/Third_Party/Huawei/iot_link/os/liteos/base/core\los_task.c ****  * of conditions and the following disclaimer in the documentation and/or other materials
  10:D:/fchai/work/i-cube/I-CUBE-HUAWEI/Middlewares/Third_Party/Huawei/iot_link/os/liteos/base/core\los_task.c ****  * provided with the distribution.
  11:D:/fchai/work/i-cube/I-CUBE-HUAWEI/Middlewares/Third_Party/Huawei/iot_link/os/liteos/base/core\los_task.c ****  * 3. Neither the name of the copyright holder nor the names of its contributors may be used
  12:D:/fchai/work/i-cube/I-CUBE-HUAWEI/Middlewares/Third_Party/Huawei/iot_link/os/liteos/base/core\los_task.c ****  * to endorse or promote products derived from this software without specific prior written
  13:D:/fchai/work/i-cube/I-CUBE-HUAWEI/Middlewares/Third_Party/Huawei/iot_link/os/liteos/base/core\los_task.c ****  * permission.
  14:D:/fchai/work/i-cube/I-CUBE-HUAWEI/Middlewares/Third_Party/Huawei/iot_link/os/liteos/base/core\los_task.c ****  * THIS SOFTWARE IS PROVIDED BY THE COPYRIGHT HOLDERS AND CONTRIBUTORS
  15:D:/fchai/work/i-cube/I-CUBE-HUAWEI/Middlewares/Third_Party/Huawei/iot_link/os/liteos/base/core\los_task.c ****  * "AS IS" AND ANY EXPRESS OR IMPLIED WARRANTIES, INCLUDING, BUT NOT LIMITED TO,
  16:D:/fchai/work/i-cube/I-CUBE-HUAWEI/Middlewares/Third_Party/Huawei/iot_link/os/liteos/base/core\los_task.c ****  * THE IMPLIED WARRANTIES OF MERCHANTABILITY AND FITNESS FOR A PARTICULAR
  17:D:/fchai/work/i-cube/I-CUBE-HUAWEI/Middlewares/Third_Party/Huawei/iot_link/os/liteos/base/core\los_task.c ****  * PURPOSE ARE DISCLAIMED. IN NO EVENT SHALL THE COPYRIGHT HOLDER OR
  18:D:/fchai/work/i-cube/I-CUBE-HUAWEI/Middlewares/Third_Party/Huawei/iot_link/os/liteos/base/core\los_task.c ****  * CONTRIBUTORS BE LIABLE FOR ANY DIRECT, INDIRECT, INCIDENTAL, SPECIAL,
  19:D:/fchai/work/i-cube/I-CUBE-HUAWEI/Middlewares/Third_Party/Huawei/iot_link/os/liteos/base/core\los_task.c ****  * EXEMPLARY, OR CONSEQUENTIAL DAMAGES (INCLUDING, BUT NOT LIMITED TO,
  20:D:/fchai/work/i-cube/I-CUBE-HUAWEI/Middlewares/Third_Party/Huawei/iot_link/os/liteos/base/core\los_task.c ****  * PROCUREMENT OF SUBSTITUTE GOODS OR SERVICES; LOSS OF USE, DATA, OR PROFITS;
  21:D:/fchai/work/i-cube/I-CUBE-HUAWEI/Middlewares/Third_Party/Huawei/iot_link/os/liteos/base/core\los_task.c ****  * OR BUSINESS INTERRUPTION) HOWEVER CAUSED AND ON ANY THEORY OF LIABILITY,
  22:D:/fchai/work/i-cube/I-CUBE-HUAWEI/Middlewares/Third_Party/Huawei/iot_link/os/liteos/base/core\los_task.c ****  * WHETHER IN CONTRACT, STRICT LIABILITY, OR TORT (INCLUDING NEGLIGENCE OR
  23:D:/fchai/work/i-cube/I-CUBE-HUAWEI/Middlewares/Third_Party/Huawei/iot_link/os/liteos/base/core\los_task.c ****  * OTHERWISE) ARISING IN ANY WAY OUT OF THE USE OF THIS SOFTWARE, EVEN IF
  24:D:/fchai/work/i-cube/I-CUBE-HUAWEI/Middlewares/Third_Party/Huawei/iot_link/os/liteos/base/core\los_task.c ****  * ADVISED OF THE POSSIBILITY OF SUCH DAMAGE.
  25:D:/fchai/work/i-cube/I-CUBE-HUAWEI/Middlewares/Third_Party/Huawei/iot_link/os/liteos/base/core\los_task.c ****  *---------------------------------------------------------------------------*/
  26:D:/fchai/work/i-cube/I-CUBE-HUAWEI/Middlewares/Third_Party/Huawei/iot_link/os/liteos/base/core\los_task.c **** /*----------------------------------------------------------------------------
  27:D:/fchai/work/i-cube/I-CUBE-HUAWEI/Middlewares/Third_Party/Huawei/iot_link/os/liteos/base/core\los_task.c ****  * Notice of Export Control Law
  28:D:/fchai/work/i-cube/I-CUBE-HUAWEI/Middlewares/Third_Party/Huawei/iot_link/os/liteos/base/core\los_task.c ****  * ===============================================
  29:D:/fchai/work/i-cube/I-CUBE-HUAWEI/Middlewares/Third_Party/Huawei/iot_link/os/liteos/base/core\los_task.c ****  * Huawei LiteOS may be subject to applicable export control laws and regulations, which might
ARM GAS  T:\msys\tmp\ccehPeV4.s 			page 2


  30:D:/fchai/work/i-cube/I-CUBE-HUAWEI/Middlewares/Third_Party/Huawei/iot_link/os/liteos/base/core\los_task.c ****  * include those applicable to Huawei LiteOS of U.S. and the country in which you are located.
  31:D:/fchai/work/i-cube/I-CUBE-HUAWEI/Middlewares/Third_Party/Huawei/iot_link/os/liteos/base/core\los_task.c ****  * Import, export and usage of Huawei LiteOS in any manner by you shall be in compliance with such
  32:D:/fchai/work/i-cube/I-CUBE-HUAWEI/Middlewares/Third_Party/Huawei/iot_link/os/liteos/base/core\los_task.c ****  * applicable export control laws and regulations.
  33:D:/fchai/work/i-cube/I-CUBE-HUAWEI/Middlewares/Third_Party/Huawei/iot_link/os/liteos/base/core\los_task.c ****  *---------------------------------------------------------------------------*/
  34:D:/fchai/work/i-cube/I-CUBE-HUAWEI/Middlewares/Third_Party/Huawei/iot_link/os/liteos/base/core\los_task.c **** #include "string.h"
  35:D:/fchai/work/i-cube/I-CUBE-HUAWEI/Middlewares/Third_Party/Huawei/iot_link/os/liteos/base/core\los_task.c **** #include "los_task.inc"
  36:D:/fchai/work/i-cube/I-CUBE-HUAWEI/Middlewares/Third_Party/Huawei/iot_link/os/liteos/base/core\los_task.c **** #include "los_base.ph"
  37:D:/fchai/work/i-cube/I-CUBE-HUAWEI/Middlewares/Third_Party/Huawei/iot_link/os/liteos/base/core\los_task.c **** #include "los_memory.ph"
  38:D:/fchai/work/i-cube/I-CUBE-HUAWEI/Middlewares/Third_Party/Huawei/iot_link/os/liteos/base/core\los_task.c **** #include "los_memstat.ph"
  39:D:/fchai/work/i-cube/I-CUBE-HUAWEI/Middlewares/Third_Party/Huawei/iot_link/os/liteos/base/core\los_task.c **** #include "los_priqueue.ph"
  40:D:/fchai/work/i-cube/I-CUBE-HUAWEI/Middlewares/Third_Party/Huawei/iot_link/os/liteos/base/core\los_task.c **** #include "los_sem.ph"
  41:D:/fchai/work/i-cube/I-CUBE-HUAWEI/Middlewares/Third_Party/Huawei/iot_link/os/liteos/base/core\los_task.c **** #include "los_mux.ph"
  42:D:/fchai/work/i-cube/I-CUBE-HUAWEI/Middlewares/Third_Party/Huawei/iot_link/os/liteos/base/core\los_task.c **** #if (LOSCFG_PLATFORM_EXC == YES)
  43:D:/fchai/work/i-cube/I-CUBE-HUAWEI/Middlewares/Third_Party/Huawei/iot_link/os/liteos/base/core\los_task.c **** #include "los_exc.ph"
  44:D:/fchai/work/i-cube/I-CUBE-HUAWEI/Middlewares/Third_Party/Huawei/iot_link/os/liteos/base/core\los_task.c **** #endif
  45:D:/fchai/work/i-cube/I-CUBE-HUAWEI/Middlewares/Third_Party/Huawei/iot_link/os/liteos/base/core\los_task.c **** #if (LOSCFG_KERNEL_TICKLESS == YES)
  46:D:/fchai/work/i-cube/I-CUBE-HUAWEI/Middlewares/Third_Party/Huawei/iot_link/os/liteos/base/core\los_task.c **** #include "los_tickless.ph"
  47:D:/fchai/work/i-cube/I-CUBE-HUAWEI/Middlewares/Third_Party/Huawei/iot_link/os/liteos/base/core\los_task.c **** #endif
  48:D:/fchai/work/i-cube/I-CUBE-HUAWEI/Middlewares/Third_Party/Huawei/iot_link/os/liteos/base/core\los_task.c **** #if (LOSCFG_BASE_CORE_CPUP == YES)
  49:D:/fchai/work/i-cube/I-CUBE-HUAWEI/Middlewares/Third_Party/Huawei/iot_link/os/liteos/base/core\los_task.c **** #include "los_cpup.ph"
  50:D:/fchai/work/i-cube/I-CUBE-HUAWEI/Middlewares/Third_Party/Huawei/iot_link/os/liteos/base/core\los_task.c **** #endif
  51:D:/fchai/work/i-cube/I-CUBE-HUAWEI/Middlewares/Third_Party/Huawei/iot_link/os/liteos/base/core\los_task.c **** #include "los_hw.h"
  52:D:/fchai/work/i-cube/I-CUBE-HUAWEI/Middlewares/Third_Party/Huawei/iot_link/os/liteos/base/core\los_task.c **** #if (LOSCFG_ENABLE_MPU == YES)
  53:D:/fchai/work/i-cube/I-CUBE-HUAWEI/Middlewares/Third_Party/Huawei/iot_link/os/liteos/base/core\los_task.c **** #include "los_mpu.h"
  54:D:/fchai/work/i-cube/I-CUBE-HUAWEI/Middlewares/Third_Party/Huawei/iot_link/os/liteos/base/core\los_task.c **** #endif
  55:D:/fchai/work/i-cube/I-CUBE-HUAWEI/Middlewares/Third_Party/Huawei/iot_link/os/liteos/base/core\los_task.c **** 
  56:D:/fchai/work/i-cube/I-CUBE-HUAWEI/Middlewares/Third_Party/Huawei/iot_link/os/liteos/base/core\los_task.c **** #ifdef __cplusplus
  57:D:/fchai/work/i-cube/I-CUBE-HUAWEI/Middlewares/Third_Party/Huawei/iot_link/os/liteos/base/core\los_task.c **** #if __cplusplus
  58:D:/fchai/work/i-cube/I-CUBE-HUAWEI/Middlewares/Third_Party/Huawei/iot_link/os/liteos/base/core\los_task.c **** extern "C" {
  59:D:/fchai/work/i-cube/I-CUBE-HUAWEI/Middlewares/Third_Party/Huawei/iot_link/os/liteos/base/core\los_task.c **** #endif /* __cplusplus */
  60:D:/fchai/work/i-cube/I-CUBE-HUAWEI/Middlewares/Third_Party/Huawei/iot_link/os/liteos/base/core\los_task.c **** #endif /* __cplusplus */
  61:D:/fchai/work/i-cube/I-CUBE-HUAWEI/Middlewares/Third_Party/Huawei/iot_link/os/liteos/base/core\los_task.c **** 
  62:D:/fchai/work/i-cube/I-CUBE-HUAWEI/Middlewares/Third_Party/Huawei/iot_link/os/liteos/base/core\los_task.c **** 
  63:D:/fchai/work/i-cube/I-CUBE-HUAWEI/Middlewares/Third_Party/Huawei/iot_link/os/liteos/base/core\los_task.c **** #if (LOSCFG_STATIC_TASK == YES)
  64:D:/fchai/work/i-cube/I-CUBE-HUAWEI/Middlewares/Third_Party/Huawei/iot_link/os/liteos/base/core\los_task.c **** LITE_OS_SEC_BSS LOS_TASK_CB                          *g_apstTaskCBArray[LOSCFG_BASE_CORE_TSK_LIMIT 
  65:D:/fchai/work/i-cube/I-CUBE-HUAWEI/Middlewares/Third_Party/Huawei/iot_link/os/liteos/base/core\los_task.c **** #else
  66:D:/fchai/work/i-cube/I-CUBE-HUAWEI/Middlewares/Third_Party/Huawei/iot_link/os/liteos/base/core\los_task.c **** LITE_OS_SEC_BSS  LOS_TASK_CB                         *g_pstTaskCBArray;
  67:D:/fchai/work/i-cube/I-CUBE-HUAWEI/Middlewares/Third_Party/Huawei/iot_link/os/liteos/base/core\los_task.c **** LITE_OS_SEC_BSS  LOS_DL_LIST                         g_stLosFreeTask;
  68:D:/fchai/work/i-cube/I-CUBE-HUAWEI/Middlewares/Third_Party/Huawei/iot_link/os/liteos/base/core\los_task.c **** LITE_OS_SEC_BSS  LOS_DL_LIST                         g_stTskRecyleList;
  69:D:/fchai/work/i-cube/I-CUBE-HUAWEI/Middlewares/Third_Party/Huawei/iot_link/os/liteos/base/core\los_task.c **** 
  70:D:/fchai/work/i-cube/I-CUBE-HUAWEI/Middlewares/Third_Party/Huawei/iot_link/os/liteos/base/core\los_task.c **** #endif
  71:D:/fchai/work/i-cube/I-CUBE-HUAWEI/Middlewares/Third_Party/Huawei/iot_link/os/liteos/base/core\los_task.c **** 
  72:D:/fchai/work/i-cube/I-CUBE-HUAWEI/Middlewares/Third_Party/Huawei/iot_link/os/liteos/base/core\los_task.c **** 
  73:D:/fchai/work/i-cube/I-CUBE-HUAWEI/Middlewares/Third_Party/Huawei/iot_link/os/liteos/base/core\los_task.c **** LITE_OS_SEC_BSS  ST_LOS_TASK                         g_stLosTask;
  74:D:/fchai/work/i-cube/I-CUBE-HUAWEI/Middlewares/Third_Party/Huawei/iot_link/os/liteos/base/core\los_task.c **** LITE_OS_SEC_BSS  UINT16                              g_usLosTaskLock;
  75:D:/fchai/work/i-cube/I-CUBE-HUAWEI/Middlewares/Third_Party/Huawei/iot_link/os/liteos/base/core\los_task.c **** 
  76:D:/fchai/work/i-cube/I-CUBE-HUAWEI/Middlewares/Third_Party/Huawei/iot_link/os/liteos/base/core\los_task.c **** 
  77:D:/fchai/work/i-cube/I-CUBE-HUAWEI/Middlewares/Third_Party/Huawei/iot_link/os/liteos/base/core\los_task.c **** LITE_OS_SEC_BSS  UINT32                              g_uwTskMaxNum;
  78:D:/fchai/work/i-cube/I-CUBE-HUAWEI/Middlewares/Third_Party/Huawei/iot_link/os/liteos/base/core\los_task.c **** LITE_OS_SEC_BSS  UINT32                              g_uwIdleTaskID;
  79:D:/fchai/work/i-cube/I-CUBE-HUAWEI/Middlewares/Third_Party/Huawei/iot_link/os/liteos/base/core\los_task.c **** LITE_OS_SEC_BSS  UINT32                              g_uwSwtmrTaskID;
  80:D:/fchai/work/i-cube/I-CUBE-HUAWEI/Middlewares/Third_Party/Huawei/iot_link/os/liteos/base/core\los_task.c **** LITE_OS_SEC_BSS  LOS_DL_LIST                         g_stTaskTimerList;
  81:D:/fchai/work/i-cube/I-CUBE-HUAWEI/Middlewares/Third_Party/Huawei/iot_link/os/liteos/base/core\los_task.c **** LITE_OS_SEC_BSS  TSK_SORTLINK_ATTRIBUTE_S            g_stTskSortLink;
  82:D:/fchai/work/i-cube/I-CUBE-HUAWEI/Middlewares/Third_Party/Huawei/iot_link/os/liteos/base/core\los_task.c **** LITE_OS_SEC_BSS  BOOL                                g_bTaskScheduled;
  83:D:/fchai/work/i-cube/I-CUBE-HUAWEI/Middlewares/Third_Party/Huawei/iot_link/os/liteos/base/core\los_task.c **** 
  84:D:/fchai/work/i-cube/I-CUBE-HUAWEI/Middlewares/Third_Party/Huawei/iot_link/os/liteos/base/core\los_task.c **** LITE_OS_SEC_DATA_INIT TSKSWITCHHOOK g_pfnTskSwitchHook = (TSKSWITCHHOOK)NULL; /*lint !e611*/
  85:D:/fchai/work/i-cube/I-CUBE-HUAWEI/Middlewares/Third_Party/Huawei/iot_link/os/liteos/base/core\los_task.c **** #if (LOSCFG_LIB_LIBC_NEWLIB_REENT == YES)
  86:D:/fchai/work/i-cube/I-CUBE-HUAWEI/Middlewares/Third_Party/Huawei/iot_link/os/liteos/base/core\los_task.c **** LITE_OS_SEC_DATA_INIT TSKSWITCHHOOK g_pfnTskSwitchImpurePtrHook = (TSKSWITCHHOOK)NULL; /*lint !e611
ARM GAS  T:\msys\tmp\ccehPeV4.s 			page 3


  87:D:/fchai/work/i-cube/I-CUBE-HUAWEI/Middlewares/Third_Party/Huawei/iot_link/os/liteos/base/core\los_task.c **** #endif
  88:D:/fchai/work/i-cube/I-CUBE-HUAWEI/Middlewares/Third_Party/Huawei/iot_link/os/liteos/base/core\los_task.c **** #if (LOSCFG_BASE_CORE_TSK_MONITOR == YES)
  89:D:/fchai/work/i-cube/I-CUBE-HUAWEI/Middlewares/Third_Party/Huawei/iot_link/os/liteos/base/core\los_task.c **** LITE_OS_SEC_DATA_INIT TSKSWITCHHOOK g_pfnUsrTskSwitchHook = (TSKSWITCHHOOK)NULL; /*lint !e611*/
  90:D:/fchai/work/i-cube/I-CUBE-HUAWEI/Middlewares/Third_Party/Huawei/iot_link/os/liteos/base/core\los_task.c **** #endif /* LOSCFG_BASE_CORE_TSK_MONITOR == YES */
  91:D:/fchai/work/i-cube/I-CUBE-HUAWEI/Middlewares/Third_Party/Huawei/iot_link/os/liteos/base/core\los_task.c **** 
  92:D:/fchai/work/i-cube/I-CUBE-HUAWEI/Middlewares/Third_Party/Huawei/iot_link/os/liteos/base/core\los_task.c **** #if (LOSCFG_BASE_CORE_EXC_TSK_SWITCH == YES)
  93:D:/fchai/work/i-cube/I-CUBE-HUAWEI/Middlewares/Third_Party/Huawei/iot_link/os/liteos/base/core\los_task.c **** LITE_OS_SEC_BSS OS_TASK_SWITCH_INFO g_astTskSwitchInfo;
  94:D:/fchai/work/i-cube/I-CUBE-HUAWEI/Middlewares/Third_Party/Huawei/iot_link/os/liteos/base/core\los_task.c **** #endif
  95:D:/fchai/work/i-cube/I-CUBE-HUAWEI/Middlewares/Third_Party/Huawei/iot_link/os/liteos/base/core\los_task.c **** 
  96:D:/fchai/work/i-cube/I-CUBE-HUAWEI/Middlewares/Third_Party/Huawei/iot_link/os/liteos/base/core\los_task.c **** #define CHECK_TASKID(uwTaskID)\
  97:D:/fchai/work/i-cube/I-CUBE-HUAWEI/Middlewares/Third_Party/Huawei/iot_link/os/liteos/base/core\los_task.c **** {\
  98:D:/fchai/work/i-cube/I-CUBE-HUAWEI/Middlewares/Third_Party/Huawei/iot_link/os/liteos/base/core\los_task.c ****    if (uwTaskID == g_uwIdleTaskID)\
  99:D:/fchai/work/i-cube/I-CUBE-HUAWEI/Middlewares/Third_Party/Huawei/iot_link/os/liteos/base/core\los_task.c ****    {\
 100:D:/fchai/work/i-cube/I-CUBE-HUAWEI/Middlewares/Third_Party/Huawei/iot_link/os/liteos/base/core\los_task.c ****        return LOS_ERRNO_TSK_OPERATE_IDLE;\
 101:D:/fchai/work/i-cube/I-CUBE-HUAWEI/Middlewares/Third_Party/Huawei/iot_link/os/liteos/base/core\los_task.c ****    }\
 102:D:/fchai/work/i-cube/I-CUBE-HUAWEI/Middlewares/Third_Party/Huawei/iot_link/os/liteos/base/core\los_task.c ****    else if (uwTaskID == g_uwSwtmrTaskID)\
 103:D:/fchai/work/i-cube/I-CUBE-HUAWEI/Middlewares/Third_Party/Huawei/iot_link/os/liteos/base/core\los_task.c ****    {\
 104:D:/fchai/work/i-cube/I-CUBE-HUAWEI/Middlewares/Third_Party/Huawei/iot_link/os/liteos/base/core\los_task.c ****        return LOS_ERRNO_TSK_SUSPEND_SWTMR_NOT_ALLOWED;\
 105:D:/fchai/work/i-cube/I-CUBE-HUAWEI/Middlewares/Third_Party/Huawei/iot_link/os/liteos/base/core\los_task.c ****    }\
 106:D:/fchai/work/i-cube/I-CUBE-HUAWEI/Middlewares/Third_Party/Huawei/iot_link/os/liteos/base/core\los_task.c ****    else if (OS_TSK_GET_INDEX(uwTaskID) >= g_uwTskMaxNum)\
 107:D:/fchai/work/i-cube/I-CUBE-HUAWEI/Middlewares/Third_Party/Huawei/iot_link/os/liteos/base/core\los_task.c ****    {\
 108:D:/fchai/work/i-cube/I-CUBE-HUAWEI/Middlewares/Third_Party/Huawei/iot_link/os/liteos/base/core\los_task.c ****        return LOS_ERRNO_TSK_ID_INVALID;\
 109:D:/fchai/work/i-cube/I-CUBE-HUAWEI/Middlewares/Third_Party/Huawei/iot_link/os/liteos/base/core\los_task.c ****    }\
 110:D:/fchai/work/i-cube/I-CUBE-HUAWEI/Middlewares/Third_Party/Huawei/iot_link/os/liteos/base/core\los_task.c **** }
 111:D:/fchai/work/i-cube/I-CUBE-HUAWEI/Middlewares/Third_Party/Huawei/iot_link/os/liteos/base/core\los_task.c **** 
 112:D:/fchai/work/i-cube/I-CUBE-HUAWEI/Middlewares/Third_Party/Huawei/iot_link/os/liteos/base/core\los_task.c **** #if (LOSCFG_KERNEL_TICKLESS == YES)
 113:D:/fchai/work/i-cube/I-CUBE-HUAWEI/Middlewares/Third_Party/Huawei/iot_link/os/liteos/base/core\los_task.c **** LITE_OS_SEC_TEXT_MINOR UINT32 osTaskNextSwitchTimeGet(VOID)
 114:D:/fchai/work/i-cube/I-CUBE-HUAWEI/Middlewares/Third_Party/Huawei/iot_link/os/liteos/base/core\los_task.c **** {
 115:D:/fchai/work/i-cube/I-CUBE-HUAWEI/Middlewares/Third_Party/Huawei/iot_link/os/liteos/base/core\los_task.c ****     LOS_TASK_CB *pstTaskCB;
 116:D:/fchai/work/i-cube/I-CUBE-HUAWEI/Middlewares/Third_Party/Huawei/iot_link/os/liteos/base/core\los_task.c ****     UINT32 uwTaskSortLinkTick = 0;
 117:D:/fchai/work/i-cube/I-CUBE-HUAWEI/Middlewares/Third_Party/Huawei/iot_link/os/liteos/base/core\los_task.c ****     LOS_DL_LIST *pstListObject;
 118:D:/fchai/work/i-cube/I-CUBE-HUAWEI/Middlewares/Third_Party/Huawei/iot_link/os/liteos/base/core\los_task.c ****     UINT32 uwTempTicks = 0;
 119:D:/fchai/work/i-cube/I-CUBE-HUAWEI/Middlewares/Third_Party/Huawei/iot_link/os/liteos/base/core\los_task.c ****     UINT32 uwIndex =0;
 120:D:/fchai/work/i-cube/I-CUBE-HUAWEI/Middlewares/Third_Party/Huawei/iot_link/os/liteos/base/core\los_task.c **** 
 121:D:/fchai/work/i-cube/I-CUBE-HUAWEI/Middlewares/Third_Party/Huawei/iot_link/os/liteos/base/core\los_task.c ****     for (uwIndex = 0; uwIndex < OS_TSK_SORTLINK_LEN; uwIndex++)
 122:D:/fchai/work/i-cube/I-CUBE-HUAWEI/Middlewares/Third_Party/Huawei/iot_link/os/liteos/base/core\los_task.c ****     {
 123:D:/fchai/work/i-cube/I-CUBE-HUAWEI/Middlewares/Third_Party/Huawei/iot_link/os/liteos/base/core\los_task.c ****         pstListObject = g_stTskSortLink.pstSortLink + (g_stTskSortLink.usCursor + uwIndex)%OS_TSK_S
 124:D:/fchai/work/i-cube/I-CUBE-HUAWEI/Middlewares/Third_Party/Huawei/iot_link/os/liteos/base/core\los_task.c ****         if (pstListObject->pstNext != pstListObject)
 125:D:/fchai/work/i-cube/I-CUBE-HUAWEI/Middlewares/Third_Party/Huawei/iot_link/os/liteos/base/core\los_task.c ****         {
 126:D:/fchai/work/i-cube/I-CUBE-HUAWEI/Middlewares/Third_Party/Huawei/iot_link/os/liteos/base/core\los_task.c ****             pstTaskCB = LOS_DL_LIST_ENTRY((pstListObject)->pstNext, LOS_TASK_CB, stTimerList);
 127:D:/fchai/work/i-cube/I-CUBE-HUAWEI/Middlewares/Third_Party/Huawei/iot_link/os/liteos/base/core\los_task.c ****             uwTempTicks = (uwIndex == 0) ? OS_TSK_SORTLINK_LEN : uwIndex;
 128:D:/fchai/work/i-cube/I-CUBE-HUAWEI/Middlewares/Third_Party/Huawei/iot_link/os/liteos/base/core\los_task.c ****             uwTempTicks += (UINT32)(UWROLLNUM(pstTaskCB->uwIdxRollNum) * OS_TSK_SORTLINK_LEN);
 129:D:/fchai/work/i-cube/I-CUBE-HUAWEI/Middlewares/Third_Party/Huawei/iot_link/os/liteos/base/core\los_task.c ****             if(uwTaskSortLinkTick == 0 || uwTaskSortLinkTick > uwTempTicks)
 130:D:/fchai/work/i-cube/I-CUBE-HUAWEI/Middlewares/Third_Party/Huawei/iot_link/os/liteos/base/core\los_task.c ****             {
 131:D:/fchai/work/i-cube/I-CUBE-HUAWEI/Middlewares/Third_Party/Huawei/iot_link/os/liteos/base/core\los_task.c ****                uwTaskSortLinkTick = uwTempTicks;
 132:D:/fchai/work/i-cube/I-CUBE-HUAWEI/Middlewares/Third_Party/Huawei/iot_link/os/liteos/base/core\los_task.c ****             }
 133:D:/fchai/work/i-cube/I-CUBE-HUAWEI/Middlewares/Third_Party/Huawei/iot_link/os/liteos/base/core\los_task.c ****         }
 134:D:/fchai/work/i-cube/I-CUBE-HUAWEI/Middlewares/Third_Party/Huawei/iot_link/os/liteos/base/core\los_task.c ****     }
 135:D:/fchai/work/i-cube/I-CUBE-HUAWEI/Middlewares/Third_Party/Huawei/iot_link/os/liteos/base/core\los_task.c **** 
 136:D:/fchai/work/i-cube/I-CUBE-HUAWEI/Middlewares/Third_Party/Huawei/iot_link/os/liteos/base/core\los_task.c ****     return uwTaskSortLinkTick;
 137:D:/fchai/work/i-cube/I-CUBE-HUAWEI/Middlewares/Third_Party/Huawei/iot_link/os/liteos/base/core\los_task.c **** }
 138:D:/fchai/work/i-cube/I-CUBE-HUAWEI/Middlewares/Third_Party/Huawei/iot_link/os/liteos/base/core\los_task.c **** #endif
 139:D:/fchai/work/i-cube/I-CUBE-HUAWEI/Middlewares/Third_Party/Huawei/iot_link/os/liteos/base/core\los_task.c **** 
 140:D:/fchai/work/i-cube/I-CUBE-HUAWEI/Middlewares/Third_Party/Huawei/iot_link/os/liteos/base/core\los_task.c **** /*****************************************************************************
 141:D:/fchai/work/i-cube/I-CUBE-HUAWEI/Middlewares/Third_Party/Huawei/iot_link/os/liteos/base/core\los_task.c ****  Function : osTskIdleBGD
 142:D:/fchai/work/i-cube/I-CUBE-HUAWEI/Middlewares/Third_Party/Huawei/iot_link/os/liteos/base/core\los_task.c ****  Description : Idle background.
 143:D:/fchai/work/i-cube/I-CUBE-HUAWEI/Middlewares/Third_Party/Huawei/iot_link/os/liteos/base/core\los_task.c ****  Input       : None
ARM GAS  T:\msys\tmp\ccehPeV4.s 			page 4


 144:D:/fchai/work/i-cube/I-CUBE-HUAWEI/Middlewares/Third_Party/Huawei/iot_link/os/liteos/base/core\los_task.c ****  Output      : None
 145:D:/fchai/work/i-cube/I-CUBE-HUAWEI/Middlewares/Third_Party/Huawei/iot_link/os/liteos/base/core\los_task.c ****  Return      : None
 146:D:/fchai/work/i-cube/I-CUBE-HUAWEI/Middlewares/Third_Party/Huawei/iot_link/os/liteos/base/core\los_task.c ****  *****************************************************************************/
 147:D:/fchai/work/i-cube/I-CUBE-HUAWEI/Middlewares/Third_Party/Huawei/iot_link/os/liteos/base/core\los_task.c **** LITE_OS_SEC_TEXT WEAK VOID osIdleTask(VOID)
 148:D:/fchai/work/i-cube/I-CUBE-HUAWEI/Middlewares/Third_Party/Huawei/iot_link/os/liteos/base/core\los_task.c **** {
  30              		.loc 1 148 1 view -0
  31              		.cfi_startproc
  32              		@ args = 0, pretend = 0, frame = 0
  33              		@ frame_needed = 0, uses_anonymous_args = 0
  34              		@ link register save eliminated.
  35              	.L2:
 149:D:/fchai/work/i-cube/I-CUBE-HUAWEI/Middlewares/Third_Party/Huawei/iot_link/os/liteos/base/core\los_task.c ****     while (1)
  36              		.loc 1 149 5 discriminator 1 view .LVU1
 150:D:/fchai/work/i-cube/I-CUBE-HUAWEI/Middlewares/Third_Party/Huawei/iot_link/os/liteos/base/core\los_task.c ****     {
 151:D:/fchai/work/i-cube/I-CUBE-HUAWEI/Middlewares/Third_Party/Huawei/iot_link/os/liteos/base/core\los_task.c **** #if (LOSCFG_KERNEL_TICKLESS == YES)
 152:D:/fchai/work/i-cube/I-CUBE-HUAWEI/Middlewares/Third_Party/Huawei/iot_link/os/liteos/base/core\los_task.c ****         osTicklessHandler();
 153:D:/fchai/work/i-cube/I-CUBE-HUAWEI/Middlewares/Third_Party/Huawei/iot_link/os/liteos/base/core\los_task.c **** #else
 154:D:/fchai/work/i-cube/I-CUBE-HUAWEI/Middlewares/Third_Party/Huawei/iot_link/os/liteos/base/core\los_task.c ****     #if (LOSCFG_KERNEL_RUNSTOP == YES)
 155:D:/fchai/work/i-cube/I-CUBE-HUAWEI/Middlewares/Third_Party/Huawei/iot_link/os/liteos/base/core\los_task.c ****         osEnterSleep();
 156:D:/fchai/work/i-cube/I-CUBE-HUAWEI/Middlewares/Third_Party/Huawei/iot_link/os/liteos/base/core\los_task.c ****     #endif
 157:D:/fchai/work/i-cube/I-CUBE-HUAWEI/Middlewares/Third_Party/Huawei/iot_link/os/liteos/base/core\los_task.c **** #endif
 158:D:/fchai/work/i-cube/I-CUBE-HUAWEI/Middlewares/Third_Party/Huawei/iot_link/os/liteos/base/core\los_task.c ****     }
  37              		.loc 1 158 5 discriminator 1 view .LVU2
 149:D:/fchai/work/i-cube/I-CUBE-HUAWEI/Middlewares/Third_Party/Huawei/iot_link/os/liteos/base/core\los_task.c ****     while (1)
  38              		.loc 1 149 11 discriminator 1 view .LVU3
  39 0000 FEE7     		b	.L2
  40              		.cfi_endproc
  41              	.LFE133:
  43 0002 00BF     		.section	.rodata.osTaskSwitchCheck.str1.4,"aMS",%progbits,1
  44              		.align	2
  45              	.LC0:
  46 0000 5B455252 		.ascii	"[ERR] \000"
  46      5D2000
  47 0007 00       		.align	2
  48              	.LC1:
  49 0008 43555252 		.ascii	"CURRENT task ID: %s:%d stack overflow!\012\000"
  49      454E5420 
  49      7461736B 
  49      2049443A 
  49      2025733A 
  50              		.align	2
  51              	.LC2:
  52 0030 48494748 		.ascii	"HIGHEST task ID: %s:%d SP error!\012\000"
  52      45535420 
  52      7461736B 
  52      2049443A 
  52      2025733A 
  53 0052 0000     		.align	2
  54              	.LC3:
  55 0054 48494748 		.ascii	"HIGHEST task StackPointer: 0x%x TopOfStack: 0x%x\012"
  55      45535420 
  55      7461736B 
  55      20537461 
  55      636B506F 
  56 0085 00       		.ascii	"\000"
  57              		.section	.text.osTaskSwitchCheck,"ax",%progbits
  58              		.align	1
ARM GAS  T:\msys\tmp\ccehPeV4.s 			page 5


  59              		.p2align 2,,3
  60              		.global	osTaskSwitchCheck
  61              		.syntax unified
  62              		.thumb
  63              		.thumb_func
  64              		.fpu fpv4-sp-d16
  66              	osTaskSwitchCheck:
  67              	.LFB146:
 159:D:/fchai/work/i-cube/I-CUBE-HUAWEI/Middlewares/Third_Party/Huawei/iot_link/os/liteos/base/core\los_task.c **** }
 160:D:/fchai/work/i-cube/I-CUBE-HUAWEI/Middlewares/Third_Party/Huawei/iot_link/os/liteos/base/core\los_task.c **** 
 161:D:/fchai/work/i-cube/I-CUBE-HUAWEI/Middlewares/Third_Party/Huawei/iot_link/os/liteos/base/core\los_task.c **** /*****************************************************************************
 162:D:/fchai/work/i-cube/I-CUBE-HUAWEI/Middlewares/Third_Party/Huawei/iot_link/os/liteos/base/core\los_task.c ****  Function : osTaskPriModify
 163:D:/fchai/work/i-cube/I-CUBE-HUAWEI/Middlewares/Third_Party/Huawei/iot_link/os/liteos/base/core\los_task.c ****  Description : Change task priority.
 164:D:/fchai/work/i-cube/I-CUBE-HUAWEI/Middlewares/Third_Party/Huawei/iot_link/os/liteos/base/core\los_task.c ****  Input       : pstTaskCB    --- task control block
 165:D:/fchai/work/i-cube/I-CUBE-HUAWEI/Middlewares/Third_Party/Huawei/iot_link/os/liteos/base/core\los_task.c ****                  usPriority      --- priority
 166:D:/fchai/work/i-cube/I-CUBE-HUAWEI/Middlewares/Third_Party/Huawei/iot_link/os/liteos/base/core\los_task.c ****  Output      : None
 167:D:/fchai/work/i-cube/I-CUBE-HUAWEI/Middlewares/Third_Party/Huawei/iot_link/os/liteos/base/core\los_task.c ****  Return      : None
 168:D:/fchai/work/i-cube/I-CUBE-HUAWEI/Middlewares/Third_Party/Huawei/iot_link/os/liteos/base/core\los_task.c ****  *****************************************************************************/
 169:D:/fchai/work/i-cube/I-CUBE-HUAWEI/Middlewares/Third_Party/Huawei/iot_link/os/liteos/base/core\los_task.c **** LITE_OS_SEC_TEXT_MINOR VOID osTaskPriModify(LOS_TASK_CB *pstTaskCB, UINT16 usPriority)
 170:D:/fchai/work/i-cube/I-CUBE-HUAWEI/Middlewares/Third_Party/Huawei/iot_link/os/liteos/base/core\los_task.c **** {
 171:D:/fchai/work/i-cube/I-CUBE-HUAWEI/Middlewares/Third_Party/Huawei/iot_link/os/liteos/base/core\los_task.c ****     if (pstTaskCB->usTaskStatus & OS_TASK_STATUS_READY)
 172:D:/fchai/work/i-cube/I-CUBE-HUAWEI/Middlewares/Third_Party/Huawei/iot_link/os/liteos/base/core\los_task.c ****     {
 173:D:/fchai/work/i-cube/I-CUBE-HUAWEI/Middlewares/Third_Party/Huawei/iot_link/os/liteos/base/core\los_task.c ****         osPriqueueDequeue(&pstTaskCB->stPendList);
 174:D:/fchai/work/i-cube/I-CUBE-HUAWEI/Middlewares/Third_Party/Huawei/iot_link/os/liteos/base/core\los_task.c ****         pstTaskCB->usTaskStatus &= (~OS_TASK_STATUS_READY);
 175:D:/fchai/work/i-cube/I-CUBE-HUAWEI/Middlewares/Third_Party/Huawei/iot_link/os/liteos/base/core\los_task.c ****         pstTaskCB->usPriority = usPriority;
 176:D:/fchai/work/i-cube/I-CUBE-HUAWEI/Middlewares/Third_Party/Huawei/iot_link/os/liteos/base/core\los_task.c ****         pstTaskCB->usTaskStatus |= OS_TASK_STATUS_READY;
 177:D:/fchai/work/i-cube/I-CUBE-HUAWEI/Middlewares/Third_Party/Huawei/iot_link/os/liteos/base/core\los_task.c ****         osPriqueueEnqueue(&pstTaskCB->stPendList, pstTaskCB->usPriority);
 178:D:/fchai/work/i-cube/I-CUBE-HUAWEI/Middlewares/Third_Party/Huawei/iot_link/os/liteos/base/core\los_task.c ****     }
 179:D:/fchai/work/i-cube/I-CUBE-HUAWEI/Middlewares/Third_Party/Huawei/iot_link/os/liteos/base/core\los_task.c ****     else
 180:D:/fchai/work/i-cube/I-CUBE-HUAWEI/Middlewares/Third_Party/Huawei/iot_link/os/liteos/base/core\los_task.c ****     {
 181:D:/fchai/work/i-cube/I-CUBE-HUAWEI/Middlewares/Third_Party/Huawei/iot_link/os/liteos/base/core\los_task.c ****         pstTaskCB->usPriority = usPriority;
 182:D:/fchai/work/i-cube/I-CUBE-HUAWEI/Middlewares/Third_Party/Huawei/iot_link/os/liteos/base/core\los_task.c ****     }
 183:D:/fchai/work/i-cube/I-CUBE-HUAWEI/Middlewares/Third_Party/Huawei/iot_link/os/liteos/base/core\los_task.c **** }
 184:D:/fchai/work/i-cube/I-CUBE-HUAWEI/Middlewares/Third_Party/Huawei/iot_link/os/liteos/base/core\los_task.c **** 
 185:D:/fchai/work/i-cube/I-CUBE-HUAWEI/Middlewares/Third_Party/Huawei/iot_link/os/liteos/base/core\los_task.c **** /*****************************************************************************
 186:D:/fchai/work/i-cube/I-CUBE-HUAWEI/Middlewares/Third_Party/Huawei/iot_link/os/liteos/base/core\los_task.c ****  Function : osTaskAdd2TimerList
 187:D:/fchai/work/i-cube/I-CUBE-HUAWEI/Middlewares/Third_Party/Huawei/iot_link/os/liteos/base/core\los_task.c ****  Description : Add task to sorted delay list.
 188:D:/fchai/work/i-cube/I-CUBE-HUAWEI/Middlewares/Third_Party/Huawei/iot_link/os/liteos/base/core\los_task.c ****  Input       : pstTaskCB    --- task control block
 189:D:/fchai/work/i-cube/I-CUBE-HUAWEI/Middlewares/Third_Party/Huawei/iot_link/os/liteos/base/core\los_task.c ****                uwTimeout    --- wait time, ticks
 190:D:/fchai/work/i-cube/I-CUBE-HUAWEI/Middlewares/Third_Party/Huawei/iot_link/os/liteos/base/core\los_task.c ****  Output      : None
 191:D:/fchai/work/i-cube/I-CUBE-HUAWEI/Middlewares/Third_Party/Huawei/iot_link/os/liteos/base/core\los_task.c ****  Return      : None
 192:D:/fchai/work/i-cube/I-CUBE-HUAWEI/Middlewares/Third_Party/Huawei/iot_link/os/liteos/base/core\los_task.c ****  *****************************************************************************/
 193:D:/fchai/work/i-cube/I-CUBE-HUAWEI/Middlewares/Third_Party/Huawei/iot_link/os/liteos/base/core\los_task.c **** LITE_OS_SEC_TEXT VOID osTaskAdd2TimerList(LOS_TASK_CB *pstTaskCB, UINT32 uwTimeout)
 194:D:/fchai/work/i-cube/I-CUBE-HUAWEI/Middlewares/Third_Party/Huawei/iot_link/os/liteos/base/core\los_task.c **** {
 195:D:/fchai/work/i-cube/I-CUBE-HUAWEI/Middlewares/Third_Party/Huawei/iot_link/os/liteos/base/core\los_task.c ****     LOS_TASK_CB *pstTskDelay;
 196:D:/fchai/work/i-cube/I-CUBE-HUAWEI/Middlewares/Third_Party/Huawei/iot_link/os/liteos/base/core\los_task.c ****     LOS_DL_LIST *pstListObject;
 197:D:/fchai/work/i-cube/I-CUBE-HUAWEI/Middlewares/Third_Party/Huawei/iot_link/os/liteos/base/core\los_task.c ****     UINT32 uwSortIndex;
 198:D:/fchai/work/i-cube/I-CUBE-HUAWEI/Middlewares/Third_Party/Huawei/iot_link/os/liteos/base/core\los_task.c ****     UINT32 uwRollNum;
 199:D:/fchai/work/i-cube/I-CUBE-HUAWEI/Middlewares/Third_Party/Huawei/iot_link/os/liteos/base/core\los_task.c **** 
 200:D:/fchai/work/i-cube/I-CUBE-HUAWEI/Middlewares/Third_Party/Huawei/iot_link/os/liteos/base/core\los_task.c ****     uwSortIndex = uwTimeout & OS_TSK_SORTLINK_MASK;
 201:D:/fchai/work/i-cube/I-CUBE-HUAWEI/Middlewares/Third_Party/Huawei/iot_link/os/liteos/base/core\los_task.c ****     uwRollNum = (uwTimeout >> OS_TSK_SORTLINK_LOGLEN);
 202:D:/fchai/work/i-cube/I-CUBE-HUAWEI/Middlewares/Third_Party/Huawei/iot_link/os/liteos/base/core\los_task.c ****     (uwSortIndex > 0) ? 0 : (uwRollNum--);
 203:D:/fchai/work/i-cube/I-CUBE-HUAWEI/Middlewares/Third_Party/Huawei/iot_link/os/liteos/base/core\los_task.c ****     EVALUATE_L(pstTaskCB->uwIdxRollNum, uwRollNum);
 204:D:/fchai/work/i-cube/I-CUBE-HUAWEI/Middlewares/Third_Party/Huawei/iot_link/os/liteos/base/core\los_task.c ****     uwSortIndex = (uwSortIndex + g_stTskSortLink.usCursor);
 205:D:/fchai/work/i-cube/I-CUBE-HUAWEI/Middlewares/Third_Party/Huawei/iot_link/os/liteos/base/core\los_task.c ****     uwSortIndex = uwSortIndex & OS_TSK_SORTLINK_MASK;
 206:D:/fchai/work/i-cube/I-CUBE-HUAWEI/Middlewares/Third_Party/Huawei/iot_link/os/liteos/base/core\los_task.c ****     EVALUATE_H(pstTaskCB->uwIdxRollNum, uwSortIndex);
 207:D:/fchai/work/i-cube/I-CUBE-HUAWEI/Middlewares/Third_Party/Huawei/iot_link/os/liteos/base/core\los_task.c ****     pstListObject = g_stTskSortLink.pstSortLink + uwSortIndex;
ARM GAS  T:\msys\tmp\ccehPeV4.s 			page 6


 208:D:/fchai/work/i-cube/I-CUBE-HUAWEI/Middlewares/Third_Party/Huawei/iot_link/os/liteos/base/core\los_task.c ****     if (pstListObject->pstNext == pstListObject)
 209:D:/fchai/work/i-cube/I-CUBE-HUAWEI/Middlewares/Third_Party/Huawei/iot_link/os/liteos/base/core\los_task.c ****     {
 210:D:/fchai/work/i-cube/I-CUBE-HUAWEI/Middlewares/Third_Party/Huawei/iot_link/os/liteos/base/core\los_task.c ****         LOS_ListTailInsert(pstListObject, &pstTaskCB->stTimerList);
 211:D:/fchai/work/i-cube/I-CUBE-HUAWEI/Middlewares/Third_Party/Huawei/iot_link/os/liteos/base/core\los_task.c ****     }
 212:D:/fchai/work/i-cube/I-CUBE-HUAWEI/Middlewares/Third_Party/Huawei/iot_link/os/liteos/base/core\los_task.c ****     else
 213:D:/fchai/work/i-cube/I-CUBE-HUAWEI/Middlewares/Third_Party/Huawei/iot_link/os/liteos/base/core\los_task.c ****     {
 214:D:/fchai/work/i-cube/I-CUBE-HUAWEI/Middlewares/Third_Party/Huawei/iot_link/os/liteos/base/core\los_task.c ****         pstTskDelay = LOS_DL_LIST_ENTRY((pstListObject)->pstNext, LOS_TASK_CB, stTimerList); /*lint
 215:D:/fchai/work/i-cube/I-CUBE-HUAWEI/Middlewares/Third_Party/Huawei/iot_link/os/liteos/base/core\los_task.c ****         do
 216:D:/fchai/work/i-cube/I-CUBE-HUAWEI/Middlewares/Third_Party/Huawei/iot_link/os/liteos/base/core\los_task.c ****         {
 217:D:/fchai/work/i-cube/I-CUBE-HUAWEI/Middlewares/Third_Party/Huawei/iot_link/os/liteos/base/core\los_task.c ****             if (UWROLLNUM(pstTskDelay->uwIdxRollNum) <= UWROLLNUM(pstTaskCB->uwIdxRollNum))
 218:D:/fchai/work/i-cube/I-CUBE-HUAWEI/Middlewares/Third_Party/Huawei/iot_link/os/liteos/base/core\los_task.c ****             {
 219:D:/fchai/work/i-cube/I-CUBE-HUAWEI/Middlewares/Third_Party/Huawei/iot_link/os/liteos/base/core\los_task.c ****                 UWROLLNUMSUB(pstTaskCB->uwIdxRollNum, pstTskDelay->uwIdxRollNum);
 220:D:/fchai/work/i-cube/I-CUBE-HUAWEI/Middlewares/Third_Party/Huawei/iot_link/os/liteos/base/core\los_task.c ****             }
 221:D:/fchai/work/i-cube/I-CUBE-HUAWEI/Middlewares/Third_Party/Huawei/iot_link/os/liteos/base/core\los_task.c ****             else
 222:D:/fchai/work/i-cube/I-CUBE-HUAWEI/Middlewares/Third_Party/Huawei/iot_link/os/liteos/base/core\los_task.c ****             {
 223:D:/fchai/work/i-cube/I-CUBE-HUAWEI/Middlewares/Third_Party/Huawei/iot_link/os/liteos/base/core\los_task.c ****                 UWROLLNUMSUB(pstTskDelay->uwIdxRollNum, pstTaskCB->uwIdxRollNum);
 224:D:/fchai/work/i-cube/I-CUBE-HUAWEI/Middlewares/Third_Party/Huawei/iot_link/os/liteos/base/core\los_task.c ****                 break;
 225:D:/fchai/work/i-cube/I-CUBE-HUAWEI/Middlewares/Third_Party/Huawei/iot_link/os/liteos/base/core\los_task.c ****             }
 226:D:/fchai/work/i-cube/I-CUBE-HUAWEI/Middlewares/Third_Party/Huawei/iot_link/os/liteos/base/core\los_task.c **** 
 227:D:/fchai/work/i-cube/I-CUBE-HUAWEI/Middlewares/Third_Party/Huawei/iot_link/os/liteos/base/core\los_task.c ****             pstTskDelay = LOS_DL_LIST_ENTRY(pstTskDelay->stTimerList.pstNext, LOS_TASK_CB, stTimerL
 228:D:/fchai/work/i-cube/I-CUBE-HUAWEI/Middlewares/Third_Party/Huawei/iot_link/os/liteos/base/core\los_task.c ****         } while (&pstTskDelay->stTimerList != (pstListObject));
 229:D:/fchai/work/i-cube/I-CUBE-HUAWEI/Middlewares/Third_Party/Huawei/iot_link/os/liteos/base/core\los_task.c **** 
 230:D:/fchai/work/i-cube/I-CUBE-HUAWEI/Middlewares/Third_Party/Huawei/iot_link/os/liteos/base/core\los_task.c ****         LOS_ListTailInsert(&pstTskDelay->stTimerList, &pstTaskCB->stTimerList);
 231:D:/fchai/work/i-cube/I-CUBE-HUAWEI/Middlewares/Third_Party/Huawei/iot_link/os/liteos/base/core\los_task.c ****     }
 232:D:/fchai/work/i-cube/I-CUBE-HUAWEI/Middlewares/Third_Party/Huawei/iot_link/os/liteos/base/core\los_task.c **** }
 233:D:/fchai/work/i-cube/I-CUBE-HUAWEI/Middlewares/Third_Party/Huawei/iot_link/os/liteos/base/core\los_task.c **** 
 234:D:/fchai/work/i-cube/I-CUBE-HUAWEI/Middlewares/Third_Party/Huawei/iot_link/os/liteos/base/core\los_task.c **** 
 235:D:/fchai/work/i-cube/I-CUBE-HUAWEI/Middlewares/Third_Party/Huawei/iot_link/os/liteos/base/core\los_task.c **** LITE_OS_SEC_TEXT VOID osTimerListDelete(LOS_TASK_CB *pstTaskCB)
 236:D:/fchai/work/i-cube/I-CUBE-HUAWEI/Middlewares/Third_Party/Huawei/iot_link/os/liteos/base/core\los_task.c **** {
 237:D:/fchai/work/i-cube/I-CUBE-HUAWEI/Middlewares/Third_Party/Huawei/iot_link/os/liteos/base/core\los_task.c ****     LOS_DL_LIST  *pstListObject;
 238:D:/fchai/work/i-cube/I-CUBE-HUAWEI/Middlewares/Third_Party/Huawei/iot_link/os/liteos/base/core\los_task.c ****     LOS_TASK_CB  *pstNextTask;
 239:D:/fchai/work/i-cube/I-CUBE-HUAWEI/Middlewares/Third_Party/Huawei/iot_link/os/liteos/base/core\los_task.c ****     UINT32 uwSortIndex;
 240:D:/fchai/work/i-cube/I-CUBE-HUAWEI/Middlewares/Third_Party/Huawei/iot_link/os/liteos/base/core\los_task.c **** 
 241:D:/fchai/work/i-cube/I-CUBE-HUAWEI/Middlewares/Third_Party/Huawei/iot_link/os/liteos/base/core\los_task.c ****     uwSortIndex = UWSORTINDEX(pstTaskCB->uwIdxRollNum);
 242:D:/fchai/work/i-cube/I-CUBE-HUAWEI/Middlewares/Third_Party/Huawei/iot_link/os/liteos/base/core\los_task.c ****     pstListObject = g_stTskSortLink.pstSortLink + uwSortIndex;
 243:D:/fchai/work/i-cube/I-CUBE-HUAWEI/Middlewares/Third_Party/Huawei/iot_link/os/liteos/base/core\los_task.c **** 
 244:D:/fchai/work/i-cube/I-CUBE-HUAWEI/Middlewares/Third_Party/Huawei/iot_link/os/liteos/base/core\los_task.c ****     if (pstListObject != pstTaskCB->stTimerList.pstNext)
 245:D:/fchai/work/i-cube/I-CUBE-HUAWEI/Middlewares/Third_Party/Huawei/iot_link/os/liteos/base/core\los_task.c ****     {
 246:D:/fchai/work/i-cube/I-CUBE-HUAWEI/Middlewares/Third_Party/Huawei/iot_link/os/liteos/base/core\los_task.c ****         pstNextTask = LOS_DL_LIST_ENTRY(pstTaskCB->stTimerList.pstNext, LOS_TASK_CB, stTimerList); 
 247:D:/fchai/work/i-cube/I-CUBE-HUAWEI/Middlewares/Third_Party/Huawei/iot_link/os/liteos/base/core\los_task.c ****         UWROLLNUMADD(pstNextTask->uwIdxRollNum, pstTaskCB->uwIdxRollNum);
 248:D:/fchai/work/i-cube/I-CUBE-HUAWEI/Middlewares/Third_Party/Huawei/iot_link/os/liteos/base/core\los_task.c ****     }
 249:D:/fchai/work/i-cube/I-CUBE-HUAWEI/Middlewares/Third_Party/Huawei/iot_link/os/liteos/base/core\los_task.c **** 
 250:D:/fchai/work/i-cube/I-CUBE-HUAWEI/Middlewares/Third_Party/Huawei/iot_link/os/liteos/base/core\los_task.c ****     LOS_ListDelete(&pstTaskCB->stTimerList);
 251:D:/fchai/work/i-cube/I-CUBE-HUAWEI/Middlewares/Third_Party/Huawei/iot_link/os/liteos/base/core\los_task.c **** }
 252:D:/fchai/work/i-cube/I-CUBE-HUAWEI/Middlewares/Third_Party/Huawei/iot_link/os/liteos/base/core\los_task.c **** 
 253:D:/fchai/work/i-cube/I-CUBE-HUAWEI/Middlewares/Third_Party/Huawei/iot_link/os/liteos/base/core\los_task.c **** LITE_OS_SEC_TEXT VOID osTaskScan(VOID)
 254:D:/fchai/work/i-cube/I-CUBE-HUAWEI/Middlewares/Third_Party/Huawei/iot_link/os/liteos/base/core\los_task.c **** {
 255:D:/fchai/work/i-cube/I-CUBE-HUAWEI/Middlewares/Third_Party/Huawei/iot_link/os/liteos/base/core\los_task.c ****     LOS_TASK_CB *pstTaskCB;
 256:D:/fchai/work/i-cube/I-CUBE-HUAWEI/Middlewares/Third_Party/Huawei/iot_link/os/liteos/base/core\los_task.c ****     BOOL bNeedSchedule = FALSE;
 257:D:/fchai/work/i-cube/I-CUBE-HUAWEI/Middlewares/Third_Party/Huawei/iot_link/os/liteos/base/core\los_task.c ****     LOS_DL_LIST *pstListObject;
 258:D:/fchai/work/i-cube/I-CUBE-HUAWEI/Middlewares/Third_Party/Huawei/iot_link/os/liteos/base/core\los_task.c ****     UINT16 usTempStatus;
 259:D:/fchai/work/i-cube/I-CUBE-HUAWEI/Middlewares/Third_Party/Huawei/iot_link/os/liteos/base/core\los_task.c **** 
 260:D:/fchai/work/i-cube/I-CUBE-HUAWEI/Middlewares/Third_Party/Huawei/iot_link/os/liteos/base/core\los_task.c ****     g_stTskSortLink.usCursor = (g_stTskSortLink.usCursor + 1) % OS_TSK_SORTLINK_LEN;
 261:D:/fchai/work/i-cube/I-CUBE-HUAWEI/Middlewares/Third_Party/Huawei/iot_link/os/liteos/base/core\los_task.c ****     pstListObject = g_stTskSortLink.pstSortLink + g_stTskSortLink.usCursor;
 262:D:/fchai/work/i-cube/I-CUBE-HUAWEI/Middlewares/Third_Party/Huawei/iot_link/os/liteos/base/core\los_task.c ****     if (pstListObject->pstNext == pstListObject)
 263:D:/fchai/work/i-cube/I-CUBE-HUAWEI/Middlewares/Third_Party/Huawei/iot_link/os/liteos/base/core\los_task.c ****     {
 264:D:/fchai/work/i-cube/I-CUBE-HUAWEI/Middlewares/Third_Party/Huawei/iot_link/os/liteos/base/core\los_task.c ****         return;
ARM GAS  T:\msys\tmp\ccehPeV4.s 			page 7


 265:D:/fchai/work/i-cube/I-CUBE-HUAWEI/Middlewares/Third_Party/Huawei/iot_link/os/liteos/base/core\los_task.c ****     }
 266:D:/fchai/work/i-cube/I-CUBE-HUAWEI/Middlewares/Third_Party/Huawei/iot_link/os/liteos/base/core\los_task.c **** 
 267:D:/fchai/work/i-cube/I-CUBE-HUAWEI/Middlewares/Third_Party/Huawei/iot_link/os/liteos/base/core\los_task.c ****     for (pstTaskCB = LOS_DL_LIST_ENTRY((pstListObject)->pstNext, LOS_TASK_CB, stTimerList);&pstTask
 268:D:/fchai/work/i-cube/I-CUBE-HUAWEI/Middlewares/Third_Party/Huawei/iot_link/os/liteos/base/core\los_task.c ****     {
 269:D:/fchai/work/i-cube/I-CUBE-HUAWEI/Middlewares/Third_Party/Huawei/iot_link/os/liteos/base/core\los_task.c ****         usTempStatus = pstTaskCB->usTaskStatus;
 270:D:/fchai/work/i-cube/I-CUBE-HUAWEI/Middlewares/Third_Party/Huawei/iot_link/os/liteos/base/core\los_task.c ****         if (UWROLLNUM(pstTaskCB->uwIdxRollNum) > 0)
 271:D:/fchai/work/i-cube/I-CUBE-HUAWEI/Middlewares/Third_Party/Huawei/iot_link/os/liteos/base/core\los_task.c ****         {
 272:D:/fchai/work/i-cube/I-CUBE-HUAWEI/Middlewares/Third_Party/Huawei/iot_link/os/liteos/base/core\los_task.c ****             UWROLLNUMDEC(pstTaskCB->uwIdxRollNum);
 273:D:/fchai/work/i-cube/I-CUBE-HUAWEI/Middlewares/Third_Party/Huawei/iot_link/os/liteos/base/core\los_task.c ****             break;
 274:D:/fchai/work/i-cube/I-CUBE-HUAWEI/Middlewares/Third_Party/Huawei/iot_link/os/liteos/base/core\los_task.c ****         }
 275:D:/fchai/work/i-cube/I-CUBE-HUAWEI/Middlewares/Third_Party/Huawei/iot_link/os/liteos/base/core\los_task.c **** 
 276:D:/fchai/work/i-cube/I-CUBE-HUAWEI/Middlewares/Third_Party/Huawei/iot_link/os/liteos/base/core\los_task.c ****         LOS_ListDelete(&pstTaskCB->stTimerList);
 277:D:/fchai/work/i-cube/I-CUBE-HUAWEI/Middlewares/Third_Party/Huawei/iot_link/os/liteos/base/core\los_task.c ****         if (OS_TASK_STATUS_PEND & usTempStatus)
 278:D:/fchai/work/i-cube/I-CUBE-HUAWEI/Middlewares/Third_Party/Huawei/iot_link/os/liteos/base/core\los_task.c ****         {
 279:D:/fchai/work/i-cube/I-CUBE-HUAWEI/Middlewares/Third_Party/Huawei/iot_link/os/liteos/base/core\los_task.c ****             pstTaskCB->usTaskStatus &= ~(OS_TASK_STATUS_PEND);
 280:D:/fchai/work/i-cube/I-CUBE-HUAWEI/Middlewares/Third_Party/Huawei/iot_link/os/liteos/base/core\los_task.c ****             LOS_ListDelete(&pstTaskCB->stPendList);
 281:D:/fchai/work/i-cube/I-CUBE-HUAWEI/Middlewares/Third_Party/Huawei/iot_link/os/liteos/base/core\los_task.c ****             pstTaskCB->pTaskSem = NULL;
 282:D:/fchai/work/i-cube/I-CUBE-HUAWEI/Middlewares/Third_Party/Huawei/iot_link/os/liteos/base/core\los_task.c ****             pstTaskCB->pTaskMux = NULL;
 283:D:/fchai/work/i-cube/I-CUBE-HUAWEI/Middlewares/Third_Party/Huawei/iot_link/os/liteos/base/core\los_task.c ****         }
 284:D:/fchai/work/i-cube/I-CUBE-HUAWEI/Middlewares/Third_Party/Huawei/iot_link/os/liteos/base/core\los_task.c ****         else if (OS_TASK_STATUS_EVENT & usTempStatus)
 285:D:/fchai/work/i-cube/I-CUBE-HUAWEI/Middlewares/Third_Party/Huawei/iot_link/os/liteos/base/core\los_task.c ****         {
 286:D:/fchai/work/i-cube/I-CUBE-HUAWEI/Middlewares/Third_Party/Huawei/iot_link/os/liteos/base/core\los_task.c ****             pstTaskCB->usTaskStatus &= ~(OS_TASK_STATUS_EVENT);
 287:D:/fchai/work/i-cube/I-CUBE-HUAWEI/Middlewares/Third_Party/Huawei/iot_link/os/liteos/base/core\los_task.c ****         }
 288:D:/fchai/work/i-cube/I-CUBE-HUAWEI/Middlewares/Third_Party/Huawei/iot_link/os/liteos/base/core\los_task.c ****         else if (OS_TASK_STATUS_PEND_QUEUE & usTempStatus)
 289:D:/fchai/work/i-cube/I-CUBE-HUAWEI/Middlewares/Third_Party/Huawei/iot_link/os/liteos/base/core\los_task.c ****         {
 290:D:/fchai/work/i-cube/I-CUBE-HUAWEI/Middlewares/Third_Party/Huawei/iot_link/os/liteos/base/core\los_task.c ****             LOS_ListDelete(&pstTaskCB->stPendList);
 291:D:/fchai/work/i-cube/I-CUBE-HUAWEI/Middlewares/Third_Party/Huawei/iot_link/os/liteos/base/core\los_task.c ****             pstTaskCB->usTaskStatus &= ~(OS_TASK_STATUS_PEND_QUEUE);
 292:D:/fchai/work/i-cube/I-CUBE-HUAWEI/Middlewares/Third_Party/Huawei/iot_link/os/liteos/base/core\los_task.c ****         }
 293:D:/fchai/work/i-cube/I-CUBE-HUAWEI/Middlewares/Third_Party/Huawei/iot_link/os/liteos/base/core\los_task.c ****         else
 294:D:/fchai/work/i-cube/I-CUBE-HUAWEI/Middlewares/Third_Party/Huawei/iot_link/os/liteos/base/core\los_task.c ****         {
 295:D:/fchai/work/i-cube/I-CUBE-HUAWEI/Middlewares/Third_Party/Huawei/iot_link/os/liteos/base/core\los_task.c ****             pstTaskCB->usTaskStatus &= ~(OS_TASK_STATUS_DELAY);
 296:D:/fchai/work/i-cube/I-CUBE-HUAWEI/Middlewares/Third_Party/Huawei/iot_link/os/liteos/base/core\los_task.c ****         }
 297:D:/fchai/work/i-cube/I-CUBE-HUAWEI/Middlewares/Third_Party/Huawei/iot_link/os/liteos/base/core\los_task.c **** 
 298:D:/fchai/work/i-cube/I-CUBE-HUAWEI/Middlewares/Third_Party/Huawei/iot_link/os/liteos/base/core\los_task.c ****         if (!((OS_TASK_STATUS_SUSPEND) & usTempStatus))
 299:D:/fchai/work/i-cube/I-CUBE-HUAWEI/Middlewares/Third_Party/Huawei/iot_link/os/liteos/base/core\los_task.c ****         {
 300:D:/fchai/work/i-cube/I-CUBE-HUAWEI/Middlewares/Third_Party/Huawei/iot_link/os/liteos/base/core\los_task.c ****             pstTaskCB->usTaskStatus |= OS_TASK_STATUS_READY;
 301:D:/fchai/work/i-cube/I-CUBE-HUAWEI/Middlewares/Third_Party/Huawei/iot_link/os/liteos/base/core\los_task.c ****             osPriqueueEnqueue(&pstTaskCB->stPendList, pstTaskCB->usPriority);
 302:D:/fchai/work/i-cube/I-CUBE-HUAWEI/Middlewares/Third_Party/Huawei/iot_link/os/liteos/base/core\los_task.c ****             bNeedSchedule = TRUE;
 303:D:/fchai/work/i-cube/I-CUBE-HUAWEI/Middlewares/Third_Party/Huawei/iot_link/os/liteos/base/core\los_task.c ****         }
 304:D:/fchai/work/i-cube/I-CUBE-HUAWEI/Middlewares/Third_Party/Huawei/iot_link/os/liteos/base/core\los_task.c **** 
 305:D:/fchai/work/i-cube/I-CUBE-HUAWEI/Middlewares/Third_Party/Huawei/iot_link/os/liteos/base/core\los_task.c ****         pstTaskCB = LOS_DL_LIST_ENTRY(pstListObject->pstNext, LOS_TASK_CB, stTimerList); /*lint !e4
 306:D:/fchai/work/i-cube/I-CUBE-HUAWEI/Middlewares/Third_Party/Huawei/iot_link/os/liteos/base/core\los_task.c ****     }
 307:D:/fchai/work/i-cube/I-CUBE-HUAWEI/Middlewares/Third_Party/Huawei/iot_link/os/liteos/base/core\los_task.c **** 
 308:D:/fchai/work/i-cube/I-CUBE-HUAWEI/Middlewares/Third_Party/Huawei/iot_link/os/liteos/base/core\los_task.c ****     if (bNeedSchedule)
 309:D:/fchai/work/i-cube/I-CUBE-HUAWEI/Middlewares/Third_Party/Huawei/iot_link/os/liteos/base/core\los_task.c ****     {
 310:D:/fchai/work/i-cube/I-CUBE-HUAWEI/Middlewares/Third_Party/Huawei/iot_link/os/liteos/base/core\los_task.c ****         LOS_Schedule();
 311:D:/fchai/work/i-cube/I-CUBE-HUAWEI/Middlewares/Third_Party/Huawei/iot_link/os/liteos/base/core\los_task.c ****     }
 312:D:/fchai/work/i-cube/I-CUBE-HUAWEI/Middlewares/Third_Party/Huawei/iot_link/os/liteos/base/core\los_task.c **** }
 313:D:/fchai/work/i-cube/I-CUBE-HUAWEI/Middlewares/Third_Party/Huawei/iot_link/os/liteos/base/core\los_task.c **** 
 314:D:/fchai/work/i-cube/I-CUBE-HUAWEI/Middlewares/Third_Party/Huawei/iot_link/os/liteos/base/core\los_task.c **** /*****************************************************************************
 315:D:/fchai/work/i-cube/I-CUBE-HUAWEI/Middlewares/Third_Party/Huawei/iot_link/os/liteos/base/core\los_task.c ****  Function : osConvertTskStatus
 316:D:/fchai/work/i-cube/I-CUBE-HUAWEI/Middlewares/Third_Party/Huawei/iot_link/os/liteos/base/core\los_task.c ****  Description : Convert task status to string.
 317:D:/fchai/work/i-cube/I-CUBE-HUAWEI/Middlewares/Third_Party/Huawei/iot_link/os/liteos/base/core\los_task.c ****  Input       : usTaskStatus    --- task status
 318:D:/fchai/work/i-cube/I-CUBE-HUAWEI/Middlewares/Third_Party/Huawei/iot_link/os/liteos/base/core\los_task.c ****  Output      : None
 319:D:/fchai/work/i-cube/I-CUBE-HUAWEI/Middlewares/Third_Party/Huawei/iot_link/os/liteos/base/core\los_task.c ****  Return      : string
 320:D:/fchai/work/i-cube/I-CUBE-HUAWEI/Middlewares/Third_Party/Huawei/iot_link/os/liteos/base/core\los_task.c ****  *****************************************************************************/
 321:D:/fchai/work/i-cube/I-CUBE-HUAWEI/Middlewares/Third_Party/Huawei/iot_link/os/liteos/base/core\los_task.c **** LITE_OS_SEC_TEXT_MINOR UINT8 *osConvertTskStatus(UINT16 usTaskStatus)
ARM GAS  T:\msys\tmp\ccehPeV4.s 			page 8


 322:D:/fchai/work/i-cube/I-CUBE-HUAWEI/Middlewares/Third_Party/Huawei/iot_link/os/liteos/base/core\los_task.c **** {
 323:D:/fchai/work/i-cube/I-CUBE-HUAWEI/Middlewares/Third_Party/Huawei/iot_link/os/liteos/base/core\los_task.c ****     if (OS_TASK_STATUS_RUNNING & usTaskStatus)
 324:D:/fchai/work/i-cube/I-CUBE-HUAWEI/Middlewares/Third_Party/Huawei/iot_link/os/liteos/base/core\los_task.c ****     {
 325:D:/fchai/work/i-cube/I-CUBE-HUAWEI/Middlewares/Third_Party/Huawei/iot_link/os/liteos/base/core\los_task.c ****         return (UINT8 *)"Running";
 326:D:/fchai/work/i-cube/I-CUBE-HUAWEI/Middlewares/Third_Party/Huawei/iot_link/os/liteos/base/core\los_task.c ****     }
 327:D:/fchai/work/i-cube/I-CUBE-HUAWEI/Middlewares/Third_Party/Huawei/iot_link/os/liteos/base/core\los_task.c ****     else if (OS_TASK_STATUS_READY &  usTaskStatus)
 328:D:/fchai/work/i-cube/I-CUBE-HUAWEI/Middlewares/Third_Party/Huawei/iot_link/os/liteos/base/core\los_task.c ****     {
 329:D:/fchai/work/i-cube/I-CUBE-HUAWEI/Middlewares/Third_Party/Huawei/iot_link/os/liteos/base/core\los_task.c ****         return (UINT8 *)"Ready";
 330:D:/fchai/work/i-cube/I-CUBE-HUAWEI/Middlewares/Third_Party/Huawei/iot_link/os/liteos/base/core\los_task.c ****     }
 331:D:/fchai/work/i-cube/I-CUBE-HUAWEI/Middlewares/Third_Party/Huawei/iot_link/os/liteos/base/core\los_task.c ****     else if (OS_TASK_STATUS_DELAY &  usTaskStatus)
 332:D:/fchai/work/i-cube/I-CUBE-HUAWEI/Middlewares/Third_Party/Huawei/iot_link/os/liteos/base/core\los_task.c ****     {
 333:D:/fchai/work/i-cube/I-CUBE-HUAWEI/Middlewares/Third_Party/Huawei/iot_link/os/liteos/base/core\los_task.c ****         return (UINT8 *)"Delay";
 334:D:/fchai/work/i-cube/I-CUBE-HUAWEI/Middlewares/Third_Party/Huawei/iot_link/os/liteos/base/core\los_task.c ****     }
 335:D:/fchai/work/i-cube/I-CUBE-HUAWEI/Middlewares/Third_Party/Huawei/iot_link/os/liteos/base/core\los_task.c ****     else if (OS_TASK_STATUS_PEND & usTaskStatus)
 336:D:/fchai/work/i-cube/I-CUBE-HUAWEI/Middlewares/Third_Party/Huawei/iot_link/os/liteos/base/core\los_task.c ****     {
 337:D:/fchai/work/i-cube/I-CUBE-HUAWEI/Middlewares/Third_Party/Huawei/iot_link/os/liteos/base/core\los_task.c ****         if (OS_TASK_STATUS_TIMEOUT & usTaskStatus)
 338:D:/fchai/work/i-cube/I-CUBE-HUAWEI/Middlewares/Third_Party/Huawei/iot_link/os/liteos/base/core\los_task.c ****         {
 339:D:/fchai/work/i-cube/I-CUBE-HUAWEI/Middlewares/Third_Party/Huawei/iot_link/os/liteos/base/core\los_task.c ****             return (UINT8 *)"PendTimeOut";
 340:D:/fchai/work/i-cube/I-CUBE-HUAWEI/Middlewares/Third_Party/Huawei/iot_link/os/liteos/base/core\los_task.c ****         }
 341:D:/fchai/work/i-cube/I-CUBE-HUAWEI/Middlewares/Third_Party/Huawei/iot_link/os/liteos/base/core\los_task.c **** 
 342:D:/fchai/work/i-cube/I-CUBE-HUAWEI/Middlewares/Third_Party/Huawei/iot_link/os/liteos/base/core\los_task.c ****         return (UINT8 *)"Pend";
 343:D:/fchai/work/i-cube/I-CUBE-HUAWEI/Middlewares/Third_Party/Huawei/iot_link/os/liteos/base/core\los_task.c ****     }
 344:D:/fchai/work/i-cube/I-CUBE-HUAWEI/Middlewares/Third_Party/Huawei/iot_link/os/liteos/base/core\los_task.c ****     else if (OS_TASK_STATUS_SUSPEND & usTaskStatus)
 345:D:/fchai/work/i-cube/I-CUBE-HUAWEI/Middlewares/Third_Party/Huawei/iot_link/os/liteos/base/core\los_task.c ****     {
 346:D:/fchai/work/i-cube/I-CUBE-HUAWEI/Middlewares/Third_Party/Huawei/iot_link/os/liteos/base/core\los_task.c ****         return (UINT8 *)"Suspend";
 347:D:/fchai/work/i-cube/I-CUBE-HUAWEI/Middlewares/Third_Party/Huawei/iot_link/os/liteos/base/core\los_task.c ****     }
 348:D:/fchai/work/i-cube/I-CUBE-HUAWEI/Middlewares/Third_Party/Huawei/iot_link/os/liteos/base/core\los_task.c ****     else if (OS_TASK_STATUS_PEND_QUEUE& usTaskStatus)
 349:D:/fchai/work/i-cube/I-CUBE-HUAWEI/Middlewares/Third_Party/Huawei/iot_link/os/liteos/base/core\los_task.c ****     {
 350:D:/fchai/work/i-cube/I-CUBE-HUAWEI/Middlewares/Third_Party/Huawei/iot_link/os/liteos/base/core\los_task.c ****         if (OS_TASK_STATUS_TIMEOUT & usTaskStatus)
 351:D:/fchai/work/i-cube/I-CUBE-HUAWEI/Middlewares/Third_Party/Huawei/iot_link/os/liteos/base/core\los_task.c ****         {
 352:D:/fchai/work/i-cube/I-CUBE-HUAWEI/Middlewares/Third_Party/Huawei/iot_link/os/liteos/base/core\los_task.c ****             return (UINT8 *)"QueuePendTimeOut";
 353:D:/fchai/work/i-cube/I-CUBE-HUAWEI/Middlewares/Third_Party/Huawei/iot_link/os/liteos/base/core\los_task.c ****         }
 354:D:/fchai/work/i-cube/I-CUBE-HUAWEI/Middlewares/Third_Party/Huawei/iot_link/os/liteos/base/core\los_task.c **** 
 355:D:/fchai/work/i-cube/I-CUBE-HUAWEI/Middlewares/Third_Party/Huawei/iot_link/os/liteos/base/core\los_task.c ****         return (UINT8 *)"QueuePend";
 356:D:/fchai/work/i-cube/I-CUBE-HUAWEI/Middlewares/Third_Party/Huawei/iot_link/os/liteos/base/core\los_task.c ****     }
 357:D:/fchai/work/i-cube/I-CUBE-HUAWEI/Middlewares/Third_Party/Huawei/iot_link/os/liteos/base/core\los_task.c **** 
 358:D:/fchai/work/i-cube/I-CUBE-HUAWEI/Middlewares/Third_Party/Huawei/iot_link/os/liteos/base/core\los_task.c ****     return (UINT8 *)"Impossible";
 359:D:/fchai/work/i-cube/I-CUBE-HUAWEI/Middlewares/Third_Party/Huawei/iot_link/os/liteos/base/core\los_task.c **** }
 360:D:/fchai/work/i-cube/I-CUBE-HUAWEI/Middlewares/Third_Party/Huawei/iot_link/os/liteos/base/core\los_task.c **** 
 361:D:/fchai/work/i-cube/I-CUBE-HUAWEI/Middlewares/Third_Party/Huawei/iot_link/os/liteos/base/core\los_task.c **** LITE_OS_SEC_TEXT_MINOR UINT32 osGetTaskWaterLine(UINT32 uwTaskID)
 362:D:/fchai/work/i-cube/I-CUBE-HUAWEI/Middlewares/Third_Party/Huawei/iot_link/os/liteos/base/core\los_task.c **** {
 363:D:/fchai/work/i-cube/I-CUBE-HUAWEI/Middlewares/Third_Party/Huawei/iot_link/os/liteos/base/core\los_task.c ****     UINT32 *puwStack;
 364:D:/fchai/work/i-cube/I-CUBE-HUAWEI/Middlewares/Third_Party/Huawei/iot_link/os/liteos/base/core\los_task.c ****     UINT32 uwPeakUsed;
 365:D:/fchai/work/i-cube/I-CUBE-HUAWEI/Middlewares/Third_Party/Huawei/iot_link/os/liteos/base/core\los_task.c ****     LOS_TASK_CB * pstTaskCB = OS_TCB_FROM_TID(uwTaskID);
 366:D:/fchai/work/i-cube/I-CUBE-HUAWEI/Middlewares/Third_Party/Huawei/iot_link/os/liteos/base/core\los_task.c **** 
 367:D:/fchai/work/i-cube/I-CUBE-HUAWEI/Middlewares/Third_Party/Huawei/iot_link/os/liteos/base/core\los_task.c ****     if (OS_TASK_MAGIC_WORD == *(UINT32 *)pstTaskCB->uwTopOfStack)
 368:D:/fchai/work/i-cube/I-CUBE-HUAWEI/Middlewares/Third_Party/Huawei/iot_link/os/liteos/base/core\los_task.c ****     {
 369:D:/fchai/work/i-cube/I-CUBE-HUAWEI/Middlewares/Third_Party/Huawei/iot_link/os/liteos/base/core\los_task.c ****         puwStack = (UINT32 *)(pstTaskCB->uwTopOfStack + 4);
 370:D:/fchai/work/i-cube/I-CUBE-HUAWEI/Middlewares/Third_Party/Huawei/iot_link/os/liteos/base/core\los_task.c ****         while ((puwStack < (UINT32 *)pstTaskCB->pStackPointer) && (*puwStack == 0xCACACACA))
 371:D:/fchai/work/i-cube/I-CUBE-HUAWEI/Middlewares/Third_Party/Huawei/iot_link/os/liteos/base/core\los_task.c ****         {
 372:D:/fchai/work/i-cube/I-CUBE-HUAWEI/Middlewares/Third_Party/Huawei/iot_link/os/liteos/base/core\los_task.c ****             puwStack += 1;
 373:D:/fchai/work/i-cube/I-CUBE-HUAWEI/Middlewares/Third_Party/Huawei/iot_link/os/liteos/base/core\los_task.c ****         }
 374:D:/fchai/work/i-cube/I-CUBE-HUAWEI/Middlewares/Third_Party/Huawei/iot_link/os/liteos/base/core\los_task.c ****         uwPeakUsed = (pstTaskCB->uwStackSize - ((UINT32)puwStack - pstTaskCB->uwTopOfStack));
 375:D:/fchai/work/i-cube/I-CUBE-HUAWEI/Middlewares/Third_Party/Huawei/iot_link/os/liteos/base/core\los_task.c ****     }
 376:D:/fchai/work/i-cube/I-CUBE-HUAWEI/Middlewares/Third_Party/Huawei/iot_link/os/liteos/base/core\los_task.c ****     else
 377:D:/fchai/work/i-cube/I-CUBE-HUAWEI/Middlewares/Third_Party/Huawei/iot_link/os/liteos/base/core\los_task.c ****     {
 378:D:/fchai/work/i-cube/I-CUBE-HUAWEI/Middlewares/Third_Party/Huawei/iot_link/os/liteos/base/core\los_task.c ****         PRINT_ERR("CURRENT task %s stack overflow!\n", pstTaskCB->pcTaskName);
ARM GAS  T:\msys\tmp\ccehPeV4.s 			page 9


 379:D:/fchai/work/i-cube/I-CUBE-HUAWEI/Middlewares/Third_Party/Huawei/iot_link/os/liteos/base/core\los_task.c ****         uwPeakUsed = 0xFFFFFFFF;
 380:D:/fchai/work/i-cube/I-CUBE-HUAWEI/Middlewares/Third_Party/Huawei/iot_link/os/liteos/base/core\los_task.c ****     }
 381:D:/fchai/work/i-cube/I-CUBE-HUAWEI/Middlewares/Third_Party/Huawei/iot_link/os/liteos/base/core\los_task.c ****     return uwPeakUsed;
 382:D:/fchai/work/i-cube/I-CUBE-HUAWEI/Middlewares/Third_Party/Huawei/iot_link/os/liteos/base/core\los_task.c **** }
 383:D:/fchai/work/i-cube/I-CUBE-HUAWEI/Middlewares/Third_Party/Huawei/iot_link/os/liteos/base/core\los_task.c **** 
 384:D:/fchai/work/i-cube/I-CUBE-HUAWEI/Middlewares/Third_Party/Huawei/iot_link/os/liteos/base/core\los_task.c **** /*****************************************************************************
 385:D:/fchai/work/i-cube/I-CUBE-HUAWEI/Middlewares/Third_Party/Huawei/iot_link/os/liteos/base/core\los_task.c ****  Function : osGetAllTskInfo
 386:D:/fchai/work/i-cube/I-CUBE-HUAWEI/Middlewares/Third_Party/Huawei/iot_link/os/liteos/base/core\los_task.c ****  Description : Get all task info.
 387:D:/fchai/work/i-cube/I-CUBE-HUAWEI/Middlewares/Third_Party/Huawei/iot_link/os/liteos/base/core\los_task.c ****  Input       : None
 388:D:/fchai/work/i-cube/I-CUBE-HUAWEI/Middlewares/Third_Party/Huawei/iot_link/os/liteos/base/core\los_task.c ****  Output      : None
 389:D:/fchai/work/i-cube/I-CUBE-HUAWEI/Middlewares/Third_Party/Huawei/iot_link/os/liteos/base/core\los_task.c ****  Return      : None
 390:D:/fchai/work/i-cube/I-CUBE-HUAWEI/Middlewares/Third_Party/Huawei/iot_link/os/liteos/base/core\los_task.c ****  *****************************************************************************/
 391:D:/fchai/work/i-cube/I-CUBE-HUAWEI/Middlewares/Third_Party/Huawei/iot_link/os/liteos/base/core\los_task.c **** LITE_OS_SEC_TEXT_MINOR UINT32 osGetAllTskInfo(VOID)
 392:D:/fchai/work/i-cube/I-CUBE-HUAWEI/Middlewares/Third_Party/Huawei/iot_link/os/liteos/base/core\los_task.c **** {
 393:D:/fchai/work/i-cube/I-CUBE-HUAWEI/Middlewares/Third_Party/Huawei/iot_link/os/liteos/base/core\los_task.c ****     LOS_TASK_CB *pstTaskCB;
 394:D:/fchai/work/i-cube/I-CUBE-HUAWEI/Middlewares/Third_Party/Huawei/iot_link/os/liteos/base/core\los_task.c ****     UINT32       uwLoop;
 395:D:/fchai/work/i-cube/I-CUBE-HUAWEI/Middlewares/Third_Party/Huawei/iot_link/os/liteos/base/core\los_task.c **** #if (LOSCFG_BASE_CORE_CPUP == YES)
 396:D:/fchai/work/i-cube/I-CUBE-HUAWEI/Middlewares/Third_Party/Huawei/iot_link/os/liteos/base/core\los_task.c ****     CPUP_INFO_S *pstCpu = (CPUP_INFO_S *)NULL;
 397:D:/fchai/work/i-cube/I-CUBE-HUAWEI/Middlewares/Third_Party/Huawei/iot_link/os/liteos/base/core\los_task.c ****     CPUP_INFO_S *pstCpu10s = (CPUP_INFO_S *)NULL;
 398:D:/fchai/work/i-cube/I-CUBE-HUAWEI/Middlewares/Third_Party/Huawei/iot_link/os/liteos/base/core\los_task.c ****     CPUP_INFO_S *pstCpu1s = (CPUP_INFO_S *)NULL;
 399:D:/fchai/work/i-cube/I-CUBE-HUAWEI/Middlewares/Third_Party/Huawei/iot_link/os/liteos/base/core\los_task.c **** #endif
 400:D:/fchai/work/i-cube/I-CUBE-HUAWEI/Middlewares/Third_Party/Huawei/iot_link/os/liteos/base/core\los_task.c **** 
 401:D:/fchai/work/i-cube/I-CUBE-HUAWEI/Middlewares/Third_Party/Huawei/iot_link/os/liteos/base/core\los_task.c **** #if (LOSCFG_BASE_CORE_CPUP == YES)
 402:D:/fchai/work/i-cube/I-CUBE-HUAWEI/Middlewares/Third_Party/Huawei/iot_link/os/liteos/base/core\los_task.c ****     pstCpu = (CPUP_INFO_S *)LOS_MemAlloc((VOID *)OS_SYS_MEM_ADDR, sizeof(CPUP_INFO_S) * g_uwTskMaxN
 403:D:/fchai/work/i-cube/I-CUBE-HUAWEI/Middlewares/Third_Party/Huawei/iot_link/os/liteos/base/core\los_task.c ****     if (pstCpu == NULL)
 404:D:/fchai/work/i-cube/I-CUBE-HUAWEI/Middlewares/Third_Party/Huawei/iot_link/os/liteos/base/core\los_task.c ****     {
 405:D:/fchai/work/i-cube/I-CUBE-HUAWEI/Middlewares/Third_Party/Huawei/iot_link/os/liteos/base/core\los_task.c ****         PRINT_ERR("%s[%d] malloc failure!\n", __FUNCTION__, __LINE__);/*lint !e515*/
 406:D:/fchai/work/i-cube/I-CUBE-HUAWEI/Middlewares/Third_Party/Huawei/iot_link/os/liteos/base/core\los_task.c ****         return OS_ERROR;
 407:D:/fchai/work/i-cube/I-CUBE-HUAWEI/Middlewares/Third_Party/Huawei/iot_link/os/liteos/base/core\los_task.c ****     }
 408:D:/fchai/work/i-cube/I-CUBE-HUAWEI/Middlewares/Third_Party/Huawei/iot_link/os/liteos/base/core\los_task.c ****     (VOID)memset((VOID *)pstCpu, (int)0, sizeof(CPUP_INFO_S) * g_uwTskMaxNum);
 409:D:/fchai/work/i-cube/I-CUBE-HUAWEI/Middlewares/Third_Party/Huawei/iot_link/os/liteos/base/core\los_task.c **** 
 410:D:/fchai/work/i-cube/I-CUBE-HUAWEI/Middlewares/Third_Party/Huawei/iot_link/os/liteos/base/core\los_task.c ****     pstCpu10s = (CPUP_INFO_S *)LOS_MemAlloc((VOID *)OS_SYS_MEM_ADDR, sizeof(CPUP_INFO_S) * g_uwTskM
 411:D:/fchai/work/i-cube/I-CUBE-HUAWEI/Middlewares/Third_Party/Huawei/iot_link/os/liteos/base/core\los_task.c ****     if (pstCpu10s == NULL)
 412:D:/fchai/work/i-cube/I-CUBE-HUAWEI/Middlewares/Third_Party/Huawei/iot_link/os/liteos/base/core\los_task.c ****     {
 413:D:/fchai/work/i-cube/I-CUBE-HUAWEI/Middlewares/Third_Party/Huawei/iot_link/os/liteos/base/core\los_task.c ****         PRINT_ERR("%s[%d] malloc failure!\n", __FUNCTION__, __LINE__);/*lint !e515*/
 414:D:/fchai/work/i-cube/I-CUBE-HUAWEI/Middlewares/Third_Party/Huawei/iot_link/os/liteos/base/core\los_task.c ****         (VOID)LOS_MemFree((VOID *)OS_SYS_MEM_ADDR, pstCpu);
 415:D:/fchai/work/i-cube/I-CUBE-HUAWEI/Middlewares/Third_Party/Huawei/iot_link/os/liteos/base/core\los_task.c ****         return OS_ERROR;
 416:D:/fchai/work/i-cube/I-CUBE-HUAWEI/Middlewares/Third_Party/Huawei/iot_link/os/liteos/base/core\los_task.c ****     }
 417:D:/fchai/work/i-cube/I-CUBE-HUAWEI/Middlewares/Third_Party/Huawei/iot_link/os/liteos/base/core\los_task.c ****     (VOID)memset((VOID *)pstCpu10s, (int)0, sizeof(CPUP_INFO_S) * g_uwTskMaxNum);
 418:D:/fchai/work/i-cube/I-CUBE-HUAWEI/Middlewares/Third_Party/Huawei/iot_link/os/liteos/base/core\los_task.c **** 
 419:D:/fchai/work/i-cube/I-CUBE-HUAWEI/Middlewares/Third_Party/Huawei/iot_link/os/liteos/base/core\los_task.c ****     pstCpu1s = (CPUP_INFO_S *)LOS_MemAlloc((VOID *)OS_SYS_MEM_ADDR, sizeof(CPUP_INFO_S) * g_uwTskMa
 420:D:/fchai/work/i-cube/I-CUBE-HUAWEI/Middlewares/Third_Party/Huawei/iot_link/os/liteos/base/core\los_task.c ****     if (pstCpu1s == NULL)
 421:D:/fchai/work/i-cube/I-CUBE-HUAWEI/Middlewares/Third_Party/Huawei/iot_link/os/liteos/base/core\los_task.c ****     {
 422:D:/fchai/work/i-cube/I-CUBE-HUAWEI/Middlewares/Third_Party/Huawei/iot_link/os/liteos/base/core\los_task.c ****         PRINT_ERR("%s[%d] malloc failure!\n", __FUNCTION__, __LINE__);/*lint !e515*/
 423:D:/fchai/work/i-cube/I-CUBE-HUAWEI/Middlewares/Third_Party/Huawei/iot_link/os/liteos/base/core\los_task.c ****         (VOID)LOS_MemFree((VOID *)OS_SYS_MEM_ADDR, pstCpu);
 424:D:/fchai/work/i-cube/I-CUBE-HUAWEI/Middlewares/Third_Party/Huawei/iot_link/os/liteos/base/core\los_task.c ****         (VOID)LOS_MemFree((VOID *)OS_SYS_MEM_ADDR, pstCpu10s);
 425:D:/fchai/work/i-cube/I-CUBE-HUAWEI/Middlewares/Third_Party/Huawei/iot_link/os/liteos/base/core\los_task.c ****         return OS_ERROR;
 426:D:/fchai/work/i-cube/I-CUBE-HUAWEI/Middlewares/Third_Party/Huawei/iot_link/os/liteos/base/core\los_task.c ****     }
 427:D:/fchai/work/i-cube/I-CUBE-HUAWEI/Middlewares/Third_Party/Huawei/iot_link/os/liteos/base/core\los_task.c ****     (VOID)memset((VOID *)pstCpu1s, (int)0, sizeof(CPUP_INFO_S) * g_uwTskMaxNum);
 428:D:/fchai/work/i-cube/I-CUBE-HUAWEI/Middlewares/Third_Party/Huawei/iot_link/os/liteos/base/core\los_task.c **** 
 429:D:/fchai/work/i-cube/I-CUBE-HUAWEI/Middlewares/Third_Party/Huawei/iot_link/os/liteos/base/core\los_task.c ****     LOS_TaskLock();
 430:D:/fchai/work/i-cube/I-CUBE-HUAWEI/Middlewares/Third_Party/Huawei/iot_link/os/liteos/base/core\los_task.c ****     (VOID)LOS_AllTaskCpuUsage(g_uwTskMaxNum, pstCpu, 0xffff);
 431:D:/fchai/work/i-cube/I-CUBE-HUAWEI/Middlewares/Third_Party/Huawei/iot_link/os/liteos/base/core\los_task.c ****     (VOID)LOS_AllTaskCpuUsage(g_uwTskMaxNum, pstCpu10s, 0);
 432:D:/fchai/work/i-cube/I-CUBE-HUAWEI/Middlewares/Third_Party/Huawei/iot_link/os/liteos/base/core\los_task.c ****     (VOID)LOS_AllTaskCpuUsage(g_uwTskMaxNum, pstCpu1s, 1);
 433:D:/fchai/work/i-cube/I-CUBE-HUAWEI/Middlewares/Third_Party/Huawei/iot_link/os/liteos/base/core\los_task.c ****     LOS_TaskUnlock();
 434:D:/fchai/work/i-cube/I-CUBE-HUAWEI/Middlewares/Third_Party/Huawei/iot_link/os/liteos/base/core\los_task.c **** #endif
 435:D:/fchai/work/i-cube/I-CUBE-HUAWEI/Middlewares/Third_Party/Huawei/iot_link/os/liteos/base/core\los_task.c **** 
ARM GAS  T:\msys\tmp\ccehPeV4.s 			page 10


 436:D:/fchai/work/i-cube/I-CUBE-HUAWEI/Middlewares/Third_Party/Huawei/iot_link/os/liteos/base/core\los_task.c ****     PRINTK("\r\nName            TID    Priority   Status       StackSize    WaterLine    StackPoint
 437:D:/fchai/work/i-cube/I-CUBE-HUAWEI/Middlewares/Third_Party/Huawei/iot_link/os/liteos/base/core\los_task.c **** #if (LOSCFG_BASE_CORE_CPUP == YES)
 438:D:/fchai/work/i-cube/I-CUBE-HUAWEI/Middlewares/Third_Party/Huawei/iot_link/os/liteos/base/core\los_task.c ****     PRINT_ERR(" CPUUSE   CPUUSE10s  CPUUSE1s  ");/*lint !e515*/
 439:D:/fchai/work/i-cube/I-CUBE-HUAWEI/Middlewares/Third_Party/Huawei/iot_link/os/liteos/base/core\los_task.c **** #endif /* LOSCFG_BASE_CORE_CPUP */
 440:D:/fchai/work/i-cube/I-CUBE-HUAWEI/Middlewares/Third_Party/Huawei/iot_link/os/liteos/base/core\los_task.c ****     PRINTK("\n\r");/*lint !e515*/
 441:D:/fchai/work/i-cube/I-CUBE-HUAWEI/Middlewares/Third_Party/Huawei/iot_link/os/liteos/base/core\los_task.c ****     PRINTK("----            ---    --------   --------     ---------    ----------   ----------  --
 442:D:/fchai/work/i-cube/I-CUBE-HUAWEI/Middlewares/Third_Party/Huawei/iot_link/os/liteos/base/core\los_task.c **** #if (LOSCFG_BASE_CORE_CPUP == YES)
 443:D:/fchai/work/i-cube/I-CUBE-HUAWEI/Middlewares/Third_Party/Huawei/iot_link/os/liteos/base/core\los_task.c ****     PRINT_ERR("  ------- ---------  ---------");/*lint !e515*/
 444:D:/fchai/work/i-cube/I-CUBE-HUAWEI/Middlewares/Third_Party/Huawei/iot_link/os/liteos/base/core\los_task.c **** #endif /* LOSCFG_BASE_CORE_CPUP */
 445:D:/fchai/work/i-cube/I-CUBE-HUAWEI/Middlewares/Third_Party/Huawei/iot_link/os/liteos/base/core\los_task.c ****     PRINTK("\n\r");/*lint !e515*/
 446:D:/fchai/work/i-cube/I-CUBE-HUAWEI/Middlewares/Third_Party/Huawei/iot_link/os/liteos/base/core\los_task.c **** 
 447:D:/fchai/work/i-cube/I-CUBE-HUAWEI/Middlewares/Third_Party/Huawei/iot_link/os/liteos/base/core\los_task.c ****     for (uwLoop = 0; uwLoop < g_uwTskMaxNum; uwLoop++)
 448:D:/fchai/work/i-cube/I-CUBE-HUAWEI/Middlewares/Third_Party/Huawei/iot_link/os/liteos/base/core\los_task.c ****     {
 449:D:/fchai/work/i-cube/I-CUBE-HUAWEI/Middlewares/Third_Party/Huawei/iot_link/os/liteos/base/core\los_task.c ****         //uvIntSave = LOS_IntLock();
 450:D:/fchai/work/i-cube/I-CUBE-HUAWEI/Middlewares/Third_Party/Huawei/iot_link/os/liteos/base/core\los_task.c ****         pstTaskCB = OS_TCB_FROM_TID(uwLoop);
 451:D:/fchai/work/i-cube/I-CUBE-HUAWEI/Middlewares/Third_Party/Huawei/iot_link/os/liteos/base/core\los_task.c ****         if (pstTaskCB->usTaskStatus & OS_TASK_STATUS_UNUSED)
 452:D:/fchai/work/i-cube/I-CUBE-HUAWEI/Middlewares/Third_Party/Huawei/iot_link/os/liteos/base/core\los_task.c ****         {
 453:D:/fchai/work/i-cube/I-CUBE-HUAWEI/Middlewares/Third_Party/Huawei/iot_link/os/liteos/base/core\los_task.c ****             //LOS_IntRestore(uvIntSave);
 454:D:/fchai/work/i-cube/I-CUBE-HUAWEI/Middlewares/Third_Party/Huawei/iot_link/os/liteos/base/core\los_task.c ****             continue;
 455:D:/fchai/work/i-cube/I-CUBE-HUAWEI/Middlewares/Third_Party/Huawei/iot_link/os/liteos/base/core\los_task.c ****         }
 456:D:/fchai/work/i-cube/I-CUBE-HUAWEI/Middlewares/Third_Party/Huawei/iot_link/os/liteos/base/core\los_task.c **** 
 457:D:/fchai/work/i-cube/I-CUBE-HUAWEI/Middlewares/Third_Party/Huawei/iot_link/os/liteos/base/core\los_task.c ****         PRINTK("%-16s0x%-5x%-11d%-13s0x%-11x0x%-11x0x%-10x0x%-11x0x%-9x",
 458:D:/fchai/work/i-cube/I-CUBE-HUAWEI/Middlewares/Third_Party/Huawei/iot_link/os/liteos/base/core\los_task.c ****                           pstTaskCB->pcTaskName,
 459:D:/fchai/work/i-cube/I-CUBE-HUAWEI/Middlewares/Third_Party/Huawei/iot_link/os/liteos/base/core\los_task.c ****                           pstTaskCB->uwTaskID,
 460:D:/fchai/work/i-cube/I-CUBE-HUAWEI/Middlewares/Third_Party/Huawei/iot_link/os/liteos/base/core\los_task.c ****                           pstTaskCB->usPriority,
 461:D:/fchai/work/i-cube/I-CUBE-HUAWEI/Middlewares/Third_Party/Huawei/iot_link/os/liteos/base/core\los_task.c ****                           osConvertTskStatus(pstTaskCB->usTaskStatus),
 462:D:/fchai/work/i-cube/I-CUBE-HUAWEI/Middlewares/Third_Party/Huawei/iot_link/os/liteos/base/core\los_task.c ****                           pstTaskCB->uwStackSize,
 463:D:/fchai/work/i-cube/I-CUBE-HUAWEI/Middlewares/Third_Party/Huawei/iot_link/os/liteos/base/core\los_task.c ****                           osGetTaskWaterLine(pstTaskCB->uwTaskID),
 464:D:/fchai/work/i-cube/I-CUBE-HUAWEI/Middlewares/Third_Party/Huawei/iot_link/os/liteos/base/core\los_task.c ****                           (UINT32)pstTaskCB->pStackPointer,
 465:D:/fchai/work/i-cube/I-CUBE-HUAWEI/Middlewares/Third_Party/Huawei/iot_link/os/liteos/base/core\los_task.c ****                           pstTaskCB->uwTopOfStack,
 466:D:/fchai/work/i-cube/I-CUBE-HUAWEI/Middlewares/Third_Party/Huawei/iot_link/os/liteos/base/core\los_task.c ****                           pstTaskCB->uwEventMask);/*lint !e515*/
 467:D:/fchai/work/i-cube/I-CUBE-HUAWEI/Middlewares/Third_Party/Huawei/iot_link/os/liteos/base/core\los_task.c **** 
 468:D:/fchai/work/i-cube/I-CUBE-HUAWEI/Middlewares/Third_Party/Huawei/iot_link/os/liteos/base/core\los_task.c ****         if (pstTaskCB->pTaskSem != NULL)
 469:D:/fchai/work/i-cube/I-CUBE-HUAWEI/Middlewares/Third_Party/Huawei/iot_link/os/liteos/base/core\los_task.c ****         {
 470:D:/fchai/work/i-cube/I-CUBE-HUAWEI/Middlewares/Third_Party/Huawei/iot_link/os/liteos/base/core\los_task.c ****             PRINTK("0x%-7x", ((SEM_CB_S *)pstTaskCB->pTaskSem)->usSemID);/*lint !e516*/
 471:D:/fchai/work/i-cube/I-CUBE-HUAWEI/Middlewares/Third_Party/Huawei/iot_link/os/liteos/base/core\los_task.c ****         }
 472:D:/fchai/work/i-cube/I-CUBE-HUAWEI/Middlewares/Third_Party/Huawei/iot_link/os/liteos/base/core\los_task.c ****         else
 473:D:/fchai/work/i-cube/I-CUBE-HUAWEI/Middlewares/Third_Party/Huawei/iot_link/os/liteos/base/core\los_task.c ****         {
 474:D:/fchai/work/i-cube/I-CUBE-HUAWEI/Middlewares/Third_Party/Huawei/iot_link/os/liteos/base/core\los_task.c ****             PRINTK("0x%-7x", 0xFFFF);
 475:D:/fchai/work/i-cube/I-CUBE-HUAWEI/Middlewares/Third_Party/Huawei/iot_link/os/liteos/base/core\los_task.c ****         }
 476:D:/fchai/work/i-cube/I-CUBE-HUAWEI/Middlewares/Third_Party/Huawei/iot_link/os/liteos/base/core\los_task.c **** 
 477:D:/fchai/work/i-cube/I-CUBE-HUAWEI/Middlewares/Third_Party/Huawei/iot_link/os/liteos/base/core\los_task.c **** #if (LOSCFG_BASE_CORE_CPUP == YES)
 478:D:/fchai/work/i-cube/I-CUBE-HUAWEI/Middlewares/Third_Party/Huawei/iot_link/os/liteos/base/core\los_task.c ****         PRINT_ERR("%2d.%-7d"
 479:D:/fchai/work/i-cube/I-CUBE-HUAWEI/Middlewares/Third_Party/Huawei/iot_link/os/liteos/base/core\los_task.c ****                           "%2d.%-9d"
 480:D:/fchai/work/i-cube/I-CUBE-HUAWEI/Middlewares/Third_Party/Huawei/iot_link/os/liteos/base/core\los_task.c ****                           "%2d.%-6d",
 481:D:/fchai/work/i-cube/I-CUBE-HUAWEI/Middlewares/Third_Party/Huawei/iot_link/os/liteos/base/core\los_task.c ****                           pstCpu[pstTaskCB->uwTaskID].uwUsage / LOS_CPUP_PRECISION_MULT,
 482:D:/fchai/work/i-cube/I-CUBE-HUAWEI/Middlewares/Third_Party/Huawei/iot_link/os/liteos/base/core\los_task.c ****                           pstCpu[pstTaskCB->uwTaskID].uwUsage % LOS_CPUP_PRECISION_MULT,
 483:D:/fchai/work/i-cube/I-CUBE-HUAWEI/Middlewares/Third_Party/Huawei/iot_link/os/liteos/base/core\los_task.c ****                           pstCpu10s[pstTaskCB->uwTaskID].uwUsage / LOS_CPUP_PRECISION_MULT,
 484:D:/fchai/work/i-cube/I-CUBE-HUAWEI/Middlewares/Third_Party/Huawei/iot_link/os/liteos/base/core\los_task.c ****                           pstCpu10s[pstTaskCB->uwTaskID].uwUsage % LOS_CPUP_PRECISION_MULT,
 485:D:/fchai/work/i-cube/I-CUBE-HUAWEI/Middlewares/Third_Party/Huawei/iot_link/os/liteos/base/core\los_task.c ****                           pstCpu1s[pstTaskCB->uwTaskID].uwUsage / LOS_CPUP_PRECISION_MULT,
 486:D:/fchai/work/i-cube/I-CUBE-HUAWEI/Middlewares/Third_Party/Huawei/iot_link/os/liteos/base/core\los_task.c ****                           pstCpu1s[pstTaskCB->uwTaskID].uwUsage % LOS_CPUP_PRECISION_MULT);/*lint !
 487:D:/fchai/work/i-cube/I-CUBE-HUAWEI/Middlewares/Third_Party/Huawei/iot_link/os/liteos/base/core\los_task.c **** #endif /* LOSCFG_BASE_CORE_CPUP */
 488:D:/fchai/work/i-cube/I-CUBE-HUAWEI/Middlewares/Third_Party/Huawei/iot_link/os/liteos/base/core\los_task.c ****         PRINTK("\r\n");/*lint !e515*/
 489:D:/fchai/work/i-cube/I-CUBE-HUAWEI/Middlewares/Third_Party/Huawei/iot_link/os/liteos/base/core\los_task.c ****     }
 490:D:/fchai/work/i-cube/I-CUBE-HUAWEI/Middlewares/Third_Party/Huawei/iot_link/os/liteos/base/core\los_task.c **** 
 491:D:/fchai/work/i-cube/I-CUBE-HUAWEI/Middlewares/Third_Party/Huawei/iot_link/os/liteos/base/core\los_task.c **** #if (LOSCFG_BASE_CORE_CPUP == YES)
 492:D:/fchai/work/i-cube/I-CUBE-HUAWEI/Middlewares/Third_Party/Huawei/iot_link/os/liteos/base/core\los_task.c ****     (VOID)LOS_MemFree((VOID *)OS_SYS_MEM_ADDR, pstCpu);
ARM GAS  T:\msys\tmp\ccehPeV4.s 			page 11


 493:D:/fchai/work/i-cube/I-CUBE-HUAWEI/Middlewares/Third_Party/Huawei/iot_link/os/liteos/base/core\los_task.c ****     (VOID)LOS_MemFree((VOID *)OS_SYS_MEM_ADDR, pstCpu10s);
 494:D:/fchai/work/i-cube/I-CUBE-HUAWEI/Middlewares/Third_Party/Huawei/iot_link/os/liteos/base/core\los_task.c ****     (VOID)LOS_MemFree((VOID *)OS_SYS_MEM_ADDR, pstCpu1s);
 495:D:/fchai/work/i-cube/I-CUBE-HUAWEI/Middlewares/Third_Party/Huawei/iot_link/os/liteos/base/core\los_task.c **** #endif
 496:D:/fchai/work/i-cube/I-CUBE-HUAWEI/Middlewares/Third_Party/Huawei/iot_link/os/liteos/base/core\los_task.c **** 
 497:D:/fchai/work/i-cube/I-CUBE-HUAWEI/Middlewares/Third_Party/Huawei/iot_link/os/liteos/base/core\los_task.c ****     return LOS_OK;
 498:D:/fchai/work/i-cube/I-CUBE-HUAWEI/Middlewares/Third_Party/Huawei/iot_link/os/liteos/base/core\los_task.c **** }
 499:D:/fchai/work/i-cube/I-CUBE-HUAWEI/Middlewares/Third_Party/Huawei/iot_link/os/liteos/base/core\los_task.c **** 
 500:D:/fchai/work/i-cube/I-CUBE-HUAWEI/Middlewares/Third_Party/Huawei/iot_link/os/liteos/base/core\los_task.c **** /*****************************************************************************
 501:D:/fchai/work/i-cube/I-CUBE-HUAWEI/Middlewares/Third_Party/Huawei/iot_link/os/liteos/base/core\los_task.c ****  Function : osTaskInit
 502:D:/fchai/work/i-cube/I-CUBE-HUAWEI/Middlewares/Third_Party/Huawei/iot_link/os/liteos/base/core\los_task.c ****  Description : Task init function.
 503:D:/fchai/work/i-cube/I-CUBE-HUAWEI/Middlewares/Third_Party/Huawei/iot_link/os/liteos/base/core\los_task.c ****  Input       : None
 504:D:/fchai/work/i-cube/I-CUBE-HUAWEI/Middlewares/Third_Party/Huawei/iot_link/os/liteos/base/core\los_task.c ****  Output      : None
 505:D:/fchai/work/i-cube/I-CUBE-HUAWEI/Middlewares/Third_Party/Huawei/iot_link/os/liteos/base/core\los_task.c ****  Return      : LOS_OK on success or error code on failure
 506:D:/fchai/work/i-cube/I-CUBE-HUAWEI/Middlewares/Third_Party/Huawei/iot_link/os/liteos/base/core\los_task.c ****  *****************************************************************************/
 507:D:/fchai/work/i-cube/I-CUBE-HUAWEI/Middlewares/Third_Party/Huawei/iot_link/os/liteos/base/core\los_task.c **** LITE_OS_SEC_TEXT_INIT UINT32 osTaskInit(VOID)
 508:D:/fchai/work/i-cube/I-CUBE-HUAWEI/Middlewares/Third_Party/Huawei/iot_link/os/liteos/base/core\los_task.c **** {
 509:D:/fchai/work/i-cube/I-CUBE-HUAWEI/Middlewares/Third_Party/Huawei/iot_link/os/liteos/base/core\los_task.c ****     UINT32 uwSize;
 510:D:/fchai/work/i-cube/I-CUBE-HUAWEI/Middlewares/Third_Party/Huawei/iot_link/os/liteos/base/core\los_task.c ****     UINT32 uwIndex;
 511:D:/fchai/work/i-cube/I-CUBE-HUAWEI/Middlewares/Third_Party/Huawei/iot_link/os/liteos/base/core\los_task.c ****     LOS_DL_LIST *pstListObject;
 512:D:/fchai/work/i-cube/I-CUBE-HUAWEI/Middlewares/Third_Party/Huawei/iot_link/os/liteos/base/core\los_task.c **** 
 513:D:/fchai/work/i-cube/I-CUBE-HUAWEI/Middlewares/Third_Party/Huawei/iot_link/os/liteos/base/core\los_task.c **** #if (LOSCFG_STATIC_TASK == NO)
 514:D:/fchai/work/i-cube/I-CUBE-HUAWEI/Middlewares/Third_Party/Huawei/iot_link/os/liteos/base/core\los_task.c **** 
 515:D:/fchai/work/i-cube/I-CUBE-HUAWEI/Middlewares/Third_Party/Huawei/iot_link/os/liteos/base/core\los_task.c ****     /*
 516:D:/fchai/work/i-cube/I-CUBE-HUAWEI/Middlewares/Third_Party/Huawei/iot_link/os/liteos/base/core\los_task.c ****      * allocate (g_uwTskMaxNum + 1) tcbs because, LOS_TaskDelete will use g_pstTaskCBArray [g_uwTsk
 517:D:/fchai/work/i-cube/I-CUBE-HUAWEI/Middlewares/Third_Party/Huawei/iot_link/os/liteos/base/core\los_task.c ****      */
 518:D:/fchai/work/i-cube/I-CUBE-HUAWEI/Middlewares/Third_Party/Huawei/iot_link/os/liteos/base/core\los_task.c **** 
 519:D:/fchai/work/i-cube/I-CUBE-HUAWEI/Middlewares/Third_Party/Huawei/iot_link/os/liteos/base/core\los_task.c ****     uwSize = (g_uwTskMaxNum + 1) * sizeof(LOS_TASK_CB);
 520:D:/fchai/work/i-cube/I-CUBE-HUAWEI/Middlewares/Third_Party/Huawei/iot_link/os/liteos/base/core\los_task.c ****     g_pstTaskCBArray = (LOS_TASK_CB *)LOS_MemAlloc(m_aucSysMem0, uwSize);
 521:D:/fchai/work/i-cube/I-CUBE-HUAWEI/Middlewares/Third_Party/Huawei/iot_link/os/liteos/base/core\los_task.c ****     if (NULL == g_pstTaskCBArray)
 522:D:/fchai/work/i-cube/I-CUBE-HUAWEI/Middlewares/Third_Party/Huawei/iot_link/os/liteos/base/core\los_task.c ****     {
 523:D:/fchai/work/i-cube/I-CUBE-HUAWEI/Middlewares/Third_Party/Huawei/iot_link/os/liteos/base/core\los_task.c ****         return LOS_ERRNO_TSK_NO_MEMORY;
 524:D:/fchai/work/i-cube/I-CUBE-HUAWEI/Middlewares/Third_Party/Huawei/iot_link/os/liteos/base/core\los_task.c ****     }
 525:D:/fchai/work/i-cube/I-CUBE-HUAWEI/Middlewares/Third_Party/Huawei/iot_link/os/liteos/base/core\los_task.c **** 
 526:D:/fchai/work/i-cube/I-CUBE-HUAWEI/Middlewares/Third_Party/Huawei/iot_link/os/liteos/base/core\los_task.c ****     (VOID)memset(g_pstTaskCBArray, 0, uwSize);
 527:D:/fchai/work/i-cube/I-CUBE-HUAWEI/Middlewares/Third_Party/Huawei/iot_link/os/liteos/base/core\los_task.c ****     LOS_ListInit(&g_stTaskTimerList);
 528:D:/fchai/work/i-cube/I-CUBE-HUAWEI/Middlewares/Third_Party/Huawei/iot_link/os/liteos/base/core\los_task.c ****     LOS_ListInit(&g_stLosFreeTask);
 529:D:/fchai/work/i-cube/I-CUBE-HUAWEI/Middlewares/Third_Party/Huawei/iot_link/os/liteos/base/core\los_task.c ****     LOS_ListInit(&g_stTskRecyleList);
 530:D:/fchai/work/i-cube/I-CUBE-HUAWEI/Middlewares/Third_Party/Huawei/iot_link/os/liteos/base/core\los_task.c ****     for (uwIndex = 0; uwIndex <= LOSCFG_BASE_CORE_TSK_LIMIT; uwIndex++)
 531:D:/fchai/work/i-cube/I-CUBE-HUAWEI/Middlewares/Third_Party/Huawei/iot_link/os/liteos/base/core\los_task.c ****     {
 532:D:/fchai/work/i-cube/I-CUBE-HUAWEI/Middlewares/Third_Party/Huawei/iot_link/os/liteos/base/core\los_task.c ****         g_pstTaskCBArray[uwIndex].usTaskStatus = OS_TASK_STATUS_UNUSED;
 533:D:/fchai/work/i-cube/I-CUBE-HUAWEI/Middlewares/Third_Party/Huawei/iot_link/os/liteos/base/core\los_task.c ****         g_pstTaskCBArray[uwIndex].uwTaskID = uwIndex;
 534:D:/fchai/work/i-cube/I-CUBE-HUAWEI/Middlewares/Third_Party/Huawei/iot_link/os/liteos/base/core\los_task.c ****         LOS_ListTailInsert(&g_stLosFreeTask, &g_pstTaskCBArray[uwIndex].stPendList);
 535:D:/fchai/work/i-cube/I-CUBE-HUAWEI/Middlewares/Third_Party/Huawei/iot_link/os/liteos/base/core\los_task.c ****     }
 536:D:/fchai/work/i-cube/I-CUBE-HUAWEI/Middlewares/Third_Party/Huawei/iot_link/os/liteos/base/core\los_task.c **** 
 537:D:/fchai/work/i-cube/I-CUBE-HUAWEI/Middlewares/Third_Party/Huawei/iot_link/os/liteos/base/core\los_task.c ****     (VOID)memset((VOID *)(&g_stLosTask), 0, sizeof(g_stLosTask));
 538:D:/fchai/work/i-cube/I-CUBE-HUAWEI/Middlewares/Third_Party/Huawei/iot_link/os/liteos/base/core\los_task.c **** 
 539:D:/fchai/work/i-cube/I-CUBE-HUAWEI/Middlewares/Third_Party/Huawei/iot_link/os/liteos/base/core\los_task.c ****     /*
 540:D:/fchai/work/i-cube/I-CUBE-HUAWEI/Middlewares/Third_Party/Huawei/iot_link/os/liteos/base/core\los_task.c ****      * g_stLosTask->pstRunTask will be overided by pstRunTask->pstNewTask
 541:D:/fchai/work/i-cube/I-CUBE-HUAWEI/Middlewares/Third_Party/Huawei/iot_link/os/liteos/base/core\los_task.c ****      * in LOS_StartToRun, needless give pstRunTask a initialize value
 542:D:/fchai/work/i-cube/I-CUBE-HUAWEI/Middlewares/Third_Party/Huawei/iot_link/os/liteos/base/core\los_task.c ****      */
 543:D:/fchai/work/i-cube/I-CUBE-HUAWEI/Middlewares/Third_Party/Huawei/iot_link/os/liteos/base/core\los_task.c **** #endif
 544:D:/fchai/work/i-cube/I-CUBE-HUAWEI/Middlewares/Third_Party/Huawei/iot_link/os/liteos/base/core\los_task.c **** 
 545:D:/fchai/work/i-cube/I-CUBE-HUAWEI/Middlewares/Third_Party/Huawei/iot_link/os/liteos/base/core\los_task.c ****     osPriqueueInit();
 546:D:/fchai/work/i-cube/I-CUBE-HUAWEI/Middlewares/Third_Party/Huawei/iot_link/os/liteos/base/core\los_task.c ****     uwSize = sizeof(LOS_DL_LIST) * OS_TSK_SORTLINK_LEN;
 547:D:/fchai/work/i-cube/I-CUBE-HUAWEI/Middlewares/Third_Party/Huawei/iot_link/os/liteos/base/core\los_task.c ****     pstListObject = (LOS_DL_LIST *)LOS_MemAlloc(m_aucSysMem0, uwSize);
 548:D:/fchai/work/i-cube/I-CUBE-HUAWEI/Middlewares/Third_Party/Huawei/iot_link/os/liteos/base/core\los_task.c ****     if (NULL == pstListObject)
 549:D:/fchai/work/i-cube/I-CUBE-HUAWEI/Middlewares/Third_Party/Huawei/iot_link/os/liteos/base/core\los_task.c ****     {
ARM GAS  T:\msys\tmp\ccehPeV4.s 			page 12


 550:D:/fchai/work/i-cube/I-CUBE-HUAWEI/Middlewares/Third_Party/Huawei/iot_link/os/liteos/base/core\los_task.c ****         return LOS_ERRNO_TSK_NO_MEMORY;
 551:D:/fchai/work/i-cube/I-CUBE-HUAWEI/Middlewares/Third_Party/Huawei/iot_link/os/liteos/base/core\los_task.c ****     }
 552:D:/fchai/work/i-cube/I-CUBE-HUAWEI/Middlewares/Third_Party/Huawei/iot_link/os/liteos/base/core\los_task.c **** 
 553:D:/fchai/work/i-cube/I-CUBE-HUAWEI/Middlewares/Third_Party/Huawei/iot_link/os/liteos/base/core\los_task.c ****     (VOID)memset((VOID *)pstListObject, 0, uwSize);
 554:D:/fchai/work/i-cube/I-CUBE-HUAWEI/Middlewares/Third_Party/Huawei/iot_link/os/liteos/base/core\los_task.c ****     g_stTskSortLink.pstSortLink = pstListObject;
 555:D:/fchai/work/i-cube/I-CUBE-HUAWEI/Middlewares/Third_Party/Huawei/iot_link/os/liteos/base/core\los_task.c ****     g_stTskSortLink.usCursor = 0;
 556:D:/fchai/work/i-cube/I-CUBE-HUAWEI/Middlewares/Third_Party/Huawei/iot_link/os/liteos/base/core\los_task.c ****     for (uwIndex = 0; uwIndex < OS_TSK_SORTLINK_LEN; uwIndex++, pstListObject++)
 557:D:/fchai/work/i-cube/I-CUBE-HUAWEI/Middlewares/Third_Party/Huawei/iot_link/os/liteos/base/core\los_task.c ****     {
 558:D:/fchai/work/i-cube/I-CUBE-HUAWEI/Middlewares/Third_Party/Huawei/iot_link/os/liteos/base/core\los_task.c ****         LOS_ListInit(pstListObject);
 559:D:/fchai/work/i-cube/I-CUBE-HUAWEI/Middlewares/Third_Party/Huawei/iot_link/os/liteos/base/core\los_task.c ****     }
 560:D:/fchai/work/i-cube/I-CUBE-HUAWEI/Middlewares/Third_Party/Huawei/iot_link/os/liteos/base/core\los_task.c **** 
 561:D:/fchai/work/i-cube/I-CUBE-HUAWEI/Middlewares/Third_Party/Huawei/iot_link/os/liteos/base/core\los_task.c **** #if ((LOSCFG_PLATFORM_EXC == YES) && (LOSCFG_SAVE_EXC_INFO == YES))
 562:D:/fchai/work/i-cube/I-CUBE-HUAWEI/Middlewares/Third_Party/Huawei/iot_link/os/liteos/base/core\los_task.c ****     osExcRegister((EXC_INFO_TYPE)OS_EXC_TYPE_TSK, (EXC_INFO_SAVE_CALLBACK)LOS_TaskInfoGet, &g_uwTsk
 563:D:/fchai/work/i-cube/I-CUBE-HUAWEI/Middlewares/Third_Party/Huawei/iot_link/os/liteos/base/core\los_task.c **** #endif
 564:D:/fchai/work/i-cube/I-CUBE-HUAWEI/Middlewares/Third_Party/Huawei/iot_link/os/liteos/base/core\los_task.c **** 
 565:D:/fchai/work/i-cube/I-CUBE-HUAWEI/Middlewares/Third_Party/Huawei/iot_link/os/liteos/base/core\los_task.c **** #if (LOSCFG_LIB_LIBC_NEWLIB_REENT == YES)
 566:D:/fchai/work/i-cube/I-CUBE-HUAWEI/Middlewares/Third_Party/Huawei/iot_link/os/liteos/base/core\los_task.c ****     extern LITE_OS_SEC_TEXT VOID osTaskSwitchImpurePtr(VOID);
 567:D:/fchai/work/i-cube/I-CUBE-HUAWEI/Middlewares/Third_Party/Huawei/iot_link/os/liteos/base/core\los_task.c ****     g_pfnTskSwitchImpurePtrHook = osTaskSwitchImpurePtr;
 568:D:/fchai/work/i-cube/I-CUBE-HUAWEI/Middlewares/Third_Party/Huawei/iot_link/os/liteos/base/core\los_task.c **** #endif
 569:D:/fchai/work/i-cube/I-CUBE-HUAWEI/Middlewares/Third_Party/Huawei/iot_link/os/liteos/base/core\los_task.c ****     return LOS_OK;
 570:D:/fchai/work/i-cube/I-CUBE-HUAWEI/Middlewares/Third_Party/Huawei/iot_link/os/liteos/base/core\los_task.c **** }
 571:D:/fchai/work/i-cube/I-CUBE-HUAWEI/Middlewares/Third_Party/Huawei/iot_link/os/liteos/base/core\los_task.c **** 
 572:D:/fchai/work/i-cube/I-CUBE-HUAWEI/Middlewares/Third_Party/Huawei/iot_link/os/liteos/base/core\los_task.c **** 
 573:D:/fchai/work/i-cube/I-CUBE-HUAWEI/Middlewares/Third_Party/Huawei/iot_link/os/liteos/base/core\los_task.c **** #if (LOSCFG_STATIC_TASK == YES)
 574:D:/fchai/work/i-cube/I-CUBE-HUAWEI/Middlewares/Third_Party/Huawei/iot_link/os/liteos/base/core\los_task.c **** LOS_TASK_DEF(idleTask, "IdleCore000", osIdleTask,
 575:D:/fchai/work/i-cube/I-CUBE-HUAWEI/Middlewares/Third_Party/Huawei/iot_link/os/liteos/base/core\los_task.c ****     OS_TASK_PRIORITY_LOWEST, 0, LOSCFG_BASE_CORE_TSK_IDLE_STACK_SIZE, 0, NULL);
 576:D:/fchai/work/i-cube/I-CUBE-HUAWEI/Middlewares/Third_Party/Huawei/iot_link/os/liteos/base/core\los_task.c **** #endif
 577:D:/fchai/work/i-cube/I-CUBE-HUAWEI/Middlewares/Third_Party/Huawei/iot_link/os/liteos/base/core\los_task.c **** 
 578:D:/fchai/work/i-cube/I-CUBE-HUAWEI/Middlewares/Third_Party/Huawei/iot_link/os/liteos/base/core\los_task.c **** 
 579:D:/fchai/work/i-cube/I-CUBE-HUAWEI/Middlewares/Third_Party/Huawei/iot_link/os/liteos/base/core\los_task.c **** /*****************************************************************************
 580:D:/fchai/work/i-cube/I-CUBE-HUAWEI/Middlewares/Third_Party/Huawei/iot_link/os/liteos/base/core\los_task.c ****  Function : osIdleTaskCreate
 581:D:/fchai/work/i-cube/I-CUBE-HUAWEI/Middlewares/Third_Party/Huawei/iot_link/os/liteos/base/core\los_task.c ****  Description : Create idle task.
 582:D:/fchai/work/i-cube/I-CUBE-HUAWEI/Middlewares/Third_Party/Huawei/iot_link/os/liteos/base/core\los_task.c ****  Input       : None
 583:D:/fchai/work/i-cube/I-CUBE-HUAWEI/Middlewares/Third_Party/Huawei/iot_link/os/liteos/base/core\los_task.c ****  Output      : None
 584:D:/fchai/work/i-cube/I-CUBE-HUAWEI/Middlewares/Third_Party/Huawei/iot_link/os/liteos/base/core\los_task.c ****  Return      : LOS_OK on success or error code on failure
 585:D:/fchai/work/i-cube/I-CUBE-HUAWEI/Middlewares/Third_Party/Huawei/iot_link/os/liteos/base/core\los_task.c ****  *****************************************************************************/
 586:D:/fchai/work/i-cube/I-CUBE-HUAWEI/Middlewares/Third_Party/Huawei/iot_link/os/liteos/base/core\los_task.c **** LITE_OS_SEC_TEXT_INIT UINT32 osIdleTaskCreate(VOID)
 587:D:/fchai/work/i-cube/I-CUBE-HUAWEI/Middlewares/Third_Party/Huawei/iot_link/os/liteos/base/core\los_task.c **** {
 588:D:/fchai/work/i-cube/I-CUBE-HUAWEI/Middlewares/Third_Party/Huawei/iot_link/os/liteos/base/core\los_task.c **** #if (LOSCFG_STATIC_TASK == NO)
 589:D:/fchai/work/i-cube/I-CUBE-HUAWEI/Middlewares/Third_Party/Huawei/iot_link/os/liteos/base/core\los_task.c ****     UINT32 uwRet;
 590:D:/fchai/work/i-cube/I-CUBE-HUAWEI/Middlewares/Third_Party/Huawei/iot_link/os/liteos/base/core\los_task.c ****     TSK_INIT_PARAM_S stTaskInitParam;
 591:D:/fchai/work/i-cube/I-CUBE-HUAWEI/Middlewares/Third_Party/Huawei/iot_link/os/liteos/base/core\los_task.c **** 
 592:D:/fchai/work/i-cube/I-CUBE-HUAWEI/Middlewares/Third_Party/Huawei/iot_link/os/liteos/base/core\los_task.c ****     (VOID)memset((VOID *)(&stTaskInitParam), 0, sizeof(TSK_INIT_PARAM_S));
 593:D:/fchai/work/i-cube/I-CUBE-HUAWEI/Middlewares/Third_Party/Huawei/iot_link/os/liteos/base/core\los_task.c ****     stTaskInitParam.pfnTaskEntry = (TSK_ENTRY_FUNC)osIdleTask;
 594:D:/fchai/work/i-cube/I-CUBE-HUAWEI/Middlewares/Third_Party/Huawei/iot_link/os/liteos/base/core\los_task.c ****     stTaskInitParam.uwStackSize = LOSCFG_BASE_CORE_TSK_IDLE_STACK_SIZE;
 595:D:/fchai/work/i-cube/I-CUBE-HUAWEI/Middlewares/Third_Party/Huawei/iot_link/os/liteos/base/core\los_task.c ****     stTaskInitParam.pcName = "IdleCore000";
 596:D:/fchai/work/i-cube/I-CUBE-HUAWEI/Middlewares/Third_Party/Huawei/iot_link/os/liteos/base/core\los_task.c ****     stTaskInitParam.usTaskPrio = OS_TASK_PRIORITY_LOWEST;
 597:D:/fchai/work/i-cube/I-CUBE-HUAWEI/Middlewares/Third_Party/Huawei/iot_link/os/liteos/base/core\los_task.c ****     uwRet = LOS_TaskCreate(&g_uwIdleTaskID, &stTaskInitParam);
 598:D:/fchai/work/i-cube/I-CUBE-HUAWEI/Middlewares/Third_Party/Huawei/iot_link/os/liteos/base/core\los_task.c **** 
 599:D:/fchai/work/i-cube/I-CUBE-HUAWEI/Middlewares/Third_Party/Huawei/iot_link/os/liteos/base/core\los_task.c ****     if (uwRet != LOS_OK)
 600:D:/fchai/work/i-cube/I-CUBE-HUAWEI/Middlewares/Third_Party/Huawei/iot_link/os/liteos/base/core\los_task.c ****     {
 601:D:/fchai/work/i-cube/I-CUBE-HUAWEI/Middlewares/Third_Party/Huawei/iot_link/os/liteos/base/core\los_task.c ****         return uwRet;
 602:D:/fchai/work/i-cube/I-CUBE-HUAWEI/Middlewares/Third_Party/Huawei/iot_link/os/liteos/base/core\los_task.c ****     }
 603:D:/fchai/work/i-cube/I-CUBE-HUAWEI/Middlewares/Third_Party/Huawei/iot_link/os/liteos/base/core\los_task.c **** 
 604:D:/fchai/work/i-cube/I-CUBE-HUAWEI/Middlewares/Third_Party/Huawei/iot_link/os/liteos/base/core\los_task.c ****     return LOS_OK;
 605:D:/fchai/work/i-cube/I-CUBE-HUAWEI/Middlewares/Third_Party/Huawei/iot_link/os/liteos/base/core\los_task.c **** #else
 606:D:/fchai/work/i-cube/I-CUBE-HUAWEI/Middlewares/Third_Party/Huawei/iot_link/os/liteos/base/core\los_task.c ****     return LOS_TASK_INIT(idleTask, &g_uwIdleTaskID);
ARM GAS  T:\msys\tmp\ccehPeV4.s 			page 13


 607:D:/fchai/work/i-cube/I-CUBE-HUAWEI/Middlewares/Third_Party/Huawei/iot_link/os/liteos/base/core\los_task.c **** #endif
 608:D:/fchai/work/i-cube/I-CUBE-HUAWEI/Middlewares/Third_Party/Huawei/iot_link/os/liteos/base/core\los_task.c **** }
 609:D:/fchai/work/i-cube/I-CUBE-HUAWEI/Middlewares/Third_Party/Huawei/iot_link/os/liteos/base/core\los_task.c **** 
 610:D:/fchai/work/i-cube/I-CUBE-HUAWEI/Middlewares/Third_Party/Huawei/iot_link/os/liteos/base/core\los_task.c **** /*****************************************************************************
 611:D:/fchai/work/i-cube/I-CUBE-HUAWEI/Middlewares/Third_Party/Huawei/iot_link/os/liteos/base/core\los_task.c ****  Function : LOS_CurTaskIDGet
 612:D:/fchai/work/i-cube/I-CUBE-HUAWEI/Middlewares/Third_Party/Huawei/iot_link/os/liteos/base/core\los_task.c ****  Description : get id of current running task.
 613:D:/fchai/work/i-cube/I-CUBE-HUAWEI/Middlewares/Third_Party/Huawei/iot_link/os/liteos/base/core\los_task.c ****  Input       : None
 614:D:/fchai/work/i-cube/I-CUBE-HUAWEI/Middlewares/Third_Party/Huawei/iot_link/os/liteos/base/core\los_task.c ****  Output      : None
 615:D:/fchai/work/i-cube/I-CUBE-HUAWEI/Middlewares/Third_Party/Huawei/iot_link/os/liteos/base/core\los_task.c ****  Return      : task id
 616:D:/fchai/work/i-cube/I-CUBE-HUAWEI/Middlewares/Third_Party/Huawei/iot_link/os/liteos/base/core\los_task.c ****  *****************************************************************************/
 617:D:/fchai/work/i-cube/I-CUBE-HUAWEI/Middlewares/Third_Party/Huawei/iot_link/os/liteos/base/core\los_task.c **** LITE_OS_SEC_TEXT UINT32 LOS_CurTaskIDGet(VOID)
 618:D:/fchai/work/i-cube/I-CUBE-HUAWEI/Middlewares/Third_Party/Huawei/iot_link/os/liteos/base/core\los_task.c **** {
 619:D:/fchai/work/i-cube/I-CUBE-HUAWEI/Middlewares/Third_Party/Huawei/iot_link/os/liteos/base/core\los_task.c ****     if (NULL == g_stLosTask.pstRunTask)
 620:D:/fchai/work/i-cube/I-CUBE-HUAWEI/Middlewares/Third_Party/Huawei/iot_link/os/liteos/base/core\los_task.c ****     {
 621:D:/fchai/work/i-cube/I-CUBE-HUAWEI/Middlewares/Third_Party/Huawei/iot_link/os/liteos/base/core\los_task.c ****         return LOS_ERRNO_TSK_ID_INVALID;
 622:D:/fchai/work/i-cube/I-CUBE-HUAWEI/Middlewares/Third_Party/Huawei/iot_link/os/liteos/base/core\los_task.c ****     }
 623:D:/fchai/work/i-cube/I-CUBE-HUAWEI/Middlewares/Third_Party/Huawei/iot_link/os/liteos/base/core\los_task.c ****     return g_stLosTask.pstRunTask->uwTaskID;
 624:D:/fchai/work/i-cube/I-CUBE-HUAWEI/Middlewares/Third_Party/Huawei/iot_link/os/liteos/base/core\los_task.c **** }
 625:D:/fchai/work/i-cube/I-CUBE-HUAWEI/Middlewares/Third_Party/Huawei/iot_link/os/liteos/base/core\los_task.c **** 
 626:D:/fchai/work/i-cube/I-CUBE-HUAWEI/Middlewares/Third_Party/Huawei/iot_link/os/liteos/base/core\los_task.c **** /*****************************************************************************
 627:D:/fchai/work/i-cube/I-CUBE-HUAWEI/Middlewares/Third_Party/Huawei/iot_link/os/liteos/base/core\los_task.c ****  Function : LOS_NextTaskIDGet
 628:D:/fchai/work/i-cube/I-CUBE-HUAWEI/Middlewares/Third_Party/Huawei/iot_link/os/liteos/base/core\los_task.c ****  Description : get id of next running task.
 629:D:/fchai/work/i-cube/I-CUBE-HUAWEI/Middlewares/Third_Party/Huawei/iot_link/os/liteos/base/core\los_task.c ****  Input       : None
 630:D:/fchai/work/i-cube/I-CUBE-HUAWEI/Middlewares/Third_Party/Huawei/iot_link/os/liteos/base/core\los_task.c ****  Output      : None
 631:D:/fchai/work/i-cube/I-CUBE-HUAWEI/Middlewares/Third_Party/Huawei/iot_link/os/liteos/base/core\los_task.c ****  Return      : task id
 632:D:/fchai/work/i-cube/I-CUBE-HUAWEI/Middlewares/Third_Party/Huawei/iot_link/os/liteos/base/core\los_task.c ****  *****************************************************************************/
 633:D:/fchai/work/i-cube/I-CUBE-HUAWEI/Middlewares/Third_Party/Huawei/iot_link/os/liteos/base/core\los_task.c **** LITE_OS_SEC_TEXT UINT32 LOS_NextTaskIDGet(VOID)
 634:D:/fchai/work/i-cube/I-CUBE-HUAWEI/Middlewares/Third_Party/Huawei/iot_link/os/liteos/base/core\los_task.c **** {
 635:D:/fchai/work/i-cube/I-CUBE-HUAWEI/Middlewares/Third_Party/Huawei/iot_link/os/liteos/base/core\los_task.c ****     if (NULL == g_stLosTask.pstNewTask)
 636:D:/fchai/work/i-cube/I-CUBE-HUAWEI/Middlewares/Third_Party/Huawei/iot_link/os/liteos/base/core\los_task.c ****     {
 637:D:/fchai/work/i-cube/I-CUBE-HUAWEI/Middlewares/Third_Party/Huawei/iot_link/os/liteos/base/core\los_task.c ****         return LOS_ERRNO_TSK_ID_INVALID;
 638:D:/fchai/work/i-cube/I-CUBE-HUAWEI/Middlewares/Third_Party/Huawei/iot_link/os/liteos/base/core\los_task.c ****     }
 639:D:/fchai/work/i-cube/I-CUBE-HUAWEI/Middlewares/Third_Party/Huawei/iot_link/os/liteos/base/core\los_task.c ****     return g_stLosTask.pstNewTask->uwTaskID;
 640:D:/fchai/work/i-cube/I-CUBE-HUAWEI/Middlewares/Third_Party/Huawei/iot_link/os/liteos/base/core\los_task.c **** }
 641:D:/fchai/work/i-cube/I-CUBE-HUAWEI/Middlewares/Third_Party/Huawei/iot_link/os/liteos/base/core\los_task.c **** 
 642:D:/fchai/work/i-cube/I-CUBE-HUAWEI/Middlewares/Third_Party/Huawei/iot_link/os/liteos/base/core\los_task.c **** /*****************************************************************************
 643:D:/fchai/work/i-cube/I-CUBE-HUAWEI/Middlewares/Third_Party/Huawei/iot_link/os/liteos/base/core\los_task.c ****  Function : LOS_CurTaskNameGet
 644:D:/fchai/work/i-cube/I-CUBE-HUAWEI/Middlewares/Third_Party/Huawei/iot_link/os/liteos/base/core\los_task.c ****  Description : get name of current running task.
 645:D:/fchai/work/i-cube/I-CUBE-HUAWEI/Middlewares/Third_Party/Huawei/iot_link/os/liteos/base/core\los_task.c ****  Input       : None
 646:D:/fchai/work/i-cube/I-CUBE-HUAWEI/Middlewares/Third_Party/Huawei/iot_link/os/liteos/base/core\los_task.c ****  Output      : None
 647:D:/fchai/work/i-cube/I-CUBE-HUAWEI/Middlewares/Third_Party/Huawei/iot_link/os/liteos/base/core\los_task.c ****  Return      : task name
 648:D:/fchai/work/i-cube/I-CUBE-HUAWEI/Middlewares/Third_Party/Huawei/iot_link/os/liteos/base/core\los_task.c ****  *****************************************************************************/
 649:D:/fchai/work/i-cube/I-CUBE-HUAWEI/Middlewares/Third_Party/Huawei/iot_link/os/liteos/base/core\los_task.c **** LITE_OS_SEC_TEXT CHAR *LOS_CurTaskNameGet(VOID)
 650:D:/fchai/work/i-cube/I-CUBE-HUAWEI/Middlewares/Third_Party/Huawei/iot_link/os/liteos/base/core\los_task.c **** {
 651:D:/fchai/work/i-cube/I-CUBE-HUAWEI/Middlewares/Third_Party/Huawei/iot_link/os/liteos/base/core\los_task.c ****     CHAR *pcTaskName = NULL;
 652:D:/fchai/work/i-cube/I-CUBE-HUAWEI/Middlewares/Third_Party/Huawei/iot_link/os/liteos/base/core\los_task.c **** 
 653:D:/fchai/work/i-cube/I-CUBE-HUAWEI/Middlewares/Third_Party/Huawei/iot_link/os/liteos/base/core\los_task.c ****     if (NULL != g_stLosTask.pstRunTask)
 654:D:/fchai/work/i-cube/I-CUBE-HUAWEI/Middlewares/Third_Party/Huawei/iot_link/os/liteos/base/core\los_task.c ****     {
 655:D:/fchai/work/i-cube/I-CUBE-HUAWEI/Middlewares/Third_Party/Huawei/iot_link/os/liteos/base/core\los_task.c ****         pcTaskName = g_stLosTask.pstRunTask->pcTaskName;
 656:D:/fchai/work/i-cube/I-CUBE-HUAWEI/Middlewares/Third_Party/Huawei/iot_link/os/liteos/base/core\los_task.c ****     }
 657:D:/fchai/work/i-cube/I-CUBE-HUAWEI/Middlewares/Third_Party/Huawei/iot_link/os/liteos/base/core\los_task.c **** 
 658:D:/fchai/work/i-cube/I-CUBE-HUAWEI/Middlewares/Third_Party/Huawei/iot_link/os/liteos/base/core\los_task.c ****     return pcTaskName;
 659:D:/fchai/work/i-cube/I-CUBE-HUAWEI/Middlewares/Third_Party/Huawei/iot_link/os/liteos/base/core\los_task.c **** }
 660:D:/fchai/work/i-cube/I-CUBE-HUAWEI/Middlewares/Third_Party/Huawei/iot_link/os/liteos/base/core\los_task.c **** 
 661:D:/fchai/work/i-cube/I-CUBE-HUAWEI/Middlewares/Third_Party/Huawei/iot_link/os/liteos/base/core\los_task.c **** /*****************************************************************************
 662:D:/fchai/work/i-cube/I-CUBE-HUAWEI/Middlewares/Third_Party/Huawei/iot_link/os/liteos/base/core\los_task.c ****  Function : osTaskSwitchCheck
 663:D:/fchai/work/i-cube/I-CUBE-HUAWEI/Middlewares/Third_Party/Huawei/iot_link/os/liteos/base/core\los_task.c ****  Description : Check task switch
ARM GAS  T:\msys\tmp\ccehPeV4.s 			page 14


 664:D:/fchai/work/i-cube/I-CUBE-HUAWEI/Middlewares/Third_Party/Huawei/iot_link/os/liteos/base/core\los_task.c ****  Input       : Node
 665:D:/fchai/work/i-cube/I-CUBE-HUAWEI/Middlewares/Third_Party/Huawei/iot_link/os/liteos/base/core\los_task.c ****  Output      : None
 666:D:/fchai/work/i-cube/I-CUBE-HUAWEI/Middlewares/Third_Party/Huawei/iot_link/os/liteos/base/core\los_task.c ****  Return      : None
 667:D:/fchai/work/i-cube/I-CUBE-HUAWEI/Middlewares/Third_Party/Huawei/iot_link/os/liteos/base/core\los_task.c ****  *****************************************************************************/
 668:D:/fchai/work/i-cube/I-CUBE-HUAWEI/Middlewares/Third_Party/Huawei/iot_link/os/liteos/base/core\los_task.c **** #if (LOSCFG_BASE_CORE_TSK_MONITOR == YES)
 669:D:/fchai/work/i-cube/I-CUBE-HUAWEI/Middlewares/Third_Party/Huawei/iot_link/os/liteos/base/core\los_task.c **** LITE_OS_SEC_TEXT VOID osTaskSwitchCheck(VOID)
 670:D:/fchai/work/i-cube/I-CUBE-HUAWEI/Middlewares/Third_Party/Huawei/iot_link/os/liteos/base/core\los_task.c **** {
  68              		.loc 1 670 1 view -0
  69              		.cfi_startproc
  70              		@ args = 0, pretend = 0, frame = 0
  71              		@ frame_needed = 0, uses_anonymous_args = 0
 671:D:/fchai/work/i-cube/I-CUBE-HUAWEI/Middlewares/Third_Party/Huawei/iot_link/os/liteos/base/core\los_task.c ****     if ((*(UINT32 *)(g_stLosTask.pstRunTask->uwTopOfStack)) != OS_TASK_MAGIC_WORD)
  72              		.loc 1 671 5 view .LVU5
 670:D:/fchai/work/i-cube/I-CUBE-HUAWEI/Middlewares/Third_Party/Huawei/iot_link/os/liteos/base/core\los_task.c ****     if ((*(UINT32 *)(g_stLosTask.pstRunTask->uwTopOfStack)) != OS_TASK_MAGIC_WORD)
  73              		.loc 1 670 1 is_stmt 0 view .LVU6
  74 0000 2DE9F041 		push	{r4, r5, r6, r7, r8, lr}
  75              	.LCFI0:
  76              		.cfi_def_cfa_offset 24
  77              		.cfi_offset 4, -24
  78              		.cfi_offset 5, -20
  79              		.cfi_offset 6, -16
  80              		.cfi_offset 7, -12
  81              		.cfi_offset 8, -8
  82              		.cfi_offset 14, -4
  83              		.loc 1 671 33 view .LVU7
  84 0004 314C     		ldr	r4, .L16
  85              		.loc 1 671 44 view .LVU8
  86 0006 2368     		ldr	r3, [r4]
  87              		.loc 1 671 10 view .LVU9
  88 0008 DB68     		ldr	r3, [r3, #12]
  89              		.loc 1 671 8 view .LVU10
  90 000a 1B68     		ldr	r3, [r3]
  91 000c B3F1CC3F 		cmp	r3, #-858993460
  92 0010 08D0     		beq	.L5
 672:D:/fchai/work/i-cube/I-CUBE-HUAWEI/Middlewares/Third_Party/Huawei/iot_link/os/liteos/base/core\los_task.c ****     {
 673:D:/fchai/work/i-cube/I-CUBE-HUAWEI/Middlewares/Third_Party/Huawei/iot_link/os/liteos/base/core\los_task.c ****         PRINT_ERR("CURRENT task ID: %s:%d stack overflow!\n", g_stLosTask.pstRunTask->pcTaskName, g
  93              		.loc 1 673 9 is_stmt 1 view .LVU11
  94              		.loc 1 673 9 view .LVU12
  95 0012 2F48     		ldr	r0, .L16+4
  96 0014 FFF7FEFF 		bl	printf
  97              	.LVL0:
  98 0018 2368     		ldr	r3, [r4]
  99 001a 2E48     		ldr	r0, .L16+8
 100 001c 1A69     		ldr	r2, [r3, #16]
 101 001e 596A     		ldr	r1, [r3, #36]
 102 0020 FFF7FEFF 		bl	printf
 103              	.LVL1:
 104              	.L5:
 105              		.loc 1 673 9 discriminator 1 view .LVU13
 674:D:/fchai/work/i-cube/I-CUBE-HUAWEI/Middlewares/Third_Party/Huawei/iot_link/os/liteos/base/core\los_task.c ****     }
 675:D:/fchai/work/i-cube/I-CUBE-HUAWEI/Middlewares/Third_Party/Huawei/iot_link/os/liteos/base/core\los_task.c ****     if (((UINT32)(g_stLosTask.pstNewTask->pStackPointer) <= g_stLosTask.pstNewTask->uwTopOfStack) |
 106              		.loc 1 675 5 discriminator 1 view .LVU14
 107              		.loc 1 675 30 is_stmt 0 discriminator 1 view .LVU15
 108 0024 6268     		ldr	r2, [r4, #4]
 109              		.loc 1 675 10 discriminator 1 view .LVU16
 110 0026 1168     		ldr	r1, [r2]
 111              		.loc 1 675 83 discriminator 1 view .LVU17
ARM GAS  T:\msys\tmp\ccehPeV4.s 			page 15


 112 0028 D368     		ldr	r3, [r2, #12]
 113              		.loc 1 675 8 discriminator 1 view .LVU18
 114 002a 9942     		cmp	r1, r3
 115 002c 2FD9     		bls	.L6
 676:D:/fchai/work/i-cube/I-CUBE-HUAWEI/Middlewares/Third_Party/Huawei/iot_link/os/liteos/base/core\los_task.c ****         ((UINT32)(g_stLosTask.pstNewTask->pStackPointer) > g_stLosTask.pstNewTask->uwTopOfStack + g
 116              		.loc 1 676 97 discriminator 1 view .LVU19
 117 002e 9068     		ldr	r0, [r2, #8]
 118 0030 0344     		add	r3, r3, r0
 675:D:/fchai/work/i-cube/I-CUBE-HUAWEI/Middlewares/Third_Party/Huawei/iot_link/os/liteos/base/core\los_task.c ****         ((UINT32)(g_stLosTask.pstNewTask->pStackPointer) > g_stLosTask.pstNewTask->uwTopOfStack + g
 119              		.loc 1 675 99 discriminator 1 view .LVU20
 120 0032 9942     		cmp	r1, r3
 121 0034 2BD8     		bhi	.L6
 122              	.L7:
 677:D:/fchai/work/i-cube/I-CUBE-HUAWEI/Middlewares/Third_Party/Huawei/iot_link/os/liteos/base/core\los_task.c ****     {
 678:D:/fchai/work/i-cube/I-CUBE-HUAWEI/Middlewares/Third_Party/Huawei/iot_link/os/liteos/base/core\los_task.c ****         PRINT_ERR("HIGHEST task ID: %s:%d SP error!\n", g_stLosTask.pstNewTask->pcTaskName, g_stLos
 679:D:/fchai/work/i-cube/I-CUBE-HUAWEI/Middlewares/Third_Party/Huawei/iot_link/os/liteos/base/core\los_task.c ****         PRINT_ERR("HIGHEST task StackPointer: 0x%x TopOfStack: 0x%x\n", (UINT32)(g_stLosTask.pstNew
 123              		.loc 1 679 9 is_stmt 1 discriminator 1 view .LVU21
 680:D:/fchai/work/i-cube/I-CUBE-HUAWEI/Middlewares/Third_Party/Huawei/iot_link/os/liteos/base/core\los_task.c ****     }
 681:D:/fchai/work/i-cube/I-CUBE-HUAWEI/Middlewares/Third_Party/Huawei/iot_link/os/liteos/base/core\los_task.c **** 
 682:D:/fchai/work/i-cube/I-CUBE-HUAWEI/Middlewares/Third_Party/Huawei/iot_link/os/liteos/base/core\los_task.c **** #if (LOSCFG_BASE_CORE_EXC_TSK_SWITCH == YES)
 683:D:/fchai/work/i-cube/I-CUBE-HUAWEI/Middlewares/Third_Party/Huawei/iot_link/os/liteos/base/core\los_task.c ****     /* record task switch info */
 684:D:/fchai/work/i-cube/I-CUBE-HUAWEI/Middlewares/Third_Party/Huawei/iot_link/os/liteos/base/core\los_task.c ****     g_astTskSwitchInfo.auwPID[g_astTskSwitchInfo.ucIdx] = (UINT16)(g_stLosTask.pstNewTask->uwTaskID
 124              		.loc 1 684 5 discriminator 1 view .LVU22
 125              		.loc 1 684 49 is_stmt 0 discriminator 1 view .LVU23
 126 0036 2849     		ldr	r1, .L16+12
 127              		.loc 1 684 59 discriminator 1 view .LVU24
 128 0038 1569     		ldr	r5, [r2, #16]
 129              		.loc 1 684 49 discriminator 1 view .LVU25
 130 003a 0878     		ldrb	r0, [r1]	@ zero_extendqisi2
 685:D:/fchai/work/i-cube/I-CUBE-HUAWEI/Middlewares/Third_Party/Huawei/iot_link/os/liteos/base/core\los_task.c ****     memcpy(g_astTskSwitchInfo.acName[g_astTskSwitchInfo.ucIdx], g_stLosTask.pstNewTask->pcTaskName,
 131              		.loc 1 685 5 discriminator 1 view .LVU26
 132 003c 526A     		ldr	r2, [r2, #36]
 684:D:/fchai/work/i-cube/I-CUBE-HUAWEI/Middlewares/Third_Party/Huawei/iot_link/os/liteos/base/core\los_task.c ****     memcpy(g_astTskSwitchInfo.acName[g_astTskSwitchInfo.ucIdx], g_stLosTask.pstNewTask->pcTaskName,
 133              		.loc 1 684 57 discriminator 1 view .LVU27
 134 003e 01EB4004 		add	r4, r1, r0, lsl #1
 135              		.loc 1 685 37 discriminator 1 view .LVU28
 136 0042 1623     		movs	r3, #22
 684:D:/fchai/work/i-cube/I-CUBE-HUAWEI/Middlewares/Third_Party/Huawei/iot_link/os/liteos/base/core\los_task.c ****     memcpy(g_astTskSwitchInfo.acName[g_astTskSwitchInfo.ucIdx], g_stLosTask.pstNewTask->pcTaskName,
 137              		.loc 1 684 59 discriminator 1 view .LVU29
 138 0044 6580     		strh	r5, [r4, #2]	@ movhi
 139              		.loc 1 685 5 is_stmt 1 discriminator 1 view .LVU30
 140              		.loc 1 685 37 is_stmt 0 discriminator 1 view .LVU31
 141 0046 03EB4013 		add	r3, r3, r0, lsl #5
 142              		.loc 1 685 5 discriminator 1 view .LVU32
 143 004a 1668     		ldr	r6, [r2]	@ unaligned
 144 004c 5568     		ldr	r5, [r2, #4]	@ unaligned
 145 004e 9468     		ldr	r4, [r2, #8]	@ unaligned
 146 0050 D768     		ldr	r7, [r2, #12]	@ unaligned
 147 0052 5E50     		str	r6, [r3, r1]	@ unaligned
 686:D:/fchai/work/i-cube/I-CUBE-HUAWEI/Middlewares/Third_Party/Huawei/iot_link/os/liteos/base/core\los_task.c ****     g_astTskSwitchInfo.acName[g_astTskSwitchInfo.ucIdx][LOS_TASK_NAMELEN -1] = '\0';
 148              		.loc 1 686 49 discriminator 1 view .LVU33
 149 0054 0878     		ldrb	r0, [r1]	@ zero_extendqisi2
 685:D:/fchai/work/i-cube/I-CUBE-HUAWEI/Middlewares/Third_Party/Huawei/iot_link/os/liteos/base/core\los_task.c ****     memcpy(g_astTskSwitchInfo.acName[g_astTskSwitchInfo.ucIdx], g_stLosTask.pstNewTask->pcTaskName,
 150              		.loc 1 685 37 discriminator 1 view .LVU34
 151 0056 0B44     		add	r3, r3, r1
 152              		.loc 1 686 78 discriminator 1 view .LVU35
 153 0058 01EB401C 		add	ip, r1, r0, lsl #5
ARM GAS  T:\msys\tmp\ccehPeV4.s 			page 16


 687:D:/fchai/work/i-cube/I-CUBE-HUAWEI/Middlewares/Third_Party/Huawei/iot_link/os/liteos/base/core\los_task.c **** 
 688:D:/fchai/work/i-cube/I-CUBE-HUAWEI/Middlewares/Third_Party/Huawei/iot_link/os/liteos/base/core\los_task.c ****     if (++g_astTskSwitchInfo.ucIdx == OS_TASK_SWITCH_INFO_COUNT)
 154              		.loc 1 688 9 discriminator 1 view .LVU36
 155 005c 0130     		adds	r0, r0, #1
 685:D:/fchai/work/i-cube/I-CUBE-HUAWEI/Middlewares/Third_Party/Huawei/iot_link/os/liteos/base/core\los_task.c ****     g_astTskSwitchInfo.acName[g_astTskSwitchInfo.ucIdx][LOS_TASK_NAMELEN -1] = '\0';
 156              		.loc 1 685 5 discriminator 1 view .LVU37
 157 005e 5D60     		str	r5, [r3, #4]	@ unaligned
 158 0060 9C60     		str	r4, [r3, #8]	@ unaligned
 159 0062 DF60     		str	r7, [r3, #12]	@ unaligned
 160              		.loc 1 688 9 discriminator 1 view .LVU38
 161 0064 C0B2     		uxtb	r0, r0
 685:D:/fchai/work/i-cube/I-CUBE-HUAWEI/Middlewares/Third_Party/Huawei/iot_link/os/liteos/base/core\los_task.c ****     g_astTskSwitchInfo.acName[g_astTskSwitchInfo.ucIdx][LOS_TASK_NAMELEN -1] = '\0';
 162              		.loc 1 685 5 discriminator 1 view .LVU39
 163 0066 1669     		ldr	r6, [r2, #16]	@ unaligned
 164 0068 5569     		ldr	r5, [r2, #20]	@ unaligned
 165 006a 9469     		ldr	r4, [r2, #24]	@ unaligned
 166 006c D769     		ldr	r7, [r2, #28]	@ unaligned
 167 006e DF61     		str	r7, [r3, #28]	@ unaligned
 686:D:/fchai/work/i-cube/I-CUBE-HUAWEI/Middlewares/Third_Party/Huawei/iot_link/os/liteos/base/core\los_task.c ****     g_astTskSwitchInfo.acName[g_astTskSwitchInfo.ucIdx][LOS_TASK_NAMELEN -1] = '\0';
 168              		.loc 1 686 5 is_stmt 1 discriminator 1 view .LVU40
 686:D:/fchai/work/i-cube/I-CUBE-HUAWEI/Middlewares/Third_Party/Huawei/iot_link/os/liteos/base/core\los_task.c ****     g_astTskSwitchInfo.acName[g_astTskSwitchInfo.ucIdx][LOS_TASK_NAMELEN -1] = '\0';
 169              		.loc 1 686 78 is_stmt 0 discriminator 1 view .LVU41
 170 0070 0022     		movs	r2, #0
 171              		.loc 1 688 8 discriminator 1 view .LVU42
 172 0072 0A28     		cmp	r0, #10
 685:D:/fchai/work/i-cube/I-CUBE-HUAWEI/Middlewares/Third_Party/Huawei/iot_link/os/liteos/base/core\los_task.c ****     g_astTskSwitchInfo.acName[g_astTskSwitchInfo.ucIdx][LOS_TASK_NAMELEN -1] = '\0';
 173              		.loc 1 685 5 discriminator 1 view .LVU43
 174 0074 1E61     		str	r6, [r3, #16]	@ unaligned
 175 0076 5D61     		str	r5, [r3, #20]	@ unaligned
 176 0078 9C61     		str	r4, [r3, #24]	@ unaligned
 686:D:/fchai/work/i-cube/I-CUBE-HUAWEI/Middlewares/Third_Party/Huawei/iot_link/os/liteos/base/core\los_task.c ****     g_astTskSwitchInfo.acName[g_astTskSwitchInfo.ucIdx][LOS_TASK_NAMELEN -1] = '\0';
 177              		.loc 1 686 78 discriminator 1 view .LVU44
 178 007a 8CF83520 		strb	r2, [ip, #53]
 179              		.loc 1 688 5 is_stmt 1 discriminator 1 view .LVU45
 180              		.loc 1 688 8 is_stmt 0 discriminator 1 view .LVU46
 181 007e 1AD0     		beq	.L8
 689:D:/fchai/work/i-cube/I-CUBE-HUAWEI/Middlewares/Third_Party/Huawei/iot_link/os/liteos/base/core\los_task.c ****     {
 690:D:/fchai/work/i-cube/I-CUBE-HUAWEI/Middlewares/Third_Party/Huawei/iot_link/os/liteos/base/core\los_task.c ****         g_astTskSwitchInfo.ucIdx = 0;
 691:D:/fchai/work/i-cube/I-CUBE-HUAWEI/Middlewares/Third_Party/Huawei/iot_link/os/liteos/base/core\los_task.c ****         g_astTskSwitchInfo.ucIsFull |= 0x80;
 692:D:/fchai/work/i-cube/I-CUBE-HUAWEI/Middlewares/Third_Party/Huawei/iot_link/os/liteos/base/core\los_task.c ****     }
 693:D:/fchai/work/i-cube/I-CUBE-HUAWEI/Middlewares/Third_Party/Huawei/iot_link/os/liteos/base/core\los_task.c **** #endif
 694:D:/fchai/work/i-cube/I-CUBE-HUAWEI/Middlewares/Third_Party/Huawei/iot_link/os/liteos/base/core\los_task.c **** 
 695:D:/fchai/work/i-cube/I-CUBE-HUAWEI/Middlewares/Third_Party/Huawei/iot_link/os/liteos/base/core\los_task.c ****     if (g_pfnUsrTskSwitchHook != NULL)
 182              		.loc 1 695 5 is_stmt 1 view .LVU47
 183              		.loc 1 695 31 is_stmt 0 view .LVU48
 184 0080 164B     		ldr	r3, .L16+16
 688:D:/fchai/work/i-cube/I-CUBE-HUAWEI/Middlewares/Third_Party/Huawei/iot_link/os/liteos/base/core\los_task.c ****     {
 185              		.loc 1 688 8 view .LVU49
 186 0082 0870     		strb	r0, [r1]
 187              		.loc 1 695 31 view .LVU50
 188 0084 1B68     		ldr	r3, [r3]
 189              		.loc 1 695 8 view .LVU51
 190 0086 FBB1     		cbz	r3, .L4
 191              	.L15:
 696:D:/fchai/work/i-cube/I-CUBE-HUAWEI/Middlewares/Third_Party/Huawei/iot_link/os/liteos/base/core\los_task.c ****     {
 697:D:/fchai/work/i-cube/I-CUBE-HUAWEI/Middlewares/Third_Party/Huawei/iot_link/os/liteos/base/core\los_task.c ****         g_pfnUsrTskSwitchHook();
 192              		.loc 1 697 9 is_stmt 1 view .LVU52
ARM GAS  T:\msys\tmp\ccehPeV4.s 			page 17


 698:D:/fchai/work/i-cube/I-CUBE-HUAWEI/Middlewares/Third_Party/Huawei/iot_link/os/liteos/base/core\los_task.c ****     }
 699:D:/fchai/work/i-cube/I-CUBE-HUAWEI/Middlewares/Third_Party/Huawei/iot_link/os/liteos/base/core\los_task.c **** 
 700:D:/fchai/work/i-cube/I-CUBE-HUAWEI/Middlewares/Third_Party/Huawei/iot_link/os/liteos/base/core\los_task.c **** #if (LOSCFG_BASE_CORE_CPUP == YES)
 701:D:/fchai/work/i-cube/I-CUBE-HUAWEI/Middlewares/Third_Party/Huawei/iot_link/os/liteos/base/core\los_task.c ****     osTskCycleEndStart();
 702:D:/fchai/work/i-cube/I-CUBE-HUAWEI/Middlewares/Third_Party/Huawei/iot_link/os/liteos/base/core\los_task.c **** #endif /* LOSCFG_BASE_CORE_CPUP */
 703:D:/fchai/work/i-cube/I-CUBE-HUAWEI/Middlewares/Third_Party/Huawei/iot_link/os/liteos/base/core\los_task.c **** }
 193              		.loc 1 703 1 is_stmt 0 view .LVU53
 194 0088 BDE8F041 		pop	{r4, r5, r6, r7, r8, lr}
 195              	.LCFI1:
 196              		.cfi_remember_state
 197              		.cfi_restore 14
 198              		.cfi_restore 8
 199              		.cfi_restore 7
 200              		.cfi_restore 6
 201              		.cfi_restore 5
 202              		.cfi_restore 4
 203              		.cfi_def_cfa_offset 0
 697:D:/fchai/work/i-cube/I-CUBE-HUAWEI/Middlewares/Third_Party/Huawei/iot_link/os/liteos/base/core\los_task.c ****     }
 204              		.loc 1 697 9 view .LVU54
 205 008c 1847     		bx	r3	@ indirect register sibling call
 206              	.LVL2:
 207              	.L6:
 208              	.LCFI2:
 209              		.cfi_restore_state
 678:D:/fchai/work/i-cube/I-CUBE-HUAWEI/Middlewares/Third_Party/Huawei/iot_link/os/liteos/base/core\los_task.c ****         PRINT_ERR("HIGHEST task StackPointer: 0x%x TopOfStack: 0x%x\n", (UINT32)(g_stLosTask.pstNew
 210              		.loc 1 678 9 is_stmt 1 view .LVU55
 678:D:/fchai/work/i-cube/I-CUBE-HUAWEI/Middlewares/Third_Party/Huawei/iot_link/os/liteos/base/core\los_task.c ****         PRINT_ERR("HIGHEST task StackPointer: 0x%x TopOfStack: 0x%x\n", (UINT32)(g_stLosTask.pstNew
 211              		.loc 1 678 9 view .LVU56
 212 008e 1048     		ldr	r0, .L16+4
 213 0090 FFF7FEFF 		bl	printf
 214              	.LVL3:
 215 0094 6368     		ldr	r3, [r4, #4]
 216 0096 1248     		ldr	r0, .L16+20
 217 0098 1A69     		ldr	r2, [r3, #16]
 218 009a 596A     		ldr	r1, [r3, #36]
 219 009c FFF7FEFF 		bl	printf
 220              	.LVL4:
 678:D:/fchai/work/i-cube/I-CUBE-HUAWEI/Middlewares/Third_Party/Huawei/iot_link/os/liteos/base/core\los_task.c ****         PRINT_ERR("HIGHEST task StackPointer: 0x%x TopOfStack: 0x%x\n", (UINT32)(g_stLosTask.pstNew
 221              		.loc 1 678 9 view .LVU57
 679:D:/fchai/work/i-cube/I-CUBE-HUAWEI/Middlewares/Third_Party/Huawei/iot_link/os/liteos/base/core\los_task.c ****     }
 222              		.loc 1 679 9 view .LVU58
 679:D:/fchai/work/i-cube/I-CUBE-HUAWEI/Middlewares/Third_Party/Huawei/iot_link/os/liteos/base/core\los_task.c ****     }
 223              		.loc 1 679 9 view .LVU59
 224 00a0 0B48     		ldr	r0, .L16+4
 225 00a2 FFF7FEFF 		bl	printf
 226              	.LVL5:
 227 00a6 6368     		ldr	r3, [r4, #4]
 228 00a8 0E48     		ldr	r0, .L16+24
 229 00aa DA68     		ldr	r2, [r3, #12]
 230 00ac 1968     		ldr	r1, [r3]
 231 00ae FFF7FEFF 		bl	printf
 232              	.LVL6:
 233 00b2 6268     		ldr	r2, [r4, #4]
 234 00b4 BFE7     		b	.L7
 235              	.L8:
 690:D:/fchai/work/i-cube/I-CUBE-HUAWEI/Middlewares/Third_Party/Huawei/iot_link/os/liteos/base/core\los_task.c ****         g_astTskSwitchInfo.ucIsFull |= 0x80;
 236              		.loc 1 690 9 view .LVU60
ARM GAS  T:\msys\tmp\ccehPeV4.s 			page 18


 691:D:/fchai/work/i-cube/I-CUBE-HUAWEI/Middlewares/Third_Party/Huawei/iot_link/os/liteos/base/core\los_task.c ****     }
 237              		.loc 1 691 37 is_stmt 0 view .LVU61
 238 00b6 4B78     		ldrb	r3, [r1, #1]	@ zero_extendqisi2
 690:D:/fchai/work/i-cube/I-CUBE-HUAWEI/Middlewares/Third_Party/Huawei/iot_link/os/liteos/base/core\los_task.c ****         g_astTskSwitchInfo.ucIsFull |= 0x80;
 239              		.loc 1 690 34 view .LVU62
 240 00b8 0A70     		strb	r2, [r1]
 691:D:/fchai/work/i-cube/I-CUBE-HUAWEI/Middlewares/Third_Party/Huawei/iot_link/os/liteos/base/core\los_task.c ****     }
 241              		.loc 1 691 9 is_stmt 1 view .LVU63
 691:D:/fchai/work/i-cube/I-CUBE-HUAWEI/Middlewares/Third_Party/Huawei/iot_link/os/liteos/base/core\los_task.c ****     }
 242              		.loc 1 691 37 is_stmt 0 view .LVU64
 243 00ba 63F07F03 		orn	r3, r3, #127
 244 00be 4B70     		strb	r3, [r1, #1]
 695:D:/fchai/work/i-cube/I-CUBE-HUAWEI/Middlewares/Third_Party/Huawei/iot_link/os/liteos/base/core\los_task.c ****     {
 245              		.loc 1 695 5 is_stmt 1 view .LVU65
 695:D:/fchai/work/i-cube/I-CUBE-HUAWEI/Middlewares/Third_Party/Huawei/iot_link/os/liteos/base/core\los_task.c ****     {
 246              		.loc 1 695 31 is_stmt 0 view .LVU66
 247 00c0 064B     		ldr	r3, .L16+16
 248 00c2 1B68     		ldr	r3, [r3]
 695:D:/fchai/work/i-cube/I-CUBE-HUAWEI/Middlewares/Third_Party/Huawei/iot_link/os/liteos/base/core\los_task.c ****     {
 249              		.loc 1 695 8 view .LVU67
 250 00c4 002B     		cmp	r3, #0
 251 00c6 DFD1     		bne	.L15
 252              	.L4:
 253              		.loc 1 703 1 view .LVU68
 254 00c8 BDE8F081 		pop	{r4, r5, r6, r7, r8, pc}
 255              	.L17:
 256              		.align	2
 257              	.L16:
 258 00cc 00000000 		.word	g_stLosTask
 259 00d0 00000000 		.word	.LC0
 260 00d4 08000000 		.word	.LC1
 261 00d8 00000000 		.word	g_astTskSwitchInfo
 262 00dc 00000000 		.word	.LANCHOR0
 263 00e0 30000000 		.word	.LC2
 264 00e4 54000000 		.word	.LC3
 265              		.cfi_endproc
 266              	.LFE146:
 268              		.section	.text.osTaskPriModify,"ax",%progbits
 269              		.align	1
 270              		.p2align 2,,3
 271              		.global	osTaskPriModify
 272              		.syntax unified
 273              		.thumb
 274              		.thumb_func
 275              		.fpu fpv4-sp-d16
 277              	osTaskPriModify:
 278              	.LVL7:
 279              	.LFB134:
 170:D:/fchai/work/i-cube/I-CUBE-HUAWEI/Middlewares/Third_Party/Huawei/iot_link/os/liteos/base/core\los_task.c ****     if (pstTaskCB->usTaskStatus & OS_TASK_STATUS_READY)
 280              		.loc 1 170 1 is_stmt 1 view -0
 281              		.cfi_startproc
 282              		@ args = 0, pretend = 0, frame = 8
 283              		@ frame_needed = 0, uses_anonymous_args = 0
 171:D:/fchai/work/i-cube/I-CUBE-HUAWEI/Middlewares/Third_Party/Huawei/iot_link/os/liteos/base/core\los_task.c ****     {
 284              		.loc 1 171 5 view .LVU70
 170:D:/fchai/work/i-cube/I-CUBE-HUAWEI/Middlewares/Third_Party/Huawei/iot_link/os/liteos/base/core\los_task.c ****     if (pstTaskCB->usTaskStatus & OS_TASK_STATUS_READY)
 285              		.loc 1 170 1 is_stmt 0 view .LVU71
ARM GAS  T:\msys\tmp\ccehPeV4.s 			page 19


 286 0000 30B5     		push	{r4, r5, lr}
 287              	.LCFI3:
 288              		.cfi_def_cfa_offset 12
 289              		.cfi_offset 4, -12
 290              		.cfi_offset 5, -8
 291              		.cfi_offset 14, -4
 171:D:/fchai/work/i-cube/I-CUBE-HUAWEI/Middlewares/Third_Party/Huawei/iot_link/os/liteos/base/core\los_task.c ****     {
 292              		.loc 1 171 8 view .LVU72
 293 0002 8388     		ldrh	r3, [r0, #4]
 294 0004 5B07     		lsls	r3, r3, #29
 170:D:/fchai/work/i-cube/I-CUBE-HUAWEI/Middlewares/Third_Party/Huawei/iot_link/os/liteos/base/core\los_task.c ****     if (pstTaskCB->usTaskStatus & OS_TASK_STATUS_READY)
 295              		.loc 1 170 1 view .LVU73
 296 0006 83B0     		sub	sp, sp, #12
 297              	.LCFI4:
 298              		.cfi_def_cfa_offset 24
 170:D:/fchai/work/i-cube/I-CUBE-HUAWEI/Middlewares/Third_Party/Huawei/iot_link/os/liteos/base/core\los_task.c ****     if (pstTaskCB->usTaskStatus & OS_TASK_STATUS_READY)
 299              		.loc 1 170 1 view .LVU74
 300 0008 0446     		mov	r4, r0
 301 000a 0D46     		mov	r5, r1
 171:D:/fchai/work/i-cube/I-CUBE-HUAWEI/Middlewares/Third_Party/Huawei/iot_link/os/liteos/base/core\los_task.c ****     {
 302              		.loc 1 171 8 view .LVU75
 303 000c 02D4     		bmi	.L21
 181:D:/fchai/work/i-cube/I-CUBE-HUAWEI/Middlewares/Third_Party/Huawei/iot_link/os/liteos/base/core\los_task.c ****     }
 304              		.loc 1 181 9 is_stmt 1 view .LVU76
 181:D:/fchai/work/i-cube/I-CUBE-HUAWEI/Middlewares/Third_Party/Huawei/iot_link/os/liteos/base/core\los_task.c ****     }
 305              		.loc 1 181 31 is_stmt 0 view .LVU77
 306 000e E180     		strh	r1, [r4, #6]	@ movhi
 183:D:/fchai/work/i-cube/I-CUBE-HUAWEI/Middlewares/Third_Party/Huawei/iot_link/os/liteos/base/core\los_task.c **** 
 307              		.loc 1 183 1 view .LVU78
 308 0010 03B0     		add	sp, sp, #12
 309              	.LCFI5:
 310              		.cfi_remember_state
 311              		.cfi_def_cfa_offset 12
 312              		@ sp needed
 313 0012 30BD     		pop	{r4, r5, pc}
 314              	.L21:
 315              	.LCFI6:
 316              		.cfi_restore_state
 173:D:/fchai/work/i-cube/I-CUBE-HUAWEI/Middlewares/Third_Party/Huawei/iot_link/os/liteos/base/core\los_task.c ****         pstTaskCB->usTaskStatus &= (~OS_TASK_STATUS_READY);
 317              		.loc 1 173 9 is_stmt 1 view .LVU79
 318 0014 2830     		adds	r0, r0, #40
 319              	.LVL8:
 173:D:/fchai/work/i-cube/I-CUBE-HUAWEI/Middlewares/Third_Party/Huawei/iot_link/os/liteos/base/core\los_task.c ****         pstTaskCB->usTaskStatus &= (~OS_TASK_STATUS_READY);
 320              		.loc 1 173 9 is_stmt 0 view .LVU80
 321 0016 0190     		str	r0, [sp, #4]
 322 0018 FFF7FEFF 		bl	osPriqueueDequeue
 323              	.LVL9:
 174:D:/fchai/work/i-cube/I-CUBE-HUAWEI/Middlewares/Third_Party/Huawei/iot_link/os/liteos/base/core\los_task.c ****         pstTaskCB->usPriority = usPriority;
 324              		.loc 1 174 9 is_stmt 1 view .LVU81
 175:D:/fchai/work/i-cube/I-CUBE-HUAWEI/Middlewares/Third_Party/Huawei/iot_link/os/liteos/base/core\los_task.c ****         pstTaskCB->usTaskStatus |= OS_TASK_STATUS_READY;
 325              		.loc 1 175 9 view .LVU82
 174:D:/fchai/work/i-cube/I-CUBE-HUAWEI/Middlewares/Third_Party/Huawei/iot_link/os/liteos/base/core\los_task.c ****         pstTaskCB->usPriority = usPriority;
 326              		.loc 1 174 33 is_stmt 0 view .LVU83
 327 001c A388     		ldrh	r3, [r4, #4]
 177:D:/fchai/work/i-cube/I-CUBE-HUAWEI/Middlewares/Third_Party/Huawei/iot_link/os/liteos/base/core\los_task.c ****     }
 328              		.loc 1 177 9 view .LVU84
 329 001e 0198     		ldr	r0, [sp, #4]
ARM GAS  T:\msys\tmp\ccehPeV4.s 			page 20


 175:D:/fchai/work/i-cube/I-CUBE-HUAWEI/Middlewares/Third_Party/Huawei/iot_link/os/liteos/base/core\los_task.c ****         pstTaskCB->usTaskStatus |= OS_TASK_STATUS_READY;
 330              		.loc 1 175 31 view .LVU85
 331 0020 E580     		strh	r5, [r4, #6]	@ movhi
 176:D:/fchai/work/i-cube/I-CUBE-HUAWEI/Middlewares/Third_Party/Huawei/iot_link/os/liteos/base/core\los_task.c ****         osPriqueueEnqueue(&pstTaskCB->stPendList, pstTaskCB->usPriority);
 332              		.loc 1 176 9 is_stmt 1 view .LVU86
 176:D:/fchai/work/i-cube/I-CUBE-HUAWEI/Middlewares/Third_Party/Huawei/iot_link/os/liteos/base/core\los_task.c ****         osPriqueueEnqueue(&pstTaskCB->stPendList, pstTaskCB->usPriority);
 333              		.loc 1 176 33 is_stmt 0 view .LVU87
 334 0022 43F00403 		orr	r3, r3, #4
 177:D:/fchai/work/i-cube/I-CUBE-HUAWEI/Middlewares/Third_Party/Huawei/iot_link/os/liteos/base/core\los_task.c ****     }
 335              		.loc 1 177 9 view .LVU88
 336 0026 2946     		mov	r1, r5
 176:D:/fchai/work/i-cube/I-CUBE-HUAWEI/Middlewares/Third_Party/Huawei/iot_link/os/liteos/base/core\los_task.c ****         osPriqueueEnqueue(&pstTaskCB->stPendList, pstTaskCB->usPriority);
 337              		.loc 1 176 33 view .LVU89
 338 0028 A380     		strh	r3, [r4, #4]	@ movhi
 177:D:/fchai/work/i-cube/I-CUBE-HUAWEI/Middlewares/Third_Party/Huawei/iot_link/os/liteos/base/core\los_task.c ****     }
 339              		.loc 1 177 9 is_stmt 1 view .LVU90
 183:D:/fchai/work/i-cube/I-CUBE-HUAWEI/Middlewares/Third_Party/Huawei/iot_link/os/liteos/base/core\los_task.c **** 
 340              		.loc 1 183 1 is_stmt 0 view .LVU91
 341 002a 03B0     		add	sp, sp, #12
 342              	.LCFI7:
 343              		.cfi_def_cfa_offset 12
 344              		@ sp needed
 345 002c BDE83040 		pop	{r4, r5, lr}
 346              	.LCFI8:
 347              		.cfi_restore 14
 348              		.cfi_restore 5
 349              		.cfi_restore 4
 350              		.cfi_def_cfa_offset 0
 351              	.LVL10:
 177:D:/fchai/work/i-cube/I-CUBE-HUAWEI/Middlewares/Third_Party/Huawei/iot_link/os/liteos/base/core\los_task.c ****     }
 352              		.loc 1 177 9 view .LVU92
 353 0030 FFF7FEBF 		b	osPriqueueEnqueue
 354              	.LVL11:
 355              		.cfi_endproc
 356              	.LFE134:
 358              		.section	.text.osTaskAdd2TimerList,"ax",%progbits
 359              		.align	1
 360              		.p2align 2,,3
 361              		.global	osTaskAdd2TimerList
 362              		.syntax unified
 363              		.thumb
 364              		.thumb_func
 365              		.fpu fpv4-sp-d16
 367              	osTaskAdd2TimerList:
 368              	.LVL12:
 369              	.LFB135:
 194:D:/fchai/work/i-cube/I-CUBE-HUAWEI/Middlewares/Third_Party/Huawei/iot_link/os/liteos/base/core\los_task.c ****     LOS_TASK_CB *pstTskDelay;
 370              		.loc 1 194 1 is_stmt 1 view -0
 371              		.cfi_startproc
 372              		@ args = 0, pretend = 0, frame = 0
 373              		@ frame_needed = 0, uses_anonymous_args = 0
 374              		@ link register save eliminated.
 195:D:/fchai/work/i-cube/I-CUBE-HUAWEI/Middlewares/Third_Party/Huawei/iot_link/os/liteos/base/core\los_task.c ****     LOS_DL_LIST *pstListObject;
 375              		.loc 1 195 5 view .LVU94
 196:D:/fchai/work/i-cube/I-CUBE-HUAWEI/Middlewares/Third_Party/Huawei/iot_link/os/liteos/base/core\los_task.c ****     UINT32 uwSortIndex;
 376              		.loc 1 196 5 view .LVU95
 197:D:/fchai/work/i-cube/I-CUBE-HUAWEI/Middlewares/Third_Party/Huawei/iot_link/os/liteos/base/core\los_task.c ****     UINT32 uwRollNum;
ARM GAS  T:\msys\tmp\ccehPeV4.s 			page 21


 377              		.loc 1 197 5 view .LVU96
 198:D:/fchai/work/i-cube/I-CUBE-HUAWEI/Middlewares/Third_Party/Huawei/iot_link/os/liteos/base/core\los_task.c **** 
 378              		.loc 1 198 5 view .LVU97
 200:D:/fchai/work/i-cube/I-CUBE-HUAWEI/Middlewares/Third_Party/Huawei/iot_link/os/liteos/base/core\los_task.c ****     uwRollNum = (uwTimeout >> OS_TSK_SORTLINK_LOGLEN);
 379              		.loc 1 200 5 view .LVU98
 201:D:/fchai/work/i-cube/I-CUBE-HUAWEI/Middlewares/Third_Party/Huawei/iot_link/os/liteos/base/core\los_task.c ****     (uwSortIndex > 0) ? 0 : (uwRollNum--);
 380              		.loc 1 201 5 view .LVU99
 194:D:/fchai/work/i-cube/I-CUBE-HUAWEI/Middlewares/Third_Party/Huawei/iot_link/os/liteos/base/core\los_task.c ****     LOS_TASK_CB *pstTskDelay;
 381              		.loc 1 194 1 is_stmt 0 view .LVU100
 382 0000 F0B4     		push	{r4, r5, r6, r7}
 383              	.LCFI9:
 384              		.cfi_def_cfa_offset 16
 385              		.cfi_offset 4, -16
 386              		.cfi_offset 5, -12
 387              		.cfi_offset 6, -8
 388              		.cfi_offset 7, -4
 204:D:/fchai/work/i-cube/I-CUBE-HUAWEI/Middlewares/Third_Party/Huawei/iot_link/os/liteos/base/core\los_task.c ****     uwSortIndex = uwSortIndex & OS_TSK_SORTLINK_MASK;
 389              		.loc 1 204 49 view .LVU101
 390 0002 1E4C     		ldr	r4, .L34
 391 0004 A388     		ldrh	r3, [r4, #4]
 207:D:/fchai/work/i-cube/I-CUBE-HUAWEI/Middlewares/Third_Party/Huawei/iot_link/os/liteos/base/core\los_task.c ****     if (pstListObject->pstNext == pstListObject)
 392              		.loc 1 207 19 view .LVU102
 393 0006 2768     		ldr	r7, [r4]
 201:D:/fchai/work/i-cube/I-CUBE-HUAWEI/Middlewares/Third_Party/Huawei/iot_link/os/liteos/base/core\los_task.c ****     (uwSortIndex > 0) ? 0 : (uwRollNum--);
 394              		.loc 1 201 15 view .LVU103
 395 0008 4A09     		lsrs	r2, r1, #5
 396              	.LVL13:
 202:D:/fchai/work/i-cube/I-CUBE-HUAWEI/Middlewares/Third_Party/Huawei/iot_link/os/liteos/base/core\los_task.c ****     EVALUATE_L(pstTaskCB->uwIdxRollNum, uwRollNum);
 397              		.loc 1 202 5 is_stmt 1 view .LVU104
 202:D:/fchai/work/i-cube/I-CUBE-HUAWEI/Middlewares/Third_Party/Huawei/iot_link/os/liteos/base/core\los_task.c ****     EVALUATE_L(pstTaskCB->uwIdxRollNum, uwRollNum);
 398              		.loc 1 202 27 is_stmt 0 view .LVU105
 399 000a 11F01F01 		ands	r1, r1, #31
 400              	.LVL14:
 204:D:/fchai/work/i-cube/I-CUBE-HUAWEI/Middlewares/Third_Party/Huawei/iot_link/os/liteos/base/core\los_task.c ****     uwSortIndex = uwSortIndex & OS_TSK_SORTLINK_MASK;
 401              		.loc 1 204 17 view .LVU106
 402 000e 1944     		add	r1, r1, r3
 403              	.LVL15:
 205:D:/fchai/work/i-cube/I-CUBE-HUAWEI/Middlewares/Third_Party/Huawei/iot_link/os/liteos/base/core\los_task.c ****     EVALUATE_H(pstTaskCB->uwIdxRollNum, uwSortIndex);
 404              		.loc 1 205 17 view .LVU107
 405 0010 01F01F03 		and	r3, r1, #31
 207:D:/fchai/work/i-cube/I-CUBE-HUAWEI/Middlewares/Third_Party/Huawei/iot_link/os/liteos/base/core\los_task.c ****     if (pstListObject->pstNext == pstListObject)
 406              		.loc 1 207 19 view .LVU108
 407 0014 07EBC307 		add	r7, r7, r3, lsl #3
 202:D:/fchai/work/i-cube/I-CUBE-HUAWEI/Middlewares/Third_Party/Huawei/iot_link/os/liteos/base/core\los_task.c ****     EVALUATE_L(pstTaskCB->uwIdxRollNum, uwRollNum);
 408              		.loc 1 202 39 view .LVU109
 409 0018 08BF     		it	eq
 410 001a 02F1FF32 		addeq	r2, r2, #-1
 411              	.LVL16:
 203:D:/fchai/work/i-cube/I-CUBE-HUAWEI/Middlewares/Third_Party/Huawei/iot_link/os/liteos/base/core\los_task.c ****     uwSortIndex = (uwSortIndex + g_stTskSortLink.usCursor);
 412              		.loc 1 203 5 is_stmt 1 view .LVU110
 204:D:/fchai/work/i-cube/I-CUBE-HUAWEI/Middlewares/Third_Party/Huawei/iot_link/os/liteos/base/core\los_task.c ****     uwSortIndex = uwSortIndex & OS_TSK_SORTLINK_MASK;
 413              		.loc 1 204 5 view .LVU111
 205:D:/fchai/work/i-cube/I-CUBE-HUAWEI/Middlewares/Third_Party/Huawei/iot_link/os/liteos/base/core\los_task.c ****     EVALUATE_H(pstTaskCB->uwIdxRollNum, uwSortIndex);
 414              		.loc 1 205 5 view .LVU112
 206:D:/fchai/work/i-cube/I-CUBE-HUAWEI/Middlewares/Third_Party/Huawei/iot_link/os/liteos/base/core\los_task.c ****     pstListObject = g_stTskSortLink.pstSortLink + uwSortIndex;
 415              		.loc 1 206 5 view .LVU113
 416 001e 22F07843 		bic	r3, r2, #-134217728
ARM GAS  T:\msys\tmp\ccehPeV4.s 			page 22


 417              	.LVL17:
 208:D:/fchai/work/i-cube/I-CUBE-HUAWEI/Middlewares/Third_Party/Huawei/iot_link/os/liteos/base/core\los_task.c ****     {
 418              		.loc 1 208 22 is_stmt 0 view .LVU114
 419 0022 7A68     		ldr	r2, [r7, #4]
 420              	.LVL18:
 206:D:/fchai/work/i-cube/I-CUBE-HUAWEI/Middlewares/Third_Party/Huawei/iot_link/os/liteos/base/core\los_task.c ****     pstListObject = g_stTskSortLink.pstSortLink + uwSortIndex;
 421              		.loc 1 206 5 view .LVU115
 422 0024 43EAC163 		orr	r3, r3, r1, lsl #27
 208:D:/fchai/work/i-cube/I-CUBE-HUAWEI/Middlewares/Third_Party/Huawei/iot_link/os/liteos/base/core\los_task.c ****     {
 423              		.loc 1 208 8 view .LVU116
 424 0028 BA42     		cmp	r2, r7
 425              	.LVL19:
 206:D:/fchai/work/i-cube/I-CUBE-HUAWEI/Middlewares/Third_Party/Huawei/iot_link/os/liteos/base/core\los_task.c ****     pstListObject = g_stTskSortLink.pstSortLink + uwSortIndex;
 426              		.loc 1 206 5 view .LVU117
 427 002a 8363     		str	r3, [r0, #56]
 207:D:/fchai/work/i-cube/I-CUBE-HUAWEI/Middlewares/Third_Party/Huawei/iot_link/os/liteos/base/core\los_task.c ****     if (pstListObject->pstNext == pstListObject)
 428              		.loc 1 207 5 is_stmt 1 view .LVU118
 429              	.LVL20:
 208:D:/fchai/work/i-cube/I-CUBE-HUAWEI/Middlewares/Third_Party/Huawei/iot_link/os/liteos/base/core\los_task.c ****     {
 430              		.loc 1 208 5 view .LVU119
 208:D:/fchai/work/i-cube/I-CUBE-HUAWEI/Middlewares/Third_Party/Huawei/iot_link/os/liteos/base/core\los_task.c ****     {
 431              		.loc 1 208 8 is_stmt 0 view .LVU120
 432 002c 23D0     		beq	.L32
 214:D:/fchai/work/i-cube/I-CUBE-HUAWEI/Middlewares/Third_Party/Huawei/iot_link/os/liteos/base/core\los_task.c ****         do
 433              		.loc 1 214 9 is_stmt 1 view .LVU121
 214:D:/fchai/work/i-cube/I-CUBE-HUAWEI/Middlewares/Third_Party/Huawei/iot_link/os/liteos/base/core\los_task.c ****         do
 434              		.loc 1 214 21 is_stmt 0 view .LVU122
 435 002e 303A     		subs	r2, r2, #48
 436              	.LVL21:
 214:D:/fchai/work/i-cube/I-CUBE-HUAWEI/Middlewares/Third_Party/Huawei/iot_link/os/liteos/base/core\los_task.c ****         do
 437              		.loc 1 214 21 view .LVU123
 438 0030 05E0     		b	.L27
 439              	.LVL22:
 440              	.L33:
 227:D:/fchai/work/i-cube/I-CUBE-HUAWEI/Middlewares/Third_Party/Huawei/iot_link/os/liteos/base/core\los_task.c ****         } while (&pstTskDelay->stTimerList != (pstListObject));
 441              		.loc 1 227 27 view .LVU124
 442 0032 516B     		ldr	r1, [r2, #52]
 219:D:/fchai/work/i-cube/I-CUBE-HUAWEI/Middlewares/Third_Party/Huawei/iot_link/os/liteos/base/core\los_task.c ****             }
 443              		.loc 1 219 17 view .LVU125
 444 0034 8363     		str	r3, [r0, #56]
 227:D:/fchai/work/i-cube/I-CUBE-HUAWEI/Middlewares/Third_Party/Huawei/iot_link/os/liteos/base/core\los_task.c ****         } while (&pstTskDelay->stTimerList != (pstListObject));
 445              		.loc 1 227 13 is_stmt 1 view .LVU126
 228:D:/fchai/work/i-cube/I-CUBE-HUAWEI/Middlewares/Third_Party/Huawei/iot_link/os/liteos/base/core\los_task.c **** 
 446              		.loc 1 228 9 is_stmt 0 view .LVU127
 447 0036 8F42     		cmp	r7, r1
 227:D:/fchai/work/i-cube/I-CUBE-HUAWEI/Middlewares/Third_Party/Huawei/iot_link/os/liteos/base/core\los_task.c ****         } while (&pstTskDelay->stTimerList != (pstListObject));
 448              		.loc 1 227 25 view .LVU128
 449 0038 A1F13002 		sub	r2, r1, #48
 450              	.LVL23:
 228:D:/fchai/work/i-cube/I-CUBE-HUAWEI/Middlewares/Third_Party/Huawei/iot_link/os/liteos/base/core\los_task.c **** 
 451              		.loc 1 228 17 is_stmt 1 view .LVU129
 228:D:/fchai/work/i-cube/I-CUBE-HUAWEI/Middlewares/Third_Party/Huawei/iot_link/os/liteos/base/core\los_task.c **** 
 452              		.loc 1 228 9 is_stmt 0 view .LVU130
 453 003c 11D0     		beq	.L28
 454              	.L27:
 215:D:/fchai/work/i-cube/I-CUBE-HUAWEI/Middlewares/Third_Party/Huawei/iot_link/os/liteos/base/core\los_task.c ****         {
 455              		.loc 1 215 9 is_stmt 1 view .LVU131
ARM GAS  T:\msys\tmp\ccehPeV4.s 			page 23


 217:D:/fchai/work/i-cube/I-CUBE-HUAWEI/Middlewares/Third_Party/Huawei/iot_link/os/liteos/base/core\los_task.c ****             {
 456              		.loc 1 217 13 view .LVU132
 219:D:/fchai/work/i-cube/I-CUBE-HUAWEI/Middlewares/Third_Party/Huawei/iot_link/os/liteos/base/core\los_task.c ****             }
 457              		.loc 1 219 17 view .LVU133
 217:D:/fchai/work/i-cube/I-CUBE-HUAWEI/Middlewares/Third_Party/Huawei/iot_link/os/liteos/base/core\los_task.c ****             {
 458              		.loc 1 217 17 is_stmt 0 view .LVU134
 459 003e 956B     		ldr	r5, [r2, #56]
 217:D:/fchai/work/i-cube/I-CUBE-HUAWEI/Middlewares/Third_Party/Huawei/iot_link/os/liteos/base/core\los_task.c ****             {
 460              		.loc 1 217 57 view .LVU135
 461 0040 23F07844 		bic	r4, r3, #-134217728
 217:D:/fchai/work/i-cube/I-CUBE-HUAWEI/Middlewares/Third_Party/Huawei/iot_link/os/liteos/base/core\los_task.c ****             {
 462              		.loc 1 217 17 view .LVU136
 463 0044 25F07841 		bic	r1, r5, #-134217728
 219:D:/fchai/work/i-cube/I-CUBE-HUAWEI/Middlewares/Third_Party/Huawei/iot_link/os/liteos/base/core\los_task.c ****             }
 464              		.loc 1 219 17 view .LVU137
 465 0048 03F07846 		and	r6, r3, #-134217728
 217:D:/fchai/work/i-cube/I-CUBE-HUAWEI/Middlewares/Third_Party/Huawei/iot_link/os/liteos/base/core\los_task.c ****             {
 466              		.loc 1 217 16 view .LVU138
 467 004c A142     		cmp	r1, r4
 219:D:/fchai/work/i-cube/I-CUBE-HUAWEI/Middlewares/Third_Party/Huawei/iot_link/os/liteos/base/core\los_task.c ****             }
 468              		.loc 1 219 17 view .LVU139
 469 004e A4EB0103 		sub	r3, r4, r1
 470 0052 43EA0603 		orr	r3, r3, r6
 217:D:/fchai/work/i-cube/I-CUBE-HUAWEI/Middlewares/Third_Party/Huawei/iot_link/os/liteos/base/core\los_task.c ****             {
 471              		.loc 1 217 16 view .LVU140
 472 0056 ECD9     		bls	.L33
 223:D:/fchai/work/i-cube/I-CUBE-HUAWEI/Middlewares/Third_Party/Huawei/iot_link/os/liteos/base/core\los_task.c ****                 break;
 473              		.loc 1 223 17 is_stmt 1 view .LVU141
 474 0058 05F07845 		and	r5, r5, #-134217728
 475 005c 091B     		subs	r1, r1, r4
 476 005e 2943     		orrs	r1, r1, r5
 477 0060 9163     		str	r1, [r2, #56]
 224:D:/fchai/work/i-cube/I-CUBE-HUAWEI/Middlewares/Third_Party/Huawei/iot_link/os/liteos/base/core\los_task.c ****             }
 478              		.loc 1 224 17 view .LVU142
 479              	.L28:
 230:D:/fchai/work/i-cube/I-CUBE-HUAWEI/Middlewares/Third_Party/Huawei/iot_link/os/liteos/base/core\los_task.c ****     }
 480              		.loc 1 230 9 view .LVU143
 481 0062 136B     		ldr	r3, [r2, #48]
 482              	.LVL24:
 483              	.L31:
 484              	.LBB88:
 485              	.LBB89:
 486              	.LBB90:
 487              	.LBB91:
 488              		.file 2 "D:/fchai/work/i-cube/I-CUBE-HUAWEI/Middlewares/Third_Party/Huawei/iot_link/os/liteos/incl
   1:D:/fchai/work/i-cube/I-CUBE-HUAWEI/Middlewares/Third_Party/Huawei/iot_link/os/liteos/include\los_list.h **** /*----------------------------------------------------------------------------
   2:D:/fchai/work/i-cube/I-CUBE-HUAWEI/Middlewares/Third_Party/Huawei/iot_link/os/liteos/include\los_list.h ****  * Copyright (c) <2013-2015>, <Huawei Technologies Co., Ltd>
   3:D:/fchai/work/i-cube/I-CUBE-HUAWEI/Middlewares/Third_Party/Huawei/iot_link/os/liteos/include\los_list.h ****  * All rights reserved.
   4:D:/fchai/work/i-cube/I-CUBE-HUAWEI/Middlewares/Third_Party/Huawei/iot_link/os/liteos/include\los_list.h ****  * Redistribution and use in source and binary forms, with or without modification,
   5:D:/fchai/work/i-cube/I-CUBE-HUAWEI/Middlewares/Third_Party/Huawei/iot_link/os/liteos/include\los_list.h ****  * are permitted provided that the following conditions are met:
   6:D:/fchai/work/i-cube/I-CUBE-HUAWEI/Middlewares/Third_Party/Huawei/iot_link/os/liteos/include\los_list.h ****  * 1. Redistributions of source code must retain the above copyright notice, this list of
   7:D:/fchai/work/i-cube/I-CUBE-HUAWEI/Middlewares/Third_Party/Huawei/iot_link/os/liteos/include\los_list.h ****  * conditions and the following disclaimer.
   8:D:/fchai/work/i-cube/I-CUBE-HUAWEI/Middlewares/Third_Party/Huawei/iot_link/os/liteos/include\los_list.h ****  * 2. Redistributions in binary form must reproduce the above copyright notice, this list
   9:D:/fchai/work/i-cube/I-CUBE-HUAWEI/Middlewares/Third_Party/Huawei/iot_link/os/liteos/include\los_list.h ****  * of conditions and the following disclaimer in the documentation and/or other materials
  10:D:/fchai/work/i-cube/I-CUBE-HUAWEI/Middlewares/Third_Party/Huawei/iot_link/os/liteos/include\los_list.h ****  * provided with the distribution.
  11:D:/fchai/work/i-cube/I-CUBE-HUAWEI/Middlewares/Third_Party/Huawei/iot_link/os/liteos/include\los_list.h ****  * 3. Neither the name of the copyright holder nor the names of its contributors may be used
  12:D:/fchai/work/i-cube/I-CUBE-HUAWEI/Middlewares/Third_Party/Huawei/iot_link/os/liteos/include\los_list.h ****  * to endorse or promote products derived from this software without specific prior written
ARM GAS  T:\msys\tmp\ccehPeV4.s 			page 24


  13:D:/fchai/work/i-cube/I-CUBE-HUAWEI/Middlewares/Third_Party/Huawei/iot_link/os/liteos/include\los_list.h ****  * permission.
  14:D:/fchai/work/i-cube/I-CUBE-HUAWEI/Middlewares/Third_Party/Huawei/iot_link/os/liteos/include\los_list.h ****  * THIS SOFTWARE IS PROVIDED BY THE COPYRIGHT HOLDERS AND CONTRIBUTORS
  15:D:/fchai/work/i-cube/I-CUBE-HUAWEI/Middlewares/Third_Party/Huawei/iot_link/os/liteos/include\los_list.h ****  * "AS IS" AND ANY EXPRESS OR IMPLIED WARRANTIES, INCLUDING, BUT NOT LIMITED TO,
  16:D:/fchai/work/i-cube/I-CUBE-HUAWEI/Middlewares/Third_Party/Huawei/iot_link/os/liteos/include\los_list.h ****  * THE IMPLIED WARRANTIES OF MERCHANTABILITY AND FITNESS FOR A PARTICULAR
  17:D:/fchai/work/i-cube/I-CUBE-HUAWEI/Middlewares/Third_Party/Huawei/iot_link/os/liteos/include\los_list.h ****  * PURPOSE ARE DISCLAIMED. IN NO EVENT SHALL THE COPYRIGHT HOLDER OR
  18:D:/fchai/work/i-cube/I-CUBE-HUAWEI/Middlewares/Third_Party/Huawei/iot_link/os/liteos/include\los_list.h ****  * CONTRIBUTORS BE LIABLE FOR ANY DIRECT, INDIRECT, INCIDENTAL, SPECIAL,
  19:D:/fchai/work/i-cube/I-CUBE-HUAWEI/Middlewares/Third_Party/Huawei/iot_link/os/liteos/include\los_list.h ****  * EXEMPLARY, OR CONSEQUENTIAL DAMAGES (INCLUDING, BUT NOT LIMITED TO,
  20:D:/fchai/work/i-cube/I-CUBE-HUAWEI/Middlewares/Third_Party/Huawei/iot_link/os/liteos/include\los_list.h ****  * PROCUREMENT OF SUBSTITUTE GOODS OR SERVICES; LOSS OF USE, DATA, OR PROFITS;
  21:D:/fchai/work/i-cube/I-CUBE-HUAWEI/Middlewares/Third_Party/Huawei/iot_link/os/liteos/include\los_list.h ****  * OR BUSINESS INTERRUPTION) HOWEVER CAUSED AND ON ANY THEORY OF LIABILITY,
  22:D:/fchai/work/i-cube/I-CUBE-HUAWEI/Middlewares/Third_Party/Huawei/iot_link/os/liteos/include\los_list.h ****  * WHETHER IN CONTRACT, STRICT LIABILITY, OR TORT (INCLUDING NEGLIGENCE OR
  23:D:/fchai/work/i-cube/I-CUBE-HUAWEI/Middlewares/Third_Party/Huawei/iot_link/os/liteos/include\los_list.h ****  * OTHERWISE) ARISING IN ANY WAY OUT OF THE USE OF THIS SOFTWARE, EVEN IF
  24:D:/fchai/work/i-cube/I-CUBE-HUAWEI/Middlewares/Third_Party/Huawei/iot_link/os/liteos/include\los_list.h ****  * ADVISED OF THE POSSIBILITY OF SUCH DAMAGE.
  25:D:/fchai/work/i-cube/I-CUBE-HUAWEI/Middlewares/Third_Party/Huawei/iot_link/os/liteos/include\los_list.h ****  *---------------------------------------------------------------------------*/
  26:D:/fchai/work/i-cube/I-CUBE-HUAWEI/Middlewares/Third_Party/Huawei/iot_link/os/liteos/include\los_list.h **** /*----------------------------------------------------------------------------
  27:D:/fchai/work/i-cube/I-CUBE-HUAWEI/Middlewares/Third_Party/Huawei/iot_link/os/liteos/include\los_list.h ****  * Notice of Export Control Law
  28:D:/fchai/work/i-cube/I-CUBE-HUAWEI/Middlewares/Third_Party/Huawei/iot_link/os/liteos/include\los_list.h ****  * ===============================================
  29:D:/fchai/work/i-cube/I-CUBE-HUAWEI/Middlewares/Third_Party/Huawei/iot_link/os/liteos/include\los_list.h ****  * Huawei LiteOS may be subject to applicable export control laws and regulations, which might
  30:D:/fchai/work/i-cube/I-CUBE-HUAWEI/Middlewares/Third_Party/Huawei/iot_link/os/liteos/include\los_list.h ****  * include those applicable to Huawei LiteOS of U.S. and the country in which you are located.
  31:D:/fchai/work/i-cube/I-CUBE-HUAWEI/Middlewares/Third_Party/Huawei/iot_link/os/liteos/include\los_list.h ****  * Import, export and usage of Huawei LiteOS in any manner by you shall be in compliance with such
  32:D:/fchai/work/i-cube/I-CUBE-HUAWEI/Middlewares/Third_Party/Huawei/iot_link/os/liteos/include\los_list.h ****  * applicable export control laws and regulations.
  33:D:/fchai/work/i-cube/I-CUBE-HUAWEI/Middlewares/Third_Party/Huawei/iot_link/os/liteos/include\los_list.h ****  *---------------------------------------------------------------------------*/
  34:D:/fchai/work/i-cube/I-CUBE-HUAWEI/Middlewares/Third_Party/Huawei/iot_link/os/liteos/include\los_list.h **** 
  35:D:/fchai/work/i-cube/I-CUBE-HUAWEI/Middlewares/Third_Party/Huawei/iot_link/os/liteos/include\los_list.h ****  /** @defgroup los_list Doubly linked list
  36:D:/fchai/work/i-cube/I-CUBE-HUAWEI/Middlewares/Third_Party/Huawei/iot_link/os/liteos/include\los_list.h ****  * @ingroup kernel
  37:D:/fchai/work/i-cube/I-CUBE-HUAWEI/Middlewares/Third_Party/Huawei/iot_link/os/liteos/include\los_list.h ****  */
  38:D:/fchai/work/i-cube/I-CUBE-HUAWEI/Middlewares/Third_Party/Huawei/iot_link/os/liteos/include\los_list.h **** 
  39:D:/fchai/work/i-cube/I-CUBE-HUAWEI/Middlewares/Third_Party/Huawei/iot_link/os/liteos/include\los_list.h **** #ifndef _LOS_LIST_H
  40:D:/fchai/work/i-cube/I-CUBE-HUAWEI/Middlewares/Third_Party/Huawei/iot_link/os/liteos/include\los_list.h **** #define _LOS_LIST_H
  41:D:/fchai/work/i-cube/I-CUBE-HUAWEI/Middlewares/Third_Party/Huawei/iot_link/os/liteos/include\los_list.h **** 
  42:D:/fchai/work/i-cube/I-CUBE-HUAWEI/Middlewares/Third_Party/Huawei/iot_link/os/liteos/include\los_list.h **** #include "los_typedef.h"
  43:D:/fchai/work/i-cube/I-CUBE-HUAWEI/Middlewares/Third_Party/Huawei/iot_link/os/liteos/include\los_list.h **** 
  44:D:/fchai/work/i-cube/I-CUBE-HUAWEI/Middlewares/Third_Party/Huawei/iot_link/os/liteos/include\los_list.h **** #ifdef __cplusplus
  45:D:/fchai/work/i-cube/I-CUBE-HUAWEI/Middlewares/Third_Party/Huawei/iot_link/os/liteos/include\los_list.h **** #if __cplusplus
  46:D:/fchai/work/i-cube/I-CUBE-HUAWEI/Middlewares/Third_Party/Huawei/iot_link/os/liteos/include\los_list.h **** extern "C" {
  47:D:/fchai/work/i-cube/I-CUBE-HUAWEI/Middlewares/Third_Party/Huawei/iot_link/os/liteos/include\los_list.h **** #endif /* __cplusplus */
  48:D:/fchai/work/i-cube/I-CUBE-HUAWEI/Middlewares/Third_Party/Huawei/iot_link/os/liteos/include\los_list.h **** #endif /* __cplusplus */
  49:D:/fchai/work/i-cube/I-CUBE-HUAWEI/Middlewares/Third_Party/Huawei/iot_link/os/liteos/include\los_list.h **** 
  50:D:/fchai/work/i-cube/I-CUBE-HUAWEI/Middlewares/Third_Party/Huawei/iot_link/os/liteos/include\los_list.h **** 
  51:D:/fchai/work/i-cube/I-CUBE-HUAWEI/Middlewares/Third_Party/Huawei/iot_link/os/liteos/include\los_list.h **** /**
  52:D:/fchai/work/i-cube/I-CUBE-HUAWEI/Middlewares/Third_Party/Huawei/iot_link/os/liteos/include\los_list.h ****  *@ingroup los_list
  53:D:/fchai/work/i-cube/I-CUBE-HUAWEI/Middlewares/Third_Party/Huawei/iot_link/os/liteos/include\los_list.h ****  *Structure of a node in a doubly linked list.
  54:D:/fchai/work/i-cube/I-CUBE-HUAWEI/Middlewares/Third_Party/Huawei/iot_link/os/liteos/include\los_list.h ****  */
  55:D:/fchai/work/i-cube/I-CUBE-HUAWEI/Middlewares/Third_Party/Huawei/iot_link/os/liteos/include\los_list.h **** typedef struct LOS_DL_LIST
  56:D:/fchai/work/i-cube/I-CUBE-HUAWEI/Middlewares/Third_Party/Huawei/iot_link/os/liteos/include\los_list.h **** {
  57:D:/fchai/work/i-cube/I-CUBE-HUAWEI/Middlewares/Third_Party/Huawei/iot_link/os/liteos/include\los_list.h ****     struct LOS_DL_LIST *pstPrev;            /**< Current node's pointer to the previous node*/
  58:D:/fchai/work/i-cube/I-CUBE-HUAWEI/Middlewares/Third_Party/Huawei/iot_link/os/liteos/include\los_list.h ****     struct LOS_DL_LIST *pstNext;            /**< Current node's pointer to the next node*/
  59:D:/fchai/work/i-cube/I-CUBE-HUAWEI/Middlewares/Third_Party/Huawei/iot_link/os/liteos/include\los_list.h **** } LOS_DL_LIST;
  60:D:/fchai/work/i-cube/I-CUBE-HUAWEI/Middlewares/Third_Party/Huawei/iot_link/os/liteos/include\los_list.h **** 
  61:D:/fchai/work/i-cube/I-CUBE-HUAWEI/Middlewares/Third_Party/Huawei/iot_link/os/liteos/include\los_list.h **** /**
  62:D:/fchai/work/i-cube/I-CUBE-HUAWEI/Middlewares/Third_Party/Huawei/iot_link/os/liteos/include\los_list.h ****  *@ingroup los_list
  63:D:/fchai/work/i-cube/I-CUBE-HUAWEI/Middlewares/Third_Party/Huawei/iot_link/os/liteos/include\los_list.h ****  *@brief Initialize a doubly linked list.
  64:D:/fchai/work/i-cube/I-CUBE-HUAWEI/Middlewares/Third_Party/Huawei/iot_link/os/liteos/include\los_list.h ****  *
  65:D:/fchai/work/i-cube/I-CUBE-HUAWEI/Middlewares/Third_Party/Huawei/iot_link/os/liteos/include\los_list.h ****  *@par Description:
  66:D:/fchai/work/i-cube/I-CUBE-HUAWEI/Middlewares/Third_Party/Huawei/iot_link/os/liteos/include\los_list.h ****  *This API is used to initialize a doubly linked list.
  67:D:/fchai/work/i-cube/I-CUBE-HUAWEI/Middlewares/Third_Party/Huawei/iot_link/os/liteos/include\los_list.h ****  *@attention
  68:D:/fchai/work/i-cube/I-CUBE-HUAWEI/Middlewares/Third_Party/Huawei/iot_link/os/liteos/include\los_list.h ****  *<ul>
  69:D:/fchai/work/i-cube/I-CUBE-HUAWEI/Middlewares/Third_Party/Huawei/iot_link/os/liteos/include\los_list.h ****  *<li>The parameter passed in should be ensured to be a legal pointer.</li>
ARM GAS  T:\msys\tmp\ccehPeV4.s 			page 25


  70:D:/fchai/work/i-cube/I-CUBE-HUAWEI/Middlewares/Third_Party/Huawei/iot_link/os/liteos/include\los_list.h ****  *</ul>
  71:D:/fchai/work/i-cube/I-CUBE-HUAWEI/Middlewares/Third_Party/Huawei/iot_link/os/liteos/include\los_list.h ****  *
  72:D:/fchai/work/i-cube/I-CUBE-HUAWEI/Middlewares/Third_Party/Huawei/iot_link/os/liteos/include\los_list.h ****  *@param pstList    [IN] Node in a doubly linked list.
  73:D:/fchai/work/i-cube/I-CUBE-HUAWEI/Middlewares/Third_Party/Huawei/iot_link/os/liteos/include\los_list.h ****  *
  74:D:/fchai/work/i-cube/I-CUBE-HUAWEI/Middlewares/Third_Party/Huawei/iot_link/os/liteos/include\los_list.h ****  *@retval None.
  75:D:/fchai/work/i-cube/I-CUBE-HUAWEI/Middlewares/Third_Party/Huawei/iot_link/os/liteos/include\los_list.h ****  *@par Dependency:
  76:D:/fchai/work/i-cube/I-CUBE-HUAWEI/Middlewares/Third_Party/Huawei/iot_link/os/liteos/include\los_list.h ****  *<ul><li>los_list.h: the header file that contains the API declaration.</li></ul>
  77:D:/fchai/work/i-cube/I-CUBE-HUAWEI/Middlewares/Third_Party/Huawei/iot_link/os/liteos/include\los_list.h ****  *@see
  78:D:/fchai/work/i-cube/I-CUBE-HUAWEI/Middlewares/Third_Party/Huawei/iot_link/os/liteos/include\los_list.h ****  *@since Huawei LiteOS V100R001C00
  79:D:/fchai/work/i-cube/I-CUBE-HUAWEI/Middlewares/Third_Party/Huawei/iot_link/os/liteos/include\los_list.h ****  */
  80:D:/fchai/work/i-cube/I-CUBE-HUAWEI/Middlewares/Third_Party/Huawei/iot_link/os/liteos/include\los_list.h **** LITE_OS_SEC_ALW_INLINE STATIC_INLINE VOID LOS_ListInit(LOS_DL_LIST *pstList)
  81:D:/fchai/work/i-cube/I-CUBE-HUAWEI/Middlewares/Third_Party/Huawei/iot_link/os/liteos/include\los_list.h **** {
  82:D:/fchai/work/i-cube/I-CUBE-HUAWEI/Middlewares/Third_Party/Huawei/iot_link/os/liteos/include\los_list.h ****     pstList->pstNext = pstList;
  83:D:/fchai/work/i-cube/I-CUBE-HUAWEI/Middlewares/Third_Party/Huawei/iot_link/os/liteos/include\los_list.h ****     pstList->pstPrev = pstList;
  84:D:/fchai/work/i-cube/I-CUBE-HUAWEI/Middlewares/Third_Party/Huawei/iot_link/os/liteos/include\los_list.h **** }
  85:D:/fchai/work/i-cube/I-CUBE-HUAWEI/Middlewares/Third_Party/Huawei/iot_link/os/liteos/include\los_list.h **** 
  86:D:/fchai/work/i-cube/I-CUBE-HUAWEI/Middlewares/Third_Party/Huawei/iot_link/os/liteos/include\los_list.h **** /**
  87:D:/fchai/work/i-cube/I-CUBE-HUAWEI/Middlewares/Third_Party/Huawei/iot_link/os/liteos/include\los_list.h ****  *@ingroup los_list
  88:D:/fchai/work/i-cube/I-CUBE-HUAWEI/Middlewares/Third_Party/Huawei/iot_link/os/liteos/include\los_list.h ****  *@brief Point to the next node pointed to by the current node.
  89:D:/fchai/work/i-cube/I-CUBE-HUAWEI/Middlewares/Third_Party/Huawei/iot_link/os/liteos/include\los_list.h ****  *
  90:D:/fchai/work/i-cube/I-CUBE-HUAWEI/Middlewares/Third_Party/Huawei/iot_link/os/liteos/include\los_list.h ****  *@par Description:
  91:D:/fchai/work/i-cube/I-CUBE-HUAWEI/Middlewares/Third_Party/Huawei/iot_link/os/liteos/include\los_list.h ****  *<ul>
  92:D:/fchai/work/i-cube/I-CUBE-HUAWEI/Middlewares/Third_Party/Huawei/iot_link/os/liteos/include\los_list.h ****  *<li>This API is used to point to the next node pointed to by the current node.</li>
  93:D:/fchai/work/i-cube/I-CUBE-HUAWEI/Middlewares/Third_Party/Huawei/iot_link/os/liteos/include\los_list.h ****  *</ul>
  94:D:/fchai/work/i-cube/I-CUBE-HUAWEI/Middlewares/Third_Party/Huawei/iot_link/os/liteos/include\los_list.h ****  *@attention
  95:D:/fchai/work/i-cube/I-CUBE-HUAWEI/Middlewares/Third_Party/Huawei/iot_link/os/liteos/include\los_list.h ****  *<ul>
  96:D:/fchai/work/i-cube/I-CUBE-HUAWEI/Middlewares/Third_Party/Huawei/iot_link/os/liteos/include\los_list.h ****  *<li>None.</li>
  97:D:/fchai/work/i-cube/I-CUBE-HUAWEI/Middlewares/Third_Party/Huawei/iot_link/os/liteos/include\los_list.h ****  *</ul>
  98:D:/fchai/work/i-cube/I-CUBE-HUAWEI/Middlewares/Third_Party/Huawei/iot_link/os/liteos/include\los_list.h ****  *
  99:D:/fchai/work/i-cube/I-CUBE-HUAWEI/Middlewares/Third_Party/Huawei/iot_link/os/liteos/include\los_list.h ****  *@param pstObject  [IN] Node in the doubly linked list.
 100:D:/fchai/work/i-cube/I-CUBE-HUAWEI/Middlewares/Third_Party/Huawei/iot_link/os/liteos/include\los_list.h ****  *
 101:D:/fchai/work/i-cube/I-CUBE-HUAWEI/Middlewares/Third_Party/Huawei/iot_link/os/liteos/include\los_list.h ****  *@retval None.
 102:D:/fchai/work/i-cube/I-CUBE-HUAWEI/Middlewares/Third_Party/Huawei/iot_link/os/liteos/include\los_list.h ****  *@par Dependency:
 103:D:/fchai/work/i-cube/I-CUBE-HUAWEI/Middlewares/Third_Party/Huawei/iot_link/os/liteos/include\los_list.h ****  *<ul><li>los_list.h: the header file that contains the API declaration.</li></ul>
 104:D:/fchai/work/i-cube/I-CUBE-HUAWEI/Middlewares/Third_Party/Huawei/iot_link/os/liteos/include\los_list.h ****  *@see
 105:D:/fchai/work/i-cube/I-CUBE-HUAWEI/Middlewares/Third_Party/Huawei/iot_link/os/liteos/include\los_list.h ****  *@since Huawei LiteOS V100R001C00
 106:D:/fchai/work/i-cube/I-CUBE-HUAWEI/Middlewares/Third_Party/Huawei/iot_link/os/liteos/include\los_list.h ****  */
 107:D:/fchai/work/i-cube/I-CUBE-HUAWEI/Middlewares/Third_Party/Huawei/iot_link/os/liteos/include\los_list.h **** #define LOS_DL_LIST_FIRST(pstObject) ((pstObject)->pstNext)
 108:D:/fchai/work/i-cube/I-CUBE-HUAWEI/Middlewares/Third_Party/Huawei/iot_link/os/liteos/include\los_list.h **** 
 109:D:/fchai/work/i-cube/I-CUBE-HUAWEI/Middlewares/Third_Party/Huawei/iot_link/os/liteos/include\los_list.h **** /**
 110:D:/fchai/work/i-cube/I-CUBE-HUAWEI/Middlewares/Third_Party/Huawei/iot_link/os/liteos/include\los_list.h ****  *@ingroup los_list
 111:D:/fchai/work/i-cube/I-CUBE-HUAWEI/Middlewares/Third_Party/Huawei/iot_link/os/liteos/include\los_list.h ****  *@brief Insert a new node to a doubly linked list.
 112:D:/fchai/work/i-cube/I-CUBE-HUAWEI/Middlewares/Third_Party/Huawei/iot_link/os/liteos/include\los_list.h ****  *
 113:D:/fchai/work/i-cube/I-CUBE-HUAWEI/Middlewares/Third_Party/Huawei/iot_link/os/liteos/include\los_list.h ****  *@par Description:
 114:D:/fchai/work/i-cube/I-CUBE-HUAWEI/Middlewares/Third_Party/Huawei/iot_link/os/liteos/include\los_list.h ****  *This API is used to insert a new node to a doubly linked list.
 115:D:/fchai/work/i-cube/I-CUBE-HUAWEI/Middlewares/Third_Party/Huawei/iot_link/os/liteos/include\los_list.h ****  *@attention
 116:D:/fchai/work/i-cube/I-CUBE-HUAWEI/Middlewares/Third_Party/Huawei/iot_link/os/liteos/include\los_list.h ****  *<ul>
 117:D:/fchai/work/i-cube/I-CUBE-HUAWEI/Middlewares/Third_Party/Huawei/iot_link/os/liteos/include\los_list.h ****  *<li>The parameters passed in should be ensured to be legal pointers.</li>
 118:D:/fchai/work/i-cube/I-CUBE-HUAWEI/Middlewares/Third_Party/Huawei/iot_link/os/liteos/include\los_list.h ****  *</ul>
 119:D:/fchai/work/i-cube/I-CUBE-HUAWEI/Middlewares/Third_Party/Huawei/iot_link/os/liteos/include\los_list.h ****  *
 120:D:/fchai/work/i-cube/I-CUBE-HUAWEI/Middlewares/Third_Party/Huawei/iot_link/os/liteos/include\los_list.h ****  *@param pstList    [IN]   Doubly linked list where the new node is inserted.
 121:D:/fchai/work/i-cube/I-CUBE-HUAWEI/Middlewares/Third_Party/Huawei/iot_link/os/liteos/include\los_list.h ****  *@param pstNode    [IN]   New node to be inserted.
 122:D:/fchai/work/i-cube/I-CUBE-HUAWEI/Middlewares/Third_Party/Huawei/iot_link/os/liteos/include\los_list.h ****  *
 123:D:/fchai/work/i-cube/I-CUBE-HUAWEI/Middlewares/Third_Party/Huawei/iot_link/os/liteos/include\los_list.h ****  *@retval None
 124:D:/fchai/work/i-cube/I-CUBE-HUAWEI/Middlewares/Third_Party/Huawei/iot_link/os/liteos/include\los_list.h ****  *@par Dependency:
 125:D:/fchai/work/i-cube/I-CUBE-HUAWEI/Middlewares/Third_Party/Huawei/iot_link/os/liteos/include\los_list.h ****  *<ul><li>los_list.h: the header file that contains the API declaration.</li></ul>
 126:D:/fchai/work/i-cube/I-CUBE-HUAWEI/Middlewares/Third_Party/Huawei/iot_link/os/liteos/include\los_list.h ****  *@see LOS_ListDelete
ARM GAS  T:\msys\tmp\ccehPeV4.s 			page 26


 127:D:/fchai/work/i-cube/I-CUBE-HUAWEI/Middlewares/Third_Party/Huawei/iot_link/os/liteos/include\los_list.h ****  *@since Huawei LiteOS V100R001C00
 128:D:/fchai/work/i-cube/I-CUBE-HUAWEI/Middlewares/Third_Party/Huawei/iot_link/os/liteos/include\los_list.h ****  */
 129:D:/fchai/work/i-cube/I-CUBE-HUAWEI/Middlewares/Third_Party/Huawei/iot_link/os/liteos/include\los_list.h **** LITE_OS_SEC_ALW_INLINE STATIC_INLINE VOID LOS_ListAdd(LOS_DL_LIST *pstList, LOS_DL_LIST *pstNode)
 130:D:/fchai/work/i-cube/I-CUBE-HUAWEI/Middlewares/Third_Party/Huawei/iot_link/os/liteos/include\los_list.h **** {
 131:D:/fchai/work/i-cube/I-CUBE-HUAWEI/Middlewares/Third_Party/Huawei/iot_link/os/liteos/include\los_list.h ****     pstNode->pstNext = pstList->pstNext;
 489              		.loc 2 131 31 is_stmt 0 view .LVU144
 490 0064 5968     		ldr	r1, [r3, #4]
 491              		.loc 2 131 22 view .LVU145
 492 0066 4163     		str	r1, [r0, #52]
 493              	.LBE91:
 494              	.LBE90:
 495              	.LBE89:
 496              	.LBE88:
 230:D:/fchai/work/i-cube/I-CUBE-HUAWEI/Middlewares/Third_Party/Huawei/iot_link/os/liteos/base/core\los_task.c ****     }
 497              		.loc 1 230 9 view .LVU146
 498 0068 00F13002 		add	r2, r0, #48
 499              	.LVL25:
 500              	.LBB98:
 501              	.LBI88:
 132:D:/fchai/work/i-cube/I-CUBE-HUAWEI/Middlewares/Third_Party/Huawei/iot_link/os/liteos/include\los_list.h ****     pstNode->pstPrev = pstList;
 133:D:/fchai/work/i-cube/I-CUBE-HUAWEI/Middlewares/Third_Party/Huawei/iot_link/os/liteos/include\los_list.h ****     pstList->pstNext->pstPrev = pstNode;
 134:D:/fchai/work/i-cube/I-CUBE-HUAWEI/Middlewares/Third_Party/Huawei/iot_link/os/liteos/include\los_list.h ****     pstList->pstNext = pstNode;
 135:D:/fchai/work/i-cube/I-CUBE-HUAWEI/Middlewares/Third_Party/Huawei/iot_link/os/liteos/include\los_list.h **** }
 136:D:/fchai/work/i-cube/I-CUBE-HUAWEI/Middlewares/Third_Party/Huawei/iot_link/os/liteos/include\los_list.h **** 
 137:D:/fchai/work/i-cube/I-CUBE-HUAWEI/Middlewares/Third_Party/Huawei/iot_link/os/liteos/include\los_list.h **** /**
 138:D:/fchai/work/i-cube/I-CUBE-HUAWEI/Middlewares/Third_Party/Huawei/iot_link/os/liteos/include\los_list.h ****  *@ingroup los_list
 139:D:/fchai/work/i-cube/I-CUBE-HUAWEI/Middlewares/Third_Party/Huawei/iot_link/os/liteos/include\los_list.h ****  *@brief Insert a node to the tail of a doubly linked list.
 140:D:/fchai/work/i-cube/I-CUBE-HUAWEI/Middlewares/Third_Party/Huawei/iot_link/os/liteos/include\los_list.h ****  *
 141:D:/fchai/work/i-cube/I-CUBE-HUAWEI/Middlewares/Third_Party/Huawei/iot_link/os/liteos/include\los_list.h ****  *@par Description:
 142:D:/fchai/work/i-cube/I-CUBE-HUAWEI/Middlewares/Third_Party/Huawei/iot_link/os/liteos/include\los_list.h ****  *This API is used to insert a new node to the tail of a doubly linked list.
 143:D:/fchai/work/i-cube/I-CUBE-HUAWEI/Middlewares/Third_Party/Huawei/iot_link/os/liteos/include\los_list.h ****  *@attention
 144:D:/fchai/work/i-cube/I-CUBE-HUAWEI/Middlewares/Third_Party/Huawei/iot_link/os/liteos/include\los_list.h ****  *<ul>
 145:D:/fchai/work/i-cube/I-CUBE-HUAWEI/Middlewares/Third_Party/Huawei/iot_link/os/liteos/include\los_list.h ****  *<li>The parameters passed in should be ensured to be legal pointers.</li>
 146:D:/fchai/work/i-cube/I-CUBE-HUAWEI/Middlewares/Third_Party/Huawei/iot_link/os/liteos/include\los_list.h ****  *</ul>
 147:D:/fchai/work/i-cube/I-CUBE-HUAWEI/Middlewares/Third_Party/Huawei/iot_link/os/liteos/include\los_list.h ****  *
 148:D:/fchai/work/i-cube/I-CUBE-HUAWEI/Middlewares/Third_Party/Huawei/iot_link/os/liteos/include\los_list.h ****  *@param pstList     [IN] Doubly linked list where the new node is inserted.
 149:D:/fchai/work/i-cube/I-CUBE-HUAWEI/Middlewares/Third_Party/Huawei/iot_link/os/liteos/include\los_list.h ****  *@param pstNode     [IN] New node to be inserted.
 150:D:/fchai/work/i-cube/I-CUBE-HUAWEI/Middlewares/Third_Party/Huawei/iot_link/os/liteos/include\los_list.h ****  *
 151:D:/fchai/work/i-cube/I-CUBE-HUAWEI/Middlewares/Third_Party/Huawei/iot_link/os/liteos/include\los_list.h ****  *@retval None.
 152:D:/fchai/work/i-cube/I-CUBE-HUAWEI/Middlewares/Third_Party/Huawei/iot_link/os/liteos/include\los_list.h ****  *@par Dependency:
 153:D:/fchai/work/i-cube/I-CUBE-HUAWEI/Middlewares/Third_Party/Huawei/iot_link/os/liteos/include\los_list.h ****  *<ul><li>los_list.h: the header file that contains the API declaration.</li></ul>
 154:D:/fchai/work/i-cube/I-CUBE-HUAWEI/Middlewares/Third_Party/Huawei/iot_link/os/liteos/include\los_list.h ****  *@see LOS_ListAdd | LOS_ListHeadInsert
 155:D:/fchai/work/i-cube/I-CUBE-HUAWEI/Middlewares/Third_Party/Huawei/iot_link/os/liteos/include\los_list.h ****  *@since Huawei LiteOS V100R001C00
 156:D:/fchai/work/i-cube/I-CUBE-HUAWEI/Middlewares/Third_Party/Huawei/iot_link/os/liteos/include\los_list.h ****  */
 157:D:/fchai/work/i-cube/I-CUBE-HUAWEI/Middlewares/Third_Party/Huawei/iot_link/os/liteos/include\los_list.h **** LITE_OS_SEC_ALW_INLINE STATIC_INLINE VOID LOS_ListTailInsert(LOS_DL_LIST *pstList, LOS_DL_LIST *pst
 502              		.loc 2 157 43 is_stmt 1 view .LVU147
 503              	.LBB96:
 158:D:/fchai/work/i-cube/I-CUBE-HUAWEI/Middlewares/Third_Party/Huawei/iot_link/os/liteos/include\los_list.h **** {
 159:D:/fchai/work/i-cube/I-CUBE-HUAWEI/Middlewares/Third_Party/Huawei/iot_link/os/liteos/include\los_list.h ****     LOS_ListAdd(pstList->pstPrev, pstNode);
 504              		.loc 2 159 5 view .LVU148
 505              	.LBB94:
 506              	.LBI90:
 129:D:/fchai/work/i-cube/I-CUBE-HUAWEI/Middlewares/Third_Party/Huawei/iot_link/os/liteos/include\los_list.h **** {
 507              		.loc 2 129 43 view .LVU149
 508              	.LBB92:
 131:D:/fchai/work/i-cube/I-CUBE-HUAWEI/Middlewares/Third_Party/Huawei/iot_link/os/liteos/include\los_list.h ****     pstNode->pstPrev = pstList;
 509              		.loc 2 131 5 view .LVU150
ARM GAS  T:\msys\tmp\ccehPeV4.s 			page 27


 132:D:/fchai/work/i-cube/I-CUBE-HUAWEI/Middlewares/Third_Party/Huawei/iot_link/os/liteos/include\los_list.h ****     pstList->pstNext->pstPrev = pstNode;
 510              		.loc 2 132 5 view .LVU151
 132:D:/fchai/work/i-cube/I-CUBE-HUAWEI/Middlewares/Third_Party/Huawei/iot_link/os/liteos/include\los_list.h ****     pstList->pstNext->pstPrev = pstNode;
 511              		.loc 2 132 22 is_stmt 0 view .LVU152
 512 006c 0363     		str	r3, [r0, #48]
 133:D:/fchai/work/i-cube/I-CUBE-HUAWEI/Middlewares/Third_Party/Huawei/iot_link/os/liteos/include\los_list.h ****     pstList->pstNext = pstNode;
 513              		.loc 2 133 5 is_stmt 1 view .LVU153
 514              	.LBE92:
 515              	.LBE94:
 516              	.LBE96:
 517              	.LBE98:
 232:D:/fchai/work/i-cube/I-CUBE-HUAWEI/Middlewares/Third_Party/Huawei/iot_link/os/liteos/base/core\los_task.c **** 
 518              		.loc 1 232 1 is_stmt 0 view .LVU154
 519 006e F0BC     		pop	{r4, r5, r6, r7}
 520              	.LCFI10:
 521              		.cfi_remember_state
 522              		.cfi_restore 7
 523              		.cfi_restore 6
 524              		.cfi_restore 5
 525              		.cfi_restore 4
 526              		.cfi_def_cfa_offset 0
 527              	.LBB99:
 528              	.LBB97:
 529              	.LBB95:
 530              	.LBB93:
 133:D:/fchai/work/i-cube/I-CUBE-HUAWEI/Middlewares/Third_Party/Huawei/iot_link/os/liteos/include\los_list.h ****     pstList->pstNext = pstNode;
 531              		.loc 2 133 31 view .LVU155
 532 0070 0A60     		str	r2, [r1]
 533              	.LVL26:
 134:D:/fchai/work/i-cube/I-CUBE-HUAWEI/Middlewares/Third_Party/Huawei/iot_link/os/liteos/include\los_list.h **** }
 534              		.loc 2 134 5 is_stmt 1 view .LVU156
 134:D:/fchai/work/i-cube/I-CUBE-HUAWEI/Middlewares/Third_Party/Huawei/iot_link/os/liteos/include\los_list.h **** }
 535              		.loc 2 134 22 is_stmt 0 view .LVU157
 536 0072 5A60     		str	r2, [r3, #4]
 537              	.LVL27:
 134:D:/fchai/work/i-cube/I-CUBE-HUAWEI/Middlewares/Third_Party/Huawei/iot_link/os/liteos/include\los_list.h **** }
 538              		.loc 2 134 22 view .LVU158
 539              	.LBE93:
 540              	.LBE95:
 541              	.LBE97:
 542              	.LBE99:
 232:D:/fchai/work/i-cube/I-CUBE-HUAWEI/Middlewares/Third_Party/Huawei/iot_link/os/liteos/base/core\los_task.c **** 
 543              		.loc 1 232 1 view .LVU159
 544 0074 7047     		bx	lr
 545              	.LVL28:
 546              	.L32:
 547              	.LCFI11:
 548              		.cfi_restore_state
 210:D:/fchai/work/i-cube/I-CUBE-HUAWEI/Middlewares/Third_Party/Huawei/iot_link/os/liteos/base/core\los_task.c ****     }
 549              		.loc 1 210 9 is_stmt 1 view .LVU160
 550 0076 1368     		ldr	r3, [r2]
 551 0078 F4E7     		b	.L31
 552              	.L35:
 553 007a 00BF     		.align	2
 554              	.L34:
 555 007c 00000000 		.word	g_stTskSortLink
 556              		.cfi_endproc
ARM GAS  T:\msys\tmp\ccehPeV4.s 			page 28


 557              	.LFE135:
 559              		.section	.text.osTimerListDelete,"ax",%progbits
 560              		.align	1
 561              		.p2align 2,,3
 562              		.global	osTimerListDelete
 563              		.syntax unified
 564              		.thumb
 565              		.thumb_func
 566              		.fpu fpv4-sp-d16
 568              	osTimerListDelete:
 569              	.LVL29:
 570              	.LFB136:
 236:D:/fchai/work/i-cube/I-CUBE-HUAWEI/Middlewares/Third_Party/Huawei/iot_link/os/liteos/base/core\los_task.c ****     LOS_DL_LIST  *pstListObject;
 571              		.loc 1 236 1 view -0
 572              		.cfi_startproc
 573              		@ args = 0, pretend = 0, frame = 0
 574              		@ frame_needed = 0, uses_anonymous_args = 0
 575              		@ link register save eliminated.
 237:D:/fchai/work/i-cube/I-CUBE-HUAWEI/Middlewares/Third_Party/Huawei/iot_link/os/liteos/base/core\los_task.c ****     LOS_TASK_CB  *pstNextTask;
 576              		.loc 1 237 5 view .LVU162
 238:D:/fchai/work/i-cube/I-CUBE-HUAWEI/Middlewares/Third_Party/Huawei/iot_link/os/liteos/base/core\los_task.c ****     UINT32 uwSortIndex;
 577              		.loc 1 238 5 view .LVU163
 239:D:/fchai/work/i-cube/I-CUBE-HUAWEI/Middlewares/Third_Party/Huawei/iot_link/os/liteos/base/core\los_task.c **** 
 578              		.loc 1 239 5 view .LVU164
 241:D:/fchai/work/i-cube/I-CUBE-HUAWEI/Middlewares/Third_Party/Huawei/iot_link/os/liteos/base/core\los_task.c ****     pstListObject = g_stTskSortLink.pstSortLink + uwSortIndex;
 579              		.loc 1 241 5 view .LVU165
 242:D:/fchai/work/i-cube/I-CUBE-HUAWEI/Middlewares/Third_Party/Huawei/iot_link/os/liteos/base/core\los_task.c **** 
 580              		.loc 1 242 36 is_stmt 0 view .LVU166
 581 0000 0E4B     		ldr	r3, .L39
 241:D:/fchai/work/i-cube/I-CUBE-HUAWEI/Middlewares/Third_Party/Huawei/iot_link/os/liteos/base/core\los_task.c ****     pstListObject = g_stTskSortLink.pstSortLink + uwSortIndex;
 582              		.loc 1 241 19 view .LVU167
 583 0002 826B     		ldr	r2, [r0, #56]
 584              	.LVL30:
 242:D:/fchai/work/i-cube/I-CUBE-HUAWEI/Middlewares/Third_Party/Huawei/iot_link/os/liteos/base/core\los_task.c **** 
 585              		.loc 1 242 5 is_stmt 1 view .LVU168
 244:D:/fchai/work/i-cube/I-CUBE-HUAWEI/Middlewares/Third_Party/Huawei/iot_link/os/liteos/base/core\los_task.c ****     {
 586              		.loc 1 244 5 view .LVU169
 242:D:/fchai/work/i-cube/I-CUBE-HUAWEI/Middlewares/Third_Party/Huawei/iot_link/os/liteos/base/core\los_task.c **** 
 587              		.loc 1 242 19 is_stmt 0 view .LVU170
 588 0004 1968     		ldr	r1, [r3]
 244:D:/fchai/work/i-cube/I-CUBE-HUAWEI/Middlewares/Third_Party/Huawei/iot_link/os/liteos/base/core\los_task.c ****     {
 589              		.loc 1 244 48 view .LVU171
 590 0006 436B     		ldr	r3, [r0, #52]
 591              	.LVL31:
 236:D:/fchai/work/i-cube/I-CUBE-HUAWEI/Middlewares/Third_Party/Huawei/iot_link/os/liteos/base/core\los_task.c ****     LOS_DL_LIST  *pstListObject;
 592              		.loc 1 236 1 view .LVU172
 593 0008 10B4     		push	{r4}
 594              	.LCFI12:
 595              		.cfi_def_cfa_offset 4
 596              		.cfi_offset 4, -4
 241:D:/fchai/work/i-cube/I-CUBE-HUAWEI/Middlewares/Third_Party/Huawei/iot_link/os/liteos/base/core\los_task.c ****     pstListObject = g_stTskSortLink.pstSortLink + uwSortIndex;
 597              		.loc 1 241 17 view .LVU173
 598 000a D40E     		lsrs	r4, r2, #27
 599              	.LVL32:
 242:D:/fchai/work/i-cube/I-CUBE-HUAWEI/Middlewares/Third_Party/Huawei/iot_link/os/liteos/base/core\los_task.c **** 
 600              		.loc 1 242 19 view .LVU174
 601 000c 01EBC401 		add	r1, r1, r4, lsl #3
ARM GAS  T:\msys\tmp\ccehPeV4.s 			page 29


 602              	.LVL33:
 244:D:/fchai/work/i-cube/I-CUBE-HUAWEI/Middlewares/Third_Party/Huawei/iot_link/os/liteos/base/core\los_task.c ****     {
 603              		.loc 1 244 8 view .LVU175
 604 0010 8B42     		cmp	r3, r1
 605 0012 09D0     		beq	.L37
 246:D:/fchai/work/i-cube/I-CUBE-HUAWEI/Middlewares/Third_Party/Huawei/iot_link/os/liteos/base/core\los_task.c ****         UWROLLNUMADD(pstNextTask->uwIdxRollNum, pstTaskCB->uwIdxRollNum);
 606              		.loc 1 246 9 is_stmt 1 view .LVU176
 607              	.LVL34:
 247:D:/fchai/work/i-cube/I-CUBE-HUAWEI/Middlewares/Third_Party/Huawei/iot_link/os/liteos/base/core\los_task.c ****     }
 608              		.loc 1 247 9 view .LVU177
 609 0014 9C68     		ldr	r4, [r3, #8]
 610              	.LVL35:
 247:D:/fchai/work/i-cube/I-CUBE-HUAWEI/Middlewares/Third_Party/Huawei/iot_link/os/liteos/base/core\los_task.c ****     }
 611              		.loc 1 247 9 is_stmt 0 view .LVU178
 612 0016 22F07841 		bic	r1, r2, #-134217728
 613              	.LVL36:
 247:D:/fchai/work/i-cube/I-CUBE-HUAWEI/Middlewares/Third_Party/Huawei/iot_link/os/liteos/base/core\los_task.c ****     }
 614              		.loc 1 247 9 view .LVU179
 615 001a 24F07842 		bic	r2, r4, #-134217728
 616              	.LVL37:
 247:D:/fchai/work/i-cube/I-CUBE-HUAWEI/Middlewares/Third_Party/Huawei/iot_link/os/liteos/base/core\los_task.c ****     }
 617              		.loc 1 247 9 view .LVU180
 618 001e 0A44     		add	r2, r2, r1
 619 0020 04F07844 		and	r4, r4, #-134217728
 620 0024 2243     		orrs	r2, r2, r4
 621 0026 9A60     		str	r2, [r3, #8]
 622              	.LVL38:
 623              	.L37:
 250:D:/fchai/work/i-cube/I-CUBE-HUAWEI/Middlewares/Third_Party/Huawei/iot_link/os/liteos/base/core\los_task.c **** }
 624              		.loc 1 250 5 is_stmt 1 view .LVU181
 625              	.LBB100:
 626              	.LBI100:
 160:D:/fchai/work/i-cube/I-CUBE-HUAWEI/Middlewares/Third_Party/Huawei/iot_link/os/liteos/include\los_list.h **** }
 161:D:/fchai/work/i-cube/I-CUBE-HUAWEI/Middlewares/Third_Party/Huawei/iot_link/os/liteos/include\los_list.h **** 
 162:D:/fchai/work/i-cube/I-CUBE-HUAWEI/Middlewares/Third_Party/Huawei/iot_link/os/liteos/include\los_list.h **** /**
 163:D:/fchai/work/i-cube/I-CUBE-HUAWEI/Middlewares/Third_Party/Huawei/iot_link/os/liteos/include\los_list.h ****  *@ingroup los_list
 164:D:/fchai/work/i-cube/I-CUBE-HUAWEI/Middlewares/Third_Party/Huawei/iot_link/os/liteos/include\los_list.h ****  *@brief Delete a specified node from a doubly linked list.
 165:D:/fchai/work/i-cube/I-CUBE-HUAWEI/Middlewares/Third_Party/Huawei/iot_link/os/liteos/include\los_list.h ****  *
 166:D:/fchai/work/i-cube/I-CUBE-HUAWEI/Middlewares/Third_Party/Huawei/iot_link/os/liteos/include\los_list.h ****  *@par Description:
 167:D:/fchai/work/i-cube/I-CUBE-HUAWEI/Middlewares/Third_Party/Huawei/iot_link/os/liteos/include\los_list.h ****  *<ul>
 168:D:/fchai/work/i-cube/I-CUBE-HUAWEI/Middlewares/Third_Party/Huawei/iot_link/os/liteos/include\los_list.h ****  *<li>This API is used to delete a specified node from a doubly linked list.</li>
 169:D:/fchai/work/i-cube/I-CUBE-HUAWEI/Middlewares/Third_Party/Huawei/iot_link/os/liteos/include\los_list.h ****  *</ul>
 170:D:/fchai/work/i-cube/I-CUBE-HUAWEI/Middlewares/Third_Party/Huawei/iot_link/os/liteos/include\los_list.h ****  *@attention
 171:D:/fchai/work/i-cube/I-CUBE-HUAWEI/Middlewares/Third_Party/Huawei/iot_link/os/liteos/include\los_list.h ****  *<ul>
 172:D:/fchai/work/i-cube/I-CUBE-HUAWEI/Middlewares/Third_Party/Huawei/iot_link/os/liteos/include\los_list.h ****  *<li>The parameter passed in should be ensured to be a legal pointer.</li>
 173:D:/fchai/work/i-cube/I-CUBE-HUAWEI/Middlewares/Third_Party/Huawei/iot_link/os/liteos/include\los_list.h ****  *</ul>
 174:D:/fchai/work/i-cube/I-CUBE-HUAWEI/Middlewares/Third_Party/Huawei/iot_link/os/liteos/include\los_list.h ****  *
 175:D:/fchai/work/i-cube/I-CUBE-HUAWEI/Middlewares/Third_Party/Huawei/iot_link/os/liteos/include\los_list.h ****  *@param pstNode    [IN] Node to be deleted.
 176:D:/fchai/work/i-cube/I-CUBE-HUAWEI/Middlewares/Third_Party/Huawei/iot_link/os/liteos/include\los_list.h ****  *
 177:D:/fchai/work/i-cube/I-CUBE-HUAWEI/Middlewares/Third_Party/Huawei/iot_link/os/liteos/include\los_list.h ****  *@retval None.
 178:D:/fchai/work/i-cube/I-CUBE-HUAWEI/Middlewares/Third_Party/Huawei/iot_link/os/liteos/include\los_list.h ****  *@par Dependency:
 179:D:/fchai/work/i-cube/I-CUBE-HUAWEI/Middlewares/Third_Party/Huawei/iot_link/os/liteos/include\los_list.h ****  *<ul><li>los_list.h: the header file that contains the API declaration.</li></ul>
 180:D:/fchai/work/i-cube/I-CUBE-HUAWEI/Middlewares/Third_Party/Huawei/iot_link/os/liteos/include\los_list.h ****  *@see LOS_ListAdd
 181:D:/fchai/work/i-cube/I-CUBE-HUAWEI/Middlewares/Third_Party/Huawei/iot_link/os/liteos/include\los_list.h ****  *@since Huawei LiteOS V100R001C00
 182:D:/fchai/work/i-cube/I-CUBE-HUAWEI/Middlewares/Third_Party/Huawei/iot_link/os/liteos/include\los_list.h ****  */
 183:D:/fchai/work/i-cube/I-CUBE-HUAWEI/Middlewares/Third_Party/Huawei/iot_link/os/liteos/include\los_list.h **** LITE_OS_SEC_ALW_INLINE STATIC_INLINE VOID LOS_ListDelete(LOS_DL_LIST *pstNode)
 627              		.loc 2 183 43 view .LVU182
ARM GAS  T:\msys\tmp\ccehPeV4.s 			page 30


 628              	.LBB101:
 184:D:/fchai/work/i-cube/I-CUBE-HUAWEI/Middlewares/Third_Party/Huawei/iot_link/os/liteos/include\los_list.h **** {
 185:D:/fchai/work/i-cube/I-CUBE-HUAWEI/Middlewares/Third_Party/Huawei/iot_link/os/liteos/include\los_list.h ****     pstNode->pstNext->pstPrev = pstNode->pstPrev;
 629              		.loc 2 185 5 view .LVU183
 630              		.loc 2 185 40 is_stmt 0 view .LVU184
 631 0028 016B     		ldr	r1, [r0, #48]
 632              		.loc 2 185 31 view .LVU185
 633 002a 1960     		str	r1, [r3]
 186:D:/fchai/work/i-cube/I-CUBE-HUAWEI/Middlewares/Third_Party/Huawei/iot_link/os/liteos/include\los_list.h ****     pstNode->pstPrev->pstNext = pstNode->pstNext;
 634              		.loc 2 186 5 is_stmt 1 view .LVU186
 187:D:/fchai/work/i-cube/I-CUBE-HUAWEI/Middlewares/Third_Party/Huawei/iot_link/os/liteos/include\los_list.h ****     pstNode->pstNext = (LOS_DL_LIST *)NULL;
 635              		.loc 2 187 22 is_stmt 0 view .LVU187
 636 002c 0022     		movs	r2, #0
 186:D:/fchai/work/i-cube/I-CUBE-HUAWEI/Middlewares/Third_Party/Huawei/iot_link/os/liteos/include\los_list.h ****     pstNode->pstPrev->pstNext = pstNode->pstNext;
 637              		.loc 2 186 31 view .LVU188
 638 002e 4B60     		str	r3, [r1, #4]
 639              		.loc 2 187 5 is_stmt 1 view .LVU189
 640              	.LBE101:
 641              	.LBE100:
 251:D:/fchai/work/i-cube/I-CUBE-HUAWEI/Middlewares/Third_Party/Huawei/iot_link/os/liteos/base/core\los_task.c **** 
 642              		.loc 1 251 1 is_stmt 0 view .LVU190
 643 0030 5DF8044B 		ldr	r4, [sp], #4
 644              	.LCFI13:
 645              		.cfi_restore 4
 646              		.cfi_def_cfa_offset 0
 647              	.LBB103:
 648              	.LBB102:
 188:D:/fchai/work/i-cube/I-CUBE-HUAWEI/Middlewares/Third_Party/Huawei/iot_link/os/liteos/include\los_list.h ****     pstNode->pstPrev = (LOS_DL_LIST *)NULL;
 649              		.loc 2 188 22 view .LVU191
 650 0034 C0E90C22 		strd	r2, r2, [r0, #48]
 651              	.LBE102:
 652              	.LBE103:
 251:D:/fchai/work/i-cube/I-CUBE-HUAWEI/Middlewares/Third_Party/Huawei/iot_link/os/liteos/base/core\los_task.c **** 
 653              		.loc 1 251 1 view .LVU192
 654 0038 7047     		bx	lr
 655              	.L40:
 656 003a 00BF     		.align	2
 657              	.L39:
 658 003c 00000000 		.word	g_stTskSortLink
 659              		.cfi_endproc
 660              	.LFE136:
 662              		.section	.text.osTaskScan,"ax",%progbits
 663              		.align	1
 664              		.p2align 2,,3
 665              		.global	osTaskScan
 666              		.syntax unified
 667              		.thumb
 668              		.thumb_func
 669              		.fpu fpv4-sp-d16
 671              	osTaskScan:
 672              	.LFB137:
 254:D:/fchai/work/i-cube/I-CUBE-HUAWEI/Middlewares/Third_Party/Huawei/iot_link/os/liteos/base/core\los_task.c ****     LOS_TASK_CB *pstTaskCB;
 673              		.loc 1 254 1 is_stmt 1 view -0
 674              		.cfi_startproc
 675              		@ args = 0, pretend = 0, frame = 0
 676              		@ frame_needed = 0, uses_anonymous_args = 0
 255:D:/fchai/work/i-cube/I-CUBE-HUAWEI/Middlewares/Third_Party/Huawei/iot_link/os/liteos/base/core\los_task.c ****     BOOL bNeedSchedule = FALSE;
ARM GAS  T:\msys\tmp\ccehPeV4.s 			page 31


 677              		.loc 1 255 5 view .LVU194
 256:D:/fchai/work/i-cube/I-CUBE-HUAWEI/Middlewares/Third_Party/Huawei/iot_link/os/liteos/base/core\los_task.c ****     LOS_DL_LIST *pstListObject;
 678              		.loc 1 256 5 view .LVU195
 679              	.LVL39:
 257:D:/fchai/work/i-cube/I-CUBE-HUAWEI/Middlewares/Third_Party/Huawei/iot_link/os/liteos/base/core\los_task.c ****     UINT16 usTempStatus;
 680              		.loc 1 257 5 view .LVU196
 258:D:/fchai/work/i-cube/I-CUBE-HUAWEI/Middlewares/Third_Party/Huawei/iot_link/os/liteos/base/core\los_task.c **** 
 681              		.loc 1 258 5 view .LVU197
 260:D:/fchai/work/i-cube/I-CUBE-HUAWEI/Middlewares/Third_Party/Huawei/iot_link/os/liteos/base/core\los_task.c ****     pstListObject = g_stTskSortLink.pstSortLink + g_stTskSortLink.usCursor;
 682              		.loc 1 260 5 view .LVU198
 260:D:/fchai/work/i-cube/I-CUBE-HUAWEI/Middlewares/Third_Party/Huawei/iot_link/os/liteos/base/core\los_task.c ****     pstListObject = g_stTskSortLink.pstSortLink + g_stTskSortLink.usCursor;
 683              		.loc 1 260 48 is_stmt 0 view .LVU199
 684 0000 314A     		ldr	r2, .L61
 254:D:/fchai/work/i-cube/I-CUBE-HUAWEI/Middlewares/Third_Party/Huawei/iot_link/os/liteos/base/core\los_task.c ****     LOS_TASK_CB *pstTaskCB;
 685              		.loc 1 254 1 view .LVU200
 686 0002 F8B5     		push	{r3, r4, r5, r6, r7, lr}
 687              	.LCFI14:
 688              		.cfi_def_cfa_offset 24
 689              		.cfi_offset 3, -24
 690              		.cfi_offset 4, -20
 691              		.cfi_offset 5, -16
 692              		.cfi_offset 6, -12
 693              		.cfi_offset 7, -8
 694              		.cfi_offset 14, -4
 260:D:/fchai/work/i-cube/I-CUBE-HUAWEI/Middlewares/Third_Party/Huawei/iot_link/os/liteos/base/core\los_task.c ****     pstListObject = g_stTskSortLink.pstSortLink + g_stTskSortLink.usCursor;
 695              		.loc 1 260 48 view .LVU201
 696 0004 9388     		ldrh	r3, [r2, #4]
 261:D:/fchai/work/i-cube/I-CUBE-HUAWEI/Middlewares/Third_Party/Huawei/iot_link/os/liteos/base/core\los_task.c ****     if (pstListObject->pstNext == pstListObject)
 697              		.loc 1 261 19 view .LVU202
 698 0006 1568     		ldr	r5, [r2]
 260:D:/fchai/work/i-cube/I-CUBE-HUAWEI/Middlewares/Third_Party/Huawei/iot_link/os/liteos/base/core\los_task.c ****     pstListObject = g_stTskSortLink.pstSortLink + g_stTskSortLink.usCursor;
 699              		.loc 1 260 58 view .LVU203
 700 0008 0133     		adds	r3, r3, #1
 260:D:/fchai/work/i-cube/I-CUBE-HUAWEI/Middlewares/Third_Party/Huawei/iot_link/os/liteos/base/core\los_task.c ****     pstListObject = g_stTskSortLink.pstSortLink + g_stTskSortLink.usCursor;
 701              		.loc 1 260 63 view .LVU204
 702 000a 03F01F03 		and	r3, r3, #31
 261:D:/fchai/work/i-cube/I-CUBE-HUAWEI/Middlewares/Third_Party/Huawei/iot_link/os/liteos/base/core\los_task.c ****     if (pstListObject->pstNext == pstListObject)
 703              		.loc 1 261 19 view .LVU205
 704 000e 05EBC305 		add	r5, r5, r3, lsl #3
 260:D:/fchai/work/i-cube/I-CUBE-HUAWEI/Middlewares/Third_Party/Huawei/iot_link/os/liteos/base/core\los_task.c ****     pstListObject = g_stTskSortLink.pstSortLink + g_stTskSortLink.usCursor;
 705              		.loc 1 260 30 view .LVU206
 706 0012 9380     		strh	r3, [r2, #4]	@ movhi
 261:D:/fchai/work/i-cube/I-CUBE-HUAWEI/Middlewares/Third_Party/Huawei/iot_link/os/liteos/base/core\los_task.c ****     if (pstListObject->pstNext == pstListObject)
 707              		.loc 1 261 5 is_stmt 1 view .LVU207
 708              	.LVL40:
 262:D:/fchai/work/i-cube/I-CUBE-HUAWEI/Middlewares/Third_Party/Huawei/iot_link/os/liteos/base/core\los_task.c ****     {
 709              		.loc 1 262 5 view .LVU208
 262:D:/fchai/work/i-cube/I-CUBE-HUAWEI/Middlewares/Third_Party/Huawei/iot_link/os/liteos/base/core\los_task.c ****     {
 710              		.loc 1 262 22 is_stmt 0 view .LVU209
 711 0014 6B68     		ldr	r3, [r5, #4]
 262:D:/fchai/work/i-cube/I-CUBE-HUAWEI/Middlewares/Third_Party/Huawei/iot_link/os/liteos/base/core\los_task.c ****     {
 712              		.loc 1 262 8 view .LVU210
 713 0016 AB42     		cmp	r3, r5
 714 0018 3CD0     		beq	.L41
 267:D:/fchai/work/i-cube/I-CUBE-HUAWEI/Middlewares/Third_Party/Huawei/iot_link/os/liteos/base/core\los_task.c ****     {
 715              		.loc 1 267 5 is_stmt 1 view .LVU211
 716 001a 9D42     		cmp	r5, r3
ARM GAS  T:\msys\tmp\ccehPeV4.s 			page 32


 267:D:/fchai/work/i-cube/I-CUBE-HUAWEI/Middlewares/Third_Party/Huawei/iot_link/os/liteos/base/core\los_task.c ****     {
 717              		.loc 1 267 20 is_stmt 0 view .LVU212
 718 001c A3F13000 		sub	r0, r3, #48
 719              	.LVL41:
 267:D:/fchai/work/i-cube/I-CUBE-HUAWEI/Middlewares/Third_Party/Huawei/iot_link/os/liteos/base/core\los_task.c ****     {
 720              		.loc 1 267 92 is_stmt 1 view .LVU213
 267:D:/fchai/work/i-cube/I-CUBE-HUAWEI/Middlewares/Third_Party/Huawei/iot_link/os/liteos/base/core\los_task.c ****     {
 721              		.loc 1 267 5 is_stmt 0 view .LVU214
 722 0020 38D0     		beq	.L41
 256:D:/fchai/work/i-cube/I-CUBE-HUAWEI/Middlewares/Third_Party/Huawei/iot_link/os/liteos/base/core\los_task.c ****     LOS_DL_LIST *pstListObject;
 723              		.loc 1 256 10 view .LVU215
 724 0022 0027     		movs	r7, #0
 725 0024 11E0     		b	.L50
 726              	.LVL42:
 727              	.L59:
 279:D:/fchai/work/i-cube/I-CUBE-HUAWEI/Middlewares/Third_Party/Huawei/iot_link/os/liteos/base/core\los_task.c ****             LOS_ListDelete(&pstTaskCB->stPendList);
 728              		.loc 1 279 13 is_stmt 1 view .LVU216
 729              	.LBB104:
 730              	.LBB105:
 185:D:/fchai/work/i-cube/I-CUBE-HUAWEI/Middlewares/Third_Party/Huawei/iot_link/os/liteos/include\los_list.h ****     pstNode->pstPrev->pstNext = pstNode->pstNext;
 731              		.loc 2 185 40 is_stmt 0 view .LVU217
 732 0026 D0E90A14 		ldrd	r1, r4, [r0, #40]
 733              	.LBE105:
 734              	.LBE104:
 279:D:/fchai/work/i-cube/I-CUBE-HUAWEI/Middlewares/Third_Party/Huawei/iot_link/os/liteos/base/core\los_task.c ****             LOS_ListDelete(&pstTaskCB->stPendList);
 735              		.loc 1 279 37 view .LVU218
 736 002a 23F00806 		bic	r6, r3, #8
 737 002e 8680     		strh	r6, [r0, #4]	@ movhi
 280:D:/fchai/work/i-cube/I-CUBE-HUAWEI/Middlewares/Third_Party/Huawei/iot_link/os/liteos/base/core\los_task.c ****             pstTaskCB->pTaskSem = NULL;
 738              		.loc 1 280 13 is_stmt 1 view .LVU219
 739              	.LVL43:
 740              	.LBB107:
 741              	.LBI104:
 183:D:/fchai/work/i-cube/I-CUBE-HUAWEI/Middlewares/Third_Party/Huawei/iot_link/os/liteos/include\los_list.h **** {
 742              		.loc 2 183 43 view .LVU220
 743              	.LBB106:
 185:D:/fchai/work/i-cube/I-CUBE-HUAWEI/Middlewares/Third_Party/Huawei/iot_link/os/liteos/include\los_list.h ****     pstNode->pstPrev->pstNext = pstNode->pstNext;
 744              		.loc 2 185 5 view .LVU221
 185:D:/fchai/work/i-cube/I-CUBE-HUAWEI/Middlewares/Third_Party/Huawei/iot_link/os/liteos/include\los_list.h ****     pstNode->pstPrev->pstNext = pstNode->pstNext;
 745              		.loc 2 185 31 is_stmt 0 view .LVU222
 746 0030 2160     		str	r1, [r4]
 186:D:/fchai/work/i-cube/I-CUBE-HUAWEI/Middlewares/Third_Party/Huawei/iot_link/os/liteos/include\los_list.h ****     pstNode->pstNext = (LOS_DL_LIST *)NULL;
 747              		.loc 2 186 5 is_stmt 1 view .LVU223
 186:D:/fchai/work/i-cube/I-CUBE-HUAWEI/Middlewares/Third_Party/Huawei/iot_link/os/liteos/include\los_list.h ****     pstNode->pstNext = (LOS_DL_LIST *)NULL;
 748              		.loc 2 186 31 is_stmt 0 view .LVU224
 749 0032 4C60     		str	r4, [r1, #4]
 187:D:/fchai/work/i-cube/I-CUBE-HUAWEI/Middlewares/Third_Party/Huawei/iot_link/os/liteos/include\los_list.h ****     pstNode->pstPrev = (LOS_DL_LIST *)NULL;
 750              		.loc 2 187 5 is_stmt 1 view .LVU225
 751              		.loc 2 188 22 is_stmt 0 view .LVU226
 752 0034 C0E90A22 		strd	r2, r2, [r0, #40]
 753              	.LBE106:
 754              	.LBE107:
 281:D:/fchai/work/i-cube/I-CUBE-HUAWEI/Middlewares/Third_Party/Huawei/iot_link/os/liteos/base/core\los_task.c ****             pstTaskCB->pTaskMux = NULL;
 755              		.loc 1 281 13 is_stmt 1 view .LVU227
 282:D:/fchai/work/i-cube/I-CUBE-HUAWEI/Middlewares/Third_Party/Huawei/iot_link/os/liteos/base/core\los_task.c ****         }
 756              		.loc 1 282 33 is_stmt 0 view .LVU228
 757 0038 C0E90622 		strd	r2, r2, [r0, #24]
ARM GAS  T:\msys\tmp\ccehPeV4.s 			page 33


 758              	.LVL44:
 759              	.L46:
 298:D:/fchai/work/i-cube/I-CUBE-HUAWEI/Middlewares/Third_Party/Huawei/iot_link/os/liteos/base/core\los_task.c ****         {
 760              		.loc 1 298 9 is_stmt 1 view .LVU229
 298:D:/fchai/work/i-cube/I-CUBE-HUAWEI/Middlewares/Third_Party/Huawei/iot_link/os/liteos/base/core\los_task.c ****         {
 761              		.loc 1 298 12 is_stmt 0 view .LVU230
 762 003c 9B07     		lsls	r3, r3, #30
 763              	.LVL45:
 298:D:/fchai/work/i-cube/I-CUBE-HUAWEI/Middlewares/Third_Party/Huawei/iot_link/os/liteos/base/core\los_task.c ****         {
 764              		.loc 1 298 12 view .LVU231
 765 003e 19D5     		bpl	.L57
 766              	.L49:
 305:D:/fchai/work/i-cube/I-CUBE-HUAWEI/Middlewares/Third_Party/Huawei/iot_link/os/liteos/base/core\los_task.c ****     }
 767              		.loc 1 305 9 is_stmt 1 view .LVU232
 305:D:/fchai/work/i-cube/I-CUBE-HUAWEI/Middlewares/Third_Party/Huawei/iot_link/os/liteos/base/core\los_task.c ****     }
 768              		.loc 1 305 21 is_stmt 0 view .LVU233
 769 0040 6B68     		ldr	r3, [r5, #4]
 267:D:/fchai/work/i-cube/I-CUBE-HUAWEI/Middlewares/Third_Party/Huawei/iot_link/os/liteos/base/core\los_task.c ****     {
 770              		.loc 1 267 5 view .LVU234
 771 0042 9D42     		cmp	r5, r3
 305:D:/fchai/work/i-cube/I-CUBE-HUAWEI/Middlewares/Third_Party/Huawei/iot_link/os/liteos/base/core\los_task.c ****     }
 772              		.loc 1 305 19 view .LVU235
 773 0044 A3F13000 		sub	r0, r3, #48
 774              	.LVL46:
 267:D:/fchai/work/i-cube/I-CUBE-HUAWEI/Middlewares/Third_Party/Huawei/iot_link/os/liteos/base/core\los_task.c ****     {
 775              		.loc 1 267 92 is_stmt 1 view .LVU236
 267:D:/fchai/work/i-cube/I-CUBE-HUAWEI/Middlewares/Third_Party/Huawei/iot_link/os/liteos/base/core\los_task.c ****     {
 776              		.loc 1 267 5 is_stmt 0 view .LVU237
 777 0048 23D0     		beq	.L44
 778              	.L50:
 269:D:/fchai/work/i-cube/I-CUBE-HUAWEI/Middlewares/Third_Party/Huawei/iot_link/os/liteos/base/core\los_task.c ****         if (UWROLLNUM(pstTaskCB->uwIdxRollNum) > 0)
 779              		.loc 1 269 9 is_stmt 1 view .LVU238
 270:D:/fchai/work/i-cube/I-CUBE-HUAWEI/Middlewares/Third_Party/Huawei/iot_link/os/liteos/base/core\los_task.c ****         {
 780              		.loc 1 270 13 is_stmt 0 view .LVU239
 781 004a 816B     		ldr	r1, [r0, #56]
 269:D:/fchai/work/i-cube/I-CUBE-HUAWEI/Middlewares/Third_Party/Huawei/iot_link/os/liteos/base/core\los_task.c ****         if (UWROLLNUM(pstTaskCB->uwIdxRollNum) > 0)
 782              		.loc 1 269 22 view .LVU240
 783 004c 8388     		ldrh	r3, [r0, #4]
 784              	.LVL47:
 270:D:/fchai/work/i-cube/I-CUBE-HUAWEI/Middlewares/Third_Party/Huawei/iot_link/os/liteos/base/core\los_task.c ****         {
 785              		.loc 1 270 9 is_stmt 1 view .LVU241
 270:D:/fchai/work/i-cube/I-CUBE-HUAWEI/Middlewares/Third_Party/Huawei/iot_link/os/liteos/base/core\los_task.c ****         {
 786              		.loc 1 270 12 is_stmt 0 view .LVU242
 787 004e 31F07842 		bics	r2, r1, #-134217728
 788 0052 34D1     		bne	.L58
 276:D:/fchai/work/i-cube/I-CUBE-HUAWEI/Middlewares/Third_Party/Huawei/iot_link/os/liteos/base/core\los_task.c ****         if (OS_TASK_STATUS_PEND & usTempStatus)
 789              		.loc 1 276 9 is_stmt 1 view .LVU243
 790              	.LBB108:
 791              	.LBI108:
 183:D:/fchai/work/i-cube/I-CUBE-HUAWEI/Middlewares/Third_Party/Huawei/iot_link/os/liteos/include\los_list.h **** {
 792              		.loc 2 183 43 view .LVU244
 793              	.LBB109:
 185:D:/fchai/work/i-cube/I-CUBE-HUAWEI/Middlewares/Third_Party/Huawei/iot_link/os/liteos/include\los_list.h ****     pstNode->pstPrev->pstNext = pstNode->pstNext;
 794              		.loc 2 185 5 view .LVU245
 185:D:/fchai/work/i-cube/I-CUBE-HUAWEI/Middlewares/Third_Party/Huawei/iot_link/os/liteos/include\los_list.h ****     pstNode->pstPrev->pstNext = pstNode->pstNext;
 795              		.loc 2 185 40 is_stmt 0 view .LVU246
 796 0054 D0E90C14 		ldrd	r1, r4, [r0, #48]
ARM GAS  T:\msys\tmp\ccehPeV4.s 			page 34


 185:D:/fchai/work/i-cube/I-CUBE-HUAWEI/Middlewares/Third_Party/Huawei/iot_link/os/liteos/include\los_list.h ****     pstNode->pstPrev->pstNext = pstNode->pstNext;
 797              		.loc 2 185 31 view .LVU247
 798 0058 2160     		str	r1, [r4]
 186:D:/fchai/work/i-cube/I-CUBE-HUAWEI/Middlewares/Third_Party/Huawei/iot_link/os/liteos/include\los_list.h ****     pstNode->pstNext = (LOS_DL_LIST *)NULL;
 799              		.loc 2 186 5 is_stmt 1 view .LVU248
 186:D:/fchai/work/i-cube/I-CUBE-HUAWEI/Middlewares/Third_Party/Huawei/iot_link/os/liteos/include\los_list.h ****     pstNode->pstNext = (LOS_DL_LIST *)NULL;
 800              		.loc 2 186 31 is_stmt 0 view .LVU249
 801 005a 4C60     		str	r4, [r1, #4]
 187:D:/fchai/work/i-cube/I-CUBE-HUAWEI/Middlewares/Third_Party/Huawei/iot_link/os/liteos/include\los_list.h ****     pstNode->pstPrev = (LOS_DL_LIST *)NULL;
 802              		.loc 2 187 5 is_stmt 1 view .LVU250
 803              	.LBE109:
 804              	.LBE108:
 277:D:/fchai/work/i-cube/I-CUBE-HUAWEI/Middlewares/Third_Party/Huawei/iot_link/os/liteos/base/core\los_task.c ****         {
 805              		.loc 1 277 12 is_stmt 0 view .LVU251
 806 005c 1C07     		lsls	r4, r3, #28
 807              	.LBB111:
 808              	.LBB110:
 809              		.loc 2 188 22 view .LVU252
 810 005e C0E90C22 		strd	r2, r2, [r0, #48]
 811              	.LBE110:
 812              	.LBE111:
 277:D:/fchai/work/i-cube/I-CUBE-HUAWEI/Middlewares/Third_Party/Huawei/iot_link/os/liteos/base/core\los_task.c ****         {
 813              		.loc 1 277 9 is_stmt 1 view .LVU253
 277:D:/fchai/work/i-cube/I-CUBE-HUAWEI/Middlewares/Third_Party/Huawei/iot_link/os/liteos/base/core\los_task.c ****         {
 814              		.loc 1 277 12 is_stmt 0 view .LVU254
 815 0062 E0D4     		bmi	.L59
 284:D:/fchai/work/i-cube/I-CUBE-HUAWEI/Middlewares/Third_Party/Huawei/iot_link/os/liteos/base/core\los_task.c ****         {
 816              		.loc 1 284 14 is_stmt 1 view .LVU255
 284:D:/fchai/work/i-cube/I-CUBE-HUAWEI/Middlewares/Third_Party/Huawei/iot_link/os/liteos/base/core\los_task.c ****         {
 817              		.loc 1 284 17 is_stmt 0 view .LVU256
 818 0064 13F48062 		ands	r2, r3, #1024
 819 0068 15D0     		beq	.L47
 286:D:/fchai/work/i-cube/I-CUBE-HUAWEI/Middlewares/Third_Party/Huawei/iot_link/os/liteos/base/core\los_task.c ****         }
 820              		.loc 1 286 13 is_stmt 1 view .LVU257
 286:D:/fchai/work/i-cube/I-CUBE-HUAWEI/Middlewares/Third_Party/Huawei/iot_link/os/liteos/base/core\los_task.c ****         }
 821              		.loc 1 286 37 is_stmt 0 view .LVU258
 822 006a 23F48062 		bic	r2, r3, #1024
 298:D:/fchai/work/i-cube/I-CUBE-HUAWEI/Middlewares/Third_Party/Huawei/iot_link/os/liteos/base/core\los_task.c ****         {
 823              		.loc 1 298 12 view .LVU259
 824 006e 9B07     		lsls	r3, r3, #30
 825              	.LVL48:
 286:D:/fchai/work/i-cube/I-CUBE-HUAWEI/Middlewares/Third_Party/Huawei/iot_link/os/liteos/base/core\los_task.c ****         }
 826              		.loc 1 286 37 view .LVU260
 827 0070 8280     		strh	r2, [r0, #4]	@ movhi
 828              	.LVL49:
 298:D:/fchai/work/i-cube/I-CUBE-HUAWEI/Middlewares/Third_Party/Huawei/iot_link/os/liteos/base/core\los_task.c ****         {
 829              		.loc 1 298 9 is_stmt 1 view .LVU261
 298:D:/fchai/work/i-cube/I-CUBE-HUAWEI/Middlewares/Third_Party/Huawei/iot_link/os/liteos/base/core\los_task.c ****         {
 830              		.loc 1 298 12 is_stmt 0 view .LVU262
 831 0072 E5D4     		bmi	.L49
 832              	.L57:
 300:D:/fchai/work/i-cube/I-CUBE-HUAWEI/Middlewares/Third_Party/Huawei/iot_link/os/liteos/base/core\los_task.c ****             osPriqueueEnqueue(&pstTaskCB->stPendList, pstTaskCB->usPriority);
 833              		.loc 1 300 13 is_stmt 1 view .LVU263
 300:D:/fchai/work/i-cube/I-CUBE-HUAWEI/Middlewares/Third_Party/Huawei/iot_link/os/liteos/base/core\los_task.c ****             osPriqueueEnqueue(&pstTaskCB->stPendList, pstTaskCB->usPriority);
 834              		.loc 1 300 37 is_stmt 0 view .LVU264
 835 0074 8388     		ldrh	r3, [r0, #4]
 301:D:/fchai/work/i-cube/I-CUBE-HUAWEI/Middlewares/Third_Party/Huawei/iot_link/os/liteos/base/core\los_task.c ****             bNeedSchedule = TRUE;
ARM GAS  T:\msys\tmp\ccehPeV4.s 			page 35


 836              		.loc 1 301 13 view .LVU265
 837 0076 C188     		ldrh	r1, [r0, #6]
 300:D:/fchai/work/i-cube/I-CUBE-HUAWEI/Middlewares/Third_Party/Huawei/iot_link/os/liteos/base/core\los_task.c ****             osPriqueueEnqueue(&pstTaskCB->stPendList, pstTaskCB->usPriority);
 838              		.loc 1 300 37 view .LVU266
 839 0078 43F00403 		orr	r3, r3, #4
 840 007c 8380     		strh	r3, [r0, #4]	@ movhi
 301:D:/fchai/work/i-cube/I-CUBE-HUAWEI/Middlewares/Third_Party/Huawei/iot_link/os/liteos/base/core\los_task.c ****             bNeedSchedule = TRUE;
 841              		.loc 1 301 13 is_stmt 1 view .LVU267
 842 007e 2830     		adds	r0, r0, #40
 843              	.LVL50:
 301:D:/fchai/work/i-cube/I-CUBE-HUAWEI/Middlewares/Third_Party/Huawei/iot_link/os/liteos/base/core\los_task.c ****             bNeedSchedule = TRUE;
 844              		.loc 1 301 13 is_stmt 0 view .LVU268
 845 0080 FFF7FEFF 		bl	osPriqueueEnqueue
 846              	.LVL51:
 302:D:/fchai/work/i-cube/I-CUBE-HUAWEI/Middlewares/Third_Party/Huawei/iot_link/os/liteos/base/core\los_task.c ****         }
 847              		.loc 1 302 13 is_stmt 1 view .LVU269
 305:D:/fchai/work/i-cube/I-CUBE-HUAWEI/Middlewares/Third_Party/Huawei/iot_link/os/liteos/base/core\los_task.c ****     }
 848              		.loc 1 305 21 is_stmt 0 view .LVU270
 849 0084 6B68     		ldr	r3, [r5, #4]
 267:D:/fchai/work/i-cube/I-CUBE-HUAWEI/Middlewares/Third_Party/Huawei/iot_link/os/liteos/base/core\los_task.c ****     {
 850              		.loc 1 267 5 view .LVU271
 851 0086 9D42     		cmp	r5, r3
 302:D:/fchai/work/i-cube/I-CUBE-HUAWEI/Middlewares/Third_Party/Huawei/iot_link/os/liteos/base/core\los_task.c ****         }
 852              		.loc 1 302 27 view .LVU272
 853 0088 4FF00107 		mov	r7, #1
 854              	.LVL52:
 305:D:/fchai/work/i-cube/I-CUBE-HUAWEI/Middlewares/Third_Party/Huawei/iot_link/os/liteos/base/core\los_task.c ****     }
 855              		.loc 1 305 9 is_stmt 1 view .LVU273
 305:D:/fchai/work/i-cube/I-CUBE-HUAWEI/Middlewares/Third_Party/Huawei/iot_link/os/liteos/base/core\los_task.c ****     }
 856              		.loc 1 305 19 is_stmt 0 view .LVU274
 857 008c A3F13000 		sub	r0, r3, #48
 858              	.LVL53:
 267:D:/fchai/work/i-cube/I-CUBE-HUAWEI/Middlewares/Third_Party/Huawei/iot_link/os/liteos/base/core\los_task.c ****     {
 859              		.loc 1 267 92 is_stmt 1 view .LVU275
 267:D:/fchai/work/i-cube/I-CUBE-HUAWEI/Middlewares/Third_Party/Huawei/iot_link/os/liteos/base/core\los_task.c ****     {
 860              		.loc 1 267 5 is_stmt 0 view .LVU276
 861 0090 DBD1     		bne	.L50
 862              	.L44:
 308:D:/fchai/work/i-cube/I-CUBE-HUAWEI/Middlewares/Third_Party/Huawei/iot_link/os/liteos/base/core\los_task.c ****     {
 863              		.loc 1 308 5 is_stmt 1 view .LVU277
 308:D:/fchai/work/i-cube/I-CUBE-HUAWEI/Middlewares/Third_Party/Huawei/iot_link/os/liteos/base/core\los_task.c ****     {
 864              		.loc 1 308 8 is_stmt 0 view .LVU278
 865 0092 87B9     		cbnz	r7, .L60
 866              	.LVL54:
 867              	.L41:
 312:D:/fchai/work/i-cube/I-CUBE-HUAWEI/Middlewares/Third_Party/Huawei/iot_link/os/liteos/base/core\los_task.c **** 
 868              		.loc 1 312 1 view .LVU279
 869 0094 F8BD     		pop	{r3, r4, r5, r6, r7, pc}
 870              	.LVL55:
 871              	.L47:
 288:D:/fchai/work/i-cube/I-CUBE-HUAWEI/Middlewares/Third_Party/Huawei/iot_link/os/liteos/base/core\los_task.c ****         {
 872              		.loc 1 288 14 is_stmt 1 view .LVU280
 288:D:/fchai/work/i-cube/I-CUBE-HUAWEI/Middlewares/Third_Party/Huawei/iot_link/os/liteos/base/core\los_task.c ****         {
 873              		.loc 1 288 17 is_stmt 0 view .LVU281
 874 0096 9904     		lsls	r1, r3, #18
 875 0098 09D5     		bpl	.L48
 290:D:/fchai/work/i-cube/I-CUBE-HUAWEI/Middlewares/Third_Party/Huawei/iot_link/os/liteos/base/core\los_task.c ****             pstTaskCB->usTaskStatus &= ~(OS_TASK_STATUS_PEND_QUEUE);
ARM GAS  T:\msys\tmp\ccehPeV4.s 			page 36


 876              		.loc 1 290 13 is_stmt 1 view .LVU282
 877              	.LVL56:
 878              	.LBB112:
 879              	.LBI112:
 183:D:/fchai/work/i-cube/I-CUBE-HUAWEI/Middlewares/Third_Party/Huawei/iot_link/os/liteos/include\los_list.h **** {
 880              		.loc 2 183 43 view .LVU283
 881              	.LBB113:
 185:D:/fchai/work/i-cube/I-CUBE-HUAWEI/Middlewares/Third_Party/Huawei/iot_link/os/liteos/include\los_list.h ****     pstNode->pstPrev->pstNext = pstNode->pstNext;
 882              		.loc 2 185 5 view .LVU284
 185:D:/fchai/work/i-cube/I-CUBE-HUAWEI/Middlewares/Third_Party/Huawei/iot_link/os/liteos/include\los_list.h ****     pstNode->pstPrev->pstNext = pstNode->pstNext;
 883              		.loc 2 185 40 is_stmt 0 view .LVU285
 884 009a D0E90A46 		ldrd	r4, r6, [r0, #40]
 885              	.LBE113:
 886              	.LBE112:
 291:D:/fchai/work/i-cube/I-CUBE-HUAWEI/Middlewares/Third_Party/Huawei/iot_link/os/liteos/base/core\los_task.c ****         }
 887              		.loc 1 291 37 view .LVU286
 888 009e 23F40051 		bic	r1, r3, #8192
 889              	.LBB115:
 890              	.LBB114:
 185:D:/fchai/work/i-cube/I-CUBE-HUAWEI/Middlewares/Third_Party/Huawei/iot_link/os/liteos/include\los_list.h ****     pstNode->pstPrev->pstNext = pstNode->pstNext;
 891              		.loc 2 185 31 view .LVU287
 892 00a2 3460     		str	r4, [r6]
 186:D:/fchai/work/i-cube/I-CUBE-HUAWEI/Middlewares/Third_Party/Huawei/iot_link/os/liteos/include\los_list.h ****     pstNode->pstNext = (LOS_DL_LIST *)NULL;
 893              		.loc 2 186 5 is_stmt 1 view .LVU288
 186:D:/fchai/work/i-cube/I-CUBE-HUAWEI/Middlewares/Third_Party/Huawei/iot_link/os/liteos/include\los_list.h ****     pstNode->pstNext = (LOS_DL_LIST *)NULL;
 894              		.loc 2 186 31 is_stmt 0 view .LVU289
 895 00a4 6660     		str	r6, [r4, #4]
 187:D:/fchai/work/i-cube/I-CUBE-HUAWEI/Middlewares/Third_Party/Huawei/iot_link/os/liteos/include\los_list.h ****     pstNode->pstPrev = (LOS_DL_LIST *)NULL;
 896              		.loc 2 187 5 is_stmt 1 view .LVU290
 897              		.loc 2 188 22 is_stmt 0 view .LVU291
 898 00a6 C0E90A22 		strd	r2, r2, [r0, #40]
 899              	.LBE114:
 900              	.LBE115:
 291:D:/fchai/work/i-cube/I-CUBE-HUAWEI/Middlewares/Third_Party/Huawei/iot_link/os/liteos/base/core\los_task.c ****         }
 901              		.loc 1 291 13 is_stmt 1 view .LVU292
 291:D:/fchai/work/i-cube/I-CUBE-HUAWEI/Middlewares/Third_Party/Huawei/iot_link/os/liteos/base/core\los_task.c ****         }
 902              		.loc 1 291 37 is_stmt 0 view .LVU293
 903 00aa 8180     		strh	r1, [r0, #4]	@ movhi
 904 00ac C6E7     		b	.L46
 905              	.LVL57:
 906              	.L48:
 295:D:/fchai/work/i-cube/I-CUBE-HUAWEI/Middlewares/Third_Party/Huawei/iot_link/os/liteos/base/core\los_task.c ****         }
 907              		.loc 1 295 13 is_stmt 1 view .LVU294
 295:D:/fchai/work/i-cube/I-CUBE-HUAWEI/Middlewares/Third_Party/Huawei/iot_link/os/liteos/base/core\los_task.c ****         }
 908              		.loc 1 295 37 is_stmt 0 view .LVU295
 909 00ae 23F02002 		bic	r2, r3, #32
 910 00b2 8280     		strh	r2, [r0, #4]	@ movhi
 911 00b4 C2E7     		b	.L46
 912              	.LVL58:
 913              	.L60:
 310:D:/fchai/work/i-cube/I-CUBE-HUAWEI/Middlewares/Third_Party/Huawei/iot_link/os/liteos/base/core\los_task.c ****     }
 914              		.loc 1 310 9 is_stmt 1 view .LVU296
 312:D:/fchai/work/i-cube/I-CUBE-HUAWEI/Middlewares/Third_Party/Huawei/iot_link/os/liteos/base/core\los_task.c **** 
 915              		.loc 1 312 1 is_stmt 0 view .LVU297
 916 00b6 BDE8F840 		pop	{r3, r4, r5, r6, r7, lr}
 917              	.LCFI15:
 918              		.cfi_remember_state
ARM GAS  T:\msys\tmp\ccehPeV4.s 			page 37


 919              		.cfi_restore 14
 920              		.cfi_restore 7
 921              		.cfi_restore 6
 922              		.cfi_restore 5
 923              		.cfi_restore 4
 924              		.cfi_restore 3
 925              		.cfi_def_cfa_offset 0
 926              	.LVL59:
 310:D:/fchai/work/i-cube/I-CUBE-HUAWEI/Middlewares/Third_Party/Huawei/iot_link/os/liteos/base/core\los_task.c ****     }
 927              		.loc 1 310 9 view .LVU298
 928 00ba FFF7FEBF 		b	LOS_Schedule
 929              	.LVL60:
 930              	.L58:
 931              	.LCFI16:
 932              		.cfi_restore_state
 272:D:/fchai/work/i-cube/I-CUBE-HUAWEI/Middlewares/Third_Party/Huawei/iot_link/os/liteos/base/core\los_task.c ****             break;
 933              		.loc 1 272 13 is_stmt 1 view .LVU299
 934 00be 0139     		subs	r1, r1, #1
 935 00c0 8163     		str	r1, [r0, #56]
 273:D:/fchai/work/i-cube/I-CUBE-HUAWEI/Middlewares/Third_Party/Huawei/iot_link/os/liteos/base/core\los_task.c ****         }
 936              		.loc 1 273 13 view .LVU300
 308:D:/fchai/work/i-cube/I-CUBE-HUAWEI/Middlewares/Third_Party/Huawei/iot_link/os/liteos/base/core\los_task.c ****     {
 937              		.loc 1 308 5 view .LVU301
 308:D:/fchai/work/i-cube/I-CUBE-HUAWEI/Middlewares/Third_Party/Huawei/iot_link/os/liteos/base/core\los_task.c ****     {
 938              		.loc 1 308 8 is_stmt 0 view .LVU302
 939 00c2 002F     		cmp	r7, #0
 940 00c4 E6D0     		beq	.L41
 941 00c6 F6E7     		b	.L60
 942              	.L62:
 943              		.align	2
 944              	.L61:
 945 00c8 00000000 		.word	g_stTskSortLink
 946              		.cfi_endproc
 947              	.LFE137:
 949              		.section	.rodata.osConvertTskStatus.str1.4,"aMS",%progbits,1
 950              		.align	2
 951              	.LC4:
 952 0000 496D706F 		.ascii	"Impossible\000"
 952      73736962 
 952      6C6500
 953 000b 00       		.align	2
 954              	.LC5:
 955 000c 51756575 		.ascii	"QueuePendTimeOut\000"
 955      6550656E 
 955      6454696D 
 955      654F7574 
 955      00
 956 001d 000000   		.align	2
 957              	.LC6:
 958 0020 52756E6E 		.ascii	"Running\000"
 958      696E6700 
 959              		.align	2
 960              	.LC7:
 961 0028 52656164 		.ascii	"Ready\000"
 961      7900
 962 002e 0000     		.align	2
 963              	.LC8:
ARM GAS  T:\msys\tmp\ccehPeV4.s 			page 38


 964 0030 44656C61 		.ascii	"Delay\000"
 964      7900
 965 0036 0000     		.align	2
 966              	.LC9:
 967 0038 50656E64 		.ascii	"PendTimeOut\000"
 967      54696D65 
 967      4F757400 
 968              		.align	2
 969              	.LC10:
 970 0044 53757370 		.ascii	"Suspend\000"
 970      656E6400 
 971              		.align	2
 972              	.LC11:
 973 004c 50656E64 		.ascii	"Pend\000"
 973      00
 974 0051 000000   		.align	2
 975              	.LC12:
 976 0054 51756575 		.ascii	"QueuePend\000"
 976      6550656E 
 976      6400
 977              		.section	.text.osConvertTskStatus,"ax",%progbits
 978              		.align	1
 979              		.p2align 2,,3
 980              		.global	osConvertTskStatus
 981              		.syntax unified
 982              		.thumb
 983              		.thumb_func
 984              		.fpu fpv4-sp-d16
 986              	osConvertTskStatus:
 987              	.LVL61:
 988              	.LFB138:
 322:D:/fchai/work/i-cube/I-CUBE-HUAWEI/Middlewares/Third_Party/Huawei/iot_link/os/liteos/base/core\los_task.c ****     if (OS_TASK_STATUS_RUNNING & usTaskStatus)
 989              		.loc 1 322 1 is_stmt 1 view -0
 990              		.cfi_startproc
 991              		@ args = 0, pretend = 0, frame = 0
 992              		@ frame_needed = 0, uses_anonymous_args = 0
 993              		@ link register save eliminated.
 323:D:/fchai/work/i-cube/I-CUBE-HUAWEI/Middlewares/Third_Party/Huawei/iot_link/os/liteos/base/core\los_task.c ****     {
 994              		.loc 1 323 5 view .LVU304
 323:D:/fchai/work/i-cube/I-CUBE-HUAWEI/Middlewares/Third_Party/Huawei/iot_link/os/liteos/base/core\los_task.c ****     {
 995              		.loc 1 323 8 is_stmt 0 view .LVU305
 996 0000 C106     		lsls	r1, r0, #27
 997 0002 13D4     		bmi	.L66
 327:D:/fchai/work/i-cube/I-CUBE-HUAWEI/Middlewares/Third_Party/Huawei/iot_link/os/liteos/base/core\los_task.c ****     {
 998              		.loc 1 327 10 is_stmt 1 view .LVU306
 327:D:/fchai/work/i-cube/I-CUBE-HUAWEI/Middlewares/Third_Party/Huawei/iot_link/os/liteos/base/core\los_task.c ****     {
 999              		.loc 1 327 13 is_stmt 0 view .LVU307
 1000 0004 4207     		lsls	r2, r0, #29
 1001 0006 0FD4     		bmi	.L67
 331:D:/fchai/work/i-cube/I-CUBE-HUAWEI/Middlewares/Third_Party/Huawei/iot_link/os/liteos/base/core\los_task.c ****     {
 1002              		.loc 1 331 10 is_stmt 1 view .LVU308
 331:D:/fchai/work/i-cube/I-CUBE-HUAWEI/Middlewares/Third_Party/Huawei/iot_link/os/liteos/base/core\los_task.c ****     {
 1003              		.loc 1 331 13 is_stmt 0 view .LVU309
 1004 0008 8306     		lsls	r3, r0, #26
 1005 000a 19D4     		bmi	.L68
 335:D:/fchai/work/i-cube/I-CUBE-HUAWEI/Middlewares/Third_Party/Huawei/iot_link/os/liteos/base/core\los_task.c ****     {
 1006              		.loc 1 335 10 is_stmt 1 view .LVU310
ARM GAS  T:\msys\tmp\ccehPeV4.s 			page 39


 335:D:/fchai/work/i-cube/I-CUBE-HUAWEI/Middlewares/Third_Party/Huawei/iot_link/os/liteos/base/core\los_task.c ****     {
 1007              		.loc 1 335 13 is_stmt 0 view .LVU311
 1008 000c 0107     		lsls	r1, r0, #28
 1009 000e 0FD4     		bmi	.L73
 344:D:/fchai/work/i-cube/I-CUBE-HUAWEI/Middlewares/Third_Party/Huawei/iot_link/os/liteos/base/core\los_task.c ****     {
 1010              		.loc 1 344 10 is_stmt 1 view .LVU312
 344:D:/fchai/work/i-cube/I-CUBE-HUAWEI/Middlewares/Third_Party/Huawei/iot_link/os/liteos/base/core\los_task.c ****     {
 1011              		.loc 1 344 13 is_stmt 0 view .LVU313
 1012 0010 8207     		lsls	r2, r0, #30
 1013 0012 19D4     		bmi	.L70
 1014              	.LVL62:
 1015              	.LBB118:
 1016              	.LBI118:
 321:D:/fchai/work/i-cube/I-CUBE-HUAWEI/Middlewares/Third_Party/Huawei/iot_link/os/liteos/base/core\los_task.c **** {
 1017              		.loc 1 321 31 is_stmt 1 view .LVU314
 1018              	.LBB119:
 348:D:/fchai/work/i-cube/I-CUBE-HUAWEI/Middlewares/Third_Party/Huawei/iot_link/os/liteos/base/core\los_task.c ****     {
 1019              		.loc 1 348 10 view .LVU315
 348:D:/fchai/work/i-cube/I-CUBE-HUAWEI/Middlewares/Third_Party/Huawei/iot_link/os/liteos/base/core\los_task.c ****     {
 1020              		.loc 1 348 13 is_stmt 0 view .LVU316
 1021 0014 8304     		lsls	r3, r0, #18
 1022 0016 15D5     		bpl	.L71
 350:D:/fchai/work/i-cube/I-CUBE-HUAWEI/Middlewares/Third_Party/Huawei/iot_link/os/liteos/base/core\los_task.c ****         {
 1023              		.loc 1 350 9 is_stmt 1 view .LVU317
 355:D:/fchai/work/i-cube/I-CUBE-HUAWEI/Middlewares/Third_Party/Huawei/iot_link/os/liteos/base/core\los_task.c ****     }
 1024              		.loc 1 355 16 is_stmt 0 view .LVU318
 1025 0018 0C4B     		ldr	r3, .L74
 1026 001a 0D4A     		ldr	r2, .L74+4
 350:D:/fchai/work/i-cube/I-CUBE-HUAWEI/Middlewares/Third_Party/Huawei/iot_link/os/liteos/base/core\los_task.c ****         {
 1027              		.loc 1 350 12 view .LVU319
 1028 001c 10F0400F 		tst	r0, #64
 355:D:/fchai/work/i-cube/I-CUBE-HUAWEI/Middlewares/Third_Party/Huawei/iot_link/os/liteos/base/core\los_task.c ****     }
 1029              		.loc 1 355 16 view .LVU320
 1030 0020 14BF     		ite	ne
 1031 0022 1846     		movne	r0, r3
 1032              	.LVL63:
 355:D:/fchai/work/i-cube/I-CUBE-HUAWEI/Middlewares/Third_Party/Huawei/iot_link/os/liteos/base/core\los_task.c ****     }
 1033              		.loc 1 355 16 view .LVU321
 1034 0024 1046     		moveq	r0, r2
 1035 0026 7047     		bx	lr
 1036              	.LVL64:
 1037              	.L67:
 355:D:/fchai/work/i-cube/I-CUBE-HUAWEI/Middlewares/Third_Party/Huawei/iot_link/os/liteos/base/core\los_task.c ****     }
 1038              		.loc 1 355 16 view .LVU322
 1039              	.LBE119:
 1040              	.LBE118:
 329:D:/fchai/work/i-cube/I-CUBE-HUAWEI/Middlewares/Third_Party/Huawei/iot_link/os/liteos/base/core\los_task.c ****     }
 1041              		.loc 1 329 16 view .LVU323
 1042 0028 0A48     		ldr	r0, .L74+8
 1043              	.LVL65:
 329:D:/fchai/work/i-cube/I-CUBE-HUAWEI/Middlewares/Third_Party/Huawei/iot_link/os/liteos/base/core\los_task.c ****     }
 1044              		.loc 1 329 16 view .LVU324
 1045 002a 7047     		bx	lr
 1046              	.LVL66:
 1047              	.L66:
 325:D:/fchai/work/i-cube/I-CUBE-HUAWEI/Middlewares/Third_Party/Huawei/iot_link/os/liteos/base/core\los_task.c ****     }
 1048              		.loc 1 325 16 view .LVU325
ARM GAS  T:\msys\tmp\ccehPeV4.s 			page 40


 1049 002c 0A48     		ldr	r0, .L74+12
 1050              	.LVL67:
 325:D:/fchai/work/i-cube/I-CUBE-HUAWEI/Middlewares/Third_Party/Huawei/iot_link/os/liteos/base/core\los_task.c ****     }
 1051              		.loc 1 325 16 view .LVU326
 1052 002e 7047     		bx	lr
 1053              	.LVL68:
 1054              	.L73:
 337:D:/fchai/work/i-cube/I-CUBE-HUAWEI/Middlewares/Third_Party/Huawei/iot_link/os/liteos/base/core\los_task.c ****         {
 1055              		.loc 1 337 9 is_stmt 1 view .LVU327
 342:D:/fchai/work/i-cube/I-CUBE-HUAWEI/Middlewares/Third_Party/Huawei/iot_link/os/liteos/base/core\los_task.c ****     }
 1056              		.loc 1 342 16 is_stmt 0 view .LVU328
 1057 0030 0A4B     		ldr	r3, .L74+16
 1058 0032 0B4A     		ldr	r2, .L74+20
 337:D:/fchai/work/i-cube/I-CUBE-HUAWEI/Middlewares/Third_Party/Huawei/iot_link/os/liteos/base/core\los_task.c ****         {
 1059              		.loc 1 337 12 view .LVU329
 1060 0034 10F0400F 		tst	r0, #64
 342:D:/fchai/work/i-cube/I-CUBE-HUAWEI/Middlewares/Third_Party/Huawei/iot_link/os/liteos/base/core\los_task.c ****     }
 1061              		.loc 1 342 16 view .LVU330
 1062 0038 14BF     		ite	ne
 1063 003a 1846     		movne	r0, r3
 1064              	.LVL69:
 342:D:/fchai/work/i-cube/I-CUBE-HUAWEI/Middlewares/Third_Party/Huawei/iot_link/os/liteos/base/core\los_task.c ****     }
 1065              		.loc 1 342 16 view .LVU331
 1066 003c 1046     		moveq	r0, r2
 1067 003e 7047     		bx	lr
 1068              	.LVL70:
 1069              	.L68:
 333:D:/fchai/work/i-cube/I-CUBE-HUAWEI/Middlewares/Third_Party/Huawei/iot_link/os/liteos/base/core\los_task.c ****     }
 1070              		.loc 1 333 16 view .LVU332
 1071 0040 0848     		ldr	r0, .L74+24
 1072              	.LVL71:
 333:D:/fchai/work/i-cube/I-CUBE-HUAWEI/Middlewares/Third_Party/Huawei/iot_link/os/liteos/base/core\los_task.c ****     }
 1073              		.loc 1 333 16 view .LVU333
 1074 0042 7047     		bx	lr
 1075              	.LVL72:
 1076              	.L71:
 1077              	.LBB121:
 1078              	.LBB120:
 358:D:/fchai/work/i-cube/I-CUBE-HUAWEI/Middlewares/Third_Party/Huawei/iot_link/os/liteos/base/core\los_task.c **** }
 1079              		.loc 1 358 12 view .LVU334
 1080 0044 0848     		ldr	r0, .L74+28
 1081              	.LVL73:
 358:D:/fchai/work/i-cube/I-CUBE-HUAWEI/Middlewares/Third_Party/Huawei/iot_link/os/liteos/base/core\los_task.c **** }
 1082              		.loc 1 358 12 view .LVU335
 1083              	.LBE120:
 1084              	.LBE121:
 359:D:/fchai/work/i-cube/I-CUBE-HUAWEI/Middlewares/Third_Party/Huawei/iot_link/os/liteos/base/core\los_task.c **** 
 1085              		.loc 1 359 1 view .LVU336
 1086 0046 7047     		bx	lr
 1087              	.LVL74:
 1088              	.L70:
 346:D:/fchai/work/i-cube/I-CUBE-HUAWEI/Middlewares/Third_Party/Huawei/iot_link/os/liteos/base/core\los_task.c ****     }
 1089              		.loc 1 346 16 view .LVU337
 1090 0048 0848     		ldr	r0, .L74+32
 1091              	.LVL75:
 346:D:/fchai/work/i-cube/I-CUBE-HUAWEI/Middlewares/Third_Party/Huawei/iot_link/os/liteos/base/core\los_task.c ****     }
 1092              		.loc 1 346 16 view .LVU338
ARM GAS  T:\msys\tmp\ccehPeV4.s 			page 41


 1093 004a 7047     		bx	lr
 1094              	.L75:
 1095              		.align	2
 1096              	.L74:
 1097 004c 0C000000 		.word	.LC5
 1098 0050 54000000 		.word	.LC12
 1099 0054 28000000 		.word	.LC7
 1100 0058 20000000 		.word	.LC6
 1101 005c 38000000 		.word	.LC9
 1102 0060 4C000000 		.word	.LC11
 1103 0064 30000000 		.word	.LC8
 1104 0068 00000000 		.word	.LC4
 1105 006c 44000000 		.word	.LC10
 1106              		.cfi_endproc
 1107              	.LFE138:
 1109              		.section	.rodata.osGetTaskWaterLine.str1.4,"aMS",%progbits,1
 1110              		.align	2
 1111              	.LC13:
 1112 0000 43555252 		.ascii	"CURRENT task %s stack overflow!\012\000"
 1112      454E5420 
 1112      7461736B 
 1112      20257320 
 1112      73746163 
 1113              		.section	.text.osGetTaskWaterLine,"ax",%progbits
 1114              		.align	1
 1115              		.p2align 2,,3
 1116              		.global	osGetTaskWaterLine
 1117              		.syntax unified
 1118              		.thumb
 1119              		.thumb_func
 1120              		.fpu fpv4-sp-d16
 1122              	osGetTaskWaterLine:
 1123              	.LVL76:
 1124              	.LFB139:
 362:D:/fchai/work/i-cube/I-CUBE-HUAWEI/Middlewares/Third_Party/Huawei/iot_link/os/liteos/base/core\los_task.c ****     UINT32 *puwStack;
 1125              		.loc 1 362 1 is_stmt 1 view -0
 1126              		.cfi_startproc
 1127              		@ args = 0, pretend = 0, frame = 0
 1128              		@ frame_needed = 0, uses_anonymous_args = 0
 363:D:/fchai/work/i-cube/I-CUBE-HUAWEI/Middlewares/Third_Party/Huawei/iot_link/os/liteos/base/core\los_task.c ****     UINT32 uwPeakUsed;
 1129              		.loc 1 363 5 view .LVU340
 364:D:/fchai/work/i-cube/I-CUBE-HUAWEI/Middlewares/Third_Party/Huawei/iot_link/os/liteos/base/core\los_task.c ****     LOS_TASK_CB * pstTaskCB = OS_TCB_FROM_TID(uwTaskID);
 1130              		.loc 1 364 5 view .LVU341
 365:D:/fchai/work/i-cube/I-CUBE-HUAWEI/Middlewares/Third_Party/Huawei/iot_link/os/liteos/base/core\los_task.c **** 
 1131              		.loc 1 365 5 view .LVU342
 365:D:/fchai/work/i-cube/I-CUBE-HUAWEI/Middlewares/Third_Party/Huawei/iot_link/os/liteos/base/core\los_task.c **** 
 1132              		.loc 1 365 31 is_stmt 0 view .LVU343
 1133 0000 134A     		ldr	r2, .L86
 362:D:/fchai/work/i-cube/I-CUBE-HUAWEI/Middlewares/Third_Party/Huawei/iot_link/os/liteos/base/core\los_task.c ****     UINT32 *puwStack;
 1134              		.loc 1 362 1 view .LVU344
 1135 0002 38B5     		push	{r3, r4, r5, lr}
 1136              	.LCFI17:
 1137              		.cfi_def_cfa_offset 16
 1138              		.cfi_offset 3, -16
 1139              		.cfi_offset 4, -12
 1140              		.cfi_offset 5, -8
 1141              		.cfi_offset 14, -4
ARM GAS  T:\msys\tmp\ccehPeV4.s 			page 42


 365:D:/fchai/work/i-cube/I-CUBE-HUAWEI/Middlewares/Third_Party/Huawei/iot_link/os/liteos/base/core\los_task.c **** 
 1142              		.loc 1 365 19 view .LVU345
 1143 0004 1268     		ldr	r2, [r2]
 365:D:/fchai/work/i-cube/I-CUBE-HUAWEI/Middlewares/Third_Party/Huawei/iot_link/os/liteos/base/core\los_task.c **** 
 1144              		.loc 1 365 31 view .LVU346
 1145 0006 5423     		movs	r3, #84
 1146 0008 03FB00F0 		mul	r0, r3, r0
 1147              	.LVL77:
 365:D:/fchai/work/i-cube/I-CUBE-HUAWEI/Middlewares/Third_Party/Huawei/iot_link/os/liteos/base/core\los_task.c **** 
 1148              		.loc 1 365 19 view .LVU347
 1149 000c 1518     		adds	r5, r2, r0
 1150              	.LVL78:
 367:D:/fchai/work/i-cube/I-CUBE-HUAWEI/Middlewares/Third_Party/Huawei/iot_link/os/liteos/base/core\los_task.c ****     {
 1151              		.loc 1 367 5 is_stmt 1 view .LVU348
 367:D:/fchai/work/i-cube/I-CUBE-HUAWEI/Middlewares/Third_Party/Huawei/iot_link/os/liteos/base/core\los_task.c ****     {
 1152              		.loc 1 367 51 is_stmt 0 view .LVU349
 1153 000e EC68     		ldr	r4, [r5, #12]
 367:D:/fchai/work/i-cube/I-CUBE-HUAWEI/Middlewares/Third_Party/Huawei/iot_link/os/liteos/base/core\los_task.c ****     {
 1154              		.loc 1 367 8 view .LVU350
 1155 0010 2368     		ldr	r3, [r4]
 1156 0012 B3F1CC3F 		cmp	r3, #-858993460
 1157 0016 11D1     		bne	.L77
 369:D:/fchai/work/i-cube/I-CUBE-HUAWEI/Middlewares/Third_Party/Huawei/iot_link/os/liteos/base/core\los_task.c ****         while ((puwStack < (UINT32 *)pstTaskCB->pStackPointer) && (*puwStack == 0xCACACACA))
 1158              		.loc 1 369 9 is_stmt 1 view .LVU351
 370:D:/fchai/work/i-cube/I-CUBE-HUAWEI/Middlewares/Third_Party/Huawei/iot_link/os/liteos/base/core\los_task.c ****         {
 1159              		.loc 1 370 47 is_stmt 0 view .LVU352
 1160 0018 1158     		ldr	r1, [r2, r0]
 369:D:/fchai/work/i-cube/I-CUBE-HUAWEI/Middlewares/Third_Party/Huawei/iot_link/os/liteos/base/core\los_task.c ****         while ((puwStack < (UINT32 *)pstTaskCB->pStackPointer) && (*puwStack == 0xCACACACA))
 1161              		.loc 1 369 55 view .LVU353
 1162 001a 201D     		adds	r0, r4, #4
 370:D:/fchai/work/i-cube/I-CUBE-HUAWEI/Middlewares/Third_Party/Huawei/iot_link/os/liteos/base/core\los_task.c ****         {
 1163              		.loc 1 370 15 view .LVU354
 1164 001c 8842     		cmp	r0, r1
 369:D:/fchai/work/i-cube/I-CUBE-HUAWEI/Middlewares/Third_Party/Huawei/iot_link/os/liteos/base/core\los_task.c ****         while ((puwStack < (UINT32 *)pstTaskCB->pStackPointer) && (*puwStack == 0xCACACACA))
 1165              		.loc 1 369 18 view .LVU355
 1166 001e 0346     		mov	r3, r0
 1167              	.LVL79:
 370:D:/fchai/work/i-cube/I-CUBE-HUAWEI/Middlewares/Third_Party/Huawei/iot_link/os/liteos/base/core\los_task.c ****         {
 1168              		.loc 1 370 9 is_stmt 1 view .LVU356
 370:D:/fchai/work/i-cube/I-CUBE-HUAWEI/Middlewares/Third_Party/Huawei/iot_link/os/liteos/base/core\los_task.c ****         {
 1169              		.loc 1 370 15 view .LVU357
 1170 0020 03D3     		bcc	.L78
 1171 0022 07E0     		b	.L79
 1172              	.LVL80:
 1173              	.L80:
 372:D:/fchai/work/i-cube/I-CUBE-HUAWEI/Middlewares/Third_Party/Huawei/iot_link/os/liteos/base/core\los_task.c ****         }
 1174              		.loc 1 372 22 is_stmt 0 view .LVU358
 1175 0024 0433     		adds	r3, r3, #4
 1176              	.LVL81:
 370:D:/fchai/work/i-cube/I-CUBE-HUAWEI/Middlewares/Third_Party/Huawei/iot_link/os/liteos/base/core\los_task.c ****         {
 1177              		.loc 1 370 15 is_stmt 1 view .LVU359
 1178 0026 8B42     		cmp	r3, r1
 1179 0028 03D2     		bcs	.L85
 1180              	.L78:
 372:D:/fchai/work/i-cube/I-CUBE-HUAWEI/Middlewares/Third_Party/Huawei/iot_link/os/liteos/base/core\los_task.c ****         }
 1181              		.loc 1 372 13 discriminator 1 view .LVU360
 370:D:/fchai/work/i-cube/I-CUBE-HUAWEI/Middlewares/Third_Party/Huawei/iot_link/os/liteos/base/core\los_task.c ****         {
ARM GAS  T:\msys\tmp\ccehPeV4.s 			page 43


 1182              		.loc 1 370 64 is_stmt 0 discriminator 1 view .LVU361
 1183 002a 1A68     		ldr	r2, [r3]
 1184 002c B2F1CA3F 		cmp	r2, #-892679478
 1185 0030 F8D0     		beq	.L80
 1186              	.L85:
 370:D:/fchai/work/i-cube/I-CUBE-HUAWEI/Middlewares/Third_Party/Huawei/iot_link/os/liteos/base/core\los_task.c ****         {
 1187              		.loc 1 370 64 discriminator 1 view .LVU362
 1188 0032 1846     		mov	r0, r3
 1189              	.LVL82:
 1190              	.L79:
 374:D:/fchai/work/i-cube/I-CUBE-HUAWEI/Middlewares/Third_Party/Huawei/iot_link/os/liteos/base/core\los_task.c ****     }
 1191              		.loc 1 374 9 is_stmt 1 view .LVU363
 374:D:/fchai/work/i-cube/I-CUBE-HUAWEI/Middlewares/Third_Party/Huawei/iot_link/os/liteos/base/core\los_task.c ****     }
 1192              		.loc 1 374 20 is_stmt 0 view .LVU364
 1193 0034 AB68     		ldr	r3, [r5, #8]
 1194 0036 1C44     		add	r4, r4, r3
 1195 0038 201A     		subs	r0, r4, r0
 1196              	.LVL83:
 382:D:/fchai/work/i-cube/I-CUBE-HUAWEI/Middlewares/Third_Party/Huawei/iot_link/os/liteos/base/core\los_task.c **** 
 1197              		.loc 1 382 1 view .LVU365
 1198 003a 38BD     		pop	{r3, r4, r5, pc}
 1199              	.LVL84:
 1200              	.L77:
 378:D:/fchai/work/i-cube/I-CUBE-HUAWEI/Middlewares/Third_Party/Huawei/iot_link/os/liteos/base/core\los_task.c ****         uwPeakUsed = 0xFFFFFFFF;
 1201              		.loc 1 378 9 is_stmt 1 view .LVU366
 378:D:/fchai/work/i-cube/I-CUBE-HUAWEI/Middlewares/Third_Party/Huawei/iot_link/os/liteos/base/core\los_task.c ****         uwPeakUsed = 0xFFFFFFFF;
 1202              		.loc 1 378 9 view .LVU367
 1203 003c 0548     		ldr	r0, .L86+4
 1204 003e FFF7FEFF 		bl	printf
 1205              	.LVL85:
 1206 0042 696A     		ldr	r1, [r5, #36]
 1207 0044 0448     		ldr	r0, .L86+8
 1208 0046 FFF7FEFF 		bl	printf
 1209              	.LVL86:
 378:D:/fchai/work/i-cube/I-CUBE-HUAWEI/Middlewares/Third_Party/Huawei/iot_link/os/liteos/base/core\los_task.c ****         uwPeakUsed = 0xFFFFFFFF;
 1210              		.loc 1 378 9 view .LVU368
 379:D:/fchai/work/i-cube/I-CUBE-HUAWEI/Middlewares/Third_Party/Huawei/iot_link/os/liteos/base/core\los_task.c ****     }
 1211              		.loc 1 379 9 view .LVU369
 379:D:/fchai/work/i-cube/I-CUBE-HUAWEI/Middlewares/Third_Party/Huawei/iot_link/os/liteos/base/core\los_task.c ****     }
 1212              		.loc 1 379 20 is_stmt 0 view .LVU370
 1213 004a 4FF0FF30 		mov	r0, #-1
 381:D:/fchai/work/i-cube/I-CUBE-HUAWEI/Middlewares/Third_Party/Huawei/iot_link/os/liteos/base/core\los_task.c **** }
 1214              		.loc 1 381 5 is_stmt 1 view .LVU371
 382:D:/fchai/work/i-cube/I-CUBE-HUAWEI/Middlewares/Third_Party/Huawei/iot_link/os/liteos/base/core\los_task.c **** 
 1215              		.loc 1 382 1 is_stmt 0 view .LVU372
 1216 004e 38BD     		pop	{r3, r4, r5, pc}
 1217              	.LVL87:
 1218              	.L87:
 382:D:/fchai/work/i-cube/I-CUBE-HUAWEI/Middlewares/Third_Party/Huawei/iot_link/os/liteos/base/core\los_task.c **** 
 1219              		.loc 1 382 1 view .LVU373
 1220              		.align	2
 1221              	.L86:
 1222 0050 00000000 		.word	g_pstTaskCBArray
 1223 0054 00000000 		.word	.LC0
 1224 0058 00000000 		.word	.LC13
 1225              		.cfi_endproc
 1226              	.LFE139:
ARM GAS  T:\msys\tmp\ccehPeV4.s 			page 44


 1228              		.section	.rodata.osGetAllTskInfo.str1.4,"aMS",%progbits,1
 1229              		.align	2
 1230              	.LC14:
 1231 0000 0D0A4E61 		.ascii	"\015\012Name            TID    Priority   Status   "
 1231      6D652020 
 1231      20202020 
 1231      20202020 
 1231      20205449 
 1232 002d 20202020 		.ascii	"    StackSize    WaterLine    StackPoint  TopOfStac"
 1232      53746163 
 1232      6B53697A 
 1232      65202020 
 1232      20576174 
 1233 0060 6B202020 		.ascii	"k   EventMask  SemID\000"
 1233      4576656E 
 1233      744D6173 
 1233      6B202053 
 1233      656D4944 
 1234 0075 000000   		.align	2
 1235              	.LC15:
 1236 0078 0A0D00   		.ascii	"\012\015\000"
 1237 007b 00       		.align	2
 1238              	.LC16:
 1239 007c 2D2D2D2D 		.ascii	"----            ---    --------   --------     ----"
 1239      20202020 
 1239      20202020 
 1239      20202020 
 1239      2D2D2D20 
 1240 00af 2D2D2D2D 		.ascii	"-----    ----------   ----------  ----------   ----"
 1240      2D202020 
 1240      202D2D2D 
 1240      2D2D2D2D 
 1240      2D2D2D20 
 1241 00e2 2D2D2D2D 		.ascii	"-----  -----\000"
 1241      2D20202D 
 1241      2D2D2D2D 
 1241      00
 1242 00ef 00       		.align	2
 1243              	.LC17:
 1244 00f0 252D3136 		.ascii	"%-16s0x%-5x%-11d%-13s0x%-11x0x%-11x0x%-10x0x%-11x0x"
 1244      73307825 
 1244      2D357825 
 1244      2D313164 
 1244      252D3133 
 1245 0123 252D3978 		.ascii	"%-9x\000"
 1245      00
 1246              		.align	2
 1247              	.LC18:
 1248 0128 3078252D 		.ascii	"0x%-7x\000"
 1248      377800
 1249 012f 00       		.align	2
 1250              	.LC19:
 1251 0130 0D00     		.ascii	"\015\000"
 1252              		.section	.text.osGetAllTskInfo,"ax",%progbits
 1253              		.align	1
 1254              		.p2align 2,,3
 1255              		.global	osGetAllTskInfo
ARM GAS  T:\msys\tmp\ccehPeV4.s 			page 45


 1256              		.syntax unified
 1257              		.thumb
 1258              		.thumb_func
 1259              		.fpu fpv4-sp-d16
 1261              	osGetAllTskInfo:
 1262              	.LFB140:
 392:D:/fchai/work/i-cube/I-CUBE-HUAWEI/Middlewares/Third_Party/Huawei/iot_link/os/liteos/base/core\los_task.c ****     LOS_TASK_CB *pstTaskCB;
 1263              		.loc 1 392 1 is_stmt 1 view -0
 1264              		.cfi_startproc
 1265              		@ args = 0, pretend = 0, frame = 16
 1266              		@ frame_needed = 0, uses_anonymous_args = 0
 393:D:/fchai/work/i-cube/I-CUBE-HUAWEI/Middlewares/Third_Party/Huawei/iot_link/os/liteos/base/core\los_task.c ****     UINT32       uwLoop;
 1267              		.loc 1 393 5 view .LVU375
 394:D:/fchai/work/i-cube/I-CUBE-HUAWEI/Middlewares/Third_Party/Huawei/iot_link/os/liteos/base/core\los_task.c **** #if (LOSCFG_BASE_CORE_CPUP == YES)
 1268              		.loc 1 394 5 view .LVU376
 436:D:/fchai/work/i-cube/I-CUBE-HUAWEI/Middlewares/Third_Party/Huawei/iot_link/os/liteos/base/core\los_task.c **** #if (LOSCFG_BASE_CORE_CPUP == YES)
 1269              		.loc 1 436 5 view .LVU377
 392:D:/fchai/work/i-cube/I-CUBE-HUAWEI/Middlewares/Third_Party/Huawei/iot_link/os/liteos/base/core\los_task.c ****     LOS_TASK_CB *pstTaskCB;
 1270              		.loc 1 392 1 is_stmt 0 view .LVU378
 1271 0000 2DE9F04F 		push	{r4, r5, r6, r7, r8, r9, r10, fp, lr}
 1272              	.LCFI18:
 1273              		.cfi_def_cfa_offset 36
 1274              		.cfi_offset 4, -36
 1275              		.cfi_offset 5, -32
 1276              		.cfi_offset 6, -28
 1277              		.cfi_offset 7, -24
 1278              		.cfi_offset 8, -20
 1279              		.cfi_offset 9, -16
 1280              		.cfi_offset 10, -12
 1281              		.cfi_offset 11, -8
 1282              		.cfi_offset 14, -4
 436:D:/fchai/work/i-cube/I-CUBE-HUAWEI/Middlewares/Third_Party/Huawei/iot_link/os/liteos/base/core\los_task.c **** #if (LOSCFG_BASE_CORE_CPUP == YES)
 1283              		.loc 1 436 5 view .LVU379
 1284 0004 2D48     		ldr	r0, .L100
 447:D:/fchai/work/i-cube/I-CUBE-HUAWEI/Middlewares/Third_Party/Huawei/iot_link/os/liteos/base/core\los_task.c ****     {
 1285              		.loc 1 447 29 view .LVU380
 1286 0006 DFF8C890 		ldr	r9, .L100+20
 392:D:/fchai/work/i-cube/I-CUBE-HUAWEI/Middlewares/Third_Party/Huawei/iot_link/os/liteos/base/core\los_task.c ****     LOS_TASK_CB *pstTaskCB;
 1287              		.loc 1 392 1 view .LVU381
 1288 000a 8BB0     		sub	sp, sp, #44
 1289              	.LCFI19:
 1290              		.cfi_def_cfa_offset 80
 436:D:/fchai/work/i-cube/I-CUBE-HUAWEI/Middlewares/Third_Party/Huawei/iot_link/os/liteos/base/core\los_task.c **** #if (LOSCFG_BASE_CORE_CPUP == YES)
 1291              		.loc 1 436 5 view .LVU382
 1292 000c FFF7FEFF 		bl	printf
 1293              	.LVL88:
 440:D:/fchai/work/i-cube/I-CUBE-HUAWEI/Middlewares/Third_Party/Huawei/iot_link/os/liteos/base/core\los_task.c ****     PRINTK("----            ---    --------   --------     ---------    ----------   ----------  --
 1294              		.loc 1 440 5 is_stmt 1 view .LVU383
 1295 0010 2B48     		ldr	r0, .L100+4
 1296 0012 FFF7FEFF 		bl	printf
 1297              	.LVL89:
 441:D:/fchai/work/i-cube/I-CUBE-HUAWEI/Middlewares/Third_Party/Huawei/iot_link/os/liteos/base/core\los_task.c **** #if (LOSCFG_BASE_CORE_CPUP == YES)
 1298              		.loc 1 441 5 view .LVU384
 1299 0016 2B48     		ldr	r0, .L100+8
 1300 0018 FFF7FEFF 		bl	printf
 1301              	.LVL90:
 445:D:/fchai/work/i-cube/I-CUBE-HUAWEI/Middlewares/Third_Party/Huawei/iot_link/os/liteos/base/core\los_task.c **** 
ARM GAS  T:\msys\tmp\ccehPeV4.s 			page 46


 1302              		.loc 1 445 5 view .LVU385
 1303 001c 2848     		ldr	r0, .L100+4
 1304 001e FFF7FEFF 		bl	printf
 1305              	.LVL91:
 447:D:/fchai/work/i-cube/I-CUBE-HUAWEI/Middlewares/Third_Party/Huawei/iot_link/os/liteos/base/core\los_task.c ****     {
 1306              		.loc 1 447 5 view .LVU386
 447:D:/fchai/work/i-cube/I-CUBE-HUAWEI/Middlewares/Third_Party/Huawei/iot_link/os/liteos/base/core\los_task.c ****     {
 1307              		.loc 1 447 22 view .LVU387
 447:D:/fchai/work/i-cube/I-CUBE-HUAWEI/Middlewares/Third_Party/Huawei/iot_link/os/liteos/base/core\los_task.c ****     {
 1308              		.loc 1 447 5 is_stmt 0 view .LVU388
 1309 0022 D9F80030 		ldr	r3, [r9]
 1310 0026 002B     		cmp	r3, #0
 1311 0028 43D0     		beq	.L89
 1312 002a 0025     		movs	r5, #0
 1313 002c DFF8A4A0 		ldr	r10, .L100+24
 474:D:/fchai/work/i-cube/I-CUBE-HUAWEI/Middlewares/Third_Party/Huawei/iot_link/os/liteos/base/core\los_task.c ****         }
 1314              		.loc 1 474 13 view .LVU389
 1315 0030 DFF8A4B0 		ldr	fp, .L100+28
 447:D:/fchai/work/i-cube/I-CUBE-HUAWEI/Middlewares/Third_Party/Huawei/iot_link/os/liteos/base/core\los_task.c ****     {
 1316              		.loc 1 447 17 view .LVU390
 1317 0034 2E46     		mov	r6, r5
 1318 0036 0CE0     		b	.L93
 1319              	.LVL92:
 1320              	.L99:
 470:D:/fchai/work/i-cube/I-CUBE-HUAWEI/Middlewares/Third_Party/Huawei/iot_link/os/liteos/base/core\los_task.c ****         }
 1321              		.loc 1 470 13 view .LVU391
 1322 0038 D988     		ldrh	r1, [r3, #6]
 1323 003a FFF7FEFF 		bl	printf
 1324              	.LVL93:
 1325              	.L92:
 488:D:/fchai/work/i-cube/I-CUBE-HUAWEI/Middlewares/Third_Party/Huawei/iot_link/os/liteos/base/core\los_task.c ****     }
 1326              		.loc 1 488 9 is_stmt 1 view .LVU392
 1327 003e 2248     		ldr	r0, .L100+12
 1328 0040 FFF7FEFF 		bl	puts
 1329              	.LVL94:
 1330              	.L90:
 447:D:/fchai/work/i-cube/I-CUBE-HUAWEI/Middlewares/Third_Party/Huawei/iot_link/os/liteos/base/core\los_task.c ****     {
 1331              		.loc 1 447 46 discriminator 2 view .LVU393
 447:D:/fchai/work/i-cube/I-CUBE-HUAWEI/Middlewares/Third_Party/Huawei/iot_link/os/liteos/base/core\los_task.c ****     {
 1332              		.loc 1 447 5 is_stmt 0 discriminator 2 view .LVU394
 1333 0044 D9F80030 		ldr	r3, [r9]
 447:D:/fchai/work/i-cube/I-CUBE-HUAWEI/Middlewares/Third_Party/Huawei/iot_link/os/liteos/base/core\los_task.c ****     {
 1334              		.loc 1 447 52 discriminator 2 view .LVU395
 1335 0048 0136     		adds	r6, r6, #1
 1336              	.LVL95:
 447:D:/fchai/work/i-cube/I-CUBE-HUAWEI/Middlewares/Third_Party/Huawei/iot_link/os/liteos/base/core\los_task.c ****     {
 1337              		.loc 1 447 22 is_stmt 1 discriminator 2 view .LVU396
 447:D:/fchai/work/i-cube/I-CUBE-HUAWEI/Middlewares/Third_Party/Huawei/iot_link/os/liteos/base/core\los_task.c ****     {
 1338              		.loc 1 447 5 is_stmt 0 discriminator 2 view .LVU397
 1339 004a B342     		cmp	r3, r6
 1340 004c 05F15405 		add	r5, r5, #84
 1341 0050 2FD9     		bls	.L89
 1342              	.LVL96:
 1343              	.L93:
 450:D:/fchai/work/i-cube/I-CUBE-HUAWEI/Middlewares/Third_Party/Huawei/iot_link/os/liteos/base/core\los_task.c ****         if (pstTaskCB->usTaskStatus & OS_TASK_STATUS_UNUSED)
 1344              		.loc 1 450 9 is_stmt 1 view .LVU398
 457:D:/fchai/work/i-cube/I-CUBE-HUAWEI/Middlewares/Third_Party/Huawei/iot_link/os/liteos/base/core\los_task.c ****                           pstTaskCB->pcTaskName,
ARM GAS  T:\msys\tmp\ccehPeV4.s 			page 47


 1345              		.loc 1 457 9 view .LVU399
 450:D:/fchai/work/i-cube/I-CUBE-HUAWEI/Middlewares/Third_Party/Huawei/iot_link/os/liteos/base/core\los_task.c ****         if (pstTaskCB->usTaskStatus & OS_TASK_STATUS_UNUSED)
 1346              		.loc 1 450 19 is_stmt 0 view .LVU400
 1347 0052 DAF80070 		ldr	r7, [r10]
 1348 0056 7C19     		adds	r4, r7, r5
 1349              	.LVL97:
 451:D:/fchai/work/i-cube/I-CUBE-HUAWEI/Middlewares/Third_Party/Huawei/iot_link/os/liteos/base/core\los_task.c ****         {
 1350              		.loc 1 451 9 is_stmt 1 view .LVU401
 451:D:/fchai/work/i-cube/I-CUBE-HUAWEI/Middlewares/Third_Party/Huawei/iot_link/os/liteos/base/core\los_task.c ****         {
 1351              		.loc 1 451 22 is_stmt 0 view .LVU402
 1352 0058 A088     		ldrh	r0, [r4, #4]
 451:D:/fchai/work/i-cube/I-CUBE-HUAWEI/Middlewares/Third_Party/Huawei/iot_link/os/liteos/base/core\los_task.c ****         {
 1353              		.loc 1 451 12 view .LVU403
 1354 005a C307     		lsls	r3, r0, #31
 1355 005c F2D4     		bmi	.L90
 457:D:/fchai/work/i-cube/I-CUBE-HUAWEI/Middlewares/Third_Party/Huawei/iot_link/os/liteos/base/core\los_task.c ****                           pstTaskCB->pcTaskName,
 1356              		.loc 1 457 9 view .LVU404
 1357 005e 2269     		ldr	r2, [r4, #16]
 1358 0060 616A     		ldr	r1, [r4, #36]
 1359 0062 E388     		ldrh	r3, [r4, #6]
 1360 0064 0991     		str	r1, [sp, #36]
 1361 0066 0692     		str	r2, [sp, #24]
 1362 0068 0893     		str	r3, [sp, #32]
 1363 006a FFF7FEFF 		bl	osConvertTskStatus
 1364              	.LVL98:
 1365 006e 069A     		ldr	r2, [sp, #24]
 1366 0070 A368     		ldr	r3, [r4, #8]
 1367 0072 0792     		str	r2, [sp, #28]
 1368 0074 8046     		mov	r8, r0
 1369 0076 1046     		mov	r0, r2
 1370 0078 0693     		str	r3, [sp, #24]
 1371 007a FFF7FEFF 		bl	osGetTaskWaterLine
 1372              	.LVL99:
 1373 007e A26C     		ldr	r2, [r4, #72]
 1374 0080 0592     		str	r2, [sp, #20]
 1375 0082 E268     		ldr	r2, [r4, #12]
 1376 0084 0492     		str	r2, [sp, #16]
 1377 0086 7F59     		ldr	r7, [r7, r5]
 1378 0088 0290     		str	r0, [sp, #8]
 1379 008a 0698     		ldr	r0, [sp, #24]
 1380 008c 0190     		str	r0, [sp, #4]
 1381 008e DDE90723 		ldrd	r2, r3, [sp, #28]
 1382 0092 0999     		ldr	r1, [sp, #36]
 1383 0094 0D48     		ldr	r0, .L100+16
 1384 0096 0397     		str	r7, [sp, #12]
 1385 0098 CDF80080 		str	r8, [sp]
 1386 009c FFF7FEFF 		bl	printf
 1387              	.LVL100:
 468:D:/fchai/work/i-cube/I-CUBE-HUAWEI/Middlewares/Third_Party/Huawei/iot_link/os/liteos/base/core\los_task.c ****         {
 1388              		.loc 1 468 9 is_stmt 1 view .LVU405
 470:D:/fchai/work/i-cube/I-CUBE-HUAWEI/Middlewares/Third_Party/Huawei/iot_link/os/liteos/base/core\los_task.c ****         }
 1389              		.loc 1 470 13 view .LVU406
 468:D:/fchai/work/i-cube/I-CUBE-HUAWEI/Middlewares/Third_Party/Huawei/iot_link/os/liteos/base/core\los_task.c ****         {
 1390              		.loc 1 468 22 is_stmt 0 view .LVU407
 1391 00a0 A369     		ldr	r3, [r4, #24]
 470:D:/fchai/work/i-cube/I-CUBE-HUAWEI/Middlewares/Third_Party/Huawei/iot_link/os/liteos/base/core\los_task.c ****         }
 1392              		.loc 1 470 13 view .LVU408
ARM GAS  T:\msys\tmp\ccehPeV4.s 			page 48


 1393 00a2 5846     		mov	r0, fp
 468:D:/fchai/work/i-cube/I-CUBE-HUAWEI/Middlewares/Third_Party/Huawei/iot_link/os/liteos/base/core\los_task.c ****         {
 1394              		.loc 1 468 12 view .LVU409
 1395 00a4 002B     		cmp	r3, #0
 1396 00a6 C7D1     		bne	.L99
 474:D:/fchai/work/i-cube/I-CUBE-HUAWEI/Middlewares/Third_Party/Huawei/iot_link/os/liteos/base/core\los_task.c ****         }
 1397              		.loc 1 474 13 is_stmt 1 view .LVU410
 1398 00a8 4FF6FF71 		movw	r1, #65535
 1399 00ac FFF7FEFF 		bl	printf
 1400              	.LVL101:
 1401 00b0 C5E7     		b	.L92
 1402              	.LVL102:
 1403              	.L89:
 497:D:/fchai/work/i-cube/I-CUBE-HUAWEI/Middlewares/Third_Party/Huawei/iot_link/os/liteos/base/core\los_task.c **** }
 1404              		.loc 1 497 5 view .LVU411
 498:D:/fchai/work/i-cube/I-CUBE-HUAWEI/Middlewares/Third_Party/Huawei/iot_link/os/liteos/base/core\los_task.c **** 
 1405              		.loc 1 498 1 is_stmt 0 view .LVU412
 1406 00b2 0020     		movs	r0, #0
 1407 00b4 0BB0     		add	sp, sp, #44
 1408              	.LCFI20:
 1409              		.cfi_def_cfa_offset 36
 1410              		@ sp needed
 1411 00b6 BDE8F08F 		pop	{r4, r5, r6, r7, r8, r9, r10, fp, pc}
 1412              	.L101:
 1413 00ba 00BF     		.align	2
 1414              	.L100:
 1415 00bc 00000000 		.word	.LC14
 1416 00c0 78000000 		.word	.LC15
 1417 00c4 7C000000 		.word	.LC16
 1418 00c8 30010000 		.word	.LC19
 1419 00cc F0000000 		.word	.LC17
 1420 00d0 00000000 		.word	g_uwTskMaxNum
 1421 00d4 00000000 		.word	g_pstTaskCBArray
 1422 00d8 28010000 		.word	.LC18
 1423              		.cfi_endproc
 1424              	.LFE140:
 1426              		.section	.text.osTaskInit,"ax",%progbits
 1427              		.align	1
 1428              		.p2align 2,,3
 1429              		.global	osTaskInit
 1430              		.syntax unified
 1431              		.thumb
 1432              		.thumb_func
 1433              		.fpu fpv4-sp-d16
 1435              	osTaskInit:
 1436              	.LFB141:
 508:D:/fchai/work/i-cube/I-CUBE-HUAWEI/Middlewares/Third_Party/Huawei/iot_link/os/liteos/base/core\los_task.c ****     UINT32 uwSize;
 1437              		.loc 1 508 1 is_stmt 1 view -0
 1438              		.cfi_startproc
 1439              		@ args = 0, pretend = 0, frame = 8
 1440              		@ frame_needed = 0, uses_anonymous_args = 0
 509:D:/fchai/work/i-cube/I-CUBE-HUAWEI/Middlewares/Third_Party/Huawei/iot_link/os/liteos/base/core\los_task.c ****     UINT32 uwIndex;
 1441              		.loc 1 509 5 view .LVU414
 510:D:/fchai/work/i-cube/I-CUBE-HUAWEI/Middlewares/Third_Party/Huawei/iot_link/os/liteos/base/core\los_task.c ****     LOS_DL_LIST *pstListObject;
 1442              		.loc 1 510 5 view .LVU415
 511:D:/fchai/work/i-cube/I-CUBE-HUAWEI/Middlewares/Third_Party/Huawei/iot_link/os/liteos/base/core\los_task.c **** 
 1443              		.loc 1 511 5 view .LVU416
ARM GAS  T:\msys\tmp\ccehPeV4.s 			page 49


 519:D:/fchai/work/i-cube/I-CUBE-HUAWEI/Middlewares/Third_Party/Huawei/iot_link/os/liteos/base/core\los_task.c ****     g_pstTaskCBArray = (LOS_TASK_CB *)LOS_MemAlloc(m_aucSysMem0, uwSize);
 1444              		.loc 1 519 5 view .LVU417
 508:D:/fchai/work/i-cube/I-CUBE-HUAWEI/Middlewares/Third_Party/Huawei/iot_link/os/liteos/base/core\los_task.c ****     UINT32 uwSize;
 1445              		.loc 1 508 1 is_stmt 0 view .LVU418
 1446 0000 F0B5     		push	{r4, r5, r6, r7, lr}
 1447              	.LCFI21:
 1448              		.cfi_def_cfa_offset 20
 1449              		.cfi_offset 4, -20
 1450              		.cfi_offset 5, -16
 1451              		.cfi_offset 6, -12
 1452              		.cfi_offset 7, -8
 1453              		.cfi_offset 14, -4
 519:D:/fchai/work/i-cube/I-CUBE-HUAWEI/Middlewares/Third_Party/Huawei/iot_link/os/liteos/base/core\los_task.c ****     g_pstTaskCBArray = (LOS_TASK_CB *)LOS_MemAlloc(m_aucSysMem0, uwSize);
 1454              		.loc 1 519 34 view .LVU419
 1455 0002 2B4B     		ldr	r3, .L116
 520:D:/fchai/work/i-cube/I-CUBE-HUAWEI/Middlewares/Third_Party/Huawei/iot_link/os/liteos/base/core\los_task.c ****     if (NULL == g_pstTaskCBArray)
 1456              		.loc 1 520 39 view .LVU420
 1457 0004 2B4E     		ldr	r6, .L116+4
 519:D:/fchai/work/i-cube/I-CUBE-HUAWEI/Middlewares/Third_Party/Huawei/iot_link/os/liteos/base/core\los_task.c ****     g_pstTaskCBArray = (LOS_TASK_CB *)LOS_MemAlloc(m_aucSysMem0, uwSize);
 1458              		.loc 1 519 34 view .LVU421
 1459 0006 1968     		ldr	r1, [r3]
 520:D:/fchai/work/i-cube/I-CUBE-HUAWEI/Middlewares/Third_Party/Huawei/iot_link/os/liteos/base/core\los_task.c ****     if (NULL == g_pstTaskCBArray)
 1460              		.loc 1 520 39 view .LVU422
 1461 0008 3068     		ldr	r0, [r6]
 520:D:/fchai/work/i-cube/I-CUBE-HUAWEI/Middlewares/Third_Party/Huawei/iot_link/os/liteos/base/core\los_task.c ****     if (NULL == g_pstTaskCBArray)
 1462              		.loc 1 520 22 view .LVU423
 1463 000a 2B4C     		ldr	r4, .L116+8
 519:D:/fchai/work/i-cube/I-CUBE-HUAWEI/Middlewares/Third_Party/Huawei/iot_link/os/liteos/base/core\los_task.c ****     g_pstTaskCBArray = (LOS_TASK_CB *)LOS_MemAlloc(m_aucSysMem0, uwSize);
 1464              		.loc 1 519 12 view .LVU424
 1465 000c 5422     		movs	r2, #84
 1466 000e 01FB0222 		mla	r2, r1, r2, r2
 1467              	.LVL103:
 520:D:/fchai/work/i-cube/I-CUBE-HUAWEI/Middlewares/Third_Party/Huawei/iot_link/os/liteos/base/core\los_task.c ****     if (NULL == g_pstTaskCBArray)
 1468              		.loc 1 520 5 is_stmt 1 view .LVU425
 508:D:/fchai/work/i-cube/I-CUBE-HUAWEI/Middlewares/Third_Party/Huawei/iot_link/os/liteos/base/core\los_task.c ****     UINT32 uwSize;
 1469              		.loc 1 508 1 is_stmt 0 view .LVU426
 1470 0012 83B0     		sub	sp, sp, #12
 1471              	.LCFI22:
 1472              		.cfi_def_cfa_offset 32
 520:D:/fchai/work/i-cube/I-CUBE-HUAWEI/Middlewares/Third_Party/Huawei/iot_link/os/liteos/base/core\los_task.c ****     if (NULL == g_pstTaskCBArray)
 1473              		.loc 1 520 39 view .LVU427
 1474 0014 1146     		mov	r1, r2
 1475 0016 0192     		str	r2, [sp, #4]
 1476 0018 FFF7FEFF 		bl	LOS_MemAlloc
 1477              	.LVL104:
 521:D:/fchai/work/i-cube/I-CUBE-HUAWEI/Middlewares/Third_Party/Huawei/iot_link/os/liteos/base/core\los_task.c ****     {
 1478              		.loc 1 521 8 view .LVU428
 1479 001c 019A     		ldr	r2, [sp, #4]
 520:D:/fchai/work/i-cube/I-CUBE-HUAWEI/Middlewares/Third_Party/Huawei/iot_link/os/liteos/base/core\los_task.c ****     if (NULL == g_pstTaskCBArray)
 1480              		.loc 1 520 22 view .LVU429
 1481 001e 2060     		str	r0, [r4]
 521:D:/fchai/work/i-cube/I-CUBE-HUAWEI/Middlewares/Third_Party/Huawei/iot_link/os/liteos/base/core\los_task.c ****     {
 1482              		.loc 1 521 5 is_stmt 1 view .LVU430
 521:D:/fchai/work/i-cube/I-CUBE-HUAWEI/Middlewares/Third_Party/Huawei/iot_link/os/liteos/base/core\los_task.c ****     {
 1483              		.loc 1 521 8 is_stmt 0 view .LVU431
 1484 0020 0028     		cmp	r0, #0
 1485 0022 41D0     		beq	.L107
ARM GAS  T:\msys\tmp\ccehPeV4.s 			page 50


 526:D:/fchai/work/i-cube/I-CUBE-HUAWEI/Middlewares/Third_Party/Huawei/iot_link/os/liteos/base/core\los_task.c ****     LOS_ListInit(&g_stTaskTimerList);
 1486              		.loc 1 526 5 is_stmt 1 view .LVU432
 526:D:/fchai/work/i-cube/I-CUBE-HUAWEI/Middlewares/Third_Party/Huawei/iot_link/os/liteos/base/core\los_task.c ****     LOS_ListInit(&g_stTaskTimerList);
 1487              		.loc 1 526 11 is_stmt 0 view .LVU433
 1488 0024 0021     		movs	r1, #0
 1489 0026 FFF7FEFF 		bl	memset
 1490              	.LVL105:
 527:D:/fchai/work/i-cube/I-CUBE-HUAWEI/Middlewares/Third_Party/Huawei/iot_link/os/liteos/base/core\los_task.c ****     LOS_ListInit(&g_stLosFreeTask);
 1491              		.loc 1 527 5 is_stmt 1 view .LVU434
 1492              	.LBB122:
 1493              	.LBI122:
  80:D:/fchai/work/i-cube/I-CUBE-HUAWEI/Middlewares/Third_Party/Huawei/iot_link/os/liteos/include\los_list.h **** {
 1494              		.loc 2 80 43 view .LVU435
 1495              	.LBB123:
  82:D:/fchai/work/i-cube/I-CUBE-HUAWEI/Middlewares/Third_Party/Huawei/iot_link/os/liteos/include\los_list.h ****     pstList->pstPrev = pstList;
 1496              		.loc 2 82 5 view .LVU436
  82:D:/fchai/work/i-cube/I-CUBE-HUAWEI/Middlewares/Third_Party/Huawei/iot_link/os/liteos/include\los_list.h ****     pstList->pstPrev = pstList;
 1497              		.loc 2 82 22 is_stmt 0 view .LVU437
 1498 002a 244F     		ldr	r7, .L116+12
 1499              	.LBE123:
 1500              	.LBE122:
 1501              	.LBB125:
 1502              	.LBB126:
 1503 002c 244A     		ldr	r2, .L116+16
 1504 002e 2368     		ldr	r3, [r4]
 1505              	.LBE126:
 1506              	.LBE125:
 1507              	.LBB130:
 1508              	.LBB131:
 1509 0030 244C     		ldr	r4, .L116+20
 1510              	.LBE131:
 1511              	.LBE130:
 1512              	.LBB134:
 1513              	.LBB127:
 1514 0032 5260     		str	r2, [r2, #4]
 1515              	.LBE127:
 1516              	.LBE134:
 1517              	.LBB135:
 1518              	.LBB132:
  83:D:/fchai/work/i-cube/I-CUBE-HUAWEI/Middlewares/Third_Party/Huawei/iot_link/os/liteos/include\los_list.h **** }
 1519              		.loc 2 83 22 view .LVU438
 1520 0034 C4E90044 		strd	r4, r4, [r4]
 1521              	.LBE132:
 1522              	.LBE135:
 532:D:/fchai/work/i-cube/I-CUBE-HUAWEI/Middlewares/Third_Party/Huawei/iot_link/os/liteos/base/core\los_task.c ****         g_pstTaskCBArray[uwIndex].uwTaskID = uwIndex;
 1523              		.loc 1 532 25 view .LVU439
 1524 0038 1046     		mov	r0, r2
 1525              	.LBB136:
 1526              	.LBB128:
  83:D:/fchai/work/i-cube/I-CUBE-HUAWEI/Middlewares/Third_Party/Huawei/iot_link/os/liteos/include\los_list.h **** }
 1527              		.loc 2 83 22 view .LVU440
 1528 003a 1260     		str	r2, [r2]
 1529              	.LBE128:
 1530              	.LBE136:
 532:D:/fchai/work/i-cube/I-CUBE-HUAWEI/Middlewares/Third_Party/Huawei/iot_link/os/liteos/base/core\los_task.c ****         g_pstTaskCBArray[uwIndex].uwTaskID = uwIndex;
 1531              		.loc 1 532 25 view .LVU441
 1532 003c 1546     		mov	r5, r2
ARM GAS  T:\msys\tmp\ccehPeV4.s 			page 51


 1533 003e 1146     		mov	r1, r2
 1534              	.LBB137:
 1535              	.LBB124:
  83:D:/fchai/work/i-cube/I-CUBE-HUAWEI/Middlewares/Third_Party/Huawei/iot_link/os/liteos/include\los_list.h **** }
 1536              		.loc 2 83 22 view .LVU442
 1537 0040 C7E90077 		strd	r7, r7, [r7]
 1538              	.LVL106:
  83:D:/fchai/work/i-cube/I-CUBE-HUAWEI/Middlewares/Third_Party/Huawei/iot_link/os/liteos/include\los_list.h **** }
 1539              		.loc 2 83 22 view .LVU443
 1540              	.LBE124:
 1541              	.LBE137:
 528:D:/fchai/work/i-cube/I-CUBE-HUAWEI/Middlewares/Third_Party/Huawei/iot_link/os/liteos/base/core\los_task.c ****     LOS_ListInit(&g_stTskRecyleList);
 1542              		.loc 1 528 5 is_stmt 1 view .LVU444
 1543              	.LBB138:
 1544              	.LBI125:
  80:D:/fchai/work/i-cube/I-CUBE-HUAWEI/Middlewares/Third_Party/Huawei/iot_link/os/liteos/include\los_list.h **** {
 1545              		.loc 2 80 43 view .LVU445
 1546              	.LBB129:
  82:D:/fchai/work/i-cube/I-CUBE-HUAWEI/Middlewares/Third_Party/Huawei/iot_link/os/liteos/include\los_list.h ****     pstList->pstPrev = pstList;
 1547              		.loc 2 82 5 view .LVU446
  83:D:/fchai/work/i-cube/I-CUBE-HUAWEI/Middlewares/Third_Party/Huawei/iot_link/os/liteos/include\los_list.h **** }
 1548              		.loc 2 83 5 view .LVU447
  83:D:/fchai/work/i-cube/I-CUBE-HUAWEI/Middlewares/Third_Party/Huawei/iot_link/os/liteos/include\los_list.h **** }
 1549              		.loc 2 83 5 is_stmt 0 view .LVU448
 1550              	.LBE129:
 1551              	.LBE138:
 529:D:/fchai/work/i-cube/I-CUBE-HUAWEI/Middlewares/Third_Party/Huawei/iot_link/os/liteos/base/core\los_task.c ****     for (uwIndex = 0; uwIndex <= LOSCFG_BASE_CORE_TSK_LIMIT; uwIndex++)
 1552              		.loc 1 529 5 is_stmt 1 view .LVU449
 1553              	.LBB139:
 1554              	.LBI130:
  80:D:/fchai/work/i-cube/I-CUBE-HUAWEI/Middlewares/Third_Party/Huawei/iot_link/os/liteos/include\los_list.h **** {
 1555              		.loc 2 80 43 view .LVU450
 1556              	.LBB133:
  82:D:/fchai/work/i-cube/I-CUBE-HUAWEI/Middlewares/Third_Party/Huawei/iot_link/os/liteos/include\los_list.h ****     pstList->pstPrev = pstList;
 1557              		.loc 2 82 5 view .LVU451
  82:D:/fchai/work/i-cube/I-CUBE-HUAWEI/Middlewares/Third_Party/Huawei/iot_link/os/liteos/include\los_list.h ****     pstList->pstPrev = pstList;
 1558              		.loc 2 82 5 is_stmt 0 view .LVU452
 1559              	.LBE133:
 1560              	.LBE139:
 530:D:/fchai/work/i-cube/I-CUBE-HUAWEI/Middlewares/Third_Party/Huawei/iot_link/os/liteos/base/core\los_task.c ****     {
 1561              		.loc 1 530 5 is_stmt 1 view .LVU453
 530:D:/fchai/work/i-cube/I-CUBE-HUAWEI/Middlewares/Third_Party/Huawei/iot_link/os/liteos/base/core\los_task.c ****     {
 1562              		.loc 1 530 23 view .LVU454
 1563 0044 2833     		adds	r3, r3, #40
 530:D:/fchai/work/i-cube/I-CUBE-HUAWEI/Middlewares/Third_Party/Huawei/iot_link/os/liteos/base/core\los_task.c ****     {
 1564              		.loc 1 530 18 is_stmt 0 view .LVU455
 1565 0046 0022     		movs	r2, #0
 532:D:/fchai/work/i-cube/I-CUBE-HUAWEI/Middlewares/Third_Party/Huawei/iot_link/os/liteos/base/core\los_task.c ****         g_pstTaskCBArray[uwIndex].uwTaskID = uwIndex;
 1566              		.loc 1 532 48 view .LVU456
 1567 0048 0124     		movs	r4, #1
 1568 004a 01E0     		b	.L106
 1569              	.LVL107:
 1570              	.L115:
 532:D:/fchai/work/i-cube/I-CUBE-HUAWEI/Middlewares/Third_Party/Huawei/iot_link/os/liteos/base/core\los_task.c ****         g_pstTaskCBArray[uwIndex].uwTaskID = uwIndex;
 1571              		.loc 1 532 48 view .LVU457
 1572 004c 2968     		ldr	r1, [r5]
 1573 004e 4868     		ldr	r0, [r1, #4]
ARM GAS  T:\msys\tmp\ccehPeV4.s 			page 52


 1574              	.LVL108:
 1575              	.L106:
 532:D:/fchai/work/i-cube/I-CUBE-HUAWEI/Middlewares/Third_Party/Huawei/iot_link/os/liteos/base/core\los_task.c ****         g_pstTaskCBArray[uwIndex].uwTaskID = uwIndex;
 1576              		.loc 1 532 9 is_stmt 1 discriminator 3 view .LVU458
 533:D:/fchai/work/i-cube/I-CUBE-HUAWEI/Middlewares/Third_Party/Huawei/iot_link/os/liteos/base/core\los_task.c ****         LOS_ListTailInsert(&g_stLosFreeTask, &g_pstTaskCBArray[uwIndex].stPendList);
 1577              		.loc 1 533 44 is_stmt 0 discriminator 3 view .LVU459
 1578 0050 43F8182C 		str	r2, [r3, #-24]
 530:D:/fchai/work/i-cube/I-CUBE-HUAWEI/Middlewares/Third_Party/Huawei/iot_link/os/liteos/base/core\los_task.c ****     {
 1579              		.loc 1 530 69 discriminator 3 view .LVU460
 1580 0054 0132     		adds	r2, r2, #1
 1581              	.LVL109:
 530:D:/fchai/work/i-cube/I-CUBE-HUAWEI/Middlewares/Third_Party/Huawei/iot_link/os/liteos/base/core\los_task.c ****     {
 1582              		.loc 1 530 5 discriminator 3 view .LVU461
 1583 0056 102A     		cmp	r2, #16
 1584              	.LBB140:
 1585              	.LBB141:
 1586              	.LBB142:
 132:D:/fchai/work/i-cube/I-CUBE-HUAWEI/Middlewares/Third_Party/Huawei/iot_link/os/liteos/include\los_list.h ****     pstList->pstNext->pstPrev = pstNode;
 1587              		.loc 2 132 22 discriminator 3 view .LVU462
 1588 0058 C3E90010 		strd	r1, r0, [r3]
 1589              	.LBE142:
 1590              	.LBE141:
 1591              	.LBE140:
 532:D:/fchai/work/i-cube/I-CUBE-HUAWEI/Middlewares/Third_Party/Huawei/iot_link/os/liteos/base/core\los_task.c ****         g_pstTaskCBArray[uwIndex].uwTaskID = uwIndex;
 1592              		.loc 1 532 48 discriminator 3 view .LVU463
 1593 005c 23F8244C 		strh	r4, [r3, #-36]	@ movhi
 533:D:/fchai/work/i-cube/I-CUBE-HUAWEI/Middlewares/Third_Party/Huawei/iot_link/os/liteos/base/core\los_task.c ****         LOS_ListTailInsert(&g_stLosFreeTask, &g_pstTaskCBArray[uwIndex].stPendList);
 1594              		.loc 1 533 9 is_stmt 1 discriminator 3 view .LVU464
 534:D:/fchai/work/i-cube/I-CUBE-HUAWEI/Middlewares/Third_Party/Huawei/iot_link/os/liteos/base/core\los_task.c ****     }
 1595              		.loc 1 534 9 discriminator 3 view .LVU465
 1596              	.LVL110:
 1597              	.LBB145:
 1598              	.LBI140:
 157:D:/fchai/work/i-cube/I-CUBE-HUAWEI/Middlewares/Third_Party/Huawei/iot_link/os/liteos/include\los_list.h **** {
 1599              		.loc 2 157 43 discriminator 3 view .LVU466
 157:D:/fchai/work/i-cube/I-CUBE-HUAWEI/Middlewares/Third_Party/Huawei/iot_link/os/liteos/include\los_list.h **** {
 1600              		.loc 2 157 43 is_stmt 0 discriminator 3 view .LVU467
 1601              	.LBE145:
 159:D:/fchai/work/i-cube/I-CUBE-HUAWEI/Middlewares/Third_Party/Huawei/iot_link/os/liteos/include\los_list.h **** }
 1602              		.loc 2 159 5 is_stmt 1 discriminator 3 view .LVU468
 1603              	.LBB146:
 1604              	.LBB144:
 1605              	.LBI141:
 129:D:/fchai/work/i-cube/I-CUBE-HUAWEI/Middlewares/Third_Party/Huawei/iot_link/os/liteos/include\los_list.h **** {
 1606              		.loc 2 129 43 discriminator 3 view .LVU469
 1607              	.LBB143:
 131:D:/fchai/work/i-cube/I-CUBE-HUAWEI/Middlewares/Third_Party/Huawei/iot_link/os/liteos/include\los_list.h ****     pstNode->pstPrev = pstList;
 1608              		.loc 2 131 5 discriminator 3 view .LVU470
 133:D:/fchai/work/i-cube/I-CUBE-HUAWEI/Middlewares/Third_Party/Huawei/iot_link/os/liteos/include\los_list.h ****     pstList->pstNext = pstNode;
 1609              		.loc 2 133 5 discriminator 3 view .LVU471
 133:D:/fchai/work/i-cube/I-CUBE-HUAWEI/Middlewares/Third_Party/Huawei/iot_link/os/liteos/include\los_list.h ****     pstList->pstNext = pstNode;
 1610              		.loc 2 133 31 is_stmt 0 discriminator 3 view .LVU472
 1611 0060 0360     		str	r3, [r0]
 134:D:/fchai/work/i-cube/I-CUBE-HUAWEI/Middlewares/Third_Party/Huawei/iot_link/os/liteos/include\los_list.h **** }
 1612              		.loc 2 134 5 is_stmt 1 discriminator 3 view .LVU473
 134:D:/fchai/work/i-cube/I-CUBE-HUAWEI/Middlewares/Third_Party/Huawei/iot_link/os/liteos/include\los_list.h **** }
 1613              		.loc 2 134 22 is_stmt 0 discriminator 3 view .LVU474
ARM GAS  T:\msys\tmp\ccehPeV4.s 			page 53


 1614 0062 4B60     		str	r3, [r1, #4]
 1615              	.LVL111:
 134:D:/fchai/work/i-cube/I-CUBE-HUAWEI/Middlewares/Third_Party/Huawei/iot_link/os/liteos/include\los_list.h **** }
 1616              		.loc 2 134 22 discriminator 3 view .LVU475
 1617              	.LBE143:
 1618              	.LBE144:
 1619              	.LBE146:
 530:D:/fchai/work/i-cube/I-CUBE-HUAWEI/Middlewares/Third_Party/Huawei/iot_link/os/liteos/base/core\los_task.c ****     {
 1620              		.loc 1 530 62 is_stmt 1 discriminator 3 view .LVU476
 530:D:/fchai/work/i-cube/I-CUBE-HUAWEI/Middlewares/Third_Party/Huawei/iot_link/os/liteos/base/core\los_task.c ****     {
 1621              		.loc 1 530 23 discriminator 3 view .LVU477
 1622 0064 03F15403 		add	r3, r3, #84
 530:D:/fchai/work/i-cube/I-CUBE-HUAWEI/Middlewares/Third_Party/Huawei/iot_link/os/liteos/base/core\los_task.c ****     {
 1623              		.loc 1 530 5 is_stmt 0 discriminator 3 view .LVU478
 1624 0068 F0D1     		bne	.L115
 537:D:/fchai/work/i-cube/I-CUBE-HUAWEI/Middlewares/Third_Party/Huawei/iot_link/os/liteos/base/core\los_task.c **** 
 1625              		.loc 1 537 5 is_stmt 1 view .LVU479
 537:D:/fchai/work/i-cube/I-CUBE-HUAWEI/Middlewares/Third_Party/Huawei/iot_link/os/liteos/base/core\los_task.c **** 
 1626              		.loc 1 537 11 is_stmt 0 view .LVU480
 1627 006a 174B     		ldr	r3, .L116+24
 1628 006c 0025     		movs	r5, #0
 1629 006e C3E90055 		strd	r5, r5, [r3]
 545:D:/fchai/work/i-cube/I-CUBE-HUAWEI/Middlewares/Third_Party/Huawei/iot_link/os/liteos/base/core\los_task.c ****     uwSize = sizeof(LOS_DL_LIST) * OS_TSK_SORTLINK_LEN;
 1630              		.loc 1 545 5 is_stmt 1 view .LVU481
 1631 0072 FFF7FEFF 		bl	osPriqueueInit
 1632              	.LVL112:
 546:D:/fchai/work/i-cube/I-CUBE-HUAWEI/Middlewares/Third_Party/Huawei/iot_link/os/liteos/base/core\los_task.c ****     pstListObject = (LOS_DL_LIST *)LOS_MemAlloc(m_aucSysMem0, uwSize);
 1633              		.loc 1 546 5 view .LVU482
 547:D:/fchai/work/i-cube/I-CUBE-HUAWEI/Middlewares/Third_Party/Huawei/iot_link/os/liteos/base/core\los_task.c ****     if (NULL == pstListObject)
 1634              		.loc 1 547 5 view .LVU483
 547:D:/fchai/work/i-cube/I-CUBE-HUAWEI/Middlewares/Third_Party/Huawei/iot_link/os/liteos/base/core\los_task.c ****     if (NULL == pstListObject)
 1635              		.loc 1 547 36 is_stmt 0 view .LVU484
 1636 0076 3068     		ldr	r0, [r6]
 1637 0078 4FF48071 		mov	r1, #256
 1638 007c FFF7FEFF 		bl	LOS_MemAlloc
 1639              	.LVL113:
 548:D:/fchai/work/i-cube/I-CUBE-HUAWEI/Middlewares/Third_Party/Huawei/iot_link/os/liteos/base/core\los_task.c ****     {
 1640              		.loc 1 548 5 is_stmt 1 view .LVU485
 548:D:/fchai/work/i-cube/I-CUBE-HUAWEI/Middlewares/Third_Party/Huawei/iot_link/os/liteos/base/core\los_task.c ****     {
 1641              		.loc 1 548 8 is_stmt 0 view .LVU486
 1642 0080 0446     		mov	r4, r0
 1643 0082 88B1     		cbz	r0, .L107
 553:D:/fchai/work/i-cube/I-CUBE-HUAWEI/Middlewares/Third_Party/Huawei/iot_link/os/liteos/base/core\los_task.c ****     g_stTskSortLink.pstSortLink = pstListObject;
 1644              		.loc 1 553 5 is_stmt 1 view .LVU487
 553:D:/fchai/work/i-cube/I-CUBE-HUAWEI/Middlewares/Third_Party/Huawei/iot_link/os/liteos/base/core\los_task.c ****     g_stTskSortLink.pstSortLink = pstListObject;
 1645              		.loc 1 553 11 is_stmt 0 view .LVU488
 1646 0084 4FF48072 		mov	r2, #256
 1647 0088 2946     		mov	r1, r5
 1648 008a FFF7FEFF 		bl	memset
 1649              	.LVL114:
 554:D:/fchai/work/i-cube/I-CUBE-HUAWEI/Middlewares/Third_Party/Huawei/iot_link/os/liteos/base/core\los_task.c ****     g_stTskSortLink.usCursor = 0;
 1650              		.loc 1 554 5 is_stmt 1 view .LVU489
 554:D:/fchai/work/i-cube/I-CUBE-HUAWEI/Middlewares/Third_Party/Huawei/iot_link/os/liteos/base/core\los_task.c ****     g_stTskSortLink.usCursor = 0;
 1651              		.loc 1 554 33 is_stmt 0 view .LVU490
 1652 008e 0F4A     		ldr	r2, .L116+28
 1653 0090 04F58073 		add	r3, r4, #256
 1654 0094 1460     		str	r4, [r2]
ARM GAS  T:\msys\tmp\ccehPeV4.s 			page 54


 555:D:/fchai/work/i-cube/I-CUBE-HUAWEI/Middlewares/Third_Party/Huawei/iot_link/os/liteos/base/core\los_task.c ****     for (uwIndex = 0; uwIndex < OS_TSK_SORTLINK_LEN; uwIndex++, pstListObject++)
 1655              		.loc 1 555 5 is_stmt 1 view .LVU491
 555:D:/fchai/work/i-cube/I-CUBE-HUAWEI/Middlewares/Third_Party/Huawei/iot_link/os/liteos/base/core\los_task.c ****     for (uwIndex = 0; uwIndex < OS_TSK_SORTLINK_LEN; uwIndex++, pstListObject++)
 1656              		.loc 1 555 30 is_stmt 0 view .LVU492
 1657 0096 9580     		strh	r5, [r2, #4]	@ movhi
 556:D:/fchai/work/i-cube/I-CUBE-HUAWEI/Middlewares/Third_Party/Huawei/iot_link/os/liteos/base/core\los_task.c ****     {
 1658              		.loc 1 556 5 is_stmt 1 view .LVU493
 1659              	.LVL115:
 556:D:/fchai/work/i-cube/I-CUBE-HUAWEI/Middlewares/Third_Party/Huawei/iot_link/os/liteos/base/core\los_task.c ****     {
 1660              		.loc 1 556 23 view .LVU494
 1661              	.L108:
 558:D:/fchai/work/i-cube/I-CUBE-HUAWEI/Middlewares/Third_Party/Huawei/iot_link/os/liteos/base/core\los_task.c ****     }
 1662              		.loc 1 558 9 view .LVU495
 1663              	.LBB147:
 1664              	.LBI147:
  80:D:/fchai/work/i-cube/I-CUBE-HUAWEI/Middlewares/Third_Party/Huawei/iot_link/os/liteos/include\los_list.h **** {
 1665              		.loc 2 80 43 view .LVU496
 1666              	.LBB148:
  82:D:/fchai/work/i-cube/I-CUBE-HUAWEI/Middlewares/Third_Party/Huawei/iot_link/os/liteos/include\los_list.h ****     pstList->pstPrev = pstList;
 1667              		.loc 2 82 5 view .LVU497
  83:D:/fchai/work/i-cube/I-CUBE-HUAWEI/Middlewares/Third_Party/Huawei/iot_link/os/liteos/include\los_list.h **** }
 1668              		.loc 2 83 22 is_stmt 0 view .LVU498
 1669 0098 C4E90044 		strd	r4, r4, [r4]
 1670              	.LVL116:
  83:D:/fchai/work/i-cube/I-CUBE-HUAWEI/Middlewares/Third_Party/Huawei/iot_link/os/liteos/include\los_list.h **** }
 1671              		.loc 2 83 22 view .LVU499
 1672              	.LBE148:
 1673              	.LBE147:
 556:D:/fchai/work/i-cube/I-CUBE-HUAWEI/Middlewares/Third_Party/Huawei/iot_link/os/liteos/base/core\los_task.c ****     {
 1674              		.loc 1 556 54 is_stmt 1 view .LVU500
 556:D:/fchai/work/i-cube/I-CUBE-HUAWEI/Middlewares/Third_Party/Huawei/iot_link/os/liteos/base/core\los_task.c ****     {
 1675              		.loc 1 556 78 is_stmt 0 view .LVU501
 1676 009c 0834     		adds	r4, r4, #8
 1677              	.LVL117:
 556:D:/fchai/work/i-cube/I-CUBE-HUAWEI/Middlewares/Third_Party/Huawei/iot_link/os/liteos/base/core\los_task.c ****     {
 1678              		.loc 1 556 23 is_stmt 1 view .LVU502
 556:D:/fchai/work/i-cube/I-CUBE-HUAWEI/Middlewares/Third_Party/Huawei/iot_link/os/liteos/base/core\los_task.c ****     {
 1679              		.loc 1 556 5 is_stmt 0 view .LVU503
 1680 009e 9C42     		cmp	r4, r3
 1681 00a0 FAD1     		bne	.L108
 569:D:/fchai/work/i-cube/I-CUBE-HUAWEI/Middlewares/Third_Party/Huawei/iot_link/os/liteos/base/core\los_task.c **** }
 1682              		.loc 1 569 12 view .LVU504
 1683 00a2 0020     		movs	r0, #0
 570:D:/fchai/work/i-cube/I-CUBE-HUAWEI/Middlewares/Third_Party/Huawei/iot_link/os/liteos/base/core\los_task.c **** 
 1684              		.loc 1 570 1 view .LVU505
 1685 00a4 03B0     		add	sp, sp, #12
 1686              	.LCFI23:
 1687              		.cfi_remember_state
 1688              		.cfi_def_cfa_offset 20
 1689              		@ sp needed
 1690 00a6 F0BD     		pop	{r4, r5, r6, r7, pc}
 1691              	.LVL118:
 1692              	.L107:
 1693              	.LCFI24:
 1694              		.cfi_restore_state
 523:D:/fchai/work/i-cube/I-CUBE-HUAWEI/Middlewares/Third_Party/Huawei/iot_link/os/liteos/base/core\los_task.c ****     }
 1695              		.loc 1 523 16 view .LVU506
ARM GAS  T:\msys\tmp\ccehPeV4.s 			page 55


 1696 00a8 0948     		ldr	r0, .L116+32
 570:D:/fchai/work/i-cube/I-CUBE-HUAWEI/Middlewares/Third_Party/Huawei/iot_link/os/liteos/base/core\los_task.c **** 
 1697              		.loc 1 570 1 view .LVU507
 1698 00aa 03B0     		add	sp, sp, #12
 1699              	.LCFI25:
 1700              		.cfi_def_cfa_offset 20
 1701              		@ sp needed
 1702 00ac F0BD     		pop	{r4, r5, r6, r7, pc}
 1703              	.L117:
 1704 00ae 00BF     		.align	2
 1705              	.L116:
 1706 00b0 00000000 		.word	g_uwTskMaxNum
 1707 00b4 00000000 		.word	m_aucSysMem0
 1708 00b8 00000000 		.word	g_pstTaskCBArray
 1709 00bc 00000000 		.word	g_stTaskTimerList
 1710 00c0 00000000 		.word	g_stLosFreeTask
 1711 00c4 00000000 		.word	g_stTskRecyleList
 1712 00c8 00000000 		.word	g_stLosTask
 1713 00cc 00000000 		.word	g_stTskSortLink
 1714 00d0 00020003 		.word	50332160
 1715              		.cfi_endproc
 1716              	.LFE141:
 1718              		.section	.text.LOS_CurTaskIDGet,"ax",%progbits
 1719              		.align	1
 1720              		.p2align 2,,3
 1721              		.global	LOS_CurTaskIDGet
 1722              		.syntax unified
 1723              		.thumb
 1724              		.thumb_func
 1725              		.fpu fpv4-sp-d16
 1727              	LOS_CurTaskIDGet:
 1728              	.LFB143:
 618:D:/fchai/work/i-cube/I-CUBE-HUAWEI/Middlewares/Third_Party/Huawei/iot_link/os/liteos/base/core\los_task.c ****     if (NULL == g_stLosTask.pstRunTask)
 1729              		.loc 1 618 1 is_stmt 1 view -0
 1730              		.cfi_startproc
 1731              		@ args = 0, pretend = 0, frame = 0
 1732              		@ frame_needed = 0, uses_anonymous_args = 0
 1733              		@ link register save eliminated.
 619:D:/fchai/work/i-cube/I-CUBE-HUAWEI/Middlewares/Third_Party/Huawei/iot_link/os/liteos/base/core\los_task.c ****     {
 1734              		.loc 1 619 5 view .LVU509
 619:D:/fchai/work/i-cube/I-CUBE-HUAWEI/Middlewares/Third_Party/Huawei/iot_link/os/liteos/base/core\los_task.c ****     {
 1735              		.loc 1 619 28 is_stmt 0 view .LVU510
 1736 0000 034B     		ldr	r3, .L121
 1737 0002 1B68     		ldr	r3, [r3]
 619:D:/fchai/work/i-cube/I-CUBE-HUAWEI/Middlewares/Third_Party/Huawei/iot_link/os/liteos/base/core\los_task.c ****     {
 1738              		.loc 1 619 8 view .LVU511
 1739 0004 0BB1     		cbz	r3, .L120
 623:D:/fchai/work/i-cube/I-CUBE-HUAWEI/Middlewares/Third_Party/Huawei/iot_link/os/liteos/base/core\los_task.c **** }
 1740              		.loc 1 623 5 is_stmt 1 view .LVU512
 623:D:/fchai/work/i-cube/I-CUBE-HUAWEI/Middlewares/Third_Party/Huawei/iot_link/os/liteos/base/core\los_task.c **** }
 1741              		.loc 1 623 34 is_stmt 0 view .LVU513
 1742 0006 1869     		ldr	r0, [r3, #16]
 1743 0008 7047     		bx	lr
 1744              	.L120:
 621:D:/fchai/work/i-cube/I-CUBE-HUAWEI/Middlewares/Third_Party/Huawei/iot_link/os/liteos/base/core\los_task.c ****     }
 1745              		.loc 1 621 16 view .LVU514
 1746 000a 0248     		ldr	r0, .L121+4
ARM GAS  T:\msys\tmp\ccehPeV4.s 			page 56


 624:D:/fchai/work/i-cube/I-CUBE-HUAWEI/Middlewares/Third_Party/Huawei/iot_link/os/liteos/base/core\los_task.c **** 
 1747              		.loc 1 624 1 view .LVU515
 1748 000c 7047     		bx	lr
 1749              	.L122:
 1750 000e 00BF     		.align	2
 1751              	.L121:
 1752 0010 00000000 		.word	g_stLosTask
 1753 0014 07020002 		.word	33554951
 1754              		.cfi_endproc
 1755              	.LFE143:
 1757              		.section	.text.LOS_NextTaskIDGet,"ax",%progbits
 1758              		.align	1
 1759              		.p2align 2,,3
 1760              		.global	LOS_NextTaskIDGet
 1761              		.syntax unified
 1762              		.thumb
 1763              		.thumb_func
 1764              		.fpu fpv4-sp-d16
 1766              	LOS_NextTaskIDGet:
 1767              	.LFB144:
 634:D:/fchai/work/i-cube/I-CUBE-HUAWEI/Middlewares/Third_Party/Huawei/iot_link/os/liteos/base/core\los_task.c ****     if (NULL == g_stLosTask.pstNewTask)
 1768              		.loc 1 634 1 is_stmt 1 view -0
 1769              		.cfi_startproc
 1770              		@ args = 0, pretend = 0, frame = 0
 1771              		@ frame_needed = 0, uses_anonymous_args = 0
 1772              		@ link register save eliminated.
 635:D:/fchai/work/i-cube/I-CUBE-HUAWEI/Middlewares/Third_Party/Huawei/iot_link/os/liteos/base/core\los_task.c ****     {
 1773              		.loc 1 635 5 view .LVU517
 635:D:/fchai/work/i-cube/I-CUBE-HUAWEI/Middlewares/Third_Party/Huawei/iot_link/os/liteos/base/core\los_task.c ****     {
 1774              		.loc 1 635 28 is_stmt 0 view .LVU518
 1775 0000 034B     		ldr	r3, .L126
 1776 0002 5B68     		ldr	r3, [r3, #4]
 635:D:/fchai/work/i-cube/I-CUBE-HUAWEI/Middlewares/Third_Party/Huawei/iot_link/os/liteos/base/core\los_task.c ****     {
 1777              		.loc 1 635 8 view .LVU519
 1778 0004 0BB1     		cbz	r3, .L125
 639:D:/fchai/work/i-cube/I-CUBE-HUAWEI/Middlewares/Third_Party/Huawei/iot_link/os/liteos/base/core\los_task.c **** }
 1779              		.loc 1 639 5 is_stmt 1 view .LVU520
 639:D:/fchai/work/i-cube/I-CUBE-HUAWEI/Middlewares/Third_Party/Huawei/iot_link/os/liteos/base/core\los_task.c **** }
 1780              		.loc 1 639 34 is_stmt 0 view .LVU521
 1781 0006 1869     		ldr	r0, [r3, #16]
 1782 0008 7047     		bx	lr
 1783              	.L125:
 637:D:/fchai/work/i-cube/I-CUBE-HUAWEI/Middlewares/Third_Party/Huawei/iot_link/os/liteos/base/core\los_task.c ****     }
 1784              		.loc 1 637 16 view .LVU522
 1785 000a 0248     		ldr	r0, .L126+4
 640:D:/fchai/work/i-cube/I-CUBE-HUAWEI/Middlewares/Third_Party/Huawei/iot_link/os/liteos/base/core\los_task.c **** 
 1786              		.loc 1 640 1 view .LVU523
 1787 000c 7047     		bx	lr
 1788              	.L127:
 1789 000e 00BF     		.align	2
 1790              	.L126:
 1791 0010 00000000 		.word	g_stLosTask
 1792 0014 07020002 		.word	33554951
 1793              		.cfi_endproc
 1794              	.LFE144:
 1796              		.section	.text.LOS_CurTaskNameGet,"ax",%progbits
 1797              		.align	1
ARM GAS  T:\msys\tmp\ccehPeV4.s 			page 57


 1798              		.p2align 2,,3
 1799              		.global	LOS_CurTaskNameGet
 1800              		.syntax unified
 1801              		.thumb
 1802              		.thumb_func
 1803              		.fpu fpv4-sp-d16
 1805              	LOS_CurTaskNameGet:
 1806              	.LFB145:
 650:D:/fchai/work/i-cube/I-CUBE-HUAWEI/Middlewares/Third_Party/Huawei/iot_link/os/liteos/base/core\los_task.c ****     CHAR *pcTaskName = NULL;
 1807              		.loc 1 650 1 is_stmt 1 view -0
 1808              		.cfi_startproc
 1809              		@ args = 0, pretend = 0, frame = 0
 1810              		@ frame_needed = 0, uses_anonymous_args = 0
 1811              		@ link register save eliminated.
 651:D:/fchai/work/i-cube/I-CUBE-HUAWEI/Middlewares/Third_Party/Huawei/iot_link/os/liteos/base/core\los_task.c **** 
 1812              		.loc 1 651 5 view .LVU525
 1813              	.LVL119:
 653:D:/fchai/work/i-cube/I-CUBE-HUAWEI/Middlewares/Third_Party/Huawei/iot_link/os/liteos/base/core\los_task.c ****     {
 1814              		.loc 1 653 5 view .LVU526
 653:D:/fchai/work/i-cube/I-CUBE-HUAWEI/Middlewares/Third_Party/Huawei/iot_link/os/liteos/base/core\los_task.c ****     {
 1815              		.loc 1 653 28 is_stmt 0 view .LVU527
 1816 0000 024B     		ldr	r3, .L133
 1817 0002 1868     		ldr	r0, [r3]
 653:D:/fchai/work/i-cube/I-CUBE-HUAWEI/Middlewares/Third_Party/Huawei/iot_link/os/liteos/base/core\los_task.c ****     {
 1818              		.loc 1 653 8 view .LVU528
 1819 0004 00B1     		cbz	r0, .L128
 655:D:/fchai/work/i-cube/I-CUBE-HUAWEI/Middlewares/Third_Party/Huawei/iot_link/os/liteos/base/core\los_task.c ****     }
 1820              		.loc 1 655 9 is_stmt 1 view .LVU529
 655:D:/fchai/work/i-cube/I-CUBE-HUAWEI/Middlewares/Third_Party/Huawei/iot_link/os/liteos/base/core\los_task.c ****     }
 1821              		.loc 1 655 20 is_stmt 0 view .LVU530
 1822 0006 406A     		ldr	r0, [r0, #36]
 1823              	.LVL120:
 658:D:/fchai/work/i-cube/I-CUBE-HUAWEI/Middlewares/Third_Party/Huawei/iot_link/os/liteos/base/core\los_task.c **** }
 1824              		.loc 1 658 5 is_stmt 1 view .LVU531
 1825              	.L128:
 659:D:/fchai/work/i-cube/I-CUBE-HUAWEI/Middlewares/Third_Party/Huawei/iot_link/os/liteos/base/core\los_task.c **** 
 1826              		.loc 1 659 1 is_stmt 0 view .LVU532
 1827 0008 7047     		bx	lr
 1828              	.L134:
 1829 000a 00BF     		.align	2
 1830              	.L133:
 1831 000c 00000000 		.word	g_stLosTask
 1832              		.cfi_endproc
 1833              	.LFE145:
 1835              		.section	.text.osTaskMonInit,"ax",%progbits
 1836              		.align	1
 1837              		.p2align 2,,3
 1838              		.global	osTaskMonInit
 1839              		.syntax unified
 1840              		.thumb
 1841              		.thumb_func
 1842              		.fpu fpv4-sp-d16
 1844              	osTaskMonInit:
 1845              	.LFB147:
 704:D:/fchai/work/i-cube/I-CUBE-HUAWEI/Middlewares/Third_Party/Huawei/iot_link/os/liteos/base/core\los_task.c **** 
 705:D:/fchai/work/i-cube/I-CUBE-HUAWEI/Middlewares/Third_Party/Huawei/iot_link/os/liteos/base/core\los_task.c **** LITE_OS_SEC_TEXT_MINOR VOID osTaskMonInit(VOID)
 706:D:/fchai/work/i-cube/I-CUBE-HUAWEI/Middlewares/Third_Party/Huawei/iot_link/os/liteos/base/core\los_task.c **** {
ARM GAS  T:\msys\tmp\ccehPeV4.s 			page 58


 1846              		.loc 1 706 1 is_stmt 1 view -0
 1847              		.cfi_startproc
 1848              		@ args = 0, pretend = 0, frame = 0
 1849              		@ frame_needed = 0, uses_anonymous_args = 0
 707:D:/fchai/work/i-cube/I-CUBE-HUAWEI/Middlewares/Third_Party/Huawei/iot_link/os/liteos/base/core\los_task.c **** #if (LOSCFG_BASE_CORE_EXC_TSK_SWITCH == YES)
 708:D:/fchai/work/i-cube/I-CUBE-HUAWEI/Middlewares/Third_Party/Huawei/iot_link/os/liteos/base/core\los_task.c ****     (VOID)memset(&g_astTskSwitchInfo, 0, sizeof(OS_TASK_SWITCH_INFO));
 1850              		.loc 1 708 5 view .LVU534
 706:D:/fchai/work/i-cube/I-CUBE-HUAWEI/Middlewares/Third_Party/Huawei/iot_link/os/liteos/base/core\los_task.c **** #if (LOSCFG_BASE_CORE_EXC_TSK_SWITCH == YES)
 1851              		.loc 1 706 1 is_stmt 0 view .LVU535
 1852 0000 08B5     		push	{r3, lr}
 1853              	.LCFI26:
 1854              		.cfi_def_cfa_offset 8
 1855              		.cfi_offset 3, -8
 1856              		.cfi_offset 14, -4
 1857              		.loc 1 708 11 view .LVU536
 1858 0002 084B     		ldr	r3, .L137
 1859 0004 4FF4AB72 		mov	r2, #342
 1860 0008 1846     		mov	r0, r3
 1861 000a 0021     		movs	r1, #0
 1862 000c FFF7FEFF 		bl	memset
 1863              	.LVL121:
 709:D:/fchai/work/i-cube/I-CUBE-HUAWEI/Middlewares/Third_Party/Huawei/iot_link/os/liteos/base/core\los_task.c ****     g_astTskSwitchInfo.ucIsFull = 0x7F & OS_TASK_SWITCH_INFO_COUNT;
 710:D:/fchai/work/i-cube/I-CUBE-HUAWEI/Middlewares/Third_Party/Huawei/iot_link/os/liteos/base/core\los_task.c **** #if ((LOSCFG_PLATFORM_EXC == YES) && (LOSCFG_SAVE_EXC_INFO == YES))
 711:D:/fchai/work/i-cube/I-CUBE-HUAWEI/Middlewares/Third_Party/Huawei/iot_link/os/liteos/base/core\los_task.c ****     osExcRegister((EXC_INFO_TYPE)OS_EXC_TYPE_TSK_SWITCH, (EXC_INFO_SAVE_CALLBACK)LOS_TaskSwitchInfo
 712:D:/fchai/work/i-cube/I-CUBE-HUAWEI/Middlewares/Third_Party/Huawei/iot_link/os/liteos/base/core\los_task.c **** #endif
 713:D:/fchai/work/i-cube/I-CUBE-HUAWEI/Middlewares/Third_Party/Huawei/iot_link/os/liteos/base/core\los_task.c **** #endif
 714:D:/fchai/work/i-cube/I-CUBE-HUAWEI/Middlewares/Third_Party/Huawei/iot_link/os/liteos/base/core\los_task.c ****     g_pfnTskSwitchHook = osTaskSwitchCheck;
 1864              		.loc 1 714 24 view .LVU537
 1865 0010 0549     		ldr	r1, .L137+4
 715:D:/fchai/work/i-cube/I-CUBE-HUAWEI/Middlewares/Third_Party/Huawei/iot_link/os/liteos/base/core\los_task.c ****     g_pfnUsrTskSwitchHook = (TSKSWITCHHOOK)NULL; /*lint !e611*/
 1866              		.loc 1 715 27 view .LVU538
 1867 0012 064A     		ldr	r2, .L137+8
 708:D:/fchai/work/i-cube/I-CUBE-HUAWEI/Middlewares/Third_Party/Huawei/iot_link/os/liteos/base/core\los_task.c ****     g_astTskSwitchInfo.ucIsFull = 0x7F & OS_TASK_SWITCH_INFO_COUNT;
 1868              		.loc 1 708 11 view .LVU539
 1869 0014 0346     		mov	r3, r0
 709:D:/fchai/work/i-cube/I-CUBE-HUAWEI/Middlewares/Third_Party/Huawei/iot_link/os/liteos/base/core\los_task.c ****     g_astTskSwitchInfo.ucIsFull = 0x7F & OS_TASK_SWITCH_INFO_COUNT;
 1870              		.loc 1 709 5 is_stmt 1 view .LVU540
 714:D:/fchai/work/i-cube/I-CUBE-HUAWEI/Middlewares/Third_Party/Huawei/iot_link/os/liteos/base/core\los_task.c ****     g_pfnUsrTskSwitchHook = (TSKSWITCHHOOK)NULL; /*lint !e611*/
 1871              		.loc 1 714 24 is_stmt 0 view .LVU541
 1872 0016 0648     		ldr	r0, .L137+12
 1873 0018 0860     		str	r0, [r1]
 709:D:/fchai/work/i-cube/I-CUBE-HUAWEI/Middlewares/Third_Party/Huawei/iot_link/os/liteos/base/core\los_task.c **** #if ((LOSCFG_PLATFORM_EXC == YES) && (LOSCFG_SAVE_EXC_INFO == YES))
 1874              		.loc 1 709 33 view .LVU542
 1875 001a 0A20     		movs	r0, #10
 1876              		.loc 1 715 27 view .LVU543
 1877 001c 0021     		movs	r1, #0
 709:D:/fchai/work/i-cube/I-CUBE-HUAWEI/Middlewares/Third_Party/Huawei/iot_link/os/liteos/base/core\los_task.c **** #if ((LOSCFG_PLATFORM_EXC == YES) && (LOSCFG_SAVE_EXC_INFO == YES))
 1878              		.loc 1 709 33 view .LVU544
 1879 001e 5870     		strb	r0, [r3, #1]
 714:D:/fchai/work/i-cube/I-CUBE-HUAWEI/Middlewares/Third_Party/Huawei/iot_link/os/liteos/base/core\los_task.c ****     g_pfnUsrTskSwitchHook = (TSKSWITCHHOOK)NULL; /*lint !e611*/
 1880              		.loc 1 714 5 is_stmt 1 view .LVU545
 1881              		.loc 1 715 5 view .LVU546
 1882              		.loc 1 715 27 is_stmt 0 view .LVU547
 1883 0020 1160     		str	r1, [r2]
 716:D:/fchai/work/i-cube/I-CUBE-HUAWEI/Middlewares/Third_Party/Huawei/iot_link/os/liteos/base/core\los_task.c ****     return ;
 1884              		.loc 1 716 5 is_stmt 1 view .LVU548
 717:D:/fchai/work/i-cube/I-CUBE-HUAWEI/Middlewares/Third_Party/Huawei/iot_link/os/liteos/base/core\los_task.c **** }
ARM GAS  T:\msys\tmp\ccehPeV4.s 			page 59


 1885              		.loc 1 717 1 is_stmt 0 view .LVU549
 1886 0022 08BD     		pop	{r3, pc}
 1887              	.L138:
 1888              		.align	2
 1889              	.L137:
 1890 0024 00000000 		.word	g_astTskSwitchInfo
 1891 0028 00000000 		.word	.LANCHOR1
 1892 002c 00000000 		.word	.LANCHOR0
 1893 0030 00000000 		.word	osTaskSwitchCheck
 1894              		.cfi_endproc
 1895              	.LFE147:
 1897              		.section	.text.LOS_TaskCreateOnly,"ax",%progbits
 1898              		.align	1
 1899              		.p2align 2,,3
 1900              		.global	LOS_TaskCreateOnly
 1901              		.syntax unified
 1902              		.thumb
 1903              		.thumb_func
 1904              		.fpu fpv4-sp-d16
 1906              	LOS_TaskCreateOnly:
 1907              	.LVL122:
 1908              	.LFB149:
 718:D:/fchai/work/i-cube/I-CUBE-HUAWEI/Middlewares/Third_Party/Huawei/iot_link/os/liteos/base/core\los_task.c **** #endif
 719:D:/fchai/work/i-cube/I-CUBE-HUAWEI/Middlewares/Third_Party/Huawei/iot_link/os/liteos/base/core\los_task.c **** 
 720:D:/fchai/work/i-cube/I-CUBE-HUAWEI/Middlewares/Third_Party/Huawei/iot_link/os/liteos/base/core\los_task.c **** /*****************************************************************************
 721:D:/fchai/work/i-cube/I-CUBE-HUAWEI/Middlewares/Third_Party/Huawei/iot_link/os/liteos/base/core\los_task.c ****  Function : osTaskEntry
 722:D:/fchai/work/i-cube/I-CUBE-HUAWEI/Middlewares/Third_Party/Huawei/iot_link/os/liteos/base/core\los_task.c ****  Description : All task entry
 723:D:/fchai/work/i-cube/I-CUBE-HUAWEI/Middlewares/Third_Party/Huawei/iot_link/os/liteos/base/core\los_task.c ****  Input       : uwTaskID     --- The ID of the task to be run
 724:D:/fchai/work/i-cube/I-CUBE-HUAWEI/Middlewares/Third_Party/Huawei/iot_link/os/liteos/base/core\los_task.c ****  Output      : None
 725:D:/fchai/work/i-cube/I-CUBE-HUAWEI/Middlewares/Third_Party/Huawei/iot_link/os/liteos/base/core\los_task.c ****  Return      : None
 726:D:/fchai/work/i-cube/I-CUBE-HUAWEI/Middlewares/Third_Party/Huawei/iot_link/os/liteos/base/core\los_task.c ****  *****************************************************************************/
 727:D:/fchai/work/i-cube/I-CUBE-HUAWEI/Middlewares/Third_Party/Huawei/iot_link/os/liteos/base/core\los_task.c **** LITE_OS_SEC_TEXT_INIT VOID osTaskEntry(UINT32 uwTaskID)
 728:D:/fchai/work/i-cube/I-CUBE-HUAWEI/Middlewares/Third_Party/Huawei/iot_link/os/liteos/base/core\los_task.c **** {
 729:D:/fchai/work/i-cube/I-CUBE-HUAWEI/Middlewares/Third_Party/Huawei/iot_link/os/liteos/base/core\los_task.c ****     LOS_TASK_CB *pstTaskCB;
 730:D:/fchai/work/i-cube/I-CUBE-HUAWEI/Middlewares/Third_Party/Huawei/iot_link/os/liteos/base/core\los_task.c **** 
 731:D:/fchai/work/i-cube/I-CUBE-HUAWEI/Middlewares/Third_Party/Huawei/iot_link/os/liteos/base/core\los_task.c ****     OS_TASK_ID_CHECK(uwTaskID);
 732:D:/fchai/work/i-cube/I-CUBE-HUAWEI/Middlewares/Third_Party/Huawei/iot_link/os/liteos/base/core\los_task.c **** 
 733:D:/fchai/work/i-cube/I-CUBE-HUAWEI/Middlewares/Third_Party/Huawei/iot_link/os/liteos/base/core\los_task.c ****     pstTaskCB = OS_TCB_FROM_TID(uwTaskID);
 734:D:/fchai/work/i-cube/I-CUBE-HUAWEI/Middlewares/Third_Party/Huawei/iot_link/os/liteos/base/core\los_task.c **** 
 735:D:/fchai/work/i-cube/I-CUBE-HUAWEI/Middlewares/Third_Party/Huawei/iot_link/os/liteos/base/core\los_task.c ****     (VOID)pstTaskCB->pfnTaskEntry(pstTaskCB->uwArg);
 736:D:/fchai/work/i-cube/I-CUBE-HUAWEI/Middlewares/Third_Party/Huawei/iot_link/os/liteos/base/core\los_task.c **** 
 737:D:/fchai/work/i-cube/I-CUBE-HUAWEI/Middlewares/Third_Party/Huawei/iot_link/os/liteos/base/core\los_task.c ****     (VOID)LOS_TaskDelete(pstTaskCB->uwTaskID);
 738:D:/fchai/work/i-cube/I-CUBE-HUAWEI/Middlewares/Third_Party/Huawei/iot_link/os/liteos/base/core\los_task.c **** }
 739:D:/fchai/work/i-cube/I-CUBE-HUAWEI/Middlewares/Third_Party/Huawei/iot_link/os/liteos/base/core\los_task.c **** 
 740:D:/fchai/work/i-cube/I-CUBE-HUAWEI/Middlewares/Third_Party/Huawei/iot_link/os/liteos/base/core\los_task.c **** #if (LOSCFG_STATIC_TASK == YES)
 741:D:/fchai/work/i-cube/I-CUBE-HUAWEI/Middlewares/Third_Party/Huawei/iot_link/os/liteos/base/core\los_task.c **** 
 742:D:/fchai/work/i-cube/I-CUBE-HUAWEI/Middlewares/Third_Party/Huawei/iot_link/os/liteos/base/core\los_task.c **** /*****************************************************************************
 743:D:/fchai/work/i-cube/I-CUBE-HUAWEI/Middlewares/Third_Party/Huawei/iot_link/os/liteos/base/core\los_task.c ****  Function    : LOS_StaticTaskInit
 744:D:/fchai/work/i-cube/I-CUBE-HUAWEI/Middlewares/Third_Party/Huawei/iot_link/os/liteos/base/core\los_task.c ****  Description : Initialize a task defined statically.
 745:D:/fchai/work/i-cube/I-CUBE-HUAWEI/Middlewares/Third_Party/Huawei/iot_link/os/liteos/base/core\los_task.c ****  Input       : pvTaskCB  --- task control block to be initialized
 746:D:/fchai/work/i-cube/I-CUBE-HUAWEI/Middlewares/Third_Party/Huawei/iot_link/os/liteos/base/core\los_task.c ****  Output      : puwTaskID --- task ID allocated for this task
 747:D:/fchai/work/i-cube/I-CUBE-HUAWEI/Middlewares/Third_Party/Huawei/iot_link/os/liteos/base/core\los_task.c ****  Return      : LOS_OK on success or error code on failure
 748:D:/fchai/work/i-cube/I-CUBE-HUAWEI/Middlewares/Third_Party/Huawei/iot_link/os/liteos/base/core\los_task.c ****  *****************************************************************************/
 749:D:/fchai/work/i-cube/I-CUBE-HUAWEI/Middlewares/Third_Party/Huawei/iot_link/os/liteos/base/core\los_task.c **** UINT32 LOS_StaticTaskInit(void *pvTaskCB, UINT32 *puwTaskID)
 750:D:/fchai/work/i-cube/I-CUBE-HUAWEI/Middlewares/Third_Party/Huawei/iot_link/os/liteos/base/core\los_task.c **** {
 751:D:/fchai/work/i-cube/I-CUBE-HUAWEI/Middlewares/Third_Party/Huawei/iot_link/os/liteos/base/core\los_task.c ****     static UINT32 uwTaskID = 0;
 752:D:/fchai/work/i-cube/I-CUBE-HUAWEI/Middlewares/Third_Party/Huawei/iot_link/os/liteos/base/core\los_task.c ****     UINTPTR uvIntSave;
ARM GAS  T:\msys\tmp\ccehPeV4.s 			page 60


 753:D:/fchai/work/i-cube/I-CUBE-HUAWEI/Middlewares/Third_Party/Huawei/iot_link/os/liteos/base/core\los_task.c ****     LOS_TASK_CB *pstTaskCB = (LOS_TASK_CB *)pvTaskCB;
 754:D:/fchai/work/i-cube/I-CUBE-HUAWEI/Middlewares/Third_Party/Huawei/iot_link/os/liteos/base/core\los_task.c **** 
 755:D:/fchai/work/i-cube/I-CUBE-HUAWEI/Middlewares/Third_Party/Huawei/iot_link/os/liteos/base/core\los_task.c ****     uvIntSave = LOS_IntLock();
 756:D:/fchai/work/i-cube/I-CUBE-HUAWEI/Middlewares/Third_Party/Huawei/iot_link/os/liteos/base/core\los_task.c **** 
 757:D:/fchai/work/i-cube/I-CUBE-HUAWEI/Middlewares/Third_Party/Huawei/iot_link/os/liteos/base/core\los_task.c ****     if (uwTaskID >= g_uwTskMaxNum)
 758:D:/fchai/work/i-cube/I-CUBE-HUAWEI/Middlewares/Third_Party/Huawei/iot_link/os/liteos/base/core\los_task.c ****         {
 759:D:/fchai/work/i-cube/I-CUBE-HUAWEI/Middlewares/Third_Party/Huawei/iot_link/os/liteos/base/core\los_task.c ****         LOS_IntRestore (uvIntSave);
 760:D:/fchai/work/i-cube/I-CUBE-HUAWEI/Middlewares/Third_Party/Huawei/iot_link/os/liteos/base/core\los_task.c ****         return LOS_ERRNO_TSK_NO_MEMORY;
 761:D:/fchai/work/i-cube/I-CUBE-HUAWEI/Middlewares/Third_Party/Huawei/iot_link/os/liteos/base/core\los_task.c ****         }
 762:D:/fchai/work/i-cube/I-CUBE-HUAWEI/Middlewares/Third_Party/Huawei/iot_link/os/liteos/base/core\los_task.c **** 
 763:D:/fchai/work/i-cube/I-CUBE-HUAWEI/Middlewares/Third_Party/Huawei/iot_link/os/liteos/base/core\los_task.c ****     pstTaskCB->uwTaskID = uwTaskID++;
 764:D:/fchai/work/i-cube/I-CUBE-HUAWEI/Middlewares/Third_Party/Huawei/iot_link/os/liteos/base/core\los_task.c ****     LOS_IntRestore (uvIntSave);
 765:D:/fchai/work/i-cube/I-CUBE-HUAWEI/Middlewares/Third_Party/Huawei/iot_link/os/liteos/base/core\los_task.c **** 
 766:D:/fchai/work/i-cube/I-CUBE-HUAWEI/Middlewares/Third_Party/Huawei/iot_link/os/liteos/base/core\los_task.c ****     g_apstTaskCBArray[pstTaskCB->uwTaskID] = pstTaskCB;
 767:D:/fchai/work/i-cube/I-CUBE-HUAWEI/Middlewares/Third_Party/Huawei/iot_link/os/liteos/base/core\los_task.c **** 
 768:D:/fchai/work/i-cube/I-CUBE-HUAWEI/Middlewares/Third_Party/Huawei/iot_link/os/liteos/base/core\los_task.c ****     pstTaskCB->usTaskStatus = OS_TASK_STATUS_READY;
 769:D:/fchai/work/i-cube/I-CUBE-HUAWEI/Middlewares/Third_Party/Huawei/iot_link/os/liteos/base/core\los_task.c **** 
 770:D:/fchai/work/i-cube/I-CUBE-HUAWEI/Middlewares/Third_Party/Huawei/iot_link/os/liteos/base/core\los_task.c ****     pstTaskCB->uwTopOfStack = (UINT32) pstTaskCB->pStackPointer;
 771:D:/fchai/work/i-cube/I-CUBE-HUAWEI/Middlewares/Third_Party/Huawei/iot_link/os/liteos/base/core\los_task.c **** 
 772:D:/fchai/work/i-cube/I-CUBE-HUAWEI/Middlewares/Third_Party/Huawei/iot_link/os/liteos/base/core\los_task.c ****     osTskStackInit(pstTaskCB, NULL);
 773:D:/fchai/work/i-cube/I-CUBE-HUAWEI/Middlewares/Third_Party/Huawei/iot_link/os/liteos/base/core\los_task.c **** 
 774:D:/fchai/work/i-cube/I-CUBE-HUAWEI/Middlewares/Third_Party/Huawei/iot_link/os/liteos/base/core\los_task.c ****     osPriqueueEnqueue(&pstTaskCB->stPendList, pstTaskCB->usPriority);
 775:D:/fchai/work/i-cube/I-CUBE-HUAWEI/Middlewares/Third_Party/Huawei/iot_link/os/liteos/base/core\los_task.c ****     g_stLosTask.pstNewTask = LOS_DL_LIST_ENTRY(osPriqueueTop(), LOS_TASK_CB, stPendList); /*lint !e
 776:D:/fchai/work/i-cube/I-CUBE-HUAWEI/Middlewares/Third_Party/Huawei/iot_link/os/liteos/base/core\los_task.c **** 
 777:D:/fchai/work/i-cube/I-CUBE-HUAWEI/Middlewares/Third_Party/Huawei/iot_link/os/liteos/base/core\los_task.c ****     *puwTaskID = pstTaskCB->uwTaskID;
 778:D:/fchai/work/i-cube/I-CUBE-HUAWEI/Middlewares/Third_Party/Huawei/iot_link/os/liteos/base/core\los_task.c **** 
 779:D:/fchai/work/i-cube/I-CUBE-HUAWEI/Middlewares/Third_Party/Huawei/iot_link/os/liteos/base/core\los_task.c ****     return LOS_OK;
 780:D:/fchai/work/i-cube/I-CUBE-HUAWEI/Middlewares/Third_Party/Huawei/iot_link/os/liteos/base/core\los_task.c **** }
 781:D:/fchai/work/i-cube/I-CUBE-HUAWEI/Middlewares/Third_Party/Huawei/iot_link/os/liteos/base/core\los_task.c **** 
 782:D:/fchai/work/i-cube/I-CUBE-HUAWEI/Middlewares/Third_Party/Huawei/iot_link/os/liteos/base/core\los_task.c **** #else
 783:D:/fchai/work/i-cube/I-CUBE-HUAWEI/Middlewares/Third_Party/Huawei/iot_link/os/liteos/base/core\los_task.c **** 
 784:D:/fchai/work/i-cube/I-CUBE-HUAWEI/Middlewares/Third_Party/Huawei/iot_link/os/liteos/base/core\los_task.c **** /*****************************************************************************
 785:D:/fchai/work/i-cube/I-CUBE-HUAWEI/Middlewares/Third_Party/Huawei/iot_link/os/liteos/base/core\los_task.c ****  Function : LOS_TaskCreateOnly
 786:D:/fchai/work/i-cube/I-CUBE-HUAWEI/Middlewares/Third_Party/Huawei/iot_link/os/liteos/base/core\los_task.c ****  Description : Create a task and suspend
 787:D:/fchai/work/i-cube/I-CUBE-HUAWEI/Middlewares/Third_Party/Huawei/iot_link/os/liteos/base/core\los_task.c ****  Input       : pstInitParam --- Task init parameters
 788:D:/fchai/work/i-cube/I-CUBE-HUAWEI/Middlewares/Third_Party/Huawei/iot_link/os/liteos/base/core\los_task.c ****  Output      : puwTaskID    --- Save task ID
 789:D:/fchai/work/i-cube/I-CUBE-HUAWEI/Middlewares/Third_Party/Huawei/iot_link/os/liteos/base/core\los_task.c ****  Return      : LOS_OK on success or error code on failure
 790:D:/fchai/work/i-cube/I-CUBE-HUAWEI/Middlewares/Third_Party/Huawei/iot_link/os/liteos/base/core\los_task.c ****  *****************************************************************************/
 791:D:/fchai/work/i-cube/I-CUBE-HUAWEI/Middlewares/Third_Party/Huawei/iot_link/os/liteos/base/core\los_task.c **** LITE_OS_SEC_TEXT_INIT UINT32 LOS_TaskCreateOnly(UINT32 *puwTaskID, TSK_INIT_PARAM_S *pstInitParam)
 792:D:/fchai/work/i-cube/I-CUBE-HUAWEI/Middlewares/Third_Party/Huawei/iot_link/os/liteos/base/core\los_task.c **** {
 1909              		.loc 1 792 1 is_stmt 1 view -0
 1910              		.cfi_startproc
 1911              		@ args = 0, pretend = 0, frame = 0
 1912              		@ frame_needed = 0, uses_anonymous_args = 0
 793:D:/fchai/work/i-cube/I-CUBE-HUAWEI/Middlewares/Third_Party/Huawei/iot_link/os/liteos/base/core\los_task.c ****     UINT32 uwTaskID = 0;
 1913              		.loc 1 793 5 view .LVU551
 794:D:/fchai/work/i-cube/I-CUBE-HUAWEI/Middlewares/Third_Party/Huawei/iot_link/os/liteos/base/core\los_task.c ****     UINTPTR uvIntSave;
 1914              		.loc 1 794 5 view .LVU552
 795:D:/fchai/work/i-cube/I-CUBE-HUAWEI/Middlewares/Third_Party/Huawei/iot_link/os/liteos/base/core\los_task.c ****     VOID  *pTopStack;
 1915              		.loc 1 795 5 view .LVU553
 796:D:/fchai/work/i-cube/I-CUBE-HUAWEI/Middlewares/Third_Party/Huawei/iot_link/os/liteos/base/core\los_task.c ****     LOS_TASK_CB *pstTaskCB;
 1916              		.loc 1 796 5 view .LVU554
 797:D:/fchai/work/i-cube/I-CUBE-HUAWEI/Middlewares/Third_Party/Huawei/iot_link/os/liteos/base/core\los_task.c ****     UINT32 uwErrRet = OS_ERROR;
 1917              		.loc 1 797 5 view .LVU555
 798:D:/fchai/work/i-cube/I-CUBE-HUAWEI/Middlewares/Third_Party/Huawei/iot_link/os/liteos/base/core\los_task.c **** 
 799:D:/fchai/work/i-cube/I-CUBE-HUAWEI/Middlewares/Third_Party/Huawei/iot_link/os/liteos/base/core\los_task.c ****     if (NULL == puwTaskID)
 1918              		.loc 1 799 5 view .LVU556
ARM GAS  T:\msys\tmp\ccehPeV4.s 			page 61


 792:D:/fchai/work/i-cube/I-CUBE-HUAWEI/Middlewares/Third_Party/Huawei/iot_link/os/liteos/base/core\los_task.c ****     UINT32 uwTaskID = 0;
 1919              		.loc 1 792 1 is_stmt 0 view .LVU557
 1920 0000 2DE9F84F 		push	{r3, r4, r5, r6, r7, r8, r9, r10, fp, lr}
 1921              	.LCFI27:
 1922              		.cfi_def_cfa_offset 40
 1923              		.cfi_offset 3, -40
 1924              		.cfi_offset 4, -36
 1925              		.cfi_offset 5, -32
 1926              		.cfi_offset 6, -28
 1927              		.cfi_offset 7, -24
 1928              		.cfi_offset 8, -20
 1929              		.cfi_offset 9, -16
 1930              		.cfi_offset 10, -12
 1931              		.cfi_offset 11, -8
 1932              		.cfi_offset 14, -4
 1933              		.loc 1 799 8 view .LVU558
 1934 0004 0028     		cmp	r0, #0
 1935 0006 00F08D80 		beq	.L148
 800:D:/fchai/work/i-cube/I-CUBE-HUAWEI/Middlewares/Third_Party/Huawei/iot_link/os/liteos/base/core\los_task.c ****     {
 801:D:/fchai/work/i-cube/I-CUBE-HUAWEI/Middlewares/Third_Party/Huawei/iot_link/os/liteos/base/core\los_task.c ****         return LOS_ERRNO_TSK_ID_INVALID;
 802:D:/fchai/work/i-cube/I-CUBE-HUAWEI/Middlewares/Third_Party/Huawei/iot_link/os/liteos/base/core\los_task.c ****     }
 803:D:/fchai/work/i-cube/I-CUBE-HUAWEI/Middlewares/Third_Party/Huawei/iot_link/os/liteos/base/core\los_task.c **** 
 804:D:/fchai/work/i-cube/I-CUBE-HUAWEI/Middlewares/Third_Party/Huawei/iot_link/os/liteos/base/core\los_task.c ****     if (NULL == pstInitParam)
 1936              		.loc 1 804 5 is_stmt 1 view .LVU559
 1937 000a 0D46     		mov	r5, r1
 1938              		.loc 1 804 8 is_stmt 0 view .LVU560
 1939 000c 0029     		cmp	r1, #0
 1940 000e 00F08D80 		beq	.L149
 805:D:/fchai/work/i-cube/I-CUBE-HUAWEI/Middlewares/Third_Party/Huawei/iot_link/os/liteos/base/core\los_task.c ****     {
 806:D:/fchai/work/i-cube/I-CUBE-HUAWEI/Middlewares/Third_Party/Huawei/iot_link/os/liteos/base/core\los_task.c ****         return LOS_ERRNO_TSK_PTR_NULL;
 807:D:/fchai/work/i-cube/I-CUBE-HUAWEI/Middlewares/Third_Party/Huawei/iot_link/os/liteos/base/core\los_task.c ****     }
 808:D:/fchai/work/i-cube/I-CUBE-HUAWEI/Middlewares/Third_Party/Huawei/iot_link/os/liteos/base/core\los_task.c **** 
 809:D:/fchai/work/i-cube/I-CUBE-HUAWEI/Middlewares/Third_Party/Huawei/iot_link/os/liteos/base/core\los_task.c ****     if (NULL == pstInitParam->pcName)
 1941              		.loc 1 809 5 is_stmt 1 view .LVU561
 1942              		.loc 1 809 8 is_stmt 0 view .LVU562
 1943 0012 0B69     		ldr	r3, [r1, #16]
 1944 0014 002B     		cmp	r3, #0
 1945 0016 00F08B80 		beq	.L150
 810:D:/fchai/work/i-cube/I-CUBE-HUAWEI/Middlewares/Third_Party/Huawei/iot_link/os/liteos/base/core\los_task.c ****     {
 811:D:/fchai/work/i-cube/I-CUBE-HUAWEI/Middlewares/Third_Party/Huawei/iot_link/os/liteos/base/core\los_task.c ****         return LOS_ERRNO_TSK_NAME_EMPTY;
 812:D:/fchai/work/i-cube/I-CUBE-HUAWEI/Middlewares/Third_Party/Huawei/iot_link/os/liteos/base/core\los_task.c ****     }
 813:D:/fchai/work/i-cube/I-CUBE-HUAWEI/Middlewares/Third_Party/Huawei/iot_link/os/liteos/base/core\los_task.c **** 
 814:D:/fchai/work/i-cube/I-CUBE-HUAWEI/Middlewares/Third_Party/Huawei/iot_link/os/liteos/base/core\los_task.c ****     if (NULL == pstInitParam->pfnTaskEntry)
 1946              		.loc 1 814 5 is_stmt 1 view .LVU563
 1947              		.loc 1 814 29 is_stmt 0 view .LVU564
 1948 001a 0B68     		ldr	r3, [r1]
 1949              		.loc 1 814 8 view .LVU565
 1950 001c 002B     		cmp	r3, #0
 1951 001e 00F08980 		beq	.L151
 815:D:/fchai/work/i-cube/I-CUBE-HUAWEI/Middlewares/Third_Party/Huawei/iot_link/os/liteos/base/core\los_task.c ****     {
 816:D:/fchai/work/i-cube/I-CUBE-HUAWEI/Middlewares/Third_Party/Huawei/iot_link/os/liteos/base/core\los_task.c ****         return LOS_ERRNO_TSK_ENTRY_NULL;
 817:D:/fchai/work/i-cube/I-CUBE-HUAWEI/Middlewares/Third_Party/Huawei/iot_link/os/liteos/base/core\los_task.c ****     }
 818:D:/fchai/work/i-cube/I-CUBE-HUAWEI/Middlewares/Third_Party/Huawei/iot_link/os/liteos/base/core\los_task.c **** 
 819:D:/fchai/work/i-cube/I-CUBE-HUAWEI/Middlewares/Third_Party/Huawei/iot_link/os/liteos/base/core\los_task.c ****     if ((pstInitParam->usTaskPrio) > OS_TASK_PRIORITY_LOWEST)
 1952              		.loc 1 819 5 is_stmt 1 view .LVU566
 1953              		.loc 1 819 22 is_stmt 0 view .LVU567
 1954 0022 8A88     		ldrh	r2, [r1, #4]
ARM GAS  T:\msys\tmp\ccehPeV4.s 			page 62


 1955              		.loc 1 819 8 view .LVU568
 1956 0024 1F2A     		cmp	r2, #31
 1957 0026 6ED8     		bhi	.L153
 1958 0028 8046     		mov	r8, r0
 820:D:/fchai/work/i-cube/I-CUBE-HUAWEI/Middlewares/Third_Party/Huawei/iot_link/os/liteos/base/core\los_task.c ****     {
 821:D:/fchai/work/i-cube/I-CUBE-HUAWEI/Middlewares/Third_Party/Huawei/iot_link/os/liteos/base/core\los_task.c ****         return LOS_ERRNO_TSK_PRIOR_ERROR;
 822:D:/fchai/work/i-cube/I-CUBE-HUAWEI/Middlewares/Third_Party/Huawei/iot_link/os/liteos/base/core\los_task.c ****     }
 823:D:/fchai/work/i-cube/I-CUBE-HUAWEI/Middlewares/Third_Party/Huawei/iot_link/os/liteos/base/core\los_task.c **** 
 824:D:/fchai/work/i-cube/I-CUBE-HUAWEI/Middlewares/Third_Party/Huawei/iot_link/os/liteos/base/core\los_task.c ****     if (((pstInitParam->usTaskPrio) == OS_TASK_PRIORITY_LOWEST)
 1959              		.loc 1 824 5 is_stmt 1 view .LVU569
 1960              		.loc 1 824 8 is_stmt 0 view .LVU570
 1961 002a 69D0     		beq	.L160
 1962              	.L141:
 825:D:/fchai/work/i-cube/I-CUBE-HUAWEI/Middlewares/Third_Party/Huawei/iot_link/os/liteos/base/core\los_task.c ****         && (pstInitParam->pfnTaskEntry != OS_IDLE_TASK_ENTRY))
 826:D:/fchai/work/i-cube/I-CUBE-HUAWEI/Middlewares/Third_Party/Huawei/iot_link/os/liteos/base/core\los_task.c ****     {
 827:D:/fchai/work/i-cube/I-CUBE-HUAWEI/Middlewares/Third_Party/Huawei/iot_link/os/liteos/base/core\los_task.c ****         return LOS_ERRNO_TSK_PRIOR_ERROR;
 828:D:/fchai/work/i-cube/I-CUBE-HUAWEI/Middlewares/Third_Party/Huawei/iot_link/os/liteos/base/core\los_task.c ****     }
 829:D:/fchai/work/i-cube/I-CUBE-HUAWEI/Middlewares/Third_Party/Huawei/iot_link/os/liteos/base/core\los_task.c **** 
 830:D:/fchai/work/i-cube/I-CUBE-HUAWEI/Middlewares/Third_Party/Huawei/iot_link/os/liteos/base/core\los_task.c ****     if (0 == pstInitParam->uwStackSize)
 1963              		.loc 1 830 5 is_stmt 1 view .LVU571
 1964              		.loc 1 830 26 is_stmt 0 view .LVU572
 1965 002c E868     		ldr	r0, [r5, #12]
 1966              	.LVL123:
 1967              		.loc 1 830 8 view .LVU573
 1968 002e 10B9     		cbnz	r0, .L142
 831:D:/fchai/work/i-cube/I-CUBE-HUAWEI/Middlewares/Third_Party/Huawei/iot_link/os/liteos/base/core\los_task.c ****     {
 832:D:/fchai/work/i-cube/I-CUBE-HUAWEI/Middlewares/Third_Party/Huawei/iot_link/os/liteos/base/core\los_task.c ****         pstInitParam->uwStackSize = LOSCFG_BASE_CORE_TSK_DEFAULT_STACK_SIZE;
 1969              		.loc 1 832 9 is_stmt 1 view .LVU574
 1970              		.loc 1 832 35 is_stmt 0 view .LVU575
 1971 0030 4FF43470 		mov	r0, #720
 1972 0034 E860     		str	r0, [r5, #12]
 1973              	.L142:
 833:D:/fchai/work/i-cube/I-CUBE-HUAWEI/Middlewares/Third_Party/Huawei/iot_link/os/liteos/base/core\los_task.c ****     }
 834:D:/fchai/work/i-cube/I-CUBE-HUAWEI/Middlewares/Third_Party/Huawei/iot_link/os/liteos/base/core\los_task.c ****     pstInitParam->uwStackSize = ALIGN(pstInitParam->uwStackSize , LOSCFG_STACK_POINT_ALIGN_SIZE);
 1974              		.loc 1 834 5 is_stmt 1 view .LVU576
 1975              		.loc 1 834 33 is_stmt 0 view .LVU577
 1976 0036 0821     		movs	r1, #8
 1977              	.LVL124:
 1978              		.loc 1 834 33 view .LVU578
 1979 0038 FFF7FEFF 		bl	LOS_Align
 1980              	.LVL125:
 835:D:/fchai/work/i-cube/I-CUBE-HUAWEI/Middlewares/Third_Party/Huawei/iot_link/os/liteos/base/core\los_task.c **** 
 836:D:/fchai/work/i-cube/I-CUBE-HUAWEI/Middlewares/Third_Party/Huawei/iot_link/os/liteos/base/core\los_task.c ****     if (pstInitParam->uwStackSize < LOSCFG_BASE_CORE_TSK_MIN_STACK_SIZE)
 1981              		.loc 1 836 8 view .LVU579
 1982 003c B0F5987F 		cmp	r0, #304
 834:D:/fchai/work/i-cube/I-CUBE-HUAWEI/Middlewares/Third_Party/Huawei/iot_link/os/liteos/base/core\los_task.c **** 
 1983              		.loc 1 834 31 view .LVU580
 1984 0040 E860     		str	r0, [r5, #12]
 1985              		.loc 1 836 5 is_stmt 1 view .LVU581
 1986              		.loc 1 836 8 is_stmt 0 view .LVU582
 1987 0042 6BD3     		bcc	.L154
 1988              	.LVL126:
 1989              	.LBB163:
 1990              	.LBI163:
 791:D:/fchai/work/i-cube/I-CUBE-HUAWEI/Middlewares/Third_Party/Huawei/iot_link/os/liteos/base/core\los_task.c **** {
 1991              		.loc 1 791 30 is_stmt 1 view .LVU583
 1992              	.LBB164:
ARM GAS  T:\msys\tmp\ccehPeV4.s 			page 63


 837:D:/fchai/work/i-cube/I-CUBE-HUAWEI/Middlewares/Third_Party/Huawei/iot_link/os/liteos/base/core\los_task.c ****     {
 838:D:/fchai/work/i-cube/I-CUBE-HUAWEI/Middlewares/Third_Party/Huawei/iot_link/os/liteos/base/core\los_task.c ****         return LOS_ERRNO_TSK_STKSZ_TOO_SMALL;
 839:D:/fchai/work/i-cube/I-CUBE-HUAWEI/Middlewares/Third_Party/Huawei/iot_link/os/liteos/base/core\los_task.c ****     }
 840:D:/fchai/work/i-cube/I-CUBE-HUAWEI/Middlewares/Third_Party/Huawei/iot_link/os/liteos/base/core\los_task.c **** 
 841:D:/fchai/work/i-cube/I-CUBE-HUAWEI/Middlewares/Third_Party/Huawei/iot_link/os/liteos/base/core\los_task.c ****     uvIntSave = LOS_IntLock();
 1993              		.loc 1 841 5 view .LVU584
 1994              	.LBB165:
 1995              	.LBB166:
 189:D:/fchai/work/i-cube/I-CUBE-HUAWEI/Middlewares/Third_Party/Huawei/iot_link/os/liteos/include\los_list.h **** }
 190:D:/fchai/work/i-cube/I-CUBE-HUAWEI/Middlewares/Third_Party/Huawei/iot_link/os/liteos/include\los_list.h **** 
 191:D:/fchai/work/i-cube/I-CUBE-HUAWEI/Middlewares/Third_Party/Huawei/iot_link/os/liteos/include\los_list.h **** /**
 192:D:/fchai/work/i-cube/I-CUBE-HUAWEI/Middlewares/Third_Party/Huawei/iot_link/os/liteos/include\los_list.h ****  *@ingroup los_list
 193:D:/fchai/work/i-cube/I-CUBE-HUAWEI/Middlewares/Third_Party/Huawei/iot_link/os/liteos/include\los_list.h ****  *@brief Identify whether a specified doubly linked list is empty.
 194:D:/fchai/work/i-cube/I-CUBE-HUAWEI/Middlewares/Third_Party/Huawei/iot_link/os/liteos/include\los_list.h ****  *
 195:D:/fchai/work/i-cube/I-CUBE-HUAWEI/Middlewares/Third_Party/Huawei/iot_link/os/liteos/include\los_list.h ****  *@par Description:
 196:D:/fchai/work/i-cube/I-CUBE-HUAWEI/Middlewares/Third_Party/Huawei/iot_link/os/liteos/include\los_list.h ****  *<ul>
 197:D:/fchai/work/i-cube/I-CUBE-HUAWEI/Middlewares/Third_Party/Huawei/iot_link/os/liteos/include\los_list.h ****  *<li>This API is used to return whether a doubly linked list is empty.</li>
 198:D:/fchai/work/i-cube/I-CUBE-HUAWEI/Middlewares/Third_Party/Huawei/iot_link/os/liteos/include\los_list.h ****  *</ul>
 199:D:/fchai/work/i-cube/I-CUBE-HUAWEI/Middlewares/Third_Party/Huawei/iot_link/os/liteos/include\los_list.h ****  *@attention
 200:D:/fchai/work/i-cube/I-CUBE-HUAWEI/Middlewares/Third_Party/Huawei/iot_link/os/liteos/include\los_list.h ****  *<ul>
 201:D:/fchai/work/i-cube/I-CUBE-HUAWEI/Middlewares/Third_Party/Huawei/iot_link/os/liteos/include\los_list.h ****  *<li>The parameter passed in should be ensured to be a legal pointer.</li>
 202:D:/fchai/work/i-cube/I-CUBE-HUAWEI/Middlewares/Third_Party/Huawei/iot_link/os/liteos/include\los_list.h ****  *</ul>
 203:D:/fchai/work/i-cube/I-CUBE-HUAWEI/Middlewares/Third_Party/Huawei/iot_link/os/liteos/include\los_list.h ****  *
 204:D:/fchai/work/i-cube/I-CUBE-HUAWEI/Middlewares/Third_Party/Huawei/iot_link/os/liteos/include\los_list.h ****  *@param pstList  [IN] Doubly linked list.
 205:D:/fchai/work/i-cube/I-CUBE-HUAWEI/Middlewares/Third_Party/Huawei/iot_link/os/liteos/include\los_list.h ****  *
 206:D:/fchai/work/i-cube/I-CUBE-HUAWEI/Middlewares/Third_Party/Huawei/iot_link/os/liteos/include\los_list.h ****  *@retval TRUE The doubly linked list is empty.
 207:D:/fchai/work/i-cube/I-CUBE-HUAWEI/Middlewares/Third_Party/Huawei/iot_link/os/liteos/include\los_list.h ****  *@retval FALSE The doubly linked list is not empty.
 208:D:/fchai/work/i-cube/I-CUBE-HUAWEI/Middlewares/Third_Party/Huawei/iot_link/os/liteos/include\los_list.h ****  *@par Dependency:
 209:D:/fchai/work/i-cube/I-CUBE-HUAWEI/Middlewares/Third_Party/Huawei/iot_link/os/liteos/include\los_list.h ****  *<ul><li>los_list.h: the header file that contains the API declaration.</li></ul>
 210:D:/fchai/work/i-cube/I-CUBE-HUAWEI/Middlewares/Third_Party/Huawei/iot_link/os/liteos/include\los_list.h ****  *@see
 211:D:/fchai/work/i-cube/I-CUBE-HUAWEI/Middlewares/Third_Party/Huawei/iot_link/os/liteos/include\los_list.h ****  *@since Huawei LiteOS V100R001C00
 212:D:/fchai/work/i-cube/I-CUBE-HUAWEI/Middlewares/Third_Party/Huawei/iot_link/os/liteos/include\los_list.h ****  */
 213:D:/fchai/work/i-cube/I-CUBE-HUAWEI/Middlewares/Third_Party/Huawei/iot_link/os/liteos/include\los_list.h **** LITE_OS_SEC_ALW_INLINE STATIC_INLINE BOOL LOS_ListEmpty(LOS_DL_LIST *pstNode)
 214:D:/fchai/work/i-cube/I-CUBE-HUAWEI/Middlewares/Third_Party/Huawei/iot_link/os/liteos/include\los_list.h **** {
 215:D:/fchai/work/i-cube/I-CUBE-HUAWEI/Middlewares/Third_Party/Huawei/iot_link/os/liteos/include\los_list.h ****     return (BOOL)(pstNode->pstNext == pstNode);
 1996              		.loc 2 215 26 is_stmt 0 view .LVU585
 1997 0044 DFF82CB1 		ldr	fp, .L163+40
 1998 0048 404E     		ldr	r6, .L163
 1999              	.LBE166:
 2000              	.LBE165:
 2001              		.loc 1 841 17 view .LVU586
 2002 004a FFF7FEFF 		bl	LOS_IntLock
 2003              	.LVL127:
 2004              	.LBB170:
 2005              	.LBB167:
 2006              		.loc 2 215 26 view .LVU587
 2007 004e DBF80440 		ldr	r4, [fp, #4]
 2008              	.LBE167:
 2009              	.LBE170:
 842:D:/fchai/work/i-cube/I-CUBE-HUAWEI/Middlewares/Third_Party/Huawei/iot_link/os/liteos/base/core\los_task.c ****     while (!LOS_ListEmpty(&g_stTskRecyleList))
 2010              		.loc 1 842 11 view .LVU588
 2011 0052 5C45     		cmp	r4, fp
 841:D:/fchai/work/i-cube/I-CUBE-HUAWEI/Middlewares/Third_Party/Huawei/iot_link/os/liteos/base/core\los_task.c ****     while (!LOS_ListEmpty(&g_stTskRecyleList))
 2012              		.loc 1 841 17 view .LVU589
 2013 0054 8246     		mov	r10, r0
 2014              	.LVL128:
 2015              		.loc 1 842 5 is_stmt 1 view .LVU590
ARM GAS  T:\msys\tmp\ccehPeV4.s 			page 64


 2016              		.loc 1 842 11 view .LVU591
 2017              	.LBB171:
 2018              	.LBI165:
 213:D:/fchai/work/i-cube/I-CUBE-HUAWEI/Middlewares/Third_Party/Huawei/iot_link/os/liteos/include\los_list.h **** {
 2019              		.loc 2 213 43 view .LVU592
 2020              	.LBB168:
 2021              		.loc 2 215 5 view .LVU593
 2022              		.loc 2 215 5 is_stmt 0 view .LVU594
 2023              	.LBE168:
 2024              	.LBE171:
 2025              		.loc 1 842 11 view .LVU595
 2026 0056 19D0     		beq	.L146
 2027 0058 DFF81C91 		ldr	r9, .L163+44
 2028              	.LBB172:
 2029              	.LBB173:
 187:D:/fchai/work/i-cube/I-CUBE-HUAWEI/Middlewares/Third_Party/Huawei/iot_link/os/liteos/include\los_list.h ****     pstNode->pstPrev = (LOS_DL_LIST *)NULL;
 2030              		.loc 2 187 22 view .LVU596
 2031 005c 0027     		movs	r7, #0
 2032              	.LVL129:
 2033              	.L143:
 187:D:/fchai/work/i-cube/I-CUBE-HUAWEI/Middlewares/Third_Party/Huawei/iot_link/os/liteos/include\los_list.h ****     pstNode->pstPrev = (LOS_DL_LIST *)NULL;
 2034              		.loc 2 187 22 view .LVU597
 2035              	.LBE173:
 2036              	.LBE172:
 843:D:/fchai/work/i-cube/I-CUBE-HUAWEI/Middlewares/Third_Party/Huawei/iot_link/os/liteos/base/core\los_task.c ****     {
 844:D:/fchai/work/i-cube/I-CUBE-HUAWEI/Middlewares/Third_Party/Huawei/iot_link/os/liteos/base/core\los_task.c ****         pstTaskCB = OS_TCB_FROM_PENDLIST(LOS_DL_LIST_FIRST(&g_stTskRecyleList)); /*lint !e413*/
 2037              		.loc 1 844 9 is_stmt 1 view .LVU598
 845:D:/fchai/work/i-cube/I-CUBE-HUAWEI/Middlewares/Third_Party/Huawei/iot_link/os/liteos/base/core\los_task.c ****         LOS_ListDelete(LOS_DL_LIST_FIRST(&g_stTskRecyleList));
 2038              		.loc 1 845 9 view .LVU599
 2039              	.LBB175:
 2040              	.LBI172:
 183:D:/fchai/work/i-cube/I-CUBE-HUAWEI/Middlewares/Third_Party/Huawei/iot_link/os/liteos/include\los_list.h **** {
 2041              		.loc 2 183 43 view .LVU600
 2042              	.LBB174:
 185:D:/fchai/work/i-cube/I-CUBE-HUAWEI/Middlewares/Third_Party/Huawei/iot_link/os/liteos/include\los_list.h ****     pstNode->pstPrev->pstNext = pstNode->pstNext;
 2043              		.loc 2 185 5 view .LVU601
 185:D:/fchai/work/i-cube/I-CUBE-HUAWEI/Middlewares/Third_Party/Huawei/iot_link/os/liteos/include\los_list.h ****     pstNode->pstPrev->pstNext = pstNode->pstNext;
 2044              		.loc 2 185 40 is_stmt 0 view .LVU602
 2045 005e D4E90032 		ldrd	r3, r2, [r4]
 185:D:/fchai/work/i-cube/I-CUBE-HUAWEI/Middlewares/Third_Party/Huawei/iot_link/os/liteos/include\los_list.h ****     pstNode->pstPrev->pstNext = pstNode->pstNext;
 2046              		.loc 2 185 31 view .LVU603
 2047 0062 1360     		str	r3, [r2]
 186:D:/fchai/work/i-cube/I-CUBE-HUAWEI/Middlewares/Third_Party/Huawei/iot_link/os/liteos/include\los_list.h ****     pstNode->pstNext = (LOS_DL_LIST *)NULL;
 2048              		.loc 2 186 5 is_stmt 1 view .LVU604
 186:D:/fchai/work/i-cube/I-CUBE-HUAWEI/Middlewares/Third_Party/Huawei/iot_link/os/liteos/include\los_list.h ****     pstNode->pstNext = (LOS_DL_LIST *)NULL;
 2049              		.loc 2 186 31 is_stmt 0 view .LVU605
 2050 0064 5A60     		str	r2, [r3, #4]
 187:D:/fchai/work/i-cube/I-CUBE-HUAWEI/Middlewares/Third_Party/Huawei/iot_link/os/liteos/include\los_list.h ****     pstNode->pstPrev = (LOS_DL_LIST *)NULL;
 2051              		.loc 2 187 5 is_stmt 1 view .LVU606
 188:D:/fchai/work/i-cube/I-CUBE-HUAWEI/Middlewares/Third_Party/Huawei/iot_link/os/liteos/include\los_list.h **** }
 2052              		.loc 2 188 22 is_stmt 0 view .LVU607
 2053 0066 C4E90077 		strd	r7, r7, [r4]
 2054              	.LBE174:
 2055              	.LBE175:
 846:D:/fchai/work/i-cube/I-CUBE-HUAWEI/Middlewares/Third_Party/Huawei/iot_link/os/liteos/base/core\los_task.c ****         LOS_ListAdd(&g_stLosFreeTask, &pstTaskCB->stPendList);
 2056              		.loc 1 846 9 is_stmt 1 view .LVU608
 2057              	.LVL130:
ARM GAS  T:\msys\tmp\ccehPeV4.s 			page 65


 2058              	.LBB176:
 2059              	.LBI176:
 129:D:/fchai/work/i-cube/I-CUBE-HUAWEI/Middlewares/Third_Party/Huawei/iot_link/os/liteos/include\los_list.h **** {
 2060              		.loc 2 129 43 view .LVU609
 2061              	.LBB177:
 131:D:/fchai/work/i-cube/I-CUBE-HUAWEI/Middlewares/Third_Party/Huawei/iot_link/os/liteos/include\los_list.h ****     pstNode->pstPrev = pstList;
 2062              		.loc 2 131 5 view .LVU610
 131:D:/fchai/work/i-cube/I-CUBE-HUAWEI/Middlewares/Third_Party/Huawei/iot_link/os/liteos/include\los_list.h ****     pstNode->pstPrev = pstList;
 2063              		.loc 2 131 31 is_stmt 0 view .LVU611
 2064 006a 7368     		ldr	r3, [r6, #4]
 2065              	.LBE177:
 2066              	.LBE176:
 847:D:/fchai/work/i-cube/I-CUBE-HUAWEI/Middlewares/Third_Party/Huawei/iot_link/os/liteos/base/core\los_task.c ****         (VOID)LOS_MemFree(OS_TASK_STACK_ADDR, (VOID *)pstTaskCB->uwTopOfStack);
 2067              		.loc 1 847 15 view .LVU612
 2068 006c 54F81C1C 		ldr	r1, [r4, #-28]
 2069 0070 D9F80000 		ldr	r0, [r9]
 2070              	.LBB179:
 2071              	.LBB178:
 132:D:/fchai/work/i-cube/I-CUBE-HUAWEI/Middlewares/Third_Party/Huawei/iot_link/os/liteos/include\los_list.h ****     pstList->pstNext->pstPrev = pstNode;
 2072              		.loc 2 132 22 view .LVU613
 2073 0074 C4E90063 		strd	r6, r3, [r4]
 133:D:/fchai/work/i-cube/I-CUBE-HUAWEI/Middlewares/Third_Party/Huawei/iot_link/os/liteos/include\los_list.h ****     pstList->pstNext = pstNode;
 2074              		.loc 2 133 5 is_stmt 1 view .LVU614
 133:D:/fchai/work/i-cube/I-CUBE-HUAWEI/Middlewares/Third_Party/Huawei/iot_link/os/liteos/include\los_list.h ****     pstList->pstNext = pstNode;
 2075              		.loc 2 133 31 is_stmt 0 view .LVU615
 2076 0078 1C60     		str	r4, [r3]
 134:D:/fchai/work/i-cube/I-CUBE-HUAWEI/Middlewares/Third_Party/Huawei/iot_link/os/liteos/include\los_list.h **** }
 2077              		.loc 2 134 5 is_stmt 1 view .LVU616
 134:D:/fchai/work/i-cube/I-CUBE-HUAWEI/Middlewares/Third_Party/Huawei/iot_link/os/liteos/include\los_list.h **** }
 2078              		.loc 2 134 22 is_stmt 0 view .LVU617
 2079 007a 7460     		str	r4, [r6, #4]
 2080              	.LVL131:
 134:D:/fchai/work/i-cube/I-CUBE-HUAWEI/Middlewares/Third_Party/Huawei/iot_link/os/liteos/include\los_list.h **** }
 2081              		.loc 2 134 22 view .LVU618
 2082              	.LBE178:
 2083              	.LBE179:
 2084              		.loc 1 847 9 is_stmt 1 view .LVU619
 2085              		.loc 1 847 15 is_stmt 0 view .LVU620
 2086 007c FFF7FEFF 		bl	LOS_MemFree
 2087              	.LVL132:
 848:D:/fchai/work/i-cube/I-CUBE-HUAWEI/Middlewares/Third_Party/Huawei/iot_link/os/liteos/base/core\los_task.c ****         pstTaskCB->uwTopOfStack = (UINT32)NULL;
 2088              		.loc 1 848 9 is_stmt 1 view .LVU621
 2089              		.loc 1 848 33 is_stmt 0 view .LVU622
 2090 0080 44F81C7C 		str	r7, [r4, #-28]
 842:D:/fchai/work/i-cube/I-CUBE-HUAWEI/Middlewares/Third_Party/Huawei/iot_link/os/liteos/base/core\los_task.c ****     {
 2091              		.loc 1 842 11 is_stmt 1 view .LVU623
 2092              	.LVL133:
 2093              	.LBB180:
 213:D:/fchai/work/i-cube/I-CUBE-HUAWEI/Middlewares/Third_Party/Huawei/iot_link/os/liteos/include\los_list.h **** {
 2094              		.loc 2 213 43 view .LVU624
 2095              	.LBB169:
 2096              		.loc 2 215 5 view .LVU625
 2097              		.loc 2 215 26 is_stmt 0 view .LVU626
 2098 0084 DBF80440 		ldr	r4, [fp, #4]
 2099              	.LVL134:
 2100              		.loc 2 215 26 view .LVU627
 2101              	.LBE169:
ARM GAS  T:\msys\tmp\ccehPeV4.s 			page 66


 2102              	.LBE180:
 842:D:/fchai/work/i-cube/I-CUBE-HUAWEI/Middlewares/Third_Party/Huawei/iot_link/os/liteos/base/core\los_task.c ****     {
 2103              		.loc 1 842 11 view .LVU628
 2104 0088 5C45     		cmp	r4, fp
 2105 008a E8D1     		bne	.L143
 2106              	.L146:
 849:D:/fchai/work/i-cube/I-CUBE-HUAWEI/Middlewares/Third_Party/Huawei/iot_link/os/liteos/base/core\los_task.c ****     }
 850:D:/fchai/work/i-cube/I-CUBE-HUAWEI/Middlewares/Third_Party/Huawei/iot_link/os/liteos/base/core\los_task.c **** 
 851:D:/fchai/work/i-cube/I-CUBE-HUAWEI/Middlewares/Third_Party/Huawei/iot_link/os/liteos/base/core\los_task.c ****     if (LOS_ListEmpty(&g_stLosFreeTask))
 2107              		.loc 1 851 5 is_stmt 1 view .LVU629
 2108              	.LVL135:
 2109              	.LBB181:
 2110              	.LBI181:
 213:D:/fchai/work/i-cube/I-CUBE-HUAWEI/Middlewares/Third_Party/Huawei/iot_link/os/liteos/include\los_list.h **** {
 2111              		.loc 2 213 43 view .LVU630
 2112              	.LBB182:
 2113              		.loc 2 215 5 view .LVU631
 2114              		.loc 2 215 26 is_stmt 0 view .LVU632
 2115 008c 7468     		ldr	r4, [r6, #4]
 2116              	.LVL136:
 2117              		.loc 2 215 26 view .LVU633
 2118              	.LBE182:
 2119              	.LBE181:
 2120              		.loc 1 851 8 view .LVU634
 2121 008e B442     		cmp	r4, r6
 2122 0090 3DD0     		beq	.L161
 852:D:/fchai/work/i-cube/I-CUBE-HUAWEI/Middlewares/Third_Party/Huawei/iot_link/os/liteos/base/core\los_task.c ****     {
 853:D:/fchai/work/i-cube/I-CUBE-HUAWEI/Middlewares/Third_Party/Huawei/iot_link/os/liteos/base/core\los_task.c ****         uwErrRet = LOS_ERRNO_TSK_TCB_UNAVAILABLE;
 854:D:/fchai/work/i-cube/I-CUBE-HUAWEI/Middlewares/Third_Party/Huawei/iot_link/os/liteos/base/core\los_task.c ****         OS_GOTO_ERREND();
 2123              		.loc 1 854 9 is_stmt 1 view .LVU635
 855:D:/fchai/work/i-cube/I-CUBE-HUAWEI/Middlewares/Third_Party/Huawei/iot_link/os/liteos/base/core\los_task.c ****     }
 856:D:/fchai/work/i-cube/I-CUBE-HUAWEI/Middlewares/Third_Party/Huawei/iot_link/os/liteos/base/core\los_task.c **** 
 857:D:/fchai/work/i-cube/I-CUBE-HUAWEI/Middlewares/Third_Party/Huawei/iot_link/os/liteos/base/core\los_task.c ****     pstTaskCB = OS_TCB_FROM_PENDLIST(LOS_DL_LIST_FIRST(&g_stLosFreeTask)); /*lint !e413*/
 2124              		.loc 1 857 5 view .LVU636
 2125              	.LBB183:
 2126              	.LBB184:
 185:D:/fchai/work/i-cube/I-CUBE-HUAWEI/Middlewares/Third_Party/Huawei/iot_link/os/liteos/include\los_list.h ****     pstNode->pstPrev->pstNext = pstNode->pstNext;
 2127              		.loc 2 185 40 is_stmt 0 view .LVU637
 2128 0092 D4E90032 		ldrd	r3, r2, [r4]
 187:D:/fchai/work/i-cube/I-CUBE-HUAWEI/Middlewares/Third_Party/Huawei/iot_link/os/liteos/include\los_list.h ****     pstNode->pstPrev = (LOS_DL_LIST *)NULL;
 2129              		.loc 2 187 22 view .LVU638
 2130 0096 0027     		movs	r7, #0
 185:D:/fchai/work/i-cube/I-CUBE-HUAWEI/Middlewares/Third_Party/Huawei/iot_link/os/liteos/include\los_list.h ****     pstNode->pstPrev->pstNext = pstNode->pstNext;
 2131              		.loc 2 185 31 view .LVU639
 2132 0098 1360     		str	r3, [r2]
 2133              	.LBE184:
 2134              	.LBE183:
 858:D:/fchai/work/i-cube/I-CUBE-HUAWEI/Middlewares/Third_Party/Huawei/iot_link/os/liteos/base/core\los_task.c ****     LOS_ListDelete(LOS_DL_LIST_FIRST(&g_stLosFreeTask));
 859:D:/fchai/work/i-cube/I-CUBE-HUAWEI/Middlewares/Third_Party/Huawei/iot_link/os/liteos/base/core\los_task.c ****     (VOID)LOS_IntRestore(uvIntSave);
 2135              		.loc 1 859 5 view .LVU640
 2136 009a 5046     		mov	r0, r10
 2137              	.LBB187:
 2138              	.LBB185:
 186:D:/fchai/work/i-cube/I-CUBE-HUAWEI/Middlewares/Third_Party/Huawei/iot_link/os/liteos/include\los_list.h ****     pstNode->pstNext = (LOS_DL_LIST *)NULL;
 2139              		.loc 2 186 31 view .LVU641
 2140 009c 5A60     		str	r2, [r3, #4]
 188:D:/fchai/work/i-cube/I-CUBE-HUAWEI/Middlewares/Third_Party/Huawei/iot_link/os/liteos/include\los_list.h **** }
ARM GAS  T:\msys\tmp\ccehPeV4.s 			page 67


 2141              		.loc 2 188 22 view .LVU642
 2142 009e C4E90077 		strd	r7, r7, [r4]
 2143              	.LBE185:
 2144              	.LBE187:
 2145              		.loc 1 859 5 view .LVU643
 2146 00a2 FFF7FEFF 		bl	LOS_IntRestore
 2147              	.LVL137:
 860:D:/fchai/work/i-cube/I-CUBE-HUAWEI/Middlewares/Third_Party/Huawei/iot_link/os/liteos/base/core\los_task.c ****     uwTaskID = pstTaskCB->uwTaskID;
 861:D:/fchai/work/i-cube/I-CUBE-HUAWEI/Middlewares/Third_Party/Huawei/iot_link/os/liteos/base/core\los_task.c **** 
 862:D:/fchai/work/i-cube/I-CUBE-HUAWEI/Middlewares/Third_Party/Huawei/iot_link/os/liteos/base/core\los_task.c ****     extern VOID *osTskStackAlloc (TSK_INIT_PARAM_S *pstInitParam);
 863:D:/fchai/work/i-cube/I-CUBE-HUAWEI/Middlewares/Third_Party/Huawei/iot_link/os/liteos/base/core\los_task.c ****     pTopStack = (VOID *)osTskStackAlloc(pstInitParam);
 2148              		.loc 1 863 17 view .LVU644
 2149 00a6 2846     		mov	r0, r5
 860:D:/fchai/work/i-cube/I-CUBE-HUAWEI/Middlewares/Third_Party/Huawei/iot_link/os/liteos/base/core\los_task.c ****     uwTaskID = pstTaskCB->uwTaskID;
 2150              		.loc 1 860 14 view .LVU645
 2151 00a8 54F8189C 		ldr	r9, [r4, #-24]
 2152              		.loc 1 863 17 view .LVU646
 2153 00ac FFF7FEFF 		bl	osTskStackAlloc
 2154              	.LVL138:
 864:D:/fchai/work/i-cube/I-CUBE-HUAWEI/Middlewares/Third_Party/Huawei/iot_link/os/liteos/base/core\los_task.c **** 
 865:D:/fchai/work/i-cube/I-CUBE-HUAWEI/Middlewares/Third_Party/Huawei/iot_link/os/liteos/base/core\los_task.c ****     if (NULL == pTopStack)
 2155              		.loc 1 865 8 view .LVU647
 2156 00b0 0346     		mov	r3, r0
 857:D:/fchai/work/i-cube/I-CUBE-HUAWEI/Middlewares/Third_Party/Huawei/iot_link/os/liteos/base/core\los_task.c ****     LOS_ListDelete(LOS_DL_LIST_FIRST(&g_stLosFreeTask));
 2157              		.loc 1 857 15 view .LVU648
 2158 00b2 A4F12800 		sub	r0, r4, #40
 2159              	.LVL139:
 858:D:/fchai/work/i-cube/I-CUBE-HUAWEI/Middlewares/Third_Party/Huawei/iot_link/os/liteos/base/core\los_task.c ****     (VOID)LOS_IntRestore(uvIntSave);
 2160              		.loc 1 858 5 is_stmt 1 view .LVU649
 2161              	.LBB188:
 2162              	.LBI183:
 183:D:/fchai/work/i-cube/I-CUBE-HUAWEI/Middlewares/Third_Party/Huawei/iot_link/os/liteos/include\los_list.h **** {
 2163              		.loc 2 183 43 view .LVU650
 2164              	.LBB186:
 185:D:/fchai/work/i-cube/I-CUBE-HUAWEI/Middlewares/Third_Party/Huawei/iot_link/os/liteos/include\los_list.h ****     pstNode->pstPrev->pstNext = pstNode->pstNext;
 2165              		.loc 2 185 5 view .LVU651
 186:D:/fchai/work/i-cube/I-CUBE-HUAWEI/Middlewares/Third_Party/Huawei/iot_link/os/liteos/include\los_list.h ****     pstNode->pstNext = (LOS_DL_LIST *)NULL;
 2166              		.loc 2 186 5 view .LVU652
 187:D:/fchai/work/i-cube/I-CUBE-HUAWEI/Middlewares/Third_Party/Huawei/iot_link/os/liteos/include\los_list.h ****     pstNode->pstPrev = (LOS_DL_LIST *)NULL;
 2167              		.loc 2 187 5 view .LVU653
 188:D:/fchai/work/i-cube/I-CUBE-HUAWEI/Middlewares/Third_Party/Huawei/iot_link/os/liteos/include\los_list.h **** }
 2168              		.loc 2 188 5 view .LVU654
 2169              	.LBE186:
 2170              	.LBE188:
 859:D:/fchai/work/i-cube/I-CUBE-HUAWEI/Middlewares/Third_Party/Huawei/iot_link/os/liteos/base/core\los_task.c ****     uwTaskID = pstTaskCB->uwTaskID;
 2171              		.loc 1 859 5 view .LVU655
 860:D:/fchai/work/i-cube/I-CUBE-HUAWEI/Middlewares/Third_Party/Huawei/iot_link/os/liteos/base/core\los_task.c **** 
 2172              		.loc 1 860 5 view .LVU656
 862:D:/fchai/work/i-cube/I-CUBE-HUAWEI/Middlewares/Third_Party/Huawei/iot_link/os/liteos/base/core\los_task.c ****     pTopStack = (VOID *)osTskStackAlloc(pstInitParam);
 2173              		.loc 1 862 5 view .LVU657
 863:D:/fchai/work/i-cube/I-CUBE-HUAWEI/Middlewares/Third_Party/Huawei/iot_link/os/liteos/base/core\los_task.c **** 
 2174              		.loc 1 863 5 view .LVU658
 2175              		.loc 1 865 5 view .LVU659
 2176              		.loc 1 865 8 is_stmt 0 view .LVU660
 2177 00b6 002B     		cmp	r3, #0
 2178 00b8 3ED0     		beq	.L162
 866:D:/fchai/work/i-cube/I-CUBE-HUAWEI/Middlewares/Third_Party/Huawei/iot_link/os/liteos/base/core\los_task.c ****     {
ARM GAS  T:\msys\tmp\ccehPeV4.s 			page 68


 867:D:/fchai/work/i-cube/I-CUBE-HUAWEI/Middlewares/Third_Party/Huawei/iot_link/os/liteos/base/core\los_task.c ****         uvIntSave = LOS_IntLock();
 868:D:/fchai/work/i-cube/I-CUBE-HUAWEI/Middlewares/Third_Party/Huawei/iot_link/os/liteos/base/core\los_task.c ****         LOS_ListAdd(&g_stLosFreeTask, &pstTaskCB->stPendList);
 869:D:/fchai/work/i-cube/I-CUBE-HUAWEI/Middlewares/Third_Party/Huawei/iot_link/os/liteos/base/core\los_task.c ****         uwErrRet = LOS_ERRNO_TSK_NO_MEMORY;
 870:D:/fchai/work/i-cube/I-CUBE-HUAWEI/Middlewares/Third_Party/Huawei/iot_link/os/liteos/base/core\los_task.c ****         OS_GOTO_ERREND();
 2179              		.loc 1 870 9 is_stmt 1 view .LVU661
 871:D:/fchai/work/i-cube/I-CUBE-HUAWEI/Middlewares/Third_Party/Huawei/iot_link/os/liteos/base/core\los_task.c ****     }
 872:D:/fchai/work/i-cube/I-CUBE-HUAWEI/Middlewares/Third_Party/Huawei/iot_link/os/liteos/base/core\los_task.c **** 
 873:D:/fchai/work/i-cube/I-CUBE-HUAWEI/Middlewares/Third_Party/Huawei/iot_link/os/liteos/base/core\los_task.c ****     pstTaskCB->uwArg             = pstInitParam->uwArg;
 2180              		.loc 1 873 5 view .LVU662
 874:D:/fchai/work/i-cube/I-CUBE-HUAWEI/Middlewares/Third_Party/Huawei/iot_link/os/liteos/base/core\los_task.c ****     pstTaskCB->uwTopOfStack      = (UINT32)pTopStack;
 875:D:/fchai/work/i-cube/I-CUBE-HUAWEI/Middlewares/Third_Party/Huawei/iot_link/os/liteos/base/core\los_task.c ****     pstTaskCB->uwStackSize       = pstInitParam->uwStackSize;
 2181              		.loc 1 875 34 is_stmt 0 view .LVU663
 2182 00ba D5E90221 		ldrd	r2, r1, [r5, #8]
 874:D:/fchai/work/i-cube/I-CUBE-HUAWEI/Middlewares/Third_Party/Huawei/iot_link/os/liteos/base/core\los_task.c ****     pstTaskCB->uwTopOfStack      = (UINT32)pTopStack;
 2183              		.loc 1 874 34 view .LVU664
 2184 00be 44F81C3C 		str	r3, [r4, #-28]
 873:D:/fchai/work/i-cube/I-CUBE-HUAWEI/Middlewares/Third_Party/Huawei/iot_link/os/liteos/base/core\los_task.c ****     pstTaskCB->uwTopOfStack      = (UINT32)pTopStack;
 2185              		.loc 1 873 34 view .LVU665
 2186 00c2 44F8082C 		str	r2, [r4, #-8]
 874:D:/fchai/work/i-cube/I-CUBE-HUAWEI/Middlewares/Third_Party/Huawei/iot_link/os/liteos/base/core\los_task.c ****     pstTaskCB->uwTopOfStack      = (UINT32)pTopStack;
 2187              		.loc 1 874 5 is_stmt 1 view .LVU666
 2188              		.loc 1 875 5 view .LVU667
 876:D:/fchai/work/i-cube/I-CUBE-HUAWEI/Middlewares/Third_Party/Huawei/iot_link/os/liteos/base/core\los_task.c ****     pstTaskCB->pTaskSem          = NULL;
 877:D:/fchai/work/i-cube/I-CUBE-HUAWEI/Middlewares/Third_Party/Huawei/iot_link/os/liteos/base/core\los_task.c ****     pstTaskCB->pTaskMux          = NULL;
 878:D:/fchai/work/i-cube/I-CUBE-HUAWEI/Middlewares/Third_Party/Huawei/iot_link/os/liteos/base/core\los_task.c ****     pstTaskCB->usTaskStatus      = OS_TASK_STATUS_SUSPEND;
 879:D:/fchai/work/i-cube/I-CUBE-HUAWEI/Middlewares/Third_Party/Huawei/iot_link/os/liteos/base/core\los_task.c ****     pstTaskCB->usPriority        = pstInitParam->usTaskPrio;
 2189              		.loc 1 879 34 is_stmt 0 view .LVU668
 2190 00c6 AB88     		ldrh	r3, [r5, #4]
 2191              	.LVL140:
 875:D:/fchai/work/i-cube/I-CUBE-HUAWEI/Middlewares/Third_Party/Huawei/iot_link/os/liteos/base/core\los_task.c ****     pstTaskCB->pTaskSem          = NULL;
 2192              		.loc 1 875 34 view .LVU669
 2193 00c8 44F8201C 		str	r1, [r4, #-32]
 876:D:/fchai/work/i-cube/I-CUBE-HUAWEI/Middlewares/Third_Party/Huawei/iot_link/os/liteos/base/core\los_task.c ****     pstTaskCB->pTaskSem          = NULL;
 2194              		.loc 1 876 5 is_stmt 1 view .LVU670
 878:D:/fchai/work/i-cube/I-CUBE-HUAWEI/Middlewares/Third_Party/Huawei/iot_link/os/liteos/base/core\los_task.c ****     pstTaskCB->usPriority        = pstInitParam->usTaskPrio;
 2195              		.loc 1 878 34 is_stmt 0 view .LVU671
 2196 00cc 0222     		movs	r2, #2
 880:D:/fchai/work/i-cube/I-CUBE-HUAWEI/Middlewares/Third_Party/Huawei/iot_link/os/liteos/base/core\los_task.c ****     pstTaskCB->pfnTaskEntry      = pstInitParam->pfnTaskEntry;
 2197              		.loc 1 880 34 view .LVU672
 2198 00ce 2968     		ldr	r1, [r5]
 878:D:/fchai/work/i-cube/I-CUBE-HUAWEI/Middlewares/Third_Party/Huawei/iot_link/os/liteos/base/core\los_task.c ****     pstTaskCB->usPriority        = pstInitParam->usTaskPrio;
 2199              		.loc 1 878 34 view .LVU673
 2200 00d0 24F8242C 		strh	r2, [r4, #-36]	@ movhi
 879:D:/fchai/work/i-cube/I-CUBE-HUAWEI/Middlewares/Third_Party/Huawei/iot_link/os/liteos/base/core\los_task.c ****     pstTaskCB->pfnTaskEntry      = pstInitParam->pfnTaskEntry;
 2201              		.loc 1 879 34 view .LVU674
 2202 00d4 24F8223C 		strh	r3, [r4, #-34]	@ movhi
 881:D:/fchai/work/i-cube/I-CUBE-HUAWEI/Middlewares/Third_Party/Huawei/iot_link/os/liteos/base/core\los_task.c ****     pstTaskCB->uwEvent.uwEventID = 0xFFFFFFFF;
 2203              		.loc 1 881 34 view .LVU675
 2204 00d8 4FF0FF32 		mov	r2, #-1
 882:D:/fchai/work/i-cube/I-CUBE-HUAWEI/Middlewares/Third_Party/Huawei/iot_link/os/liteos/base/core\los_task.c ****     pstTaskCB->uwEventMask       = 0;
 883:D:/fchai/work/i-cube/I-CUBE-HUAWEI/Middlewares/Third_Party/Huawei/iot_link/os/liteos/base/core\los_task.c ****     pstTaskCB->pcTaskName        = pstInitParam->pcName;
 2205              		.loc 1 883 34 view .LVU676
 2206 00dc 2B69     		ldr	r3, [r5, #16]
 2207 00de 44F8043C 		str	r3, [r4, #-4]
 880:D:/fchai/work/i-cube/I-CUBE-HUAWEI/Middlewares/Third_Party/Huawei/iot_link/os/liteos/base/core\los_task.c ****     pstTaskCB->uwEvent.uwEventID = 0xFFFFFFFF;
 2208              		.loc 1 880 34 view .LVU677
 2209 00e2 44F8141C 		str	r1, [r4, #-20]
ARM GAS  T:\msys\tmp\ccehPeV4.s 			page 69


 877:D:/fchai/work/i-cube/I-CUBE-HUAWEI/Middlewares/Third_Party/Huawei/iot_link/os/liteos/base/core\los_task.c ****     pstTaskCB->usTaskStatus      = OS_TASK_STATUS_SUSPEND;
 2210              		.loc 1 877 34 view .LVU678
 2211 00e6 44E90477 		strd	r7, r7, [r4, #-16]
 878:D:/fchai/work/i-cube/I-CUBE-HUAWEI/Middlewares/Third_Party/Huawei/iot_link/os/liteos/base/core\los_task.c ****     pstTaskCB->usPriority        = pstInitParam->usTaskPrio;
 2212              		.loc 1 878 5 is_stmt 1 view .LVU679
 879:D:/fchai/work/i-cube/I-CUBE-HUAWEI/Middlewares/Third_Party/Huawei/iot_link/os/liteos/base/core\los_task.c ****     pstTaskCB->pfnTaskEntry      = pstInitParam->pfnTaskEntry;
 2213              		.loc 1 879 5 view .LVU680
 880:D:/fchai/work/i-cube/I-CUBE-HUAWEI/Middlewares/Third_Party/Huawei/iot_link/os/liteos/base/core\los_task.c ****     pstTaskCB->uwEvent.uwEventID = 0xFFFFFFFF;
 2214              		.loc 1 880 5 view .LVU681
 881:D:/fchai/work/i-cube/I-CUBE-HUAWEI/Middlewares/Third_Party/Huawei/iot_link/os/liteos/base/core\los_task.c ****     pstTaskCB->uwEventMask       = 0;
 2215              		.loc 1 881 5 view .LVU682
 882:D:/fchai/work/i-cube/I-CUBE-HUAWEI/Middlewares/Third_Party/Huawei/iot_link/os/liteos/base/core\los_task.c ****     pstTaskCB->pcTaskName        = pstInitParam->pcName;
 2216              		.loc 1 882 34 is_stmt 0 view .LVU683
 2217 00ea 2762     		str	r7, [r4, #32]
 881:D:/fchai/work/i-cube/I-CUBE-HUAWEI/Middlewares/Third_Party/Huawei/iot_link/os/liteos/base/core\los_task.c ****     pstTaskCB->uwEventMask       = 0;
 2218              		.loc 1 881 34 view .LVU684
 2219 00ec 6261     		str	r2, [r4, #20]
 882:D:/fchai/work/i-cube/I-CUBE-HUAWEI/Middlewares/Third_Party/Huawei/iot_link/os/liteos/base/core\los_task.c ****     pstTaskCB->pcTaskName        = pstInitParam->pcName;
 2220              		.loc 1 882 5 is_stmt 1 view .LVU685
 2221              		.loc 1 883 5 view .LVU686
 884:D:/fchai/work/i-cube/I-CUBE-HUAWEI/Middlewares/Third_Party/Huawei/iot_link/os/liteos/base/core\los_task.c ****     pstTaskCB->puwMsg = NULL;
 2222              		.loc 1 884 5 view .LVU687
 2223              		.loc 1 884 23 is_stmt 0 view .LVU688
 2224 00ee A762     		str	r7, [r4, #40]
 885:D:/fchai/work/i-cube/I-CUBE-HUAWEI/Middlewares/Third_Party/Huawei/iot_link/os/liteos/base/core\los_task.c **** 
 886:D:/fchai/work/i-cube/I-CUBE-HUAWEI/Middlewares/Third_Party/Huawei/iot_link/os/liteos/base/core\los_task.c ****     osTskStackInit(pstTaskCB, pstInitParam);
 2225              		.loc 1 886 5 is_stmt 1 view .LVU689
 2226 00f0 2946     		mov	r1, r5
 2227 00f2 FFF7FEFF 		bl	osTskStackInit
 2228              	.LVL141:
 887:D:/fchai/work/i-cube/I-CUBE-HUAWEI/Middlewares/Third_Party/Huawei/iot_link/os/liteos/base/core\los_task.c **** 
 888:D:/fchai/work/i-cube/I-CUBE-HUAWEI/Middlewares/Third_Party/Huawei/iot_link/os/liteos/base/core\los_task.c **** #if (LOSCFG_LIB_LIBC_NEWLIB_REENT == YES)
 889:D:/fchai/work/i-cube/I-CUBE-HUAWEI/Middlewares/Third_Party/Huawei/iot_link/os/liteos/base/core\los_task.c ****     /* Initialise this task's Newlib reent structure. */
 890:D:/fchai/work/i-cube/I-CUBE-HUAWEI/Middlewares/Third_Party/Huawei/iot_link/os/liteos/base/core\los_task.c ****     _REENT_INIT_PTR(&(pstTaskCB->stNewLibReent));
 891:D:/fchai/work/i-cube/I-CUBE-HUAWEI/Middlewares/Third_Party/Huawei/iot_link/os/liteos/base/core\los_task.c **** #endif
 892:D:/fchai/work/i-cube/I-CUBE-HUAWEI/Middlewares/Third_Party/Huawei/iot_link/os/liteos/base/core\los_task.c **** 
 893:D:/fchai/work/i-cube/I-CUBE-HUAWEI/Middlewares/Third_Party/Huawei/iot_link/os/liteos/base/core\los_task.c ****     *puwTaskID = uwTaskID;
 2229              		.loc 1 893 5 view .LVU690
 2230              		.loc 1 893 16 is_stmt 0 view .LVU691
 2231 00f6 C8F80090 		str	r9, [r8]
 894:D:/fchai/work/i-cube/I-CUBE-HUAWEI/Middlewares/Third_Party/Huawei/iot_link/os/liteos/base/core\los_task.c ****     return LOS_OK;
 2232              		.loc 1 894 5 is_stmt 1 view .LVU692
 2233              	.LBE164:
 2234              	.LBE163:
 895:D:/fchai/work/i-cube/I-CUBE-HUAWEI/Middlewares/Third_Party/Huawei/iot_link/os/liteos/base/core\los_task.c **** 
 896:D:/fchai/work/i-cube/I-CUBE-HUAWEI/Middlewares/Third_Party/Huawei/iot_link/os/liteos/base/core\los_task.c **** LOS_ERREND:
 897:D:/fchai/work/i-cube/I-CUBE-HUAWEI/Middlewares/Third_Party/Huawei/iot_link/os/liteos/base/core\los_task.c ****     (VOID)LOS_IntRestore(uvIntSave);
 898:D:/fchai/work/i-cube/I-CUBE-HUAWEI/Middlewares/Third_Party/Huawei/iot_link/os/liteos/base/core\los_task.c ****     return uwErrRet;
 899:D:/fchai/work/i-cube/I-CUBE-HUAWEI/Middlewares/Third_Party/Huawei/iot_link/os/liteos/base/core\los_task.c **** }
 2235              		.loc 1 899 1 is_stmt 0 view .LVU693
 2236 00fa 3846     		mov	r0, r7
 2237 00fc BDE8F88F 		pop	{r3, r4, r5, r6, r7, r8, r9, r10, fp, pc}
 2238              	.LVL142:
 2239              	.L160:
 825:D:/fchai/work/i-cube/I-CUBE-HUAWEI/Middlewares/Third_Party/Huawei/iot_link/os/liteos/base/core\los_task.c ****     {
 2240              		.loc 1 825 9 view .LVU694
 2241 0100 134A     		ldr	r2, .L163+4
ARM GAS  T:\msys\tmp\ccehPeV4.s 			page 70


 2242 0102 9342     		cmp	r3, r2
 2243 0104 92D0     		beq	.L141
 2244              	.L153:
 821:D:/fchai/work/i-cube/I-CUBE-HUAWEI/Middlewares/Third_Party/Huawei/iot_link/os/liteos/base/core\los_task.c ****     }
 2245              		.loc 1 821 16 view .LVU695
 2246 0106 134F     		ldr	r7, .L163+8
 2247              	.L139:
 2248              		.loc 1 899 1 view .LVU696
 2249 0108 3846     		mov	r0, r7
 2250              	.LVL143:
 2251              		.loc 1 899 1 view .LVU697
 2252 010a BDE8F88F 		pop	{r3, r4, r5, r6, r7, r8, r9, r10, fp, pc}
 2253              	.LVL144:
 2254              	.L161:
 2255              	.LBB197:
 2256              	.LBB195:
 853:D:/fchai/work/i-cube/I-CUBE-HUAWEI/Middlewares/Third_Party/Huawei/iot_link/os/liteos/base/core\los_task.c ****         OS_GOTO_ERREND();
 2257              		.loc 1 853 18 view .LVU698
 2258 010e 124F     		ldr	r7, .L163+12
 2259              	.L144:
 2260              	.LVL145:
 897:D:/fchai/work/i-cube/I-CUBE-HUAWEI/Middlewares/Third_Party/Huawei/iot_link/os/liteos/base/core\los_task.c ****     return uwErrRet;
 2261              		.loc 1 897 5 is_stmt 1 view .LVU699
 2262 0110 5046     		mov	r0, r10
 2263 0112 FFF7FEFF 		bl	LOS_IntRestore
 2264              	.LVL146:
 898:D:/fchai/work/i-cube/I-CUBE-HUAWEI/Middlewares/Third_Party/Huawei/iot_link/os/liteos/base/core\los_task.c **** }
 2265              		.loc 1 898 5 view .LVU700
 2266              	.LBE195:
 2267              	.LBE197:
 2268              		.loc 1 899 1 is_stmt 0 view .LVU701
 2269 0116 3846     		mov	r0, r7
 2270 0118 BDE8F88F 		pop	{r3, r4, r5, r6, r7, r8, r9, r10, fp, pc}
 2271              	.LVL147:
 2272              	.L154:
 838:D:/fchai/work/i-cube/I-CUBE-HUAWEI/Middlewares/Third_Party/Huawei/iot_link/os/liteos/base/core\los_task.c ****     }
 2273              		.loc 1 838 16 view .LVU702
 2274 011c 0F4F     		ldr	r7, .L163+16
 2275              		.loc 1 899 1 view .LVU703
 2276 011e 3846     		mov	r0, r7
 2277 0120 BDE8F88F 		pop	{r3, r4, r5, r6, r7, r8, r9, r10, fp, pc}
 2278              	.LVL148:
 2279              	.L148:
 801:D:/fchai/work/i-cube/I-CUBE-HUAWEI/Middlewares/Third_Party/Huawei/iot_link/os/liteos/base/core\los_task.c ****     }
 2280              		.loc 1 801 16 view .LVU704
 2281 0124 0E4F     		ldr	r7, .L163+20
 2282              		.loc 1 899 1 view .LVU705
 2283 0126 3846     		mov	r0, r7
 2284              	.LVL149:
 2285              		.loc 1 899 1 view .LVU706
 2286 0128 BDE8F88F 		pop	{r3, r4, r5, r6, r7, r8, r9, r10, fp, pc}
 2287              	.LVL150:
 2288              	.L149:
 806:D:/fchai/work/i-cube/I-CUBE-HUAWEI/Middlewares/Third_Party/Huawei/iot_link/os/liteos/base/core\los_task.c ****     }
 2289              		.loc 1 806 16 view .LVU707
 2290 012c 0D4F     		ldr	r7, .L163+24
 2291 012e EBE7     		b	.L139
ARM GAS  T:\msys\tmp\ccehPeV4.s 			page 71


 2292              	.L150:
 811:D:/fchai/work/i-cube/I-CUBE-HUAWEI/Middlewares/Third_Party/Huawei/iot_link/os/liteos/base/core\los_task.c ****     }
 2293              		.loc 1 811 16 view .LVU708
 2294 0130 0D4F     		ldr	r7, .L163+28
 2295 0132 E9E7     		b	.L139
 2296              	.L151:
 816:D:/fchai/work/i-cube/I-CUBE-HUAWEI/Middlewares/Third_Party/Huawei/iot_link/os/liteos/base/core\los_task.c ****     }
 2297              		.loc 1 816 16 view .LVU709
 2298 0134 0D4F     		ldr	r7, .L163+32
 2299 0136 E7E7     		b	.L139
 2300              	.LVL151:
 2301              	.L162:
 2302              	.LBB198:
 2303              	.LBB196:
 867:D:/fchai/work/i-cube/I-CUBE-HUAWEI/Middlewares/Third_Party/Huawei/iot_link/os/liteos/base/core\los_task.c ****         LOS_ListAdd(&g_stLosFreeTask, &pstTaskCB->stPendList);
 2304              		.loc 1 867 9 is_stmt 1 view .LVU710
 867:D:/fchai/work/i-cube/I-CUBE-HUAWEI/Middlewares/Third_Party/Huawei/iot_link/os/liteos/base/core\los_task.c ****         LOS_ListAdd(&g_stLosFreeTask, &pstTaskCB->stPendList);
 2305              		.loc 1 867 21 is_stmt 0 view .LVU711
 2306 0138 FFF7FEFF 		bl	LOS_IntLock
 2307              	.LVL152:
 2308              	.LBB189:
 2309              	.LBB190:
 131:D:/fchai/work/i-cube/I-CUBE-HUAWEI/Middlewares/Third_Party/Huawei/iot_link/os/liteos/include\los_list.h ****     pstNode->pstPrev = pstList;
 2310              		.loc 2 131 31 view .LVU712
 2311 013c 7368     		ldr	r3, [r6, #4]
 131:D:/fchai/work/i-cube/I-CUBE-HUAWEI/Middlewares/Third_Party/Huawei/iot_link/os/liteos/include\los_list.h ****     pstNode->pstPrev = pstList;
 2312              		.loc 2 131 22 view .LVU713
 2313 013e 6360     		str	r3, [r4, #4]
 132:D:/fchai/work/i-cube/I-CUBE-HUAWEI/Middlewares/Third_Party/Huawei/iot_link/os/liteos/include\los_list.h ****     pstList->pstNext->pstPrev = pstNode;
 2314              		.loc 2 132 22 view .LVU714
 2315 0140 2660     		str	r6, [r4]
 2316              	.LBE190:
 2317              	.LBE189:
 869:D:/fchai/work/i-cube/I-CUBE-HUAWEI/Middlewares/Third_Party/Huawei/iot_link/os/liteos/base/core\los_task.c ****         OS_GOTO_ERREND();
 2318              		.loc 1 869 18 view .LVU715
 2319 0142 0B4F     		ldr	r7, .L163+36
 2320              	.LBB193:
 2321              	.LBB191:
 133:D:/fchai/work/i-cube/I-CUBE-HUAWEI/Middlewares/Third_Party/Huawei/iot_link/os/liteos/include\los_list.h ****     pstList->pstNext = pstNode;
 2322              		.loc 2 133 31 view .LVU716
 2323 0144 1C60     		str	r4, [r3]
 2324              	.LBE191:
 2325              	.LBE193:
 867:D:/fchai/work/i-cube/I-CUBE-HUAWEI/Middlewares/Third_Party/Huawei/iot_link/os/liteos/base/core\los_task.c ****         LOS_ListAdd(&g_stLosFreeTask, &pstTaskCB->stPendList);
 2326              		.loc 1 867 21 view .LVU717
 2327 0146 8246     		mov	r10, r0
 2328              	.LVL153:
 868:D:/fchai/work/i-cube/I-CUBE-HUAWEI/Middlewares/Third_Party/Huawei/iot_link/os/liteos/base/core\los_task.c ****         uwErrRet = LOS_ERRNO_TSK_NO_MEMORY;
 2329              		.loc 1 868 9 is_stmt 1 view .LVU718
 2330              	.LBB194:
 2331              	.LBI189:
 129:D:/fchai/work/i-cube/I-CUBE-HUAWEI/Middlewares/Third_Party/Huawei/iot_link/os/liteos/include\los_list.h **** {
 2332              		.loc 2 129 43 view .LVU719
 2333              	.LBB192:
 131:D:/fchai/work/i-cube/I-CUBE-HUAWEI/Middlewares/Third_Party/Huawei/iot_link/os/liteos/include\los_list.h ****     pstNode->pstPrev = pstList;
 2334              		.loc 2 131 5 view .LVU720
 132:D:/fchai/work/i-cube/I-CUBE-HUAWEI/Middlewares/Third_Party/Huawei/iot_link/os/liteos/include\los_list.h ****     pstList->pstNext->pstPrev = pstNode;
ARM GAS  T:\msys\tmp\ccehPeV4.s 			page 72


 2335              		.loc 2 132 5 view .LVU721
 133:D:/fchai/work/i-cube/I-CUBE-HUAWEI/Middlewares/Third_Party/Huawei/iot_link/os/liteos/include\los_list.h ****     pstList->pstNext = pstNode;
 2336              		.loc 2 133 5 view .LVU722
 134:D:/fchai/work/i-cube/I-CUBE-HUAWEI/Middlewares/Third_Party/Huawei/iot_link/os/liteos/include\los_list.h **** }
 2337              		.loc 2 134 5 view .LVU723
 134:D:/fchai/work/i-cube/I-CUBE-HUAWEI/Middlewares/Third_Party/Huawei/iot_link/os/liteos/include\los_list.h **** }
 2338              		.loc 2 134 22 is_stmt 0 view .LVU724
 2339 0148 7460     		str	r4, [r6, #4]
 2340              	.LVL154:
 134:D:/fchai/work/i-cube/I-CUBE-HUAWEI/Middlewares/Third_Party/Huawei/iot_link/os/liteos/include\los_list.h **** }
 2341              		.loc 2 134 22 view .LVU725
 2342              	.LBE192:
 2343              	.LBE194:
 869:D:/fchai/work/i-cube/I-CUBE-HUAWEI/Middlewares/Third_Party/Huawei/iot_link/os/liteos/base/core\los_task.c ****         OS_GOTO_ERREND();
 2344              		.loc 1 869 9 is_stmt 1 view .LVU726
 870:D:/fchai/work/i-cube/I-CUBE-HUAWEI/Middlewares/Third_Party/Huawei/iot_link/os/liteos/base/core\los_task.c ****     }
 2345              		.loc 1 870 9 view .LVU727
 870:D:/fchai/work/i-cube/I-CUBE-HUAWEI/Middlewares/Third_Party/Huawei/iot_link/os/liteos/base/core\los_task.c ****     }
 2346              		.loc 1 870 9 view .LVU728
 2347 014a E1E7     		b	.L144
 2348              	.L164:
 2349              		.align	2
 2350              	.L163:
 2351 014c 00000000 		.word	g_stLosFreeTask
 2352 0150 00000000 		.word	osIdleTask
 2353 0154 03020002 		.word	33554947
 2354 0158 11020002 		.word	33554961
 2355 015c 06020002 		.word	33554950
 2356 0160 07020002 		.word	33554951
 2357 0164 01020002 		.word	33554945
 2358 0168 05020002 		.word	33554949
 2359 016c 04020002 		.word	33554948
 2360 0170 00020003 		.word	50332160
 2361 0174 00000000 		.word	g_stTskRecyleList
 2362 0178 00000000 		.word	m_aucSysMem0
 2363              	.LBE196:
 2364              	.LBE198:
 2365              		.cfi_endproc
 2366              	.LFE149:
 2368              		.section	.text.LOS_TaskCreate,"ax",%progbits
 2369              		.align	1
 2370              		.p2align 2,,3
 2371              		.global	LOS_TaskCreate
 2372              		.syntax unified
 2373              		.thumb
 2374              		.thumb_func
 2375              		.fpu fpv4-sp-d16
 2377              	LOS_TaskCreate:
 2378              	.LVL155:
 2379              	.LFB150:
 900:D:/fchai/work/i-cube/I-CUBE-HUAWEI/Middlewares/Third_Party/Huawei/iot_link/os/liteos/base/core\los_task.c **** 
 901:D:/fchai/work/i-cube/I-CUBE-HUAWEI/Middlewares/Third_Party/Huawei/iot_link/os/liteos/base/core\los_task.c **** 
 902:D:/fchai/work/i-cube/I-CUBE-HUAWEI/Middlewares/Third_Party/Huawei/iot_link/os/liteos/base/core\los_task.c **** /*****************************************************************************
 903:D:/fchai/work/i-cube/I-CUBE-HUAWEI/Middlewares/Third_Party/Huawei/iot_link/os/liteos/base/core\los_task.c ****  Function : LOS_TaskCreate
 904:D:/fchai/work/i-cube/I-CUBE-HUAWEI/Middlewares/Third_Party/Huawei/iot_link/os/liteos/base/core\los_task.c ****  Description : Create a task
 905:D:/fchai/work/i-cube/I-CUBE-HUAWEI/Middlewares/Third_Party/Huawei/iot_link/os/liteos/base/core\los_task.c ****  Input       : pstInitParam --- Task init parameters
 906:D:/fchai/work/i-cube/I-CUBE-HUAWEI/Middlewares/Third_Party/Huawei/iot_link/os/liteos/base/core\los_task.c ****  Output      : puwTaskID    --- Save task ID
ARM GAS  T:\msys\tmp\ccehPeV4.s 			page 73


 907:D:/fchai/work/i-cube/I-CUBE-HUAWEI/Middlewares/Third_Party/Huawei/iot_link/os/liteos/base/core\los_task.c ****  Return      : LOS_OK on success or error code on failure
 908:D:/fchai/work/i-cube/I-CUBE-HUAWEI/Middlewares/Third_Party/Huawei/iot_link/os/liteos/base/core\los_task.c ****  *****************************************************************************/
 909:D:/fchai/work/i-cube/I-CUBE-HUAWEI/Middlewares/Third_Party/Huawei/iot_link/os/liteos/base/core\los_task.c **** LITE_OS_SEC_TEXT_INIT UINT32 LOS_TaskCreate(UINT32 *puwTaskID, TSK_INIT_PARAM_S *pstInitParam)
 910:D:/fchai/work/i-cube/I-CUBE-HUAWEI/Middlewares/Third_Party/Huawei/iot_link/os/liteos/base/core\los_task.c **** {
 2380              		.loc 1 910 1 view -0
 2381              		.cfi_startproc
 2382              		@ args = 0, pretend = 0, frame = 24
 2383              		@ frame_needed = 0, uses_anonymous_args = 0
 911:D:/fchai/work/i-cube/I-CUBE-HUAWEI/Middlewares/Third_Party/Huawei/iot_link/os/liteos/base/core\los_task.c ****     UINT32 uwRet = LOS_OK;
 2384              		.loc 1 911 5 view .LVU730
 912:D:/fchai/work/i-cube/I-CUBE-HUAWEI/Middlewares/Third_Party/Huawei/iot_link/os/liteos/base/core\los_task.c ****     UINTPTR uvIntSave;
 2385              		.loc 1 912 5 view .LVU731
 913:D:/fchai/work/i-cube/I-CUBE-HUAWEI/Middlewares/Third_Party/Huawei/iot_link/os/liteos/base/core\los_task.c ****     LOS_TASK_CB *pstTaskCB;
 2386              		.loc 1 913 5 view .LVU732
 914:D:/fchai/work/i-cube/I-CUBE-HUAWEI/Middlewares/Third_Party/Huawei/iot_link/os/liteos/base/core\los_task.c ****     TSK_INIT_PARAM_S stInitParam;
 2387              		.loc 1 914 5 view .LVU733
 915:D:/fchai/work/i-cube/I-CUBE-HUAWEI/Middlewares/Third_Party/Huawei/iot_link/os/liteos/base/core\los_task.c **** 
 916:D:/fchai/work/i-cube/I-CUBE-HUAWEI/Middlewares/Third_Party/Huawei/iot_link/os/liteos/base/core\los_task.c ****     if (NULL == pstInitParam)
 2388              		.loc 1 916 5 view .LVU734
 910:D:/fchai/work/i-cube/I-CUBE-HUAWEI/Middlewares/Third_Party/Huawei/iot_link/os/liteos/base/core\los_task.c ****     UINT32 uwRet = LOS_OK;
 2389              		.loc 1 910 1 is_stmt 0 view .LVU735
 2390 0000 70B5     		push	{r4, r5, r6, lr}
 2391              	.LCFI28:
 2392              		.cfi_def_cfa_offset 16
 2393              		.cfi_offset 4, -16
 2394              		.cfi_offset 5, -12
 2395              		.cfi_offset 6, -8
 2396              		.cfi_offset 14, -4
 2397 0002 86B0     		sub	sp, sp, #24
 2398              	.LCFI29:
 2399              		.cfi_def_cfa_offset 40
 2400              		.loc 1 916 8 view .LVU736
 2401 0004 0029     		cmp	r1, #0
 2402 0006 3AD0     		beq	.L168
 917:D:/fchai/work/i-cube/I-CUBE-HUAWEI/Middlewares/Third_Party/Huawei/iot_link/os/liteos/base/core\los_task.c ****     {
 918:D:/fchai/work/i-cube/I-CUBE-HUAWEI/Middlewares/Third_Party/Huawei/iot_link/os/liteos/base/core\los_task.c ****         return LOS_ERRNO_TSK_PTR_NULL;
 919:D:/fchai/work/i-cube/I-CUBE-HUAWEI/Middlewares/Third_Party/Huawei/iot_link/os/liteos/base/core\los_task.c ****     }
 920:D:/fchai/work/i-cube/I-CUBE-HUAWEI/Middlewares/Third_Party/Huawei/iot_link/os/liteos/base/core\los_task.c **** 
 921:D:/fchai/work/i-cube/I-CUBE-HUAWEI/Middlewares/Third_Party/Huawei/iot_link/os/liteos/base/core\los_task.c ****     stInitParam = *pstInitParam;
 2403              		.loc 1 921 5 is_stmt 1 view .LVU737
 2404              		.loc 1 921 17 is_stmt 0 view .LVU738
 2405 0008 0C46     		mov	r4, r1
 2406 000a 0646     		mov	r6, r0
 2407 000c 0FCC     		ldmia	r4!, {r0, r1, r2, r3}
 2408              	.LVL156:
 2409              		.loc 1 921 17 view .LVU739
 2410 000e 6D46     		mov	r5, sp
 2411 0010 0FC5     		stmia	r5!, {r0, r1, r2, r3}
 2412 0012 94E80300 		ldm	r4, {r0, r1}
 2413 0016 85E80300 		stm	r5, {r0, r1}
 922:D:/fchai/work/i-cube/I-CUBE-HUAWEI/Middlewares/Third_Party/Huawei/iot_link/os/liteos/base/core\los_task.c **** 
 923:D:/fchai/work/i-cube/I-CUBE-HUAWEI/Middlewares/Third_Party/Huawei/iot_link/os/liteos/base/core\los_task.c ****     uwRet = LOS_TaskCreateOnly(puwTaskID, &stInitParam);
 2414              		.loc 1 923 5 is_stmt 1 view .LVU740
 2415              		.loc 1 923 13 is_stmt 0 view .LVU741
 2416 001a 6946     		mov	r1, sp
 2417 001c 3046     		mov	r0, r6
 2418 001e FFF7FEFF 		bl	LOS_TaskCreateOnly
ARM GAS  T:\msys\tmp\ccehPeV4.s 			page 74


 2419              	.LVL157:
 924:D:/fchai/work/i-cube/I-CUBE-HUAWEI/Middlewares/Third_Party/Huawei/iot_link/os/liteos/base/core\los_task.c ****     if (LOS_OK != uwRet)
 2420              		.loc 1 924 5 is_stmt 1 view .LVU742
 2421              		.loc 1 924 8 is_stmt 0 view .LVU743
 2422 0022 0446     		mov	r4, r0
 2423              	.LVL158:
 2424              		.loc 1 924 8 view .LVU744
 2425 0024 10B1     		cbz	r0, .L173
 2426              	.LVL159:
 2427              	.L165:
 925:D:/fchai/work/i-cube/I-CUBE-HUAWEI/Middlewares/Third_Party/Huawei/iot_link/os/liteos/base/core\los_task.c ****     {
 926:D:/fchai/work/i-cube/I-CUBE-HUAWEI/Middlewares/Third_Party/Huawei/iot_link/os/liteos/base/core\los_task.c ****         return uwRet;
 927:D:/fchai/work/i-cube/I-CUBE-HUAWEI/Middlewares/Third_Party/Huawei/iot_link/os/liteos/base/core\los_task.c ****     }
 928:D:/fchai/work/i-cube/I-CUBE-HUAWEI/Middlewares/Third_Party/Huawei/iot_link/os/liteos/base/core\los_task.c ****     pstTaskCB = OS_TCB_FROM_TID(*puwTaskID);
 929:D:/fchai/work/i-cube/I-CUBE-HUAWEI/Middlewares/Third_Party/Huawei/iot_link/os/liteos/base/core\los_task.c **** 
 930:D:/fchai/work/i-cube/I-CUBE-HUAWEI/Middlewares/Third_Party/Huawei/iot_link/os/liteos/base/core\los_task.c ****     uvIntSave = LOS_IntLock();
 931:D:/fchai/work/i-cube/I-CUBE-HUAWEI/Middlewares/Third_Party/Huawei/iot_link/os/liteos/base/core\los_task.c ****     pstTaskCB->usTaskStatus &= (~OS_TASK_STATUS_SUSPEND);
 932:D:/fchai/work/i-cube/I-CUBE-HUAWEI/Middlewares/Third_Party/Huawei/iot_link/os/liteos/base/core\los_task.c ****     pstTaskCB->usTaskStatus |= OS_TASK_STATUS_READY;
 933:D:/fchai/work/i-cube/I-CUBE-HUAWEI/Middlewares/Third_Party/Huawei/iot_link/os/liteos/base/core\los_task.c **** 
 934:D:/fchai/work/i-cube/I-CUBE-HUAWEI/Middlewares/Third_Party/Huawei/iot_link/os/liteos/base/core\los_task.c **** #if (LOSCFG_BASE_CORE_CPUP == YES)
 935:D:/fchai/work/i-cube/I-CUBE-HUAWEI/Middlewares/Third_Party/Huawei/iot_link/os/liteos/base/core\los_task.c ****     g_pstCpup[pstTaskCB->uwTaskID].uwID = pstTaskCB->uwTaskID;
 936:D:/fchai/work/i-cube/I-CUBE-HUAWEI/Middlewares/Third_Party/Huawei/iot_link/os/liteos/base/core\los_task.c ****     g_pstCpup[pstTaskCB->uwTaskID].usStatus = pstTaskCB->usTaskStatus;
 937:D:/fchai/work/i-cube/I-CUBE-HUAWEI/Middlewares/Third_Party/Huawei/iot_link/os/liteos/base/core\los_task.c **** #endif
 938:D:/fchai/work/i-cube/I-CUBE-HUAWEI/Middlewares/Third_Party/Huawei/iot_link/os/liteos/base/core\los_task.c **** 
 939:D:/fchai/work/i-cube/I-CUBE-HUAWEI/Middlewares/Third_Party/Huawei/iot_link/os/liteos/base/core\los_task.c ****     osPriqueueEnqueue(&pstTaskCB->stPendList, pstTaskCB->usPriority);
 940:D:/fchai/work/i-cube/I-CUBE-HUAWEI/Middlewares/Third_Party/Huawei/iot_link/os/liteos/base/core\los_task.c ****     g_stLosTask.pstNewTask = LOS_DL_LIST_ENTRY(osPriqueueTop(), LOS_TASK_CB, stPendList); /*lint !e
 941:D:/fchai/work/i-cube/I-CUBE-HUAWEI/Middlewares/Third_Party/Huawei/iot_link/os/liteos/base/core\los_task.c **** 
 942:D:/fchai/work/i-cube/I-CUBE-HUAWEI/Middlewares/Third_Party/Huawei/iot_link/os/liteos/base/core\los_task.c ****     if ((g_bTaskScheduled) && (g_usLosTaskLock == 0))
 943:D:/fchai/work/i-cube/I-CUBE-HUAWEI/Middlewares/Third_Party/Huawei/iot_link/os/liteos/base/core\los_task.c ****     {
 944:D:/fchai/work/i-cube/I-CUBE-HUAWEI/Middlewares/Third_Party/Huawei/iot_link/os/liteos/base/core\los_task.c ****         if (g_stLosTask.pstRunTask != g_stLosTask.pstNewTask)
 945:D:/fchai/work/i-cube/I-CUBE-HUAWEI/Middlewares/Third_Party/Huawei/iot_link/os/liteos/base/core\los_task.c ****         {
 946:D:/fchai/work/i-cube/I-CUBE-HUAWEI/Middlewares/Third_Party/Huawei/iot_link/os/liteos/base/core\los_task.c ****             if (LOS_CHECK_SCHEDULE)
 947:D:/fchai/work/i-cube/I-CUBE-HUAWEI/Middlewares/Third_Party/Huawei/iot_link/os/liteos/base/core\los_task.c ****             {
 948:D:/fchai/work/i-cube/I-CUBE-HUAWEI/Middlewares/Third_Party/Huawei/iot_link/os/liteos/base/core\los_task.c ****                 (VOID)LOS_IntRestore(uvIntSave);
 949:D:/fchai/work/i-cube/I-CUBE-HUAWEI/Middlewares/Third_Party/Huawei/iot_link/os/liteos/base/core\los_task.c ****                 osSchedule();
 950:D:/fchai/work/i-cube/I-CUBE-HUAWEI/Middlewares/Third_Party/Huawei/iot_link/os/liteos/base/core\los_task.c ****                 return LOS_OK;
 951:D:/fchai/work/i-cube/I-CUBE-HUAWEI/Middlewares/Third_Party/Huawei/iot_link/os/liteos/base/core\los_task.c ****             }
 952:D:/fchai/work/i-cube/I-CUBE-HUAWEI/Middlewares/Third_Party/Huawei/iot_link/os/liteos/base/core\los_task.c ****         }
 953:D:/fchai/work/i-cube/I-CUBE-HUAWEI/Middlewares/Third_Party/Huawei/iot_link/os/liteos/base/core\los_task.c ****     }
 954:D:/fchai/work/i-cube/I-CUBE-HUAWEI/Middlewares/Third_Party/Huawei/iot_link/os/liteos/base/core\los_task.c **** 
 955:D:/fchai/work/i-cube/I-CUBE-HUAWEI/Middlewares/Third_Party/Huawei/iot_link/os/liteos/base/core\los_task.c ****     (VOID)LOS_IntRestore(uvIntSave);
 956:D:/fchai/work/i-cube/I-CUBE-HUAWEI/Middlewares/Third_Party/Huawei/iot_link/os/liteos/base/core\los_task.c ****     return LOS_OK;
 957:D:/fchai/work/i-cube/I-CUBE-HUAWEI/Middlewares/Third_Party/Huawei/iot_link/os/liteos/base/core\los_task.c **** }
 2428              		.loc 1 957 1 view .LVU745
 2429 0026 2046     		mov	r0, r4
 2430 0028 06B0     		add	sp, sp, #24
 2431              	.LCFI30:
 2432              		.cfi_remember_state
 2433              		.cfi_def_cfa_offset 16
 2434              		@ sp needed
 2435 002a 70BD     		pop	{r4, r5, r6, pc}
 2436              	.LVL160:
 2437              	.L173:
 2438              	.LCFI31:
 2439              		.cfi_restore_state
 2440              	.LBB201:
 2441              	.LBI201:
ARM GAS  T:\msys\tmp\ccehPeV4.s 			page 75


 909:D:/fchai/work/i-cube/I-CUBE-HUAWEI/Middlewares/Third_Party/Huawei/iot_link/os/liteos/base/core\los_task.c **** {
 2442              		.loc 1 909 30 is_stmt 1 view .LVU746
 2443              	.LBB202:
 928:D:/fchai/work/i-cube/I-CUBE-HUAWEI/Middlewares/Third_Party/Huawei/iot_link/os/liteos/base/core\los_task.c **** 
 2444              		.loc 1 928 5 view .LVU747
 928:D:/fchai/work/i-cube/I-CUBE-HUAWEI/Middlewares/Third_Party/Huawei/iot_link/os/liteos/base/core\los_task.c **** 
 2445              		.loc 1 928 17 is_stmt 0 view .LVU748
 2446 002c 194B     		ldr	r3, .L175
 2447 002e 3568     		ldr	r5, [r6]
 928:D:/fchai/work/i-cube/I-CUBE-HUAWEI/Middlewares/Third_Party/Huawei/iot_link/os/liteos/base/core\los_task.c **** 
 2448              		.loc 1 928 15 view .LVU749
 2449 0030 1B68     		ldr	r3, [r3]
 928:D:/fchai/work/i-cube/I-CUBE-HUAWEI/Middlewares/Third_Party/Huawei/iot_link/os/liteos/base/core\los_task.c **** 
 2450              		.loc 1 928 17 view .LVU750
 2451 0032 5422     		movs	r2, #84
 928:D:/fchai/work/i-cube/I-CUBE-HUAWEI/Middlewares/Third_Party/Huawei/iot_link/os/liteos/base/core\los_task.c **** 
 2452              		.loc 1 928 15 view .LVU751
 2453 0034 02FB0535 		mla	r5, r2, r5, r3
 2454              	.LVL161:
 930:D:/fchai/work/i-cube/I-CUBE-HUAWEI/Middlewares/Third_Party/Huawei/iot_link/os/liteos/base/core\los_task.c ****     pstTaskCB->usTaskStatus &= (~OS_TASK_STATUS_SUSPEND);
 2455              		.loc 1 930 5 is_stmt 1 view .LVU752
 930:D:/fchai/work/i-cube/I-CUBE-HUAWEI/Middlewares/Third_Party/Huawei/iot_link/os/liteos/base/core\los_task.c ****     pstTaskCB->usTaskStatus &= (~OS_TASK_STATUS_SUSPEND);
 2456              		.loc 1 930 17 is_stmt 0 view .LVU753
 2457 0038 FFF7FEFF 		bl	LOS_IntLock
 2458              	.LVL162:
 931:D:/fchai/work/i-cube/I-CUBE-HUAWEI/Middlewares/Third_Party/Huawei/iot_link/os/liteos/base/core\los_task.c ****     pstTaskCB->usTaskStatus |= OS_TASK_STATUS_READY;
 2459              		.loc 1 931 29 view .LVU754
 2460 003c AB88     		ldrh	r3, [r5, #4]
 939:D:/fchai/work/i-cube/I-CUBE-HUAWEI/Middlewares/Third_Party/Huawei/iot_link/os/liteos/base/core\los_task.c ****     g_stLosTask.pstNewTask = LOS_DL_LIST_ENTRY(osPriqueueTop(), LOS_TASK_CB, stPendList); /*lint !e
 2461              		.loc 1 939 5 view .LVU755
 2462 003e E988     		ldrh	r1, [r5, #6]
 931:D:/fchai/work/i-cube/I-CUBE-HUAWEI/Middlewares/Third_Party/Huawei/iot_link/os/liteos/base/core\los_task.c ****     pstTaskCB->usTaskStatus |= OS_TASK_STATUS_READY;
 2463              		.loc 1 931 29 view .LVU756
 2464 0040 23F00203 		bic	r3, r3, #2
 932:D:/fchai/work/i-cube/I-CUBE-HUAWEI/Middlewares/Third_Party/Huawei/iot_link/os/liteos/base/core\los_task.c **** 
 2465              		.loc 1 932 29 view .LVU757
 2466 0044 43F00403 		orr	r3, r3, #4
 930:D:/fchai/work/i-cube/I-CUBE-HUAWEI/Middlewares/Third_Party/Huawei/iot_link/os/liteos/base/core\los_task.c ****     pstTaskCB->usTaskStatus &= (~OS_TASK_STATUS_SUSPEND);
 2467              		.loc 1 930 17 view .LVU758
 2468 0048 0246     		mov	r2, r0
 932:D:/fchai/work/i-cube/I-CUBE-HUAWEI/Middlewares/Third_Party/Huawei/iot_link/os/liteos/base/core\los_task.c **** 
 2469              		.loc 1 932 29 view .LVU759
 2470 004a AB80     		strh	r3, [r5, #4]	@ movhi
 939:D:/fchai/work/i-cube/I-CUBE-HUAWEI/Middlewares/Third_Party/Huawei/iot_link/os/liteos/base/core\los_task.c ****     g_stLosTask.pstNewTask = LOS_DL_LIST_ENTRY(osPriqueueTop(), LOS_TASK_CB, stPendList); /*lint !e
 2471              		.loc 1 939 5 view .LVU760
 2472 004c 05F12800 		add	r0, r5, #40
 930:D:/fchai/work/i-cube/I-CUBE-HUAWEI/Middlewares/Third_Party/Huawei/iot_link/os/liteos/base/core\los_task.c ****     pstTaskCB->usTaskStatus &= (~OS_TASK_STATUS_SUSPEND);
 2473              		.loc 1 930 17 view .LVU761
 2474 0050 1546     		mov	r5, r2
 2475              	.LVL163:
 931:D:/fchai/work/i-cube/I-CUBE-HUAWEI/Middlewares/Third_Party/Huawei/iot_link/os/liteos/base/core\los_task.c ****     pstTaskCB->usTaskStatus |= OS_TASK_STATUS_READY;
 2476              		.loc 1 931 5 is_stmt 1 view .LVU762
 932:D:/fchai/work/i-cube/I-CUBE-HUAWEI/Middlewares/Third_Party/Huawei/iot_link/os/liteos/base/core\los_task.c **** 
 2477              		.loc 1 932 5 view .LVU763
 939:D:/fchai/work/i-cube/I-CUBE-HUAWEI/Middlewares/Third_Party/Huawei/iot_link/os/liteos/base/core\los_task.c ****     g_stLosTask.pstNewTask = LOS_DL_LIST_ENTRY(osPriqueueTop(), LOS_TASK_CB, stPendList); /*lint !e
 2478              		.loc 1 939 5 view .LVU764
 2479 0052 FFF7FEFF 		bl	osPriqueueEnqueue
ARM GAS  T:\msys\tmp\ccehPeV4.s 			page 76


 2480              	.LVL164:
 940:D:/fchai/work/i-cube/I-CUBE-HUAWEI/Middlewares/Third_Party/Huawei/iot_link/os/liteos/base/core\los_task.c **** 
 2481              		.loc 1 940 5 view .LVU765
 940:D:/fchai/work/i-cube/I-CUBE-HUAWEI/Middlewares/Third_Party/Huawei/iot_link/os/liteos/base/core\los_task.c **** 
 2482              		.loc 1 940 30 is_stmt 0 view .LVU766
 2483 0056 FFF7FEFF 		bl	osPriqueueTop
 2484              	.LVL165:
 942:D:/fchai/work/i-cube/I-CUBE-HUAWEI/Middlewares/Third_Party/Huawei/iot_link/os/liteos/base/core\los_task.c ****     {
 2485              		.loc 1 942 9 view .LVU767
 2486 005a 0F4B     		ldr	r3, .L175+4
 940:D:/fchai/work/i-cube/I-CUBE-HUAWEI/Middlewares/Third_Party/Huawei/iot_link/os/liteos/base/core\los_task.c **** 
 2487              		.loc 1 940 28 view .LVU768
 2488 005c 0F4A     		ldr	r2, .L175+8
 942:D:/fchai/work/i-cube/I-CUBE-HUAWEI/Middlewares/Third_Party/Huawei/iot_link/os/liteos/base/core\los_task.c ****     {
 2489              		.loc 1 942 8 view .LVU769
 2490 005e 1968     		ldr	r1, [r3]
 940:D:/fchai/work/i-cube/I-CUBE-HUAWEI/Middlewares/Third_Party/Huawei/iot_link/os/liteos/base/core\los_task.c **** 
 2491              		.loc 1 940 30 view .LVU770
 2492 0060 2838     		subs	r0, r0, #40
 940:D:/fchai/work/i-cube/I-CUBE-HUAWEI/Middlewares/Third_Party/Huawei/iot_link/os/liteos/base/core\los_task.c **** 
 2493              		.loc 1 940 28 view .LVU771
 2494 0062 5060     		str	r0, [r2, #4]
 942:D:/fchai/work/i-cube/I-CUBE-HUAWEI/Middlewares/Third_Party/Huawei/iot_link/os/liteos/base/core\los_task.c ****     {
 2495              		.loc 1 942 5 is_stmt 1 view .LVU772
 942:D:/fchai/work/i-cube/I-CUBE-HUAWEI/Middlewares/Third_Party/Huawei/iot_link/os/liteos/base/core\los_task.c ****     {
 2496              		.loc 1 942 8 is_stmt 0 view .LVU773
 2497 0064 29B1     		cbz	r1, .L167
 942:D:/fchai/work/i-cube/I-CUBE-HUAWEI/Middlewares/Third_Party/Huawei/iot_link/os/liteos/base/core\los_task.c ****     {
 2498              		.loc 1 942 48 view .LVU774
 2499 0066 0E49     		ldr	r1, .L175+12
 942:D:/fchai/work/i-cube/I-CUBE-HUAWEI/Middlewares/Third_Party/Huawei/iot_link/os/liteos/base/core\los_task.c ****     {
 2500              		.loc 1 942 28 view .LVU775
 2501 0068 0988     		ldrh	r1, [r1]
 2502 006a 11B9     		cbnz	r1, .L167
 944:D:/fchai/work/i-cube/I-CUBE-HUAWEI/Middlewares/Third_Party/Huawei/iot_link/os/liteos/base/core\los_task.c ****         {
 2503              		.loc 1 944 9 is_stmt 1 view .LVU776
 944:D:/fchai/work/i-cube/I-CUBE-HUAWEI/Middlewares/Third_Party/Huawei/iot_link/os/liteos/base/core\los_task.c ****         {
 2504              		.loc 1 944 12 is_stmt 0 view .LVU777
 2505 006c 1268     		ldr	r2, [r2]
 2506 006e 9042     		cmp	r0, r2
 2507 0070 09D1     		bne	.L174
 2508              	.L167:
 955:D:/fchai/work/i-cube/I-CUBE-HUAWEI/Middlewares/Third_Party/Huawei/iot_link/os/liteos/base/core\los_task.c ****     return LOS_OK;
 2509              		.loc 1 955 5 is_stmt 1 view .LVU778
 2510 0072 2846     		mov	r0, r5
 2511 0074 FFF7FEFF 		bl	LOS_IntRestore
 2512              	.LVL166:
 956:D:/fchai/work/i-cube/I-CUBE-HUAWEI/Middlewares/Third_Party/Huawei/iot_link/os/liteos/base/core\los_task.c **** }
 2513              		.loc 1 956 5 view .LVU779
 2514              	.LBE202:
 2515              	.LBE201:
 2516              		.loc 1 957 1 is_stmt 0 view .LVU780
 2517 0078 2046     		mov	r0, r4
 2518 007a 06B0     		add	sp, sp, #24
 2519              	.LCFI32:
 2520              		.cfi_remember_state
 2521              		.cfi_def_cfa_offset 16
ARM GAS  T:\msys\tmp\ccehPeV4.s 			page 77


 2522              		@ sp needed
 2523 007c 70BD     		pop	{r4, r5, r6, pc}
 2524              	.LVL167:
 2525              	.L168:
 2526              	.LCFI33:
 2527              		.cfi_restore_state
 918:D:/fchai/work/i-cube/I-CUBE-HUAWEI/Middlewares/Third_Party/Huawei/iot_link/os/liteos/base/core\los_task.c ****     }
 2528              		.loc 1 918 16 view .LVU781
 2529 007e 094C     		ldr	r4, .L175+16
 2530              		.loc 1 957 1 view .LVU782
 2531 0080 2046     		mov	r0, r4
 2532              	.LVL168:
 2533              		.loc 1 957 1 view .LVU783
 2534 0082 06B0     		add	sp, sp, #24
 2535              	.LCFI34:
 2536              		.cfi_remember_state
 2537              		.cfi_def_cfa_offset 16
 2538              		@ sp needed
 2539 0084 70BD     		pop	{r4, r5, r6, pc}
 2540              	.LVL169:
 2541              	.L174:
 2542              	.LCFI35:
 2543              		.cfi_restore_state
 2544              	.LBB204:
 2545              	.LBB203:
 946:D:/fchai/work/i-cube/I-CUBE-HUAWEI/Middlewares/Third_Party/Huawei/iot_link/os/liteos/base/core\los_task.c ****             {
 2546              		.loc 1 946 13 is_stmt 1 view .LVU784
 948:D:/fchai/work/i-cube/I-CUBE-HUAWEI/Middlewares/Third_Party/Huawei/iot_link/os/liteos/base/core\los_task.c ****                 osSchedule();
 2547              		.loc 1 948 17 view .LVU785
 2548 0086 2846     		mov	r0, r5
 2549 0088 FFF7FEFF 		bl	LOS_IntRestore
 2550              	.LVL170:
 949:D:/fchai/work/i-cube/I-CUBE-HUAWEI/Middlewares/Third_Party/Huawei/iot_link/os/liteos/base/core\los_task.c ****                 return LOS_OK;
 2551              		.loc 1 949 17 view .LVU786
 2552 008c FFF7FEFF 		bl	osSchedule
 2553              	.LVL171:
 950:D:/fchai/work/i-cube/I-CUBE-HUAWEI/Middlewares/Third_Party/Huawei/iot_link/os/liteos/base/core\los_task.c ****             }
 2554              		.loc 1 950 17 view .LVU787
 950:D:/fchai/work/i-cube/I-CUBE-HUAWEI/Middlewares/Third_Party/Huawei/iot_link/os/liteos/base/core\los_task.c ****             }
 2555              		.loc 1 950 24 is_stmt 0 view .LVU788
 2556 0090 C9E7     		b	.L165
 2557              	.L176:
 2558 0092 00BF     		.align	2
 2559              	.L175:
 2560 0094 00000000 		.word	g_pstTaskCBArray
 2561 0098 00000000 		.word	g_bTaskScheduled
 2562 009c 00000000 		.word	g_stLosTask
 2563 00a0 00000000 		.word	g_usLosTaskLock
 2564 00a4 01020002 		.word	33554945
 2565              	.LBE203:
 2566              	.LBE204:
 2567              		.cfi_endproc
 2568              	.LFE150:
 2570              		.section	.rodata.osIdleTaskCreate.str1.4,"aMS",%progbits,1
 2571              		.align	2
 2572              	.LC20:
 2573 0000 49646C65 		.ascii	"IdleCore000\000"
ARM GAS  T:\msys\tmp\ccehPeV4.s 			page 78


 2573      436F7265 
 2573      30303000 
 2574              		.section	.text.osIdleTaskCreate,"ax",%progbits
 2575              		.align	1
 2576              		.p2align 2,,3
 2577              		.global	osIdleTaskCreate
 2578              		.syntax unified
 2579              		.thumb
 2580              		.thumb_func
 2581              		.fpu fpv4-sp-d16
 2583              	osIdleTaskCreate:
 2584              	.LFB142:
 587:D:/fchai/work/i-cube/I-CUBE-HUAWEI/Middlewares/Third_Party/Huawei/iot_link/os/liteos/base/core\los_task.c **** #if (LOSCFG_STATIC_TASK == NO)
 2585              		.loc 1 587 1 is_stmt 1 view -0
 2586              		.cfi_startproc
 2587              		@ args = 0, pretend = 0, frame = 24
 2588              		@ frame_needed = 0, uses_anonymous_args = 0
 589:D:/fchai/work/i-cube/I-CUBE-HUAWEI/Middlewares/Third_Party/Huawei/iot_link/os/liteos/base/core\los_task.c ****     TSK_INIT_PARAM_S stTaskInitParam;
 2589              		.loc 1 589 5 view .LVU790
 590:D:/fchai/work/i-cube/I-CUBE-HUAWEI/Middlewares/Third_Party/Huawei/iot_link/os/liteos/base/core\los_task.c **** 
 2590              		.loc 1 590 5 view .LVU791
 592:D:/fchai/work/i-cube/I-CUBE-HUAWEI/Middlewares/Third_Party/Huawei/iot_link/os/liteos/base/core\los_task.c ****     stTaskInitParam.pfnTaskEntry = (TSK_ENTRY_FUNC)osIdleTask;
 2591              		.loc 1 592 5 view .LVU792
 587:D:/fchai/work/i-cube/I-CUBE-HUAWEI/Middlewares/Third_Party/Huawei/iot_link/os/liteos/base/core\los_task.c **** #if (LOSCFG_STATIC_TASK == NO)
 2592              		.loc 1 587 1 is_stmt 0 view .LVU793
 2593 0000 30B5     		push	{r4, r5, lr}
 2594              	.LCFI36:
 2595              		.cfi_def_cfa_offset 12
 2596              		.cfi_offset 4, -12
 2597              		.cfi_offset 5, -8
 2598              		.cfi_offset 14, -4
 2599 0002 87B0     		sub	sp, sp, #28
 2600              	.LCFI37:
 2601              		.cfi_def_cfa_offset 40
 592:D:/fchai/work/i-cube/I-CUBE-HUAWEI/Middlewares/Third_Party/Huawei/iot_link/os/liteos/base/core\los_task.c ****     stTaskInitParam.pfnTaskEntry = (TSK_ENTRY_FUNC)osIdleTask;
 2602              		.loc 1 592 11 view .LVU794
 2603 0004 0023     		movs	r3, #0
 595:D:/fchai/work/i-cube/I-CUBE-HUAWEI/Middlewares/Third_Party/Huawei/iot_link/os/liteos/base/core\los_task.c ****     stTaskInitParam.usTaskPrio = OS_TASK_PRIORITY_LOWEST;
 2604              		.loc 1 595 28 view .LVU795
 2605 0006 094A     		ldr	r2, .L179
 592:D:/fchai/work/i-cube/I-CUBE-HUAWEI/Middlewares/Third_Party/Huawei/iot_link/os/liteos/base/core\los_task.c ****     stTaskInitParam.pfnTaskEntry = (TSK_ENTRY_FUNC)osIdleTask;
 2606              		.loc 1 592 11 view .LVU796
 2607 0008 0193     		str	r3, [sp, #4]
 2608 000a 0293     		str	r3, [sp, #8]
 2609 000c 0593     		str	r3, [sp, #20]
 593:D:/fchai/work/i-cube/I-CUBE-HUAWEI/Middlewares/Third_Party/Huawei/iot_link/os/liteos/base/core\los_task.c ****     stTaskInitParam.uwStackSize = LOSCFG_BASE_CORE_TSK_IDLE_STACK_SIZE;
 2610              		.loc 1 593 5 is_stmt 1 view .LVU797
 593:D:/fchai/work/i-cube/I-CUBE-HUAWEI/Middlewares/Third_Party/Huawei/iot_link/os/liteos/base/core\los_task.c ****     stTaskInitParam.uwStackSize = LOSCFG_BASE_CORE_TSK_IDLE_STACK_SIZE;
 2611              		.loc 1 593 34 is_stmt 0 view .LVU798
 2612 000e 084D     		ldr	r5, .L179+4
 597:D:/fchai/work/i-cube/I-CUBE-HUAWEI/Middlewares/Third_Party/Huawei/iot_link/os/liteos/base/core\los_task.c **** 
 2613              		.loc 1 597 13 view .LVU799
 2614 0010 0848     		ldr	r0, .L179+8
 593:D:/fchai/work/i-cube/I-CUBE-HUAWEI/Middlewares/Third_Party/Huawei/iot_link/os/liteos/base/core\los_task.c ****     stTaskInitParam.uwStackSize = LOSCFG_BASE_CORE_TSK_IDLE_STACK_SIZE;
 2615              		.loc 1 593 34 view .LVU800
 2616 0012 0095     		str	r5, [sp]
 594:D:/fchai/work/i-cube/I-CUBE-HUAWEI/Middlewares/Third_Party/Huawei/iot_link/os/liteos/base/core\los_task.c ****     stTaskInitParam.pcName = "IdleCore000";
ARM GAS  T:\msys\tmp\ccehPeV4.s 			page 79


 2617              		.loc 1 594 5 is_stmt 1 view .LVU801
 596:D:/fchai/work/i-cube/I-CUBE-HUAWEI/Middlewares/Third_Party/Huawei/iot_link/os/liteos/base/core\los_task.c ****     uwRet = LOS_TaskCreate(&g_uwIdleTaskID, &stTaskInitParam);
 2618              		.loc 1 596 32 is_stmt 0 view .LVU802
 2619 0014 1F23     		movs	r3, #31
 594:D:/fchai/work/i-cube/I-CUBE-HUAWEI/Middlewares/Third_Party/Huawei/iot_link/os/liteos/base/core\los_task.c ****     stTaskInitParam.pcName = "IdleCore000";
 2620              		.loc 1 594 33 view .LVU803
 2621 0016 4FF40074 		mov	r4, #512
 597:D:/fchai/work/i-cube/I-CUBE-HUAWEI/Middlewares/Third_Party/Huawei/iot_link/os/liteos/base/core\los_task.c **** 
 2622              		.loc 1 597 13 view .LVU804
 2623 001a 6946     		mov	r1, sp
 595:D:/fchai/work/i-cube/I-CUBE-HUAWEI/Middlewares/Third_Party/Huawei/iot_link/os/liteos/base/core\los_task.c ****     stTaskInitParam.usTaskPrio = OS_TASK_PRIORITY_LOWEST;
 2624              		.loc 1 595 28 view .LVU805
 2625 001c CDE90342 		strd	r4, r2, [sp, #12]
 596:D:/fchai/work/i-cube/I-CUBE-HUAWEI/Middlewares/Third_Party/Huawei/iot_link/os/liteos/base/core\los_task.c ****     uwRet = LOS_TaskCreate(&g_uwIdleTaskID, &stTaskInitParam);
 2626              		.loc 1 596 5 is_stmt 1 view .LVU806
 596:D:/fchai/work/i-cube/I-CUBE-HUAWEI/Middlewares/Third_Party/Huawei/iot_link/os/liteos/base/core\los_task.c ****     uwRet = LOS_TaskCreate(&g_uwIdleTaskID, &stTaskInitParam);
 2627              		.loc 1 596 32 is_stmt 0 view .LVU807
 2628 0020 ADF80430 		strh	r3, [sp, #4]	@ movhi
 597:D:/fchai/work/i-cube/I-CUBE-HUAWEI/Middlewares/Third_Party/Huawei/iot_link/os/liteos/base/core\los_task.c **** 
 2629              		.loc 1 597 5 is_stmt 1 view .LVU808
 597:D:/fchai/work/i-cube/I-CUBE-HUAWEI/Middlewares/Third_Party/Huawei/iot_link/os/liteos/base/core\los_task.c **** 
 2630              		.loc 1 597 13 is_stmt 0 view .LVU809
 2631 0024 FFF7FEFF 		bl	LOS_TaskCreate
 2632              	.LVL172:
 599:D:/fchai/work/i-cube/I-CUBE-HUAWEI/Middlewares/Third_Party/Huawei/iot_link/os/liteos/base/core\los_task.c ****     {
 2633              		.loc 1 599 5 is_stmt 1 view .LVU810
 608:D:/fchai/work/i-cube/I-CUBE-HUAWEI/Middlewares/Third_Party/Huawei/iot_link/os/liteos/base/core\los_task.c **** 
 2634              		.loc 1 608 1 is_stmt 0 view .LVU811
 2635 0028 07B0     		add	sp, sp, #28
 2636              	.LCFI38:
 2637              		.cfi_def_cfa_offset 12
 2638              		@ sp needed
 2639 002a 30BD     		pop	{r4, r5, pc}
 2640              	.L180:
 2641              		.align	2
 2642              	.L179:
 2643 002c 00000000 		.word	.LC20
 2644 0030 00000000 		.word	osIdleTask
 2645 0034 00000000 		.word	g_uwIdleTaskID
 2646              		.cfi_endproc
 2647              	.LFE142:
 2649              		.section	.text.LOS_TaskResume,"ax",%progbits
 2650              		.align	1
 2651              		.p2align 2,,3
 2652              		.global	LOS_TaskResume
 2653              		.syntax unified
 2654              		.thumb
 2655              		.thumb_func
 2656              		.fpu fpv4-sp-d16
 2658              	LOS_TaskResume:
 2659              	.LVL173:
 2660              	.LFB151:
 958:D:/fchai/work/i-cube/I-CUBE-HUAWEI/Middlewares/Third_Party/Huawei/iot_link/os/liteos/base/core\los_task.c **** #endif
 959:D:/fchai/work/i-cube/I-CUBE-HUAWEI/Middlewares/Third_Party/Huawei/iot_link/os/liteos/base/core\los_task.c **** 
 960:D:/fchai/work/i-cube/I-CUBE-HUAWEI/Middlewares/Third_Party/Huawei/iot_link/os/liteos/base/core\los_task.c **** /*****************************************************************************
 961:D:/fchai/work/i-cube/I-CUBE-HUAWEI/Middlewares/Third_Party/Huawei/iot_link/os/liteos/base/core\los_task.c ****  Function : LOS_TaskResume
 962:D:/fchai/work/i-cube/I-CUBE-HUAWEI/Middlewares/Third_Party/Huawei/iot_link/os/liteos/base/core\los_task.c ****  Description : Resume suspend task
ARM GAS  T:\msys\tmp\ccehPeV4.s 			page 80


 963:D:/fchai/work/i-cube/I-CUBE-HUAWEI/Middlewares/Third_Party/Huawei/iot_link/os/liteos/base/core\los_task.c ****  Input       : uwTaskID --- Task ID
 964:D:/fchai/work/i-cube/I-CUBE-HUAWEI/Middlewares/Third_Party/Huawei/iot_link/os/liteos/base/core\los_task.c ****  Output      : None
 965:D:/fchai/work/i-cube/I-CUBE-HUAWEI/Middlewares/Third_Party/Huawei/iot_link/os/liteos/base/core\los_task.c ****  Return      : LOS_OK on success or error code on failure
 966:D:/fchai/work/i-cube/I-CUBE-HUAWEI/Middlewares/Third_Party/Huawei/iot_link/os/liteos/base/core\los_task.c ****  *****************************************************************************/
 967:D:/fchai/work/i-cube/I-CUBE-HUAWEI/Middlewares/Third_Party/Huawei/iot_link/os/liteos/base/core\los_task.c **** LITE_OS_SEC_TEXT_INIT UINT32 LOS_TaskResume(UINT32 uwTaskID)
 968:D:/fchai/work/i-cube/I-CUBE-HUAWEI/Middlewares/Third_Party/Huawei/iot_link/os/liteos/base/core\los_task.c **** {
 2661              		.loc 1 968 1 is_stmt 1 view -0
 2662              		.cfi_startproc
 2663              		@ args = 0, pretend = 0, frame = 0
 2664              		@ frame_needed = 0, uses_anonymous_args = 0
 969:D:/fchai/work/i-cube/I-CUBE-HUAWEI/Middlewares/Third_Party/Huawei/iot_link/os/liteos/base/core\los_task.c ****     UINTPTR uvIntSave;
 2665              		.loc 1 969 5 view .LVU813
 970:D:/fchai/work/i-cube/I-CUBE-HUAWEI/Middlewares/Third_Party/Huawei/iot_link/os/liteos/base/core\los_task.c ****     LOS_TASK_CB *pstTaskCB;
 2666              		.loc 1 970 5 view .LVU814
 971:D:/fchai/work/i-cube/I-CUBE-HUAWEI/Middlewares/Third_Party/Huawei/iot_link/os/liteos/base/core\los_task.c ****     UINT16 usTempStatus;
 2667              		.loc 1 971 5 view .LVU815
 972:D:/fchai/work/i-cube/I-CUBE-HUAWEI/Middlewares/Third_Party/Huawei/iot_link/os/liteos/base/core\los_task.c ****     UINT32 uwErrRet = OS_ERROR;
 2668              		.loc 1 972 5 view .LVU816
 973:D:/fchai/work/i-cube/I-CUBE-HUAWEI/Middlewares/Third_Party/Huawei/iot_link/os/liteos/base/core\los_task.c **** 
 974:D:/fchai/work/i-cube/I-CUBE-HUAWEI/Middlewares/Third_Party/Huawei/iot_link/os/liteos/base/core\los_task.c ****     if (uwTaskID > LOSCFG_BASE_CORE_TSK_LIMIT)
 2669              		.loc 1 974 5 view .LVU817
 2670              		.loc 1 974 8 is_stmt 0 view .LVU818
 2671 0000 0F28     		cmp	r0, #15
 968:D:/fchai/work/i-cube/I-CUBE-HUAWEI/Middlewares/Third_Party/Huawei/iot_link/os/liteos/base/core\los_task.c ****     UINTPTR uvIntSave;
 2672              		.loc 1 968 1 view .LVU819
 2673 0002 70B5     		push	{r4, r5, r6, lr}
 2674              	.LCFI39:
 2675              		.cfi_def_cfa_offset 16
 2676              		.cfi_offset 4, -16
 2677              		.cfi_offset 5, -12
 2678              		.cfi_offset 6, -8
 2679              		.cfi_offset 14, -4
 2680              		.loc 1 974 8 view .LVU820
 2681 0004 2AD8     		bhi	.L187
 975:D:/fchai/work/i-cube/I-CUBE-HUAWEI/Middlewares/Third_Party/Huawei/iot_link/os/liteos/base/core\los_task.c ****     {
 976:D:/fchai/work/i-cube/I-CUBE-HUAWEI/Middlewares/Third_Party/Huawei/iot_link/os/liteos/base/core\los_task.c ****         return LOS_ERRNO_TSK_ID_INVALID;
 977:D:/fchai/work/i-cube/I-CUBE-HUAWEI/Middlewares/Third_Party/Huawei/iot_link/os/liteos/base/core\los_task.c ****     }
 978:D:/fchai/work/i-cube/I-CUBE-HUAWEI/Middlewares/Third_Party/Huawei/iot_link/os/liteos/base/core\los_task.c **** 
 979:D:/fchai/work/i-cube/I-CUBE-HUAWEI/Middlewares/Third_Party/Huawei/iot_link/os/liteos/base/core\los_task.c ****     pstTaskCB = OS_TCB_FROM_TID(uwTaskID);
 2682              		.loc 1 979 5 is_stmt 1 view .LVU821
 2683              		.loc 1 979 17 is_stmt 0 view .LVU822
 2684 0006 1E4B     		ldr	r3, .L193
 2685              		.loc 1 979 15 view .LVU823
 2686 0008 1C68     		ldr	r4, [r3]
 2687              		.loc 1 979 17 view .LVU824
 2688 000a 5423     		movs	r3, #84
 2689              		.loc 1 979 15 view .LVU825
 2690 000c 03FB0044 		mla	r4, r3, r0, r4
 2691              	.LVL174:
 980:D:/fchai/work/i-cube/I-CUBE-HUAWEI/Middlewares/Third_Party/Huawei/iot_link/os/liteos/base/core\los_task.c ****     uvIntSave = LOS_IntLock();
 2692              		.loc 1 980 5 is_stmt 1 view .LVU826
 2693              		.loc 1 980 17 is_stmt 0 view .LVU827
 2694 0010 FFF7FEFF 		bl	LOS_IntLock
 2695              	.LVL175:
 981:D:/fchai/work/i-cube/I-CUBE-HUAWEI/Middlewares/Third_Party/Huawei/iot_link/os/liteos/base/core\los_task.c ****     usTempStatus = pstTaskCB->usTaskStatus;
 2696              		.loc 1 981 18 view .LVU828
 2697 0014 A388     		ldrh	r3, [r4, #4]
ARM GAS  T:\msys\tmp\ccehPeV4.s 			page 81


 982:D:/fchai/work/i-cube/I-CUBE-HUAWEI/Middlewares/Third_Party/Huawei/iot_link/os/liteos/base/core\los_task.c **** 
 983:D:/fchai/work/i-cube/I-CUBE-HUAWEI/Middlewares/Third_Party/Huawei/iot_link/os/liteos/base/core\los_task.c ****     if (OS_TASK_STATUS_UNUSED & usTempStatus)
 2698              		.loc 1 983 8 view .LVU829
 2699 0016 D907     		lsls	r1, r3, #31
 980:D:/fchai/work/i-cube/I-CUBE-HUAWEI/Middlewares/Third_Party/Huawei/iot_link/os/liteos/base/core\los_task.c ****     usTempStatus = pstTaskCB->usTaskStatus;
 2700              		.loc 1 980 17 view .LVU830
 2701 0018 0646     		mov	r6, r0
 2702              	.LVL176:
 981:D:/fchai/work/i-cube/I-CUBE-HUAWEI/Middlewares/Third_Party/Huawei/iot_link/os/liteos/base/core\los_task.c ****     usTempStatus = pstTaskCB->usTaskStatus;
 2703              		.loc 1 981 5 is_stmt 1 view .LVU831
 2704              		.loc 1 983 5 view .LVU832
 2705              		.loc 1 983 8 is_stmt 0 view .LVU833
 2706 001a 19D4     		bmi	.L188
 984:D:/fchai/work/i-cube/I-CUBE-HUAWEI/Middlewares/Third_Party/Huawei/iot_link/os/liteos/base/core\los_task.c ****     {
 985:D:/fchai/work/i-cube/I-CUBE-HUAWEI/Middlewares/Third_Party/Huawei/iot_link/os/liteos/base/core\los_task.c ****         uwErrRet = LOS_ERRNO_TSK_NOT_CREATED;
 986:D:/fchai/work/i-cube/I-CUBE-HUAWEI/Middlewares/Third_Party/Huawei/iot_link/os/liteos/base/core\los_task.c ****         OS_GOTO_ERREND();
 2707              		.loc 1 986 9 is_stmt 1 view .LVU834
 987:D:/fchai/work/i-cube/I-CUBE-HUAWEI/Middlewares/Third_Party/Huawei/iot_link/os/liteos/base/core\los_task.c ****     }
 988:D:/fchai/work/i-cube/I-CUBE-HUAWEI/Middlewares/Third_Party/Huawei/iot_link/os/liteos/base/core\los_task.c ****     else if (!(OS_TASK_STATUS_SUSPEND & usTempStatus))
 2708              		.loc 1 988 10 view .LVU835
 2709              		.loc 1 988 13 is_stmt 0 view .LVU836
 2710 001c 9A07     		lsls	r2, r3, #30
 2711 001e 27D5     		bpl	.L189
 989:D:/fchai/work/i-cube/I-CUBE-HUAWEI/Middlewares/Third_Party/Huawei/iot_link/os/liteos/base/core\los_task.c ****     {
 990:D:/fchai/work/i-cube/I-CUBE-HUAWEI/Middlewares/Third_Party/Huawei/iot_link/os/liteos/base/core\los_task.c ****         uwErrRet = LOS_ERRNO_TSK_NOT_SUSPENDED;
 991:D:/fchai/work/i-cube/I-CUBE-HUAWEI/Middlewares/Third_Party/Huawei/iot_link/os/liteos/base/core\los_task.c ****         OS_GOTO_ERREND();
 2712              		.loc 1 991 9 is_stmt 1 view .LVU837
 992:D:/fchai/work/i-cube/I-CUBE-HUAWEI/Middlewares/Third_Party/Huawei/iot_link/os/liteos/base/core\los_task.c ****     }
 993:D:/fchai/work/i-cube/I-CUBE-HUAWEI/Middlewares/Third_Party/Huawei/iot_link/os/liteos/base/core\los_task.c **** 
 994:D:/fchai/work/i-cube/I-CUBE-HUAWEI/Middlewares/Third_Party/Huawei/iot_link/os/liteos/base/core\los_task.c ****     pstTaskCB->usTaskStatus &= (~OS_TASK_STATUS_SUSPEND);
 2713              		.loc 1 994 5 view .LVU838
 995:D:/fchai/work/i-cube/I-CUBE-HUAWEI/Middlewares/Third_Party/Huawei/iot_link/os/liteos/base/core\los_task.c ****     if (!(OS_CHECK_TASK_BLOCK & pstTaskCB->usTaskStatus) )
 2714              		.loc 1 995 9 is_stmt 0 view .LVU839
 2715 0020 42F22845 		movw	r5, #9256
 994:D:/fchai/work/i-cube/I-CUBE-HUAWEI/Middlewares/Third_Party/Huawei/iot_link/os/liteos/base/core\los_task.c ****     if (!(OS_CHECK_TASK_BLOCK & pstTaskCB->usTaskStatus) )
 2716              		.loc 1 994 29 view .LVU840
 2717 0024 23F00202 		bic	r2, r3, #2
 2718              		.loc 1 995 8 view .LVU841
 2719 0028 1D40     		ands	r5, r3, r5
 994:D:/fchai/work/i-cube/I-CUBE-HUAWEI/Middlewares/Third_Party/Huawei/iot_link/os/liteos/base/core\los_task.c ****     if (!(OS_CHECK_TASK_BLOCK & pstTaskCB->usTaskStatus) )
 2720              		.loc 1 994 29 view .LVU842
 2721 002a 92B2     		uxth	r2, r2
 2722              		.loc 1 995 5 is_stmt 1 view .LVU843
 2723              		.loc 1 995 8 is_stmt 0 view .LVU844
 2724 002c 19D1     		bne	.L191
 996:D:/fchai/work/i-cube/I-CUBE-HUAWEI/Middlewares/Third_Party/Huawei/iot_link/os/liteos/base/core\los_task.c ****     {
 997:D:/fchai/work/i-cube/I-CUBE-HUAWEI/Middlewares/Third_Party/Huawei/iot_link/os/liteos/base/core\los_task.c ****         pstTaskCB->usTaskStatus |= OS_TASK_STATUS_READY;
 2725              		.loc 1 997 9 is_stmt 1 view .LVU845
 2726              		.loc 1 997 33 is_stmt 0 view .LVU846
 2727 002e 42F00402 		orr	r2, r2, #4
 998:D:/fchai/work/i-cube/I-CUBE-HUAWEI/Middlewares/Third_Party/Huawei/iot_link/os/liteos/base/core\los_task.c ****         osPriqueueEnqueue(&pstTaskCB->stPendList, pstTaskCB->usPriority);
 2728              		.loc 1 998 9 view .LVU847
 2729 0032 E188     		ldrh	r1, [r4, #6]
 997:D:/fchai/work/i-cube/I-CUBE-HUAWEI/Middlewares/Third_Party/Huawei/iot_link/os/liteos/base/core\los_task.c ****         osPriqueueEnqueue(&pstTaskCB->stPendList, pstTaskCB->usPriority);
 2730              		.loc 1 997 33 view .LVU848
 2731 0034 A280     		strh	r2, [r4, #4]	@ movhi
 2732              		.loc 1 998 9 is_stmt 1 view .LVU849
ARM GAS  T:\msys\tmp\ccehPeV4.s 			page 82


 2733 0036 04F12800 		add	r0, r4, #40
 2734              	.LVL177:
 2735              		.loc 1 998 9 is_stmt 0 view .LVU850
 2736 003a FFF7FEFF 		bl	osPriqueueEnqueue
 2737              	.LVL178:
 999:D:/fchai/work/i-cube/I-CUBE-HUAWEI/Middlewares/Third_Party/Huawei/iot_link/os/liteos/base/core\los_task.c ****         if (g_bTaskScheduled)
 2738              		.loc 1 999 9 is_stmt 1 view .LVU851
 2739              		.loc 1 999 13 is_stmt 0 view .LVU852
 2740 003e 114B     		ldr	r3, .L193+4
 2741              		.loc 1 999 12 view .LVU853
 2742 0040 1B68     		ldr	r3, [r3]
 2743 0042 BBB9     		cbnz	r3, .L192
1000:D:/fchai/work/i-cube/I-CUBE-HUAWEI/Middlewares/Third_Party/Huawei/iot_link/os/liteos/base/core\los_task.c ****         {
1001:D:/fchai/work/i-cube/I-CUBE-HUAWEI/Middlewares/Third_Party/Huawei/iot_link/os/liteos/base/core\los_task.c ****             (VOID)LOS_IntRestore(uvIntSave);
1002:D:/fchai/work/i-cube/I-CUBE-HUAWEI/Middlewares/Third_Party/Huawei/iot_link/os/liteos/base/core\los_task.c ****             LOS_Schedule();
1003:D:/fchai/work/i-cube/I-CUBE-HUAWEI/Middlewares/Third_Party/Huawei/iot_link/os/liteos/base/core\los_task.c ****             return LOS_OK;
1004:D:/fchai/work/i-cube/I-CUBE-HUAWEI/Middlewares/Third_Party/Huawei/iot_link/os/liteos/base/core\los_task.c ****         }
1005:D:/fchai/work/i-cube/I-CUBE-HUAWEI/Middlewares/Third_Party/Huawei/iot_link/os/liteos/base/core\los_task.c ****         g_stLosTask.pstNewTask = LOS_DL_LIST_ENTRY(osPriqueueTop(), LOS_TASK_CB, stPendList); /*lin
 2744              		.loc 1 1005 9 is_stmt 1 view .LVU854
 2745              		.loc 1 1005 34 is_stmt 0 view .LVU855
 2746 0044 FFF7FEFF 		bl	osPriqueueTop
 2747              	.LVL179:
 2748              		.loc 1 1005 32 view .LVU856
 2749 0048 0F4B     		ldr	r3, .L193+8
 2750              		.loc 1 1005 34 view .LVU857
 2751 004a 2838     		subs	r0, r0, #40
 2752              		.loc 1 1005 32 view .LVU858
 2753 004c 5860     		str	r0, [r3, #4]
 2754 004e 09E0     		b	.L185
 2755              	.LVL180:
 2756              	.L188:
 985:D:/fchai/work/i-cube/I-CUBE-HUAWEI/Middlewares/Third_Party/Huawei/iot_link/os/liteos/base/core\los_task.c ****         OS_GOTO_ERREND();
 2757              		.loc 1 985 18 view .LVU859
 2758 0050 0E4D     		ldr	r5, .L193+12
 2759              	.L183:
 2760              	.LVL181:
1006:D:/fchai/work/i-cube/I-CUBE-HUAWEI/Middlewares/Third_Party/Huawei/iot_link/os/liteos/base/core\los_task.c ****     }
1007:D:/fchai/work/i-cube/I-CUBE-HUAWEI/Middlewares/Third_Party/Huawei/iot_link/os/liteos/base/core\los_task.c **** 
1008:D:/fchai/work/i-cube/I-CUBE-HUAWEI/Middlewares/Third_Party/Huawei/iot_link/os/liteos/base/core\los_task.c ****     (VOID)LOS_IntRestore(uvIntSave);
1009:D:/fchai/work/i-cube/I-CUBE-HUAWEI/Middlewares/Third_Party/Huawei/iot_link/os/liteos/base/core\los_task.c ****     return LOS_OK;
1010:D:/fchai/work/i-cube/I-CUBE-HUAWEI/Middlewares/Third_Party/Huawei/iot_link/os/liteos/base/core\los_task.c **** 
1011:D:/fchai/work/i-cube/I-CUBE-HUAWEI/Middlewares/Third_Party/Huawei/iot_link/os/liteos/base/core\los_task.c **** LOS_ERREND:
1012:D:/fchai/work/i-cube/I-CUBE-HUAWEI/Middlewares/Third_Party/Huawei/iot_link/os/liteos/base/core\los_task.c ****     (VOID)LOS_IntRestore(uvIntSave);
 2761              		.loc 1 1012 5 is_stmt 1 view .LVU860
 2762 0052 3046     		mov	r0, r6
 2763              	.LVL182:
 2764              		.loc 1 1012 5 is_stmt 0 view .LVU861
 2765 0054 FFF7FEFF 		bl	LOS_IntRestore
 2766              	.LVL183:
1013:D:/fchai/work/i-cube/I-CUBE-HUAWEI/Middlewares/Third_Party/Huawei/iot_link/os/liteos/base/core\los_task.c ****     return uwErrRet;
 2767              		.loc 1 1013 5 is_stmt 1 view .LVU862
 2768              	.L181:
1014:D:/fchai/work/i-cube/I-CUBE-HUAWEI/Middlewares/Third_Party/Huawei/iot_link/os/liteos/base/core\los_task.c **** }
 2769              		.loc 1 1014 1 is_stmt 0 view .LVU863
 2770 0058 2846     		mov	r0, r5
 2771 005a 70BD     		pop	{r4, r5, r6, pc}
 2772              	.LVL184:
ARM GAS  T:\msys\tmp\ccehPeV4.s 			page 83


 2773              	.L187:
 976:D:/fchai/work/i-cube/I-CUBE-HUAWEI/Middlewares/Third_Party/Huawei/iot_link/os/liteos/base/core\los_task.c ****     }
 2774              		.loc 1 976 16 view .LVU864
 2775 005c 0C4D     		ldr	r5, .L193+16
 2776              		.loc 1 1014 1 view .LVU865
 2777 005e 2846     		mov	r0, r5
 2778              	.LVL185:
 2779              		.loc 1 1014 1 view .LVU866
 2780 0060 70BD     		pop	{r4, r5, r6, pc}
 2781              	.LVL186:
 2782              	.L191:
 994:D:/fchai/work/i-cube/I-CUBE-HUAWEI/Middlewares/Third_Party/Huawei/iot_link/os/liteos/base/core\los_task.c ****     if (!(OS_CHECK_TASK_BLOCK & pstTaskCB->usTaskStatus) )
 2783              		.loc 1 994 29 view .LVU867
 2784 0062 A280     		strh	r2, [r4, #4]	@ movhi
 2785              	.LVL187:
 2786              	.L185:
1008:D:/fchai/work/i-cube/I-CUBE-HUAWEI/Middlewares/Third_Party/Huawei/iot_link/os/liteos/base/core\los_task.c ****     return LOS_OK;
 2787              		.loc 1 1008 5 is_stmt 1 view .LVU868
 2788 0064 3046     		mov	r0, r6
1009:D:/fchai/work/i-cube/I-CUBE-HUAWEI/Middlewares/Third_Party/Huawei/iot_link/os/liteos/base/core\los_task.c **** 
 2789              		.loc 1 1009 12 is_stmt 0 view .LVU869
 2790 0066 0025     		movs	r5, #0
1008:D:/fchai/work/i-cube/I-CUBE-HUAWEI/Middlewares/Third_Party/Huawei/iot_link/os/liteos/base/core\los_task.c ****     return LOS_OK;
 2791              		.loc 1 1008 5 view .LVU870
 2792 0068 FFF7FEFF 		bl	LOS_IntRestore
 2793              	.LVL188:
1009:D:/fchai/work/i-cube/I-CUBE-HUAWEI/Middlewares/Third_Party/Huawei/iot_link/os/liteos/base/core\los_task.c **** 
 2794              		.loc 1 1009 5 is_stmt 1 view .LVU871
 2795              		.loc 1 1014 1 is_stmt 0 view .LVU872
 2796 006c 2846     		mov	r0, r5
 2797 006e 70BD     		pop	{r4, r5, r6, pc}
 2798              	.LVL189:
 2799              	.L189:
 990:D:/fchai/work/i-cube/I-CUBE-HUAWEI/Middlewares/Third_Party/Huawei/iot_link/os/liteos/base/core\los_task.c ****         OS_GOTO_ERREND();
 2800              		.loc 1 990 18 view .LVU873
 2801 0070 084D     		ldr	r5, .L193+20
 2802 0072 EEE7     		b	.L183
 2803              	.LVL190:
 2804              	.L192:
1001:D:/fchai/work/i-cube/I-CUBE-HUAWEI/Middlewares/Third_Party/Huawei/iot_link/os/liteos/base/core\los_task.c ****             LOS_Schedule();
 2805              		.loc 1 1001 13 is_stmt 1 view .LVU874
 2806 0074 3046     		mov	r0, r6
 2807 0076 FFF7FEFF 		bl	LOS_IntRestore
 2808              	.LVL191:
1002:D:/fchai/work/i-cube/I-CUBE-HUAWEI/Middlewares/Third_Party/Huawei/iot_link/os/liteos/base/core\los_task.c ****             return LOS_OK;
 2809              		.loc 1 1002 13 view .LVU875
 2810 007a FFF7FEFF 		bl	LOS_Schedule
 2811              	.LVL192:
1003:D:/fchai/work/i-cube/I-CUBE-HUAWEI/Middlewares/Third_Party/Huawei/iot_link/os/liteos/base/core\los_task.c ****         }
 2812              		.loc 1 1003 13 view .LVU876
1003:D:/fchai/work/i-cube/I-CUBE-HUAWEI/Middlewares/Third_Party/Huawei/iot_link/os/liteos/base/core\los_task.c ****         }
 2813              		.loc 1 1003 20 is_stmt 0 view .LVU877
 2814 007e EBE7     		b	.L181
 2815              	.L194:
 2816              		.align	2
 2817              	.L193:
 2818 0080 00000000 		.word	g_pstTaskCBArray
ARM GAS  T:\msys\tmp\ccehPeV4.s 			page 84


 2819 0084 00000000 		.word	g_bTaskScheduled
 2820 0088 00000000 		.word	g_stLosTask
 2821 008c 0A020002 		.word	33554954
 2822 0090 07020002 		.word	33554951
 2823 0094 09020002 		.word	33554953
 2824              		.cfi_endproc
 2825              	.LFE151:
 2827              		.section	.text.LOS_TaskSuspend,"ax",%progbits
 2828              		.align	1
 2829              		.p2align 2,,3
 2830              		.global	LOS_TaskSuspend
 2831              		.syntax unified
 2832              		.thumb
 2833              		.thumb_func
 2834              		.fpu fpv4-sp-d16
 2836              	LOS_TaskSuspend:
 2837              	.LVL193:
 2838              	.LFB152:
1015:D:/fchai/work/i-cube/I-CUBE-HUAWEI/Middlewares/Third_Party/Huawei/iot_link/os/liteos/base/core\los_task.c **** 
1016:D:/fchai/work/i-cube/I-CUBE-HUAWEI/Middlewares/Third_Party/Huawei/iot_link/os/liteos/base/core\los_task.c **** /*****************************************************************************
1017:D:/fchai/work/i-cube/I-CUBE-HUAWEI/Middlewares/Third_Party/Huawei/iot_link/os/liteos/base/core\los_task.c ****  Function : LOS_TaskSuspend
1018:D:/fchai/work/i-cube/I-CUBE-HUAWEI/Middlewares/Third_Party/Huawei/iot_link/os/liteos/base/core\los_task.c ****  Description : Suspend task
1019:D:/fchai/work/i-cube/I-CUBE-HUAWEI/Middlewares/Third_Party/Huawei/iot_link/os/liteos/base/core\los_task.c ****  Input       : uwTaskID --- Task ID
1020:D:/fchai/work/i-cube/I-CUBE-HUAWEI/Middlewares/Third_Party/Huawei/iot_link/os/liteos/base/core\los_task.c ****  Output      : None
1021:D:/fchai/work/i-cube/I-CUBE-HUAWEI/Middlewares/Third_Party/Huawei/iot_link/os/liteos/base/core\los_task.c ****  Return      : LOS_OK on success or error code on failure
1022:D:/fchai/work/i-cube/I-CUBE-HUAWEI/Middlewares/Third_Party/Huawei/iot_link/os/liteos/base/core\los_task.c ****  *****************************************************************************/
1023:D:/fchai/work/i-cube/I-CUBE-HUAWEI/Middlewares/Third_Party/Huawei/iot_link/os/liteos/base/core\los_task.c **** LITE_OS_SEC_TEXT_INIT UINT32 LOS_TaskSuspend(UINT32 uwTaskID)
1024:D:/fchai/work/i-cube/I-CUBE-HUAWEI/Middlewares/Third_Party/Huawei/iot_link/os/liteos/base/core\los_task.c **** {
 2839              		.loc 1 1024 1 is_stmt 1 view -0
 2840              		.cfi_startproc
 2841              		@ args = 0, pretend = 0, frame = 0
 2842              		@ frame_needed = 0, uses_anonymous_args = 0
1025:D:/fchai/work/i-cube/I-CUBE-HUAWEI/Middlewares/Third_Party/Huawei/iot_link/os/liteos/base/core\los_task.c ****     UINTPTR uvIntSave;
 2843              		.loc 1 1025 5 view .LVU879
1026:D:/fchai/work/i-cube/I-CUBE-HUAWEI/Middlewares/Third_Party/Huawei/iot_link/os/liteos/base/core\los_task.c ****     LOS_TASK_CB *pstTaskCB;
 2844              		.loc 1 1026 5 view .LVU880
1027:D:/fchai/work/i-cube/I-CUBE-HUAWEI/Middlewares/Third_Party/Huawei/iot_link/os/liteos/base/core\los_task.c ****     UINT16 usTempStatus;
 2845              		.loc 1 1027 5 view .LVU881
1028:D:/fchai/work/i-cube/I-CUBE-HUAWEI/Middlewares/Third_Party/Huawei/iot_link/os/liteos/base/core\los_task.c ****     UINT32 uwErrRet = OS_ERROR;
 2846              		.loc 1 1028 5 view .LVU882
1029:D:/fchai/work/i-cube/I-CUBE-HUAWEI/Middlewares/Third_Party/Huawei/iot_link/os/liteos/base/core\los_task.c **** 
1030:D:/fchai/work/i-cube/I-CUBE-HUAWEI/Middlewares/Third_Party/Huawei/iot_link/os/liteos/base/core\los_task.c ****     CHECK_TASKID(uwTaskID);
 2847              		.loc 1 1030 5 view .LVU883
 2848 0000 294B     		ldr	r3, .L217
 2849 0002 1B68     		ldr	r3, [r3]
 2850 0004 8342     		cmp	r3, r0
1024:D:/fchai/work/i-cube/I-CUBE-HUAWEI/Middlewares/Third_Party/Huawei/iot_link/os/liteos/base/core\los_task.c ****     UINTPTR uvIntSave;
 2851              		.loc 1 1024 1 is_stmt 0 view .LVU884
 2852 0006 70B5     		push	{r4, r5, r6, lr}
 2853              	.LCFI40:
 2854              		.cfi_def_cfa_offset 16
 2855              		.cfi_offset 4, -16
 2856              		.cfi_offset 5, -12
 2857              		.cfi_offset 6, -8
 2858              		.cfi_offset 14, -4
 2859              		.loc 1 1030 5 view .LVU885
 2860 0008 36D0     		beq	.L201
ARM GAS  T:\msys\tmp\ccehPeV4.s 			page 85


 2861              		.loc 1 1030 5 discriminator 2 view .LVU886
 2862 000a 284B     		ldr	r3, .L217+4
 2863 000c 1B68     		ldr	r3, [r3]
 2864 000e 8342     		cmp	r3, r0
 2865 0010 0446     		mov	r4, r0
 2866              		.loc 1 1030 5 is_stmt 1 discriminator 2 view .LVU887
 2867 0012 36D0     		beq	.L202
 2868              		.loc 1 1030 5 discriminator 4 view .LVU888
 2869 0014 264B     		ldr	r3, .L217+8
 2870 0016 1B68     		ldr	r3, [r3]
 2871 0018 8342     		cmp	r3, r0
 2872 001a 1ED9     		bls	.L203
 2873              		.loc 1 1030 27 discriminator 6 view .LVU889
1031:D:/fchai/work/i-cube/I-CUBE-HUAWEI/Middlewares/Third_Party/Huawei/iot_link/os/liteos/base/core\los_task.c ****     pstTaskCB = OS_TCB_FROM_TID(uwTaskID);
 2874              		.loc 1 1031 5 discriminator 6 view .LVU890
 2875              		.loc 1 1031 17 is_stmt 0 discriminator 6 view .LVU891
 2876 001c 254B     		ldr	r3, .L217+12
 2877              		.loc 1 1031 15 discriminator 6 view .LVU892
 2878 001e 1B68     		ldr	r3, [r3]
 2879              		.loc 1 1031 17 discriminator 6 view .LVU893
 2880 0020 5425     		movs	r5, #84
 2881              		.loc 1 1031 15 discriminator 6 view .LVU894
 2882 0022 05FB0035 		mla	r5, r5, r0, r3
 2883              	.LVL194:
1032:D:/fchai/work/i-cube/I-CUBE-HUAWEI/Middlewares/Third_Party/Huawei/iot_link/os/liteos/base/core\los_task.c ****     uvIntSave = LOS_IntLock();
 2884              		.loc 1 1032 5 is_stmt 1 discriminator 6 view .LVU895
 2885              		.loc 1 1032 17 is_stmt 0 discriminator 6 view .LVU896
 2886 0026 FFF7FEFF 		bl	LOS_IntLock
 2887              	.LVL195:
1033:D:/fchai/work/i-cube/I-CUBE-HUAWEI/Middlewares/Third_Party/Huawei/iot_link/os/liteos/base/core\los_task.c ****     usTempStatus = pstTaskCB->usTaskStatus;
 2888              		.loc 1 1033 18 discriminator 6 view .LVU897
 2889 002a AB88     		ldrh	r3, [r5, #4]
1034:D:/fchai/work/i-cube/I-CUBE-HUAWEI/Middlewares/Third_Party/Huawei/iot_link/os/liteos/base/core\los_task.c ****     if (OS_TASK_STATUS_UNUSED & usTempStatus)
 2890              		.loc 1 1034 8 discriminator 6 view .LVU898
 2891 002c DA07     		lsls	r2, r3, #31
1032:D:/fchai/work/i-cube/I-CUBE-HUAWEI/Middlewares/Third_Party/Huawei/iot_link/os/liteos/base/core\los_task.c ****     uvIntSave = LOS_IntLock();
 2892              		.loc 1 1032 17 discriminator 6 view .LVU899
 2893 002e 0646     		mov	r6, r0
 2894              	.LVL196:
1033:D:/fchai/work/i-cube/I-CUBE-HUAWEI/Middlewares/Third_Party/Huawei/iot_link/os/liteos/base/core\los_task.c ****     usTempStatus = pstTaskCB->usTaskStatus;
 2895              		.loc 1 1033 5 is_stmt 1 discriminator 6 view .LVU900
 2896              		.loc 1 1034 5 discriminator 6 view .LVU901
 2897              		.loc 1 1034 8 is_stmt 0 discriminator 6 view .LVU902
 2898 0030 1CD4     		bmi	.L204
1035:D:/fchai/work/i-cube/I-CUBE-HUAWEI/Middlewares/Third_Party/Huawei/iot_link/os/liteos/base/core\los_task.c ****     {
1036:D:/fchai/work/i-cube/I-CUBE-HUAWEI/Middlewares/Third_Party/Huawei/iot_link/os/liteos/base/core\los_task.c ****         uwErrRet = LOS_ERRNO_TSK_NOT_CREATED;
1037:D:/fchai/work/i-cube/I-CUBE-HUAWEI/Middlewares/Third_Party/Huawei/iot_link/os/liteos/base/core\los_task.c ****         OS_GOTO_ERREND();
 2899              		.loc 1 1037 9 is_stmt 1 view .LVU903
1038:D:/fchai/work/i-cube/I-CUBE-HUAWEI/Middlewares/Third_Party/Huawei/iot_link/os/liteos/base/core\los_task.c ****     }
1039:D:/fchai/work/i-cube/I-CUBE-HUAWEI/Middlewares/Third_Party/Huawei/iot_link/os/liteos/base/core\los_task.c **** 
1040:D:/fchai/work/i-cube/I-CUBE-HUAWEI/Middlewares/Third_Party/Huawei/iot_link/os/liteos/base/core\los_task.c ****     if (OS_TASK_STATUS_SUSPEND & usTempStatus)
 2900              		.loc 1 1040 5 view .LVU904
 2901              		.loc 1 1040 8 is_stmt 0 view .LVU905
 2902 0032 9807     		lsls	r0, r3, #30
 2903              	.LVL197:
 2904              		.loc 1 1040 8 view .LVU906
 2905 0034 23D4     		bmi	.L205
ARM GAS  T:\msys\tmp\ccehPeV4.s 			page 86


1041:D:/fchai/work/i-cube/I-CUBE-HUAWEI/Middlewares/Third_Party/Huawei/iot_link/os/liteos/base/core\los_task.c ****     {
1042:D:/fchai/work/i-cube/I-CUBE-HUAWEI/Middlewares/Third_Party/Huawei/iot_link/os/liteos/base/core\los_task.c ****         uwErrRet = LOS_ERRNO_TSK_ALREADY_SUSPENDED;
1043:D:/fchai/work/i-cube/I-CUBE-HUAWEI/Middlewares/Third_Party/Huawei/iot_link/os/liteos/base/core\los_task.c ****         OS_GOTO_ERREND();
 2906              		.loc 1 1043 9 is_stmt 1 view .LVU907
1044:D:/fchai/work/i-cube/I-CUBE-HUAWEI/Middlewares/Third_Party/Huawei/iot_link/os/liteos/base/core\los_task.c ****     }
1045:D:/fchai/work/i-cube/I-CUBE-HUAWEI/Middlewares/Third_Party/Huawei/iot_link/os/liteos/base/core\los_task.c **** 
1046:D:/fchai/work/i-cube/I-CUBE-HUAWEI/Middlewares/Third_Party/Huawei/iot_link/os/liteos/base/core\los_task.c ****     if ((OS_TASK_STATUS_RUNNING & usTempStatus) && (g_usLosTaskLock != 0))
 2907              		.loc 1 1046 5 view .LVU908
 2908              		.loc 1 1046 8 is_stmt 0 view .LVU909
 2909 0036 D906     		lsls	r1, r3, #27
 2910 0038 12D4     		bmi	.L214
 2911              	.L198:
1047:D:/fchai/work/i-cube/I-CUBE-HUAWEI/Middlewares/Third_Party/Huawei/iot_link/os/liteos/base/core\los_task.c ****     {
1048:D:/fchai/work/i-cube/I-CUBE-HUAWEI/Middlewares/Third_Party/Huawei/iot_link/os/liteos/base/core\los_task.c ****         uwErrRet = LOS_ERRNO_TSK_SUSPEND_LOCKED;
1049:D:/fchai/work/i-cube/I-CUBE-HUAWEI/Middlewares/Third_Party/Huawei/iot_link/os/liteos/base/core\los_task.c ****         OS_GOTO_ERREND();
 2912              		.loc 1 1049 9 is_stmt 1 view .LVU910
1050:D:/fchai/work/i-cube/I-CUBE-HUAWEI/Middlewares/Third_Party/Huawei/iot_link/os/liteos/base/core\los_task.c ****     }
1051:D:/fchai/work/i-cube/I-CUBE-HUAWEI/Middlewares/Third_Party/Huawei/iot_link/os/liteos/base/core\los_task.c **** 
1052:D:/fchai/work/i-cube/I-CUBE-HUAWEI/Middlewares/Third_Party/Huawei/iot_link/os/liteos/base/core\los_task.c ****     if (OS_TASK_STATUS_READY & usTempStatus)
 2913              		.loc 1 1052 5 view .LVU911
 2914              		.loc 1 1052 8 is_stmt 0 view .LVU912
 2915 003a 5A07     		lsls	r2, r3, #29
 2916 003c 24D4     		bmi	.L215
 2917              	.LVL198:
 2918              	.L199:
1053:D:/fchai/work/i-cube/I-CUBE-HUAWEI/Middlewares/Third_Party/Huawei/iot_link/os/liteos/base/core\los_task.c ****     {
1054:D:/fchai/work/i-cube/I-CUBE-HUAWEI/Middlewares/Third_Party/Huawei/iot_link/os/liteos/base/core\los_task.c ****         osPriqueueDequeue(&pstTaskCB->stPendList);
1055:D:/fchai/work/i-cube/I-CUBE-HUAWEI/Middlewares/Third_Party/Huawei/iot_link/os/liteos/base/core\los_task.c ****         pstTaskCB->usTaskStatus &= (~OS_TASK_STATUS_READY);
1056:D:/fchai/work/i-cube/I-CUBE-HUAWEI/Middlewares/Third_Party/Huawei/iot_link/os/liteos/base/core\los_task.c ****     }
1057:D:/fchai/work/i-cube/I-CUBE-HUAWEI/Middlewares/Third_Party/Huawei/iot_link/os/liteos/base/core\los_task.c **** 
1058:D:/fchai/work/i-cube/I-CUBE-HUAWEI/Middlewares/Third_Party/Huawei/iot_link/os/liteos/base/core\los_task.c ****     pstTaskCB->usTaskStatus |= OS_TASK_STATUS_SUSPEND;
 2919              		.loc 1 1058 5 is_stmt 1 view .LVU913
1059:D:/fchai/work/i-cube/I-CUBE-HUAWEI/Middlewares/Third_Party/Huawei/iot_link/os/liteos/base/core\los_task.c ****     if (uwTaskID == g_stLosTask.pstRunTask->uwTaskID)
 2920              		.loc 1 1059 32 is_stmt 0 view .LVU914
 2921 003e 1E4A     		ldr	r2, .L217+16
 2922              		.loc 1 1059 43 view .LVU915
 2923 0040 1268     		ldr	r2, [r2]
 2924              		.loc 1 1059 8 view .LVU916
 2925 0042 1269     		ldr	r2, [r2, #16]
1058:D:/fchai/work/i-cube/I-CUBE-HUAWEI/Middlewares/Third_Party/Huawei/iot_link/os/liteos/base/core\los_task.c ****     if (uwTaskID == g_stLosTask.pstRunTask->uwTaskID)
 2926              		.loc 1 1058 29 view .LVU917
 2927 0044 43F00203 		orr	r3, r3, #2
 2928              		.loc 1 1059 8 view .LVU918
 2929 0048 A242     		cmp	r2, r4
1058:D:/fchai/work/i-cube/I-CUBE-HUAWEI/Middlewares/Third_Party/Huawei/iot_link/os/liteos/base/core\los_task.c ****     if (uwTaskID == g_stLosTask.pstRunTask->uwTaskID)
 2930              		.loc 1 1058 29 view .LVU919
 2931 004a AB80     		strh	r3, [r5, #4]	@ movhi
 2932              		.loc 1 1059 5 is_stmt 1 view .LVU920
1060:D:/fchai/work/i-cube/I-CUBE-HUAWEI/Middlewares/Third_Party/Huawei/iot_link/os/liteos/base/core\los_task.c ****     {
1061:D:/fchai/work/i-cube/I-CUBE-HUAWEI/Middlewares/Third_Party/Huawei/iot_link/os/liteos/base/core\los_task.c ****         (VOID)LOS_IntRestore(uvIntSave);
 2933              		.loc 1 1061 9 is_stmt 0 view .LVU921
 2934 004c 3046     		mov	r0, r6
1059:D:/fchai/work/i-cube/I-CUBE-HUAWEI/Middlewares/Third_Party/Huawei/iot_link/os/liteos/base/core\los_task.c ****     {
 2935              		.loc 1 1059 8 view .LVU922
 2936 004e 24D0     		beq	.L216
 2937              	.LVL199:
1062:D:/fchai/work/i-cube/I-CUBE-HUAWEI/Middlewares/Third_Party/Huawei/iot_link/os/liteos/base/core\los_task.c ****         LOS_Schedule();
ARM GAS  T:\msys\tmp\ccehPeV4.s 			page 87


1063:D:/fchai/work/i-cube/I-CUBE-HUAWEI/Middlewares/Third_Party/Huawei/iot_link/os/liteos/base/core\los_task.c ****         return LOS_OK;
1064:D:/fchai/work/i-cube/I-CUBE-HUAWEI/Middlewares/Third_Party/Huawei/iot_link/os/liteos/base/core\los_task.c ****     }
1065:D:/fchai/work/i-cube/I-CUBE-HUAWEI/Middlewares/Third_Party/Huawei/iot_link/os/liteos/base/core\los_task.c **** 
1066:D:/fchai/work/i-cube/I-CUBE-HUAWEI/Middlewares/Third_Party/Huawei/iot_link/os/liteos/base/core\los_task.c ****     (VOID)LOS_IntRestore(uvIntSave);
 2938              		.loc 1 1066 5 is_stmt 1 view .LVU923
1067:D:/fchai/work/i-cube/I-CUBE-HUAWEI/Middlewares/Third_Party/Huawei/iot_link/os/liteos/base/core\los_task.c ****     return LOS_OK;
 2939              		.loc 1 1067 12 is_stmt 0 view .LVU924
 2940 0050 0024     		movs	r4, #0
 2941              	.LVL200:
1066:D:/fchai/work/i-cube/I-CUBE-HUAWEI/Middlewares/Third_Party/Huawei/iot_link/os/liteos/base/core\los_task.c ****     return LOS_OK;
 2942              		.loc 1 1066 5 view .LVU925
 2943 0052 FFF7FEFF 		bl	LOS_IntRestore
 2944              	.LVL201:
 2945              		.loc 1 1067 5 is_stmt 1 view .LVU926
1068:D:/fchai/work/i-cube/I-CUBE-HUAWEI/Middlewares/Third_Party/Huawei/iot_link/os/liteos/base/core\los_task.c **** 
1069:D:/fchai/work/i-cube/I-CUBE-HUAWEI/Middlewares/Third_Party/Huawei/iot_link/os/liteos/base/core\los_task.c **** LOS_ERREND:
1070:D:/fchai/work/i-cube/I-CUBE-HUAWEI/Middlewares/Third_Party/Huawei/iot_link/os/liteos/base/core\los_task.c ****     (VOID)LOS_IntRestore(uvIntSave);
1071:D:/fchai/work/i-cube/I-CUBE-HUAWEI/Middlewares/Third_Party/Huawei/iot_link/os/liteos/base/core\los_task.c ****     return uwErrRet;
1072:D:/fchai/work/i-cube/I-CUBE-HUAWEI/Middlewares/Third_Party/Huawei/iot_link/os/liteos/base/core\los_task.c **** }
 2946              		.loc 1 1072 1 is_stmt 0 view .LVU927
 2947 0056 2046     		mov	r0, r4
 2948 0058 70BD     		pop	{r4, r5, r6, pc}
 2949              	.LVL202:
 2950              	.L203:
1030:D:/fchai/work/i-cube/I-CUBE-HUAWEI/Middlewares/Third_Party/Huawei/iot_link/os/liteos/base/core\los_task.c ****     pstTaskCB = OS_TCB_FROM_TID(uwTaskID);
 2951              		.loc 1 1030 5 view .LVU928
 2952 005a 184C     		ldr	r4, .L217+20
 2953              	.LVL203:
 2954              	.L195:
 2955              		.loc 1 1072 1 view .LVU929
 2956 005c 2046     		mov	r0, r4
 2957 005e 70BD     		pop	{r4, r5, r6, pc}
 2958              	.LVL204:
 2959              	.L214:
1046:D:/fchai/work/i-cube/I-CUBE-HUAWEI/Middlewares/Third_Party/Huawei/iot_link/os/liteos/base/core\los_task.c ****     {
 2960              		.loc 1 1046 69 discriminator 1 view .LVU930
 2961 0060 174A     		ldr	r2, .L217+24
1046:D:/fchai/work/i-cube/I-CUBE-HUAWEI/Middlewares/Third_Party/Huawei/iot_link/os/liteos/base/core\los_task.c ****     {
 2962              		.loc 1 1046 49 discriminator 1 view .LVU931
 2963 0062 1288     		ldrh	r2, [r2]
 2964 0064 002A     		cmp	r2, #0
 2965 0066 E8D0     		beq	.L198
1048:D:/fchai/work/i-cube/I-CUBE-HUAWEI/Middlewares/Third_Party/Huawei/iot_link/os/liteos/base/core\los_task.c ****         OS_GOTO_ERREND();
 2966              		.loc 1 1048 18 view .LVU932
 2967 0068 164C     		ldr	r4, .L217+28
 2968              	.LVL205:
1048:D:/fchai/work/i-cube/I-CUBE-HUAWEI/Middlewares/Third_Party/Huawei/iot_link/os/liteos/base/core\los_task.c ****         OS_GOTO_ERREND();
 2969              		.loc 1 1048 18 view .LVU933
 2970 006a 00E0     		b	.L197
 2971              	.LVL206:
 2972              	.L204:
1036:D:/fchai/work/i-cube/I-CUBE-HUAWEI/Middlewares/Third_Party/Huawei/iot_link/os/liteos/base/core\los_task.c ****         OS_GOTO_ERREND();
 2973              		.loc 1 1036 18 view .LVU934
 2974 006c 164C     		ldr	r4, .L217+32
 2975              	.LVL207:
 2976              	.L197:
1070:D:/fchai/work/i-cube/I-CUBE-HUAWEI/Middlewares/Third_Party/Huawei/iot_link/os/liteos/base/core\los_task.c ****     return uwErrRet;
ARM GAS  T:\msys\tmp\ccehPeV4.s 			page 88


 2977              		.loc 1 1070 5 is_stmt 1 view .LVU935
 2978 006e 3046     		mov	r0, r6
 2979 0070 FFF7FEFF 		bl	LOS_IntRestore
 2980              	.LVL208:
1071:D:/fchai/work/i-cube/I-CUBE-HUAWEI/Middlewares/Third_Party/Huawei/iot_link/os/liteos/base/core\los_task.c **** }
 2981              		.loc 1 1071 5 view .LVU936
 2982              		.loc 1 1072 1 is_stmt 0 view .LVU937
 2983 0074 2046     		mov	r0, r4
 2984 0076 70BD     		pop	{r4, r5, r6, pc}
 2985              	.LVL209:
 2986              	.L201:
1030:D:/fchai/work/i-cube/I-CUBE-HUAWEI/Middlewares/Third_Party/Huawei/iot_link/os/liteos/base/core\los_task.c ****     pstTaskCB = OS_TCB_FROM_TID(uwTaskID);
 2987              		.loc 1 1030 5 view .LVU938
 2988 0078 144C     		ldr	r4, .L217+36
 2989              		.loc 1 1072 1 view .LVU939
 2990 007a 2046     		mov	r0, r4
 2991              	.LVL210:
 2992              		.loc 1 1072 1 view .LVU940
 2993 007c 70BD     		pop	{r4, r5, r6, pc}
 2994              	.LVL211:
 2995              	.L205:
1042:D:/fchai/work/i-cube/I-CUBE-HUAWEI/Middlewares/Third_Party/Huawei/iot_link/os/liteos/base/core\los_task.c ****         OS_GOTO_ERREND();
 2996              		.loc 1 1042 18 view .LVU941
 2997 007e 144C     		ldr	r4, .L217+40
 2998              	.LVL212:
1042:D:/fchai/work/i-cube/I-CUBE-HUAWEI/Middlewares/Third_Party/Huawei/iot_link/os/liteos/base/core\los_task.c ****         OS_GOTO_ERREND();
 2999              		.loc 1 1042 18 view .LVU942
 3000 0080 F5E7     		b	.L197
 3001              	.LVL213:
 3002              	.L202:
1030:D:/fchai/work/i-cube/I-CUBE-HUAWEI/Middlewares/Third_Party/Huawei/iot_link/os/liteos/base/core\los_task.c ****     pstTaskCB = OS_TCB_FROM_TID(uwTaskID);
 3003              		.loc 1 1030 5 view .LVU943
 3004 0082 144C     		ldr	r4, .L217+44
 3005              		.loc 1 1072 1 view .LVU944
 3006 0084 2046     		mov	r0, r4
 3007              	.LVL214:
 3008              		.loc 1 1072 1 view .LVU945
 3009 0086 70BD     		pop	{r4, r5, r6, pc}
 3010              	.LVL215:
 3011              	.L215:
1054:D:/fchai/work/i-cube/I-CUBE-HUAWEI/Middlewares/Third_Party/Huawei/iot_link/os/liteos/base/core\los_task.c ****         pstTaskCB->usTaskStatus &= (~OS_TASK_STATUS_READY);
 3012              		.loc 1 1054 9 is_stmt 1 view .LVU946
 3013 0088 05F12800 		add	r0, r5, #40
 3014 008c FFF7FEFF 		bl	osPriqueueDequeue
 3015              	.LVL216:
1055:D:/fchai/work/i-cube/I-CUBE-HUAWEI/Middlewares/Third_Party/Huawei/iot_link/os/liteos/base/core\los_task.c ****     }
 3016              		.loc 1 1055 9 view .LVU947
1055:D:/fchai/work/i-cube/I-CUBE-HUAWEI/Middlewares/Third_Party/Huawei/iot_link/os/liteos/base/core\los_task.c ****     }
 3017              		.loc 1 1055 33 is_stmt 0 view .LVU948
 3018 0090 AB88     		ldrh	r3, [r5, #4]
 3019 0092 23F00403 		bic	r3, r3, #4
 3020 0096 9BB2     		uxth	r3, r3
 3021 0098 D1E7     		b	.L199
 3022              	.LVL217:
 3023              	.L216:
1061:D:/fchai/work/i-cube/I-CUBE-HUAWEI/Middlewares/Third_Party/Huawei/iot_link/os/liteos/base/core\los_task.c ****         LOS_Schedule();
 3024              		.loc 1 1061 9 is_stmt 1 view .LVU949
ARM GAS  T:\msys\tmp\ccehPeV4.s 			page 89


 3025 009a FFF7FEFF 		bl	LOS_IntRestore
 3026              	.LVL218:
1062:D:/fchai/work/i-cube/I-CUBE-HUAWEI/Middlewares/Third_Party/Huawei/iot_link/os/liteos/base/core\los_task.c ****         return LOS_OK;
 3027              		.loc 1 1062 9 view .LVU950
1063:D:/fchai/work/i-cube/I-CUBE-HUAWEI/Middlewares/Third_Party/Huawei/iot_link/os/liteos/base/core\los_task.c ****     }
 3028              		.loc 1 1063 16 is_stmt 0 view .LVU951
 3029 009e 0024     		movs	r4, #0
 3030              	.LVL219:
1062:D:/fchai/work/i-cube/I-CUBE-HUAWEI/Middlewares/Third_Party/Huawei/iot_link/os/liteos/base/core\los_task.c ****         return LOS_OK;
 3031              		.loc 1 1062 9 view .LVU952
 3032 00a0 FFF7FEFF 		bl	LOS_Schedule
 3033              	.LVL220:
1063:D:/fchai/work/i-cube/I-CUBE-HUAWEI/Middlewares/Third_Party/Huawei/iot_link/os/liteos/base/core\los_task.c ****     }
 3034              		.loc 1 1063 9 is_stmt 1 view .LVU953
1063:D:/fchai/work/i-cube/I-CUBE-HUAWEI/Middlewares/Third_Party/Huawei/iot_link/os/liteos/base/core\los_task.c ****     }
 3035              		.loc 1 1063 16 is_stmt 0 view .LVU954
 3036 00a4 DAE7     		b	.L195
 3037              	.L218:
 3038 00a6 00BF     		.align	2
 3039              	.L217:
 3040 00a8 00000000 		.word	g_uwIdleTaskID
 3041 00ac 00000000 		.word	g_uwSwtmrTaskID
 3042 00b0 00000000 		.word	g_uwTskMaxNum
 3043 00b4 00000000 		.word	g_pstTaskCBArray
 3044 00b8 00000000 		.word	g_stLosTask
 3045 00bc 07020002 		.word	33554951
 3046 00c0 00000000 		.word	g_usLosTaskLock
 3047 00c4 15020003 		.word	50332181
 3048 00c8 0A020002 		.word	33554954
 3049 00cc 14020002 		.word	33554964
 3050 00d0 08020002 		.word	33554952
 3051 00d4 21020002 		.word	33554977
 3052              		.cfi_endproc
 3053              	.LFE152:
 3055              		.section	.text.LOS_TaskDelete,"ax",%progbits
 3056              		.align	1
 3057              		.p2align 2,,3
 3058              		.global	LOS_TaskDelete
 3059              		.syntax unified
 3060              		.thumb
 3061              		.thumb_func
 3062              		.fpu fpv4-sp-d16
 3064              	LOS_TaskDelete:
 3065              	.LVL221:
 3066              	.LFB153:
1073:D:/fchai/work/i-cube/I-CUBE-HUAWEI/Middlewares/Third_Party/Huawei/iot_link/os/liteos/base/core\los_task.c **** 
1074:D:/fchai/work/i-cube/I-CUBE-HUAWEI/Middlewares/Third_Party/Huawei/iot_link/os/liteos/base/core\los_task.c **** /*****************************************************************************
1075:D:/fchai/work/i-cube/I-CUBE-HUAWEI/Middlewares/Third_Party/Huawei/iot_link/os/liteos/base/core\los_task.c ****  Function : LOS_TaskDelete
1076:D:/fchai/work/i-cube/I-CUBE-HUAWEI/Middlewares/Third_Party/Huawei/iot_link/os/liteos/base/core\los_task.c ****  Description : Delete a task
1077:D:/fchai/work/i-cube/I-CUBE-HUAWEI/Middlewares/Third_Party/Huawei/iot_link/os/liteos/base/core\los_task.c ****  Input       : uwTaskID --- Task ID
1078:D:/fchai/work/i-cube/I-CUBE-HUAWEI/Middlewares/Third_Party/Huawei/iot_link/os/liteos/base/core\los_task.c ****  Output      : None
1079:D:/fchai/work/i-cube/I-CUBE-HUAWEI/Middlewares/Third_Party/Huawei/iot_link/os/liteos/base/core\los_task.c ****  Return      : LOS_OK on success or error code on failure
1080:D:/fchai/work/i-cube/I-CUBE-HUAWEI/Middlewares/Third_Party/Huawei/iot_link/os/liteos/base/core\los_task.c ****  *****************************************************************************/
1081:D:/fchai/work/i-cube/I-CUBE-HUAWEI/Middlewares/Third_Party/Huawei/iot_link/os/liteos/base/core\los_task.c **** LITE_OS_SEC_TEXT_INIT UINT32 LOS_TaskDelete(UINT32 uwTaskID)
1082:D:/fchai/work/i-cube/I-CUBE-HUAWEI/Middlewares/Third_Party/Huawei/iot_link/os/liteos/base/core\los_task.c **** {
 3067              		.loc 1 1082 1 is_stmt 1 view -0
 3068              		.cfi_startproc
ARM GAS  T:\msys\tmp\ccehPeV4.s 			page 90


 3069              		@ args = 0, pretend = 0, frame = 0
 3070              		@ frame_needed = 0, uses_anonymous_args = 0
1083:D:/fchai/work/i-cube/I-CUBE-HUAWEI/Middlewares/Third_Party/Huawei/iot_link/os/liteos/base/core\los_task.c **** #if (LOSCFG_STATIC_TASK == NO)
1084:D:/fchai/work/i-cube/I-CUBE-HUAWEI/Middlewares/Third_Party/Huawei/iot_link/os/liteos/base/core\los_task.c ****     UINTPTR uvIntSave;
 3071              		.loc 1 1084 5 view .LVU956
1085:D:/fchai/work/i-cube/I-CUBE-HUAWEI/Middlewares/Third_Party/Huawei/iot_link/os/liteos/base/core\los_task.c ****     LOS_TASK_CB *pstTaskCB;
 3072              		.loc 1 1085 5 view .LVU957
1086:D:/fchai/work/i-cube/I-CUBE-HUAWEI/Middlewares/Third_Party/Huawei/iot_link/os/liteos/base/core\los_task.c ****     UINT16 usTempStatus;
 3073              		.loc 1 1086 5 view .LVU958
1087:D:/fchai/work/i-cube/I-CUBE-HUAWEI/Middlewares/Third_Party/Huawei/iot_link/os/liteos/base/core\los_task.c ****     UINT32 uwErrRet = OS_ERROR;
 3074              		.loc 1 1087 5 view .LVU959
1088:D:/fchai/work/i-cube/I-CUBE-HUAWEI/Middlewares/Third_Party/Huawei/iot_link/os/liteos/base/core\los_task.c **** 
1089:D:/fchai/work/i-cube/I-CUBE-HUAWEI/Middlewares/Third_Party/Huawei/iot_link/os/liteos/base/core\los_task.c ****     CHECK_TASKID(uwTaskID);
 3075              		.loc 1 1089 5 view .LVU960
1082:D:/fchai/work/i-cube/I-CUBE-HUAWEI/Middlewares/Third_Party/Huawei/iot_link/os/liteos/base/core\los_task.c **** #if (LOSCFG_STATIC_TASK == NO)
 3076              		.loc 1 1082 1 is_stmt 0 view .LVU961
 3077 0000 2DE9F84F 		push	{r3, r4, r5, r6, r7, r8, r9, r10, fp, lr}
 3078              	.LCFI41:
 3079              		.cfi_def_cfa_offset 40
 3080              		.cfi_offset 3, -40
 3081              		.cfi_offset 4, -36
 3082              		.cfi_offset 5, -32
 3083              		.cfi_offset 6, -28
 3084              		.cfi_offset 7, -24
 3085              		.cfi_offset 8, -20
 3086              		.cfi_offset 9, -16
 3087              		.cfi_offset 10, -12
 3088              		.cfi_offset 11, -8
 3089              		.cfi_offset 14, -4
 3090              		.loc 1 1089 5 view .LVU962
 3091 0004 5C4B     		ldr	r3, .L249
 3092 0006 1B68     		ldr	r3, [r3]
 3093 0008 8342     		cmp	r3, r0
 3094 000a 00F0A880 		beq	.L230
 3095              		.loc 1 1089 5 discriminator 2 view .LVU963
 3096 000e 5B4B     		ldr	r3, .L249+4
 3097 0010 1B68     		ldr	r3, [r3]
 3098 0012 8342     		cmp	r3, r0
 3099 0014 0546     		mov	r5, r0
 3100              		.loc 1 1089 5 is_stmt 1 discriminator 2 view .LVU964
 3101 0016 00F0A580 		beq	.L231
 3102              		.loc 1 1089 5 discriminator 4 view .LVU965
 3103 001a DFF884B1 		ldr	fp, .L249+40
 3104 001e DBF80030 		ldr	r3, [fp]
 3105 0022 8342     		cmp	r3, r0
 3106 0024 57D9     		bls	.L232
 3107              	.LVL222:
 3108              	.LBB217:
 3109              	.LBI217:
1081:D:/fchai/work/i-cube/I-CUBE-HUAWEI/Middlewares/Third_Party/Huawei/iot_link/os/liteos/base/core\los_task.c **** {
 3110              		.loc 1 1081 30 view .LVU966
 3111              	.LBB218:
 3112              		.loc 1 1089 27 view .LVU967
1090:D:/fchai/work/i-cube/I-CUBE-HUAWEI/Middlewares/Third_Party/Huawei/iot_link/os/liteos/base/core\los_task.c ****     uvIntSave = LOS_IntLock();
 3113              		.loc 1 1090 5 view .LVU968
 3114              	.LBB219:
 3115              	.LBB220:
ARM GAS  T:\msys\tmp\ccehPeV4.s 			page 91


 619:D:/fchai/work/i-cube/I-CUBE-HUAWEI/Middlewares/Third_Party/Huawei/iot_link/os/liteos/base/core\los_task.c ****     {
 3116              		.loc 1 619 28 is_stmt 0 view .LVU969
 3117 0026 DFF87C91 		ldr	r9, .L249+44
 3118              	.LBE220:
 3119              	.LBE219:
 3120              		.loc 1 1090 17 view .LVU970
 3121 002a FFF7FEFF 		bl	LOS_IntLock
 3122              	.LVL223:
 3123              	.LBB224:
 3124              	.LBB221:
 619:D:/fchai/work/i-cube/I-CUBE-HUAWEI/Middlewares/Third_Party/Huawei/iot_link/os/liteos/base/core\los_task.c ****     {
 3125              		.loc 1 619 28 view .LVU971
 3126 002e D9F80030 		ldr	r3, [r9]
 3127              	.LBE221:
 3128              	.LBE224:
 3129              		.loc 1 1090 17 view .LVU972
 3130 0032 0746     		mov	r7, r0
 3131              	.LVL224:
1091:D:/fchai/work/i-cube/I-CUBE-HUAWEI/Middlewares/Third_Party/Huawei/iot_link/os/liteos/base/core\los_task.c **** 
1092:D:/fchai/work/i-cube/I-CUBE-HUAWEI/Middlewares/Third_Party/Huawei/iot_link/os/liteos/base/core\los_task.c ****     /* if self deleting, unlock the scheduler */
1093:D:/fchai/work/i-cube/I-CUBE-HUAWEI/Middlewares/Third_Party/Huawei/iot_link/os/liteos/base/core\los_task.c **** 
1094:D:/fchai/work/i-cube/I-CUBE-HUAWEI/Middlewares/Third_Party/Huawei/iot_link/os/liteos/base/core\los_task.c ****     if (uwTaskID == LOS_CurTaskIDGet())
 3132              		.loc 1 1094 5 is_stmt 1 view .LVU973
 3133              	.LBB225:
 3134              	.LBI219:
 617:D:/fchai/work/i-cube/I-CUBE-HUAWEI/Middlewares/Third_Party/Huawei/iot_link/os/liteos/base/core\los_task.c **** {
 3135              		.loc 1 617 25 view .LVU974
 3136              	.LBB222:
 619:D:/fchai/work/i-cube/I-CUBE-HUAWEI/Middlewares/Third_Party/Huawei/iot_link/os/liteos/base/core\los_task.c ****     {
 3137              		.loc 1 619 5 view .LVU975
 619:D:/fchai/work/i-cube/I-CUBE-HUAWEI/Middlewares/Third_Party/Huawei/iot_link/os/liteos/base/core\los_task.c ****     {
 3138              		.loc 1 619 8 is_stmt 0 view .LVU976
 3139 0034 002B     		cmp	r3, #0
 3140 0036 00F09D80 		beq	.L233
 623:D:/fchai/work/i-cube/I-CUBE-HUAWEI/Middlewares/Third_Party/Huawei/iot_link/os/liteos/base/core\los_task.c **** }
 3141              		.loc 1 623 5 is_stmt 1 view .LVU977
 623:D:/fchai/work/i-cube/I-CUBE-HUAWEI/Middlewares/Third_Party/Huawei/iot_link/os/liteos/base/core\los_task.c **** }
 3142              		.loc 1 623 34 is_stmt 0 view .LVU978
 3143 003a 1B69     		ldr	r3, [r3, #16]
 3144              	.L221:
 3145              	.LBE222:
 3146              	.LBE225:
 3147              		.loc 1 1094 8 view .LVU979
 3148 003c 9D42     		cmp	r5, r3
 3149 003e 02D1     		bne	.L222
1095:D:/fchai/work/i-cube/I-CUBE-HUAWEI/Middlewares/Third_Party/Huawei/iot_link/os/liteos/base/core\los_task.c ****     {
1096:D:/fchai/work/i-cube/I-CUBE-HUAWEI/Middlewares/Third_Party/Huawei/iot_link/os/liteos/base/core\los_task.c ****         g_usLosTaskLock = 0;
 3150              		.loc 1 1096 9 is_stmt 1 view .LVU980
 3151              		.loc 1 1096 25 is_stmt 0 view .LVU981
 3152 0040 4F4B     		ldr	r3, .L249+8
 3153 0042 0022     		movs	r2, #0
 3154 0044 1A80     		strh	r2, [r3]	@ movhi
 3155              	.L222:
1097:D:/fchai/work/i-cube/I-CUBE-HUAWEI/Middlewares/Third_Party/Huawei/iot_link/os/liteos/base/core\los_task.c ****     }
1098:D:/fchai/work/i-cube/I-CUBE-HUAWEI/Middlewares/Third_Party/Huawei/iot_link/os/liteos/base/core\los_task.c **** 
1099:D:/fchai/work/i-cube/I-CUBE-HUAWEI/Middlewares/Third_Party/Huawei/iot_link/os/liteos/base/core\los_task.c ****     pstTaskCB = OS_TCB_FROM_TID(uwTaskID);
 3156              		.loc 1 1099 5 is_stmt 1 view .LVU982
ARM GAS  T:\msys\tmp\ccehPeV4.s 			page 92


 3157              		.loc 1 1099 17 is_stmt 0 view .LVU983
 3158 0046 DFF860A1 		ldr	r10, .L249+48
 3159              		.loc 1 1099 15 view .LVU984
 3160 004a DAF80030 		ldr	r3, [r10]
 3161              		.loc 1 1099 17 view .LVU985
 3162 004e 5424     		movs	r4, #84
 3163              		.loc 1 1099 15 view .LVU986
 3164 0050 04FB0534 		mla	r4, r4, r5, r3
 3165              	.LVL225:
1100:D:/fchai/work/i-cube/I-CUBE-HUAWEI/Middlewares/Third_Party/Huawei/iot_link/os/liteos/base/core\los_task.c **** 
1101:D:/fchai/work/i-cube/I-CUBE-HUAWEI/Middlewares/Third_Party/Huawei/iot_link/os/liteos/base/core\los_task.c ****     usTempStatus = pstTaskCB->usTaskStatus;
 3166              		.loc 1 1101 5 is_stmt 1 view .LVU987
 3167              		.loc 1 1101 18 is_stmt 0 view .LVU988
 3168 0054 A688     		ldrh	r6, [r4, #4]
 3169              	.LVL226:
1102:D:/fchai/work/i-cube/I-CUBE-HUAWEI/Middlewares/Third_Party/Huawei/iot_link/os/liteos/base/core\los_task.c **** 
1103:D:/fchai/work/i-cube/I-CUBE-HUAWEI/Middlewares/Third_Party/Huawei/iot_link/os/liteos/base/core\los_task.c ****     if (OS_TASK_STATUS_UNUSED & usTempStatus)
 3170              		.loc 1 1103 5 is_stmt 1 view .LVU989
 3171              		.loc 1 1103 8 is_stmt 0 view .LVU990
 3172 0056 16F00103 		ands	r3, r6, #1
 3173 005a 40F08680 		bne	.L244
1104:D:/fchai/work/i-cube/I-CUBE-HUAWEI/Middlewares/Third_Party/Huawei/iot_link/os/liteos/base/core\los_task.c ****     {
1105:D:/fchai/work/i-cube/I-CUBE-HUAWEI/Middlewares/Third_Party/Huawei/iot_link/os/liteos/base/core\los_task.c ****         uwErrRet = LOS_ERRNO_TSK_NOT_CREATED;
1106:D:/fchai/work/i-cube/I-CUBE-HUAWEI/Middlewares/Third_Party/Huawei/iot_link/os/liteos/base/core\los_task.c ****         OS_GOTO_ERREND();
 3174              		.loc 1 1106 9 is_stmt 1 view .LVU991
1107:D:/fchai/work/i-cube/I-CUBE-HUAWEI/Middlewares/Third_Party/Huawei/iot_link/os/liteos/base/core\los_task.c ****     }
1108:D:/fchai/work/i-cube/I-CUBE-HUAWEI/Middlewares/Third_Party/Huawei/iot_link/os/liteos/base/core\los_task.c **** 
1109:D:/fchai/work/i-cube/I-CUBE-HUAWEI/Middlewares/Third_Party/Huawei/iot_link/os/liteos/base/core\los_task.c ****     /* If the task is running and scheduler is locked then you can not delete it */
1110:D:/fchai/work/i-cube/I-CUBE-HUAWEI/Middlewares/Third_Party/Huawei/iot_link/os/liteos/base/core\los_task.c ****     if ((OS_TASK_STATUS_RUNNING & usTempStatus) && (g_usLosTaskLock != 0))
 3175              		.loc 1 1110 5 view .LVU992
 3176              		.loc 1 1110 8 is_stmt 0 view .LVU993
 3177 005e F206     		lsls	r2, r6, #27
 3178 0060 03D5     		bpl	.L224
 3179              		.loc 1 1110 69 view .LVU994
 3180 0062 4749     		ldr	r1, .L249+8
 3181              		.loc 1 1110 49 view .LVU995
 3182 0064 0888     		ldrh	r0, [r1]
 3183              	.LVL227:
 3184              		.loc 1 1110 49 view .LVU996
 3185 0066 0028     		cmp	r0, #0
 3186 0068 47D1     		bne	.L245
 3187              	.L224:
1111:D:/fchai/work/i-cube/I-CUBE-HUAWEI/Middlewares/Third_Party/Huawei/iot_link/os/liteos/base/core\los_task.c ****     {
1112:D:/fchai/work/i-cube/I-CUBE-HUAWEI/Middlewares/Third_Party/Huawei/iot_link/os/liteos/base/core\los_task.c ****         PRINT_INFO("In case of task lock, task deletion is not recommended\n");
1113:D:/fchai/work/i-cube/I-CUBE-HUAWEI/Middlewares/Third_Party/Huawei/iot_link/os/liteos/base/core\los_task.c ****         g_usLosTaskLock = 0;
1114:D:/fchai/work/i-cube/I-CUBE-HUAWEI/Middlewares/Third_Party/Huawei/iot_link/os/liteos/base/core\los_task.c ****     }
1115:D:/fchai/work/i-cube/I-CUBE-HUAWEI/Middlewares/Third_Party/Huawei/iot_link/os/liteos/base/core\los_task.c **** 
1116:D:/fchai/work/i-cube/I-CUBE-HUAWEI/Middlewares/Third_Party/Huawei/iot_link/os/liteos/base/core\los_task.c ****     if (OS_TASK_STATUS_READY & usTempStatus)
 3188              		.loc 1 1116 5 is_stmt 1 view .LVU997
 3189              		.loc 1 1116 8 is_stmt 0 view .LVU998
 3190 006a 16F00403 		ands	r3, r6, #4
 3191 006e 48D1     		bne	.L246
 3192              	.L225:
1117:D:/fchai/work/i-cube/I-CUBE-HUAWEI/Middlewares/Third_Party/Huawei/iot_link/os/liteos/base/core\los_task.c ****     {
1118:D:/fchai/work/i-cube/I-CUBE-HUAWEI/Middlewares/Third_Party/Huawei/iot_link/os/liteos/base/core\los_task.c ****         osPriqueueDequeue(&pstTaskCB->stPendList);
1119:D:/fchai/work/i-cube/I-CUBE-HUAWEI/Middlewares/Third_Party/Huawei/iot_link/os/liteos/base/core\los_task.c ****         pstTaskCB->usTaskStatus &= (~OS_TASK_STATUS_READY);
1120:D:/fchai/work/i-cube/I-CUBE-HUAWEI/Middlewares/Third_Party/Huawei/iot_link/os/liteos/base/core\los_task.c ****     }
ARM GAS  T:\msys\tmp\ccehPeV4.s 			page 93


1121:D:/fchai/work/i-cube/I-CUBE-HUAWEI/Middlewares/Third_Party/Huawei/iot_link/os/liteos/base/core\los_task.c ****     else if ((OS_TASK_STATUS_PEND & usTempStatus) || (OS_TASK_STATUS_PEND_QUEUE & usTempStatus))
 3193              		.loc 1 1121 10 is_stmt 1 view .LVU999
 3194              		.loc 1 1121 51 is_stmt 0 view .LVU1000
 3195 0070 42F20801 		movw	r1, #8200
 3196              		.loc 1 1121 13 view .LVU1001
 3197 0074 0E42     		tst	r6, r1
 3198 0076 31D1     		bne	.L227
 3199 0078 04F12808 		add	r8, r4, #40
 3200              	.L226:
1122:D:/fchai/work/i-cube/I-CUBE-HUAWEI/Middlewares/Third_Party/Huawei/iot_link/os/liteos/base/core\los_task.c ****     {
1123:D:/fchai/work/i-cube/I-CUBE-HUAWEI/Middlewares/Third_Party/Huawei/iot_link/os/liteos/base/core\los_task.c ****         LOS_ListDelete(&pstTaskCB->stPendList);
1124:D:/fchai/work/i-cube/I-CUBE-HUAWEI/Middlewares/Third_Party/Huawei/iot_link/os/liteos/base/core\los_task.c ****     }
1125:D:/fchai/work/i-cube/I-CUBE-HUAWEI/Middlewares/Third_Party/Huawei/iot_link/os/liteos/base/core\los_task.c **** 
1126:D:/fchai/work/i-cube/I-CUBE-HUAWEI/Middlewares/Third_Party/Huawei/iot_link/os/liteos/base/core\los_task.c ****     if ((OS_TASK_STATUS_DELAY | OS_TASK_STATUS_TIMEOUT) & usTempStatus)
 3201              		.loc 1 1126 5 is_stmt 1 view .LVU1002
 3202              		.loc 1 1126 8 is_stmt 0 view .LVU1003
 3203 007c 16F0600F 		tst	r6, #96
 3204 0080 37D1     		bne	.L247
 3205              	.L228:
1127:D:/fchai/work/i-cube/I-CUBE-HUAWEI/Middlewares/Third_Party/Huawei/iot_link/os/liteos/base/core\los_task.c ****     {
1128:D:/fchai/work/i-cube/I-CUBE-HUAWEI/Middlewares/Third_Party/Huawei/iot_link/os/liteos/base/core\los_task.c ****         osTimerListDelete(pstTaskCB);
1129:D:/fchai/work/i-cube/I-CUBE-HUAWEI/Middlewares/Third_Party/Huawei/iot_link/os/liteos/base/core\los_task.c ****     }
1130:D:/fchai/work/i-cube/I-CUBE-HUAWEI/Middlewares/Third_Party/Huawei/iot_link/os/liteos/base/core\los_task.c **** 
1131:D:/fchai/work/i-cube/I-CUBE-HUAWEI/Middlewares/Third_Party/Huawei/iot_link/os/liteos/base/core\los_task.c ****     pstTaskCB->usTaskStatus &= (~(OS_TASK_STATUS_SUSPEND));
 3206              		.loc 1 1131 5 is_stmt 1 view .LVU1004
1132:D:/fchai/work/i-cube/I-CUBE-HUAWEI/Middlewares/Third_Party/Huawei/iot_link/os/liteos/base/core\los_task.c ****     pstTaskCB->usTaskStatus |= OS_TASK_STATUS_UNUSED;
 3207              		.loc 1 1132 5 view .LVU1005
1131:D:/fchai/work/i-cube/I-CUBE-HUAWEI/Middlewares/Third_Party/Huawei/iot_link/os/liteos/base/core\los_task.c ****     pstTaskCB->usTaskStatus |= OS_TASK_STATUS_UNUSED;
 3208              		.loc 1 1131 29 is_stmt 0 view .LVU1006
 3209 0082 A388     		ldrh	r3, [r4, #4]
 3210 0084 23F00203 		bic	r3, r3, #2
 3211              		.loc 1 1132 29 view .LVU1007
 3212 0088 43F00103 		orr	r3, r3, #1
1133:D:/fchai/work/i-cube/I-CUBE-HUAWEI/Middlewares/Third_Party/Huawei/iot_link/os/liteos/base/core\los_task.c ****     pstTaskCB->uwEvent.uwEventID = 0xFFFFFFFF;
 3213              		.loc 1 1133 34 view .LVU1008
 3214 008c 4FF0FF31 		mov	r1, #-1
1132:D:/fchai/work/i-cube/I-CUBE-HUAWEI/Middlewares/Third_Party/Huawei/iot_link/os/liteos/base/core\los_task.c ****     pstTaskCB->usTaskStatus |= OS_TASK_STATUS_UNUSED;
 3215              		.loc 1 1132 29 view .LVU1009
 3216 0090 A380     		strh	r3, [r4, #4]	@ movhi
 3217              		.loc 1 1133 5 is_stmt 1 view .LVU1010
1134:D:/fchai/work/i-cube/I-CUBE-HUAWEI/Middlewares/Third_Party/Huawei/iot_link/os/liteos/base/core\los_task.c ****     pstTaskCB->uwEventMask = 0;
 3218              		.loc 1 1134 28 is_stmt 0 view .LVU1011
 3219 0092 0023     		movs	r3, #0
 3220 0094 A364     		str	r3, [r4, #72]
1133:D:/fchai/work/i-cube/I-CUBE-HUAWEI/Middlewares/Third_Party/Huawei/iot_link/os/liteos/base/core\los_task.c ****     pstTaskCB->uwEvent.uwEventID = 0xFFFFFFFF;
 3221              		.loc 1 1133 34 view .LVU1012
 3222 0096 E163     		str	r1, [r4, #60]
 3223              		.loc 1 1134 5 is_stmt 1 view .LVU1013
1135:D:/fchai/work/i-cube/I-CUBE-HUAWEI/Middlewares/Third_Party/Huawei/iot_link/os/liteos/base/core\los_task.c **** #if (LOSCFG_BASE_CORE_CPUP == YES)
1136:D:/fchai/work/i-cube/I-CUBE-HUAWEI/Middlewares/Third_Party/Huawei/iot_link/os/liteos/base/core\los_task.c ****     (VOID)memset((VOID *)&g_pstCpup[pstTaskCB->uwTaskID], 0, sizeof(OS_CPUP_S));
1137:D:/fchai/work/i-cube/I-CUBE-HUAWEI/Middlewares/Third_Party/Huawei/iot_link/os/liteos/base/core\los_task.c **** #endif
1138:D:/fchai/work/i-cube/I-CUBE-HUAWEI/Middlewares/Third_Party/Huawei/iot_link/os/liteos/base/core\los_task.c ****     g_stLosTask.pstNewTask = LOS_DL_LIST_ENTRY(osPriqueueTop(), LOS_TASK_CB, stPendList); /*lint !e
 3224              		.loc 1 1138 5 view .LVU1014
 3225              		.loc 1 1138 30 is_stmt 0 view .LVU1015
 3226 0098 FFF7FEFF 		bl	osPriqueueTop
 3227              	.LVL228:
1139:D:/fchai/work/i-cube/I-CUBE-HUAWEI/Middlewares/Third_Party/Huawei/iot_link/os/liteos/base/core\los_task.c ****     if (OS_TASK_STATUS_RUNNING & pstTaskCB->usTaskStatus)
ARM GAS  T:\msys\tmp\ccehPeV4.s 			page 94


 3228              		.loc 1 1139 43 view .LVU1016
 3229 009c A388     		ldrh	r3, [r4, #4]
1138:D:/fchai/work/i-cube/I-CUBE-HUAWEI/Middlewares/Third_Party/Huawei/iot_link/os/liteos/base/core\los_task.c ****     if (OS_TASK_STATUS_RUNNING & pstTaskCB->usTaskStatus)
 3230              		.loc 1 1138 30 view .LVU1017
 3231 009e 2838     		subs	r0, r0, #40
 3232              		.loc 1 1139 8 view .LVU1018
 3233 00a0 13F01006 		ands	r6, r3, #16
 3234              	.LVL229:
1138:D:/fchai/work/i-cube/I-CUBE-HUAWEI/Middlewares/Third_Party/Huawei/iot_link/os/liteos/base/core\los_task.c ****     if (OS_TASK_STATUS_RUNNING & pstTaskCB->usTaskStatus)
 3235              		.loc 1 1138 28 view .LVU1019
 3236 00a4 C9F80400 		str	r0, [r9, #4]
 3237              		.loc 1 1139 5 is_stmt 1 view .LVU1020
 3238              		.loc 1 1139 8 is_stmt 0 view .LVU1021
 3239 00a8 35D1     		bne	.L248
1140:D:/fchai/work/i-cube/I-CUBE-HUAWEI/Middlewares/Third_Party/Huawei/iot_link/os/liteos/base/core\los_task.c ****     {
1141:D:/fchai/work/i-cube/I-CUBE-HUAWEI/Middlewares/Third_Party/Huawei/iot_link/os/liteos/base/core\los_task.c ****         LOS_ListTailInsert(&g_stTskRecyleList, &pstTaskCB->stPendList);
1142:D:/fchai/work/i-cube/I-CUBE-HUAWEI/Middlewares/Third_Party/Huawei/iot_link/os/liteos/base/core\los_task.c ****         g_stLosTask.pstRunTask = &g_pstTaskCBArray[g_uwTskMaxNum];
1143:D:/fchai/work/i-cube/I-CUBE-HUAWEI/Middlewares/Third_Party/Huawei/iot_link/os/liteos/base/core\los_task.c ****         g_stLosTask.pstRunTask->uwTaskID = uwTaskID;
1144:D:/fchai/work/i-cube/I-CUBE-HUAWEI/Middlewares/Third_Party/Huawei/iot_link/os/liteos/base/core\los_task.c ****         g_stLosTask.pstRunTask->usTaskStatus = pstTaskCB->usTaskStatus;
1145:D:/fchai/work/i-cube/I-CUBE-HUAWEI/Middlewares/Third_Party/Huawei/iot_link/os/liteos/base/core\los_task.c ****         g_stLosTask.pstRunTask->uwTopOfStack = pstTaskCB->uwTopOfStack;
1146:D:/fchai/work/i-cube/I-CUBE-HUAWEI/Middlewares/Third_Party/Huawei/iot_link/os/liteos/base/core\los_task.c ****         g_stLosTask.pstRunTask->pcTaskName = pstTaskCB->pcTaskName;
1147:D:/fchai/work/i-cube/I-CUBE-HUAWEI/Middlewares/Third_Party/Huawei/iot_link/os/liteos/base/core\los_task.c ****         pstTaskCB->usTaskStatus = OS_TASK_STATUS_UNUSED;
1148:D:/fchai/work/i-cube/I-CUBE-HUAWEI/Middlewares/Third_Party/Huawei/iot_link/os/liteos/base/core\los_task.c ****         (VOID)LOS_IntRestore(uvIntSave);
1149:D:/fchai/work/i-cube/I-CUBE-HUAWEI/Middlewares/Third_Party/Huawei/iot_link/os/liteos/base/core\los_task.c ****         osSchedule();
1150:D:/fchai/work/i-cube/I-CUBE-HUAWEI/Middlewares/Third_Party/Huawei/iot_link/os/liteos/base/core\los_task.c ****         return LOS_OK;
1151:D:/fchai/work/i-cube/I-CUBE-HUAWEI/Middlewares/Third_Party/Huawei/iot_link/os/liteos/base/core\los_task.c ****     }
1152:D:/fchai/work/i-cube/I-CUBE-HUAWEI/Middlewares/Third_Party/Huawei/iot_link/os/liteos/base/core\los_task.c ****     else
1153:D:/fchai/work/i-cube/I-CUBE-HUAWEI/Middlewares/Third_Party/Huawei/iot_link/os/liteos/base/core\los_task.c ****     {
1154:D:/fchai/work/i-cube/I-CUBE-HUAWEI/Middlewares/Third_Party/Huawei/iot_link/os/liteos/base/core\los_task.c ****         pstTaskCB->usTaskStatus = OS_TASK_STATUS_UNUSED;
 3240              		.loc 1 1154 9 is_stmt 1 view .LVU1022
 3241              	.LBB226:
 3242              	.LBB227:
 131:D:/fchai/work/i-cube/I-CUBE-HUAWEI/Middlewares/Third_Party/Huawei/iot_link/os/liteos/include\los_list.h ****     pstNode->pstPrev = pstList;
 3243              		.loc 2 131 31 is_stmt 0 view .LVU1023
 3244 00aa 364B     		ldr	r3, .L249+12
 3245              	.LBE227:
 3246              	.LBE226:
1155:D:/fchai/work/i-cube/I-CUBE-HUAWEI/Middlewares/Third_Party/Huawei/iot_link/os/liteos/base/core\los_task.c ****         LOS_ListAdd(&g_stLosFreeTask, &pstTaskCB->stPendList);
1156:D:/fchai/work/i-cube/I-CUBE-HUAWEI/Middlewares/Third_Party/Huawei/iot_link/os/liteos/base/core\los_task.c ****         (VOID)LOS_MemFree(OS_TASK_STACK_ADDR, (VOID *)pstTaskCB->uwTopOfStack);
 3247              		.loc 1 1156 15 view .LVU1024
 3248 00ac 3649     		ldr	r1, .L249+16
 3249              	.LBB232:
 3250              	.LBB228:
 131:D:/fchai/work/i-cube/I-CUBE-HUAWEI/Middlewares/Third_Party/Huawei/iot_link/os/liteos/include\los_list.h ****     pstNode->pstPrev = pstList;
 3251              		.loc 2 131 31 view .LVU1025
 3252 00ae 5A68     		ldr	r2, [r3, #4]
 132:D:/fchai/work/i-cube/I-CUBE-HUAWEI/Middlewares/Third_Party/Huawei/iot_link/os/liteos/include\los_list.h ****     pstList->pstNext->pstPrev = pstNode;
 3253              		.loc 2 132 22 view .LVU1026
 3254 00b0 A362     		str	r3, [r4, #40]
 3255              	.LBE228:
 3256              	.LBE232:
1154:D:/fchai/work/i-cube/I-CUBE-HUAWEI/Middlewares/Third_Party/Huawei/iot_link/os/liteos/base/core\los_task.c ****         LOS_ListAdd(&g_stLosFreeTask, &pstTaskCB->stPendList);
 3257              		.loc 1 1154 33 view .LVU1027
 3258 00b2 0120     		movs	r0, #1
 3259 00b4 A080     		strh	r0, [r4, #4]	@ movhi
1155:D:/fchai/work/i-cube/I-CUBE-HUAWEI/Middlewares/Third_Party/Huawei/iot_link/os/liteos/base/core\los_task.c ****         LOS_ListAdd(&g_stLosFreeTask, &pstTaskCB->stPendList);
 3260              		.loc 1 1155 9 is_stmt 1 view .LVU1028
ARM GAS  T:\msys\tmp\ccehPeV4.s 			page 95


 3261              	.LVL230:
 3262              	.LBB233:
 3263              	.LBI226:
 129:D:/fchai/work/i-cube/I-CUBE-HUAWEI/Middlewares/Third_Party/Huawei/iot_link/os/liteos/include\los_list.h **** {
 3264              		.loc 2 129 43 view .LVU1029
 3265              	.LBB229:
 131:D:/fchai/work/i-cube/I-CUBE-HUAWEI/Middlewares/Third_Party/Huawei/iot_link/os/liteos/include\los_list.h ****     pstNode->pstPrev = pstList;
 3266              		.loc 2 131 5 view .LVU1030
 132:D:/fchai/work/i-cube/I-CUBE-HUAWEI/Middlewares/Third_Party/Huawei/iot_link/os/liteos/include\los_list.h ****     pstList->pstNext->pstPrev = pstNode;
 3267              		.loc 2 132 5 view .LVU1031
 133:D:/fchai/work/i-cube/I-CUBE-HUAWEI/Middlewares/Third_Party/Huawei/iot_link/os/liteos/include\los_list.h ****     pstList->pstNext = pstNode;
 3268              		.loc 2 133 5 view .LVU1032
 131:D:/fchai/work/i-cube/I-CUBE-HUAWEI/Middlewares/Third_Party/Huawei/iot_link/os/liteos/include\los_list.h ****     pstNode->pstPrev = pstList;
 3269              		.loc 2 131 22 is_stmt 0 view .LVU1033
 3270 00b6 E262     		str	r2, [r4, #44]
 3271              	.LBE229:
 3272              	.LBE233:
 3273              		.loc 1 1156 15 view .LVU1034
 3274 00b8 0868     		ldr	r0, [r1]
 3275              	.LBB234:
 3276              	.LBB230:
 133:D:/fchai/work/i-cube/I-CUBE-HUAWEI/Middlewares/Third_Party/Huawei/iot_link/os/liteos/include\los_list.h ****     pstList->pstNext = pstNode;
 3277              		.loc 2 133 31 view .LVU1035
 3278 00ba C2F80080 		str	r8, [r2]
 134:D:/fchai/work/i-cube/I-CUBE-HUAWEI/Middlewares/Third_Party/Huawei/iot_link/os/liteos/include\los_list.h **** }
 3279              		.loc 2 134 5 is_stmt 1 view .LVU1036
 3280              	.LBE230:
 3281              	.LBE234:
 3282              		.loc 1 1156 15 is_stmt 0 view .LVU1037
 3283 00be E168     		ldr	r1, [r4, #12]
 3284              	.LBB235:
 3285              	.LBB231:
 134:D:/fchai/work/i-cube/I-CUBE-HUAWEI/Middlewares/Third_Party/Huawei/iot_link/os/liteos/include\los_list.h **** }
 3286              		.loc 2 134 22 view .LVU1038
 3287 00c0 C3F80480 		str	r8, [r3, #4]
 3288              	.LVL231:
 134:D:/fchai/work/i-cube/I-CUBE-HUAWEI/Middlewares/Third_Party/Huawei/iot_link/os/liteos/include\los_list.h **** }
 3289              		.loc 2 134 22 view .LVU1039
 3290              	.LBE231:
 3291              	.LBE235:
 3292              		.loc 1 1156 9 is_stmt 1 view .LVU1040
 3293              		.loc 1 1156 15 is_stmt 0 view .LVU1041
 3294 00c4 FFF7FEFF 		bl	LOS_MemFree
 3295              	.LVL232:
1157:D:/fchai/work/i-cube/I-CUBE-HUAWEI/Middlewares/Third_Party/Huawei/iot_link/os/liteos/base/core\los_task.c ****         pstTaskCB->uwTopOfStack = (UINT32)NULL;
 3296              		.loc 1 1157 9 is_stmt 1 view .LVU1042
1158:D:/fchai/work/i-cube/I-CUBE-HUAWEI/Middlewares/Third_Party/Huawei/iot_link/os/liteos/base/core\los_task.c ****     }
1159:D:/fchai/work/i-cube/I-CUBE-HUAWEI/Middlewares/Third_Party/Huawei/iot_link/os/liteos/base/core\los_task.c **** 
1160:D:/fchai/work/i-cube/I-CUBE-HUAWEI/Middlewares/Third_Party/Huawei/iot_link/os/liteos/base/core\los_task.c ****     (VOID)LOS_IntRestore(uvIntSave);
 3297              		.loc 1 1160 5 is_stmt 0 view .LVU1043
 3298 00c8 3846     		mov	r0, r7
1157:D:/fchai/work/i-cube/I-CUBE-HUAWEI/Middlewares/Third_Party/Huawei/iot_link/os/liteos/base/core\los_task.c ****         pstTaskCB->uwTopOfStack = (UINT32)NULL;
 3299              		.loc 1 1157 33 view .LVU1044
 3300 00ca E660     		str	r6, [r4, #12]
 3301              		.loc 1 1160 5 is_stmt 1 view .LVU1045
 3302 00cc FFF7FEFF 		bl	LOS_IntRestore
 3303              	.LVL233:
ARM GAS  T:\msys\tmp\ccehPeV4.s 			page 96


1161:D:/fchai/work/i-cube/I-CUBE-HUAWEI/Middlewares/Third_Party/Huawei/iot_link/os/liteos/base/core\los_task.c ****     return LOS_OK;
 3304              		.loc 1 1161 5 view .LVU1046
 3305              		.loc 1 1161 12 is_stmt 0 view .LVU1047
 3306 00d0 3046     		mov	r0, r6
 3307              	.LBE218:
 3308              	.LBE217:
1162:D:/fchai/work/i-cube/I-CUBE-HUAWEI/Middlewares/Third_Party/Huawei/iot_link/os/liteos/base/core\los_task.c **** 
1163:D:/fchai/work/i-cube/I-CUBE-HUAWEI/Middlewares/Third_Party/Huawei/iot_link/os/liteos/base/core\los_task.c **** LOS_ERREND:
1164:D:/fchai/work/i-cube/I-CUBE-HUAWEI/Middlewares/Third_Party/Huawei/iot_link/os/liteos/base/core\los_task.c ****     (VOID)LOS_IntRestore(uvIntSave);
1165:D:/fchai/work/i-cube/I-CUBE-HUAWEI/Middlewares/Third_Party/Huawei/iot_link/os/liteos/base/core\los_task.c ****     return uwErrRet;
1166:D:/fchai/work/i-cube/I-CUBE-HUAWEI/Middlewares/Third_Party/Huawei/iot_link/os/liteos/base/core\los_task.c **** #else
1167:D:/fchai/work/i-cube/I-CUBE-HUAWEI/Middlewares/Third_Party/Huawei/iot_link/os/liteos/base/core\los_task.c ****     (VOID)LOS_TaskSuspend(uwTaskID);
1168:D:/fchai/work/i-cube/I-CUBE-HUAWEI/Middlewares/Third_Party/Huawei/iot_link/os/liteos/base/core\los_task.c ****     return LOS_NOK;
1169:D:/fchai/work/i-cube/I-CUBE-HUAWEI/Middlewares/Third_Party/Huawei/iot_link/os/liteos/base/core\los_task.c **** #endif
1170:D:/fchai/work/i-cube/I-CUBE-HUAWEI/Middlewares/Third_Party/Huawei/iot_link/os/liteos/base/core\los_task.c **** }
 3309              		.loc 1 1170 1 view .LVU1048
 3310 00d2 BDE8F88F 		pop	{r3, r4, r5, r6, r7, r8, r9, r10, fp, pc}
 3311              	.LVL234:
 3312              	.L232:
1089:D:/fchai/work/i-cube/I-CUBE-HUAWEI/Middlewares/Third_Party/Huawei/iot_link/os/liteos/base/core\los_task.c ****     uvIntSave = LOS_IntLock();
 3313              		.loc 1 1089 5 view .LVU1049
 3314 00d6 2D48     		ldr	r0, .L249+20
 3315              	.LVL235:
 3316              	.L219:
 3317              		.loc 1 1170 1 view .LVU1050
 3318 00d8 BDE8F88F 		pop	{r3, r4, r5, r6, r7, r8, r9, r10, fp, pc}
 3319              	.LVL236:
 3320              	.L227:
 3321              	.LBB257:
 3322              	.LBB254:
1123:D:/fchai/work/i-cube/I-CUBE-HUAWEI/Middlewares/Third_Party/Huawei/iot_link/os/liteos/base/core\los_task.c ****     }
 3323              		.loc 1 1123 9 is_stmt 1 view .LVU1051
 3324              	.LBB236:
 3325              	.LBI236:
 183:D:/fchai/work/i-cube/I-CUBE-HUAWEI/Middlewares/Third_Party/Huawei/iot_link/os/liteos/include\los_list.h **** {
 3326              		.loc 2 183 43 view .LVU1052
 3327              	.LBB237:
 185:D:/fchai/work/i-cube/I-CUBE-HUAWEI/Middlewares/Third_Party/Huawei/iot_link/os/liteos/include\los_list.h ****     pstNode->pstPrev->pstNext = pstNode->pstNext;
 3328              		.loc 2 185 5 view .LVU1053
 185:D:/fchai/work/i-cube/I-CUBE-HUAWEI/Middlewares/Third_Party/Huawei/iot_link/os/liteos/include\los_list.h ****     pstNode->pstPrev->pstNext = pstNode->pstNext;
 3329              		.loc 2 185 40 is_stmt 0 view .LVU1054
 3330 00dc D4E90A10 		ldrd	r1, r0, [r4, #40]
 188:D:/fchai/work/i-cube/I-CUBE-HUAWEI/Middlewares/Third_Party/Huawei/iot_link/os/liteos/include\los_list.h **** }
 3331              		.loc 2 188 22 view .LVU1055
 3332 00e0 A046     		mov	r8, r4
 3333              	.LBE237:
 3334              	.LBE236:
1126:D:/fchai/work/i-cube/I-CUBE-HUAWEI/Middlewares/Third_Party/Huawei/iot_link/os/liteos/base/core\los_task.c ****     {
 3335              		.loc 1 1126 8 view .LVU1056
 3336 00e2 16F0600F 		tst	r6, #96
 3337              	.LBB239:
 3338              	.LBB238:
 185:D:/fchai/work/i-cube/I-CUBE-HUAWEI/Middlewares/Third_Party/Huawei/iot_link/os/liteos/include\los_list.h ****     pstNode->pstPrev->pstNext = pstNode->pstNext;
 3339              		.loc 2 185 31 view .LVU1057
 3340 00e6 0160     		str	r1, [r0]
 186:D:/fchai/work/i-cube/I-CUBE-HUAWEI/Middlewares/Third_Party/Huawei/iot_link/os/liteos/include\los_list.h ****     pstNode->pstNext = (LOS_DL_LIST *)NULL;
 3341              		.loc 2 186 5 is_stmt 1 view .LVU1058
ARM GAS  T:\msys\tmp\ccehPeV4.s 			page 97


 186:D:/fchai/work/i-cube/I-CUBE-HUAWEI/Middlewares/Third_Party/Huawei/iot_link/os/liteos/include\los_list.h ****     pstNode->pstNext = (LOS_DL_LIST *)NULL;
 3342              		.loc 2 186 31 is_stmt 0 view .LVU1059
 3343 00e8 4860     		str	r0, [r1, #4]
 187:D:/fchai/work/i-cube/I-CUBE-HUAWEI/Middlewares/Third_Party/Huawei/iot_link/os/liteos/include\los_list.h ****     pstNode->pstPrev = (LOS_DL_LIST *)NULL;
 3344              		.loc 2 187 5 is_stmt 1 view .LVU1060
 187:D:/fchai/work/i-cube/I-CUBE-HUAWEI/Middlewares/Third_Party/Huawei/iot_link/os/liteos/include\los_list.h ****     pstNode->pstPrev = (LOS_DL_LIST *)NULL;
 3345              		.loc 2 187 22 is_stmt 0 view .LVU1061
 3346 00ea E362     		str	r3, [r4, #44]
 188:D:/fchai/work/i-cube/I-CUBE-HUAWEI/Middlewares/Third_Party/Huawei/iot_link/os/liteos/include\los_list.h **** }
 3347              		.loc 2 188 5 is_stmt 1 view .LVU1062
 188:D:/fchai/work/i-cube/I-CUBE-HUAWEI/Middlewares/Third_Party/Huawei/iot_link/os/liteos/include\los_list.h **** }
 3348              		.loc 2 188 22 is_stmt 0 view .LVU1063
 3349 00ec 48F8283F 		str	r3, [r8, #40]!
 3350              	.LVL237:
 188:D:/fchai/work/i-cube/I-CUBE-HUAWEI/Middlewares/Third_Party/Huawei/iot_link/os/liteos/include\los_list.h **** }
 3351              		.loc 2 188 22 view .LVU1064
 3352              	.LBE238:
 3353              	.LBE239:
1126:D:/fchai/work/i-cube/I-CUBE-HUAWEI/Middlewares/Third_Party/Huawei/iot_link/os/liteos/base/core\los_task.c ****     {
 3354              		.loc 1 1126 5 is_stmt 1 view .LVU1065
1126:D:/fchai/work/i-cube/I-CUBE-HUAWEI/Middlewares/Third_Party/Huawei/iot_link/os/liteos/base/core\los_task.c ****     {
 3355              		.loc 1 1126 8 is_stmt 0 view .LVU1066
 3356 00f0 C7D0     		beq	.L228
 3357              	.LVL238:
 3358              	.L247:
1128:D:/fchai/work/i-cube/I-CUBE-HUAWEI/Middlewares/Third_Party/Huawei/iot_link/os/liteos/base/core\los_task.c ****     }
 3359              		.loc 1 1128 9 is_stmt 1 view .LVU1067
 3360 00f2 2046     		mov	r0, r4
 3361 00f4 FFF7FEFF 		bl	osTimerListDelete
 3362              	.LVL239:
 3363 00f8 C3E7     		b	.L228
 3364              	.L245:
1112:D:/fchai/work/i-cube/I-CUBE-HUAWEI/Middlewares/Third_Party/Huawei/iot_link/os/liteos/base/core\los_task.c ****         g_usLosTaskLock = 0;
 3365              		.loc 1 1112 79 view .LVU1068
1113:D:/fchai/work/i-cube/I-CUBE-HUAWEI/Middlewares/Third_Party/Huawei/iot_link/os/liteos/base/core\los_task.c ****     }
 3366              		.loc 1 1113 9 view .LVU1069
1113:D:/fchai/work/i-cube/I-CUBE-HUAWEI/Middlewares/Third_Party/Huawei/iot_link/os/liteos/base/core\los_task.c ****     }
 3367              		.loc 1 1113 25 is_stmt 0 view .LVU1070
 3368 00fa 0B80     		strh	r3, [r1]	@ movhi
1116:D:/fchai/work/i-cube/I-CUBE-HUAWEI/Middlewares/Third_Party/Huawei/iot_link/os/liteos/base/core\los_task.c ****     {
 3369              		.loc 1 1116 5 is_stmt 1 view .LVU1071
1116:D:/fchai/work/i-cube/I-CUBE-HUAWEI/Middlewares/Third_Party/Huawei/iot_link/os/liteos/base/core\los_task.c ****     {
 3370              		.loc 1 1116 8 is_stmt 0 view .LVU1072
 3371 00fc 16F00403 		ands	r3, r6, #4
 3372 0100 B6D0     		beq	.L225
 3373              	.L246:
1118:D:/fchai/work/i-cube/I-CUBE-HUAWEI/Middlewares/Third_Party/Huawei/iot_link/os/liteos/base/core\los_task.c ****         pstTaskCB->usTaskStatus &= (~OS_TASK_STATUS_READY);
 3374              		.loc 1 1118 9 is_stmt 1 view .LVU1073
 3375 0102 04F12808 		add	r8, r4, #40
 3376 0106 4046     		mov	r0, r8
 3377 0108 FFF7FEFF 		bl	osPriqueueDequeue
 3378              	.LVL240:
1119:D:/fchai/work/i-cube/I-CUBE-HUAWEI/Middlewares/Third_Party/Huawei/iot_link/os/liteos/base/core\los_task.c ****     }
 3379              		.loc 1 1119 9 view .LVU1074
1119:D:/fchai/work/i-cube/I-CUBE-HUAWEI/Middlewares/Third_Party/Huawei/iot_link/os/liteos/base/core\los_task.c ****     }
 3380              		.loc 1 1119 33 is_stmt 0 view .LVU1075
 3381 010c A388     		ldrh	r3, [r4, #4]
ARM GAS  T:\msys\tmp\ccehPeV4.s 			page 98


 3382 010e 23F00403 		bic	r3, r3, #4
 3383 0112 A380     		strh	r3, [r4, #4]	@ movhi
 3384 0114 B2E7     		b	.L226
 3385              	.LVL241:
 3386              	.L248:
1141:D:/fchai/work/i-cube/I-CUBE-HUAWEI/Middlewares/Third_Party/Huawei/iot_link/os/liteos/base/core\los_task.c ****         g_stLosTask.pstRunTask = &g_pstTaskCBArray[g_uwTskMaxNum];
 3387              		.loc 1 1141 9 is_stmt 1 view .LVU1076
 3388 0116 1E48     		ldr	r0, .L249+24
1142:D:/fchai/work/i-cube/I-CUBE-HUAWEI/Middlewares/Third_Party/Huawei/iot_link/os/liteos/base/core\los_task.c ****         g_stLosTask.pstRunTask->uwTaskID = uwTaskID;
 3389              		.loc 1 1142 51 is_stmt 0 view .LVU1077
 3390 0118 DBF80010 		ldr	r1, [fp]
1141:D:/fchai/work/i-cube/I-CUBE-HUAWEI/Middlewares/Third_Party/Huawei/iot_link/os/liteos/base/core\los_task.c ****         g_stLosTask.pstRunTask = &g_pstTaskCBArray[g_uwTskMaxNum];
 3391              		.loc 1 1141 9 view .LVU1078
 3392 011c 0668     		ldr	r6, [r0]
 3393              	.LVL242:
 3394              	.LBB240:
 3395              	.LBI240:
 157:D:/fchai/work/i-cube/I-CUBE-HUAWEI/Middlewares/Third_Party/Huawei/iot_link/os/liteos/include\los_list.h **** {
 3396              		.loc 2 157 43 is_stmt 1 view .LVU1079
 157:D:/fchai/work/i-cube/I-CUBE-HUAWEI/Middlewares/Third_Party/Huawei/iot_link/os/liteos/include\los_list.h **** {
 3397              		.loc 2 157 43 is_stmt 0 view .LVU1080
 3398              	.LBE240:
 3399              	.LBE254:
 3400              	.LBE257:
 159:D:/fchai/work/i-cube/I-CUBE-HUAWEI/Middlewares/Third_Party/Huawei/iot_link/os/liteos/include\los_list.h **** }
 3401              		.loc 2 159 5 is_stmt 1 view .LVU1081
 3402              	.LBB258:
 3403              	.LBB255:
 3404              	.LBB249:
 3405              	.LBB241:
 3406              	.LBI241:
 129:D:/fchai/work/i-cube/I-CUBE-HUAWEI/Middlewares/Third_Party/Huawei/iot_link/os/liteos/include\los_list.h **** {
 3407              		.loc 2 129 43 view .LVU1082
 3408              	.LBB242:
 131:D:/fchai/work/i-cube/I-CUBE-HUAWEI/Middlewares/Third_Party/Huawei/iot_link/os/liteos/include\los_list.h ****     pstNode->pstPrev = pstList;
 3409              		.loc 2 131 5 view .LVU1083
 3410              	.LBE242:
 3411              	.LBE241:
 3412              	.LBE249:
1142:D:/fchai/work/i-cube/I-CUBE-HUAWEI/Middlewares/Third_Party/Huawei/iot_link/os/liteos/base/core\los_task.c ****         g_stLosTask.pstRunTask->uwTaskID = uwTaskID;
 3413              		.loc 1 1142 34 is_stmt 0 view .LVU1084
 3414 011e DAF80020 		ldr	r2, [r10]
1145:D:/fchai/work/i-cube/I-CUBE-HUAWEI/Middlewares/Third_Party/Huawei/iot_link/os/liteos/base/core\los_task.c ****         g_stLosTask.pstRunTask->pcTaskName = pstTaskCB->pcTaskName;
 3415              		.loc 1 1145 57 view .LVU1085
 3416 0122 D4F80CC0 		ldr	ip, [r4, #12]
1142:D:/fchai/work/i-cube/I-CUBE-HUAWEI/Middlewares/Third_Party/Huawei/iot_link/os/liteos/base/core\los_task.c ****         g_stLosTask.pstRunTask->uwTaskID = uwTaskID;
 3417              		.loc 1 1142 51 view .LVU1086
 3418 0126 5420     		movs	r0, #84
1142:D:/fchai/work/i-cube/I-CUBE-HUAWEI/Middlewares/Third_Party/Huawei/iot_link/os/liteos/base/core\los_task.c ****         g_stLosTask.pstRunTask->uwTaskID = uwTaskID;
 3419              		.loc 1 1142 34 view .LVU1087
 3420 0128 00FB0122 		mla	r2, r0, r1, r2
 3421              	.LBB250:
 3422              	.LBB246:
 3423              	.LBB243:
 131:D:/fchai/work/i-cube/I-CUBE-HUAWEI/Middlewares/Third_Party/Huawei/iot_link/os/liteos/include\los_list.h ****     pstNode->pstPrev = pstList;
 3424              		.loc 2 131 31 view .LVU1088
 3425 012c 7168     		ldr	r1, [r6, #4]
ARM GAS  T:\msys\tmp\ccehPeV4.s 			page 99


 131:D:/fchai/work/i-cube/I-CUBE-HUAWEI/Middlewares/Third_Party/Huawei/iot_link/os/liteos/include\los_list.h ****     pstNode->pstPrev = pstList;
 3426              		.loc 2 131 22 view .LVU1089
 3427 012e E162     		str	r1, [r4, #44]
 132:D:/fchai/work/i-cube/I-CUBE-HUAWEI/Middlewares/Third_Party/Huawei/iot_link/os/liteos/include\los_list.h ****     pstList->pstNext->pstPrev = pstNode;
 3428              		.loc 2 132 5 is_stmt 1 view .LVU1090
 132:D:/fchai/work/i-cube/I-CUBE-HUAWEI/Middlewares/Third_Party/Huawei/iot_link/os/liteos/include\los_list.h ****     pstList->pstNext->pstPrev = pstNode;
 3429              		.loc 2 132 22 is_stmt 0 view .LVU1091
 3430 0130 A662     		str	r6, [r4, #40]
 133:D:/fchai/work/i-cube/I-CUBE-HUAWEI/Middlewares/Third_Party/Huawei/iot_link/os/liteos/include\los_list.h ****     pstList->pstNext = pstNode;
 3431              		.loc 2 133 5 is_stmt 1 view .LVU1092
 3432              	.LBE243:
 3433              	.LBE246:
 3434              	.LBE250:
1148:D:/fchai/work/i-cube/I-CUBE-HUAWEI/Middlewares/Third_Party/Huawei/iot_link/os/liteos/base/core\los_task.c ****         osSchedule();
 3435              		.loc 1 1148 9 is_stmt 0 view .LVU1093
 3436 0132 3846     		mov	r0, r7
 3437              	.LBB251:
 3438              	.LBB247:
 3439              	.LBB244:
 133:D:/fchai/work/i-cube/I-CUBE-HUAWEI/Middlewares/Third_Party/Huawei/iot_link/os/liteos/include\los_list.h ****     pstList->pstNext = pstNode;
 3440              		.loc 2 133 31 view .LVU1094
 3441 0134 C1F80080 		str	r8, [r1]
 134:D:/fchai/work/i-cube/I-CUBE-HUAWEI/Middlewares/Third_Party/Huawei/iot_link/os/liteos/include\los_list.h **** }
 3442              		.loc 2 134 5 is_stmt 1 view .LVU1095
 3443              	.LBE244:
 3444              	.LBE247:
 3445              	.LBE251:
1146:D:/fchai/work/i-cube/I-CUBE-HUAWEI/Middlewares/Third_Party/Huawei/iot_link/os/liteos/base/core\los_task.c ****         pstTaskCB->usTaskStatus = OS_TASK_STATUS_UNUSED;
 3446              		.loc 1 1146 55 is_stmt 0 view .LVU1096
 3447 0138 676A     		ldr	r7, [r4, #36]
 3448              	.LVL243:
 3449              	.LBB252:
 3450              	.LBB248:
 3451              	.LBB245:
 134:D:/fchai/work/i-cube/I-CUBE-HUAWEI/Middlewares/Third_Party/Huawei/iot_link/os/liteos/include\los_list.h **** }
 3452              		.loc 2 134 22 view .LVU1097
 3453 013a C6F80480 		str	r8, [r6, #4]
 3454              	.LVL244:
 134:D:/fchai/work/i-cube/I-CUBE-HUAWEI/Middlewares/Third_Party/Huawei/iot_link/os/liteos/include\los_list.h **** }
 3455              		.loc 2 134 22 view .LVU1098
 3456              	.LBE245:
 3457              	.LBE248:
 3458              	.LBE252:
1142:D:/fchai/work/i-cube/I-CUBE-HUAWEI/Middlewares/Third_Party/Huawei/iot_link/os/liteos/base/core\los_task.c ****         g_stLosTask.pstRunTask->uwTaskID = uwTaskID;
 3459              		.loc 1 1142 9 is_stmt 1 view .LVU1099
1147:D:/fchai/work/i-cube/I-CUBE-HUAWEI/Middlewares/Third_Party/Huawei/iot_link/os/liteos/base/core\los_task.c ****         (VOID)LOS_IntRestore(uvIntSave);
 3460              		.loc 1 1147 33 is_stmt 0 view .LVU1100
 3461 013e 0121     		movs	r1, #1
1143:D:/fchai/work/i-cube/I-CUBE-HUAWEI/Middlewares/Third_Party/Huawei/iot_link/os/liteos/base/core\los_task.c ****         g_stLosTask.pstRunTask->usTaskStatus = pstTaskCB->usTaskStatus;
 3462              		.loc 1 1143 42 view .LVU1101
 3463 0140 1561     		str	r5, [r2, #16]
1144:D:/fchai/work/i-cube/I-CUBE-HUAWEI/Middlewares/Third_Party/Huawei/iot_link/os/liteos/base/core\los_task.c ****         g_stLosTask.pstRunTask->uwTopOfStack = pstTaskCB->uwTopOfStack;
 3464              		.loc 1 1144 46 view .LVU1102
 3465 0142 9380     		strh	r3, [r2, #4]	@ movhi
1145:D:/fchai/work/i-cube/I-CUBE-HUAWEI/Middlewares/Third_Party/Huawei/iot_link/os/liteos/base/core\los_task.c ****         g_stLosTask.pstRunTask->pcTaskName = pstTaskCB->pcTaskName;
 3466              		.loc 1 1145 46 view .LVU1103
 3467 0144 C2F80CC0 		str	ip, [r2, #12]
ARM GAS  T:\msys\tmp\ccehPeV4.s 			page 100


1146:D:/fchai/work/i-cube/I-CUBE-HUAWEI/Middlewares/Third_Party/Huawei/iot_link/os/liteos/base/core\los_task.c ****         pstTaskCB->usTaskStatus = OS_TASK_STATUS_UNUSED;
 3468              		.loc 1 1146 44 view .LVU1104
 3469 0148 5762     		str	r7, [r2, #36]
1147:D:/fchai/work/i-cube/I-CUBE-HUAWEI/Middlewares/Third_Party/Huawei/iot_link/os/liteos/base/core\los_task.c ****         (VOID)LOS_IntRestore(uvIntSave);
 3470              		.loc 1 1147 33 view .LVU1105
 3471 014a A180     		strh	r1, [r4, #4]	@ movhi
1142:D:/fchai/work/i-cube/I-CUBE-HUAWEI/Middlewares/Third_Party/Huawei/iot_link/os/liteos/base/core\los_task.c ****         g_stLosTask.pstRunTask->uwTaskID = uwTaskID;
 3472              		.loc 1 1142 32 view .LVU1106
 3473 014c C9F80020 		str	r2, [r9]
1143:D:/fchai/work/i-cube/I-CUBE-HUAWEI/Middlewares/Third_Party/Huawei/iot_link/os/liteos/base/core\los_task.c ****         g_stLosTask.pstRunTask->usTaskStatus = pstTaskCB->usTaskStatus;
 3474              		.loc 1 1143 9 is_stmt 1 view .LVU1107
1144:D:/fchai/work/i-cube/I-CUBE-HUAWEI/Middlewares/Third_Party/Huawei/iot_link/os/liteos/base/core\los_task.c ****         g_stLosTask.pstRunTask->uwTopOfStack = pstTaskCB->uwTopOfStack;
 3475              		.loc 1 1144 9 view .LVU1108
1145:D:/fchai/work/i-cube/I-CUBE-HUAWEI/Middlewares/Third_Party/Huawei/iot_link/os/liteos/base/core\los_task.c ****         g_stLosTask.pstRunTask->pcTaskName = pstTaskCB->pcTaskName;
 3476              		.loc 1 1145 9 view .LVU1109
1146:D:/fchai/work/i-cube/I-CUBE-HUAWEI/Middlewares/Third_Party/Huawei/iot_link/os/liteos/base/core\los_task.c ****         pstTaskCB->usTaskStatus = OS_TASK_STATUS_UNUSED;
 3477              		.loc 1 1146 9 view .LVU1110
1147:D:/fchai/work/i-cube/I-CUBE-HUAWEI/Middlewares/Third_Party/Huawei/iot_link/os/liteos/base/core\los_task.c ****         (VOID)LOS_IntRestore(uvIntSave);
 3478              		.loc 1 1147 9 view .LVU1111
1148:D:/fchai/work/i-cube/I-CUBE-HUAWEI/Middlewares/Third_Party/Huawei/iot_link/os/liteos/base/core\los_task.c ****         osSchedule();
 3479              		.loc 1 1148 9 view .LVU1112
 3480 0150 FFF7FEFF 		bl	LOS_IntRestore
 3481              	.LVL245:
1149:D:/fchai/work/i-cube/I-CUBE-HUAWEI/Middlewares/Third_Party/Huawei/iot_link/os/liteos/base/core\los_task.c ****         return LOS_OK;
 3482              		.loc 1 1149 9 view .LVU1113
 3483 0154 FFF7FEFF 		bl	osSchedule
 3484              	.LVL246:
1150:D:/fchai/work/i-cube/I-CUBE-HUAWEI/Middlewares/Third_Party/Huawei/iot_link/os/liteos/base/core\los_task.c ****     }
 3485              		.loc 1 1150 9 view .LVU1114
1150:D:/fchai/work/i-cube/I-CUBE-HUAWEI/Middlewares/Third_Party/Huawei/iot_link/os/liteos/base/core\los_task.c ****     }
 3486              		.loc 1 1150 16 is_stmt 0 view .LVU1115
 3487 0158 0020     		movs	r0, #0
 3488              	.LBE255:
 3489              	.LBE258:
 3490              		.loc 1 1170 1 view .LVU1116
 3491 015a BDE8F88F 		pop	{r3, r4, r5, r6, r7, r8, r9, r10, fp, pc}
 3492              	.LVL247:
 3493              	.L230:
1089:D:/fchai/work/i-cube/I-CUBE-HUAWEI/Middlewares/Third_Party/Huawei/iot_link/os/liteos/base/core\los_task.c ****     uvIntSave = LOS_IntLock();
 3494              		.loc 1 1089 5 view .LVU1117
 3495 015e 0D48     		ldr	r0, .L249+28
 3496              	.LVL248:
 3497              		.loc 1 1170 1 view .LVU1118
 3498 0160 BDE8F88F 		pop	{r3, r4, r5, r6, r7, r8, r9, r10, fp, pc}
 3499              	.LVL249:
 3500              	.L231:
1089:D:/fchai/work/i-cube/I-CUBE-HUAWEI/Middlewares/Third_Party/Huawei/iot_link/os/liteos/base/core\los_task.c ****     uvIntSave = LOS_IntLock();
 3501              		.loc 1 1089 5 view .LVU1119
 3502 0164 0C48     		ldr	r0, .L249+32
 3503              	.LVL250:
 3504              		.loc 1 1170 1 view .LVU1120
 3505 0166 BDE8F88F 		pop	{r3, r4, r5, r6, r7, r8, r9, r10, fp, pc}
 3506              	.LVL251:
 3507              	.L244:
 3508              	.LBB259:
 3509              	.LBB256:
1105:D:/fchai/work/i-cube/I-CUBE-HUAWEI/Middlewares/Third_Party/Huawei/iot_link/os/liteos/base/core\los_task.c ****         OS_GOTO_ERREND();
ARM GAS  T:\msys\tmp\ccehPeV4.s 			page 101


 3510              		.loc 1 1105 9 is_stmt 1 view .LVU1121
1106:D:/fchai/work/i-cube/I-CUBE-HUAWEI/Middlewares/Third_Party/Huawei/iot_link/os/liteos/base/core\los_task.c ****     }
 3511              		.loc 1 1106 9 view .LVU1122
1106:D:/fchai/work/i-cube/I-CUBE-HUAWEI/Middlewares/Third_Party/Huawei/iot_link/os/liteos/base/core\los_task.c ****     }
 3512              		.loc 1 1106 9 view .LVU1123
 3513              	.LDL1:
1164:D:/fchai/work/i-cube/I-CUBE-HUAWEI/Middlewares/Third_Party/Huawei/iot_link/os/liteos/base/core\los_task.c ****     return uwErrRet;
 3514              		.loc 1 1164 5 view .LVU1124
 3515 016a 3846     		mov	r0, r7
 3516              	.LVL252:
1164:D:/fchai/work/i-cube/I-CUBE-HUAWEI/Middlewares/Third_Party/Huawei/iot_link/os/liteos/base/core\los_task.c ****     return uwErrRet;
 3517              		.loc 1 1164 5 is_stmt 0 view .LVU1125
 3518 016c FFF7FEFF 		bl	LOS_IntRestore
 3519              	.LVL253:
1165:D:/fchai/work/i-cube/I-CUBE-HUAWEI/Middlewares/Third_Party/Huawei/iot_link/os/liteos/base/core\los_task.c **** #else
 3520              		.loc 1 1165 5 is_stmt 1 view .LVU1126
1165:D:/fchai/work/i-cube/I-CUBE-HUAWEI/Middlewares/Third_Party/Huawei/iot_link/os/liteos/base/core\los_task.c **** #else
 3521              		.loc 1 1165 12 is_stmt 0 view .LVU1127
 3522 0170 0A48     		ldr	r0, .L249+36
 3523 0172 B1E7     		b	.L219
 3524              	.LVL254:
 3525              	.L233:
 3526              	.LBB253:
 3527              	.LBB223:
 621:D:/fchai/work/i-cube/I-CUBE-HUAWEI/Middlewares/Third_Party/Huawei/iot_link/os/liteos/base/core\los_task.c ****     }
 3528              		.loc 1 621 16 view .LVU1128
 3529 0174 054B     		ldr	r3, .L249+20
 3530 0176 61E7     		b	.L221
 3531              	.L250:
 3532              		.align	2
 3533              	.L249:
 3534 0178 00000000 		.word	g_uwIdleTaskID
 3535 017c 00000000 		.word	g_uwSwtmrTaskID
 3536 0180 00000000 		.word	g_usLosTaskLock
 3537 0184 00000000 		.word	g_stLosFreeTask
 3538 0188 00000000 		.word	m_aucSysMem0
 3539 018c 07020002 		.word	33554951
 3540 0190 00000000 		.word	g_stTskRecyleList
 3541 0194 14020002 		.word	33554964
 3542 0198 21020002 		.word	33554977
 3543 019c 0A020002 		.word	33554954
 3544 01a0 00000000 		.word	g_uwTskMaxNum
 3545 01a4 00000000 		.word	g_stLosTask
 3546 01a8 00000000 		.word	g_pstTaskCBArray
 3547              	.LBE223:
 3548              	.LBE253:
 3549              	.LBE256:
 3550              	.LBE259:
 3551              		.cfi_endproc
 3552              	.LFE153:
 3554              		.section	.text.osTaskEntry,"ax",%progbits
 3555              		.align	1
 3556              		.p2align 2,,3
 3557              		.global	osTaskEntry
 3558              		.syntax unified
 3559              		.thumb
 3560              		.thumb_func
ARM GAS  T:\msys\tmp\ccehPeV4.s 			page 102


 3561              		.fpu fpv4-sp-d16
 3563              	osTaskEntry:
 3564              	.LVL255:
 3565              	.LFB148:
 728:D:/fchai/work/i-cube/I-CUBE-HUAWEI/Middlewares/Third_Party/Huawei/iot_link/os/liteos/base/core\los_task.c ****     LOS_TASK_CB *pstTaskCB;
 3566              		.loc 1 728 1 is_stmt 1 view -0
 3567              		.cfi_startproc
 3568              		@ args = 0, pretend = 0, frame = 0
 3569              		@ frame_needed = 0, uses_anonymous_args = 0
 729:D:/fchai/work/i-cube/I-CUBE-HUAWEI/Middlewares/Third_Party/Huawei/iot_link/os/liteos/base/core\los_task.c **** 
 3570              		.loc 1 729 5 view .LVU1130
 731:D:/fchai/work/i-cube/I-CUBE-HUAWEI/Middlewares/Third_Party/Huawei/iot_link/os/liteos/base/core\los_task.c **** 
 3571              		.loc 1 731 31 view .LVU1131
 733:D:/fchai/work/i-cube/I-CUBE-HUAWEI/Middlewares/Third_Party/Huawei/iot_link/os/liteos/base/core\los_task.c **** 
 3572              		.loc 1 733 5 view .LVU1132
 733:D:/fchai/work/i-cube/I-CUBE-HUAWEI/Middlewares/Third_Party/Huawei/iot_link/os/liteos/base/core\los_task.c **** 
 3573              		.loc 1 733 17 is_stmt 0 view .LVU1133
 3574 0000 064B     		ldr	r3, .L253
 728:D:/fchai/work/i-cube/I-CUBE-HUAWEI/Middlewares/Third_Party/Huawei/iot_link/os/liteos/base/core\los_task.c ****     LOS_TASK_CB *pstTaskCB;
 3575              		.loc 1 728 1 view .LVU1134
 3576 0002 10B5     		push	{r4, lr}
 3577              	.LCFI42:
 3578              		.cfi_def_cfa_offset 8
 3579              		.cfi_offset 4, -8
 3580              		.cfi_offset 14, -4
 733:D:/fchai/work/i-cube/I-CUBE-HUAWEI/Middlewares/Third_Party/Huawei/iot_link/os/liteos/base/core\los_task.c **** 
 3581              		.loc 1 733 15 view .LVU1135
 3582 0004 1C68     		ldr	r4, [r3]
 733:D:/fchai/work/i-cube/I-CUBE-HUAWEI/Middlewares/Third_Party/Huawei/iot_link/os/liteos/base/core\los_task.c **** 
 3583              		.loc 1 733 17 view .LVU1136
 3584 0006 5423     		movs	r3, #84
 733:D:/fchai/work/i-cube/I-CUBE-HUAWEI/Middlewares/Third_Party/Huawei/iot_link/os/liteos/base/core\los_task.c **** 
 3585              		.loc 1 733 15 view .LVU1137
 3586 0008 03FB0044 		mla	r4, r3, r0, r4
 3587              	.LVL256:
 735:D:/fchai/work/i-cube/I-CUBE-HUAWEI/Middlewares/Third_Party/Huawei/iot_link/os/liteos/base/core\los_task.c **** 
 3588              		.loc 1 735 5 is_stmt 1 view .LVU1138
 735:D:/fchai/work/i-cube/I-CUBE-HUAWEI/Middlewares/Third_Party/Huawei/iot_link/os/liteos/base/core\los_task.c **** 
 3589              		.loc 1 735 11 is_stmt 0 view .LVU1139
 3590 000c 6369     		ldr	r3, [r4, #20]
 3591 000e 206A     		ldr	r0, [r4, #32]
 3592              	.LVL257:
 735:D:/fchai/work/i-cube/I-CUBE-HUAWEI/Middlewares/Third_Party/Huawei/iot_link/os/liteos/base/core\los_task.c **** 
 3593              		.loc 1 735 11 view .LVU1140
 3594 0010 9847     		blx	r3
 3595              	.LVL258:
 737:D:/fchai/work/i-cube/I-CUBE-HUAWEI/Middlewares/Third_Party/Huawei/iot_link/os/liteos/base/core\los_task.c **** }
 3596              		.loc 1 737 5 is_stmt 1 view .LVU1141
 737:D:/fchai/work/i-cube/I-CUBE-HUAWEI/Middlewares/Third_Party/Huawei/iot_link/os/liteos/base/core\los_task.c **** }
 3597              		.loc 1 737 11 is_stmt 0 view .LVU1142
 3598 0012 2069     		ldr	r0, [r4, #16]
 738:D:/fchai/work/i-cube/I-CUBE-HUAWEI/Middlewares/Third_Party/Huawei/iot_link/os/liteos/base/core\los_task.c **** 
 3599              		.loc 1 738 1 view .LVU1143
 3600 0014 BDE81040 		pop	{r4, lr}
 3601              	.LCFI43:
 3602              		.cfi_restore 14
 3603              		.cfi_restore 4
ARM GAS  T:\msys\tmp\ccehPeV4.s 			page 103


 3604              		.cfi_def_cfa_offset 0
 3605              	.LVL259:
 737:D:/fchai/work/i-cube/I-CUBE-HUAWEI/Middlewares/Third_Party/Huawei/iot_link/os/liteos/base/core\los_task.c **** }
 3606              		.loc 1 737 11 view .LVU1144
 3607 0018 FFF7FEBF 		b	LOS_TaskDelete
 3608              	.LVL260:
 3609              	.L254:
 3610              		.align	2
 3611              	.L253:
 3612 001c 00000000 		.word	g_pstTaskCBArray
 3613              		.cfi_endproc
 3614              	.LFE148:
 3616              		.section	.text.LOS_TaskPriGet,"ax",%progbits
 3617              		.align	1
 3618              		.p2align 2,,3
 3619              		.global	LOS_TaskPriGet
 3620              		.syntax unified
 3621              		.thumb
 3622              		.thumb_func
 3623              		.fpu fpv4-sp-d16
 3625              	LOS_TaskPriGet:
 3626              	.LVL261:
 3627              	.LFB155:
1171:D:/fchai/work/i-cube/I-CUBE-HUAWEI/Middlewares/Third_Party/Huawei/iot_link/os/liteos/base/core\los_task.c **** 
1172:D:/fchai/work/i-cube/I-CUBE-HUAWEI/Middlewares/Third_Party/Huawei/iot_link/os/liteos/base/core\los_task.c **** /*****************************************************************************
1173:D:/fchai/work/i-cube/I-CUBE-HUAWEI/Middlewares/Third_Party/Huawei/iot_link/os/liteos/base/core\los_task.c ****  Function : LOS_TaskDelay
1174:D:/fchai/work/i-cube/I-CUBE-HUAWEI/Middlewares/Third_Party/Huawei/iot_link/os/liteos/base/core\los_task.c ****  Description : delay the current task
1175:D:/fchai/work/i-cube/I-CUBE-HUAWEI/Middlewares/Third_Party/Huawei/iot_link/os/liteos/base/core\los_task.c ****  Input       : uwTick    --- time
1176:D:/fchai/work/i-cube/I-CUBE-HUAWEI/Middlewares/Third_Party/Huawei/iot_link/os/liteos/base/core\los_task.c ****  Output      :None
1177:D:/fchai/work/i-cube/I-CUBE-HUAWEI/Middlewares/Third_Party/Huawei/iot_link/os/liteos/base/core\los_task.c ****  Return      : LOS_OK on success or error code on failure
1178:D:/fchai/work/i-cube/I-CUBE-HUAWEI/Middlewares/Third_Party/Huawei/iot_link/os/liteos/base/core\los_task.c ****  *****************************************************************************/
1179:D:/fchai/work/i-cube/I-CUBE-HUAWEI/Middlewares/Third_Party/Huawei/iot_link/os/liteos/base/core\los_task.c **** LITE_OS_SEC_TEXT UINT32 LOS_TaskDelay(UINT32 uwTick)
1180:D:/fchai/work/i-cube/I-CUBE-HUAWEI/Middlewares/Third_Party/Huawei/iot_link/os/liteos/base/core\los_task.c **** {
1181:D:/fchai/work/i-cube/I-CUBE-HUAWEI/Middlewares/Third_Party/Huawei/iot_link/os/liteos/base/core\los_task.c ****     UINTPTR uvIntSave;
1182:D:/fchai/work/i-cube/I-CUBE-HUAWEI/Middlewares/Third_Party/Huawei/iot_link/os/liteos/base/core\los_task.c **** 
1183:D:/fchai/work/i-cube/I-CUBE-HUAWEI/Middlewares/Third_Party/Huawei/iot_link/os/liteos/base/core\los_task.c ****     if (OS_INT_ACTIVE)
1184:D:/fchai/work/i-cube/I-CUBE-HUAWEI/Middlewares/Third_Party/Huawei/iot_link/os/liteos/base/core\los_task.c ****     {
1185:D:/fchai/work/i-cube/I-CUBE-HUAWEI/Middlewares/Third_Party/Huawei/iot_link/os/liteos/base/core\los_task.c ****         return LOS_ERRNO_TSK_DELAY_IN_INT;
1186:D:/fchai/work/i-cube/I-CUBE-HUAWEI/Middlewares/Third_Party/Huawei/iot_link/os/liteos/base/core\los_task.c ****     }
1187:D:/fchai/work/i-cube/I-CUBE-HUAWEI/Middlewares/Third_Party/Huawei/iot_link/os/liteos/base/core\los_task.c **** 
1188:D:/fchai/work/i-cube/I-CUBE-HUAWEI/Middlewares/Third_Party/Huawei/iot_link/os/liteos/base/core\los_task.c ****     if (g_usLosTaskLock != 0)
1189:D:/fchai/work/i-cube/I-CUBE-HUAWEI/Middlewares/Third_Party/Huawei/iot_link/os/liteos/base/core\los_task.c ****     {
1190:D:/fchai/work/i-cube/I-CUBE-HUAWEI/Middlewares/Third_Party/Huawei/iot_link/os/liteos/base/core\los_task.c ****         return LOS_ERRNO_TSK_DELAY_IN_LOCK;
1191:D:/fchai/work/i-cube/I-CUBE-HUAWEI/Middlewares/Third_Party/Huawei/iot_link/os/liteos/base/core\los_task.c ****     }
1192:D:/fchai/work/i-cube/I-CUBE-HUAWEI/Middlewares/Third_Party/Huawei/iot_link/os/liteos/base/core\los_task.c **** 
1193:D:/fchai/work/i-cube/I-CUBE-HUAWEI/Middlewares/Third_Party/Huawei/iot_link/os/liteos/base/core\los_task.c ****     if (uwTick == 0)
1194:D:/fchai/work/i-cube/I-CUBE-HUAWEI/Middlewares/Third_Party/Huawei/iot_link/os/liteos/base/core\los_task.c ****     {
1195:D:/fchai/work/i-cube/I-CUBE-HUAWEI/Middlewares/Third_Party/Huawei/iot_link/os/liteos/base/core\los_task.c ****         return LOS_TaskYield();
1196:D:/fchai/work/i-cube/I-CUBE-HUAWEI/Middlewares/Third_Party/Huawei/iot_link/os/liteos/base/core\los_task.c ****     }
1197:D:/fchai/work/i-cube/I-CUBE-HUAWEI/Middlewares/Third_Party/Huawei/iot_link/os/liteos/base/core\los_task.c ****     else
1198:D:/fchai/work/i-cube/I-CUBE-HUAWEI/Middlewares/Third_Party/Huawei/iot_link/os/liteos/base/core\los_task.c ****     {
1199:D:/fchai/work/i-cube/I-CUBE-HUAWEI/Middlewares/Third_Party/Huawei/iot_link/os/liteos/base/core\los_task.c ****         uvIntSave = LOS_IntLock();
1200:D:/fchai/work/i-cube/I-CUBE-HUAWEI/Middlewares/Third_Party/Huawei/iot_link/os/liteos/base/core\los_task.c ****         osPriqueueDequeue(&(g_stLosTask.pstRunTask->stPendList));
1201:D:/fchai/work/i-cube/I-CUBE-HUAWEI/Middlewares/Third_Party/Huawei/iot_link/os/liteos/base/core\los_task.c ****         g_stLosTask.pstRunTask->usTaskStatus &= (~OS_TASK_STATUS_READY);
1202:D:/fchai/work/i-cube/I-CUBE-HUAWEI/Middlewares/Third_Party/Huawei/iot_link/os/liteos/base/core\los_task.c ****         osTaskAdd2TimerList((LOS_TASK_CB *)g_stLosTask.pstRunTask, uwTick);
1203:D:/fchai/work/i-cube/I-CUBE-HUAWEI/Middlewares/Third_Party/Huawei/iot_link/os/liteos/base/core\los_task.c ****         g_stLosTask.pstRunTask->usTaskStatus |= OS_TASK_STATUS_DELAY;
1204:D:/fchai/work/i-cube/I-CUBE-HUAWEI/Middlewares/Third_Party/Huawei/iot_link/os/liteos/base/core\los_task.c ****         (VOID)LOS_IntRestore(uvIntSave);
ARM GAS  T:\msys\tmp\ccehPeV4.s 			page 104


1205:D:/fchai/work/i-cube/I-CUBE-HUAWEI/Middlewares/Third_Party/Huawei/iot_link/os/liteos/base/core\los_task.c ****         LOS_Schedule();
1206:D:/fchai/work/i-cube/I-CUBE-HUAWEI/Middlewares/Third_Party/Huawei/iot_link/os/liteos/base/core\los_task.c ****     }
1207:D:/fchai/work/i-cube/I-CUBE-HUAWEI/Middlewares/Third_Party/Huawei/iot_link/os/liteos/base/core\los_task.c **** 
1208:D:/fchai/work/i-cube/I-CUBE-HUAWEI/Middlewares/Third_Party/Huawei/iot_link/os/liteos/base/core\los_task.c ****     return LOS_OK;
1209:D:/fchai/work/i-cube/I-CUBE-HUAWEI/Middlewares/Third_Party/Huawei/iot_link/os/liteos/base/core\los_task.c **** }
1210:D:/fchai/work/i-cube/I-CUBE-HUAWEI/Middlewares/Third_Party/Huawei/iot_link/os/liteos/base/core\los_task.c **** 
1211:D:/fchai/work/i-cube/I-CUBE-HUAWEI/Middlewares/Third_Party/Huawei/iot_link/os/liteos/base/core\los_task.c **** /*****************************************************************************
1212:D:/fchai/work/i-cube/I-CUBE-HUAWEI/Middlewares/Third_Party/Huawei/iot_link/os/liteos/base/core\los_task.c ****  Function : LOS_TaskPriGet
1213:D:/fchai/work/i-cube/I-CUBE-HUAWEI/Middlewares/Third_Party/Huawei/iot_link/os/liteos/base/core\los_task.c ****  Description : Get the priority of the task
1214:D:/fchai/work/i-cube/I-CUBE-HUAWEI/Middlewares/Third_Party/Huawei/iot_link/os/liteos/base/core\los_task.c ****  Input       : uwTaskID
1215:D:/fchai/work/i-cube/I-CUBE-HUAWEI/Middlewares/Third_Party/Huawei/iot_link/os/liteos/base/core\los_task.c ****  Output      : None
1216:D:/fchai/work/i-cube/I-CUBE-HUAWEI/Middlewares/Third_Party/Huawei/iot_link/os/liteos/base/core\los_task.c ****  Return      : TSK_PRIOR_T on success or OS_INVALID on failure
1217:D:/fchai/work/i-cube/I-CUBE-HUAWEI/Middlewares/Third_Party/Huawei/iot_link/os/liteos/base/core\los_task.c ****  *****************************************************************************/
1218:D:/fchai/work/i-cube/I-CUBE-HUAWEI/Middlewares/Third_Party/Huawei/iot_link/os/liteos/base/core\los_task.c **** LITE_OS_SEC_TEXT_MINOR UINT16 LOS_TaskPriGet(UINT32 uwTaskID)
1219:D:/fchai/work/i-cube/I-CUBE-HUAWEI/Middlewares/Third_Party/Huawei/iot_link/os/liteos/base/core\los_task.c **** {
 3628              		.loc 1 1219 1 is_stmt 1 view -0
 3629              		.cfi_startproc
 3630              		@ args = 0, pretend = 0, frame = 0
 3631              		@ frame_needed = 0, uses_anonymous_args = 0
1220:D:/fchai/work/i-cube/I-CUBE-HUAWEI/Middlewares/Third_Party/Huawei/iot_link/os/liteos/base/core\los_task.c ****     UINTPTR uvIntSave;
 3632              		.loc 1 1220 5 view .LVU1146
1221:D:/fchai/work/i-cube/I-CUBE-HUAWEI/Middlewares/Third_Party/Huawei/iot_link/os/liteos/base/core\los_task.c ****     LOS_TASK_CB *pstTaskCB;
 3633              		.loc 1 1221 5 view .LVU1147
1222:D:/fchai/work/i-cube/I-CUBE-HUAWEI/Middlewares/Third_Party/Huawei/iot_link/os/liteos/base/core\los_task.c ****     UINT16 usPriority;
 3634              		.loc 1 1222 5 view .LVU1148
1223:D:/fchai/work/i-cube/I-CUBE-HUAWEI/Middlewares/Third_Party/Huawei/iot_link/os/liteos/base/core\los_task.c **** 
1224:D:/fchai/work/i-cube/I-CUBE-HUAWEI/Middlewares/Third_Party/Huawei/iot_link/os/liteos/base/core\los_task.c ****     if (OS_CHECK_TSK_PID_NOIDLE(uwTaskID))
 3635              		.loc 1 1224 5 view .LVU1149
 3636              		.loc 1 1224 9 is_stmt 0 view .LVU1150
 3637 0000 0E4B     		ldr	r3, .L261
 3638              		.loc 1 1224 8 view .LVU1151
 3639 0002 1B68     		ldr	r3, [r3]
 3640 0004 8342     		cmp	r3, r0
1219:D:/fchai/work/i-cube/I-CUBE-HUAWEI/Middlewares/Third_Party/Huawei/iot_link/os/liteos/base/core\los_task.c ****     UINTPTR uvIntSave;
 3641              		.loc 1 1219 1 view .LVU1152
 3642 0006 10B5     		push	{r4, lr}
 3643              	.LCFI44:
 3644              		.cfi_def_cfa_offset 8
 3645              		.cfi_offset 4, -8
 3646              		.cfi_offset 14, -4
 3647              		.loc 1 1224 8 view .LVU1153
 3648 0008 0ED9     		bls	.L258
1225:D:/fchai/work/i-cube/I-CUBE-HUAWEI/Middlewares/Third_Party/Huawei/iot_link/os/liteos/base/core\los_task.c ****     {
1226:D:/fchai/work/i-cube/I-CUBE-HUAWEI/Middlewares/Third_Party/Huawei/iot_link/os/liteos/base/core\los_task.c ****        return (UINT16)OS_INVALID;
1227:D:/fchai/work/i-cube/I-CUBE-HUAWEI/Middlewares/Third_Party/Huawei/iot_link/os/liteos/base/core\los_task.c ****     }
1228:D:/fchai/work/i-cube/I-CUBE-HUAWEI/Middlewares/Third_Party/Huawei/iot_link/os/liteos/base/core\los_task.c **** 
1229:D:/fchai/work/i-cube/I-CUBE-HUAWEI/Middlewares/Third_Party/Huawei/iot_link/os/liteos/base/core\los_task.c ****     pstTaskCB = OS_TCB_FROM_TID(uwTaskID);
 3649              		.loc 1 1229 5 is_stmt 1 view .LVU1154
 3650              		.loc 1 1229 17 is_stmt 0 view .LVU1155
 3651 000a 0D4B     		ldr	r3, .L261+4
 3652              		.loc 1 1229 15 view .LVU1156
 3653 000c 1C68     		ldr	r4, [r3]
 3654              		.loc 1 1229 17 view .LVU1157
 3655 000e 5423     		movs	r3, #84
 3656              		.loc 1 1229 15 view .LVU1158
 3657 0010 03FB0044 		mla	r4, r3, r0, r4
 3658              	.LVL262:
ARM GAS  T:\msys\tmp\ccehPeV4.s 			page 105


1230:D:/fchai/work/i-cube/I-CUBE-HUAWEI/Middlewares/Third_Party/Huawei/iot_link/os/liteos/base/core\los_task.c **** 
1231:D:/fchai/work/i-cube/I-CUBE-HUAWEI/Middlewares/Third_Party/Huawei/iot_link/os/liteos/base/core\los_task.c ****     uvIntSave = LOS_IntLock();
 3659              		.loc 1 1231 5 is_stmt 1 view .LVU1159
 3660              		.loc 1 1231 17 is_stmt 0 view .LVU1160
 3661 0014 FFF7FEFF 		bl	LOS_IntLock
 3662              	.LVL263:
1232:D:/fchai/work/i-cube/I-CUBE-HUAWEI/Middlewares/Third_Party/Huawei/iot_link/os/liteos/base/core\los_task.c **** 
1233:D:/fchai/work/i-cube/I-CUBE-HUAWEI/Middlewares/Third_Party/Huawei/iot_link/os/liteos/base/core\los_task.c ****     if (OS_TASK_STATUS_UNUSED & pstTaskCB->usTaskStatus)
 3663              		.loc 1 1233 5 is_stmt 1 view .LVU1161
 3664              		.loc 1 1233 9 is_stmt 0 view .LVU1162
 3665 0018 A388     		ldrh	r3, [r4, #4]
 3666              		.loc 1 1233 8 view .LVU1163
 3667 001a DB07     		lsls	r3, r3, #31
 3668 001c 08D4     		bmi	.L260
1234:D:/fchai/work/i-cube/I-CUBE-HUAWEI/Middlewares/Third_Party/Huawei/iot_link/os/liteos/base/core\los_task.c ****     {
1235:D:/fchai/work/i-cube/I-CUBE-HUAWEI/Middlewares/Third_Party/Huawei/iot_link/os/liteos/base/core\los_task.c ****         (VOID)LOS_IntRestore(uvIntSave);
1236:D:/fchai/work/i-cube/I-CUBE-HUAWEI/Middlewares/Third_Party/Huawei/iot_link/os/liteos/base/core\los_task.c ****         return (UINT16)OS_INVALID;
1237:D:/fchai/work/i-cube/I-CUBE-HUAWEI/Middlewares/Third_Party/Huawei/iot_link/os/liteos/base/core\los_task.c ****     }
1238:D:/fchai/work/i-cube/I-CUBE-HUAWEI/Middlewares/Third_Party/Huawei/iot_link/os/liteos/base/core\los_task.c **** 
1239:D:/fchai/work/i-cube/I-CUBE-HUAWEI/Middlewares/Third_Party/Huawei/iot_link/os/liteos/base/core\los_task.c ****     usPriority = pstTaskCB->usPriority;
 3669              		.loc 1 1239 5 is_stmt 1 view .LVU1164
 3670              		.loc 1 1239 16 is_stmt 0 view .LVU1165
 3671 001e E488     		ldrh	r4, [r4, #6]
 3672              	.LVL264:
1240:D:/fchai/work/i-cube/I-CUBE-HUAWEI/Middlewares/Third_Party/Huawei/iot_link/os/liteos/base/core\los_task.c ****     (VOID)LOS_IntRestore(uvIntSave);
 3673              		.loc 1 1240 5 is_stmt 1 view .LVU1166
 3674 0020 FFF7FEFF 		bl	LOS_IntRestore
 3675              	.LVL265:
1241:D:/fchai/work/i-cube/I-CUBE-HUAWEI/Middlewares/Third_Party/Huawei/iot_link/os/liteos/base/core\los_task.c ****     return usPriority;
 3676              		.loc 1 1241 5 view .LVU1167
1242:D:/fchai/work/i-cube/I-CUBE-HUAWEI/Middlewares/Third_Party/Huawei/iot_link/os/liteos/base/core\los_task.c **** }
 3677              		.loc 1 1242 1 is_stmt 0 view .LVU1168
 3678 0024 2046     		mov	r0, r4
 3679 0026 10BD     		pop	{r4, pc}
 3680              	.LVL266:
 3681              	.L258:
1226:D:/fchai/work/i-cube/I-CUBE-HUAWEI/Middlewares/Third_Party/Huawei/iot_link/os/liteos/base/core\los_task.c ****     }
 3682              		.loc 1 1226 15 view .LVU1169
 3683 0028 4FF6FF74 		movw	r4, #65535
 3684              		.loc 1 1242 1 view .LVU1170
 3685 002c 2046     		mov	r0, r4
 3686              	.LVL267:
 3687              		.loc 1 1242 1 view .LVU1171
 3688 002e 10BD     		pop	{r4, pc}
 3689              	.LVL268:
 3690              	.L260:
1235:D:/fchai/work/i-cube/I-CUBE-HUAWEI/Middlewares/Third_Party/Huawei/iot_link/os/liteos/base/core\los_task.c ****         return (UINT16)OS_INVALID;
 3691              		.loc 1 1235 9 is_stmt 1 view .LVU1172
1236:D:/fchai/work/i-cube/I-CUBE-HUAWEI/Middlewares/Third_Party/Huawei/iot_link/os/liteos/base/core\los_task.c ****     }
 3692              		.loc 1 1236 16 is_stmt 0 view .LVU1173
 3693 0030 4FF6FF74 		movw	r4, #65535
 3694              	.LVL269:
1235:D:/fchai/work/i-cube/I-CUBE-HUAWEI/Middlewares/Third_Party/Huawei/iot_link/os/liteos/base/core\los_task.c ****         return (UINT16)OS_INVALID;
 3695              		.loc 1 1235 9 view .LVU1174
 3696 0034 FFF7FEFF 		bl	LOS_IntRestore
 3697              	.LVL270:
1236:D:/fchai/work/i-cube/I-CUBE-HUAWEI/Middlewares/Third_Party/Huawei/iot_link/os/liteos/base/core\los_task.c ****     }
ARM GAS  T:\msys\tmp\ccehPeV4.s 			page 106


 3698              		.loc 1 1236 9 is_stmt 1 view .LVU1175
 3699              		.loc 1 1242 1 is_stmt 0 view .LVU1176
 3700 0038 2046     		mov	r0, r4
 3701 003a 10BD     		pop	{r4, pc}
 3702              	.L262:
 3703              		.align	2
 3704              	.L261:
 3705 003c 00000000 		.word	g_uwTskMaxNum
 3706 0040 00000000 		.word	g_pstTaskCBArray
 3707              		.cfi_endproc
 3708              	.LFE155:
 3710              		.section	.text.LOS_TaskPriSet,"ax",%progbits
 3711              		.align	1
 3712              		.p2align 2,,3
 3713              		.global	LOS_TaskPriSet
 3714              		.syntax unified
 3715              		.thumb
 3716              		.thumb_func
 3717              		.fpu fpv4-sp-d16
 3719              	LOS_TaskPriSet:
 3720              	.LVL271:
 3721              	.LFB156:
1243:D:/fchai/work/i-cube/I-CUBE-HUAWEI/Middlewares/Third_Party/Huawei/iot_link/os/liteos/base/core\los_task.c **** 
1244:D:/fchai/work/i-cube/I-CUBE-HUAWEI/Middlewares/Third_Party/Huawei/iot_link/os/liteos/base/core\los_task.c **** /*****************************************************************************
1245:D:/fchai/work/i-cube/I-CUBE-HUAWEI/Middlewares/Third_Party/Huawei/iot_link/os/liteos/base/core\los_task.c ****  Function : LOS_TaskPriSet
1246:D:/fchai/work/i-cube/I-CUBE-HUAWEI/Middlewares/Third_Party/Huawei/iot_link/os/liteos/base/core\los_task.c ****  Description : Set the priority of the task
1247:D:/fchai/work/i-cube/I-CUBE-HUAWEI/Middlewares/Third_Party/Huawei/iot_link/os/liteos/base/core\los_task.c ****  Input       : uwTaskID
1248:D:/fchai/work/i-cube/I-CUBE-HUAWEI/Middlewares/Third_Party/Huawei/iot_link/os/liteos/base/core\los_task.c ****                usTaskPrio
1249:D:/fchai/work/i-cube/I-CUBE-HUAWEI/Middlewares/Third_Party/Huawei/iot_link/os/liteos/base/core\los_task.c ****  Output      : None
1250:D:/fchai/work/i-cube/I-CUBE-HUAWEI/Middlewares/Third_Party/Huawei/iot_link/os/liteos/base/core\los_task.c ****  Return      : None
1251:D:/fchai/work/i-cube/I-CUBE-HUAWEI/Middlewares/Third_Party/Huawei/iot_link/os/liteos/base/core\los_task.c ****  *****************************************************************************/
1252:D:/fchai/work/i-cube/I-CUBE-HUAWEI/Middlewares/Third_Party/Huawei/iot_link/os/liteos/base/core\los_task.c **** LITE_OS_SEC_TEXT_MINOR UINT32 LOS_TaskPriSet(UINT32 uwTaskID, UINT16 usTaskPrio)
1253:D:/fchai/work/i-cube/I-CUBE-HUAWEI/Middlewares/Third_Party/Huawei/iot_link/os/liteos/base/core\los_task.c **** {
 3722              		.loc 1 1253 1 is_stmt 1 view -0
 3723              		.cfi_startproc
 3724              		@ args = 0, pretend = 0, frame = 8
 3725              		@ frame_needed = 0, uses_anonymous_args = 0
1254:D:/fchai/work/i-cube/I-CUBE-HUAWEI/Middlewares/Third_Party/Huawei/iot_link/os/liteos/base/core\los_task.c ****     BOOL   bIsReady;
 3726              		.loc 1 1254 5 view .LVU1178
1255:D:/fchai/work/i-cube/I-CUBE-HUAWEI/Middlewares/Third_Party/Huawei/iot_link/os/liteos/base/core\los_task.c ****     UINTPTR uvIntSave;
 3727              		.loc 1 1255 5 view .LVU1179
1256:D:/fchai/work/i-cube/I-CUBE-HUAWEI/Middlewares/Third_Party/Huawei/iot_link/os/liteos/base/core\los_task.c ****     LOS_TASK_CB *pstTaskCB;
 3728              		.loc 1 1256 5 view .LVU1180
1257:D:/fchai/work/i-cube/I-CUBE-HUAWEI/Middlewares/Third_Party/Huawei/iot_link/os/liteos/base/core\los_task.c ****     UINT16 usTempStatus;
 3729              		.loc 1 1257 5 view .LVU1181
1258:D:/fchai/work/i-cube/I-CUBE-HUAWEI/Middlewares/Third_Party/Huawei/iot_link/os/liteos/base/core\los_task.c **** 
1259:D:/fchai/work/i-cube/I-CUBE-HUAWEI/Middlewares/Third_Party/Huawei/iot_link/os/liteos/base/core\los_task.c ****     if (usTaskPrio > OS_TASK_PRIORITY_LOWEST)
 3730              		.loc 1 1259 5 view .LVU1182
 3731              		.loc 1 1259 8 is_stmt 0 view .LVU1183
 3732 0000 1F29     		cmp	r1, #31
 3733 0002 27D8     		bhi	.L267
1260:D:/fchai/work/i-cube/I-CUBE-HUAWEI/Middlewares/Third_Party/Huawei/iot_link/os/liteos/base/core\los_task.c ****     {
1261:D:/fchai/work/i-cube/I-CUBE-HUAWEI/Middlewares/Third_Party/Huawei/iot_link/os/liteos/base/core\los_task.c ****         return LOS_ERRNO_TSK_PRIOR_ERROR;
1262:D:/fchai/work/i-cube/I-CUBE-HUAWEI/Middlewares/Third_Party/Huawei/iot_link/os/liteos/base/core\los_task.c ****     }
1263:D:/fchai/work/i-cube/I-CUBE-HUAWEI/Middlewares/Third_Party/Huawei/iot_link/os/liteos/base/core\los_task.c **** 
1264:D:/fchai/work/i-cube/I-CUBE-HUAWEI/Middlewares/Third_Party/Huawei/iot_link/os/liteos/base/core\los_task.c ****     if (uwTaskID == g_uwIdleTaskID)
 3734              		.loc 1 1264 5 is_stmt 1 view .LVU1184
ARM GAS  T:\msys\tmp\ccehPeV4.s 			page 107


 3735              		.loc 1 1264 18 is_stmt 0 view .LVU1185
 3736 0004 244B     		ldr	r3, .L277
 3737              		.loc 1 1264 8 view .LVU1186
 3738 0006 1B68     		ldr	r3, [r3]
 3739 0008 8342     		cmp	r3, r0
 3740 000a 3CD0     		beq	.L268
1265:D:/fchai/work/i-cube/I-CUBE-HUAWEI/Middlewares/Third_Party/Huawei/iot_link/os/liteos/base/core\los_task.c ****     {
1266:D:/fchai/work/i-cube/I-CUBE-HUAWEI/Middlewares/Third_Party/Huawei/iot_link/os/liteos/base/core\los_task.c ****         return LOS_ERRNO_TSK_OPERATE_IDLE;
1267:D:/fchai/work/i-cube/I-CUBE-HUAWEI/Middlewares/Third_Party/Huawei/iot_link/os/liteos/base/core\los_task.c ****     }
1268:D:/fchai/work/i-cube/I-CUBE-HUAWEI/Middlewares/Third_Party/Huawei/iot_link/os/liteos/base/core\los_task.c **** 
1269:D:/fchai/work/i-cube/I-CUBE-HUAWEI/Middlewares/Third_Party/Huawei/iot_link/os/liteos/base/core\los_task.c ****     if (uwTaskID == g_uwSwtmrTaskID)
 3741              		.loc 1 1269 5 is_stmt 1 view .LVU1187
 3742              		.loc 1 1269 18 is_stmt 0 view .LVU1188
 3743 000c 234B     		ldr	r3, .L277+4
 3744              		.loc 1 1269 8 view .LVU1189
 3745 000e 1B68     		ldr	r3, [r3]
 3746 0010 8342     		cmp	r3, r0
 3747 0012 3AD0     		beq	.L269
1270:D:/fchai/work/i-cube/I-CUBE-HUAWEI/Middlewares/Third_Party/Huawei/iot_link/os/liteos/base/core\los_task.c ****     {
1271:D:/fchai/work/i-cube/I-CUBE-HUAWEI/Middlewares/Third_Party/Huawei/iot_link/os/liteos/base/core\los_task.c ****         return LOS_ERRNO_TSK_OPERATE_SWTMR;
1272:D:/fchai/work/i-cube/I-CUBE-HUAWEI/Middlewares/Third_Party/Huawei/iot_link/os/liteos/base/core\los_task.c ****     }
1273:D:/fchai/work/i-cube/I-CUBE-HUAWEI/Middlewares/Third_Party/Huawei/iot_link/os/liteos/base/core\los_task.c **** 
1274:D:/fchai/work/i-cube/I-CUBE-HUAWEI/Middlewares/Third_Party/Huawei/iot_link/os/liteos/base/core\los_task.c ****     if (OS_CHECK_TSK_PID_NOIDLE(uwTaskID))
 3748              		.loc 1 1274 5 is_stmt 1 view .LVU1190
 3749              		.loc 1 1274 9 is_stmt 0 view .LVU1191
 3750 0014 224B     		ldr	r3, .L277+8
 3751              		.loc 1 1274 8 view .LVU1192
 3752 0016 1B68     		ldr	r3, [r3]
 3753 0018 8342     		cmp	r3, r0
 3754 001a 19D9     		bls	.L270
 3755              	.LVL272:
1253:D:/fchai/work/i-cube/I-CUBE-HUAWEI/Middlewares/Third_Party/Huawei/iot_link/os/liteos/base/core\los_task.c ****     BOOL   bIsReady;
 3756              		.loc 1 1253 1 view .LVU1193
 3757 001c 2DE9F041 		push	{r4, r5, r6, r7, r8, lr}
 3758              	.LCFI45:
 3759              		.cfi_def_cfa_offset 24
 3760              		.cfi_offset 4, -24
 3761              		.cfi_offset 5, -20
 3762              		.cfi_offset 6, -16
 3763              		.cfi_offset 7, -12
 3764              		.cfi_offset 8, -8
 3765              		.cfi_offset 14, -4
 3766              	.LBB262:
 3767              	.LBB263:
1275:D:/fchai/work/i-cube/I-CUBE-HUAWEI/Middlewares/Third_Party/Huawei/iot_link/os/liteos/base/core\los_task.c ****     {
1276:D:/fchai/work/i-cube/I-CUBE-HUAWEI/Middlewares/Third_Party/Huawei/iot_link/os/liteos/base/core\los_task.c ****         return LOS_ERRNO_TSK_ID_INVALID;
1277:D:/fchai/work/i-cube/I-CUBE-HUAWEI/Middlewares/Third_Party/Huawei/iot_link/os/liteos/base/core\los_task.c ****     }
1278:D:/fchai/work/i-cube/I-CUBE-HUAWEI/Middlewares/Third_Party/Huawei/iot_link/os/liteos/base/core\los_task.c **** 
1279:D:/fchai/work/i-cube/I-CUBE-HUAWEI/Middlewares/Third_Party/Huawei/iot_link/os/liteos/base/core\los_task.c ****     pstTaskCB = OS_TCB_FROM_TID(uwTaskID);
 3768              		.loc 1 1279 17 view .LVU1194
 3769 0020 204B     		ldr	r3, .L277+12
 3770              		.loc 1 1279 15 view .LVU1195
 3771 0022 1C68     		ldr	r4, [r3]
 3772              		.loc 1 1279 17 view .LVU1196
 3773 0024 5423     		movs	r3, #84
 3774              		.loc 1 1279 15 view .LVU1197
 3775 0026 03FB0044 		mla	r4, r3, r0, r4
ARM GAS  T:\msys\tmp\ccehPeV4.s 			page 108


 3776              	.LBE263:
 3777              	.LBE262:
1253:D:/fchai/work/i-cube/I-CUBE-HUAWEI/Middlewares/Third_Party/Huawei/iot_link/os/liteos/base/core\los_task.c ****     BOOL   bIsReady;
 3778              		.loc 1 1253 1 view .LVU1198
 3779 002a 82B0     		sub	sp, sp, #8
 3780              	.LCFI46:
 3781              		.cfi_def_cfa_offset 32
 3782 002c 0D46     		mov	r5, r1
 3783              	.LVL273:
 3784              	.LBB267:
 3785              	.LBI262:
1252:D:/fchai/work/i-cube/I-CUBE-HUAWEI/Middlewares/Third_Party/Huawei/iot_link/os/liteos/base/core\los_task.c **** {
 3786              		.loc 1 1252 31 is_stmt 1 view .LVU1199
 3787              	.LBB264:
 3788              		.loc 1 1279 5 view .LVU1200
1280:D:/fchai/work/i-cube/I-CUBE-HUAWEI/Middlewares/Third_Party/Huawei/iot_link/os/liteos/base/core\los_task.c ****     uvIntSave = LOS_IntLock();
 3789              		.loc 1 1280 5 view .LVU1201
 3790              		.loc 1 1280 17 is_stmt 0 view .LVU1202
 3791 002e FFF7FEFF 		bl	LOS_IntLock
 3792              	.LVL274:
1281:D:/fchai/work/i-cube/I-CUBE-HUAWEI/Middlewares/Third_Party/Huawei/iot_link/os/liteos/base/core\los_task.c ****     usTempStatus = pstTaskCB->usTaskStatus;
 3793              		.loc 1 1281 18 view .LVU1203
 3794 0032 A388     		ldrh	r3, [r4, #4]
1282:D:/fchai/work/i-cube/I-CUBE-HUAWEI/Middlewares/Third_Party/Huawei/iot_link/os/liteos/base/core\los_task.c ****     if (OS_TASK_STATUS_UNUSED & usTempStatus)
 3795              		.loc 1 1282 8 view .LVU1204
 3796 0034 13F00108 		ands	r8, r3, #1
1280:D:/fchai/work/i-cube/I-CUBE-HUAWEI/Middlewares/Third_Party/Huawei/iot_link/os/liteos/base/core\los_task.c ****     uvIntSave = LOS_IntLock();
 3797              		.loc 1 1280 17 view .LVU1205
 3798 0038 0746     		mov	r7, r0
 3799              	.LVL275:
1281:D:/fchai/work/i-cube/I-CUBE-HUAWEI/Middlewares/Third_Party/Huawei/iot_link/os/liteos/base/core\los_task.c ****     usTempStatus = pstTaskCB->usTaskStatus;
 3800              		.loc 1 1281 5 is_stmt 1 view .LVU1206
 3801              		.loc 1 1282 5 view .LVU1207
 3802              		.loc 1 1282 8 is_stmt 0 view .LVU1208
 3803 003a 28D1     		bne	.L275
1283:D:/fchai/work/i-cube/I-CUBE-HUAWEI/Middlewares/Third_Party/Huawei/iot_link/os/liteos/base/core\los_task.c ****     {
1284:D:/fchai/work/i-cube/I-CUBE-HUAWEI/Middlewares/Third_Party/Huawei/iot_link/os/liteos/base/core\los_task.c ****         (VOID)LOS_IntRestore(uvIntSave);
1285:D:/fchai/work/i-cube/I-CUBE-HUAWEI/Middlewares/Third_Party/Huawei/iot_link/os/liteos/base/core\los_task.c ****         return LOS_ERRNO_TSK_NOT_CREATED;
1286:D:/fchai/work/i-cube/I-CUBE-HUAWEI/Middlewares/Third_Party/Huawei/iot_link/os/liteos/base/core\los_task.c ****     }
1287:D:/fchai/work/i-cube/I-CUBE-HUAWEI/Middlewares/Third_Party/Huawei/iot_link/os/liteos/base/core\los_task.c ****     /* delete the task and insert with right priority into ready queue */
1288:D:/fchai/work/i-cube/I-CUBE-HUAWEI/Middlewares/Third_Party/Huawei/iot_link/os/liteos/base/core\los_task.c ****     bIsReady = (OS_TASK_STATUS_READY & usTempStatus);
 3804              		.loc 1 1288 5 is_stmt 1 view .LVU1209
 3805              	.LVL276:
1289:D:/fchai/work/i-cube/I-CUBE-HUAWEI/Middlewares/Third_Party/Huawei/iot_link/os/liteos/base/core\los_task.c ****     if (bIsReady)
 3806              		.loc 1 1289 5 view .LVU1210
 3807              		.loc 1 1289 8 is_stmt 0 view .LVU1211
 3808 003c 13F00406 		ands	r6, r3, #4
 3809 0040 0AD1     		bne	.L276
1290:D:/fchai/work/i-cube/I-CUBE-HUAWEI/Middlewares/Third_Party/Huawei/iot_link/os/liteos/base/core\los_task.c ****     {
1291:D:/fchai/work/i-cube/I-CUBE-HUAWEI/Middlewares/Third_Party/Huawei/iot_link/os/liteos/base/core\los_task.c ****         osPriqueueDequeue(&pstTaskCB->stPendList);
1292:D:/fchai/work/i-cube/I-CUBE-HUAWEI/Middlewares/Third_Party/Huawei/iot_link/os/liteos/base/core\los_task.c ****         pstTaskCB->usTaskStatus &= (~OS_TASK_STATUS_READY);
1293:D:/fchai/work/i-cube/I-CUBE-HUAWEI/Middlewares/Third_Party/Huawei/iot_link/os/liteos/base/core\los_task.c ****         pstTaskCB->usPriority = usTaskPrio;
1294:D:/fchai/work/i-cube/I-CUBE-HUAWEI/Middlewares/Third_Party/Huawei/iot_link/os/liteos/base/core\los_task.c ****         pstTaskCB->usTaskStatus |= OS_TASK_STATUS_READY;
1295:D:/fchai/work/i-cube/I-CUBE-HUAWEI/Middlewares/Third_Party/Huawei/iot_link/os/liteos/base/core\los_task.c ****         osPriqueueEnqueue(&pstTaskCB->stPendList, pstTaskCB->usPriority);
1296:D:/fchai/work/i-cube/I-CUBE-HUAWEI/Middlewares/Third_Party/Huawei/iot_link/os/liteos/base/core\los_task.c ****     }
1297:D:/fchai/work/i-cube/I-CUBE-HUAWEI/Middlewares/Third_Party/Huawei/iot_link/os/liteos/base/core\los_task.c ****     else
1298:D:/fchai/work/i-cube/I-CUBE-HUAWEI/Middlewares/Third_Party/Huawei/iot_link/os/liteos/base/core\los_task.c ****     {
ARM GAS  T:\msys\tmp\ccehPeV4.s 			page 109


1299:D:/fchai/work/i-cube/I-CUBE-HUAWEI/Middlewares/Third_Party/Huawei/iot_link/os/liteos/base/core\los_task.c ****         pstTaskCB->usPriority = usTaskPrio;
 3810              		.loc 1 1299 9 is_stmt 1 view .LVU1212
 3811              		.loc 1 1299 31 is_stmt 0 view .LVU1213
 3812 0042 E580     		strh	r5, [r4, #6]	@ movhi
1300:D:/fchai/work/i-cube/I-CUBE-HUAWEI/Middlewares/Third_Party/Huawei/iot_link/os/liteos/base/core\los_task.c ****     }
1301:D:/fchai/work/i-cube/I-CUBE-HUAWEI/Middlewares/Third_Party/Huawei/iot_link/os/liteos/base/core\los_task.c **** 
1302:D:/fchai/work/i-cube/I-CUBE-HUAWEI/Middlewares/Third_Party/Huawei/iot_link/os/liteos/base/core\los_task.c ****     (VOID)LOS_IntRestore(uvIntSave);
 3813              		.loc 1 1302 5 is_stmt 1 view .LVU1214
 3814 0044 FFF7FEFF 		bl	LOS_IntRestore
 3815              	.LVL277:
1303:D:/fchai/work/i-cube/I-CUBE-HUAWEI/Middlewares/Third_Party/Huawei/iot_link/os/liteos/base/core\los_task.c ****     /* delete the task and insert with right priority into ready queue */
1304:D:/fchai/work/i-cube/I-CUBE-HUAWEI/Middlewares/Third_Party/Huawei/iot_link/os/liteos/base/core\los_task.c ****     if (bIsReady)
 3816              		.loc 1 1304 5 view .LVU1215
1305:D:/fchai/work/i-cube/I-CUBE-HUAWEI/Middlewares/Third_Party/Huawei/iot_link/os/liteos/base/core\los_task.c ****     {
1306:D:/fchai/work/i-cube/I-CUBE-HUAWEI/Middlewares/Third_Party/Huawei/iot_link/os/liteos/base/core\los_task.c ****         LOS_Schedule();
1307:D:/fchai/work/i-cube/I-CUBE-HUAWEI/Middlewares/Third_Party/Huawei/iot_link/os/liteos/base/core\los_task.c ****     }
1308:D:/fchai/work/i-cube/I-CUBE-HUAWEI/Middlewares/Third_Party/Huawei/iot_link/os/liteos/base/core\los_task.c **** 
1309:D:/fchai/work/i-cube/I-CUBE-HUAWEI/Middlewares/Third_Party/Huawei/iot_link/os/liteos/base/core\los_task.c ****     return LOS_OK;
 3817              		.loc 1 1309 12 is_stmt 0 view .LVU1216
 3818 0048 3046     		mov	r0, r6
 3819              	.L263:
 3820              		.loc 1 1309 12 view .LVU1217
 3821              	.LBE264:
 3822              	.LBE267:
1310:D:/fchai/work/i-cube/I-CUBE-HUAWEI/Middlewares/Third_Party/Huawei/iot_link/os/liteos/base/core\los_task.c **** }
 3823              		.loc 1 1310 1 view .LVU1218
 3824 004a 02B0     		add	sp, sp, #8
 3825              	.LCFI47:
 3826              		.cfi_def_cfa_offset 24
 3827              		@ sp needed
 3828 004c BDE8F081 		pop	{r4, r5, r6, r7, r8, pc}
 3829              	.LVL278:
 3830              	.L270:
 3831              	.LCFI48:
 3832              		.cfi_def_cfa_offset 0
 3833              		.cfi_restore 4
 3834              		.cfi_restore 5
 3835              		.cfi_restore 6
 3836              		.cfi_restore 7
 3837              		.cfi_restore 8
 3838              		.cfi_restore 14
1276:D:/fchai/work/i-cube/I-CUBE-HUAWEI/Middlewares/Third_Party/Huawei/iot_link/os/liteos/base/core\los_task.c ****     }
 3839              		.loc 1 1276 16 view .LVU1219
 3840 0050 1548     		ldr	r0, .L277+16
 3841              	.LVL279:
 3842              		.loc 1 1310 1 view .LVU1220
 3843 0052 7047     		bx	lr
 3844              	.LVL280:
 3845              	.L267:
1261:D:/fchai/work/i-cube/I-CUBE-HUAWEI/Middlewares/Third_Party/Huawei/iot_link/os/liteos/base/core\los_task.c ****     }
 3846              		.loc 1 1261 16 view .LVU1221
 3847 0054 1548     		ldr	r0, .L277+20
 3848              	.LVL281:
1261:D:/fchai/work/i-cube/I-CUBE-HUAWEI/Middlewares/Third_Party/Huawei/iot_link/os/liteos/base/core\los_task.c ****     }
 3849              		.loc 1 1261 16 view .LVU1222
 3850 0056 7047     		bx	lr
 3851              	.LVL282:
ARM GAS  T:\msys\tmp\ccehPeV4.s 			page 110


 3852              	.L276:
 3853              	.LCFI49:
 3854              		.cfi_def_cfa_offset 32
 3855              		.cfi_offset 4, -24
 3856              		.cfi_offset 5, -20
 3857              		.cfi_offset 6, -16
 3858              		.cfi_offset 7, -12
 3859              		.cfi_offset 8, -8
 3860              		.cfi_offset 14, -4
 3861              	.LBB268:
 3862              	.LBB265:
1291:D:/fchai/work/i-cube/I-CUBE-HUAWEI/Middlewares/Third_Party/Huawei/iot_link/os/liteos/base/core\los_task.c ****         pstTaskCB->usTaskStatus &= (~OS_TASK_STATUS_READY);
 3863              		.loc 1 1291 9 is_stmt 1 view .LVU1223
 3864 0058 04F12800 		add	r0, r4, #40
 3865              	.LVL283:
1291:D:/fchai/work/i-cube/I-CUBE-HUAWEI/Middlewares/Third_Party/Huawei/iot_link/os/liteos/base/core\los_task.c ****         pstTaskCB->usTaskStatus &= (~OS_TASK_STATUS_READY);
 3866              		.loc 1 1291 9 is_stmt 0 view .LVU1224
 3867 005c 0190     		str	r0, [sp, #4]
 3868 005e FFF7FEFF 		bl	osPriqueueDequeue
 3869              	.LVL284:
1292:D:/fchai/work/i-cube/I-CUBE-HUAWEI/Middlewares/Third_Party/Huawei/iot_link/os/liteos/base/core\los_task.c ****         pstTaskCB->usPriority = usTaskPrio;
 3870              		.loc 1 1292 9 is_stmt 1 view .LVU1225
1293:D:/fchai/work/i-cube/I-CUBE-HUAWEI/Middlewares/Third_Party/Huawei/iot_link/os/liteos/base/core\los_task.c ****         pstTaskCB->usTaskStatus |= OS_TASK_STATUS_READY;
 3871              		.loc 1 1293 9 view .LVU1226
1292:D:/fchai/work/i-cube/I-CUBE-HUAWEI/Middlewares/Third_Party/Huawei/iot_link/os/liteos/base/core\los_task.c ****         pstTaskCB->usPriority = usTaskPrio;
 3872              		.loc 1 1292 33 is_stmt 0 view .LVU1227
 3873 0062 A388     		ldrh	r3, [r4, #4]
1295:D:/fchai/work/i-cube/I-CUBE-HUAWEI/Middlewares/Third_Party/Huawei/iot_link/os/liteos/base/core\los_task.c ****     }
 3874              		.loc 1 1295 9 view .LVU1228
 3875 0064 0198     		ldr	r0, [sp, #4]
1293:D:/fchai/work/i-cube/I-CUBE-HUAWEI/Middlewares/Third_Party/Huawei/iot_link/os/liteos/base/core\los_task.c ****         pstTaskCB->usTaskStatus |= OS_TASK_STATUS_READY;
 3876              		.loc 1 1293 31 view .LVU1229
 3877 0066 E580     		strh	r5, [r4, #6]	@ movhi
1294:D:/fchai/work/i-cube/I-CUBE-HUAWEI/Middlewares/Third_Party/Huawei/iot_link/os/liteos/base/core\los_task.c ****         osPriqueueEnqueue(&pstTaskCB->stPendList, pstTaskCB->usPriority);
 3878              		.loc 1 1294 9 is_stmt 1 view .LVU1230
1294:D:/fchai/work/i-cube/I-CUBE-HUAWEI/Middlewares/Third_Party/Huawei/iot_link/os/liteos/base/core\los_task.c ****         osPriqueueEnqueue(&pstTaskCB->stPendList, pstTaskCB->usPriority);
 3879              		.loc 1 1294 33 is_stmt 0 view .LVU1231
 3880 0068 43F00403 		orr	r3, r3, #4
1295:D:/fchai/work/i-cube/I-CUBE-HUAWEI/Middlewares/Third_Party/Huawei/iot_link/os/liteos/base/core\los_task.c ****     }
 3881              		.loc 1 1295 9 view .LVU1232
 3882 006c 2946     		mov	r1, r5
1294:D:/fchai/work/i-cube/I-CUBE-HUAWEI/Middlewares/Third_Party/Huawei/iot_link/os/liteos/base/core\los_task.c ****         osPriqueueEnqueue(&pstTaskCB->stPendList, pstTaskCB->usPriority);
 3883              		.loc 1 1294 33 view .LVU1233
 3884 006e A380     		strh	r3, [r4, #4]	@ movhi
1295:D:/fchai/work/i-cube/I-CUBE-HUAWEI/Middlewares/Third_Party/Huawei/iot_link/os/liteos/base/core\los_task.c ****     }
 3885              		.loc 1 1295 9 is_stmt 1 view .LVU1234
 3886 0070 FFF7FEFF 		bl	osPriqueueEnqueue
 3887              	.LVL285:
1302:D:/fchai/work/i-cube/I-CUBE-HUAWEI/Middlewares/Third_Party/Huawei/iot_link/os/liteos/base/core\los_task.c ****     /* delete the task and insert with right priority into ready queue */
 3888              		.loc 1 1302 5 view .LVU1235
 3889 0074 3846     		mov	r0, r7
 3890 0076 FFF7FEFF 		bl	LOS_IntRestore
 3891              	.LVL286:
1304:D:/fchai/work/i-cube/I-CUBE-HUAWEI/Middlewares/Third_Party/Huawei/iot_link/os/liteos/base/core\los_task.c ****     {
 3892              		.loc 1 1304 5 view .LVU1236
1306:D:/fchai/work/i-cube/I-CUBE-HUAWEI/Middlewares/Third_Party/Huawei/iot_link/os/liteos/base/core\los_task.c ****     }
 3893              		.loc 1 1306 9 view .LVU1237
ARM GAS  T:\msys\tmp\ccehPeV4.s 			page 111


 3894 007a FFF7FEFF 		bl	LOS_Schedule
 3895              	.LVL287:
1309:D:/fchai/work/i-cube/I-CUBE-HUAWEI/Middlewares/Third_Party/Huawei/iot_link/os/liteos/base/core\los_task.c **** }
 3896              		.loc 1 1309 12 is_stmt 0 view .LVU1238
 3897 007e 4046     		mov	r0, r8
 3898              	.LBE265:
 3899              	.LBE268:
 3900              		.loc 1 1310 1 view .LVU1239
 3901 0080 02B0     		add	sp, sp, #8
 3902              	.LCFI50:
 3903              		.cfi_def_cfa_offset 24
 3904              		@ sp needed
 3905 0082 BDE8F081 		pop	{r4, r5, r6, r7, r8, pc}
 3906              	.LVL288:
 3907              	.L268:
 3908              	.LCFI51:
 3909              		.cfi_def_cfa_offset 0
 3910              		.cfi_restore 4
 3911              		.cfi_restore 5
 3912              		.cfi_restore 6
 3913              		.cfi_restore 7
 3914              		.cfi_restore 8
 3915              		.cfi_restore 14
1266:D:/fchai/work/i-cube/I-CUBE-HUAWEI/Middlewares/Third_Party/Huawei/iot_link/os/liteos/base/core\los_task.c ****     }
 3916              		.loc 1 1266 16 view .LVU1240
 3917 0086 0A48     		ldr	r0, .L277+24
 3918              	.LVL289:
1266:D:/fchai/work/i-cube/I-CUBE-HUAWEI/Middlewares/Third_Party/Huawei/iot_link/os/liteos/base/core\los_task.c ****     }
 3919              		.loc 1 1266 16 view .LVU1241
 3920 0088 7047     		bx	lr
 3921              	.LVL290:
 3922              	.L269:
1271:D:/fchai/work/i-cube/I-CUBE-HUAWEI/Middlewares/Third_Party/Huawei/iot_link/os/liteos/base/core\los_task.c ****     }
 3923              		.loc 1 1271 16 view .LVU1242
 3924 008a 0A48     		ldr	r0, .L277+28
 3925              	.LVL291:
1271:D:/fchai/work/i-cube/I-CUBE-HUAWEI/Middlewares/Third_Party/Huawei/iot_link/os/liteos/base/core\los_task.c ****     }
 3926              		.loc 1 1271 16 view .LVU1243
 3927 008c 7047     		bx	lr
 3928              	.LVL292:
 3929              	.L275:
 3930              	.LCFI52:
 3931              		.cfi_def_cfa_offset 32
 3932              		.cfi_offset 4, -24
 3933              		.cfi_offset 5, -20
 3934              		.cfi_offset 6, -16
 3935              		.cfi_offset 7, -12
 3936              		.cfi_offset 8, -8
 3937              		.cfi_offset 14, -4
 3938              	.LBB269:
 3939              	.LBB266:
1284:D:/fchai/work/i-cube/I-CUBE-HUAWEI/Middlewares/Third_Party/Huawei/iot_link/os/liteos/base/core\los_task.c ****         return LOS_ERRNO_TSK_NOT_CREATED;
 3940              		.loc 1 1284 9 is_stmt 1 view .LVU1244
 3941 008e FFF7FEFF 		bl	LOS_IntRestore
 3942              	.LVL293:
1285:D:/fchai/work/i-cube/I-CUBE-HUAWEI/Middlewares/Third_Party/Huawei/iot_link/os/liteos/base/core\los_task.c ****     }
 3943              		.loc 1 1285 9 view .LVU1245
ARM GAS  T:\msys\tmp\ccehPeV4.s 			page 112


1285:D:/fchai/work/i-cube/I-CUBE-HUAWEI/Middlewares/Third_Party/Huawei/iot_link/os/liteos/base/core\los_task.c ****     }
 3944              		.loc 1 1285 16 is_stmt 0 view .LVU1246
 3945 0092 0948     		ldr	r0, .L277+32
 3946 0094 D9E7     		b	.L263
 3947              	.L278:
 3948 0096 00BF     		.align	2
 3949              	.L277:
 3950 0098 00000000 		.word	g_uwIdleTaskID
 3951 009c 00000000 		.word	g_uwSwtmrTaskID
 3952 00a0 00000000 		.word	g_uwTskMaxNum
 3953 00a4 00000000 		.word	g_pstTaskCBArray
 3954 00a8 07020002 		.word	33554951
 3955 00ac 03020002 		.word	33554947
 3956 00b0 14020002 		.word	33554964
 3957 00b4 22020002 		.word	33554978
 3958 00b8 0A020002 		.word	33554954
 3959              	.LBE266:
 3960              	.LBE269:
 3961              		.cfi_endproc
 3962              	.LFE156:
 3964              		.section	.text.LOS_CurTaskPriSet,"ax",%progbits
 3965              		.align	1
 3966              		.p2align 2,,3
 3967              		.global	LOS_CurTaskPriSet
 3968              		.syntax unified
 3969              		.thumb
 3970              		.thumb_func
 3971              		.fpu fpv4-sp-d16
 3973              	LOS_CurTaskPriSet:
 3974              	.LVL294:
 3975              	.LFB157:
1311:D:/fchai/work/i-cube/I-CUBE-HUAWEI/Middlewares/Third_Party/Huawei/iot_link/os/liteos/base/core\los_task.c **** 
1312:D:/fchai/work/i-cube/I-CUBE-HUAWEI/Middlewares/Third_Party/Huawei/iot_link/os/liteos/base/core\los_task.c **** /*****************************************************************************
1313:D:/fchai/work/i-cube/I-CUBE-HUAWEI/Middlewares/Third_Party/Huawei/iot_link/os/liteos/base/core\los_task.c ****  Function : LOS_CurTaskPriSet
1314:D:/fchai/work/i-cube/I-CUBE-HUAWEI/Middlewares/Third_Party/Huawei/iot_link/os/liteos/base/core\los_task.c ****  Description : Set the priority of the current task
1315:D:/fchai/work/i-cube/I-CUBE-HUAWEI/Middlewares/Third_Party/Huawei/iot_link/os/liteos/base/core\los_task.c ****  Input       : usTaskPrio
1316:D:/fchai/work/i-cube/I-CUBE-HUAWEI/Middlewares/Third_Party/Huawei/iot_link/os/liteos/base/core\los_task.c ****  Output      : None
1317:D:/fchai/work/i-cube/I-CUBE-HUAWEI/Middlewares/Third_Party/Huawei/iot_link/os/liteos/base/core\los_task.c ****  Return      : None
1318:D:/fchai/work/i-cube/I-CUBE-HUAWEI/Middlewares/Third_Party/Huawei/iot_link/os/liteos/base/core\los_task.c ****  *****************************************************************************/
1319:D:/fchai/work/i-cube/I-CUBE-HUAWEI/Middlewares/Third_Party/Huawei/iot_link/os/liteos/base/core\los_task.c **** LITE_OS_SEC_TEXT_MINOR UINT32 LOS_CurTaskPriSet(UINT16 usTaskPrio)
1320:D:/fchai/work/i-cube/I-CUBE-HUAWEI/Middlewares/Third_Party/Huawei/iot_link/os/liteos/base/core\los_task.c **** {
 3976              		.loc 1 1320 1 is_stmt 1 view -0
 3977              		.cfi_startproc
 3978              		@ args = 0, pretend = 0, frame = 0
 3979              		@ frame_needed = 0, uses_anonymous_args = 0
 3980              		@ link register save eliminated.
1321:D:/fchai/work/i-cube/I-CUBE-HUAWEI/Middlewares/Third_Party/Huawei/iot_link/os/liteos/base/core\los_task.c ****     UINT32 uwRet;
 3981              		.loc 1 1321 5 view .LVU1248
1322:D:/fchai/work/i-cube/I-CUBE-HUAWEI/Middlewares/Third_Party/Huawei/iot_link/os/liteos/base/core\los_task.c ****     uwRet = LOS_TaskPriSet(g_stLosTask.pstRunTask->uwTaskID, usTaskPrio);
 3982              		.loc 1 1322 5 view .LVU1249
 3983              		.loc 1 1322 39 is_stmt 0 view .LVU1250
 3984 0000 024B     		ldr	r3, .L280
 3985              		.loc 1 1322 13 view .LVU1251
 3986 0002 1B68     		ldr	r3, [r3]
1320:D:/fchai/work/i-cube/I-CUBE-HUAWEI/Middlewares/Third_Party/Huawei/iot_link/os/liteos/base/core\los_task.c ****     UINT32 uwRet;
 3987              		.loc 1 1320 1 view .LVU1252
 3988 0004 0146     		mov	r1, r0
ARM GAS  T:\msys\tmp\ccehPeV4.s 			page 113


 3989              		.loc 1 1322 13 view .LVU1253
 3990 0006 1869     		ldr	r0, [r3, #16]
 3991              	.LVL295:
 3992              		.loc 1 1322 13 view .LVU1254
 3993 0008 FFF7FEBF 		b	LOS_TaskPriSet
 3994              	.LVL296:
 3995              	.L281:
 3996              		.align	2
 3997              	.L280:
 3998 000c 00000000 		.word	g_stLosTask
 3999              		.cfi_endproc
 4000              	.LFE157:
 4002              		.section	.text.osTaskWait,"ax",%progbits
 4003              		.align	1
 4004              		.p2align 2,,3
 4005              		.global	osTaskWait
 4006              		.syntax unified
 4007              		.thumb
 4008              		.thumb_func
 4009              		.fpu fpv4-sp-d16
 4011              	osTaskWait:
 4012              	.LVL297:
 4013              	.LFB158:
1323:D:/fchai/work/i-cube/I-CUBE-HUAWEI/Middlewares/Third_Party/Huawei/iot_link/os/liteos/base/core\los_task.c ****     return uwRet;
1324:D:/fchai/work/i-cube/I-CUBE-HUAWEI/Middlewares/Third_Party/Huawei/iot_link/os/liteos/base/core\los_task.c **** }
1325:D:/fchai/work/i-cube/I-CUBE-HUAWEI/Middlewares/Third_Party/Huawei/iot_link/os/liteos/base/core\los_task.c **** 
1326:D:/fchai/work/i-cube/I-CUBE-HUAWEI/Middlewares/Third_Party/Huawei/iot_link/os/liteos/base/core\los_task.c **** /**************************************************************************
1327:D:/fchai/work/i-cube/I-CUBE-HUAWEI/Middlewares/Third_Party/Huawei/iot_link/os/liteos/base/core\los_task.c ****  Function    : osTaskWait
1328:D:/fchai/work/i-cube/I-CUBE-HUAWEI/Middlewares/Third_Party/Huawei/iot_link/os/liteos/base/core\los_task.c ****  Description : pend a task in pstList
1329:D:/fchai/work/i-cube/I-CUBE-HUAWEI/Middlewares/Third_Party/Huawei/iot_link/os/liteos/base/core\los_task.c ****  Input       : pstList
1330:D:/fchai/work/i-cube/I-CUBE-HUAWEI/Middlewares/Third_Party/Huawei/iot_link/os/liteos/base/core\los_task.c ****                uwTimeOut -- Expiry time
1331:D:/fchai/work/i-cube/I-CUBE-HUAWEI/Middlewares/Third_Party/Huawei/iot_link/os/liteos/base/core\los_task.c ****  Output      : none
1332:D:/fchai/work/i-cube/I-CUBE-HUAWEI/Middlewares/Third_Party/Huawei/iot_link/os/liteos/base/core\los_task.c ****  Return      : LOS_OK on success or LOS_NOK on failure
1333:D:/fchai/work/i-cube/I-CUBE-HUAWEI/Middlewares/Third_Party/Huawei/iot_link/os/liteos/base/core\los_task.c **** **************************************************************************/
1334:D:/fchai/work/i-cube/I-CUBE-HUAWEI/Middlewares/Third_Party/Huawei/iot_link/os/liteos/base/core\los_task.c **** LITE_OS_SEC_TEXT VOID osTaskWait(LOS_DL_LIST *pstList, UINT32 uwTaskStatus, UINT32 uwTimeOut)
1335:D:/fchai/work/i-cube/I-CUBE-HUAWEI/Middlewares/Third_Party/Huawei/iot_link/os/liteos/base/core\los_task.c **** {
 4014              		.loc 1 1335 1 is_stmt 1 view -0
 4015              		.cfi_startproc
 4016              		@ args = 0, pretend = 0, frame = 0
 4017              		@ frame_needed = 0, uses_anonymous_args = 0
 4018              		.loc 1 1335 1 is_stmt 0 view .LVU1256
 4019 0000 2DE9F843 		push	{r3, r4, r5, r6, r7, r8, r9, lr}
 4020              	.LCFI53:
 4021              		.cfi_def_cfa_offset 32
 4022              		.cfi_offset 3, -32
 4023              		.cfi_offset 4, -28
 4024              		.cfi_offset 5, -24
 4025              		.cfi_offset 6, -20
 4026              		.cfi_offset 7, -16
 4027              		.cfi_offset 8, -12
 4028              		.cfi_offset 9, -8
 4029              		.cfi_offset 14, -4
1336:D:/fchai/work/i-cube/I-CUBE-HUAWEI/Middlewares/Third_Party/Huawei/iot_link/os/liteos/base/core\los_task.c ****     LOS_TASK_CB *pstRunTsk;
1337:D:/fchai/work/i-cube/I-CUBE-HUAWEI/Middlewares/Third_Party/Huawei/iot_link/os/liteos/base/core\los_task.c ****     LOS_DL_LIST *pstPendObj;
1338:D:/fchai/work/i-cube/I-CUBE-HUAWEI/Middlewares/Third_Party/Huawei/iot_link/os/liteos/base/core\los_task.c **** 
1339:D:/fchai/work/i-cube/I-CUBE-HUAWEI/Middlewares/Third_Party/Huawei/iot_link/os/liteos/base/core\los_task.c ****     pstRunTsk = g_stLosTask.pstRunTask;
 4030              		.loc 1 1339 15 view .LVU1257
ARM GAS  T:\msys\tmp\ccehPeV4.s 			page 114


 4031 0004 124B     		ldr	r3, .L286
 4032 0006 1D68     		ldr	r5, [r3]
1340:D:/fchai/work/i-cube/I-CUBE-HUAWEI/Middlewares/Third_Party/Huawei/iot_link/os/liteos/base/core\los_task.c ****     osPriqueueDequeue(&pstRunTsk->stPendList);
 4033              		.loc 1 1340 5 view .LVU1258
 4034 0008 05F12807 		add	r7, r5, #40
1335:D:/fchai/work/i-cube/I-CUBE-HUAWEI/Middlewares/Third_Party/Huawei/iot_link/os/liteos/base/core\los_task.c ****     LOS_TASK_CB *pstRunTsk;
 4035              		.loc 1 1335 1 view .LVU1259
 4036 000c 8146     		mov	r9, r0
1336:D:/fchai/work/i-cube/I-CUBE-HUAWEI/Middlewares/Third_Party/Huawei/iot_link/os/liteos/base/core\los_task.c ****     LOS_TASK_CB *pstRunTsk;
 4037              		.loc 1 1336 5 is_stmt 1 view .LVU1260
1337:D:/fchai/work/i-cube/I-CUBE-HUAWEI/Middlewares/Third_Party/Huawei/iot_link/os/liteos/base/core\los_task.c **** 
 4038              		.loc 1 1337 5 view .LVU1261
1339:D:/fchai/work/i-cube/I-CUBE-HUAWEI/Middlewares/Third_Party/Huawei/iot_link/os/liteos/base/core\los_task.c ****     osPriqueueDequeue(&pstRunTsk->stPendList);
 4039              		.loc 1 1339 5 view .LVU1262
 4040              	.LVL298:
 4041              		.loc 1 1340 5 view .LVU1263
 4042 000e 3846     		mov	r0, r7
 4043              	.LVL299:
1335:D:/fchai/work/i-cube/I-CUBE-HUAWEI/Middlewares/Third_Party/Huawei/iot_link/os/liteos/base/core\los_task.c ****     LOS_TASK_CB *pstRunTsk;
 4044              		.loc 1 1335 1 is_stmt 0 view .LVU1264
 4045 0010 8846     		mov	r8, r1
 4046 0012 1646     		mov	r6, r2
 4047              		.loc 1 1340 5 view .LVU1265
 4048 0014 FFF7FEFF 		bl	osPriqueueDequeue
 4049              	.LVL300:
1341:D:/fchai/work/i-cube/I-CUBE-HUAWEI/Middlewares/Third_Party/Huawei/iot_link/os/liteos/base/core\los_task.c ****     pstRunTsk->usTaskStatus &= (~OS_TASK_STATUS_READY);
 4050              		.loc 1 1341 5 is_stmt 1 view .LVU1266
1342:D:/fchai/work/i-cube/I-CUBE-HUAWEI/Middlewares/Third_Party/Huawei/iot_link/os/liteos/base/core\los_task.c ****     pstPendObj = &pstRunTsk->stPendList;
 4051              		.loc 1 1342 5 view .LVU1267
1343:D:/fchai/work/i-cube/I-CUBE-HUAWEI/Middlewares/Third_Party/Huawei/iot_link/os/liteos/base/core\los_task.c ****     pstRunTsk->usTaskStatus |= uwTaskStatus;
 4052              		.loc 1 1343 5 view .LVU1268
1341:D:/fchai/work/i-cube/I-CUBE-HUAWEI/Middlewares/Third_Party/Huawei/iot_link/os/liteos/base/core\los_task.c ****     pstRunTsk->usTaskStatus &= (~OS_TASK_STATUS_READY);
 4053              		.loc 1 1341 29 is_stmt 0 view .LVU1269
 4054 0018 AC88     		ldrh	r4, [r5, #4]
1344:D:/fchai/work/i-cube/I-CUBE-HUAWEI/Middlewares/Third_Party/Huawei/iot_link/os/liteos/base/core\los_task.c ****     LOS_ListTailInsert(pstList,pstPendObj);
 4055              		.loc 1 1344 5 view .LVU1270
 4056 001a D9F80020 		ldr	r2, [r9]
1341:D:/fchai/work/i-cube/I-CUBE-HUAWEI/Middlewares/Third_Party/Huawei/iot_link/os/liteos/base/core\los_task.c ****     pstPendObj = &pstRunTsk->stPendList;
 4057              		.loc 1 1341 29 view .LVU1271
 4058 001e 24F00404 		bic	r4, r4, #4
 4059              	.LBB270:
 4060              	.LBB271:
 4061              	.LBB272:
 131:D:/fchai/work/i-cube/I-CUBE-HUAWEI/Middlewares/Third_Party/Huawei/iot_link/os/liteos/include\los_list.h ****     pstNode->pstPrev = pstList;
 4062              		.loc 2 131 31 view .LVU1272
 4063 0022 5168     		ldr	r1, [r2, #4]
 131:D:/fchai/work/i-cube/I-CUBE-HUAWEI/Middlewares/Third_Party/Huawei/iot_link/os/liteos/include\los_list.h ****     pstNode->pstPrev = pstList;
 4064              		.loc 2 131 22 view .LVU1273
 4065 0024 E962     		str	r1, [r5, #44]
 4066              	.LBE272:
 4067              	.LBE271:
 4068              	.LBE270:
1343:D:/fchai/work/i-cube/I-CUBE-HUAWEI/Middlewares/Third_Party/Huawei/iot_link/os/liteos/base/core\los_task.c ****     LOS_ListTailInsert(pstList,pstPendObj);
 4069              		.loc 1 1343 29 view .LVU1274
 4070 0026 44EA0803 		orr	r3, r4, r8
 4071 002a 9BB2     		uxth	r3, r3
 4072              	.LBB277:
ARM GAS  T:\msys\tmp\ccehPeV4.s 			page 115


 4073              	.LBB275:
 4074              	.LBB273:
 132:D:/fchai/work/i-cube/I-CUBE-HUAWEI/Middlewares/Third_Party/Huawei/iot_link/os/liteos/include\los_list.h ****     pstList->pstNext->pstPrev = pstNode;
 4075              		.loc 2 132 22 view .LVU1275
 4076 002c AA62     		str	r2, [r5, #40]
 4077              	.LBE273:
 4078              	.LBE275:
 4079              	.LBE277:
1343:D:/fchai/work/i-cube/I-CUBE-HUAWEI/Middlewares/Third_Party/Huawei/iot_link/os/liteos/base/core\los_task.c ****     LOS_ListTailInsert(pstList,pstPendObj);
 4080              		.loc 1 1343 29 view .LVU1276
 4081 002e AB80     		strh	r3, [r5, #4]	@ movhi
 4082              		.loc 1 1344 5 is_stmt 1 view .LVU1277
 4083              	.LVL301:
 4084              	.LBB278:
 4085              	.LBI270:
 157:D:/fchai/work/i-cube/I-CUBE-HUAWEI/Middlewares/Third_Party/Huawei/iot_link/os/liteos/include\los_list.h **** {
 4086              		.loc 2 157 43 view .LVU1278
 157:D:/fchai/work/i-cube/I-CUBE-HUAWEI/Middlewares/Third_Party/Huawei/iot_link/os/liteos/include\los_list.h **** {
 4087              		.loc 2 157 43 is_stmt 0 view .LVU1279
 4088              	.LBE278:
 159:D:/fchai/work/i-cube/I-CUBE-HUAWEI/Middlewares/Third_Party/Huawei/iot_link/os/liteos/include\los_list.h **** }
 4089              		.loc 2 159 5 is_stmt 1 view .LVU1280
 4090              	.LBB279:
 4091              	.LBB276:
 4092              	.LBI271:
 129:D:/fchai/work/i-cube/I-CUBE-HUAWEI/Middlewares/Third_Party/Huawei/iot_link/os/liteos/include\los_list.h **** {
 4093              		.loc 2 129 43 view .LVU1281
 4094              	.LBB274:
 131:D:/fchai/work/i-cube/I-CUBE-HUAWEI/Middlewares/Third_Party/Huawei/iot_link/os/liteos/include\los_list.h ****     pstNode->pstPrev = pstList;
 4095              		.loc 2 131 5 view .LVU1282
 132:D:/fchai/work/i-cube/I-CUBE-HUAWEI/Middlewares/Third_Party/Huawei/iot_link/os/liteos/include\los_list.h ****     pstList->pstNext->pstPrev = pstNode;
 4096              		.loc 2 132 5 view .LVU1283
 133:D:/fchai/work/i-cube/I-CUBE-HUAWEI/Middlewares/Third_Party/Huawei/iot_link/os/liteos/include\los_list.h ****     pstList->pstNext = pstNode;
 4097              		.loc 2 133 5 view .LVU1284
 133:D:/fchai/work/i-cube/I-CUBE-HUAWEI/Middlewares/Third_Party/Huawei/iot_link/os/liteos/include\los_list.h ****     pstList->pstNext = pstNode;
 4098              		.loc 2 133 31 is_stmt 0 view .LVU1285
 4099 0030 0F60     		str	r7, [r1]
 134:D:/fchai/work/i-cube/I-CUBE-HUAWEI/Middlewares/Third_Party/Huawei/iot_link/os/liteos/include\los_list.h **** }
 4100              		.loc 2 134 5 is_stmt 1 view .LVU1286
 134:D:/fchai/work/i-cube/I-CUBE-HUAWEI/Middlewares/Third_Party/Huawei/iot_link/os/liteos/include\los_list.h **** }
 4101              		.loc 2 134 22 is_stmt 0 view .LVU1287
 4102 0032 5760     		str	r7, [r2, #4]
 4103              	.LVL302:
 134:D:/fchai/work/i-cube/I-CUBE-HUAWEI/Middlewares/Third_Party/Huawei/iot_link/os/liteos/include\los_list.h **** }
 4104              		.loc 2 134 22 view .LVU1288
 4105              	.LBE274:
 4106              	.LBE276:
 4107              	.LBE279:
1345:D:/fchai/work/i-cube/I-CUBE-HUAWEI/Middlewares/Third_Party/Huawei/iot_link/os/liteos/base/core\los_task.c ****     if (uwTimeOut != LOS_WAIT_FOREVER)
 4108              		.loc 1 1345 5 is_stmt 1 view .LVU1289
 4109              		.loc 1 1345 8 is_stmt 0 view .LVU1290
 4110 0034 721C     		adds	r2, r6, #1
 4111 0036 01D1     		bne	.L285
1346:D:/fchai/work/i-cube/I-CUBE-HUAWEI/Middlewares/Third_Party/Huawei/iot_link/os/liteos/base/core\los_task.c ****     {
1347:D:/fchai/work/i-cube/I-CUBE-HUAWEI/Middlewares/Third_Party/Huawei/iot_link/os/liteos/base/core\los_task.c ****         pstRunTsk->usTaskStatus |= OS_TASK_STATUS_TIMEOUT;
1348:D:/fchai/work/i-cube/I-CUBE-HUAWEI/Middlewares/Third_Party/Huawei/iot_link/os/liteos/base/core\los_task.c ****         osTaskAdd2TimerList((LOS_TASK_CB *)pstRunTsk, uwTimeOut);
1349:D:/fchai/work/i-cube/I-CUBE-HUAWEI/Middlewares/Third_Party/Huawei/iot_link/os/liteos/base/core\los_task.c ****     }
ARM GAS  T:\msys\tmp\ccehPeV4.s 			page 116


1350:D:/fchai/work/i-cube/I-CUBE-HUAWEI/Middlewares/Third_Party/Huawei/iot_link/os/liteos/base/core\los_task.c **** }
 4112              		.loc 1 1350 1 view .LVU1291
 4113 0038 BDE8F883 		pop	{r3, r4, r5, r6, r7, r8, r9, pc}
 4114              	.LVL303:
 4115              	.L285:
1347:D:/fchai/work/i-cube/I-CUBE-HUAWEI/Middlewares/Third_Party/Huawei/iot_link/os/liteos/base/core\los_task.c ****         osTaskAdd2TimerList((LOS_TASK_CB *)pstRunTsk, uwTimeOut);
 4116              		.loc 1 1347 9 is_stmt 1 view .LVU1292
1347:D:/fchai/work/i-cube/I-CUBE-HUAWEI/Middlewares/Third_Party/Huawei/iot_link/os/liteos/base/core\los_task.c ****         osTaskAdd2TimerList((LOS_TASK_CB *)pstRunTsk, uwTimeOut);
 4117              		.loc 1 1347 33 is_stmt 0 view .LVU1293
 4118 003c 43F04003 		orr	r3, r3, #64
 4119 0040 AB80     		strh	r3, [r5, #4]	@ movhi
1348:D:/fchai/work/i-cube/I-CUBE-HUAWEI/Middlewares/Third_Party/Huawei/iot_link/os/liteos/base/core\los_task.c ****     }
 4120              		.loc 1 1348 9 is_stmt 1 view .LVU1294
 4121 0042 3146     		mov	r1, r6
 4122 0044 2846     		mov	r0, r5
 4123              		.loc 1 1350 1 is_stmt 0 view .LVU1295
 4124 0046 BDE8F843 		pop	{r3, r4, r5, r6, r7, r8, r9, lr}
 4125              	.LCFI54:
 4126              		.cfi_restore 14
 4127              		.cfi_restore 9
 4128              		.cfi_restore 8
 4129              		.cfi_restore 7
 4130              		.cfi_restore 6
 4131              		.cfi_restore 5
 4132              		.cfi_restore 4
 4133              		.cfi_restore 3
 4134              		.cfi_def_cfa_offset 0
 4135              	.LVL304:
1348:D:/fchai/work/i-cube/I-CUBE-HUAWEI/Middlewares/Third_Party/Huawei/iot_link/os/liteos/base/core\los_task.c ****     }
 4136              		.loc 1 1348 9 view .LVU1296
 4137 004a FFF7FEBF 		b	osTaskAdd2TimerList
 4138              	.LVL305:
 4139              	.L287:
1348:D:/fchai/work/i-cube/I-CUBE-HUAWEI/Middlewares/Third_Party/Huawei/iot_link/os/liteos/base/core\los_task.c ****     }
 4140              		.loc 1 1348 9 view .LVU1297
 4141 004e 00BF     		.align	2
 4142              	.L286:
 4143 0050 00000000 		.word	g_stLosTask
 4144              		.cfi_endproc
 4145              	.LFE158:
 4147              		.section	.text.osTaskWake,"ax",%progbits
 4148              		.align	1
 4149              		.p2align 2,,3
 4150              		.global	osTaskWake
 4151              		.syntax unified
 4152              		.thumb
 4153              		.thumb_func
 4154              		.fpu fpv4-sp-d16
 4156              	osTaskWake:
 4157              	.LVL306:
 4158              	.LFB159:
1351:D:/fchai/work/i-cube/I-CUBE-HUAWEI/Middlewares/Third_Party/Huawei/iot_link/os/liteos/base/core\los_task.c **** 
1352:D:/fchai/work/i-cube/I-CUBE-HUAWEI/Middlewares/Third_Party/Huawei/iot_link/os/liteos/base/core\los_task.c **** /**************************************************************************
1353:D:/fchai/work/i-cube/I-CUBE-HUAWEI/Middlewares/Third_Party/Huawei/iot_link/os/liteos/base/core\los_task.c ****  Function    : osTaskWake
1354:D:/fchai/work/i-cube/I-CUBE-HUAWEI/Middlewares/Third_Party/Huawei/iot_link/os/liteos/base/core\los_task.c ****  Description : delete the task from pendlist and also add to the priqueue
1355:D:/fchai/work/i-cube/I-CUBE-HUAWEI/Middlewares/Third_Party/Huawei/iot_link/os/liteos/base/core\los_task.c ****  Input       : pstResumedTask --> resumed task
1356:D:/fchai/work/i-cube/I-CUBE-HUAWEI/Middlewares/Third_Party/Huawei/iot_link/os/liteos/base/core\los_task.c ****  Output      : pstResumedTask
ARM GAS  T:\msys\tmp\ccehPeV4.s 			page 117


1357:D:/fchai/work/i-cube/I-CUBE-HUAWEI/Middlewares/Third_Party/Huawei/iot_link/os/liteos/base/core\los_task.c ****  Return      : none
1358:D:/fchai/work/i-cube/I-CUBE-HUAWEI/Middlewares/Third_Party/Huawei/iot_link/os/liteos/base/core\los_task.c **** **************************************************************************/
1359:D:/fchai/work/i-cube/I-CUBE-HUAWEI/Middlewares/Third_Party/Huawei/iot_link/os/liteos/base/core\los_task.c **** LITE_OS_SEC_TEXT VOID osTaskWake(LOS_TASK_CB *pstResumedTask, UINT32 uwTaskStatus)
1360:D:/fchai/work/i-cube/I-CUBE-HUAWEI/Middlewares/Third_Party/Huawei/iot_link/os/liteos/base/core\los_task.c **** {
 4159              		.loc 1 1360 1 is_stmt 1 view -0
 4160              		.cfi_startproc
 4161              		@ args = 0, pretend = 0, frame = 0
 4162              		@ frame_needed = 0, uses_anonymous_args = 0
1361:D:/fchai/work/i-cube/I-CUBE-HUAWEI/Middlewares/Third_Party/Huawei/iot_link/os/liteos/base/core\los_task.c ****     LOS_ListDelete(&pstResumedTask->stPendList);
 4163              		.loc 1 1361 5 view .LVU1299
1360:D:/fchai/work/i-cube/I-CUBE-HUAWEI/Middlewares/Third_Party/Huawei/iot_link/os/liteos/base/core\los_task.c ****     LOS_ListDelete(&pstResumedTask->stPendList);
 4164              		.loc 1 1360 1 is_stmt 0 view .LVU1300
 4165 0000 38B5     		push	{r3, r4, r5, lr}
 4166              	.LCFI55:
 4167              		.cfi_def_cfa_offset 16
 4168              		.cfi_offset 3, -16
 4169              		.cfi_offset 4, -12
 4170              		.cfi_offset 5, -8
 4171              		.cfi_offset 14, -4
1362:D:/fchai/work/i-cube/I-CUBE-HUAWEI/Middlewares/Third_Party/Huawei/iot_link/os/liteos/base/core\los_task.c ****     pstResumedTask->usTaskStatus &= (~uwTaskStatus);
 4172              		.loc 1 1362 34 view .LVU1301
 4173 0002 8388     		ldrh	r3, [r0, #4]
 4174              	.LBB280:
 4175              	.LBB281:
 185:D:/fchai/work/i-cube/I-CUBE-HUAWEI/Middlewares/Third_Party/Huawei/iot_link/os/liteos/include\los_list.h ****     pstNode->pstPrev->pstNext = pstNode->pstNext;
 4176              		.loc 2 185 40 view .LVU1302
 4177 0004 D0E90A25 		ldrd	r2, r5, [r0, #40]
 4178              	.LBE281:
 4179              	.LBE280:
 4180              		.loc 1 1362 34 view .LVU1303
 4181 0008 23EA0101 		bic	r1, r3, r1
 4182              	.LVL307:
 4183              	.LBB285:
 4184              	.LBB282:
 185:D:/fchai/work/i-cube/I-CUBE-HUAWEI/Middlewares/Third_Party/Huawei/iot_link/os/liteos/include\los_list.h ****     pstNode->pstPrev->pstNext = pstNode->pstNext;
 4185              		.loc 2 185 31 view .LVU1304
 4186 000c 2A60     		str	r2, [r5]
 187:D:/fchai/work/i-cube/I-CUBE-HUAWEI/Middlewares/Third_Party/Huawei/iot_link/os/liteos/include\los_list.h ****     pstNode->pstPrev = (LOS_DL_LIST *)NULL;
 4187              		.loc 2 187 22 view .LVU1305
 4188 000e 0023     		movs	r3, #0
 186:D:/fchai/work/i-cube/I-CUBE-HUAWEI/Middlewares/Third_Party/Huawei/iot_link/os/liteos/include\los_list.h ****     pstNode->pstNext = (LOS_DL_LIST *)NULL;
 4189              		.loc 2 186 31 view .LVU1306
 4190 0010 5560     		str	r5, [r2, #4]
 4191              	.LBE282:
 4192              	.LBE285:
1363:D:/fchai/work/i-cube/I-CUBE-HUAWEI/Middlewares/Third_Party/Huawei/iot_link/os/liteos/base/core\los_task.c ****     if (pstResumedTask->usTaskStatus & OS_TASK_STATUS_TIMEOUT)
 4193              		.loc 1 1363 8 view .LVU1307
 4194 0012 4A06     		lsls	r2, r1, #25
 4195              	.LBB286:
 4196              	.LBB283:
 188:D:/fchai/work/i-cube/I-CUBE-HUAWEI/Middlewares/Third_Party/Huawei/iot_link/os/liteos/include\los_list.h **** }
 4197              		.loc 2 188 22 view .LVU1308
 4198 0014 C0E90A33 		strd	r3, r3, [r0, #40]
 4199              	.LBE283:
 4200              	.LBE286:
1360:D:/fchai/work/i-cube/I-CUBE-HUAWEI/Middlewares/Third_Party/Huawei/iot_link/os/liteos/base/core\los_task.c ****     LOS_ListDelete(&pstResumedTask->stPendList);
 4201              		.loc 1 1360 1 view .LVU1309
ARM GAS  T:\msys\tmp\ccehPeV4.s 			page 118


 4202 0018 0446     		mov	r4, r0
 4203              	.LBB287:
 4204              	.LBI280:
 183:D:/fchai/work/i-cube/I-CUBE-HUAWEI/Middlewares/Third_Party/Huawei/iot_link/os/liteos/include\los_list.h **** {
 4205              		.loc 2 183 43 is_stmt 1 view .LVU1310
 4206              	.LVL308:
 4207              	.LBB284:
 185:D:/fchai/work/i-cube/I-CUBE-HUAWEI/Middlewares/Third_Party/Huawei/iot_link/os/liteos/include\los_list.h ****     pstNode->pstPrev->pstNext = pstNode->pstNext;
 4208              		.loc 2 185 5 view .LVU1311
 186:D:/fchai/work/i-cube/I-CUBE-HUAWEI/Middlewares/Third_Party/Huawei/iot_link/os/liteos/include\los_list.h ****     pstNode->pstNext = (LOS_DL_LIST *)NULL;
 4209              		.loc 2 186 5 view .LVU1312
 187:D:/fchai/work/i-cube/I-CUBE-HUAWEI/Middlewares/Third_Party/Huawei/iot_link/os/liteos/include\los_list.h ****     pstNode->pstPrev = (LOS_DL_LIST *)NULL;
 4210              		.loc 2 187 5 view .LVU1313
 4211              	.LBE284:
 4212              	.LBE287:
1362:D:/fchai/work/i-cube/I-CUBE-HUAWEI/Middlewares/Third_Party/Huawei/iot_link/os/liteos/base/core\los_task.c ****     if (pstResumedTask->usTaskStatus & OS_TASK_STATUS_TIMEOUT)
 4213              		.loc 1 1362 5 view .LVU1314
 4214              		.loc 1 1363 5 view .LVU1315
1362:D:/fchai/work/i-cube/I-CUBE-HUAWEI/Middlewares/Third_Party/Huawei/iot_link/os/liteos/base/core\los_task.c ****     if (pstResumedTask->usTaskStatus & OS_TASK_STATUS_TIMEOUT)
 4215              		.loc 1 1362 34 is_stmt 0 view .LVU1316
 4216 001a 8180     		strh	r1, [r0, #4]	@ movhi
 4217              		.loc 1 1363 8 view .LVU1317
 4218 001c 02D4     		bmi	.L295
1364:D:/fchai/work/i-cube/I-CUBE-HUAWEI/Middlewares/Third_Party/Huawei/iot_link/os/liteos/base/core\los_task.c ****     {
1365:D:/fchai/work/i-cube/I-CUBE-HUAWEI/Middlewares/Third_Party/Huawei/iot_link/os/liteos/base/core\los_task.c ****         osTimerListDelete(pstResumedTask);
1366:D:/fchai/work/i-cube/I-CUBE-HUAWEI/Middlewares/Third_Party/Huawei/iot_link/os/liteos/base/core\los_task.c ****         pstResumedTask->usTaskStatus &= (~OS_TASK_STATUS_TIMEOUT);
1367:D:/fchai/work/i-cube/I-CUBE-HUAWEI/Middlewares/Third_Party/Huawei/iot_link/os/liteos/base/core\los_task.c ****     }
1368:D:/fchai/work/i-cube/I-CUBE-HUAWEI/Middlewares/Third_Party/Huawei/iot_link/os/liteos/base/core\los_task.c ****     if (!(pstResumedTask->usTaskStatus & OS_TASK_STATUS_SUSPEND))
 4219              		.loc 1 1368 5 is_stmt 1 view .LVU1318
 4220              		.loc 1 1368 8 is_stmt 0 view .LVU1319
 4221 001e 8B07     		lsls	r3, r1, #30
 4222 0020 09D5     		bpl	.L296
 4223              	.L288:
1369:D:/fchai/work/i-cube/I-CUBE-HUAWEI/Middlewares/Third_Party/Huawei/iot_link/os/liteos/base/core\los_task.c ****     {
1370:D:/fchai/work/i-cube/I-CUBE-HUAWEI/Middlewares/Third_Party/Huawei/iot_link/os/liteos/base/core\los_task.c ****         pstResumedTask->usTaskStatus |= OS_TASK_STATUS_READY;
1371:D:/fchai/work/i-cube/I-CUBE-HUAWEI/Middlewares/Third_Party/Huawei/iot_link/os/liteos/base/core\los_task.c ****         osPriqueueEnqueue(&pstResumedTask->stPendList, pstResumedTask->usPriority);
1372:D:/fchai/work/i-cube/I-CUBE-HUAWEI/Middlewares/Third_Party/Huawei/iot_link/os/liteos/base/core\los_task.c ****     }
1373:D:/fchai/work/i-cube/I-CUBE-HUAWEI/Middlewares/Third_Party/Huawei/iot_link/os/liteos/base/core\los_task.c **** }
 4224              		.loc 1 1373 1 view .LVU1320
 4225 0022 38BD     		pop	{r3, r4, r5, pc}
 4226              	.L295:
1365:D:/fchai/work/i-cube/I-CUBE-HUAWEI/Middlewares/Third_Party/Huawei/iot_link/os/liteos/base/core\los_task.c ****         pstResumedTask->usTaskStatus &= (~OS_TASK_STATUS_TIMEOUT);
 4227              		.loc 1 1365 9 is_stmt 1 view .LVU1321
 4228 0024 FFF7FEFF 		bl	osTimerListDelete
 4229              	.LVL309:
1366:D:/fchai/work/i-cube/I-CUBE-HUAWEI/Middlewares/Third_Party/Huawei/iot_link/os/liteos/base/core\los_task.c ****     }
 4230              		.loc 1 1366 9 view .LVU1322
1366:D:/fchai/work/i-cube/I-CUBE-HUAWEI/Middlewares/Third_Party/Huawei/iot_link/os/liteos/base/core\los_task.c ****     }
 4231              		.loc 1 1366 38 is_stmt 0 view .LVU1323
 4232 0028 8188     		ldrh	r1, [r0, #4]
 4233 002a 21F04001 		bic	r1, r1, #64
 4234 002e 89B2     		uxth	r1, r1
1368:D:/fchai/work/i-cube/I-CUBE-HUAWEI/Middlewares/Third_Party/Huawei/iot_link/os/liteos/base/core\los_task.c ****     {
 4235              		.loc 1 1368 8 view .LVU1324
 4236 0030 8B07     		lsls	r3, r1, #30
1366:D:/fchai/work/i-cube/I-CUBE-HUAWEI/Middlewares/Third_Party/Huawei/iot_link/os/liteos/base/core\los_task.c ****     }
 4237              		.loc 1 1366 38 view .LVU1325
ARM GAS  T:\msys\tmp\ccehPeV4.s 			page 119


 4238 0032 8180     		strh	r1, [r0, #4]	@ movhi
1368:D:/fchai/work/i-cube/I-CUBE-HUAWEI/Middlewares/Third_Party/Huawei/iot_link/os/liteos/base/core\los_task.c ****     {
 4239              		.loc 1 1368 5 is_stmt 1 view .LVU1326
1368:D:/fchai/work/i-cube/I-CUBE-HUAWEI/Middlewares/Third_Party/Huawei/iot_link/os/liteos/base/core\los_task.c ****     {
 4240              		.loc 1 1368 8 is_stmt 0 view .LVU1327
 4241 0034 F5D4     		bmi	.L288
 4242              	.L296:
1370:D:/fchai/work/i-cube/I-CUBE-HUAWEI/Middlewares/Third_Party/Huawei/iot_link/os/liteos/base/core\los_task.c ****         osPriqueueEnqueue(&pstResumedTask->stPendList, pstResumedTask->usPriority);
 4243              		.loc 1 1370 9 is_stmt 1 view .LVU1328
1370:D:/fchai/work/i-cube/I-CUBE-HUAWEI/Middlewares/Third_Party/Huawei/iot_link/os/liteos/base/core\los_task.c ****         osPriqueueEnqueue(&pstResumedTask->stPendList, pstResumedTask->usPriority);
 4244              		.loc 1 1370 38 is_stmt 0 view .LVU1329
 4245 0036 41F00401 		orr	r1, r1, #4
 4246 003a A180     		strh	r1, [r4, #4]	@ movhi
1371:D:/fchai/work/i-cube/I-CUBE-HUAWEI/Middlewares/Third_Party/Huawei/iot_link/os/liteos/base/core\los_task.c ****     }
 4247              		.loc 1 1371 9 is_stmt 1 view .LVU1330
 4248 003c 04F12800 		add	r0, r4, #40
 4249              	.LVL310:
1371:D:/fchai/work/i-cube/I-CUBE-HUAWEI/Middlewares/Third_Party/Huawei/iot_link/os/liteos/base/core\los_task.c ****     }
 4250              		.loc 1 1371 9 is_stmt 0 view .LVU1331
 4251 0040 E188     		ldrh	r1, [r4, #6]
 4252              		.loc 1 1373 1 view .LVU1332
 4253 0042 BDE83840 		pop	{r3, r4, r5, lr}
 4254              	.LCFI56:
 4255              		.cfi_restore 14
 4256              		.cfi_restore 5
 4257              		.cfi_restore 4
 4258              		.cfi_restore 3
 4259              		.cfi_def_cfa_offset 0
 4260              	.LVL311:
1371:D:/fchai/work/i-cube/I-CUBE-HUAWEI/Middlewares/Third_Party/Huawei/iot_link/os/liteos/base/core\los_task.c ****     }
 4261              		.loc 1 1371 9 view .LVU1333
 4262 0046 FFF7FEBF 		b	osPriqueueEnqueue
 4263              	.LVL312:
1371:D:/fchai/work/i-cube/I-CUBE-HUAWEI/Middlewares/Third_Party/Huawei/iot_link/os/liteos/base/core\los_task.c ****     }
 4264              		.loc 1 1371 9 view .LVU1334
 4265              		.cfi_endproc
 4266              	.LFE159:
 4268 004a 00BF     		.section	.text.LOS_TaskYield,"ax",%progbits
 4269              		.align	1
 4270              		.p2align 2,,3
 4271              		.global	LOS_TaskYield
 4272              		.syntax unified
 4273              		.thumb
 4274              		.thumb_func
 4275              		.fpu fpv4-sp-d16
 4277              	LOS_TaskYield:
 4278              	.LFB160:
1374:D:/fchai/work/i-cube/I-CUBE-HUAWEI/Middlewares/Third_Party/Huawei/iot_link/os/liteos/base/core\los_task.c **** 
1375:D:/fchai/work/i-cube/I-CUBE-HUAWEI/Middlewares/Third_Party/Huawei/iot_link/os/liteos/base/core\los_task.c **** /*****************************************************************************
1376:D:/fchai/work/i-cube/I-CUBE-HUAWEI/Middlewares/Third_Party/Huawei/iot_link/os/liteos/base/core\los_task.c ****  Function : LOS_TaskYield
1377:D:/fchai/work/i-cube/I-CUBE-HUAWEI/Middlewares/Third_Party/Huawei/iot_link/os/liteos/base/core\los_task.c ****  Description : Adjust the procedure order of specified task
1378:D:/fchai/work/i-cube/I-CUBE-HUAWEI/Middlewares/Third_Party/Huawei/iot_link/os/liteos/base/core\los_task.c ****  Input       : usTaskPrio
1379:D:/fchai/work/i-cube/I-CUBE-HUAWEI/Middlewares/Third_Party/Huawei/iot_link/os/liteos/base/core\los_task.c ****                uwNextTask
1380:D:/fchai/work/i-cube/I-CUBE-HUAWEI/Middlewares/Third_Party/Huawei/iot_link/os/liteos/base/core\los_task.c ****  Output      : None
1381:D:/fchai/work/i-cube/I-CUBE-HUAWEI/Middlewares/Third_Party/Huawei/iot_link/os/liteos/base/core\los_task.c ****  Return      : LOS_OK on success or error code on failure
1382:D:/fchai/work/i-cube/I-CUBE-HUAWEI/Middlewares/Third_Party/Huawei/iot_link/os/liteos/base/core\los_task.c ****  *****************************************************************************/
1383:D:/fchai/work/i-cube/I-CUBE-HUAWEI/Middlewares/Third_Party/Huawei/iot_link/os/liteos/base/core\los_task.c **** LITE_OS_SEC_TEXT_MINOR UINT32 LOS_TaskYield(VOID)
ARM GAS  T:\msys\tmp\ccehPeV4.s 			page 120


1384:D:/fchai/work/i-cube/I-CUBE-HUAWEI/Middlewares/Third_Party/Huawei/iot_link/os/liteos/base/core\los_task.c **** {
 4279              		.loc 1 1384 1 is_stmt 1 view -0
 4280              		.cfi_startproc
 4281              		@ args = 0, pretend = 0, frame = 0
 4282              		@ frame_needed = 0, uses_anonymous_args = 0
1385:D:/fchai/work/i-cube/I-CUBE-HUAWEI/Middlewares/Third_Party/Huawei/iot_link/os/liteos/base/core\los_task.c ****     UINT32 uwTskCount = 0;
 4283              		.loc 1 1385 5 view .LVU1336
 4284              	.LVL313:
1386:D:/fchai/work/i-cube/I-CUBE-HUAWEI/Middlewares/Third_Party/Huawei/iot_link/os/liteos/base/core\los_task.c ****     UINTPTR uvIntSave;
 4285              		.loc 1 1386 5 view .LVU1337
1387:D:/fchai/work/i-cube/I-CUBE-HUAWEI/Middlewares/Third_Party/Huawei/iot_link/os/liteos/base/core\los_task.c **** 
1388:D:/fchai/work/i-cube/I-CUBE-HUAWEI/Middlewares/Third_Party/Huawei/iot_link/os/liteos/base/core\los_task.c ****     if(g_stLosTask.pstRunTask->uwTaskID >= g_uwTskMaxNum)
 4286              		.loc 1 1388 5 view .LVU1338
1384:D:/fchai/work/i-cube/I-CUBE-HUAWEI/Middlewares/Third_Party/Huawei/iot_link/os/liteos/base/core\los_task.c ****     UINT32 uwTskCount = 0;
 4287              		.loc 1 1384 1 is_stmt 0 view .LVU1339
 4288 0000 38B5     		push	{r3, r4, r5, lr}
 4289              	.LCFI57:
 4290              		.cfi_def_cfa_offset 16
 4291              		.cfi_offset 3, -16
 4292              		.cfi_offset 4, -12
 4293              		.cfi_offset 5, -8
 4294              		.cfi_offset 14, -4
 4295              		.loc 1 1388 19 view .LVU1340
 4296 0002 1A4C     		ldr	r4, .L304
 4297              		.loc 1 1388 41 view .LVU1341
 4298 0004 1A4A     		ldr	r2, .L304+4
 4299              		.loc 1 1388 19 view .LVU1342
 4300 0006 2368     		ldr	r3, [r4]
 4301              		.loc 1 1388 7 view .LVU1343
 4302 0008 1268     		ldr	r2, [r2]
 4303 000a 1969     		ldr	r1, [r3, #16]
 4304 000c 9142     		cmp	r1, r2
 4305 000e 25D2     		bcs	.L300
1389:D:/fchai/work/i-cube/I-CUBE-HUAWEI/Middlewares/Third_Party/Huawei/iot_link/os/liteos/base/core\los_task.c ****     {
1390:D:/fchai/work/i-cube/I-CUBE-HUAWEI/Middlewares/Third_Party/Huawei/iot_link/os/liteos/base/core\los_task.c ****         return LOS_ERRNO_TSK_ID_INVALID;
1391:D:/fchai/work/i-cube/I-CUBE-HUAWEI/Middlewares/Third_Party/Huawei/iot_link/os/liteos/base/core\los_task.c ****     }
1392:D:/fchai/work/i-cube/I-CUBE-HUAWEI/Middlewares/Third_Party/Huawei/iot_link/os/liteos/base/core\los_task.c ****     if(!(g_stLosTask.pstRunTask->usTaskStatus & OS_TASK_STATUS_READY))
 4306              		.loc 1 1392 5 is_stmt 1 view .LVU1344
 4307              		.loc 1 1392 7 is_stmt 0 view .LVU1345
 4308 0010 9888     		ldrh	r0, [r3, #4]
 4309 0012 10F00400 		ands	r0, r0, #4
 4310 0016 00D1     		bne	.L303
1393:D:/fchai/work/i-cube/I-CUBE-HUAWEI/Middlewares/Third_Party/Huawei/iot_link/os/liteos/base/core\los_task.c ****     {
1394:D:/fchai/work/i-cube/I-CUBE-HUAWEI/Middlewares/Third_Party/Huawei/iot_link/os/liteos/base/core\los_task.c ****         return LOS_OK;
1395:D:/fchai/work/i-cube/I-CUBE-HUAWEI/Middlewares/Third_Party/Huawei/iot_link/os/liteos/base/core\los_task.c ****     }
1396:D:/fchai/work/i-cube/I-CUBE-HUAWEI/Middlewares/Third_Party/Huawei/iot_link/os/liteos/base/core\los_task.c ****     uvIntSave = LOS_IntLock();
1397:D:/fchai/work/i-cube/I-CUBE-HUAWEI/Middlewares/Third_Party/Huawei/iot_link/os/liteos/base/core\los_task.c ****     uwTskCount = osPriqueueSize(g_stLosTask.pstRunTask->usPriority);
1398:D:/fchai/work/i-cube/I-CUBE-HUAWEI/Middlewares/Third_Party/Huawei/iot_link/os/liteos/base/core\los_task.c ****     if (uwTskCount > 1)
1399:D:/fchai/work/i-cube/I-CUBE-HUAWEI/Middlewares/Third_Party/Huawei/iot_link/os/liteos/base/core\los_task.c ****     {
1400:D:/fchai/work/i-cube/I-CUBE-HUAWEI/Middlewares/Third_Party/Huawei/iot_link/os/liteos/base/core\los_task.c ****         LOS_ListDelete(&(g_stLosTask.pstRunTask->stPendList));
1401:D:/fchai/work/i-cube/I-CUBE-HUAWEI/Middlewares/Third_Party/Huawei/iot_link/os/liteos/base/core\los_task.c ****         g_stLosTask.pstRunTask->usTaskStatus |= OS_TASK_STATUS_READY;
1402:D:/fchai/work/i-cube/I-CUBE-HUAWEI/Middlewares/Third_Party/Huawei/iot_link/os/liteos/base/core\los_task.c ****         osPriqueueEnqueue(&(g_stLosTask.pstRunTask->stPendList), g_stLosTask.pstRunTask->usPriority
1403:D:/fchai/work/i-cube/I-CUBE-HUAWEI/Middlewares/Third_Party/Huawei/iot_link/os/liteos/base/core\los_task.c ****     }
1404:D:/fchai/work/i-cube/I-CUBE-HUAWEI/Middlewares/Third_Party/Huawei/iot_link/os/liteos/base/core\los_task.c ****     else
1405:D:/fchai/work/i-cube/I-CUBE-HUAWEI/Middlewares/Third_Party/Huawei/iot_link/os/liteos/base/core\los_task.c ****     {
1406:D:/fchai/work/i-cube/I-CUBE-HUAWEI/Middlewares/Third_Party/Huawei/iot_link/os/liteos/base/core\los_task.c ****         (VOID)LOS_IntRestore(uvIntSave);
1407:D:/fchai/work/i-cube/I-CUBE-HUAWEI/Middlewares/Third_Party/Huawei/iot_link/os/liteos/base/core\los_task.c ****         return LOS_ERRNO_TSK_YIELD_NOT_ENOUGH_TASK;
ARM GAS  T:\msys\tmp\ccehPeV4.s 			page 121


1408:D:/fchai/work/i-cube/I-CUBE-HUAWEI/Middlewares/Third_Party/Huawei/iot_link/os/liteos/base/core\los_task.c ****     }
1409:D:/fchai/work/i-cube/I-CUBE-HUAWEI/Middlewares/Third_Party/Huawei/iot_link/os/liteos/base/core\los_task.c **** 
1410:D:/fchai/work/i-cube/I-CUBE-HUAWEI/Middlewares/Third_Party/Huawei/iot_link/os/liteos/base/core\los_task.c ****     (VOID)LOS_IntRestore(uvIntSave);
1411:D:/fchai/work/i-cube/I-CUBE-HUAWEI/Middlewares/Third_Party/Huawei/iot_link/os/liteos/base/core\los_task.c ****     LOS_Schedule();
1412:D:/fchai/work/i-cube/I-CUBE-HUAWEI/Middlewares/Third_Party/Huawei/iot_link/os/liteos/base/core\los_task.c ****     return LOS_OK;
1413:D:/fchai/work/i-cube/I-CUBE-HUAWEI/Middlewares/Third_Party/Huawei/iot_link/os/liteos/base/core\los_task.c **** }
 4311              		.loc 1 1413 1 view .LVU1346
 4312 0018 38BD     		pop	{r3, r4, r5, pc}
 4313              	.L303:
 4314              	.LBB292:
 4315              	.LBI292:
1383:D:/fchai/work/i-cube/I-CUBE-HUAWEI/Middlewares/Third_Party/Huawei/iot_link/os/liteos/base/core\los_task.c **** {
 4316              		.loc 1 1383 31 is_stmt 1 view .LVU1347
 4317              	.LBB293:
1396:D:/fchai/work/i-cube/I-CUBE-HUAWEI/Middlewares/Third_Party/Huawei/iot_link/os/liteos/base/core\los_task.c ****     uwTskCount = osPriqueueSize(g_stLosTask.pstRunTask->usPriority);
 4318              		.loc 1 1396 5 view .LVU1348
1396:D:/fchai/work/i-cube/I-CUBE-HUAWEI/Middlewares/Third_Party/Huawei/iot_link/os/liteos/base/core\los_task.c ****     uwTskCount = osPriqueueSize(g_stLosTask.pstRunTask->usPriority);
 4319              		.loc 1 1396 17 is_stmt 0 view .LVU1349
 4320 001a FFF7FEFF 		bl	LOS_IntLock
 4321              	.LVL314:
1397:D:/fchai/work/i-cube/I-CUBE-HUAWEI/Middlewares/Third_Party/Huawei/iot_link/os/liteos/base/core\los_task.c ****     if (uwTskCount > 1)
 4322              		.loc 1 1397 55 view .LVU1350
 4323 001e 2368     		ldr	r3, [r4]
1396:D:/fchai/work/i-cube/I-CUBE-HUAWEI/Middlewares/Third_Party/Huawei/iot_link/os/liteos/base/core\los_task.c ****     uwTskCount = osPriqueueSize(g_stLosTask.pstRunTask->usPriority);
 4324              		.loc 1 1396 17 view .LVU1351
 4325 0020 0546     		mov	r5, r0
1397:D:/fchai/work/i-cube/I-CUBE-HUAWEI/Middlewares/Third_Party/Huawei/iot_link/os/liteos/base/core\los_task.c ****     if (uwTskCount > 1)
 4326              		.loc 1 1397 18 view .LVU1352
 4327 0022 D888     		ldrh	r0, [r3, #6]
 4328              	.LVL315:
1397:D:/fchai/work/i-cube/I-CUBE-HUAWEI/Middlewares/Third_Party/Huawei/iot_link/os/liteos/base/core\los_task.c ****     if (uwTskCount > 1)
 4329              		.loc 1 1397 5 is_stmt 1 view .LVU1353
1397:D:/fchai/work/i-cube/I-CUBE-HUAWEI/Middlewares/Third_Party/Huawei/iot_link/os/liteos/base/core\los_task.c ****     if (uwTskCount > 1)
 4330              		.loc 1 1397 18 is_stmt 0 view .LVU1354
 4331 0024 FFF7FEFF 		bl	osPriqueueSize
 4332              	.LVL316:
1398:D:/fchai/work/i-cube/I-CUBE-HUAWEI/Middlewares/Third_Party/Huawei/iot_link/os/liteos/base/core\los_task.c ****     {
 4333              		.loc 1 1398 5 is_stmt 1 view .LVU1355
1398:D:/fchai/work/i-cube/I-CUBE-HUAWEI/Middlewares/Third_Party/Huawei/iot_link/os/liteos/base/core\los_task.c ****     {
 4334              		.loc 1 1398 8 is_stmt 0 view .LVU1356
 4335 0028 0128     		cmp	r0, #1
 4336 002a 19D9     		bls	.L299
1400:D:/fchai/work/i-cube/I-CUBE-HUAWEI/Middlewares/Third_Party/Huawei/iot_link/os/liteos/base/core\los_task.c ****         g_stLosTask.pstRunTask->usTaskStatus |= OS_TASK_STATUS_READY;
 4337              		.loc 1 1400 9 is_stmt 1 view .LVU1357
1400:D:/fchai/work/i-cube/I-CUBE-HUAWEI/Middlewares/Third_Party/Huawei/iot_link/os/liteos/base/core\los_task.c ****         g_stLosTask.pstRunTask->usTaskStatus |= OS_TASK_STATUS_READY;
 4338              		.loc 1 1400 37 is_stmt 0 view .LVU1358
 4339 002c 2368     		ldr	r3, [r4]
 4340              	.LBB294:
 4341              	.LBI294:
 183:D:/fchai/work/i-cube/I-CUBE-HUAWEI/Middlewares/Third_Party/Huawei/iot_link/os/liteos/include\los_list.h **** {
 4342              		.loc 2 183 43 is_stmt 1 view .LVU1359
 4343              	.LVL317:
 4344              	.LBB295:
 185:D:/fchai/work/i-cube/I-CUBE-HUAWEI/Middlewares/Third_Party/Huawei/iot_link/os/liteos/include\los_list.h ****     pstNode->pstPrev->pstNext = pstNode->pstNext;
 4345              		.loc 2 185 5 view .LVU1360
 185:D:/fchai/work/i-cube/I-CUBE-HUAWEI/Middlewares/Third_Party/Huawei/iot_link/os/liteos/include\los_list.h ****     pstNode->pstPrev->pstNext = pstNode->pstNext;
 4346              		.loc 2 185 40 is_stmt 0 view .LVU1361
ARM GAS  T:\msys\tmp\ccehPeV4.s 			page 122


 4347 002e D3E90A10 		ldrd	r1, r0, [r3, #40]
 4348              	.LVL318:
 185:D:/fchai/work/i-cube/I-CUBE-HUAWEI/Middlewares/Third_Party/Huawei/iot_link/os/liteos/include\los_list.h ****     pstNode->pstPrev->pstNext = pstNode->pstNext;
 4349              		.loc 2 185 40 view .LVU1362
 4350              	.LBE295:
 4351              	.LBE294:
1401:D:/fchai/work/i-cube/I-CUBE-HUAWEI/Middlewares/Third_Party/Huawei/iot_link/os/liteos/base/core\los_task.c ****         osPriqueueEnqueue(&(g_stLosTask.pstRunTask->stPendList), g_stLosTask.pstRunTask->usPriority
 4352              		.loc 1 1401 46 view .LVU1363
 4353 0032 9A88     		ldrh	r2, [r3, #4]
 4354              	.LBB299:
 4355              	.LBB296:
 185:D:/fchai/work/i-cube/I-CUBE-HUAWEI/Middlewares/Third_Party/Huawei/iot_link/os/liteos/include\los_list.h ****     pstNode->pstPrev->pstNext = pstNode->pstNext;
 4356              		.loc 2 185 31 view .LVU1364
 4357 0034 0160     		str	r1, [r0]
 186:D:/fchai/work/i-cube/I-CUBE-HUAWEI/Middlewares/Third_Party/Huawei/iot_link/os/liteos/include\los_list.h ****     pstNode->pstNext = (LOS_DL_LIST *)NULL;
 4358              		.loc 2 186 5 is_stmt 1 view .LVU1365
 4359              	.LBE296:
 4360              	.LBE299:
1401:D:/fchai/work/i-cube/I-CUBE-HUAWEI/Middlewares/Third_Party/Huawei/iot_link/os/liteos/base/core\los_task.c ****         osPriqueueEnqueue(&(g_stLosTask.pstRunTask->stPendList), g_stLosTask.pstRunTask->usPriority
 4361              		.loc 1 1401 46 is_stmt 0 view .LVU1366
 4362 0036 42F00402 		orr	r2, r2, #4
 4363              	.LBB300:
 4364              	.LBB297:
 187:D:/fchai/work/i-cube/I-CUBE-HUAWEI/Middlewares/Third_Party/Huawei/iot_link/os/liteos/include\los_list.h ****     pstNode->pstPrev = (LOS_DL_LIST *)NULL;
 4365              		.loc 2 187 22 view .LVU1367
 4366 003a 0024     		movs	r4, #0
 186:D:/fchai/work/i-cube/I-CUBE-HUAWEI/Middlewares/Third_Party/Huawei/iot_link/os/liteos/include\los_list.h ****     pstNode->pstNext = (LOS_DL_LIST *)NULL;
 4367              		.loc 2 186 31 view .LVU1368
 4368 003c 4860     		str	r0, [r1, #4]
 187:D:/fchai/work/i-cube/I-CUBE-HUAWEI/Middlewares/Third_Party/Huawei/iot_link/os/liteos/include\los_list.h ****     pstNode->pstPrev = (LOS_DL_LIST *)NULL;
 4369              		.loc 2 187 5 is_stmt 1 view .LVU1369
 4370              	.LBE297:
 4371              	.LBE300:
1402:D:/fchai/work/i-cube/I-CUBE-HUAWEI/Middlewares/Third_Party/Huawei/iot_link/os/liteos/base/core\los_task.c ****     }
 4372              		.loc 1 1402 9 is_stmt 0 view .LVU1370
 4373 003e 03F12800 		add	r0, r3, #40
 4374              	.LVL319:
 4375              	.LBB301:
 4376              	.LBB298:
 188:D:/fchai/work/i-cube/I-CUBE-HUAWEI/Middlewares/Third_Party/Huawei/iot_link/os/liteos/include\los_list.h **** }
 4377              		.loc 2 188 22 view .LVU1371
 4378 0042 C3E90A44 		strd	r4, r4, [r3, #40]
 4379              	.LBE298:
 4380              	.LBE301:
1401:D:/fchai/work/i-cube/I-CUBE-HUAWEI/Middlewares/Third_Party/Huawei/iot_link/os/liteos/base/core\los_task.c ****         osPriqueueEnqueue(&(g_stLosTask.pstRunTask->stPendList), g_stLosTask.pstRunTask->usPriority
 4381              		.loc 1 1401 9 is_stmt 1 view .LVU1372
1402:D:/fchai/work/i-cube/I-CUBE-HUAWEI/Middlewares/Third_Party/Huawei/iot_link/os/liteos/base/core\los_task.c ****     }
 4382              		.loc 1 1402 9 view .LVU1373
 4383 0046 D988     		ldrh	r1, [r3, #6]
1401:D:/fchai/work/i-cube/I-CUBE-HUAWEI/Middlewares/Third_Party/Huawei/iot_link/os/liteos/base/core\los_task.c ****         osPriqueueEnqueue(&(g_stLosTask.pstRunTask->stPendList), g_stLosTask.pstRunTask->usPriority
 4384              		.loc 1 1401 46 is_stmt 0 view .LVU1374
 4385 0048 9A80     		strh	r2, [r3, #4]	@ movhi
1402:D:/fchai/work/i-cube/I-CUBE-HUAWEI/Middlewares/Third_Party/Huawei/iot_link/os/liteos/base/core\los_task.c ****     }
 4386              		.loc 1 1402 9 view .LVU1375
 4387 004a FFF7FEFF 		bl	osPriqueueEnqueue
 4388              	.LVL320:
1410:D:/fchai/work/i-cube/I-CUBE-HUAWEI/Middlewares/Third_Party/Huawei/iot_link/os/liteos/base/core\los_task.c ****     LOS_Schedule();
ARM GAS  T:\msys\tmp\ccehPeV4.s 			page 123


 4389              		.loc 1 1410 5 is_stmt 1 view .LVU1376
 4390 004e 2846     		mov	r0, r5
 4391 0050 FFF7FEFF 		bl	LOS_IntRestore
 4392              	.LVL321:
1411:D:/fchai/work/i-cube/I-CUBE-HUAWEI/Middlewares/Third_Party/Huawei/iot_link/os/liteos/base/core\los_task.c ****     return LOS_OK;
 4393              		.loc 1 1411 5 view .LVU1377
 4394 0054 FFF7FEFF 		bl	LOS_Schedule
 4395              	.LVL322:
1412:D:/fchai/work/i-cube/I-CUBE-HUAWEI/Middlewares/Third_Party/Huawei/iot_link/os/liteos/base/core\los_task.c **** }
 4396              		.loc 1 1412 5 view .LVU1378
1412:D:/fchai/work/i-cube/I-CUBE-HUAWEI/Middlewares/Third_Party/Huawei/iot_link/os/liteos/base/core\los_task.c **** }
 4397              		.loc 1 1412 12 is_stmt 0 view .LVU1379
 4398 0058 2046     		mov	r0, r4
 4399              	.LBE293:
 4400              	.LBE292:
 4401              		.loc 1 1413 1 view .LVU1380
 4402 005a 38BD     		pop	{r3, r4, r5, pc}
 4403              	.LVL323:
 4404              	.L300:
1390:D:/fchai/work/i-cube/I-CUBE-HUAWEI/Middlewares/Third_Party/Huawei/iot_link/os/liteos/base/core\los_task.c ****     }
 4405              		.loc 1 1390 16 view .LVU1381
 4406 005c 0548     		ldr	r0, .L304+8
 4407              		.loc 1 1413 1 view .LVU1382
 4408 005e 38BD     		pop	{r3, r4, r5, pc}
 4409              	.LVL324:
 4410              	.L299:
 4411              	.LBB303:
 4412              	.LBB302:
1406:D:/fchai/work/i-cube/I-CUBE-HUAWEI/Middlewares/Third_Party/Huawei/iot_link/os/liteos/base/core\los_task.c ****         return LOS_ERRNO_TSK_YIELD_NOT_ENOUGH_TASK;
 4413              		.loc 1 1406 9 is_stmt 1 view .LVU1383
 4414 0060 2846     		mov	r0, r5
 4415              	.LVL325:
1406:D:/fchai/work/i-cube/I-CUBE-HUAWEI/Middlewares/Third_Party/Huawei/iot_link/os/liteos/base/core\los_task.c ****         return LOS_ERRNO_TSK_YIELD_NOT_ENOUGH_TASK;
 4416              		.loc 1 1406 9 is_stmt 0 view .LVU1384
 4417 0062 FFF7FEFF 		bl	LOS_IntRestore
 4418              	.LVL326:
1407:D:/fchai/work/i-cube/I-CUBE-HUAWEI/Middlewares/Third_Party/Huawei/iot_link/os/liteos/base/core\los_task.c ****     }
 4419              		.loc 1 1407 9 is_stmt 1 view .LVU1385
1407:D:/fchai/work/i-cube/I-CUBE-HUAWEI/Middlewares/Third_Party/Huawei/iot_link/os/liteos/base/core\los_task.c ****     }
 4420              		.loc 1 1407 16 is_stmt 0 view .LVU1386
 4421 0066 0448     		ldr	r0, .L304+12
 4422              	.LBE302:
 4423              	.LBE303:
 4424              		.loc 1 1413 1 view .LVU1387
 4425 0068 38BD     		pop	{r3, r4, r5, pc}
 4426              	.LVL327:
 4427              	.L305:
 4428              		.loc 1 1413 1 view .LVU1388
 4429 006a 00BF     		.align	2
 4430              	.L304:
 4431 006c 00000000 		.word	g_stLosTask
 4432 0070 00000000 		.word	g_uwTskMaxNum
 4433 0074 07020002 		.word	33554951
 4434 0078 10020002 		.word	33554960
 4435              		.cfi_endproc
 4436              	.LFE160:
 4438              		.section	.text.LOS_TaskDelay,"ax",%progbits
ARM GAS  T:\msys\tmp\ccehPeV4.s 			page 124


 4439              		.align	1
 4440              		.p2align 2,,3
 4441              		.global	LOS_TaskDelay
 4442              		.syntax unified
 4443              		.thumb
 4444              		.thumb_func
 4445              		.fpu fpv4-sp-d16
 4447              	LOS_TaskDelay:
 4448              	.LVL328:
 4449              	.LFB154:
1180:D:/fchai/work/i-cube/I-CUBE-HUAWEI/Middlewares/Third_Party/Huawei/iot_link/os/liteos/base/core\los_task.c ****     UINTPTR uvIntSave;
 4450              		.loc 1 1180 1 is_stmt 1 view -0
 4451              		.cfi_startproc
 4452              		@ args = 0, pretend = 0, frame = 0
 4453              		@ frame_needed = 0, uses_anonymous_args = 0
1181:D:/fchai/work/i-cube/I-CUBE-HUAWEI/Middlewares/Third_Party/Huawei/iot_link/os/liteos/base/core\los_task.c **** 
 4454              		.loc 1 1181 5 view .LVU1390
1183:D:/fchai/work/i-cube/I-CUBE-HUAWEI/Middlewares/Third_Party/Huawei/iot_link/os/liteos/base/core\los_task.c ****     {
 4455              		.loc 1 1183 5 view .LVU1391
1180:D:/fchai/work/i-cube/I-CUBE-HUAWEI/Middlewares/Third_Party/Huawei/iot_link/os/liteos/base/core\los_task.c ****     UINTPTR uvIntSave;
 4456              		.loc 1 1180 1 is_stmt 0 view .LVU1392
 4457 0000 F8B5     		push	{r3, r4, r5, r6, r7, lr}
 4458              	.LCFI58:
 4459              		.cfi_def_cfa_offset 24
 4460              		.cfi_offset 3, -24
 4461              		.cfi_offset 4, -20
 4462              		.cfi_offset 5, -16
 4463              		.cfi_offset 6, -12
 4464              		.cfi_offset 7, -8
 4465              		.cfi_offset 14, -4
1183:D:/fchai/work/i-cube/I-CUBE-HUAWEI/Middlewares/Third_Party/Huawei/iot_link/os/liteos/base/core\los_task.c ****     {
 4466              		.loc 1 1183 9 view .LVU1393
 4467 0002 174B     		ldr	r3, .L313
 4468 0004 1D68     		ldr	r5, [r3]
1183:D:/fchai/work/i-cube/I-CUBE-HUAWEI/Middlewares/Third_Party/Huawei/iot_link/os/liteos/base/core\los_task.c ****     {
 4469              		.loc 1 1183 8 view .LVU1394
 4470 0006 25BB     		cbnz	r5, .L309
1188:D:/fchai/work/i-cube/I-CUBE-HUAWEI/Middlewares/Third_Party/Huawei/iot_link/os/liteos/base/core\los_task.c ****     {
 4471              		.loc 1 1188 5 is_stmt 1 view .LVU1395
1188:D:/fchai/work/i-cube/I-CUBE-HUAWEI/Middlewares/Third_Party/Huawei/iot_link/os/liteos/base/core\los_task.c ****     {
 4472              		.loc 1 1188 25 is_stmt 0 view .LVU1396
 4473 0008 164B     		ldr	r3, .L313+4
1188:D:/fchai/work/i-cube/I-CUBE-HUAWEI/Middlewares/Third_Party/Huawei/iot_link/os/liteos/base/core\los_task.c ****     {
 4474              		.loc 1 1188 8 view .LVU1397
 4475 000a 1B88     		ldrh	r3, [r3]
 4476 000c 23BB     		cbnz	r3, .L310
1193:D:/fchai/work/i-cube/I-CUBE-HUAWEI/Middlewares/Third_Party/Huawei/iot_link/os/liteos/base/core\los_task.c ****     {
 4477              		.loc 1 1193 5 is_stmt 1 view .LVU1398
 4478 000e 0446     		mov	r4, r0
1193:D:/fchai/work/i-cube/I-CUBE-HUAWEI/Middlewares/Third_Party/Huawei/iot_link/os/liteos/base/core\los_task.c ****     {
 4479              		.loc 1 1193 8 is_stmt 0 view .LVU1399
 4480 0010 D8B1     		cbz	r0, .L312
1199:D:/fchai/work/i-cube/I-CUBE-HUAWEI/Middlewares/Third_Party/Huawei/iot_link/os/liteos/base/core\los_task.c ****         osPriqueueDequeue(&(g_stLosTask.pstRunTask->stPendList));
 4481              		.loc 1 1199 9 is_stmt 1 view .LVU1400
1199:D:/fchai/work/i-cube/I-CUBE-HUAWEI/Middlewares/Third_Party/Huawei/iot_link/os/liteos/base/core\los_task.c ****         osPriqueueDequeue(&(g_stLosTask.pstRunTask->stPendList));
 4482              		.loc 1 1199 21 is_stmt 0 view .LVU1401
 4483 0012 FFF7FEFF 		bl	LOS_IntLock
ARM GAS  T:\msys\tmp\ccehPeV4.s 			page 125


 4484              	.LVL329:
1200:D:/fchai/work/i-cube/I-CUBE-HUAWEI/Middlewares/Third_Party/Huawei/iot_link/os/liteos/base/core\los_task.c ****         g_stLosTask.pstRunTask->usTaskStatus &= (~OS_TASK_STATUS_READY);
 4485              		.loc 1 1200 40 view .LVU1402
 4486 0016 144F     		ldr	r7, .L313+8
1199:D:/fchai/work/i-cube/I-CUBE-HUAWEI/Middlewares/Third_Party/Huawei/iot_link/os/liteos/base/core\los_task.c ****         osPriqueueDequeue(&(g_stLosTask.pstRunTask->stPendList));
 4487              		.loc 1 1199 21 view .LVU1403
 4488 0018 0646     		mov	r6, r0
1200:D:/fchai/work/i-cube/I-CUBE-HUAWEI/Middlewares/Third_Party/Huawei/iot_link/os/liteos/base/core\los_task.c ****         g_stLosTask.pstRunTask->usTaskStatus &= (~OS_TASK_STATUS_READY);
 4489              		.loc 1 1200 9 view .LVU1404
 4490 001a 3868     		ldr	r0, [r7]
 4491 001c 2830     		adds	r0, r0, #40
 4492              	.LVL330:
1200:D:/fchai/work/i-cube/I-CUBE-HUAWEI/Middlewares/Third_Party/Huawei/iot_link/os/liteos/base/core\los_task.c ****         g_stLosTask.pstRunTask->usTaskStatus &= (~OS_TASK_STATUS_READY);
 4493              		.loc 1 1200 9 is_stmt 1 view .LVU1405
 4494 001e FFF7FEFF 		bl	osPriqueueDequeue
 4495              	.LVL331:
1201:D:/fchai/work/i-cube/I-CUBE-HUAWEI/Middlewares/Third_Party/Huawei/iot_link/os/liteos/base/core\los_task.c ****         osTaskAdd2TimerList((LOS_TASK_CB *)g_stLosTask.pstRunTask, uwTick);
 4496              		.loc 1 1201 9 view .LVU1406
1201:D:/fchai/work/i-cube/I-CUBE-HUAWEI/Middlewares/Third_Party/Huawei/iot_link/os/liteos/base/core\los_task.c ****         osTaskAdd2TimerList((LOS_TASK_CB *)g_stLosTask.pstRunTask, uwTick);
 4497              		.loc 1 1201 20 is_stmt 0 view .LVU1407
 4498 0022 3868     		ldr	r0, [r7]
1201:D:/fchai/work/i-cube/I-CUBE-HUAWEI/Middlewares/Third_Party/Huawei/iot_link/os/liteos/base/core\los_task.c ****         osTaskAdd2TimerList((LOS_TASK_CB *)g_stLosTask.pstRunTask, uwTick);
 4499              		.loc 1 1201 46 view .LVU1408
 4500 0024 8388     		ldrh	r3, [r0, #4]
 4501 0026 23F00403 		bic	r3, r3, #4
1202:D:/fchai/work/i-cube/I-CUBE-HUAWEI/Middlewares/Third_Party/Huawei/iot_link/os/liteos/base/core\los_task.c ****         g_stLosTask.pstRunTask->usTaskStatus |= OS_TASK_STATUS_DELAY;
 4502              		.loc 1 1202 9 view .LVU1409
 4503 002a 2146     		mov	r1, r4
1201:D:/fchai/work/i-cube/I-CUBE-HUAWEI/Middlewares/Third_Party/Huawei/iot_link/os/liteos/base/core\los_task.c ****         osTaskAdd2TimerList((LOS_TASK_CB *)g_stLosTask.pstRunTask, uwTick);
 4504              		.loc 1 1201 46 view .LVU1410
 4505 002c 8380     		strh	r3, [r0, #4]	@ movhi
1202:D:/fchai/work/i-cube/I-CUBE-HUAWEI/Middlewares/Third_Party/Huawei/iot_link/os/liteos/base/core\los_task.c ****         g_stLosTask.pstRunTask->usTaskStatus |= OS_TASK_STATUS_DELAY;
 4506              		.loc 1 1202 9 is_stmt 1 view .LVU1411
 4507 002e FFF7FEFF 		bl	osTaskAdd2TimerList
 4508              	.LVL332:
1203:D:/fchai/work/i-cube/I-CUBE-HUAWEI/Middlewares/Third_Party/Huawei/iot_link/os/liteos/base/core\los_task.c ****         (VOID)LOS_IntRestore(uvIntSave);
 4509              		.loc 1 1203 9 view .LVU1412
1203:D:/fchai/work/i-cube/I-CUBE-HUAWEI/Middlewares/Third_Party/Huawei/iot_link/os/liteos/base/core\los_task.c ****         (VOID)LOS_IntRestore(uvIntSave);
 4510              		.loc 1 1203 20 is_stmt 0 view .LVU1413
 4511 0032 3A68     		ldr	r2, [r7]
1203:D:/fchai/work/i-cube/I-CUBE-HUAWEI/Middlewares/Third_Party/Huawei/iot_link/os/liteos/base/core\los_task.c ****         (VOID)LOS_IntRestore(uvIntSave);
 4512              		.loc 1 1203 46 view .LVU1414
 4513 0034 9388     		ldrh	r3, [r2, #4]
 4514 0036 43F02003 		orr	r3, r3, #32
1204:D:/fchai/work/i-cube/I-CUBE-HUAWEI/Middlewares/Third_Party/Huawei/iot_link/os/liteos/base/core\los_task.c ****         LOS_Schedule();
 4515              		.loc 1 1204 9 view .LVU1415
 4516 003a 3046     		mov	r0, r6
1203:D:/fchai/work/i-cube/I-CUBE-HUAWEI/Middlewares/Third_Party/Huawei/iot_link/os/liteos/base/core\los_task.c ****         (VOID)LOS_IntRestore(uvIntSave);
 4517              		.loc 1 1203 46 view .LVU1416
 4518 003c 9380     		strh	r3, [r2, #4]	@ movhi
1204:D:/fchai/work/i-cube/I-CUBE-HUAWEI/Middlewares/Third_Party/Huawei/iot_link/os/liteos/base/core\los_task.c ****         LOS_Schedule();
 4519              		.loc 1 1204 9 is_stmt 1 view .LVU1417
 4520 003e FFF7FEFF 		bl	LOS_IntRestore
 4521              	.LVL333:
1205:D:/fchai/work/i-cube/I-CUBE-HUAWEI/Middlewares/Third_Party/Huawei/iot_link/os/liteos/base/core\los_task.c ****     }
 4522              		.loc 1 1205 9 view .LVU1418
 4523 0042 FFF7FEFF 		bl	LOS_Schedule
ARM GAS  T:\msys\tmp\ccehPeV4.s 			page 126


 4524              	.LVL334:
1208:D:/fchai/work/i-cube/I-CUBE-HUAWEI/Middlewares/Third_Party/Huawei/iot_link/os/liteos/base/core\los_task.c **** }
 4525              		.loc 1 1208 5 view .LVU1419
1209:D:/fchai/work/i-cube/I-CUBE-HUAWEI/Middlewares/Third_Party/Huawei/iot_link/os/liteos/base/core\los_task.c **** 
 4526              		.loc 1 1209 1 is_stmt 0 view .LVU1420
 4527 0046 2846     		mov	r0, r5
 4528 0048 F8BD     		pop	{r3, r4, r5, r6, r7, pc}
 4529              	.LVL335:
 4530              	.L312:
1195:D:/fchai/work/i-cube/I-CUBE-HUAWEI/Middlewares/Third_Party/Huawei/iot_link/os/liteos/base/core\los_task.c ****     }
 4531              		.loc 1 1195 9 is_stmt 1 view .LVU1421
1209:D:/fchai/work/i-cube/I-CUBE-HUAWEI/Middlewares/Third_Party/Huawei/iot_link/os/liteos/base/core\los_task.c **** 
 4532              		.loc 1 1209 1 is_stmt 0 view .LVU1422
 4533 004a BDE8F840 		pop	{r3, r4, r5, r6, r7, lr}
 4534              	.LCFI59:
 4535              		.cfi_remember_state
 4536              		.cfi_restore 14
 4537              		.cfi_restore 7
 4538              		.cfi_restore 6
 4539              		.cfi_restore 5
 4540              		.cfi_restore 4
 4541              		.cfi_restore 3
 4542              		.cfi_def_cfa_offset 0
1195:D:/fchai/work/i-cube/I-CUBE-HUAWEI/Middlewares/Third_Party/Huawei/iot_link/os/liteos/base/core\los_task.c ****     }
 4543              		.loc 1 1195 16 view .LVU1423
 4544 004e FFF7FEBF 		b	LOS_TaskYield
 4545              	.LVL336:
 4546              	.L309:
 4547              	.LCFI60:
 4548              		.cfi_restore_state
1185:D:/fchai/work/i-cube/I-CUBE-HUAWEI/Middlewares/Third_Party/Huawei/iot_link/os/liteos/base/core\los_task.c ****     }
 4549              		.loc 1 1185 16 view .LVU1424
 4550 0052 064D     		ldr	r5, .L313+12
1209:D:/fchai/work/i-cube/I-CUBE-HUAWEI/Middlewares/Third_Party/Huawei/iot_link/os/liteos/base/core\los_task.c **** 
 4551              		.loc 1 1209 1 view .LVU1425
 4552 0054 2846     		mov	r0, r5
 4553              	.LVL337:
1209:D:/fchai/work/i-cube/I-CUBE-HUAWEI/Middlewares/Third_Party/Huawei/iot_link/os/liteos/base/core\los_task.c **** 
 4554              		.loc 1 1209 1 view .LVU1426
 4555 0056 F8BD     		pop	{r3, r4, r5, r6, r7, pc}
 4556              	.LVL338:
 4557              	.L310:
1190:D:/fchai/work/i-cube/I-CUBE-HUAWEI/Middlewares/Third_Party/Huawei/iot_link/os/liteos/base/core\los_task.c ****     }
 4558              		.loc 1 1190 16 view .LVU1427
 4559 0058 054D     		ldr	r5, .L313+16
1209:D:/fchai/work/i-cube/I-CUBE-HUAWEI/Middlewares/Third_Party/Huawei/iot_link/os/liteos/base/core\los_task.c **** 
 4560              		.loc 1 1209 1 view .LVU1428
 4561 005a 2846     		mov	r0, r5
 4562              	.LVL339:
1209:D:/fchai/work/i-cube/I-CUBE-HUAWEI/Middlewares/Third_Party/Huawei/iot_link/os/liteos/base/core\los_task.c **** 
 4563              		.loc 1 1209 1 view .LVU1429
 4564 005c F8BD     		pop	{r3, r4, r5, r6, r7, pc}
 4565              	.L314:
 4566 005e 00BF     		.align	2
 4567              	.L313:
 4568 0060 00000000 		.word	g_vuwIntCount
 4569 0064 00000000 		.word	g_usLosTaskLock
ARM GAS  T:\msys\tmp\ccehPeV4.s 			page 127


 4570 0068 00000000 		.word	g_stLosTask
 4571 006c 0D020003 		.word	50332173
 4572 0070 0E020002 		.word	33554958
 4573              		.cfi_endproc
 4574              	.LFE154:
 4576              		.section	.text.LOS_TaskLock,"ax",%progbits
 4577              		.align	1
 4578              		.p2align 2,,3
 4579              		.global	LOS_TaskLock
 4580              		.syntax unified
 4581              		.thumb
 4582              		.thumb_func
 4583              		.fpu fpv4-sp-d16
 4585              	LOS_TaskLock:
 4586              	.LFB161:
1414:D:/fchai/work/i-cube/I-CUBE-HUAWEI/Middlewares/Third_Party/Huawei/iot_link/os/liteos/base/core\los_task.c **** 
1415:D:/fchai/work/i-cube/I-CUBE-HUAWEI/Middlewares/Third_Party/Huawei/iot_link/os/liteos/base/core\los_task.c **** /*****************************************************************************
1416:D:/fchai/work/i-cube/I-CUBE-HUAWEI/Middlewares/Third_Party/Huawei/iot_link/os/liteos/base/core\los_task.c ****  Function : LOS_TaskLock
1417:D:/fchai/work/i-cube/I-CUBE-HUAWEI/Middlewares/Third_Party/Huawei/iot_link/os/liteos/base/core\los_task.c ****  Description : Task lock
1418:D:/fchai/work/i-cube/I-CUBE-HUAWEI/Middlewares/Third_Party/Huawei/iot_link/os/liteos/base/core\los_task.c ****  Input       : None
1419:D:/fchai/work/i-cube/I-CUBE-HUAWEI/Middlewares/Third_Party/Huawei/iot_link/os/liteos/base/core\los_task.c ****  Output      : None
1420:D:/fchai/work/i-cube/I-CUBE-HUAWEI/Middlewares/Third_Party/Huawei/iot_link/os/liteos/base/core\los_task.c ****  Return      : None
1421:D:/fchai/work/i-cube/I-CUBE-HUAWEI/Middlewares/Third_Party/Huawei/iot_link/os/liteos/base/core\los_task.c ****  *****************************************************************************/
1422:D:/fchai/work/i-cube/I-CUBE-HUAWEI/Middlewares/Third_Party/Huawei/iot_link/os/liteos/base/core\los_task.c **** LITE_OS_SEC_TEXT_MINOR VOID LOS_TaskLock(VOID)
1423:D:/fchai/work/i-cube/I-CUBE-HUAWEI/Middlewares/Third_Party/Huawei/iot_link/os/liteos/base/core\los_task.c **** {
 4587              		.loc 1 1423 1 is_stmt 1 view -0
 4588              		.cfi_startproc
 4589              		@ args = 0, pretend = 0, frame = 0
 4590              		@ frame_needed = 0, uses_anonymous_args = 0
1424:D:/fchai/work/i-cube/I-CUBE-HUAWEI/Middlewares/Third_Party/Huawei/iot_link/os/liteos/base/core\los_task.c ****     UINTPTR uvIntSave;
 4591              		.loc 1 1424 5 view .LVU1431
1425:D:/fchai/work/i-cube/I-CUBE-HUAWEI/Middlewares/Third_Party/Huawei/iot_link/os/liteos/base/core\los_task.c **** 
1426:D:/fchai/work/i-cube/I-CUBE-HUAWEI/Middlewares/Third_Party/Huawei/iot_link/os/liteos/base/core\los_task.c ****     uvIntSave = LOS_IntLock();
 4592              		.loc 1 1426 5 view .LVU1432
1423:D:/fchai/work/i-cube/I-CUBE-HUAWEI/Middlewares/Third_Party/Huawei/iot_link/os/liteos/base/core\los_task.c ****     UINTPTR uvIntSave;
 4593              		.loc 1 1423 1 is_stmt 0 view .LVU1433
 4594 0000 08B5     		push	{r3, lr}
 4595              	.LCFI61:
 4596              		.cfi_def_cfa_offset 8
 4597              		.cfi_offset 3, -8
 4598              		.cfi_offset 14, -4
 4599              		.loc 1 1426 17 view .LVU1434
 4600 0002 FFF7FEFF 		bl	LOS_IntLock
 4601              	.LVL340:
1427:D:/fchai/work/i-cube/I-CUBE-HUAWEI/Middlewares/Third_Party/Huawei/iot_link/os/liteos/base/core\los_task.c ****     g_usLosTaskLock++;
 4602              		.loc 1 1427 5 is_stmt 1 view .LVU1435
 4603              		.loc 1 1427 20 is_stmt 0 view .LVU1436
 4604 0006 044A     		ldr	r2, .L317
 4605 0008 1388     		ldrh	r3, [r2]
 4606 000a 0133     		adds	r3, r3, #1
 4607 000c 1380     		strh	r3, [r2]	@ movhi
1428:D:/fchai/work/i-cube/I-CUBE-HUAWEI/Middlewares/Third_Party/Huawei/iot_link/os/liteos/base/core\los_task.c ****     (VOID)LOS_IntRestore(uvIntSave);
 4608              		.loc 1 1428 5 is_stmt 1 view .LVU1437
1429:D:/fchai/work/i-cube/I-CUBE-HUAWEI/Middlewares/Third_Party/Huawei/iot_link/os/liteos/base/core\los_task.c **** }
 4609              		.loc 1 1429 1 is_stmt 0 view .LVU1438
 4610 000e BDE80840 		pop	{r3, lr}
 4611              	.LCFI62:
ARM GAS  T:\msys\tmp\ccehPeV4.s 			page 128


 4612              		.cfi_restore 14
 4613              		.cfi_restore 3
 4614              		.cfi_def_cfa_offset 0
1428:D:/fchai/work/i-cube/I-CUBE-HUAWEI/Middlewares/Third_Party/Huawei/iot_link/os/liteos/base/core\los_task.c ****     (VOID)LOS_IntRestore(uvIntSave);
 4615              		.loc 1 1428 5 view .LVU1439
 4616 0012 FFF7FEBF 		b	LOS_IntRestore
 4617              	.LVL341:
 4618              	.L318:
1428:D:/fchai/work/i-cube/I-CUBE-HUAWEI/Middlewares/Third_Party/Huawei/iot_link/os/liteos/base/core\los_task.c ****     (VOID)LOS_IntRestore(uvIntSave);
 4619              		.loc 1 1428 5 view .LVU1440
 4620 0016 00BF     		.align	2
 4621              	.L317:
 4622 0018 00000000 		.word	g_usLosTaskLock
 4623              		.cfi_endproc
 4624              	.LFE161:
 4626              		.section	.text.LOS_TaskUnlock,"ax",%progbits
 4627              		.align	1
 4628              		.p2align 2,,3
 4629              		.global	LOS_TaskUnlock
 4630              		.syntax unified
 4631              		.thumb
 4632              		.thumb_func
 4633              		.fpu fpv4-sp-d16
 4635              	LOS_TaskUnlock:
 4636              	.LFB162:
1430:D:/fchai/work/i-cube/I-CUBE-HUAWEI/Middlewares/Third_Party/Huawei/iot_link/os/liteos/base/core\los_task.c **** 
1431:D:/fchai/work/i-cube/I-CUBE-HUAWEI/Middlewares/Third_Party/Huawei/iot_link/os/liteos/base/core\los_task.c **** /*****************************************************************************
1432:D:/fchai/work/i-cube/I-CUBE-HUAWEI/Middlewares/Third_Party/Huawei/iot_link/os/liteos/base/core\los_task.c ****  Function : LOS_TaskUnlock
1433:D:/fchai/work/i-cube/I-CUBE-HUAWEI/Middlewares/Third_Party/Huawei/iot_link/os/liteos/base/core\los_task.c ****  Description : Task unlock
1434:D:/fchai/work/i-cube/I-CUBE-HUAWEI/Middlewares/Third_Party/Huawei/iot_link/os/liteos/base/core\los_task.c ****  Input       : None
1435:D:/fchai/work/i-cube/I-CUBE-HUAWEI/Middlewares/Third_Party/Huawei/iot_link/os/liteos/base/core\los_task.c ****  Output      : None
1436:D:/fchai/work/i-cube/I-CUBE-HUAWEI/Middlewares/Third_Party/Huawei/iot_link/os/liteos/base/core\los_task.c ****  Return      : None
1437:D:/fchai/work/i-cube/I-CUBE-HUAWEI/Middlewares/Third_Party/Huawei/iot_link/os/liteos/base/core\los_task.c ****  *****************************************************************************/
1438:D:/fchai/work/i-cube/I-CUBE-HUAWEI/Middlewares/Third_Party/Huawei/iot_link/os/liteos/base/core\los_task.c **** LITE_OS_SEC_TEXT_MINOR VOID LOS_TaskUnlock(VOID)
1439:D:/fchai/work/i-cube/I-CUBE-HUAWEI/Middlewares/Third_Party/Huawei/iot_link/os/liteos/base/core\los_task.c **** {
 4637              		.loc 1 1439 1 is_stmt 1 view -0
 4638              		.cfi_startproc
 4639              		@ args = 0, pretend = 0, frame = 0
 4640              		@ frame_needed = 0, uses_anonymous_args = 0
1440:D:/fchai/work/i-cube/I-CUBE-HUAWEI/Middlewares/Third_Party/Huawei/iot_link/os/liteos/base/core\los_task.c ****     UINTPTR uvIntSave;
 4641              		.loc 1 1440 5 view .LVU1442
1441:D:/fchai/work/i-cube/I-CUBE-HUAWEI/Middlewares/Third_Party/Huawei/iot_link/os/liteos/base/core\los_task.c **** 
1442:D:/fchai/work/i-cube/I-CUBE-HUAWEI/Middlewares/Third_Party/Huawei/iot_link/os/liteos/base/core\los_task.c ****     uvIntSave = LOS_IntLock();
 4642              		.loc 1 1442 5 view .LVU1443
1439:D:/fchai/work/i-cube/I-CUBE-HUAWEI/Middlewares/Third_Party/Huawei/iot_link/os/liteos/base/core\los_task.c ****     UINTPTR uvIntSave;
 4643              		.loc 1 1439 1 is_stmt 0 view .LVU1444
 4644 0000 08B5     		push	{r3, lr}
 4645              	.LCFI63:
 4646              		.cfi_def_cfa_offset 8
 4647              		.cfi_offset 3, -8
 4648              		.cfi_offset 14, -4
 4649              		.loc 1 1442 17 view .LVU1445
 4650 0002 FFF7FEFF 		bl	LOS_IntLock
 4651              	.LVL342:
1443:D:/fchai/work/i-cube/I-CUBE-HUAWEI/Middlewares/Third_Party/Huawei/iot_link/os/liteos/base/core\los_task.c ****     if (g_usLosTaskLock > 0)
 4652              		.loc 1 1443 25 view .LVU1446
 4653 0006 0949     		ldr	r1, .L326
ARM GAS  T:\msys\tmp\ccehPeV4.s 			page 129


 4654 0008 0B88     		ldrh	r3, [r1]
1442:D:/fchai/work/i-cube/I-CUBE-HUAWEI/Middlewares/Third_Party/Huawei/iot_link/os/liteos/base/core\los_task.c ****     if (g_usLosTaskLock > 0)
 4655              		.loc 1 1442 17 view .LVU1447
 4656 000a 0246     		mov	r2, r0
 4657              	.LVL343:
 4658              		.loc 1 1443 5 is_stmt 1 view .LVU1448
 4659              		.loc 1 1443 8 is_stmt 0 view .LVU1449
 4660 000c 1BB1     		cbz	r3, .L320
1444:D:/fchai/work/i-cube/I-CUBE-HUAWEI/Middlewares/Third_Party/Huawei/iot_link/os/liteos/base/core\los_task.c ****     {
1445:D:/fchai/work/i-cube/I-CUBE-HUAWEI/Middlewares/Third_Party/Huawei/iot_link/os/liteos/base/core\los_task.c ****         g_usLosTaskLock--;
 4661              		.loc 1 1445 9 is_stmt 1 view .LVU1450
 4662              		.loc 1 1445 24 is_stmt 0 view .LVU1451
 4663 000e 013B     		subs	r3, r3, #1
 4664 0010 9BB2     		uxth	r3, r3
 4665 0012 0B80     		strh	r3, [r1]	@ movhi
1446:D:/fchai/work/i-cube/I-CUBE-HUAWEI/Middlewares/Third_Party/Huawei/iot_link/os/liteos/base/core\los_task.c ****         if (0 == g_usLosTaskLock)
 4666              		.loc 1 1446 9 is_stmt 1 view .LVU1452
 4667              		.loc 1 1446 12 is_stmt 0 view .LVU1453
 4668 0014 23B1     		cbz	r3, .L325
 4669              	.L320:
1447:D:/fchai/work/i-cube/I-CUBE-HUAWEI/Middlewares/Third_Party/Huawei/iot_link/os/liteos/base/core\los_task.c ****         {
1448:D:/fchai/work/i-cube/I-CUBE-HUAWEI/Middlewares/Third_Party/Huawei/iot_link/os/liteos/base/core\los_task.c ****             (VOID)LOS_IntRestore(uvIntSave);
1449:D:/fchai/work/i-cube/I-CUBE-HUAWEI/Middlewares/Third_Party/Huawei/iot_link/os/liteos/base/core\los_task.c ****             LOS_Schedule();
1450:D:/fchai/work/i-cube/I-CUBE-HUAWEI/Middlewares/Third_Party/Huawei/iot_link/os/liteos/base/core\los_task.c ****             return;
1451:D:/fchai/work/i-cube/I-CUBE-HUAWEI/Middlewares/Third_Party/Huawei/iot_link/os/liteos/base/core\los_task.c ****         }
1452:D:/fchai/work/i-cube/I-CUBE-HUAWEI/Middlewares/Third_Party/Huawei/iot_link/os/liteos/base/core\los_task.c ****     }
1453:D:/fchai/work/i-cube/I-CUBE-HUAWEI/Middlewares/Third_Party/Huawei/iot_link/os/liteos/base/core\los_task.c **** 
1454:D:/fchai/work/i-cube/I-CUBE-HUAWEI/Middlewares/Third_Party/Huawei/iot_link/os/liteos/base/core\los_task.c ****     (VOID)LOS_IntRestore(uvIntSave);
 4670              		.loc 1 1454 5 is_stmt 1 view .LVU1454
1455:D:/fchai/work/i-cube/I-CUBE-HUAWEI/Middlewares/Third_Party/Huawei/iot_link/os/liteos/base/core\los_task.c **** }
 4671              		.loc 1 1455 1 is_stmt 0 view .LVU1455
 4672 0016 BDE80840 		pop	{r3, lr}
 4673              	.LCFI64:
 4674              		.cfi_remember_state
 4675              		.cfi_restore 14
 4676              		.cfi_restore 3
 4677              		.cfi_def_cfa_offset 0
1454:D:/fchai/work/i-cube/I-CUBE-HUAWEI/Middlewares/Third_Party/Huawei/iot_link/os/liteos/base/core\los_task.c **** }
 4678              		.loc 1 1454 5 view .LVU1456
 4679 001a 1046     		mov	r0, r2
 4680              	.LVL344:
1454:D:/fchai/work/i-cube/I-CUBE-HUAWEI/Middlewares/Third_Party/Huawei/iot_link/os/liteos/base/core\los_task.c **** }
 4681              		.loc 1 1454 5 view .LVU1457
 4682 001c FFF7FEBF 		b	LOS_IntRestore
 4683              	.LVL345:
 4684              	.L325:
 4685              	.LCFI65:
 4686              		.cfi_restore_state
1448:D:/fchai/work/i-cube/I-CUBE-HUAWEI/Middlewares/Third_Party/Huawei/iot_link/os/liteos/base/core\los_task.c ****             LOS_Schedule();
 4687              		.loc 1 1448 13 is_stmt 1 view .LVU1458
 4688 0020 FFF7FEFF 		bl	LOS_IntRestore
 4689              	.LVL346:
1449:D:/fchai/work/i-cube/I-CUBE-HUAWEI/Middlewares/Third_Party/Huawei/iot_link/os/liteos/base/core\los_task.c ****             return;
 4690              		.loc 1 1449 13 view .LVU1459
 4691              		.loc 1 1455 1 is_stmt 0 view .LVU1460
 4692 0024 BDE80840 		pop	{r3, lr}
 4693              	.LCFI66:
ARM GAS  T:\msys\tmp\ccehPeV4.s 			page 130


 4694              		.cfi_restore 14
 4695              		.cfi_restore 3
 4696              		.cfi_def_cfa_offset 0
1449:D:/fchai/work/i-cube/I-CUBE-HUAWEI/Middlewares/Third_Party/Huawei/iot_link/os/liteos/base/core\los_task.c ****             return;
 4697              		.loc 1 1449 13 view .LVU1461
 4698 0028 FFF7FEBF 		b	LOS_Schedule
 4699              	.LVL347:
 4700              	.L327:
 4701              		.align	2
 4702              	.L326:
 4703 002c 00000000 		.word	g_usLosTaskLock
 4704              		.cfi_endproc
 4705              	.LFE162:
 4707              		.section	.text.LOS_TaskInfoGet,"ax",%progbits
 4708              		.align	1
 4709              		.p2align 2,,3
 4710              		.global	LOS_TaskInfoGet
 4711              		.syntax unified
 4712              		.thumb
 4713              		.thumb_func
 4714              		.fpu fpv4-sp-d16
 4716              	LOS_TaskInfoGet:
 4717              	.LVL348:
 4718              	.LFB163:
1456:D:/fchai/work/i-cube/I-CUBE-HUAWEI/Middlewares/Third_Party/Huawei/iot_link/os/liteos/base/core\los_task.c **** 
1457:D:/fchai/work/i-cube/I-CUBE-HUAWEI/Middlewares/Third_Party/Huawei/iot_link/os/liteos/base/core\los_task.c **** /*****************************************************************************
1458:D:/fchai/work/i-cube/I-CUBE-HUAWEI/Middlewares/Third_Party/Huawei/iot_link/os/liteos/base/core\los_task.c ****  Function : LOS_TaskInfoGet
1459:D:/fchai/work/i-cube/I-CUBE-HUAWEI/Middlewares/Third_Party/Huawei/iot_link/os/liteos/base/core\los_task.c ****  Description : Get the information of the task
1460:D:/fchai/work/i-cube/I-CUBE-HUAWEI/Middlewares/Third_Party/Huawei/iot_link/os/liteos/base/core\los_task.c ****  Input       : uwTaskID
1461:D:/fchai/work/i-cube/I-CUBE-HUAWEI/Middlewares/Third_Party/Huawei/iot_link/os/liteos/base/core\los_task.c ****  Output      : pstTaskInfo
1462:D:/fchai/work/i-cube/I-CUBE-HUAWEI/Middlewares/Third_Party/Huawei/iot_link/os/liteos/base/core\los_task.c ****  Return      : LOS_OK on success or error code on failure
1463:D:/fchai/work/i-cube/I-CUBE-HUAWEI/Middlewares/Third_Party/Huawei/iot_link/os/liteos/base/core\los_task.c ****  *****************************************************************************/
1464:D:/fchai/work/i-cube/I-CUBE-HUAWEI/Middlewares/Third_Party/Huawei/iot_link/os/liteos/base/core\los_task.c **** LITE_OS_SEC_TEXT_MINOR UINT32 LOS_TaskInfoGet(UINT32 uwTaskID, TSK_INFO_S *pstTaskInfo)
1465:D:/fchai/work/i-cube/I-CUBE-HUAWEI/Middlewares/Third_Party/Huawei/iot_link/os/liteos/base/core\los_task.c **** {
 4719              		.loc 1 1465 1 is_stmt 1 view -0
 4720              		.cfi_startproc
 4721              		@ args = 0, pretend = 0, frame = 0
 4722              		@ frame_needed = 0, uses_anonymous_args = 0
1466:D:/fchai/work/i-cube/I-CUBE-HUAWEI/Middlewares/Third_Party/Huawei/iot_link/os/liteos/base/core\los_task.c ****     UINT32    uwIntSave;
 4723              		.loc 1 1466 5 view .LVU1463
1467:D:/fchai/work/i-cube/I-CUBE-HUAWEI/Middlewares/Third_Party/Huawei/iot_link/os/liteos/base/core\los_task.c ****     LOS_TASK_CB *pstTaskCB;
 4724              		.loc 1 1467 5 view .LVU1464
1468:D:/fchai/work/i-cube/I-CUBE-HUAWEI/Middlewares/Third_Party/Huawei/iot_link/os/liteos/base/core\los_task.c ****     UINT32 * puwStack;
 4725              		.loc 1 1468 5 view .LVU1465
1469:D:/fchai/work/i-cube/I-CUBE-HUAWEI/Middlewares/Third_Party/Huawei/iot_link/os/liteos/base/core\los_task.c **** 
1470:D:/fchai/work/i-cube/I-CUBE-HUAWEI/Middlewares/Third_Party/Huawei/iot_link/os/liteos/base/core\los_task.c ****     if (NULL == pstTaskInfo)
 4726              		.loc 1 1470 5 view .LVU1466
 4727              		.loc 1 1470 8 is_stmt 0 view .LVU1467
 4728 0000 0029     		cmp	r1, #0
 4729 0002 7DD0     		beq	.L338
1465:D:/fchai/work/i-cube/I-CUBE-HUAWEI/Middlewares/Third_Party/Huawei/iot_link/os/liteos/base/core\los_task.c ****     UINT32    uwIntSave;
 4730              		.loc 1 1465 1 view .LVU1468
 4731 0004 2DE9F843 		push	{r3, r4, r5, r6, r7, r8, r9, lr}
 4732              	.LCFI67:
 4733              		.cfi_def_cfa_offset 32
 4734              		.cfi_offset 3, -32
 4735              		.cfi_offset 4, -28
ARM GAS  T:\msys\tmp\ccehPeV4.s 			page 131


 4736              		.cfi_offset 5, -24
 4737              		.cfi_offset 6, -20
 4738              		.cfi_offset 7, -16
 4739              		.cfi_offset 8, -12
 4740              		.cfi_offset 9, -8
 4741              		.cfi_offset 14, -4
1471:D:/fchai/work/i-cube/I-CUBE-HUAWEI/Middlewares/Third_Party/Huawei/iot_link/os/liteos/base/core\los_task.c ****     {
1472:D:/fchai/work/i-cube/I-CUBE-HUAWEI/Middlewares/Third_Party/Huawei/iot_link/os/liteos/base/core\los_task.c ****         return LOS_ERRNO_TSK_PTR_NULL;
1473:D:/fchai/work/i-cube/I-CUBE-HUAWEI/Middlewares/Third_Party/Huawei/iot_link/os/liteos/base/core\los_task.c ****     }
1474:D:/fchai/work/i-cube/I-CUBE-HUAWEI/Middlewares/Third_Party/Huawei/iot_link/os/liteos/base/core\los_task.c **** 
1475:D:/fchai/work/i-cube/I-CUBE-HUAWEI/Middlewares/Third_Party/Huawei/iot_link/os/liteos/base/core\los_task.c ****     if (OS_CHECK_TSK_PID_NOIDLE(uwTaskID))
 4742              		.loc 1 1475 9 view .LVU1469
 4743 0008 404B     		ldr	r3, .L352
 4744              		.loc 1 1475 8 view .LVU1470
 4745 000a 1B68     		ldr	r3, [r3]
 4746 000c 8342     		cmp	r3, r0
 4747 000e 0646     		mov	r6, r0
 4748              		.loc 1 1475 5 is_stmt 1 view .LVU1471
 4749              		.loc 1 1475 8 is_stmt 0 view .LVU1472
 4750 0010 57D9     		bls	.L339
1476:D:/fchai/work/i-cube/I-CUBE-HUAWEI/Middlewares/Third_Party/Huawei/iot_link/os/liteos/base/core\los_task.c ****     {
1477:D:/fchai/work/i-cube/I-CUBE-HUAWEI/Middlewares/Third_Party/Huawei/iot_link/os/liteos/base/core\los_task.c ****         return LOS_ERRNO_TSK_ID_INVALID;
1478:D:/fchai/work/i-cube/I-CUBE-HUAWEI/Middlewares/Third_Party/Huawei/iot_link/os/liteos/base/core\los_task.c ****     }
1479:D:/fchai/work/i-cube/I-CUBE-HUAWEI/Middlewares/Third_Party/Huawei/iot_link/os/liteos/base/core\los_task.c **** 
1480:D:/fchai/work/i-cube/I-CUBE-HUAWEI/Middlewares/Third_Party/Huawei/iot_link/os/liteos/base/core\los_task.c ****     pstTaskCB = OS_TCB_FROM_TID(uwTaskID);
 4751              		.loc 1 1480 5 is_stmt 1 view .LVU1473
 4752              		.loc 1 1480 17 is_stmt 0 view .LVU1474
 4753 0012 3F4B     		ldr	r3, .L352+4
 4754 0014 5427     		movs	r7, #84
 4755              		.loc 1 1480 15 view .LVU1475
 4756 0016 D3F80080 		ldr	r8, [r3]
 4757              		.loc 1 1480 17 view .LVU1476
 4758 001a 07FB00F7 		mul	r7, r7, r0
 4759              		.loc 1 1480 15 view .LVU1477
 4760 001e 08EB0705 		add	r5, r8, r7
 4761              	.LVL349:
1481:D:/fchai/work/i-cube/I-CUBE-HUAWEI/Middlewares/Third_Party/Huawei/iot_link/os/liteos/base/core\los_task.c ****     uwIntSave = LOS_IntLock();
 4762              		.loc 1 1481 5 is_stmt 1 view .LVU1478
 4763 0022 0C46     		mov	r4, r1
 4764              		.loc 1 1481 17 is_stmt 0 view .LVU1479
 4765 0024 FFF7FEFF 		bl	LOS_IntLock
 4766              	.LVL350:
1482:D:/fchai/work/i-cube/I-CUBE-HUAWEI/Middlewares/Third_Party/Huawei/iot_link/os/liteos/base/core\los_task.c **** 
1483:D:/fchai/work/i-cube/I-CUBE-HUAWEI/Middlewares/Third_Party/Huawei/iot_link/os/liteos/base/core\los_task.c ****     if (OS_TASK_STATUS_UNUSED & pstTaskCB->usTaskStatus)
 4767              		.loc 1 1483 42 view .LVU1480
 4768 0028 B5F804E0 		ldrh	lr, [r5, #4]
 4769              		.loc 1 1483 8 view .LVU1481
 4770 002c 1EF0010F 		tst	lr, #1
1481:D:/fchai/work/i-cube/I-CUBE-HUAWEI/Middlewares/Third_Party/Huawei/iot_link/os/liteos/base/core\los_task.c ****     uwIntSave = LOS_IntLock();
 4771              		.loc 1 1481 17 view .LVU1482
 4772 0030 8146     		mov	r9, r0
 4773              	.LVL351:
 4774              		.loc 1 1483 5 is_stmt 1 view .LVU1483
 4775              		.loc 1 1483 8 is_stmt 0 view .LVU1484
 4776 0032 67D1     		bne	.L349
1484:D:/fchai/work/i-cube/I-CUBE-HUAWEI/Middlewares/Third_Party/Huawei/iot_link/os/liteos/base/core\los_task.c ****     {
1485:D:/fchai/work/i-cube/I-CUBE-HUAWEI/Middlewares/Third_Party/Huawei/iot_link/os/liteos/base/core\los_task.c ****         (VOID)LOS_IntRestore(uwIntSave);
ARM GAS  T:\msys\tmp\ccehPeV4.s 			page 132


1486:D:/fchai/work/i-cube/I-CUBE-HUAWEI/Middlewares/Third_Party/Huawei/iot_link/os/liteos/base/core\los_task.c ****         return LOS_ERRNO_TSK_NOT_CREATED;
1487:D:/fchai/work/i-cube/I-CUBE-HUAWEI/Middlewares/Third_Party/Huawei/iot_link/os/liteos/base/core\los_task.c ****     }
1488:D:/fchai/work/i-cube/I-CUBE-HUAWEI/Middlewares/Third_Party/Huawei/iot_link/os/liteos/base/core\los_task.c **** 
1489:D:/fchai/work/i-cube/I-CUBE-HUAWEI/Middlewares/Third_Party/Huawei/iot_link/os/liteos/base/core\los_task.c ****     pstTaskInfo->uwSP = (UINT32)pstTaskCB->pStackPointer;
 4777              		.loc 1 1489 5 is_stmt 1 view .LVU1485
1490:D:/fchai/work/i-cube/I-CUBE-HUAWEI/Middlewares/Third_Party/Huawei/iot_link/os/liteos/base/core\los_task.c ****     pstTaskInfo->usTaskStatus = pstTaskCB->usTaskStatus;
1491:D:/fchai/work/i-cube/I-CUBE-HUAWEI/Middlewares/Third_Party/Huawei/iot_link/os/liteos/base/core\los_task.c ****     pstTaskInfo->usTaskPrio = pstTaskCB->usPriority;
1492:D:/fchai/work/i-cube/I-CUBE-HUAWEI/Middlewares/Third_Party/Huawei/iot_link/os/liteos/base/core\los_task.c ****     pstTaskInfo->uwStackSize  = pstTaskCB->uwStackSize;
1493:D:/fchai/work/i-cube/I-CUBE-HUAWEI/Middlewares/Third_Party/Huawei/iot_link/os/liteos/base/core\los_task.c ****     pstTaskInfo->uwTopOfStack = pstTaskCB->uwTopOfStack;
1494:D:/fchai/work/i-cube/I-CUBE-HUAWEI/Middlewares/Third_Party/Huawei/iot_link/os/liteos/base/core\los_task.c ****     pstTaskInfo->uwEvent = pstTaskCB->uwEvent;
 4778              		.loc 1 1494 26 is_stmt 0 view .LVU1486
 4779 0034 05F13C03 		add	r3, r5, #60
 4780 0038 93E80700 		ldm	r3, {r0, r1, r2}
 4781              	.LVL352:
1489:D:/fchai/work/i-cube/I-CUBE-HUAWEI/Middlewares/Third_Party/Huawei/iot_link/os/liteos/base/core\los_task.c ****     pstTaskInfo->usTaskStatus = pstTaskCB->usTaskStatus;
 4782              		.loc 1 1489 42 view .LVU1487
 4783 003c 58F80770 		ldr	r7, [r8, r7]
1492:D:/fchai/work/i-cube/I-CUBE-HUAWEI/Middlewares/Third_Party/Huawei/iot_link/os/liteos/base/core\los_task.c ****     pstTaskInfo->uwTopOfStack = pstTaskCB->uwTopOfStack;
 4784              		.loc 1 1492 31 view .LVU1488
 4785 0040 AB68     		ldr	r3, [r5, #8]
1491:D:/fchai/work/i-cube/I-CUBE-HUAWEI/Middlewares/Third_Party/Huawei/iot_link/os/liteos/base/core\los_task.c ****     pstTaskInfo->uwStackSize  = pstTaskCB->uwStackSize;
 4786              		.loc 1 1491 29 view .LVU1489
 4787 0042 B5F80680 		ldrh	r8, [r5, #6]
1495:D:/fchai/work/i-cube/I-CUBE-HUAWEI/Middlewares/Third_Party/Huawei/iot_link/os/liteos/base/core\los_task.c ****     pstTaskInfo->uwEventMask = pstTaskCB->uwEventMask;
1496:D:/fchai/work/i-cube/I-CUBE-HUAWEI/Middlewares/Third_Party/Huawei/iot_link/os/liteos/base/core\los_task.c ****     pstTaskInfo->uwSemID = pstTaskCB->pTaskSem != NULL ? ((SEM_CB_S *)(pstTaskCB->pTaskSem))->usSem
 4788              		.loc 1 1496 37 view .LVU1490
 4789 0046 D5F818C0 		ldr	ip, [r5, #24]
1491:D:/fchai/work/i-cube/I-CUBE-HUAWEI/Middlewares/Third_Party/Huawei/iot_link/os/liteos/base/core\los_task.c ****     pstTaskInfo->uwStackSize  = pstTaskCB->uwStackSize;
 4790              		.loc 1 1491 29 view .LVU1491
 4791 004a A4F82680 		strh	r8, [r4, #38]	@ movhi
1493:D:/fchai/work/i-cube/I-CUBE-HUAWEI/Middlewares/Third_Party/Huawei/iot_link/os/liteos/base/core\los_task.c ****     pstTaskInfo->uwEvent = pstTaskCB->uwEvent;
 4792              		.loc 1 1493 42 view .LVU1492
 4793 004e D5F80C80 		ldr	r8, [r5, #12]
1492:D:/fchai/work/i-cube/I-CUBE-HUAWEI/Middlewares/Third_Party/Huawei/iot_link/os/liteos/base/core\los_task.c ****     pstTaskInfo->uwTopOfStack = pstTaskCB->uwTopOfStack;
 4794              		.loc 1 1492 31 view .LVU1493
 4795 0052 A364     		str	r3, [r4, #72]
1494:D:/fchai/work/i-cube/I-CUBE-HUAWEI/Middlewares/Third_Party/Huawei/iot_link/os/liteos/base/core\los_task.c ****     pstTaskInfo->uwEventMask = pstTaskCB->uwEventMask;
 4796              		.loc 1 1494 26 view .LVU1494
 4797 0054 04F13803 		add	r3, r4, #56
1489:D:/fchai/work/i-cube/I-CUBE-HUAWEI/Middlewares/Third_Party/Huawei/iot_link/os/liteos/base/core\los_task.c ****     pstTaskInfo->usTaskStatus = pstTaskCB->usTaskStatus;
 4798              		.loc 1 1489 23 view .LVU1495
 4799 0058 6765     		str	r7, [r4, #84]
1490:D:/fchai/work/i-cube/I-CUBE-HUAWEI/Middlewares/Third_Party/Huawei/iot_link/os/liteos/base/core\los_task.c ****     pstTaskInfo->usTaskPrio = pstTaskCB->usPriority;
 4800              		.loc 1 1490 5 is_stmt 1 view .LVU1496
1490:D:/fchai/work/i-cube/I-CUBE-HUAWEI/Middlewares/Third_Party/Huawei/iot_link/os/liteos/base/core\los_task.c ****     pstTaskInfo->usTaskPrio = pstTaskCB->usPriority;
 4801              		.loc 1 1490 31 is_stmt 0 view .LVU1497
 4802 005a A4F824E0 		strh	lr, [r4, #36]	@ movhi
1491:D:/fchai/work/i-cube/I-CUBE-HUAWEI/Middlewares/Third_Party/Huawei/iot_link/os/liteos/base/core\los_task.c ****     pstTaskInfo->uwStackSize  = pstTaskCB->uwStackSize;
 4803              		.loc 1 1491 5 is_stmt 1 view .LVU1498
1492:D:/fchai/work/i-cube/I-CUBE-HUAWEI/Middlewares/Third_Party/Huawei/iot_link/os/liteos/base/core\los_task.c ****     pstTaskInfo->uwTopOfStack = pstTaskCB->uwTopOfStack;
 4804              		.loc 1 1492 5 view .LVU1499
1493:D:/fchai/work/i-cube/I-CUBE-HUAWEI/Middlewares/Third_Party/Huawei/iot_link/os/liteos/base/core\los_task.c ****     pstTaskInfo->uwEvent = pstTaskCB->uwEvent;
 4805              		.loc 1 1493 5 view .LVU1500
1493:D:/fchai/work/i-cube/I-CUBE-HUAWEI/Middlewares/Third_Party/Huawei/iot_link/os/liteos/base/core\los_task.c ****     pstTaskInfo->uwEvent = pstTaskCB->uwEvent;
 4806              		.loc 1 1493 31 is_stmt 0 view .LVU1501
 4807 005e C4F84C80 		str	r8, [r4, #76]
1494:D:/fchai/work/i-cube/I-CUBE-HUAWEI/Middlewares/Third_Party/Huawei/iot_link/os/liteos/base/core\los_task.c ****     pstTaskInfo->uwEventMask = pstTaskCB->uwEventMask;
ARM GAS  T:\msys\tmp\ccehPeV4.s 			page 133


 4808              		.loc 1 1494 5 is_stmt 1 view .LVU1502
1494:D:/fchai/work/i-cube/I-CUBE-HUAWEI/Middlewares/Third_Party/Huawei/iot_link/os/liteos/base/core\los_task.c ****     pstTaskInfo->uwEventMask = pstTaskCB->uwEventMask;
 4809              		.loc 1 1494 26 is_stmt 0 view .LVU1503
 4810 0062 83E80700 		stm	r3, {r0, r1, r2}
1495:D:/fchai/work/i-cube/I-CUBE-HUAWEI/Middlewares/Third_Party/Huawei/iot_link/os/liteos/base/core\los_task.c ****     pstTaskInfo->uwSemID = pstTaskCB->pTaskSem != NULL ? ((SEM_CB_S *)(pstTaskCB->pTaskSem))->usSem
 4811              		.loc 1 1495 5 is_stmt 1 view .LVU1504
1495:D:/fchai/work/i-cube/I-CUBE-HUAWEI/Middlewares/Third_Party/Huawei/iot_link/os/liteos/base/core\los_task.c ****     pstTaskInfo->uwSemID = pstTaskCB->pTaskSem != NULL ? ((SEM_CB_S *)(pstTaskCB->pTaskSem))->usSem
 4812              		.loc 1 1495 30 is_stmt 0 view .LVU1505
 4813 0066 AB6C     		ldr	r3, [r5, #72]
 4814 0068 6364     		str	r3, [r4, #68]
 4815              		.loc 1 1496 5 is_stmt 1 view .LVU1506
 4816              		.loc 1 1496 103 is_stmt 0 view .LVU1507
 4817 006a BCF1000F 		cmp	ip, #0
 4818 006e 2BD0     		beq	.L340
1497:D:/fchai/work/i-cube/I-CUBE-HUAWEI/Middlewares/Third_Party/Huawei/iot_link/os/liteos/base/core\los_task.c ****     pstTaskInfo->uwMuxID = pstTaskCB->pTaskMux != NULL ? ((MUX_CB_S *)(pstTaskCB->pTaskMux))->ucMux
 4819              		.loc 1 1497 37 discriminator 1 view .LVU1508
 4820 0070 EB69     		ldr	r3, [r5, #28]
1496:D:/fchai/work/i-cube/I-CUBE-HUAWEI/Middlewares/Third_Party/Huawei/iot_link/os/liteos/base/core\los_task.c ****     pstTaskInfo->uwMuxID = pstTaskCB->pTaskMux != NULL ? ((MUX_CB_S *)(pstTaskCB->pTaskMux))->ucMux
 4821              		.loc 1 1496 103 discriminator 1 view .LVU1509
 4822 0072 BCF80620 		ldrh	r2, [ip, #6]
1496:D:/fchai/work/i-cube/I-CUBE-HUAWEI/Middlewares/Third_Party/Huawei/iot_link/os/liteos/base/core\los_task.c ****     pstTaskInfo->uwMuxID = pstTaskCB->pTaskMux != NULL ? ((MUX_CB_S *)(pstTaskCB->pTaskMux))->ucMux
 4823              		.loc 1 1496 26 discriminator 1 view .LVU1510
 4824 0076 2263     		str	r2, [r4, #48]
 4825              		.loc 1 1497 5 is_stmt 1 discriminator 1 view .LVU1511
 4826              		.loc 1 1497 103 is_stmt 0 discriminator 1 view .LVU1512
 4827 0078 5BB3     		cbz	r3, .L341
 4828              	.L351:
 4829 007a 5A68     		ldr	r2, [r3, #4]
 4830              	.L332:
1498:D:/fchai/work/i-cube/I-CUBE-HUAWEI/Middlewares/Third_Party/Huawei/iot_link/os/liteos/base/core\los_task.c ****     pstTaskInfo->pTaskSem = pstTaskCB->pTaskSem;
1499:D:/fchai/work/i-cube/I-CUBE-HUAWEI/Middlewares/Third_Party/Huawei/iot_link/os/liteos/base/core\los_task.c ****     pstTaskInfo->pTaskMux = pstTaskCB->pTaskMux;
1500:D:/fchai/work/i-cube/I-CUBE-HUAWEI/Middlewares/Third_Party/Huawei/iot_link/os/liteos/base/core\los_task.c ****     pstTaskInfo->uwTaskID = uwTaskID;
1501:D:/fchai/work/i-cube/I-CUBE-HUAWEI/Middlewares/Third_Party/Huawei/iot_link/os/liteos/base/core\los_task.c **** 
1502:D:/fchai/work/i-cube/I-CUBE-HUAWEI/Middlewares/Third_Party/Huawei/iot_link/os/liteos/base/core\los_task.c ****     (VOID)strncpy(pstTaskInfo->acName, pstTaskCB->pcTaskName, LOS_TASK_NAMELEN - 1);
 4831              		.loc 1 1502 11 discriminator 4 view .LVU1513
 4832 007c 696A     		ldr	r1, [r5, #36]
1497:D:/fchai/work/i-cube/I-CUBE-HUAWEI/Middlewares/Third_Party/Huawei/iot_link/os/liteos/base/core\los_task.c ****     pstTaskInfo->pTaskSem = pstTaskCB->pTaskSem;
 4833              		.loc 1 1497 26 discriminator 4 view .LVU1514
 4834 007e 6263     		str	r2, [r4, #52]
1498:D:/fchai/work/i-cube/I-CUBE-HUAWEI/Middlewares/Third_Party/Huawei/iot_link/os/liteos/base/core\los_task.c ****     pstTaskInfo->pTaskSem = pstTaskCB->pTaskSem;
 4835              		.loc 1 1498 5 is_stmt 1 discriminator 4 view .LVU1515
1499:D:/fchai/work/i-cube/I-CUBE-HUAWEI/Middlewares/Third_Party/Huawei/iot_link/os/liteos/base/core\los_task.c ****     pstTaskInfo->uwTaskID = uwTaskID;
 4836              		.loc 1 1499 27 is_stmt 0 discriminator 4 view .LVU1516
 4837 0080 C4E90AC3 		strd	ip, r3, [r4, #40]
1500:D:/fchai/work/i-cube/I-CUBE-HUAWEI/Middlewares/Third_Party/Huawei/iot_link/os/liteos/base/core\los_task.c **** 
 4838              		.loc 1 1500 5 is_stmt 1 discriminator 4 view .LVU1517
 4839              		.loc 1 1502 11 is_stmt 0 discriminator 4 view .LVU1518
 4840 0084 1F22     		movs	r2, #31
1500:D:/fchai/work/i-cube/I-CUBE-HUAWEI/Middlewares/Third_Party/Huawei/iot_link/os/liteos/base/core\los_task.c **** 
 4841              		.loc 1 1500 27 discriminator 4 view .LVU1519
 4842 0086 2662     		str	r6, [r4, #32]
 4843              		.loc 1 1502 5 is_stmt 1 discriminator 4 view .LVU1520
 4844              		.loc 1 1502 11 is_stmt 0 discriminator 4 view .LVU1521
 4845 0088 2046     		mov	r0, r4
 4846 008a FFF7FEFF 		bl	strncpy
 4847              	.LVL353:
1503:D:/fchai/work/i-cube/I-CUBE-HUAWEI/Middlewares/Third_Party/Huawei/iot_link/os/liteos/base/core\los_task.c ****     pstTaskInfo->acName[LOS_TASK_NAMELEN - 1] = '\0';
ARM GAS  T:\msys\tmp\ccehPeV4.s 			page 134


 4848              		.loc 1 1503 5 is_stmt 1 discriminator 4 view .LVU1522
 4849              		.loc 1 1503 47 is_stmt 0 discriminator 4 view .LVU1523
 4850 008e 0023     		movs	r3, #0
 4851 0090 E377     		strb	r3, [r4, #31]
1504:D:/fchai/work/i-cube/I-CUBE-HUAWEI/Middlewares/Third_Party/Huawei/iot_link/os/liteos/base/core\los_task.c **** 
1505:D:/fchai/work/i-cube/I-CUBE-HUAWEI/Middlewares/Third_Party/Huawei/iot_link/os/liteos/base/core\los_task.c ****     pstTaskInfo->uwBottomOfStack = TRUNCATE(((UINT32)(pstTaskCB->uwTopOfStack) + (pstTaskCB->uwStac
 4852              		.loc 1 1505 5 is_stmt 1 discriminator 4 view .LVU1524
 4853              		.loc 1 1505 36 is_stmt 0 discriminator 4 view .LVU1525
 4854 0092 D5E90213 		ldrd	r1, r3, [r5, #8]
 4855 0096 0B44     		add	r3, r3, r1
 4856 0098 23F00703 		bic	r3, r3, #7
1506:D:/fchai/work/i-cube/I-CUBE-HUAWEI/Middlewares/Third_Party/Huawei/iot_link/os/liteos/base/core\los_task.c ****     pstTaskInfo->uwCurrUsed = pstTaskInfo->uwBottomOfStack - pstTaskInfo->uwSP;
 4857              		.loc 1 1506 60 discriminator 4 view .LVU1526
 4858 009c DA1B     		subs	r2, r3, r7
1505:D:/fchai/work/i-cube/I-CUBE-HUAWEI/Middlewares/Third_Party/Huawei/iot_link/os/liteos/base/core\los_task.c ****     pstTaskInfo->uwCurrUsed = pstTaskInfo->uwBottomOfStack - pstTaskInfo->uwSP;
 4859              		.loc 1 1505 34 discriminator 4 view .LVU1527
 4860 009e 2365     		str	r3, [r4, #80]
 4861              		.loc 1 1506 5 is_stmt 1 discriminator 4 view .LVU1528
 4862              		.loc 1 1506 29 is_stmt 0 discriminator 4 view .LVU1529
 4863 00a0 A265     		str	r2, [r4, #88]
1507:D:/fchai/work/i-cube/I-CUBE-HUAWEI/Middlewares/Third_Party/Huawei/iot_link/os/liteos/base/core\los_task.c **** 
1508:D:/fchai/work/i-cube/I-CUBE-HUAWEI/Middlewares/Third_Party/Huawei/iot_link/os/liteos/base/core\los_task.c ****     if (OS_TASK_MAGIC_WORD == *(UINT32 *)pstTaskInfo->uwTopOfStack)
 4864              		.loc 1 1508 5 is_stmt 1 discriminator 4 view .LVU1530
 4865              		.loc 1 1508 8 is_stmt 0 discriminator 4 view .LVU1531
 4866 00a2 D8F80030 		ldr	r3, [r8]
 4867 00a6 B3F1CC3F 		cmp	r3, #-858993460
 4868 00aa 14D0     		beq	.L350
1509:D:/fchai/work/i-cube/I-CUBE-HUAWEI/Middlewares/Third_Party/Huawei/iot_link/os/liteos/base/core\los_task.c ****     {
1510:D:/fchai/work/i-cube/I-CUBE-HUAWEI/Middlewares/Third_Party/Huawei/iot_link/os/liteos/base/core\los_task.c ****         puwStack = (UINT32 *)(pstTaskInfo->uwTopOfStack + 4);
1511:D:/fchai/work/i-cube/I-CUBE-HUAWEI/Middlewares/Third_Party/Huawei/iot_link/os/liteos/base/core\los_task.c ****         while ((puwStack < (UINT32 *)pstTaskInfo->uwSP) && (*puwStack == 0xCACACACA))
1512:D:/fchai/work/i-cube/I-CUBE-HUAWEI/Middlewares/Third_Party/Huawei/iot_link/os/liteos/base/core\los_task.c ****         {
1513:D:/fchai/work/i-cube/I-CUBE-HUAWEI/Middlewares/Third_Party/Huawei/iot_link/os/liteos/base/core\los_task.c ****             puwStack += 1;
1514:D:/fchai/work/i-cube/I-CUBE-HUAWEI/Middlewares/Third_Party/Huawei/iot_link/os/liteos/base/core\los_task.c ****         }
1515:D:/fchai/work/i-cube/I-CUBE-HUAWEI/Middlewares/Third_Party/Huawei/iot_link/os/liteos/base/core\los_task.c **** 
1516:D:/fchai/work/i-cube/I-CUBE-HUAWEI/Middlewares/Third_Party/Huawei/iot_link/os/liteos/base/core\los_task.c ****         pstTaskInfo->uwPeakUsed = pstTaskCB->uwStackSize - ((UINT32)puwStack - pstTaskInfo->uwTopOf
1517:D:/fchai/work/i-cube/I-CUBE-HUAWEI/Middlewares/Third_Party/Huawei/iot_link/os/liteos/base/core\los_task.c ****         pstTaskInfo->bOvf = FALSE;
1518:D:/fchai/work/i-cube/I-CUBE-HUAWEI/Middlewares/Third_Party/Huawei/iot_link/os/liteos/base/core\los_task.c ****     }
1519:D:/fchai/work/i-cube/I-CUBE-HUAWEI/Middlewares/Third_Party/Huawei/iot_link/os/liteos/base/core\los_task.c ****     else
1520:D:/fchai/work/i-cube/I-CUBE-HUAWEI/Middlewares/Third_Party/Huawei/iot_link/os/liteos/base/core\los_task.c ****     {
1521:D:/fchai/work/i-cube/I-CUBE-HUAWEI/Middlewares/Third_Party/Huawei/iot_link/os/liteos/base/core\los_task.c ****         pstTaskInfo->uwPeakUsed = 0xFFFFFFFF;
 4869              		.loc 1 1521 9 is_stmt 1 view .LVU1532
1522:D:/fchai/work/i-cube/I-CUBE-HUAWEI/Middlewares/Third_Party/Huawei/iot_link/os/liteos/base/core\los_task.c ****         pstTaskInfo->bOvf = TRUE;
 4870              		.loc 1 1522 27 is_stmt 0 view .LVU1533
 4871 00ac 4FF0FF32 		mov	r2, #-1
 4872 00b0 0123     		movs	r3, #1
 4873 00b2 C4E91723 		strd	r2, r3, [r4, #92]
 4874              	.L337:
1523:D:/fchai/work/i-cube/I-CUBE-HUAWEI/Middlewares/Third_Party/Huawei/iot_link/os/liteos/base/core\los_task.c ****     }
1524:D:/fchai/work/i-cube/I-CUBE-HUAWEI/Middlewares/Third_Party/Huawei/iot_link/os/liteos/base/core\los_task.c **** 
1525:D:/fchai/work/i-cube/I-CUBE-HUAWEI/Middlewares/Third_Party/Huawei/iot_link/os/liteos/base/core\los_task.c ****     (VOID)LOS_IntRestore(uwIntSave);
 4875              		.loc 1 1525 5 is_stmt 1 view .LVU1534
 4876 00b6 4846     		mov	r0, r9
 4877 00b8 FFF7FEFF 		bl	LOS_IntRestore
 4878              	.LVL354:
1526:D:/fchai/work/i-cube/I-CUBE-HUAWEI/Middlewares/Third_Party/Huawei/iot_link/os/liteos/base/core\los_task.c **** 
1527:D:/fchai/work/i-cube/I-CUBE-HUAWEI/Middlewares/Third_Party/Huawei/iot_link/os/liteos/base/core\los_task.c ****     return LOS_OK;
 4879              		.loc 1 1527 5 view .LVU1535
ARM GAS  T:\msys\tmp\ccehPeV4.s 			page 135


 4880              		.loc 1 1527 12 is_stmt 0 view .LVU1536
 4881 00bc 0020     		movs	r0, #0
 4882              	.L328:
1528:D:/fchai/work/i-cube/I-CUBE-HUAWEI/Middlewares/Third_Party/Huawei/iot_link/os/liteos/base/core\los_task.c **** }
 4883              		.loc 1 1528 1 view .LVU1537
 4884 00be BDE8F883 		pop	{r3, r4, r5, r6, r7, r8, r9, pc}
 4885              	.LVL355:
 4886              	.L339:
1477:D:/fchai/work/i-cube/I-CUBE-HUAWEI/Middlewares/Third_Party/Huawei/iot_link/os/liteos/base/core\los_task.c ****     }
 4887              		.loc 1 1477 16 view .LVU1538
 4888 00c2 1448     		ldr	r0, .L352+8
 4889              	.LVL356:
 4890              		.loc 1 1528 1 view .LVU1539
 4891 00c4 BDE8F883 		pop	{r3, r4, r5, r6, r7, r8, r9, pc}
 4892              	.LVL357:
 4893              	.L340:
1497:D:/fchai/work/i-cube/I-CUBE-HUAWEI/Middlewares/Third_Party/Huawei/iot_link/os/liteos/base/core\los_task.c ****     pstTaskInfo->pTaskSem = pstTaskCB->pTaskSem;
 4894              		.loc 1 1497 37 view .LVU1540
 4895 00c8 EB69     		ldr	r3, [r5, #28]
1496:D:/fchai/work/i-cube/I-CUBE-HUAWEI/Middlewares/Third_Party/Huawei/iot_link/os/liteos/base/core\los_task.c ****     pstTaskInfo->uwMuxID = pstTaskCB->pTaskMux != NULL ? ((MUX_CB_S *)(pstTaskCB->pTaskMux))->ucMux
 4896              		.loc 1 1496 103 view .LVU1541
 4897 00ca 1422     		movs	r2, #20
1496:D:/fchai/work/i-cube/I-CUBE-HUAWEI/Middlewares/Third_Party/Huawei/iot_link/os/liteos/base/core\los_task.c ****     pstTaskInfo->uwMuxID = pstTaskCB->pTaskMux != NULL ? ((MUX_CB_S *)(pstTaskCB->pTaskMux))->ucMux
 4898              		.loc 1 1496 26 view .LVU1542
 4899 00cc 2263     		str	r2, [r4, #48]
1497:D:/fchai/work/i-cube/I-CUBE-HUAWEI/Middlewares/Third_Party/Huawei/iot_link/os/liteos/base/core\los_task.c ****     pstTaskInfo->pTaskSem = pstTaskCB->pTaskSem;
 4900              		.loc 1 1497 5 is_stmt 1 view .LVU1543
1497:D:/fchai/work/i-cube/I-CUBE-HUAWEI/Middlewares/Third_Party/Huawei/iot_link/os/liteos/base/core\los_task.c ****     pstTaskInfo->pTaskSem = pstTaskCB->pTaskSem;
 4901              		.loc 1 1497 103 is_stmt 0 view .LVU1544
 4902 00ce 002B     		cmp	r3, #0
 4903 00d0 D3D1     		bne	.L351
 4904              	.L341:
1497:D:/fchai/work/i-cube/I-CUBE-HUAWEI/Middlewares/Third_Party/Huawei/iot_link/os/liteos/base/core\los_task.c ****     pstTaskInfo->pTaskSem = pstTaskCB->pTaskSem;
 4905              		.loc 1 1497 103 view .LVU1545
 4906 00d2 1422     		movs	r2, #20
 4907 00d4 D2E7     		b	.L332
 4908              	.L350:
1510:D:/fchai/work/i-cube/I-CUBE-HUAWEI/Middlewares/Third_Party/Huawei/iot_link/os/liteos/base/core\los_task.c ****         while ((puwStack < (UINT32 *)pstTaskInfo->uwSP) && (*puwStack == 0xCACACACA))
 4909              		.loc 1 1510 9 is_stmt 1 view .LVU1546
1510:D:/fchai/work/i-cube/I-CUBE-HUAWEI/Middlewares/Third_Party/Huawei/iot_link/os/liteos/base/core\los_task.c ****         while ((puwStack < (UINT32 *)pstTaskInfo->uwSP) && (*puwStack == 0xCACACACA))
 4910              		.loc 1 1510 57 is_stmt 0 view .LVU1547
 4911 00d6 08F10402 		add	r2, r8, #4
1511:D:/fchai/work/i-cube/I-CUBE-HUAWEI/Middlewares/Third_Party/Huawei/iot_link/os/liteos/base/core\los_task.c ****         {
 4912              		.loc 1 1511 15 view .LVU1548
 4913 00da 9742     		cmp	r7, r2
1510:D:/fchai/work/i-cube/I-CUBE-HUAWEI/Middlewares/Third_Party/Huawei/iot_link/os/liteos/base/core\los_task.c ****         while ((puwStack < (UINT32 *)pstTaskInfo->uwSP) && (*puwStack == 0xCACACACA))
 4914              		.loc 1 1510 18 view .LVU1549
 4915 00dc 1346     		mov	r3, r2
 4916              	.LVL358:
1511:D:/fchai/work/i-cube/I-CUBE-HUAWEI/Middlewares/Third_Party/Huawei/iot_link/os/liteos/base/core\los_task.c ****         {
 4917              		.loc 1 1511 9 is_stmt 1 view .LVU1550
1511:D:/fchai/work/i-cube/I-CUBE-HUAWEI/Middlewares/Third_Party/Huawei/iot_link/os/liteos/base/core\los_task.c ****         {
 4918              		.loc 1 1511 15 view .LVU1551
 4919 00de 03D8     		bhi	.L334
 4920 00e0 07E0     		b	.L335
 4921              	.LVL359:
 4922              	.L336:
ARM GAS  T:\msys\tmp\ccehPeV4.s 			page 136


1513:D:/fchai/work/i-cube/I-CUBE-HUAWEI/Middlewares/Third_Party/Huawei/iot_link/os/liteos/base/core\los_task.c ****         }
 4923              		.loc 1 1513 22 is_stmt 0 view .LVU1552
 4924 00e2 0433     		adds	r3, r3, #4
 4925              	.LVL360:
1511:D:/fchai/work/i-cube/I-CUBE-HUAWEI/Middlewares/Third_Party/Huawei/iot_link/os/liteos/base/core\los_task.c ****         {
 4926              		.loc 1 1511 15 is_stmt 1 view .LVU1553
 4927 00e4 9F42     		cmp	r7, r3
 4928 00e6 03D9     		bls	.L348
 4929              	.L334:
1513:D:/fchai/work/i-cube/I-CUBE-HUAWEI/Middlewares/Third_Party/Huawei/iot_link/os/liteos/base/core\los_task.c ****         }
 4930              		.loc 1 1513 13 discriminator 1 view .LVU1554
1511:D:/fchai/work/i-cube/I-CUBE-HUAWEI/Middlewares/Third_Party/Huawei/iot_link/os/liteos/base/core\los_task.c ****         {
 4931              		.loc 1 1511 57 is_stmt 0 discriminator 1 view .LVU1555
 4932 00e8 1A68     		ldr	r2, [r3]
 4933 00ea B2F1CA3F 		cmp	r2, #-892679478
 4934 00ee F8D0     		beq	.L336
 4935              	.L348:
1511:D:/fchai/work/i-cube/I-CUBE-HUAWEI/Middlewares/Third_Party/Huawei/iot_link/os/liteos/base/core\los_task.c ****         {
 4936              		.loc 1 1511 57 discriminator 1 view .LVU1556
 4937 00f0 1A46     		mov	r2, r3
 4938              	.LVL361:
 4939              	.L335:
1516:D:/fchai/work/i-cube/I-CUBE-HUAWEI/Middlewares/Third_Party/Huawei/iot_link/os/liteos/base/core\los_task.c ****         pstTaskInfo->bOvf = FALSE;
 4940              		.loc 1 1516 9 is_stmt 1 view .LVU1557
1516:D:/fchai/work/i-cube/I-CUBE-HUAWEI/Middlewares/Third_Party/Huawei/iot_link/os/liteos/base/core\los_task.c ****         pstTaskInfo->bOvf = FALSE;
 4941              		.loc 1 1516 58 is_stmt 0 view .LVU1558
 4942 00f2 8844     		add	r8, r8, r1
 4943 00f4 A8EB0203 		sub	r3, r8, r2
1517:D:/fchai/work/i-cube/I-CUBE-HUAWEI/Middlewares/Third_Party/Huawei/iot_link/os/liteos/base/core\los_task.c ****     }
 4944              		.loc 1 1517 27 view .LVU1559
 4945 00f8 0022     		movs	r2, #0
 4946              	.LVL362:
1517:D:/fchai/work/i-cube/I-CUBE-HUAWEI/Middlewares/Third_Party/Huawei/iot_link/os/liteos/base/core\los_task.c ****     }
 4947              		.loc 1 1517 27 view .LVU1560
 4948 00fa C4E91732 		strd	r3, r2, [r4, #92]
 4949 00fe DAE7     		b	.L337
 4950              	.LVL363:
 4951              	.L338:
 4952              	.LCFI68:
 4953              		.cfi_def_cfa_offset 0
 4954              		.cfi_restore 3
 4955              		.cfi_restore 4
 4956              		.cfi_restore 5
 4957              		.cfi_restore 6
 4958              		.cfi_restore 7
 4959              		.cfi_restore 8
 4960              		.cfi_restore 9
 4961              		.cfi_restore 14
1472:D:/fchai/work/i-cube/I-CUBE-HUAWEI/Middlewares/Third_Party/Huawei/iot_link/os/liteos/base/core\los_task.c ****     }
 4962              		.loc 1 1472 16 view .LVU1561
 4963 0100 0548     		ldr	r0, .L352+12
 4964              	.LVL364:
 4965              		.loc 1 1528 1 view .LVU1562
 4966 0102 7047     		bx	lr
 4967              	.LVL365:
 4968              	.L349:
 4969              	.LCFI69:
ARM GAS  T:\msys\tmp\ccehPeV4.s 			page 137


 4970              		.cfi_def_cfa_offset 32
 4971              		.cfi_offset 3, -32
 4972              		.cfi_offset 4, -28
 4973              		.cfi_offset 5, -24
 4974              		.cfi_offset 6, -20
 4975              		.cfi_offset 7, -16
 4976              		.cfi_offset 8, -12
 4977              		.cfi_offset 9, -8
 4978              		.cfi_offset 14, -4
1485:D:/fchai/work/i-cube/I-CUBE-HUAWEI/Middlewares/Third_Party/Huawei/iot_link/os/liteos/base/core\los_task.c ****         return LOS_ERRNO_TSK_NOT_CREATED;
 4979              		.loc 1 1485 9 is_stmt 1 view .LVU1563
 4980 0104 FFF7FEFF 		bl	LOS_IntRestore
 4981              	.LVL366:
1486:D:/fchai/work/i-cube/I-CUBE-HUAWEI/Middlewares/Third_Party/Huawei/iot_link/os/liteos/base/core\los_task.c ****     }
 4982              		.loc 1 1486 9 view .LVU1564
1486:D:/fchai/work/i-cube/I-CUBE-HUAWEI/Middlewares/Third_Party/Huawei/iot_link/os/liteos/base/core\los_task.c ****     }
 4983              		.loc 1 1486 16 is_stmt 0 view .LVU1565
 4984 0108 0448     		ldr	r0, .L352+16
 4985 010a D8E7     		b	.L328
 4986              	.L353:
 4987              		.align	2
 4988              	.L352:
 4989 010c 00000000 		.word	g_uwTskMaxNum
 4990 0110 00000000 		.word	g_pstTaskCBArray
 4991 0114 07020002 		.word	33554951
 4992 0118 01020002 		.word	33554945
 4993 011c 0A020002 		.word	33554954
 4994              		.cfi_endproc
 4995              	.LFE163:
 4997              		.section	.text.LOS_TaskStatusGet,"ax",%progbits
 4998              		.align	1
 4999              		.p2align 2,,3
 5000              		.global	LOS_TaskStatusGet
 5001              		.syntax unified
 5002              		.thumb
 5003              		.thumb_func
 5004              		.fpu fpv4-sp-d16
 5006              	LOS_TaskStatusGet:
 5007              	.LVL367:
 5008              	.LFB164:
1529:D:/fchai/work/i-cube/I-CUBE-HUAWEI/Middlewares/Third_Party/Huawei/iot_link/os/liteos/base/core\los_task.c **** 
1530:D:/fchai/work/i-cube/I-CUBE-HUAWEI/Middlewares/Third_Party/Huawei/iot_link/os/liteos/base/core\los_task.c **** /*****************************************************************************
1531:D:/fchai/work/i-cube/I-CUBE-HUAWEI/Middlewares/Third_Party/Huawei/iot_link/os/liteos/base/core\los_task.c ****  Function : LOS_TaskStatusGet
1532:D:/fchai/work/i-cube/I-CUBE-HUAWEI/Middlewares/Third_Party/Huawei/iot_link/os/liteos/base/core\los_task.c ****  Description : Get status of the task
1533:D:/fchai/work/i-cube/I-CUBE-HUAWEI/Middlewares/Third_Party/Huawei/iot_link/os/liteos/base/core\los_task.c ****  Input       : uwTaskID
1534:D:/fchai/work/i-cube/I-CUBE-HUAWEI/Middlewares/Third_Party/Huawei/iot_link/os/liteos/base/core\los_task.c ****  Output      : puwTaskStatus
1535:D:/fchai/work/i-cube/I-CUBE-HUAWEI/Middlewares/Third_Party/Huawei/iot_link/os/liteos/base/core\los_task.c ****  Return      : LOS_OK on success or error code on failure
1536:D:/fchai/work/i-cube/I-CUBE-HUAWEI/Middlewares/Third_Party/Huawei/iot_link/os/liteos/base/core\los_task.c ****  *****************************************************************************/
1537:D:/fchai/work/i-cube/I-CUBE-HUAWEI/Middlewares/Third_Party/Huawei/iot_link/os/liteos/base/core\los_task.c **** LITE_OS_SEC_TEXT_MINOR UINT32 LOS_TaskStatusGet(UINT32 uwTaskID, UINT32 *puwTaskStatus)
1538:D:/fchai/work/i-cube/I-CUBE-HUAWEI/Middlewares/Third_Party/Huawei/iot_link/os/liteos/base/core\los_task.c **** {
 5009              		.loc 1 1538 1 is_stmt 1 view -0
 5010              		.cfi_startproc
 5011              		@ args = 0, pretend = 0, frame = 0
 5012              		@ frame_needed = 0, uses_anonymous_args = 0
1539:D:/fchai/work/i-cube/I-CUBE-HUAWEI/Middlewares/Third_Party/Huawei/iot_link/os/liteos/base/core\los_task.c ****     UINT32    uwIntSave;
 5013              		.loc 1 1539 5 view .LVU1567
1540:D:/fchai/work/i-cube/I-CUBE-HUAWEI/Middlewares/Third_Party/Huawei/iot_link/os/liteos/base/core\los_task.c ****     LOS_TASK_CB *pstTaskCB;
ARM GAS  T:\msys\tmp\ccehPeV4.s 			page 138


 5014              		.loc 1 1540 5 view .LVU1568
1541:D:/fchai/work/i-cube/I-CUBE-HUAWEI/Middlewares/Third_Party/Huawei/iot_link/os/liteos/base/core\los_task.c **** 
1542:D:/fchai/work/i-cube/I-CUBE-HUAWEI/Middlewares/Third_Party/Huawei/iot_link/os/liteos/base/core\los_task.c ****     if (NULL == puwTaskStatus)
 5015              		.loc 1 1542 5 view .LVU1569
 5016              		.loc 1 1542 8 is_stmt 0 view .LVU1570
 5017 0000 D9B1     		cbz	r1, .L357
1543:D:/fchai/work/i-cube/I-CUBE-HUAWEI/Middlewares/Third_Party/Huawei/iot_link/os/liteos/base/core\los_task.c ****     {
1544:D:/fchai/work/i-cube/I-CUBE-HUAWEI/Middlewares/Third_Party/Huawei/iot_link/os/liteos/base/core\los_task.c ****         return LOS_ERRNO_TSK_PTR_NULL;
1545:D:/fchai/work/i-cube/I-CUBE-HUAWEI/Middlewares/Third_Party/Huawei/iot_link/os/liteos/base/core\los_task.c ****     }
1546:D:/fchai/work/i-cube/I-CUBE-HUAWEI/Middlewares/Third_Party/Huawei/iot_link/os/liteos/base/core\los_task.c **** 
1547:D:/fchai/work/i-cube/I-CUBE-HUAWEI/Middlewares/Third_Party/Huawei/iot_link/os/liteos/base/core\los_task.c ****     if (OS_CHECK_TSK_PID_NOIDLE(uwTaskID))
 5018              		.loc 1 1547 5 is_stmt 1 view .LVU1571
1538:D:/fchai/work/i-cube/I-CUBE-HUAWEI/Middlewares/Third_Party/Huawei/iot_link/os/liteos/base/core\los_task.c ****     UINT32    uwIntSave;
 5019              		.loc 1 1538 1 is_stmt 0 view .LVU1572
 5020 0002 38B5     		push	{r3, r4, r5, lr}
 5021              	.LCFI70:
 5022              		.cfi_def_cfa_offset 16
 5023              		.cfi_offset 3, -16
 5024              		.cfi_offset 4, -12
 5025              		.cfi_offset 5, -8
 5026              		.cfi_offset 14, -4
 5027              		.loc 1 1547 9 view .LVU1573
 5028 0004 0E4B     		ldr	r3, .L364
 5029              		.loc 1 1547 8 view .LVU1574
 5030 0006 1B68     		ldr	r3, [r3]
 5031 0008 8342     		cmp	r3, r0
 5032 000a 10D9     		bls	.L358
1548:D:/fchai/work/i-cube/I-CUBE-HUAWEI/Middlewares/Third_Party/Huawei/iot_link/os/liteos/base/core\los_task.c ****     {
1549:D:/fchai/work/i-cube/I-CUBE-HUAWEI/Middlewares/Third_Party/Huawei/iot_link/os/liteos/base/core\los_task.c ****         return LOS_ERRNO_TSK_ID_INVALID;
1550:D:/fchai/work/i-cube/I-CUBE-HUAWEI/Middlewares/Third_Party/Huawei/iot_link/os/liteos/base/core\los_task.c ****     }
1551:D:/fchai/work/i-cube/I-CUBE-HUAWEI/Middlewares/Third_Party/Huawei/iot_link/os/liteos/base/core\los_task.c **** 
1552:D:/fchai/work/i-cube/I-CUBE-HUAWEI/Middlewares/Third_Party/Huawei/iot_link/os/liteos/base/core\los_task.c ****     pstTaskCB = OS_TCB_FROM_TID(uwTaskID);
 5033              		.loc 1 1552 5 is_stmt 1 view .LVU1575
 5034              		.loc 1 1552 17 is_stmt 0 view .LVU1576
 5035 000c 0D4B     		ldr	r3, .L364+4
 5036              		.loc 1 1552 15 view .LVU1577
 5037 000e 1C68     		ldr	r4, [r3]
 5038              		.loc 1 1552 17 view .LVU1578
 5039 0010 5423     		movs	r3, #84
 5040              		.loc 1 1552 15 view .LVU1579
 5041 0012 03FB0044 		mla	r4, r3, r0, r4
 5042              	.LVL368:
1553:D:/fchai/work/i-cube/I-CUBE-HUAWEI/Middlewares/Third_Party/Huawei/iot_link/os/liteos/base/core\los_task.c ****     uwIntSave = LOS_IntLock();
 5043              		.loc 1 1553 5 is_stmt 1 view .LVU1580
 5044 0016 0D46     		mov	r5, r1
 5045              		.loc 1 1553 17 is_stmt 0 view .LVU1581
 5046 0018 FFF7FEFF 		bl	LOS_IntLock
 5047              	.LVL369:
1554:D:/fchai/work/i-cube/I-CUBE-HUAWEI/Middlewares/Third_Party/Huawei/iot_link/os/liteos/base/core\los_task.c **** 
1555:D:/fchai/work/i-cube/I-CUBE-HUAWEI/Middlewares/Third_Party/Huawei/iot_link/os/liteos/base/core\los_task.c ****     if (OS_TASK_STATUS_UNUSED & pstTaskCB->usTaskStatus)
 5048              		.loc 1 1555 5 is_stmt 1 view .LVU1582
 5049              		.loc 1 1555 42 is_stmt 0 view .LVU1583
 5050 001c A388     		ldrh	r3, [r4, #4]
 5051              		.loc 1 1555 8 view .LVU1584
 5052 001e 13F00104 		ands	r4, r3, #1
 5053              	.LVL370:
 5054              		.loc 1 1555 8 view .LVU1585
ARM GAS  T:\msys\tmp\ccehPeV4.s 			page 139


 5055 0022 06D1     		bne	.L363
1556:D:/fchai/work/i-cube/I-CUBE-HUAWEI/Middlewares/Third_Party/Huawei/iot_link/os/liteos/base/core\los_task.c ****     {
1557:D:/fchai/work/i-cube/I-CUBE-HUAWEI/Middlewares/Third_Party/Huawei/iot_link/os/liteos/base/core\los_task.c ****         (VOID)LOS_IntRestore(uwIntSave);
1558:D:/fchai/work/i-cube/I-CUBE-HUAWEI/Middlewares/Third_Party/Huawei/iot_link/os/liteos/base/core\los_task.c ****         return LOS_ERRNO_TSK_NOT_CREATED;
1559:D:/fchai/work/i-cube/I-CUBE-HUAWEI/Middlewares/Third_Party/Huawei/iot_link/os/liteos/base/core\los_task.c ****     }
1560:D:/fchai/work/i-cube/I-CUBE-HUAWEI/Middlewares/Third_Party/Huawei/iot_link/os/liteos/base/core\los_task.c **** 
1561:D:/fchai/work/i-cube/I-CUBE-HUAWEI/Middlewares/Third_Party/Huawei/iot_link/os/liteos/base/core\los_task.c ****     *puwTaskStatus = pstTaskCB->usTaskStatus;
 5056              		.loc 1 1561 5 is_stmt 1 view .LVU1586
 5057              		.loc 1 1561 31 is_stmt 0 view .LVU1587
 5058 0024 2B60     		str	r3, [r5]
1562:D:/fchai/work/i-cube/I-CUBE-HUAWEI/Middlewares/Third_Party/Huawei/iot_link/os/liteos/base/core\los_task.c **** 
1563:D:/fchai/work/i-cube/I-CUBE-HUAWEI/Middlewares/Third_Party/Huawei/iot_link/os/liteos/base/core\los_task.c ****     (VOID)LOS_IntRestore(uwIntSave);
 5059              		.loc 1 1563 5 is_stmt 1 view .LVU1588
 5060 0026 FFF7FEFF 		bl	LOS_IntRestore
 5061              	.LVL371:
1564:D:/fchai/work/i-cube/I-CUBE-HUAWEI/Middlewares/Third_Party/Huawei/iot_link/os/liteos/base/core\los_task.c **** 
1565:D:/fchai/work/i-cube/I-CUBE-HUAWEI/Middlewares/Third_Party/Huawei/iot_link/os/liteos/base/core\los_task.c ****     return LOS_OK;
 5062              		.loc 1 1565 5 view .LVU1589
 5063              		.loc 1 1565 12 is_stmt 0 view .LVU1590
 5064 002a 2046     		mov	r0, r4
1566:D:/fchai/work/i-cube/I-CUBE-HUAWEI/Middlewares/Third_Party/Huawei/iot_link/os/liteos/base/core\los_task.c **** }
 5065              		.loc 1 1566 1 view .LVU1591
 5066 002c 38BD     		pop	{r3, r4, r5, pc}
 5067              	.LVL372:
 5068              	.L358:
1549:D:/fchai/work/i-cube/I-CUBE-HUAWEI/Middlewares/Third_Party/Huawei/iot_link/os/liteos/base/core\los_task.c ****     }
 5069              		.loc 1 1549 16 view .LVU1592
 5070 002e 0648     		ldr	r0, .L364+8
 5071              	.LVL373:
 5072              		.loc 1 1566 1 view .LVU1593
 5073 0030 38BD     		pop	{r3, r4, r5, pc}
 5074              	.LVL374:
 5075              	.L363:
1557:D:/fchai/work/i-cube/I-CUBE-HUAWEI/Middlewares/Third_Party/Huawei/iot_link/os/liteos/base/core\los_task.c ****         return LOS_ERRNO_TSK_NOT_CREATED;
 5076              		.loc 1 1557 9 is_stmt 1 view .LVU1594
 5077 0032 FFF7FEFF 		bl	LOS_IntRestore
 5078              	.LVL375:
1558:D:/fchai/work/i-cube/I-CUBE-HUAWEI/Middlewares/Third_Party/Huawei/iot_link/os/liteos/base/core\los_task.c ****     }
 5079              		.loc 1 1558 9 view .LVU1595
1558:D:/fchai/work/i-cube/I-CUBE-HUAWEI/Middlewares/Third_Party/Huawei/iot_link/os/liteos/base/core\los_task.c ****     }
 5080              		.loc 1 1558 16 is_stmt 0 view .LVU1596
 5081 0036 0548     		ldr	r0, .L364+12
 5082              		.loc 1 1566 1 view .LVU1597
 5083 0038 38BD     		pop	{r3, r4, r5, pc}
 5084              	.LVL376:
 5085              	.L357:
 5086              	.LCFI71:
 5087              		.cfi_def_cfa_offset 0
 5088              		.cfi_restore 3
 5089              		.cfi_restore 4
 5090              		.cfi_restore 5
 5091              		.cfi_restore 14
1544:D:/fchai/work/i-cube/I-CUBE-HUAWEI/Middlewares/Third_Party/Huawei/iot_link/os/liteos/base/core\los_task.c ****     }
 5092              		.loc 1 1544 16 view .LVU1598
 5093 003a 0548     		ldr	r0, .L364+16
 5094              	.LVL377:
 5095              		.loc 1 1566 1 view .LVU1599
ARM GAS  T:\msys\tmp\ccehPeV4.s 			page 140


 5096 003c 7047     		bx	lr
 5097              	.L365:
 5098 003e 00BF     		.align	2
 5099              	.L364:
 5100 0040 00000000 		.word	g_uwTskMaxNum
 5101 0044 00000000 		.word	g_pstTaskCBArray
 5102 0048 07020002 		.word	33554951
 5103 004c 0A020002 		.word	33554954
 5104 0050 01020002 		.word	33554945
 5105              		.cfi_endproc
 5106              	.LFE164:
 5108              		.section	.text.LOS_TaskSwitchInfoGet,"ax",%progbits
 5109              		.align	1
 5110              		.p2align 2,,3
 5111              		.global	LOS_TaskSwitchInfoGet
 5112              		.syntax unified
 5113              		.thumb
 5114              		.thumb_func
 5115              		.fpu fpv4-sp-d16
 5117              	LOS_TaskSwitchInfoGet:
 5118              	.LVL378:
 5119              	.LFB165:
1567:D:/fchai/work/i-cube/I-CUBE-HUAWEI/Middlewares/Third_Party/Huawei/iot_link/os/liteos/base/core\los_task.c **** 
1568:D:/fchai/work/i-cube/I-CUBE-HUAWEI/Middlewares/Third_Party/Huawei/iot_link/os/liteos/base/core\los_task.c **** #if (LOSCFG_BASE_CORE_EXC_TSK_SWITCH == YES)
1569:D:/fchai/work/i-cube/I-CUBE-HUAWEI/Middlewares/Third_Party/Huawei/iot_link/os/liteos/base/core\los_task.c **** /*****************************************************************************
1570:D:/fchai/work/i-cube/I-CUBE-HUAWEI/Middlewares/Third_Party/Huawei/iot_link/os/liteos/base/core\los_task.c ****  Function : LOS_TaskSwitchInfoGet
1571:D:/fchai/work/i-cube/I-CUBE-HUAWEI/Middlewares/Third_Party/Huawei/iot_link/os/liteos/base/core\los_task.c ****  Description : save the information of the task switch
1572:D:/fchai/work/i-cube/I-CUBE-HUAWEI/Middlewares/Third_Party/Huawei/iot_link/os/liteos/base/core\los_task.c ****  Input       : uwIdx
1573:D:/fchai/work/i-cube/I-CUBE-HUAWEI/Middlewares/Third_Party/Huawei/iot_link/os/liteos/base/core\los_task.c ****  Output      : pTaskSwitchInfo
1574:D:/fchai/work/i-cube/I-CUBE-HUAWEI/Middlewares/Third_Party/Huawei/iot_link/os/liteos/base/core\los_task.c ****  Return      : LOS_OK on success or error code on failure
1575:D:/fchai/work/i-cube/I-CUBE-HUAWEI/Middlewares/Third_Party/Huawei/iot_link/os/liteos/base/core\los_task.c ****  *****************************************************************************/
1576:D:/fchai/work/i-cube/I-CUBE-HUAWEI/Middlewares/Third_Party/Huawei/iot_link/os/liteos/base/core\los_task.c **** LITE_OS_SEC_TEXT_MINOR UINT32 LOS_TaskSwitchInfoGet(UINT32 uwIdx, UINT32 *puwTaskSwitchInfo)
1577:D:/fchai/work/i-cube/I-CUBE-HUAWEI/Middlewares/Third_Party/Huawei/iot_link/os/liteos/base/core\los_task.c **** {
 5120              		.loc 1 1577 1 is_stmt 1 view -0
 5121              		.cfi_startproc
 5122              		@ args = 0, pretend = 0, frame = 0
 5123              		@ frame_needed = 0, uses_anonymous_args = 0
1578:D:/fchai/work/i-cube/I-CUBE-HUAWEI/Middlewares/Third_Party/Huawei/iot_link/os/liteos/base/core\los_task.c ****     UINTPTR uvIntSave;
 5124              		.loc 1 1578 5 view .LVU1601
1579:D:/fchai/work/i-cube/I-CUBE-HUAWEI/Middlewares/Third_Party/Huawei/iot_link/os/liteos/base/core\los_task.c **** 
1580:D:/fchai/work/i-cube/I-CUBE-HUAWEI/Middlewares/Third_Party/Huawei/iot_link/os/liteos/base/core\los_task.c ****     if (uwIdx >= OS_TASK_SWITCH_INFO_COUNT)
 5125              		.loc 1 1580 5 view .LVU1602
 5126              		.loc 1 1580 8 is_stmt 0 view .LVU1603
 5127 0000 0928     		cmp	r0, #9
1581:D:/fchai/work/i-cube/I-CUBE-HUAWEI/Middlewares/Third_Party/Huawei/iot_link/os/liteos/base/core\los_task.c ****     {
1582:D:/fchai/work/i-cube/I-CUBE-HUAWEI/Middlewares/Third_Party/Huawei/iot_link/os/liteos/base/core\los_task.c ****         uwIdx -= OS_TASK_SWITCH_INFO_COUNT;
 5128              		.loc 1 1582 9 is_stmt 1 view .LVU1604
1577:D:/fchai/work/i-cube/I-CUBE-HUAWEI/Middlewares/Third_Party/Huawei/iot_link/os/liteos/base/core\los_task.c ****     UINTPTR uvIntSave;
 5129              		.loc 1 1577 1 is_stmt 0 view .LVU1605
 5130 0002 F8B5     		push	{r3, r4, r5, r6, r7, lr}
 5131              	.LCFI72:
 5132              		.cfi_def_cfa_offset 24
 5133              		.cfi_offset 3, -24
 5134              		.cfi_offset 4, -20
 5135              		.cfi_offset 5, -16
 5136              		.cfi_offset 6, -12
 5137              		.cfi_offset 7, -8
ARM GAS  T:\msys\tmp\ccehPeV4.s 			page 141


 5138              		.cfi_offset 14, -4
1577:D:/fchai/work/i-cube/I-CUBE-HUAWEI/Middlewares/Third_Party/Huawei/iot_link/os/liteos/base/core\los_task.c ****     UINTPTR uvIntSave;
 5139              		.loc 1 1577 1 view .LVU1606
 5140 0004 0546     		mov	r5, r0
 5141 0006 0E46     		mov	r6, r1
 5142              		.loc 1 1582 15 view .LVU1607
 5143 0008 88BF     		it	hi
 5144 000a A0F10A05 		subhi	r5, r0, #10
 5145              	.LVL379:
1583:D:/fchai/work/i-cube/I-CUBE-HUAWEI/Middlewares/Third_Party/Huawei/iot_link/os/liteos/base/core\los_task.c ****     }
1584:D:/fchai/work/i-cube/I-CUBE-HUAWEI/Middlewares/Third_Party/Huawei/iot_link/os/liteos/base/core\los_task.c **** 
1585:D:/fchai/work/i-cube/I-CUBE-HUAWEI/Middlewares/Third_Party/Huawei/iot_link/os/liteos/base/core\los_task.c ****     if (NULL == puwTaskSwitchInfo)
 5146              		.loc 1 1585 5 is_stmt 1 view .LVU1608
 5147              		.loc 1 1585 8 is_stmt 0 view .LVU1609
 5148 000e 31B3     		cbz	r1, .L369
1586:D:/fchai/work/i-cube/I-CUBE-HUAWEI/Middlewares/Third_Party/Huawei/iot_link/os/liteos/base/core\los_task.c ****     {
1587:D:/fchai/work/i-cube/I-CUBE-HUAWEI/Middlewares/Third_Party/Huawei/iot_link/os/liteos/base/core\los_task.c ****         return LOS_ERRNO_TSK_PTR_NULL;
1588:D:/fchai/work/i-cube/I-CUBE-HUAWEI/Middlewares/Third_Party/Huawei/iot_link/os/liteos/base/core\los_task.c ****     }
1589:D:/fchai/work/i-cube/I-CUBE-HUAWEI/Middlewares/Third_Party/Huawei/iot_link/os/liteos/base/core\los_task.c **** 
1590:D:/fchai/work/i-cube/I-CUBE-HUAWEI/Middlewares/Third_Party/Huawei/iot_link/os/liteos/base/core\los_task.c ****     uvIntSave = LOS_IntLock();
 5149              		.loc 1 1590 5 is_stmt 1 view .LVU1610
 5150              		.loc 1 1590 17 is_stmt 0 view .LVU1611
 5151 0010 FFF7FEFF 		bl	LOS_IntLock
 5152              	.LVL380:
1591:D:/fchai/work/i-cube/I-CUBE-HUAWEI/Middlewares/Third_Party/Huawei/iot_link/os/liteos/base/core\los_task.c **** 
1592:D:/fchai/work/i-cube/I-CUBE-HUAWEI/Middlewares/Third_Party/Huawei/iot_link/os/liteos/base/core\los_task.c ****     (*puwTaskSwitchInfo) = g_astTskSwitchInfo.auwPID[uwIdx];
 5153              		.loc 1 1592 5 is_stmt 1 view .LVU1612
 5154              		.loc 1 1592 53 is_stmt 0 view .LVU1613
 5155 0014 134A     		ldr	r2, .L371
 5156 0016 02EB4503 		add	r3, r2, r5, lsl #1
 5157 001a 3446     		mov	r4, r6
 5158 001c 5B88     		ldrh	r3, [r3, #2]
 5159 001e 44F8043B 		str	r3, [r4], #4
1593:D:/fchai/work/i-cube/I-CUBE-HUAWEI/Middlewares/Third_Party/Huawei/iot_link/os/liteos/base/core\los_task.c ****     memcpy((VOID *)(puwTaskSwitchInfo + 1), g_astTskSwitchInfo.acName[uwIdx], LOS_TASK_NAMELEN);
 5160              		.loc 1 1593 5 is_stmt 1 view .LVU1614
 5161              		.loc 1 1593 70 is_stmt 0 view .LVU1615
 5162 0022 02EB4513 		add	r3, r2, r5, lsl #5
 5163              		.loc 1 1593 5 view .LVU1616
 5164 0026 D3F81650 		ldr	r5, [r3, #22]	@ unaligned
 5165              	.LVL381:
 5166              		.loc 1 1593 5 view .LVU1617
 5167 002a D3F81A10 		ldr	r1, [r3, #26]	@ unaligned
 5168 002e D3F81E20 		ldr	r2, [r3, #30]	@ unaligned
 5169 0032 D3F82270 		ldr	r7, [r3, #34]	@ unaligned
 5170 0036 7560     		str	r5, [r6, #4]	@ unaligned
 5171 0038 6160     		str	r1, [r4, #4]	@ unaligned
 5172 003a A260     		str	r2, [r4, #8]	@ unaligned
 5173 003c E760     		str	r7, [r4, #12]	@ unaligned
 5174 003e D3F82650 		ldr	r5, [r3, #38]	@ unaligned
 5175 0042 D3F82A10 		ldr	r1, [r3, #42]	@ unaligned
 5176 0046 D3F82E20 		ldr	r2, [r3, #46]	@ unaligned
 5177 004a D3F83270 		ldr	r7, [r3, #50]	@ unaligned
 5178 004e E761     		str	r7, [r4, #28]	@ unaligned
1594:D:/fchai/work/i-cube/I-CUBE-HUAWEI/Middlewares/Third_Party/Huawei/iot_link/os/liteos/base/core\los_task.c **** 
1595:D:/fchai/work/i-cube/I-CUBE-HUAWEI/Middlewares/Third_Party/Huawei/iot_link/os/liteos/base/core\los_task.c ****     (VOID)LOS_IntRestore(uvIntSave);
 5179              		.loc 1 1595 5 is_stmt 1 view .LVU1618
1593:D:/fchai/work/i-cube/I-CUBE-HUAWEI/Middlewares/Third_Party/Huawei/iot_link/os/liteos/base/core\los_task.c ****     memcpy((VOID *)(puwTaskSwitchInfo + 1), g_astTskSwitchInfo.acName[uwIdx], LOS_TASK_NAMELEN);
ARM GAS  T:\msys\tmp\ccehPeV4.s 			page 142


 5180              		.loc 1 1593 5 is_stmt 0 view .LVU1619
 5181 0050 2561     		str	r5, [r4, #16]	@ unaligned
 5182 0052 6161     		str	r1, [r4, #20]	@ unaligned
 5183 0054 A261     		str	r2, [r4, #24]	@ unaligned
 5184              		.loc 1 1595 5 view .LVU1620
 5185 0056 FFF7FEFF 		bl	LOS_IntRestore
 5186              	.LVL382:
1596:D:/fchai/work/i-cube/I-CUBE-HUAWEI/Middlewares/Third_Party/Huawei/iot_link/os/liteos/base/core\los_task.c ****     return LOS_OK;
 5187              		.loc 1 1596 5 is_stmt 1 view .LVU1621
 5188              		.loc 1 1596 12 is_stmt 0 view .LVU1622
 5189 005a 0020     		movs	r0, #0
1597:D:/fchai/work/i-cube/I-CUBE-HUAWEI/Middlewares/Third_Party/Huawei/iot_link/os/liteos/base/core\los_task.c **** }
 5190              		.loc 1 1597 1 view .LVU1623
 5191 005c F8BD     		pop	{r3, r4, r5, r6, r7, pc}
 5192              	.LVL383:
 5193              	.L369:
1587:D:/fchai/work/i-cube/I-CUBE-HUAWEI/Middlewares/Third_Party/Huawei/iot_link/os/liteos/base/core\los_task.c ****     }
 5194              		.loc 1 1587 16 view .LVU1624
 5195 005e 0248     		ldr	r0, .L371+4
 5196              		.loc 1 1597 1 view .LVU1625
 5197 0060 F8BD     		pop	{r3, r4, r5, r6, r7, pc}
 5198              	.LVL384:
 5199              	.L372:
 5200              		.loc 1 1597 1 view .LVU1626
 5201 0062 00BF     		.align	2
 5202              	.L371:
 5203 0064 00000000 		.word	g_astTskSwitchInfo
 5204 0068 01020002 		.word	33554945
 5205              		.cfi_endproc
 5206              	.LFE165:
 5208              		.section	.text.LOS_TaskInfoMonitor,"ax",%progbits
 5209              		.align	1
 5210              		.p2align 2,,3
 5211              		.global	LOS_TaskInfoMonitor
 5212              		.syntax unified
 5213              		.thumb
 5214              		.thumb_func
 5215              		.fpu fpv4-sp-d16
 5217              	LOS_TaskInfoMonitor:
 5218              	.LFB166:
1598:D:/fchai/work/i-cube/I-CUBE-HUAWEI/Middlewares/Third_Party/Huawei/iot_link/os/liteos/base/core\los_task.c **** #endif
1599:D:/fchai/work/i-cube/I-CUBE-HUAWEI/Middlewares/Third_Party/Huawei/iot_link/os/liteos/base/core\los_task.c **** 
1600:D:/fchai/work/i-cube/I-CUBE-HUAWEI/Middlewares/Third_Party/Huawei/iot_link/os/liteos/base/core\los_task.c **** /*****************************************************************************
1601:D:/fchai/work/i-cube/I-CUBE-HUAWEI/Middlewares/Third_Party/Huawei/iot_link/os/liteos/base/core\los_task.c **** Function   : LOS_TaskInfoMonitor
1602:D:/fchai/work/i-cube/I-CUBE-HUAWEI/Middlewares/Third_Party/Huawei/iot_link/os/liteos/base/core\los_task.c **** Description: Get all task info
1603:D:/fchai/work/i-cube/I-CUBE-HUAWEI/Middlewares/Third_Party/Huawei/iot_link/os/liteos/base/core\los_task.c **** Input      : None
1604:D:/fchai/work/i-cube/I-CUBE-HUAWEI/Middlewares/Third_Party/Huawei/iot_link/os/liteos/base/core\los_task.c **** Return     : LOS_OK on success ,or OS_ERROR on failure
1605:D:/fchai/work/i-cube/I-CUBE-HUAWEI/Middlewares/Third_Party/Huawei/iot_link/os/liteos/base/core\los_task.c **** *****************************************************************************/
1606:D:/fchai/work/i-cube/I-CUBE-HUAWEI/Middlewares/Third_Party/Huawei/iot_link/os/liteos/base/core\los_task.c **** LITE_OS_SEC_TEXT_MINOR UINT32 LOS_TaskInfoMonitor(VOID)
1607:D:/fchai/work/i-cube/I-CUBE-HUAWEI/Middlewares/Third_Party/Huawei/iot_link/os/liteos/base/core\los_task.c **** {
 5219              		.loc 1 1607 1 is_stmt 1 view -0
 5220              		.cfi_startproc
 5221              		@ args = 0, pretend = 0, frame = 0
 5222              		@ frame_needed = 0, uses_anonymous_args = 0
 5223              		@ link register save eliminated.
1608:D:/fchai/work/i-cube/I-CUBE-HUAWEI/Middlewares/Third_Party/Huawei/iot_link/os/liteos/base/core\los_task.c ****     UINT32 uwRet;
 5224              		.loc 1 1608 5 view .LVU1628
ARM GAS  T:\msys\tmp\ccehPeV4.s 			page 143


1609:D:/fchai/work/i-cube/I-CUBE-HUAWEI/Middlewares/Third_Party/Huawei/iot_link/os/liteos/base/core\los_task.c **** 
1610:D:/fchai/work/i-cube/I-CUBE-HUAWEI/Middlewares/Third_Party/Huawei/iot_link/os/liteos/base/core\los_task.c ****     uwRet = osGetAllTskInfo();
 5225              		.loc 1 1610 5 view .LVU1629
 5226              		.loc 1 1610 13 is_stmt 0 view .LVU1630
 5227 0000 FFF7FEBF 		b	osGetAllTskInfo
 5228              	.LVL385:
 5229              		.cfi_endproc
 5230              	.LFE166:
 5232              		.section	.text.LOS_TaskIsRunning,"ax",%progbits
 5233              		.align	1
 5234              		.p2align 2,,3
 5235              		.global	LOS_TaskIsRunning
 5236              		.syntax unified
 5237              		.thumb
 5238              		.thumb_func
 5239              		.fpu fpv4-sp-d16
 5241              	LOS_TaskIsRunning:
 5242              	.LFB167:
1611:D:/fchai/work/i-cube/I-CUBE-HUAWEI/Middlewares/Third_Party/Huawei/iot_link/os/liteos/base/core\los_task.c **** 
1612:D:/fchai/work/i-cube/I-CUBE-HUAWEI/Middlewares/Third_Party/Huawei/iot_link/os/liteos/base/core\los_task.c ****     return uwRet;
1613:D:/fchai/work/i-cube/I-CUBE-HUAWEI/Middlewares/Third_Party/Huawei/iot_link/os/liteos/base/core\los_task.c **** }
1614:D:/fchai/work/i-cube/I-CUBE-HUAWEI/Middlewares/Third_Party/Huawei/iot_link/os/liteos/base/core\los_task.c **** 
1615:D:/fchai/work/i-cube/I-CUBE-HUAWEI/Middlewares/Third_Party/Huawei/iot_link/os/liteos/base/core\los_task.c **** /*****************************************************************************
1616:D:/fchai/work/i-cube/I-CUBE-HUAWEI/Middlewares/Third_Party/Huawei/iot_link/os/liteos/base/core\los_task.c ****  Function : LOS_TaskIsRunning
1617:D:/fchai/work/i-cube/I-CUBE-HUAWEI/Middlewares/Third_Party/Huawei/iot_link/os/liteos/base/core\los_task.c ****  Description : Check if LiteOS has been started.
1618:D:/fchai/work/i-cube/I-CUBE-HUAWEI/Middlewares/Third_Party/Huawei/iot_link/os/liteos/base/core\los_task.c ****  Input       : VOID
1619:D:/fchai/work/i-cube/I-CUBE-HUAWEI/Middlewares/Third_Party/Huawei/iot_link/os/liteos/base/core\los_task.c ****  Output      : VOID
1620:D:/fchai/work/i-cube/I-CUBE-HUAWEI/Middlewares/Third_Party/Huawei/iot_link/os/liteos/base/core\los_task.c ****  Return      : TRUE means LiteOS was started, FALSE means not.
1621:D:/fchai/work/i-cube/I-CUBE-HUAWEI/Middlewares/Third_Party/Huawei/iot_link/os/liteos/base/core\los_task.c ****  *****************************************************************************/
1622:D:/fchai/work/i-cube/I-CUBE-HUAWEI/Middlewares/Third_Party/Huawei/iot_link/os/liteos/base/core\los_task.c **** LITE_OS_SEC_TEXT_MINOR BOOL LOS_TaskIsRunning(VOID)
1623:D:/fchai/work/i-cube/I-CUBE-HUAWEI/Middlewares/Third_Party/Huawei/iot_link/os/liteos/base/core\los_task.c **** {
 5243              		.loc 1 1623 1 is_stmt 1 view -0
 5244              		.cfi_startproc
 5245              		@ args = 0, pretend = 0, frame = 0
 5246              		@ frame_needed = 0, uses_anonymous_args = 0
 5247              		@ link register save eliminated.
1624:D:/fchai/work/i-cube/I-CUBE-HUAWEI/Middlewares/Third_Party/Huawei/iot_link/os/liteos/base/core\los_task.c ****     return g_bTaskScheduled;
 5248              		.loc 1 1624 5 view .LVU1632
 5249              		.loc 1 1624 12 is_stmt 0 view .LVU1633
 5250 0000 014B     		ldr	r3, .L375
1625:D:/fchai/work/i-cube/I-CUBE-HUAWEI/Middlewares/Third_Party/Huawei/iot_link/os/liteos/base/core\los_task.c **** }
 5251              		.loc 1 1625 1 view .LVU1634
 5252 0002 1868     		ldr	r0, [r3]
 5253 0004 7047     		bx	lr
 5254              	.L376:
 5255 0006 00BF     		.align	2
 5256              	.L375:
 5257 0008 00000000 		.word	g_bTaskScheduled
 5258              		.cfi_endproc
 5259              	.LFE167:
 5261              		.section	.text.LOS_NewTaskIDGet,"ax",%progbits
 5262              		.align	1
 5263              		.p2align 2,,3
 5264              		.global	LOS_NewTaskIDGet
 5265              		.syntax unified
 5266              		.thumb
 5267              		.thumb_func
ARM GAS  T:\msys\tmp\ccehPeV4.s 			page 144


 5268              		.fpu fpv4-sp-d16
 5270              	LOS_NewTaskIDGet:
 5271              	.LFB179:
 5272              		.cfi_startproc
 5273              		@ args = 0, pretend = 0, frame = 0
 5274              		@ frame_needed = 0, uses_anonymous_args = 0
 5275              		@ link register save eliminated.
 5276 0000 FFF7FEBF 		b	LOS_NextTaskIDGet
 5277              		.cfi_endproc
 5278              	.LFE179:
 5280              		.section	.text.LOS_TaskNameGet,"ax",%progbits
 5281              		.align	1
 5282              		.p2align 2,,3
 5283              		.global	LOS_TaskNameGet
 5284              		.syntax unified
 5285              		.thumb
 5286              		.thumb_func
 5287              		.fpu fpv4-sp-d16
 5289              	LOS_TaskNameGet:
 5290              	.LVL386:
 5291              	.LFB169:
1626:D:/fchai/work/i-cube/I-CUBE-HUAWEI/Middlewares/Third_Party/Huawei/iot_link/os/liteos/base/core\los_task.c **** 
1627:D:/fchai/work/i-cube/I-CUBE-HUAWEI/Middlewares/Third_Party/Huawei/iot_link/os/liteos/base/core\los_task.c **** /*****************************************************************************
1628:D:/fchai/work/i-cube/I-CUBE-HUAWEI/Middlewares/Third_Party/Huawei/iot_link/os/liteos/base/core\los_task.c ****  Function : LOS_NewTaskIDGet
1629:D:/fchai/work/i-cube/I-CUBE-HUAWEI/Middlewares/Third_Party/Huawei/iot_link/os/liteos/base/core\los_task.c ****  Description : get id of current new task.
1630:D:/fchai/work/i-cube/I-CUBE-HUAWEI/Middlewares/Third_Party/Huawei/iot_link/os/liteos/base/core\los_task.c ****  Input       : None
1631:D:/fchai/work/i-cube/I-CUBE-HUAWEI/Middlewares/Third_Party/Huawei/iot_link/os/liteos/base/core\los_task.c ****  Output      : None
1632:D:/fchai/work/i-cube/I-CUBE-HUAWEI/Middlewares/Third_Party/Huawei/iot_link/os/liteos/base/core\los_task.c ****  Return      : task id
1633:D:/fchai/work/i-cube/I-CUBE-HUAWEI/Middlewares/Third_Party/Huawei/iot_link/os/liteos/base/core\los_task.c ****  *****************************************************************************/
1634:D:/fchai/work/i-cube/I-CUBE-HUAWEI/Middlewares/Third_Party/Huawei/iot_link/os/liteos/base/core\los_task.c **** LITE_OS_SEC_TEXT UINT32 LOS_NewTaskIDGet(VOID)
1635:D:/fchai/work/i-cube/I-CUBE-HUAWEI/Middlewares/Third_Party/Huawei/iot_link/os/liteos/base/core\los_task.c **** {
1636:D:/fchai/work/i-cube/I-CUBE-HUAWEI/Middlewares/Third_Party/Huawei/iot_link/os/liteos/base/core\los_task.c ****     if (NULL == g_stLosTask.pstNewTask)
1637:D:/fchai/work/i-cube/I-CUBE-HUAWEI/Middlewares/Third_Party/Huawei/iot_link/os/liteos/base/core\los_task.c ****     {
1638:D:/fchai/work/i-cube/I-CUBE-HUAWEI/Middlewares/Third_Party/Huawei/iot_link/os/liteos/base/core\los_task.c ****         return LOS_ERRNO_TSK_ID_INVALID;
1639:D:/fchai/work/i-cube/I-CUBE-HUAWEI/Middlewares/Third_Party/Huawei/iot_link/os/liteos/base/core\los_task.c ****     }
1640:D:/fchai/work/i-cube/I-CUBE-HUAWEI/Middlewares/Third_Party/Huawei/iot_link/os/liteos/base/core\los_task.c ****     return g_stLosTask.pstNewTask->uwTaskID;
1641:D:/fchai/work/i-cube/I-CUBE-HUAWEI/Middlewares/Third_Party/Huawei/iot_link/os/liteos/base/core\los_task.c **** }
1642:D:/fchai/work/i-cube/I-CUBE-HUAWEI/Middlewares/Third_Party/Huawei/iot_link/os/liteos/base/core\los_task.c **** 
1643:D:/fchai/work/i-cube/I-CUBE-HUAWEI/Middlewares/Third_Party/Huawei/iot_link/os/liteos/base/core\los_task.c **** /*****************************************************************************
1644:D:/fchai/work/i-cube/I-CUBE-HUAWEI/Middlewares/Third_Party/Huawei/iot_link/os/liteos/base/core\los_task.c ****  Function : LOS_TaskNameGet
1645:D:/fchai/work/i-cube/I-CUBE-HUAWEI/Middlewares/Third_Party/Huawei/iot_link/os/liteos/base/core\los_task.c ****  Description : get Name of current new task.
1646:D:/fchai/work/i-cube/I-CUBE-HUAWEI/Middlewares/Third_Party/Huawei/iot_link/os/liteos/base/core\los_task.c ****  Input       : uwTaskID -----task id
1647:D:/fchai/work/i-cube/I-CUBE-HUAWEI/Middlewares/Third_Party/Huawei/iot_link/os/liteos/base/core\los_task.c ****  Output      : None
1648:D:/fchai/work/i-cube/I-CUBE-HUAWEI/Middlewares/Third_Party/Huawei/iot_link/os/liteos/base/core\los_task.c ****  Return      : task name
1649:D:/fchai/work/i-cube/I-CUBE-HUAWEI/Middlewares/Third_Party/Huawei/iot_link/os/liteos/base/core\los_task.c ****  *****************************************************************************/
1650:D:/fchai/work/i-cube/I-CUBE-HUAWEI/Middlewares/Third_Party/Huawei/iot_link/os/liteos/base/core\los_task.c **** LITE_OS_SEC_TEXT CHAR* LOS_TaskNameGet(UINT32 uwTaskID)
1651:D:/fchai/work/i-cube/I-CUBE-HUAWEI/Middlewares/Third_Party/Huawei/iot_link/os/liteos/base/core\los_task.c **** {
 5292              		.loc 1 1651 1 is_stmt 1 view -0
 5293              		.cfi_startproc
 5294              		@ args = 0, pretend = 0, frame = 0
 5295              		@ frame_needed = 0, uses_anonymous_args = 0
1652:D:/fchai/work/i-cube/I-CUBE-HUAWEI/Middlewares/Third_Party/Huawei/iot_link/os/liteos/base/core\los_task.c ****     UINT32    uwIntSave;
 5296              		.loc 1 1652 5 view .LVU1636
1653:D:/fchai/work/i-cube/I-CUBE-HUAWEI/Middlewares/Third_Party/Huawei/iot_link/os/liteos/base/core\los_task.c ****     LOS_TASK_CB *pstTaskCB;
 5297              		.loc 1 1653 5 view .LVU1637
1654:D:/fchai/work/i-cube/I-CUBE-HUAWEI/Middlewares/Third_Party/Huawei/iot_link/os/liteos/base/core\los_task.c **** 
1655:D:/fchai/work/i-cube/I-CUBE-HUAWEI/Middlewares/Third_Party/Huawei/iot_link/os/liteos/base/core\los_task.c ****     if (OS_CHECK_TSK_PID_NOIDLE(uwTaskID))
ARM GAS  T:\msys\tmp\ccehPeV4.s 			page 145


 5298              		.loc 1 1655 5 view .LVU1638
 5299              		.loc 1 1655 9 is_stmt 0 view .LVU1639
 5300 0000 0C4B     		ldr	r3, .L387
 5301              		.loc 1 1655 8 view .LVU1640
 5302 0002 1B68     		ldr	r3, [r3]
 5303 0004 8342     		cmp	r3, r0
 5304 0006 0ED9     		bls	.L381
1656:D:/fchai/work/i-cube/I-CUBE-HUAWEI/Middlewares/Third_Party/Huawei/iot_link/os/liteos/base/core\los_task.c ****     {
1657:D:/fchai/work/i-cube/I-CUBE-HUAWEI/Middlewares/Third_Party/Huawei/iot_link/os/liteos/base/core\los_task.c ****         return NULL;
1658:D:/fchai/work/i-cube/I-CUBE-HUAWEI/Middlewares/Third_Party/Huawei/iot_link/os/liteos/base/core\los_task.c ****     }
1659:D:/fchai/work/i-cube/I-CUBE-HUAWEI/Middlewares/Third_Party/Huawei/iot_link/os/liteos/base/core\los_task.c **** 
1660:D:/fchai/work/i-cube/I-CUBE-HUAWEI/Middlewares/Third_Party/Huawei/iot_link/os/liteos/base/core\los_task.c ****     pstTaskCB = OS_TCB_FROM_TID(uwTaskID);
 5305              		.loc 1 1660 5 is_stmt 1 view .LVU1641
 5306              		.loc 1 1660 17 is_stmt 0 view .LVU1642
 5307 0008 0B4B     		ldr	r3, .L387+4
1651:D:/fchai/work/i-cube/I-CUBE-HUAWEI/Middlewares/Third_Party/Huawei/iot_link/os/liteos/base/core\los_task.c ****     UINT32    uwIntSave;
 5308              		.loc 1 1651 1 view .LVU1643
 5309 000a 10B5     		push	{r4, lr}
 5310              	.LCFI73:
 5311              		.cfi_def_cfa_offset 8
 5312              		.cfi_offset 4, -8
 5313              		.cfi_offset 14, -4
 5314              		.loc 1 1660 15 view .LVU1644
 5315 000c 1C68     		ldr	r4, [r3]
 5316              		.loc 1 1660 17 view .LVU1645
 5317 000e 5423     		movs	r3, #84
 5318              		.loc 1 1660 15 view .LVU1646
 5319 0010 03FB0044 		mla	r4, r3, r0, r4
 5320              	.LVL387:
1661:D:/fchai/work/i-cube/I-CUBE-HUAWEI/Middlewares/Third_Party/Huawei/iot_link/os/liteos/base/core\los_task.c **** 
1662:D:/fchai/work/i-cube/I-CUBE-HUAWEI/Middlewares/Third_Party/Huawei/iot_link/os/liteos/base/core\los_task.c ****     uwIntSave = LOS_IntLock();
 5321              		.loc 1 1662 5 is_stmt 1 view .LVU1647
 5322              		.loc 1 1662 17 is_stmt 0 view .LVU1648
 5323 0014 FFF7FEFF 		bl	LOS_IntLock
 5324              	.LVL388:
1663:D:/fchai/work/i-cube/I-CUBE-HUAWEI/Middlewares/Third_Party/Huawei/iot_link/os/liteos/base/core\los_task.c ****     if (OS_TASK_STATUS_UNUSED & pstTaskCB->usTaskStatus)
 5325              		.loc 1 1663 5 is_stmt 1 view .LVU1649
 5326              		.loc 1 1663 9 is_stmt 0 view .LVU1650
 5327 0018 A388     		ldrh	r3, [r4, #4]
 5328              		.loc 1 1663 8 view .LVU1651
 5329 001a DB07     		lsls	r3, r3, #31
 5330 001c 05D4     		bmi	.L386
1664:D:/fchai/work/i-cube/I-CUBE-HUAWEI/Middlewares/Third_Party/Huawei/iot_link/os/liteos/base/core\los_task.c ****     {
1665:D:/fchai/work/i-cube/I-CUBE-HUAWEI/Middlewares/Third_Party/Huawei/iot_link/os/liteos/base/core\los_task.c ****         (VOID)LOS_IntRestore(uwIntSave);
1666:D:/fchai/work/i-cube/I-CUBE-HUAWEI/Middlewares/Third_Party/Huawei/iot_link/os/liteos/base/core\los_task.c ****         return NULL;
1667:D:/fchai/work/i-cube/I-CUBE-HUAWEI/Middlewares/Third_Party/Huawei/iot_link/os/liteos/base/core\los_task.c ****     }
1668:D:/fchai/work/i-cube/I-CUBE-HUAWEI/Middlewares/Third_Party/Huawei/iot_link/os/liteos/base/core\los_task.c ****     (VOID)LOS_IntRestore(uwIntSave);
 5331              		.loc 1 1668 5 is_stmt 1 view .LVU1652
 5332 001e FFF7FEFF 		bl	LOS_IntRestore
 5333              	.LVL389:
1669:D:/fchai/work/i-cube/I-CUBE-HUAWEI/Middlewares/Third_Party/Huawei/iot_link/os/liteos/base/core\los_task.c **** 
1670:D:/fchai/work/i-cube/I-CUBE-HUAWEI/Middlewares/Third_Party/Huawei/iot_link/os/liteos/base/core\los_task.c ****     return pstTaskCB->pcTaskName;
 5334              		.loc 1 1670 5 view .LVU1653
 5335              		.loc 1 1670 21 is_stmt 0 view .LVU1654
 5336 0022 606A     		ldr	r0, [r4, #36]
1671:D:/fchai/work/i-cube/I-CUBE-HUAWEI/Middlewares/Third_Party/Huawei/iot_link/os/liteos/base/core\los_task.c **** }
 5337              		.loc 1 1671 1 view .LVU1655
ARM GAS  T:\msys\tmp\ccehPeV4.s 			page 146


 5338 0024 10BD     		pop	{r4, pc}
 5339              	.LVL390:
 5340              	.L381:
 5341              	.LCFI74:
 5342              		.cfi_def_cfa_offset 0
 5343              		.cfi_restore 4
 5344              		.cfi_restore 14
1657:D:/fchai/work/i-cube/I-CUBE-HUAWEI/Middlewares/Third_Party/Huawei/iot_link/os/liteos/base/core\los_task.c ****     }
 5345              		.loc 1 1657 16 view .LVU1656
 5346 0026 0020     		movs	r0, #0
 5347              	.LVL391:
 5348              		.loc 1 1671 1 view .LVU1657
 5349 0028 7047     		bx	lr
 5350              	.LVL392:
 5351              	.L386:
 5352              	.LCFI75:
 5353              		.cfi_def_cfa_offset 8
 5354              		.cfi_offset 4, -8
 5355              		.cfi_offset 14, -4
1665:D:/fchai/work/i-cube/I-CUBE-HUAWEI/Middlewares/Third_Party/Huawei/iot_link/os/liteos/base/core\los_task.c ****         return NULL;
 5356              		.loc 1 1665 9 is_stmt 1 view .LVU1658
 5357 002a FFF7FEFF 		bl	LOS_IntRestore
 5358              	.LVL393:
1666:D:/fchai/work/i-cube/I-CUBE-HUAWEI/Middlewares/Third_Party/Huawei/iot_link/os/liteos/base/core\los_task.c ****     }
 5359              		.loc 1 1666 9 view .LVU1659
1666:D:/fchai/work/i-cube/I-CUBE-HUAWEI/Middlewares/Third_Party/Huawei/iot_link/os/liteos/base/core\los_task.c ****     }
 5360              		.loc 1 1666 16 is_stmt 0 view .LVU1660
 5361 002e 0020     		movs	r0, #0
 5362              		.loc 1 1671 1 view .LVU1661
 5363 0030 10BD     		pop	{r4, pc}
 5364              	.LVL394:
 5365              	.L388:
 5366              		.loc 1 1671 1 view .LVU1662
 5367 0032 00BF     		.align	2
 5368              	.L387:
 5369 0034 00000000 		.word	g_uwTskMaxNum
 5370 0038 00000000 		.word	g_pstTaskCBArray
 5371              		.cfi_endproc
 5372              	.LFE169:
 5374              		.comm	g_astTskSwitchInfo,342,4
 5375              		.global	g_pfnUsrTskSwitchHook
 5376              		.global	g_pfnTskSwitchHook
 5377              		.comm	g_bTaskScheduled,4,4
 5378              		.comm	g_stTskSortLink,8,4
 5379              		.comm	g_stTaskTimerList,8,4
 5380              		.comm	g_uwSwtmrTaskID,4,4
 5381              		.comm	g_uwIdleTaskID,4,4
 5382              		.comm	g_uwTskMaxNum,4,4
 5383              		.comm	g_usLosTaskLock,2,2
 5384              		.comm	g_stLosTask,8,4
 5385              		.comm	g_stTskRecyleList,8,4
 5386              		.comm	g_stLosFreeTask,8,4
 5387              		.comm	g_pstTaskCBArray,4,4
 5388              		.section	.bss.g_pfnTskSwitchHook,"aw",%nobits
 5389              		.align	2
 5390              		.set	.LANCHOR1,. + 0
 5393              	g_pfnTskSwitchHook:
ARM GAS  T:\msys\tmp\ccehPeV4.s 			page 147


 5394 0000 00000000 		.space	4
 5395              		.section	.bss.g_pfnUsrTskSwitchHook,"aw",%nobits
 5396              		.align	2
 5397              		.set	.LANCHOR0,. + 0
 5400              	g_pfnUsrTskSwitchHook:
 5401 0000 00000000 		.space	4
 5402              		.text
 5403              	.Letext0:
 5404              		.file 3 "t:\\msys\\3rd\\gcc-arm-none-eabi-9-2020-q2-update-win32\\lib\\gcc\\arm-none-eabi\\9.3.1\\
 5405              		.file 4 "t:\\msys\\3rd\\gcc-arm-none-eabi-9-2020-q2-update-win32\\arm-none-eabi\\include\\machine\
 5406              		.file 5 "t:\\msys\\3rd\\gcc-arm-none-eabi-9-2020-q2-update-win32\\arm-none-eabi\\include\\sys\\_ty
 5407              		.file 6 "t:\\msys\\3rd\\gcc-arm-none-eabi-9-2020-q2-update-win32\\arm-none-eabi\\include\\sys\\ree
 5408              		.file 7 "t:\\msys\\3rd\\gcc-arm-none-eabi-9-2020-q2-update-win32\\arm-none-eabi\\include\\sys\\loc
 5409              		.file 8 "D:/fchai/work/i-cube/I-CUBE-HUAWEI/Middlewares/Third_Party/Huawei/iot_link/os/liteos/incl
 5410              		.file 9 "t:\\msys\\3rd\\gcc-arm-none-eabi-9-2020-q2-update-win32\\arm-none-eabi\\include\\sys\\_st
 5411              		.file 10 "D:/fchai/work/i-cube/I-CUBE-HUAWEI/Middlewares/Third_Party/Huawei/iot_link/os/liteos/arc
 5412              		.file 11 "D:/fchai/work/i-cube/I-CUBE-HUAWEI/Drivers/CMSIS/Device/ST/STM32L4xx/Include/system_stm3
 5413              		.file 12 "D:/fchai/work/i-cube/I-CUBE-HUAWEI/Drivers/STM32L4xx_HAL_Driver/Inc/stm32l4xx_hal_def.h"
 5414              		.file 13 "D:/fchai/work/i-cube/I-CUBE-HUAWEI/Drivers/STM32L4xx_HAL_Driver/Inc/stm32l4xx_hal_flash.
 5415              		.file 14 "D:/fchai/work/i-cube/I-CUBE-HUAWEI/Drivers/STM32L4xx_HAL_Driver/Inc/stm32l4xx_hal.h"
 5416              		.file 15 "D:/fchai/work/i-cube/I-CUBE-HUAWEI/Middlewares/Third_Party/Huawei/iot_link/os/liteos/inc
 5417              		.file 16 "D:/fchai/work/i-cube/I-CUBE-HUAWEI/Middlewares/Third_Party/Huawei/iot_link/os/liteos/inc
 5418              		.file 17 "D:/fchai/work/i-cube/I-CUBE-HUAWEI/Middlewares/Third_Party/Huawei/iot_link/os/liteos/arc
 5419              		.file 18 "D:/fchai/work/i-cube/I-CUBE-HUAWEI/Middlewares/Third_Party/Huawei/iot_link/os/liteos/inc
 5420              		.file 19 "D:/fchai/work/i-cube/I-CUBE-HUAWEI/Middlewares/Third_Party/Huawei/iot_link/os/liteos/inc
 5421              		.file 20 "D:/fchai/work/i-cube/I-CUBE-HUAWEI/Middlewares/Third_Party/Huawei/iot_link/os/liteos/inc
 5422              		.file 21 "D:/fchai/work/i-cube/I-CUBE-HUAWEI/Middlewares/Third_Party/Huawei/iot_link/os/liteos/bas
 5423              		.file 22 "D:/fchai/work/i-cube/I-CUBE-HUAWEI/Middlewares/Third_Party/Huawei/iot_link/os/liteos/bas
 5424              		.file 23 "D:/fchai/work/i-cube/I-CUBE-HUAWEI/Middlewares/Third_Party/Huawei/iot_link/os/liteos/inc
 5425              		.file 24 "D:/fchai/work/i-cube/I-CUBE-HUAWEI/Middlewares/Third_Party/Huawei/iot_link/os/liteos/bas
 5426              		.file 25 "D:/fchai/work/i-cube/I-CUBE-HUAWEI/Middlewares/Third_Party/Huawei/iot_link/os/liteos/bas
 5427              		.file 26 "t:\\msys\\3rd\\gcc-arm-none-eabi-9-2020-q2-update-win32\\arm-none-eabi\\include\\string.
 5428              		.file 27 "D:/fchai/work/i-cube/I-CUBE-HUAWEI/Middlewares/Third_Party/Huawei/iot_link/os/liteos/arc
 5429              		.file 28 "D:/fchai/work/i-cube/I-CUBE-HUAWEI/Middlewares/Third_Party/Huawei/iot_link/os/liteos/bas
 5430              		.file 29 "t:\\msys\\3rd\\gcc-arm-none-eabi-9-2020-q2-update-win32\\arm-none-eabi\\include\\stdio.h
 5431              		.file 30 "<built-in>"
 5432              		.file 31 "D:/fchai/work/i-cube/I-CUBE-HUAWEI/Middlewares/Third_Party/Huawei/iot_link/os/liteos/inc
ARM GAS  T:\msys\tmp\ccehPeV4.s 			page 148


DEFINED SYMBOLS
                            *ABS*:00000000 los_task.c
T:\msys\tmp\ccehPeV4.s:18     .text.osIdleTask:00000000 $t
T:\msys\tmp\ccehPeV4.s:27     .text.osIdleTask:00000000 osIdleTask
T:\msys\tmp\ccehPeV4.s:44     .rodata.osTaskSwitchCheck.str1.4:00000000 $d
T:\msys\tmp\ccehPeV4.s:58     .text.osTaskSwitchCheck:00000000 $t
T:\msys\tmp\ccehPeV4.s:66     .text.osTaskSwitchCheck:00000000 osTaskSwitchCheck
T:\msys\tmp\ccehPeV4.s:258    .text.osTaskSwitchCheck:000000cc $d
                            *COM*:00000008 g_stLosTask
                            *COM*:00000156 g_astTskSwitchInfo
T:\msys\tmp\ccehPeV4.s:269    .text.osTaskPriModify:00000000 $t
T:\msys\tmp\ccehPeV4.s:277    .text.osTaskPriModify:00000000 osTaskPriModify
T:\msys\tmp\ccehPeV4.s:359    .text.osTaskAdd2TimerList:00000000 $t
T:\msys\tmp\ccehPeV4.s:367    .text.osTaskAdd2TimerList:00000000 osTaskAdd2TimerList
T:\msys\tmp\ccehPeV4.s:555    .text.osTaskAdd2TimerList:0000007c $d
                            *COM*:00000008 g_stTskSortLink
T:\msys\tmp\ccehPeV4.s:560    .text.osTimerListDelete:00000000 $t
T:\msys\tmp\ccehPeV4.s:568    .text.osTimerListDelete:00000000 osTimerListDelete
T:\msys\tmp\ccehPeV4.s:658    .text.osTimerListDelete:0000003c $d
T:\msys\tmp\ccehPeV4.s:663    .text.osTaskScan:00000000 $t
T:\msys\tmp\ccehPeV4.s:671    .text.osTaskScan:00000000 osTaskScan
T:\msys\tmp\ccehPeV4.s:945    .text.osTaskScan:000000c8 $d
T:\msys\tmp\ccehPeV4.s:950    .rodata.osConvertTskStatus.str1.4:00000000 $d
T:\msys\tmp\ccehPeV4.s:978    .text.osConvertTskStatus:00000000 $t
T:\msys\tmp\ccehPeV4.s:986    .text.osConvertTskStatus:00000000 osConvertTskStatus
T:\msys\tmp\ccehPeV4.s:1097   .text.osConvertTskStatus:0000004c $d
T:\msys\tmp\ccehPeV4.s:1110   .rodata.osGetTaskWaterLine.str1.4:00000000 $d
T:\msys\tmp\ccehPeV4.s:1114   .text.osGetTaskWaterLine:00000000 $t
T:\msys\tmp\ccehPeV4.s:1122   .text.osGetTaskWaterLine:00000000 osGetTaskWaterLine
T:\msys\tmp\ccehPeV4.s:1222   .text.osGetTaskWaterLine:00000050 $d
                            *COM*:00000004 g_pstTaskCBArray
T:\msys\tmp\ccehPeV4.s:1229   .rodata.osGetAllTskInfo.str1.4:00000000 $d
T:\msys\tmp\ccehPeV4.s:1253   .text.osGetAllTskInfo:00000000 $t
T:\msys\tmp\ccehPeV4.s:1261   .text.osGetAllTskInfo:00000000 osGetAllTskInfo
T:\msys\tmp\ccehPeV4.s:1415   .text.osGetAllTskInfo:000000bc $d
                            *COM*:00000004 g_uwTskMaxNum
T:\msys\tmp\ccehPeV4.s:1427   .text.osTaskInit:00000000 $t
T:\msys\tmp\ccehPeV4.s:1435   .text.osTaskInit:00000000 osTaskInit
T:\msys\tmp\ccehPeV4.s:1706   .text.osTaskInit:000000b0 $d
                            *COM*:00000008 g_stTaskTimerList
                            *COM*:00000008 g_stLosFreeTask
                            *COM*:00000008 g_stTskRecyleList
T:\msys\tmp\ccehPeV4.s:1719   .text.LOS_CurTaskIDGet:00000000 $t
T:\msys\tmp\ccehPeV4.s:1727   .text.LOS_CurTaskIDGet:00000000 LOS_CurTaskIDGet
T:\msys\tmp\ccehPeV4.s:1752   .text.LOS_CurTaskIDGet:00000010 $d
T:\msys\tmp\ccehPeV4.s:1758   .text.LOS_NextTaskIDGet:00000000 $t
T:\msys\tmp\ccehPeV4.s:1766   .text.LOS_NextTaskIDGet:00000000 LOS_NextTaskIDGet
T:\msys\tmp\ccehPeV4.s:1791   .text.LOS_NextTaskIDGet:00000010 $d
T:\msys\tmp\ccehPeV4.s:1797   .text.LOS_CurTaskNameGet:00000000 $t
T:\msys\tmp\ccehPeV4.s:1805   .text.LOS_CurTaskNameGet:00000000 LOS_CurTaskNameGet
T:\msys\tmp\ccehPeV4.s:1831   .text.LOS_CurTaskNameGet:0000000c $d
T:\msys\tmp\ccehPeV4.s:1836   .text.osTaskMonInit:00000000 $t
T:\msys\tmp\ccehPeV4.s:1844   .text.osTaskMonInit:00000000 osTaskMonInit
T:\msys\tmp\ccehPeV4.s:1890   .text.osTaskMonInit:00000024 $d
T:\msys\tmp\ccehPeV4.s:1898   .text.LOS_TaskCreateOnly:00000000 $t
T:\msys\tmp\ccehPeV4.s:1906   .text.LOS_TaskCreateOnly:00000000 LOS_TaskCreateOnly
T:\msys\tmp\ccehPeV4.s:2351   .text.LOS_TaskCreateOnly:0000014c $d
ARM GAS  T:\msys\tmp\ccehPeV4.s 			page 149


T:\msys\tmp\ccehPeV4.s:2369   .text.LOS_TaskCreate:00000000 $t
T:\msys\tmp\ccehPeV4.s:2377   .text.LOS_TaskCreate:00000000 LOS_TaskCreate
T:\msys\tmp\ccehPeV4.s:2560   .text.LOS_TaskCreate:00000094 $d
                            *COM*:00000004 g_bTaskScheduled
                            *COM*:00000002 g_usLosTaskLock
T:\msys\tmp\ccehPeV4.s:2571   .rodata.osIdleTaskCreate.str1.4:00000000 $d
T:\msys\tmp\ccehPeV4.s:2575   .text.osIdleTaskCreate:00000000 $t
T:\msys\tmp\ccehPeV4.s:2583   .text.osIdleTaskCreate:00000000 osIdleTaskCreate
T:\msys\tmp\ccehPeV4.s:2643   .text.osIdleTaskCreate:0000002c $d
                            *COM*:00000004 g_uwIdleTaskID
T:\msys\tmp\ccehPeV4.s:2650   .text.LOS_TaskResume:00000000 $t
T:\msys\tmp\ccehPeV4.s:2658   .text.LOS_TaskResume:00000000 LOS_TaskResume
T:\msys\tmp\ccehPeV4.s:2818   .text.LOS_TaskResume:00000080 $d
T:\msys\tmp\ccehPeV4.s:2828   .text.LOS_TaskSuspend:00000000 $t
T:\msys\tmp\ccehPeV4.s:2836   .text.LOS_TaskSuspend:00000000 LOS_TaskSuspend
T:\msys\tmp\ccehPeV4.s:3040   .text.LOS_TaskSuspend:000000a8 $d
                            *COM*:00000004 g_uwSwtmrTaskID
T:\msys\tmp\ccehPeV4.s:3056   .text.LOS_TaskDelete:00000000 $t
T:\msys\tmp\ccehPeV4.s:3064   .text.LOS_TaskDelete:00000000 LOS_TaskDelete
T:\msys\tmp\ccehPeV4.s:3534   .text.LOS_TaskDelete:00000178 $d
T:\msys\tmp\ccehPeV4.s:3555   .text.osTaskEntry:00000000 $t
T:\msys\tmp\ccehPeV4.s:3563   .text.osTaskEntry:00000000 osTaskEntry
T:\msys\tmp\ccehPeV4.s:3612   .text.osTaskEntry:0000001c $d
T:\msys\tmp\ccehPeV4.s:3617   .text.LOS_TaskPriGet:00000000 $t
T:\msys\tmp\ccehPeV4.s:3625   .text.LOS_TaskPriGet:00000000 LOS_TaskPriGet
T:\msys\tmp\ccehPeV4.s:3705   .text.LOS_TaskPriGet:0000003c $d
T:\msys\tmp\ccehPeV4.s:3711   .text.LOS_TaskPriSet:00000000 $t
T:\msys\tmp\ccehPeV4.s:3719   .text.LOS_TaskPriSet:00000000 LOS_TaskPriSet
T:\msys\tmp\ccehPeV4.s:3950   .text.LOS_TaskPriSet:00000098 $d
T:\msys\tmp\ccehPeV4.s:3965   .text.LOS_CurTaskPriSet:00000000 $t
T:\msys\tmp\ccehPeV4.s:3973   .text.LOS_CurTaskPriSet:00000000 LOS_CurTaskPriSet
T:\msys\tmp\ccehPeV4.s:3998   .text.LOS_CurTaskPriSet:0000000c $d
T:\msys\tmp\ccehPeV4.s:4003   .text.osTaskWait:00000000 $t
T:\msys\tmp\ccehPeV4.s:4011   .text.osTaskWait:00000000 osTaskWait
T:\msys\tmp\ccehPeV4.s:4143   .text.osTaskWait:00000050 $d
T:\msys\tmp\ccehPeV4.s:4148   .text.osTaskWake:00000000 $t
T:\msys\tmp\ccehPeV4.s:4156   .text.osTaskWake:00000000 osTaskWake
T:\msys\tmp\ccehPeV4.s:4269   .text.LOS_TaskYield:00000000 $t
T:\msys\tmp\ccehPeV4.s:4277   .text.LOS_TaskYield:00000000 LOS_TaskYield
T:\msys\tmp\ccehPeV4.s:4431   .text.LOS_TaskYield:0000006c $d
T:\msys\tmp\ccehPeV4.s:4439   .text.LOS_TaskDelay:00000000 $t
T:\msys\tmp\ccehPeV4.s:4447   .text.LOS_TaskDelay:00000000 LOS_TaskDelay
T:\msys\tmp\ccehPeV4.s:4568   .text.LOS_TaskDelay:00000060 $d
T:\msys\tmp\ccehPeV4.s:4577   .text.LOS_TaskLock:00000000 $t
T:\msys\tmp\ccehPeV4.s:4585   .text.LOS_TaskLock:00000000 LOS_TaskLock
T:\msys\tmp\ccehPeV4.s:4622   .text.LOS_TaskLock:00000018 $d
T:\msys\tmp\ccehPeV4.s:4627   .text.LOS_TaskUnlock:00000000 $t
T:\msys\tmp\ccehPeV4.s:4635   .text.LOS_TaskUnlock:00000000 LOS_TaskUnlock
T:\msys\tmp\ccehPeV4.s:4703   .text.LOS_TaskUnlock:0000002c $d
T:\msys\tmp\ccehPeV4.s:4708   .text.LOS_TaskInfoGet:00000000 $t
T:\msys\tmp\ccehPeV4.s:4716   .text.LOS_TaskInfoGet:00000000 LOS_TaskInfoGet
T:\msys\tmp\ccehPeV4.s:4989   .text.LOS_TaskInfoGet:0000010c $d
T:\msys\tmp\ccehPeV4.s:4998   .text.LOS_TaskStatusGet:00000000 $t
T:\msys\tmp\ccehPeV4.s:5006   .text.LOS_TaskStatusGet:00000000 LOS_TaskStatusGet
T:\msys\tmp\ccehPeV4.s:5100   .text.LOS_TaskStatusGet:00000040 $d
T:\msys\tmp\ccehPeV4.s:5109   .text.LOS_TaskSwitchInfoGet:00000000 $t
T:\msys\tmp\ccehPeV4.s:5117   .text.LOS_TaskSwitchInfoGet:00000000 LOS_TaskSwitchInfoGet
ARM GAS  T:\msys\tmp\ccehPeV4.s 			page 150


T:\msys\tmp\ccehPeV4.s:5203   .text.LOS_TaskSwitchInfoGet:00000064 $d
T:\msys\tmp\ccehPeV4.s:5209   .text.LOS_TaskInfoMonitor:00000000 $t
T:\msys\tmp\ccehPeV4.s:5217   .text.LOS_TaskInfoMonitor:00000000 LOS_TaskInfoMonitor
T:\msys\tmp\ccehPeV4.s:5233   .text.LOS_TaskIsRunning:00000000 $t
T:\msys\tmp\ccehPeV4.s:5241   .text.LOS_TaskIsRunning:00000000 LOS_TaskIsRunning
T:\msys\tmp\ccehPeV4.s:5257   .text.LOS_TaskIsRunning:00000008 $d
T:\msys\tmp\ccehPeV4.s:5262   .text.LOS_NewTaskIDGet:00000000 $t
T:\msys\tmp\ccehPeV4.s:5270   .text.LOS_NewTaskIDGet:00000000 LOS_NewTaskIDGet
T:\msys\tmp\ccehPeV4.s:5281   .text.LOS_TaskNameGet:00000000 $t
T:\msys\tmp\ccehPeV4.s:5289   .text.LOS_TaskNameGet:00000000 LOS_TaskNameGet
T:\msys\tmp\ccehPeV4.s:5369   .text.LOS_TaskNameGet:00000034 $d
T:\msys\tmp\ccehPeV4.s:5400   .bss.g_pfnUsrTskSwitchHook:00000000 g_pfnUsrTskSwitchHook
T:\msys\tmp\ccehPeV4.s:5393   .bss.g_pfnTskSwitchHook:00000000 g_pfnTskSwitchHook
T:\msys\tmp\ccehPeV4.s:5389   .bss.g_pfnTskSwitchHook:00000000 $d
T:\msys\tmp\ccehPeV4.s:5396   .bss.g_pfnUsrTskSwitchHook:00000000 $d

UNDEFINED SYMBOLS
printf
osPriqueueDequeue
osPriqueueEnqueue
LOS_Schedule
puts
LOS_MemAlloc
memset
osPriqueueInit
m_aucSysMem0
LOS_Align
LOS_IntLock
LOS_MemFree
LOS_IntRestore
osTskStackAlloc
osTskStackInit
osPriqueueTop
osSchedule
osPriqueueSize
g_vuwIntCount
strncpy
