ARM GAS  T:\msys\tmp\ccdbBuIC.s 			page 1


   1              		.cpu cortex-m4
   2              		.eabi_attribute 27, 1
   3              		.eabi_attribute 28, 1
   4              		.eabi_attribute 20, 1
   5              		.eabi_attribute 21, 1
   6              		.eabi_attribute 23, 3
   7              		.eabi_attribute 24, 1
   8              		.eabi_attribute 25, 1
   9              		.eabi_attribute 26, 1
  10              		.eabi_attribute 30, 2
  11              		.eabi_attribute 34, 1
  12              		.eabi_attribute 18, 4
  13              		.file	"link_string.c"
  14              		.text
  15              	.Ltext0:
  16              		.cfi_sections	.debug_frame
  17              		.section	.text.string_to_arg,"ax",%progbits
  18              		.align	1
  19              		.p2align 2,,3
  20              		.global	string_to_arg
  21              		.arch armv7e-m
  22              		.syntax unified
  23              		.thumb
  24              		.thumb_func
  25              		.fpu fpv4-sp-d16
  27              	string_to_arg:
  28              	.LVL0:
  29              	.LFB3:
  30              		.file 1 "D:/fchai/work/i-cube/I-CUBE-HUAWEI/Middlewares/Third_Party/Huawei/iot_link/link_misc/link
   1:D:/fchai/work/i-cube/I-CUBE-HUAWEI/Middlewares/Third_Party/Huawei/iot_link/link_misc\link_string.c **** /*----------------------------------------------------------------------------
   2:D:/fchai/work/i-cube/I-CUBE-HUAWEI/Middlewares/Third_Party/Huawei/iot_link/link_misc\link_string.c ****  * Copyright (c) <2018>, <Huawei Technologies Co., Ltd>
   3:D:/fchai/work/i-cube/I-CUBE-HUAWEI/Middlewares/Third_Party/Huawei/iot_link/link_misc\link_string.c ****  * All rights reserved.
   4:D:/fchai/work/i-cube/I-CUBE-HUAWEI/Middlewares/Third_Party/Huawei/iot_link/link_misc\link_string.c ****  * Redistribution and use in source and binary forms, with or without modification,
   5:D:/fchai/work/i-cube/I-CUBE-HUAWEI/Middlewares/Third_Party/Huawei/iot_link/link_misc\link_string.c ****  * are permitted provided that the following conditions are met:
   6:D:/fchai/work/i-cube/I-CUBE-HUAWEI/Middlewares/Third_Party/Huawei/iot_link/link_misc\link_string.c ****  * 1. Redistributions of source code must retain the above copyright notice, this list of
   7:D:/fchai/work/i-cube/I-CUBE-HUAWEI/Middlewares/Third_Party/Huawei/iot_link/link_misc\link_string.c ****  * conditions and the following disclaimer.
   8:D:/fchai/work/i-cube/I-CUBE-HUAWEI/Middlewares/Third_Party/Huawei/iot_link/link_misc\link_string.c ****  * 2. Redistributions in binary form must reproduce the above copyright notice, this list
   9:D:/fchai/work/i-cube/I-CUBE-HUAWEI/Middlewares/Third_Party/Huawei/iot_link/link_misc\link_string.c ****  * of conditions and the following disclaimer in the documentation and/or other materials
  10:D:/fchai/work/i-cube/I-CUBE-HUAWEI/Middlewares/Third_Party/Huawei/iot_link/link_misc\link_string.c ****  * provided with the distribution.
  11:D:/fchai/work/i-cube/I-CUBE-HUAWEI/Middlewares/Third_Party/Huawei/iot_link/link_misc\link_string.c ****  * 3. Neither the name of the copyright holder nor the names of its contributors may be used
  12:D:/fchai/work/i-cube/I-CUBE-HUAWEI/Middlewares/Third_Party/Huawei/iot_link/link_misc\link_string.c ****  * to endorse or promote products derived from this software without specific prior written
  13:D:/fchai/work/i-cube/I-CUBE-HUAWEI/Middlewares/Third_Party/Huawei/iot_link/link_misc\link_string.c ****  * permission.
  14:D:/fchai/work/i-cube/I-CUBE-HUAWEI/Middlewares/Third_Party/Huawei/iot_link/link_misc\link_string.c ****  * THIS SOFTWARE IS PROVIDED BY THE COPYRIGHT HOLDERS AND CONTRIBUTORS
  15:D:/fchai/work/i-cube/I-CUBE-HUAWEI/Middlewares/Third_Party/Huawei/iot_link/link_misc\link_string.c ****  * "AS IS" AND ANY EXPRESS OR IMPLIED WARRANTIES, INCLUDING, BUT NOT LIMITED TO,
  16:D:/fchai/work/i-cube/I-CUBE-HUAWEI/Middlewares/Third_Party/Huawei/iot_link/link_misc\link_string.c ****  * THE IMPLIED WARRANTIES OF MERCHANTABILITY AND FITNESS FOR A PARTICULAR
  17:D:/fchai/work/i-cube/I-CUBE-HUAWEI/Middlewares/Third_Party/Huawei/iot_link/link_misc\link_string.c ****  * PURPOSE ARE DISCLAIMED. IN NO EVENT SHALL THE COPYRIGHT HOLDER OR
  18:D:/fchai/work/i-cube/I-CUBE-HUAWEI/Middlewares/Third_Party/Huawei/iot_link/link_misc\link_string.c ****  * CONTRIBUTORS BE LIABLE FOR ANY DIRECT, INDIRECT, INCIDENTAL, SPECIAL,
  19:D:/fchai/work/i-cube/I-CUBE-HUAWEI/Middlewares/Third_Party/Huawei/iot_link/link_misc\link_string.c ****  * EXEMPLARY, OR CONSEQUENTIAL DAMAGES (INCLUDING, BUT NOT LIMITED TO,
  20:D:/fchai/work/i-cube/I-CUBE-HUAWEI/Middlewares/Third_Party/Huawei/iot_link/link_misc\link_string.c ****  * PROCUREMENT OF SUBSTITUTE GOODS OR SERVICES; LOSS OF USE, DATA, OR PROFITS;
  21:D:/fchai/work/i-cube/I-CUBE-HUAWEI/Middlewares/Third_Party/Huawei/iot_link/link_misc\link_string.c ****  * OR BUSINESS INTERRUPTION) HOWEVER CAUSED AND ON ANY THEORY OF LIABILITY,
  22:D:/fchai/work/i-cube/I-CUBE-HUAWEI/Middlewares/Third_Party/Huawei/iot_link/link_misc\link_string.c ****  * WHETHER IN CONTRACT, STRICT LIABILITY, OR TORT (INCLUDING NEGLIGENCE OR
  23:D:/fchai/work/i-cube/I-CUBE-HUAWEI/Middlewares/Third_Party/Huawei/iot_link/link_misc\link_string.c ****  * OTHERWISE) ARISING IN ANY WAY OUT OF THE USE OF THIS SOFTWARE, EVEN IF
  24:D:/fchai/work/i-cube/I-CUBE-HUAWEI/Middlewares/Third_Party/Huawei/iot_link/link_misc\link_string.c ****  * ADVISED OF THE POSSIBILITY OF SUCH DAMAGE.
  25:D:/fchai/work/i-cube/I-CUBE-HUAWEI/Middlewares/Third_Party/Huawei/iot_link/link_misc\link_string.c ****  *---------------------------------------------------------------------------*/
  26:D:/fchai/work/i-cube/I-CUBE-HUAWEI/Middlewares/Third_Party/Huawei/iot_link/link_misc\link_string.c **** /*----------------------------------------------------------------------------
  27:D:/fchai/work/i-cube/I-CUBE-HUAWEI/Middlewares/Third_Party/Huawei/iot_link/link_misc\link_string.c ****  * Notice of Export Control Law
  28:D:/fchai/work/i-cube/I-CUBE-HUAWEI/Middlewares/Third_Party/Huawei/iot_link/link_misc\link_string.c ****  * ===============================================
ARM GAS  T:\msys\tmp\ccdbBuIC.s 			page 2


  29:D:/fchai/work/i-cube/I-CUBE-HUAWEI/Middlewares/Third_Party/Huawei/iot_link/link_misc\link_string.c ****  * Huawei LiteOS may be subject to applicable export control laws and regulations, which might
  30:D:/fchai/work/i-cube/I-CUBE-HUAWEI/Middlewares/Third_Party/Huawei/iot_link/link_misc\link_string.c ****  * include those applicable to Huawei LiteOS of U.S. and the country in which you are located.
  31:D:/fchai/work/i-cube/I-CUBE-HUAWEI/Middlewares/Third_Party/Huawei/iot_link/link_misc\link_string.c ****  * Import, export and usage of Huawei LiteOS in any manner by you shall be in compliance with such
  32:D:/fchai/work/i-cube/I-CUBE-HUAWEI/Middlewares/Third_Party/Huawei/iot_link/link_misc\link_string.c ****  * applicable export control laws and regulations.
  33:D:/fchai/work/i-cube/I-CUBE-HUAWEI/Middlewares/Third_Party/Huawei/iot_link/link_misc\link_string.c ****  *---------------------------------------------------------------------------*/
  34:D:/fchai/work/i-cube/I-CUBE-HUAWEI/Middlewares/Third_Party/Huawei/iot_link/link_misc\link_string.c **** /**
  35:D:/fchai/work/i-cube/I-CUBE-HUAWEI/Middlewares/Third_Party/Huawei/iot_link/link_misc\link_string.c ****  *  DATE                AUTHOR      INSTRUCTION
  36:D:/fchai/work/i-cube/I-CUBE-HUAWEI/Middlewares/Third_Party/Huawei/iot_link/link_misc\link_string.c ****  *  2019-04-29 09:50  zhangqianfu  The first version  
  37:D:/fchai/work/i-cube/I-CUBE-HUAWEI/Middlewares/Third_Party/Huawei/iot_link/link_misc\link_string.c ****  *
  38:D:/fchai/work/i-cube/I-CUBE-HUAWEI/Middlewares/Third_Party/Huawei/iot_link/link_misc\link_string.c ****  */
  39:D:/fchai/work/i-cube/I-CUBE-HUAWEI/Middlewares/Third_Party/Huawei/iot_link/link_misc\link_string.c **** 
  40:D:/fchai/work/i-cube/I-CUBE-HUAWEI/Middlewares/Third_Party/Huawei/iot_link/link_misc\link_string.c **** #include <stdint.h>
  41:D:/fchai/work/i-cube/I-CUBE-HUAWEI/Middlewares/Third_Party/Huawei/iot_link/link_misc\link_string.c **** #include <stddef.h>
  42:D:/fchai/work/i-cube/I-CUBE-HUAWEI/Middlewares/Third_Party/Huawei/iot_link/link_misc\link_string.c **** #include <string.h>
  43:D:/fchai/work/i-cube/I-CUBE-HUAWEI/Middlewares/Third_Party/Huawei/iot_link/link_misc\link_string.c **** 
  44:D:/fchai/work/i-cube/I-CUBE-HUAWEI/Middlewares/Third_Party/Huawei/iot_link/link_misc\link_string.c **** #include <osal.h>
  45:D:/fchai/work/i-cube/I-CUBE-HUAWEI/Middlewares/Third_Party/Huawei/iot_link/link_misc\link_string.c **** //this function is used to format the char string to the argc mode
  46:D:/fchai/work/i-cube/I-CUBE-HUAWEI/Middlewares/Third_Party/Huawei/iot_link/link_misc\link_string.c **** //this function will changed the original string, used it carefully
  47:D:/fchai/work/i-cube/I-CUBE-HUAWEI/Middlewares/Third_Party/Huawei/iot_link/link_misc\link_string.c **** //return how many arguments has been
  48:D:/fchai/work/i-cube/I-CUBE-HUAWEI/Middlewares/Third_Party/Huawei/iot_link/link_misc\link_string.c **** int string_to_arg(int *argc, const char *argv[],char *string)
  49:D:/fchai/work/i-cube/I-CUBE-HUAWEI/Middlewares/Third_Party/Huawei/iot_link/link_misc\link_string.c **** {
  31              		.loc 1 49 1 view -0
  32              		.cfi_startproc
  33              		@ args = 0, pretend = 0, frame = 0
  34              		@ frame_needed = 0, uses_anonymous_args = 0
  50:D:/fchai/work/i-cube/I-CUBE-HUAWEI/Middlewares/Third_Party/Huawei/iot_link/link_misc\link_string.c ****     int argvlen = 0;
  35              		.loc 1 50 5 view .LVU1
  51:D:/fchai/work/i-cube/I-CUBE-HUAWEI/Middlewares/Third_Party/Huawei/iot_link/link_misc\link_string.c ****     int paramnum = 0;
  36              		.loc 1 51 5 view .LVU2
  52:D:/fchai/work/i-cube/I-CUBE-HUAWEI/Middlewares/Third_Party/Huawei/iot_link/link_misc\link_string.c ****     char *tmp = NULL;
  37              		.loc 1 52 5 view .LVU3
  53:D:/fchai/work/i-cube/I-CUBE-HUAWEI/Middlewares/Third_Party/Huawei/iot_link/link_misc\link_string.c ****     char bak;
  38              		.loc 1 53 5 view .LVU4
  54:D:/fchai/work/i-cube/I-CUBE-HUAWEI/Middlewares/Third_Party/Huawei/iot_link/link_misc\link_string.c ****     int len;
  39              		.loc 1 54 5 view .LVU5
  55:D:/fchai/work/i-cube/I-CUBE-HUAWEI/Middlewares/Third_Party/Huawei/iot_link/link_misc\link_string.c **** 
  56:D:/fchai/work/i-cube/I-CUBE-HUAWEI/Middlewares/Third_Party/Huawei/iot_link/link_misc\link_string.c ****     argvlen = *argc;
  40              		.loc 1 56 5 view .LVU6
  49:D:/fchai/work/i-cube/I-CUBE-HUAWEI/Middlewares/Third_Party/Huawei/iot_link/link_misc\link_string.c ****     int argvlen = 0;
  41              		.loc 1 49 1 is_stmt 0 view .LVU7
  42 0000 2DE9F047 		push	{r4, r5, r6, r7, r8, r9, r10, lr}
  43              	.LCFI0:
  44              		.cfi_def_cfa_offset 32
  45              		.cfi_offset 4, -32
  46              		.cfi_offset 5, -28
  47              		.cfi_offset 6, -24
  48              		.cfi_offset 7, -20
  49              		.cfi_offset 8, -16
  50              		.cfi_offset 9, -12
  51              		.cfi_offset 10, -8
  52              		.cfi_offset 14, -4
  57:D:/fchai/work/i-cube/I-CUBE-HUAWEI/Middlewares/Third_Party/Huawei/iot_link/link_misc\link_string.c ****     *argc = paramnum;
  53              		.loc 1 57 11 view .LVU8
  54 0004 0026     		movs	r6, #0
  56:D:/fchai/work/i-cube/I-CUBE-HUAWEI/Middlewares/Third_Party/Huawei/iot_link/link_misc\link_string.c ****     *argc = paramnum;
  55              		.loc 1 56 13 view .LVU9
  56 0006 D0F800A0 		ldr	r10, [r0]
ARM GAS  T:\msys\tmp\ccdbBuIC.s 			page 3


  57              	.LVL1:
  58              		.loc 1 57 5 is_stmt 1 view .LVU10
  59              		.loc 1 57 11 is_stmt 0 view .LVU11
  60 000a 0660     		str	r6, [r0]
  58:D:/fchai/work/i-cube/I-CUBE-HUAWEI/Middlewares/Third_Party/Huawei/iot_link/link_misc\link_string.c ****     if(NULL == string)
  61              		.loc 1 58 5 is_stmt 1 view .LVU12
  62              		.loc 1 58 7 is_stmt 0 view .LVU13
  63 000c 1546     		mov	r5, r2
  64 000e 62B3     		cbz	r2, .L8
  59:D:/fchai/work/i-cube/I-CUBE-HUAWEI/Middlewares/Third_Party/Huawei/iot_link/link_misc\link_string.c ****     {
  60:D:/fchai/work/i-cube/I-CUBE-HUAWEI/Middlewares/Third_Party/Huawei/iot_link/link_misc\link_string.c ****         return paramnum;
  61:D:/fchai/work/i-cube/I-CUBE-HUAWEI/Middlewares/Third_Party/Huawei/iot_link/link_misc\link_string.c ****     }
  62:D:/fchai/work/i-cube/I-CUBE-HUAWEI/Middlewares/Third_Party/Huawei/iot_link/link_misc\link_string.c **** 
  63:D:/fchai/work/i-cube/I-CUBE-HUAWEI/Middlewares/Third_Party/Huawei/iot_link/link_misc\link_string.c ****     //use the '\0' to replace the ' '
  64:D:/fchai/work/i-cube/I-CUBE-HUAWEI/Middlewares/Third_Party/Huawei/iot_link/link_misc\link_string.c ****     len = strlen(string);
  65              		.loc 1 64 5 is_stmt 1 view .LVU14
  66 0010 8046     		mov	r8, r0
  67              		.loc 1 64 11 is_stmt 0 view .LVU15
  68 0012 1046     		mov	r0, r2
  69              	.LVL2:
  70              		.loc 1 64 11 view .LVU16
  71 0014 8946     		mov	r9, r1
  72 0016 FFF7FEFF 		bl	strlen
  73              	.LVL3:
  65:D:/fchai/work/i-cube/I-CUBE-HUAWEI/Middlewares/Third_Party/Huawei/iot_link/link_misc\link_string.c ****     tmp = string;
  74              		.loc 1 65 5 is_stmt 1 view .LVU17
  66:D:/fchai/work/i-cube/I-CUBE-HUAWEI/Middlewares/Third_Party/Huawei/iot_link/link_misc\link_string.c ****     while(tmp < (string + len))
  75              		.loc 1 66 5 view .LVU18
  76              		.loc 1 66 10 view .LVU19
  77              		.loc 1 66 25 is_stmt 0 view .LVU20
  78 001a 2F18     		adds	r7, r5, r0
  79              		.loc 1 66 10 view .LVU21
  80 001c BD42     		cmp	r5, r7
  81 001e 27D2     		bcs	.L9
  67:D:/fchai/work/i-cube/I-CUBE-HUAWEI/Middlewares/Third_Party/Huawei/iot_link/link_misc\link_string.c ****     {
  68:D:/fchai/work/i-cube/I-CUBE-HUAWEI/Middlewares/Third_Party/Huawei/iot_link/link_misc\link_string.c ****         if(*tmp == ' ')
  69:D:/fchai/work/i-cube/I-CUBE-HUAWEI/Middlewares/Third_Party/Huawei/iot_link/link_misc\link_string.c ****         {
  70:D:/fchai/work/i-cube/I-CUBE-HUAWEI/Middlewares/Third_Party/Huawei/iot_link/link_misc\link_string.c ****             *tmp = '\0';
  82              		.loc 1 70 18 view .LVU22
  83 0020 3246     		mov	r2, r6
  84 0022 6B1E     		subs	r3, r5, #1
  85 0024 791E     		subs	r1, r7, #1
  86              	.LVL4:
  87              	.L5:
  68:D:/fchai/work/i-cube/I-CUBE-HUAWEI/Middlewares/Third_Party/Huawei/iot_link/link_misc\link_string.c ****         {
  88              		.loc 1 68 9 is_stmt 1 view .LVU23
  71:D:/fchai/work/i-cube/I-CUBE-HUAWEI/Middlewares/Third_Party/Huawei/iot_link/link_misc\link_string.c ****         }
  72:D:/fchai/work/i-cube/I-CUBE-HUAWEI/Middlewares/Third_Party/Huawei/iot_link/link_misc\link_string.c ****         tmp++;
  89              		.loc 1 72 9 view .LVU24
  68:D:/fchai/work/i-cube/I-CUBE-HUAWEI/Middlewares/Third_Party/Huawei/iot_link/link_misc\link_string.c ****         {
  90              		.loc 1 68 11 is_stmt 0 view .LVU25
  91 0026 13F8014F 		ldrb	r4, [r3, #1]!	@ zero_extendqisi2
  92              	.LVL5:
  66:D:/fchai/work/i-cube/I-CUBE-HUAWEI/Middlewares/Third_Party/Huawei/iot_link/link_misc\link_string.c ****     {
  93              		.loc 1 66 10 is_stmt 1 view .LVU26
  68:D:/fchai/work/i-cube/I-CUBE-HUAWEI/Middlewares/Third_Party/Huawei/iot_link/link_misc\link_string.c ****         {
  94              		.loc 1 68 11 is_stmt 0 view .LVU27
ARM GAS  T:\msys\tmp\ccdbBuIC.s 			page 4


  95 002a 202C     		cmp	r4, #32
  70:D:/fchai/work/i-cube/I-CUBE-HUAWEI/Middlewares/Third_Party/Huawei/iot_link/link_misc\link_string.c ****         }
  96              		.loc 1 70 13 is_stmt 1 view .LVU28
  70:D:/fchai/work/i-cube/I-CUBE-HUAWEI/Middlewares/Third_Party/Huawei/iot_link/link_misc\link_string.c ****         }
  97              		.loc 1 70 18 is_stmt 0 view .LVU29
  98 002c 08BF     		it	eq
  99 002e 1A70     		strbeq	r2, [r3]
  66:D:/fchai/work/i-cube/I-CUBE-HUAWEI/Middlewares/Third_Party/Huawei/iot_link/link_misc\link_string.c ****     {
 100              		.loc 1 66 10 view .LVU30
 101 0030 8B42     		cmp	r3, r1
 102 0032 F8D1     		bne	.L5
 103 0034 0026     		movs	r6, #0
 104 0036 2A46     		mov	r2, r5
 105 0038 3046     		mov	r0, r6
 106              	.LVL6:
  66:D:/fchai/work/i-cube/I-CUBE-HUAWEI/Middlewares/Third_Party/Huawei/iot_link/link_misc\link_string.c ****     {
 107              		.loc 1 66 10 view .LVU31
 108 003a 0AE0     		b	.L7
 109              	.LVL7:
 110              	.L17:
  73:D:/fchai/work/i-cube/I-CUBE-HUAWEI/Middlewares/Third_Party/Huawei/iot_link/link_misc\link_string.c ****     }
  74:D:/fchai/work/i-cube/I-CUBE-HUAWEI/Middlewares/Third_Party/Huawei/iot_link/link_misc\link_string.c ****     bak = '\0';
  75:D:/fchai/work/i-cube/I-CUBE-HUAWEI/Middlewares/Third_Party/Huawei/iot_link/link_misc\link_string.c ****     tmp = string;
  76:D:/fchai/work/i-cube/I-CUBE-HUAWEI/Middlewares/Third_Party/Huawei/iot_link/link_misc\link_string.c ****     while(tmp < (string + len))
  77:D:/fchai/work/i-cube/I-CUBE-HUAWEI/Middlewares/Third_Party/Huawei/iot_link/link_misc\link_string.c ****     {
  78:D:/fchai/work/i-cube/I-CUBE-HUAWEI/Middlewares/Third_Party/Huawei/iot_link/link_misc\link_string.c ****         if((*tmp != '\0')&&(bak =='\0'))
  79:D:/fchai/work/i-cube/I-CUBE-HUAWEI/Middlewares/Third_Party/Huawei/iot_link/link_misc\link_string.c ****         {
  80:D:/fchai/work/i-cube/I-CUBE-HUAWEI/Middlewares/Third_Party/Huawei/iot_link/link_misc\link_string.c ****             if(paramnum < argvlen)
 111              		.loc 1 80 13 is_stmt 1 discriminator 1 view .LVU32
  78:D:/fchai/work/i-cube/I-CUBE-HUAWEI/Middlewares/Third_Party/Huawei/iot_link/link_misc\link_string.c ****         {
 112              		.loc 1 78 26 is_stmt 0 discriminator 1 view .LVU33
 113 003c 76B9     		cbnz	r6, .L12
  81:D:/fchai/work/i-cube/I-CUBE-HUAWEI/Middlewares/Third_Party/Huawei/iot_link/link_misc\link_string.c ****             {
  82:D:/fchai/work/i-cube/I-CUBE-HUAWEI/Middlewares/Third_Party/Huawei/iot_link/link_misc\link_string.c ****                 argv[paramnum] = tmp;
 114              		.loc 1 82 17 is_stmt 1 view .LVU34
  80:D:/fchai/work/i-cube/I-CUBE-HUAWEI/Middlewares/Third_Party/Huawei/iot_link/link_misc\link_string.c ****             {
 115              		.loc 1 80 15 is_stmt 0 view .LVU35
 116 003e 8245     		cmp	r10, r0
 117 0040 0CDD     		ble	.L12
 118              		.loc 1 82 32 view .LVU36
 119 0042 49F82010 		str	r1, [r9, r0, lsl #2]
  83:D:/fchai/work/i-cube/I-CUBE-HUAWEI/Middlewares/Third_Party/Huawei/iot_link/link_misc\link_string.c ****                 paramnum++;
 120              		.loc 1 83 17 is_stmt 1 view .LVU37
  76:D:/fchai/work/i-cube/I-CUBE-HUAWEI/Middlewares/Third_Party/Huawei/iot_link/link_misc\link_string.c ****     {
 121              		.loc 1 76 10 is_stmt 0 view .LVU38
 122 0046 BA42     		cmp	r2, r7
 123 0048 12F8016C 		ldrb	r6, [r2, #-1]	@ zero_extendqisi2
 124              	.LVL8:
 125              		.loc 1 83 25 view .LVU39
 126 004c 00F10100 		add	r0, r0, #1
 127              	.LVL9:
  84:D:/fchai/work/i-cube/I-CUBE-HUAWEI/Middlewares/Third_Party/Huawei/iot_link/link_misc\link_string.c ****             }
  85:D:/fchai/work/i-cube/I-CUBE-HUAWEI/Middlewares/Third_Party/Huawei/iot_link/link_misc\link_string.c ****         }
  86:D:/fchai/work/i-cube/I-CUBE-HUAWEI/Middlewares/Third_Party/Huawei/iot_link/link_misc\link_string.c ****         bak = *tmp;
 128              		.loc 1 86 9 is_stmt 1 view .LVU40
  87:D:/fchai/work/i-cube/I-CUBE-HUAWEI/Middlewares/Third_Party/Huawei/iot_link/link_misc\link_string.c ****         tmp++;
 129              		.loc 1 87 9 view .LVU41
ARM GAS  T:\msys\tmp\ccdbBuIC.s 			page 5


  76:D:/fchai/work/i-cube/I-CUBE-HUAWEI/Middlewares/Third_Party/Huawei/iot_link/link_misc\link_string.c ****     {
 130              		.loc 1 76 10 view .LVU42
 131 0050 07D0     		beq	.L3
 132              	.LVL10:
 133              	.L7:
  76:D:/fchai/work/i-cube/I-CUBE-HUAWEI/Middlewares/Third_Party/Huawei/iot_link/link_misc\link_string.c ****     {
 134              		.loc 1 76 10 is_stmt 0 view .LVU43
 135 0052 1146     		mov	r1, r2
 136              	.LVL11:
  78:D:/fchai/work/i-cube/I-CUBE-HUAWEI/Middlewares/Third_Party/Huawei/iot_link/link_misc\link_string.c ****         {
 137              		.loc 1 78 9 is_stmt 1 view .LVU44
  78:D:/fchai/work/i-cube/I-CUBE-HUAWEI/Middlewares/Third_Party/Huawei/iot_link/link_misc\link_string.c ****         {
 138              		.loc 1 78 13 is_stmt 0 view .LVU45
 139 0054 12F8013B 		ldrb	r3, [r2], #1	@ zero_extendqisi2
  78:D:/fchai/work/i-cube/I-CUBE-HUAWEI/Middlewares/Third_Party/Huawei/iot_link/link_misc\link_string.c ****         {
 140              		.loc 1 78 11 view .LVU46
 141 0058 002B     		cmp	r3, #0
 142 005a EFD1     		bne	.L17
 143              	.L12:
  76:D:/fchai/work/i-cube/I-CUBE-HUAWEI/Middlewares/Third_Party/Huawei/iot_link/link_misc\link_string.c ****     {
 144              		.loc 1 76 10 view .LVU47
 145 005c BA42     		cmp	r2, r7
 146 005e 1E46     		mov	r6, r3
 147              	.LVL12:
  86:D:/fchai/work/i-cube/I-CUBE-HUAWEI/Middlewares/Third_Party/Huawei/iot_link/link_misc\link_string.c ****         tmp++;
 148              		.loc 1 86 9 is_stmt 1 view .LVU48
 149              		.loc 1 87 9 view .LVU49
  76:D:/fchai/work/i-cube/I-CUBE-HUAWEI/Middlewares/Third_Party/Huawei/iot_link/link_misc\link_string.c ****     {
 150              		.loc 1 76 10 view .LVU50
 151 0060 F7D1     		bne	.L7
 152              	.LVL13:
 153              	.L3:
  88:D:/fchai/work/i-cube/I-CUBE-HUAWEI/Middlewares/Third_Party/Huawei/iot_link/link_misc\link_string.c ****     }
  89:D:/fchai/work/i-cube/I-CUBE-HUAWEI/Middlewares/Third_Party/Huawei/iot_link/link_misc\link_string.c ****     *argc = paramnum;
 154              		.loc 1 89 5 view .LVU51
 155              		.loc 1 89 11 is_stmt 0 view .LVU52
 156 0062 C8F80000 		str	r0, [r8]
  90:D:/fchai/work/i-cube/I-CUBE-HUAWEI/Middlewares/Third_Party/Huawei/iot_link/link_misc\link_string.c **** 
  91:D:/fchai/work/i-cube/I-CUBE-HUAWEI/Middlewares/Third_Party/Huawei/iot_link/link_misc\link_string.c ****     return paramnum;
 157              		.loc 1 91 5 is_stmt 1 view .LVU53
  92:D:/fchai/work/i-cube/I-CUBE-HUAWEI/Middlewares/Third_Party/Huawei/iot_link/link_misc\link_string.c **** }
 158              		.loc 1 92 1 is_stmt 0 view .LVU54
 159 0066 BDE8F087 		pop	{r4, r5, r6, r7, r8, r9, r10, pc}
 160              	.LVL14:
 161              	.L8:
  60:D:/fchai/work/i-cube/I-CUBE-HUAWEI/Middlewares/Third_Party/Huawei/iot_link/link_misc\link_string.c ****     }
 162              		.loc 1 60 16 view .LVU55
 163 006a 1046     		mov	r0, r2
 164              	.LVL15:
 165              		.loc 1 92 1 view .LVU56
 166 006c BDE8F087 		pop	{r4, r5, r6, r7, r8, r9, r10, pc}
 167              	.LVL16:
 168              	.L9:
  51:D:/fchai/work/i-cube/I-CUBE-HUAWEI/Middlewares/Third_Party/Huawei/iot_link/link_misc\link_string.c ****     char *tmp = NULL;
 169              		.loc 1 51 9 view .LVU57
 170 0070 3046     		mov	r0, r6
 171              	.LVL17:
ARM GAS  T:\msys\tmp\ccdbBuIC.s 			page 6


  51:D:/fchai/work/i-cube/I-CUBE-HUAWEI/Middlewares/Third_Party/Huawei/iot_link/link_misc\link_string.c ****     char *tmp = NULL;
 172              		.loc 1 51 9 view .LVU58
 173 0072 F6E7     		b	.L3
 174              		.cfi_endproc
 175              	.LFE3:
 177              		.section	.text.osal_strdup,"ax",%progbits
 178              		.align	1
 179              		.p2align 2,,3
 180              		.global	osal_strdup
 181              		.syntax unified
 182              		.thumb
 183              		.thumb_func
 184              		.fpu fpv4-sp-d16
 186              	osal_strdup:
 187              	.LVL18:
 188              	.LFB4:
  93:D:/fchai/work/i-cube/I-CUBE-HUAWEI/Middlewares/Third_Party/Huawei/iot_link/link_misc\link_string.c **** 
  94:D:/fchai/work/i-cube/I-CUBE-HUAWEI/Middlewares/Third_Party/Huawei/iot_link/link_misc\link_string.c **** 
  95:D:/fchai/work/i-cube/I-CUBE-HUAWEI/Middlewares/Third_Party/Huawei/iot_link/link_misc\link_string.c **** char *osal_strdup(const char *ch)
  96:D:/fchai/work/i-cube/I-CUBE-HUAWEI/Middlewares/Third_Party/Huawei/iot_link/link_misc\link_string.c **** {
 189              		.loc 1 96 1 is_stmt 1 view -0
 190              		.cfi_startproc
 191              		@ args = 0, pretend = 0, frame = 0
 192              		@ frame_needed = 0, uses_anonymous_args = 0
  97:D:/fchai/work/i-cube/I-CUBE-HUAWEI/Middlewares/Third_Party/Huawei/iot_link/link_misc\link_string.c ****     char *copy;
 193              		.loc 1 97 5 view .LVU60
  98:D:/fchai/work/i-cube/I-CUBE-HUAWEI/Middlewares/Third_Party/Huawei/iot_link/link_misc\link_string.c ****     size_t length;
 194              		.loc 1 98 5 view .LVU61
  99:D:/fchai/work/i-cube/I-CUBE-HUAWEI/Middlewares/Third_Party/Huawei/iot_link/link_misc\link_string.c **** 
 100:D:/fchai/work/i-cube/I-CUBE-HUAWEI/Middlewares/Third_Party/Huawei/iot_link/link_misc\link_string.c ****     if(NULL == ch)
 195              		.loc 1 100 5 view .LVU62
  96:D:/fchai/work/i-cube/I-CUBE-HUAWEI/Middlewares/Third_Party/Huawei/iot_link/link_misc\link_string.c ****     char *copy;
 196              		.loc 1 96 1 is_stmt 0 view .LVU63
 197 0000 70B5     		push	{r4, r5, r6, lr}
 198              	.LCFI1:
 199              		.cfi_def_cfa_offset 16
 200              		.cfi_offset 4, -16
 201              		.cfi_offset 5, -12
 202              		.cfi_offset 6, -8
 203              		.cfi_offset 14, -4
 204              		.loc 1 100 7 view .LVU64
 205 0002 0546     		mov	r5, r0
 206 0004 78B1     		cbz	r0, .L20
 101:D:/fchai/work/i-cube/I-CUBE-HUAWEI/Middlewares/Third_Party/Huawei/iot_link/link_misc\link_string.c ****         return NULL;
 102:D:/fchai/work/i-cube/I-CUBE-HUAWEI/Middlewares/Third_Party/Huawei/iot_link/link_misc\link_string.c **** 
 103:D:/fchai/work/i-cube/I-CUBE-HUAWEI/Middlewares/Third_Party/Huawei/iot_link/link_misc\link_string.c ****     length = strlen(ch);
 207              		.loc 1 103 5 is_stmt 1 view .LVU65
 208              		.loc 1 103 14 is_stmt 0 view .LVU66
 209 0006 FFF7FEFF 		bl	strlen
 210              	.LVL19:
 211              		.loc 1 103 14 view .LVU67
 212 000a 0646     		mov	r6, r0
 213              	.LVL20:
 104:D:/fchai/work/i-cube/I-CUBE-HUAWEI/Middlewares/Third_Party/Huawei/iot_link/link_misc\link_string.c ****     copy = (char *)osal_malloc(length + 1);
 214              		.loc 1 104 5 is_stmt 1 view .LVU68
 215              		.loc 1 104 20 is_stmt 0 view .LVU69
 216 000c 0130     		adds	r0, r0, #1
ARM GAS  T:\msys\tmp\ccdbBuIC.s 			page 7


 217              	.LVL21:
 218              		.loc 1 104 20 view .LVU70
 219 000e FFF7FEFF 		bl	osal_malloc
 220              	.LVL22:
 105:D:/fchai/work/i-cube/I-CUBE-HUAWEI/Middlewares/Third_Party/Huawei/iot_link/link_misc\link_string.c ****     if(NULL == copy)
 221              		.loc 1 105 5 is_stmt 1 view .LVU71
 222              		.loc 1 105 7 is_stmt 0 view .LVU72
 223 0012 0446     		mov	r4, r0
 224 0014 28B1     		cbz	r0, .L18
 106:D:/fchai/work/i-cube/I-CUBE-HUAWEI/Middlewares/Third_Party/Huawei/iot_link/link_misc\link_string.c ****         return NULL;
 107:D:/fchai/work/i-cube/I-CUBE-HUAWEI/Middlewares/Third_Party/Huawei/iot_link/link_misc\link_string.c ****     (void) strncpy(copy, ch, length);
 225              		.loc 1 107 5 is_stmt 1 view .LVU73
 226              		.loc 1 107 12 is_stmt 0 view .LVU74
 227 0016 2946     		mov	r1, r5
 228 0018 3246     		mov	r2, r6
 229 001a FFF7FEFF 		bl	strncpy
 230              	.LVL23:
 108:D:/fchai/work/i-cube/I-CUBE-HUAWEI/Middlewares/Third_Party/Huawei/iot_link/link_misc\link_string.c ****     copy[length] = '\0';
 231              		.loc 1 108 5 is_stmt 1 view .LVU75
 232              		.loc 1 108 18 is_stmt 0 view .LVU76
 233 001e 0023     		movs	r3, #0
 234 0020 A355     		strb	r3, [r4, r6]
 109:D:/fchai/work/i-cube/I-CUBE-HUAWEI/Middlewares/Third_Party/Huawei/iot_link/link_misc\link_string.c **** 
 110:D:/fchai/work/i-cube/I-CUBE-HUAWEI/Middlewares/Third_Party/Huawei/iot_link/link_misc\link_string.c ****     return copy;
 235              		.loc 1 110 5 is_stmt 1 view .LVU77
 236              	.L18:
 111:D:/fchai/work/i-cube/I-CUBE-HUAWEI/Middlewares/Third_Party/Huawei/iot_link/link_misc\link_string.c **** }
 237              		.loc 1 111 1 is_stmt 0 view .LVU78
 238 0022 2046     		mov	r0, r4
 239 0024 70BD     		pop	{r4, r5, r6, pc}
 240              	.LVL24:
 241              	.L20:
 101:D:/fchai/work/i-cube/I-CUBE-HUAWEI/Middlewares/Third_Party/Huawei/iot_link/link_misc\link_string.c **** 
 242              		.loc 1 101 16 view .LVU79
 243 0026 0446     		mov	r4, r0
 244              		.loc 1 111 1 view .LVU80
 245 0028 2046     		mov	r0, r4
 246              	.LVL25:
 247              		.loc 1 111 1 view .LVU81
 248 002a 70BD     		pop	{r4, r5, r6, pc}
 249              		.loc 1 111 1 view .LVU82
 250              		.cfi_endproc
 251              	.LFE4:
 253              		.section	.text.osal_strcat,"ax",%progbits
 254              		.align	1
 255              		.p2align 2,,3
 256              		.global	osal_strcat
 257              		.syntax unified
 258              		.thumb
 259              		.thumb_func
 260              		.fpu fpv4-sp-d16
 262              	osal_strcat:
 263              	.LVL26:
 264              	.LFB5:
 112:D:/fchai/work/i-cube/I-CUBE-HUAWEI/Middlewares/Third_Party/Huawei/iot_link/link_misc\link_string.c **** 
 113:D:/fchai/work/i-cube/I-CUBE-HUAWEI/Middlewares/Third_Party/Huawei/iot_link/link_misc\link_string.c **** char *osal_strcat(char *str[])
 114:D:/fchai/work/i-cube/I-CUBE-HUAWEI/Middlewares/Third_Party/Huawei/iot_link/link_misc\link_string.c **** {
ARM GAS  T:\msys\tmp\ccdbBuIC.s 			page 8


 265              		.loc 1 114 1 is_stmt 1 view -0
 266              		.cfi_startproc
 267              		@ args = 0, pretend = 0, frame = 8
 268              		@ frame_needed = 0, uses_anonymous_args = 0
 115:D:/fchai/work/i-cube/I-CUBE-HUAWEI/Middlewares/Third_Party/Huawei/iot_link/link_misc\link_string.c ****     char *ret = NULL;
 269              		.loc 1 115 5 view .LVU84
 116:D:/fchai/work/i-cube/I-CUBE-HUAWEI/Middlewares/Third_Party/Huawei/iot_link/link_misc\link_string.c ****     int str_tnum = 0;
 270              		.loc 1 116 5 view .LVU85
 117:D:/fchai/work/i-cube/I-CUBE-HUAWEI/Middlewares/Third_Party/Huawei/iot_link/link_misc\link_string.c ****     int str_tlen = 0;
 271              		.loc 1 117 5 view .LVU86
 118:D:/fchai/work/i-cube/I-CUBE-HUAWEI/Middlewares/Third_Party/Huawei/iot_link/link_misc\link_string.c ****     int str_off = 0;
 272              		.loc 1 118 5 view .LVU87
 119:D:/fchai/work/i-cube/I-CUBE-HUAWEI/Middlewares/Third_Party/Huawei/iot_link/link_misc\link_string.c ****     int i = 0;
 273              		.loc 1 119 5 view .LVU88
 120:D:/fchai/work/i-cube/I-CUBE-HUAWEI/Middlewares/Third_Party/Huawei/iot_link/link_misc\link_string.c **** 
 121:D:/fchai/work/i-cube/I-CUBE-HUAWEI/Middlewares/Third_Party/Huawei/iot_link/link_misc\link_string.c ****     if(NULL == str)
 274              		.loc 1 121 5 view .LVU89
 114:D:/fchai/work/i-cube/I-CUBE-HUAWEI/Middlewares/Third_Party/Huawei/iot_link/link_misc\link_string.c ****     char *ret = NULL;
 275              		.loc 1 114 1 is_stmt 0 view .LVU90
 276 0000 2DE9F043 		push	{r4, r5, r6, r7, r8, r9, lr}
 277              	.LCFI2:
 278              		.cfi_def_cfa_offset 28
 279              		.cfi_offset 4, -28
 280              		.cfi_offset 5, -24
 281              		.cfi_offset 6, -20
 282              		.cfi_offset 7, -16
 283              		.cfi_offset 8, -12
 284              		.cfi_offset 9, -8
 285              		.cfi_offset 14, -4
 286 0004 83B0     		sub	sp, sp, #12
 287              	.LCFI3:
 288              		.cfi_def_cfa_offset 40
 289              		.loc 1 121 7 view .LVU91
 290 0006 78B3     		cbz	r0, .L32
 122:D:/fchai/work/i-cube/I-CUBE-HUAWEI/Middlewares/Third_Party/Huawei/iot_link/link_misc\link_string.c ****     {
 123:D:/fchai/work/i-cube/I-CUBE-HUAWEI/Middlewares/Third_Party/Huawei/iot_link/link_misc\link_string.c ****         return ret;
 124:D:/fchai/work/i-cube/I-CUBE-HUAWEI/Middlewares/Third_Party/Huawei/iot_link/link_misc\link_string.c ****     }
 125:D:/fchai/work/i-cube/I-CUBE-HUAWEI/Middlewares/Third_Party/Huawei/iot_link/link_misc\link_string.c **** 
 126:D:/fchai/work/i-cube/I-CUBE-HUAWEI/Middlewares/Third_Party/Huawei/iot_link/link_misc\link_string.c ****     while(NULL != str[i])
 291              		.loc 1 126 10 is_stmt 1 view .LVU92
 292              		.loc 1 126 22 is_stmt 0 view .LVU93
 293 0008 0468     		ldr	r4, [r0]
 294 000a 0546     		mov	r5, r0
 295              		.loc 1 126 10 view .LVU94
 296 000c 8CB3     		cbz	r4, .L28
 117:D:/fchai/work/i-cube/I-CUBE-HUAWEI/Middlewares/Third_Party/Huawei/iot_link/link_misc\link_string.c ****     int str_off = 0;
 297              		.loc 1 117 9 view .LVU95
 298 000e 0027     		movs	r7, #0
 116:D:/fchai/work/i-cube/I-CUBE-HUAWEI/Middlewares/Third_Party/Huawei/iot_link/link_misc\link_string.c ****     int str_tlen = 0;
 299              		.loc 1 116 9 view .LVU96
 300 0010 3E46     		mov	r6, r7
 301              		.loc 1 126 10 view .LVU97
 302 0012 8046     		mov	r8, r0
 303              	.LVL27:
 304              	.L29:
 127:D:/fchai/work/i-cube/I-CUBE-HUAWEI/Middlewares/Third_Party/Huawei/iot_link/link_misc\link_string.c ****     {
 128:D:/fchai/work/i-cube/I-CUBE-HUAWEI/Middlewares/Third_Party/Huawei/iot_link/link_misc\link_string.c ****         str_tlen += strlen(str[i]);
ARM GAS  T:\msys\tmp\ccdbBuIC.s 			page 9


 305              		.loc 1 128 9 is_stmt 1 view .LVU98
 306              		.loc 1 128 21 is_stmt 0 view .LVU99
 307 0014 2046     		mov	r0, r4
 308 0016 FFF7FEFF 		bl	strlen
 309              	.LVL28:
 126:D:/fchai/work/i-cube/I-CUBE-HUAWEI/Middlewares/Third_Party/Huawei/iot_link/link_misc\link_string.c ****     {
 310              		.loc 1 126 22 view .LVU100
 311 001a 58F8044F 		ldr	r4, [r8, #4]!
 312 001e B146     		mov	r9, r6
 313              		.loc 1 128 18 view .LVU101
 314 0020 0744     		add	r7, r7, r0
 315              	.LVL29:
 129:D:/fchai/work/i-cube/I-CUBE-HUAWEI/Middlewares/Third_Party/Huawei/iot_link/link_misc\link_string.c ****         str_tnum++;
 316              		.loc 1 129 9 is_stmt 1 view .LVU102
 317              		.loc 1 129 17 is_stmt 0 view .LVU103
 318 0022 0136     		adds	r6, r6, #1
 319              	.LVL30:
 130:D:/fchai/work/i-cube/I-CUBE-HUAWEI/Middlewares/Third_Party/Huawei/iot_link/link_misc\link_string.c ****         i++;
 320              		.loc 1 130 9 is_stmt 1 view .LVU104
 126:D:/fchai/work/i-cube/I-CUBE-HUAWEI/Middlewares/Third_Party/Huawei/iot_link/link_misc\link_string.c ****     {
 321              		.loc 1 126 10 view .LVU105
 322 0024 002C     		cmp	r4, #0
 323 0026 F5D1     		bne	.L29
 131:D:/fchai/work/i-cube/I-CUBE-HUAWEI/Middlewares/Third_Party/Huawei/iot_link/link_misc\link_string.c ****     }
 132:D:/fchai/work/i-cube/I-CUBE-HUAWEI/Middlewares/Third_Party/Huawei/iot_link/link_misc\link_string.c **** 
 133:D:/fchai/work/i-cube/I-CUBE-HUAWEI/Middlewares/Third_Party/Huawei/iot_link/link_misc\link_string.c ****     ret = osal_malloc(str_tlen);
 324              		.loc 1 133 5 view .LVU106
 325              		.loc 1 133 11 is_stmt 0 view .LVU107
 326 0028 3846     		mov	r0, r7
 327 002a FFF7FEFF 		bl	osal_malloc
 328              	.LVL31:
 134:D:/fchai/work/i-cube/I-CUBE-HUAWEI/Middlewares/Third_Party/Huawei/iot_link/link_misc\link_string.c ****     if(NULL != ret)
 329              		.loc 1 134 5 is_stmt 1 view .LVU108
 330              		.loc 1 134 7 is_stmt 0 view .LVU109
 331 002e 0746     		mov	r7, r0
 332              	.LVL32:
 333              		.loc 1 134 7 view .LVU110
 334 0030 D0B1     		cbz	r0, .L32
 335 0032 05EB8909 		add	r9, r5, r9, lsl #2
 336 0036 043D     		subs	r5, r5, #4
 337              	.LVL33:
 338              	.L33:
 135:D:/fchai/work/i-cube/I-CUBE-HUAWEI/Middlewares/Third_Party/Huawei/iot_link/link_misc\link_string.c ****     {
 136:D:/fchai/work/i-cube/I-CUBE-HUAWEI/Middlewares/Third_Party/Huawei/iot_link/link_misc\link_string.c ****         for(i =0;i< str_tnum;i++)
 137:D:/fchai/work/i-cube/I-CUBE-HUAWEI/Middlewares/Third_Party/Huawei/iot_link/link_misc\link_string.c ****         {
 138:D:/fchai/work/i-cube/I-CUBE-HUAWEI/Middlewares/Third_Party/Huawei/iot_link/link_misc\link_string.c **** 
 139:D:/fchai/work/i-cube/I-CUBE-HUAWEI/Middlewares/Third_Party/Huawei/iot_link/link_misc\link_string.c ****             (void) memcpy(ret + str_off,str[i],strlen(str[i]));
 339              		.loc 1 139 13 is_stmt 1 discriminator 3 view .LVU111
 340              		.loc 1 139 20 is_stmt 0 discriminator 3 view .LVU112
 341 0038 55F8041F 		ldr	r1, [r5, #4]!
 342 003c 0191     		str	r1, [sp, #4]
 343 003e 0846     		mov	r0, r1
 344 0040 FFF7FEFF 		bl	strlen
 345              	.LVL34:
 346 0044 0199     		ldr	r1, [sp, #4]
 347 0046 0246     		mov	r2, r0
 348 0048 3819     		adds	r0, r7, r4
ARM GAS  T:\msys\tmp\ccdbBuIC.s 			page 10


 349 004a FFF7FEFF 		bl	memcpy
 350              	.LVL35:
 140:D:/fchai/work/i-cube/I-CUBE-HUAWEI/Middlewares/Third_Party/Huawei/iot_link/link_misc\link_string.c ****             str_off += strlen(str[i]);
 351              		.loc 1 140 13 is_stmt 1 discriminator 3 view .LVU113
 352              		.loc 1 140 24 is_stmt 0 discriminator 3 view .LVU114
 353 004e 2868     		ldr	r0, [r5]
 354 0050 FFF7FEFF 		bl	strlen
 355              	.LVL36:
 136:D:/fchai/work/i-cube/I-CUBE-HUAWEI/Middlewares/Third_Party/Huawei/iot_link/link_misc\link_string.c ****         {
 356              		.loc 1 136 9 discriminator 3 view .LVU115
 357 0054 A945     		cmp	r9, r5
 358              		.loc 1 140 21 discriminator 3 view .LVU116
 359 0056 0444     		add	r4, r4, r0
 360              	.LVL37:
 136:D:/fchai/work/i-cube/I-CUBE-HUAWEI/Middlewares/Third_Party/Huawei/iot_link/link_misc\link_string.c ****         {
 361              		.loc 1 136 30 is_stmt 1 discriminator 3 view .LVU117
 136:D:/fchai/work/i-cube/I-CUBE-HUAWEI/Middlewares/Third_Party/Huawei/iot_link/link_misc\link_string.c ****         {
 362              		.loc 1 136 18 discriminator 3 view .LVU118
 136:D:/fchai/work/i-cube/I-CUBE-HUAWEI/Middlewares/Third_Party/Huawei/iot_link/link_misc\link_string.c ****         {
 363              		.loc 1 136 9 is_stmt 0 discriminator 3 view .LVU119
 364 0058 EED1     		bne	.L33
 365 005a 3C44     		add	r4, r4, r7
 366              	.LVL38:
 367              	.L31:
 141:D:/fchai/work/i-cube/I-CUBE-HUAWEI/Middlewares/Third_Party/Huawei/iot_link/link_misc\link_string.c ****         }
 142:D:/fchai/work/i-cube/I-CUBE-HUAWEI/Middlewares/Third_Party/Huawei/iot_link/link_misc\link_string.c ****         ret[str_off] = '\0';
 368              		.loc 1 142 9 is_stmt 1 view .LVU120
 369              		.loc 1 142 22 is_stmt 0 view .LVU121
 370 005c 0023     		movs	r3, #0
 143:D:/fchai/work/i-cube/I-CUBE-HUAWEI/Middlewares/Third_Party/Huawei/iot_link/link_misc\link_string.c ****     }
 144:D:/fchai/work/i-cube/I-CUBE-HUAWEI/Middlewares/Third_Party/Huawei/iot_link/link_misc\link_string.c **** 
 145:D:/fchai/work/i-cube/I-CUBE-HUAWEI/Middlewares/Third_Party/Huawei/iot_link/link_misc\link_string.c ****     return ret;
 146:D:/fchai/work/i-cube/I-CUBE-HUAWEI/Middlewares/Third_Party/Huawei/iot_link/link_misc\link_string.c **** }
 371              		.loc 1 146 1 view .LVU122
 372 005e 3846     		mov	r0, r7
 142:D:/fchai/work/i-cube/I-CUBE-HUAWEI/Middlewares/Third_Party/Huawei/iot_link/link_misc\link_string.c ****     }
 373              		.loc 1 142 22 view .LVU123
 374 0060 2370     		strb	r3, [r4]
 375              		.loc 1 146 1 view .LVU124
 376 0062 03B0     		add	sp, sp, #12
 377              	.LCFI4:
 378              		.cfi_remember_state
 379              		.cfi_def_cfa_offset 28
 380              		@ sp needed
 381 0064 BDE8F083 		pop	{r4, r5, r6, r7, r8, r9, pc}
 382              	.LVL39:
 383              	.L32:
 384              	.LCFI5:
 385              		.cfi_restore_state
 123:D:/fchai/work/i-cube/I-CUBE-HUAWEI/Middlewares/Third_Party/Huawei/iot_link/link_misc\link_string.c ****     }
 386              		.loc 1 123 16 view .LVU125
 387 0068 0027     		movs	r7, #0
 388              		.loc 1 146 1 view .LVU126
 389 006a 3846     		mov	r0, r7
 390 006c 03B0     		add	sp, sp, #12
 391              	.LCFI6:
 392              		.cfi_remember_state
ARM GAS  T:\msys\tmp\ccdbBuIC.s 			page 11


 393              		.cfi_def_cfa_offset 28
 394              		@ sp needed
 395 006e BDE8F083 		pop	{r4, r5, r6, r7, r8, r9, pc}
 396              	.LVL40:
 397              	.L28:
 398              	.LCFI7:
 399              		.cfi_restore_state
 133:D:/fchai/work/i-cube/I-CUBE-HUAWEI/Middlewares/Third_Party/Huawei/iot_link/link_misc\link_string.c ****     if(NULL != ret)
 400              		.loc 1 133 5 is_stmt 1 view .LVU127
 133:D:/fchai/work/i-cube/I-CUBE-HUAWEI/Middlewares/Third_Party/Huawei/iot_link/link_misc\link_string.c ****     if(NULL != ret)
 401              		.loc 1 133 11 is_stmt 0 view .LVU128
 402 0072 2046     		mov	r0, r4
 403              	.LVL41:
 133:D:/fchai/work/i-cube/I-CUBE-HUAWEI/Middlewares/Third_Party/Huawei/iot_link/link_misc\link_string.c ****     if(NULL != ret)
 404              		.loc 1 133 11 view .LVU129
 405 0074 FFF7FEFF 		bl	osal_malloc
 406              	.LVL42:
 134:D:/fchai/work/i-cube/I-CUBE-HUAWEI/Middlewares/Third_Party/Huawei/iot_link/link_misc\link_string.c ****     {
 407              		.loc 1 134 5 is_stmt 1 view .LVU130
 134:D:/fchai/work/i-cube/I-CUBE-HUAWEI/Middlewares/Third_Party/Huawei/iot_link/link_misc\link_string.c ****     {
 408              		.loc 1 134 7 is_stmt 0 view .LVU131
 409 0078 0746     		mov	r7, r0
 410 007a 0028     		cmp	r0, #0
 411 007c F4D0     		beq	.L32
 412 007e 0446     		mov	r4, r0
 413 0080 ECE7     		b	.L31
 414              		.cfi_endproc
 415              	.LFE5:
 417 0082 00BF     		.section	.text.hexstr2byte,"ax",%progbits
 418              		.align	1
 419              		.p2align 2,,3
 420              		.global	hexstr2byte
 421              		.syntax unified
 422              		.thumb
 423              		.thumb_func
 424              		.fpu fpv4-sp-d16
 426              	hexstr2byte:
 427              	.LVL43:
 428              	.LFB6:
 147:D:/fchai/work/i-cube/I-CUBE-HUAWEI/Middlewares/Third_Party/Huawei/iot_link/link_misc\link_string.c **** 
 148:D:/fchai/work/i-cube/I-CUBE-HUAWEI/Middlewares/Third_Party/Huawei/iot_link/link_misc\link_string.c **** /*
 149:D:/fchai/work/i-cube/I-CUBE-HUAWEI/Middlewares/Third_Party/Huawei/iot_link/link_misc\link_string.c **** int hexstr2byte(const char *bufin, int len, char *bufout)
 150:D:/fchai/work/i-cube/I-CUBE-HUAWEI/Middlewares/Third_Party/Huawei/iot_link/link_misc\link_string.c **** {
 151:D:/fchai/work/i-cube/I-CUBE-HUAWEI/Middlewares/Third_Party/Huawei/iot_link/link_misc\link_string.c ****     int i = 0;
 152:D:/fchai/work/i-cube/I-CUBE-HUAWEI/Middlewares/Third_Party/Huawei/iot_link/link_misc\link_string.c ****     unsigned char tmp2 = 0x0;
 153:D:/fchai/work/i-cube/I-CUBE-HUAWEI/Middlewares/Third_Party/Huawei/iot_link/link_misc\link_string.c ****     unsigned int tmp = 0;
 154:D:/fchai/work/i-cube/I-CUBE-HUAWEI/Middlewares/Third_Party/Huawei/iot_link/link_misc\link_string.c ****     char cc;
 155:D:/fchai/work/i-cube/I-CUBE-HUAWEI/Middlewares/Third_Party/Huawei/iot_link/link_misc\link_string.c **** 
 156:D:/fchai/work/i-cube/I-CUBE-HUAWEI/Middlewares/Third_Party/Huawei/iot_link/link_misc\link_string.c ****     if (NULL == bufin || len <= 0 || NULL == bufout)
 157:D:/fchai/work/i-cube/I-CUBE-HUAWEI/Middlewares/Third_Party/Huawei/iot_link/link_misc\link_string.c ****     {
 158:D:/fchai/work/i-cube/I-CUBE-HUAWEI/Middlewares/Third_Party/Huawei/iot_link/link_misc\link_string.c ****         return -1;
 159:D:/fchai/work/i-cube/I-CUBE-HUAWEI/Middlewares/Third_Party/Huawei/iot_link/link_misc\link_string.c ****     }
 160:D:/fchai/work/i-cube/I-CUBE-HUAWEI/Middlewares/Third_Party/Huawei/iot_link/link_misc\link_string.c ****     for(i = 0; i < len; i = i+2)
 161:D:/fchai/work/i-cube/I-CUBE-HUAWEI/Middlewares/Third_Party/Huawei/iot_link/link_misc\link_string.c ****     {
 162:D:/fchai/work/i-cube/I-CUBE-HUAWEI/Middlewares/Third_Party/Huawei/iot_link/link_misc\link_string.c ****         tmp2 =  (unsigned char )bufin[i];
 163:D:/fchai/work/i-cube/I-CUBE-HUAWEI/Middlewares/Third_Party/Huawei/iot_link/link_misc\link_string.c ****         tmp2 =  tmp2 <= '9'?(unsigned char)(unsigned int)(tmp2-0x30):(unsigned char)(unsigned int)(
 164:D:/fchai/work/i-cube/I-CUBE-HUAWEI/Middlewares/Third_Party/Huawei/iot_link/link_misc\link_string.c ****         cc = bufin[i+1];
ARM GAS  T:\msys\tmp\ccdbBuIC.s 			page 12


 165:D:/fchai/work/i-cube/I-CUBE-HUAWEI/Middlewares/Third_Party/Huawei/iot_link/link_misc\link_string.c ****         tmp =  (unsigned int)(unsigned char)cc;
 166:D:/fchai/work/i-cube/I-CUBE-HUAWEI/Middlewares/Third_Party/Huawei/iot_link/link_misc\link_string.c ****         tmp =  tmp <= '9'?(unsigned int)(tmp-0x30):(unsigned int)(tmp-0x37);
 167:D:/fchai/work/i-cube/I-CUBE-HUAWEI/Middlewares/Third_Party/Huawei/iot_link/link_misc\link_string.c ****         bufout[i/2] =(tmp2<<4)|(tmp&0x0F);
 168:D:/fchai/work/i-cube/I-CUBE-HUAWEI/Middlewares/Third_Party/Huawei/iot_link/link_misc\link_string.c ****     }
 169:D:/fchai/work/i-cube/I-CUBE-HUAWEI/Middlewares/Third_Party/Huawei/iot_link/link_misc\link_string.c ****     return 0;
 170:D:/fchai/work/i-cube/I-CUBE-HUAWEI/Middlewares/Third_Party/Huawei/iot_link/link_misc\link_string.c **** }
 171:D:/fchai/work/i-cube/I-CUBE-HUAWEI/Middlewares/Third_Party/Huawei/iot_link/link_misc\link_string.c **** 
 172:D:/fchai/work/i-cube/I-CUBE-HUAWEI/Middlewares/Third_Party/Huawei/iot_link/link_misc\link_string.c **** */
 173:D:/fchai/work/i-cube/I-CUBE-HUAWEI/Middlewares/Third_Party/Huawei/iot_link/link_misc\link_string.c **** 
 174:D:/fchai/work/i-cube/I-CUBE-HUAWEI/Middlewares/Third_Party/Huawei/iot_link/link_misc\link_string.c **** int hexstr2byte(const char *buf, int len, char *bufout)
 175:D:/fchai/work/i-cube/I-CUBE-HUAWEI/Middlewares/Third_Party/Huawei/iot_link/link_misc\link_string.c **** {
 429              		.loc 1 175 1 is_stmt 1 view -0
 430              		.cfi_startproc
 431              		@ args = 0, pretend = 0, frame = 0
 432              		@ frame_needed = 0, uses_anonymous_args = 0
 433              		@ link register save eliminated.
 176:D:/fchai/work/i-cube/I-CUBE-HUAWEI/Middlewares/Third_Party/Huawei/iot_link/link_misc\link_string.c ****     int ret = -1;
 434              		.loc 1 176 5 view .LVU133
 177:D:/fchai/work/i-cube/I-CUBE-HUAWEI/Middlewares/Third_Party/Huawei/iot_link/link_misc\link_string.c ****     int i = 0;
 435              		.loc 1 177 5 view .LVU134
 178:D:/fchai/work/i-cube/I-CUBE-HUAWEI/Middlewares/Third_Party/Huawei/iot_link/link_misc\link_string.c ****     uint8_t low;
 436              		.loc 1 178 5 view .LVU135
 179:D:/fchai/work/i-cube/I-CUBE-HUAWEI/Middlewares/Third_Party/Huawei/iot_link/link_misc\link_string.c ****     uint8_t high;
 437              		.loc 1 179 5 view .LVU136
 180:D:/fchai/work/i-cube/I-CUBE-HUAWEI/Middlewares/Third_Party/Huawei/iot_link/link_misc\link_string.c **** 
 181:D:/fchai/work/i-cube/I-CUBE-HUAWEI/Middlewares/Third_Party/Huawei/iot_link/link_misc\link_string.c ****     if (NULL == buf || len <= 0 || NULL == bufout)
 438              		.loc 1 181 5 view .LVU137
 439              		.loc 1 181 8 is_stmt 0 view .LVU138
 440 0000 0028     		cmp	r0, #0
 441 0002 3FD0     		beq	.L58
 442              		.loc 1 181 21 discriminator 1 view .LVU139
 443 0004 0029     		cmp	r1, #0
 444 0006 3DDD     		ble	.L58
 445              		.loc 1 181 33 discriminator 2 view .LVU140
 446 0008 002A     		cmp	r2, #0
 447 000a 3BD0     		beq	.L58
 175:D:/fchai/work/i-cube/I-CUBE-HUAWEI/Middlewares/Third_Party/Huawei/iot_link/link_misc\link_string.c ****     int ret = -1;
 448              		.loc 1 175 1 view .LVU141
 449 000c F0B4     		push	{r4, r5, r6, r7}
 450              	.LCFI8:
 451              		.cfi_def_cfa_offset 16
 452              		.cfi_offset 4, -16
 453              		.cfi_offset 5, -12
 454              		.cfi_offset 6, -8
 455              		.cfi_offset 7, -4
 182:D:/fchai/work/i-cube/I-CUBE-HUAWEI/Middlewares/Third_Party/Huawei/iot_link/link_misc\link_string.c ****     {
 183:D:/fchai/work/i-cube/I-CUBE-HUAWEI/Middlewares/Third_Party/Huawei/iot_link/link_misc\link_string.c ****         return ret;
 184:D:/fchai/work/i-cube/I-CUBE-HUAWEI/Middlewares/Third_Party/Huawei/iot_link/link_misc\link_string.c ****     }
 185:D:/fchai/work/i-cube/I-CUBE-HUAWEI/Middlewares/Third_Party/Huawei/iot_link/link_misc\link_string.c **** 
 186:D:/fchai/work/i-cube/I-CUBE-HUAWEI/Middlewares/Third_Party/Huawei/iot_link/link_misc\link_string.c ****     ret = 0;
 187:D:/fchai/work/i-cube/I-CUBE-HUAWEI/Middlewares/Third_Party/Huawei/iot_link/link_misc\link_string.c ****     for(i = 0; i < len; i = i+2)
 456              		.loc 1 187 11 view .LVU142
 457 000e 0024     		movs	r4, #0
 188:D:/fchai/work/i-cube/I-CUBE-HUAWEI/Middlewares/Third_Party/Huawei/iot_link/link_misc\link_string.c ****     {
 189:D:/fchai/work/i-cube/I-CUBE-HUAWEI/Middlewares/Third_Party/Huawei/iot_link/link_misc\link_string.c ****         if(((buf[i]) >= '0') && (buf[i] <= '9'))
 190:D:/fchai/work/i-cube/I-CUBE-HUAWEI/Middlewares/Third_Party/Huawei/iot_link/link_misc\link_string.c ****         {
 191:D:/fchai/work/i-cube/I-CUBE-HUAWEI/Middlewares/Third_Party/Huawei/iot_link/link_misc\link_string.c ****             high = (uint8_t)( buf[i] - '0');
ARM GAS  T:\msys\tmp\ccdbBuIC.s 			page 13


 192:D:/fchai/work/i-cube/I-CUBE-HUAWEI/Middlewares/Third_Party/Huawei/iot_link/link_misc\link_string.c ****         }
 193:D:/fchai/work/i-cube/I-CUBE-HUAWEI/Middlewares/Third_Party/Huawei/iot_link/link_misc\link_string.c ****         else if((buf[i] >= 'A') && (buf[i] <= 'F'))
 194:D:/fchai/work/i-cube/I-CUBE-HUAWEI/Middlewares/Third_Party/Huawei/iot_link/link_misc\link_string.c ****         {
 195:D:/fchai/work/i-cube/I-CUBE-HUAWEI/Middlewares/Third_Party/Huawei/iot_link/link_misc\link_string.c ****             high = (uint8_t)( buf[i] - 'A') + 10;
 196:D:/fchai/work/i-cube/I-CUBE-HUAWEI/Middlewares/Third_Party/Huawei/iot_link/link_misc\link_string.c ****         }
 197:D:/fchai/work/i-cube/I-CUBE-HUAWEI/Middlewares/Third_Party/Huawei/iot_link/link_misc\link_string.c ****         else if((buf[i] >= 'a') && (buf[i] <= 'f'))
 198:D:/fchai/work/i-cube/I-CUBE-HUAWEI/Middlewares/Third_Party/Huawei/iot_link/link_misc\link_string.c ****         {
 199:D:/fchai/work/i-cube/I-CUBE-HUAWEI/Middlewares/Third_Party/Huawei/iot_link/link_misc\link_string.c ****             high = (uint8_t)( buf[i] - 'a') + 10;
 200:D:/fchai/work/i-cube/I-CUBE-HUAWEI/Middlewares/Third_Party/Huawei/iot_link/link_misc\link_string.c ****         }
 201:D:/fchai/work/i-cube/I-CUBE-HUAWEI/Middlewares/Third_Party/Huawei/iot_link/link_misc\link_string.c ****         else
 202:D:/fchai/work/i-cube/I-CUBE-HUAWEI/Middlewares/Third_Party/Huawei/iot_link/link_misc\link_string.c ****         {
 203:D:/fchai/work/i-cube/I-CUBE-HUAWEI/Middlewares/Third_Party/Huawei/iot_link/link_misc\link_string.c ****             ret = -1;
 204:D:/fchai/work/i-cube/I-CUBE-HUAWEI/Middlewares/Third_Party/Huawei/iot_link/link_misc\link_string.c ****             break;
 205:D:/fchai/work/i-cube/I-CUBE-HUAWEI/Middlewares/Third_Party/Huawei/iot_link/link_misc\link_string.c ****         }
 206:D:/fchai/work/i-cube/I-CUBE-HUAWEI/Middlewares/Third_Party/Huawei/iot_link/link_misc\link_string.c **** 
 207:D:/fchai/work/i-cube/I-CUBE-HUAWEI/Middlewares/Third_Party/Huawei/iot_link/link_misc\link_string.c ****         if(((buf[i+1]) >= '0') && (buf[i+1] <= '9'))
 458              		.loc 1 207 17 view .LVU143
 459 0010 471C     		adds	r7, r0, #1
 460 0012 16E0     		b	.L48
 461              	.LVL44:
 462              	.L63:
 195:D:/fchai/work/i-cube/I-CUBE-HUAWEI/Middlewares/Third_Party/Huawei/iot_link/link_misc\link_string.c ****         }
 463              		.loc 1 195 13 is_stmt 1 view .LVU144
 195:D:/fchai/work/i-cube/I-CUBE-HUAWEI/Middlewares/Third_Party/Huawei/iot_link/link_misc\link_string.c ****         }
 464              		.loc 1 195 18 is_stmt 0 view .LVU145
 465 0014 A6F13703 		sub	r3, r6, #55
 466 0018 DDB2     		uxtb	r5, r3
 467              	.LVL45:
 468              	.L44:
 469              		.loc 1 207 9 is_stmt 1 view .LVU146
 470              		.loc 1 207 17 is_stmt 0 view .LVU147
 471 001a 3E5D     		ldrb	r6, [r7, r4]	@ zero_extendqisi2
 472              		.loc 1 207 32 view .LVU148
 473 001c A6F13003 		sub	r3, r6, #48
 474 0020 DBB2     		uxtb	r3, r3
 475              		.loc 1 207 11 view .LVU149
 476 0022 092B     		cmp	r3, #9
 477 0024 06D9     		bls	.L46
 208:D:/fchai/work/i-cube/I-CUBE-HUAWEI/Middlewares/Third_Party/Huawei/iot_link/link_misc\link_string.c ****         {
 209:D:/fchai/work/i-cube/I-CUBE-HUAWEI/Middlewares/Third_Party/Huawei/iot_link/link_misc\link_string.c ****             low = (uint8_t)( buf[i+1] - '0');
 210:D:/fchai/work/i-cube/I-CUBE-HUAWEI/Middlewares/Third_Party/Huawei/iot_link/link_misc\link_string.c ****         }
 211:D:/fchai/work/i-cube/I-CUBE-HUAWEI/Middlewares/Third_Party/Huawei/iot_link/link_misc\link_string.c ****         else if((buf[i+1] >= 'A') && (buf[i+1] <= 'F'))
 478              		.loc 1 211 14 is_stmt 1 view .LVU150
 479              		.loc 1 211 16 is_stmt 0 view .LVU151
 480 0026 A6F14103 		sub	r3, r6, #65
 481 002a 052B     		cmp	r3, #5
 482 002c 1BD8     		bhi	.L47
 212:D:/fchai/work/i-cube/I-CUBE-HUAWEI/Middlewares/Third_Party/Huawei/iot_link/link_misc\link_string.c ****         {
 213:D:/fchai/work/i-cube/I-CUBE-HUAWEI/Middlewares/Third_Party/Huawei/iot_link/link_misc\link_string.c ****             low = (uint8_t)( buf[i+1] - 'A') + 10;
 483              		.loc 1 213 13 is_stmt 1 view .LVU152
 484              		.loc 1 213 17 is_stmt 0 view .LVU153
 485 002e A6F13703 		sub	r3, r6, #55
 486 0032 DBB2     		uxtb	r3, r3
 487              	.LVL46:
 488              	.L46:
 214:D:/fchai/work/i-cube/I-CUBE-HUAWEI/Middlewares/Third_Party/Huawei/iot_link/link_misc\link_string.c ****         }
 215:D:/fchai/work/i-cube/I-CUBE-HUAWEI/Middlewares/Third_Party/Huawei/iot_link/link_misc\link_string.c ****         else if((buf[i+1] >= 'a') && (buf[i+1] <= 'f'))
ARM GAS  T:\msys\tmp\ccdbBuIC.s 			page 14


 216:D:/fchai/work/i-cube/I-CUBE-HUAWEI/Middlewares/Third_Party/Huawei/iot_link/link_misc\link_string.c ****         {
 217:D:/fchai/work/i-cube/I-CUBE-HUAWEI/Middlewares/Third_Party/Huawei/iot_link/link_misc\link_string.c ****             low = (uint8_t)( buf[i+1] - 'a') + 10;
 218:D:/fchai/work/i-cube/I-CUBE-HUAWEI/Middlewares/Third_Party/Huawei/iot_link/link_misc\link_string.c ****         }
 219:D:/fchai/work/i-cube/I-CUBE-HUAWEI/Middlewares/Third_Party/Huawei/iot_link/link_misc\link_string.c ****         else
 220:D:/fchai/work/i-cube/I-CUBE-HUAWEI/Middlewares/Third_Party/Huawei/iot_link/link_misc\link_string.c ****         {
 221:D:/fchai/work/i-cube/I-CUBE-HUAWEI/Middlewares/Third_Party/Huawei/iot_link/link_misc\link_string.c ****             ret = -1;
 222:D:/fchai/work/i-cube/I-CUBE-HUAWEI/Middlewares/Third_Party/Huawei/iot_link/link_misc\link_string.c ****             break;
 223:D:/fchai/work/i-cube/I-CUBE-HUAWEI/Middlewares/Third_Party/Huawei/iot_link/link_misc\link_string.c ****         }
 224:D:/fchai/work/i-cube/I-CUBE-HUAWEI/Middlewares/Third_Party/Huawei/iot_link/link_misc\link_string.c **** 
 225:D:/fchai/work/i-cube/I-CUBE-HUAWEI/Middlewares/Third_Party/Huawei/iot_link/link_misc\link_string.c ****         bufout[i/2] = (char)((high<<4)|(low&0x0F));
 489              		.loc 1 225 9 is_stmt 1 discriminator 2 view .LVU154
 490              		.loc 1 225 17 is_stmt 0 discriminator 2 view .LVU155
 491 0034 6610     		asrs	r6, r4, #1
 187:D:/fchai/work/i-cube/I-CUBE-HUAWEI/Middlewares/Third_Party/Huawei/iot_link/link_misc\link_string.c ****     {
 492              		.loc 1 187 27 discriminator 2 view .LVU156
 493 0036 0234     		adds	r4, r4, #2
 494              	.LVL47:
 495              		.loc 1 225 39 discriminator 2 view .LVU157
 496 0038 43EA0513 		orr	r3, r3, r5, lsl #4
 497              	.LVL48:
 187:D:/fchai/work/i-cube/I-CUBE-HUAWEI/Middlewares/Third_Party/Huawei/iot_link/link_misc\link_string.c ****     {
 498              		.loc 1 187 5 discriminator 2 view .LVU158
 499 003c A142     		cmp	r1, r4
 500              		.loc 1 225 21 discriminator 2 view .LVU159
 501 003e 9355     		strb	r3, [r2, r6]
 187:D:/fchai/work/i-cube/I-CUBE-HUAWEI/Middlewares/Third_Party/Huawei/iot_link/link_misc\link_string.c ****     {
 502              		.loc 1 187 25 is_stmt 1 discriminator 2 view .LVU160
 503              	.LVL49:
 187:D:/fchai/work/i-cube/I-CUBE-HUAWEI/Middlewares/Third_Party/Huawei/iot_link/link_misc\link_string.c ****     {
 504              		.loc 1 187 16 discriminator 2 view .LVU161
 187:D:/fchai/work/i-cube/I-CUBE-HUAWEI/Middlewares/Third_Party/Huawei/iot_link/link_misc\link_string.c ****     {
 505              		.loc 1 187 5 is_stmt 0 discriminator 2 view .LVU162
 506 0040 19DD     		ble	.L62
 507              	.LVL50:
 508              	.L48:
 189:D:/fchai/work/i-cube/I-CUBE-HUAWEI/Middlewares/Third_Party/Huawei/iot_link/link_misc\link_string.c ****         {
 509              		.loc 1 189 9 is_stmt 1 view .LVU163
 189:D:/fchai/work/i-cube/I-CUBE-HUAWEI/Middlewares/Third_Party/Huawei/iot_link/link_misc\link_string.c ****         {
 510              		.loc 1 189 17 is_stmt 0 view .LVU164
 511 0042 065D     		ldrb	r6, [r0, r4]	@ zero_extendqisi2
 189:D:/fchai/work/i-cube/I-CUBE-HUAWEI/Middlewares/Third_Party/Huawei/iot_link/link_misc\link_string.c ****         {
 512              		.loc 1 189 30 view .LVU165
 513 0044 A6F13003 		sub	r3, r6, #48
 514 0048 DDB2     		uxtb	r5, r3
 189:D:/fchai/work/i-cube/I-CUBE-HUAWEI/Middlewares/Third_Party/Huawei/iot_link/link_misc\link_string.c ****         {
 515              		.loc 1 189 11 view .LVU166
 516 004a 092D     		cmp	r5, #9
 517 004c E5D9     		bls	.L44
 193:D:/fchai/work/i-cube/I-CUBE-HUAWEI/Middlewares/Third_Party/Huawei/iot_link/link_misc\link_string.c ****         {
 518              		.loc 1 193 14 is_stmt 1 view .LVU167
 193:D:/fchai/work/i-cube/I-CUBE-HUAWEI/Middlewares/Third_Party/Huawei/iot_link/link_misc\link_string.c ****         {
 519              		.loc 1 193 16 is_stmt 0 view .LVU168
 520 004e A6F14103 		sub	r3, r6, #65
 521 0052 052B     		cmp	r3, #5
 522 0054 DED9     		bls	.L63
 197:D:/fchai/work/i-cube/I-CUBE-HUAWEI/Middlewares/Third_Party/Huawei/iot_link/link_misc\link_string.c ****         {
 523              		.loc 1 197 14 is_stmt 1 view .LVU169
ARM GAS  T:\msys\tmp\ccdbBuIC.s 			page 15


 197:D:/fchai/work/i-cube/I-CUBE-HUAWEI/Middlewares/Third_Party/Huawei/iot_link/link_misc\link_string.c ****         {
 524              		.loc 1 197 16 is_stmt 0 view .LVU170
 525 0056 A6F16103 		sub	r3, r6, #97
 526 005a 052B     		cmp	r3, #5
 527 005c 0ED8     		bhi	.L43
 199:D:/fchai/work/i-cube/I-CUBE-HUAWEI/Middlewares/Third_Party/Huawei/iot_link/link_misc\link_string.c ****         }
 528              		.loc 1 199 13 is_stmt 1 view .LVU171
 199:D:/fchai/work/i-cube/I-CUBE-HUAWEI/Middlewares/Third_Party/Huawei/iot_link/link_misc\link_string.c ****         }
 529              		.loc 1 199 18 is_stmt 0 view .LVU172
 530 005e A6F15703 		sub	r3, r6, #87
 531 0062 DDB2     		uxtb	r5, r3
 532              	.LVL51:
 199:D:/fchai/work/i-cube/I-CUBE-HUAWEI/Middlewares/Third_Party/Huawei/iot_link/link_misc\link_string.c ****         }
 533              		.loc 1 199 18 view .LVU173
 534 0064 D9E7     		b	.L44
 535              	.L47:
 215:D:/fchai/work/i-cube/I-CUBE-HUAWEI/Middlewares/Third_Party/Huawei/iot_link/link_misc\link_string.c ****         {
 536              		.loc 1 215 14 is_stmt 1 view .LVU174
 215:D:/fchai/work/i-cube/I-CUBE-HUAWEI/Middlewares/Third_Party/Huawei/iot_link/link_misc\link_string.c ****         {
 537              		.loc 1 215 16 is_stmt 0 view .LVU175
 538 0066 A6F16103 		sub	r3, r6, #97
 539 006a 052B     		cmp	r3, #5
 540 006c 06D8     		bhi	.L43
 217:D:/fchai/work/i-cube/I-CUBE-HUAWEI/Middlewares/Third_Party/Huawei/iot_link/link_misc\link_string.c ****         }
 541              		.loc 1 217 13 is_stmt 1 view .LVU176
 217:D:/fchai/work/i-cube/I-CUBE-HUAWEI/Middlewares/Third_Party/Huawei/iot_link/link_misc\link_string.c ****         }
 542              		.loc 1 217 17 is_stmt 0 view .LVU177
 543 006e A6F15703 		sub	r3, r6, #87
 544 0072 DBB2     		uxtb	r3, r3
 545              	.LVL52:
 217:D:/fchai/work/i-cube/I-CUBE-HUAWEI/Middlewares/Third_Party/Huawei/iot_link/link_misc\link_string.c ****         }
 546              		.loc 1 217 17 view .LVU178
 547 0074 DEE7     		b	.L46
 548              	.LVL53:
 549              	.L62:
 186:D:/fchai/work/i-cube/I-CUBE-HUAWEI/Middlewares/Third_Party/Huawei/iot_link/link_misc\link_string.c ****     for(i = 0; i < len; i = i+2)
 550              		.loc 1 186 9 view .LVU179
 551 0076 0020     		movs	r0, #0
 552              	.LVL54:
 226:D:/fchai/work/i-cube/I-CUBE-HUAWEI/Middlewares/Third_Party/Huawei/iot_link/link_misc\link_string.c ****     }
 227:D:/fchai/work/i-cube/I-CUBE-HUAWEI/Middlewares/Third_Party/Huawei/iot_link/link_misc\link_string.c ****     return ret;
 228:D:/fchai/work/i-cube/I-CUBE-HUAWEI/Middlewares/Third_Party/Huawei/iot_link/link_misc\link_string.c **** }
 553              		.loc 1 228 1 view .LVU180
 554 0078 F0BC     		pop	{r4, r5, r6, r7}
 555              	.LCFI9:
 556              		.cfi_remember_state
 557              		.cfi_restore 7
 558              		.cfi_restore 6
 559              		.cfi_restore 5
 560              		.cfi_restore 4
 561              		.cfi_def_cfa_offset 0
 562              	.LVL55:
 563              		.loc 1 228 1 view .LVU181
 564 007a 7047     		bx	lr
 565              	.LVL56:
 566              	.L43:
 567              	.LCFI10:
ARM GAS  T:\msys\tmp\ccdbBuIC.s 			page 16


 568              		.cfi_restore_state
 183:D:/fchai/work/i-cube/I-CUBE-HUAWEI/Middlewares/Third_Party/Huawei/iot_link/link_misc\link_string.c ****     }
 569              		.loc 1 183 16 view .LVU182
 570 007c 4FF0FF30 		mov	r0, #-1
 571              	.LVL57:
 572              		.loc 1 228 1 view .LVU183
 573 0080 F0BC     		pop	{r4, r5, r6, r7}
 574              	.LCFI11:
 575              		.cfi_restore 7
 576              		.cfi_restore 6
 577              		.cfi_restore 5
 578              		.cfi_restore 4
 579              		.cfi_def_cfa_offset 0
 580              	.LVL58:
 581              		.loc 1 228 1 view .LVU184
 582 0082 7047     		bx	lr
 583              	.LVL59:
 584              	.L58:
 183:D:/fchai/work/i-cube/I-CUBE-HUAWEI/Middlewares/Third_Party/Huawei/iot_link/link_misc\link_string.c ****     }
 585              		.loc 1 183 16 view .LVU185
 586 0084 4FF0FF30 		mov	r0, #-1
 587              	.LVL60:
 588              		.loc 1 228 1 view .LVU186
 589 0088 7047     		bx	lr
 590              		.cfi_endproc
 591              	.LFE6:
 593 008a 00BF     		.section	.text.byte2hexstr,"ax",%progbits
 594              		.align	1
 595              		.p2align 2,,3
 596              		.global	byte2hexstr
 597              		.syntax unified
 598              		.thumb
 599              		.thumb_func
 600              		.fpu fpv4-sp-d16
 602              	byte2hexstr:
 603              	.LVL61:
 604              	.LFB7:
 229:D:/fchai/work/i-cube/I-CUBE-HUAWEI/Middlewares/Third_Party/Huawei/iot_link/link_misc\link_string.c **** 
 230:D:/fchai/work/i-cube/I-CUBE-HUAWEI/Middlewares/Third_Party/Huawei/iot_link/link_misc\link_string.c **** 
 231:D:/fchai/work/i-cube/I-CUBE-HUAWEI/Middlewares/Third_Party/Huawei/iot_link/link_misc\link_string.c **** 
 232:D:/fchai/work/i-cube/I-CUBE-HUAWEI/Middlewares/Third_Party/Huawei/iot_link/link_misc\link_string.c **** //make a byte to 2 ascii hex
 233:D:/fchai/work/i-cube/I-CUBE-HUAWEI/Middlewares/Third_Party/Huawei/iot_link/link_misc\link_string.c **** int byte2hexstr(uint8_t *bufin, int len, char *bufout)
 234:D:/fchai/work/i-cube/I-CUBE-HUAWEI/Middlewares/Third_Party/Huawei/iot_link/link_misc\link_string.c **** {
 605              		.loc 1 234 1 is_stmt 1 view -0
 606              		.cfi_startproc
 607              		@ args = 0, pretend = 0, frame = 0
 608              		@ frame_needed = 0, uses_anonymous_args = 0
 609              		@ link register save eliminated.
 235:D:/fchai/work/i-cube/I-CUBE-HUAWEI/Middlewares/Third_Party/Huawei/iot_link/link_misc\link_string.c ****     int i = 0;
 610              		.loc 1 235 5 view .LVU188
 236:D:/fchai/work/i-cube/I-CUBE-HUAWEI/Middlewares/Third_Party/Huawei/iot_link/link_misc\link_string.c ****     uint8_t tmp_l = 0x0;
 611              		.loc 1 236 5 view .LVU189
 237:D:/fchai/work/i-cube/I-CUBE-HUAWEI/Middlewares/Third_Party/Huawei/iot_link/link_misc\link_string.c ****     uint8_t tmp_h = 0;
 612              		.loc 1 237 5 view .LVU190
 238:D:/fchai/work/i-cube/I-CUBE-HUAWEI/Middlewares/Third_Party/Huawei/iot_link/link_misc\link_string.c ****     if ((NULL == bufin )|| (len <= 0 )||( NULL == bufout))
 613              		.loc 1 238 5 view .LVU191
 614              		.loc 1 238 8 is_stmt 0 view .LVU192
ARM GAS  T:\msys\tmp\ccdbBuIC.s 			page 17


 615 0000 F0B1     		cbz	r0, .L73
 616              		.loc 1 238 25 discriminator 1 view .LVU193
 617 0002 0029     		cmp	r1, #0
 618 0004 1CDD     		ble	.L73
 619              		.loc 1 238 39 discriminator 2 view .LVU194
 620 0006 DAB1     		cbz	r2, .L73
 234:D:/fchai/work/i-cube/I-CUBE-HUAWEI/Middlewares/Third_Party/Huawei/iot_link/link_misc\link_string.c ****     int i = 0;
 621              		.loc 1 234 1 view .LVU195
 622 0008 F0B4     		push	{r4, r5, r6, r7}
 623              	.LCFI12:
 624              		.cfi_def_cfa_offset 16
 625              		.cfi_offset 4, -16
 626              		.cfi_offset 5, -12
 627              		.cfi_offset 6, -8
 628              		.cfi_offset 7, -4
 629 000a 1346     		mov	r3, r2
 630 000c 461E     		subs	r6, r0, #1
 631 000e 02EB4107 		add	r7, r2, r1, lsl #1
 632              	.LVL62:
 633              	.L70:
 239:D:/fchai/work/i-cube/I-CUBE-HUAWEI/Middlewares/Third_Party/Huawei/iot_link/link_misc\link_string.c ****     {
 240:D:/fchai/work/i-cube/I-CUBE-HUAWEI/Middlewares/Third_Party/Huawei/iot_link/link_misc\link_string.c ****         return -1;
 241:D:/fchai/work/i-cube/I-CUBE-HUAWEI/Middlewares/Third_Party/Huawei/iot_link/link_misc\link_string.c ****     }
 242:D:/fchai/work/i-cube/I-CUBE-HUAWEI/Middlewares/Third_Party/Huawei/iot_link/link_misc\link_string.c ****     for(i = 0; i < len; i++)
 243:D:/fchai/work/i-cube/I-CUBE-HUAWEI/Middlewares/Third_Party/Huawei/iot_link/link_misc\link_string.c ****     {
 244:D:/fchai/work/i-cube/I-CUBE-HUAWEI/Middlewares/Third_Party/Huawei/iot_link/link_misc\link_string.c ****         tmp_h = (bufin[i]>>4)&0X0F;
 634              		.loc 1 244 9 is_stmt 1 view .LVU196
 635              		.loc 1 244 23 is_stmt 0 view .LVU197
 636 0012 16F8015F 		ldrb	r5, [r6, #1]!	@ zero_extendqisi2
 637              	.LVL63:
 245:D:/fchai/work/i-cube/I-CUBE-HUAWEI/Middlewares/Third_Party/Huawei/iot_link/link_misc\link_string.c ****         tmp_l = bufin[i] &0x0F;
 638              		.loc 1 245 15 view .LVU198
 639 0016 05F00F00 		and	r0, r5, #15
 244:D:/fchai/work/i-cube/I-CUBE-HUAWEI/Middlewares/Third_Party/Huawei/iot_link/link_misc\link_string.c ****         tmp_l = bufin[i] &0x0F;
 640              		.loc 1 244 15 view .LVU199
 641 001a 2C09     		lsrs	r4, r5, #4
 642              	.LVL64:
 643              		.loc 1 245 9 is_stmt 1 view .LVU200
 246:D:/fchai/work/i-cube/I-CUBE-HUAWEI/Middlewares/Third_Party/Huawei/iot_link/link_misc\link_string.c ****         bufout[2*i] = (tmp_h > 9)? (tmp_h - 10 + 'a'):(tmp_h +'0');
 644              		.loc 1 246 9 view .LVU201
 645              		.loc 1 246 21 is_stmt 0 view .LVU202
 646 001c 9F2D     		cmp	r5, #159
 647 001e 8CBF     		ite	hi
 648 0020 5734     		addhi	r4, r4, #87
 649              	.LVL65:
 650              		.loc 1 246 21 view .LVU203
 651 0022 3034     		addls	r4, r4, #48
 247:D:/fchai/work/i-cube/I-CUBE-HUAWEI/Middlewares/Third_Party/Huawei/iot_link/link_misc\link_string.c ****         bufout[2*i + 1] = (tmp_l > 9)? (tmp_l - 10 + 'a'):(tmp_l +'0');
 652              		.loc 1 247 25 view .LVU204
 653 0024 0928     		cmp	r0, #9
 654 0026 8CBF     		ite	hi
 655 0028 5730     		addhi	r0, r0, #87
 656              	.LVL66:
 657              		.loc 1 247 25 view .LVU205
 658 002a 3030     		addls	r0, r0, #48
 246:D:/fchai/work/i-cube/I-CUBE-HUAWEI/Middlewares/Third_Party/Huawei/iot_link/link_misc\link_string.c ****         bufout[2*i] = (tmp_h > 9)? (tmp_h - 10 + 'a'):(tmp_h +'0');
 659              		.loc 1 246 21 view .LVU206
ARM GAS  T:\msys\tmp\ccdbBuIC.s 			page 18


 660 002c 1C70     		strb	r4, [r3]
 661              		.loc 1 247 9 is_stmt 1 view .LVU207
 662              		.loc 1 247 25 is_stmt 0 view .LVU208
 663 002e 5870     		strb	r0, [r3, #1]
 242:D:/fchai/work/i-cube/I-CUBE-HUAWEI/Middlewares/Third_Party/Huawei/iot_link/link_misc\link_string.c ****     {
 664              		.loc 1 242 25 is_stmt 1 view .LVU209
 665              	.LVL67:
 242:D:/fchai/work/i-cube/I-CUBE-HUAWEI/Middlewares/Third_Party/Huawei/iot_link/link_misc\link_string.c ****     {
 666              		.loc 1 242 16 view .LVU210
 667 0030 0233     		adds	r3, r3, #2
 242:D:/fchai/work/i-cube/I-CUBE-HUAWEI/Middlewares/Third_Party/Huawei/iot_link/link_misc\link_string.c ****     {
 668              		.loc 1 242 5 is_stmt 0 view .LVU211
 669 0032 BB42     		cmp	r3, r7
 670 0034 EDD1     		bne	.L70
 248:D:/fchai/work/i-cube/I-CUBE-HUAWEI/Middlewares/Third_Party/Huawei/iot_link/link_misc\link_string.c ****     }
 249:D:/fchai/work/i-cube/I-CUBE-HUAWEI/Middlewares/Third_Party/Huawei/iot_link/link_misc\link_string.c ****     bufout[2*len] = '\0';
 671              		.loc 1 249 5 is_stmt 1 view .LVU212
 672              		.loc 1 249 19 is_stmt 0 view .LVU213
 673 0036 0020     		movs	r0, #0
 250:D:/fchai/work/i-cube/I-CUBE-HUAWEI/Middlewares/Third_Party/Huawei/iot_link/link_misc\link_string.c **** 
 251:D:/fchai/work/i-cube/I-CUBE-HUAWEI/Middlewares/Third_Party/Huawei/iot_link/link_misc\link_string.c ****     return 0;
 252:D:/fchai/work/i-cube/I-CUBE-HUAWEI/Middlewares/Third_Party/Huawei/iot_link/link_misc\link_string.c **** }
 674              		.loc 1 252 1 view .LVU214
 675 0038 F0BC     		pop	{r4, r5, r6, r7}
 676              	.LCFI13:
 677              		.cfi_restore 7
 678              		.cfi_restore 6
 679              		.cfi_restore 5
 680              		.cfi_restore 4
 681              		.cfi_def_cfa_offset 0
 682              	.LVL68:
 249:D:/fchai/work/i-cube/I-CUBE-HUAWEI/Middlewares/Third_Party/Huawei/iot_link/link_misc\link_string.c **** 
 683              		.loc 1 249 19 view .LVU215
 684 003a 02F81100 		strb	r0, [r2, r1, lsl #1]
 251:D:/fchai/work/i-cube/I-CUBE-HUAWEI/Middlewares/Third_Party/Huawei/iot_link/link_misc\link_string.c **** }
 685              		.loc 1 251 5 is_stmt 1 view .LVU216
 686              		.loc 1 252 1 is_stmt 0 view .LVU217
 687 003e 7047     		bx	lr
 688              	.LVL69:
 689              	.L73:
 240:D:/fchai/work/i-cube/I-CUBE-HUAWEI/Middlewares/Third_Party/Huawei/iot_link/link_misc\link_string.c ****     }
 690              		.loc 1 240 16 view .LVU218
 691 0040 4FF0FF30 		mov	r0, #-1
 692              	.LVL70:
 693              		.loc 1 252 1 view .LVU219
 694 0044 7047     		bx	lr
 695              		.cfi_endproc
 696              	.LFE7:
 698              		.text
 699              	.Letext0:
 700              		.file 2 "t:\\msys\\3rd\\gcc-arm-none-eabi-9-2020-q2-update-win32\\arm-none-eabi\\include\\machine\
 701              		.file 3 "t:\\msys\\3rd\\gcc-arm-none-eabi-9-2020-q2-update-win32\\arm-none-eabi\\include\\sys\\_st
 702              		.file 4 "t:\\msys\\3rd\\gcc-arm-none-eabi-9-2020-q2-update-win32\\lib\\gcc\\arm-none-eabi\\9.3.1\\
 703              		.file 5 "t:\\msys\\3rd\\gcc-arm-none-eabi-9-2020-q2-update-win32\\arm-none-eabi\\include\\sys\\_ty
 704              		.file 6 "t:\\msys\\3rd\\gcc-arm-none-eabi-9-2020-q2-update-win32\\arm-none-eabi\\include\\sys\\ree
 705              		.file 7 "t:\\msys\\3rd\\gcc-arm-none-eabi-9-2020-q2-update-win32\\arm-none-eabi\\include\\sys\\loc
 706              		.file 8 "t:\\msys\\3rd\\gcc-arm-none-eabi-9-2020-q2-update-win32\\arm-none-eabi\\include\\string.h
ARM GAS  T:\msys\tmp\ccdbBuIC.s 			page 19


 707              		.file 9 "D:/fchai/work/i-cube/I-CUBE-HUAWEI/Middlewares/Third_Party/Huawei/iot_link/os/osal/osal.h
 708              		.file 10 "<built-in>"
ARM GAS  T:\msys\tmp\ccdbBuIC.s 			page 20

