ARM GAS  T:\msys\tmp\ccPPAP19.s 			page 1


   1              		.cpu cortex-m4
   2              		.eabi_attribute 27, 1
   3              		.eabi_attribute 28, 1
   4              		.eabi_attribute 20, 1
   5              		.eabi_attribute 21, 1
   6              		.eabi_attribute 23, 3
   7              		.eabi_attribute 24, 1
   8              		.eabi_attribute 25, 1
   9              		.eabi_attribute 26, 1
  10              		.eabi_attribute 30, 2
  11              		.eabi_attribute 34, 1
  12              		.eabi_attribute 18, 4
  13              		.file	"hts221.c"
  14              		.text
  15              	.Ltext0:
  16              		.cfi_sections	.debug_frame
  17              		.section	.text.HTS221_GetCapabilities,"ax",%progbits
  18              		.align	1
  19              		.p2align 2,,3
  20              		.global	HTS221_GetCapabilities
  21              		.arch armv7e-m
  22              		.syntax unified
  23              		.thumb
  24              		.thumb_func
  25              		.fpu fpv4-sp-d16
  27              	HTS221_GetCapabilities:
  28              	.LVL0:
  29              	.LFB4:
  30              		.file 1 "D:/fchai/work/i-cube/I-CUBE-HUAWEI/Drivers/BSP/Components/hts221/hts221.c"
   1:D:/fchai/work/i-cube/I-CUBE-HUAWEI/Drivers/BSP/Components/hts221\hts221.c **** /**
   2:D:/fchai/work/i-cube/I-CUBE-HUAWEI/Drivers/BSP/Components/hts221\hts221.c ****  ******************************************************************************
   3:D:/fchai/work/i-cube/I-CUBE-HUAWEI/Drivers/BSP/Components/hts221\hts221.c ****  * @file    hts221.c
   4:D:/fchai/work/i-cube/I-CUBE-HUAWEI/Drivers/BSP/Components/hts221\hts221.c ****  * @author  MEMS Software Solutions Team
   5:D:/fchai/work/i-cube/I-CUBE-HUAWEI/Drivers/BSP/Components/hts221\hts221.c ****  * @brief   HTS221 driver file
   6:D:/fchai/work/i-cube/I-CUBE-HUAWEI/Drivers/BSP/Components/hts221\hts221.c ****  ******************************************************************************
   7:D:/fchai/work/i-cube/I-CUBE-HUAWEI/Drivers/BSP/Components/hts221\hts221.c ****  * @attention
   8:D:/fchai/work/i-cube/I-CUBE-HUAWEI/Drivers/BSP/Components/hts221\hts221.c ****  *
   9:D:/fchai/work/i-cube/I-CUBE-HUAWEI/Drivers/BSP/Components/hts221\hts221.c ****  * <h2><center>&copy; Copyright (c) 2019 STMicroelectronics.
  10:D:/fchai/work/i-cube/I-CUBE-HUAWEI/Drivers/BSP/Components/hts221\hts221.c ****  * All rights reserved.</center></h2>
  11:D:/fchai/work/i-cube/I-CUBE-HUAWEI/Drivers/BSP/Components/hts221\hts221.c ****  *
  12:D:/fchai/work/i-cube/I-CUBE-HUAWEI/Drivers/BSP/Components/hts221\hts221.c ****  * This software component is licensed by ST under BSD 3-Clause license,
  13:D:/fchai/work/i-cube/I-CUBE-HUAWEI/Drivers/BSP/Components/hts221\hts221.c ****  * the "License"; You may not use this file except in compliance with the
  14:D:/fchai/work/i-cube/I-CUBE-HUAWEI/Drivers/BSP/Components/hts221\hts221.c ****  * License. You may obtain a copy of the License at:
  15:D:/fchai/work/i-cube/I-CUBE-HUAWEI/Drivers/BSP/Components/hts221\hts221.c ****  *                        opensource.org/licenses/BSD-3-Clause
  16:D:/fchai/work/i-cube/I-CUBE-HUAWEI/Drivers/BSP/Components/hts221\hts221.c ****  *
  17:D:/fchai/work/i-cube/I-CUBE-HUAWEI/Drivers/BSP/Components/hts221\hts221.c ****  ******************************************************************************
  18:D:/fchai/work/i-cube/I-CUBE-HUAWEI/Drivers/BSP/Components/hts221\hts221.c ****  */
  19:D:/fchai/work/i-cube/I-CUBE-HUAWEI/Drivers/BSP/Components/hts221\hts221.c **** 
  20:D:/fchai/work/i-cube/I-CUBE-HUAWEI/Drivers/BSP/Components/hts221\hts221.c **** /* Includes ------------------------------------------------------------------*/
  21:D:/fchai/work/i-cube/I-CUBE-HUAWEI/Drivers/BSP/Components/hts221\hts221.c **** #include "hts221.h"
  22:D:/fchai/work/i-cube/I-CUBE-HUAWEI/Drivers/BSP/Components/hts221\hts221.c **** 
  23:D:/fchai/work/i-cube/I-CUBE-HUAWEI/Drivers/BSP/Components/hts221\hts221.c **** /** @addtogroup BSP BSP
  24:D:/fchai/work/i-cube/I-CUBE-HUAWEI/Drivers/BSP/Components/hts221\hts221.c ****  * @{
  25:D:/fchai/work/i-cube/I-CUBE-HUAWEI/Drivers/BSP/Components/hts221\hts221.c ****  */
  26:D:/fchai/work/i-cube/I-CUBE-HUAWEI/Drivers/BSP/Components/hts221\hts221.c **** 
  27:D:/fchai/work/i-cube/I-CUBE-HUAWEI/Drivers/BSP/Components/hts221\hts221.c **** /** @addtogroup Component Component
  28:D:/fchai/work/i-cube/I-CUBE-HUAWEI/Drivers/BSP/Components/hts221\hts221.c ****  * @{
ARM GAS  T:\msys\tmp\ccPPAP19.s 			page 2


  29:D:/fchai/work/i-cube/I-CUBE-HUAWEI/Drivers/BSP/Components/hts221\hts221.c ****  */
  30:D:/fchai/work/i-cube/I-CUBE-HUAWEI/Drivers/BSP/Components/hts221\hts221.c **** 
  31:D:/fchai/work/i-cube/I-CUBE-HUAWEI/Drivers/BSP/Components/hts221\hts221.c **** /** @defgroup HTS221 HTS221
  32:D:/fchai/work/i-cube/I-CUBE-HUAWEI/Drivers/BSP/Components/hts221\hts221.c ****  * @{
  33:D:/fchai/work/i-cube/I-CUBE-HUAWEI/Drivers/BSP/Components/hts221\hts221.c ****  */
  34:D:/fchai/work/i-cube/I-CUBE-HUAWEI/Drivers/BSP/Components/hts221\hts221.c **** 
  35:D:/fchai/work/i-cube/I-CUBE-HUAWEI/Drivers/BSP/Components/hts221\hts221.c **** /** @defgroup HTS221_Exported_Variables HTS221 Exported Variables
  36:D:/fchai/work/i-cube/I-CUBE-HUAWEI/Drivers/BSP/Components/hts221\hts221.c ****  * @{
  37:D:/fchai/work/i-cube/I-CUBE-HUAWEI/Drivers/BSP/Components/hts221\hts221.c ****  */
  38:D:/fchai/work/i-cube/I-CUBE-HUAWEI/Drivers/BSP/Components/hts221\hts221.c **** 
  39:D:/fchai/work/i-cube/I-CUBE-HUAWEI/Drivers/BSP/Components/hts221\hts221.c **** HTS221_CommonDrv_t HTS221_COMMON_Driver =
  40:D:/fchai/work/i-cube/I-CUBE-HUAWEI/Drivers/BSP/Components/hts221\hts221.c **** {
  41:D:/fchai/work/i-cube/I-CUBE-HUAWEI/Drivers/BSP/Components/hts221\hts221.c ****   HTS221_Init,
  42:D:/fchai/work/i-cube/I-CUBE-HUAWEI/Drivers/BSP/Components/hts221\hts221.c ****   HTS221_DeInit,
  43:D:/fchai/work/i-cube/I-CUBE-HUAWEI/Drivers/BSP/Components/hts221\hts221.c ****   HTS221_ReadID,
  44:D:/fchai/work/i-cube/I-CUBE-HUAWEI/Drivers/BSP/Components/hts221\hts221.c ****   HTS221_GetCapabilities,
  45:D:/fchai/work/i-cube/I-CUBE-HUAWEI/Drivers/BSP/Components/hts221\hts221.c **** };
  46:D:/fchai/work/i-cube/I-CUBE-HUAWEI/Drivers/BSP/Components/hts221\hts221.c **** 
  47:D:/fchai/work/i-cube/I-CUBE-HUAWEI/Drivers/BSP/Components/hts221\hts221.c **** HTS221_HUM_Drv_t HTS221_HUM_Driver =
  48:D:/fchai/work/i-cube/I-CUBE-HUAWEI/Drivers/BSP/Components/hts221\hts221.c **** {
  49:D:/fchai/work/i-cube/I-CUBE-HUAWEI/Drivers/BSP/Components/hts221\hts221.c ****   HTS221_HUM_Enable,
  50:D:/fchai/work/i-cube/I-CUBE-HUAWEI/Drivers/BSP/Components/hts221\hts221.c ****   HTS221_HUM_Disable,
  51:D:/fchai/work/i-cube/I-CUBE-HUAWEI/Drivers/BSP/Components/hts221\hts221.c ****   HTS221_HUM_GetOutputDataRate,
  52:D:/fchai/work/i-cube/I-CUBE-HUAWEI/Drivers/BSP/Components/hts221\hts221.c ****   HTS221_HUM_SetOutputDataRate,
  53:D:/fchai/work/i-cube/I-CUBE-HUAWEI/Drivers/BSP/Components/hts221\hts221.c ****   HTS221_HUM_GetHumidity,
  54:D:/fchai/work/i-cube/I-CUBE-HUAWEI/Drivers/BSP/Components/hts221\hts221.c **** };
  55:D:/fchai/work/i-cube/I-CUBE-HUAWEI/Drivers/BSP/Components/hts221\hts221.c **** 
  56:D:/fchai/work/i-cube/I-CUBE-HUAWEI/Drivers/BSP/Components/hts221\hts221.c **** HTS221_TEMP_Drv_t HTS221_TEMP_Driver =
  57:D:/fchai/work/i-cube/I-CUBE-HUAWEI/Drivers/BSP/Components/hts221\hts221.c **** {
  58:D:/fchai/work/i-cube/I-CUBE-HUAWEI/Drivers/BSP/Components/hts221\hts221.c ****   HTS221_TEMP_Enable,
  59:D:/fchai/work/i-cube/I-CUBE-HUAWEI/Drivers/BSP/Components/hts221\hts221.c ****   HTS221_TEMP_Disable,
  60:D:/fchai/work/i-cube/I-CUBE-HUAWEI/Drivers/BSP/Components/hts221\hts221.c ****   HTS221_TEMP_GetOutputDataRate,
  61:D:/fchai/work/i-cube/I-CUBE-HUAWEI/Drivers/BSP/Components/hts221\hts221.c ****   HTS221_TEMP_SetOutputDataRate,
  62:D:/fchai/work/i-cube/I-CUBE-HUAWEI/Drivers/BSP/Components/hts221\hts221.c ****   HTS221_TEMP_GetTemperature,
  63:D:/fchai/work/i-cube/I-CUBE-HUAWEI/Drivers/BSP/Components/hts221\hts221.c **** };
  64:D:/fchai/work/i-cube/I-CUBE-HUAWEI/Drivers/BSP/Components/hts221\hts221.c **** 
  65:D:/fchai/work/i-cube/I-CUBE-HUAWEI/Drivers/BSP/Components/hts221\hts221.c **** /**
  66:D:/fchai/work/i-cube/I-CUBE-HUAWEI/Drivers/BSP/Components/hts221\hts221.c ****  * @}
  67:D:/fchai/work/i-cube/I-CUBE-HUAWEI/Drivers/BSP/Components/hts221\hts221.c ****  */
  68:D:/fchai/work/i-cube/I-CUBE-HUAWEI/Drivers/BSP/Components/hts221\hts221.c **** 
  69:D:/fchai/work/i-cube/I-CUBE-HUAWEI/Drivers/BSP/Components/hts221\hts221.c **** /** @defgroup HTS221_Private_Function_Prototypes HTS221 Private Function Prototypes
  70:D:/fchai/work/i-cube/I-CUBE-HUAWEI/Drivers/BSP/Components/hts221\hts221.c ****  * @{
  71:D:/fchai/work/i-cube/I-CUBE-HUAWEI/Drivers/BSP/Components/hts221\hts221.c ****  */
  72:D:/fchai/work/i-cube/I-CUBE-HUAWEI/Drivers/BSP/Components/hts221\hts221.c **** 
  73:D:/fchai/work/i-cube/I-CUBE-HUAWEI/Drivers/BSP/Components/hts221\hts221.c **** static int32_t ReadRegWrap(void *Handle, uint8_t Reg, uint8_t *pData, uint16_t Length);
  74:D:/fchai/work/i-cube/I-CUBE-HUAWEI/Drivers/BSP/Components/hts221\hts221.c **** static int32_t WriteRegWrap(void *Handle, uint8_t Reg, uint8_t *pData, uint16_t Length);
  75:D:/fchai/work/i-cube/I-CUBE-HUAWEI/Drivers/BSP/Components/hts221\hts221.c **** static int32_t HTS221_GetOutputDataRate(HTS221_Object_t *pObj, float *Odr);
  76:D:/fchai/work/i-cube/I-CUBE-HUAWEI/Drivers/BSP/Components/hts221\hts221.c **** static int32_t HTS221_SetOutputDataRate(HTS221_Object_t *pObj, float Odr);
  77:D:/fchai/work/i-cube/I-CUBE-HUAWEI/Drivers/BSP/Components/hts221\hts221.c **** static int32_t HTS221_Initialize(HTS221_Object_t *pObj);
  78:D:/fchai/work/i-cube/I-CUBE-HUAWEI/Drivers/BSP/Components/hts221\hts221.c **** static float Linear_Interpolation(lin_t *Lin, float Coeff);
  79:D:/fchai/work/i-cube/I-CUBE-HUAWEI/Drivers/BSP/Components/hts221\hts221.c **** 
  80:D:/fchai/work/i-cube/I-CUBE-HUAWEI/Drivers/BSP/Components/hts221\hts221.c **** /**
  81:D:/fchai/work/i-cube/I-CUBE-HUAWEI/Drivers/BSP/Components/hts221\hts221.c ****  * @}
  82:D:/fchai/work/i-cube/I-CUBE-HUAWEI/Drivers/BSP/Components/hts221\hts221.c ****  */
  83:D:/fchai/work/i-cube/I-CUBE-HUAWEI/Drivers/BSP/Components/hts221\hts221.c **** 
  84:D:/fchai/work/i-cube/I-CUBE-HUAWEI/Drivers/BSP/Components/hts221\hts221.c **** /** @defgroup HTS221_Exported_Functions HTS221 Exported Functions
  85:D:/fchai/work/i-cube/I-CUBE-HUAWEI/Drivers/BSP/Components/hts221\hts221.c ****  * @{
ARM GAS  T:\msys\tmp\ccPPAP19.s 			page 3


  86:D:/fchai/work/i-cube/I-CUBE-HUAWEI/Drivers/BSP/Components/hts221\hts221.c ****  */
  87:D:/fchai/work/i-cube/I-CUBE-HUAWEI/Drivers/BSP/Components/hts221\hts221.c **** 
  88:D:/fchai/work/i-cube/I-CUBE-HUAWEI/Drivers/BSP/Components/hts221\hts221.c **** /**
  89:D:/fchai/work/i-cube/I-CUBE-HUAWEI/Drivers/BSP/Components/hts221\hts221.c ****  * @brief  Register Component Bus IO operations
  90:D:/fchai/work/i-cube/I-CUBE-HUAWEI/Drivers/BSP/Components/hts221\hts221.c ****  * @param  pObj the device pObj
  91:D:/fchai/work/i-cube/I-CUBE-HUAWEI/Drivers/BSP/Components/hts221\hts221.c ****  * @retval 0 in case of success, an error code otherwise
  92:D:/fchai/work/i-cube/I-CUBE-HUAWEI/Drivers/BSP/Components/hts221\hts221.c ****  */
  93:D:/fchai/work/i-cube/I-CUBE-HUAWEI/Drivers/BSP/Components/hts221\hts221.c **** int32_t HTS221_RegisterBusIO(HTS221_Object_t *pObj, HTS221_IO_t *pIO)
  94:D:/fchai/work/i-cube/I-CUBE-HUAWEI/Drivers/BSP/Components/hts221\hts221.c **** {
  95:D:/fchai/work/i-cube/I-CUBE-HUAWEI/Drivers/BSP/Components/hts221\hts221.c ****   int32_t ret;
  96:D:/fchai/work/i-cube/I-CUBE-HUAWEI/Drivers/BSP/Components/hts221\hts221.c **** 
  97:D:/fchai/work/i-cube/I-CUBE-HUAWEI/Drivers/BSP/Components/hts221\hts221.c ****   if (pObj == NULL)
  98:D:/fchai/work/i-cube/I-CUBE-HUAWEI/Drivers/BSP/Components/hts221\hts221.c ****   {
  99:D:/fchai/work/i-cube/I-CUBE-HUAWEI/Drivers/BSP/Components/hts221\hts221.c ****     ret = HTS221_ERROR;
 100:D:/fchai/work/i-cube/I-CUBE-HUAWEI/Drivers/BSP/Components/hts221\hts221.c ****   }
 101:D:/fchai/work/i-cube/I-CUBE-HUAWEI/Drivers/BSP/Components/hts221\hts221.c ****   else
 102:D:/fchai/work/i-cube/I-CUBE-HUAWEI/Drivers/BSP/Components/hts221\hts221.c ****   {
 103:D:/fchai/work/i-cube/I-CUBE-HUAWEI/Drivers/BSP/Components/hts221\hts221.c ****     pObj->IO.Init      = pIO->Init;
 104:D:/fchai/work/i-cube/I-CUBE-HUAWEI/Drivers/BSP/Components/hts221\hts221.c ****     pObj->IO.DeInit    = pIO->DeInit;
 105:D:/fchai/work/i-cube/I-CUBE-HUAWEI/Drivers/BSP/Components/hts221\hts221.c ****     pObj->IO.BusType   = pIO->BusType;
 106:D:/fchai/work/i-cube/I-CUBE-HUAWEI/Drivers/BSP/Components/hts221\hts221.c ****     pObj->IO.Address   = pIO->Address;
 107:D:/fchai/work/i-cube/I-CUBE-HUAWEI/Drivers/BSP/Components/hts221\hts221.c ****     pObj->IO.WriteReg  = pIO->WriteReg;
 108:D:/fchai/work/i-cube/I-CUBE-HUAWEI/Drivers/BSP/Components/hts221\hts221.c ****     pObj->IO.ReadReg   = pIO->ReadReg;
 109:D:/fchai/work/i-cube/I-CUBE-HUAWEI/Drivers/BSP/Components/hts221\hts221.c ****     pObj->IO.GetTick   = pIO->GetTick;
 110:D:/fchai/work/i-cube/I-CUBE-HUAWEI/Drivers/BSP/Components/hts221\hts221.c **** 
 111:D:/fchai/work/i-cube/I-CUBE-HUAWEI/Drivers/BSP/Components/hts221\hts221.c ****     pObj->Ctx.read_reg  = ReadRegWrap;
 112:D:/fchai/work/i-cube/I-CUBE-HUAWEI/Drivers/BSP/Components/hts221\hts221.c ****     pObj->Ctx.write_reg = WriteRegWrap;
 113:D:/fchai/work/i-cube/I-CUBE-HUAWEI/Drivers/BSP/Components/hts221\hts221.c ****     pObj->Ctx.handle   = pObj;
 114:D:/fchai/work/i-cube/I-CUBE-HUAWEI/Drivers/BSP/Components/hts221\hts221.c **** 
 115:D:/fchai/work/i-cube/I-CUBE-HUAWEI/Drivers/BSP/Components/hts221\hts221.c ****     if (pObj->IO.Init != NULL)
 116:D:/fchai/work/i-cube/I-CUBE-HUAWEI/Drivers/BSP/Components/hts221\hts221.c ****     {
 117:D:/fchai/work/i-cube/I-CUBE-HUAWEI/Drivers/BSP/Components/hts221\hts221.c ****       ret = pObj->IO.Init();
 118:D:/fchai/work/i-cube/I-CUBE-HUAWEI/Drivers/BSP/Components/hts221\hts221.c ****     }
 119:D:/fchai/work/i-cube/I-CUBE-HUAWEI/Drivers/BSP/Components/hts221\hts221.c ****     else
 120:D:/fchai/work/i-cube/I-CUBE-HUAWEI/Drivers/BSP/Components/hts221\hts221.c ****     {
 121:D:/fchai/work/i-cube/I-CUBE-HUAWEI/Drivers/BSP/Components/hts221\hts221.c ****       ret = HTS221_ERROR;
 122:D:/fchai/work/i-cube/I-CUBE-HUAWEI/Drivers/BSP/Components/hts221\hts221.c ****     }
 123:D:/fchai/work/i-cube/I-CUBE-HUAWEI/Drivers/BSP/Components/hts221\hts221.c ****   }
 124:D:/fchai/work/i-cube/I-CUBE-HUAWEI/Drivers/BSP/Components/hts221\hts221.c **** 
 125:D:/fchai/work/i-cube/I-CUBE-HUAWEI/Drivers/BSP/Components/hts221\hts221.c ****   return ret;
 126:D:/fchai/work/i-cube/I-CUBE-HUAWEI/Drivers/BSP/Components/hts221\hts221.c **** }
 127:D:/fchai/work/i-cube/I-CUBE-HUAWEI/Drivers/BSP/Components/hts221\hts221.c **** 
 128:D:/fchai/work/i-cube/I-CUBE-HUAWEI/Drivers/BSP/Components/hts221\hts221.c **** /**
 129:D:/fchai/work/i-cube/I-CUBE-HUAWEI/Drivers/BSP/Components/hts221\hts221.c ****  * @brief  Initialize the HTS221 sensor
 130:D:/fchai/work/i-cube/I-CUBE-HUAWEI/Drivers/BSP/Components/hts221\hts221.c ****  * @param  pObj the device pObj
 131:D:/fchai/work/i-cube/I-CUBE-HUAWEI/Drivers/BSP/Components/hts221\hts221.c ****  * @retval 0 in case of success, an error code otherwise
 132:D:/fchai/work/i-cube/I-CUBE-HUAWEI/Drivers/BSP/Components/hts221\hts221.c ****  */
 133:D:/fchai/work/i-cube/I-CUBE-HUAWEI/Drivers/BSP/Components/hts221\hts221.c **** int32_t HTS221_Init(HTS221_Object_t *pObj)
 134:D:/fchai/work/i-cube/I-CUBE-HUAWEI/Drivers/BSP/Components/hts221\hts221.c **** {
 135:D:/fchai/work/i-cube/I-CUBE-HUAWEI/Drivers/BSP/Components/hts221\hts221.c ****   if (pObj->is_initialized == 0U)
 136:D:/fchai/work/i-cube/I-CUBE-HUAWEI/Drivers/BSP/Components/hts221\hts221.c ****   {
 137:D:/fchai/work/i-cube/I-CUBE-HUAWEI/Drivers/BSP/Components/hts221\hts221.c ****     if (HTS221_Initialize(pObj) != HTS221_OK)
 138:D:/fchai/work/i-cube/I-CUBE-HUAWEI/Drivers/BSP/Components/hts221\hts221.c ****     {
 139:D:/fchai/work/i-cube/I-CUBE-HUAWEI/Drivers/BSP/Components/hts221\hts221.c ****       return HTS221_ERROR;
 140:D:/fchai/work/i-cube/I-CUBE-HUAWEI/Drivers/BSP/Components/hts221\hts221.c ****     }
 141:D:/fchai/work/i-cube/I-CUBE-HUAWEI/Drivers/BSP/Components/hts221\hts221.c ****   }
 142:D:/fchai/work/i-cube/I-CUBE-HUAWEI/Drivers/BSP/Components/hts221\hts221.c **** 
ARM GAS  T:\msys\tmp\ccPPAP19.s 			page 4


 143:D:/fchai/work/i-cube/I-CUBE-HUAWEI/Drivers/BSP/Components/hts221\hts221.c ****   pObj->is_initialized = 1;
 144:D:/fchai/work/i-cube/I-CUBE-HUAWEI/Drivers/BSP/Components/hts221\hts221.c **** 
 145:D:/fchai/work/i-cube/I-CUBE-HUAWEI/Drivers/BSP/Components/hts221\hts221.c ****   return HTS221_OK;
 146:D:/fchai/work/i-cube/I-CUBE-HUAWEI/Drivers/BSP/Components/hts221\hts221.c **** }
 147:D:/fchai/work/i-cube/I-CUBE-HUAWEI/Drivers/BSP/Components/hts221\hts221.c **** 
 148:D:/fchai/work/i-cube/I-CUBE-HUAWEI/Drivers/BSP/Components/hts221\hts221.c **** /**
 149:D:/fchai/work/i-cube/I-CUBE-HUAWEI/Drivers/BSP/Components/hts221\hts221.c ****  * @brief  Deinitialize the HTS221 sensor
 150:D:/fchai/work/i-cube/I-CUBE-HUAWEI/Drivers/BSP/Components/hts221\hts221.c ****  * @param  pObj the device pObj
 151:D:/fchai/work/i-cube/I-CUBE-HUAWEI/Drivers/BSP/Components/hts221\hts221.c ****  * @retval 0 in case of success, an error code otherwise
 152:D:/fchai/work/i-cube/I-CUBE-HUAWEI/Drivers/BSP/Components/hts221\hts221.c ****  */
 153:D:/fchai/work/i-cube/I-CUBE-HUAWEI/Drivers/BSP/Components/hts221\hts221.c **** int32_t HTS221_DeInit(HTS221_Object_t *pObj)
 154:D:/fchai/work/i-cube/I-CUBE-HUAWEI/Drivers/BSP/Components/hts221\hts221.c **** {
 155:D:/fchai/work/i-cube/I-CUBE-HUAWEI/Drivers/BSP/Components/hts221\hts221.c ****   if (pObj->is_initialized == 1U)
 156:D:/fchai/work/i-cube/I-CUBE-HUAWEI/Drivers/BSP/Components/hts221\hts221.c ****   {
 157:D:/fchai/work/i-cube/I-CUBE-HUAWEI/Drivers/BSP/Components/hts221\hts221.c ****     if (HTS221_HUM_Disable(pObj) != HTS221_OK)
 158:D:/fchai/work/i-cube/I-CUBE-HUAWEI/Drivers/BSP/Components/hts221\hts221.c ****     {
 159:D:/fchai/work/i-cube/I-CUBE-HUAWEI/Drivers/BSP/Components/hts221\hts221.c ****       return HTS221_ERROR;
 160:D:/fchai/work/i-cube/I-CUBE-HUAWEI/Drivers/BSP/Components/hts221\hts221.c ****     }
 161:D:/fchai/work/i-cube/I-CUBE-HUAWEI/Drivers/BSP/Components/hts221\hts221.c **** 
 162:D:/fchai/work/i-cube/I-CUBE-HUAWEI/Drivers/BSP/Components/hts221\hts221.c ****     if (HTS221_TEMP_Disable(pObj) != HTS221_OK)
 163:D:/fchai/work/i-cube/I-CUBE-HUAWEI/Drivers/BSP/Components/hts221\hts221.c ****     {
 164:D:/fchai/work/i-cube/I-CUBE-HUAWEI/Drivers/BSP/Components/hts221\hts221.c ****       return HTS221_ERROR;
 165:D:/fchai/work/i-cube/I-CUBE-HUAWEI/Drivers/BSP/Components/hts221\hts221.c ****     }
 166:D:/fchai/work/i-cube/I-CUBE-HUAWEI/Drivers/BSP/Components/hts221\hts221.c ****   }
 167:D:/fchai/work/i-cube/I-CUBE-HUAWEI/Drivers/BSP/Components/hts221\hts221.c **** 
 168:D:/fchai/work/i-cube/I-CUBE-HUAWEI/Drivers/BSP/Components/hts221\hts221.c ****   pObj->is_initialized = 0;
 169:D:/fchai/work/i-cube/I-CUBE-HUAWEI/Drivers/BSP/Components/hts221\hts221.c **** 
 170:D:/fchai/work/i-cube/I-CUBE-HUAWEI/Drivers/BSP/Components/hts221\hts221.c ****   return HTS221_OK;
 171:D:/fchai/work/i-cube/I-CUBE-HUAWEI/Drivers/BSP/Components/hts221\hts221.c **** }
 172:D:/fchai/work/i-cube/I-CUBE-HUAWEI/Drivers/BSP/Components/hts221\hts221.c **** 
 173:D:/fchai/work/i-cube/I-CUBE-HUAWEI/Drivers/BSP/Components/hts221\hts221.c **** /**
 174:D:/fchai/work/i-cube/I-CUBE-HUAWEI/Drivers/BSP/Components/hts221\hts221.c ****  * @brief  Get WHO_AM_I value
 175:D:/fchai/work/i-cube/I-CUBE-HUAWEI/Drivers/BSP/Components/hts221\hts221.c ****  * @param  pObj the device pObj
 176:D:/fchai/work/i-cube/I-CUBE-HUAWEI/Drivers/BSP/Components/hts221\hts221.c ****  * @param  Id the WHO_AM_I value
 177:D:/fchai/work/i-cube/I-CUBE-HUAWEI/Drivers/BSP/Components/hts221\hts221.c ****  * @retval 0 in case of success, an error code otherwise
 178:D:/fchai/work/i-cube/I-CUBE-HUAWEI/Drivers/BSP/Components/hts221\hts221.c ****  */
 179:D:/fchai/work/i-cube/I-CUBE-HUAWEI/Drivers/BSP/Components/hts221\hts221.c **** int32_t HTS221_ReadID(HTS221_Object_t *pObj, uint8_t *Id)
 180:D:/fchai/work/i-cube/I-CUBE-HUAWEI/Drivers/BSP/Components/hts221\hts221.c **** {
 181:D:/fchai/work/i-cube/I-CUBE-HUAWEI/Drivers/BSP/Components/hts221\hts221.c ****   if (hts221_device_id_get(&(pObj->Ctx), Id) != HTS221_OK)
 182:D:/fchai/work/i-cube/I-CUBE-HUAWEI/Drivers/BSP/Components/hts221\hts221.c ****   {
 183:D:/fchai/work/i-cube/I-CUBE-HUAWEI/Drivers/BSP/Components/hts221\hts221.c ****     return HTS221_ERROR;
 184:D:/fchai/work/i-cube/I-CUBE-HUAWEI/Drivers/BSP/Components/hts221\hts221.c ****   }
 185:D:/fchai/work/i-cube/I-CUBE-HUAWEI/Drivers/BSP/Components/hts221\hts221.c **** 
 186:D:/fchai/work/i-cube/I-CUBE-HUAWEI/Drivers/BSP/Components/hts221\hts221.c ****   return HTS221_OK;
 187:D:/fchai/work/i-cube/I-CUBE-HUAWEI/Drivers/BSP/Components/hts221\hts221.c **** }
 188:D:/fchai/work/i-cube/I-CUBE-HUAWEI/Drivers/BSP/Components/hts221\hts221.c **** 
 189:D:/fchai/work/i-cube/I-CUBE-HUAWEI/Drivers/BSP/Components/hts221\hts221.c **** /**
 190:D:/fchai/work/i-cube/I-CUBE-HUAWEI/Drivers/BSP/Components/hts221\hts221.c ****  * @brief  Get HTS221 sensor capabilities
 191:D:/fchai/work/i-cube/I-CUBE-HUAWEI/Drivers/BSP/Components/hts221\hts221.c ****  * @param  pObj Component object pointer
 192:D:/fchai/work/i-cube/I-CUBE-HUAWEI/Drivers/BSP/Components/hts221\hts221.c ****  * @param  Capabilities pointer to HTS221 sensor capabilities
 193:D:/fchai/work/i-cube/I-CUBE-HUAWEI/Drivers/BSP/Components/hts221\hts221.c ****  * @retval 0 in case of success, an error code otherwise
 194:D:/fchai/work/i-cube/I-CUBE-HUAWEI/Drivers/BSP/Components/hts221\hts221.c ****  */
 195:D:/fchai/work/i-cube/I-CUBE-HUAWEI/Drivers/BSP/Components/hts221\hts221.c **** int32_t HTS221_GetCapabilities(HTS221_Object_t *pObj, HTS221_Capabilities_t *Capabilities)
 196:D:/fchai/work/i-cube/I-CUBE-HUAWEI/Drivers/BSP/Components/hts221\hts221.c **** {
  31              		.loc 1 196 1 view -0
  32              		.cfi_startproc
  33              		@ args = 0, pretend = 0, frame = 0
ARM GAS  T:\msys\tmp\ccPPAP19.s 			page 5


  34              		@ frame_needed = 0, uses_anonymous_args = 0
  35              		@ link register save eliminated.
 197:D:/fchai/work/i-cube/I-CUBE-HUAWEI/Drivers/BSP/Components/hts221\hts221.c ****   /* Prevent unused argument(s) compilation warning */
 198:D:/fchai/work/i-cube/I-CUBE-HUAWEI/Drivers/BSP/Components/hts221\hts221.c ****   (void)(pObj);
  36              		.loc 1 198 3 view .LVU1
 199:D:/fchai/work/i-cube/I-CUBE-HUAWEI/Drivers/BSP/Components/hts221\hts221.c **** 
 200:D:/fchai/work/i-cube/I-CUBE-HUAWEI/Drivers/BSP/Components/hts221\hts221.c ****   Capabilities->Humidity    = 1;
  37              		.loc 1 200 3 view .LVU2
 201:D:/fchai/work/i-cube/I-CUBE-HUAWEI/Drivers/BSP/Components/hts221\hts221.c ****   Capabilities->Pressure    = 0;
  38              		.loc 1 201 3 view .LVU3
 202:D:/fchai/work/i-cube/I-CUBE-HUAWEI/Drivers/BSP/Components/hts221\hts221.c ****   Capabilities->Temperature = 1;
  39              		.loc 1 202 3 view .LVU4
 203:D:/fchai/work/i-cube/I-CUBE-HUAWEI/Drivers/BSP/Components/hts221\hts221.c ****   Capabilities->LowPower    = 0;
  40              		.loc 1 203 3 view .LVU5
 204:D:/fchai/work/i-cube/I-CUBE-HUAWEI/Drivers/BSP/Components/hts221\hts221.c ****   Capabilities->HumMaxOdr   = 12.5f;
  41              		.loc 1 204 3 view .LVU6
 205:D:/fchai/work/i-cube/I-CUBE-HUAWEI/Drivers/BSP/Components/hts221\hts221.c ****   Capabilities->TempMaxOdr  = 12.5f;
  42              		.loc 1 205 3 view .LVU7
 206:D:/fchai/work/i-cube/I-CUBE-HUAWEI/Drivers/BSP/Components/hts221\hts221.c ****   Capabilities->PressMaxOdr = 0.0f;
  43              		.loc 1 206 3 view .LVU8
 204:D:/fchai/work/i-cube/I-CUBE-HUAWEI/Drivers/BSP/Components/hts221\hts221.c ****   Capabilities->HumMaxOdr   = 12.5f;
  44              		.loc 1 204 29 is_stmt 0 view .LVU9
  45 0000 044B     		ldr	r3, .L3
  46 0002 4B60     		str	r3, [r1, #4]	@ float
  47              		.loc 1 206 29 view .LVU10
  48 0004 0022     		movs	r2, #0
 202:D:/fchai/work/i-cube/I-CUBE-HUAWEI/Drivers/BSP/Components/hts221\hts221.c ****   Capabilities->LowPower    = 0;
  49              		.loc 1 202 29 view .LVU11
  50 0006 4FF00110 		mov	r0, #65537
  51              	.LVL1:
 202:D:/fchai/work/i-cube/I-CUBE-HUAWEI/Drivers/BSP/Components/hts221\hts221.c ****   Capabilities->LowPower    = 0;
  52              		.loc 1 202 29 view .LVU12
  53 000a 0860     		str	r0, [r1]
  54              		.loc 1 206 29 view .LVU13
  55 000c CA60     		str	r2, [r1, #12]	@ float
 207:D:/fchai/work/i-cube/I-CUBE-HUAWEI/Drivers/BSP/Components/hts221\hts221.c ****   return HTS221_OK;
  56              		.loc 1 207 3 is_stmt 1 view .LVU14
 205:D:/fchai/work/i-cube/I-CUBE-HUAWEI/Drivers/BSP/Components/hts221\hts221.c ****   Capabilities->PressMaxOdr = 0.0f;
  57              		.loc 1 205 29 is_stmt 0 view .LVU15
  58 000e 8B60     		str	r3, [r1, #8]	@ float
 208:D:/fchai/work/i-cube/I-CUBE-HUAWEI/Drivers/BSP/Components/hts221\hts221.c **** }
  59              		.loc 1 208 1 view .LVU16
  60 0010 0020     		movs	r0, #0
  61 0012 7047     		bx	lr
  62              	.L4:
  63              		.align	2
  64              	.L3:
  65 0014 00004841 		.word	1095237632
  66              		.cfi_endproc
  67              	.LFE4:
  69              		.section	.text.HTS221_HUM_Enable,"ax",%progbits
  70              		.align	1
  71              		.p2align 2,,3
  72              		.global	HTS221_HUM_Enable
  73              		.syntax unified
  74              		.thumb
  75              		.thumb_func
ARM GAS  T:\msys\tmp\ccPPAP19.s 			page 6


  76              		.fpu fpv4-sp-d16
  78              	HTS221_HUM_Enable:
  79              	.LVL2:
  80              	.LFB6:
 209:D:/fchai/work/i-cube/I-CUBE-HUAWEI/Drivers/BSP/Components/hts221\hts221.c **** 
 210:D:/fchai/work/i-cube/I-CUBE-HUAWEI/Drivers/BSP/Components/hts221\hts221.c **** /**
 211:D:/fchai/work/i-cube/I-CUBE-HUAWEI/Drivers/BSP/Components/hts221\hts221.c ****  * @brief  Get the HTS221 initialization status
 212:D:/fchai/work/i-cube/I-CUBE-HUAWEI/Drivers/BSP/Components/hts221\hts221.c ****  * @param  pObj the device pObj
 213:D:/fchai/work/i-cube/I-CUBE-HUAWEI/Drivers/BSP/Components/hts221\hts221.c ****  * @param  Status 1 if initialized, 0 otherwise
 214:D:/fchai/work/i-cube/I-CUBE-HUAWEI/Drivers/BSP/Components/hts221\hts221.c ****  * @retval 0 in case of success, an error code otherwise
 215:D:/fchai/work/i-cube/I-CUBE-HUAWEI/Drivers/BSP/Components/hts221\hts221.c ****  */
 216:D:/fchai/work/i-cube/I-CUBE-HUAWEI/Drivers/BSP/Components/hts221\hts221.c **** int32_t HTS221_Get_Init_Status(HTS221_Object_t *pObj, uint8_t *Status)
 217:D:/fchai/work/i-cube/I-CUBE-HUAWEI/Drivers/BSP/Components/hts221\hts221.c **** {
 218:D:/fchai/work/i-cube/I-CUBE-HUAWEI/Drivers/BSP/Components/hts221\hts221.c ****   if (pObj == NULL)
 219:D:/fchai/work/i-cube/I-CUBE-HUAWEI/Drivers/BSP/Components/hts221\hts221.c ****   {
 220:D:/fchai/work/i-cube/I-CUBE-HUAWEI/Drivers/BSP/Components/hts221\hts221.c ****     return HTS221_ERROR;
 221:D:/fchai/work/i-cube/I-CUBE-HUAWEI/Drivers/BSP/Components/hts221\hts221.c ****   }
 222:D:/fchai/work/i-cube/I-CUBE-HUAWEI/Drivers/BSP/Components/hts221\hts221.c **** 
 223:D:/fchai/work/i-cube/I-CUBE-HUAWEI/Drivers/BSP/Components/hts221\hts221.c ****   *Status = pObj->is_initialized;
 224:D:/fchai/work/i-cube/I-CUBE-HUAWEI/Drivers/BSP/Components/hts221\hts221.c **** 
 225:D:/fchai/work/i-cube/I-CUBE-HUAWEI/Drivers/BSP/Components/hts221\hts221.c ****   return HTS221_OK;
 226:D:/fchai/work/i-cube/I-CUBE-HUAWEI/Drivers/BSP/Components/hts221\hts221.c **** }
 227:D:/fchai/work/i-cube/I-CUBE-HUAWEI/Drivers/BSP/Components/hts221\hts221.c **** 
 228:D:/fchai/work/i-cube/I-CUBE-HUAWEI/Drivers/BSP/Components/hts221\hts221.c **** /**
 229:D:/fchai/work/i-cube/I-CUBE-HUAWEI/Drivers/BSP/Components/hts221\hts221.c ****  * @brief  Enable the HTS221 humidity sensor
 230:D:/fchai/work/i-cube/I-CUBE-HUAWEI/Drivers/BSP/Components/hts221\hts221.c ****  * @param  pObj the device pObj
 231:D:/fchai/work/i-cube/I-CUBE-HUAWEI/Drivers/BSP/Components/hts221\hts221.c ****  * @retval 0 in case of success, an error code otherwise
 232:D:/fchai/work/i-cube/I-CUBE-HUAWEI/Drivers/BSP/Components/hts221\hts221.c ****  */
 233:D:/fchai/work/i-cube/I-CUBE-HUAWEI/Drivers/BSP/Components/hts221\hts221.c **** int32_t HTS221_HUM_Enable(HTS221_Object_t *pObj)
 234:D:/fchai/work/i-cube/I-CUBE-HUAWEI/Drivers/BSP/Components/hts221\hts221.c **** {
  81              		.loc 1 234 1 is_stmt 1 view -0
  82              		.cfi_startproc
  83              		@ args = 0, pretend = 0, frame = 0
  84              		@ frame_needed = 0, uses_anonymous_args = 0
 235:D:/fchai/work/i-cube/I-CUBE-HUAWEI/Drivers/BSP/Components/hts221\hts221.c ****   /* Check if the component is already enabled */
 236:D:/fchai/work/i-cube/I-CUBE-HUAWEI/Drivers/BSP/Components/hts221\hts221.c ****   if (pObj->hum_is_enabled == 1U)
  85              		.loc 1 236 3 view .LVU18
  86              		.loc 1 236 6 is_stmt 0 view .LVU19
  87 0000 90F82930 		ldrb	r3, [r0, #41]	@ zero_extendqisi2
  88 0004 012B     		cmp	r3, #1
  89 0006 12D0     		beq	.L9
 237:D:/fchai/work/i-cube/I-CUBE-HUAWEI/Drivers/BSP/Components/hts221\hts221.c ****   {
 238:D:/fchai/work/i-cube/I-CUBE-HUAWEI/Drivers/BSP/Components/hts221\hts221.c ****     return HTS221_OK;
 239:D:/fchai/work/i-cube/I-CUBE-HUAWEI/Drivers/BSP/Components/hts221\hts221.c ****   }
 240:D:/fchai/work/i-cube/I-CUBE-HUAWEI/Drivers/BSP/Components/hts221\hts221.c **** 
 241:D:/fchai/work/i-cube/I-CUBE-HUAWEI/Drivers/BSP/Components/hts221\hts221.c ****   /* Check if the HTS221 temperature sensor is already enabled. */
 242:D:/fchai/work/i-cube/I-CUBE-HUAWEI/Drivers/BSP/Components/hts221\hts221.c ****   /* If yes, skip the enable function, if not call enable function */
 243:D:/fchai/work/i-cube/I-CUBE-HUAWEI/Drivers/BSP/Components/hts221\hts221.c ****   if (pObj->temp_is_enabled == 0U)
  90              		.loc 1 243 3 is_stmt 1 view .LVU20
 234:D:/fchai/work/i-cube/I-CUBE-HUAWEI/Drivers/BSP/Components/hts221\hts221.c ****   /* Check if the component is already enabled */
  91              		.loc 1 234 1 is_stmt 0 view .LVU21
  92 0008 10B5     		push	{r4, lr}
  93              	.LCFI0:
  94              		.cfi_def_cfa_offset 8
  95              		.cfi_offset 4, -8
  96              		.cfi_offset 14, -4
  97              		.loc 1 243 6 view .LVU22
ARM GAS  T:\msys\tmp\ccPPAP19.s 			page 7


  98 000a 90F82A30 		ldrb	r3, [r0, #42]	@ zero_extendqisi2
  99 000e 0446     		mov	r4, r0
 100 0010 23B1     		cbz	r3, .L7
 101              	.LVL3:
 102              	.L8:
 244:D:/fchai/work/i-cube/I-CUBE-HUAWEI/Drivers/BSP/Components/hts221\hts221.c ****   {
 245:D:/fchai/work/i-cube/I-CUBE-HUAWEI/Drivers/BSP/Components/hts221\hts221.c ****     /* Power on the component. */
 246:D:/fchai/work/i-cube/I-CUBE-HUAWEI/Drivers/BSP/Components/hts221\hts221.c ****     if (hts221_power_on_set(&(pObj->Ctx), PROPERTY_ENABLE) != HTS221_OK)
 247:D:/fchai/work/i-cube/I-CUBE-HUAWEI/Drivers/BSP/Components/hts221\hts221.c ****     {
 248:D:/fchai/work/i-cube/I-CUBE-HUAWEI/Drivers/BSP/Components/hts221\hts221.c ****       return HTS221_ERROR;
 249:D:/fchai/work/i-cube/I-CUBE-HUAWEI/Drivers/BSP/Components/hts221\hts221.c ****     }
 250:D:/fchai/work/i-cube/I-CUBE-HUAWEI/Drivers/BSP/Components/hts221\hts221.c ****   }
 251:D:/fchai/work/i-cube/I-CUBE-HUAWEI/Drivers/BSP/Components/hts221\hts221.c **** 
 252:D:/fchai/work/i-cube/I-CUBE-HUAWEI/Drivers/BSP/Components/hts221\hts221.c ****   pObj->hum_is_enabled = 1;
 103              		.loc 1 252 3 is_stmt 1 view .LVU23
 104              		.loc 1 252 24 is_stmt 0 view .LVU24
 105 0012 0123     		movs	r3, #1
 106 0014 84F82930 		strb	r3, [r4, #41]
 253:D:/fchai/work/i-cube/I-CUBE-HUAWEI/Drivers/BSP/Components/hts221\hts221.c **** 
 254:D:/fchai/work/i-cube/I-CUBE-HUAWEI/Drivers/BSP/Components/hts221\hts221.c ****   return HTS221_OK;
 107              		.loc 1 254 3 is_stmt 1 view .LVU25
 108              		.loc 1 254 10 is_stmt 0 view .LVU26
 109 0018 0020     		movs	r0, #0
 255:D:/fchai/work/i-cube/I-CUBE-HUAWEI/Drivers/BSP/Components/hts221\hts221.c **** }
 110              		.loc 1 255 1 view .LVU27
 111 001a 10BD     		pop	{r4, pc}
 112              	.LVL4:
 113              	.L7:
 246:D:/fchai/work/i-cube/I-CUBE-HUAWEI/Drivers/BSP/Components/hts221\hts221.c ****     {
 114              		.loc 1 246 5 is_stmt 1 view .LVU28
 246:D:/fchai/work/i-cube/I-CUBE-HUAWEI/Drivers/BSP/Components/hts221\hts221.c ****     {
 115              		.loc 1 246 9 is_stmt 0 view .LVU29
 116 001c 0121     		movs	r1, #1
 117 001e 1C30     		adds	r0, r0, #28
 118              	.LVL5:
 246:D:/fchai/work/i-cube/I-CUBE-HUAWEI/Drivers/BSP/Components/hts221\hts221.c ****     {
 119              		.loc 1 246 9 view .LVU30
 120 0020 FFF7FEFF 		bl	hts221_power_on_set
 121              	.LVL6:
 246:D:/fchai/work/i-cube/I-CUBE-HUAWEI/Drivers/BSP/Components/hts221\hts221.c ****     {
 122              		.loc 1 246 8 view .LVU31
 123 0024 0028     		cmp	r0, #0
 124 0026 F4D0     		beq	.L8
 248:D:/fchai/work/i-cube/I-CUBE-HUAWEI/Drivers/BSP/Components/hts221\hts221.c ****     }
 125              		.loc 1 248 14 view .LVU32
 126 0028 4FF0FF30 		mov	r0, #-1
 127              		.loc 1 255 1 view .LVU33
 128 002c 10BD     		pop	{r4, pc}
 129              	.LVL7:
 130              	.L9:
 131              	.LCFI1:
 132              		.cfi_def_cfa_offset 0
 133              		.cfi_restore 4
 134              		.cfi_restore 14
 238:D:/fchai/work/i-cube/I-CUBE-HUAWEI/Drivers/BSP/Components/hts221\hts221.c ****   }
 135              		.loc 1 238 12 view .LVU34
 136 002e 0020     		movs	r0, #0
ARM GAS  T:\msys\tmp\ccPPAP19.s 			page 8


 137              	.LVL8:
 138              		.loc 1 255 1 view .LVU35
 139 0030 7047     		bx	lr
 140              		.cfi_endproc
 141              	.LFE6:
 143 0032 00BF     		.section	.text.HTS221_TEMP_Enable,"ax",%progbits
 144              		.align	1
 145              		.p2align 2,,3
 146              		.global	HTS221_TEMP_Enable
 147              		.syntax unified
 148              		.thumb
 149              		.thumb_func
 150              		.fpu fpv4-sp-d16
 152              	HTS221_TEMP_Enable:
 153              	.LVL9:
 154              	.LFB12:
 256:D:/fchai/work/i-cube/I-CUBE-HUAWEI/Drivers/BSP/Components/hts221\hts221.c **** 
 257:D:/fchai/work/i-cube/I-CUBE-HUAWEI/Drivers/BSP/Components/hts221\hts221.c **** /**
 258:D:/fchai/work/i-cube/I-CUBE-HUAWEI/Drivers/BSP/Components/hts221\hts221.c ****  * @brief  Disable the HTS221 humidity sensor
 259:D:/fchai/work/i-cube/I-CUBE-HUAWEI/Drivers/BSP/Components/hts221\hts221.c ****  * @param  pObj the device pObj
 260:D:/fchai/work/i-cube/I-CUBE-HUAWEI/Drivers/BSP/Components/hts221\hts221.c ****  * @retval 0 in case of success, an error code otherwise
 261:D:/fchai/work/i-cube/I-CUBE-HUAWEI/Drivers/BSP/Components/hts221\hts221.c ****  */
 262:D:/fchai/work/i-cube/I-CUBE-HUAWEI/Drivers/BSP/Components/hts221\hts221.c **** int32_t HTS221_HUM_Disable(HTS221_Object_t *pObj)
 263:D:/fchai/work/i-cube/I-CUBE-HUAWEI/Drivers/BSP/Components/hts221\hts221.c **** {
 264:D:/fchai/work/i-cube/I-CUBE-HUAWEI/Drivers/BSP/Components/hts221\hts221.c ****   /* Check if the component is already disabled */
 265:D:/fchai/work/i-cube/I-CUBE-HUAWEI/Drivers/BSP/Components/hts221\hts221.c ****   if (pObj->hum_is_enabled == 0U)
 266:D:/fchai/work/i-cube/I-CUBE-HUAWEI/Drivers/BSP/Components/hts221\hts221.c ****   {
 267:D:/fchai/work/i-cube/I-CUBE-HUAWEI/Drivers/BSP/Components/hts221\hts221.c ****     return HTS221_OK;
 268:D:/fchai/work/i-cube/I-CUBE-HUAWEI/Drivers/BSP/Components/hts221\hts221.c ****   }
 269:D:/fchai/work/i-cube/I-CUBE-HUAWEI/Drivers/BSP/Components/hts221\hts221.c **** 
 270:D:/fchai/work/i-cube/I-CUBE-HUAWEI/Drivers/BSP/Components/hts221\hts221.c ****   /* Check if the HTS221 temperature sensor is still enable. */
 271:D:/fchai/work/i-cube/I-CUBE-HUAWEI/Drivers/BSP/Components/hts221\hts221.c ****   /* If yes, skip the disable function, if not call disable function */
 272:D:/fchai/work/i-cube/I-CUBE-HUAWEI/Drivers/BSP/Components/hts221\hts221.c ****   if (pObj->temp_is_enabled == 0U)
 273:D:/fchai/work/i-cube/I-CUBE-HUAWEI/Drivers/BSP/Components/hts221\hts221.c ****   {
 274:D:/fchai/work/i-cube/I-CUBE-HUAWEI/Drivers/BSP/Components/hts221\hts221.c ****     /* Power off the component. */
 275:D:/fchai/work/i-cube/I-CUBE-HUAWEI/Drivers/BSP/Components/hts221\hts221.c ****     if (hts221_power_on_set(&(pObj->Ctx), PROPERTY_DISABLE) != HTS221_OK)
 276:D:/fchai/work/i-cube/I-CUBE-HUAWEI/Drivers/BSP/Components/hts221\hts221.c ****     {
 277:D:/fchai/work/i-cube/I-CUBE-HUAWEI/Drivers/BSP/Components/hts221\hts221.c ****       return HTS221_ERROR;
 278:D:/fchai/work/i-cube/I-CUBE-HUAWEI/Drivers/BSP/Components/hts221\hts221.c ****     }
 279:D:/fchai/work/i-cube/I-CUBE-HUAWEI/Drivers/BSP/Components/hts221\hts221.c ****   }
 280:D:/fchai/work/i-cube/I-CUBE-HUAWEI/Drivers/BSP/Components/hts221\hts221.c **** 
 281:D:/fchai/work/i-cube/I-CUBE-HUAWEI/Drivers/BSP/Components/hts221\hts221.c ****   pObj->hum_is_enabled = 0;
 282:D:/fchai/work/i-cube/I-CUBE-HUAWEI/Drivers/BSP/Components/hts221\hts221.c **** 
 283:D:/fchai/work/i-cube/I-CUBE-HUAWEI/Drivers/BSP/Components/hts221\hts221.c ****   return HTS221_OK;
 284:D:/fchai/work/i-cube/I-CUBE-HUAWEI/Drivers/BSP/Components/hts221\hts221.c **** }
 285:D:/fchai/work/i-cube/I-CUBE-HUAWEI/Drivers/BSP/Components/hts221\hts221.c **** 
 286:D:/fchai/work/i-cube/I-CUBE-HUAWEI/Drivers/BSP/Components/hts221\hts221.c **** /**
 287:D:/fchai/work/i-cube/I-CUBE-HUAWEI/Drivers/BSP/Components/hts221\hts221.c ****  * @brief  Get the HTS221 humidity sensor output data rate
 288:D:/fchai/work/i-cube/I-CUBE-HUAWEI/Drivers/BSP/Components/hts221\hts221.c ****  * @param  pObj the device pObj
 289:D:/fchai/work/i-cube/I-CUBE-HUAWEI/Drivers/BSP/Components/hts221\hts221.c ****  * @param  Odr pointer where the output data rate is written
 290:D:/fchai/work/i-cube/I-CUBE-HUAWEI/Drivers/BSP/Components/hts221\hts221.c ****  * @retval 0 in case of success, an error code otherwise
 291:D:/fchai/work/i-cube/I-CUBE-HUAWEI/Drivers/BSP/Components/hts221\hts221.c ****  */
 292:D:/fchai/work/i-cube/I-CUBE-HUAWEI/Drivers/BSP/Components/hts221\hts221.c **** int32_t HTS221_HUM_GetOutputDataRate(HTS221_Object_t *pObj, float *Odr)
 293:D:/fchai/work/i-cube/I-CUBE-HUAWEI/Drivers/BSP/Components/hts221\hts221.c **** {
 294:D:/fchai/work/i-cube/I-CUBE-HUAWEI/Drivers/BSP/Components/hts221\hts221.c ****   return HTS221_GetOutputDataRate(pObj, Odr);
 295:D:/fchai/work/i-cube/I-CUBE-HUAWEI/Drivers/BSP/Components/hts221\hts221.c **** }
 296:D:/fchai/work/i-cube/I-CUBE-HUAWEI/Drivers/BSP/Components/hts221\hts221.c **** 
ARM GAS  T:\msys\tmp\ccPPAP19.s 			page 9


 297:D:/fchai/work/i-cube/I-CUBE-HUAWEI/Drivers/BSP/Components/hts221\hts221.c **** /**
 298:D:/fchai/work/i-cube/I-CUBE-HUAWEI/Drivers/BSP/Components/hts221\hts221.c ****  * @brief  Set the HTS221 humidity sensor output data rate
 299:D:/fchai/work/i-cube/I-CUBE-HUAWEI/Drivers/BSP/Components/hts221\hts221.c ****  * @param  pObj the device pObj
 300:D:/fchai/work/i-cube/I-CUBE-HUAWEI/Drivers/BSP/Components/hts221\hts221.c ****  * @param  Odr the output data rate value to be set
 301:D:/fchai/work/i-cube/I-CUBE-HUAWEI/Drivers/BSP/Components/hts221\hts221.c ****  * @retval 0 in case of success, an error code otherwise
 302:D:/fchai/work/i-cube/I-CUBE-HUAWEI/Drivers/BSP/Components/hts221\hts221.c ****  */
 303:D:/fchai/work/i-cube/I-CUBE-HUAWEI/Drivers/BSP/Components/hts221\hts221.c **** int32_t HTS221_HUM_SetOutputDataRate(HTS221_Object_t *pObj, float Odr)
 304:D:/fchai/work/i-cube/I-CUBE-HUAWEI/Drivers/BSP/Components/hts221\hts221.c **** {
 305:D:/fchai/work/i-cube/I-CUBE-HUAWEI/Drivers/BSP/Components/hts221\hts221.c ****   return HTS221_SetOutputDataRate(pObj, Odr);
 306:D:/fchai/work/i-cube/I-CUBE-HUAWEI/Drivers/BSP/Components/hts221\hts221.c **** }
 307:D:/fchai/work/i-cube/I-CUBE-HUAWEI/Drivers/BSP/Components/hts221\hts221.c **** 
 308:D:/fchai/work/i-cube/I-CUBE-HUAWEI/Drivers/BSP/Components/hts221\hts221.c **** /**
 309:D:/fchai/work/i-cube/I-CUBE-HUAWEI/Drivers/BSP/Components/hts221\hts221.c ****  * @brief  Get the HTS221 humidity value
 310:D:/fchai/work/i-cube/I-CUBE-HUAWEI/Drivers/BSP/Components/hts221\hts221.c ****  * @param  pObj the device pObj
 311:D:/fchai/work/i-cube/I-CUBE-HUAWEI/Drivers/BSP/Components/hts221\hts221.c ****  * @param  Value pointer where the humidity value is written
 312:D:/fchai/work/i-cube/I-CUBE-HUAWEI/Drivers/BSP/Components/hts221\hts221.c ****  * @retval 0 in case of success, an error code otherwise
 313:D:/fchai/work/i-cube/I-CUBE-HUAWEI/Drivers/BSP/Components/hts221\hts221.c ****  */
 314:D:/fchai/work/i-cube/I-CUBE-HUAWEI/Drivers/BSP/Components/hts221\hts221.c **** int32_t HTS221_HUM_GetHumidity(HTS221_Object_t *pObj, float *Value)
 315:D:/fchai/work/i-cube/I-CUBE-HUAWEI/Drivers/BSP/Components/hts221\hts221.c **** {
 316:D:/fchai/work/i-cube/I-CUBE-HUAWEI/Drivers/BSP/Components/hts221\hts221.c ****   hts221_axis1bit16_t data_raw_humidity;
 317:D:/fchai/work/i-cube/I-CUBE-HUAWEI/Drivers/BSP/Components/hts221\hts221.c ****   hts221_axis1bit16_t coeff;
 318:D:/fchai/work/i-cube/I-CUBE-HUAWEI/Drivers/BSP/Components/hts221\hts221.c ****   lin_t lin_hum;
 319:D:/fchai/work/i-cube/I-CUBE-HUAWEI/Drivers/BSP/Components/hts221\hts221.c **** 
 320:D:/fchai/work/i-cube/I-CUBE-HUAWEI/Drivers/BSP/Components/hts221\hts221.c ****   if (hts221_hum_adc_point_0_get(&(pObj->Ctx), coeff.u8bit) != HTS221_OK)
 321:D:/fchai/work/i-cube/I-CUBE-HUAWEI/Drivers/BSP/Components/hts221\hts221.c ****   {
 322:D:/fchai/work/i-cube/I-CUBE-HUAWEI/Drivers/BSP/Components/hts221\hts221.c ****     return HTS221_ERROR;
 323:D:/fchai/work/i-cube/I-CUBE-HUAWEI/Drivers/BSP/Components/hts221\hts221.c ****   }
 324:D:/fchai/work/i-cube/I-CUBE-HUAWEI/Drivers/BSP/Components/hts221\hts221.c **** 
 325:D:/fchai/work/i-cube/I-CUBE-HUAWEI/Drivers/BSP/Components/hts221\hts221.c ****   lin_hum.x0 = (float)coeff.i16bit;
 326:D:/fchai/work/i-cube/I-CUBE-HUAWEI/Drivers/BSP/Components/hts221\hts221.c **** 
 327:D:/fchai/work/i-cube/I-CUBE-HUAWEI/Drivers/BSP/Components/hts221\hts221.c ****   if (hts221_hum_rh_point_0_get(&(pObj->Ctx), coeff.u8bit) != HTS221_OK)
 328:D:/fchai/work/i-cube/I-CUBE-HUAWEI/Drivers/BSP/Components/hts221\hts221.c ****   {
 329:D:/fchai/work/i-cube/I-CUBE-HUAWEI/Drivers/BSP/Components/hts221\hts221.c ****     return HTS221_ERROR;
 330:D:/fchai/work/i-cube/I-CUBE-HUAWEI/Drivers/BSP/Components/hts221\hts221.c ****   }
 331:D:/fchai/work/i-cube/I-CUBE-HUAWEI/Drivers/BSP/Components/hts221\hts221.c **** 
 332:D:/fchai/work/i-cube/I-CUBE-HUAWEI/Drivers/BSP/Components/hts221\hts221.c ****   lin_hum.y0 = (float)coeff.u8bit[0];
 333:D:/fchai/work/i-cube/I-CUBE-HUAWEI/Drivers/BSP/Components/hts221\hts221.c **** 
 334:D:/fchai/work/i-cube/I-CUBE-HUAWEI/Drivers/BSP/Components/hts221\hts221.c ****   if (hts221_hum_adc_point_1_get(&(pObj->Ctx), coeff.u8bit) != HTS221_OK)
 335:D:/fchai/work/i-cube/I-CUBE-HUAWEI/Drivers/BSP/Components/hts221\hts221.c ****   {
 336:D:/fchai/work/i-cube/I-CUBE-HUAWEI/Drivers/BSP/Components/hts221\hts221.c ****     return HTS221_ERROR;
 337:D:/fchai/work/i-cube/I-CUBE-HUAWEI/Drivers/BSP/Components/hts221\hts221.c ****   }
 338:D:/fchai/work/i-cube/I-CUBE-HUAWEI/Drivers/BSP/Components/hts221\hts221.c **** 
 339:D:/fchai/work/i-cube/I-CUBE-HUAWEI/Drivers/BSP/Components/hts221\hts221.c ****   lin_hum.x1 = (float)coeff.i16bit;
 340:D:/fchai/work/i-cube/I-CUBE-HUAWEI/Drivers/BSP/Components/hts221\hts221.c **** 
 341:D:/fchai/work/i-cube/I-CUBE-HUAWEI/Drivers/BSP/Components/hts221\hts221.c ****   if (hts221_hum_rh_point_1_get(&(pObj->Ctx), coeff.u8bit) != HTS221_OK)
 342:D:/fchai/work/i-cube/I-CUBE-HUAWEI/Drivers/BSP/Components/hts221\hts221.c ****   {
 343:D:/fchai/work/i-cube/I-CUBE-HUAWEI/Drivers/BSP/Components/hts221\hts221.c ****     return HTS221_ERROR;
 344:D:/fchai/work/i-cube/I-CUBE-HUAWEI/Drivers/BSP/Components/hts221\hts221.c ****   }
 345:D:/fchai/work/i-cube/I-CUBE-HUAWEI/Drivers/BSP/Components/hts221\hts221.c **** 
 346:D:/fchai/work/i-cube/I-CUBE-HUAWEI/Drivers/BSP/Components/hts221\hts221.c ****   lin_hum.y1 = (float)coeff.u8bit[0];
 347:D:/fchai/work/i-cube/I-CUBE-HUAWEI/Drivers/BSP/Components/hts221\hts221.c **** 
 348:D:/fchai/work/i-cube/I-CUBE-HUAWEI/Drivers/BSP/Components/hts221\hts221.c ****   (void)memset(data_raw_humidity.u8bit, 0x00, sizeof(int16_t));
 349:D:/fchai/work/i-cube/I-CUBE-HUAWEI/Drivers/BSP/Components/hts221\hts221.c ****   if (hts221_humidity_raw_get(&(pObj->Ctx), data_raw_humidity.u8bit) != HTS221_OK)
 350:D:/fchai/work/i-cube/I-CUBE-HUAWEI/Drivers/BSP/Components/hts221\hts221.c ****   {
 351:D:/fchai/work/i-cube/I-CUBE-HUAWEI/Drivers/BSP/Components/hts221\hts221.c ****     return HTS221_ERROR;
 352:D:/fchai/work/i-cube/I-CUBE-HUAWEI/Drivers/BSP/Components/hts221\hts221.c ****   }
 353:D:/fchai/work/i-cube/I-CUBE-HUAWEI/Drivers/BSP/Components/hts221\hts221.c **** 
ARM GAS  T:\msys\tmp\ccPPAP19.s 			page 10


 354:D:/fchai/work/i-cube/I-CUBE-HUAWEI/Drivers/BSP/Components/hts221\hts221.c ****   *Value = Linear_Interpolation(&lin_hum, (float)data_raw_humidity.i16bit);
 355:D:/fchai/work/i-cube/I-CUBE-HUAWEI/Drivers/BSP/Components/hts221\hts221.c **** 
 356:D:/fchai/work/i-cube/I-CUBE-HUAWEI/Drivers/BSP/Components/hts221\hts221.c ****   if (*Value < 0.0f)
 357:D:/fchai/work/i-cube/I-CUBE-HUAWEI/Drivers/BSP/Components/hts221\hts221.c ****   {
 358:D:/fchai/work/i-cube/I-CUBE-HUAWEI/Drivers/BSP/Components/hts221\hts221.c ****     *Value = 0.0f;
 359:D:/fchai/work/i-cube/I-CUBE-HUAWEI/Drivers/BSP/Components/hts221\hts221.c ****   }
 360:D:/fchai/work/i-cube/I-CUBE-HUAWEI/Drivers/BSP/Components/hts221\hts221.c **** 
 361:D:/fchai/work/i-cube/I-CUBE-HUAWEI/Drivers/BSP/Components/hts221\hts221.c ****   if (*Value > 100.0f)
 362:D:/fchai/work/i-cube/I-CUBE-HUAWEI/Drivers/BSP/Components/hts221\hts221.c ****   {
 363:D:/fchai/work/i-cube/I-CUBE-HUAWEI/Drivers/BSP/Components/hts221\hts221.c ****     *Value = 100.0f;
 364:D:/fchai/work/i-cube/I-CUBE-HUAWEI/Drivers/BSP/Components/hts221\hts221.c ****   }
 365:D:/fchai/work/i-cube/I-CUBE-HUAWEI/Drivers/BSP/Components/hts221\hts221.c **** 
 366:D:/fchai/work/i-cube/I-CUBE-HUAWEI/Drivers/BSP/Components/hts221\hts221.c ****   return HTS221_OK;
 367:D:/fchai/work/i-cube/I-CUBE-HUAWEI/Drivers/BSP/Components/hts221\hts221.c **** }
 368:D:/fchai/work/i-cube/I-CUBE-HUAWEI/Drivers/BSP/Components/hts221\hts221.c **** 
 369:D:/fchai/work/i-cube/I-CUBE-HUAWEI/Drivers/BSP/Components/hts221\hts221.c **** /**
 370:D:/fchai/work/i-cube/I-CUBE-HUAWEI/Drivers/BSP/Components/hts221\hts221.c ****  * @brief  Get the HTS221 humidity data ready bit value
 371:D:/fchai/work/i-cube/I-CUBE-HUAWEI/Drivers/BSP/Components/hts221\hts221.c ****  * @param  pObj the device pObj
 372:D:/fchai/work/i-cube/I-CUBE-HUAWEI/Drivers/BSP/Components/hts221\hts221.c ****  * @param  Status the status of data ready bit
 373:D:/fchai/work/i-cube/I-CUBE-HUAWEI/Drivers/BSP/Components/hts221\hts221.c ****  * @retval 0 in case of success, an error code otherwise
 374:D:/fchai/work/i-cube/I-CUBE-HUAWEI/Drivers/BSP/Components/hts221\hts221.c ****  */
 375:D:/fchai/work/i-cube/I-CUBE-HUAWEI/Drivers/BSP/Components/hts221\hts221.c **** int32_t HTS221_HUM_Get_DRDY_Status(HTS221_Object_t *pObj, uint8_t *Status)
 376:D:/fchai/work/i-cube/I-CUBE-HUAWEI/Drivers/BSP/Components/hts221\hts221.c **** {
 377:D:/fchai/work/i-cube/I-CUBE-HUAWEI/Drivers/BSP/Components/hts221\hts221.c ****   if (hts221_hum_data_ready_get(&(pObj->Ctx), Status) != HTS221_OK)
 378:D:/fchai/work/i-cube/I-CUBE-HUAWEI/Drivers/BSP/Components/hts221\hts221.c ****   {
 379:D:/fchai/work/i-cube/I-CUBE-HUAWEI/Drivers/BSP/Components/hts221\hts221.c ****     return HTS221_ERROR;
 380:D:/fchai/work/i-cube/I-CUBE-HUAWEI/Drivers/BSP/Components/hts221\hts221.c ****   }
 381:D:/fchai/work/i-cube/I-CUBE-HUAWEI/Drivers/BSP/Components/hts221\hts221.c **** 
 382:D:/fchai/work/i-cube/I-CUBE-HUAWEI/Drivers/BSP/Components/hts221\hts221.c ****   return HTS221_OK;
 383:D:/fchai/work/i-cube/I-CUBE-HUAWEI/Drivers/BSP/Components/hts221\hts221.c **** }
 384:D:/fchai/work/i-cube/I-CUBE-HUAWEI/Drivers/BSP/Components/hts221\hts221.c **** 
 385:D:/fchai/work/i-cube/I-CUBE-HUAWEI/Drivers/BSP/Components/hts221\hts221.c **** /**
 386:D:/fchai/work/i-cube/I-CUBE-HUAWEI/Drivers/BSP/Components/hts221\hts221.c ****  * @brief  Enable the HTS221 temperature sensor
 387:D:/fchai/work/i-cube/I-CUBE-HUAWEI/Drivers/BSP/Components/hts221\hts221.c ****  * @param  pObj the device pObj
 388:D:/fchai/work/i-cube/I-CUBE-HUAWEI/Drivers/BSP/Components/hts221\hts221.c ****  * @retval 0 in case of success, an error code otherwise
 389:D:/fchai/work/i-cube/I-CUBE-HUAWEI/Drivers/BSP/Components/hts221\hts221.c ****  */
 390:D:/fchai/work/i-cube/I-CUBE-HUAWEI/Drivers/BSP/Components/hts221\hts221.c **** int32_t HTS221_TEMP_Enable(HTS221_Object_t *pObj)
 391:D:/fchai/work/i-cube/I-CUBE-HUAWEI/Drivers/BSP/Components/hts221\hts221.c **** {
 155              		.loc 1 391 1 is_stmt 1 view -0
 156              		.cfi_startproc
 157              		@ args = 0, pretend = 0, frame = 0
 158              		@ frame_needed = 0, uses_anonymous_args = 0
 392:D:/fchai/work/i-cube/I-CUBE-HUAWEI/Drivers/BSP/Components/hts221\hts221.c ****   /* Check if the component is already enabled */
 393:D:/fchai/work/i-cube/I-CUBE-HUAWEI/Drivers/BSP/Components/hts221\hts221.c ****   if (pObj->temp_is_enabled == 1U)
 159              		.loc 1 393 3 view .LVU37
 160              		.loc 1 393 6 is_stmt 0 view .LVU38
 161 0000 90F82A30 		ldrb	r3, [r0, #42]	@ zero_extendqisi2
 162 0004 012B     		cmp	r3, #1
 163 0006 12D0     		beq	.L21
 394:D:/fchai/work/i-cube/I-CUBE-HUAWEI/Drivers/BSP/Components/hts221\hts221.c ****   {
 395:D:/fchai/work/i-cube/I-CUBE-HUAWEI/Drivers/BSP/Components/hts221\hts221.c ****     return HTS221_OK;
 396:D:/fchai/work/i-cube/I-CUBE-HUAWEI/Drivers/BSP/Components/hts221\hts221.c ****   }
 397:D:/fchai/work/i-cube/I-CUBE-HUAWEI/Drivers/BSP/Components/hts221\hts221.c **** 
 398:D:/fchai/work/i-cube/I-CUBE-HUAWEI/Drivers/BSP/Components/hts221\hts221.c ****   /* Check if the HTS221 humidity sensor is already enabled. */
 399:D:/fchai/work/i-cube/I-CUBE-HUAWEI/Drivers/BSP/Components/hts221\hts221.c ****   /* If yes, skip the enable function, if not call enable function */
 400:D:/fchai/work/i-cube/I-CUBE-HUAWEI/Drivers/BSP/Components/hts221\hts221.c ****   if (pObj->hum_is_enabled == 0U)
 164              		.loc 1 400 3 is_stmt 1 view .LVU39
ARM GAS  T:\msys\tmp\ccPPAP19.s 			page 11


 391:D:/fchai/work/i-cube/I-CUBE-HUAWEI/Drivers/BSP/Components/hts221\hts221.c ****   /* Check if the component is already enabled */
 165              		.loc 1 391 1 is_stmt 0 view .LVU40
 166 0008 10B5     		push	{r4, lr}
 167              	.LCFI2:
 168              		.cfi_def_cfa_offset 8
 169              		.cfi_offset 4, -8
 170              		.cfi_offset 14, -4
 171              		.loc 1 400 6 view .LVU41
 172 000a 90F82930 		ldrb	r3, [r0, #41]	@ zero_extendqisi2
 173 000e 0446     		mov	r4, r0
 174 0010 23B1     		cbz	r3, .L19
 175              	.LVL10:
 176              	.L20:
 401:D:/fchai/work/i-cube/I-CUBE-HUAWEI/Drivers/BSP/Components/hts221\hts221.c ****   {
 402:D:/fchai/work/i-cube/I-CUBE-HUAWEI/Drivers/BSP/Components/hts221\hts221.c ****     /* Power on the component. */
 403:D:/fchai/work/i-cube/I-CUBE-HUAWEI/Drivers/BSP/Components/hts221\hts221.c ****     if (hts221_power_on_set(&(pObj->Ctx), PROPERTY_ENABLE) != HTS221_OK)
 404:D:/fchai/work/i-cube/I-CUBE-HUAWEI/Drivers/BSP/Components/hts221\hts221.c ****     {
 405:D:/fchai/work/i-cube/I-CUBE-HUAWEI/Drivers/BSP/Components/hts221\hts221.c ****       return HTS221_ERROR;
 406:D:/fchai/work/i-cube/I-CUBE-HUAWEI/Drivers/BSP/Components/hts221\hts221.c ****     }
 407:D:/fchai/work/i-cube/I-CUBE-HUAWEI/Drivers/BSP/Components/hts221\hts221.c ****   }
 408:D:/fchai/work/i-cube/I-CUBE-HUAWEI/Drivers/BSP/Components/hts221\hts221.c **** 
 409:D:/fchai/work/i-cube/I-CUBE-HUAWEI/Drivers/BSP/Components/hts221\hts221.c ****   pObj->temp_is_enabled = 1;
 177              		.loc 1 409 3 is_stmt 1 view .LVU42
 178              		.loc 1 409 25 is_stmt 0 view .LVU43
 179 0012 0123     		movs	r3, #1
 180 0014 84F82A30 		strb	r3, [r4, #42]
 410:D:/fchai/work/i-cube/I-CUBE-HUAWEI/Drivers/BSP/Components/hts221\hts221.c **** 
 411:D:/fchai/work/i-cube/I-CUBE-HUAWEI/Drivers/BSP/Components/hts221\hts221.c ****   return HTS221_OK;
 181              		.loc 1 411 3 is_stmt 1 view .LVU44
 182              		.loc 1 411 10 is_stmt 0 view .LVU45
 183 0018 0020     		movs	r0, #0
 412:D:/fchai/work/i-cube/I-CUBE-HUAWEI/Drivers/BSP/Components/hts221\hts221.c **** }
 184              		.loc 1 412 1 view .LVU46
 185 001a 10BD     		pop	{r4, pc}
 186              	.LVL11:
 187              	.L19:
 403:D:/fchai/work/i-cube/I-CUBE-HUAWEI/Drivers/BSP/Components/hts221\hts221.c ****     {
 188              		.loc 1 403 5 is_stmt 1 view .LVU47
 403:D:/fchai/work/i-cube/I-CUBE-HUAWEI/Drivers/BSP/Components/hts221\hts221.c ****     {
 189              		.loc 1 403 9 is_stmt 0 view .LVU48
 190 001c 0121     		movs	r1, #1
 191 001e 1C30     		adds	r0, r0, #28
 192              	.LVL12:
 403:D:/fchai/work/i-cube/I-CUBE-HUAWEI/Drivers/BSP/Components/hts221\hts221.c ****     {
 193              		.loc 1 403 9 view .LVU49
 194 0020 FFF7FEFF 		bl	hts221_power_on_set
 195              	.LVL13:
 403:D:/fchai/work/i-cube/I-CUBE-HUAWEI/Drivers/BSP/Components/hts221\hts221.c ****     {
 196              		.loc 1 403 8 view .LVU50
 197 0024 0028     		cmp	r0, #0
 198 0026 F4D0     		beq	.L20
 405:D:/fchai/work/i-cube/I-CUBE-HUAWEI/Drivers/BSP/Components/hts221\hts221.c ****     }
 199              		.loc 1 405 14 view .LVU51
 200 0028 4FF0FF30 		mov	r0, #-1
 201              		.loc 1 412 1 view .LVU52
 202 002c 10BD     		pop	{r4, pc}
 203              	.LVL14:
ARM GAS  T:\msys\tmp\ccPPAP19.s 			page 12


 204              	.L21:
 205              	.LCFI3:
 206              		.cfi_def_cfa_offset 0
 207              		.cfi_restore 4
 208              		.cfi_restore 14
 395:D:/fchai/work/i-cube/I-CUBE-HUAWEI/Drivers/BSP/Components/hts221\hts221.c ****   }
 209              		.loc 1 395 12 view .LVU53
 210 002e 0020     		movs	r0, #0
 211              	.LVL15:
 212              		.loc 1 412 1 view .LVU54
 213 0030 7047     		bx	lr
 214              		.cfi_endproc
 215              	.LFE12:
 217 0032 00BF     		.section	.text.HTS221_Init,"ax",%progbits
 218              		.align	1
 219              		.p2align 2,,3
 220              		.global	HTS221_Init
 221              		.syntax unified
 222              		.thumb
 223              		.thumb_func
 224              		.fpu fpv4-sp-d16
 226              	HTS221_Init:
 227              	.LVL16:
 228              	.LFB1:
 134:D:/fchai/work/i-cube/I-CUBE-HUAWEI/Drivers/BSP/Components/hts221\hts221.c ****   if (pObj->is_initialized == 0U)
 229              		.loc 1 134 1 is_stmt 1 view -0
 230              		.cfi_startproc
 231              		@ args = 0, pretend = 0, frame = 0
 232              		@ frame_needed = 0, uses_anonymous_args = 0
 135:D:/fchai/work/i-cube/I-CUBE-HUAWEI/Drivers/BSP/Components/hts221\hts221.c ****   {
 233              		.loc 1 135 3 view .LVU56
 134:D:/fchai/work/i-cube/I-CUBE-HUAWEI/Drivers/BSP/Components/hts221\hts221.c ****   if (pObj->is_initialized == 0U)
 234              		.loc 1 134 1 is_stmt 0 view .LVU57
 235 0000 38B5     		push	{r3, r4, r5, lr}
 236              	.LCFI4:
 237              		.cfi_def_cfa_offset 16
 238              		.cfi_offset 3, -16
 239              		.cfi_offset 4, -12
 240              		.cfi_offset 5, -8
 241              		.cfi_offset 14, -4
 135:D:/fchai/work/i-cube/I-CUBE-HUAWEI/Drivers/BSP/Components/hts221\hts221.c ****   {
 242              		.loc 1 135 6 view .LVU58
 243 0002 90F82810 		ldrb	r1, [r0, #40]	@ zero_extendqisi2
 134:D:/fchai/work/i-cube/I-CUBE-HUAWEI/Drivers/BSP/Components/hts221\hts221.c ****   if (pObj->is_initialized == 0U)
 244              		.loc 1 134 1 view .LVU59
 245 0006 0446     		mov	r4, r0
 135:D:/fchai/work/i-cube/I-CUBE-HUAWEI/Drivers/BSP/Components/hts221\hts221.c ****   {
 246              		.loc 1 135 6 view .LVU60
 247 0008 21B1     		cbz	r1, .L30
 248              	.LVL17:
 249              	.L34:
 143:D:/fchai/work/i-cube/I-CUBE-HUAWEI/Drivers/BSP/Components/hts221\hts221.c **** 
 250              		.loc 1 143 3 is_stmt 1 view .LVU61
 143:D:/fchai/work/i-cube/I-CUBE-HUAWEI/Drivers/BSP/Components/hts221\hts221.c **** 
 251              		.loc 1 143 24 is_stmt 0 view .LVU62
 252 000a 0123     		movs	r3, #1
 253 000c 84F82830 		strb	r3, [r4, #40]
ARM GAS  T:\msys\tmp\ccPPAP19.s 			page 13


 145:D:/fchai/work/i-cube/I-CUBE-HUAWEI/Drivers/BSP/Components/hts221\hts221.c **** }
 254              		.loc 1 145 3 is_stmt 1 view .LVU63
 145:D:/fchai/work/i-cube/I-CUBE-HUAWEI/Drivers/BSP/Components/hts221\hts221.c **** }
 255              		.loc 1 145 10 is_stmt 0 view .LVU64
 256 0010 0020     		movs	r0, #0
 146:D:/fchai/work/i-cube/I-CUBE-HUAWEI/Drivers/BSP/Components/hts221\hts221.c **** 
 257              		.loc 1 146 1 view .LVU65
 258 0012 38BD     		pop	{r3, r4, r5, pc}
 259              	.LVL18:
 260              	.L30:
 137:D:/fchai/work/i-cube/I-CUBE-HUAWEI/Drivers/BSP/Components/hts221\hts221.c ****     {
 261              		.loc 1 137 5 is_stmt 1 view .LVU66
 262              	.LBB20:
 263              	.LBI20:
 413:D:/fchai/work/i-cube/I-CUBE-HUAWEI/Drivers/BSP/Components/hts221\hts221.c **** 
 414:D:/fchai/work/i-cube/I-CUBE-HUAWEI/Drivers/BSP/Components/hts221\hts221.c **** /**
 415:D:/fchai/work/i-cube/I-CUBE-HUAWEI/Drivers/BSP/Components/hts221\hts221.c ****  * @brief  Disable the HTS221 temperature sensor
 416:D:/fchai/work/i-cube/I-CUBE-HUAWEI/Drivers/BSP/Components/hts221\hts221.c ****  * @param  pObj the device pObj
 417:D:/fchai/work/i-cube/I-CUBE-HUAWEI/Drivers/BSP/Components/hts221\hts221.c ****  * @retval 0 in case of success, an error code otherwise
 418:D:/fchai/work/i-cube/I-CUBE-HUAWEI/Drivers/BSP/Components/hts221\hts221.c ****  */
 419:D:/fchai/work/i-cube/I-CUBE-HUAWEI/Drivers/BSP/Components/hts221\hts221.c **** int32_t HTS221_TEMP_Disable(HTS221_Object_t *pObj)
 420:D:/fchai/work/i-cube/I-CUBE-HUAWEI/Drivers/BSP/Components/hts221\hts221.c **** {
 421:D:/fchai/work/i-cube/I-CUBE-HUAWEI/Drivers/BSP/Components/hts221\hts221.c ****   /* Check if the component is already disabled */
 422:D:/fchai/work/i-cube/I-CUBE-HUAWEI/Drivers/BSP/Components/hts221\hts221.c ****   if (pObj->temp_is_enabled == 0U)
 423:D:/fchai/work/i-cube/I-CUBE-HUAWEI/Drivers/BSP/Components/hts221\hts221.c ****   {
 424:D:/fchai/work/i-cube/I-CUBE-HUAWEI/Drivers/BSP/Components/hts221\hts221.c ****     return HTS221_OK;
 425:D:/fchai/work/i-cube/I-CUBE-HUAWEI/Drivers/BSP/Components/hts221\hts221.c ****   }
 426:D:/fchai/work/i-cube/I-CUBE-HUAWEI/Drivers/BSP/Components/hts221\hts221.c **** 
 427:D:/fchai/work/i-cube/I-CUBE-HUAWEI/Drivers/BSP/Components/hts221\hts221.c ****   /* Check if the HTS221 humidity sensor is still enable. */
 428:D:/fchai/work/i-cube/I-CUBE-HUAWEI/Drivers/BSP/Components/hts221\hts221.c ****   /* If yes, skip the disable function, if not call disable function */
 429:D:/fchai/work/i-cube/I-CUBE-HUAWEI/Drivers/BSP/Components/hts221\hts221.c ****   if (pObj->hum_is_enabled == 0U)
 430:D:/fchai/work/i-cube/I-CUBE-HUAWEI/Drivers/BSP/Components/hts221\hts221.c ****   {
 431:D:/fchai/work/i-cube/I-CUBE-HUAWEI/Drivers/BSP/Components/hts221\hts221.c ****     /* Power off the component. */
 432:D:/fchai/work/i-cube/I-CUBE-HUAWEI/Drivers/BSP/Components/hts221\hts221.c ****     if (hts221_power_on_set(&(pObj->Ctx), PROPERTY_DISABLE) != HTS221_OK)
 433:D:/fchai/work/i-cube/I-CUBE-HUAWEI/Drivers/BSP/Components/hts221\hts221.c ****     {
 434:D:/fchai/work/i-cube/I-CUBE-HUAWEI/Drivers/BSP/Components/hts221\hts221.c ****       return HTS221_ERROR;
 435:D:/fchai/work/i-cube/I-CUBE-HUAWEI/Drivers/BSP/Components/hts221\hts221.c ****     }
 436:D:/fchai/work/i-cube/I-CUBE-HUAWEI/Drivers/BSP/Components/hts221\hts221.c ****   }
 437:D:/fchai/work/i-cube/I-CUBE-HUAWEI/Drivers/BSP/Components/hts221\hts221.c **** 
 438:D:/fchai/work/i-cube/I-CUBE-HUAWEI/Drivers/BSP/Components/hts221\hts221.c ****   pObj->temp_is_enabled = 0;
 439:D:/fchai/work/i-cube/I-CUBE-HUAWEI/Drivers/BSP/Components/hts221\hts221.c **** 
 440:D:/fchai/work/i-cube/I-CUBE-HUAWEI/Drivers/BSP/Components/hts221\hts221.c ****   return HTS221_OK;
 441:D:/fchai/work/i-cube/I-CUBE-HUAWEI/Drivers/BSP/Components/hts221\hts221.c **** }
 442:D:/fchai/work/i-cube/I-CUBE-HUAWEI/Drivers/BSP/Components/hts221\hts221.c **** 
 443:D:/fchai/work/i-cube/I-CUBE-HUAWEI/Drivers/BSP/Components/hts221\hts221.c **** /**
 444:D:/fchai/work/i-cube/I-CUBE-HUAWEI/Drivers/BSP/Components/hts221\hts221.c ****  * @brief  Get the HTS221 temperature sensor output data rate
 445:D:/fchai/work/i-cube/I-CUBE-HUAWEI/Drivers/BSP/Components/hts221\hts221.c ****  * @param  pObj the device pObj
 446:D:/fchai/work/i-cube/I-CUBE-HUAWEI/Drivers/BSP/Components/hts221\hts221.c ****  * @param  Odr pointer where the output data rate is written
 447:D:/fchai/work/i-cube/I-CUBE-HUAWEI/Drivers/BSP/Components/hts221\hts221.c ****  * @retval 0 in case of success, an error code otherwise
 448:D:/fchai/work/i-cube/I-CUBE-HUAWEI/Drivers/BSP/Components/hts221\hts221.c ****  */
 449:D:/fchai/work/i-cube/I-CUBE-HUAWEI/Drivers/BSP/Components/hts221\hts221.c **** int32_t HTS221_TEMP_GetOutputDataRate(HTS221_Object_t *pObj, float *Odr)
 450:D:/fchai/work/i-cube/I-CUBE-HUAWEI/Drivers/BSP/Components/hts221\hts221.c **** {
 451:D:/fchai/work/i-cube/I-CUBE-HUAWEI/Drivers/BSP/Components/hts221\hts221.c ****   return HTS221_GetOutputDataRate(pObj, Odr);
 452:D:/fchai/work/i-cube/I-CUBE-HUAWEI/Drivers/BSP/Components/hts221\hts221.c **** }
 453:D:/fchai/work/i-cube/I-CUBE-HUAWEI/Drivers/BSP/Components/hts221\hts221.c **** 
 454:D:/fchai/work/i-cube/I-CUBE-HUAWEI/Drivers/BSP/Components/hts221\hts221.c **** /**
 455:D:/fchai/work/i-cube/I-CUBE-HUAWEI/Drivers/BSP/Components/hts221\hts221.c ****  * @brief  Set the HTS221 temperature sensor output data rate
ARM GAS  T:\msys\tmp\ccPPAP19.s 			page 14


 456:D:/fchai/work/i-cube/I-CUBE-HUAWEI/Drivers/BSP/Components/hts221\hts221.c ****  * @param  pObj the device pObj
 457:D:/fchai/work/i-cube/I-CUBE-HUAWEI/Drivers/BSP/Components/hts221\hts221.c ****  * @param  Odr the output data rate value to be set
 458:D:/fchai/work/i-cube/I-CUBE-HUAWEI/Drivers/BSP/Components/hts221\hts221.c ****  * @retval 0 in case of success, an error code otherwise
 459:D:/fchai/work/i-cube/I-CUBE-HUAWEI/Drivers/BSP/Components/hts221\hts221.c ****  */
 460:D:/fchai/work/i-cube/I-CUBE-HUAWEI/Drivers/BSP/Components/hts221\hts221.c **** int32_t HTS221_TEMP_SetOutputDataRate(HTS221_Object_t *pObj, float Odr)
 461:D:/fchai/work/i-cube/I-CUBE-HUAWEI/Drivers/BSP/Components/hts221\hts221.c **** {
 462:D:/fchai/work/i-cube/I-CUBE-HUAWEI/Drivers/BSP/Components/hts221\hts221.c ****   return HTS221_SetOutputDataRate(pObj, Odr);
 463:D:/fchai/work/i-cube/I-CUBE-HUAWEI/Drivers/BSP/Components/hts221\hts221.c **** }
 464:D:/fchai/work/i-cube/I-CUBE-HUAWEI/Drivers/BSP/Components/hts221\hts221.c **** 
 465:D:/fchai/work/i-cube/I-CUBE-HUAWEI/Drivers/BSP/Components/hts221\hts221.c **** /**
 466:D:/fchai/work/i-cube/I-CUBE-HUAWEI/Drivers/BSP/Components/hts221\hts221.c ****  * @brief  Get the HTS221 temperature value
 467:D:/fchai/work/i-cube/I-CUBE-HUAWEI/Drivers/BSP/Components/hts221\hts221.c ****  * @param  pObj the device pObj
 468:D:/fchai/work/i-cube/I-CUBE-HUAWEI/Drivers/BSP/Components/hts221\hts221.c ****  * @param  Value pointer where the temperature value is written
 469:D:/fchai/work/i-cube/I-CUBE-HUAWEI/Drivers/BSP/Components/hts221\hts221.c ****  * @retval 0 in case of success, an error code otherwise
 470:D:/fchai/work/i-cube/I-CUBE-HUAWEI/Drivers/BSP/Components/hts221\hts221.c ****  */
 471:D:/fchai/work/i-cube/I-CUBE-HUAWEI/Drivers/BSP/Components/hts221\hts221.c **** int32_t HTS221_TEMP_GetTemperature(HTS221_Object_t *pObj, float *Value)
 472:D:/fchai/work/i-cube/I-CUBE-HUAWEI/Drivers/BSP/Components/hts221\hts221.c **** {
 473:D:/fchai/work/i-cube/I-CUBE-HUAWEI/Drivers/BSP/Components/hts221\hts221.c ****   hts221_axis1bit16_t data_raw_temperature;
 474:D:/fchai/work/i-cube/I-CUBE-HUAWEI/Drivers/BSP/Components/hts221\hts221.c ****   hts221_axis1bit16_t coeff;
 475:D:/fchai/work/i-cube/I-CUBE-HUAWEI/Drivers/BSP/Components/hts221\hts221.c ****   lin_t lin_temp;
 476:D:/fchai/work/i-cube/I-CUBE-HUAWEI/Drivers/BSP/Components/hts221\hts221.c **** 
 477:D:/fchai/work/i-cube/I-CUBE-HUAWEI/Drivers/BSP/Components/hts221\hts221.c ****   if (hts221_temp_adc_point_0_get(&(pObj->Ctx), coeff.u8bit) != HTS221_OK)
 478:D:/fchai/work/i-cube/I-CUBE-HUAWEI/Drivers/BSP/Components/hts221\hts221.c ****   {
 479:D:/fchai/work/i-cube/I-CUBE-HUAWEI/Drivers/BSP/Components/hts221\hts221.c ****     return HTS221_ERROR;
 480:D:/fchai/work/i-cube/I-CUBE-HUAWEI/Drivers/BSP/Components/hts221\hts221.c ****   }
 481:D:/fchai/work/i-cube/I-CUBE-HUAWEI/Drivers/BSP/Components/hts221\hts221.c **** 
 482:D:/fchai/work/i-cube/I-CUBE-HUAWEI/Drivers/BSP/Components/hts221\hts221.c ****   lin_temp.x0 = (float)coeff.i16bit;
 483:D:/fchai/work/i-cube/I-CUBE-HUAWEI/Drivers/BSP/Components/hts221\hts221.c **** 
 484:D:/fchai/work/i-cube/I-CUBE-HUAWEI/Drivers/BSP/Components/hts221\hts221.c ****   if (hts221_temp_deg_point_0_get(&(pObj->Ctx), coeff.u8bit) != HTS221_OK)
 485:D:/fchai/work/i-cube/I-CUBE-HUAWEI/Drivers/BSP/Components/hts221\hts221.c ****   {
 486:D:/fchai/work/i-cube/I-CUBE-HUAWEI/Drivers/BSP/Components/hts221\hts221.c ****     return HTS221_ERROR;
 487:D:/fchai/work/i-cube/I-CUBE-HUAWEI/Drivers/BSP/Components/hts221\hts221.c ****   }
 488:D:/fchai/work/i-cube/I-CUBE-HUAWEI/Drivers/BSP/Components/hts221\hts221.c **** 
 489:D:/fchai/work/i-cube/I-CUBE-HUAWEI/Drivers/BSP/Components/hts221\hts221.c ****   lin_temp.y0 = (float)coeff.u8bit[0];
 490:D:/fchai/work/i-cube/I-CUBE-HUAWEI/Drivers/BSP/Components/hts221\hts221.c **** 
 491:D:/fchai/work/i-cube/I-CUBE-HUAWEI/Drivers/BSP/Components/hts221\hts221.c ****   if (hts221_temp_adc_point_1_get(&(pObj->Ctx), coeff.u8bit) != HTS221_OK)
 492:D:/fchai/work/i-cube/I-CUBE-HUAWEI/Drivers/BSP/Components/hts221\hts221.c ****   {
 493:D:/fchai/work/i-cube/I-CUBE-HUAWEI/Drivers/BSP/Components/hts221\hts221.c ****     return HTS221_ERROR;
 494:D:/fchai/work/i-cube/I-CUBE-HUAWEI/Drivers/BSP/Components/hts221\hts221.c ****   }
 495:D:/fchai/work/i-cube/I-CUBE-HUAWEI/Drivers/BSP/Components/hts221\hts221.c **** 
 496:D:/fchai/work/i-cube/I-CUBE-HUAWEI/Drivers/BSP/Components/hts221\hts221.c ****   lin_temp.x1 = (float)coeff.i16bit;
 497:D:/fchai/work/i-cube/I-CUBE-HUAWEI/Drivers/BSP/Components/hts221\hts221.c **** 
 498:D:/fchai/work/i-cube/I-CUBE-HUAWEI/Drivers/BSP/Components/hts221\hts221.c ****   if (hts221_temp_deg_point_1_get(&(pObj->Ctx), coeff.u8bit) != HTS221_OK)
 499:D:/fchai/work/i-cube/I-CUBE-HUAWEI/Drivers/BSP/Components/hts221\hts221.c ****   {
 500:D:/fchai/work/i-cube/I-CUBE-HUAWEI/Drivers/BSP/Components/hts221\hts221.c ****     return HTS221_ERROR;
 501:D:/fchai/work/i-cube/I-CUBE-HUAWEI/Drivers/BSP/Components/hts221\hts221.c ****   }
 502:D:/fchai/work/i-cube/I-CUBE-HUAWEI/Drivers/BSP/Components/hts221\hts221.c **** 
 503:D:/fchai/work/i-cube/I-CUBE-HUAWEI/Drivers/BSP/Components/hts221\hts221.c ****   lin_temp.y1 = (float)coeff.u8bit[0];
 504:D:/fchai/work/i-cube/I-CUBE-HUAWEI/Drivers/BSP/Components/hts221\hts221.c **** 
 505:D:/fchai/work/i-cube/I-CUBE-HUAWEI/Drivers/BSP/Components/hts221\hts221.c ****   (void)memset(data_raw_temperature.u8bit, 0x00, sizeof(int16_t));
 506:D:/fchai/work/i-cube/I-CUBE-HUAWEI/Drivers/BSP/Components/hts221\hts221.c ****   if (hts221_temperature_raw_get(&(pObj->Ctx), data_raw_temperature.u8bit) != HTS221_OK)
 507:D:/fchai/work/i-cube/I-CUBE-HUAWEI/Drivers/BSP/Components/hts221\hts221.c ****   {
 508:D:/fchai/work/i-cube/I-CUBE-HUAWEI/Drivers/BSP/Components/hts221\hts221.c ****     return HTS221_ERROR;
 509:D:/fchai/work/i-cube/I-CUBE-HUAWEI/Drivers/BSP/Components/hts221\hts221.c ****   }
 510:D:/fchai/work/i-cube/I-CUBE-HUAWEI/Drivers/BSP/Components/hts221\hts221.c **** 
 511:D:/fchai/work/i-cube/I-CUBE-HUAWEI/Drivers/BSP/Components/hts221\hts221.c ****   *Value = Linear_Interpolation(&lin_temp, (float)data_raw_temperature.i16bit);
 512:D:/fchai/work/i-cube/I-CUBE-HUAWEI/Drivers/BSP/Components/hts221\hts221.c **** 
ARM GAS  T:\msys\tmp\ccPPAP19.s 			page 15


 513:D:/fchai/work/i-cube/I-CUBE-HUAWEI/Drivers/BSP/Components/hts221\hts221.c ****   return HTS221_OK;
 514:D:/fchai/work/i-cube/I-CUBE-HUAWEI/Drivers/BSP/Components/hts221\hts221.c **** }
 515:D:/fchai/work/i-cube/I-CUBE-HUAWEI/Drivers/BSP/Components/hts221\hts221.c **** 
 516:D:/fchai/work/i-cube/I-CUBE-HUAWEI/Drivers/BSP/Components/hts221\hts221.c **** /**
 517:D:/fchai/work/i-cube/I-CUBE-HUAWEI/Drivers/BSP/Components/hts221\hts221.c ****  * @brief  Get the HTS221 temperature data ready bit value
 518:D:/fchai/work/i-cube/I-CUBE-HUAWEI/Drivers/BSP/Components/hts221\hts221.c ****  * @param  pObj the device pObj
 519:D:/fchai/work/i-cube/I-CUBE-HUAWEI/Drivers/BSP/Components/hts221\hts221.c ****  * @param  Status the status of data ready bit
 520:D:/fchai/work/i-cube/I-CUBE-HUAWEI/Drivers/BSP/Components/hts221\hts221.c ****  * @retval 0 in case of success, an error code otherwise
 521:D:/fchai/work/i-cube/I-CUBE-HUAWEI/Drivers/BSP/Components/hts221\hts221.c ****  */
 522:D:/fchai/work/i-cube/I-CUBE-HUAWEI/Drivers/BSP/Components/hts221\hts221.c **** int32_t HTS221_TEMP_Get_DRDY_Status(HTS221_Object_t *pObj, uint8_t *Status)
 523:D:/fchai/work/i-cube/I-CUBE-HUAWEI/Drivers/BSP/Components/hts221\hts221.c **** {
 524:D:/fchai/work/i-cube/I-CUBE-HUAWEI/Drivers/BSP/Components/hts221\hts221.c ****   if (hts221_temp_data_ready_get(&(pObj->Ctx), Status) != HTS221_OK)
 525:D:/fchai/work/i-cube/I-CUBE-HUAWEI/Drivers/BSP/Components/hts221\hts221.c ****   {
 526:D:/fchai/work/i-cube/I-CUBE-HUAWEI/Drivers/BSP/Components/hts221\hts221.c ****     return HTS221_ERROR;
 527:D:/fchai/work/i-cube/I-CUBE-HUAWEI/Drivers/BSP/Components/hts221\hts221.c ****   }
 528:D:/fchai/work/i-cube/I-CUBE-HUAWEI/Drivers/BSP/Components/hts221\hts221.c **** 
 529:D:/fchai/work/i-cube/I-CUBE-HUAWEI/Drivers/BSP/Components/hts221\hts221.c ****   return HTS221_OK;
 530:D:/fchai/work/i-cube/I-CUBE-HUAWEI/Drivers/BSP/Components/hts221\hts221.c **** }
 531:D:/fchai/work/i-cube/I-CUBE-HUAWEI/Drivers/BSP/Components/hts221\hts221.c **** 
 532:D:/fchai/work/i-cube/I-CUBE-HUAWEI/Drivers/BSP/Components/hts221\hts221.c **** /**
 533:D:/fchai/work/i-cube/I-CUBE-HUAWEI/Drivers/BSP/Components/hts221\hts221.c ****  * @brief  Set the HTS221 One Shot Mode
 534:D:/fchai/work/i-cube/I-CUBE-HUAWEI/Drivers/BSP/Components/hts221\hts221.c ****  * @param  pObj the device pObj
 535:D:/fchai/work/i-cube/I-CUBE-HUAWEI/Drivers/BSP/Components/hts221\hts221.c ****  * @retval 0 in case of success, an error code otherwise
 536:D:/fchai/work/i-cube/I-CUBE-HUAWEI/Drivers/BSP/Components/hts221\hts221.c ****  */
 537:D:/fchai/work/i-cube/I-CUBE-HUAWEI/Drivers/BSP/Components/hts221\hts221.c **** int32_t HTS221_Set_One_Shot(HTS221_Object_t *pObj)
 538:D:/fchai/work/i-cube/I-CUBE-HUAWEI/Drivers/BSP/Components/hts221\hts221.c **** {
 539:D:/fchai/work/i-cube/I-CUBE-HUAWEI/Drivers/BSP/Components/hts221\hts221.c **** 
 540:D:/fchai/work/i-cube/I-CUBE-HUAWEI/Drivers/BSP/Components/hts221\hts221.c ****   /* Set ODR */
 541:D:/fchai/work/i-cube/I-CUBE-HUAWEI/Drivers/BSP/Components/hts221\hts221.c ****   if(hts221_data_rate_set(&(pObj->Ctx), HTS221_ONE_SHOT)!= HTS221_OK)
 542:D:/fchai/work/i-cube/I-CUBE-HUAWEI/Drivers/BSP/Components/hts221\hts221.c ****   {
 543:D:/fchai/work/i-cube/I-CUBE-HUAWEI/Drivers/BSP/Components/hts221\hts221.c ****     return HTS221_ERROR;
 544:D:/fchai/work/i-cube/I-CUBE-HUAWEI/Drivers/BSP/Components/hts221\hts221.c ****   }
 545:D:/fchai/work/i-cube/I-CUBE-HUAWEI/Drivers/BSP/Components/hts221\hts221.c **** 
 546:D:/fchai/work/i-cube/I-CUBE-HUAWEI/Drivers/BSP/Components/hts221\hts221.c ****   /* Start One Shot Measurement */
 547:D:/fchai/work/i-cube/I-CUBE-HUAWEI/Drivers/BSP/Components/hts221\hts221.c ****   if(hts221_one_shoot_trigger_set(&(pObj->Ctx), 1) != HTS221_OK)
 548:D:/fchai/work/i-cube/I-CUBE-HUAWEI/Drivers/BSP/Components/hts221\hts221.c ****   {
 549:D:/fchai/work/i-cube/I-CUBE-HUAWEI/Drivers/BSP/Components/hts221\hts221.c ****     return HTS221_ERROR;
 550:D:/fchai/work/i-cube/I-CUBE-HUAWEI/Drivers/BSP/Components/hts221\hts221.c ****   }
 551:D:/fchai/work/i-cube/I-CUBE-HUAWEI/Drivers/BSP/Components/hts221\hts221.c **** 
 552:D:/fchai/work/i-cube/I-CUBE-HUAWEI/Drivers/BSP/Components/hts221\hts221.c ****   return HTS221_OK;
 553:D:/fchai/work/i-cube/I-CUBE-HUAWEI/Drivers/BSP/Components/hts221\hts221.c **** }
 554:D:/fchai/work/i-cube/I-CUBE-HUAWEI/Drivers/BSP/Components/hts221\hts221.c **** 
 555:D:/fchai/work/i-cube/I-CUBE-HUAWEI/Drivers/BSP/Components/hts221\hts221.c **** /**
 556:D:/fchai/work/i-cube/I-CUBE-HUAWEI/Drivers/BSP/Components/hts221\hts221.c ****  * @brief  Get the HTS221 One Shot Status
 557:D:/fchai/work/i-cube/I-CUBE-HUAWEI/Drivers/BSP/Components/hts221\hts221.c ****  * @param  pObj the device pObj
 558:D:/fchai/work/i-cube/I-CUBE-HUAWEI/Drivers/BSP/Components/hts221\hts221.c ****  * @param  Status pointer to the one shot status (1 means measurements available, 0 means measureme
 559:D:/fchai/work/i-cube/I-CUBE-HUAWEI/Drivers/BSP/Components/hts221\hts221.c ****  * @retval 0 in case of success, an error code otherwise
 560:D:/fchai/work/i-cube/I-CUBE-HUAWEI/Drivers/BSP/Components/hts221\hts221.c ****  */
 561:D:/fchai/work/i-cube/I-CUBE-HUAWEI/Drivers/BSP/Components/hts221\hts221.c **** int32_t HTS221_Get_One_Shot_Status(HTS221_Object_t *pObj, uint8_t *Status)
 562:D:/fchai/work/i-cube/I-CUBE-HUAWEI/Drivers/BSP/Components/hts221\hts221.c **** {
 563:D:/fchai/work/i-cube/I-CUBE-HUAWEI/Drivers/BSP/Components/hts221\hts221.c ****   uint8_t h_da;
 564:D:/fchai/work/i-cube/I-CUBE-HUAWEI/Drivers/BSP/Components/hts221\hts221.c ****   uint8_t t_da;
 565:D:/fchai/work/i-cube/I-CUBE-HUAWEI/Drivers/BSP/Components/hts221\hts221.c **** 
 566:D:/fchai/work/i-cube/I-CUBE-HUAWEI/Drivers/BSP/Components/hts221\hts221.c ****   /* Get DataReady for humidity */
 567:D:/fchai/work/i-cube/I-CUBE-HUAWEI/Drivers/BSP/Components/hts221\hts221.c ****   if(hts221_hum_data_ready_get(&(pObj->Ctx), &h_da) != HTS221_OK)
 568:D:/fchai/work/i-cube/I-CUBE-HUAWEI/Drivers/BSP/Components/hts221\hts221.c ****   {
 569:D:/fchai/work/i-cube/I-CUBE-HUAWEI/Drivers/BSP/Components/hts221\hts221.c ****     return HTS221_ERROR;
ARM GAS  T:\msys\tmp\ccPPAP19.s 			page 16


 570:D:/fchai/work/i-cube/I-CUBE-HUAWEI/Drivers/BSP/Components/hts221\hts221.c ****   }
 571:D:/fchai/work/i-cube/I-CUBE-HUAWEI/Drivers/BSP/Components/hts221\hts221.c **** 
 572:D:/fchai/work/i-cube/I-CUBE-HUAWEI/Drivers/BSP/Components/hts221\hts221.c ****   /* Get DataReady for temperature */
 573:D:/fchai/work/i-cube/I-CUBE-HUAWEI/Drivers/BSP/Components/hts221\hts221.c ****   if(hts221_temp_data_ready_get(&(pObj->Ctx), &t_da) != HTS221_OK)
 574:D:/fchai/work/i-cube/I-CUBE-HUAWEI/Drivers/BSP/Components/hts221\hts221.c ****   {
 575:D:/fchai/work/i-cube/I-CUBE-HUAWEI/Drivers/BSP/Components/hts221\hts221.c ****     return HTS221_ERROR;
 576:D:/fchai/work/i-cube/I-CUBE-HUAWEI/Drivers/BSP/Components/hts221\hts221.c ****   }
 577:D:/fchai/work/i-cube/I-CUBE-HUAWEI/Drivers/BSP/Components/hts221\hts221.c **** 
 578:D:/fchai/work/i-cube/I-CUBE-HUAWEI/Drivers/BSP/Components/hts221\hts221.c ****   if(h_da && t_da)
 579:D:/fchai/work/i-cube/I-CUBE-HUAWEI/Drivers/BSP/Components/hts221\hts221.c ****   {
 580:D:/fchai/work/i-cube/I-CUBE-HUAWEI/Drivers/BSP/Components/hts221\hts221.c ****     *Status = 1;
 581:D:/fchai/work/i-cube/I-CUBE-HUAWEI/Drivers/BSP/Components/hts221\hts221.c ****   }
 582:D:/fchai/work/i-cube/I-CUBE-HUAWEI/Drivers/BSP/Components/hts221\hts221.c ****   else
 583:D:/fchai/work/i-cube/I-CUBE-HUAWEI/Drivers/BSP/Components/hts221\hts221.c ****   {
 584:D:/fchai/work/i-cube/I-CUBE-HUAWEI/Drivers/BSP/Components/hts221\hts221.c ****     *Status = 0;
 585:D:/fchai/work/i-cube/I-CUBE-HUAWEI/Drivers/BSP/Components/hts221\hts221.c ****   }
 586:D:/fchai/work/i-cube/I-CUBE-HUAWEI/Drivers/BSP/Components/hts221\hts221.c **** 
 587:D:/fchai/work/i-cube/I-CUBE-HUAWEI/Drivers/BSP/Components/hts221\hts221.c ****   return HTS221_OK;
 588:D:/fchai/work/i-cube/I-CUBE-HUAWEI/Drivers/BSP/Components/hts221\hts221.c **** }
 589:D:/fchai/work/i-cube/I-CUBE-HUAWEI/Drivers/BSP/Components/hts221\hts221.c **** 
 590:D:/fchai/work/i-cube/I-CUBE-HUAWEI/Drivers/BSP/Components/hts221\hts221.c **** /**
 591:D:/fchai/work/i-cube/I-CUBE-HUAWEI/Drivers/BSP/Components/hts221\hts221.c ****  * @brief  Get the HTS221 register value
 592:D:/fchai/work/i-cube/I-CUBE-HUAWEI/Drivers/BSP/Components/hts221\hts221.c ****  * @param  pObj the device pObj
 593:D:/fchai/work/i-cube/I-CUBE-HUAWEI/Drivers/BSP/Components/hts221\hts221.c ****  * @param  Reg address to be read
 594:D:/fchai/work/i-cube/I-CUBE-HUAWEI/Drivers/BSP/Components/hts221\hts221.c ****  * @param  Data pointer where the value is written
 595:D:/fchai/work/i-cube/I-CUBE-HUAWEI/Drivers/BSP/Components/hts221\hts221.c ****  * @retval 0 in case of success, an error code otherwise
 596:D:/fchai/work/i-cube/I-CUBE-HUAWEI/Drivers/BSP/Components/hts221\hts221.c ****  */
 597:D:/fchai/work/i-cube/I-CUBE-HUAWEI/Drivers/BSP/Components/hts221\hts221.c **** int32_t HTS221_Read_Reg(HTS221_Object_t *pObj, uint8_t Reg, uint8_t *Data)
 598:D:/fchai/work/i-cube/I-CUBE-HUAWEI/Drivers/BSP/Components/hts221\hts221.c **** {
 599:D:/fchai/work/i-cube/I-CUBE-HUAWEI/Drivers/BSP/Components/hts221\hts221.c ****   if (hts221_read_reg(&(pObj->Ctx), Reg, Data, 1) != HTS221_OK)
 600:D:/fchai/work/i-cube/I-CUBE-HUAWEI/Drivers/BSP/Components/hts221\hts221.c ****   {
 601:D:/fchai/work/i-cube/I-CUBE-HUAWEI/Drivers/BSP/Components/hts221\hts221.c ****     return HTS221_ERROR;
 602:D:/fchai/work/i-cube/I-CUBE-HUAWEI/Drivers/BSP/Components/hts221\hts221.c ****   }
 603:D:/fchai/work/i-cube/I-CUBE-HUAWEI/Drivers/BSP/Components/hts221\hts221.c **** 
 604:D:/fchai/work/i-cube/I-CUBE-HUAWEI/Drivers/BSP/Components/hts221\hts221.c ****   return HTS221_OK;
 605:D:/fchai/work/i-cube/I-CUBE-HUAWEI/Drivers/BSP/Components/hts221\hts221.c **** }
 606:D:/fchai/work/i-cube/I-CUBE-HUAWEI/Drivers/BSP/Components/hts221\hts221.c **** 
 607:D:/fchai/work/i-cube/I-CUBE-HUAWEI/Drivers/BSP/Components/hts221\hts221.c **** /**
 608:D:/fchai/work/i-cube/I-CUBE-HUAWEI/Drivers/BSP/Components/hts221\hts221.c ****  * @brief  Set the HTS221 register value
 609:D:/fchai/work/i-cube/I-CUBE-HUAWEI/Drivers/BSP/Components/hts221\hts221.c ****  * @param  pObj the device pObj
 610:D:/fchai/work/i-cube/I-CUBE-HUAWEI/Drivers/BSP/Components/hts221\hts221.c ****  * @param  Reg address to be written
 611:D:/fchai/work/i-cube/I-CUBE-HUAWEI/Drivers/BSP/Components/hts221\hts221.c ****  * @param  Data value to be written
 612:D:/fchai/work/i-cube/I-CUBE-HUAWEI/Drivers/BSP/Components/hts221\hts221.c ****  * @retval 0 in case of success, an error code otherwise
 613:D:/fchai/work/i-cube/I-CUBE-HUAWEI/Drivers/BSP/Components/hts221\hts221.c ****  */
 614:D:/fchai/work/i-cube/I-CUBE-HUAWEI/Drivers/BSP/Components/hts221\hts221.c **** int32_t HTS221_Write_Reg(HTS221_Object_t *pObj, uint8_t Reg, uint8_t Data)
 615:D:/fchai/work/i-cube/I-CUBE-HUAWEI/Drivers/BSP/Components/hts221\hts221.c **** {
 616:D:/fchai/work/i-cube/I-CUBE-HUAWEI/Drivers/BSP/Components/hts221\hts221.c ****   if (hts221_write_reg(&(pObj->Ctx), Reg, &Data, 1) != HTS221_OK)
 617:D:/fchai/work/i-cube/I-CUBE-HUAWEI/Drivers/BSP/Components/hts221\hts221.c ****   {
 618:D:/fchai/work/i-cube/I-CUBE-HUAWEI/Drivers/BSP/Components/hts221\hts221.c ****     return HTS221_ERROR;
 619:D:/fchai/work/i-cube/I-CUBE-HUAWEI/Drivers/BSP/Components/hts221\hts221.c ****   }
 620:D:/fchai/work/i-cube/I-CUBE-HUAWEI/Drivers/BSP/Components/hts221\hts221.c **** 
 621:D:/fchai/work/i-cube/I-CUBE-HUAWEI/Drivers/BSP/Components/hts221\hts221.c ****   return HTS221_OK;
 622:D:/fchai/work/i-cube/I-CUBE-HUAWEI/Drivers/BSP/Components/hts221\hts221.c **** }
 623:D:/fchai/work/i-cube/I-CUBE-HUAWEI/Drivers/BSP/Components/hts221\hts221.c **** 
 624:D:/fchai/work/i-cube/I-CUBE-HUAWEI/Drivers/BSP/Components/hts221\hts221.c **** /**
 625:D:/fchai/work/i-cube/I-CUBE-HUAWEI/Drivers/BSP/Components/hts221\hts221.c ****  * @}
 626:D:/fchai/work/i-cube/I-CUBE-HUAWEI/Drivers/BSP/Components/hts221\hts221.c ****  */
ARM GAS  T:\msys\tmp\ccPPAP19.s 			page 17


 627:D:/fchai/work/i-cube/I-CUBE-HUAWEI/Drivers/BSP/Components/hts221\hts221.c **** 
 628:D:/fchai/work/i-cube/I-CUBE-HUAWEI/Drivers/BSP/Components/hts221\hts221.c **** /** @defgroup HTS221_Private_Functions HTS221 Private Functions
 629:D:/fchai/work/i-cube/I-CUBE-HUAWEI/Drivers/BSP/Components/hts221\hts221.c ****  * @{
 630:D:/fchai/work/i-cube/I-CUBE-HUAWEI/Drivers/BSP/Components/hts221\hts221.c ****  */
 631:D:/fchai/work/i-cube/I-CUBE-HUAWEI/Drivers/BSP/Components/hts221\hts221.c **** 
 632:D:/fchai/work/i-cube/I-CUBE-HUAWEI/Drivers/BSP/Components/hts221\hts221.c **** /**
 633:D:/fchai/work/i-cube/I-CUBE-HUAWEI/Drivers/BSP/Components/hts221\hts221.c ****  * @brief  Get output data rate
 634:D:/fchai/work/i-cube/I-CUBE-HUAWEI/Drivers/BSP/Components/hts221\hts221.c ****  * @param  pObj the device pObj
 635:D:/fchai/work/i-cube/I-CUBE-HUAWEI/Drivers/BSP/Components/hts221\hts221.c ****  * @param  Odr the output data rate value
 636:D:/fchai/work/i-cube/I-CUBE-HUAWEI/Drivers/BSP/Components/hts221\hts221.c ****  * @retval 0 in case of success, an error code otherwise
 637:D:/fchai/work/i-cube/I-CUBE-HUAWEI/Drivers/BSP/Components/hts221\hts221.c ****  */
 638:D:/fchai/work/i-cube/I-CUBE-HUAWEI/Drivers/BSP/Components/hts221\hts221.c **** static int32_t HTS221_GetOutputDataRate(HTS221_Object_t *pObj, float *Odr)
 639:D:/fchai/work/i-cube/I-CUBE-HUAWEI/Drivers/BSP/Components/hts221\hts221.c **** {
 640:D:/fchai/work/i-cube/I-CUBE-HUAWEI/Drivers/BSP/Components/hts221\hts221.c ****   int32_t ret = HTS221_OK;
 641:D:/fchai/work/i-cube/I-CUBE-HUAWEI/Drivers/BSP/Components/hts221\hts221.c ****   hts221_odr_t odr_low_level;
 642:D:/fchai/work/i-cube/I-CUBE-HUAWEI/Drivers/BSP/Components/hts221\hts221.c **** 
 643:D:/fchai/work/i-cube/I-CUBE-HUAWEI/Drivers/BSP/Components/hts221\hts221.c ****   if (hts221_data_rate_get(&(pObj->Ctx), &odr_low_level) != HTS221_OK)
 644:D:/fchai/work/i-cube/I-CUBE-HUAWEI/Drivers/BSP/Components/hts221\hts221.c ****   {
 645:D:/fchai/work/i-cube/I-CUBE-HUAWEI/Drivers/BSP/Components/hts221\hts221.c ****     return HTS221_ERROR;
 646:D:/fchai/work/i-cube/I-CUBE-HUAWEI/Drivers/BSP/Components/hts221\hts221.c ****   }
 647:D:/fchai/work/i-cube/I-CUBE-HUAWEI/Drivers/BSP/Components/hts221\hts221.c **** 
 648:D:/fchai/work/i-cube/I-CUBE-HUAWEI/Drivers/BSP/Components/hts221\hts221.c ****   switch (odr_low_level)
 649:D:/fchai/work/i-cube/I-CUBE-HUAWEI/Drivers/BSP/Components/hts221\hts221.c ****   {
 650:D:/fchai/work/i-cube/I-CUBE-HUAWEI/Drivers/BSP/Components/hts221\hts221.c ****     case HTS221_ONE_SHOT:
 651:D:/fchai/work/i-cube/I-CUBE-HUAWEI/Drivers/BSP/Components/hts221\hts221.c ****       *Odr = 0.0f;
 652:D:/fchai/work/i-cube/I-CUBE-HUAWEI/Drivers/BSP/Components/hts221\hts221.c ****       break;
 653:D:/fchai/work/i-cube/I-CUBE-HUAWEI/Drivers/BSP/Components/hts221\hts221.c **** 
 654:D:/fchai/work/i-cube/I-CUBE-HUAWEI/Drivers/BSP/Components/hts221\hts221.c ****     case HTS221_ODR_1Hz:
 655:D:/fchai/work/i-cube/I-CUBE-HUAWEI/Drivers/BSP/Components/hts221\hts221.c ****       *Odr = 1.0f;
 656:D:/fchai/work/i-cube/I-CUBE-HUAWEI/Drivers/BSP/Components/hts221\hts221.c ****       break;
 657:D:/fchai/work/i-cube/I-CUBE-HUAWEI/Drivers/BSP/Components/hts221\hts221.c **** 
 658:D:/fchai/work/i-cube/I-CUBE-HUAWEI/Drivers/BSP/Components/hts221\hts221.c ****     case HTS221_ODR_7Hz:
 659:D:/fchai/work/i-cube/I-CUBE-HUAWEI/Drivers/BSP/Components/hts221\hts221.c ****       *Odr = 7.0f;
 660:D:/fchai/work/i-cube/I-CUBE-HUAWEI/Drivers/BSP/Components/hts221\hts221.c ****       break;
 661:D:/fchai/work/i-cube/I-CUBE-HUAWEI/Drivers/BSP/Components/hts221\hts221.c **** 
 662:D:/fchai/work/i-cube/I-CUBE-HUAWEI/Drivers/BSP/Components/hts221\hts221.c ****     case HTS221_ODR_12Hz5:
 663:D:/fchai/work/i-cube/I-CUBE-HUAWEI/Drivers/BSP/Components/hts221\hts221.c ****       *Odr = 12.5f;
 664:D:/fchai/work/i-cube/I-CUBE-HUAWEI/Drivers/BSP/Components/hts221\hts221.c ****       break;
 665:D:/fchai/work/i-cube/I-CUBE-HUAWEI/Drivers/BSP/Components/hts221\hts221.c **** 
 666:D:/fchai/work/i-cube/I-CUBE-HUAWEI/Drivers/BSP/Components/hts221\hts221.c ****     default:
 667:D:/fchai/work/i-cube/I-CUBE-HUAWEI/Drivers/BSP/Components/hts221\hts221.c ****       ret = HTS221_ERROR;
 668:D:/fchai/work/i-cube/I-CUBE-HUAWEI/Drivers/BSP/Components/hts221\hts221.c ****       break;
 669:D:/fchai/work/i-cube/I-CUBE-HUAWEI/Drivers/BSP/Components/hts221\hts221.c ****   }
 670:D:/fchai/work/i-cube/I-CUBE-HUAWEI/Drivers/BSP/Components/hts221\hts221.c **** 
 671:D:/fchai/work/i-cube/I-CUBE-HUAWEI/Drivers/BSP/Components/hts221\hts221.c ****   return ret;
 672:D:/fchai/work/i-cube/I-CUBE-HUAWEI/Drivers/BSP/Components/hts221\hts221.c **** }
 673:D:/fchai/work/i-cube/I-CUBE-HUAWEI/Drivers/BSP/Components/hts221\hts221.c **** 
 674:D:/fchai/work/i-cube/I-CUBE-HUAWEI/Drivers/BSP/Components/hts221\hts221.c **** /**
 675:D:/fchai/work/i-cube/I-CUBE-HUAWEI/Drivers/BSP/Components/hts221\hts221.c ****  * @brief  Set output data rate
 676:D:/fchai/work/i-cube/I-CUBE-HUAWEI/Drivers/BSP/Components/hts221\hts221.c ****  * @param  pObj the device pObj
 677:D:/fchai/work/i-cube/I-CUBE-HUAWEI/Drivers/BSP/Components/hts221\hts221.c ****  * @param  Odr the output data rate value to be set
 678:D:/fchai/work/i-cube/I-CUBE-HUAWEI/Drivers/BSP/Components/hts221\hts221.c ****  * @retval 0 in case of success, an error code otherwise
 679:D:/fchai/work/i-cube/I-CUBE-HUAWEI/Drivers/BSP/Components/hts221\hts221.c ****  */
 680:D:/fchai/work/i-cube/I-CUBE-HUAWEI/Drivers/BSP/Components/hts221\hts221.c **** static int32_t HTS221_SetOutputDataRate(HTS221_Object_t *pObj, float Odr)
 681:D:/fchai/work/i-cube/I-CUBE-HUAWEI/Drivers/BSP/Components/hts221\hts221.c **** {
 682:D:/fchai/work/i-cube/I-CUBE-HUAWEI/Drivers/BSP/Components/hts221\hts221.c ****   hts221_odr_t new_odr;
 683:D:/fchai/work/i-cube/I-CUBE-HUAWEI/Drivers/BSP/Components/hts221\hts221.c **** 
ARM GAS  T:\msys\tmp\ccPPAP19.s 			page 18


 684:D:/fchai/work/i-cube/I-CUBE-HUAWEI/Drivers/BSP/Components/hts221\hts221.c ****   new_odr = (Odr <= 1.0f) ? HTS221_ODR_1Hz
 685:D:/fchai/work/i-cube/I-CUBE-HUAWEI/Drivers/BSP/Components/hts221\hts221.c ****             : (Odr <= 7.0f) ? HTS221_ODR_7Hz
 686:D:/fchai/work/i-cube/I-CUBE-HUAWEI/Drivers/BSP/Components/hts221\hts221.c ****             :                 HTS221_ODR_12Hz5;
 687:D:/fchai/work/i-cube/I-CUBE-HUAWEI/Drivers/BSP/Components/hts221\hts221.c **** 
 688:D:/fchai/work/i-cube/I-CUBE-HUAWEI/Drivers/BSP/Components/hts221\hts221.c ****   if (hts221_data_rate_set(&(pObj->Ctx), new_odr) != HTS221_OK)
 689:D:/fchai/work/i-cube/I-CUBE-HUAWEI/Drivers/BSP/Components/hts221\hts221.c ****   {
 690:D:/fchai/work/i-cube/I-CUBE-HUAWEI/Drivers/BSP/Components/hts221\hts221.c ****     return HTS221_ERROR;
 691:D:/fchai/work/i-cube/I-CUBE-HUAWEI/Drivers/BSP/Components/hts221\hts221.c ****   }
 692:D:/fchai/work/i-cube/I-CUBE-HUAWEI/Drivers/BSP/Components/hts221\hts221.c **** 
 693:D:/fchai/work/i-cube/I-CUBE-HUAWEI/Drivers/BSP/Components/hts221\hts221.c ****   return HTS221_OK;
 694:D:/fchai/work/i-cube/I-CUBE-HUAWEI/Drivers/BSP/Components/hts221\hts221.c **** }
 695:D:/fchai/work/i-cube/I-CUBE-HUAWEI/Drivers/BSP/Components/hts221\hts221.c **** 
 696:D:/fchai/work/i-cube/I-CUBE-HUAWEI/Drivers/BSP/Components/hts221\hts221.c **** /**
 697:D:/fchai/work/i-cube/I-CUBE-HUAWEI/Drivers/BSP/Components/hts221\hts221.c ****  * @brief  Initialize the HTS221 sensor
 698:D:/fchai/work/i-cube/I-CUBE-HUAWEI/Drivers/BSP/Components/hts221\hts221.c ****  * @param  pObj the device pObj
 699:D:/fchai/work/i-cube/I-CUBE-HUAWEI/Drivers/BSP/Components/hts221\hts221.c ****  * @retval 0 in case of success, an error code otherwise
 700:D:/fchai/work/i-cube/I-CUBE-HUAWEI/Drivers/BSP/Components/hts221\hts221.c ****  */
 701:D:/fchai/work/i-cube/I-CUBE-HUAWEI/Drivers/BSP/Components/hts221\hts221.c **** static int32_t HTS221_Initialize(HTS221_Object_t *pObj)
 264              		.loc 1 701 16 view .LVU67
 265              	.LBB21:
 702:D:/fchai/work/i-cube/I-CUBE-HUAWEI/Drivers/BSP/Components/hts221\hts221.c **** {
 703:D:/fchai/work/i-cube/I-CUBE-HUAWEI/Drivers/BSP/Components/hts221\hts221.c ****   /* Power off the component. */
 704:D:/fchai/work/i-cube/I-CUBE-HUAWEI/Drivers/BSP/Components/hts221\hts221.c ****   if (hts221_power_on_set(&(pObj->Ctx), PROPERTY_DISABLE) != HTS221_OK)
 266              		.loc 1 704 3 view .LVU68
 267              		.loc 1 704 7 is_stmt 0 view .LVU69
 268 0014 00F11C05 		add	r5, r0, #28
 269 0018 2846     		mov	r0, r5
 270              	.LVL19:
 271              		.loc 1 704 7 view .LVU70
 272 001a FFF7FEFF 		bl	hts221_power_on_set
 273              	.LVL20:
 274              		.loc 1 704 6 view .LVU71
 275 001e 50B9     		cbnz	r0, .L33
 705:D:/fchai/work/i-cube/I-CUBE-HUAWEI/Drivers/BSP/Components/hts221\hts221.c ****   {
 706:D:/fchai/work/i-cube/I-CUBE-HUAWEI/Drivers/BSP/Components/hts221\hts221.c ****     return HTS221_ERROR;
 707:D:/fchai/work/i-cube/I-CUBE-HUAWEI/Drivers/BSP/Components/hts221\hts221.c ****   }
 708:D:/fchai/work/i-cube/I-CUBE-HUAWEI/Drivers/BSP/Components/hts221\hts221.c **** 
 709:D:/fchai/work/i-cube/I-CUBE-HUAWEI/Drivers/BSP/Components/hts221\hts221.c ****   /* Enable BDU */
 710:D:/fchai/work/i-cube/I-CUBE-HUAWEI/Drivers/BSP/Components/hts221\hts221.c ****   if (hts221_block_data_update_set(&(pObj->Ctx), PROPERTY_ENABLE) != HTS221_OK)
 276              		.loc 1 710 3 is_stmt 1 view .LVU72
 277              		.loc 1 710 7 is_stmt 0 view .LVU73
 278 0020 0121     		movs	r1, #1
 279 0022 2846     		mov	r0, r5
 280 0024 FFF7FEFF 		bl	hts221_block_data_update_set
 281              	.LVL21:
 282              		.loc 1 710 6 view .LVU74
 283 0028 28B9     		cbnz	r0, .L33
 711:D:/fchai/work/i-cube/I-CUBE-HUAWEI/Drivers/BSP/Components/hts221\hts221.c ****   {
 712:D:/fchai/work/i-cube/I-CUBE-HUAWEI/Drivers/BSP/Components/hts221\hts221.c ****     return HTS221_ERROR;
 713:D:/fchai/work/i-cube/I-CUBE-HUAWEI/Drivers/BSP/Components/hts221\hts221.c ****   }
 714:D:/fchai/work/i-cube/I-CUBE-HUAWEI/Drivers/BSP/Components/hts221\hts221.c **** 
 715:D:/fchai/work/i-cube/I-CUBE-HUAWEI/Drivers/BSP/Components/hts221\hts221.c ****   /* Set default ODR */
 716:D:/fchai/work/i-cube/I-CUBE-HUAWEI/Drivers/BSP/Components/hts221\hts221.c ****   if (HTS221_SetOutputDataRate(pObj, 1.0f) != HTS221_OK)
 284              		.loc 1 716 3 is_stmt 1 view .LVU75
 285              	.LVL22:
 286              	.LBB22:
 287              	.LBI22:
ARM GAS  T:\msys\tmp\ccPPAP19.s 			page 19


 680:D:/fchai/work/i-cube/I-CUBE-HUAWEI/Drivers/BSP/Components/hts221\hts221.c **** {
 288              		.loc 1 680 16 view .LVU76
 289              	.LBB23:
 682:D:/fchai/work/i-cube/I-CUBE-HUAWEI/Drivers/BSP/Components/hts221\hts221.c **** 
 290              		.loc 1 682 3 view .LVU77
 684:D:/fchai/work/i-cube/I-CUBE-HUAWEI/Drivers/BSP/Components/hts221\hts221.c ****             : (Odr <= 7.0f) ? HTS221_ODR_7Hz
 291              		.loc 1 684 3 view .LVU78
 688:D:/fchai/work/i-cube/I-CUBE-HUAWEI/Drivers/BSP/Components/hts221\hts221.c ****   {
 292              		.loc 1 688 3 view .LVU79
 688:D:/fchai/work/i-cube/I-CUBE-HUAWEI/Drivers/BSP/Components/hts221\hts221.c ****   {
 293              		.loc 1 688 7 is_stmt 0 view .LVU80
 294 002a 2846     		mov	r0, r5
 295 002c 0121     		movs	r1, #1
 296 002e FFF7FEFF 		bl	hts221_data_rate_set
 297              	.LVL23:
 688:D:/fchai/work/i-cube/I-CUBE-HUAWEI/Drivers/BSP/Components/hts221\hts221.c ****   {
 298              		.loc 1 688 6 view .LVU81
 299 0032 0028     		cmp	r0, #0
 300 0034 E9D0     		beq	.L34
 301              	.LVL24:
 302              	.L33:
 688:D:/fchai/work/i-cube/I-CUBE-HUAWEI/Drivers/BSP/Components/hts221\hts221.c ****   {
 303              		.loc 1 688 6 view .LVU82
 304              	.LBE23:
 305              	.LBE22:
 306              	.LBE21:
 307              	.LBE20:
 139:D:/fchai/work/i-cube/I-CUBE-HUAWEI/Drivers/BSP/Components/hts221\hts221.c ****     }
 308              		.loc 1 139 14 view .LVU83
 309 0036 4FF0FF30 		mov	r0, #-1
 146:D:/fchai/work/i-cube/I-CUBE-HUAWEI/Drivers/BSP/Components/hts221\hts221.c **** 
 310              		.loc 1 146 1 view .LVU84
 311 003a 38BD     		pop	{r3, r4, r5, pc}
 146:D:/fchai/work/i-cube/I-CUBE-HUAWEI/Drivers/BSP/Components/hts221\hts221.c **** 
 312              		.loc 1 146 1 view .LVU85
 313              		.cfi_endproc
 314              	.LFE1:
 316              		.section	.text.HTS221_HUM_SetOutputDataRate,"ax",%progbits
 317              		.align	1
 318              		.p2align 2,,3
 319              		.global	HTS221_HUM_SetOutputDataRate
 320              		.syntax unified
 321              		.thumb
 322              		.thumb_func
 323              		.fpu fpv4-sp-d16
 325              	HTS221_HUM_SetOutputDataRate:
 326              	.LVL25:
 327              	.LFB9:
 304:D:/fchai/work/i-cube/I-CUBE-HUAWEI/Drivers/BSP/Components/hts221\hts221.c ****   return HTS221_SetOutputDataRate(pObj, Odr);
 328              		.loc 1 304 1 is_stmt 1 view -0
 329              		.cfi_startproc
 330              		@ args = 0, pretend = 0, frame = 0
 331              		@ frame_needed = 0, uses_anonymous_args = 0
 305:D:/fchai/work/i-cube/I-CUBE-HUAWEI/Drivers/BSP/Components/hts221\hts221.c **** }
 332              		.loc 1 305 3 view .LVU87
 333              	.LBB24:
 334              	.LBB25:
ARM GAS  T:\msys\tmp\ccPPAP19.s 			page 20


 685:D:/fchai/work/i-cube/I-CUBE-HUAWEI/Drivers/BSP/Components/hts221\hts221.c ****             :                 HTS221_ODR_12Hz5;
 335              		.loc 1 685 13 is_stmt 0 view .LVU88
 336 0000 F7EE007A 		vmov.f32	s15, #1.0e+0
 337              	.LVL26:
 685:D:/fchai/work/i-cube/I-CUBE-HUAWEI/Drivers/BSP/Components/hts221\hts221.c ****             :                 HTS221_ODR_12Hz5;
 338              		.loc 1 685 13 view .LVU89
 339              	.LBE25:
 340              	.LBI24:
 680:D:/fchai/work/i-cube/I-CUBE-HUAWEI/Drivers/BSP/Components/hts221\hts221.c **** {
 341              		.loc 1 680 16 is_stmt 1 view .LVU90
 342              	.LBB26:
 682:D:/fchai/work/i-cube/I-CUBE-HUAWEI/Drivers/BSP/Components/hts221\hts221.c **** 
 343              		.loc 1 682 3 view .LVU91
 684:D:/fchai/work/i-cube/I-CUBE-HUAWEI/Drivers/BSP/Components/hts221\hts221.c ****             : (Odr <= 7.0f) ? HTS221_ODR_7Hz
 344              		.loc 1 684 3 view .LVU92
 685:D:/fchai/work/i-cube/I-CUBE-HUAWEI/Drivers/BSP/Components/hts221\hts221.c ****             :                 HTS221_ODR_12Hz5;
 345              		.loc 1 685 13 is_stmt 0 view .LVU93
 346 0004 B4EEE70A 		vcmpe.f32	s0, s15
 347 0008 F1EE10FA 		vmrs	APSR_nzcv, FPSCR
 348              	.LBE26:
 349              	.LBE24:
 304:D:/fchai/work/i-cube/I-CUBE-HUAWEI/Drivers/BSP/Components/hts221\hts221.c ****   return HTS221_SetOutputDataRate(pObj, Odr);
 350              		.loc 1 304 1 view .LVU94
 351 000c 08B5     		push	{r3, lr}
 352              	.LCFI5:
 353              		.cfi_def_cfa_offset 8
 354              		.cfi_offset 3, -8
 355              		.cfi_offset 14, -4
 356              	.LBB29:
 357              	.LBB27:
 685:D:/fchai/work/i-cube/I-CUBE-HUAWEI/Drivers/BSP/Components/hts221\hts221.c ****             :                 HTS221_ODR_12Hz5;
 358              		.loc 1 685 13 view .LVU95
 359 000e 10D9     		bls	.L38
 360 0010 F1EE0C7A 		vmov.f32	s15, #7.0e+0
 361 0014 B4EEE70A 		vcmpe.f32	s0, s15
 362 0018 F1EE10FA 		vmrs	APSR_nzcv, FPSCR
 363 001c 94BF     		ite	ls
 364 001e 0221     		movls	r1, #2
 365 0020 0321     		movhi	r1, #3
 366              	.L37:
 367              	.LVL27:
 688:D:/fchai/work/i-cube/I-CUBE-HUAWEI/Drivers/BSP/Components/hts221\hts221.c ****   {
 368              		.loc 1 688 3 is_stmt 1 view .LVU96
 688:D:/fchai/work/i-cube/I-CUBE-HUAWEI/Drivers/BSP/Components/hts221\hts221.c ****   {
 369              		.loc 1 688 7 is_stmt 0 view .LVU97
 370 0022 1C30     		adds	r0, r0, #28
 371              	.LVL28:
 688:D:/fchai/work/i-cube/I-CUBE-HUAWEI/Drivers/BSP/Components/hts221\hts221.c ****   {
 372              		.loc 1 688 7 view .LVU98
 373 0024 FFF7FEFF 		bl	hts221_data_rate_set
 374              	.LVL29:
 688:D:/fchai/work/i-cube/I-CUBE-HUAWEI/Drivers/BSP/Components/hts221\hts221.c ****   {
 375              		.loc 1 688 6 view .LVU99
 376 0028 0038     		subs	r0, r0, #0
 377 002a 18BF     		it	ne
 378 002c 0120     		movne	r0, #1
 379              	.LBE27:
ARM GAS  T:\msys\tmp\ccPPAP19.s 			page 21


 380              	.LBE29:
 306:D:/fchai/work/i-cube/I-CUBE-HUAWEI/Drivers/BSP/Components/hts221\hts221.c **** 
 381              		.loc 1 306 1 view .LVU100
 382 002e 4042     		rsbs	r0, r0, #0
 383 0030 08BD     		pop	{r3, pc}
 384              	.LVL30:
 385              	.L38:
 386              	.LBB30:
 387              	.LBB28:
 685:D:/fchai/work/i-cube/I-CUBE-HUAWEI/Drivers/BSP/Components/hts221\hts221.c ****             :                 HTS221_ODR_12Hz5;
 388              		.loc 1 685 13 view .LVU101
 389 0032 0121     		movs	r1, #1
 390 0034 F5E7     		b	.L37
 391              	.LBE28:
 392              	.LBE30:
 393              		.cfi_endproc
 394              	.LFE9:
 396 0036 00BF     		.section	.text.HTS221_TEMP_SetOutputDataRate,"ax",%progbits
 397              		.align	1
 398              		.p2align 2,,3
 399              		.global	HTS221_TEMP_SetOutputDataRate
 400              		.syntax unified
 401              		.thumb
 402              		.thumb_func
 403              		.fpu fpv4-sp-d16
 405              	HTS221_TEMP_SetOutputDataRate:
 406              	.LFB36:
 407              		.cfi_startproc
 408              		@ args = 0, pretend = 0, frame = 0
 409              		@ frame_needed = 0, uses_anonymous_args = 0
 410              		@ link register save eliminated.
 411 0000 FFF7FEBF 		b	HTS221_HUM_SetOutputDataRate
 412              		.cfi_endproc
 413              	.LFE36:
 415              		.section	.text.HTS221_ReadID,"ax",%progbits
 416              		.align	1
 417              		.p2align 2,,3
 418              		.global	HTS221_ReadID
 419              		.syntax unified
 420              		.thumb
 421              		.thumb_func
 422              		.fpu fpv4-sp-d16
 424              	HTS221_ReadID:
 425              	.LVL31:
 426              	.LFB3:
 180:D:/fchai/work/i-cube/I-CUBE-HUAWEI/Drivers/BSP/Components/hts221\hts221.c ****   if (hts221_device_id_get(&(pObj->Ctx), Id) != HTS221_OK)
 427              		.loc 1 180 1 is_stmt 1 view -0
 428              		.cfi_startproc
 429              		@ args = 0, pretend = 0, frame = 0
 430              		@ frame_needed = 0, uses_anonymous_args = 0
 181:D:/fchai/work/i-cube/I-CUBE-HUAWEI/Drivers/BSP/Components/hts221\hts221.c ****   {
 431              		.loc 1 181 3 view .LVU103
 180:D:/fchai/work/i-cube/I-CUBE-HUAWEI/Drivers/BSP/Components/hts221\hts221.c ****   if (hts221_device_id_get(&(pObj->Ctx), Id) != HTS221_OK)
 432              		.loc 1 180 1 is_stmt 0 view .LVU104
 433 0000 08B5     		push	{r3, lr}
 434              	.LCFI6:
 435              		.cfi_def_cfa_offset 8
ARM GAS  T:\msys\tmp\ccPPAP19.s 			page 22


 436              		.cfi_offset 3, -8
 437              		.cfi_offset 14, -4
 181:D:/fchai/work/i-cube/I-CUBE-HUAWEI/Drivers/BSP/Components/hts221\hts221.c ****   {
 438              		.loc 1 181 7 view .LVU105
 439 0002 1C30     		adds	r0, r0, #28
 440              	.LVL32:
 181:D:/fchai/work/i-cube/I-CUBE-HUAWEI/Drivers/BSP/Components/hts221\hts221.c ****   {
 441              		.loc 1 181 7 view .LVU106
 442 0004 FFF7FEFF 		bl	hts221_device_id_get
 443              	.LVL33:
 181:D:/fchai/work/i-cube/I-CUBE-HUAWEI/Drivers/BSP/Components/hts221\hts221.c ****   {
 444              		.loc 1 181 6 view .LVU107
 445 0008 0038     		subs	r0, r0, #0
 446 000a 18BF     		it	ne
 447 000c 0120     		movne	r0, #1
 187:D:/fchai/work/i-cube/I-CUBE-HUAWEI/Drivers/BSP/Components/hts221\hts221.c **** 
 448              		.loc 1 187 1 view .LVU108
 449 000e 4042     		rsbs	r0, r0, #0
 450 0010 08BD     		pop	{r3, pc}
 451              		.cfi_endproc
 452              	.LFE3:
 454 0012 00BF     		.section	.text.HTS221_GetOutputDataRate,"ax",%progbits
 455              		.align	1
 456              		.p2align 2,,3
 457              		.syntax unified
 458              		.thumb
 459              		.thumb_func
 460              		.fpu fpv4-sp-d16
 462              	HTS221_GetOutputDataRate:
 463              	.LVL34:
 464              	.LFB22:
 639:D:/fchai/work/i-cube/I-CUBE-HUAWEI/Drivers/BSP/Components/hts221\hts221.c ****   int32_t ret = HTS221_OK;
 465              		.loc 1 639 1 is_stmt 1 view -0
 466              		.cfi_startproc
 467              		@ args = 0, pretend = 0, frame = 8
 468              		@ frame_needed = 0, uses_anonymous_args = 0
 640:D:/fchai/work/i-cube/I-CUBE-HUAWEI/Drivers/BSP/Components/hts221\hts221.c ****   hts221_odr_t odr_low_level;
 469              		.loc 1 640 3 view .LVU110
 641:D:/fchai/work/i-cube/I-CUBE-HUAWEI/Drivers/BSP/Components/hts221\hts221.c **** 
 470              		.loc 1 641 3 view .LVU111
 643:D:/fchai/work/i-cube/I-CUBE-HUAWEI/Drivers/BSP/Components/hts221\hts221.c ****   {
 471              		.loc 1 643 3 view .LVU112
 639:D:/fchai/work/i-cube/I-CUBE-HUAWEI/Drivers/BSP/Components/hts221\hts221.c ****   int32_t ret = HTS221_OK;
 472              		.loc 1 639 1 is_stmt 0 view .LVU113
 473 0000 10B5     		push	{r4, lr}
 474              	.LCFI7:
 475              		.cfi_def_cfa_offset 8
 476              		.cfi_offset 4, -8
 477              		.cfi_offset 14, -4
 478 0002 82B0     		sub	sp, sp, #8
 479              	.LCFI8:
 480              		.cfi_def_cfa_offset 16
 639:D:/fchai/work/i-cube/I-CUBE-HUAWEI/Drivers/BSP/Components/hts221\hts221.c ****   int32_t ret = HTS221_OK;
 481              		.loc 1 639 1 view .LVU114
 482 0004 0C46     		mov	r4, r1
 643:D:/fchai/work/i-cube/I-CUBE-HUAWEI/Drivers/BSP/Components/hts221\hts221.c ****   {
 483              		.loc 1 643 7 view .LVU115
ARM GAS  T:\msys\tmp\ccPPAP19.s 			page 23


 484 0006 1C30     		adds	r0, r0, #28
 485              	.LVL35:
 643:D:/fchai/work/i-cube/I-CUBE-HUAWEI/Drivers/BSP/Components/hts221\hts221.c ****   {
 486              		.loc 1 643 7 view .LVU116
 487 0008 0DF10701 		add	r1, sp, #7
 488              	.LVL36:
 643:D:/fchai/work/i-cube/I-CUBE-HUAWEI/Drivers/BSP/Components/hts221\hts221.c ****   {
 489              		.loc 1 643 7 view .LVU117
 490 000c FFF7FEFF 		bl	hts221_data_rate_get
 491              	.LVL37:
 643:D:/fchai/work/i-cube/I-CUBE-HUAWEI/Drivers/BSP/Components/hts221\hts221.c ****   {
 492              		.loc 1 643 6 view .LVU118
 493 0010 C0B9     		cbnz	r0, .L52
 648:D:/fchai/work/i-cube/I-CUBE-HUAWEI/Drivers/BSP/Components/hts221\hts221.c ****   {
 494              		.loc 1 648 3 is_stmt 1 view .LVU119
 495 0012 9DF80730 		ldrb	r3, [sp, #7]	@ zero_extendqisi2
 496 0016 032B     		cmp	r3, #3
 497 0018 14D8     		bhi	.L52
 498 001a DFE803F0 		tbb	[pc, r3]
 499              	.L47:
 500 001e 06       		.byte	(.L50-.L47)/2
 501 001f 0A       		.byte	(.L49-.L47)/2
 502 0020 0F       		.byte	(.L48-.L47)/2
 503 0021 02       		.byte	(.L46-.L47)/2
 504              		.p2align 1
 505              	.L46:
 663:D:/fchai/work/i-cube/I-CUBE-HUAWEI/Drivers/BSP/Components/hts221\hts221.c ****       break;
 506              		.loc 1 663 7 view .LVU120
 663:D:/fchai/work/i-cube/I-CUBE-HUAWEI/Drivers/BSP/Components/hts221\hts221.c ****       break;
 507              		.loc 1 663 12 is_stmt 0 view .LVU121
 508 0022 0A4B     		ldr	r3, .L54
 509 0024 2360     		str	r3, [r4]	@ float
 664:D:/fchai/work/i-cube/I-CUBE-HUAWEI/Drivers/BSP/Components/hts221\hts221.c **** 
 510              		.loc 1 664 7 is_stmt 1 view .LVU122
 511              	.LVL38:
 512              	.L44:
 672:D:/fchai/work/i-cube/I-CUBE-HUAWEI/Drivers/BSP/Components/hts221\hts221.c **** 
 513              		.loc 1 672 1 is_stmt 0 view .LVU123
 514 0026 02B0     		add	sp, sp, #8
 515              	.LCFI9:
 516              		.cfi_remember_state
 517              		.cfi_def_cfa_offset 8
 518              		@ sp needed
 519 0028 10BD     		pop	{r4, pc}
 520              	.LVL39:
 521              	.L50:
 522              	.LCFI10:
 523              		.cfi_restore_state
 651:D:/fchai/work/i-cube/I-CUBE-HUAWEI/Drivers/BSP/Components/hts221\hts221.c ****       break;
 524              		.loc 1 651 7 is_stmt 1 view .LVU124
 651:D:/fchai/work/i-cube/I-CUBE-HUAWEI/Drivers/BSP/Components/hts221\hts221.c ****       break;
 525              		.loc 1 651 12 is_stmt 0 view .LVU125
 526 002a 0023     		movs	r3, #0
 527 002c 2360     		str	r3, [r4]	@ float
 652:D:/fchai/work/i-cube/I-CUBE-HUAWEI/Drivers/BSP/Components/hts221\hts221.c **** 
 528              		.loc 1 652 7 is_stmt 1 view .LVU126
 672:D:/fchai/work/i-cube/I-CUBE-HUAWEI/Drivers/BSP/Components/hts221\hts221.c **** 
ARM GAS  T:\msys\tmp\ccPPAP19.s 			page 24


 529              		.loc 1 672 1 is_stmt 0 view .LVU127
 530 002e 02B0     		add	sp, sp, #8
 531              	.LCFI11:
 532              		.cfi_remember_state
 533              		.cfi_def_cfa_offset 8
 534              		@ sp needed
 535 0030 10BD     		pop	{r4, pc}
 536              	.LVL40:
 537              	.L49:
 538              	.LCFI12:
 539              		.cfi_restore_state
 655:D:/fchai/work/i-cube/I-CUBE-HUAWEI/Drivers/BSP/Components/hts221\hts221.c ****       break;
 540              		.loc 1 655 7 is_stmt 1 view .LVU128
 655:D:/fchai/work/i-cube/I-CUBE-HUAWEI/Drivers/BSP/Components/hts221\hts221.c ****       break;
 541              		.loc 1 655 12 is_stmt 0 view .LVU129
 542 0032 4FF07E53 		mov	r3, #1065353216
 543 0036 2360     		str	r3, [r4]	@ float
 656:D:/fchai/work/i-cube/I-CUBE-HUAWEI/Drivers/BSP/Components/hts221\hts221.c **** 
 544              		.loc 1 656 7 is_stmt 1 view .LVU130
 672:D:/fchai/work/i-cube/I-CUBE-HUAWEI/Drivers/BSP/Components/hts221\hts221.c **** 
 545              		.loc 1 672 1 is_stmt 0 view .LVU131
 546 0038 02B0     		add	sp, sp, #8
 547              	.LCFI13:
 548              		.cfi_remember_state
 549              		.cfi_def_cfa_offset 8
 550              		@ sp needed
 551 003a 10BD     		pop	{r4, pc}
 552              	.LVL41:
 553              	.L48:
 554              	.LCFI14:
 555              		.cfi_restore_state
 659:D:/fchai/work/i-cube/I-CUBE-HUAWEI/Drivers/BSP/Components/hts221\hts221.c ****       break;
 556              		.loc 1 659 7 is_stmt 1 view .LVU132
 659:D:/fchai/work/i-cube/I-CUBE-HUAWEI/Drivers/BSP/Components/hts221\hts221.c ****       break;
 557              		.loc 1 659 12 is_stmt 0 view .LVU133
 558 003c 044B     		ldr	r3, .L54+4
 559 003e 2360     		str	r3, [r4]	@ float
 660:D:/fchai/work/i-cube/I-CUBE-HUAWEI/Drivers/BSP/Components/hts221\hts221.c **** 
 560              		.loc 1 660 7 is_stmt 1 view .LVU134
 672:D:/fchai/work/i-cube/I-CUBE-HUAWEI/Drivers/BSP/Components/hts221\hts221.c **** 
 561              		.loc 1 672 1 is_stmt 0 view .LVU135
 562 0040 02B0     		add	sp, sp, #8
 563              	.LCFI15:
 564              		.cfi_remember_state
 565              		.cfi_def_cfa_offset 8
 566              		@ sp needed
 567 0042 10BD     		pop	{r4, pc}
 568              	.LVL42:
 569              	.L52:
 570              	.LCFI16:
 571              		.cfi_restore_state
 648:D:/fchai/work/i-cube/I-CUBE-HUAWEI/Drivers/BSP/Components/hts221\hts221.c ****   {
 572              		.loc 1 648 3 view .LVU136
 573 0044 4FF0FF30 		mov	r0, #-1
 574              	.LVL43:
 648:D:/fchai/work/i-cube/I-CUBE-HUAWEI/Drivers/BSP/Components/hts221\hts221.c ****   {
 575              		.loc 1 648 3 view .LVU137
ARM GAS  T:\msys\tmp\ccPPAP19.s 			page 25


 576 0048 EDE7     		b	.L44
 577              	.L55:
 578 004a 00BF     		.align	2
 579              	.L54:
 580 004c 00004841 		.word	1095237632
 581 0050 0000E040 		.word	1088421888
 582              		.cfi_endproc
 583              	.LFE22:
 585              		.section	.text.HTS221_HUM_GetOutputDataRate,"ax",%progbits
 586              		.align	1
 587              		.p2align 2,,3
 588              		.global	HTS221_HUM_GetOutputDataRate
 589              		.syntax unified
 590              		.thumb
 591              		.thumb_func
 592              		.fpu fpv4-sp-d16
 594              	HTS221_HUM_GetOutputDataRate:
 595              	.LVL44:
 596              	.LFB8:
 293:D:/fchai/work/i-cube/I-CUBE-HUAWEI/Drivers/BSP/Components/hts221\hts221.c ****   return HTS221_GetOutputDataRate(pObj, Odr);
 597              		.loc 1 293 1 is_stmt 1 view -0
 598              		.cfi_startproc
 599              		@ args = 0, pretend = 0, frame = 0
 600              		@ frame_needed = 0, uses_anonymous_args = 0
 601              		@ link register save eliminated.
 294:D:/fchai/work/i-cube/I-CUBE-HUAWEI/Drivers/BSP/Components/hts221\hts221.c **** }
 602              		.loc 1 294 3 view .LVU139
 294:D:/fchai/work/i-cube/I-CUBE-HUAWEI/Drivers/BSP/Components/hts221\hts221.c **** }
 603              		.loc 1 294 10 is_stmt 0 view .LVU140
 604 0000 FFF7FEBF 		b	HTS221_GetOutputDataRate
 605              	.LVL45:
 294:D:/fchai/work/i-cube/I-CUBE-HUAWEI/Drivers/BSP/Components/hts221\hts221.c **** }
 606              		.loc 1 294 10 view .LVU141
 607              		.cfi_endproc
 608              	.LFE8:
 610              		.section	.text.HTS221_HUM_GetHumidity,"ax",%progbits
 611              		.align	1
 612              		.p2align 2,,3
 613              		.global	HTS221_HUM_GetHumidity
 614              		.syntax unified
 615              		.thumb
 616              		.thumb_func
 617              		.fpu fpv4-sp-d16
 619              	HTS221_HUM_GetHumidity:
 620              	.LVL46:
 621              	.LFB10:
 315:D:/fchai/work/i-cube/I-CUBE-HUAWEI/Drivers/BSP/Components/hts221\hts221.c ****   hts221_axis1bit16_t data_raw_humidity;
 622              		.loc 1 315 1 is_stmt 1 view -0
 623              		.cfi_startproc
 624              		@ args = 0, pretend = 0, frame = 8
 625              		@ frame_needed = 0, uses_anonymous_args = 0
 316:D:/fchai/work/i-cube/I-CUBE-HUAWEI/Drivers/BSP/Components/hts221\hts221.c ****   hts221_axis1bit16_t coeff;
 626              		.loc 1 316 3 view .LVU143
 317:D:/fchai/work/i-cube/I-CUBE-HUAWEI/Drivers/BSP/Components/hts221\hts221.c ****   lin_t lin_hum;
 627              		.loc 1 317 3 view .LVU144
 318:D:/fchai/work/i-cube/I-CUBE-HUAWEI/Drivers/BSP/Components/hts221\hts221.c **** 
 628              		.loc 1 318 3 view .LVU145
ARM GAS  T:\msys\tmp\ccPPAP19.s 			page 26


 320:D:/fchai/work/i-cube/I-CUBE-HUAWEI/Drivers/BSP/Components/hts221\hts221.c ****   {
 629              		.loc 1 320 3 view .LVU146
 315:D:/fchai/work/i-cube/I-CUBE-HUAWEI/Drivers/BSP/Components/hts221\hts221.c ****   hts221_axis1bit16_t data_raw_humidity;
 630              		.loc 1 315 1 is_stmt 0 view .LVU147
 631 0000 30B5     		push	{r4, r5, lr}
 632              	.LCFI17:
 633              		.cfi_def_cfa_offset 12
 634              		.cfi_offset 4, -12
 635              		.cfi_offset 5, -8
 636              		.cfi_offset 14, -4
 637 0002 2DED048B 		vpush.64	{d8, d9}
 638              	.LCFI18:
 639              		.cfi_def_cfa_offset 28
 640              		.cfi_offset 80, -28
 641              		.cfi_offset 81, -24
 642              		.cfi_offset 82, -20
 643              		.cfi_offset 83, -16
 320:D:/fchai/work/i-cube/I-CUBE-HUAWEI/Drivers/BSP/Components/hts221\hts221.c ****   {
 644              		.loc 1 320 7 view .LVU148
 645 0006 00F11C04 		add	r4, r0, #28
 315:D:/fchai/work/i-cube/I-CUBE-HUAWEI/Drivers/BSP/Components/hts221\hts221.c ****   hts221_axis1bit16_t data_raw_humidity;
 646              		.loc 1 315 1 view .LVU149
 647 000a 83B0     		sub	sp, sp, #12
 648              	.LCFI19:
 649              		.cfi_def_cfa_offset 40
 315:D:/fchai/work/i-cube/I-CUBE-HUAWEI/Drivers/BSP/Components/hts221\hts221.c ****   hts221_axis1bit16_t data_raw_humidity;
 650              		.loc 1 315 1 view .LVU150
 651 000c 0D46     		mov	r5, r1
 320:D:/fchai/work/i-cube/I-CUBE-HUAWEI/Drivers/BSP/Components/hts221\hts221.c ****   {
 652              		.loc 1 320 7 view .LVU151
 653 000e 2046     		mov	r0, r4
 654              	.LVL47:
 320:D:/fchai/work/i-cube/I-CUBE-HUAWEI/Drivers/BSP/Components/hts221\hts221.c ****   {
 655              		.loc 1 320 7 view .LVU152
 656 0010 01A9     		add	r1, sp, #4
 657              	.LVL48:
 320:D:/fchai/work/i-cube/I-CUBE-HUAWEI/Drivers/BSP/Components/hts221\hts221.c ****   {
 658              		.loc 1 320 7 view .LVU153
 659 0012 FFF7FEFF 		bl	hts221_hum_adc_point_0_get
 660              	.LVL49:
 320:D:/fchai/work/i-cube/I-CUBE-HUAWEI/Drivers/BSP/Components/hts221\hts221.c ****   {
 661              		.loc 1 320 6 view .LVU154
 662 0016 0028     		cmp	r0, #0
 663 0018 5BD1     		bne	.L60
 325:D:/fchai/work/i-cube/I-CUBE-HUAWEI/Drivers/BSP/Components/hts221\hts221.c **** 
 664              		.loc 1 325 3 is_stmt 1 view .LVU155
 325:D:/fchai/work/i-cube/I-CUBE-HUAWEI/Drivers/BSP/Components/hts221\hts221.c **** 
 665              		.loc 1 325 16 is_stmt 0 view .LVU156
 666 001a BDF90430 		ldrsh	r3, [sp, #4]
 667 001e 08EE103A 		vmov	s16, r3	@ int
 327:D:/fchai/work/i-cube/I-CUBE-HUAWEI/Drivers/BSP/Components/hts221\hts221.c ****   {
 668              		.loc 1 327 7 view .LVU157
 669 0022 01A9     		add	r1, sp, #4
 670 0024 2046     		mov	r0, r4
 325:D:/fchai/work/i-cube/I-CUBE-HUAWEI/Drivers/BSP/Components/hts221\hts221.c **** 
 671              		.loc 1 325 16 view .LVU158
 672 0026 B8EEC89A 		vcvt.f32.s32	s18, s16
ARM GAS  T:\msys\tmp\ccPPAP19.s 			page 27


 673              	.LVL50:
 327:D:/fchai/work/i-cube/I-CUBE-HUAWEI/Drivers/BSP/Components/hts221\hts221.c ****   {
 674              		.loc 1 327 3 is_stmt 1 view .LVU159
 327:D:/fchai/work/i-cube/I-CUBE-HUAWEI/Drivers/BSP/Components/hts221\hts221.c ****   {
 675              		.loc 1 327 7 is_stmt 0 view .LVU160
 676 002a FFF7FEFF 		bl	hts221_hum_rh_point_0_get
 677              	.LVL51:
 327:D:/fchai/work/i-cube/I-CUBE-HUAWEI/Drivers/BSP/Components/hts221\hts221.c ****   {
 678              		.loc 1 327 6 view .LVU161
 679 002e 0028     		cmp	r0, #0
 680 0030 4FD1     		bne	.L60
 332:D:/fchai/work/i-cube/I-CUBE-HUAWEI/Drivers/BSP/Components/hts221\hts221.c **** 
 681              		.loc 1 332 3 is_stmt 1 view .LVU162
 332:D:/fchai/work/i-cube/I-CUBE-HUAWEI/Drivers/BSP/Components/hts221\hts221.c **** 
 682              		.loc 1 332 16 is_stmt 0 view .LVU163
 683 0032 9DF80430 		ldrb	r3, [sp, #4]	@ zero_extendqisi2
 684 0036 08EE903A 		vmov	s17, r3	@ int
 334:D:/fchai/work/i-cube/I-CUBE-HUAWEI/Drivers/BSP/Components/hts221\hts221.c ****   {
 685              		.loc 1 334 7 view .LVU164
 686 003a 01A9     		add	r1, sp, #4
 687 003c 2046     		mov	r0, r4
 332:D:/fchai/work/i-cube/I-CUBE-HUAWEI/Drivers/BSP/Components/hts221\hts221.c **** 
 688              		.loc 1 332 16 view .LVU165
 689 003e F8EE689A 		vcvt.f32.u32	s19, s17
 690              	.LVL52:
 334:D:/fchai/work/i-cube/I-CUBE-HUAWEI/Drivers/BSP/Components/hts221\hts221.c ****   {
 691              		.loc 1 334 3 is_stmt 1 view .LVU166
 334:D:/fchai/work/i-cube/I-CUBE-HUAWEI/Drivers/BSP/Components/hts221\hts221.c ****   {
 692              		.loc 1 334 7 is_stmt 0 view .LVU167
 693 0042 FFF7FEFF 		bl	hts221_hum_adc_point_1_get
 694              	.LVL53:
 334:D:/fchai/work/i-cube/I-CUBE-HUAWEI/Drivers/BSP/Components/hts221\hts221.c ****   {
 695              		.loc 1 334 6 view .LVU168
 696 0046 0028     		cmp	r0, #0
 697 0048 43D1     		bne	.L60
 339:D:/fchai/work/i-cube/I-CUBE-HUAWEI/Drivers/BSP/Components/hts221\hts221.c **** 
 698              		.loc 1 339 3 is_stmt 1 view .LVU169
 339:D:/fchai/work/i-cube/I-CUBE-HUAWEI/Drivers/BSP/Components/hts221\hts221.c **** 
 699              		.loc 1 339 16 is_stmt 0 view .LVU170
 700 004a BDF90430 		ldrsh	r3, [sp, #4]
 701 004e 08EE103A 		vmov	s16, r3	@ int
 341:D:/fchai/work/i-cube/I-CUBE-HUAWEI/Drivers/BSP/Components/hts221\hts221.c ****   {
 702              		.loc 1 341 7 view .LVU171
 703 0052 01A9     		add	r1, sp, #4
 704 0054 2046     		mov	r0, r4
 339:D:/fchai/work/i-cube/I-CUBE-HUAWEI/Drivers/BSP/Components/hts221\hts221.c **** 
 705              		.loc 1 339 16 view .LVU172
 706 0056 B8EEC88A 		vcvt.f32.s32	s16, s16
 707              	.LVL54:
 341:D:/fchai/work/i-cube/I-CUBE-HUAWEI/Drivers/BSP/Components/hts221\hts221.c ****   {
 708              		.loc 1 341 3 is_stmt 1 view .LVU173
 341:D:/fchai/work/i-cube/I-CUBE-HUAWEI/Drivers/BSP/Components/hts221\hts221.c ****   {
 709              		.loc 1 341 7 is_stmt 0 view .LVU174
 710 005a FFF7FEFF 		bl	hts221_hum_rh_point_1_get
 711              	.LVL55:
 341:D:/fchai/work/i-cube/I-CUBE-HUAWEI/Drivers/BSP/Components/hts221\hts221.c ****   {
 712              		.loc 1 341 6 view .LVU175
ARM GAS  T:\msys\tmp\ccPPAP19.s 			page 28


 713 005e C0BB     		cbnz	r0, .L60
 346:D:/fchai/work/i-cube/I-CUBE-HUAWEI/Drivers/BSP/Components/hts221\hts221.c **** 
 714              		.loc 1 346 3 is_stmt 1 view .LVU176
 346:D:/fchai/work/i-cube/I-CUBE-HUAWEI/Drivers/BSP/Components/hts221\hts221.c **** 
 715              		.loc 1 346 16 is_stmt 0 view .LVU177
 716 0060 9DF80430 		ldrb	r3, [sp, #4]	@ zero_extendqisi2
 348:D:/fchai/work/i-cube/I-CUBE-HUAWEI/Drivers/BSP/Components/hts221\hts221.c ****   if (hts221_humidity_raw_get(&(pObj->Ctx), data_raw_humidity.u8bit) != HTS221_OK)
 717              		.loc 1 348 9 view .LVU178
 718 0064 ADF80000 		strh	r0, [sp]	@ movhi
 346:D:/fchai/work/i-cube/I-CUBE-HUAWEI/Drivers/BSP/Components/hts221\hts221.c **** 
 719              		.loc 1 346 16 view .LVU179
 720 0068 08EE903A 		vmov	s17, r3	@ int
 349:D:/fchai/work/i-cube/I-CUBE-HUAWEI/Drivers/BSP/Components/hts221\hts221.c ****   {
 721              		.loc 1 349 7 view .LVU180
 722 006c 2046     		mov	r0, r4
 723 006e 6946     		mov	r1, sp
 346:D:/fchai/work/i-cube/I-CUBE-HUAWEI/Drivers/BSP/Components/hts221\hts221.c **** 
 724              		.loc 1 346 16 view .LVU181
 725 0070 F8EE688A 		vcvt.f32.u32	s17, s17
 726              	.LVL56:
 348:D:/fchai/work/i-cube/I-CUBE-HUAWEI/Drivers/BSP/Components/hts221\hts221.c ****   if (hts221_humidity_raw_get(&(pObj->Ctx), data_raw_humidity.u8bit) != HTS221_OK)
 727              		.loc 1 348 3 is_stmt 1 view .LVU182
 349:D:/fchai/work/i-cube/I-CUBE-HUAWEI/Drivers/BSP/Components/hts221\hts221.c ****   {
 728              		.loc 1 349 3 view .LVU183
 349:D:/fchai/work/i-cube/I-CUBE-HUAWEI/Drivers/BSP/Components/hts221\hts221.c ****   {
 729              		.loc 1 349 7 is_stmt 0 view .LVU184
 730 0074 FFF7FEFF 		bl	hts221_humidity_raw_get
 731              	.LVL57:
 349:D:/fchai/work/i-cube/I-CUBE-HUAWEI/Drivers/BSP/Components/hts221\hts221.c ****   {
 732              		.loc 1 349 6 view .LVU185
 733 0078 58BB     		cbnz	r0, .L60
 354:D:/fchai/work/i-cube/I-CUBE-HUAWEI/Drivers/BSP/Components/hts221\hts221.c **** 
 734              		.loc 1 354 3 is_stmt 1 view .LVU186
 735              	.LVL58:
 736              	.LBB31:
 737              	.LBI31:
 717:D:/fchai/work/i-cube/I-CUBE-HUAWEI/Drivers/BSP/Components/hts221\hts221.c ****   {
 718:D:/fchai/work/i-cube/I-CUBE-HUAWEI/Drivers/BSP/Components/hts221\hts221.c ****     return HTS221_ERROR;
 719:D:/fchai/work/i-cube/I-CUBE-HUAWEI/Drivers/BSP/Components/hts221\hts221.c ****   }
 720:D:/fchai/work/i-cube/I-CUBE-HUAWEI/Drivers/BSP/Components/hts221\hts221.c **** 
 721:D:/fchai/work/i-cube/I-CUBE-HUAWEI/Drivers/BSP/Components/hts221\hts221.c ****   return HTS221_OK;
 722:D:/fchai/work/i-cube/I-CUBE-HUAWEI/Drivers/BSP/Components/hts221\hts221.c **** }
 723:D:/fchai/work/i-cube/I-CUBE-HUAWEI/Drivers/BSP/Components/hts221\hts221.c **** 
 724:D:/fchai/work/i-cube/I-CUBE-HUAWEI/Drivers/BSP/Components/hts221\hts221.c **** /**
 725:D:/fchai/work/i-cube/I-CUBE-HUAWEI/Drivers/BSP/Components/hts221\hts221.c ****  * @brief  Enable HTS221 DRDY interrupt mode
 726:D:/fchai/work/i-cube/I-CUBE-HUAWEI/Drivers/BSP/Components/hts221\hts221.c ****  * @param  pObj the device pObj
 727:D:/fchai/work/i-cube/I-CUBE-HUAWEI/Drivers/BSP/Components/hts221\hts221.c ****  * @retval 0 in case of success, an error code otherwise
 728:D:/fchai/work/i-cube/I-CUBE-HUAWEI/Drivers/BSP/Components/hts221\hts221.c ****  */
 729:D:/fchai/work/i-cube/I-CUBE-HUAWEI/Drivers/BSP/Components/hts221\hts221.c **** int32_t HTS221_Enable_DRDY_Interrupt(HTS221_Object_t *pObj)
 730:D:/fchai/work/i-cube/I-CUBE-HUAWEI/Drivers/BSP/Components/hts221\hts221.c **** {
 731:D:/fchai/work/i-cube/I-CUBE-HUAWEI/Drivers/BSP/Components/hts221\hts221.c ****   if (hts221_drdy_on_int_set(&(pObj->Ctx), PROPERTY_ENABLE) != HTS221_OK)
 732:D:/fchai/work/i-cube/I-CUBE-HUAWEI/Drivers/BSP/Components/hts221\hts221.c ****   {
 733:D:/fchai/work/i-cube/I-CUBE-HUAWEI/Drivers/BSP/Components/hts221\hts221.c ****     return HTS221_ERROR;
 734:D:/fchai/work/i-cube/I-CUBE-HUAWEI/Drivers/BSP/Components/hts221\hts221.c ****   }
 735:D:/fchai/work/i-cube/I-CUBE-HUAWEI/Drivers/BSP/Components/hts221\hts221.c **** 
 736:D:/fchai/work/i-cube/I-CUBE-HUAWEI/Drivers/BSP/Components/hts221\hts221.c ****   return HTS221_OK;
 737:D:/fchai/work/i-cube/I-CUBE-HUAWEI/Drivers/BSP/Components/hts221\hts221.c **** }
ARM GAS  T:\msys\tmp\ccPPAP19.s 			page 29


 738:D:/fchai/work/i-cube/I-CUBE-HUAWEI/Drivers/BSP/Components/hts221\hts221.c **** 
 739:D:/fchai/work/i-cube/I-CUBE-HUAWEI/Drivers/BSP/Components/hts221\hts221.c **** /**
 740:D:/fchai/work/i-cube/I-CUBE-HUAWEI/Drivers/BSP/Components/hts221\hts221.c ****  * @brief  Function used to apply coefficient
 741:D:/fchai/work/i-cube/I-CUBE-HUAWEI/Drivers/BSP/Components/hts221\hts221.c ****  * @param  Lin the line
 742:D:/fchai/work/i-cube/I-CUBE-HUAWEI/Drivers/BSP/Components/hts221\hts221.c ****  * @param  Coeff the coefficient
 743:D:/fchai/work/i-cube/I-CUBE-HUAWEI/Drivers/BSP/Components/hts221\hts221.c ****  * @retval Calculation result
 744:D:/fchai/work/i-cube/I-CUBE-HUAWEI/Drivers/BSP/Components/hts221\hts221.c ****  */
 745:D:/fchai/work/i-cube/I-CUBE-HUAWEI/Drivers/BSP/Components/hts221\hts221.c **** static float Linear_Interpolation(lin_t *Lin, float Coeff)
 738              		.loc 1 745 14 view .LVU187
 739              	.LBB32:
 746:D:/fchai/work/i-cube/I-CUBE-HUAWEI/Drivers/BSP/Components/hts221\hts221.c **** {
 747:D:/fchai/work/i-cube/I-CUBE-HUAWEI/Drivers/BSP/Components/hts221\hts221.c ****   return (((Lin->y1 - Lin->y0) * Coeff) + ((Lin->x1 * Lin->y0) - (Lin->x0 * Lin->y1))) / (Lin->x1 -
 740              		.loc 1 747 3 view .LVU188
 741              		.loc 1 747 64 is_stmt 0 view .LVU189
 742 007a 68EEC97A 		vnmul.f32	s15, s17, s18
 743              	.LBE32:
 744              	.LBE31:
 354:D:/fchai/work/i-cube/I-CUBE-HUAWEI/Drivers/BSP/Components/hts221\hts221.c **** 
 745              		.loc 1 354 12 view .LVU190
 746 007e BDF90030 		ldrsh	r3, [sp]
 747              	.LBB36:
 748              	.LBB33:
 749              		.loc 1 747 64 view .LVU191
 750 0082 E9EE887A 		vfma.f32	s15, s19, s16
 751              	.LBE33:
 752              	.LBE36:
 354:D:/fchai/work/i-cube/I-CUBE-HUAWEI/Drivers/BSP/Components/hts221\hts221.c **** 
 753              		.loc 1 354 12 view .LVU192
 754 0086 07EE103A 		vmov	s14, r3	@ int
 755              	.LBB37:
 756              	.LBB34:
 757              		.loc 1 747 21 view .LVU193
 758 008a 78EEE98A 		vsub.f32	s17, s17, s19
 759              	.LVL59:
 760              		.loc 1 747 21 view .LVU194
 761              	.LBE34:
 762              	.LBE37:
 354:D:/fchai/work/i-cube/I-CUBE-HUAWEI/Drivers/BSP/Components/hts221\hts221.c **** 
 763              		.loc 1 354 12 view .LVU195
 764 008e B8EEC77A 		vcvt.f32.s32	s14, s14
 765              	.LBB38:
 766              	.LBB35:
 767              		.loc 1 747 99 view .LVU196
 768 0092 38EE498A 		vsub.f32	s16, s16, s18
 769              	.LVL60:
 770              		.loc 1 747 41 view .LVU197
 771 0096 E7EE287A 		vfma.f32	s15, s14, s17
 772              		.loc 1 747 88 view .LVU198
 773 009a 87EE887A 		vdiv.f32	s14, s15, s16
 774              	.LVL61:
 775              		.loc 1 747 88 view .LVU199
 776              	.LBE35:
 777              	.LBE38:
 356:D:/fchai/work/i-cube/I-CUBE-HUAWEI/Drivers/BSP/Components/hts221\hts221.c ****   {
 778              		.loc 1 356 3 is_stmt 1 view .LVU200
 356:D:/fchai/work/i-cube/I-CUBE-HUAWEI/Drivers/BSP/Components/hts221\hts221.c ****   {
 779              		.loc 1 356 6 is_stmt 0 view .LVU201
ARM GAS  T:\msys\tmp\ccPPAP19.s 			page 30


 780 009e B5EEC07A 		vcmpe.f32	s14, #0
 781 00a2 F1EE10FA 		vmrs	APSR_nzcv, FPSCR
 782 00a6 0CD4     		bmi	.L63
 361:D:/fchai/work/i-cube/I-CUBE-HUAWEI/Drivers/BSP/Components/hts221\hts221.c ****   {
 783              		.loc 1 361 3 is_stmt 1 view .LVU202
 361:D:/fchai/work/i-cube/I-CUBE-HUAWEI/Drivers/BSP/Components/hts221\hts221.c ****   {
 784              		.loc 1 361 6 is_stmt 0 view .LVU203
 785 00a8 DFED0B7A 		vldr.32	s15, .L65
 786 00ac B4EEE77A 		vcmpe.f32	s14, s15
 787 00b0 F1EE10FA 		vmrs	APSR_nzcv, FPSCR
 788 00b4 07DD     		ble	.L61
 363:D:/fchai/work/i-cube/I-CUBE-HUAWEI/Drivers/BSP/Components/hts221\hts221.c ****   }
 789              		.loc 1 363 5 is_stmt 1 view .LVU204
 363:D:/fchai/work/i-cube/I-CUBE-HUAWEI/Drivers/BSP/Components/hts221\hts221.c ****   }
 790              		.loc 1 363 12 is_stmt 0 view .LVU205
 791 00b6 C5ED007A 		vstr.32	s15, [r5]
 792              	.LVL62:
 793              	.L57:
 367:D:/fchai/work/i-cube/I-CUBE-HUAWEI/Drivers/BSP/Components/hts221\hts221.c **** 
 794              		.loc 1 367 1 view .LVU206
 795 00ba 03B0     		add	sp, sp, #12
 796              	.LCFI20:
 797              		.cfi_remember_state
 798              		.cfi_def_cfa_offset 28
 799              		@ sp needed
 800 00bc BDEC048B 		vldm	sp!, {d8-d9}
 801              	.LCFI21:
 802              		.cfi_restore 82
 803              		.cfi_restore 83
 804              		.cfi_restore 80
 805              		.cfi_restore 81
 806              		.cfi_def_cfa_offset 12
 807 00c0 30BD     		pop	{r4, r5, pc}
 808              	.LVL63:
 809              	.L63:
 810              	.LCFI22:
 811              		.cfi_restore_state
 358:D:/fchai/work/i-cube/I-CUBE-HUAWEI/Drivers/BSP/Components/hts221\hts221.c ****   }
 812              		.loc 1 358 12 view .LVU207
 813 00c2 9FED067A 		vldr.32	s14, .L65+4
 814              	.L61:
 815 00c6 85ED007A 		vstr.32	s14, [r5]
 367:D:/fchai/work/i-cube/I-CUBE-HUAWEI/Drivers/BSP/Components/hts221\hts221.c **** 
 816              		.loc 1 367 1 view .LVU208
 817 00ca 03B0     		add	sp, sp, #12
 818              	.LCFI23:
 819              		.cfi_remember_state
 820              		.cfi_def_cfa_offset 28
 821              		@ sp needed
 822 00cc BDEC048B 		vldm	sp!, {d8-d9}
 823              	.LCFI24:
 824              		.cfi_restore 82
 825              		.cfi_restore 83
 826              		.cfi_restore 80
 827              		.cfi_restore 81
 828              		.cfi_def_cfa_offset 12
 829              	.LVL64:
ARM GAS  T:\msys\tmp\ccPPAP19.s 			page 31


 367:D:/fchai/work/i-cube/I-CUBE-HUAWEI/Drivers/BSP/Components/hts221\hts221.c **** 
 830              		.loc 1 367 1 view .LVU209
 831 00d0 30BD     		pop	{r4, r5, pc}
 832              	.LVL65:
 833              	.L60:
 834              	.LCFI25:
 835              		.cfi_restore_state
 322:D:/fchai/work/i-cube/I-CUBE-HUAWEI/Drivers/BSP/Components/hts221\hts221.c ****   }
 836              		.loc 1 322 12 view .LVU210
 837 00d2 4FF0FF30 		mov	r0, #-1
 838 00d6 F0E7     		b	.L57
 839              	.L66:
 840              		.align	2
 841              	.L65:
 842 00d8 0000C842 		.word	1120403456
 843 00dc 00000000 		.word	0
 844              		.cfi_endproc
 845              	.LFE10:
 847              		.section	.text.HTS221_TEMP_GetTemperature,"ax",%progbits
 848              		.align	1
 849              		.p2align 2,,3
 850              		.global	HTS221_TEMP_GetTemperature
 851              		.syntax unified
 852              		.thumb
 853              		.thumb_func
 854              		.fpu fpv4-sp-d16
 856              	HTS221_TEMP_GetTemperature:
 857              	.LVL66:
 858              	.LFB16:
 472:D:/fchai/work/i-cube/I-CUBE-HUAWEI/Drivers/BSP/Components/hts221\hts221.c ****   hts221_axis1bit16_t data_raw_temperature;
 859              		.loc 1 472 1 is_stmt 1 view -0
 860              		.cfi_startproc
 861              		@ args = 0, pretend = 0, frame = 8
 862              		@ frame_needed = 0, uses_anonymous_args = 0
 473:D:/fchai/work/i-cube/I-CUBE-HUAWEI/Drivers/BSP/Components/hts221\hts221.c ****   hts221_axis1bit16_t coeff;
 863              		.loc 1 473 3 view .LVU212
 474:D:/fchai/work/i-cube/I-CUBE-HUAWEI/Drivers/BSP/Components/hts221\hts221.c ****   lin_t lin_temp;
 864              		.loc 1 474 3 view .LVU213
 475:D:/fchai/work/i-cube/I-CUBE-HUAWEI/Drivers/BSP/Components/hts221\hts221.c **** 
 865              		.loc 1 475 3 view .LVU214
 477:D:/fchai/work/i-cube/I-CUBE-HUAWEI/Drivers/BSP/Components/hts221\hts221.c ****   {
 866              		.loc 1 477 3 view .LVU215
 472:D:/fchai/work/i-cube/I-CUBE-HUAWEI/Drivers/BSP/Components/hts221\hts221.c ****   hts221_axis1bit16_t data_raw_temperature;
 867              		.loc 1 472 1 is_stmt 0 view .LVU216
 868 0000 30B5     		push	{r4, r5, lr}
 869              	.LCFI26:
 870              		.cfi_def_cfa_offset 12
 871              		.cfi_offset 4, -12
 872              		.cfi_offset 5, -8
 873              		.cfi_offset 14, -4
 874 0002 2DED048B 		vpush.64	{d8, d9}
 875              	.LCFI27:
 876              		.cfi_def_cfa_offset 28
 877              		.cfi_offset 80, -28
 878              		.cfi_offset 81, -24
 879              		.cfi_offset 82, -20
 880              		.cfi_offset 83, -16
ARM GAS  T:\msys\tmp\ccPPAP19.s 			page 32


 477:D:/fchai/work/i-cube/I-CUBE-HUAWEI/Drivers/BSP/Components/hts221\hts221.c ****   {
 881              		.loc 1 477 7 view .LVU217
 882 0006 00F11C04 		add	r4, r0, #28
 472:D:/fchai/work/i-cube/I-CUBE-HUAWEI/Drivers/BSP/Components/hts221\hts221.c ****   hts221_axis1bit16_t data_raw_temperature;
 883              		.loc 1 472 1 view .LVU218
 884 000a 83B0     		sub	sp, sp, #12
 885              	.LCFI28:
 886              		.cfi_def_cfa_offset 40
 472:D:/fchai/work/i-cube/I-CUBE-HUAWEI/Drivers/BSP/Components/hts221\hts221.c ****   hts221_axis1bit16_t data_raw_temperature;
 887              		.loc 1 472 1 view .LVU219
 888 000c 0D46     		mov	r5, r1
 477:D:/fchai/work/i-cube/I-CUBE-HUAWEI/Drivers/BSP/Components/hts221\hts221.c ****   {
 889              		.loc 1 477 7 view .LVU220
 890 000e 2046     		mov	r0, r4
 891              	.LVL67:
 477:D:/fchai/work/i-cube/I-CUBE-HUAWEI/Drivers/BSP/Components/hts221\hts221.c ****   {
 892              		.loc 1 477 7 view .LVU221
 893 0010 01A9     		add	r1, sp, #4
 894              	.LVL68:
 477:D:/fchai/work/i-cube/I-CUBE-HUAWEI/Drivers/BSP/Components/hts221\hts221.c ****   {
 895              		.loc 1 477 7 view .LVU222
 896 0012 FFF7FEFF 		bl	hts221_temp_adc_point_0_get
 897              	.LVL69:
 477:D:/fchai/work/i-cube/I-CUBE-HUAWEI/Drivers/BSP/Components/hts221\hts221.c ****   {
 898              		.loc 1 477 6 view .LVU223
 899 0016 0028     		cmp	r0, #0
 900 0018 45D1     		bne	.L70
 482:D:/fchai/work/i-cube/I-CUBE-HUAWEI/Drivers/BSP/Components/hts221\hts221.c **** 
 901              		.loc 1 482 3 is_stmt 1 view .LVU224
 482:D:/fchai/work/i-cube/I-CUBE-HUAWEI/Drivers/BSP/Components/hts221\hts221.c **** 
 902              		.loc 1 482 17 is_stmt 0 view .LVU225
 903 001a BDF90430 		ldrsh	r3, [sp, #4]
 904 001e 08EE103A 		vmov	s16, r3	@ int
 484:D:/fchai/work/i-cube/I-CUBE-HUAWEI/Drivers/BSP/Components/hts221\hts221.c ****   {
 905              		.loc 1 484 7 view .LVU226
 906 0022 01A9     		add	r1, sp, #4
 907 0024 2046     		mov	r0, r4
 482:D:/fchai/work/i-cube/I-CUBE-HUAWEI/Drivers/BSP/Components/hts221\hts221.c **** 
 908              		.loc 1 482 17 view .LVU227
 909 0026 B8EEC89A 		vcvt.f32.s32	s18, s16
 910              	.LVL70:
 484:D:/fchai/work/i-cube/I-CUBE-HUAWEI/Drivers/BSP/Components/hts221\hts221.c ****   {
 911              		.loc 1 484 3 is_stmt 1 view .LVU228
 484:D:/fchai/work/i-cube/I-CUBE-HUAWEI/Drivers/BSP/Components/hts221\hts221.c ****   {
 912              		.loc 1 484 7 is_stmt 0 view .LVU229
 913 002a FFF7FEFF 		bl	hts221_temp_deg_point_0_get
 914              	.LVL71:
 484:D:/fchai/work/i-cube/I-CUBE-HUAWEI/Drivers/BSP/Components/hts221\hts221.c ****   {
 915              		.loc 1 484 6 view .LVU230
 916 002e D0BB     		cbnz	r0, .L70
 489:D:/fchai/work/i-cube/I-CUBE-HUAWEI/Drivers/BSP/Components/hts221\hts221.c **** 
 917              		.loc 1 489 3 is_stmt 1 view .LVU231
 489:D:/fchai/work/i-cube/I-CUBE-HUAWEI/Drivers/BSP/Components/hts221\hts221.c **** 
 918              		.loc 1 489 17 is_stmt 0 view .LVU232
 919 0030 9DF80430 		ldrb	r3, [sp, #4]	@ zero_extendqisi2
 920 0034 08EE903A 		vmov	s17, r3	@ int
 491:D:/fchai/work/i-cube/I-CUBE-HUAWEI/Drivers/BSP/Components/hts221\hts221.c ****   {
ARM GAS  T:\msys\tmp\ccPPAP19.s 			page 33


 921              		.loc 1 491 7 view .LVU233
 922 0038 01A9     		add	r1, sp, #4
 923 003a 2046     		mov	r0, r4
 489:D:/fchai/work/i-cube/I-CUBE-HUAWEI/Drivers/BSP/Components/hts221\hts221.c **** 
 924              		.loc 1 489 17 view .LVU234
 925 003c F8EE689A 		vcvt.f32.u32	s19, s17
 926              	.LVL72:
 491:D:/fchai/work/i-cube/I-CUBE-HUAWEI/Drivers/BSP/Components/hts221\hts221.c ****   {
 927              		.loc 1 491 3 is_stmt 1 view .LVU235
 491:D:/fchai/work/i-cube/I-CUBE-HUAWEI/Drivers/BSP/Components/hts221\hts221.c ****   {
 928              		.loc 1 491 7 is_stmt 0 view .LVU236
 929 0040 FFF7FEFF 		bl	hts221_temp_adc_point_1_get
 930              	.LVL73:
 491:D:/fchai/work/i-cube/I-CUBE-HUAWEI/Drivers/BSP/Components/hts221\hts221.c ****   {
 931              		.loc 1 491 6 view .LVU237
 932 0044 78BB     		cbnz	r0, .L70
 496:D:/fchai/work/i-cube/I-CUBE-HUAWEI/Drivers/BSP/Components/hts221\hts221.c **** 
 933              		.loc 1 496 3 is_stmt 1 view .LVU238
 496:D:/fchai/work/i-cube/I-CUBE-HUAWEI/Drivers/BSP/Components/hts221\hts221.c **** 
 934              		.loc 1 496 17 is_stmt 0 view .LVU239
 935 0046 BDF90430 		ldrsh	r3, [sp, #4]
 936 004a 08EE103A 		vmov	s16, r3	@ int
 498:D:/fchai/work/i-cube/I-CUBE-HUAWEI/Drivers/BSP/Components/hts221\hts221.c ****   {
 937              		.loc 1 498 7 view .LVU240
 938 004e 01A9     		add	r1, sp, #4
 939 0050 2046     		mov	r0, r4
 496:D:/fchai/work/i-cube/I-CUBE-HUAWEI/Drivers/BSP/Components/hts221\hts221.c **** 
 940              		.loc 1 496 17 view .LVU241
 941 0052 B8EEC88A 		vcvt.f32.s32	s16, s16
 942              	.LVL74:
 498:D:/fchai/work/i-cube/I-CUBE-HUAWEI/Drivers/BSP/Components/hts221\hts221.c ****   {
 943              		.loc 1 498 3 is_stmt 1 view .LVU242
 498:D:/fchai/work/i-cube/I-CUBE-HUAWEI/Drivers/BSP/Components/hts221\hts221.c ****   {
 944              		.loc 1 498 7 is_stmt 0 view .LVU243
 945 0056 FFF7FEFF 		bl	hts221_temp_deg_point_1_get
 946              	.LVL75:
 498:D:/fchai/work/i-cube/I-CUBE-HUAWEI/Drivers/BSP/Components/hts221\hts221.c ****   {
 947              		.loc 1 498 6 view .LVU244
 948 005a 20BB     		cbnz	r0, .L70
 503:D:/fchai/work/i-cube/I-CUBE-HUAWEI/Drivers/BSP/Components/hts221\hts221.c **** 
 949              		.loc 1 503 3 is_stmt 1 view .LVU245
 503:D:/fchai/work/i-cube/I-CUBE-HUAWEI/Drivers/BSP/Components/hts221\hts221.c **** 
 950              		.loc 1 503 17 is_stmt 0 view .LVU246
 951 005c 9DF80430 		ldrb	r3, [sp, #4]	@ zero_extendqisi2
 505:D:/fchai/work/i-cube/I-CUBE-HUAWEI/Drivers/BSP/Components/hts221\hts221.c ****   if (hts221_temperature_raw_get(&(pObj->Ctx), data_raw_temperature.u8bit) != HTS221_OK)
 952              		.loc 1 505 9 view .LVU247
 953 0060 ADF80000 		strh	r0, [sp]	@ movhi
 503:D:/fchai/work/i-cube/I-CUBE-HUAWEI/Drivers/BSP/Components/hts221\hts221.c **** 
 954              		.loc 1 503 17 view .LVU248
 955 0064 08EE903A 		vmov	s17, r3	@ int
 506:D:/fchai/work/i-cube/I-CUBE-HUAWEI/Drivers/BSP/Components/hts221\hts221.c ****   {
 956              		.loc 1 506 7 view .LVU249
 957 0068 2046     		mov	r0, r4
 958 006a 6946     		mov	r1, sp
 503:D:/fchai/work/i-cube/I-CUBE-HUAWEI/Drivers/BSP/Components/hts221\hts221.c **** 
 959              		.loc 1 503 17 view .LVU250
 960 006c F8EE688A 		vcvt.f32.u32	s17, s17
ARM GAS  T:\msys\tmp\ccPPAP19.s 			page 34


 961              	.LVL76:
 505:D:/fchai/work/i-cube/I-CUBE-HUAWEI/Drivers/BSP/Components/hts221\hts221.c ****   if (hts221_temperature_raw_get(&(pObj->Ctx), data_raw_temperature.u8bit) != HTS221_OK)
 962              		.loc 1 505 3 is_stmt 1 view .LVU251
 506:D:/fchai/work/i-cube/I-CUBE-HUAWEI/Drivers/BSP/Components/hts221\hts221.c ****   {
 963              		.loc 1 506 3 view .LVU252
 506:D:/fchai/work/i-cube/I-CUBE-HUAWEI/Drivers/BSP/Components/hts221\hts221.c ****   {
 964              		.loc 1 506 7 is_stmt 0 view .LVU253
 965 0070 FFF7FEFF 		bl	hts221_temperature_raw_get
 966              	.LVL77:
 506:D:/fchai/work/i-cube/I-CUBE-HUAWEI/Drivers/BSP/Components/hts221\hts221.c ****   {
 967              		.loc 1 506 6 view .LVU254
 968 0074 B8B9     		cbnz	r0, .L70
 511:D:/fchai/work/i-cube/I-CUBE-HUAWEI/Drivers/BSP/Components/hts221\hts221.c **** 
 969              		.loc 1 511 3 is_stmt 1 view .LVU255
 970              	.LVL78:
 971              	.LBB39:
 972              	.LBI39:
 745:D:/fchai/work/i-cube/I-CUBE-HUAWEI/Drivers/BSP/Components/hts221\hts221.c **** {
 973              		.loc 1 745 14 view .LVU256
 974              	.LBB40:
 975              		.loc 1 747 3 view .LVU257
 976              		.loc 1 747 64 is_stmt 0 view .LVU258
 977 0076 68EEC97A 		vnmul.f32	s15, s17, s18
 978              	.LBE40:
 979              	.LBE39:
 511:D:/fchai/work/i-cube/I-CUBE-HUAWEI/Drivers/BSP/Components/hts221\hts221.c **** 
 980              		.loc 1 511 12 view .LVU259
 981 007a BDF90030 		ldrsh	r3, [sp]
 982              	.LBB44:
 983              	.LBB41:
 984              		.loc 1 747 64 view .LVU260
 985 007e E9EE887A 		vfma.f32	s15, s19, s16
 986              	.LBE41:
 987              	.LBE44:
 511:D:/fchai/work/i-cube/I-CUBE-HUAWEI/Drivers/BSP/Components/hts221\hts221.c **** 
 988              		.loc 1 511 12 view .LVU261
 989 0082 07EE103A 		vmov	s14, r3	@ int
 990              	.LBB45:
 991              	.LBB42:
 992              		.loc 1 747 21 view .LVU262
 993 0086 78EEE98A 		vsub.f32	s17, s17, s19
 994              	.LVL79:
 995              		.loc 1 747 21 view .LVU263
 996              	.LBE42:
 997              	.LBE45:
 511:D:/fchai/work/i-cube/I-CUBE-HUAWEI/Drivers/BSP/Components/hts221\hts221.c **** 
 998              		.loc 1 511 12 view .LVU264
 999 008a B8EEC77A 		vcvt.f32.s32	s14, s14
 1000              	.LBB46:
 1001              	.LBB43:
 1002              		.loc 1 747 99 view .LVU265
 1003 008e 38EE498A 		vsub.f32	s16, s16, s18
 1004              	.LVL80:
 1005              		.loc 1 747 41 view .LVU266
 1006 0092 E7EE287A 		vfma.f32	s15, s14, s17
 1007              	.LVL81:
 1008              		.loc 1 747 88 view .LVU267
ARM GAS  T:\msys\tmp\ccPPAP19.s 			page 35


 1009 0096 87EE887A 		vdiv.f32	s14, s15, s16
 1010              	.LBE43:
 1011              	.LBE46:
 511:D:/fchai/work/i-cube/I-CUBE-HUAWEI/Drivers/BSP/Components/hts221\hts221.c **** 
 1012              		.loc 1 511 10 view .LVU268
 1013 009a 85ED007A 		vstr.32	s14, [r5]
 513:D:/fchai/work/i-cube/I-CUBE-HUAWEI/Drivers/BSP/Components/hts221\hts221.c **** }
 1014              		.loc 1 513 3 is_stmt 1 view .LVU269
 1015              	.LVL82:
 1016              	.L67:
 514:D:/fchai/work/i-cube/I-CUBE-HUAWEI/Drivers/BSP/Components/hts221\hts221.c **** 
 1017              		.loc 1 514 1 is_stmt 0 view .LVU270
 1018 009e 03B0     		add	sp, sp, #12
 1019              	.LCFI29:
 1020              		.cfi_remember_state
 1021              		.cfi_def_cfa_offset 28
 1022              		@ sp needed
 1023 00a0 BDEC048B 		vldm	sp!, {d8-d9}
 1024              	.LCFI30:
 1025              		.cfi_restore 82
 1026              		.cfi_restore 83
 1027              		.cfi_restore 80
 1028              		.cfi_restore 81
 1029              		.cfi_def_cfa_offset 12
 1030 00a4 30BD     		pop	{r4, r5, pc}
 1031              	.LVL83:
 1032              	.L70:
 1033              	.LCFI31:
 1034              		.cfi_restore_state
 479:D:/fchai/work/i-cube/I-CUBE-HUAWEI/Drivers/BSP/Components/hts221\hts221.c ****   }
 1035              		.loc 1 479 12 view .LVU271
 1036 00a6 4FF0FF30 		mov	r0, #-1
 1037 00aa F8E7     		b	.L67
 1038              		.cfi_endproc
 1039              	.LFE16:
 1041              		.section	.text.ReadRegWrap,"ax",%progbits
 1042              		.align	1
 1043              		.p2align 2,,3
 1044              		.syntax unified
 1045              		.thumb
 1046              		.thumb_func
 1047              		.fpu fpv4-sp-d16
 1049              	ReadRegWrap:
 1050              	.LVL84:
 1051              	.LFB27:
 748:D:/fchai/work/i-cube/I-CUBE-HUAWEI/Drivers/BSP/Components/hts221\hts221.c **** }
 749:D:/fchai/work/i-cube/I-CUBE-HUAWEI/Drivers/BSP/Components/hts221\hts221.c **** 
 750:D:/fchai/work/i-cube/I-CUBE-HUAWEI/Drivers/BSP/Components/hts221\hts221.c **** /**
 751:D:/fchai/work/i-cube/I-CUBE-HUAWEI/Drivers/BSP/Components/hts221\hts221.c ****  * @brief  Wrap Read register component function to Bus IO function
 752:D:/fchai/work/i-cube/I-CUBE-HUAWEI/Drivers/BSP/Components/hts221\hts221.c ****  * @param  Handle the device handler
 753:D:/fchai/work/i-cube/I-CUBE-HUAWEI/Drivers/BSP/Components/hts221\hts221.c ****  * @param  Reg the register address
 754:D:/fchai/work/i-cube/I-CUBE-HUAWEI/Drivers/BSP/Components/hts221\hts221.c ****  * @param  pData the stored data pointer
 755:D:/fchai/work/i-cube/I-CUBE-HUAWEI/Drivers/BSP/Components/hts221\hts221.c ****  * @param  Length the length
 756:D:/fchai/work/i-cube/I-CUBE-HUAWEI/Drivers/BSP/Components/hts221\hts221.c ****  * @retval 0 in case of success, an error code otherwise
 757:D:/fchai/work/i-cube/I-CUBE-HUAWEI/Drivers/BSP/Components/hts221\hts221.c ****  */
 758:D:/fchai/work/i-cube/I-CUBE-HUAWEI/Drivers/BSP/Components/hts221\hts221.c **** static int32_t ReadRegWrap(void *Handle, uint8_t Reg, uint8_t *pData, uint16_t Length)
 759:D:/fchai/work/i-cube/I-CUBE-HUAWEI/Drivers/BSP/Components/hts221\hts221.c **** {
ARM GAS  T:\msys\tmp\ccPPAP19.s 			page 36


 1052              		.loc 1 759 1 is_stmt 1 view -0
 1053              		.cfi_startproc
 1054              		@ args = 0, pretend = 0, frame = 0
 1055              		@ frame_needed = 0, uses_anonymous_args = 0
 1056              		@ link register save eliminated.
 760:D:/fchai/work/i-cube/I-CUBE-HUAWEI/Drivers/BSP/Components/hts221\hts221.c ****   HTS221_Object_t *pObj = (HTS221_Object_t *)Handle;
 1057              		.loc 1 760 3 view .LVU273
 761:D:/fchai/work/i-cube/I-CUBE-HUAWEI/Drivers/BSP/Components/hts221\hts221.c **** 
 762:D:/fchai/work/i-cube/I-CUBE-HUAWEI/Drivers/BSP/Components/hts221\hts221.c ****   if (pObj->IO.BusType == (uint32_t)HTS221_I2C_BUS) /* I2C */
 1058              		.loc 1 762 3 view .LVU274
 759:D:/fchai/work/i-cube/I-CUBE-HUAWEI/Drivers/BSP/Components/hts221\hts221.c ****   HTS221_Object_t *pObj = (HTS221_Object_t *)Handle;
 1059              		.loc 1 759 1 is_stmt 0 view .LVU275
 1060 0000 10B4     		push	{r4}
 1061              	.LCFI32:
 1062              		.cfi_def_cfa_offset 4
 1063              		.cfi_offset 4, -4
 1064              		.loc 1 762 6 view .LVU276
 1065 0002 8468     		ldr	r4, [r0, #8]
 1066 0004 3CB9     		cbnz	r4, .L73
 1067              	.LVL85:
 1068              	.LBB49:
 1069              	.LBI49:
 758:D:/fchai/work/i-cube/I-CUBE-HUAWEI/Drivers/BSP/Components/hts221\hts221.c **** {
 1070              		.loc 1 758 16 is_stmt 1 view .LVU277
 1071              	.LBB50:
 763:D:/fchai/work/i-cube/I-CUBE-HUAWEI/Drivers/BSP/Components/hts221\hts221.c ****   {
 764:D:/fchai/work/i-cube/I-CUBE-HUAWEI/Drivers/BSP/Components/hts221\hts221.c ****     /* Enable Multi-byte read */
 765:D:/fchai/work/i-cube/I-CUBE-HUAWEI/Drivers/BSP/Components/hts221\hts221.c ****     return pObj->IO.ReadReg(pObj->IO.Address, (Reg | 0x80U), pData, Length);
 1072              		.loc 1 765 5 view .LVU278
 1073              		.loc 1 765 12 is_stmt 0 view .LVU279
 1074 0006 41F08001 		orr	r1, r1, #128
 1075              	.LVL86:
 1076              	.L75:
 1077              		.loc 1 765 12 view .LVU280
 1078              	.LBE50:
 1079              	.LBE49:
 766:D:/fchai/work/i-cube/I-CUBE-HUAWEI/Drivers/BSP/Components/hts221\hts221.c ****   }
 767:D:/fchai/work/i-cube/I-CUBE-HUAWEI/Drivers/BSP/Components/hts221\hts221.c ****   else /* SPI 3-Wires */
 768:D:/fchai/work/i-cube/I-CUBE-HUAWEI/Drivers/BSP/Components/hts221\hts221.c ****   {
 769:D:/fchai/work/i-cube/I-CUBE-HUAWEI/Drivers/BSP/Components/hts221\hts221.c ****     /* Enable Multi-byte read */
 770:D:/fchai/work/i-cube/I-CUBE-HUAWEI/Drivers/BSP/Components/hts221\hts221.c ****     return pObj->IO.ReadReg(pObj->IO.Address, (Reg | 0x40U), pData, Length);
 1080              		.loc 1 770 12 view .LVU281
 1081 000a 4469     		ldr	r4, [r0, #20]
 1082 000c 007B     		ldrb	r0, [r0, #12]	@ zero_extendqisi2
 1083              	.LVL87:
 1084              		.loc 1 770 12 view .LVU282
 1085 000e A446     		mov	ip, r4
 771:D:/fchai/work/i-cube/I-CUBE-HUAWEI/Drivers/BSP/Components/hts221\hts221.c ****   }
 772:D:/fchai/work/i-cube/I-CUBE-HUAWEI/Drivers/BSP/Components/hts221\hts221.c **** }
 1086              		.loc 1 772 1 view .LVU283
 1087 0010 5DF8044B 		ldr	r4, [sp], #4
 1088              	.LCFI33:
 1089              		.cfi_remember_state
 1090              		.cfi_restore 4
 1091              		.cfi_def_cfa_offset 0
 770:D:/fchai/work/i-cube/I-CUBE-HUAWEI/Drivers/BSP/Components/hts221\hts221.c ****   }
 1092              		.loc 1 770 12 view .LVU284
ARM GAS  T:\msys\tmp\ccPPAP19.s 			page 37


 1093 0014 6047     		bx	ip
 1094              	.LVL88:
 1095              	.L73:
 1096              	.LCFI34:
 1097              		.cfi_restore_state
 770:D:/fchai/work/i-cube/I-CUBE-HUAWEI/Drivers/BSP/Components/hts221\hts221.c ****   }
 1098              		.loc 1 770 5 is_stmt 1 view .LVU285
 770:D:/fchai/work/i-cube/I-CUBE-HUAWEI/Drivers/BSP/Components/hts221\hts221.c ****   }
 1099              		.loc 1 770 12 is_stmt 0 view .LVU286
 1100 0016 41F04001 		orr	r1, r1, #64
 1101              	.LVL89:
 770:D:/fchai/work/i-cube/I-CUBE-HUAWEI/Drivers/BSP/Components/hts221\hts221.c ****   }
 1102              		.loc 1 770 12 view .LVU287
 1103 001a F6E7     		b	.L75
 1104              		.cfi_endproc
 1105              	.LFE27:
 1107              		.section	.text.WriteRegWrap,"ax",%progbits
 1108              		.align	1
 1109              		.p2align 2,,3
 1110              		.syntax unified
 1111              		.thumb
 1112              		.thumb_func
 1113              		.fpu fpv4-sp-d16
 1115              	WriteRegWrap:
 1116              	.LVL90:
 1117              	.LFB28:
 773:D:/fchai/work/i-cube/I-CUBE-HUAWEI/Drivers/BSP/Components/hts221\hts221.c **** 
 774:D:/fchai/work/i-cube/I-CUBE-HUAWEI/Drivers/BSP/Components/hts221\hts221.c **** /**
 775:D:/fchai/work/i-cube/I-CUBE-HUAWEI/Drivers/BSP/Components/hts221\hts221.c ****  * @brief  Wrap Write register component function to Bus IO function
 776:D:/fchai/work/i-cube/I-CUBE-HUAWEI/Drivers/BSP/Components/hts221\hts221.c ****  * @param  Handle the device handler
 777:D:/fchai/work/i-cube/I-CUBE-HUAWEI/Drivers/BSP/Components/hts221\hts221.c ****  * @param  Reg the register address
 778:D:/fchai/work/i-cube/I-CUBE-HUAWEI/Drivers/BSP/Components/hts221\hts221.c ****  * @param  pData the stored data pointer
 779:D:/fchai/work/i-cube/I-CUBE-HUAWEI/Drivers/BSP/Components/hts221\hts221.c ****  * @param  Length the length
 780:D:/fchai/work/i-cube/I-CUBE-HUAWEI/Drivers/BSP/Components/hts221\hts221.c ****  * @retval 0 in case of success, an error code otherwise
 781:D:/fchai/work/i-cube/I-CUBE-HUAWEI/Drivers/BSP/Components/hts221\hts221.c ****  */
 782:D:/fchai/work/i-cube/I-CUBE-HUAWEI/Drivers/BSP/Components/hts221\hts221.c **** static int32_t WriteRegWrap(void *Handle, uint8_t Reg, uint8_t *pData, uint16_t Length)
 783:D:/fchai/work/i-cube/I-CUBE-HUAWEI/Drivers/BSP/Components/hts221\hts221.c **** {
 1118              		.loc 1 783 1 is_stmt 1 view -0
 1119              		.cfi_startproc
 1120              		@ args = 0, pretend = 0, frame = 0
 1121              		@ frame_needed = 0, uses_anonymous_args = 0
 1122              		@ link register save eliminated.
 784:D:/fchai/work/i-cube/I-CUBE-HUAWEI/Drivers/BSP/Components/hts221\hts221.c ****   HTS221_Object_t *pObj = (HTS221_Object_t *)Handle;
 1123              		.loc 1 784 3 view .LVU289
 785:D:/fchai/work/i-cube/I-CUBE-HUAWEI/Drivers/BSP/Components/hts221\hts221.c **** 
 786:D:/fchai/work/i-cube/I-CUBE-HUAWEI/Drivers/BSP/Components/hts221\hts221.c ****   if (pObj->IO.BusType == (uint32_t)HTS221_I2C_BUS) /* I2C */
 1124              		.loc 1 786 3 view .LVU290
 783:D:/fchai/work/i-cube/I-CUBE-HUAWEI/Drivers/BSP/Components/hts221\hts221.c ****   HTS221_Object_t *pObj = (HTS221_Object_t *)Handle;
 1125              		.loc 1 783 1 is_stmt 0 view .LVU291
 1126 0000 10B4     		push	{r4}
 1127              	.LCFI35:
 1128              		.cfi_def_cfa_offset 4
 1129              		.cfi_offset 4, -4
 1130              		.loc 1 786 6 view .LVU292
 1131 0002 8468     		ldr	r4, [r0, #8]
 1132 0004 3CB9     		cbnz	r4, .L77
 1133              	.LVL91:
ARM GAS  T:\msys\tmp\ccPPAP19.s 			page 38


 1134              	.LBB53:
 1135              	.LBI53:
 782:D:/fchai/work/i-cube/I-CUBE-HUAWEI/Drivers/BSP/Components/hts221\hts221.c **** {
 1136              		.loc 1 782 16 is_stmt 1 view .LVU293
 1137              	.LBB54:
 787:D:/fchai/work/i-cube/I-CUBE-HUAWEI/Drivers/BSP/Components/hts221\hts221.c ****   {
 788:D:/fchai/work/i-cube/I-CUBE-HUAWEI/Drivers/BSP/Components/hts221\hts221.c ****     /* Enable Multi-byte write */
 789:D:/fchai/work/i-cube/I-CUBE-HUAWEI/Drivers/BSP/Components/hts221\hts221.c ****     return pObj->IO.WriteReg(pObj->IO.Address, (Reg | 0x80U), pData, Length);
 1138              		.loc 1 789 5 view .LVU294
 1139              		.loc 1 789 12 is_stmt 0 view .LVU295
 1140 0006 41F08001 		orr	r1, r1, #128
 1141              	.LVL92:
 1142              	.L79:
 1143              		.loc 1 789 12 view .LVU296
 1144              	.LBE54:
 1145              	.LBE53:
 790:D:/fchai/work/i-cube/I-CUBE-HUAWEI/Drivers/BSP/Components/hts221\hts221.c ****   }
 791:D:/fchai/work/i-cube/I-CUBE-HUAWEI/Drivers/BSP/Components/hts221\hts221.c ****   else /* SPI 3-Wires */
 792:D:/fchai/work/i-cube/I-CUBE-HUAWEI/Drivers/BSP/Components/hts221\hts221.c ****   {
 793:D:/fchai/work/i-cube/I-CUBE-HUAWEI/Drivers/BSP/Components/hts221\hts221.c ****     /* Enable Multi-byte write */
 794:D:/fchai/work/i-cube/I-CUBE-HUAWEI/Drivers/BSP/Components/hts221\hts221.c ****     return pObj->IO.WriteReg(pObj->IO.Address, (Reg | 0x40U), pData, Length);
 1146              		.loc 1 794 12 view .LVU297
 1147 000a 0469     		ldr	r4, [r0, #16]
 1148 000c 007B     		ldrb	r0, [r0, #12]	@ zero_extendqisi2
 1149              	.LVL93:
 1150              		.loc 1 794 12 view .LVU298
 1151 000e A446     		mov	ip, r4
 795:D:/fchai/work/i-cube/I-CUBE-HUAWEI/Drivers/BSP/Components/hts221\hts221.c ****   }
 796:D:/fchai/work/i-cube/I-CUBE-HUAWEI/Drivers/BSP/Components/hts221\hts221.c **** }
 1152              		.loc 1 796 1 view .LVU299
 1153 0010 5DF8044B 		ldr	r4, [sp], #4
 1154              	.LCFI36:
 1155              		.cfi_remember_state
 1156              		.cfi_restore 4
 1157              		.cfi_def_cfa_offset 0
 794:D:/fchai/work/i-cube/I-CUBE-HUAWEI/Drivers/BSP/Components/hts221\hts221.c ****   }
 1158              		.loc 1 794 12 view .LVU300
 1159 0014 6047     		bx	ip
 1160              	.LVL94:
 1161              	.L77:
 1162              	.LCFI37:
 1163              		.cfi_restore_state
 794:D:/fchai/work/i-cube/I-CUBE-HUAWEI/Drivers/BSP/Components/hts221\hts221.c ****   }
 1164              		.loc 1 794 5 is_stmt 1 view .LVU301
 794:D:/fchai/work/i-cube/I-CUBE-HUAWEI/Drivers/BSP/Components/hts221\hts221.c ****   }
 1165              		.loc 1 794 12 is_stmt 0 view .LVU302
 1166 0016 41F04001 		orr	r1, r1, #64
 1167              	.LVL95:
 794:D:/fchai/work/i-cube/I-CUBE-HUAWEI/Drivers/BSP/Components/hts221\hts221.c ****   }
 1168              		.loc 1 794 12 view .LVU303
 1169 001a F6E7     		b	.L79
 1170              		.cfi_endproc
 1171              	.LFE28:
 1173              		.section	.text.HTS221_DeInit,"ax",%progbits
 1174              		.align	1
 1175              		.p2align 2,,3
 1176              		.global	HTS221_DeInit
ARM GAS  T:\msys\tmp\ccPPAP19.s 			page 39


 1177              		.syntax unified
 1178              		.thumb
 1179              		.thumb_func
 1180              		.fpu fpv4-sp-d16
 1182              	HTS221_DeInit:
 1183              	.LVL96:
 1184              	.LFB2:
 154:D:/fchai/work/i-cube/I-CUBE-HUAWEI/Drivers/BSP/Components/hts221\hts221.c ****   if (pObj->is_initialized == 1U)
 1185              		.loc 1 154 1 is_stmt 1 view -0
 1186              		.cfi_startproc
 1187              		@ args = 0, pretend = 0, frame = 0
 1188              		@ frame_needed = 0, uses_anonymous_args = 0
 155:D:/fchai/work/i-cube/I-CUBE-HUAWEI/Drivers/BSP/Components/hts221\hts221.c ****   {
 1189              		.loc 1 155 3 view .LVU305
 154:D:/fchai/work/i-cube/I-CUBE-HUAWEI/Drivers/BSP/Components/hts221\hts221.c ****   if (pObj->is_initialized == 1U)
 1190              		.loc 1 154 1 is_stmt 0 view .LVU306
 1191 0000 10B5     		push	{r4, lr}
 1192              	.LCFI38:
 1193              		.cfi_def_cfa_offset 8
 1194              		.cfi_offset 4, -8
 1195              		.cfi_offset 14, -4
 155:D:/fchai/work/i-cube/I-CUBE-HUAWEI/Drivers/BSP/Components/hts221\hts221.c ****   {
 1196              		.loc 1 155 6 view .LVU307
 1197 0002 90F82830 		ldrb	r3, [r0, #40]	@ zero_extendqisi2
 1198 0006 012B     		cmp	r3, #1
 154:D:/fchai/work/i-cube/I-CUBE-HUAWEI/Drivers/BSP/Components/hts221\hts221.c ****   if (pObj->is_initialized == 1U)
 1199              		.loc 1 154 1 view .LVU308
 1200 0008 0446     		mov	r4, r0
 155:D:/fchai/work/i-cube/I-CUBE-HUAWEI/Drivers/BSP/Components/hts221\hts221.c ****   {
 1201              		.loc 1 155 6 view .LVU309
 1202 000a 03D0     		beq	.L98
 1203              	.LVL97:
 1204              	.L82:
 168:D:/fchai/work/i-cube/I-CUBE-HUAWEI/Drivers/BSP/Components/hts221\hts221.c **** 
 1205              		.loc 1 168 3 is_stmt 1 view .LVU310
 168:D:/fchai/work/i-cube/I-CUBE-HUAWEI/Drivers/BSP/Components/hts221\hts221.c **** 
 1206              		.loc 1 168 24 is_stmt 0 view .LVU311
 1207 000c 0020     		movs	r0, #0
 1208 000e 84F82800 		strb	r0, [r4, #40]
 170:D:/fchai/work/i-cube/I-CUBE-HUAWEI/Drivers/BSP/Components/hts221\hts221.c **** }
 1209              		.loc 1 170 3 is_stmt 1 view .LVU312
 171:D:/fchai/work/i-cube/I-CUBE-HUAWEI/Drivers/BSP/Components/hts221\hts221.c **** 
 1210              		.loc 1 171 1 is_stmt 0 view .LVU313
 1211 0012 10BD     		pop	{r4, pc}
 1212              	.LVL98:
 1213              	.L98:
 157:D:/fchai/work/i-cube/I-CUBE-HUAWEI/Drivers/BSP/Components/hts221\hts221.c ****     {
 1214              		.loc 1 157 5 is_stmt 1 view .LVU314
 1215              	.LBB63:
 1216              	.LBI63:
 262:D:/fchai/work/i-cube/I-CUBE-HUAWEI/Drivers/BSP/Components/hts221\hts221.c **** {
 1217              		.loc 1 262 9 view .LVU315
 1218              	.LBB64:
 265:D:/fchai/work/i-cube/I-CUBE-HUAWEI/Drivers/BSP/Components/hts221\hts221.c ****   {
 1219              		.loc 1 265 3 view .LVU316
 265:D:/fchai/work/i-cube/I-CUBE-HUAWEI/Drivers/BSP/Components/hts221\hts221.c ****   {
 1220              		.loc 1 265 6 is_stmt 0 view .LVU317
ARM GAS  T:\msys\tmp\ccPPAP19.s 			page 40


 1221 0014 90F82930 		ldrb	r3, [r0, #41]	@ zero_extendqisi2
 1222 0018 90F82A10 		ldrb	r1, [r0, #42]	@ zero_extendqisi2
 1223 001c 1BB1     		cbz	r3, .L87
 1224              	.LVL99:
 1225              	.LBB65:
 1226              	.LBI65:
 262:D:/fchai/work/i-cube/I-CUBE-HUAWEI/Drivers/BSP/Components/hts221\hts221.c **** {
 1227              		.loc 1 262 9 is_stmt 1 view .LVU318
 1228              	.LBB66:
 272:D:/fchai/work/i-cube/I-CUBE-HUAWEI/Drivers/BSP/Components/hts221\hts221.c ****   {
 1229              		.loc 1 272 3 view .LVU319
 272:D:/fchai/work/i-cube/I-CUBE-HUAWEI/Drivers/BSP/Components/hts221\hts221.c ****   {
 1230              		.loc 1 272 6 is_stmt 0 view .LVU320
 1231 001e 69B1     		cbz	r1, .L99
 1232              	.LVL100:
 1233              	.L84:
 281:D:/fchai/work/i-cube/I-CUBE-HUAWEI/Drivers/BSP/Components/hts221\hts221.c **** 
 1234              		.loc 1 281 3 is_stmt 1 view .LVU321
 281:D:/fchai/work/i-cube/I-CUBE-HUAWEI/Drivers/BSP/Components/hts221\hts221.c **** 
 1235              		.loc 1 281 24 is_stmt 0 view .LVU322
 1236 0020 0023     		movs	r3, #0
 1237 0022 84F82930 		strb	r3, [r4, #41]
 283:D:/fchai/work/i-cube/I-CUBE-HUAWEI/Drivers/BSP/Components/hts221\hts221.c **** }
 1238              		.loc 1 283 3 is_stmt 1 view .LVU323
 1239              	.LVL101:
 1240              	.L87:
 283:D:/fchai/work/i-cube/I-CUBE-HUAWEI/Drivers/BSP/Components/hts221\hts221.c **** }
 1241              		.loc 1 283 3 is_stmt 0 view .LVU324
 1242              	.LBE66:
 1243              	.LBE65:
 1244              	.LBE64:
 1245              	.LBE63:
 162:D:/fchai/work/i-cube/I-CUBE-HUAWEI/Drivers/BSP/Components/hts221\hts221.c ****     {
 1246              		.loc 1 162 5 is_stmt 1 view .LVU325
 1247              	.LBB70:
 1248              	.LBI70:
 419:D:/fchai/work/i-cube/I-CUBE-HUAWEI/Drivers/BSP/Components/hts221\hts221.c **** {
 1249              		.loc 1 419 9 view .LVU326
 1250              	.LBB71:
 422:D:/fchai/work/i-cube/I-CUBE-HUAWEI/Drivers/BSP/Components/hts221\hts221.c ****   {
 1251              		.loc 1 422 3 view .LVU327
 422:D:/fchai/work/i-cube/I-CUBE-HUAWEI/Drivers/BSP/Components/hts221\hts221.c ****   {
 1252              		.loc 1 422 6 is_stmt 0 view .LVU328
 1253 0026 0029     		cmp	r1, #0
 1254 0028 F0D0     		beq	.L82
 1255              	.LVL102:
 1256              	.LBB72:
 1257              	.LBI72:
 419:D:/fchai/work/i-cube/I-CUBE-HUAWEI/Drivers/BSP/Components/hts221\hts221.c **** {
 1258              		.loc 1 419 9 is_stmt 1 view .LVU329
 1259              	.LBB73:
 429:D:/fchai/work/i-cube/I-CUBE-HUAWEI/Drivers/BSP/Components/hts221\hts221.c ****   {
 1260              		.loc 1 429 3 view .LVU330
 432:D:/fchai/work/i-cube/I-CUBE-HUAWEI/Drivers/BSP/Components/hts221\hts221.c ****     {
 1261              		.loc 1 432 5 view .LVU331
 432:D:/fchai/work/i-cube/I-CUBE-HUAWEI/Drivers/BSP/Components/hts221\hts221.c ****     {
 1262              		.loc 1 432 9 is_stmt 0 view .LVU332
ARM GAS  T:\msys\tmp\ccPPAP19.s 			page 41


 1263 002a 0021     		movs	r1, #0
 1264 002c 04F11C00 		add	r0, r4, #28
 1265 0030 FFF7FEFF 		bl	hts221_power_on_set
 1266              	.LVL103:
 432:D:/fchai/work/i-cube/I-CUBE-HUAWEI/Drivers/BSP/Components/hts221\hts221.c ****     {
 1267              		.loc 1 432 8 view .LVU333
 1268 0034 48B9     		cbnz	r0, .L88
 438:D:/fchai/work/i-cube/I-CUBE-HUAWEI/Drivers/BSP/Components/hts221\hts221.c **** 
 1269              		.loc 1 438 3 is_stmt 1 view .LVU334
 438:D:/fchai/work/i-cube/I-CUBE-HUAWEI/Drivers/BSP/Components/hts221\hts221.c **** 
 1270              		.loc 1 438 25 is_stmt 0 view .LVU335
 1271 0036 84F82A00 		strb	r0, [r4, #42]
 440:D:/fchai/work/i-cube/I-CUBE-HUAWEI/Drivers/BSP/Components/hts221\hts221.c **** }
 1272              		.loc 1 440 3 is_stmt 1 view .LVU336
 1273              	.LVL104:
 440:D:/fchai/work/i-cube/I-CUBE-HUAWEI/Drivers/BSP/Components/hts221\hts221.c **** }
 1274              		.loc 1 440 3 is_stmt 0 view .LVU337
 1275 003a E7E7     		b	.L82
 1276              	.LVL105:
 1277              	.L99:
 440:D:/fchai/work/i-cube/I-CUBE-HUAWEI/Drivers/BSP/Components/hts221\hts221.c **** }
 1278              		.loc 1 440 3 view .LVU338
 1279              	.LBE73:
 1280              	.LBE72:
 1281              	.LBE71:
 1282              	.LBE70:
 1283              	.LBB74:
 1284              	.LBB69:
 1285              	.LBB68:
 1286              	.LBB67:
 275:D:/fchai/work/i-cube/I-CUBE-HUAWEI/Drivers/BSP/Components/hts221\hts221.c ****     {
 1287              		.loc 1 275 5 is_stmt 1 view .LVU339
 275:D:/fchai/work/i-cube/I-CUBE-HUAWEI/Drivers/BSP/Components/hts221\hts221.c ****     {
 1288              		.loc 1 275 9 is_stmt 0 view .LVU340
 1289 003c 1C30     		adds	r0, r0, #28
 1290              	.LVL106:
 275:D:/fchai/work/i-cube/I-CUBE-HUAWEI/Drivers/BSP/Components/hts221\hts221.c ****     {
 1291              		.loc 1 275 9 view .LVU341
 1292 003e FFF7FEFF 		bl	hts221_power_on_set
 1293              	.LVL107:
 275:D:/fchai/work/i-cube/I-CUBE-HUAWEI/Drivers/BSP/Components/hts221\hts221.c ****     {
 1294              		.loc 1 275 8 view .LVU342
 1295 0042 10B9     		cbnz	r0, .L88
 1296 0044 94F82A10 		ldrb	r1, [r4, #42]	@ zero_extendqisi2
 1297 0048 EAE7     		b	.L84
 1298              	.LVL108:
 1299              	.L88:
 275:D:/fchai/work/i-cube/I-CUBE-HUAWEI/Drivers/BSP/Components/hts221\hts221.c ****     {
 1300              		.loc 1 275 8 view .LVU343
 1301              	.LBE67:
 1302              	.LBE68:
 1303              	.LBE69:
 1304              	.LBE74:
 159:D:/fchai/work/i-cube/I-CUBE-HUAWEI/Drivers/BSP/Components/hts221\hts221.c ****     }
 1305              		.loc 1 159 14 view .LVU344
 1306 004a 4FF0FF30 		mov	r0, #-1
 171:D:/fchai/work/i-cube/I-CUBE-HUAWEI/Drivers/BSP/Components/hts221\hts221.c **** 
ARM GAS  T:\msys\tmp\ccPPAP19.s 			page 42


 1307              		.loc 1 171 1 view .LVU345
 1308 004e 10BD     		pop	{r4, pc}
 171:D:/fchai/work/i-cube/I-CUBE-HUAWEI/Drivers/BSP/Components/hts221\hts221.c **** 
 1309              		.loc 1 171 1 view .LVU346
 1310              		.cfi_endproc
 1311              	.LFE2:
 1313              		.section	.text.HTS221_TEMP_GetOutputDataRate,"ax",%progbits
 1314              		.align	1
 1315              		.p2align 2,,3
 1316              		.global	HTS221_TEMP_GetOutputDataRate
 1317              		.syntax unified
 1318              		.thumb
 1319              		.thumb_func
 1320              		.fpu fpv4-sp-d16
 1322              	HTS221_TEMP_GetOutputDataRate:
 1323              	.LFB34:
 1324              		.cfi_startproc
 1325              		@ args = 0, pretend = 0, frame = 0
 1326              		@ frame_needed = 0, uses_anonymous_args = 0
 1327              		@ link register save eliminated.
 1328 0000 FFF7FEBF 		b	HTS221_GetOutputDataRate
 1329              		.cfi_endproc
 1330              	.LFE34:
 1332              		.section	.text.HTS221_HUM_Disable,"ax",%progbits
 1333              		.align	1
 1334              		.p2align 2,,3
 1335              		.global	HTS221_HUM_Disable
 1336              		.syntax unified
 1337              		.thumb
 1338              		.thumb_func
 1339              		.fpu fpv4-sp-d16
 1341              	HTS221_HUM_Disable:
 1342              	.LVL109:
 1343              	.LFB7:
 263:D:/fchai/work/i-cube/I-CUBE-HUAWEI/Drivers/BSP/Components/hts221\hts221.c ****   /* Check if the component is already disabled */
 1344              		.loc 1 263 1 is_stmt 1 view -0
 1345              		.cfi_startproc
 1346              		@ args = 0, pretend = 0, frame = 0
 1347              		@ frame_needed = 0, uses_anonymous_args = 0
 265:D:/fchai/work/i-cube/I-CUBE-HUAWEI/Drivers/BSP/Components/hts221\hts221.c ****   {
 1348              		.loc 1 265 3 view .LVU348
 263:D:/fchai/work/i-cube/I-CUBE-HUAWEI/Drivers/BSP/Components/hts221\hts221.c ****   /* Check if the component is already disabled */
 1349              		.loc 1 263 1 is_stmt 0 view .LVU349
 1350 0000 10B5     		push	{r4, lr}
 1351              	.LCFI39:
 1352              		.cfi_def_cfa_offset 8
 1353              		.cfi_offset 4, -8
 1354              		.cfi_offset 14, -4
 263:D:/fchai/work/i-cube/I-CUBE-HUAWEI/Drivers/BSP/Components/hts221\hts221.c ****   /* Check if the component is already disabled */
 1355              		.loc 1 263 1 view .LVU350
 1356 0002 0446     		mov	r4, r0
 265:D:/fchai/work/i-cube/I-CUBE-HUAWEI/Drivers/BSP/Components/hts221\hts221.c ****   {
 1357              		.loc 1 265 6 view .LVU351
 1358 0004 90F82900 		ldrb	r0, [r0, #41]	@ zero_extendqisi2
 1359              	.LVL110:
 265:D:/fchai/work/i-cube/I-CUBE-HUAWEI/Drivers/BSP/Components/hts221\hts221.c ****   {
 1360              		.loc 1 265 6 view .LVU352
ARM GAS  T:\msys\tmp\ccPPAP19.s 			page 43


 1361 0008 30B1     		cbz	r0, .L101
 1362              	.LVL111:
 1363              	.LBB77:
 1364              	.LBI77:
 262:D:/fchai/work/i-cube/I-CUBE-HUAWEI/Drivers/BSP/Components/hts221\hts221.c **** {
 1365              		.loc 1 262 9 is_stmt 1 view .LVU353
 1366              	.LBB78:
 272:D:/fchai/work/i-cube/I-CUBE-HUAWEI/Drivers/BSP/Components/hts221\hts221.c ****   {
 1367              		.loc 1 272 3 view .LVU354
 272:D:/fchai/work/i-cube/I-CUBE-HUAWEI/Drivers/BSP/Components/hts221\hts221.c ****   {
 1368              		.loc 1 272 6 is_stmt 0 view .LVU355
 1369 000a 94F82A10 		ldrb	r1, [r4, #42]	@ zero_extendqisi2
 1370 000e 21B1     		cbz	r1, .L103
 1371              	.L104:
 281:D:/fchai/work/i-cube/I-CUBE-HUAWEI/Drivers/BSP/Components/hts221\hts221.c **** 
 1372              		.loc 1 281 3 is_stmt 1 view .LVU356
 281:D:/fchai/work/i-cube/I-CUBE-HUAWEI/Drivers/BSP/Components/hts221\hts221.c **** 
 1373              		.loc 1 281 24 is_stmt 0 view .LVU357
 1374 0010 0023     		movs	r3, #0
 1375 0012 84F82930 		strb	r3, [r4, #41]
 283:D:/fchai/work/i-cube/I-CUBE-HUAWEI/Drivers/BSP/Components/hts221\hts221.c **** }
 1376              		.loc 1 283 3 is_stmt 1 view .LVU358
 283:D:/fchai/work/i-cube/I-CUBE-HUAWEI/Drivers/BSP/Components/hts221\hts221.c **** }
 1377              		.loc 1 283 10 is_stmt 0 view .LVU359
 1378 0016 1846     		mov	r0, r3
 1379              	.LVL112:
 1380              	.L101:
 283:D:/fchai/work/i-cube/I-CUBE-HUAWEI/Drivers/BSP/Components/hts221\hts221.c **** }
 1381              		.loc 1 283 10 view .LVU360
 1382              	.LBE78:
 1383              	.LBE77:
 284:D:/fchai/work/i-cube/I-CUBE-HUAWEI/Drivers/BSP/Components/hts221\hts221.c **** 
 1384              		.loc 1 284 1 view .LVU361
 1385 0018 10BD     		pop	{r4, pc}
 1386              	.LVL113:
 1387              	.L103:
 1388              	.LBB80:
 1389              	.LBB79:
 275:D:/fchai/work/i-cube/I-CUBE-HUAWEI/Drivers/BSP/Components/hts221\hts221.c ****     {
 1390              		.loc 1 275 5 is_stmt 1 view .LVU362
 275:D:/fchai/work/i-cube/I-CUBE-HUAWEI/Drivers/BSP/Components/hts221\hts221.c ****     {
 1391              		.loc 1 275 9 is_stmt 0 view .LVU363
 1392 001a 04F11C00 		add	r0, r4, #28
 1393 001e FFF7FEFF 		bl	hts221_power_on_set
 1394              	.LVL114:
 275:D:/fchai/work/i-cube/I-CUBE-HUAWEI/Drivers/BSP/Components/hts221\hts221.c ****     {
 1395              		.loc 1 275 8 view .LVU364
 1396 0022 0028     		cmp	r0, #0
 1397 0024 F4D0     		beq	.L104
 277:D:/fchai/work/i-cube/I-CUBE-HUAWEI/Drivers/BSP/Components/hts221\hts221.c ****     }
 1398              		.loc 1 277 14 view .LVU365
 1399 0026 4FF0FF30 		mov	r0, #-1
 1400              	.LBE79:
 1401              	.LBE80:
 284:D:/fchai/work/i-cube/I-CUBE-HUAWEI/Drivers/BSP/Components/hts221\hts221.c **** 
 1402              		.loc 1 284 1 view .LVU366
 1403 002a 10BD     		pop	{r4, pc}
ARM GAS  T:\msys\tmp\ccPPAP19.s 			page 44


 284:D:/fchai/work/i-cube/I-CUBE-HUAWEI/Drivers/BSP/Components/hts221\hts221.c **** 
 1404              		.loc 1 284 1 view .LVU367
 1405              		.cfi_endproc
 1406              	.LFE7:
 1408              		.section	.text.HTS221_TEMP_Disable,"ax",%progbits
 1409              		.align	1
 1410              		.p2align 2,,3
 1411              		.global	HTS221_TEMP_Disable
 1412              		.syntax unified
 1413              		.thumb
 1414              		.thumb_func
 1415              		.fpu fpv4-sp-d16
 1417              	HTS221_TEMP_Disable:
 1418              	.LVL115:
 1419              	.LFB13:
 420:D:/fchai/work/i-cube/I-CUBE-HUAWEI/Drivers/BSP/Components/hts221\hts221.c ****   /* Check if the component is already disabled */
 1420              		.loc 1 420 1 is_stmt 1 view -0
 1421              		.cfi_startproc
 1422              		@ args = 0, pretend = 0, frame = 0
 1423              		@ frame_needed = 0, uses_anonymous_args = 0
 422:D:/fchai/work/i-cube/I-CUBE-HUAWEI/Drivers/BSP/Components/hts221\hts221.c ****   {
 1424              		.loc 1 422 3 view .LVU369
 420:D:/fchai/work/i-cube/I-CUBE-HUAWEI/Drivers/BSP/Components/hts221\hts221.c ****   /* Check if the component is already disabled */
 1425              		.loc 1 420 1 is_stmt 0 view .LVU370
 1426 0000 10B5     		push	{r4, lr}
 1427              	.LCFI40:
 1428              		.cfi_def_cfa_offset 8
 1429              		.cfi_offset 4, -8
 1430              		.cfi_offset 14, -4
 420:D:/fchai/work/i-cube/I-CUBE-HUAWEI/Drivers/BSP/Components/hts221\hts221.c ****   /* Check if the component is already disabled */
 1431              		.loc 1 420 1 view .LVU371
 1432 0002 0446     		mov	r4, r0
 422:D:/fchai/work/i-cube/I-CUBE-HUAWEI/Drivers/BSP/Components/hts221\hts221.c ****   {
 1433              		.loc 1 422 6 view .LVU372
 1434 0004 90F82A00 		ldrb	r0, [r0, #42]	@ zero_extendqisi2
 1435              	.LVL116:
 422:D:/fchai/work/i-cube/I-CUBE-HUAWEI/Drivers/BSP/Components/hts221\hts221.c ****   {
 1436              		.loc 1 422 6 view .LVU373
 1437 0008 30B1     		cbz	r0, .L110
 1438              	.LVL117:
 1439              	.LBB83:
 1440              	.LBI83:
 419:D:/fchai/work/i-cube/I-CUBE-HUAWEI/Drivers/BSP/Components/hts221\hts221.c **** {
 1441              		.loc 1 419 9 is_stmt 1 view .LVU374
 1442              	.LBB84:
 429:D:/fchai/work/i-cube/I-CUBE-HUAWEI/Drivers/BSP/Components/hts221\hts221.c ****   {
 1443              		.loc 1 429 3 view .LVU375
 429:D:/fchai/work/i-cube/I-CUBE-HUAWEI/Drivers/BSP/Components/hts221\hts221.c ****   {
 1444              		.loc 1 429 6 is_stmt 0 view .LVU376
 1445 000a 94F82910 		ldrb	r1, [r4, #41]	@ zero_extendqisi2
 1446 000e 21B1     		cbz	r1, .L112
 1447              	.L113:
 438:D:/fchai/work/i-cube/I-CUBE-HUAWEI/Drivers/BSP/Components/hts221\hts221.c **** 
 1448              		.loc 1 438 3 is_stmt 1 view .LVU377
 438:D:/fchai/work/i-cube/I-CUBE-HUAWEI/Drivers/BSP/Components/hts221\hts221.c **** 
 1449              		.loc 1 438 25 is_stmt 0 view .LVU378
 1450 0010 0023     		movs	r3, #0
ARM GAS  T:\msys\tmp\ccPPAP19.s 			page 45


 1451 0012 84F82A30 		strb	r3, [r4, #42]
 440:D:/fchai/work/i-cube/I-CUBE-HUAWEI/Drivers/BSP/Components/hts221\hts221.c **** }
 1452              		.loc 1 440 3 is_stmt 1 view .LVU379
 440:D:/fchai/work/i-cube/I-CUBE-HUAWEI/Drivers/BSP/Components/hts221\hts221.c **** }
 1453              		.loc 1 440 10 is_stmt 0 view .LVU380
 1454 0016 1846     		mov	r0, r3
 1455              	.LVL118:
 1456              	.L110:
 440:D:/fchai/work/i-cube/I-CUBE-HUAWEI/Drivers/BSP/Components/hts221\hts221.c **** }
 1457              		.loc 1 440 10 view .LVU381
 1458              	.LBE84:
 1459              	.LBE83:
 441:D:/fchai/work/i-cube/I-CUBE-HUAWEI/Drivers/BSP/Components/hts221\hts221.c **** 
 1460              		.loc 1 441 1 view .LVU382
 1461 0018 10BD     		pop	{r4, pc}
 1462              	.LVL119:
 1463              	.L112:
 1464              	.LBB86:
 1465              	.LBB85:
 432:D:/fchai/work/i-cube/I-CUBE-HUAWEI/Drivers/BSP/Components/hts221\hts221.c ****     {
 1466              		.loc 1 432 5 is_stmt 1 view .LVU383
 432:D:/fchai/work/i-cube/I-CUBE-HUAWEI/Drivers/BSP/Components/hts221\hts221.c ****     {
 1467              		.loc 1 432 9 is_stmt 0 view .LVU384
 1468 001a 04F11C00 		add	r0, r4, #28
 1469 001e FFF7FEFF 		bl	hts221_power_on_set
 1470              	.LVL120:
 432:D:/fchai/work/i-cube/I-CUBE-HUAWEI/Drivers/BSP/Components/hts221\hts221.c ****     {
 1471              		.loc 1 432 8 view .LVU385
 1472 0022 0028     		cmp	r0, #0
 1473 0024 F4D0     		beq	.L113
 434:D:/fchai/work/i-cube/I-CUBE-HUAWEI/Drivers/BSP/Components/hts221\hts221.c ****     }
 1474              		.loc 1 434 14 view .LVU386
 1475 0026 4FF0FF30 		mov	r0, #-1
 1476              	.LBE85:
 1477              	.LBE86:
 441:D:/fchai/work/i-cube/I-CUBE-HUAWEI/Drivers/BSP/Components/hts221\hts221.c **** 
 1478              		.loc 1 441 1 view .LVU387
 1479 002a 10BD     		pop	{r4, pc}
 441:D:/fchai/work/i-cube/I-CUBE-HUAWEI/Drivers/BSP/Components/hts221\hts221.c **** 
 1480              		.loc 1 441 1 view .LVU388
 1481              		.cfi_endproc
 1482              	.LFE13:
 1484              		.section	.text.HTS221_RegisterBusIO,"ax",%progbits
 1485              		.align	1
 1486              		.p2align 2,,3
 1487              		.global	HTS221_RegisterBusIO
 1488              		.syntax unified
 1489              		.thumb
 1490              		.thumb_func
 1491              		.fpu fpv4-sp-d16
 1493              	HTS221_RegisterBusIO:
 1494              	.LVL121:
 1495              	.LFB0:
  94:D:/fchai/work/i-cube/I-CUBE-HUAWEI/Drivers/BSP/Components/hts221\hts221.c ****   int32_t ret;
 1496              		.loc 1 94 1 is_stmt 1 view -0
 1497              		.cfi_startproc
 1498              		@ args = 0, pretend = 0, frame = 0
ARM GAS  T:\msys\tmp\ccPPAP19.s 			page 46


 1499              		@ frame_needed = 0, uses_anonymous_args = 0
 1500              		@ link register save eliminated.
  95:D:/fchai/work/i-cube/I-CUBE-HUAWEI/Drivers/BSP/Components/hts221\hts221.c **** 
 1501              		.loc 1 95 3 view .LVU390
  97:D:/fchai/work/i-cube/I-CUBE-HUAWEI/Drivers/BSP/Components/hts221\hts221.c ****   {
 1502              		.loc 1 97 3 view .LVU391
  97:D:/fchai/work/i-cube/I-CUBE-HUAWEI/Drivers/BSP/Components/hts221\hts221.c ****   {
 1503              		.loc 1 97 6 is_stmt 0 view .LVU392
 1504 0000 D0B1     		cbz	r0, .L127
 103:D:/fchai/work/i-cube/I-CUBE-HUAWEI/Drivers/BSP/Components/hts221\hts221.c ****     pObj->IO.DeInit    = pIO->DeInit;
 1505              		.loc 1 103 5 is_stmt 1 view .LVU393
  94:D:/fchai/work/i-cube/I-CUBE-HUAWEI/Drivers/BSP/Components/hts221\hts221.c ****   int32_t ret;
 1506              		.loc 1 94 1 is_stmt 0 view .LVU394
 1507 0002 30B4     		push	{r4, r5}
 1508              	.LCFI41:
 1509              		.cfi_def_cfa_offset 8
 1510              		.cfi_offset 4, -8
 1511              		.cfi_offset 5, -4
 104:D:/fchai/work/i-cube/I-CUBE-HUAWEI/Drivers/BSP/Components/hts221\hts221.c ****     pObj->IO.BusType   = pIO->BusType;
 1512              		.loc 1 104 29 view .LVU395
 1513 0004 D1E90034 		ldrd	r3, r4, [r1]
 105:D:/fchai/work/i-cube/I-CUBE-HUAWEI/Drivers/BSP/Components/hts221\hts221.c ****     pObj->IO.Address   = pIO->Address;
 1514              		.loc 1 105 29 view .LVU396
 1515 0008 8A68     		ldr	r2, [r1, #8]
 105:D:/fchai/work/i-cube/I-CUBE-HUAWEI/Drivers/BSP/Components/hts221\hts221.c ****     pObj->IO.Address   = pIO->Address;
 1516              		.loc 1 105 24 view .LVU397
 1517 000a 8260     		str	r2, [r0, #8]
 104:D:/fchai/work/i-cube/I-CUBE-HUAWEI/Drivers/BSP/Components/hts221\hts221.c ****     pObj->IO.BusType   = pIO->BusType;
 1518              		.loc 1 104 24 view .LVU398
 1519 000c C0E90034 		strd	r3, r4, [r0]
 105:D:/fchai/work/i-cube/I-CUBE-HUAWEI/Drivers/BSP/Components/hts221\hts221.c ****     pObj->IO.Address   = pIO->Address;
 1520              		.loc 1 105 5 is_stmt 1 view .LVU399
 106:D:/fchai/work/i-cube/I-CUBE-HUAWEI/Drivers/BSP/Components/hts221\hts221.c ****     pObj->IO.WriteReg  = pIO->WriteReg;
 1521              		.loc 1 106 5 view .LVU400
 106:D:/fchai/work/i-cube/I-CUBE-HUAWEI/Drivers/BSP/Components/hts221\hts221.c ****     pObj->IO.WriteReg  = pIO->WriteReg;
 1522              		.loc 1 106 29 is_stmt 0 view .LVU401
 1523 0010 0A7B     		ldrb	r2, [r1, #12]	@ zero_extendqisi2
 106:D:/fchai/work/i-cube/I-CUBE-HUAWEI/Drivers/BSP/Components/hts221\hts221.c ****     pObj->IO.WriteReg  = pIO->WriteReg;
 1524              		.loc 1 106 24 view .LVU402
 1525 0012 0273     		strb	r2, [r0, #12]
 107:D:/fchai/work/i-cube/I-CUBE-HUAWEI/Drivers/BSP/Components/hts221\hts221.c ****     pObj->IO.ReadReg   = pIO->ReadReg;
 1526              		.loc 1 107 5 is_stmt 1 view .LVU403
 108:D:/fchai/work/i-cube/I-CUBE-HUAWEI/Drivers/BSP/Components/hts221\hts221.c ****     pObj->IO.GetTick   = pIO->GetTick;
 1527              		.loc 1 108 29 is_stmt 0 view .LVU404
 1528 0014 D1E90425 		ldrd	r2, r5, [r1, #16]
 109:D:/fchai/work/i-cube/I-CUBE-HUAWEI/Drivers/BSP/Components/hts221\hts221.c **** 
 1529              		.loc 1 109 29 view .LVU405
 1530 0018 8C69     		ldr	r4, [r1, #24]
 111:D:/fchai/work/i-cube/I-CUBE-HUAWEI/Drivers/BSP/Components/hts221\hts221.c ****     pObj->Ctx.write_reg = WriteRegWrap;
 1531              		.loc 1 111 25 view .LVU406
 1532 001a 0949     		ldr	r1, .L130
 1533              	.LVL122:
 107:D:/fchai/work/i-cube/I-CUBE-HUAWEI/Drivers/BSP/Components/hts221\hts221.c ****     pObj->IO.ReadReg   = pIO->ReadReg;
 1534              		.loc 1 107 24 view .LVU407
 1535 001c 0261     		str	r2, [r0, #16]
 108:D:/fchai/work/i-cube/I-CUBE-HUAWEI/Drivers/BSP/Components/hts221\hts221.c ****     pObj->IO.GetTick   = pIO->GetTick;
 1536              		.loc 1 108 5 is_stmt 1 view .LVU408
ARM GAS  T:\msys\tmp\ccPPAP19.s 			page 47


 112:D:/fchai/work/i-cube/I-CUBE-HUAWEI/Drivers/BSP/Components/hts221\hts221.c ****     pObj->Ctx.handle   = pObj;
 1537              		.loc 1 112 25 is_stmt 0 view .LVU409
 1538 001e 094A     		ldr	r2, .L130+4
 1539 0020 C261     		str	r2, [r0, #28]
 109:D:/fchai/work/i-cube/I-CUBE-HUAWEI/Drivers/BSP/Components/hts221\hts221.c **** 
 1540              		.loc 1 109 24 view .LVU410
 1541 0022 C0E90554 		strd	r5, r4, [r0, #20]
 111:D:/fchai/work/i-cube/I-CUBE-HUAWEI/Drivers/BSP/Components/hts221\hts221.c ****     pObj->Ctx.write_reg = WriteRegWrap;
 1542              		.loc 1 111 5 is_stmt 1 view .LVU411
 111:D:/fchai/work/i-cube/I-CUBE-HUAWEI/Drivers/BSP/Components/hts221\hts221.c ****     pObj->Ctx.write_reg = WriteRegWrap;
 1543              		.loc 1 111 25 is_stmt 0 view .LVU412
 1544 0026 C0E90810 		strd	r1, r0, [r0, #32]
 112:D:/fchai/work/i-cube/I-CUBE-HUAWEI/Drivers/BSP/Components/hts221\hts221.c ****     pObj->Ctx.handle   = pObj;
 1545              		.loc 1 112 5 is_stmt 1 view .LVU413
 113:D:/fchai/work/i-cube/I-CUBE-HUAWEI/Drivers/BSP/Components/hts221\hts221.c **** 
 1546              		.loc 1 113 5 view .LVU414
 115:D:/fchai/work/i-cube/I-CUBE-HUAWEI/Drivers/BSP/Components/hts221\hts221.c ****     {
 1547              		.loc 1 115 5 view .LVU415
 115:D:/fchai/work/i-cube/I-CUBE-HUAWEI/Drivers/BSP/Components/hts221\hts221.c ****     {
 1548              		.loc 1 115 8 is_stmt 0 view .LVU416
 1549 002a 0BB1     		cbz	r3, .L121
 117:D:/fchai/work/i-cube/I-CUBE-HUAWEI/Drivers/BSP/Components/hts221\hts221.c ****     }
 1550              		.loc 1 117 7 is_stmt 1 view .LVU417
 126:D:/fchai/work/i-cube/I-CUBE-HUAWEI/Drivers/BSP/Components/hts221\hts221.c **** 
 1551              		.loc 1 126 1 is_stmt 0 view .LVU418
 1552 002c 30BC     		pop	{r4, r5}
 1553              	.LCFI42:
 1554              		.cfi_remember_state
 1555              		.cfi_restore 5
 1556              		.cfi_restore 4
 1557              		.cfi_def_cfa_offset 0
 117:D:/fchai/work/i-cube/I-CUBE-HUAWEI/Drivers/BSP/Components/hts221\hts221.c ****     }
 1558              		.loc 1 117 13 view .LVU419
 1559 002e 1847     		bx	r3
 1560              	.LVL123:
 1561              	.L121:
 1562              	.LCFI43:
 1563              		.cfi_restore_state
 125:D:/fchai/work/i-cube/I-CUBE-HUAWEI/Drivers/BSP/Components/hts221\hts221.c **** }
 1564              		.loc 1 125 3 is_stmt 1 view .LVU420
 126:D:/fchai/work/i-cube/I-CUBE-HUAWEI/Drivers/BSP/Components/hts221\hts221.c **** 
 1565              		.loc 1 126 1 is_stmt 0 view .LVU421
 1566 0030 4FF0FF30 		mov	r0, #-1
 1567              	.LVL124:
 126:D:/fchai/work/i-cube/I-CUBE-HUAWEI/Drivers/BSP/Components/hts221\hts221.c **** 
 1568              		.loc 1 126 1 view .LVU422
 1569 0034 30BC     		pop	{r4, r5}
 1570              	.LCFI44:
 1571              		.cfi_restore 5
 1572              		.cfi_restore 4
 1573              		.cfi_def_cfa_offset 0
 1574 0036 7047     		bx	lr
 1575              	.LVL125:
 1576              	.L127:
 125:D:/fchai/work/i-cube/I-CUBE-HUAWEI/Drivers/BSP/Components/hts221\hts221.c **** }
 1577              		.loc 1 125 3 is_stmt 1 view .LVU423
 126:D:/fchai/work/i-cube/I-CUBE-HUAWEI/Drivers/BSP/Components/hts221\hts221.c **** 
ARM GAS  T:\msys\tmp\ccPPAP19.s 			page 48


 1578              		.loc 1 126 1 is_stmt 0 view .LVU424
 1579 0038 4FF0FF30 		mov	r0, #-1
 1580              	.LVL126:
 126:D:/fchai/work/i-cube/I-CUBE-HUAWEI/Drivers/BSP/Components/hts221\hts221.c **** 
 1581              		.loc 1 126 1 view .LVU425
 1582 003c 7047     		bx	lr
 1583              	.L131:
 1584 003e 00BF     		.align	2
 1585              	.L130:
 1586 0040 00000000 		.word	ReadRegWrap
 1587 0044 00000000 		.word	WriteRegWrap
 1588              		.cfi_endproc
 1589              	.LFE0:
 1591              		.section	.text.HTS221_Get_Init_Status,"ax",%progbits
 1592              		.align	1
 1593              		.p2align 2,,3
 1594              		.global	HTS221_Get_Init_Status
 1595              		.syntax unified
 1596              		.thumb
 1597              		.thumb_func
 1598              		.fpu fpv4-sp-d16
 1600              	HTS221_Get_Init_Status:
 1601              	.LVL127:
 1602              	.LFB5:
 217:D:/fchai/work/i-cube/I-CUBE-HUAWEI/Drivers/BSP/Components/hts221\hts221.c ****   if (pObj == NULL)
 1603              		.loc 1 217 1 is_stmt 1 view -0
 1604              		.cfi_startproc
 1605              		@ args = 0, pretend = 0, frame = 0
 1606              		@ frame_needed = 0, uses_anonymous_args = 0
 1607              		@ link register save eliminated.
 218:D:/fchai/work/i-cube/I-CUBE-HUAWEI/Drivers/BSP/Components/hts221\hts221.c ****   {
 1608              		.loc 1 218 3 view .LVU427
 218:D:/fchai/work/i-cube/I-CUBE-HUAWEI/Drivers/BSP/Components/hts221\hts221.c ****   {
 1609              		.loc 1 218 6 is_stmt 0 view .LVU428
 1610 0000 20B1     		cbz	r0, .L134
 223:D:/fchai/work/i-cube/I-CUBE-HUAWEI/Drivers/BSP/Components/hts221\hts221.c **** 
 1611              		.loc 1 223 3 is_stmt 1 view .LVU429
 223:D:/fchai/work/i-cube/I-CUBE-HUAWEI/Drivers/BSP/Components/hts221\hts221.c **** 
 1612              		.loc 1 223 17 is_stmt 0 view .LVU430
 1613 0002 90F82830 		ldrb	r3, [r0, #40]	@ zero_extendqisi2
 223:D:/fchai/work/i-cube/I-CUBE-HUAWEI/Drivers/BSP/Components/hts221\hts221.c **** 
 1614              		.loc 1 223 11 view .LVU431
 1615 0006 0B70     		strb	r3, [r1]
 225:D:/fchai/work/i-cube/I-CUBE-HUAWEI/Drivers/BSP/Components/hts221\hts221.c **** }
 1616              		.loc 1 225 3 is_stmt 1 view .LVU432
 225:D:/fchai/work/i-cube/I-CUBE-HUAWEI/Drivers/BSP/Components/hts221\hts221.c **** }
 1617              		.loc 1 225 10 is_stmt 0 view .LVU433
 1618 0008 0020     		movs	r0, #0
 1619              	.LVL128:
 225:D:/fchai/work/i-cube/I-CUBE-HUAWEI/Drivers/BSP/Components/hts221\hts221.c **** }
 1620              		.loc 1 225 10 view .LVU434
 1621 000a 7047     		bx	lr
 1622              	.LVL129:
 1623              	.L134:
 220:D:/fchai/work/i-cube/I-CUBE-HUAWEI/Drivers/BSP/Components/hts221\hts221.c ****   }
 1624              		.loc 1 220 12 view .LVU435
 1625 000c 4FF0FF30 		mov	r0, #-1
ARM GAS  T:\msys\tmp\ccPPAP19.s 			page 49


 1626              	.LVL130:
 226:D:/fchai/work/i-cube/I-CUBE-HUAWEI/Drivers/BSP/Components/hts221\hts221.c **** 
 1627              		.loc 1 226 1 view .LVU436
 1628 0010 7047     		bx	lr
 1629              		.cfi_endproc
 1630              	.LFE5:
 1632 0012 00BF     		.section	.text.HTS221_HUM_Get_DRDY_Status,"ax",%progbits
 1633              		.align	1
 1634              		.p2align 2,,3
 1635              		.global	HTS221_HUM_Get_DRDY_Status
 1636              		.syntax unified
 1637              		.thumb
 1638              		.thumb_func
 1639              		.fpu fpv4-sp-d16
 1641              	HTS221_HUM_Get_DRDY_Status:
 1642              	.LVL131:
 1643              	.LFB11:
 376:D:/fchai/work/i-cube/I-CUBE-HUAWEI/Drivers/BSP/Components/hts221\hts221.c ****   if (hts221_hum_data_ready_get(&(pObj->Ctx), Status) != HTS221_OK)
 1644              		.loc 1 376 1 is_stmt 1 view -0
 1645              		.cfi_startproc
 1646              		@ args = 0, pretend = 0, frame = 0
 1647              		@ frame_needed = 0, uses_anonymous_args = 0
 377:D:/fchai/work/i-cube/I-CUBE-HUAWEI/Drivers/BSP/Components/hts221\hts221.c ****   {
 1648              		.loc 1 377 3 view .LVU438
 376:D:/fchai/work/i-cube/I-CUBE-HUAWEI/Drivers/BSP/Components/hts221\hts221.c ****   if (hts221_hum_data_ready_get(&(pObj->Ctx), Status) != HTS221_OK)
 1649              		.loc 1 376 1 is_stmt 0 view .LVU439
 1650 0000 08B5     		push	{r3, lr}
 1651              	.LCFI45:
 1652              		.cfi_def_cfa_offset 8
 1653              		.cfi_offset 3, -8
 1654              		.cfi_offset 14, -4
 377:D:/fchai/work/i-cube/I-CUBE-HUAWEI/Drivers/BSP/Components/hts221\hts221.c ****   {
 1655              		.loc 1 377 7 view .LVU440
 1656 0002 1C30     		adds	r0, r0, #28
 1657              	.LVL132:
 377:D:/fchai/work/i-cube/I-CUBE-HUAWEI/Drivers/BSP/Components/hts221\hts221.c ****   {
 1658              		.loc 1 377 7 view .LVU441
 1659 0004 FFF7FEFF 		bl	hts221_hum_data_ready_get
 1660              	.LVL133:
 377:D:/fchai/work/i-cube/I-CUBE-HUAWEI/Drivers/BSP/Components/hts221\hts221.c ****   {
 1661              		.loc 1 377 6 view .LVU442
 1662 0008 0038     		subs	r0, r0, #0
 1663 000a 18BF     		it	ne
 1664 000c 0120     		movne	r0, #1
 383:D:/fchai/work/i-cube/I-CUBE-HUAWEI/Drivers/BSP/Components/hts221\hts221.c **** 
 1665              		.loc 1 383 1 view .LVU443
 1666 000e 4042     		rsbs	r0, r0, #0
 1667 0010 08BD     		pop	{r3, pc}
 1668              		.cfi_endproc
 1669              	.LFE11:
 1671 0012 00BF     		.section	.text.HTS221_TEMP_Get_DRDY_Status,"ax",%progbits
 1672              		.align	1
 1673              		.p2align 2,,3
 1674              		.global	HTS221_TEMP_Get_DRDY_Status
 1675              		.syntax unified
 1676              		.thumb
 1677              		.thumb_func
ARM GAS  T:\msys\tmp\ccPPAP19.s 			page 50


 1678              		.fpu fpv4-sp-d16
 1680              	HTS221_TEMP_Get_DRDY_Status:
 1681              	.LVL134:
 1682              	.LFB17:
 523:D:/fchai/work/i-cube/I-CUBE-HUAWEI/Drivers/BSP/Components/hts221\hts221.c ****   if (hts221_temp_data_ready_get(&(pObj->Ctx), Status) != HTS221_OK)
 1683              		.loc 1 523 1 is_stmt 1 view -0
 1684              		.cfi_startproc
 1685              		@ args = 0, pretend = 0, frame = 0
 1686              		@ frame_needed = 0, uses_anonymous_args = 0
 524:D:/fchai/work/i-cube/I-CUBE-HUAWEI/Drivers/BSP/Components/hts221\hts221.c ****   {
 1687              		.loc 1 524 3 view .LVU445
 523:D:/fchai/work/i-cube/I-CUBE-HUAWEI/Drivers/BSP/Components/hts221\hts221.c ****   if (hts221_temp_data_ready_get(&(pObj->Ctx), Status) != HTS221_OK)
 1688              		.loc 1 523 1 is_stmt 0 view .LVU446
 1689 0000 08B5     		push	{r3, lr}
 1690              	.LCFI46:
 1691              		.cfi_def_cfa_offset 8
 1692              		.cfi_offset 3, -8
 1693              		.cfi_offset 14, -4
 524:D:/fchai/work/i-cube/I-CUBE-HUAWEI/Drivers/BSP/Components/hts221\hts221.c ****   {
 1694              		.loc 1 524 7 view .LVU447
 1695 0002 1C30     		adds	r0, r0, #28
 1696              	.LVL135:
 524:D:/fchai/work/i-cube/I-CUBE-HUAWEI/Drivers/BSP/Components/hts221\hts221.c ****   {
 1697              		.loc 1 524 7 view .LVU448
 1698 0004 FFF7FEFF 		bl	hts221_temp_data_ready_get
 1699              	.LVL136:
 524:D:/fchai/work/i-cube/I-CUBE-HUAWEI/Drivers/BSP/Components/hts221\hts221.c ****   {
 1700              		.loc 1 524 6 view .LVU449
 1701 0008 0038     		subs	r0, r0, #0
 1702 000a 18BF     		it	ne
 1703 000c 0120     		movne	r0, #1
 530:D:/fchai/work/i-cube/I-CUBE-HUAWEI/Drivers/BSP/Components/hts221\hts221.c **** 
 1704              		.loc 1 530 1 view .LVU450
 1705 000e 4042     		rsbs	r0, r0, #0
 1706 0010 08BD     		pop	{r3, pc}
 1707              		.cfi_endproc
 1708              	.LFE17:
 1710 0012 00BF     		.section	.text.HTS221_Set_One_Shot,"ax",%progbits
 1711              		.align	1
 1712              		.p2align 2,,3
 1713              		.global	HTS221_Set_One_Shot
 1714              		.syntax unified
 1715              		.thumb
 1716              		.thumb_func
 1717              		.fpu fpv4-sp-d16
 1719              	HTS221_Set_One_Shot:
 1720              	.LVL137:
 1721              	.LFB18:
 538:D:/fchai/work/i-cube/I-CUBE-HUAWEI/Drivers/BSP/Components/hts221\hts221.c **** 
 1722              		.loc 1 538 1 is_stmt 1 view -0
 1723              		.cfi_startproc
 1724              		@ args = 0, pretend = 0, frame = 0
 1725              		@ frame_needed = 0, uses_anonymous_args = 0
 541:D:/fchai/work/i-cube/I-CUBE-HUAWEI/Drivers/BSP/Components/hts221\hts221.c ****   {
 1726              		.loc 1 541 3 view .LVU452
 538:D:/fchai/work/i-cube/I-CUBE-HUAWEI/Drivers/BSP/Components/hts221\hts221.c **** 
 1727              		.loc 1 538 1 is_stmt 0 view .LVU453
ARM GAS  T:\msys\tmp\ccPPAP19.s 			page 51


 1728 0000 10B5     		push	{r4, lr}
 1729              	.LCFI47:
 1730              		.cfi_def_cfa_offset 8
 1731              		.cfi_offset 4, -8
 1732              		.cfi_offset 14, -4
 541:D:/fchai/work/i-cube/I-CUBE-HUAWEI/Drivers/BSP/Components/hts221\hts221.c ****   {
 1733              		.loc 1 541 6 view .LVU454
 1734 0002 00F11C04 		add	r4, r0, #28
 1735 0006 2046     		mov	r0, r4
 1736              	.LVL138:
 541:D:/fchai/work/i-cube/I-CUBE-HUAWEI/Drivers/BSP/Components/hts221\hts221.c ****   {
 1737              		.loc 1 541 6 view .LVU455
 1738 0008 0021     		movs	r1, #0
 1739 000a FFF7FEFF 		bl	hts221_data_rate_set
 1740              	.LVL139:
 541:D:/fchai/work/i-cube/I-CUBE-HUAWEI/Drivers/BSP/Components/hts221\hts221.c ****   {
 1741              		.loc 1 541 5 view .LVU456
 1742 000e 40B9     		cbnz	r0, .L141
 547:D:/fchai/work/i-cube/I-CUBE-HUAWEI/Drivers/BSP/Components/hts221\hts221.c ****   {
 1743              		.loc 1 547 3 is_stmt 1 view .LVU457
 547:D:/fchai/work/i-cube/I-CUBE-HUAWEI/Drivers/BSP/Components/hts221\hts221.c ****   {
 1744              		.loc 1 547 6 is_stmt 0 view .LVU458
 1745 0010 2046     		mov	r0, r4
 1746 0012 0121     		movs	r1, #1
 1747 0014 FFF7FEFF 		bl	hts221_one_shoot_trigger_set
 1748              	.LVL140:
 547:D:/fchai/work/i-cube/I-CUBE-HUAWEI/Drivers/BSP/Components/hts221\hts221.c ****   {
 1749              		.loc 1 547 5 view .LVU459
 1750 0018 0038     		subs	r0, r0, #0
 1751 001a 18BF     		it	ne
 1752 001c 0120     		movne	r0, #1
 1753 001e 4042     		rsbs	r0, r0, #0
 553:D:/fchai/work/i-cube/I-CUBE-HUAWEI/Drivers/BSP/Components/hts221\hts221.c **** 
 1754              		.loc 1 553 1 view .LVU460
 1755 0020 10BD     		pop	{r4, pc}
 1756              	.LVL141:
 1757              	.L141:
 543:D:/fchai/work/i-cube/I-CUBE-HUAWEI/Drivers/BSP/Components/hts221\hts221.c ****   }
 1758              		.loc 1 543 12 view .LVU461
 1759 0022 4FF0FF30 		mov	r0, #-1
 553:D:/fchai/work/i-cube/I-CUBE-HUAWEI/Drivers/BSP/Components/hts221\hts221.c **** 
 1760              		.loc 1 553 1 view .LVU462
 1761 0026 10BD     		pop	{r4, pc}
 1762              		.cfi_endproc
 1763              	.LFE18:
 1765              		.section	.text.HTS221_Get_One_Shot_Status,"ax",%progbits
 1766              		.align	1
 1767              		.p2align 2,,3
 1768              		.global	HTS221_Get_One_Shot_Status
 1769              		.syntax unified
 1770              		.thumb
 1771              		.thumb_func
 1772              		.fpu fpv4-sp-d16
 1774              	HTS221_Get_One_Shot_Status:
 1775              	.LVL142:
 1776              	.LFB19:
 562:D:/fchai/work/i-cube/I-CUBE-HUAWEI/Drivers/BSP/Components/hts221\hts221.c ****   uint8_t h_da;
ARM GAS  T:\msys\tmp\ccPPAP19.s 			page 52


 1777              		.loc 1 562 1 is_stmt 1 view -0
 1778              		.cfi_startproc
 1779              		@ args = 0, pretend = 0, frame = 8
 1780              		@ frame_needed = 0, uses_anonymous_args = 0
 563:D:/fchai/work/i-cube/I-CUBE-HUAWEI/Drivers/BSP/Components/hts221\hts221.c ****   uint8_t t_da;
 1781              		.loc 1 563 3 view .LVU464
 564:D:/fchai/work/i-cube/I-CUBE-HUAWEI/Drivers/BSP/Components/hts221\hts221.c **** 
 1782              		.loc 1 564 3 view .LVU465
 567:D:/fchai/work/i-cube/I-CUBE-HUAWEI/Drivers/BSP/Components/hts221\hts221.c ****   {
 1783              		.loc 1 567 3 view .LVU466
 562:D:/fchai/work/i-cube/I-CUBE-HUAWEI/Drivers/BSP/Components/hts221\hts221.c ****   uint8_t h_da;
 1784              		.loc 1 562 1 is_stmt 0 view .LVU467
 1785 0000 30B5     		push	{r4, r5, lr}
 1786              	.LCFI48:
 1787              		.cfi_def_cfa_offset 12
 1788              		.cfi_offset 4, -12
 1789              		.cfi_offset 5, -8
 1790              		.cfi_offset 14, -4
 567:D:/fchai/work/i-cube/I-CUBE-HUAWEI/Drivers/BSP/Components/hts221\hts221.c ****   {
 1791              		.loc 1 567 6 view .LVU468
 1792 0002 00F11C04 		add	r4, r0, #28
 562:D:/fchai/work/i-cube/I-CUBE-HUAWEI/Drivers/BSP/Components/hts221\hts221.c ****   uint8_t h_da;
 1793              		.loc 1 562 1 view .LVU469
 1794 0006 83B0     		sub	sp, sp, #12
 1795              	.LCFI49:
 1796              		.cfi_def_cfa_offset 24
 562:D:/fchai/work/i-cube/I-CUBE-HUAWEI/Drivers/BSP/Components/hts221\hts221.c ****   uint8_t h_da;
 1797              		.loc 1 562 1 view .LVU470
 1798 0008 0D46     		mov	r5, r1
 567:D:/fchai/work/i-cube/I-CUBE-HUAWEI/Drivers/BSP/Components/hts221\hts221.c ****   {
 1799              		.loc 1 567 6 view .LVU471
 1800 000a 2046     		mov	r0, r4
 1801              	.LVL143:
 567:D:/fchai/work/i-cube/I-CUBE-HUAWEI/Drivers/BSP/Components/hts221\hts221.c ****   {
 1802              		.loc 1 567 6 view .LVU472
 1803 000c 0DF10601 		add	r1, sp, #6
 1804              	.LVL144:
 567:D:/fchai/work/i-cube/I-CUBE-HUAWEI/Drivers/BSP/Components/hts221\hts221.c ****   {
 1805              		.loc 1 567 6 view .LVU473
 1806 0010 FFF7FEFF 		bl	hts221_hum_data_ready_get
 1807              	.LVL145:
 567:D:/fchai/work/i-cube/I-CUBE-HUAWEI/Drivers/BSP/Components/hts221\hts221.c ****   {
 1808              		.loc 1 567 5 view .LVU474
 1809 0014 98B9     		cbnz	r0, .L146
 573:D:/fchai/work/i-cube/I-CUBE-HUAWEI/Drivers/BSP/Components/hts221\hts221.c ****   {
 1810              		.loc 1 573 3 is_stmt 1 view .LVU475
 573:D:/fchai/work/i-cube/I-CUBE-HUAWEI/Drivers/BSP/Components/hts221\hts221.c ****   {
 1811              		.loc 1 573 6 is_stmt 0 view .LVU476
 1812 0016 2046     		mov	r0, r4
 1813 0018 0DF10701 		add	r1, sp, #7
 1814 001c FFF7FEFF 		bl	hts221_temp_data_ready_get
 1815              	.LVL146:
 573:D:/fchai/work/i-cube/I-CUBE-HUAWEI/Drivers/BSP/Components/hts221\hts221.c ****   {
 1816              		.loc 1 573 5 view .LVU477
 1817 0020 68B9     		cbnz	r0, .L146
 578:D:/fchai/work/i-cube/I-CUBE-HUAWEI/Drivers/BSP/Components/hts221\hts221.c ****   {
 1818              		.loc 1 578 3 is_stmt 1 view .LVU478
ARM GAS  T:\msys\tmp\ccPPAP19.s 			page 53


 578:D:/fchai/work/i-cube/I-CUBE-HUAWEI/Drivers/BSP/Components/hts221\hts221.c ****   {
 1819              		.loc 1 578 5 is_stmt 0 view .LVU479
 1820 0022 9DF80630 		ldrb	r3, [sp, #6]	@ zero_extendqisi2
 1821 0026 33B1     		cbz	r3, .L147
 578:D:/fchai/work/i-cube/I-CUBE-HUAWEI/Drivers/BSP/Components/hts221\hts221.c ****   {
 1822              		.loc 1 578 11 discriminator 1 view .LVU480
 1823 0028 9DF80730 		ldrb	r3, [sp, #7]	@ zero_extendqisi2
 1824 002c 1BB1     		cbz	r3, .L147
 580:D:/fchai/work/i-cube/I-CUBE-HUAWEI/Drivers/BSP/Components/hts221\hts221.c ****   }
 1825              		.loc 1 580 5 is_stmt 1 view .LVU481
 580:D:/fchai/work/i-cube/I-CUBE-HUAWEI/Drivers/BSP/Components/hts221\hts221.c ****   }
 1826              		.loc 1 580 13 is_stmt 0 view .LVU482
 1827 002e 0123     		movs	r3, #1
 1828 0030 2B70     		strb	r3, [r5]
 588:D:/fchai/work/i-cube/I-CUBE-HUAWEI/Drivers/BSP/Components/hts221\hts221.c **** 
 1829              		.loc 1 588 1 view .LVU483
 1830 0032 03B0     		add	sp, sp, #12
 1831              	.LCFI50:
 1832              		.cfi_remember_state
 1833              		.cfi_def_cfa_offset 12
 1834              		@ sp needed
 1835 0034 30BD     		pop	{r4, r5, pc}
 1836              	.LVL147:
 1837              	.L147:
 1838              	.LCFI51:
 1839              		.cfi_restore_state
 584:D:/fchai/work/i-cube/I-CUBE-HUAWEI/Drivers/BSP/Components/hts221\hts221.c ****   }
 1840              		.loc 1 584 5 is_stmt 1 view .LVU484
 584:D:/fchai/work/i-cube/I-CUBE-HUAWEI/Drivers/BSP/Components/hts221\hts221.c ****   }
 1841              		.loc 1 584 13 is_stmt 0 view .LVU485
 1842 0036 0023     		movs	r3, #0
 1843 0038 2B70     		strb	r3, [r5]
 1844              	.L143:
 588:D:/fchai/work/i-cube/I-CUBE-HUAWEI/Drivers/BSP/Components/hts221\hts221.c **** 
 1845              		.loc 1 588 1 view .LVU486
 1846 003a 03B0     		add	sp, sp, #12
 1847              	.LCFI52:
 1848              		.cfi_remember_state
 1849              		.cfi_def_cfa_offset 12
 1850              		@ sp needed
 1851 003c 30BD     		pop	{r4, r5, pc}
 1852              	.LVL148:
 1853              	.L146:
 1854              	.LCFI53:
 1855              		.cfi_restore_state
 569:D:/fchai/work/i-cube/I-CUBE-HUAWEI/Drivers/BSP/Components/hts221\hts221.c ****   }
 1856              		.loc 1 569 12 view .LVU487
 1857 003e 4FF0FF30 		mov	r0, #-1
 1858 0042 FAE7     		b	.L143
 1859              		.cfi_endproc
 1860              	.LFE19:
 1862              		.section	.text.HTS221_Read_Reg,"ax",%progbits
 1863              		.align	1
 1864              		.p2align 2,,3
 1865              		.global	HTS221_Read_Reg
 1866              		.syntax unified
 1867              		.thumb
ARM GAS  T:\msys\tmp\ccPPAP19.s 			page 54


 1868              		.thumb_func
 1869              		.fpu fpv4-sp-d16
 1871              	HTS221_Read_Reg:
 1872              	.LVL149:
 1873              	.LFB20:
 598:D:/fchai/work/i-cube/I-CUBE-HUAWEI/Drivers/BSP/Components/hts221\hts221.c ****   if (hts221_read_reg(&(pObj->Ctx), Reg, Data, 1) != HTS221_OK)
 1874              		.loc 1 598 1 is_stmt 1 view -0
 1875              		.cfi_startproc
 1876              		@ args = 0, pretend = 0, frame = 0
 1877              		@ frame_needed = 0, uses_anonymous_args = 0
 599:D:/fchai/work/i-cube/I-CUBE-HUAWEI/Drivers/BSP/Components/hts221\hts221.c ****   {
 1878              		.loc 1 599 3 view .LVU489
 598:D:/fchai/work/i-cube/I-CUBE-HUAWEI/Drivers/BSP/Components/hts221\hts221.c ****   if (hts221_read_reg(&(pObj->Ctx), Reg, Data, 1) != HTS221_OK)
 1879              		.loc 1 598 1 is_stmt 0 view .LVU490
 1880 0000 08B5     		push	{r3, lr}
 1881              	.LCFI54:
 1882              		.cfi_def_cfa_offset 8
 1883              		.cfi_offset 3, -8
 1884              		.cfi_offset 14, -4
 599:D:/fchai/work/i-cube/I-CUBE-HUAWEI/Drivers/BSP/Components/hts221\hts221.c ****   {
 1885              		.loc 1 599 7 view .LVU491
 1886 0002 1C30     		adds	r0, r0, #28
 1887              	.LVL150:
 599:D:/fchai/work/i-cube/I-CUBE-HUAWEI/Drivers/BSP/Components/hts221\hts221.c ****   {
 1888              		.loc 1 599 7 view .LVU492
 1889 0004 0123     		movs	r3, #1
 1890 0006 FFF7FEFF 		bl	hts221_read_reg
 1891              	.LVL151:
 599:D:/fchai/work/i-cube/I-CUBE-HUAWEI/Drivers/BSP/Components/hts221\hts221.c ****   {
 1892              		.loc 1 599 6 view .LVU493
 1893 000a 0038     		subs	r0, r0, #0
 1894 000c 18BF     		it	ne
 1895 000e 0120     		movne	r0, #1
 605:D:/fchai/work/i-cube/I-CUBE-HUAWEI/Drivers/BSP/Components/hts221\hts221.c **** 
 1896              		.loc 1 605 1 view .LVU494
 1897 0010 4042     		rsbs	r0, r0, #0
 1898 0012 08BD     		pop	{r3, pc}
 1899              		.cfi_endproc
 1900              	.LFE20:
 1902              		.section	.text.HTS221_Write_Reg,"ax",%progbits
 1903              		.align	1
 1904              		.p2align 2,,3
 1905              		.global	HTS221_Write_Reg
 1906              		.syntax unified
 1907              		.thumb
 1908              		.thumb_func
 1909              		.fpu fpv4-sp-d16
 1911              	HTS221_Write_Reg:
 1912              	.LVL152:
 1913              	.LFB21:
 615:D:/fchai/work/i-cube/I-CUBE-HUAWEI/Drivers/BSP/Components/hts221\hts221.c ****   if (hts221_write_reg(&(pObj->Ctx), Reg, &Data, 1) != HTS221_OK)
 1914              		.loc 1 615 1 is_stmt 1 view -0
 1915              		.cfi_startproc
 1916              		@ args = 0, pretend = 0, frame = 8
 1917              		@ frame_needed = 0, uses_anonymous_args = 0
 616:D:/fchai/work/i-cube/I-CUBE-HUAWEI/Drivers/BSP/Components/hts221\hts221.c ****   {
 1918              		.loc 1 616 3 view .LVU496
ARM GAS  T:\msys\tmp\ccPPAP19.s 			page 55


 615:D:/fchai/work/i-cube/I-CUBE-HUAWEI/Drivers/BSP/Components/hts221\hts221.c ****   if (hts221_write_reg(&(pObj->Ctx), Reg, &Data, 1) != HTS221_OK)
 1919              		.loc 1 615 1 is_stmt 0 view .LVU497
 1920 0000 10B5     		push	{r4, lr}
 1921              	.LCFI55:
 1922              		.cfi_def_cfa_offset 8
 1923              		.cfi_offset 4, -8
 1924              		.cfi_offset 14, -4
 1925 0002 82B0     		sub	sp, sp, #8
 1926              	.LCFI56:
 1927              		.cfi_def_cfa_offset 16
 615:D:/fchai/work/i-cube/I-CUBE-HUAWEI/Drivers/BSP/Components/hts221\hts221.c ****   if (hts221_write_reg(&(pObj->Ctx), Reg, &Data, 1) != HTS221_OK)
 1928              		.loc 1 615 1 view .LVU498
 1929 0004 1446     		mov	r4, r2
 616:D:/fchai/work/i-cube/I-CUBE-HUAWEI/Drivers/BSP/Components/hts221\hts221.c ****   {
 1930              		.loc 1 616 7 view .LVU499
 1931 0006 0123     		movs	r3, #1
 1932 0008 0DF10702 		add	r2, sp, #7
 1933              	.LVL153:
 616:D:/fchai/work/i-cube/I-CUBE-HUAWEI/Drivers/BSP/Components/hts221\hts221.c ****   {
 1934              		.loc 1 616 7 view .LVU500
 1935 000c 1C30     		adds	r0, r0, #28
 1936              	.LVL154:
 615:D:/fchai/work/i-cube/I-CUBE-HUAWEI/Drivers/BSP/Components/hts221\hts221.c ****   if (hts221_write_reg(&(pObj->Ctx), Reg, &Data, 1) != HTS221_OK)
 1937              		.loc 1 615 1 view .LVU501
 1938 000e 8DF80740 		strb	r4, [sp, #7]
 616:D:/fchai/work/i-cube/I-CUBE-HUAWEI/Drivers/BSP/Components/hts221\hts221.c ****   {
 1939              		.loc 1 616 7 view .LVU502
 1940 0012 FFF7FEFF 		bl	hts221_write_reg
 1941              	.LVL155:
 616:D:/fchai/work/i-cube/I-CUBE-HUAWEI/Drivers/BSP/Components/hts221\hts221.c ****   {
 1942              		.loc 1 616 6 view .LVU503
 1943 0016 0038     		subs	r0, r0, #0
 1944 0018 18BF     		it	ne
 1945 001a 0120     		movne	r0, #1
 622:D:/fchai/work/i-cube/I-CUBE-HUAWEI/Drivers/BSP/Components/hts221\hts221.c **** 
 1946              		.loc 1 622 1 view .LVU504
 1947 001c 4042     		rsbs	r0, r0, #0
 1948 001e 02B0     		add	sp, sp, #8
 1949              	.LCFI57:
 1950              		.cfi_def_cfa_offset 8
 1951              		@ sp needed
 1952 0020 10BD     		pop	{r4, pc}
 1953              		.cfi_endproc
 1954              	.LFE21:
 1956 0022 00BF     		.section	.text.HTS221_Enable_DRDY_Interrupt,"ax",%progbits
 1957              		.align	1
 1958              		.p2align 2,,3
 1959              		.global	HTS221_Enable_DRDY_Interrupt
 1960              		.syntax unified
 1961              		.thumb
 1962              		.thumb_func
 1963              		.fpu fpv4-sp-d16
 1965              	HTS221_Enable_DRDY_Interrupt:
 1966              	.LVL156:
 1967              	.LFB25:
 730:D:/fchai/work/i-cube/I-CUBE-HUAWEI/Drivers/BSP/Components/hts221\hts221.c ****   if (hts221_drdy_on_int_set(&(pObj->Ctx), PROPERTY_ENABLE) != HTS221_OK)
 1968              		.loc 1 730 1 is_stmt 1 view -0
ARM GAS  T:\msys\tmp\ccPPAP19.s 			page 56


 1969              		.cfi_startproc
 1970              		@ args = 0, pretend = 0, frame = 0
 1971              		@ frame_needed = 0, uses_anonymous_args = 0
 731:D:/fchai/work/i-cube/I-CUBE-HUAWEI/Drivers/BSP/Components/hts221\hts221.c ****   {
 1972              		.loc 1 731 3 view .LVU506
 730:D:/fchai/work/i-cube/I-CUBE-HUAWEI/Drivers/BSP/Components/hts221\hts221.c ****   if (hts221_drdy_on_int_set(&(pObj->Ctx), PROPERTY_ENABLE) != HTS221_OK)
 1973              		.loc 1 730 1 is_stmt 0 view .LVU507
 1974 0000 08B5     		push	{r3, lr}
 1975              	.LCFI58:
 1976              		.cfi_def_cfa_offset 8
 1977              		.cfi_offset 3, -8
 1978              		.cfi_offset 14, -4
 731:D:/fchai/work/i-cube/I-CUBE-HUAWEI/Drivers/BSP/Components/hts221\hts221.c ****   {
 1979              		.loc 1 731 7 view .LVU508
 1980 0002 0121     		movs	r1, #1
 1981 0004 1C30     		adds	r0, r0, #28
 1982              	.LVL157:
 731:D:/fchai/work/i-cube/I-CUBE-HUAWEI/Drivers/BSP/Components/hts221\hts221.c ****   {
 1983              		.loc 1 731 7 view .LVU509
 1984 0006 FFF7FEFF 		bl	hts221_drdy_on_int_set
 1985              	.LVL158:
 731:D:/fchai/work/i-cube/I-CUBE-HUAWEI/Drivers/BSP/Components/hts221\hts221.c ****   {
 1986              		.loc 1 731 6 view .LVU510
 1987 000a 0038     		subs	r0, r0, #0
 1988 000c 18BF     		it	ne
 1989 000e 0120     		movne	r0, #1
 737:D:/fchai/work/i-cube/I-CUBE-HUAWEI/Drivers/BSP/Components/hts221\hts221.c **** 
 1990              		.loc 1 737 1 view .LVU511
 1991 0010 4042     		rsbs	r0, r0, #0
 1992 0012 08BD     		pop	{r3, pc}
 1993              		.cfi_endproc
 1994              	.LFE25:
 1996              		.global	HTS221_TEMP_Driver
 1997              		.global	HTS221_HUM_Driver
 1998              		.global	HTS221_COMMON_Driver
 1999              		.section	.data.HTS221_COMMON_Driver,"aw"
 2000              		.align	2
 2003              	HTS221_COMMON_Driver:
 2004 0000 00000000 		.word	HTS221_Init
 2005 0004 00000000 		.word	HTS221_DeInit
 2006 0008 00000000 		.word	HTS221_ReadID
 2007 000c 00000000 		.word	HTS221_GetCapabilities
 2008              		.section	.data.HTS221_HUM_Driver,"aw"
 2009              		.align	2
 2012              	HTS221_HUM_Driver:
 2013 0000 00000000 		.word	HTS221_HUM_Enable
 2014 0004 00000000 		.word	HTS221_HUM_Disable
 2015 0008 00000000 		.word	HTS221_HUM_GetOutputDataRate
 2016 000c 00000000 		.word	HTS221_HUM_SetOutputDataRate
 2017 0010 00000000 		.word	HTS221_HUM_GetHumidity
 2018              		.section	.data.HTS221_TEMP_Driver,"aw"
 2019              		.align	2
 2022              	HTS221_TEMP_Driver:
 2023 0000 00000000 		.word	HTS221_TEMP_Enable
 2024 0004 00000000 		.word	HTS221_TEMP_Disable
 2025 0008 00000000 		.word	HTS221_TEMP_GetOutputDataRate
 2026 000c 00000000 		.word	HTS221_TEMP_SetOutputDataRate
ARM GAS  T:\msys\tmp\ccPPAP19.s 			page 57


 2027 0010 00000000 		.word	HTS221_TEMP_GetTemperature
 2028              		.text
 2029              	.Letext0:
 2030              		.file 2 "t:\\msys\\3rd\\gcc-arm-none-eabi-9-2020-q2-update-win32\\arm-none-eabi\\include\\machine\
 2031              		.file 3 "t:\\msys\\3rd\\gcc-arm-none-eabi-9-2020-q2-update-win32\\arm-none-eabi\\include\\sys\\_st
 2032              		.file 4 "t:\\msys\\3rd\\gcc-arm-none-eabi-9-2020-q2-update-win32\\lib\\gcc\\arm-none-eabi\\9.3.1\\
 2033              		.file 5 "t:\\msys\\3rd\\gcc-arm-none-eabi-9-2020-q2-update-win32\\arm-none-eabi\\include\\sys\\_ty
 2034              		.file 6 "t:\\msys\\3rd\\gcc-arm-none-eabi-9-2020-q2-update-win32\\arm-none-eabi\\include\\sys\\ree
 2035              		.file 7 "t:\\msys\\3rd\\gcc-arm-none-eabi-9-2020-q2-update-win32\\arm-none-eabi\\include\\sys\\loc
 2036              		.file 8 "t:\\msys\\3rd\\gcc-arm-none-eabi-9-2020-q2-update-win32\\arm-none-eabi\\include\\math.h"
 2037              		.file 9 "D:/fchai/work/i-cube/I-CUBE-HUAWEI/Drivers/BSP/Components/hts221/hts221_reg.h"
 2038              		.file 10 "D:/fchai/work/i-cube/I-CUBE-HUAWEI/Drivers/BSP/Components/hts221/hts221.h"
ARM GAS  T:\msys\tmp\ccPPAP19.s 			page 58

