ARM GAS  T:\msys\tmp\ccaXiy3K.s 			page 1


   1              		.cpu cortex-m4
   2              		.eabi_attribute 27, 1
   3              		.eabi_attribute 28, 1
   4              		.eabi_attribute 20, 1
   5              		.eabi_attribute 21, 1
   6              		.eabi_attribute 23, 3
   7              		.eabi_attribute 24, 1
   8              		.eabi_attribute 25, 1
   9              		.eabi_attribute 26, 1
  10              		.eabi_attribute 30, 2
  11              		.eabi_attribute 34, 1
  12              		.eabi_attribute 18, 4
  13              		.file	"lsm6dso_reg.c"
  14              		.text
  15              	.Ltext0:
  16              		.cfi_sections	.debug_frame
  17              		.section	.text.lsm6dso_read_reg,"ax",%progbits
  18              		.align	1
  19              		.p2align 2,,3
  20              		.global	lsm6dso_read_reg
  21              		.arch armv7e-m
  22              		.syntax unified
  23              		.thumb
  24              		.thumb_func
  25              		.fpu fpv4-sp-d16
  27              	lsm6dso_read_reg:
  28              	.LVL0:
  29              	.LFB0:
  30              		.file 1 "D:/fchai/work/i-cube/I-CUBE-HUAWEI/Drivers/BSP/Components/lsm6dso/lsm6dso_reg.c"
   1:D:/fchai/work/i-cube/I-CUBE-HUAWEI/Drivers/BSP/Components/lsm6dso\lsm6dso_reg.c **** /*
   2:D:/fchai/work/i-cube/I-CUBE-HUAWEI/Drivers/BSP/Components/lsm6dso\lsm6dso_reg.c ****  ******************************************************************************
   3:D:/fchai/work/i-cube/I-CUBE-HUAWEI/Drivers/BSP/Components/lsm6dso\lsm6dso_reg.c ****  * @file    lsm6dso_reg.c
   4:D:/fchai/work/i-cube/I-CUBE-HUAWEI/Drivers/BSP/Components/lsm6dso\lsm6dso_reg.c ****  * @author  Sensors Software Solution Team
   5:D:/fchai/work/i-cube/I-CUBE-HUAWEI/Drivers/BSP/Components/lsm6dso\lsm6dso_reg.c ****  * @brief   LSM6DSO driver file
   6:D:/fchai/work/i-cube/I-CUBE-HUAWEI/Drivers/BSP/Components/lsm6dso\lsm6dso_reg.c ****  ******************************************************************************
   7:D:/fchai/work/i-cube/I-CUBE-HUAWEI/Drivers/BSP/Components/lsm6dso\lsm6dso_reg.c ****  * @attention
   8:D:/fchai/work/i-cube/I-CUBE-HUAWEI/Drivers/BSP/Components/lsm6dso\lsm6dso_reg.c ****  *
   9:D:/fchai/work/i-cube/I-CUBE-HUAWEI/Drivers/BSP/Components/lsm6dso\lsm6dso_reg.c ****  * <h2><center>&copy; Copyright (c) 2019 STMicroelectronics.
  10:D:/fchai/work/i-cube/I-CUBE-HUAWEI/Drivers/BSP/Components/lsm6dso\lsm6dso_reg.c ****  * All rights reserved.</center></h2>
  11:D:/fchai/work/i-cube/I-CUBE-HUAWEI/Drivers/BSP/Components/lsm6dso\lsm6dso_reg.c ****  *
  12:D:/fchai/work/i-cube/I-CUBE-HUAWEI/Drivers/BSP/Components/lsm6dso\lsm6dso_reg.c ****  * This software component is licensed by ST under BSD 3-Clause license,
  13:D:/fchai/work/i-cube/I-CUBE-HUAWEI/Drivers/BSP/Components/lsm6dso\lsm6dso_reg.c ****  * the "License"; You may not use this file except in compliance with the
  14:D:/fchai/work/i-cube/I-CUBE-HUAWEI/Drivers/BSP/Components/lsm6dso\lsm6dso_reg.c ****  * License. You may obtain a copy of the License at:
  15:D:/fchai/work/i-cube/I-CUBE-HUAWEI/Drivers/BSP/Components/lsm6dso\lsm6dso_reg.c ****  *                        opensource.org/licenses/BSD-3-Clause
  16:D:/fchai/work/i-cube/I-CUBE-HUAWEI/Drivers/BSP/Components/lsm6dso\lsm6dso_reg.c ****  *
  17:D:/fchai/work/i-cube/I-CUBE-HUAWEI/Drivers/BSP/Components/lsm6dso\lsm6dso_reg.c ****  ******************************************************************************
  18:D:/fchai/work/i-cube/I-CUBE-HUAWEI/Drivers/BSP/Components/lsm6dso\lsm6dso_reg.c ****  */
  19:D:/fchai/work/i-cube/I-CUBE-HUAWEI/Drivers/BSP/Components/lsm6dso\lsm6dso_reg.c **** 
  20:D:/fchai/work/i-cube/I-CUBE-HUAWEI/Drivers/BSP/Components/lsm6dso\lsm6dso_reg.c **** #include "lsm6dso_reg.h"
  21:D:/fchai/work/i-cube/I-CUBE-HUAWEI/Drivers/BSP/Components/lsm6dso\lsm6dso_reg.c **** 
  22:D:/fchai/work/i-cube/I-CUBE-HUAWEI/Drivers/BSP/Components/lsm6dso\lsm6dso_reg.c **** /**
  23:D:/fchai/work/i-cube/I-CUBE-HUAWEI/Drivers/BSP/Components/lsm6dso\lsm6dso_reg.c ****   * @defgroup  LSM6DSO
  24:D:/fchai/work/i-cube/I-CUBE-HUAWEI/Drivers/BSP/Components/lsm6dso\lsm6dso_reg.c ****   * @brief     This file provides a set of functions needed to drive the
  25:D:/fchai/work/i-cube/I-CUBE-HUAWEI/Drivers/BSP/Components/lsm6dso\lsm6dso_reg.c ****   *            lsm6dso enhanced inertial module.
  26:D:/fchai/work/i-cube/I-CUBE-HUAWEI/Drivers/BSP/Components/lsm6dso\lsm6dso_reg.c ****   * @{
  27:D:/fchai/work/i-cube/I-CUBE-HUAWEI/Drivers/BSP/Components/lsm6dso\lsm6dso_reg.c ****   *
  28:D:/fchai/work/i-cube/I-CUBE-HUAWEI/Drivers/BSP/Components/lsm6dso\lsm6dso_reg.c **** */
ARM GAS  T:\msys\tmp\ccaXiy3K.s 			page 2


  29:D:/fchai/work/i-cube/I-CUBE-HUAWEI/Drivers/BSP/Components/lsm6dso\lsm6dso_reg.c **** 
  30:D:/fchai/work/i-cube/I-CUBE-HUAWEI/Drivers/BSP/Components/lsm6dso\lsm6dso_reg.c **** /**
  31:D:/fchai/work/i-cube/I-CUBE-HUAWEI/Drivers/BSP/Components/lsm6dso\lsm6dso_reg.c ****   * @defgroup  LSM6DSO_Interfaces_Functions
  32:D:/fchai/work/i-cube/I-CUBE-HUAWEI/Drivers/BSP/Components/lsm6dso\lsm6dso_reg.c ****   * @brief     This section provide a set of functions used to read and
  33:D:/fchai/work/i-cube/I-CUBE-HUAWEI/Drivers/BSP/Components/lsm6dso\lsm6dso_reg.c ****   *            write a generic register of the device.
  34:D:/fchai/work/i-cube/I-CUBE-HUAWEI/Drivers/BSP/Components/lsm6dso\lsm6dso_reg.c ****   *            MANDATORY: return 0 -> no Error.
  35:D:/fchai/work/i-cube/I-CUBE-HUAWEI/Drivers/BSP/Components/lsm6dso\lsm6dso_reg.c ****   * @{
  36:D:/fchai/work/i-cube/I-CUBE-HUAWEI/Drivers/BSP/Components/lsm6dso\lsm6dso_reg.c ****   *
  37:D:/fchai/work/i-cube/I-CUBE-HUAWEI/Drivers/BSP/Components/lsm6dso\lsm6dso_reg.c **** */
  38:D:/fchai/work/i-cube/I-CUBE-HUAWEI/Drivers/BSP/Components/lsm6dso\lsm6dso_reg.c **** 
  39:D:/fchai/work/i-cube/I-CUBE-HUAWEI/Drivers/BSP/Components/lsm6dso\lsm6dso_reg.c **** /**
  40:D:/fchai/work/i-cube/I-CUBE-HUAWEI/Drivers/BSP/Components/lsm6dso\lsm6dso_reg.c ****   * @brief  Read generic device register
  41:D:/fchai/work/i-cube/I-CUBE-HUAWEI/Drivers/BSP/Components/lsm6dso\lsm6dso_reg.c ****   *
  42:D:/fchai/work/i-cube/I-CUBE-HUAWEI/Drivers/BSP/Components/lsm6dso\lsm6dso_reg.c ****   * @param  ctx   read / write interface definitions(ptr)
  43:D:/fchai/work/i-cube/I-CUBE-HUAWEI/Drivers/BSP/Components/lsm6dso\lsm6dso_reg.c ****   * @param  reg   register to read
  44:D:/fchai/work/i-cube/I-CUBE-HUAWEI/Drivers/BSP/Components/lsm6dso\lsm6dso_reg.c ****   * @param  data  pointer to buffer that store the data read(ptr)
  45:D:/fchai/work/i-cube/I-CUBE-HUAWEI/Drivers/BSP/Components/lsm6dso\lsm6dso_reg.c ****   * @param  len   number of consecutive register to read
  46:D:/fchai/work/i-cube/I-CUBE-HUAWEI/Drivers/BSP/Components/lsm6dso\lsm6dso_reg.c ****   * @retval          interface status (MANDATORY: return 0 -> no Error)
  47:D:/fchai/work/i-cube/I-CUBE-HUAWEI/Drivers/BSP/Components/lsm6dso\lsm6dso_reg.c ****   *
  48:D:/fchai/work/i-cube/I-CUBE-HUAWEI/Drivers/BSP/Components/lsm6dso\lsm6dso_reg.c ****   */
  49:D:/fchai/work/i-cube/I-CUBE-HUAWEI/Drivers/BSP/Components/lsm6dso\lsm6dso_reg.c **** int32_t lsm6dso_read_reg(stmdev_ctx_t* ctx, uint8_t reg, uint8_t* data,
  50:D:/fchai/work/i-cube/I-CUBE-HUAWEI/Drivers/BSP/Components/lsm6dso\lsm6dso_reg.c ****                          uint16_t len)
  51:D:/fchai/work/i-cube/I-CUBE-HUAWEI/Drivers/BSP/Components/lsm6dso\lsm6dso_reg.c **** {
  31              		.loc 1 51 1 view -0
  32              		.cfi_startproc
  33              		@ args = 0, pretend = 0, frame = 0
  34              		@ frame_needed = 0, uses_anonymous_args = 0
  35              		@ link register save eliminated.
  52:D:/fchai/work/i-cube/I-CUBE-HUAWEI/Drivers/BSP/Components/lsm6dso\lsm6dso_reg.c ****   int32_t ret;
  36              		.loc 1 52 3 view .LVU1
  53:D:/fchai/work/i-cube/I-CUBE-HUAWEI/Drivers/BSP/Components/lsm6dso\lsm6dso_reg.c ****   ret = ctx->read_reg(ctx->handle, reg, data, len);
  37              		.loc 1 53 3 view .LVU2
  51:D:/fchai/work/i-cube/I-CUBE-HUAWEI/Drivers/BSP/Components/lsm6dso\lsm6dso_reg.c ****   int32_t ret;
  38              		.loc 1 51 1 is_stmt 0 view .LVU3
  39 0000 10B4     		push	{r4}
  40              	.LCFI0:
  41              		.cfi_def_cfa_offset 4
  42              		.cfi_offset 4, -4
  43              		.loc 1 53 9 view .LVU4
  44 0002 D0E90140 		ldrd	r4, r0, [r0, #4]
  45              	.LVL1:
  46              		.loc 1 53 9 view .LVU5
  47 0006 A446     		mov	ip, r4
  54:D:/fchai/work/i-cube/I-CUBE-HUAWEI/Drivers/BSP/Components/lsm6dso\lsm6dso_reg.c ****   return ret;
  55:D:/fchai/work/i-cube/I-CUBE-HUAWEI/Drivers/BSP/Components/lsm6dso\lsm6dso_reg.c **** }
  48              		.loc 1 55 1 view .LVU6
  49 0008 5DF8044B 		ldr	r4, [sp], #4
  50              	.LCFI1:
  51              		.cfi_restore 4
  52              		.cfi_def_cfa_offset 0
  53:D:/fchai/work/i-cube/I-CUBE-HUAWEI/Drivers/BSP/Components/lsm6dso\lsm6dso_reg.c ****   return ret;
  53              		.loc 1 53 9 view .LVU7
  54 000c 6047     		bx	ip
  55              	.LVL2:
  53:D:/fchai/work/i-cube/I-CUBE-HUAWEI/Drivers/BSP/Components/lsm6dso\lsm6dso_reg.c ****   return ret;
  56              		.loc 1 53 9 view .LVU8
  57              		.cfi_endproc
ARM GAS  T:\msys\tmp\ccaXiy3K.s 			page 3


  58              	.LFE0:
  60 000e 00BF     		.section	.text.lsm6dso_write_reg,"ax",%progbits
  61              		.align	1
  62              		.p2align 2,,3
  63              		.global	lsm6dso_write_reg
  64              		.syntax unified
  65              		.thumb
  66              		.thumb_func
  67              		.fpu fpv4-sp-d16
  69              	lsm6dso_write_reg:
  70              	.LVL3:
  71              	.LFB1:
  56:D:/fchai/work/i-cube/I-CUBE-HUAWEI/Drivers/BSP/Components/lsm6dso\lsm6dso_reg.c **** 
  57:D:/fchai/work/i-cube/I-CUBE-HUAWEI/Drivers/BSP/Components/lsm6dso\lsm6dso_reg.c **** /**
  58:D:/fchai/work/i-cube/I-CUBE-HUAWEI/Drivers/BSP/Components/lsm6dso\lsm6dso_reg.c ****   * @brief  Write generic device register
  59:D:/fchai/work/i-cube/I-CUBE-HUAWEI/Drivers/BSP/Components/lsm6dso\lsm6dso_reg.c ****   *
  60:D:/fchai/work/i-cube/I-CUBE-HUAWEI/Drivers/BSP/Components/lsm6dso\lsm6dso_reg.c ****   * @param  ctx   read / write interface definitions(ptr)
  61:D:/fchai/work/i-cube/I-CUBE-HUAWEI/Drivers/BSP/Components/lsm6dso\lsm6dso_reg.c ****   * @param  reg   register to write
  62:D:/fchai/work/i-cube/I-CUBE-HUAWEI/Drivers/BSP/Components/lsm6dso\lsm6dso_reg.c ****   * @param  data  pointer to data to write in register reg(ptr)
  63:D:/fchai/work/i-cube/I-CUBE-HUAWEI/Drivers/BSP/Components/lsm6dso\lsm6dso_reg.c ****   * @param  len   number of consecutive register to write
  64:D:/fchai/work/i-cube/I-CUBE-HUAWEI/Drivers/BSP/Components/lsm6dso\lsm6dso_reg.c ****   * @retval          interface status (MANDATORY: return 0 -> no Error)
  65:D:/fchai/work/i-cube/I-CUBE-HUAWEI/Drivers/BSP/Components/lsm6dso\lsm6dso_reg.c ****   *
  66:D:/fchai/work/i-cube/I-CUBE-HUAWEI/Drivers/BSP/Components/lsm6dso\lsm6dso_reg.c ****   */
  67:D:/fchai/work/i-cube/I-CUBE-HUAWEI/Drivers/BSP/Components/lsm6dso\lsm6dso_reg.c **** int32_t lsm6dso_write_reg(stmdev_ctx_t* ctx, uint8_t reg, uint8_t* data,
  68:D:/fchai/work/i-cube/I-CUBE-HUAWEI/Drivers/BSP/Components/lsm6dso\lsm6dso_reg.c ****                           uint16_t len)
  69:D:/fchai/work/i-cube/I-CUBE-HUAWEI/Drivers/BSP/Components/lsm6dso\lsm6dso_reg.c **** {
  72              		.loc 1 69 1 is_stmt 1 view -0
  73              		.cfi_startproc
  74              		@ args = 0, pretend = 0, frame = 0
  75              		@ frame_needed = 0, uses_anonymous_args = 0
  76              		@ link register save eliminated.
  70:D:/fchai/work/i-cube/I-CUBE-HUAWEI/Drivers/BSP/Components/lsm6dso\lsm6dso_reg.c ****   int32_t ret;
  77              		.loc 1 70 3 view .LVU10
  71:D:/fchai/work/i-cube/I-CUBE-HUAWEI/Drivers/BSP/Components/lsm6dso\lsm6dso_reg.c ****   ret = ctx->write_reg(ctx->handle, reg, data, len);
  78              		.loc 1 71 3 view .LVU11
  69:D:/fchai/work/i-cube/I-CUBE-HUAWEI/Drivers/BSP/Components/lsm6dso\lsm6dso_reg.c ****   int32_t ret;
  79              		.loc 1 69 1 is_stmt 0 view .LVU12
  80 0000 10B4     		push	{r4}
  81              	.LCFI2:
  82              		.cfi_def_cfa_offset 4
  83              		.cfi_offset 4, -4
  84              		.loc 1 71 9 view .LVU13
  85 0002 0468     		ldr	r4, [r0]
  86 0004 8068     		ldr	r0, [r0, #8]
  87              	.LVL4:
  88              		.loc 1 71 9 view .LVU14
  89 0006 A446     		mov	ip, r4
  72:D:/fchai/work/i-cube/I-CUBE-HUAWEI/Drivers/BSP/Components/lsm6dso\lsm6dso_reg.c ****   return ret;
  73:D:/fchai/work/i-cube/I-CUBE-HUAWEI/Drivers/BSP/Components/lsm6dso\lsm6dso_reg.c **** }
  90              		.loc 1 73 1 view .LVU15
  91 0008 5DF8044B 		ldr	r4, [sp], #4
  92              	.LCFI3:
  93              		.cfi_restore 4
  94              		.cfi_def_cfa_offset 0
  71:D:/fchai/work/i-cube/I-CUBE-HUAWEI/Drivers/BSP/Components/lsm6dso\lsm6dso_reg.c ****   return ret;
  95              		.loc 1 71 9 view .LVU16
  96 000c 6047     		bx	ip
ARM GAS  T:\msys\tmp\ccaXiy3K.s 			page 4


  97              	.LVL5:
  71:D:/fchai/work/i-cube/I-CUBE-HUAWEI/Drivers/BSP/Components/lsm6dso\lsm6dso_reg.c ****   return ret;
  98              		.loc 1 71 9 view .LVU17
  99              		.cfi_endproc
 100              	.LFE1:
 102 000e 00BF     		.section	.text.lsm6dso_from_fs2_to_mg,"ax",%progbits
 103              		.align	1
 104              		.p2align 2,,3
 105              		.global	lsm6dso_from_fs2_to_mg
 106              		.syntax unified
 107              		.thumb
 108              		.thumb_func
 109              		.fpu fpv4-sp-d16
 111              	lsm6dso_from_fs2_to_mg:
 112              	.LVL6:
 113              	.LFB2:
  74:D:/fchai/work/i-cube/I-CUBE-HUAWEI/Drivers/BSP/Components/lsm6dso\lsm6dso_reg.c **** 
  75:D:/fchai/work/i-cube/I-CUBE-HUAWEI/Drivers/BSP/Components/lsm6dso\lsm6dso_reg.c **** /**
  76:D:/fchai/work/i-cube/I-CUBE-HUAWEI/Drivers/BSP/Components/lsm6dso\lsm6dso_reg.c ****   * @}
  77:D:/fchai/work/i-cube/I-CUBE-HUAWEI/Drivers/BSP/Components/lsm6dso\lsm6dso_reg.c ****   *
  78:D:/fchai/work/i-cube/I-CUBE-HUAWEI/Drivers/BSP/Components/lsm6dso\lsm6dso_reg.c **** */
  79:D:/fchai/work/i-cube/I-CUBE-HUAWEI/Drivers/BSP/Components/lsm6dso\lsm6dso_reg.c **** 
  80:D:/fchai/work/i-cube/I-CUBE-HUAWEI/Drivers/BSP/Components/lsm6dso\lsm6dso_reg.c **** /**
  81:D:/fchai/work/i-cube/I-CUBE-HUAWEI/Drivers/BSP/Components/lsm6dso\lsm6dso_reg.c ****   * @defgroup  LSM6DSO_Sensitivity
  82:D:/fchai/work/i-cube/I-CUBE-HUAWEI/Drivers/BSP/Components/lsm6dso\lsm6dso_reg.c ****   * @brief     These functions convert raw-data into engineering units.
  83:D:/fchai/work/i-cube/I-CUBE-HUAWEI/Drivers/BSP/Components/lsm6dso\lsm6dso_reg.c ****   * @{
  84:D:/fchai/work/i-cube/I-CUBE-HUAWEI/Drivers/BSP/Components/lsm6dso\lsm6dso_reg.c ****   *
  85:D:/fchai/work/i-cube/I-CUBE-HUAWEI/Drivers/BSP/Components/lsm6dso\lsm6dso_reg.c **** */
  86:D:/fchai/work/i-cube/I-CUBE-HUAWEI/Drivers/BSP/Components/lsm6dso\lsm6dso_reg.c **** float_t lsm6dso_from_fs2_to_mg(int16_t lsb)
  87:D:/fchai/work/i-cube/I-CUBE-HUAWEI/Drivers/BSP/Components/lsm6dso\lsm6dso_reg.c **** {
 114              		.loc 1 87 1 is_stmt 1 view -0
 115              		.cfi_startproc
 116              		@ args = 0, pretend = 0, frame = 0
 117              		@ frame_needed = 0, uses_anonymous_args = 0
 118              		@ link register save eliminated.
  88:D:/fchai/work/i-cube/I-CUBE-HUAWEI/Drivers/BSP/Components/lsm6dso\lsm6dso_reg.c ****   return ((float_t)lsb) * 0.061f;
 119              		.loc 1 88 3 view .LVU19
 120              		.loc 1 88 11 is_stmt 0 view .LVU20
 121 0000 07EE900A 		vmov	s15, r0	@ int
 122 0004 B8EEE70A 		vcvt.f32.s32	s0, s15
 123              		.loc 1 88 25 view .LVU21
 124 0008 DFED027A 		vldr.32	s15, .L7
  89:D:/fchai/work/i-cube/I-CUBE-HUAWEI/Drivers/BSP/Components/lsm6dso\lsm6dso_reg.c **** }
 125              		.loc 1 89 1 view .LVU22
 126 000c 20EE270A 		vmul.f32	s0, s0, s15
 127 0010 7047     		bx	lr
 128              	.L8:
 129 0012 00BF     		.align	2
 130              	.L7:
 131 0014 23DB793D 		.word	1031396131
 132              		.cfi_endproc
 133              	.LFE2:
 135              		.section	.text.lsm6dso_from_fs4_to_mg,"ax",%progbits
 136              		.align	1
 137              		.p2align 2,,3
 138              		.global	lsm6dso_from_fs4_to_mg
 139              		.syntax unified
ARM GAS  T:\msys\tmp\ccaXiy3K.s 			page 5


 140              		.thumb
 141              		.thumb_func
 142              		.fpu fpv4-sp-d16
 144              	lsm6dso_from_fs4_to_mg:
 145              	.LVL7:
 146              	.LFB3:
  90:D:/fchai/work/i-cube/I-CUBE-HUAWEI/Drivers/BSP/Components/lsm6dso\lsm6dso_reg.c **** 
  91:D:/fchai/work/i-cube/I-CUBE-HUAWEI/Drivers/BSP/Components/lsm6dso\lsm6dso_reg.c **** float_t lsm6dso_from_fs4_to_mg(int16_t lsb)
  92:D:/fchai/work/i-cube/I-CUBE-HUAWEI/Drivers/BSP/Components/lsm6dso\lsm6dso_reg.c **** {
 147              		.loc 1 92 1 is_stmt 1 view -0
 148              		.cfi_startproc
 149              		@ args = 0, pretend = 0, frame = 0
 150              		@ frame_needed = 0, uses_anonymous_args = 0
 151              		@ link register save eliminated.
  93:D:/fchai/work/i-cube/I-CUBE-HUAWEI/Drivers/BSP/Components/lsm6dso\lsm6dso_reg.c ****   return ((float_t)lsb) * 0.122f;
 152              		.loc 1 93 3 view .LVU24
 153              		.loc 1 93 11 is_stmt 0 view .LVU25
 154 0000 07EE900A 		vmov	s15, r0	@ int
 155 0004 B8EEE70A 		vcvt.f32.s32	s0, s15
 156              		.loc 1 93 25 view .LVU26
 157 0008 DFED027A 		vldr.32	s15, .L10
  94:D:/fchai/work/i-cube/I-CUBE-HUAWEI/Drivers/BSP/Components/lsm6dso\lsm6dso_reg.c **** }
 158              		.loc 1 94 1 view .LVU27
 159 000c 20EE270A 		vmul.f32	s0, s0, s15
 160 0010 7047     		bx	lr
 161              	.L11:
 162 0012 00BF     		.align	2
 163              	.L10:
 164 0014 23DBF93D 		.word	1039784739
 165              		.cfi_endproc
 166              	.LFE3:
 168              		.section	.text.lsm6dso_from_fs8_to_mg,"ax",%progbits
 169              		.align	1
 170              		.p2align 2,,3
 171              		.global	lsm6dso_from_fs8_to_mg
 172              		.syntax unified
 173              		.thumb
 174              		.thumb_func
 175              		.fpu fpv4-sp-d16
 177              	lsm6dso_from_fs8_to_mg:
 178              	.LVL8:
 179              	.LFB4:
  95:D:/fchai/work/i-cube/I-CUBE-HUAWEI/Drivers/BSP/Components/lsm6dso\lsm6dso_reg.c **** 
  96:D:/fchai/work/i-cube/I-CUBE-HUAWEI/Drivers/BSP/Components/lsm6dso\lsm6dso_reg.c **** float_t lsm6dso_from_fs8_to_mg(int16_t lsb)
  97:D:/fchai/work/i-cube/I-CUBE-HUAWEI/Drivers/BSP/Components/lsm6dso\lsm6dso_reg.c **** {
 180              		.loc 1 97 1 is_stmt 1 view -0
 181              		.cfi_startproc
 182              		@ args = 0, pretend = 0, frame = 0
 183              		@ frame_needed = 0, uses_anonymous_args = 0
 184              		@ link register save eliminated.
  98:D:/fchai/work/i-cube/I-CUBE-HUAWEI/Drivers/BSP/Components/lsm6dso\lsm6dso_reg.c ****   return ((float_t)lsb) * 0.244f;
 185              		.loc 1 98 3 view .LVU29
 186              		.loc 1 98 11 is_stmt 0 view .LVU30
 187 0000 07EE900A 		vmov	s15, r0	@ int
 188 0004 B8EEE70A 		vcvt.f32.s32	s0, s15
 189              		.loc 1 98 25 view .LVU31
 190 0008 DFED027A 		vldr.32	s15, .L13
ARM GAS  T:\msys\tmp\ccaXiy3K.s 			page 6


  99:D:/fchai/work/i-cube/I-CUBE-HUAWEI/Drivers/BSP/Components/lsm6dso\lsm6dso_reg.c **** }
 191              		.loc 1 99 1 view .LVU32
 192 000c 20EE270A 		vmul.f32	s0, s0, s15
 193 0010 7047     		bx	lr
 194              	.L14:
 195 0012 00BF     		.align	2
 196              	.L13:
 197 0014 23DB793E 		.word	1048173347
 198              		.cfi_endproc
 199              	.LFE4:
 201              		.section	.text.lsm6dso_from_fs16_to_mg,"ax",%progbits
 202              		.align	1
 203              		.p2align 2,,3
 204              		.global	lsm6dso_from_fs16_to_mg
 205              		.syntax unified
 206              		.thumb
 207              		.thumb_func
 208              		.fpu fpv4-sp-d16
 210              	lsm6dso_from_fs16_to_mg:
 211              	.LVL9:
 212              	.LFB5:
 100:D:/fchai/work/i-cube/I-CUBE-HUAWEI/Drivers/BSP/Components/lsm6dso\lsm6dso_reg.c **** 
 101:D:/fchai/work/i-cube/I-CUBE-HUAWEI/Drivers/BSP/Components/lsm6dso\lsm6dso_reg.c **** float_t lsm6dso_from_fs16_to_mg(int16_t lsb)
 102:D:/fchai/work/i-cube/I-CUBE-HUAWEI/Drivers/BSP/Components/lsm6dso\lsm6dso_reg.c **** {
 213              		.loc 1 102 1 is_stmt 1 view -0
 214              		.cfi_startproc
 215              		@ args = 0, pretend = 0, frame = 0
 216              		@ frame_needed = 0, uses_anonymous_args = 0
 217              		@ link register save eliminated.
 103:D:/fchai/work/i-cube/I-CUBE-HUAWEI/Drivers/BSP/Components/lsm6dso\lsm6dso_reg.c ****   return ((float_t)lsb) *0.488f;
 218              		.loc 1 103 3 view .LVU34
 219              		.loc 1 103 11 is_stmt 0 view .LVU35
 220 0000 07EE900A 		vmov	s15, r0	@ int
 221 0004 B8EEE70A 		vcvt.f32.s32	s0, s15
 222              		.loc 1 103 25 view .LVU36
 223 0008 DFED027A 		vldr.32	s15, .L16
 104:D:/fchai/work/i-cube/I-CUBE-HUAWEI/Drivers/BSP/Components/lsm6dso\lsm6dso_reg.c **** }
 224              		.loc 1 104 1 view .LVU37
 225 000c 20EE270A 		vmul.f32	s0, s0, s15
 226 0010 7047     		bx	lr
 227              	.L17:
 228 0012 00BF     		.align	2
 229              	.L16:
 230 0014 23DBF93E 		.word	1056561955
 231              		.cfi_endproc
 232              	.LFE5:
 234              		.section	.text.lsm6dso_from_fs125_to_mdps,"ax",%progbits
 235              		.align	1
 236              		.p2align 2,,3
 237              		.global	lsm6dso_from_fs125_to_mdps
 238              		.syntax unified
 239              		.thumb
 240              		.thumb_func
 241              		.fpu fpv4-sp-d16
 243              	lsm6dso_from_fs125_to_mdps:
 244              	.LVL10:
 245              	.LFB6:
ARM GAS  T:\msys\tmp\ccaXiy3K.s 			page 7


 105:D:/fchai/work/i-cube/I-CUBE-HUAWEI/Drivers/BSP/Components/lsm6dso\lsm6dso_reg.c **** 
 106:D:/fchai/work/i-cube/I-CUBE-HUAWEI/Drivers/BSP/Components/lsm6dso\lsm6dso_reg.c **** float_t lsm6dso_from_fs125_to_mdps(int16_t lsb)
 107:D:/fchai/work/i-cube/I-CUBE-HUAWEI/Drivers/BSP/Components/lsm6dso\lsm6dso_reg.c **** {
 246              		.loc 1 107 1 is_stmt 1 view -0
 247              		.cfi_startproc
 248              		@ args = 0, pretend = 0, frame = 0
 249              		@ frame_needed = 0, uses_anonymous_args = 0
 250              		@ link register save eliminated.
 108:D:/fchai/work/i-cube/I-CUBE-HUAWEI/Drivers/BSP/Components/lsm6dso\lsm6dso_reg.c ****   return ((float_t)lsb) *4.375f;
 251              		.loc 1 108 3 view .LVU39
 252              		.loc 1 108 11 is_stmt 0 view .LVU40
 253 0000 07EE900A 		vmov	s15, r0	@ int
 254 0004 B8EEE70A 		vcvt.f32.s32	s0, s15
 255              		.loc 1 108 25 view .LVU41
 256 0008 DFED027A 		vldr.32	s15, .L19
 109:D:/fchai/work/i-cube/I-CUBE-HUAWEI/Drivers/BSP/Components/lsm6dso\lsm6dso_reg.c **** }
 257              		.loc 1 109 1 view .LVU42
 258 000c 20EE270A 		vmul.f32	s0, s0, s15
 259 0010 7047     		bx	lr
 260              	.L20:
 261 0012 00BF     		.align	2
 262              	.L19:
 263 0014 00008C40 		.word	1082916864
 264              		.cfi_endproc
 265              	.LFE6:
 267              		.section	.text.lsm6dso_from_fs500_to_mdps,"ax",%progbits
 268              		.align	1
 269              		.p2align 2,,3
 270              		.global	lsm6dso_from_fs500_to_mdps
 271              		.syntax unified
 272              		.thumb
 273              		.thumb_func
 274              		.fpu fpv4-sp-d16
 276              	lsm6dso_from_fs500_to_mdps:
 277              	.LVL11:
 278              	.LFB7:
 110:D:/fchai/work/i-cube/I-CUBE-HUAWEI/Drivers/BSP/Components/lsm6dso\lsm6dso_reg.c **** 
 111:D:/fchai/work/i-cube/I-CUBE-HUAWEI/Drivers/BSP/Components/lsm6dso\lsm6dso_reg.c **** float_t lsm6dso_from_fs500_to_mdps(int16_t lsb)
 112:D:/fchai/work/i-cube/I-CUBE-HUAWEI/Drivers/BSP/Components/lsm6dso\lsm6dso_reg.c **** {
 279              		.loc 1 112 1 is_stmt 1 view -0
 280              		.cfi_startproc
 281              		@ args = 0, pretend = 0, frame = 0
 282              		@ frame_needed = 0, uses_anonymous_args = 0
 283              		@ link register save eliminated.
 113:D:/fchai/work/i-cube/I-CUBE-HUAWEI/Drivers/BSP/Components/lsm6dso\lsm6dso_reg.c ****   return ((float_t)lsb) *17.50f;
 284              		.loc 1 113 3 view .LVU44
 285              		.loc 1 113 11 is_stmt 0 view .LVU45
 286 0000 07EE900A 		vmov	s15, r0	@ int
 287 0004 B8EEE70A 		vcvt.f32.s32	s0, s15
 288              		.loc 1 113 25 view .LVU46
 289 0008 DFED027A 		vldr.32	s15, .L22
 114:D:/fchai/work/i-cube/I-CUBE-HUAWEI/Drivers/BSP/Components/lsm6dso\lsm6dso_reg.c **** }
 290              		.loc 1 114 1 view .LVU47
 291 000c 20EE270A 		vmul.f32	s0, s0, s15
 292 0010 7047     		bx	lr
 293              	.L23:
 294 0012 00BF     		.align	2
ARM GAS  T:\msys\tmp\ccaXiy3K.s 			page 8


 295              	.L22:
 296 0014 00008C41 		.word	1099694080
 297              		.cfi_endproc
 298              	.LFE7:
 300              		.section	.text.lsm6dso_from_fs250_to_mdps,"ax",%progbits
 301              		.align	1
 302              		.p2align 2,,3
 303              		.global	lsm6dso_from_fs250_to_mdps
 304              		.syntax unified
 305              		.thumb
 306              		.thumb_func
 307              		.fpu fpv4-sp-d16
 309              	lsm6dso_from_fs250_to_mdps:
 310              	.LVL12:
 311              	.LFB8:
 115:D:/fchai/work/i-cube/I-CUBE-HUAWEI/Drivers/BSP/Components/lsm6dso\lsm6dso_reg.c **** 
 116:D:/fchai/work/i-cube/I-CUBE-HUAWEI/Drivers/BSP/Components/lsm6dso\lsm6dso_reg.c **** float_t lsm6dso_from_fs250_to_mdps(int16_t lsb)
 117:D:/fchai/work/i-cube/I-CUBE-HUAWEI/Drivers/BSP/Components/lsm6dso\lsm6dso_reg.c **** {
 312              		.loc 1 117 1 is_stmt 1 view -0
 313              		.cfi_startproc
 314              		@ args = 0, pretend = 0, frame = 0
 315              		@ frame_needed = 0, uses_anonymous_args = 0
 316              		@ link register save eliminated.
 118:D:/fchai/work/i-cube/I-CUBE-HUAWEI/Drivers/BSP/Components/lsm6dso\lsm6dso_reg.c ****   return ((float_t)lsb) *8.750f;
 317              		.loc 1 118 3 view .LVU49
 318              		.loc 1 118 11 is_stmt 0 view .LVU50
 319 0000 07EE900A 		vmov	s15, r0	@ int
 320 0004 B8EEE70A 		vcvt.f32.s32	s0, s15
 321              		.loc 1 118 25 view .LVU51
 322 0008 DFED027A 		vldr.32	s15, .L25
 119:D:/fchai/work/i-cube/I-CUBE-HUAWEI/Drivers/BSP/Components/lsm6dso\lsm6dso_reg.c **** }
 323              		.loc 1 119 1 view .LVU52
 324 000c 20EE270A 		vmul.f32	s0, s0, s15
 325 0010 7047     		bx	lr
 326              	.L26:
 327 0012 00BF     		.align	2
 328              	.L25:
 329 0014 00000C41 		.word	1091305472
 330              		.cfi_endproc
 331              	.LFE8:
 333              		.section	.text.lsm6dso_from_fs1000_to_mdps,"ax",%progbits
 334              		.align	1
 335              		.p2align 2,,3
 336              		.global	lsm6dso_from_fs1000_to_mdps
 337              		.syntax unified
 338              		.thumb
 339              		.thumb_func
 340              		.fpu fpv4-sp-d16
 342              	lsm6dso_from_fs1000_to_mdps:
 343              	.LVL13:
 344              	.LFB9:
 120:D:/fchai/work/i-cube/I-CUBE-HUAWEI/Drivers/BSP/Components/lsm6dso\lsm6dso_reg.c **** 
 121:D:/fchai/work/i-cube/I-CUBE-HUAWEI/Drivers/BSP/Components/lsm6dso\lsm6dso_reg.c **** float_t lsm6dso_from_fs1000_to_mdps(int16_t lsb)
 122:D:/fchai/work/i-cube/I-CUBE-HUAWEI/Drivers/BSP/Components/lsm6dso\lsm6dso_reg.c **** {
 345              		.loc 1 122 1 is_stmt 1 view -0
 346              		.cfi_startproc
 347              		@ args = 0, pretend = 0, frame = 0
ARM GAS  T:\msys\tmp\ccaXiy3K.s 			page 9


 348              		@ frame_needed = 0, uses_anonymous_args = 0
 349              		@ link register save eliminated.
 123:D:/fchai/work/i-cube/I-CUBE-HUAWEI/Drivers/BSP/Components/lsm6dso\lsm6dso_reg.c ****   return ((float_t)lsb) *35.0f;
 350              		.loc 1 123 3 view .LVU54
 351              		.loc 1 123 11 is_stmt 0 view .LVU55
 352 0000 07EE900A 		vmov	s15, r0	@ int
 353 0004 B8EEE70A 		vcvt.f32.s32	s0, s15
 354              		.loc 1 123 25 view .LVU56
 355 0008 DFED027A 		vldr.32	s15, .L28
 124:D:/fchai/work/i-cube/I-CUBE-HUAWEI/Drivers/BSP/Components/lsm6dso\lsm6dso_reg.c **** }
 356              		.loc 1 124 1 view .LVU57
 357 000c 20EE270A 		vmul.f32	s0, s0, s15
 358 0010 7047     		bx	lr
 359              	.L29:
 360 0012 00BF     		.align	2
 361              	.L28:
 362 0014 00000C42 		.word	1108082688
 363              		.cfi_endproc
 364              	.LFE9:
 366              		.section	.text.lsm6dso_from_fs2000_to_mdps,"ax",%progbits
 367              		.align	1
 368              		.p2align 2,,3
 369              		.global	lsm6dso_from_fs2000_to_mdps
 370              		.syntax unified
 371              		.thumb
 372              		.thumb_func
 373              		.fpu fpv4-sp-d16
 375              	lsm6dso_from_fs2000_to_mdps:
 376              	.LVL14:
 377              	.LFB10:
 125:D:/fchai/work/i-cube/I-CUBE-HUAWEI/Drivers/BSP/Components/lsm6dso\lsm6dso_reg.c **** 
 126:D:/fchai/work/i-cube/I-CUBE-HUAWEI/Drivers/BSP/Components/lsm6dso\lsm6dso_reg.c **** float_t lsm6dso_from_fs2000_to_mdps(int16_t lsb)
 127:D:/fchai/work/i-cube/I-CUBE-HUAWEI/Drivers/BSP/Components/lsm6dso\lsm6dso_reg.c **** {
 378              		.loc 1 127 1 is_stmt 1 view -0
 379              		.cfi_startproc
 380              		@ args = 0, pretend = 0, frame = 0
 381              		@ frame_needed = 0, uses_anonymous_args = 0
 382              		@ link register save eliminated.
 128:D:/fchai/work/i-cube/I-CUBE-HUAWEI/Drivers/BSP/Components/lsm6dso\lsm6dso_reg.c ****   return ((float_t)lsb) *70.0f;
 383              		.loc 1 128 3 view .LVU59
 384              		.loc 1 128 11 is_stmt 0 view .LVU60
 385 0000 07EE900A 		vmov	s15, r0	@ int
 386 0004 B8EEE70A 		vcvt.f32.s32	s0, s15
 387              		.loc 1 128 25 view .LVU61
 388 0008 DFED027A 		vldr.32	s15, .L31
 129:D:/fchai/work/i-cube/I-CUBE-HUAWEI/Drivers/BSP/Components/lsm6dso\lsm6dso_reg.c **** }
 389              		.loc 1 129 1 view .LVU62
 390 000c 20EE270A 		vmul.f32	s0, s0, s15
 391 0010 7047     		bx	lr
 392              	.L32:
 393 0012 00BF     		.align	2
 394              	.L31:
 395 0014 00008C42 		.word	1116471296
 396              		.cfi_endproc
 397              	.LFE10:
 399              		.section	.text.lsm6dso_from_lsb_to_celsius,"ax",%progbits
 400              		.align	1
ARM GAS  T:\msys\tmp\ccaXiy3K.s 			page 10


 401              		.p2align 2,,3
 402              		.global	lsm6dso_from_lsb_to_celsius
 403              		.syntax unified
 404              		.thumb
 405              		.thumb_func
 406              		.fpu fpv4-sp-d16
 408              	lsm6dso_from_lsb_to_celsius:
 409              	.LVL15:
 410              	.LFB11:
 130:D:/fchai/work/i-cube/I-CUBE-HUAWEI/Drivers/BSP/Components/lsm6dso\lsm6dso_reg.c **** 
 131:D:/fchai/work/i-cube/I-CUBE-HUAWEI/Drivers/BSP/Components/lsm6dso\lsm6dso_reg.c **** float_t lsm6dso_from_lsb_to_celsius(int16_t lsb)
 132:D:/fchai/work/i-cube/I-CUBE-HUAWEI/Drivers/BSP/Components/lsm6dso\lsm6dso_reg.c **** {
 411              		.loc 1 132 1 is_stmt 1 view -0
 412              		.cfi_startproc
 413              		@ args = 0, pretend = 0, frame = 0
 414              		@ frame_needed = 0, uses_anonymous_args = 0
 415              		@ link register save eliminated.
 133:D:/fchai/work/i-cube/I-CUBE-HUAWEI/Drivers/BSP/Components/lsm6dso\lsm6dso_reg.c ****   return (((float_t)lsb / 256.0f) + 25.0f);
 416              		.loc 1 133 3 view .LVU64
 417              		.loc 1 133 12 is_stmt 0 view .LVU65
 418 0000 07EE900A 		vmov	s15, r0	@ int
 419              		.loc 1 133 35 view .LVU66
 420 0004 9FED047A 		vldr.32	s14, .L34
 421              		.loc 1 133 12 view .LVU67
 422 0008 F8EEE77A 		vcvt.f32.s32	s15, s15
 423              		.loc 1 133 35 view .LVU68
 424 000c B3EE090A 		vmov.f32	s0, #2.5e+1
 134:D:/fchai/work/i-cube/I-CUBE-HUAWEI/Drivers/BSP/Components/lsm6dso\lsm6dso_reg.c **** }
 425              		.loc 1 134 1 view .LVU69
 426 0010 A7EE870A 		vfma.f32	s0, s15, s14
 427 0014 7047     		bx	lr
 428              	.L35:
 429 0016 00BF     		.align	2
 430              	.L34:
 431 0018 0000803B 		.word	998244352
 432              		.cfi_endproc
 433              	.LFE11:
 435              		.section	.text.lsm6dso_from_lsb_to_nsec,"ax",%progbits
 436              		.align	1
 437              		.p2align 2,,3
 438              		.global	lsm6dso_from_lsb_to_nsec
 439              		.syntax unified
 440              		.thumb
 441              		.thumb_func
 442              		.fpu fpv4-sp-d16
 444              	lsm6dso_from_lsb_to_nsec:
 445              	.LVL16:
 446              	.LFB12:
 135:D:/fchai/work/i-cube/I-CUBE-HUAWEI/Drivers/BSP/Components/lsm6dso\lsm6dso_reg.c **** 
 136:D:/fchai/work/i-cube/I-CUBE-HUAWEI/Drivers/BSP/Components/lsm6dso\lsm6dso_reg.c **** float_t lsm6dso_from_lsb_to_nsec(int16_t lsb)
 137:D:/fchai/work/i-cube/I-CUBE-HUAWEI/Drivers/BSP/Components/lsm6dso\lsm6dso_reg.c **** {
 447              		.loc 1 137 1 is_stmt 1 view -0
 448              		.cfi_startproc
 449              		@ args = 0, pretend = 0, frame = 0
 450              		@ frame_needed = 0, uses_anonymous_args = 0
 451              		@ link register save eliminated.
 138:D:/fchai/work/i-cube/I-CUBE-HUAWEI/Drivers/BSP/Components/lsm6dso\lsm6dso_reg.c ****   return ((float_t)lsb * 25000.0f);
ARM GAS  T:\msys\tmp\ccaXiy3K.s 			page 11


 452              		.loc 1 138 3 view .LVU71
 453              		.loc 1 138 11 is_stmt 0 view .LVU72
 454 0000 07EE900A 		vmov	s15, r0	@ int
 455 0004 B8EEE70A 		vcvt.f32.s32	s0, s15
 456              		.loc 1 138 24 view .LVU73
 457 0008 DFED027A 		vldr.32	s15, .L37
 139:D:/fchai/work/i-cube/I-CUBE-HUAWEI/Drivers/BSP/Components/lsm6dso\lsm6dso_reg.c **** }
 458              		.loc 1 139 1 view .LVU74
 459 000c 20EE270A 		vmul.f32	s0, s0, s15
 460 0010 7047     		bx	lr
 461              	.L38:
 462 0012 00BF     		.align	2
 463              	.L37:
 464 0014 0050C346 		.word	1187205120
 465              		.cfi_endproc
 466              	.LFE12:
 468              		.section	.text.lsm6dso_xl_full_scale_set,"ax",%progbits
 469              		.align	1
 470              		.p2align 2,,3
 471              		.global	lsm6dso_xl_full_scale_set
 472              		.syntax unified
 473              		.thumb
 474              		.thumb_func
 475              		.fpu fpv4-sp-d16
 477              	lsm6dso_xl_full_scale_set:
 478              	.LVL17:
 479              	.LFB13:
 140:D:/fchai/work/i-cube/I-CUBE-HUAWEI/Drivers/BSP/Components/lsm6dso\lsm6dso_reg.c **** 
 141:D:/fchai/work/i-cube/I-CUBE-HUAWEI/Drivers/BSP/Components/lsm6dso\lsm6dso_reg.c **** /**
 142:D:/fchai/work/i-cube/I-CUBE-HUAWEI/Drivers/BSP/Components/lsm6dso\lsm6dso_reg.c ****   * @}
 143:D:/fchai/work/i-cube/I-CUBE-HUAWEI/Drivers/BSP/Components/lsm6dso\lsm6dso_reg.c ****   *
 144:D:/fchai/work/i-cube/I-CUBE-HUAWEI/Drivers/BSP/Components/lsm6dso\lsm6dso_reg.c **** */
 145:D:/fchai/work/i-cube/I-CUBE-HUAWEI/Drivers/BSP/Components/lsm6dso\lsm6dso_reg.c **** 
 146:D:/fchai/work/i-cube/I-CUBE-HUAWEI/Drivers/BSP/Components/lsm6dso\lsm6dso_reg.c **** /**
 147:D:/fchai/work/i-cube/I-CUBE-HUAWEI/Drivers/BSP/Components/lsm6dso\lsm6dso_reg.c ****   * @defgroup  LSM6DSO_Data_Generation
 148:D:/fchai/work/i-cube/I-CUBE-HUAWEI/Drivers/BSP/Components/lsm6dso\lsm6dso_reg.c ****   * @brief     This section groups all the functions concerning
 149:D:/fchai/work/i-cube/I-CUBE-HUAWEI/Drivers/BSP/Components/lsm6dso\lsm6dso_reg.c ****   *            data generation.
 150:D:/fchai/work/i-cube/I-CUBE-HUAWEI/Drivers/BSP/Components/lsm6dso\lsm6dso_reg.c ****   *
 151:D:/fchai/work/i-cube/I-CUBE-HUAWEI/Drivers/BSP/Components/lsm6dso\lsm6dso_reg.c **** */
 152:D:/fchai/work/i-cube/I-CUBE-HUAWEI/Drivers/BSP/Components/lsm6dso\lsm6dso_reg.c **** 
 153:D:/fchai/work/i-cube/I-CUBE-HUAWEI/Drivers/BSP/Components/lsm6dso\lsm6dso_reg.c **** /**
 154:D:/fchai/work/i-cube/I-CUBE-HUAWEI/Drivers/BSP/Components/lsm6dso\lsm6dso_reg.c ****   * @brief  Accelerometer full-scale selection.[set]
 155:D:/fchai/work/i-cube/I-CUBE-HUAWEI/Drivers/BSP/Components/lsm6dso\lsm6dso_reg.c ****   *
 156:D:/fchai/work/i-cube/I-CUBE-HUAWEI/Drivers/BSP/Components/lsm6dso\lsm6dso_reg.c ****   * @param  ctx      read / write interface definitions
 157:D:/fchai/work/i-cube/I-CUBE-HUAWEI/Drivers/BSP/Components/lsm6dso\lsm6dso_reg.c ****   * @param  val      change the values of fs_xl in reg CTRL1_XL
 158:D:/fchai/work/i-cube/I-CUBE-HUAWEI/Drivers/BSP/Components/lsm6dso\lsm6dso_reg.c ****   *
 159:D:/fchai/work/i-cube/I-CUBE-HUAWEI/Drivers/BSP/Components/lsm6dso\lsm6dso_reg.c ****   */
 160:D:/fchai/work/i-cube/I-CUBE-HUAWEI/Drivers/BSP/Components/lsm6dso\lsm6dso_reg.c **** int32_t lsm6dso_xl_full_scale_set(stmdev_ctx_t *ctx,
 161:D:/fchai/work/i-cube/I-CUBE-HUAWEI/Drivers/BSP/Components/lsm6dso\lsm6dso_reg.c ****                                   lsm6dso_fs_xl_t val)
 162:D:/fchai/work/i-cube/I-CUBE-HUAWEI/Drivers/BSP/Components/lsm6dso\lsm6dso_reg.c **** {
 480              		.loc 1 162 1 is_stmt 1 view -0
 481              		.cfi_startproc
 482              		@ args = 0, pretend = 0, frame = 8
 483              		@ frame_needed = 0, uses_anonymous_args = 0
 163:D:/fchai/work/i-cube/I-CUBE-HUAWEI/Drivers/BSP/Components/lsm6dso\lsm6dso_reg.c ****   lsm6dso_ctrl1_xl_t reg;
 484              		.loc 1 163 3 view .LVU76
 164:D:/fchai/work/i-cube/I-CUBE-HUAWEI/Drivers/BSP/Components/lsm6dso\lsm6dso_reg.c ****   int32_t ret;
ARM GAS  T:\msys\tmp\ccaXiy3K.s 			page 12


 485              		.loc 1 164 3 view .LVU77
 165:D:/fchai/work/i-cube/I-CUBE-HUAWEI/Drivers/BSP/Components/lsm6dso\lsm6dso_reg.c **** 
 166:D:/fchai/work/i-cube/I-CUBE-HUAWEI/Drivers/BSP/Components/lsm6dso\lsm6dso_reg.c ****   ret = lsm6dso_read_reg(ctx, LSM6DSO_CTRL1_XL, (uint8_t*)&reg, 1);
 486              		.loc 1 166 3 view .LVU78
 162:D:/fchai/work/i-cube/I-CUBE-HUAWEI/Drivers/BSP/Components/lsm6dso\lsm6dso_reg.c ****   lsm6dso_ctrl1_xl_t reg;
 487              		.loc 1 162 1 is_stmt 0 view .LVU79
 488 0000 70B5     		push	{r4, r5, r6, lr}
 489              	.LCFI4:
 490              		.cfi_def_cfa_offset 16
 491              		.cfi_offset 4, -16
 492              		.cfi_offset 5, -12
 493              		.cfi_offset 6, -8
 494              		.cfi_offset 14, -4
 495 0002 82B0     		sub	sp, sp, #8
 496              	.LCFI5:
 497              		.cfi_def_cfa_offset 24
 162:D:/fchai/work/i-cube/I-CUBE-HUAWEI/Drivers/BSP/Components/lsm6dso\lsm6dso_reg.c ****   lsm6dso_ctrl1_xl_t reg;
 498              		.loc 1 162 1 view .LVU80
 499 0004 0446     		mov	r4, r0
 500              	.LVL18:
 501              	.LBB1000:
 502              	.LBI1000:
  49:D:/fchai/work/i-cube/I-CUBE-HUAWEI/Drivers/BSP/Components/lsm6dso\lsm6dso_reg.c ****                          uint16_t len)
 503              		.loc 1 49 9 is_stmt 1 view .LVU81
 504              	.LBB1001:
  52:D:/fchai/work/i-cube/I-CUBE-HUAWEI/Drivers/BSP/Components/lsm6dso\lsm6dso_reg.c ****   ret = ctx->read_reg(ctx->handle, reg, data, len);
 505              		.loc 1 52 3 view .LVU82
  53:D:/fchai/work/i-cube/I-CUBE-HUAWEI/Drivers/BSP/Components/lsm6dso\lsm6dso_reg.c ****   return ret;
 506              		.loc 1 53 3 view .LVU83
 507              	.LBE1001:
 508              	.LBE1000:
 162:D:/fchai/work/i-cube/I-CUBE-HUAWEI/Drivers/BSP/Components/lsm6dso\lsm6dso_reg.c ****   lsm6dso_ctrl1_xl_t reg;
 509              		.loc 1 162 1 is_stmt 0 view .LVU84
 510 0006 0D46     		mov	r5, r1
 511              	.LBB1003:
 512              	.LBB1002:
  53:D:/fchai/work/i-cube/I-CUBE-HUAWEI/Drivers/BSP/Components/lsm6dso\lsm6dso_reg.c ****   return ret;
 513              		.loc 1 53 9 view .LVU85
 514 0008 D0E90160 		ldrd	r6, r0, [r0, #4]
 515              	.LVL19:
  53:D:/fchai/work/i-cube/I-CUBE-HUAWEI/Drivers/BSP/Components/lsm6dso\lsm6dso_reg.c ****   return ret;
 516              		.loc 1 53 9 view .LVU86
 517 000c 01AA     		add	r2, sp, #4
 518              	.LVL20:
  53:D:/fchai/work/i-cube/I-CUBE-HUAWEI/Drivers/BSP/Components/lsm6dso\lsm6dso_reg.c ****   return ret;
 519              		.loc 1 53 9 view .LVU87
 520 000e 0123     		movs	r3, #1
 521 0010 1021     		movs	r1, #16
 522              	.LVL21:
  53:D:/fchai/work/i-cube/I-CUBE-HUAWEI/Drivers/BSP/Components/lsm6dso\lsm6dso_reg.c ****   return ret;
 523              		.loc 1 53 9 view .LVU88
 524 0012 B047     		blx	r6
 525              	.LVL22:
  54:D:/fchai/work/i-cube/I-CUBE-HUAWEI/Drivers/BSP/Components/lsm6dso\lsm6dso_reg.c **** }
 526              		.loc 1 54 3 is_stmt 1 view .LVU89
  54:D:/fchai/work/i-cube/I-CUBE-HUAWEI/Drivers/BSP/Components/lsm6dso\lsm6dso_reg.c **** }
 527              		.loc 1 54 3 is_stmt 0 view .LVU90
ARM GAS  T:\msys\tmp\ccaXiy3K.s 			page 13


 528              	.LBE1002:
 529              	.LBE1003:
 167:D:/fchai/work/i-cube/I-CUBE-HUAWEI/Drivers/BSP/Components/lsm6dso\lsm6dso_reg.c ****   if (ret == 0) {
 530              		.loc 1 167 3 is_stmt 1 view .LVU91
 531              		.loc 1 167 6 is_stmt 0 view .LVU92
 532 0014 58B9     		cbnz	r0, .L39
 168:D:/fchai/work/i-cube/I-CUBE-HUAWEI/Drivers/BSP/Components/lsm6dso\lsm6dso_reg.c ****     reg.fs_xl = (uint8_t) val;
 533              		.loc 1 168 5 is_stmt 1 view .LVU93
 534              		.loc 1 168 15 is_stmt 0 view .LVU94
 535 0016 9DF80430 		ldrb	r3, [sp, #4]	@ zero_extendqisi2
 536              	.LBB1004:
 537              	.LBB1005:
  71:D:/fchai/work/i-cube/I-CUBE-HUAWEI/Drivers/BSP/Components/lsm6dso\lsm6dso_reg.c ****   return ret;
 538              		.loc 1 71 9 view .LVU95
 539 001a 2668     		ldr	r6, [r4]
 540 001c A068     		ldr	r0, [r4, #8]
 541              	.LVL23:
  71:D:/fchai/work/i-cube/I-CUBE-HUAWEI/Drivers/BSP/Components/lsm6dso\lsm6dso_reg.c ****   return ret;
 542              		.loc 1 71 9 view .LVU96
 543              	.LBE1005:
 544              	.LBE1004:
 545              		.loc 1 168 15 view .LVU97
 546 001e 65F38303 		bfi	r3, r5, #2, #2
 547 0022 8DF80430 		strb	r3, [sp, #4]
 169:D:/fchai/work/i-cube/I-CUBE-HUAWEI/Drivers/BSP/Components/lsm6dso\lsm6dso_reg.c ****     ret = lsm6dso_write_reg(ctx, LSM6DSO_CTRL1_XL, (uint8_t*)&reg, 1);
 548              		.loc 1 169 5 is_stmt 1 view .LVU98
 549              	.LVL24:
 550              	.LBB1007:
 551              	.LBI1004:
  67:D:/fchai/work/i-cube/I-CUBE-HUAWEI/Drivers/BSP/Components/lsm6dso\lsm6dso_reg.c ****                           uint16_t len)
 552              		.loc 1 67 9 view .LVU99
 553              	.LBB1006:
  70:D:/fchai/work/i-cube/I-CUBE-HUAWEI/Drivers/BSP/Components/lsm6dso\lsm6dso_reg.c ****   ret = ctx->write_reg(ctx->handle, reg, data, len);
 554              		.loc 1 70 3 view .LVU100
  71:D:/fchai/work/i-cube/I-CUBE-HUAWEI/Drivers/BSP/Components/lsm6dso\lsm6dso_reg.c ****   return ret;
 555              		.loc 1 71 3 view .LVU101
  71:D:/fchai/work/i-cube/I-CUBE-HUAWEI/Drivers/BSP/Components/lsm6dso\lsm6dso_reg.c ****   return ret;
 556              		.loc 1 71 9 is_stmt 0 view .LVU102
 557 0026 01AA     		add	r2, sp, #4
 558              	.LVL25:
  71:D:/fchai/work/i-cube/I-CUBE-HUAWEI/Drivers/BSP/Components/lsm6dso\lsm6dso_reg.c ****   return ret;
 559              		.loc 1 71 9 view .LVU103
 560 0028 0123     		movs	r3, #1
 561 002a 1021     		movs	r1, #16
 562 002c B047     		blx	r6
 563              	.LVL26:
  72:D:/fchai/work/i-cube/I-CUBE-HUAWEI/Drivers/BSP/Components/lsm6dso\lsm6dso_reg.c **** }
 564              		.loc 1 72 3 is_stmt 1 view .LVU104
  72:D:/fchai/work/i-cube/I-CUBE-HUAWEI/Drivers/BSP/Components/lsm6dso\lsm6dso_reg.c **** }
 565              		.loc 1 72 3 is_stmt 0 view .LVU105
 566              	.LBE1006:
 567              	.LBE1007:
 170:D:/fchai/work/i-cube/I-CUBE-HUAWEI/Drivers/BSP/Components/lsm6dso\lsm6dso_reg.c ****   }
 171:D:/fchai/work/i-cube/I-CUBE-HUAWEI/Drivers/BSP/Components/lsm6dso\lsm6dso_reg.c ****   return ret;
 568              		.loc 1 171 3 is_stmt 1 view .LVU106
 569              	.L39:
 172:D:/fchai/work/i-cube/I-CUBE-HUAWEI/Drivers/BSP/Components/lsm6dso\lsm6dso_reg.c **** }
ARM GAS  T:\msys\tmp\ccaXiy3K.s 			page 14


 570              		.loc 1 172 1 is_stmt 0 view .LVU107
 571 002e 02B0     		add	sp, sp, #8
 572              	.LCFI6:
 573              		.cfi_def_cfa_offset 16
 574              		@ sp needed
 575 0030 70BD     		pop	{r4, r5, r6, pc}
 576              		.loc 1 172 1 view .LVU108
 577              		.cfi_endproc
 578              	.LFE13:
 580 0032 00BF     		.section	.text.lsm6dso_xl_full_scale_get,"ax",%progbits
 581              		.align	1
 582              		.p2align 2,,3
 583              		.global	lsm6dso_xl_full_scale_get
 584              		.syntax unified
 585              		.thumb
 586              		.thumb_func
 587              		.fpu fpv4-sp-d16
 589              	lsm6dso_xl_full_scale_get:
 590              	.LVL27:
 591              	.LFB14:
 173:D:/fchai/work/i-cube/I-CUBE-HUAWEI/Drivers/BSP/Components/lsm6dso\lsm6dso_reg.c **** 
 174:D:/fchai/work/i-cube/I-CUBE-HUAWEI/Drivers/BSP/Components/lsm6dso\lsm6dso_reg.c **** /**
 175:D:/fchai/work/i-cube/I-CUBE-HUAWEI/Drivers/BSP/Components/lsm6dso\lsm6dso_reg.c ****   * @brief  Accelerometer full-scale selection.[get]
 176:D:/fchai/work/i-cube/I-CUBE-HUAWEI/Drivers/BSP/Components/lsm6dso\lsm6dso_reg.c ****   *
 177:D:/fchai/work/i-cube/I-CUBE-HUAWEI/Drivers/BSP/Components/lsm6dso\lsm6dso_reg.c ****   * @param  ctx      read / write interface definitions
 178:D:/fchai/work/i-cube/I-CUBE-HUAWEI/Drivers/BSP/Components/lsm6dso\lsm6dso_reg.c ****   * @param  val      Get the values of fs_xl in reg CTRL1_XL
 179:D:/fchai/work/i-cube/I-CUBE-HUAWEI/Drivers/BSP/Components/lsm6dso\lsm6dso_reg.c ****   *
 180:D:/fchai/work/i-cube/I-CUBE-HUAWEI/Drivers/BSP/Components/lsm6dso\lsm6dso_reg.c ****   */
 181:D:/fchai/work/i-cube/I-CUBE-HUAWEI/Drivers/BSP/Components/lsm6dso\lsm6dso_reg.c **** int32_t lsm6dso_xl_full_scale_get(stmdev_ctx_t *ctx, lsm6dso_fs_xl_t *val)
 182:D:/fchai/work/i-cube/I-CUBE-HUAWEI/Drivers/BSP/Components/lsm6dso\lsm6dso_reg.c **** {
 592              		.loc 1 182 1 is_stmt 1 view -0
 593              		.cfi_startproc
 594              		@ args = 0, pretend = 0, frame = 8
 595              		@ frame_needed = 0, uses_anonymous_args = 0
 183:D:/fchai/work/i-cube/I-CUBE-HUAWEI/Drivers/BSP/Components/lsm6dso\lsm6dso_reg.c ****   lsm6dso_ctrl1_xl_t reg;
 596              		.loc 1 183 3 view .LVU110
 184:D:/fchai/work/i-cube/I-CUBE-HUAWEI/Drivers/BSP/Components/lsm6dso\lsm6dso_reg.c ****   int32_t ret;
 597              		.loc 1 184 3 view .LVU111
 185:D:/fchai/work/i-cube/I-CUBE-HUAWEI/Drivers/BSP/Components/lsm6dso\lsm6dso_reg.c **** 
 186:D:/fchai/work/i-cube/I-CUBE-HUAWEI/Drivers/BSP/Components/lsm6dso\lsm6dso_reg.c ****   ret = lsm6dso_read_reg(ctx, LSM6DSO_CTRL1_XL, (uint8_t*)&reg, 1);
 598              		.loc 1 186 3 view .LVU112
 182:D:/fchai/work/i-cube/I-CUBE-HUAWEI/Drivers/BSP/Components/lsm6dso\lsm6dso_reg.c ****   lsm6dso_ctrl1_xl_t reg;
 599              		.loc 1 182 1 is_stmt 0 view .LVU113
 600 0000 30B5     		push	{r4, r5, lr}
 601              	.LCFI7:
 602              		.cfi_def_cfa_offset 12
 603              		.cfi_offset 4, -12
 604              		.cfi_offset 5, -8
 605              		.cfi_offset 14, -4
 606 0002 83B0     		sub	sp, sp, #12
 607              	.LCFI8:
 608              		.cfi_def_cfa_offset 24
 609              	.LVL28:
 610              	.LBB1008:
 611              	.LBI1008:
  49:D:/fchai/work/i-cube/I-CUBE-HUAWEI/Drivers/BSP/Components/lsm6dso\lsm6dso_reg.c ****                          uint16_t len)
 612              		.loc 1 49 9 is_stmt 1 view .LVU114
ARM GAS  T:\msys\tmp\ccaXiy3K.s 			page 15


 613              	.LBB1009:
  52:D:/fchai/work/i-cube/I-CUBE-HUAWEI/Drivers/BSP/Components/lsm6dso\lsm6dso_reg.c ****   ret = ctx->read_reg(ctx->handle, reg, data, len);
 614              		.loc 1 52 3 view .LVU115
  53:D:/fchai/work/i-cube/I-CUBE-HUAWEI/Drivers/BSP/Components/lsm6dso\lsm6dso_reg.c ****   return ret;
 615              		.loc 1 53 3 view .LVU116
  53:D:/fchai/work/i-cube/I-CUBE-HUAWEI/Drivers/BSP/Components/lsm6dso\lsm6dso_reg.c ****   return ret;
 616              		.loc 1 53 9 is_stmt 0 view .LVU117
 617 0004 0123     		movs	r3, #1
 618 0006 01AA     		add	r2, sp, #4
 619              	.LVL29:
  53:D:/fchai/work/i-cube/I-CUBE-HUAWEI/Drivers/BSP/Components/lsm6dso\lsm6dso_reg.c ****   return ret;
 620              		.loc 1 53 9 view .LVU118
 621 0008 D0E90150 		ldrd	r5, r0, [r0, #4]
 622              	.LVL30:
  53:D:/fchai/work/i-cube/I-CUBE-HUAWEI/Drivers/BSP/Components/lsm6dso\lsm6dso_reg.c ****   return ret;
 623              		.loc 1 53 9 view .LVU119
 624              	.LBE1009:
 625              	.LBE1008:
 182:D:/fchai/work/i-cube/I-CUBE-HUAWEI/Drivers/BSP/Components/lsm6dso\lsm6dso_reg.c ****   lsm6dso_ctrl1_xl_t reg;
 626              		.loc 1 182 1 view .LVU120
 627 000c 0C46     		mov	r4, r1
 628              	.LBB1012:
 629              	.LBB1010:
  53:D:/fchai/work/i-cube/I-CUBE-HUAWEI/Drivers/BSP/Components/lsm6dso\lsm6dso_reg.c ****   return ret;
 630              		.loc 1 53 9 view .LVU121
 631 000e 1021     		movs	r1, #16
 632              	.LVL31:
  53:D:/fchai/work/i-cube/I-CUBE-HUAWEI/Drivers/BSP/Components/lsm6dso\lsm6dso_reg.c ****   return ret;
 633              		.loc 1 53 9 view .LVU122
 634 0010 A847     		blx	r5
 635              	.LVL32:
  53:D:/fchai/work/i-cube/I-CUBE-HUAWEI/Drivers/BSP/Components/lsm6dso\lsm6dso_reg.c ****   return ret;
 636              		.loc 1 53 9 view .LVU123
 637              	.LBE1010:
 638              	.LBE1012:
 187:D:/fchai/work/i-cube/I-CUBE-HUAWEI/Drivers/BSP/Components/lsm6dso\lsm6dso_reg.c ****   switch (reg.fs_xl) {
 639              		.loc 1 187 14 view .LVU124
 640 0012 9DF80430 		ldrb	r3, [sp, #4]	@ zero_extendqisi2
 641 0016 C3F38102 		ubfx	r2, r3, #2, #2
 642              	.LVL33:
 643              	.LBB1013:
 644              	.LBB1011:
  54:D:/fchai/work/i-cube/I-CUBE-HUAWEI/Drivers/BSP/Components/lsm6dso\lsm6dso_reg.c **** }
 645              		.loc 1 54 3 is_stmt 1 view .LVU125
  54:D:/fchai/work/i-cube/I-CUBE-HUAWEI/Drivers/BSP/Components/lsm6dso\lsm6dso_reg.c **** }
 646              		.loc 1 54 3 is_stmt 0 view .LVU126
 647              	.LBE1011:
 648              	.LBE1013:
 649              		.loc 1 187 3 is_stmt 1 view .LVU127
 650 001a 022A     		cmp	r2, #2
 651              		.loc 1 187 14 is_stmt 0 view .LVU128
 652 001c 1346     		mov	r3, r2
 653              		.loc 1 187 3 view .LVU129
 654 001e 07D0     		beq	.L44
 655 0020 032A     		cmp	r2, #3
 656 0022 05D0     		beq	.L44
 657 0024 012A     		cmp	r2, #1
ARM GAS  T:\msys\tmp\ccaXiy3K.s 			page 16


 658 0026 03D0     		beq	.L44
 188:D:/fchai/work/i-cube/I-CUBE-HUAWEI/Drivers/BSP/Components/lsm6dso\lsm6dso_reg.c ****     case LSM6DSO_2g:
 189:D:/fchai/work/i-cube/I-CUBE-HUAWEI/Drivers/BSP/Components/lsm6dso\lsm6dso_reg.c ****       *val = LSM6DSO_2g;
 659              		.loc 1 189 7 is_stmt 1 view .LVU130
 660              		.loc 1 189 12 is_stmt 0 view .LVU131
 661 0028 0023     		movs	r3, #0
 662 002a 2370     		strb	r3, [r4]
 190:D:/fchai/work/i-cube/I-CUBE-HUAWEI/Drivers/BSP/Components/lsm6dso\lsm6dso_reg.c ****       break;
 663              		.loc 1 190 7 is_stmt 1 view .LVU132
 191:D:/fchai/work/i-cube/I-CUBE-HUAWEI/Drivers/BSP/Components/lsm6dso\lsm6dso_reg.c ****     case LSM6DSO_16g:
 192:D:/fchai/work/i-cube/I-CUBE-HUAWEI/Drivers/BSP/Components/lsm6dso\lsm6dso_reg.c ****       *val = LSM6DSO_16g;
 193:D:/fchai/work/i-cube/I-CUBE-HUAWEI/Drivers/BSP/Components/lsm6dso\lsm6dso_reg.c ****       break;
 194:D:/fchai/work/i-cube/I-CUBE-HUAWEI/Drivers/BSP/Components/lsm6dso\lsm6dso_reg.c ****     case LSM6DSO_4g:
 195:D:/fchai/work/i-cube/I-CUBE-HUAWEI/Drivers/BSP/Components/lsm6dso\lsm6dso_reg.c ****       *val = LSM6DSO_4g;
 196:D:/fchai/work/i-cube/I-CUBE-HUAWEI/Drivers/BSP/Components/lsm6dso\lsm6dso_reg.c ****       break;
 197:D:/fchai/work/i-cube/I-CUBE-HUAWEI/Drivers/BSP/Components/lsm6dso\lsm6dso_reg.c ****     case LSM6DSO_8g:
 198:D:/fchai/work/i-cube/I-CUBE-HUAWEI/Drivers/BSP/Components/lsm6dso\lsm6dso_reg.c ****       *val = LSM6DSO_8g;
 199:D:/fchai/work/i-cube/I-CUBE-HUAWEI/Drivers/BSP/Components/lsm6dso\lsm6dso_reg.c ****       break;
 200:D:/fchai/work/i-cube/I-CUBE-HUAWEI/Drivers/BSP/Components/lsm6dso\lsm6dso_reg.c ****     default:
 201:D:/fchai/work/i-cube/I-CUBE-HUAWEI/Drivers/BSP/Components/lsm6dso\lsm6dso_reg.c ****       *val = LSM6DSO_2g;
 202:D:/fchai/work/i-cube/I-CUBE-HUAWEI/Drivers/BSP/Components/lsm6dso\lsm6dso_reg.c ****       break;
 203:D:/fchai/work/i-cube/I-CUBE-HUAWEI/Drivers/BSP/Components/lsm6dso\lsm6dso_reg.c ****   }
 204:D:/fchai/work/i-cube/I-CUBE-HUAWEI/Drivers/BSP/Components/lsm6dso\lsm6dso_reg.c **** 
 205:D:/fchai/work/i-cube/I-CUBE-HUAWEI/Drivers/BSP/Components/lsm6dso\lsm6dso_reg.c ****   return ret;
 206:D:/fchai/work/i-cube/I-CUBE-HUAWEI/Drivers/BSP/Components/lsm6dso\lsm6dso_reg.c **** }
 664              		.loc 1 206 1 is_stmt 0 view .LVU133
 665 002c 03B0     		add	sp, sp, #12
 666              	.LCFI9:
 667              		.cfi_remember_state
 668              		.cfi_def_cfa_offset 12
 669              		@ sp needed
 670 002e 30BD     		pop	{r4, r5, pc}
 671              	.LVL34:
 672              	.L44:
 673              	.LCFI10:
 674              		.cfi_restore_state
 198:D:/fchai/work/i-cube/I-CUBE-HUAWEI/Drivers/BSP/Components/lsm6dso\lsm6dso_reg.c ****       break;
 675              		.loc 1 198 7 is_stmt 1 view .LVU134
 198:D:/fchai/work/i-cube/I-CUBE-HUAWEI/Drivers/BSP/Components/lsm6dso\lsm6dso_reg.c ****       break;
 676              		.loc 1 198 12 is_stmt 0 view .LVU135
 677 0030 2370     		strb	r3, [r4]
 199:D:/fchai/work/i-cube/I-CUBE-HUAWEI/Drivers/BSP/Components/lsm6dso\lsm6dso_reg.c ****     default:
 678              		.loc 1 199 7 is_stmt 1 view .LVU136
 205:D:/fchai/work/i-cube/I-CUBE-HUAWEI/Drivers/BSP/Components/lsm6dso\lsm6dso_reg.c **** }
 679              		.loc 1 205 3 view .LVU137
 680              		.loc 1 206 1 is_stmt 0 view .LVU138
 681 0032 03B0     		add	sp, sp, #12
 682              	.LCFI11:
 683              		.cfi_def_cfa_offset 12
 684              		@ sp needed
 685 0034 30BD     		pop	{r4, r5, pc}
 686              		.loc 1 206 1 view .LVU139
 687              		.cfi_endproc
 688              	.LFE14:
 690 0036 00BF     		.section	.text.lsm6dso_xl_data_rate_get,"ax",%progbits
 691              		.align	1
 692              		.p2align 2,,3
ARM GAS  T:\msys\tmp\ccaXiy3K.s 			page 17


 693              		.global	lsm6dso_xl_data_rate_get
 694              		.syntax unified
 695              		.thumb
 696              		.thumb_func
 697              		.fpu fpv4-sp-d16
 699              	lsm6dso_xl_data_rate_get:
 700              	.LVL35:
 701              	.LFB16:
 207:D:/fchai/work/i-cube/I-CUBE-HUAWEI/Drivers/BSP/Components/lsm6dso\lsm6dso_reg.c **** 
 208:D:/fchai/work/i-cube/I-CUBE-HUAWEI/Drivers/BSP/Components/lsm6dso\lsm6dso_reg.c **** /**
 209:D:/fchai/work/i-cube/I-CUBE-HUAWEI/Drivers/BSP/Components/lsm6dso\lsm6dso_reg.c ****   * @brief  Accelerometer UI data rate selection.[set]
 210:D:/fchai/work/i-cube/I-CUBE-HUAWEI/Drivers/BSP/Components/lsm6dso\lsm6dso_reg.c ****   *
 211:D:/fchai/work/i-cube/I-CUBE-HUAWEI/Drivers/BSP/Components/lsm6dso\lsm6dso_reg.c ****   * @param  ctx      read / write interface definitions
 212:D:/fchai/work/i-cube/I-CUBE-HUAWEI/Drivers/BSP/Components/lsm6dso\lsm6dso_reg.c ****   * @param  val      change the values of odr_xl in reg CTRL1_XL
 213:D:/fchai/work/i-cube/I-CUBE-HUAWEI/Drivers/BSP/Components/lsm6dso\lsm6dso_reg.c ****   *
 214:D:/fchai/work/i-cube/I-CUBE-HUAWEI/Drivers/BSP/Components/lsm6dso\lsm6dso_reg.c ****   */
 215:D:/fchai/work/i-cube/I-CUBE-HUAWEI/Drivers/BSP/Components/lsm6dso\lsm6dso_reg.c **** int32_t lsm6dso_xl_data_rate_set(stmdev_ctx_t *ctx, lsm6dso_odr_xl_t val)
 216:D:/fchai/work/i-cube/I-CUBE-HUAWEI/Drivers/BSP/Components/lsm6dso\lsm6dso_reg.c **** {
 217:D:/fchai/work/i-cube/I-CUBE-HUAWEI/Drivers/BSP/Components/lsm6dso\lsm6dso_reg.c ****   lsm6dso_odr_xl_t odr_xl =  val;
 218:D:/fchai/work/i-cube/I-CUBE-HUAWEI/Drivers/BSP/Components/lsm6dso\lsm6dso_reg.c ****   lsm6dso_emb_fsm_enable_t fsm_enable;
 219:D:/fchai/work/i-cube/I-CUBE-HUAWEI/Drivers/BSP/Components/lsm6dso\lsm6dso_reg.c ****   lsm6dso_fsm_odr_t fsm_odr;
 220:D:/fchai/work/i-cube/I-CUBE-HUAWEI/Drivers/BSP/Components/lsm6dso\lsm6dso_reg.c ****   lsm6dso_ctrl1_xl_t reg;
 221:D:/fchai/work/i-cube/I-CUBE-HUAWEI/Drivers/BSP/Components/lsm6dso\lsm6dso_reg.c ****   int32_t ret;
 222:D:/fchai/work/i-cube/I-CUBE-HUAWEI/Drivers/BSP/Components/lsm6dso\lsm6dso_reg.c **** 
 223:D:/fchai/work/i-cube/I-CUBE-HUAWEI/Drivers/BSP/Components/lsm6dso\lsm6dso_reg.c ****   /* Check the Finite State Machine data rate constraints */
 224:D:/fchai/work/i-cube/I-CUBE-HUAWEI/Drivers/BSP/Components/lsm6dso\lsm6dso_reg.c ****   ret =  lsm6dso_fsm_enable_get(ctx, &fsm_enable);
 225:D:/fchai/work/i-cube/I-CUBE-HUAWEI/Drivers/BSP/Components/lsm6dso\lsm6dso_reg.c ****   if (ret == 0) {
 226:D:/fchai/work/i-cube/I-CUBE-HUAWEI/Drivers/BSP/Components/lsm6dso\lsm6dso_reg.c ****     if ( (fsm_enable.fsm_enable_a.fsm1_en  |
 227:D:/fchai/work/i-cube/I-CUBE-HUAWEI/Drivers/BSP/Components/lsm6dso\lsm6dso_reg.c ****           fsm_enable.fsm_enable_a.fsm2_en  |
 228:D:/fchai/work/i-cube/I-CUBE-HUAWEI/Drivers/BSP/Components/lsm6dso\lsm6dso_reg.c ****           fsm_enable.fsm_enable_a.fsm3_en  |
 229:D:/fchai/work/i-cube/I-CUBE-HUAWEI/Drivers/BSP/Components/lsm6dso\lsm6dso_reg.c ****           fsm_enable.fsm_enable_a.fsm4_en  |
 230:D:/fchai/work/i-cube/I-CUBE-HUAWEI/Drivers/BSP/Components/lsm6dso\lsm6dso_reg.c ****           fsm_enable.fsm_enable_a.fsm5_en  |
 231:D:/fchai/work/i-cube/I-CUBE-HUAWEI/Drivers/BSP/Components/lsm6dso\lsm6dso_reg.c ****           fsm_enable.fsm_enable_a.fsm6_en  |
 232:D:/fchai/work/i-cube/I-CUBE-HUAWEI/Drivers/BSP/Components/lsm6dso\lsm6dso_reg.c ****           fsm_enable.fsm_enable_a.fsm7_en  |
 233:D:/fchai/work/i-cube/I-CUBE-HUAWEI/Drivers/BSP/Components/lsm6dso\lsm6dso_reg.c ****           fsm_enable.fsm_enable_a.fsm8_en  |
 234:D:/fchai/work/i-cube/I-CUBE-HUAWEI/Drivers/BSP/Components/lsm6dso\lsm6dso_reg.c ****           fsm_enable.fsm_enable_b.fsm9_en  |
 235:D:/fchai/work/i-cube/I-CUBE-HUAWEI/Drivers/BSP/Components/lsm6dso\lsm6dso_reg.c ****           fsm_enable.fsm_enable_b.fsm10_en |
 236:D:/fchai/work/i-cube/I-CUBE-HUAWEI/Drivers/BSP/Components/lsm6dso\lsm6dso_reg.c ****           fsm_enable.fsm_enable_b.fsm11_en |
 237:D:/fchai/work/i-cube/I-CUBE-HUAWEI/Drivers/BSP/Components/lsm6dso\lsm6dso_reg.c ****           fsm_enable.fsm_enable_b.fsm12_en |
 238:D:/fchai/work/i-cube/I-CUBE-HUAWEI/Drivers/BSP/Components/lsm6dso\lsm6dso_reg.c ****           fsm_enable.fsm_enable_b.fsm13_en |
 239:D:/fchai/work/i-cube/I-CUBE-HUAWEI/Drivers/BSP/Components/lsm6dso\lsm6dso_reg.c ****           fsm_enable.fsm_enable_b.fsm14_en |
 240:D:/fchai/work/i-cube/I-CUBE-HUAWEI/Drivers/BSP/Components/lsm6dso\lsm6dso_reg.c ****           fsm_enable.fsm_enable_b.fsm15_en |
 241:D:/fchai/work/i-cube/I-CUBE-HUAWEI/Drivers/BSP/Components/lsm6dso\lsm6dso_reg.c ****           fsm_enable.fsm_enable_b.fsm16_en ) == PROPERTY_ENABLE ){
 242:D:/fchai/work/i-cube/I-CUBE-HUAWEI/Drivers/BSP/Components/lsm6dso\lsm6dso_reg.c **** 
 243:D:/fchai/work/i-cube/I-CUBE-HUAWEI/Drivers/BSP/Components/lsm6dso\lsm6dso_reg.c ****       ret =  lsm6dso_fsm_data_rate_get(ctx, &fsm_odr);
 244:D:/fchai/work/i-cube/I-CUBE-HUAWEI/Drivers/BSP/Components/lsm6dso\lsm6dso_reg.c ****       if (ret == 0) {
 245:D:/fchai/work/i-cube/I-CUBE-HUAWEI/Drivers/BSP/Components/lsm6dso\lsm6dso_reg.c ****         switch (fsm_odr) {
 246:D:/fchai/work/i-cube/I-CUBE-HUAWEI/Drivers/BSP/Components/lsm6dso\lsm6dso_reg.c ****           case LSM6DSO_ODR_FSM_12Hz5:
 247:D:/fchai/work/i-cube/I-CUBE-HUAWEI/Drivers/BSP/Components/lsm6dso\lsm6dso_reg.c **** 
 248:D:/fchai/work/i-cube/I-CUBE-HUAWEI/Drivers/BSP/Components/lsm6dso\lsm6dso_reg.c ****             if (val == LSM6DSO_XL_ODR_OFF){
 249:D:/fchai/work/i-cube/I-CUBE-HUAWEI/Drivers/BSP/Components/lsm6dso\lsm6dso_reg.c ****               odr_xl = LSM6DSO_XL_ODR_12Hz5;
 250:D:/fchai/work/i-cube/I-CUBE-HUAWEI/Drivers/BSP/Components/lsm6dso\lsm6dso_reg.c **** 
 251:D:/fchai/work/i-cube/I-CUBE-HUAWEI/Drivers/BSP/Components/lsm6dso\lsm6dso_reg.c ****             } else {
 252:D:/fchai/work/i-cube/I-CUBE-HUAWEI/Drivers/BSP/Components/lsm6dso\lsm6dso_reg.c ****               odr_xl = val;
 253:D:/fchai/work/i-cube/I-CUBE-HUAWEI/Drivers/BSP/Components/lsm6dso\lsm6dso_reg.c ****             }
 254:D:/fchai/work/i-cube/I-CUBE-HUAWEI/Drivers/BSP/Components/lsm6dso\lsm6dso_reg.c ****             break;
 255:D:/fchai/work/i-cube/I-CUBE-HUAWEI/Drivers/BSP/Components/lsm6dso\lsm6dso_reg.c ****           case LSM6DSO_ODR_FSM_26Hz:
ARM GAS  T:\msys\tmp\ccaXiy3K.s 			page 18


 256:D:/fchai/work/i-cube/I-CUBE-HUAWEI/Drivers/BSP/Components/lsm6dso\lsm6dso_reg.c **** 
 257:D:/fchai/work/i-cube/I-CUBE-HUAWEI/Drivers/BSP/Components/lsm6dso\lsm6dso_reg.c ****             if (val == LSM6DSO_XL_ODR_OFF){
 258:D:/fchai/work/i-cube/I-CUBE-HUAWEI/Drivers/BSP/Components/lsm6dso\lsm6dso_reg.c ****               odr_xl = LSM6DSO_XL_ODR_26Hz;
 259:D:/fchai/work/i-cube/I-CUBE-HUAWEI/Drivers/BSP/Components/lsm6dso\lsm6dso_reg.c **** 
 260:D:/fchai/work/i-cube/I-CUBE-HUAWEI/Drivers/BSP/Components/lsm6dso\lsm6dso_reg.c ****             } else if (val == LSM6DSO_XL_ODR_12Hz5){
 261:D:/fchai/work/i-cube/I-CUBE-HUAWEI/Drivers/BSP/Components/lsm6dso\lsm6dso_reg.c ****               odr_xl = LSM6DSO_XL_ODR_26Hz;
 262:D:/fchai/work/i-cube/I-CUBE-HUAWEI/Drivers/BSP/Components/lsm6dso\lsm6dso_reg.c **** 
 263:D:/fchai/work/i-cube/I-CUBE-HUAWEI/Drivers/BSP/Components/lsm6dso\lsm6dso_reg.c ****             } else {
 264:D:/fchai/work/i-cube/I-CUBE-HUAWEI/Drivers/BSP/Components/lsm6dso\lsm6dso_reg.c ****               odr_xl = val;
 265:D:/fchai/work/i-cube/I-CUBE-HUAWEI/Drivers/BSP/Components/lsm6dso\lsm6dso_reg.c ****             }
 266:D:/fchai/work/i-cube/I-CUBE-HUAWEI/Drivers/BSP/Components/lsm6dso\lsm6dso_reg.c ****             break;
 267:D:/fchai/work/i-cube/I-CUBE-HUAWEI/Drivers/BSP/Components/lsm6dso\lsm6dso_reg.c ****           case LSM6DSO_ODR_FSM_52Hz:
 268:D:/fchai/work/i-cube/I-CUBE-HUAWEI/Drivers/BSP/Components/lsm6dso\lsm6dso_reg.c **** 
 269:D:/fchai/work/i-cube/I-CUBE-HUAWEI/Drivers/BSP/Components/lsm6dso\lsm6dso_reg.c ****             if (val == LSM6DSO_XL_ODR_OFF){
 270:D:/fchai/work/i-cube/I-CUBE-HUAWEI/Drivers/BSP/Components/lsm6dso\lsm6dso_reg.c ****               odr_xl = LSM6DSO_XL_ODR_52Hz;
 271:D:/fchai/work/i-cube/I-CUBE-HUAWEI/Drivers/BSP/Components/lsm6dso\lsm6dso_reg.c **** 
 272:D:/fchai/work/i-cube/I-CUBE-HUAWEI/Drivers/BSP/Components/lsm6dso\lsm6dso_reg.c ****             } else if (val == LSM6DSO_XL_ODR_12Hz5){
 273:D:/fchai/work/i-cube/I-CUBE-HUAWEI/Drivers/BSP/Components/lsm6dso\lsm6dso_reg.c ****               odr_xl = LSM6DSO_XL_ODR_52Hz;
 274:D:/fchai/work/i-cube/I-CUBE-HUAWEI/Drivers/BSP/Components/lsm6dso\lsm6dso_reg.c **** 
 275:D:/fchai/work/i-cube/I-CUBE-HUAWEI/Drivers/BSP/Components/lsm6dso\lsm6dso_reg.c ****             } else if (val == LSM6DSO_XL_ODR_26Hz){
 276:D:/fchai/work/i-cube/I-CUBE-HUAWEI/Drivers/BSP/Components/lsm6dso\lsm6dso_reg.c ****               odr_xl = LSM6DSO_XL_ODR_52Hz;
 277:D:/fchai/work/i-cube/I-CUBE-HUAWEI/Drivers/BSP/Components/lsm6dso\lsm6dso_reg.c **** 
 278:D:/fchai/work/i-cube/I-CUBE-HUAWEI/Drivers/BSP/Components/lsm6dso\lsm6dso_reg.c ****             } else {
 279:D:/fchai/work/i-cube/I-CUBE-HUAWEI/Drivers/BSP/Components/lsm6dso\lsm6dso_reg.c ****               odr_xl = val;
 280:D:/fchai/work/i-cube/I-CUBE-HUAWEI/Drivers/BSP/Components/lsm6dso\lsm6dso_reg.c ****             }
 281:D:/fchai/work/i-cube/I-CUBE-HUAWEI/Drivers/BSP/Components/lsm6dso\lsm6dso_reg.c ****             break;
 282:D:/fchai/work/i-cube/I-CUBE-HUAWEI/Drivers/BSP/Components/lsm6dso\lsm6dso_reg.c ****           case LSM6DSO_ODR_FSM_104Hz:
 283:D:/fchai/work/i-cube/I-CUBE-HUAWEI/Drivers/BSP/Components/lsm6dso\lsm6dso_reg.c **** 
 284:D:/fchai/work/i-cube/I-CUBE-HUAWEI/Drivers/BSP/Components/lsm6dso\lsm6dso_reg.c ****             if (val == LSM6DSO_XL_ODR_OFF){
 285:D:/fchai/work/i-cube/I-CUBE-HUAWEI/Drivers/BSP/Components/lsm6dso\lsm6dso_reg.c ****               odr_xl = LSM6DSO_XL_ODR_104Hz;
 286:D:/fchai/work/i-cube/I-CUBE-HUAWEI/Drivers/BSP/Components/lsm6dso\lsm6dso_reg.c **** 
 287:D:/fchai/work/i-cube/I-CUBE-HUAWEI/Drivers/BSP/Components/lsm6dso\lsm6dso_reg.c ****             } else if (val == LSM6DSO_XL_ODR_12Hz5){
 288:D:/fchai/work/i-cube/I-CUBE-HUAWEI/Drivers/BSP/Components/lsm6dso\lsm6dso_reg.c ****               odr_xl = LSM6DSO_XL_ODR_104Hz;
 289:D:/fchai/work/i-cube/I-CUBE-HUAWEI/Drivers/BSP/Components/lsm6dso\lsm6dso_reg.c **** 
 290:D:/fchai/work/i-cube/I-CUBE-HUAWEI/Drivers/BSP/Components/lsm6dso\lsm6dso_reg.c ****             } else if (val == LSM6DSO_XL_ODR_26Hz){
 291:D:/fchai/work/i-cube/I-CUBE-HUAWEI/Drivers/BSP/Components/lsm6dso\lsm6dso_reg.c ****               odr_xl = LSM6DSO_XL_ODR_104Hz;
 292:D:/fchai/work/i-cube/I-CUBE-HUAWEI/Drivers/BSP/Components/lsm6dso\lsm6dso_reg.c **** 
 293:D:/fchai/work/i-cube/I-CUBE-HUAWEI/Drivers/BSP/Components/lsm6dso\lsm6dso_reg.c ****             } else if (val == LSM6DSO_XL_ODR_52Hz){
 294:D:/fchai/work/i-cube/I-CUBE-HUAWEI/Drivers/BSP/Components/lsm6dso\lsm6dso_reg.c ****               odr_xl = LSM6DSO_XL_ODR_104Hz;
 295:D:/fchai/work/i-cube/I-CUBE-HUAWEI/Drivers/BSP/Components/lsm6dso\lsm6dso_reg.c **** 
 296:D:/fchai/work/i-cube/I-CUBE-HUAWEI/Drivers/BSP/Components/lsm6dso\lsm6dso_reg.c ****             } else {
 297:D:/fchai/work/i-cube/I-CUBE-HUAWEI/Drivers/BSP/Components/lsm6dso\lsm6dso_reg.c ****               odr_xl = val;
 298:D:/fchai/work/i-cube/I-CUBE-HUAWEI/Drivers/BSP/Components/lsm6dso\lsm6dso_reg.c ****             }
 299:D:/fchai/work/i-cube/I-CUBE-HUAWEI/Drivers/BSP/Components/lsm6dso\lsm6dso_reg.c ****             break;
 300:D:/fchai/work/i-cube/I-CUBE-HUAWEI/Drivers/BSP/Components/lsm6dso\lsm6dso_reg.c ****           default:
 301:D:/fchai/work/i-cube/I-CUBE-HUAWEI/Drivers/BSP/Components/lsm6dso\lsm6dso_reg.c ****             odr_xl = val;
 302:D:/fchai/work/i-cube/I-CUBE-HUAWEI/Drivers/BSP/Components/lsm6dso\lsm6dso_reg.c ****             break;
 303:D:/fchai/work/i-cube/I-CUBE-HUAWEI/Drivers/BSP/Components/lsm6dso\lsm6dso_reg.c ****         }
 304:D:/fchai/work/i-cube/I-CUBE-HUAWEI/Drivers/BSP/Components/lsm6dso\lsm6dso_reg.c ****       }
 305:D:/fchai/work/i-cube/I-CUBE-HUAWEI/Drivers/BSP/Components/lsm6dso\lsm6dso_reg.c ****     }
 306:D:/fchai/work/i-cube/I-CUBE-HUAWEI/Drivers/BSP/Components/lsm6dso\lsm6dso_reg.c ****   }
 307:D:/fchai/work/i-cube/I-CUBE-HUAWEI/Drivers/BSP/Components/lsm6dso\lsm6dso_reg.c ****   if (ret == 0) {
 308:D:/fchai/work/i-cube/I-CUBE-HUAWEI/Drivers/BSP/Components/lsm6dso\lsm6dso_reg.c ****     ret = lsm6dso_read_reg(ctx, LSM6DSO_CTRL1_XL, (uint8_t*)&reg, 1);
 309:D:/fchai/work/i-cube/I-CUBE-HUAWEI/Drivers/BSP/Components/lsm6dso\lsm6dso_reg.c ****   }
 310:D:/fchai/work/i-cube/I-CUBE-HUAWEI/Drivers/BSP/Components/lsm6dso\lsm6dso_reg.c ****   if (ret == 0) {
 311:D:/fchai/work/i-cube/I-CUBE-HUAWEI/Drivers/BSP/Components/lsm6dso\lsm6dso_reg.c ****     reg.odr_xl = (uint8_t) odr_xl;
 312:D:/fchai/work/i-cube/I-CUBE-HUAWEI/Drivers/BSP/Components/lsm6dso\lsm6dso_reg.c ****     ret = lsm6dso_write_reg(ctx, LSM6DSO_CTRL1_XL, (uint8_t*)&reg, 1);
ARM GAS  T:\msys\tmp\ccaXiy3K.s 			page 19


 313:D:/fchai/work/i-cube/I-CUBE-HUAWEI/Drivers/BSP/Components/lsm6dso\lsm6dso_reg.c ****   }
 314:D:/fchai/work/i-cube/I-CUBE-HUAWEI/Drivers/BSP/Components/lsm6dso\lsm6dso_reg.c ****   return ret;
 315:D:/fchai/work/i-cube/I-CUBE-HUAWEI/Drivers/BSP/Components/lsm6dso\lsm6dso_reg.c **** }
 316:D:/fchai/work/i-cube/I-CUBE-HUAWEI/Drivers/BSP/Components/lsm6dso\lsm6dso_reg.c **** 
 317:D:/fchai/work/i-cube/I-CUBE-HUAWEI/Drivers/BSP/Components/lsm6dso\lsm6dso_reg.c **** /**
 318:D:/fchai/work/i-cube/I-CUBE-HUAWEI/Drivers/BSP/Components/lsm6dso\lsm6dso_reg.c ****   * @brief  Accelerometer UI data rate selection.[get]
 319:D:/fchai/work/i-cube/I-CUBE-HUAWEI/Drivers/BSP/Components/lsm6dso\lsm6dso_reg.c ****   *
 320:D:/fchai/work/i-cube/I-CUBE-HUAWEI/Drivers/BSP/Components/lsm6dso\lsm6dso_reg.c ****   * @param  ctx      read / write interface definitions
 321:D:/fchai/work/i-cube/I-CUBE-HUAWEI/Drivers/BSP/Components/lsm6dso\lsm6dso_reg.c ****   * @param  val      Get the values of odr_xl in reg CTRL1_XL
 322:D:/fchai/work/i-cube/I-CUBE-HUAWEI/Drivers/BSP/Components/lsm6dso\lsm6dso_reg.c ****   *
 323:D:/fchai/work/i-cube/I-CUBE-HUAWEI/Drivers/BSP/Components/lsm6dso\lsm6dso_reg.c ****   */
 324:D:/fchai/work/i-cube/I-CUBE-HUAWEI/Drivers/BSP/Components/lsm6dso\lsm6dso_reg.c **** int32_t lsm6dso_xl_data_rate_get(stmdev_ctx_t *ctx, lsm6dso_odr_xl_t *val)
 325:D:/fchai/work/i-cube/I-CUBE-HUAWEI/Drivers/BSP/Components/lsm6dso\lsm6dso_reg.c **** {
 702              		.loc 1 325 1 is_stmt 1 view -0
 703              		.cfi_startproc
 704              		@ args = 0, pretend = 0, frame = 8
 705              		@ frame_needed = 0, uses_anonymous_args = 0
 326:D:/fchai/work/i-cube/I-CUBE-HUAWEI/Drivers/BSP/Components/lsm6dso\lsm6dso_reg.c ****   lsm6dso_ctrl1_xl_t reg;
 706              		.loc 1 326 3 view .LVU141
 327:D:/fchai/work/i-cube/I-CUBE-HUAWEI/Drivers/BSP/Components/lsm6dso\lsm6dso_reg.c ****   int32_t ret;
 707              		.loc 1 327 3 view .LVU142
 328:D:/fchai/work/i-cube/I-CUBE-HUAWEI/Drivers/BSP/Components/lsm6dso\lsm6dso_reg.c **** 
 329:D:/fchai/work/i-cube/I-CUBE-HUAWEI/Drivers/BSP/Components/lsm6dso\lsm6dso_reg.c ****   ret = lsm6dso_read_reg(ctx, LSM6DSO_CTRL1_XL, (uint8_t*)&reg, 1);
 708              		.loc 1 329 3 view .LVU143
 325:D:/fchai/work/i-cube/I-CUBE-HUAWEI/Drivers/BSP/Components/lsm6dso\lsm6dso_reg.c ****   lsm6dso_ctrl1_xl_t reg;
 709              		.loc 1 325 1 is_stmt 0 view .LVU144
 710 0000 30B5     		push	{r4, r5, lr}
 711              	.LCFI12:
 712              		.cfi_def_cfa_offset 12
 713              		.cfi_offset 4, -12
 714              		.cfi_offset 5, -8
 715              		.cfi_offset 14, -4
 716 0002 83B0     		sub	sp, sp, #12
 717              	.LCFI13:
 718              		.cfi_def_cfa_offset 24
 719              	.LVL36:
 720              	.LBB1014:
 721              	.LBI1014:
  49:D:/fchai/work/i-cube/I-CUBE-HUAWEI/Drivers/BSP/Components/lsm6dso\lsm6dso_reg.c ****                          uint16_t len)
 722              		.loc 1 49 9 is_stmt 1 view .LVU145
 723              	.LBB1015:
  52:D:/fchai/work/i-cube/I-CUBE-HUAWEI/Drivers/BSP/Components/lsm6dso\lsm6dso_reg.c ****   ret = ctx->read_reg(ctx->handle, reg, data, len);
 724              		.loc 1 52 3 view .LVU146
  53:D:/fchai/work/i-cube/I-CUBE-HUAWEI/Drivers/BSP/Components/lsm6dso\lsm6dso_reg.c ****   return ret;
 725              		.loc 1 53 3 view .LVU147
  53:D:/fchai/work/i-cube/I-CUBE-HUAWEI/Drivers/BSP/Components/lsm6dso\lsm6dso_reg.c ****   return ret;
 726              		.loc 1 53 9 is_stmt 0 view .LVU148
 727 0004 0123     		movs	r3, #1
 728 0006 D0E90140 		ldrd	r4, r0, [r0, #4]
 729              	.LVL37:
  53:D:/fchai/work/i-cube/I-CUBE-HUAWEI/Drivers/BSP/Components/lsm6dso\lsm6dso_reg.c ****   return ret;
 730              		.loc 1 53 9 view .LVU149
 731              	.LBE1015:
 732              	.LBE1014:
 325:D:/fchai/work/i-cube/I-CUBE-HUAWEI/Drivers/BSP/Components/lsm6dso\lsm6dso_reg.c ****   lsm6dso_ctrl1_xl_t reg;
 733              		.loc 1 325 1 view .LVU150
 734 000a 0D46     		mov	r5, r1
ARM GAS  T:\msys\tmp\ccaXiy3K.s 			page 20


 735              	.LBB1018:
 736              	.LBB1016:
  53:D:/fchai/work/i-cube/I-CUBE-HUAWEI/Drivers/BSP/Components/lsm6dso\lsm6dso_reg.c ****   return ret;
 737              		.loc 1 53 9 view .LVU151
 738 000c 01AA     		add	r2, sp, #4
 739              	.LVL38:
  53:D:/fchai/work/i-cube/I-CUBE-HUAWEI/Drivers/BSP/Components/lsm6dso\lsm6dso_reg.c ****   return ret;
 740              		.loc 1 53 9 view .LVU152
 741 000e 1021     		movs	r1, #16
 742              	.LVL39:
  53:D:/fchai/work/i-cube/I-CUBE-HUAWEI/Drivers/BSP/Components/lsm6dso\lsm6dso_reg.c ****   return ret;
 743              		.loc 1 53 9 view .LVU153
 744 0010 A047     		blx	r4
 745              	.LVL40:
  53:D:/fchai/work/i-cube/I-CUBE-HUAWEI/Drivers/BSP/Components/lsm6dso\lsm6dso_reg.c ****   return ret;
 746              		.loc 1 53 9 view .LVU154
 747              	.LBE1016:
 748              	.LBE1018:
 330:D:/fchai/work/i-cube/I-CUBE-HUAWEI/Drivers/BSP/Components/lsm6dso\lsm6dso_reg.c **** 
 331:D:/fchai/work/i-cube/I-CUBE-HUAWEI/Drivers/BSP/Components/lsm6dso\lsm6dso_reg.c ****   switch (reg.odr_xl) {
 749              		.loc 1 331 14 view .LVU155
 750 0012 9DF80430 		ldrb	r3, [sp, #4]	@ zero_extendqisi2
 751 0016 1B09     		lsrs	r3, r3, #4
 752              	.LVL41:
 753              	.LBB1019:
 754              	.LBB1017:
  54:D:/fchai/work/i-cube/I-CUBE-HUAWEI/Drivers/BSP/Components/lsm6dso\lsm6dso_reg.c **** }
 755              		.loc 1 54 3 is_stmt 1 view .LVU156
  54:D:/fchai/work/i-cube/I-CUBE-HUAWEI/Drivers/BSP/Components/lsm6dso\lsm6dso_reg.c **** }
 756              		.loc 1 54 3 is_stmt 0 view .LVU157
 757              	.LBE1017:
 758              	.LBE1019:
 759              		.loc 1 331 3 is_stmt 1 view .LVU158
 760 0018 0B2B     		cmp	r3, #11
 761 001a 0BD8     		bhi	.L49
 762 001c DFE803F0 		tbb	[pc, r3]
 763              	.L51:
 764 0020 0A       		.byte	(.L49-.L51)/2
 765 0021 10       		.byte	(.L61-.L51)/2
 766 0022 13       		.byte	(.L60-.L51)/2
 767 0023 16       		.byte	(.L59-.L51)/2
 768 0024 19       		.byte	(.L58-.L51)/2
 769 0025 1C       		.byte	(.L57-.L51)/2
 770 0026 1F       		.byte	(.L56-.L51)/2
 771 0027 22       		.byte	(.L55-.L51)/2
 772 0028 25       		.byte	(.L54-.L51)/2
 773 0029 28       		.byte	(.L53-.L51)/2
 774 002a 06       		.byte	(.L52-.L51)/2
 775 002b 0D       		.byte	(.L50-.L51)/2
 776              		.p2align 1
 777              	.L52:
 332:D:/fchai/work/i-cube/I-CUBE-HUAWEI/Drivers/BSP/Components/lsm6dso\lsm6dso_reg.c ****     case LSM6DSO_XL_ODR_OFF:
 333:D:/fchai/work/i-cube/I-CUBE-HUAWEI/Drivers/BSP/Components/lsm6dso\lsm6dso_reg.c ****       *val = LSM6DSO_XL_ODR_OFF;
 334:D:/fchai/work/i-cube/I-CUBE-HUAWEI/Drivers/BSP/Components/lsm6dso\lsm6dso_reg.c ****       break;
 335:D:/fchai/work/i-cube/I-CUBE-HUAWEI/Drivers/BSP/Components/lsm6dso\lsm6dso_reg.c ****     case LSM6DSO_XL_ODR_12Hz5:
 336:D:/fchai/work/i-cube/I-CUBE-HUAWEI/Drivers/BSP/Components/lsm6dso\lsm6dso_reg.c ****       *val = LSM6DSO_XL_ODR_12Hz5;
 337:D:/fchai/work/i-cube/I-CUBE-HUAWEI/Drivers/BSP/Components/lsm6dso\lsm6dso_reg.c ****       break;
ARM GAS  T:\msys\tmp\ccaXiy3K.s 			page 21


 338:D:/fchai/work/i-cube/I-CUBE-HUAWEI/Drivers/BSP/Components/lsm6dso\lsm6dso_reg.c ****     case LSM6DSO_XL_ODR_26Hz:
 339:D:/fchai/work/i-cube/I-CUBE-HUAWEI/Drivers/BSP/Components/lsm6dso\lsm6dso_reg.c ****       *val = LSM6DSO_XL_ODR_26Hz;
 340:D:/fchai/work/i-cube/I-CUBE-HUAWEI/Drivers/BSP/Components/lsm6dso\lsm6dso_reg.c ****       break;
 341:D:/fchai/work/i-cube/I-CUBE-HUAWEI/Drivers/BSP/Components/lsm6dso\lsm6dso_reg.c ****     case LSM6DSO_XL_ODR_52Hz:
 342:D:/fchai/work/i-cube/I-CUBE-HUAWEI/Drivers/BSP/Components/lsm6dso\lsm6dso_reg.c ****       *val = LSM6DSO_XL_ODR_52Hz;
 343:D:/fchai/work/i-cube/I-CUBE-HUAWEI/Drivers/BSP/Components/lsm6dso\lsm6dso_reg.c ****       break;
 344:D:/fchai/work/i-cube/I-CUBE-HUAWEI/Drivers/BSP/Components/lsm6dso\lsm6dso_reg.c ****     case LSM6DSO_XL_ODR_104Hz:
 345:D:/fchai/work/i-cube/I-CUBE-HUAWEI/Drivers/BSP/Components/lsm6dso\lsm6dso_reg.c ****       *val = LSM6DSO_XL_ODR_104Hz;
 346:D:/fchai/work/i-cube/I-CUBE-HUAWEI/Drivers/BSP/Components/lsm6dso\lsm6dso_reg.c ****       break;
 347:D:/fchai/work/i-cube/I-CUBE-HUAWEI/Drivers/BSP/Components/lsm6dso\lsm6dso_reg.c ****     case LSM6DSO_XL_ODR_208Hz:
 348:D:/fchai/work/i-cube/I-CUBE-HUAWEI/Drivers/BSP/Components/lsm6dso\lsm6dso_reg.c ****       *val = LSM6DSO_XL_ODR_208Hz;
 349:D:/fchai/work/i-cube/I-CUBE-HUAWEI/Drivers/BSP/Components/lsm6dso\lsm6dso_reg.c ****       break;
 350:D:/fchai/work/i-cube/I-CUBE-HUAWEI/Drivers/BSP/Components/lsm6dso\lsm6dso_reg.c ****     case LSM6DSO_XL_ODR_417Hz:
 351:D:/fchai/work/i-cube/I-CUBE-HUAWEI/Drivers/BSP/Components/lsm6dso\lsm6dso_reg.c ****       *val = LSM6DSO_XL_ODR_417Hz;
 352:D:/fchai/work/i-cube/I-CUBE-HUAWEI/Drivers/BSP/Components/lsm6dso\lsm6dso_reg.c ****       break;
 353:D:/fchai/work/i-cube/I-CUBE-HUAWEI/Drivers/BSP/Components/lsm6dso\lsm6dso_reg.c ****     case LSM6DSO_XL_ODR_833Hz:
 354:D:/fchai/work/i-cube/I-CUBE-HUAWEI/Drivers/BSP/Components/lsm6dso\lsm6dso_reg.c ****       *val = LSM6DSO_XL_ODR_833Hz;
 355:D:/fchai/work/i-cube/I-CUBE-HUAWEI/Drivers/BSP/Components/lsm6dso\lsm6dso_reg.c ****       break;
 356:D:/fchai/work/i-cube/I-CUBE-HUAWEI/Drivers/BSP/Components/lsm6dso\lsm6dso_reg.c ****     case LSM6DSO_XL_ODR_1667Hz:
 357:D:/fchai/work/i-cube/I-CUBE-HUAWEI/Drivers/BSP/Components/lsm6dso\lsm6dso_reg.c ****       *val = LSM6DSO_XL_ODR_1667Hz;
 358:D:/fchai/work/i-cube/I-CUBE-HUAWEI/Drivers/BSP/Components/lsm6dso\lsm6dso_reg.c ****       break;
 359:D:/fchai/work/i-cube/I-CUBE-HUAWEI/Drivers/BSP/Components/lsm6dso\lsm6dso_reg.c ****     case LSM6DSO_XL_ODR_3333Hz:
 360:D:/fchai/work/i-cube/I-CUBE-HUAWEI/Drivers/BSP/Components/lsm6dso\lsm6dso_reg.c ****       *val = LSM6DSO_XL_ODR_3333Hz;
 361:D:/fchai/work/i-cube/I-CUBE-HUAWEI/Drivers/BSP/Components/lsm6dso\lsm6dso_reg.c ****       break;
 362:D:/fchai/work/i-cube/I-CUBE-HUAWEI/Drivers/BSP/Components/lsm6dso\lsm6dso_reg.c ****     case LSM6DSO_XL_ODR_6667Hz:
 363:D:/fchai/work/i-cube/I-CUBE-HUAWEI/Drivers/BSP/Components/lsm6dso\lsm6dso_reg.c ****       *val = LSM6DSO_XL_ODR_6667Hz;
 778              		.loc 1 363 7 view .LVU159
 779              		.loc 1 363 12 is_stmt 0 view .LVU160
 780 002c 0A23     		movs	r3, #10
 781 002e 2B70     		strb	r3, [r5]
 364:D:/fchai/work/i-cube/I-CUBE-HUAWEI/Drivers/BSP/Components/lsm6dso\lsm6dso_reg.c ****       break;
 782              		.loc 1 364 7 is_stmt 1 view .LVU161
 783              	.L48:
 365:D:/fchai/work/i-cube/I-CUBE-HUAWEI/Drivers/BSP/Components/lsm6dso\lsm6dso_reg.c ****     case LSM6DSO_XL_ODR_6Hz5:
 366:D:/fchai/work/i-cube/I-CUBE-HUAWEI/Drivers/BSP/Components/lsm6dso\lsm6dso_reg.c ****       *val = LSM6DSO_XL_ODR_6Hz5;
 367:D:/fchai/work/i-cube/I-CUBE-HUAWEI/Drivers/BSP/Components/lsm6dso\lsm6dso_reg.c ****       break;
 368:D:/fchai/work/i-cube/I-CUBE-HUAWEI/Drivers/BSP/Components/lsm6dso\lsm6dso_reg.c ****     default:
 369:D:/fchai/work/i-cube/I-CUBE-HUAWEI/Drivers/BSP/Components/lsm6dso\lsm6dso_reg.c ****       *val = LSM6DSO_XL_ODR_OFF;
 370:D:/fchai/work/i-cube/I-CUBE-HUAWEI/Drivers/BSP/Components/lsm6dso\lsm6dso_reg.c ****       break;
 371:D:/fchai/work/i-cube/I-CUBE-HUAWEI/Drivers/BSP/Components/lsm6dso\lsm6dso_reg.c ****   }
 372:D:/fchai/work/i-cube/I-CUBE-HUAWEI/Drivers/BSP/Components/lsm6dso\lsm6dso_reg.c ****   return ret;
 373:D:/fchai/work/i-cube/I-CUBE-HUAWEI/Drivers/BSP/Components/lsm6dso\lsm6dso_reg.c **** }
 784              		.loc 1 373 1 is_stmt 0 view .LVU162
 785 0030 03B0     		add	sp, sp, #12
 786              	.LCFI14:
 787              		.cfi_remember_state
 788              		.cfi_def_cfa_offset 12
 789              		@ sp needed
 790 0032 30BD     		pop	{r4, r5, pc}
 791              	.LVL42:
 792              	.L49:
 793              	.LCFI15:
 794              		.cfi_restore_state
 369:D:/fchai/work/i-cube/I-CUBE-HUAWEI/Drivers/BSP/Components/lsm6dso\lsm6dso_reg.c ****       break;
 795              		.loc 1 369 7 is_stmt 1 view .LVU163
 369:D:/fchai/work/i-cube/I-CUBE-HUAWEI/Drivers/BSP/Components/lsm6dso\lsm6dso_reg.c ****       break;
 796              		.loc 1 369 12 is_stmt 0 view .LVU164
ARM GAS  T:\msys\tmp\ccaXiy3K.s 			page 22


 797 0034 0023     		movs	r3, #0
 798 0036 2B70     		strb	r3, [r5]
 370:D:/fchai/work/i-cube/I-CUBE-HUAWEI/Drivers/BSP/Components/lsm6dso\lsm6dso_reg.c ****   }
 799              		.loc 1 370 7 is_stmt 1 view .LVU165
 372:D:/fchai/work/i-cube/I-CUBE-HUAWEI/Drivers/BSP/Components/lsm6dso\lsm6dso_reg.c **** }
 800              		.loc 1 372 3 view .LVU166
 372:D:/fchai/work/i-cube/I-CUBE-HUAWEI/Drivers/BSP/Components/lsm6dso\lsm6dso_reg.c **** }
 801              		.loc 1 372 10 is_stmt 0 view .LVU167
 802 0038 FAE7     		b	.L48
 803              	.L50:
 366:D:/fchai/work/i-cube/I-CUBE-HUAWEI/Drivers/BSP/Components/lsm6dso\lsm6dso_reg.c ****       break;
 804              		.loc 1 366 7 is_stmt 1 view .LVU168
 366:D:/fchai/work/i-cube/I-CUBE-HUAWEI/Drivers/BSP/Components/lsm6dso\lsm6dso_reg.c ****       break;
 805              		.loc 1 366 12 is_stmt 0 view .LVU169
 806 003a 0B23     		movs	r3, #11
 807 003c 2B70     		strb	r3, [r5]
 367:D:/fchai/work/i-cube/I-CUBE-HUAWEI/Drivers/BSP/Components/lsm6dso\lsm6dso_reg.c ****     default:
 808              		.loc 1 367 7 is_stmt 1 view .LVU170
 809 003e F7E7     		b	.L48
 810              	.L61:
 336:D:/fchai/work/i-cube/I-CUBE-HUAWEI/Drivers/BSP/Components/lsm6dso\lsm6dso_reg.c ****       break;
 811              		.loc 1 336 7 view .LVU171
 336:D:/fchai/work/i-cube/I-CUBE-HUAWEI/Drivers/BSP/Components/lsm6dso\lsm6dso_reg.c ****       break;
 812              		.loc 1 336 12 is_stmt 0 view .LVU172
 813 0040 0123     		movs	r3, #1
 814 0042 2B70     		strb	r3, [r5]
 337:D:/fchai/work/i-cube/I-CUBE-HUAWEI/Drivers/BSP/Components/lsm6dso\lsm6dso_reg.c ****     case LSM6DSO_XL_ODR_26Hz:
 815              		.loc 1 337 7 is_stmt 1 view .LVU173
 816 0044 F4E7     		b	.L48
 817              	.L60:
 339:D:/fchai/work/i-cube/I-CUBE-HUAWEI/Drivers/BSP/Components/lsm6dso\lsm6dso_reg.c ****       break;
 818              		.loc 1 339 7 view .LVU174
 339:D:/fchai/work/i-cube/I-CUBE-HUAWEI/Drivers/BSP/Components/lsm6dso\lsm6dso_reg.c ****       break;
 819              		.loc 1 339 12 is_stmt 0 view .LVU175
 820 0046 0223     		movs	r3, #2
 821 0048 2B70     		strb	r3, [r5]
 340:D:/fchai/work/i-cube/I-CUBE-HUAWEI/Drivers/BSP/Components/lsm6dso\lsm6dso_reg.c ****     case LSM6DSO_XL_ODR_52Hz:
 822              		.loc 1 340 7 is_stmt 1 view .LVU176
 823 004a F1E7     		b	.L48
 824              	.L59:
 342:D:/fchai/work/i-cube/I-CUBE-HUAWEI/Drivers/BSP/Components/lsm6dso\lsm6dso_reg.c ****       break;
 825              		.loc 1 342 7 view .LVU177
 342:D:/fchai/work/i-cube/I-CUBE-HUAWEI/Drivers/BSP/Components/lsm6dso\lsm6dso_reg.c ****       break;
 826              		.loc 1 342 12 is_stmt 0 view .LVU178
 827 004c 0323     		movs	r3, #3
 828 004e 2B70     		strb	r3, [r5]
 343:D:/fchai/work/i-cube/I-CUBE-HUAWEI/Drivers/BSP/Components/lsm6dso\lsm6dso_reg.c ****     case LSM6DSO_XL_ODR_104Hz:
 829              		.loc 1 343 7 is_stmt 1 view .LVU179
 830 0050 EEE7     		b	.L48
 831              	.L58:
 345:D:/fchai/work/i-cube/I-CUBE-HUAWEI/Drivers/BSP/Components/lsm6dso\lsm6dso_reg.c ****       break;
 832              		.loc 1 345 7 view .LVU180
 345:D:/fchai/work/i-cube/I-CUBE-HUAWEI/Drivers/BSP/Components/lsm6dso\lsm6dso_reg.c ****       break;
 833              		.loc 1 345 12 is_stmt 0 view .LVU181
 834 0052 0423     		movs	r3, #4
 835 0054 2B70     		strb	r3, [r5]
 346:D:/fchai/work/i-cube/I-CUBE-HUAWEI/Drivers/BSP/Components/lsm6dso\lsm6dso_reg.c ****     case LSM6DSO_XL_ODR_208Hz:
ARM GAS  T:\msys\tmp\ccaXiy3K.s 			page 23


 836              		.loc 1 346 7 is_stmt 1 view .LVU182
 837 0056 EBE7     		b	.L48
 838              	.L57:
 348:D:/fchai/work/i-cube/I-CUBE-HUAWEI/Drivers/BSP/Components/lsm6dso\lsm6dso_reg.c ****       break;
 839              		.loc 1 348 7 view .LVU183
 348:D:/fchai/work/i-cube/I-CUBE-HUAWEI/Drivers/BSP/Components/lsm6dso\lsm6dso_reg.c ****       break;
 840              		.loc 1 348 12 is_stmt 0 view .LVU184
 841 0058 0523     		movs	r3, #5
 842 005a 2B70     		strb	r3, [r5]
 349:D:/fchai/work/i-cube/I-CUBE-HUAWEI/Drivers/BSP/Components/lsm6dso\lsm6dso_reg.c ****     case LSM6DSO_XL_ODR_417Hz:
 843              		.loc 1 349 7 is_stmt 1 view .LVU185
 844 005c E8E7     		b	.L48
 845              	.L56:
 351:D:/fchai/work/i-cube/I-CUBE-HUAWEI/Drivers/BSP/Components/lsm6dso\lsm6dso_reg.c ****       break;
 846              		.loc 1 351 7 view .LVU186
 351:D:/fchai/work/i-cube/I-CUBE-HUAWEI/Drivers/BSP/Components/lsm6dso\lsm6dso_reg.c ****       break;
 847              		.loc 1 351 12 is_stmt 0 view .LVU187
 848 005e 0623     		movs	r3, #6
 849 0060 2B70     		strb	r3, [r5]
 352:D:/fchai/work/i-cube/I-CUBE-HUAWEI/Drivers/BSP/Components/lsm6dso\lsm6dso_reg.c ****     case LSM6DSO_XL_ODR_833Hz:
 850              		.loc 1 352 7 is_stmt 1 view .LVU188
 851 0062 E5E7     		b	.L48
 852              	.L55:
 354:D:/fchai/work/i-cube/I-CUBE-HUAWEI/Drivers/BSP/Components/lsm6dso\lsm6dso_reg.c ****       break;
 853              		.loc 1 354 7 view .LVU189
 354:D:/fchai/work/i-cube/I-CUBE-HUAWEI/Drivers/BSP/Components/lsm6dso\lsm6dso_reg.c ****       break;
 854              		.loc 1 354 12 is_stmt 0 view .LVU190
 855 0064 0723     		movs	r3, #7
 856 0066 2B70     		strb	r3, [r5]
 355:D:/fchai/work/i-cube/I-CUBE-HUAWEI/Drivers/BSP/Components/lsm6dso\lsm6dso_reg.c ****     case LSM6DSO_XL_ODR_1667Hz:
 857              		.loc 1 355 7 is_stmt 1 view .LVU191
 858 0068 E2E7     		b	.L48
 859              	.L54:
 357:D:/fchai/work/i-cube/I-CUBE-HUAWEI/Drivers/BSP/Components/lsm6dso\lsm6dso_reg.c ****       break;
 860              		.loc 1 357 7 view .LVU192
 357:D:/fchai/work/i-cube/I-CUBE-HUAWEI/Drivers/BSP/Components/lsm6dso\lsm6dso_reg.c ****       break;
 861              		.loc 1 357 12 is_stmt 0 view .LVU193
 862 006a 0823     		movs	r3, #8
 863 006c 2B70     		strb	r3, [r5]
 358:D:/fchai/work/i-cube/I-CUBE-HUAWEI/Drivers/BSP/Components/lsm6dso\lsm6dso_reg.c ****     case LSM6DSO_XL_ODR_3333Hz:
 864              		.loc 1 358 7 is_stmt 1 view .LVU194
 865 006e DFE7     		b	.L48
 866              	.L53:
 360:D:/fchai/work/i-cube/I-CUBE-HUAWEI/Drivers/BSP/Components/lsm6dso\lsm6dso_reg.c ****       break;
 867              		.loc 1 360 7 view .LVU195
 360:D:/fchai/work/i-cube/I-CUBE-HUAWEI/Drivers/BSP/Components/lsm6dso\lsm6dso_reg.c ****       break;
 868              		.loc 1 360 12 is_stmt 0 view .LVU196
 869 0070 0923     		movs	r3, #9
 870 0072 2B70     		strb	r3, [r5]
 361:D:/fchai/work/i-cube/I-CUBE-HUAWEI/Drivers/BSP/Components/lsm6dso\lsm6dso_reg.c ****     case LSM6DSO_XL_ODR_6667Hz:
 871              		.loc 1 361 7 is_stmt 1 view .LVU197
 872 0074 DCE7     		b	.L48
 873              		.cfi_endproc
 874              	.LFE16:
 876 0076 00BF     		.section	.text.lsm6dso_gy_full_scale_set,"ax",%progbits
 877              		.align	1
 878              		.p2align 2,,3
ARM GAS  T:\msys\tmp\ccaXiy3K.s 			page 24


 879              		.global	lsm6dso_gy_full_scale_set
 880              		.syntax unified
 881              		.thumb
 882              		.thumb_func
 883              		.fpu fpv4-sp-d16
 885              	lsm6dso_gy_full_scale_set:
 886              	.LVL43:
 887              	.LFB17:
 374:D:/fchai/work/i-cube/I-CUBE-HUAWEI/Drivers/BSP/Components/lsm6dso\lsm6dso_reg.c **** 
 375:D:/fchai/work/i-cube/I-CUBE-HUAWEI/Drivers/BSP/Components/lsm6dso\lsm6dso_reg.c **** /**
 376:D:/fchai/work/i-cube/I-CUBE-HUAWEI/Drivers/BSP/Components/lsm6dso\lsm6dso_reg.c ****   * @brief  Gyroscope UI chain full-scale selection.[set]
 377:D:/fchai/work/i-cube/I-CUBE-HUAWEI/Drivers/BSP/Components/lsm6dso\lsm6dso_reg.c ****   *
 378:D:/fchai/work/i-cube/I-CUBE-HUAWEI/Drivers/BSP/Components/lsm6dso\lsm6dso_reg.c ****   * @param  ctx      read / write interface definitions
 379:D:/fchai/work/i-cube/I-CUBE-HUAWEI/Drivers/BSP/Components/lsm6dso\lsm6dso_reg.c ****   * @param  val      change the values of fs_g in reg CTRL2_G
 380:D:/fchai/work/i-cube/I-CUBE-HUAWEI/Drivers/BSP/Components/lsm6dso\lsm6dso_reg.c ****   *
 381:D:/fchai/work/i-cube/I-CUBE-HUAWEI/Drivers/BSP/Components/lsm6dso\lsm6dso_reg.c ****   */
 382:D:/fchai/work/i-cube/I-CUBE-HUAWEI/Drivers/BSP/Components/lsm6dso\lsm6dso_reg.c **** int32_t lsm6dso_gy_full_scale_set(stmdev_ctx_t *ctx, lsm6dso_fs_g_t val)
 383:D:/fchai/work/i-cube/I-CUBE-HUAWEI/Drivers/BSP/Components/lsm6dso\lsm6dso_reg.c **** {
 888              		.loc 1 383 1 view -0
 889              		.cfi_startproc
 890              		@ args = 0, pretend = 0, frame = 8
 891              		@ frame_needed = 0, uses_anonymous_args = 0
 384:D:/fchai/work/i-cube/I-CUBE-HUAWEI/Drivers/BSP/Components/lsm6dso\lsm6dso_reg.c ****   lsm6dso_ctrl2_g_t reg;
 892              		.loc 1 384 3 view .LVU199
 385:D:/fchai/work/i-cube/I-CUBE-HUAWEI/Drivers/BSP/Components/lsm6dso\lsm6dso_reg.c ****   int32_t ret;
 893              		.loc 1 385 3 view .LVU200
 386:D:/fchai/work/i-cube/I-CUBE-HUAWEI/Drivers/BSP/Components/lsm6dso\lsm6dso_reg.c **** 
 387:D:/fchai/work/i-cube/I-CUBE-HUAWEI/Drivers/BSP/Components/lsm6dso\lsm6dso_reg.c ****   ret = lsm6dso_read_reg(ctx, LSM6DSO_CTRL2_G, (uint8_t*)&reg, 1);
 894              		.loc 1 387 3 view .LVU201
 383:D:/fchai/work/i-cube/I-CUBE-HUAWEI/Drivers/BSP/Components/lsm6dso\lsm6dso_reg.c ****   lsm6dso_ctrl2_g_t reg;
 895              		.loc 1 383 1 is_stmt 0 view .LVU202
 896 0000 70B5     		push	{r4, r5, r6, lr}
 897              	.LCFI16:
 898              		.cfi_def_cfa_offset 16
 899              		.cfi_offset 4, -16
 900              		.cfi_offset 5, -12
 901              		.cfi_offset 6, -8
 902              		.cfi_offset 14, -4
 903 0002 82B0     		sub	sp, sp, #8
 904              	.LCFI17:
 905              		.cfi_def_cfa_offset 24
 383:D:/fchai/work/i-cube/I-CUBE-HUAWEI/Drivers/BSP/Components/lsm6dso\lsm6dso_reg.c ****   lsm6dso_ctrl2_g_t reg;
 906              		.loc 1 383 1 view .LVU203
 907 0004 0446     		mov	r4, r0
 908              	.LVL44:
 909              	.LBB1020:
 910              	.LBI1020:
  49:D:/fchai/work/i-cube/I-CUBE-HUAWEI/Drivers/BSP/Components/lsm6dso\lsm6dso_reg.c ****                          uint16_t len)
 911              		.loc 1 49 9 is_stmt 1 view .LVU204
 912              	.LBB1021:
  52:D:/fchai/work/i-cube/I-CUBE-HUAWEI/Drivers/BSP/Components/lsm6dso\lsm6dso_reg.c ****   ret = ctx->read_reg(ctx->handle, reg, data, len);
 913              		.loc 1 52 3 view .LVU205
  53:D:/fchai/work/i-cube/I-CUBE-HUAWEI/Drivers/BSP/Components/lsm6dso\lsm6dso_reg.c ****   return ret;
 914              		.loc 1 53 3 view .LVU206
 915              	.LBE1021:
 916              	.LBE1020:
 383:D:/fchai/work/i-cube/I-CUBE-HUAWEI/Drivers/BSP/Components/lsm6dso\lsm6dso_reg.c ****   lsm6dso_ctrl2_g_t reg;
ARM GAS  T:\msys\tmp\ccaXiy3K.s 			page 25


 917              		.loc 1 383 1 is_stmt 0 view .LVU207
 918 0006 0D46     		mov	r5, r1
 919              	.LBB1023:
 920              	.LBB1022:
  53:D:/fchai/work/i-cube/I-CUBE-HUAWEI/Drivers/BSP/Components/lsm6dso\lsm6dso_reg.c ****   return ret;
 921              		.loc 1 53 9 view .LVU208
 922 0008 D0E90160 		ldrd	r6, r0, [r0, #4]
 923              	.LVL45:
  53:D:/fchai/work/i-cube/I-CUBE-HUAWEI/Drivers/BSP/Components/lsm6dso\lsm6dso_reg.c ****   return ret;
 924              		.loc 1 53 9 view .LVU209
 925 000c 01AA     		add	r2, sp, #4
 926              	.LVL46:
  53:D:/fchai/work/i-cube/I-CUBE-HUAWEI/Drivers/BSP/Components/lsm6dso\lsm6dso_reg.c ****   return ret;
 927              		.loc 1 53 9 view .LVU210
 928 000e 0123     		movs	r3, #1
 929 0010 1121     		movs	r1, #17
 930              	.LVL47:
  53:D:/fchai/work/i-cube/I-CUBE-HUAWEI/Drivers/BSP/Components/lsm6dso\lsm6dso_reg.c ****   return ret;
 931              		.loc 1 53 9 view .LVU211
 932 0012 B047     		blx	r6
 933              	.LVL48:
  54:D:/fchai/work/i-cube/I-CUBE-HUAWEI/Drivers/BSP/Components/lsm6dso\lsm6dso_reg.c **** }
 934              		.loc 1 54 3 is_stmt 1 view .LVU212
  54:D:/fchai/work/i-cube/I-CUBE-HUAWEI/Drivers/BSP/Components/lsm6dso\lsm6dso_reg.c **** }
 935              		.loc 1 54 3 is_stmt 0 view .LVU213
 936              	.LBE1022:
 937              	.LBE1023:
 388:D:/fchai/work/i-cube/I-CUBE-HUAWEI/Drivers/BSP/Components/lsm6dso\lsm6dso_reg.c ****   if (ret == 0) {
 938              		.loc 1 388 3 is_stmt 1 view .LVU214
 939              		.loc 1 388 6 is_stmt 0 view .LVU215
 940 0014 58B9     		cbnz	r0, .L65
 389:D:/fchai/work/i-cube/I-CUBE-HUAWEI/Drivers/BSP/Components/lsm6dso\lsm6dso_reg.c ****     reg.fs_g = (uint8_t) val;
 941              		.loc 1 389 5 is_stmt 1 view .LVU216
 942              		.loc 1 389 14 is_stmt 0 view .LVU217
 943 0016 9DF80430 		ldrb	r3, [sp, #4]	@ zero_extendqisi2
 944              	.LBB1024:
 945              	.LBB1025:
  71:D:/fchai/work/i-cube/I-CUBE-HUAWEI/Drivers/BSP/Components/lsm6dso\lsm6dso_reg.c ****   return ret;
 946              		.loc 1 71 9 view .LVU218
 947 001a 2668     		ldr	r6, [r4]
 948 001c A068     		ldr	r0, [r4, #8]
 949              	.LVL49:
  71:D:/fchai/work/i-cube/I-CUBE-HUAWEI/Drivers/BSP/Components/lsm6dso\lsm6dso_reg.c ****   return ret;
 950              		.loc 1 71 9 view .LVU219
 951              	.LBE1025:
 952              	.LBE1024:
 953              		.loc 1 389 14 view .LVU220
 954 001e 65F34303 		bfi	r3, r5, #1, #3
 955 0022 8DF80430 		strb	r3, [sp, #4]
 390:D:/fchai/work/i-cube/I-CUBE-HUAWEI/Drivers/BSP/Components/lsm6dso\lsm6dso_reg.c ****     ret = lsm6dso_write_reg(ctx, LSM6DSO_CTRL2_G, (uint8_t*)&reg, 1);
 956              		.loc 1 390 5 is_stmt 1 view .LVU221
 957              	.LVL50:
 958              	.LBB1027:
 959              	.LBI1024:
  67:D:/fchai/work/i-cube/I-CUBE-HUAWEI/Drivers/BSP/Components/lsm6dso\lsm6dso_reg.c ****                           uint16_t len)
 960              		.loc 1 67 9 view .LVU222
 961              	.LBB1026:
ARM GAS  T:\msys\tmp\ccaXiy3K.s 			page 26


  70:D:/fchai/work/i-cube/I-CUBE-HUAWEI/Drivers/BSP/Components/lsm6dso\lsm6dso_reg.c ****   ret = ctx->write_reg(ctx->handle, reg, data, len);
 962              		.loc 1 70 3 view .LVU223
  71:D:/fchai/work/i-cube/I-CUBE-HUAWEI/Drivers/BSP/Components/lsm6dso\lsm6dso_reg.c ****   return ret;
 963              		.loc 1 71 3 view .LVU224
  71:D:/fchai/work/i-cube/I-CUBE-HUAWEI/Drivers/BSP/Components/lsm6dso\lsm6dso_reg.c ****   return ret;
 964              		.loc 1 71 9 is_stmt 0 view .LVU225
 965 0026 01AA     		add	r2, sp, #4
 966              	.LVL51:
  71:D:/fchai/work/i-cube/I-CUBE-HUAWEI/Drivers/BSP/Components/lsm6dso\lsm6dso_reg.c ****   return ret;
 967              		.loc 1 71 9 view .LVU226
 968 0028 0123     		movs	r3, #1
 969 002a 1121     		movs	r1, #17
 970 002c B047     		blx	r6
 971              	.LVL52:
  72:D:/fchai/work/i-cube/I-CUBE-HUAWEI/Drivers/BSP/Components/lsm6dso\lsm6dso_reg.c **** }
 972              		.loc 1 72 3 is_stmt 1 view .LVU227
  72:D:/fchai/work/i-cube/I-CUBE-HUAWEI/Drivers/BSP/Components/lsm6dso\lsm6dso_reg.c **** }
 973              		.loc 1 72 3 is_stmt 0 view .LVU228
 974              	.LBE1026:
 975              	.LBE1027:
 391:D:/fchai/work/i-cube/I-CUBE-HUAWEI/Drivers/BSP/Components/lsm6dso\lsm6dso_reg.c ****   }
 392:D:/fchai/work/i-cube/I-CUBE-HUAWEI/Drivers/BSP/Components/lsm6dso\lsm6dso_reg.c **** 
 393:D:/fchai/work/i-cube/I-CUBE-HUAWEI/Drivers/BSP/Components/lsm6dso\lsm6dso_reg.c ****   return ret;
 976              		.loc 1 393 3 is_stmt 1 view .LVU229
 977              	.L65:
 394:D:/fchai/work/i-cube/I-CUBE-HUAWEI/Drivers/BSP/Components/lsm6dso\lsm6dso_reg.c **** }
 978              		.loc 1 394 1 is_stmt 0 view .LVU230
 979 002e 02B0     		add	sp, sp, #8
 980              	.LCFI18:
 981              		.cfi_def_cfa_offset 16
 982              		@ sp needed
 983 0030 70BD     		pop	{r4, r5, r6, pc}
 984              		.loc 1 394 1 view .LVU231
 985              		.cfi_endproc
 986              	.LFE17:
 988 0032 00BF     		.section	.text.lsm6dso_gy_full_scale_get,"ax",%progbits
 989              		.align	1
 990              		.p2align 2,,3
 991              		.global	lsm6dso_gy_full_scale_get
 992              		.syntax unified
 993              		.thumb
 994              		.thumb_func
 995              		.fpu fpv4-sp-d16
 997              	lsm6dso_gy_full_scale_get:
 998              	.LVL53:
 999              	.LFB18:
 395:D:/fchai/work/i-cube/I-CUBE-HUAWEI/Drivers/BSP/Components/lsm6dso\lsm6dso_reg.c **** 
 396:D:/fchai/work/i-cube/I-CUBE-HUAWEI/Drivers/BSP/Components/lsm6dso\lsm6dso_reg.c **** /**
 397:D:/fchai/work/i-cube/I-CUBE-HUAWEI/Drivers/BSP/Components/lsm6dso\lsm6dso_reg.c ****   * @brief  Gyroscope UI chain full-scale selection.[get]
 398:D:/fchai/work/i-cube/I-CUBE-HUAWEI/Drivers/BSP/Components/lsm6dso\lsm6dso_reg.c ****   *
 399:D:/fchai/work/i-cube/I-CUBE-HUAWEI/Drivers/BSP/Components/lsm6dso\lsm6dso_reg.c ****   * @param  ctx      read / write interface definitions
 400:D:/fchai/work/i-cube/I-CUBE-HUAWEI/Drivers/BSP/Components/lsm6dso\lsm6dso_reg.c ****   * @param  val      Get the values of fs_g in reg CTRL2_G
 401:D:/fchai/work/i-cube/I-CUBE-HUAWEI/Drivers/BSP/Components/lsm6dso\lsm6dso_reg.c ****   *
 402:D:/fchai/work/i-cube/I-CUBE-HUAWEI/Drivers/BSP/Components/lsm6dso\lsm6dso_reg.c ****   */
 403:D:/fchai/work/i-cube/I-CUBE-HUAWEI/Drivers/BSP/Components/lsm6dso\lsm6dso_reg.c **** int32_t lsm6dso_gy_full_scale_get(stmdev_ctx_t *ctx, lsm6dso_fs_g_t *val)
 404:D:/fchai/work/i-cube/I-CUBE-HUAWEI/Drivers/BSP/Components/lsm6dso\lsm6dso_reg.c **** {
 1000              		.loc 1 404 1 is_stmt 1 view -0
ARM GAS  T:\msys\tmp\ccaXiy3K.s 			page 27


 1001              		.cfi_startproc
 1002              		@ args = 0, pretend = 0, frame = 8
 1003              		@ frame_needed = 0, uses_anonymous_args = 0
 405:D:/fchai/work/i-cube/I-CUBE-HUAWEI/Drivers/BSP/Components/lsm6dso\lsm6dso_reg.c ****   lsm6dso_ctrl2_g_t reg;
 1004              		.loc 1 405 3 view .LVU233
 406:D:/fchai/work/i-cube/I-CUBE-HUAWEI/Drivers/BSP/Components/lsm6dso\lsm6dso_reg.c ****   int32_t ret;
 1005              		.loc 1 406 3 view .LVU234
 407:D:/fchai/work/i-cube/I-CUBE-HUAWEI/Drivers/BSP/Components/lsm6dso\lsm6dso_reg.c **** 
 408:D:/fchai/work/i-cube/I-CUBE-HUAWEI/Drivers/BSP/Components/lsm6dso\lsm6dso_reg.c ****   ret = lsm6dso_read_reg(ctx, LSM6DSO_CTRL2_G, (uint8_t*)&reg, 1);
 1006              		.loc 1 408 3 view .LVU235
 404:D:/fchai/work/i-cube/I-CUBE-HUAWEI/Drivers/BSP/Components/lsm6dso\lsm6dso_reg.c ****   lsm6dso_ctrl2_g_t reg;
 1007              		.loc 1 404 1 is_stmt 0 view .LVU236
 1008 0000 30B5     		push	{r4, r5, lr}
 1009              	.LCFI19:
 1010              		.cfi_def_cfa_offset 12
 1011              		.cfi_offset 4, -12
 1012              		.cfi_offset 5, -8
 1013              		.cfi_offset 14, -4
 1014 0002 83B0     		sub	sp, sp, #12
 1015              	.LCFI20:
 1016              		.cfi_def_cfa_offset 24
 1017              	.LVL54:
 1018              	.LBB1028:
 1019              	.LBI1028:
  49:D:/fchai/work/i-cube/I-CUBE-HUAWEI/Drivers/BSP/Components/lsm6dso\lsm6dso_reg.c ****                          uint16_t len)
 1020              		.loc 1 49 9 is_stmt 1 view .LVU237
 1021              	.LBB1029:
  52:D:/fchai/work/i-cube/I-CUBE-HUAWEI/Drivers/BSP/Components/lsm6dso\lsm6dso_reg.c ****   ret = ctx->read_reg(ctx->handle, reg, data, len);
 1022              		.loc 1 52 3 view .LVU238
  53:D:/fchai/work/i-cube/I-CUBE-HUAWEI/Drivers/BSP/Components/lsm6dso\lsm6dso_reg.c ****   return ret;
 1023              		.loc 1 53 3 view .LVU239
  53:D:/fchai/work/i-cube/I-CUBE-HUAWEI/Drivers/BSP/Components/lsm6dso\lsm6dso_reg.c ****   return ret;
 1024              		.loc 1 53 9 is_stmt 0 view .LVU240
 1025 0004 0123     		movs	r3, #1
 1026 0006 D0E90140 		ldrd	r4, r0, [r0, #4]
 1027              	.LVL55:
  53:D:/fchai/work/i-cube/I-CUBE-HUAWEI/Drivers/BSP/Components/lsm6dso\lsm6dso_reg.c ****   return ret;
 1028              		.loc 1 53 9 view .LVU241
 1029              	.LBE1029:
 1030              	.LBE1028:
 404:D:/fchai/work/i-cube/I-CUBE-HUAWEI/Drivers/BSP/Components/lsm6dso\lsm6dso_reg.c ****   lsm6dso_ctrl2_g_t reg;
 1031              		.loc 1 404 1 view .LVU242
 1032 000a 0D46     		mov	r5, r1
 1033              	.LBB1032:
 1034              	.LBB1030:
  53:D:/fchai/work/i-cube/I-CUBE-HUAWEI/Drivers/BSP/Components/lsm6dso\lsm6dso_reg.c ****   return ret;
 1035              		.loc 1 53 9 view .LVU243
 1036 000c 01AA     		add	r2, sp, #4
 1037              	.LVL56:
  53:D:/fchai/work/i-cube/I-CUBE-HUAWEI/Drivers/BSP/Components/lsm6dso\lsm6dso_reg.c ****   return ret;
 1038              		.loc 1 53 9 view .LVU244
 1039 000e 1121     		movs	r1, #17
 1040              	.LVL57:
  53:D:/fchai/work/i-cube/I-CUBE-HUAWEI/Drivers/BSP/Components/lsm6dso\lsm6dso_reg.c ****   return ret;
 1041              		.loc 1 53 9 view .LVU245
 1042 0010 A047     		blx	r4
 1043              	.LVL58:
ARM GAS  T:\msys\tmp\ccaXiy3K.s 			page 28


  53:D:/fchai/work/i-cube/I-CUBE-HUAWEI/Drivers/BSP/Components/lsm6dso\lsm6dso_reg.c ****   return ret;
 1044              		.loc 1 53 9 view .LVU246
 1045              	.LBE1030:
 1046              	.LBE1032:
 409:D:/fchai/work/i-cube/I-CUBE-HUAWEI/Drivers/BSP/Components/lsm6dso\lsm6dso_reg.c ****   switch (reg.fs_g) {
 1047              		.loc 1 409 14 view .LVU247
 1048 0012 9DF80430 		ldrb	r3, [sp, #4]	@ zero_extendqisi2
 1049 0016 C3F34203 		ubfx	r3, r3, #1, #3
 1050 001a 013B     		subs	r3, r3, #1
 1051              	.LVL59:
 1052              	.LBB1033:
 1053              	.LBB1031:
  54:D:/fchai/work/i-cube/I-CUBE-HUAWEI/Drivers/BSP/Components/lsm6dso\lsm6dso_reg.c **** }
 1054              		.loc 1 54 3 is_stmt 1 view .LVU248
  54:D:/fchai/work/i-cube/I-CUBE-HUAWEI/Drivers/BSP/Components/lsm6dso\lsm6dso_reg.c **** }
 1055              		.loc 1 54 3 is_stmt 0 view .LVU249
 1056              	.LBE1031:
 1057              	.LBE1033:
 1058              		.loc 1 409 3 is_stmt 1 view .LVU250
 1059 001c 052B     		cmp	r3, #5
 1060 001e 04D8     		bhi	.L69
 1061 0020 DFE803F0 		tbb	[pc, r3]
 1062              	.L71:
 1063 0024 0B       		.byte	(.L74-.L71)/2
 1064 0025 0F       		.byte	(.L73-.L71)/2
 1065 0026 03       		.byte	(.L69-.L71)/2
 1066 0027 13       		.byte	(.L72-.L71)/2
 1067 0028 03       		.byte	(.L69-.L71)/2
 1068 0029 07       		.byte	(.L70-.L71)/2
 1069              		.p2align 1
 1070              	.L69:
 410:D:/fchai/work/i-cube/I-CUBE-HUAWEI/Drivers/BSP/Components/lsm6dso\lsm6dso_reg.c ****     case LSM6DSO_250dps:
 411:D:/fchai/work/i-cube/I-CUBE-HUAWEI/Drivers/BSP/Components/lsm6dso\lsm6dso_reg.c ****       *val = LSM6DSO_250dps;
 1071              		.loc 1 411 7 view .LVU251
 1072              		.loc 1 411 12 is_stmt 0 view .LVU252
 1073 002a 0023     		movs	r3, #0
 1074 002c 2B70     		strb	r3, [r5]
 412:D:/fchai/work/i-cube/I-CUBE-HUAWEI/Drivers/BSP/Components/lsm6dso\lsm6dso_reg.c ****       break;
 1075              		.loc 1 412 7 is_stmt 1 view .LVU253
 413:D:/fchai/work/i-cube/I-CUBE-HUAWEI/Drivers/BSP/Components/lsm6dso\lsm6dso_reg.c ****     case LSM6DSO_125dps:
 414:D:/fchai/work/i-cube/I-CUBE-HUAWEI/Drivers/BSP/Components/lsm6dso\lsm6dso_reg.c ****       *val = LSM6DSO_125dps;
 415:D:/fchai/work/i-cube/I-CUBE-HUAWEI/Drivers/BSP/Components/lsm6dso\lsm6dso_reg.c ****       break;
 416:D:/fchai/work/i-cube/I-CUBE-HUAWEI/Drivers/BSP/Components/lsm6dso\lsm6dso_reg.c ****     case LSM6DSO_500dps:
 417:D:/fchai/work/i-cube/I-CUBE-HUAWEI/Drivers/BSP/Components/lsm6dso\lsm6dso_reg.c ****       *val = LSM6DSO_500dps;
 418:D:/fchai/work/i-cube/I-CUBE-HUAWEI/Drivers/BSP/Components/lsm6dso\lsm6dso_reg.c ****       break;
 419:D:/fchai/work/i-cube/I-CUBE-HUAWEI/Drivers/BSP/Components/lsm6dso\lsm6dso_reg.c ****     case LSM6DSO_1000dps:
 420:D:/fchai/work/i-cube/I-CUBE-HUAWEI/Drivers/BSP/Components/lsm6dso\lsm6dso_reg.c ****       *val = LSM6DSO_1000dps;
 421:D:/fchai/work/i-cube/I-CUBE-HUAWEI/Drivers/BSP/Components/lsm6dso\lsm6dso_reg.c ****       break;
 422:D:/fchai/work/i-cube/I-CUBE-HUAWEI/Drivers/BSP/Components/lsm6dso\lsm6dso_reg.c ****     case LSM6DSO_2000dps:
 423:D:/fchai/work/i-cube/I-CUBE-HUAWEI/Drivers/BSP/Components/lsm6dso\lsm6dso_reg.c ****       *val = LSM6DSO_2000dps;
 424:D:/fchai/work/i-cube/I-CUBE-HUAWEI/Drivers/BSP/Components/lsm6dso\lsm6dso_reg.c ****       break;
 425:D:/fchai/work/i-cube/I-CUBE-HUAWEI/Drivers/BSP/Components/lsm6dso\lsm6dso_reg.c ****     default:
 426:D:/fchai/work/i-cube/I-CUBE-HUAWEI/Drivers/BSP/Components/lsm6dso\lsm6dso_reg.c ****       *val = LSM6DSO_250dps;
 427:D:/fchai/work/i-cube/I-CUBE-HUAWEI/Drivers/BSP/Components/lsm6dso\lsm6dso_reg.c ****       break;
 428:D:/fchai/work/i-cube/I-CUBE-HUAWEI/Drivers/BSP/Components/lsm6dso\lsm6dso_reg.c ****   }
 429:D:/fchai/work/i-cube/I-CUBE-HUAWEI/Drivers/BSP/Components/lsm6dso\lsm6dso_reg.c **** 
 430:D:/fchai/work/i-cube/I-CUBE-HUAWEI/Drivers/BSP/Components/lsm6dso\lsm6dso_reg.c ****   return ret;
ARM GAS  T:\msys\tmp\ccaXiy3K.s 			page 29


 431:D:/fchai/work/i-cube/I-CUBE-HUAWEI/Drivers/BSP/Components/lsm6dso\lsm6dso_reg.c **** }
 1076              		.loc 1 431 1 is_stmt 0 view .LVU254
 1077 002e 03B0     		add	sp, sp, #12
 1078              	.LCFI21:
 1079              		.cfi_remember_state
 1080              		.cfi_def_cfa_offset 12
 1081              		@ sp needed
 1082 0030 30BD     		pop	{r4, r5, pc}
 1083              	.LVL60:
 1084              	.L70:
 1085              	.LCFI22:
 1086              		.cfi_restore_state
 423:D:/fchai/work/i-cube/I-CUBE-HUAWEI/Drivers/BSP/Components/lsm6dso\lsm6dso_reg.c ****       break;
 1087              		.loc 1 423 7 is_stmt 1 view .LVU255
 423:D:/fchai/work/i-cube/I-CUBE-HUAWEI/Drivers/BSP/Components/lsm6dso\lsm6dso_reg.c ****       break;
 1088              		.loc 1 423 12 is_stmt 0 view .LVU256
 1089 0032 0623     		movs	r3, #6
 1090 0034 2B70     		strb	r3, [r5]
 424:D:/fchai/work/i-cube/I-CUBE-HUAWEI/Drivers/BSP/Components/lsm6dso\lsm6dso_reg.c ****     default:
 1091              		.loc 1 424 7 is_stmt 1 view .LVU257
 430:D:/fchai/work/i-cube/I-CUBE-HUAWEI/Drivers/BSP/Components/lsm6dso\lsm6dso_reg.c **** }
 1092              		.loc 1 430 3 view .LVU258
 1093              		.loc 1 431 1 is_stmt 0 view .LVU259
 1094 0036 03B0     		add	sp, sp, #12
 1095              	.LCFI23:
 1096              		.cfi_remember_state
 1097              		.cfi_def_cfa_offset 12
 1098              		@ sp needed
 1099 0038 30BD     		pop	{r4, r5, pc}
 1100              	.LVL61:
 1101              	.L74:
 1102              	.LCFI24:
 1103              		.cfi_restore_state
 414:D:/fchai/work/i-cube/I-CUBE-HUAWEI/Drivers/BSP/Components/lsm6dso\lsm6dso_reg.c ****       break;
 1104              		.loc 1 414 7 is_stmt 1 view .LVU260
 414:D:/fchai/work/i-cube/I-CUBE-HUAWEI/Drivers/BSP/Components/lsm6dso\lsm6dso_reg.c ****       break;
 1105              		.loc 1 414 12 is_stmt 0 view .LVU261
 1106 003a 0123     		movs	r3, #1
 1107 003c 2B70     		strb	r3, [r5]
 415:D:/fchai/work/i-cube/I-CUBE-HUAWEI/Drivers/BSP/Components/lsm6dso\lsm6dso_reg.c ****     case LSM6DSO_500dps:
 1108              		.loc 1 415 7 is_stmt 1 view .LVU262
 1109              		.loc 1 431 1 is_stmt 0 view .LVU263
 1110 003e 03B0     		add	sp, sp, #12
 1111              	.LCFI25:
 1112              		.cfi_remember_state
 1113              		.cfi_def_cfa_offset 12
 1114              		@ sp needed
 1115 0040 30BD     		pop	{r4, r5, pc}
 1116              	.LVL62:
 1117              	.L73:
 1118              	.LCFI26:
 1119              		.cfi_restore_state
 417:D:/fchai/work/i-cube/I-CUBE-HUAWEI/Drivers/BSP/Components/lsm6dso\lsm6dso_reg.c ****       break;
 1120              		.loc 1 417 7 is_stmt 1 view .LVU264
 417:D:/fchai/work/i-cube/I-CUBE-HUAWEI/Drivers/BSP/Components/lsm6dso\lsm6dso_reg.c ****       break;
 1121              		.loc 1 417 12 is_stmt 0 view .LVU265
 1122 0042 0223     		movs	r3, #2
ARM GAS  T:\msys\tmp\ccaXiy3K.s 			page 30


 1123 0044 2B70     		strb	r3, [r5]
 418:D:/fchai/work/i-cube/I-CUBE-HUAWEI/Drivers/BSP/Components/lsm6dso\lsm6dso_reg.c ****     case LSM6DSO_1000dps:
 1124              		.loc 1 418 7 is_stmt 1 view .LVU266
 1125              		.loc 1 431 1 is_stmt 0 view .LVU267
 1126 0046 03B0     		add	sp, sp, #12
 1127              	.LCFI27:
 1128              		.cfi_remember_state
 1129              		.cfi_def_cfa_offset 12
 1130              		@ sp needed
 1131 0048 30BD     		pop	{r4, r5, pc}
 1132              	.LVL63:
 1133              	.L72:
 1134              	.LCFI28:
 1135              		.cfi_restore_state
 420:D:/fchai/work/i-cube/I-CUBE-HUAWEI/Drivers/BSP/Components/lsm6dso\lsm6dso_reg.c ****       break;
 1136              		.loc 1 420 7 is_stmt 1 view .LVU268
 420:D:/fchai/work/i-cube/I-CUBE-HUAWEI/Drivers/BSP/Components/lsm6dso\lsm6dso_reg.c ****       break;
 1137              		.loc 1 420 12 is_stmt 0 view .LVU269
 1138 004a 0423     		movs	r3, #4
 1139 004c 2B70     		strb	r3, [r5]
 421:D:/fchai/work/i-cube/I-CUBE-HUAWEI/Drivers/BSP/Components/lsm6dso\lsm6dso_reg.c ****     case LSM6DSO_2000dps:
 1140              		.loc 1 421 7 is_stmt 1 view .LVU270
 1141              		.loc 1 431 1 is_stmt 0 view .LVU271
 1142 004e 03B0     		add	sp, sp, #12
 1143              	.LCFI29:
 1144              		.cfi_def_cfa_offset 12
 1145              		@ sp needed
 1146 0050 30BD     		pop	{r4, r5, pc}
 1147              		.loc 1 431 1 view .LVU272
 1148              		.cfi_endproc
 1149              	.LFE18:
 1151 0052 00BF     		.section	.text.lsm6dso_gy_data_rate_get,"ax",%progbits
 1152              		.align	1
 1153              		.p2align 2,,3
 1154              		.global	lsm6dso_gy_data_rate_get
 1155              		.syntax unified
 1156              		.thumb
 1157              		.thumb_func
 1158              		.fpu fpv4-sp-d16
 1160              	lsm6dso_gy_data_rate_get:
 1161              	.LVL64:
 1162              	.LFB20:
 432:D:/fchai/work/i-cube/I-CUBE-HUAWEI/Drivers/BSP/Components/lsm6dso\lsm6dso_reg.c **** 
 433:D:/fchai/work/i-cube/I-CUBE-HUAWEI/Drivers/BSP/Components/lsm6dso\lsm6dso_reg.c **** /**
 434:D:/fchai/work/i-cube/I-CUBE-HUAWEI/Drivers/BSP/Components/lsm6dso\lsm6dso_reg.c ****   * @brief  Gyroscope UI data rate selection.[set]
 435:D:/fchai/work/i-cube/I-CUBE-HUAWEI/Drivers/BSP/Components/lsm6dso\lsm6dso_reg.c ****   *
 436:D:/fchai/work/i-cube/I-CUBE-HUAWEI/Drivers/BSP/Components/lsm6dso\lsm6dso_reg.c ****   * @param  ctx      read / write interface definitions
 437:D:/fchai/work/i-cube/I-CUBE-HUAWEI/Drivers/BSP/Components/lsm6dso\lsm6dso_reg.c ****   * @param  val      change the values of odr_g in reg CTRL2_G
 438:D:/fchai/work/i-cube/I-CUBE-HUAWEI/Drivers/BSP/Components/lsm6dso\lsm6dso_reg.c ****   *
 439:D:/fchai/work/i-cube/I-CUBE-HUAWEI/Drivers/BSP/Components/lsm6dso\lsm6dso_reg.c ****   */
 440:D:/fchai/work/i-cube/I-CUBE-HUAWEI/Drivers/BSP/Components/lsm6dso\lsm6dso_reg.c **** int32_t lsm6dso_gy_data_rate_set(stmdev_ctx_t *ctx, lsm6dso_odr_g_t val)
 441:D:/fchai/work/i-cube/I-CUBE-HUAWEI/Drivers/BSP/Components/lsm6dso\lsm6dso_reg.c **** {
 442:D:/fchai/work/i-cube/I-CUBE-HUAWEI/Drivers/BSP/Components/lsm6dso\lsm6dso_reg.c ****   lsm6dso_odr_g_t odr_gy =  val;
 443:D:/fchai/work/i-cube/I-CUBE-HUAWEI/Drivers/BSP/Components/lsm6dso\lsm6dso_reg.c ****   lsm6dso_emb_fsm_enable_t fsm_enable;
 444:D:/fchai/work/i-cube/I-CUBE-HUAWEI/Drivers/BSP/Components/lsm6dso\lsm6dso_reg.c ****   lsm6dso_fsm_odr_t fsm_odr;
 445:D:/fchai/work/i-cube/I-CUBE-HUAWEI/Drivers/BSP/Components/lsm6dso\lsm6dso_reg.c ****   lsm6dso_ctrl2_g_t reg;
 446:D:/fchai/work/i-cube/I-CUBE-HUAWEI/Drivers/BSP/Components/lsm6dso\lsm6dso_reg.c ****   int32_t ret;
ARM GAS  T:\msys\tmp\ccaXiy3K.s 			page 31


 447:D:/fchai/work/i-cube/I-CUBE-HUAWEI/Drivers/BSP/Components/lsm6dso\lsm6dso_reg.c **** 
 448:D:/fchai/work/i-cube/I-CUBE-HUAWEI/Drivers/BSP/Components/lsm6dso\lsm6dso_reg.c ****   /* Check the Finite State Machine data rate constraints */
 449:D:/fchai/work/i-cube/I-CUBE-HUAWEI/Drivers/BSP/Components/lsm6dso\lsm6dso_reg.c ****   ret =  lsm6dso_fsm_enable_get(ctx, &fsm_enable);
 450:D:/fchai/work/i-cube/I-CUBE-HUAWEI/Drivers/BSP/Components/lsm6dso\lsm6dso_reg.c ****   if (ret == 0) {
 451:D:/fchai/work/i-cube/I-CUBE-HUAWEI/Drivers/BSP/Components/lsm6dso\lsm6dso_reg.c ****     if ( (fsm_enable.fsm_enable_a.fsm1_en  |
 452:D:/fchai/work/i-cube/I-CUBE-HUAWEI/Drivers/BSP/Components/lsm6dso\lsm6dso_reg.c ****           fsm_enable.fsm_enable_a.fsm2_en  |
 453:D:/fchai/work/i-cube/I-CUBE-HUAWEI/Drivers/BSP/Components/lsm6dso\lsm6dso_reg.c ****           fsm_enable.fsm_enable_a.fsm3_en  |
 454:D:/fchai/work/i-cube/I-CUBE-HUAWEI/Drivers/BSP/Components/lsm6dso\lsm6dso_reg.c ****           fsm_enable.fsm_enable_a.fsm4_en  |
 455:D:/fchai/work/i-cube/I-CUBE-HUAWEI/Drivers/BSP/Components/lsm6dso\lsm6dso_reg.c ****           fsm_enable.fsm_enable_a.fsm5_en  |
 456:D:/fchai/work/i-cube/I-CUBE-HUAWEI/Drivers/BSP/Components/lsm6dso\lsm6dso_reg.c ****           fsm_enable.fsm_enable_a.fsm6_en  |
 457:D:/fchai/work/i-cube/I-CUBE-HUAWEI/Drivers/BSP/Components/lsm6dso\lsm6dso_reg.c ****           fsm_enable.fsm_enable_a.fsm7_en  |
 458:D:/fchai/work/i-cube/I-CUBE-HUAWEI/Drivers/BSP/Components/lsm6dso\lsm6dso_reg.c ****           fsm_enable.fsm_enable_a.fsm8_en  |
 459:D:/fchai/work/i-cube/I-CUBE-HUAWEI/Drivers/BSP/Components/lsm6dso\lsm6dso_reg.c ****           fsm_enable.fsm_enable_b.fsm9_en  |
 460:D:/fchai/work/i-cube/I-CUBE-HUAWEI/Drivers/BSP/Components/lsm6dso\lsm6dso_reg.c ****           fsm_enable.fsm_enable_b.fsm10_en |
 461:D:/fchai/work/i-cube/I-CUBE-HUAWEI/Drivers/BSP/Components/lsm6dso\lsm6dso_reg.c ****           fsm_enable.fsm_enable_b.fsm11_en |
 462:D:/fchai/work/i-cube/I-CUBE-HUAWEI/Drivers/BSP/Components/lsm6dso\lsm6dso_reg.c ****           fsm_enable.fsm_enable_b.fsm12_en |
 463:D:/fchai/work/i-cube/I-CUBE-HUAWEI/Drivers/BSP/Components/lsm6dso\lsm6dso_reg.c ****           fsm_enable.fsm_enable_b.fsm13_en |
 464:D:/fchai/work/i-cube/I-CUBE-HUAWEI/Drivers/BSP/Components/lsm6dso\lsm6dso_reg.c ****           fsm_enable.fsm_enable_b.fsm14_en |
 465:D:/fchai/work/i-cube/I-CUBE-HUAWEI/Drivers/BSP/Components/lsm6dso\lsm6dso_reg.c ****           fsm_enable.fsm_enable_b.fsm15_en |
 466:D:/fchai/work/i-cube/I-CUBE-HUAWEI/Drivers/BSP/Components/lsm6dso\lsm6dso_reg.c ****           fsm_enable.fsm_enable_b.fsm16_en ) == PROPERTY_ENABLE ){
 467:D:/fchai/work/i-cube/I-CUBE-HUAWEI/Drivers/BSP/Components/lsm6dso\lsm6dso_reg.c **** 
 468:D:/fchai/work/i-cube/I-CUBE-HUAWEI/Drivers/BSP/Components/lsm6dso\lsm6dso_reg.c ****       ret =  lsm6dso_fsm_data_rate_get(ctx, &fsm_odr);
 469:D:/fchai/work/i-cube/I-CUBE-HUAWEI/Drivers/BSP/Components/lsm6dso\lsm6dso_reg.c ****       if (ret == 0) {
 470:D:/fchai/work/i-cube/I-CUBE-HUAWEI/Drivers/BSP/Components/lsm6dso\lsm6dso_reg.c ****         switch (fsm_odr) {
 471:D:/fchai/work/i-cube/I-CUBE-HUAWEI/Drivers/BSP/Components/lsm6dso\lsm6dso_reg.c ****           case LSM6DSO_ODR_FSM_12Hz5:
 472:D:/fchai/work/i-cube/I-CUBE-HUAWEI/Drivers/BSP/Components/lsm6dso\lsm6dso_reg.c **** 
 473:D:/fchai/work/i-cube/I-CUBE-HUAWEI/Drivers/BSP/Components/lsm6dso\lsm6dso_reg.c ****             if (val == LSM6DSO_GY_ODR_OFF){
 474:D:/fchai/work/i-cube/I-CUBE-HUAWEI/Drivers/BSP/Components/lsm6dso\lsm6dso_reg.c ****               odr_gy = LSM6DSO_GY_ODR_12Hz5;
 475:D:/fchai/work/i-cube/I-CUBE-HUAWEI/Drivers/BSP/Components/lsm6dso\lsm6dso_reg.c **** 
 476:D:/fchai/work/i-cube/I-CUBE-HUAWEI/Drivers/BSP/Components/lsm6dso\lsm6dso_reg.c ****             } else {
 477:D:/fchai/work/i-cube/I-CUBE-HUAWEI/Drivers/BSP/Components/lsm6dso\lsm6dso_reg.c ****               odr_gy = val;
 478:D:/fchai/work/i-cube/I-CUBE-HUAWEI/Drivers/BSP/Components/lsm6dso\lsm6dso_reg.c ****             }
 479:D:/fchai/work/i-cube/I-CUBE-HUAWEI/Drivers/BSP/Components/lsm6dso\lsm6dso_reg.c ****             break;
 480:D:/fchai/work/i-cube/I-CUBE-HUAWEI/Drivers/BSP/Components/lsm6dso\lsm6dso_reg.c ****           case LSM6DSO_ODR_FSM_26Hz:
 481:D:/fchai/work/i-cube/I-CUBE-HUAWEI/Drivers/BSP/Components/lsm6dso\lsm6dso_reg.c **** 
 482:D:/fchai/work/i-cube/I-CUBE-HUAWEI/Drivers/BSP/Components/lsm6dso\lsm6dso_reg.c ****             if (val == LSM6DSO_GY_ODR_OFF){
 483:D:/fchai/work/i-cube/I-CUBE-HUAWEI/Drivers/BSP/Components/lsm6dso\lsm6dso_reg.c ****               odr_gy = LSM6DSO_GY_ODR_26Hz;
 484:D:/fchai/work/i-cube/I-CUBE-HUAWEI/Drivers/BSP/Components/lsm6dso\lsm6dso_reg.c **** 
 485:D:/fchai/work/i-cube/I-CUBE-HUAWEI/Drivers/BSP/Components/lsm6dso\lsm6dso_reg.c ****             } else if (val == LSM6DSO_GY_ODR_12Hz5){
 486:D:/fchai/work/i-cube/I-CUBE-HUAWEI/Drivers/BSP/Components/lsm6dso\lsm6dso_reg.c ****               odr_gy = LSM6DSO_GY_ODR_26Hz;
 487:D:/fchai/work/i-cube/I-CUBE-HUAWEI/Drivers/BSP/Components/lsm6dso\lsm6dso_reg.c **** 
 488:D:/fchai/work/i-cube/I-CUBE-HUAWEI/Drivers/BSP/Components/lsm6dso\lsm6dso_reg.c ****             } else {
 489:D:/fchai/work/i-cube/I-CUBE-HUAWEI/Drivers/BSP/Components/lsm6dso\lsm6dso_reg.c ****               odr_gy = val;
 490:D:/fchai/work/i-cube/I-CUBE-HUAWEI/Drivers/BSP/Components/lsm6dso\lsm6dso_reg.c ****             }
 491:D:/fchai/work/i-cube/I-CUBE-HUAWEI/Drivers/BSP/Components/lsm6dso\lsm6dso_reg.c ****             break;
 492:D:/fchai/work/i-cube/I-CUBE-HUAWEI/Drivers/BSP/Components/lsm6dso\lsm6dso_reg.c ****           case LSM6DSO_ODR_FSM_52Hz:
 493:D:/fchai/work/i-cube/I-CUBE-HUAWEI/Drivers/BSP/Components/lsm6dso\lsm6dso_reg.c **** 
 494:D:/fchai/work/i-cube/I-CUBE-HUAWEI/Drivers/BSP/Components/lsm6dso\lsm6dso_reg.c ****             if (val == LSM6DSO_GY_ODR_OFF){
 495:D:/fchai/work/i-cube/I-CUBE-HUAWEI/Drivers/BSP/Components/lsm6dso\lsm6dso_reg.c ****               odr_gy = LSM6DSO_GY_ODR_52Hz;
 496:D:/fchai/work/i-cube/I-CUBE-HUAWEI/Drivers/BSP/Components/lsm6dso\lsm6dso_reg.c **** 
 497:D:/fchai/work/i-cube/I-CUBE-HUAWEI/Drivers/BSP/Components/lsm6dso\lsm6dso_reg.c ****             } else if (val == LSM6DSO_GY_ODR_12Hz5){
 498:D:/fchai/work/i-cube/I-CUBE-HUAWEI/Drivers/BSP/Components/lsm6dso\lsm6dso_reg.c ****               odr_gy = LSM6DSO_GY_ODR_52Hz;
 499:D:/fchai/work/i-cube/I-CUBE-HUAWEI/Drivers/BSP/Components/lsm6dso\lsm6dso_reg.c **** 
 500:D:/fchai/work/i-cube/I-CUBE-HUAWEI/Drivers/BSP/Components/lsm6dso\lsm6dso_reg.c ****             } else if (val == LSM6DSO_GY_ODR_26Hz){
 501:D:/fchai/work/i-cube/I-CUBE-HUAWEI/Drivers/BSP/Components/lsm6dso\lsm6dso_reg.c ****               odr_gy = LSM6DSO_GY_ODR_52Hz;
 502:D:/fchai/work/i-cube/I-CUBE-HUAWEI/Drivers/BSP/Components/lsm6dso\lsm6dso_reg.c **** 
 503:D:/fchai/work/i-cube/I-CUBE-HUAWEI/Drivers/BSP/Components/lsm6dso\lsm6dso_reg.c ****             } else {
ARM GAS  T:\msys\tmp\ccaXiy3K.s 			page 32


 504:D:/fchai/work/i-cube/I-CUBE-HUAWEI/Drivers/BSP/Components/lsm6dso\lsm6dso_reg.c ****               odr_gy = val;
 505:D:/fchai/work/i-cube/I-CUBE-HUAWEI/Drivers/BSP/Components/lsm6dso\lsm6dso_reg.c ****             }
 506:D:/fchai/work/i-cube/I-CUBE-HUAWEI/Drivers/BSP/Components/lsm6dso\lsm6dso_reg.c ****             break;
 507:D:/fchai/work/i-cube/I-CUBE-HUAWEI/Drivers/BSP/Components/lsm6dso\lsm6dso_reg.c ****           case LSM6DSO_ODR_FSM_104Hz:
 508:D:/fchai/work/i-cube/I-CUBE-HUAWEI/Drivers/BSP/Components/lsm6dso\lsm6dso_reg.c **** 
 509:D:/fchai/work/i-cube/I-CUBE-HUAWEI/Drivers/BSP/Components/lsm6dso\lsm6dso_reg.c ****             if (val == LSM6DSO_GY_ODR_OFF){
 510:D:/fchai/work/i-cube/I-CUBE-HUAWEI/Drivers/BSP/Components/lsm6dso\lsm6dso_reg.c ****               odr_gy = LSM6DSO_GY_ODR_104Hz;
 511:D:/fchai/work/i-cube/I-CUBE-HUAWEI/Drivers/BSP/Components/lsm6dso\lsm6dso_reg.c **** 
 512:D:/fchai/work/i-cube/I-CUBE-HUAWEI/Drivers/BSP/Components/lsm6dso\lsm6dso_reg.c ****             } else if (val == LSM6DSO_GY_ODR_12Hz5){
 513:D:/fchai/work/i-cube/I-CUBE-HUAWEI/Drivers/BSP/Components/lsm6dso\lsm6dso_reg.c ****               odr_gy = LSM6DSO_GY_ODR_104Hz;
 514:D:/fchai/work/i-cube/I-CUBE-HUAWEI/Drivers/BSP/Components/lsm6dso\lsm6dso_reg.c **** 
 515:D:/fchai/work/i-cube/I-CUBE-HUAWEI/Drivers/BSP/Components/lsm6dso\lsm6dso_reg.c ****             } else if (val == LSM6DSO_GY_ODR_26Hz){
 516:D:/fchai/work/i-cube/I-CUBE-HUAWEI/Drivers/BSP/Components/lsm6dso\lsm6dso_reg.c ****               odr_gy = LSM6DSO_GY_ODR_104Hz;
 517:D:/fchai/work/i-cube/I-CUBE-HUAWEI/Drivers/BSP/Components/lsm6dso\lsm6dso_reg.c **** 
 518:D:/fchai/work/i-cube/I-CUBE-HUAWEI/Drivers/BSP/Components/lsm6dso\lsm6dso_reg.c ****             } else if (val == LSM6DSO_GY_ODR_52Hz){
 519:D:/fchai/work/i-cube/I-CUBE-HUAWEI/Drivers/BSP/Components/lsm6dso\lsm6dso_reg.c ****               odr_gy = LSM6DSO_GY_ODR_104Hz;
 520:D:/fchai/work/i-cube/I-CUBE-HUAWEI/Drivers/BSP/Components/lsm6dso\lsm6dso_reg.c **** 
 521:D:/fchai/work/i-cube/I-CUBE-HUAWEI/Drivers/BSP/Components/lsm6dso\lsm6dso_reg.c ****             } else {
 522:D:/fchai/work/i-cube/I-CUBE-HUAWEI/Drivers/BSP/Components/lsm6dso\lsm6dso_reg.c ****               odr_gy = val;
 523:D:/fchai/work/i-cube/I-CUBE-HUAWEI/Drivers/BSP/Components/lsm6dso\lsm6dso_reg.c ****             }
 524:D:/fchai/work/i-cube/I-CUBE-HUAWEI/Drivers/BSP/Components/lsm6dso\lsm6dso_reg.c ****             break;
 525:D:/fchai/work/i-cube/I-CUBE-HUAWEI/Drivers/BSP/Components/lsm6dso\lsm6dso_reg.c ****           default:
 526:D:/fchai/work/i-cube/I-CUBE-HUAWEI/Drivers/BSP/Components/lsm6dso\lsm6dso_reg.c ****             odr_gy = val;
 527:D:/fchai/work/i-cube/I-CUBE-HUAWEI/Drivers/BSP/Components/lsm6dso\lsm6dso_reg.c ****             break;
 528:D:/fchai/work/i-cube/I-CUBE-HUAWEI/Drivers/BSP/Components/lsm6dso\lsm6dso_reg.c ****         }
 529:D:/fchai/work/i-cube/I-CUBE-HUAWEI/Drivers/BSP/Components/lsm6dso\lsm6dso_reg.c ****       }
 530:D:/fchai/work/i-cube/I-CUBE-HUAWEI/Drivers/BSP/Components/lsm6dso\lsm6dso_reg.c ****     }
 531:D:/fchai/work/i-cube/I-CUBE-HUAWEI/Drivers/BSP/Components/lsm6dso\lsm6dso_reg.c ****   }
 532:D:/fchai/work/i-cube/I-CUBE-HUAWEI/Drivers/BSP/Components/lsm6dso\lsm6dso_reg.c **** 
 533:D:/fchai/work/i-cube/I-CUBE-HUAWEI/Drivers/BSP/Components/lsm6dso\lsm6dso_reg.c ****   if (ret == 0) {
 534:D:/fchai/work/i-cube/I-CUBE-HUAWEI/Drivers/BSP/Components/lsm6dso\lsm6dso_reg.c ****     ret = lsm6dso_read_reg(ctx, LSM6DSO_CTRL2_G, (uint8_t*)&reg, 1);
 535:D:/fchai/work/i-cube/I-CUBE-HUAWEI/Drivers/BSP/Components/lsm6dso\lsm6dso_reg.c ****   }
 536:D:/fchai/work/i-cube/I-CUBE-HUAWEI/Drivers/BSP/Components/lsm6dso\lsm6dso_reg.c ****   if (ret == 0) {
 537:D:/fchai/work/i-cube/I-CUBE-HUAWEI/Drivers/BSP/Components/lsm6dso\lsm6dso_reg.c ****     reg.odr_g = (uint8_t) odr_gy;
 538:D:/fchai/work/i-cube/I-CUBE-HUAWEI/Drivers/BSP/Components/lsm6dso\lsm6dso_reg.c ****     ret = lsm6dso_write_reg(ctx, LSM6DSO_CTRL2_G, (uint8_t*)&reg, 1);
 539:D:/fchai/work/i-cube/I-CUBE-HUAWEI/Drivers/BSP/Components/lsm6dso\lsm6dso_reg.c ****   }
 540:D:/fchai/work/i-cube/I-CUBE-HUAWEI/Drivers/BSP/Components/lsm6dso\lsm6dso_reg.c **** 
 541:D:/fchai/work/i-cube/I-CUBE-HUAWEI/Drivers/BSP/Components/lsm6dso\lsm6dso_reg.c ****   return ret;
 542:D:/fchai/work/i-cube/I-CUBE-HUAWEI/Drivers/BSP/Components/lsm6dso\lsm6dso_reg.c **** }
 543:D:/fchai/work/i-cube/I-CUBE-HUAWEI/Drivers/BSP/Components/lsm6dso\lsm6dso_reg.c **** 
 544:D:/fchai/work/i-cube/I-CUBE-HUAWEI/Drivers/BSP/Components/lsm6dso\lsm6dso_reg.c **** /**
 545:D:/fchai/work/i-cube/I-CUBE-HUAWEI/Drivers/BSP/Components/lsm6dso\lsm6dso_reg.c ****   * @brief  Gyroscope UI data rate selection.[get]
 546:D:/fchai/work/i-cube/I-CUBE-HUAWEI/Drivers/BSP/Components/lsm6dso\lsm6dso_reg.c ****   *
 547:D:/fchai/work/i-cube/I-CUBE-HUAWEI/Drivers/BSP/Components/lsm6dso\lsm6dso_reg.c ****   * @param  ctx      read / write interface definitions
 548:D:/fchai/work/i-cube/I-CUBE-HUAWEI/Drivers/BSP/Components/lsm6dso\lsm6dso_reg.c ****   * @param  val      Get the values of odr_g in reg CTRL2_G
 549:D:/fchai/work/i-cube/I-CUBE-HUAWEI/Drivers/BSP/Components/lsm6dso\lsm6dso_reg.c ****   *
 550:D:/fchai/work/i-cube/I-CUBE-HUAWEI/Drivers/BSP/Components/lsm6dso\lsm6dso_reg.c ****   */
 551:D:/fchai/work/i-cube/I-CUBE-HUAWEI/Drivers/BSP/Components/lsm6dso\lsm6dso_reg.c **** int32_t lsm6dso_gy_data_rate_get(stmdev_ctx_t *ctx, lsm6dso_odr_g_t *val)
 552:D:/fchai/work/i-cube/I-CUBE-HUAWEI/Drivers/BSP/Components/lsm6dso\lsm6dso_reg.c **** {
 1163              		.loc 1 552 1 is_stmt 1 view -0
 1164              		.cfi_startproc
 1165              		@ args = 0, pretend = 0, frame = 8
 1166              		@ frame_needed = 0, uses_anonymous_args = 0
 553:D:/fchai/work/i-cube/I-CUBE-HUAWEI/Drivers/BSP/Components/lsm6dso\lsm6dso_reg.c ****   lsm6dso_ctrl2_g_t reg;
 1167              		.loc 1 553 3 view .LVU274
 554:D:/fchai/work/i-cube/I-CUBE-HUAWEI/Drivers/BSP/Components/lsm6dso\lsm6dso_reg.c ****   int32_t ret;
 1168              		.loc 1 554 3 view .LVU275
ARM GAS  T:\msys\tmp\ccaXiy3K.s 			page 33


 555:D:/fchai/work/i-cube/I-CUBE-HUAWEI/Drivers/BSP/Components/lsm6dso\lsm6dso_reg.c **** 
 556:D:/fchai/work/i-cube/I-CUBE-HUAWEI/Drivers/BSP/Components/lsm6dso\lsm6dso_reg.c ****   ret = lsm6dso_read_reg(ctx, LSM6DSO_CTRL2_G, (uint8_t*)&reg, 1);
 1169              		.loc 1 556 3 view .LVU276
 552:D:/fchai/work/i-cube/I-CUBE-HUAWEI/Drivers/BSP/Components/lsm6dso\lsm6dso_reg.c ****   lsm6dso_ctrl2_g_t reg;
 1170              		.loc 1 552 1 is_stmt 0 view .LVU277
 1171 0000 30B5     		push	{r4, r5, lr}
 1172              	.LCFI30:
 1173              		.cfi_def_cfa_offset 12
 1174              		.cfi_offset 4, -12
 1175              		.cfi_offset 5, -8
 1176              		.cfi_offset 14, -4
 1177 0002 83B0     		sub	sp, sp, #12
 1178              	.LCFI31:
 1179              		.cfi_def_cfa_offset 24
 1180              	.LVL65:
 1181              	.LBB1034:
 1182              	.LBI1034:
  49:D:/fchai/work/i-cube/I-CUBE-HUAWEI/Drivers/BSP/Components/lsm6dso\lsm6dso_reg.c ****                          uint16_t len)
 1183              		.loc 1 49 9 is_stmt 1 view .LVU278
 1184              	.LBB1035:
  52:D:/fchai/work/i-cube/I-CUBE-HUAWEI/Drivers/BSP/Components/lsm6dso\lsm6dso_reg.c ****   ret = ctx->read_reg(ctx->handle, reg, data, len);
 1185              		.loc 1 52 3 view .LVU279
  53:D:/fchai/work/i-cube/I-CUBE-HUAWEI/Drivers/BSP/Components/lsm6dso\lsm6dso_reg.c ****   return ret;
 1186              		.loc 1 53 3 view .LVU280
  53:D:/fchai/work/i-cube/I-CUBE-HUAWEI/Drivers/BSP/Components/lsm6dso\lsm6dso_reg.c ****   return ret;
 1187              		.loc 1 53 9 is_stmt 0 view .LVU281
 1188 0004 0123     		movs	r3, #1
 1189 0006 D0E90140 		ldrd	r4, r0, [r0, #4]
 1190              	.LVL66:
  53:D:/fchai/work/i-cube/I-CUBE-HUAWEI/Drivers/BSP/Components/lsm6dso\lsm6dso_reg.c ****   return ret;
 1191              		.loc 1 53 9 view .LVU282
 1192              	.LBE1035:
 1193              	.LBE1034:
 552:D:/fchai/work/i-cube/I-CUBE-HUAWEI/Drivers/BSP/Components/lsm6dso\lsm6dso_reg.c ****   lsm6dso_ctrl2_g_t reg;
 1194              		.loc 1 552 1 view .LVU283
 1195 000a 0D46     		mov	r5, r1
 1196              	.LBB1038:
 1197              	.LBB1036:
  53:D:/fchai/work/i-cube/I-CUBE-HUAWEI/Drivers/BSP/Components/lsm6dso\lsm6dso_reg.c ****   return ret;
 1198              		.loc 1 53 9 view .LVU284
 1199 000c 01AA     		add	r2, sp, #4
 1200              	.LVL67:
  53:D:/fchai/work/i-cube/I-CUBE-HUAWEI/Drivers/BSP/Components/lsm6dso\lsm6dso_reg.c ****   return ret;
 1201              		.loc 1 53 9 view .LVU285
 1202 000e 1121     		movs	r1, #17
 1203              	.LVL68:
  53:D:/fchai/work/i-cube/I-CUBE-HUAWEI/Drivers/BSP/Components/lsm6dso\lsm6dso_reg.c ****   return ret;
 1204              		.loc 1 53 9 view .LVU286
 1205 0010 A047     		blx	r4
 1206              	.LVL69:
  53:D:/fchai/work/i-cube/I-CUBE-HUAWEI/Drivers/BSP/Components/lsm6dso\lsm6dso_reg.c ****   return ret;
 1207              		.loc 1 53 9 view .LVU287
 1208              	.LBE1036:
 1209              	.LBE1038:
 557:D:/fchai/work/i-cube/I-CUBE-HUAWEI/Drivers/BSP/Components/lsm6dso\lsm6dso_reg.c ****   switch (reg.odr_g) {
 1210              		.loc 1 557 14 view .LVU288
 1211 0012 9DF80430 		ldrb	r3, [sp, #4]	@ zero_extendqisi2
ARM GAS  T:\msys\tmp\ccaXiy3K.s 			page 34


 1212 0016 1B09     		lsrs	r3, r3, #4
 1213              	.LVL70:
 1214              	.LBB1039:
 1215              	.LBB1037:
  54:D:/fchai/work/i-cube/I-CUBE-HUAWEI/Drivers/BSP/Components/lsm6dso\lsm6dso_reg.c **** }
 1216              		.loc 1 54 3 is_stmt 1 view .LVU289
  54:D:/fchai/work/i-cube/I-CUBE-HUAWEI/Drivers/BSP/Components/lsm6dso\lsm6dso_reg.c **** }
 1217              		.loc 1 54 3 is_stmt 0 view .LVU290
 1218              	.LBE1037:
 1219              	.LBE1039:
 1220              		.loc 1 557 3 is_stmt 1 view .LVU291
 1221 0018 0A2B     		cmp	r3, #10
 1222 001a 0BD8     		bhi	.L78
 1223 001c DFE803F0 		tbb	[pc, r3]
 1224              	.L80:
 1225 0020 0A       		.byte	(.L78-.L80)/2
 1226 0021 10       		.byte	(.L89-.L80)/2
 1227 0022 13       		.byte	(.L88-.L80)/2
 1228 0023 16       		.byte	(.L87-.L80)/2
 1229 0024 19       		.byte	(.L86-.L80)/2
 1230 0025 1C       		.byte	(.L85-.L80)/2
 1231 0026 1F       		.byte	(.L84-.L80)/2
 1232 0027 22       		.byte	(.L83-.L80)/2
 1233 0028 25       		.byte	(.L82-.L80)/2
 1234 0029 06       		.byte	(.L81-.L80)/2
 1235 002a 0D       		.byte	(.L79-.L80)/2
 1236 002b 00       		.p2align 1
 1237              	.L81:
 558:D:/fchai/work/i-cube/I-CUBE-HUAWEI/Drivers/BSP/Components/lsm6dso\lsm6dso_reg.c ****     case LSM6DSO_GY_ODR_OFF:
 559:D:/fchai/work/i-cube/I-CUBE-HUAWEI/Drivers/BSP/Components/lsm6dso\lsm6dso_reg.c ****       *val = LSM6DSO_GY_ODR_OFF;
 560:D:/fchai/work/i-cube/I-CUBE-HUAWEI/Drivers/BSP/Components/lsm6dso\lsm6dso_reg.c ****       break;
 561:D:/fchai/work/i-cube/I-CUBE-HUAWEI/Drivers/BSP/Components/lsm6dso\lsm6dso_reg.c ****     case LSM6DSO_GY_ODR_12Hz5:
 562:D:/fchai/work/i-cube/I-CUBE-HUAWEI/Drivers/BSP/Components/lsm6dso\lsm6dso_reg.c ****       *val = LSM6DSO_GY_ODR_12Hz5;
 563:D:/fchai/work/i-cube/I-CUBE-HUAWEI/Drivers/BSP/Components/lsm6dso\lsm6dso_reg.c ****       break;
 564:D:/fchai/work/i-cube/I-CUBE-HUAWEI/Drivers/BSP/Components/lsm6dso\lsm6dso_reg.c ****     case LSM6DSO_GY_ODR_26Hz:
 565:D:/fchai/work/i-cube/I-CUBE-HUAWEI/Drivers/BSP/Components/lsm6dso\lsm6dso_reg.c ****       *val = LSM6DSO_GY_ODR_26Hz;
 566:D:/fchai/work/i-cube/I-CUBE-HUAWEI/Drivers/BSP/Components/lsm6dso\lsm6dso_reg.c ****       break;
 567:D:/fchai/work/i-cube/I-CUBE-HUAWEI/Drivers/BSP/Components/lsm6dso\lsm6dso_reg.c ****     case LSM6DSO_GY_ODR_52Hz:
 568:D:/fchai/work/i-cube/I-CUBE-HUAWEI/Drivers/BSP/Components/lsm6dso\lsm6dso_reg.c ****       *val = LSM6DSO_GY_ODR_52Hz;
 569:D:/fchai/work/i-cube/I-CUBE-HUAWEI/Drivers/BSP/Components/lsm6dso\lsm6dso_reg.c ****       break;
 570:D:/fchai/work/i-cube/I-CUBE-HUAWEI/Drivers/BSP/Components/lsm6dso\lsm6dso_reg.c ****     case LSM6DSO_GY_ODR_104Hz:
 571:D:/fchai/work/i-cube/I-CUBE-HUAWEI/Drivers/BSP/Components/lsm6dso\lsm6dso_reg.c ****       *val = LSM6DSO_GY_ODR_104Hz;
 572:D:/fchai/work/i-cube/I-CUBE-HUAWEI/Drivers/BSP/Components/lsm6dso\lsm6dso_reg.c ****       break;
 573:D:/fchai/work/i-cube/I-CUBE-HUAWEI/Drivers/BSP/Components/lsm6dso\lsm6dso_reg.c ****     case LSM6DSO_GY_ODR_208Hz:
 574:D:/fchai/work/i-cube/I-CUBE-HUAWEI/Drivers/BSP/Components/lsm6dso\lsm6dso_reg.c ****       *val = LSM6DSO_GY_ODR_208Hz;
 575:D:/fchai/work/i-cube/I-CUBE-HUAWEI/Drivers/BSP/Components/lsm6dso\lsm6dso_reg.c ****       break;
 576:D:/fchai/work/i-cube/I-CUBE-HUAWEI/Drivers/BSP/Components/lsm6dso\lsm6dso_reg.c ****     case LSM6DSO_GY_ODR_417Hz:
 577:D:/fchai/work/i-cube/I-CUBE-HUAWEI/Drivers/BSP/Components/lsm6dso\lsm6dso_reg.c ****       *val = LSM6DSO_GY_ODR_417Hz;
 578:D:/fchai/work/i-cube/I-CUBE-HUAWEI/Drivers/BSP/Components/lsm6dso\lsm6dso_reg.c ****       break;
 579:D:/fchai/work/i-cube/I-CUBE-HUAWEI/Drivers/BSP/Components/lsm6dso\lsm6dso_reg.c ****     case LSM6DSO_GY_ODR_833Hz:
 580:D:/fchai/work/i-cube/I-CUBE-HUAWEI/Drivers/BSP/Components/lsm6dso\lsm6dso_reg.c ****       *val = LSM6DSO_GY_ODR_833Hz;
 581:D:/fchai/work/i-cube/I-CUBE-HUAWEI/Drivers/BSP/Components/lsm6dso\lsm6dso_reg.c ****       break;
 582:D:/fchai/work/i-cube/I-CUBE-HUAWEI/Drivers/BSP/Components/lsm6dso\lsm6dso_reg.c ****     case LSM6DSO_GY_ODR_1667Hz:
 583:D:/fchai/work/i-cube/I-CUBE-HUAWEI/Drivers/BSP/Components/lsm6dso\lsm6dso_reg.c ****       *val = LSM6DSO_GY_ODR_1667Hz;
 584:D:/fchai/work/i-cube/I-CUBE-HUAWEI/Drivers/BSP/Components/lsm6dso\lsm6dso_reg.c ****       break;
 585:D:/fchai/work/i-cube/I-CUBE-HUAWEI/Drivers/BSP/Components/lsm6dso\lsm6dso_reg.c ****     case LSM6DSO_GY_ODR_3333Hz:
 586:D:/fchai/work/i-cube/I-CUBE-HUAWEI/Drivers/BSP/Components/lsm6dso\lsm6dso_reg.c ****       *val = LSM6DSO_GY_ODR_3333Hz;
ARM GAS  T:\msys\tmp\ccaXiy3K.s 			page 35


 1238              		.loc 1 586 7 view .LVU292
 1239              		.loc 1 586 12 is_stmt 0 view .LVU293
 1240 002c 0923     		movs	r3, #9
 1241 002e 2B70     		strb	r3, [r5]
 587:D:/fchai/work/i-cube/I-CUBE-HUAWEI/Drivers/BSP/Components/lsm6dso\lsm6dso_reg.c ****       break;
 1242              		.loc 1 587 7 is_stmt 1 view .LVU294
 1243              	.L77:
 588:D:/fchai/work/i-cube/I-CUBE-HUAWEI/Drivers/BSP/Components/lsm6dso\lsm6dso_reg.c ****     case LSM6DSO_GY_ODR_6667Hz:
 589:D:/fchai/work/i-cube/I-CUBE-HUAWEI/Drivers/BSP/Components/lsm6dso\lsm6dso_reg.c ****       *val = LSM6DSO_GY_ODR_6667Hz;
 590:D:/fchai/work/i-cube/I-CUBE-HUAWEI/Drivers/BSP/Components/lsm6dso\lsm6dso_reg.c ****       break;
 591:D:/fchai/work/i-cube/I-CUBE-HUAWEI/Drivers/BSP/Components/lsm6dso\lsm6dso_reg.c ****     default:
 592:D:/fchai/work/i-cube/I-CUBE-HUAWEI/Drivers/BSP/Components/lsm6dso\lsm6dso_reg.c ****       *val = LSM6DSO_GY_ODR_OFF;
 593:D:/fchai/work/i-cube/I-CUBE-HUAWEI/Drivers/BSP/Components/lsm6dso\lsm6dso_reg.c ****       break;
 594:D:/fchai/work/i-cube/I-CUBE-HUAWEI/Drivers/BSP/Components/lsm6dso\lsm6dso_reg.c ****   }
 595:D:/fchai/work/i-cube/I-CUBE-HUAWEI/Drivers/BSP/Components/lsm6dso\lsm6dso_reg.c ****   return ret;
 596:D:/fchai/work/i-cube/I-CUBE-HUAWEI/Drivers/BSP/Components/lsm6dso\lsm6dso_reg.c **** }
 1244              		.loc 1 596 1 is_stmt 0 view .LVU295
 1245 0030 03B0     		add	sp, sp, #12
 1246              	.LCFI32:
 1247              		.cfi_remember_state
 1248              		.cfi_def_cfa_offset 12
 1249              		@ sp needed
 1250 0032 30BD     		pop	{r4, r5, pc}
 1251              	.LVL71:
 1252              	.L78:
 1253              	.LCFI33:
 1254              		.cfi_restore_state
 592:D:/fchai/work/i-cube/I-CUBE-HUAWEI/Drivers/BSP/Components/lsm6dso\lsm6dso_reg.c ****       break;
 1255              		.loc 1 592 7 is_stmt 1 view .LVU296
 592:D:/fchai/work/i-cube/I-CUBE-HUAWEI/Drivers/BSP/Components/lsm6dso\lsm6dso_reg.c ****       break;
 1256              		.loc 1 592 12 is_stmt 0 view .LVU297
 1257 0034 0023     		movs	r3, #0
 1258 0036 2B70     		strb	r3, [r5]
 593:D:/fchai/work/i-cube/I-CUBE-HUAWEI/Drivers/BSP/Components/lsm6dso\lsm6dso_reg.c ****   }
 1259              		.loc 1 593 7 is_stmt 1 view .LVU298
 595:D:/fchai/work/i-cube/I-CUBE-HUAWEI/Drivers/BSP/Components/lsm6dso\lsm6dso_reg.c **** }
 1260              		.loc 1 595 3 view .LVU299
 595:D:/fchai/work/i-cube/I-CUBE-HUAWEI/Drivers/BSP/Components/lsm6dso\lsm6dso_reg.c **** }
 1261              		.loc 1 595 10 is_stmt 0 view .LVU300
 1262 0038 FAE7     		b	.L77
 1263              	.L79:
 589:D:/fchai/work/i-cube/I-CUBE-HUAWEI/Drivers/BSP/Components/lsm6dso\lsm6dso_reg.c ****       break;
 1264              		.loc 1 589 7 is_stmt 1 view .LVU301
 589:D:/fchai/work/i-cube/I-CUBE-HUAWEI/Drivers/BSP/Components/lsm6dso\lsm6dso_reg.c ****       break;
 1265              		.loc 1 589 12 is_stmt 0 view .LVU302
 1266 003a 0A23     		movs	r3, #10
 1267 003c 2B70     		strb	r3, [r5]
 590:D:/fchai/work/i-cube/I-CUBE-HUAWEI/Drivers/BSP/Components/lsm6dso\lsm6dso_reg.c ****     default:
 1268              		.loc 1 590 7 is_stmt 1 view .LVU303
 1269 003e F7E7     		b	.L77
 1270              	.L89:
 562:D:/fchai/work/i-cube/I-CUBE-HUAWEI/Drivers/BSP/Components/lsm6dso\lsm6dso_reg.c ****       break;
 1271              		.loc 1 562 7 view .LVU304
 562:D:/fchai/work/i-cube/I-CUBE-HUAWEI/Drivers/BSP/Components/lsm6dso\lsm6dso_reg.c ****       break;
 1272              		.loc 1 562 12 is_stmt 0 view .LVU305
 1273 0040 0123     		movs	r3, #1
 1274 0042 2B70     		strb	r3, [r5]
ARM GAS  T:\msys\tmp\ccaXiy3K.s 			page 36


 563:D:/fchai/work/i-cube/I-CUBE-HUAWEI/Drivers/BSP/Components/lsm6dso\lsm6dso_reg.c ****     case LSM6DSO_GY_ODR_26Hz:
 1275              		.loc 1 563 7 is_stmt 1 view .LVU306
 1276 0044 F4E7     		b	.L77
 1277              	.L88:
 565:D:/fchai/work/i-cube/I-CUBE-HUAWEI/Drivers/BSP/Components/lsm6dso\lsm6dso_reg.c ****       break;
 1278              		.loc 1 565 7 view .LVU307
 565:D:/fchai/work/i-cube/I-CUBE-HUAWEI/Drivers/BSP/Components/lsm6dso\lsm6dso_reg.c ****       break;
 1279              		.loc 1 565 12 is_stmt 0 view .LVU308
 1280 0046 0223     		movs	r3, #2
 1281 0048 2B70     		strb	r3, [r5]
 566:D:/fchai/work/i-cube/I-CUBE-HUAWEI/Drivers/BSP/Components/lsm6dso\lsm6dso_reg.c ****     case LSM6DSO_GY_ODR_52Hz:
 1282              		.loc 1 566 7 is_stmt 1 view .LVU309
 1283 004a F1E7     		b	.L77
 1284              	.L87:
 568:D:/fchai/work/i-cube/I-CUBE-HUAWEI/Drivers/BSP/Components/lsm6dso\lsm6dso_reg.c ****       break;
 1285              		.loc 1 568 7 view .LVU310
 568:D:/fchai/work/i-cube/I-CUBE-HUAWEI/Drivers/BSP/Components/lsm6dso\lsm6dso_reg.c ****       break;
 1286              		.loc 1 568 12 is_stmt 0 view .LVU311
 1287 004c 0323     		movs	r3, #3
 1288 004e 2B70     		strb	r3, [r5]
 569:D:/fchai/work/i-cube/I-CUBE-HUAWEI/Drivers/BSP/Components/lsm6dso\lsm6dso_reg.c ****     case LSM6DSO_GY_ODR_104Hz:
 1289              		.loc 1 569 7 is_stmt 1 view .LVU312
 1290 0050 EEE7     		b	.L77
 1291              	.L86:
 571:D:/fchai/work/i-cube/I-CUBE-HUAWEI/Drivers/BSP/Components/lsm6dso\lsm6dso_reg.c ****       break;
 1292              		.loc 1 571 7 view .LVU313
 571:D:/fchai/work/i-cube/I-CUBE-HUAWEI/Drivers/BSP/Components/lsm6dso\lsm6dso_reg.c ****       break;
 1293              		.loc 1 571 12 is_stmt 0 view .LVU314
 1294 0052 0423     		movs	r3, #4
 1295 0054 2B70     		strb	r3, [r5]
 572:D:/fchai/work/i-cube/I-CUBE-HUAWEI/Drivers/BSP/Components/lsm6dso\lsm6dso_reg.c ****     case LSM6DSO_GY_ODR_208Hz:
 1296              		.loc 1 572 7 is_stmt 1 view .LVU315
 1297 0056 EBE7     		b	.L77
 1298              	.L85:
 574:D:/fchai/work/i-cube/I-CUBE-HUAWEI/Drivers/BSP/Components/lsm6dso\lsm6dso_reg.c ****       break;
 1299              		.loc 1 574 7 view .LVU316
 574:D:/fchai/work/i-cube/I-CUBE-HUAWEI/Drivers/BSP/Components/lsm6dso\lsm6dso_reg.c ****       break;
 1300              		.loc 1 574 12 is_stmt 0 view .LVU317
 1301 0058 0523     		movs	r3, #5
 1302 005a 2B70     		strb	r3, [r5]
 575:D:/fchai/work/i-cube/I-CUBE-HUAWEI/Drivers/BSP/Components/lsm6dso\lsm6dso_reg.c ****     case LSM6DSO_GY_ODR_417Hz:
 1303              		.loc 1 575 7 is_stmt 1 view .LVU318
 1304 005c E8E7     		b	.L77
 1305              	.L84:
 577:D:/fchai/work/i-cube/I-CUBE-HUAWEI/Drivers/BSP/Components/lsm6dso\lsm6dso_reg.c ****       break;
 1306              		.loc 1 577 7 view .LVU319
 577:D:/fchai/work/i-cube/I-CUBE-HUAWEI/Drivers/BSP/Components/lsm6dso\lsm6dso_reg.c ****       break;
 1307              		.loc 1 577 12 is_stmt 0 view .LVU320
 1308 005e 0623     		movs	r3, #6
 1309 0060 2B70     		strb	r3, [r5]
 578:D:/fchai/work/i-cube/I-CUBE-HUAWEI/Drivers/BSP/Components/lsm6dso\lsm6dso_reg.c ****     case LSM6DSO_GY_ODR_833Hz:
 1310              		.loc 1 578 7 is_stmt 1 view .LVU321
 1311 0062 E5E7     		b	.L77
 1312              	.L83:
 580:D:/fchai/work/i-cube/I-CUBE-HUAWEI/Drivers/BSP/Components/lsm6dso\lsm6dso_reg.c ****       break;
 1313              		.loc 1 580 7 view .LVU322
 580:D:/fchai/work/i-cube/I-CUBE-HUAWEI/Drivers/BSP/Components/lsm6dso\lsm6dso_reg.c ****       break;
ARM GAS  T:\msys\tmp\ccaXiy3K.s 			page 37


 1314              		.loc 1 580 12 is_stmt 0 view .LVU323
 1315 0064 0723     		movs	r3, #7
 1316 0066 2B70     		strb	r3, [r5]
 581:D:/fchai/work/i-cube/I-CUBE-HUAWEI/Drivers/BSP/Components/lsm6dso\lsm6dso_reg.c ****     case LSM6DSO_GY_ODR_1667Hz:
 1317              		.loc 1 581 7 is_stmt 1 view .LVU324
 1318 0068 E2E7     		b	.L77
 1319              	.L82:
 583:D:/fchai/work/i-cube/I-CUBE-HUAWEI/Drivers/BSP/Components/lsm6dso\lsm6dso_reg.c ****       break;
 1320              		.loc 1 583 7 view .LVU325
 583:D:/fchai/work/i-cube/I-CUBE-HUAWEI/Drivers/BSP/Components/lsm6dso\lsm6dso_reg.c ****       break;
 1321              		.loc 1 583 12 is_stmt 0 view .LVU326
 1322 006a 0823     		movs	r3, #8
 1323 006c 2B70     		strb	r3, [r5]
 584:D:/fchai/work/i-cube/I-CUBE-HUAWEI/Drivers/BSP/Components/lsm6dso\lsm6dso_reg.c ****     case LSM6DSO_GY_ODR_3333Hz:
 1324              		.loc 1 584 7 is_stmt 1 view .LVU327
 1325 006e DFE7     		b	.L77
 1326              		.cfi_endproc
 1327              	.LFE20:
 1329              		.section	.text.lsm6dso_block_data_update_set,"ax",%progbits
 1330              		.align	1
 1331              		.p2align 2,,3
 1332              		.global	lsm6dso_block_data_update_set
 1333              		.syntax unified
 1334              		.thumb
 1335              		.thumb_func
 1336              		.fpu fpv4-sp-d16
 1338              	lsm6dso_block_data_update_set:
 1339              	.LVL72:
 1340              	.LFB21:
 597:D:/fchai/work/i-cube/I-CUBE-HUAWEI/Drivers/BSP/Components/lsm6dso\lsm6dso_reg.c **** 
 598:D:/fchai/work/i-cube/I-CUBE-HUAWEI/Drivers/BSP/Components/lsm6dso\lsm6dso_reg.c **** /**
 599:D:/fchai/work/i-cube/I-CUBE-HUAWEI/Drivers/BSP/Components/lsm6dso\lsm6dso_reg.c ****   * @brief  Block data update.[set]
 600:D:/fchai/work/i-cube/I-CUBE-HUAWEI/Drivers/BSP/Components/lsm6dso\lsm6dso_reg.c ****   *
 601:D:/fchai/work/i-cube/I-CUBE-HUAWEI/Drivers/BSP/Components/lsm6dso\lsm6dso_reg.c ****   * @param  ctx      read / write interface definitions
 602:D:/fchai/work/i-cube/I-CUBE-HUAWEI/Drivers/BSP/Components/lsm6dso\lsm6dso_reg.c ****   * @param  val      change the values of bdu in reg CTRL3_C
 603:D:/fchai/work/i-cube/I-CUBE-HUAWEI/Drivers/BSP/Components/lsm6dso\lsm6dso_reg.c ****   *
 604:D:/fchai/work/i-cube/I-CUBE-HUAWEI/Drivers/BSP/Components/lsm6dso\lsm6dso_reg.c ****   */
 605:D:/fchai/work/i-cube/I-CUBE-HUAWEI/Drivers/BSP/Components/lsm6dso\lsm6dso_reg.c **** int32_t lsm6dso_block_data_update_set(stmdev_ctx_t *ctx, uint8_t val)
 606:D:/fchai/work/i-cube/I-CUBE-HUAWEI/Drivers/BSP/Components/lsm6dso\lsm6dso_reg.c **** {
 1341              		.loc 1 606 1 view -0
 1342              		.cfi_startproc
 1343              		@ args = 0, pretend = 0, frame = 8
 1344              		@ frame_needed = 0, uses_anonymous_args = 0
 607:D:/fchai/work/i-cube/I-CUBE-HUAWEI/Drivers/BSP/Components/lsm6dso\lsm6dso_reg.c ****   lsm6dso_ctrl3_c_t reg;
 1345              		.loc 1 607 3 view .LVU329
 608:D:/fchai/work/i-cube/I-CUBE-HUAWEI/Drivers/BSP/Components/lsm6dso\lsm6dso_reg.c ****   int32_t ret;
 1346              		.loc 1 608 3 view .LVU330
 609:D:/fchai/work/i-cube/I-CUBE-HUAWEI/Drivers/BSP/Components/lsm6dso\lsm6dso_reg.c **** 
 610:D:/fchai/work/i-cube/I-CUBE-HUAWEI/Drivers/BSP/Components/lsm6dso\lsm6dso_reg.c ****   ret = lsm6dso_read_reg(ctx, LSM6DSO_CTRL3_C, (uint8_t*)&reg, 1);
 1347              		.loc 1 610 3 view .LVU331
 606:D:/fchai/work/i-cube/I-CUBE-HUAWEI/Drivers/BSP/Components/lsm6dso\lsm6dso_reg.c ****   lsm6dso_ctrl3_c_t reg;
 1348              		.loc 1 606 1 is_stmt 0 view .LVU332
 1349 0000 70B5     		push	{r4, r5, r6, lr}
 1350              	.LCFI34:
 1351              		.cfi_def_cfa_offset 16
 1352              		.cfi_offset 4, -16
 1353              		.cfi_offset 5, -12
ARM GAS  T:\msys\tmp\ccaXiy3K.s 			page 38


 1354              		.cfi_offset 6, -8
 1355              		.cfi_offset 14, -4
 1356 0002 82B0     		sub	sp, sp, #8
 1357              	.LCFI35:
 1358              		.cfi_def_cfa_offset 24
 606:D:/fchai/work/i-cube/I-CUBE-HUAWEI/Drivers/BSP/Components/lsm6dso\lsm6dso_reg.c ****   lsm6dso_ctrl3_c_t reg;
 1359              		.loc 1 606 1 view .LVU333
 1360 0004 0446     		mov	r4, r0
 1361              	.LVL73:
 1362              	.LBB1040:
 1363              	.LBI1040:
  49:D:/fchai/work/i-cube/I-CUBE-HUAWEI/Drivers/BSP/Components/lsm6dso\lsm6dso_reg.c ****                          uint16_t len)
 1364              		.loc 1 49 9 is_stmt 1 view .LVU334
 1365              	.LBB1041:
  52:D:/fchai/work/i-cube/I-CUBE-HUAWEI/Drivers/BSP/Components/lsm6dso\lsm6dso_reg.c ****   ret = ctx->read_reg(ctx->handle, reg, data, len);
 1366              		.loc 1 52 3 view .LVU335
  53:D:/fchai/work/i-cube/I-CUBE-HUAWEI/Drivers/BSP/Components/lsm6dso\lsm6dso_reg.c ****   return ret;
 1367              		.loc 1 53 3 view .LVU336
 1368              	.LBE1041:
 1369              	.LBE1040:
 606:D:/fchai/work/i-cube/I-CUBE-HUAWEI/Drivers/BSP/Components/lsm6dso\lsm6dso_reg.c ****   lsm6dso_ctrl3_c_t reg;
 1370              		.loc 1 606 1 is_stmt 0 view .LVU337
 1371 0006 0D46     		mov	r5, r1
 1372              	.LBB1043:
 1373              	.LBB1042:
  53:D:/fchai/work/i-cube/I-CUBE-HUAWEI/Drivers/BSP/Components/lsm6dso\lsm6dso_reg.c ****   return ret;
 1374              		.loc 1 53 9 view .LVU338
 1375 0008 D0E90160 		ldrd	r6, r0, [r0, #4]
 1376              	.LVL74:
  53:D:/fchai/work/i-cube/I-CUBE-HUAWEI/Drivers/BSP/Components/lsm6dso\lsm6dso_reg.c ****   return ret;
 1377              		.loc 1 53 9 view .LVU339
 1378 000c 01AA     		add	r2, sp, #4
 1379              	.LVL75:
  53:D:/fchai/work/i-cube/I-CUBE-HUAWEI/Drivers/BSP/Components/lsm6dso\lsm6dso_reg.c ****   return ret;
 1380              		.loc 1 53 9 view .LVU340
 1381 000e 0123     		movs	r3, #1
 1382 0010 1221     		movs	r1, #18
 1383              	.LVL76:
  53:D:/fchai/work/i-cube/I-CUBE-HUAWEI/Drivers/BSP/Components/lsm6dso\lsm6dso_reg.c ****   return ret;
 1384              		.loc 1 53 9 view .LVU341
 1385 0012 B047     		blx	r6
 1386              	.LVL77:
  54:D:/fchai/work/i-cube/I-CUBE-HUAWEI/Drivers/BSP/Components/lsm6dso\lsm6dso_reg.c **** }
 1387              		.loc 1 54 3 is_stmt 1 view .LVU342
  54:D:/fchai/work/i-cube/I-CUBE-HUAWEI/Drivers/BSP/Components/lsm6dso\lsm6dso_reg.c **** }
 1388              		.loc 1 54 3 is_stmt 0 view .LVU343
 1389              	.LBE1042:
 1390              	.LBE1043:
 611:D:/fchai/work/i-cube/I-CUBE-HUAWEI/Drivers/BSP/Components/lsm6dso\lsm6dso_reg.c ****   if (ret == 0) {
 1391              		.loc 1 611 3 is_stmt 1 view .LVU344
 1392              		.loc 1 611 6 is_stmt 0 view .LVU345
 1393 0014 58B9     		cbnz	r0, .L93
 612:D:/fchai/work/i-cube/I-CUBE-HUAWEI/Drivers/BSP/Components/lsm6dso\lsm6dso_reg.c ****     reg.bdu = val;
 1394              		.loc 1 612 5 is_stmt 1 view .LVU346
 1395              		.loc 1 612 13 is_stmt 0 view .LVU347
 1396 0016 9DF80430 		ldrb	r3, [sp, #4]	@ zero_extendqisi2
 1397              	.LBB1044:
ARM GAS  T:\msys\tmp\ccaXiy3K.s 			page 39


 1398              	.LBB1045:
  71:D:/fchai/work/i-cube/I-CUBE-HUAWEI/Drivers/BSP/Components/lsm6dso\lsm6dso_reg.c ****   return ret;
 1399              		.loc 1 71 9 view .LVU348
 1400 001a 2668     		ldr	r6, [r4]
 1401 001c A068     		ldr	r0, [r4, #8]
 1402              	.LVL78:
  71:D:/fchai/work/i-cube/I-CUBE-HUAWEI/Drivers/BSP/Components/lsm6dso\lsm6dso_reg.c ****   return ret;
 1403              		.loc 1 71 9 view .LVU349
 1404              	.LBE1045:
 1405              	.LBE1044:
 1406              		.loc 1 612 13 view .LVU350
 1407 001e 65F38613 		bfi	r3, r5, #6, #1
 1408 0022 8DF80430 		strb	r3, [sp, #4]
 613:D:/fchai/work/i-cube/I-CUBE-HUAWEI/Drivers/BSP/Components/lsm6dso\lsm6dso_reg.c ****     ret = lsm6dso_write_reg(ctx, LSM6DSO_CTRL3_C, (uint8_t*)&reg, 1);
 1409              		.loc 1 613 5 is_stmt 1 view .LVU351
 1410              	.LVL79:
 1411              	.LBB1047:
 1412              	.LBI1044:
  67:D:/fchai/work/i-cube/I-CUBE-HUAWEI/Drivers/BSP/Components/lsm6dso\lsm6dso_reg.c ****                           uint16_t len)
 1413              		.loc 1 67 9 view .LVU352
 1414              	.LBB1046:
  70:D:/fchai/work/i-cube/I-CUBE-HUAWEI/Drivers/BSP/Components/lsm6dso\lsm6dso_reg.c ****   ret = ctx->write_reg(ctx->handle, reg, data, len);
 1415              		.loc 1 70 3 view .LVU353
  71:D:/fchai/work/i-cube/I-CUBE-HUAWEI/Drivers/BSP/Components/lsm6dso\lsm6dso_reg.c ****   return ret;
 1416              		.loc 1 71 3 view .LVU354
  71:D:/fchai/work/i-cube/I-CUBE-HUAWEI/Drivers/BSP/Components/lsm6dso\lsm6dso_reg.c ****   return ret;
 1417              		.loc 1 71 9 is_stmt 0 view .LVU355
 1418 0026 01AA     		add	r2, sp, #4
 1419              	.LVL80:
  71:D:/fchai/work/i-cube/I-CUBE-HUAWEI/Drivers/BSP/Components/lsm6dso\lsm6dso_reg.c ****   return ret;
 1420              		.loc 1 71 9 view .LVU356
 1421 0028 0123     		movs	r3, #1
 1422 002a 1221     		movs	r1, #18
 1423 002c B047     		blx	r6
 1424              	.LVL81:
  72:D:/fchai/work/i-cube/I-CUBE-HUAWEI/Drivers/BSP/Components/lsm6dso\lsm6dso_reg.c **** }
 1425              		.loc 1 72 3 is_stmt 1 view .LVU357
  72:D:/fchai/work/i-cube/I-CUBE-HUAWEI/Drivers/BSP/Components/lsm6dso\lsm6dso_reg.c **** }
 1426              		.loc 1 72 3 is_stmt 0 view .LVU358
 1427              	.LBE1046:
 1428              	.LBE1047:
 614:D:/fchai/work/i-cube/I-CUBE-HUAWEI/Drivers/BSP/Components/lsm6dso\lsm6dso_reg.c ****   }
 615:D:/fchai/work/i-cube/I-CUBE-HUAWEI/Drivers/BSP/Components/lsm6dso\lsm6dso_reg.c ****   return ret;
 1429              		.loc 1 615 3 is_stmt 1 view .LVU359
 1430              	.L93:
 616:D:/fchai/work/i-cube/I-CUBE-HUAWEI/Drivers/BSP/Components/lsm6dso\lsm6dso_reg.c **** }
 1431              		.loc 1 616 1 is_stmt 0 view .LVU360
 1432 002e 02B0     		add	sp, sp, #8
 1433              	.LCFI36:
 1434              		.cfi_def_cfa_offset 16
 1435              		@ sp needed
 1436 0030 70BD     		pop	{r4, r5, r6, pc}
 1437              		.loc 1 616 1 view .LVU361
 1438              		.cfi_endproc
 1439              	.LFE21:
 1441 0032 00BF     		.section	.text.lsm6dso_block_data_update_get,"ax",%progbits
 1442              		.align	1
ARM GAS  T:\msys\tmp\ccaXiy3K.s 			page 40


 1443              		.p2align 2,,3
 1444              		.global	lsm6dso_block_data_update_get
 1445              		.syntax unified
 1446              		.thumb
 1447              		.thumb_func
 1448              		.fpu fpv4-sp-d16
 1450              	lsm6dso_block_data_update_get:
 1451              	.LVL82:
 1452              	.LFB22:
 617:D:/fchai/work/i-cube/I-CUBE-HUAWEI/Drivers/BSP/Components/lsm6dso\lsm6dso_reg.c **** 
 618:D:/fchai/work/i-cube/I-CUBE-HUAWEI/Drivers/BSP/Components/lsm6dso\lsm6dso_reg.c **** /**
 619:D:/fchai/work/i-cube/I-CUBE-HUAWEI/Drivers/BSP/Components/lsm6dso\lsm6dso_reg.c ****   * @brief  Block data update.[get]
 620:D:/fchai/work/i-cube/I-CUBE-HUAWEI/Drivers/BSP/Components/lsm6dso\lsm6dso_reg.c ****   *
 621:D:/fchai/work/i-cube/I-CUBE-HUAWEI/Drivers/BSP/Components/lsm6dso\lsm6dso_reg.c ****   * @param  ctx      read / write interface definitions
 622:D:/fchai/work/i-cube/I-CUBE-HUAWEI/Drivers/BSP/Components/lsm6dso\lsm6dso_reg.c ****   * @param  val      change the values of bdu in reg CTRL3_C
 623:D:/fchai/work/i-cube/I-CUBE-HUAWEI/Drivers/BSP/Components/lsm6dso\lsm6dso_reg.c ****   *
 624:D:/fchai/work/i-cube/I-CUBE-HUAWEI/Drivers/BSP/Components/lsm6dso\lsm6dso_reg.c ****   */
 625:D:/fchai/work/i-cube/I-CUBE-HUAWEI/Drivers/BSP/Components/lsm6dso\lsm6dso_reg.c **** int32_t lsm6dso_block_data_update_get(stmdev_ctx_t *ctx, uint8_t *val)
 626:D:/fchai/work/i-cube/I-CUBE-HUAWEI/Drivers/BSP/Components/lsm6dso\lsm6dso_reg.c **** {
 1453              		.loc 1 626 1 is_stmt 1 view -0
 1454              		.cfi_startproc
 1455              		@ args = 0, pretend = 0, frame = 8
 1456              		@ frame_needed = 0, uses_anonymous_args = 0
 627:D:/fchai/work/i-cube/I-CUBE-HUAWEI/Drivers/BSP/Components/lsm6dso\lsm6dso_reg.c ****   lsm6dso_ctrl3_c_t reg;
 1457              		.loc 1 627 3 view .LVU363
 628:D:/fchai/work/i-cube/I-CUBE-HUAWEI/Drivers/BSP/Components/lsm6dso\lsm6dso_reg.c ****   int32_t ret;
 1458              		.loc 1 628 3 view .LVU364
 629:D:/fchai/work/i-cube/I-CUBE-HUAWEI/Drivers/BSP/Components/lsm6dso\lsm6dso_reg.c **** 
 630:D:/fchai/work/i-cube/I-CUBE-HUAWEI/Drivers/BSP/Components/lsm6dso\lsm6dso_reg.c ****   ret = lsm6dso_read_reg(ctx, LSM6DSO_CTRL3_C, (uint8_t*)&reg, 1);
 1459              		.loc 1 630 3 view .LVU365
 626:D:/fchai/work/i-cube/I-CUBE-HUAWEI/Drivers/BSP/Components/lsm6dso\lsm6dso_reg.c ****   lsm6dso_ctrl3_c_t reg;
 1460              		.loc 1 626 1 is_stmt 0 view .LVU366
 1461 0000 30B5     		push	{r4, r5, lr}
 1462              	.LCFI37:
 1463              		.cfi_def_cfa_offset 12
 1464              		.cfi_offset 4, -12
 1465              		.cfi_offset 5, -8
 1466              		.cfi_offset 14, -4
 1467 0002 83B0     		sub	sp, sp, #12
 1468              	.LCFI38:
 1469              		.cfi_def_cfa_offset 24
 1470              	.LVL83:
 1471              	.LBB1048:
 1472              	.LBI1048:
  49:D:/fchai/work/i-cube/I-CUBE-HUAWEI/Drivers/BSP/Components/lsm6dso\lsm6dso_reg.c ****                          uint16_t len)
 1473              		.loc 1 49 9 is_stmt 1 view .LVU367
 1474              	.LBB1049:
  52:D:/fchai/work/i-cube/I-CUBE-HUAWEI/Drivers/BSP/Components/lsm6dso\lsm6dso_reg.c ****   ret = ctx->read_reg(ctx->handle, reg, data, len);
 1475              		.loc 1 52 3 view .LVU368
  53:D:/fchai/work/i-cube/I-CUBE-HUAWEI/Drivers/BSP/Components/lsm6dso\lsm6dso_reg.c ****   return ret;
 1476              		.loc 1 53 3 view .LVU369
 1477              	.LBE1049:
 1478              	.LBE1048:
 626:D:/fchai/work/i-cube/I-CUBE-HUAWEI/Drivers/BSP/Components/lsm6dso\lsm6dso_reg.c ****   lsm6dso_ctrl3_c_t reg;
 1479              		.loc 1 626 1 is_stmt 0 view .LVU370
 1480 0004 0C46     		mov	r4, r1
 1481              	.LBB1051:
ARM GAS  T:\msys\tmp\ccaXiy3K.s 			page 41


 1482              	.LBB1050:
  53:D:/fchai/work/i-cube/I-CUBE-HUAWEI/Drivers/BSP/Components/lsm6dso\lsm6dso_reg.c ****   return ret;
 1483              		.loc 1 53 9 view .LVU371
 1484 0006 D0E90150 		ldrd	r5, r0, [r0, #4]
 1485              	.LVL84:
  53:D:/fchai/work/i-cube/I-CUBE-HUAWEI/Drivers/BSP/Components/lsm6dso\lsm6dso_reg.c ****   return ret;
 1486              		.loc 1 53 9 view .LVU372
 1487 000a 0123     		movs	r3, #1
 1488 000c 01AA     		add	r2, sp, #4
 1489              	.LVL85:
  53:D:/fchai/work/i-cube/I-CUBE-HUAWEI/Drivers/BSP/Components/lsm6dso\lsm6dso_reg.c ****   return ret;
 1490              		.loc 1 53 9 view .LVU373
 1491 000e 1221     		movs	r1, #18
 1492              	.LVL86:
  53:D:/fchai/work/i-cube/I-CUBE-HUAWEI/Drivers/BSP/Components/lsm6dso\lsm6dso_reg.c ****   return ret;
 1493              		.loc 1 53 9 view .LVU374
 1494 0010 A847     		blx	r5
 1495              	.LVL87:
  54:D:/fchai/work/i-cube/I-CUBE-HUAWEI/Drivers/BSP/Components/lsm6dso\lsm6dso_reg.c **** }
 1496              		.loc 1 54 3 is_stmt 1 view .LVU375
  54:D:/fchai/work/i-cube/I-CUBE-HUAWEI/Drivers/BSP/Components/lsm6dso\lsm6dso_reg.c **** }
 1497              		.loc 1 54 3 is_stmt 0 view .LVU376
 1498              	.LBE1050:
 1499              	.LBE1051:
 631:D:/fchai/work/i-cube/I-CUBE-HUAWEI/Drivers/BSP/Components/lsm6dso\lsm6dso_reg.c ****   *val = reg.bdu;
 1500              		.loc 1 631 3 is_stmt 1 view .LVU377
 1501              		.loc 1 631 13 is_stmt 0 view .LVU378
 1502 0012 9DF80430 		ldrb	r3, [sp, #4]	@ zero_extendqisi2
 1503 0016 C3F38013 		ubfx	r3, r3, #6, #1
 1504              		.loc 1 631 8 view .LVU379
 1505 001a 2370     		strb	r3, [r4]
 632:D:/fchai/work/i-cube/I-CUBE-HUAWEI/Drivers/BSP/Components/lsm6dso\lsm6dso_reg.c **** 
 633:D:/fchai/work/i-cube/I-CUBE-HUAWEI/Drivers/BSP/Components/lsm6dso\lsm6dso_reg.c ****   return ret;
 1506              		.loc 1 633 3 is_stmt 1 view .LVU380
 634:D:/fchai/work/i-cube/I-CUBE-HUAWEI/Drivers/BSP/Components/lsm6dso\lsm6dso_reg.c **** }
 1507              		.loc 1 634 1 is_stmt 0 view .LVU381
 1508 001c 03B0     		add	sp, sp, #12
 1509              	.LCFI39:
 1510              		.cfi_def_cfa_offset 12
 1511              		@ sp needed
 1512 001e 30BD     		pop	{r4, r5, pc}
 1513              		.loc 1 634 1 view .LVU382
 1514              		.cfi_endproc
 1515              	.LFE22:
 1517              		.section	.text.lsm6dso_xl_offset_weight_set,"ax",%progbits
 1518              		.align	1
 1519              		.p2align 2,,3
 1520              		.global	lsm6dso_xl_offset_weight_set
 1521              		.syntax unified
 1522              		.thumb
 1523              		.thumb_func
 1524              		.fpu fpv4-sp-d16
 1526              	lsm6dso_xl_offset_weight_set:
 1527              	.LVL88:
 1528              	.LFB23:
 635:D:/fchai/work/i-cube/I-CUBE-HUAWEI/Drivers/BSP/Components/lsm6dso\lsm6dso_reg.c **** 
 636:D:/fchai/work/i-cube/I-CUBE-HUAWEI/Drivers/BSP/Components/lsm6dso\lsm6dso_reg.c **** /**
ARM GAS  T:\msys\tmp\ccaXiy3K.s 			page 42


 637:D:/fchai/work/i-cube/I-CUBE-HUAWEI/Drivers/BSP/Components/lsm6dso\lsm6dso_reg.c ****   * @brief  Weight of XL user offset bits of registers X_OFS_USR (73h),
 638:D:/fchai/work/i-cube/I-CUBE-HUAWEI/Drivers/BSP/Components/lsm6dso\lsm6dso_reg.c ****   *         Y_OFS_USR (74h), Z_OFS_USR (75h).[set]
 639:D:/fchai/work/i-cube/I-CUBE-HUAWEI/Drivers/BSP/Components/lsm6dso\lsm6dso_reg.c ****   *
 640:D:/fchai/work/i-cube/I-CUBE-HUAWEI/Drivers/BSP/Components/lsm6dso\lsm6dso_reg.c ****   * @param  ctx      read / write interface definitions
 641:D:/fchai/work/i-cube/I-CUBE-HUAWEI/Drivers/BSP/Components/lsm6dso\lsm6dso_reg.c ****   * @param  val      change the values of usr_off_w in reg CTRL6_C
 642:D:/fchai/work/i-cube/I-CUBE-HUAWEI/Drivers/BSP/Components/lsm6dso\lsm6dso_reg.c ****   *
 643:D:/fchai/work/i-cube/I-CUBE-HUAWEI/Drivers/BSP/Components/lsm6dso\lsm6dso_reg.c ****   */
 644:D:/fchai/work/i-cube/I-CUBE-HUAWEI/Drivers/BSP/Components/lsm6dso\lsm6dso_reg.c **** int32_t lsm6dso_xl_offset_weight_set(stmdev_ctx_t *ctx,
 645:D:/fchai/work/i-cube/I-CUBE-HUAWEI/Drivers/BSP/Components/lsm6dso\lsm6dso_reg.c ****                                      lsm6dso_usr_off_w_t val)
 646:D:/fchai/work/i-cube/I-CUBE-HUAWEI/Drivers/BSP/Components/lsm6dso\lsm6dso_reg.c **** {
 1529              		.loc 1 646 1 is_stmt 1 view -0
 1530              		.cfi_startproc
 1531              		@ args = 0, pretend = 0, frame = 8
 1532              		@ frame_needed = 0, uses_anonymous_args = 0
 647:D:/fchai/work/i-cube/I-CUBE-HUAWEI/Drivers/BSP/Components/lsm6dso\lsm6dso_reg.c ****   lsm6dso_ctrl6_c_t reg;
 1533              		.loc 1 647 3 view .LVU384
 648:D:/fchai/work/i-cube/I-CUBE-HUAWEI/Drivers/BSP/Components/lsm6dso\lsm6dso_reg.c ****   int32_t ret;
 1534              		.loc 1 648 3 view .LVU385
 649:D:/fchai/work/i-cube/I-CUBE-HUAWEI/Drivers/BSP/Components/lsm6dso\lsm6dso_reg.c **** 
 650:D:/fchai/work/i-cube/I-CUBE-HUAWEI/Drivers/BSP/Components/lsm6dso\lsm6dso_reg.c ****   ret = lsm6dso_read_reg(ctx, LSM6DSO_CTRL6_C, (uint8_t*)&reg, 1);
 1535              		.loc 1 650 3 view .LVU386
 646:D:/fchai/work/i-cube/I-CUBE-HUAWEI/Drivers/BSP/Components/lsm6dso\lsm6dso_reg.c ****   lsm6dso_ctrl6_c_t reg;
 1536              		.loc 1 646 1 is_stmt 0 view .LVU387
 1537 0000 70B5     		push	{r4, r5, r6, lr}
 1538              	.LCFI40:
 1539              		.cfi_def_cfa_offset 16
 1540              		.cfi_offset 4, -16
 1541              		.cfi_offset 5, -12
 1542              		.cfi_offset 6, -8
 1543              		.cfi_offset 14, -4
 1544 0002 82B0     		sub	sp, sp, #8
 1545              	.LCFI41:
 1546              		.cfi_def_cfa_offset 24
 646:D:/fchai/work/i-cube/I-CUBE-HUAWEI/Drivers/BSP/Components/lsm6dso\lsm6dso_reg.c ****   lsm6dso_ctrl6_c_t reg;
 1547              		.loc 1 646 1 view .LVU388
 1548 0004 0446     		mov	r4, r0
 1549              	.LVL89:
 1550              	.LBB1052:
 1551              	.LBI1052:
  49:D:/fchai/work/i-cube/I-CUBE-HUAWEI/Drivers/BSP/Components/lsm6dso\lsm6dso_reg.c ****                          uint16_t len)
 1552              		.loc 1 49 9 is_stmt 1 view .LVU389
 1553              	.LBB1053:
  52:D:/fchai/work/i-cube/I-CUBE-HUAWEI/Drivers/BSP/Components/lsm6dso\lsm6dso_reg.c ****   ret = ctx->read_reg(ctx->handle, reg, data, len);
 1554              		.loc 1 52 3 view .LVU390
  53:D:/fchai/work/i-cube/I-CUBE-HUAWEI/Drivers/BSP/Components/lsm6dso\lsm6dso_reg.c ****   return ret;
 1555              		.loc 1 53 3 view .LVU391
 1556              	.LBE1053:
 1557              	.LBE1052:
 646:D:/fchai/work/i-cube/I-CUBE-HUAWEI/Drivers/BSP/Components/lsm6dso\lsm6dso_reg.c ****   lsm6dso_ctrl6_c_t reg;
 1558              		.loc 1 646 1 is_stmt 0 view .LVU392
 1559 0006 0D46     		mov	r5, r1
 1560              	.LBB1055:
 1561              	.LBB1054:
  53:D:/fchai/work/i-cube/I-CUBE-HUAWEI/Drivers/BSP/Components/lsm6dso\lsm6dso_reg.c ****   return ret;
 1562              		.loc 1 53 9 view .LVU393
 1563 0008 D0E90160 		ldrd	r6, r0, [r0, #4]
 1564              	.LVL90:
ARM GAS  T:\msys\tmp\ccaXiy3K.s 			page 43


  53:D:/fchai/work/i-cube/I-CUBE-HUAWEI/Drivers/BSP/Components/lsm6dso\lsm6dso_reg.c ****   return ret;
 1565              		.loc 1 53 9 view .LVU394
 1566 000c 01AA     		add	r2, sp, #4
 1567              	.LVL91:
  53:D:/fchai/work/i-cube/I-CUBE-HUAWEI/Drivers/BSP/Components/lsm6dso\lsm6dso_reg.c ****   return ret;
 1568              		.loc 1 53 9 view .LVU395
 1569 000e 0123     		movs	r3, #1
 1570 0010 1521     		movs	r1, #21
 1571              	.LVL92:
  53:D:/fchai/work/i-cube/I-CUBE-HUAWEI/Drivers/BSP/Components/lsm6dso\lsm6dso_reg.c ****   return ret;
 1572              		.loc 1 53 9 view .LVU396
 1573 0012 B047     		blx	r6
 1574              	.LVL93:
  54:D:/fchai/work/i-cube/I-CUBE-HUAWEI/Drivers/BSP/Components/lsm6dso\lsm6dso_reg.c **** }
 1575              		.loc 1 54 3 is_stmt 1 view .LVU397
  54:D:/fchai/work/i-cube/I-CUBE-HUAWEI/Drivers/BSP/Components/lsm6dso\lsm6dso_reg.c **** }
 1576              		.loc 1 54 3 is_stmt 0 view .LVU398
 1577              	.LBE1054:
 1578              	.LBE1055:
 651:D:/fchai/work/i-cube/I-CUBE-HUAWEI/Drivers/BSP/Components/lsm6dso\lsm6dso_reg.c ****   if (ret == 0) {
 1579              		.loc 1 651 3 is_stmt 1 view .LVU399
 1580              		.loc 1 651 6 is_stmt 0 view .LVU400
 1581 0014 58B9     		cbnz	r0, .L98
 652:D:/fchai/work/i-cube/I-CUBE-HUAWEI/Drivers/BSP/Components/lsm6dso\lsm6dso_reg.c ****     reg.usr_off_w = (uint8_t)val;
 1582              		.loc 1 652 5 is_stmt 1 view .LVU401
 1583              		.loc 1 652 19 is_stmt 0 view .LVU402
 1584 0016 9DF80430 		ldrb	r3, [sp, #4]	@ zero_extendqisi2
 1585              	.LBB1056:
 1586              	.LBB1057:
  71:D:/fchai/work/i-cube/I-CUBE-HUAWEI/Drivers/BSP/Components/lsm6dso\lsm6dso_reg.c ****   return ret;
 1587              		.loc 1 71 9 view .LVU403
 1588 001a 2668     		ldr	r6, [r4]
 1589 001c A068     		ldr	r0, [r4, #8]
 1590              	.LVL94:
  71:D:/fchai/work/i-cube/I-CUBE-HUAWEI/Drivers/BSP/Components/lsm6dso\lsm6dso_reg.c ****   return ret;
 1591              		.loc 1 71 9 view .LVU404
 1592              	.LBE1057:
 1593              	.LBE1056:
 1594              		.loc 1 652 19 view .LVU405
 1595 001e 65F3C303 		bfi	r3, r5, #3, #1
 1596 0022 8DF80430 		strb	r3, [sp, #4]
 653:D:/fchai/work/i-cube/I-CUBE-HUAWEI/Drivers/BSP/Components/lsm6dso\lsm6dso_reg.c ****     ret = lsm6dso_write_reg(ctx, LSM6DSO_CTRL6_C, (uint8_t*)&reg, 1);
 1597              		.loc 1 653 5 is_stmt 1 view .LVU406
 1598              	.LVL95:
 1599              	.LBB1059:
 1600              	.LBI1056:
  67:D:/fchai/work/i-cube/I-CUBE-HUAWEI/Drivers/BSP/Components/lsm6dso\lsm6dso_reg.c ****                           uint16_t len)
 1601              		.loc 1 67 9 view .LVU407
 1602              	.LBB1058:
  70:D:/fchai/work/i-cube/I-CUBE-HUAWEI/Drivers/BSP/Components/lsm6dso\lsm6dso_reg.c ****   ret = ctx->write_reg(ctx->handle, reg, data, len);
 1603              		.loc 1 70 3 view .LVU408
  71:D:/fchai/work/i-cube/I-CUBE-HUAWEI/Drivers/BSP/Components/lsm6dso\lsm6dso_reg.c ****   return ret;
 1604              		.loc 1 71 3 view .LVU409
  71:D:/fchai/work/i-cube/I-CUBE-HUAWEI/Drivers/BSP/Components/lsm6dso\lsm6dso_reg.c ****   return ret;
 1605              		.loc 1 71 9 is_stmt 0 view .LVU410
 1606 0026 01AA     		add	r2, sp, #4
 1607              	.LVL96:
ARM GAS  T:\msys\tmp\ccaXiy3K.s 			page 44


  71:D:/fchai/work/i-cube/I-CUBE-HUAWEI/Drivers/BSP/Components/lsm6dso\lsm6dso_reg.c ****   return ret;
 1608              		.loc 1 71 9 view .LVU411
 1609 0028 0123     		movs	r3, #1
 1610 002a 1521     		movs	r1, #21
 1611 002c B047     		blx	r6
 1612              	.LVL97:
  72:D:/fchai/work/i-cube/I-CUBE-HUAWEI/Drivers/BSP/Components/lsm6dso\lsm6dso_reg.c **** }
 1613              		.loc 1 72 3 is_stmt 1 view .LVU412
  72:D:/fchai/work/i-cube/I-CUBE-HUAWEI/Drivers/BSP/Components/lsm6dso\lsm6dso_reg.c **** }
 1614              		.loc 1 72 3 is_stmt 0 view .LVU413
 1615              	.LBE1058:
 1616              	.LBE1059:
 654:D:/fchai/work/i-cube/I-CUBE-HUAWEI/Drivers/BSP/Components/lsm6dso\lsm6dso_reg.c ****   }
 655:D:/fchai/work/i-cube/I-CUBE-HUAWEI/Drivers/BSP/Components/lsm6dso\lsm6dso_reg.c ****   return ret;
 1617              		.loc 1 655 3 is_stmt 1 view .LVU414
 1618              	.L98:
 656:D:/fchai/work/i-cube/I-CUBE-HUAWEI/Drivers/BSP/Components/lsm6dso\lsm6dso_reg.c **** }
 1619              		.loc 1 656 1 is_stmt 0 view .LVU415
 1620 002e 02B0     		add	sp, sp, #8
 1621              	.LCFI42:
 1622              		.cfi_def_cfa_offset 16
 1623              		@ sp needed
 1624 0030 70BD     		pop	{r4, r5, r6, pc}
 1625              		.loc 1 656 1 view .LVU416
 1626              		.cfi_endproc
 1627              	.LFE23:
 1629 0032 00BF     		.section	.text.lsm6dso_xl_offset_weight_get,"ax",%progbits
 1630              		.align	1
 1631              		.p2align 2,,3
 1632              		.global	lsm6dso_xl_offset_weight_get
 1633              		.syntax unified
 1634              		.thumb
 1635              		.thumb_func
 1636              		.fpu fpv4-sp-d16
 1638              	lsm6dso_xl_offset_weight_get:
 1639              	.LVL98:
 1640              	.LFB24:
 657:D:/fchai/work/i-cube/I-CUBE-HUAWEI/Drivers/BSP/Components/lsm6dso\lsm6dso_reg.c **** 
 658:D:/fchai/work/i-cube/I-CUBE-HUAWEI/Drivers/BSP/Components/lsm6dso\lsm6dso_reg.c **** /**
 659:D:/fchai/work/i-cube/I-CUBE-HUAWEI/Drivers/BSP/Components/lsm6dso\lsm6dso_reg.c ****   * @brief    Weight of XL user offset bits of registers X_OFS_USR (73h),
 660:D:/fchai/work/i-cube/I-CUBE-HUAWEI/Drivers/BSP/Components/lsm6dso\lsm6dso_reg.c ****   *           Y_OFS_USR (74h), Z_OFS_USR (75h).[get]
 661:D:/fchai/work/i-cube/I-CUBE-HUAWEI/Drivers/BSP/Components/lsm6dso\lsm6dso_reg.c ****   *
 662:D:/fchai/work/i-cube/I-CUBE-HUAWEI/Drivers/BSP/Components/lsm6dso\lsm6dso_reg.c ****   * @param    ctx      read / write interface definitions
 663:D:/fchai/work/i-cube/I-CUBE-HUAWEI/Drivers/BSP/Components/lsm6dso\lsm6dso_reg.c ****   * @param    val      Get the values of usr_off_w in reg CTRL6_C
 664:D:/fchai/work/i-cube/I-CUBE-HUAWEI/Drivers/BSP/Components/lsm6dso\lsm6dso_reg.c ****   *
 665:D:/fchai/work/i-cube/I-CUBE-HUAWEI/Drivers/BSP/Components/lsm6dso\lsm6dso_reg.c ****   */
 666:D:/fchai/work/i-cube/I-CUBE-HUAWEI/Drivers/BSP/Components/lsm6dso\lsm6dso_reg.c **** int32_t lsm6dso_xl_offset_weight_get(stmdev_ctx_t *ctx,
 667:D:/fchai/work/i-cube/I-CUBE-HUAWEI/Drivers/BSP/Components/lsm6dso\lsm6dso_reg.c ****                                      lsm6dso_usr_off_w_t *val)
 668:D:/fchai/work/i-cube/I-CUBE-HUAWEI/Drivers/BSP/Components/lsm6dso\lsm6dso_reg.c **** {
 1641              		.loc 1 668 1 is_stmt 1 view -0
 1642              		.cfi_startproc
 1643              		@ args = 0, pretend = 0, frame = 8
 1644              		@ frame_needed = 0, uses_anonymous_args = 0
 669:D:/fchai/work/i-cube/I-CUBE-HUAWEI/Drivers/BSP/Components/lsm6dso\lsm6dso_reg.c ****   lsm6dso_ctrl6_c_t reg;
 1645              		.loc 1 669 3 view .LVU418
 670:D:/fchai/work/i-cube/I-CUBE-HUAWEI/Drivers/BSP/Components/lsm6dso\lsm6dso_reg.c ****   int32_t ret;
 1646              		.loc 1 670 3 view .LVU419
ARM GAS  T:\msys\tmp\ccaXiy3K.s 			page 45


 671:D:/fchai/work/i-cube/I-CUBE-HUAWEI/Drivers/BSP/Components/lsm6dso\lsm6dso_reg.c **** 
 672:D:/fchai/work/i-cube/I-CUBE-HUAWEI/Drivers/BSP/Components/lsm6dso\lsm6dso_reg.c ****   ret = lsm6dso_read_reg(ctx, LSM6DSO_CTRL6_C, (uint8_t*)&reg, 1);
 1647              		.loc 1 672 3 view .LVU420
 668:D:/fchai/work/i-cube/I-CUBE-HUAWEI/Drivers/BSP/Components/lsm6dso\lsm6dso_reg.c ****   lsm6dso_ctrl6_c_t reg;
 1648              		.loc 1 668 1 is_stmt 0 view .LVU421
 1649 0000 30B5     		push	{r4, r5, lr}
 1650              	.LCFI43:
 1651              		.cfi_def_cfa_offset 12
 1652              		.cfi_offset 4, -12
 1653              		.cfi_offset 5, -8
 1654              		.cfi_offset 14, -4
 1655 0002 83B0     		sub	sp, sp, #12
 1656              	.LCFI44:
 1657              		.cfi_def_cfa_offset 24
 1658              	.LVL99:
 1659              	.LBB1060:
 1660              	.LBI1060:
  49:D:/fchai/work/i-cube/I-CUBE-HUAWEI/Drivers/BSP/Components/lsm6dso\lsm6dso_reg.c ****                          uint16_t len)
 1661              		.loc 1 49 9 is_stmt 1 view .LVU422
 1662              	.LBB1061:
  52:D:/fchai/work/i-cube/I-CUBE-HUAWEI/Drivers/BSP/Components/lsm6dso\lsm6dso_reg.c ****   ret = ctx->read_reg(ctx->handle, reg, data, len);
 1663              		.loc 1 52 3 view .LVU423
  53:D:/fchai/work/i-cube/I-CUBE-HUAWEI/Drivers/BSP/Components/lsm6dso\lsm6dso_reg.c ****   return ret;
 1664              		.loc 1 53 3 view .LVU424
 1665              	.LBE1061:
 1666              	.LBE1060:
 668:D:/fchai/work/i-cube/I-CUBE-HUAWEI/Drivers/BSP/Components/lsm6dso\lsm6dso_reg.c ****   lsm6dso_ctrl6_c_t reg;
 1667              		.loc 1 668 1 is_stmt 0 view .LVU425
 1668 0004 0C46     		mov	r4, r1
 1669              	.LBB1064:
 1670              	.LBB1062:
  53:D:/fchai/work/i-cube/I-CUBE-HUAWEI/Drivers/BSP/Components/lsm6dso\lsm6dso_reg.c ****   return ret;
 1671              		.loc 1 53 9 view .LVU426
 1672 0006 01AA     		add	r2, sp, #4
 1673              	.LVL100:
  53:D:/fchai/work/i-cube/I-CUBE-HUAWEI/Drivers/BSP/Components/lsm6dso\lsm6dso_reg.c ****   return ret;
 1674              		.loc 1 53 9 view .LVU427
 1675 0008 D0E90150 		ldrd	r5, r0, [r0, #4]
 1676              	.LVL101:
  53:D:/fchai/work/i-cube/I-CUBE-HUAWEI/Drivers/BSP/Components/lsm6dso\lsm6dso_reg.c ****   return ret;
 1677              		.loc 1 53 9 view .LVU428
 1678 000c 0123     		movs	r3, #1
 1679 000e 1521     		movs	r1, #21
 1680              	.LVL102:
  53:D:/fchai/work/i-cube/I-CUBE-HUAWEI/Drivers/BSP/Components/lsm6dso\lsm6dso_reg.c ****   return ret;
 1681              		.loc 1 53 9 view .LVU429
 1682 0010 A847     		blx	r5
 1683              	.LVL103:
  53:D:/fchai/work/i-cube/I-CUBE-HUAWEI/Drivers/BSP/Components/lsm6dso\lsm6dso_reg.c ****   return ret;
 1684              		.loc 1 53 9 view .LVU430
 1685              	.LBE1062:
 1686              	.LBE1064:
 673:D:/fchai/work/i-cube/I-CUBE-HUAWEI/Drivers/BSP/Components/lsm6dso\lsm6dso_reg.c **** 
 674:D:/fchai/work/i-cube/I-CUBE-HUAWEI/Drivers/BSP/Components/lsm6dso\lsm6dso_reg.c ****   switch (reg.usr_off_w) {
 1687              		.loc 1 674 14 view .LVU431
 1688 0012 9DF80430 		ldrb	r3, [sp, #4]	@ zero_extendqisi2
 1689              	.LVL104:
ARM GAS  T:\msys\tmp\ccaXiy3K.s 			page 46


 1690              	.LBB1065:
 1691              	.LBB1063:
  54:D:/fchai/work/i-cube/I-CUBE-HUAWEI/Drivers/BSP/Components/lsm6dso\lsm6dso_reg.c **** }
 1692              		.loc 1 54 3 is_stmt 1 view .LVU432
  54:D:/fchai/work/i-cube/I-CUBE-HUAWEI/Drivers/BSP/Components/lsm6dso\lsm6dso_reg.c **** }
 1693              		.loc 1 54 3 is_stmt 0 view .LVU433
 1694              	.LBE1063:
 1695              	.LBE1065:
 1696              		.loc 1 674 3 is_stmt 1 view .LVU434
 1697              		.loc 1 674 14 is_stmt 0 view .LVU435
 1698 0016 C3F3C002 		ubfx	r2, r3, #3, #1
 1699              		.loc 1 674 3 view .LVU436
 1700 001a 1B07     		lsls	r3, r3, #28
 675:D:/fchai/work/i-cube/I-CUBE-HUAWEI/Drivers/BSP/Components/lsm6dso\lsm6dso_reg.c ****     case LSM6DSO_LSb_1mg:
 676:D:/fchai/work/i-cube/I-CUBE-HUAWEI/Drivers/BSP/Components/lsm6dso\lsm6dso_reg.c ****       *val = LSM6DSO_LSb_1mg;
 1701              		.loc 1 676 7 is_stmt 1 view .LVU437
 1702              		.loc 1 676 12 is_stmt 0 view .LVU438
 1703 001c 5ABF     		itte	pl
 1704 001e 0023     		movpl	r3, #0
 1705 0020 2370     		strbpl	r3, [r4]
 677:D:/fchai/work/i-cube/I-CUBE-HUAWEI/Drivers/BSP/Components/lsm6dso\lsm6dso_reg.c ****       break;
 1706              		.loc 1 677 7 is_stmt 1 view .LVU439
 678:D:/fchai/work/i-cube/I-CUBE-HUAWEI/Drivers/BSP/Components/lsm6dso\lsm6dso_reg.c ****     case LSM6DSO_LSb_16mg:
 679:D:/fchai/work/i-cube/I-CUBE-HUAWEI/Drivers/BSP/Components/lsm6dso\lsm6dso_reg.c ****       *val = LSM6DSO_LSb_16mg;
 1707              		.loc 1 679 7 view .LVU440
 1708              		.loc 1 679 12 is_stmt 0 view .LVU441
 1709 0022 2270     		strbmi	r2, [r4]
 680:D:/fchai/work/i-cube/I-CUBE-HUAWEI/Drivers/BSP/Components/lsm6dso\lsm6dso_reg.c ****       break;
 1710              		.loc 1 680 7 is_stmt 1 view .LVU442
 681:D:/fchai/work/i-cube/I-CUBE-HUAWEI/Drivers/BSP/Components/lsm6dso\lsm6dso_reg.c ****     default:
 682:D:/fchai/work/i-cube/I-CUBE-HUAWEI/Drivers/BSP/Components/lsm6dso\lsm6dso_reg.c ****       *val = LSM6DSO_LSb_1mg;
 683:D:/fchai/work/i-cube/I-CUBE-HUAWEI/Drivers/BSP/Components/lsm6dso\lsm6dso_reg.c ****       break;
 684:D:/fchai/work/i-cube/I-CUBE-HUAWEI/Drivers/BSP/Components/lsm6dso\lsm6dso_reg.c ****   }
 685:D:/fchai/work/i-cube/I-CUBE-HUAWEI/Drivers/BSP/Components/lsm6dso\lsm6dso_reg.c ****   return ret;
 1711              		.loc 1 685 3 view .LVU443
 686:D:/fchai/work/i-cube/I-CUBE-HUAWEI/Drivers/BSP/Components/lsm6dso\lsm6dso_reg.c **** }
 1712              		.loc 1 686 1 is_stmt 0 view .LVU444
 1713 0024 03B0     		add	sp, sp, #12
 1714              	.LCFI45:
 1715              		.cfi_def_cfa_offset 12
 1716              		@ sp needed
 1717 0026 30BD     		pop	{r4, r5, pc}
 1718              		.loc 1 686 1 view .LVU445
 1719              		.cfi_endproc
 1720              	.LFE24:
 1722              		.section	.text.lsm6dso_xl_power_mode_set,"ax",%progbits
 1723              		.align	1
 1724              		.p2align 2,,3
 1725              		.global	lsm6dso_xl_power_mode_set
 1726              		.syntax unified
 1727              		.thumb
 1728              		.thumb_func
 1729              		.fpu fpv4-sp-d16
 1731              	lsm6dso_xl_power_mode_set:
 1732              	.LVL105:
 1733              	.LFB25:
 687:D:/fchai/work/i-cube/I-CUBE-HUAWEI/Drivers/BSP/Components/lsm6dso\lsm6dso_reg.c **** 
ARM GAS  T:\msys\tmp\ccaXiy3K.s 			page 47


 688:D:/fchai/work/i-cube/I-CUBE-HUAWEI/Drivers/BSP/Components/lsm6dso\lsm6dso_reg.c **** /**
 689:D:/fchai/work/i-cube/I-CUBE-HUAWEI/Drivers/BSP/Components/lsm6dso\lsm6dso_reg.c ****   * @brief  Accelerometer power mode.[set]
 690:D:/fchai/work/i-cube/I-CUBE-HUAWEI/Drivers/BSP/Components/lsm6dso\lsm6dso_reg.c ****   *
 691:D:/fchai/work/i-cube/I-CUBE-HUAWEI/Drivers/BSP/Components/lsm6dso\lsm6dso_reg.c ****   * @param  ctx      read / write interface definitions
 692:D:/fchai/work/i-cube/I-CUBE-HUAWEI/Drivers/BSP/Components/lsm6dso\lsm6dso_reg.c ****   * @param  val      change the values of xl_hm_mode in
 693:D:/fchai/work/i-cube/I-CUBE-HUAWEI/Drivers/BSP/Components/lsm6dso\lsm6dso_reg.c ****   *                               reg CTRL6_C
 694:D:/fchai/work/i-cube/I-CUBE-HUAWEI/Drivers/BSP/Components/lsm6dso\lsm6dso_reg.c ****   *
 695:D:/fchai/work/i-cube/I-CUBE-HUAWEI/Drivers/BSP/Components/lsm6dso\lsm6dso_reg.c ****   */
 696:D:/fchai/work/i-cube/I-CUBE-HUAWEI/Drivers/BSP/Components/lsm6dso\lsm6dso_reg.c **** int32_t lsm6dso_xl_power_mode_set(stmdev_ctx_t *ctx,
 697:D:/fchai/work/i-cube/I-CUBE-HUAWEI/Drivers/BSP/Components/lsm6dso\lsm6dso_reg.c ****                                   lsm6dso_xl_hm_mode_t val)
 698:D:/fchai/work/i-cube/I-CUBE-HUAWEI/Drivers/BSP/Components/lsm6dso\lsm6dso_reg.c **** {
 1734              		.loc 1 698 1 is_stmt 1 view -0
 1735              		.cfi_startproc
 1736              		@ args = 0, pretend = 0, frame = 8
 1737              		@ frame_needed = 0, uses_anonymous_args = 0
 699:D:/fchai/work/i-cube/I-CUBE-HUAWEI/Drivers/BSP/Components/lsm6dso\lsm6dso_reg.c ****   lsm6dso_ctrl5_c_t ctrl5_c;
 1738              		.loc 1 699 3 view .LVU447
 700:D:/fchai/work/i-cube/I-CUBE-HUAWEI/Drivers/BSP/Components/lsm6dso\lsm6dso_reg.c ****   lsm6dso_ctrl6_c_t ctrl6_c;
 1739              		.loc 1 700 3 view .LVU448
 701:D:/fchai/work/i-cube/I-CUBE-HUAWEI/Drivers/BSP/Components/lsm6dso\lsm6dso_reg.c ****   int32_t ret;
 1740              		.loc 1 701 3 view .LVU449
 702:D:/fchai/work/i-cube/I-CUBE-HUAWEI/Drivers/BSP/Components/lsm6dso\lsm6dso_reg.c **** 
 703:D:/fchai/work/i-cube/I-CUBE-HUAWEI/Drivers/BSP/Components/lsm6dso\lsm6dso_reg.c ****   ret = lsm6dso_read_reg(ctx, LSM6DSO_CTRL5_C, (uint8_t*) &ctrl5_c, 1);
 1741              		.loc 1 703 3 view .LVU450
 698:D:/fchai/work/i-cube/I-CUBE-HUAWEI/Drivers/BSP/Components/lsm6dso\lsm6dso_reg.c ****   lsm6dso_ctrl5_c_t ctrl5_c;
 1742              		.loc 1 698 1 is_stmt 0 view .LVU451
 1743 0000 70B5     		push	{r4, r5, r6, lr}
 1744              	.LCFI46:
 1745              		.cfi_def_cfa_offset 16
 1746              		.cfi_offset 4, -16
 1747              		.cfi_offset 5, -12
 1748              		.cfi_offset 6, -8
 1749              		.cfi_offset 14, -4
 1750 0002 82B0     		sub	sp, sp, #8
 1751              	.LCFI47:
 1752              		.cfi_def_cfa_offset 24
 698:D:/fchai/work/i-cube/I-CUBE-HUAWEI/Drivers/BSP/Components/lsm6dso\lsm6dso_reg.c ****   lsm6dso_ctrl5_c_t ctrl5_c;
 1753              		.loc 1 698 1 view .LVU452
 1754 0004 0446     		mov	r4, r0
 1755              	.LVL106:
 1756              	.LBB1066:
 1757              	.LBI1066:
  49:D:/fchai/work/i-cube/I-CUBE-HUAWEI/Drivers/BSP/Components/lsm6dso\lsm6dso_reg.c ****                          uint16_t len)
 1758              		.loc 1 49 9 is_stmt 1 view .LVU453
 1759              	.LBB1067:
  52:D:/fchai/work/i-cube/I-CUBE-HUAWEI/Drivers/BSP/Components/lsm6dso\lsm6dso_reg.c ****   ret = ctx->read_reg(ctx->handle, reg, data, len);
 1760              		.loc 1 52 3 view .LVU454
  53:D:/fchai/work/i-cube/I-CUBE-HUAWEI/Drivers/BSP/Components/lsm6dso\lsm6dso_reg.c ****   return ret;
 1761              		.loc 1 53 3 view .LVU455
 1762              	.LBE1067:
 1763              	.LBE1066:
 698:D:/fchai/work/i-cube/I-CUBE-HUAWEI/Drivers/BSP/Components/lsm6dso\lsm6dso_reg.c ****   lsm6dso_ctrl5_c_t ctrl5_c;
 1764              		.loc 1 698 1 is_stmt 0 view .LVU456
 1765 0006 0D46     		mov	r5, r1
 1766              	.LBB1069:
 1767              	.LBB1068:
  53:D:/fchai/work/i-cube/I-CUBE-HUAWEI/Drivers/BSP/Components/lsm6dso\lsm6dso_reg.c ****   return ret;
ARM GAS  T:\msys\tmp\ccaXiy3K.s 			page 48


 1768              		.loc 1 53 9 view .LVU457
 1769 0008 D0E90160 		ldrd	r6, r0, [r0, #4]
 1770              	.LVL107:
  53:D:/fchai/work/i-cube/I-CUBE-HUAWEI/Drivers/BSP/Components/lsm6dso\lsm6dso_reg.c ****   return ret;
 1771              		.loc 1 53 9 view .LVU458
 1772 000c 6A46     		mov	r2, sp
 1773 000e 0123     		movs	r3, #1
 1774 0010 1421     		movs	r1, #20
 1775              	.LVL108:
  53:D:/fchai/work/i-cube/I-CUBE-HUAWEI/Drivers/BSP/Components/lsm6dso\lsm6dso_reg.c ****   return ret;
 1776              		.loc 1 53 9 view .LVU459
 1777 0012 B047     		blx	r6
 1778              	.LVL109:
  54:D:/fchai/work/i-cube/I-CUBE-HUAWEI/Drivers/BSP/Components/lsm6dso\lsm6dso_reg.c **** }
 1779              		.loc 1 54 3 is_stmt 1 view .LVU460
  54:D:/fchai/work/i-cube/I-CUBE-HUAWEI/Drivers/BSP/Components/lsm6dso\lsm6dso_reg.c **** }
 1780              		.loc 1 54 3 is_stmt 0 view .LVU461
 1781              	.LBE1068:
 1782              	.LBE1069:
 704:D:/fchai/work/i-cube/I-CUBE-HUAWEI/Drivers/BSP/Components/lsm6dso\lsm6dso_reg.c ****   if (ret == 0) {
 1783              		.loc 1 704 3 is_stmt 1 view .LVU462
 1784              		.loc 1 704 6 is_stmt 0 view .LVU463
 1785 0014 00BB     		cbnz	r0, .L105
 705:D:/fchai/work/i-cube/I-CUBE-HUAWEI/Drivers/BSP/Components/lsm6dso\lsm6dso_reg.c ****     ctrl5_c.xl_ulp_en = ((uint8_t)val & 0x02U) >> 1;
 1786              		.loc 1 705 5 is_stmt 1 view .LVU464
 1787              		.loc 1 705 23 is_stmt 0 view .LVU465
 1788 0016 9DF80030 		ldrb	r3, [sp]	@ zero_extendqisi2
 1789              	.LBB1070:
 1790              	.LBB1071:
  71:D:/fchai/work/i-cube/I-CUBE-HUAWEI/Drivers/BSP/Components/lsm6dso\lsm6dso_reg.c ****   return ret;
 1791              		.loc 1 71 9 view .LVU466
 1792 001a 2668     		ldr	r6, [r4]
 1793 001c A068     		ldr	r0, [r4, #8]
 1794              	.LVL110:
  71:D:/fchai/work/i-cube/I-CUBE-HUAWEI/Drivers/BSP/Components/lsm6dso\lsm6dso_reg.c ****   return ret;
 1795              		.loc 1 71 9 view .LVU467
 1796              	.LBE1071:
 1797              	.LBE1070:
 1798              		.loc 1 705 48 view .LVU468
 1799 001e 6A08     		lsrs	r2, r5, #1
 1800              		.loc 1 705 23 view .LVU469
 1801 0020 62F3C713 		bfi	r3, r2, #7, #1
 1802 0024 8DF80030 		strb	r3, [sp]
 706:D:/fchai/work/i-cube/I-CUBE-HUAWEI/Drivers/BSP/Components/lsm6dso\lsm6dso_reg.c ****     ret = lsm6dso_write_reg(ctx, LSM6DSO_CTRL5_C, (uint8_t*) &ctrl5_c, 1);
 1803              		.loc 1 706 5 is_stmt 1 view .LVU470
 1804              	.LVL111:
 1805              	.LBB1073:
 1806              	.LBI1070:
  67:D:/fchai/work/i-cube/I-CUBE-HUAWEI/Drivers/BSP/Components/lsm6dso\lsm6dso_reg.c ****                           uint16_t len)
 1807              		.loc 1 67 9 view .LVU471
 1808              	.LBB1072:
  70:D:/fchai/work/i-cube/I-CUBE-HUAWEI/Drivers/BSP/Components/lsm6dso\lsm6dso_reg.c ****   ret = ctx->write_reg(ctx->handle, reg, data, len);
 1809              		.loc 1 70 3 view .LVU472
  71:D:/fchai/work/i-cube/I-CUBE-HUAWEI/Drivers/BSP/Components/lsm6dso\lsm6dso_reg.c ****   return ret;
 1810              		.loc 1 71 3 view .LVU473
  71:D:/fchai/work/i-cube/I-CUBE-HUAWEI/Drivers/BSP/Components/lsm6dso\lsm6dso_reg.c ****   return ret;
 1811              		.loc 1 71 9 is_stmt 0 view .LVU474
ARM GAS  T:\msys\tmp\ccaXiy3K.s 			page 49


 1812 0028 6A46     		mov	r2, sp
 1813 002a 0123     		movs	r3, #1
 1814 002c 1421     		movs	r1, #20
 1815 002e B047     		blx	r6
 1816              	.LVL112:
  72:D:/fchai/work/i-cube/I-CUBE-HUAWEI/Drivers/BSP/Components/lsm6dso\lsm6dso_reg.c **** }
 1817              		.loc 1 72 3 is_stmt 1 view .LVU475
  72:D:/fchai/work/i-cube/I-CUBE-HUAWEI/Drivers/BSP/Components/lsm6dso\lsm6dso_reg.c **** }
 1818              		.loc 1 72 3 is_stmt 0 view .LVU476
 1819              	.LBE1072:
 1820              	.LBE1073:
 707:D:/fchai/work/i-cube/I-CUBE-HUAWEI/Drivers/BSP/Components/lsm6dso\lsm6dso_reg.c ****   }
 708:D:/fchai/work/i-cube/I-CUBE-HUAWEI/Drivers/BSP/Components/lsm6dso\lsm6dso_reg.c ****   if (ret == 0) {
 1821              		.loc 1 708 3 is_stmt 1 view .LVU477
 1822              		.loc 1 708 6 is_stmt 0 view .LVU478
 1823 0030 90B9     		cbnz	r0, .L105
 709:D:/fchai/work/i-cube/I-CUBE-HUAWEI/Drivers/BSP/Components/lsm6dso\lsm6dso_reg.c ****     ret = lsm6dso_read_reg(ctx, LSM6DSO_CTRL6_C, (uint8_t*) &ctrl6_c, 1);
 1824              		.loc 1 709 5 is_stmt 1 view .LVU479
 1825              	.LVL113:
 1826              	.LBB1074:
 1827              	.LBI1074:
  49:D:/fchai/work/i-cube/I-CUBE-HUAWEI/Drivers/BSP/Components/lsm6dso\lsm6dso_reg.c ****                          uint16_t len)
 1828              		.loc 1 49 9 view .LVU480
 1829              	.LBB1075:
  52:D:/fchai/work/i-cube/I-CUBE-HUAWEI/Drivers/BSP/Components/lsm6dso\lsm6dso_reg.c ****   ret = ctx->read_reg(ctx->handle, reg, data, len);
 1830              		.loc 1 52 3 view .LVU481
  53:D:/fchai/work/i-cube/I-CUBE-HUAWEI/Drivers/BSP/Components/lsm6dso\lsm6dso_reg.c ****   return ret;
 1831              		.loc 1 53 3 view .LVU482
  53:D:/fchai/work/i-cube/I-CUBE-HUAWEI/Drivers/BSP/Components/lsm6dso\lsm6dso_reg.c ****   return ret;
 1832              		.loc 1 53 9 is_stmt 0 view .LVU483
 1833 0032 D4E90160 		ldrd	r6, r0, [r4, #4]
 1834              	.LVL114:
  53:D:/fchai/work/i-cube/I-CUBE-HUAWEI/Drivers/BSP/Components/lsm6dso\lsm6dso_reg.c ****   return ret;
 1835              		.loc 1 53 9 view .LVU484
 1836 0036 01AA     		add	r2, sp, #4
 1837              	.LVL115:
  53:D:/fchai/work/i-cube/I-CUBE-HUAWEI/Drivers/BSP/Components/lsm6dso\lsm6dso_reg.c ****   return ret;
 1838              		.loc 1 53 9 view .LVU485
 1839 0038 0123     		movs	r3, #1
 1840 003a 1521     		movs	r1, #21
 1841 003c B047     		blx	r6
 1842              	.LVL116:
  54:D:/fchai/work/i-cube/I-CUBE-HUAWEI/Drivers/BSP/Components/lsm6dso\lsm6dso_reg.c **** }
 1843              		.loc 1 54 3 is_stmt 1 view .LVU486
  54:D:/fchai/work/i-cube/I-CUBE-HUAWEI/Drivers/BSP/Components/lsm6dso\lsm6dso_reg.c **** }
 1844              		.loc 1 54 3 is_stmt 0 view .LVU487
 1845              	.LBE1075:
 1846              	.LBE1074:
 710:D:/fchai/work/i-cube/I-CUBE-HUAWEI/Drivers/BSP/Components/lsm6dso\lsm6dso_reg.c ****   }
 711:D:/fchai/work/i-cube/I-CUBE-HUAWEI/Drivers/BSP/Components/lsm6dso\lsm6dso_reg.c ****   if (ret == 0) {
 1847              		.loc 1 711 3 is_stmt 1 view .LVU488
 1848              		.loc 1 711 6 is_stmt 0 view .LVU489
 1849 003e 58B9     		cbnz	r0, .L105
 712:D:/fchai/work/i-cube/I-CUBE-HUAWEI/Drivers/BSP/Components/lsm6dso\lsm6dso_reg.c ****     ctrl6_c.xl_hm_mode = (uint8_t)val & 0x01U;
 1850              		.loc 1 712 5 is_stmt 1 view .LVU490
 1851              		.loc 1 712 24 is_stmt 0 view .LVU491
 1852 0040 9DF80430 		ldrb	r3, [sp, #4]	@ zero_extendqisi2
ARM GAS  T:\msys\tmp\ccaXiy3K.s 			page 50


 1853              	.LBB1076:
 1854              	.LBB1077:
  71:D:/fchai/work/i-cube/I-CUBE-HUAWEI/Drivers/BSP/Components/lsm6dso\lsm6dso_reg.c ****   return ret;
 1855              		.loc 1 71 9 view .LVU492
 1856 0044 2668     		ldr	r6, [r4]
 1857 0046 A068     		ldr	r0, [r4, #8]
 1858              	.LVL117:
  71:D:/fchai/work/i-cube/I-CUBE-HUAWEI/Drivers/BSP/Components/lsm6dso\lsm6dso_reg.c ****   return ret;
 1859              		.loc 1 71 9 view .LVU493
 1860              	.LBE1077:
 1861              	.LBE1076:
 1862              		.loc 1 712 24 view .LVU494
 1863 0048 65F30413 		bfi	r3, r5, #4, #1
 1864 004c 8DF80430 		strb	r3, [sp, #4]
 713:D:/fchai/work/i-cube/I-CUBE-HUAWEI/Drivers/BSP/Components/lsm6dso\lsm6dso_reg.c ****     ret = lsm6dso_write_reg(ctx, LSM6DSO_CTRL6_C, (uint8_t*) &ctrl6_c, 1);
 1865              		.loc 1 713 5 is_stmt 1 view .LVU495
 1866              	.LVL118:
 1867              	.LBB1079:
 1868              	.LBI1076:
  67:D:/fchai/work/i-cube/I-CUBE-HUAWEI/Drivers/BSP/Components/lsm6dso\lsm6dso_reg.c ****                           uint16_t len)
 1869              		.loc 1 67 9 view .LVU496
 1870              	.LBB1078:
  70:D:/fchai/work/i-cube/I-CUBE-HUAWEI/Drivers/BSP/Components/lsm6dso\lsm6dso_reg.c ****   ret = ctx->write_reg(ctx->handle, reg, data, len);
 1871              		.loc 1 70 3 view .LVU497
  71:D:/fchai/work/i-cube/I-CUBE-HUAWEI/Drivers/BSP/Components/lsm6dso\lsm6dso_reg.c ****   return ret;
 1872              		.loc 1 71 3 view .LVU498
  71:D:/fchai/work/i-cube/I-CUBE-HUAWEI/Drivers/BSP/Components/lsm6dso\lsm6dso_reg.c ****   return ret;
 1873              		.loc 1 71 9 is_stmt 0 view .LVU499
 1874 0050 01AA     		add	r2, sp, #4
 1875              	.LVL119:
  71:D:/fchai/work/i-cube/I-CUBE-HUAWEI/Drivers/BSP/Components/lsm6dso\lsm6dso_reg.c ****   return ret;
 1876              		.loc 1 71 9 view .LVU500
 1877 0052 0123     		movs	r3, #1
 1878 0054 1521     		movs	r1, #21
 1879 0056 B047     		blx	r6
 1880              	.LVL120:
  72:D:/fchai/work/i-cube/I-CUBE-HUAWEI/Drivers/BSP/Components/lsm6dso\lsm6dso_reg.c **** }
 1881              		.loc 1 72 3 is_stmt 1 view .LVU501
  72:D:/fchai/work/i-cube/I-CUBE-HUAWEI/Drivers/BSP/Components/lsm6dso\lsm6dso_reg.c **** }
 1882              		.loc 1 72 3 is_stmt 0 view .LVU502
 1883              	.LBE1078:
 1884              	.LBE1079:
 714:D:/fchai/work/i-cube/I-CUBE-HUAWEI/Drivers/BSP/Components/lsm6dso\lsm6dso_reg.c ****   }
 715:D:/fchai/work/i-cube/I-CUBE-HUAWEI/Drivers/BSP/Components/lsm6dso\lsm6dso_reg.c ****   return ret;
 1885              		.loc 1 715 3 is_stmt 1 view .LVU503
 1886              	.L105:
 716:D:/fchai/work/i-cube/I-CUBE-HUAWEI/Drivers/BSP/Components/lsm6dso\lsm6dso_reg.c **** }
 1887              		.loc 1 716 1 is_stmt 0 view .LVU504
 1888 0058 02B0     		add	sp, sp, #8
 1889              	.LCFI48:
 1890              		.cfi_def_cfa_offset 16
 1891              		@ sp needed
 1892 005a 70BD     		pop	{r4, r5, r6, pc}
 1893              		.loc 1 716 1 view .LVU505
 1894              		.cfi_endproc
 1895              	.LFE25:
 1897              		.section	.text.lsm6dso_xl_power_mode_get,"ax",%progbits
ARM GAS  T:\msys\tmp\ccaXiy3K.s 			page 51


 1898              		.align	1
 1899              		.p2align 2,,3
 1900              		.global	lsm6dso_xl_power_mode_get
 1901              		.syntax unified
 1902              		.thumb
 1903              		.thumb_func
 1904              		.fpu fpv4-sp-d16
 1906              	lsm6dso_xl_power_mode_get:
 1907              	.LVL121:
 1908              	.LFB26:
 717:D:/fchai/work/i-cube/I-CUBE-HUAWEI/Drivers/BSP/Components/lsm6dso\lsm6dso_reg.c **** 
 718:D:/fchai/work/i-cube/I-CUBE-HUAWEI/Drivers/BSP/Components/lsm6dso\lsm6dso_reg.c **** /**
 719:D:/fchai/work/i-cube/I-CUBE-HUAWEI/Drivers/BSP/Components/lsm6dso\lsm6dso_reg.c ****   * @brief  Accelerometer power mode.[get]
 720:D:/fchai/work/i-cube/I-CUBE-HUAWEI/Drivers/BSP/Components/lsm6dso\lsm6dso_reg.c ****   *
 721:D:/fchai/work/i-cube/I-CUBE-HUAWEI/Drivers/BSP/Components/lsm6dso\lsm6dso_reg.c ****   * @param  ctx      read / write interface definitions
 722:D:/fchai/work/i-cube/I-CUBE-HUAWEI/Drivers/BSP/Components/lsm6dso\lsm6dso_reg.c ****   * @param  val      Get the values of xl_hm_mode in reg CTRL6_C
 723:D:/fchai/work/i-cube/I-CUBE-HUAWEI/Drivers/BSP/Components/lsm6dso\lsm6dso_reg.c ****   *
 724:D:/fchai/work/i-cube/I-CUBE-HUAWEI/Drivers/BSP/Components/lsm6dso\lsm6dso_reg.c ****   */
 725:D:/fchai/work/i-cube/I-CUBE-HUAWEI/Drivers/BSP/Components/lsm6dso\lsm6dso_reg.c **** int32_t lsm6dso_xl_power_mode_get(stmdev_ctx_t *ctx,
 726:D:/fchai/work/i-cube/I-CUBE-HUAWEI/Drivers/BSP/Components/lsm6dso\lsm6dso_reg.c ****                                   lsm6dso_xl_hm_mode_t *val)
 727:D:/fchai/work/i-cube/I-CUBE-HUAWEI/Drivers/BSP/Components/lsm6dso\lsm6dso_reg.c **** {
 1909              		.loc 1 727 1 is_stmt 1 view -0
 1910              		.cfi_startproc
 1911              		@ args = 0, pretend = 0, frame = 8
 1912              		@ frame_needed = 0, uses_anonymous_args = 0
 728:D:/fchai/work/i-cube/I-CUBE-HUAWEI/Drivers/BSP/Components/lsm6dso\lsm6dso_reg.c ****   lsm6dso_ctrl5_c_t ctrl5_c;
 1913              		.loc 1 728 3 view .LVU507
 729:D:/fchai/work/i-cube/I-CUBE-HUAWEI/Drivers/BSP/Components/lsm6dso\lsm6dso_reg.c ****   lsm6dso_ctrl6_c_t ctrl6_c;
 1914              		.loc 1 729 3 view .LVU508
 730:D:/fchai/work/i-cube/I-CUBE-HUAWEI/Drivers/BSP/Components/lsm6dso\lsm6dso_reg.c ****   int32_t ret;
 1915              		.loc 1 730 3 view .LVU509
 731:D:/fchai/work/i-cube/I-CUBE-HUAWEI/Drivers/BSP/Components/lsm6dso\lsm6dso_reg.c **** 
 732:D:/fchai/work/i-cube/I-CUBE-HUAWEI/Drivers/BSP/Components/lsm6dso\lsm6dso_reg.c ****   ret = lsm6dso_read_reg(ctx, LSM6DSO_CTRL5_C, (uint8_t*) &ctrl5_c, 1);
 1916              		.loc 1 732 3 view .LVU510
 727:D:/fchai/work/i-cube/I-CUBE-HUAWEI/Drivers/BSP/Components/lsm6dso\lsm6dso_reg.c ****   lsm6dso_ctrl5_c_t ctrl5_c;
 1917              		.loc 1 727 1 is_stmt 0 view .LVU511
 1918 0000 70B5     		push	{r4, r5, r6, lr}
 1919              	.LCFI49:
 1920              		.cfi_def_cfa_offset 16
 1921              		.cfi_offset 4, -16
 1922              		.cfi_offset 5, -12
 1923              		.cfi_offset 6, -8
 1924              		.cfi_offset 14, -4
 1925 0002 82B0     		sub	sp, sp, #8
 1926              	.LCFI50:
 1927              		.cfi_def_cfa_offset 24
 727:D:/fchai/work/i-cube/I-CUBE-HUAWEI/Drivers/BSP/Components/lsm6dso\lsm6dso_reg.c ****   lsm6dso_ctrl5_c_t ctrl5_c;
 1928              		.loc 1 727 1 view .LVU512
 1929 0004 0446     		mov	r4, r0
 1930              	.LVL122:
 1931              	.LBB1080:
 1932              	.LBI1080:
  49:D:/fchai/work/i-cube/I-CUBE-HUAWEI/Drivers/BSP/Components/lsm6dso\lsm6dso_reg.c ****                          uint16_t len)
 1933              		.loc 1 49 9 is_stmt 1 view .LVU513
 1934              	.LBB1081:
  52:D:/fchai/work/i-cube/I-CUBE-HUAWEI/Drivers/BSP/Components/lsm6dso\lsm6dso_reg.c ****   ret = ctx->read_reg(ctx->handle, reg, data, len);
 1935              		.loc 1 52 3 view .LVU514
ARM GAS  T:\msys\tmp\ccaXiy3K.s 			page 52


  53:D:/fchai/work/i-cube/I-CUBE-HUAWEI/Drivers/BSP/Components/lsm6dso\lsm6dso_reg.c ****   return ret;
 1936              		.loc 1 53 3 view .LVU515
 1937              	.LBE1081:
 1938              	.LBE1080:
 727:D:/fchai/work/i-cube/I-CUBE-HUAWEI/Drivers/BSP/Components/lsm6dso\lsm6dso_reg.c ****   lsm6dso_ctrl5_c_t ctrl5_c;
 1939              		.loc 1 727 1 is_stmt 0 view .LVU516
 1940 0006 0D46     		mov	r5, r1
 1941              	.LBB1083:
 1942              	.LBB1082:
  53:D:/fchai/work/i-cube/I-CUBE-HUAWEI/Drivers/BSP/Components/lsm6dso\lsm6dso_reg.c ****   return ret;
 1943              		.loc 1 53 9 view .LVU517
 1944 0008 D0E90160 		ldrd	r6, r0, [r0, #4]
 1945              	.LVL123:
  53:D:/fchai/work/i-cube/I-CUBE-HUAWEI/Drivers/BSP/Components/lsm6dso\lsm6dso_reg.c ****   return ret;
 1946              		.loc 1 53 9 view .LVU518
 1947 000c 0123     		movs	r3, #1
 1948 000e 6A46     		mov	r2, sp
 1949 0010 1421     		movs	r1, #20
 1950              	.LVL124:
  53:D:/fchai/work/i-cube/I-CUBE-HUAWEI/Drivers/BSP/Components/lsm6dso\lsm6dso_reg.c ****   return ret;
 1951              		.loc 1 53 9 view .LVU519
 1952 0012 B047     		blx	r6
 1953              	.LVL125:
  54:D:/fchai/work/i-cube/I-CUBE-HUAWEI/Drivers/BSP/Components/lsm6dso\lsm6dso_reg.c **** }
 1954              		.loc 1 54 3 is_stmt 1 view .LVU520
  54:D:/fchai/work/i-cube/I-CUBE-HUAWEI/Drivers/BSP/Components/lsm6dso\lsm6dso_reg.c **** }
 1955              		.loc 1 54 3 is_stmt 0 view .LVU521
 1956              	.LBE1082:
 1957              	.LBE1083:
 733:D:/fchai/work/i-cube/I-CUBE-HUAWEI/Drivers/BSP/Components/lsm6dso\lsm6dso_reg.c ****   if (ret == 0) {
 1958              		.loc 1 733 3 is_stmt 1 view .LVU522
 1959              		.loc 1 733 6 is_stmt 0 view .LVU523
 1960 0014 A0B9     		cbnz	r0, .L108
 734:D:/fchai/work/i-cube/I-CUBE-HUAWEI/Drivers/BSP/Components/lsm6dso\lsm6dso_reg.c ****     ret = lsm6dso_read_reg(ctx, LSM6DSO_CTRL6_C, (uint8_t*) &ctrl6_c, 1);
 1961              		.loc 1 734 5 is_stmt 1 view .LVU524
 1962              	.LVL126:
 1963              	.LBB1084:
 1964              	.LBI1084:
  49:D:/fchai/work/i-cube/I-CUBE-HUAWEI/Drivers/BSP/Components/lsm6dso\lsm6dso_reg.c ****                          uint16_t len)
 1965              		.loc 1 49 9 view .LVU525
 1966              	.LBB1085:
  52:D:/fchai/work/i-cube/I-CUBE-HUAWEI/Drivers/BSP/Components/lsm6dso\lsm6dso_reg.c ****   ret = ctx->read_reg(ctx->handle, reg, data, len);
 1967              		.loc 1 52 3 view .LVU526
  53:D:/fchai/work/i-cube/I-CUBE-HUAWEI/Drivers/BSP/Components/lsm6dso\lsm6dso_reg.c ****   return ret;
 1968              		.loc 1 53 3 view .LVU527
  53:D:/fchai/work/i-cube/I-CUBE-HUAWEI/Drivers/BSP/Components/lsm6dso\lsm6dso_reg.c ****   return ret;
 1969              		.loc 1 53 9 is_stmt 0 view .LVU528
 1970 0016 0123     		movs	r3, #1
 1971 0018 01AA     		add	r2, sp, #4
 1972              	.LVL127:
  53:D:/fchai/work/i-cube/I-CUBE-HUAWEI/Drivers/BSP/Components/lsm6dso\lsm6dso_reg.c ****   return ret;
 1973              		.loc 1 53 9 view .LVU529
 1974 001a D4E90160 		ldrd	r6, r0, [r4, #4]
 1975              	.LVL128:
  53:D:/fchai/work/i-cube/I-CUBE-HUAWEI/Drivers/BSP/Components/lsm6dso\lsm6dso_reg.c ****   return ret;
 1976              		.loc 1 53 9 view .LVU530
 1977 001e 1521     		movs	r1, #21
ARM GAS  T:\msys\tmp\ccaXiy3K.s 			page 53


 1978 0020 B047     		blx	r6
 1979              	.LVL129:
  53:D:/fchai/work/i-cube/I-CUBE-HUAWEI/Drivers/BSP/Components/lsm6dso\lsm6dso_reg.c ****   return ret;
 1980              		.loc 1 53 9 view .LVU531
 1981              	.LBE1085:
 1982              	.LBE1084:
 735:D:/fchai/work/i-cube/I-CUBE-HUAWEI/Drivers/BSP/Components/lsm6dso\lsm6dso_reg.c ****     switch ( (ctrl5_c.xl_ulp_en << 1) | ctrl6_c.xl_hm_mode) {
 1983              		.loc 1 735 22 view .LVU532
 1984 0022 9DF80020 		ldrb	r2, [sp]	@ zero_extendqisi2
 1985              		.loc 1 735 48 view .LVU533
 1986 0026 9DF80430 		ldrb	r3, [sp, #4]	@ zero_extendqisi2
 1987              		.loc 1 735 22 view .LVU534
 1988 002a D209     		lsrs	r2, r2, #7
 1989              		.loc 1 735 48 view .LVU535
 1990 002c C3F30013 		ubfx	r3, r3, #4, #1
 1991              		.loc 1 735 39 view .LVU536
 1992 0030 43EA4203 		orr	r3, r3, r2, lsl #1
 1993              	.LVL130:
 1994              	.LBB1087:
 1995              	.LBB1086:
  54:D:/fchai/work/i-cube/I-CUBE-HUAWEI/Drivers/BSP/Components/lsm6dso\lsm6dso_reg.c **** }
 1996              		.loc 1 54 3 is_stmt 1 view .LVU537
  54:D:/fchai/work/i-cube/I-CUBE-HUAWEI/Drivers/BSP/Components/lsm6dso\lsm6dso_reg.c **** }
 1997              		.loc 1 54 3 is_stmt 0 view .LVU538
 1998              	.LBE1086:
 1999              	.LBE1087:
 2000              		.loc 1 735 5 is_stmt 1 view .LVU539
 2001 0034 012B     		cmp	r3, #1
 2002 0036 02D0     		beq	.L115
 2003 0038 022B     		cmp	r3, #2
 736:D:/fchai/work/i-cube/I-CUBE-HUAWEI/Drivers/BSP/Components/lsm6dso\lsm6dso_reg.c ****       case LSM6DSO_HIGH_PERFORMANCE_MD:
 737:D:/fchai/work/i-cube/I-CUBE-HUAWEI/Drivers/BSP/Components/lsm6dso\lsm6dso_reg.c ****         *val = LSM6DSO_HIGH_PERFORMANCE_MD;
 738:D:/fchai/work/i-cube/I-CUBE-HUAWEI/Drivers/BSP/Components/lsm6dso\lsm6dso_reg.c ****         break;
 739:D:/fchai/work/i-cube/I-CUBE-HUAWEI/Drivers/BSP/Components/lsm6dso\lsm6dso_reg.c ****       case LSM6DSO_LOW_NORMAL_POWER_MD:
 740:D:/fchai/work/i-cube/I-CUBE-HUAWEI/Drivers/BSP/Components/lsm6dso\lsm6dso_reg.c ****         *val = LSM6DSO_LOW_NORMAL_POWER_MD;
 741:D:/fchai/work/i-cube/I-CUBE-HUAWEI/Drivers/BSP/Components/lsm6dso\lsm6dso_reg.c ****         break;
 742:D:/fchai/work/i-cube/I-CUBE-HUAWEI/Drivers/BSP/Components/lsm6dso\lsm6dso_reg.c ****       case LSM6DSO_ULTRA_LOW_POWER_MD:
 743:D:/fchai/work/i-cube/I-CUBE-HUAWEI/Drivers/BSP/Components/lsm6dso\lsm6dso_reg.c ****         *val = LSM6DSO_ULTRA_LOW_POWER_MD;
 744:D:/fchai/work/i-cube/I-CUBE-HUAWEI/Drivers/BSP/Components/lsm6dso\lsm6dso_reg.c ****         break;
 745:D:/fchai/work/i-cube/I-CUBE-HUAWEI/Drivers/BSP/Components/lsm6dso\lsm6dso_reg.c ****       default:
 746:D:/fchai/work/i-cube/I-CUBE-HUAWEI/Drivers/BSP/Components/lsm6dso\lsm6dso_reg.c ****         *val = LSM6DSO_HIGH_PERFORMANCE_MD;
 2004              		.loc 1 746 9 view .LVU540
 2005              		.loc 1 746 14 is_stmt 0 view .LVU541
 2006 003a 18BF     		it	ne
 2007 003c 0023     		movne	r3, #0
 2008              	.L115:
 2009 003e 2B70     		strb	r3, [r5]
 747:D:/fchai/work/i-cube/I-CUBE-HUAWEI/Drivers/BSP/Components/lsm6dso\lsm6dso_reg.c ****         break;
 2010              		.loc 1 747 9 is_stmt 1 view .LVU542
 748:D:/fchai/work/i-cube/I-CUBE-HUAWEI/Drivers/BSP/Components/lsm6dso\lsm6dso_reg.c ****     }
 749:D:/fchai/work/i-cube/I-CUBE-HUAWEI/Drivers/BSP/Components/lsm6dso\lsm6dso_reg.c ****   }
 750:D:/fchai/work/i-cube/I-CUBE-HUAWEI/Drivers/BSP/Components/lsm6dso\lsm6dso_reg.c ****   return ret;
 2011              		.loc 1 750 3 view .LVU543
 2012              	.L108:
 751:D:/fchai/work/i-cube/I-CUBE-HUAWEI/Drivers/BSP/Components/lsm6dso\lsm6dso_reg.c **** }
 2013              		.loc 1 751 1 is_stmt 0 view .LVU544
 2014 0040 02B0     		add	sp, sp, #8
ARM GAS  T:\msys\tmp\ccaXiy3K.s 			page 54


 2015              	.LCFI51:
 2016              		.cfi_def_cfa_offset 16
 2017              		@ sp needed
 2018 0042 70BD     		pop	{r4, r5, r6, pc}
 2019              		.loc 1 751 1 view .LVU545
 2020              		.cfi_endproc
 2021              	.LFE26:
 2023              		.section	.text.lsm6dso_gy_power_mode_set,"ax",%progbits
 2024              		.align	1
 2025              		.p2align 2,,3
 2026              		.global	lsm6dso_gy_power_mode_set
 2027              		.syntax unified
 2028              		.thumb
 2029              		.thumb_func
 2030              		.fpu fpv4-sp-d16
 2032              	lsm6dso_gy_power_mode_set:
 2033              	.LVL131:
 2034              	.LFB27:
 752:D:/fchai/work/i-cube/I-CUBE-HUAWEI/Drivers/BSP/Components/lsm6dso\lsm6dso_reg.c **** 
 753:D:/fchai/work/i-cube/I-CUBE-HUAWEI/Drivers/BSP/Components/lsm6dso\lsm6dso_reg.c **** /**
 754:D:/fchai/work/i-cube/I-CUBE-HUAWEI/Drivers/BSP/Components/lsm6dso\lsm6dso_reg.c ****   * @brief  Operating mode for gyroscope.[set]
 755:D:/fchai/work/i-cube/I-CUBE-HUAWEI/Drivers/BSP/Components/lsm6dso\lsm6dso_reg.c ****   *
 756:D:/fchai/work/i-cube/I-CUBE-HUAWEI/Drivers/BSP/Components/lsm6dso\lsm6dso_reg.c ****   * @param  ctx      read / write interface definitions
 757:D:/fchai/work/i-cube/I-CUBE-HUAWEI/Drivers/BSP/Components/lsm6dso\lsm6dso_reg.c ****   * @param  val      change the values of g_hm_mode in reg CTRL7_G
 758:D:/fchai/work/i-cube/I-CUBE-HUAWEI/Drivers/BSP/Components/lsm6dso\lsm6dso_reg.c ****   *
 759:D:/fchai/work/i-cube/I-CUBE-HUAWEI/Drivers/BSP/Components/lsm6dso\lsm6dso_reg.c ****   */
 760:D:/fchai/work/i-cube/I-CUBE-HUAWEI/Drivers/BSP/Components/lsm6dso\lsm6dso_reg.c **** int32_t lsm6dso_gy_power_mode_set(stmdev_ctx_t *ctx,
 761:D:/fchai/work/i-cube/I-CUBE-HUAWEI/Drivers/BSP/Components/lsm6dso\lsm6dso_reg.c ****                                   lsm6dso_g_hm_mode_t val)
 762:D:/fchai/work/i-cube/I-CUBE-HUAWEI/Drivers/BSP/Components/lsm6dso\lsm6dso_reg.c **** {
 2035              		.loc 1 762 1 is_stmt 1 view -0
 2036              		.cfi_startproc
 2037              		@ args = 0, pretend = 0, frame = 8
 2038              		@ frame_needed = 0, uses_anonymous_args = 0
 763:D:/fchai/work/i-cube/I-CUBE-HUAWEI/Drivers/BSP/Components/lsm6dso\lsm6dso_reg.c ****   lsm6dso_ctrl7_g_t reg;
 2039              		.loc 1 763 3 view .LVU547
 764:D:/fchai/work/i-cube/I-CUBE-HUAWEI/Drivers/BSP/Components/lsm6dso\lsm6dso_reg.c ****   int32_t ret;
 2040              		.loc 1 764 3 view .LVU548
 765:D:/fchai/work/i-cube/I-CUBE-HUAWEI/Drivers/BSP/Components/lsm6dso\lsm6dso_reg.c **** 
 766:D:/fchai/work/i-cube/I-CUBE-HUAWEI/Drivers/BSP/Components/lsm6dso\lsm6dso_reg.c ****   ret = lsm6dso_read_reg(ctx, LSM6DSO_CTRL7_G, (uint8_t*)&reg, 1);
 2041              		.loc 1 766 3 view .LVU549
 762:D:/fchai/work/i-cube/I-CUBE-HUAWEI/Drivers/BSP/Components/lsm6dso\lsm6dso_reg.c ****   lsm6dso_ctrl7_g_t reg;
 2042              		.loc 1 762 1 is_stmt 0 view .LVU550
 2043 0000 70B5     		push	{r4, r5, r6, lr}
 2044              	.LCFI52:
 2045              		.cfi_def_cfa_offset 16
 2046              		.cfi_offset 4, -16
 2047              		.cfi_offset 5, -12
 2048              		.cfi_offset 6, -8
 2049              		.cfi_offset 14, -4
 2050 0002 82B0     		sub	sp, sp, #8
 2051              	.LCFI53:
 2052              		.cfi_def_cfa_offset 24
 762:D:/fchai/work/i-cube/I-CUBE-HUAWEI/Drivers/BSP/Components/lsm6dso\lsm6dso_reg.c ****   lsm6dso_ctrl7_g_t reg;
 2053              		.loc 1 762 1 view .LVU551
 2054 0004 0446     		mov	r4, r0
 2055              	.LVL132:
 2056              	.LBB1088:
ARM GAS  T:\msys\tmp\ccaXiy3K.s 			page 55


 2057              	.LBI1088:
  49:D:/fchai/work/i-cube/I-CUBE-HUAWEI/Drivers/BSP/Components/lsm6dso\lsm6dso_reg.c ****                          uint16_t len)
 2058              		.loc 1 49 9 is_stmt 1 view .LVU552
 2059              	.LBB1089:
  52:D:/fchai/work/i-cube/I-CUBE-HUAWEI/Drivers/BSP/Components/lsm6dso\lsm6dso_reg.c ****   ret = ctx->read_reg(ctx->handle, reg, data, len);
 2060              		.loc 1 52 3 view .LVU553
  53:D:/fchai/work/i-cube/I-CUBE-HUAWEI/Drivers/BSP/Components/lsm6dso\lsm6dso_reg.c ****   return ret;
 2061              		.loc 1 53 3 view .LVU554
 2062              	.LBE1089:
 2063              	.LBE1088:
 762:D:/fchai/work/i-cube/I-CUBE-HUAWEI/Drivers/BSP/Components/lsm6dso\lsm6dso_reg.c ****   lsm6dso_ctrl7_g_t reg;
 2064              		.loc 1 762 1 is_stmt 0 view .LVU555
 2065 0006 0D46     		mov	r5, r1
 2066              	.LBB1091:
 2067              	.LBB1090:
  53:D:/fchai/work/i-cube/I-CUBE-HUAWEI/Drivers/BSP/Components/lsm6dso\lsm6dso_reg.c ****   return ret;
 2068              		.loc 1 53 9 view .LVU556
 2069 0008 D0E90160 		ldrd	r6, r0, [r0, #4]
 2070              	.LVL133:
  53:D:/fchai/work/i-cube/I-CUBE-HUAWEI/Drivers/BSP/Components/lsm6dso\lsm6dso_reg.c ****   return ret;
 2071              		.loc 1 53 9 view .LVU557
 2072 000c 01AA     		add	r2, sp, #4
 2073              	.LVL134:
  53:D:/fchai/work/i-cube/I-CUBE-HUAWEI/Drivers/BSP/Components/lsm6dso\lsm6dso_reg.c ****   return ret;
 2074              		.loc 1 53 9 view .LVU558
 2075 000e 0123     		movs	r3, #1
 2076 0010 1621     		movs	r1, #22
 2077              	.LVL135:
  53:D:/fchai/work/i-cube/I-CUBE-HUAWEI/Drivers/BSP/Components/lsm6dso\lsm6dso_reg.c ****   return ret;
 2078              		.loc 1 53 9 view .LVU559
 2079 0012 B047     		blx	r6
 2080              	.LVL136:
  54:D:/fchai/work/i-cube/I-CUBE-HUAWEI/Drivers/BSP/Components/lsm6dso\lsm6dso_reg.c **** }
 2081              		.loc 1 54 3 is_stmt 1 view .LVU560
  54:D:/fchai/work/i-cube/I-CUBE-HUAWEI/Drivers/BSP/Components/lsm6dso\lsm6dso_reg.c **** }
 2082              		.loc 1 54 3 is_stmt 0 view .LVU561
 2083              	.LBE1090:
 2084              	.LBE1091:
 767:D:/fchai/work/i-cube/I-CUBE-HUAWEI/Drivers/BSP/Components/lsm6dso\lsm6dso_reg.c ****   if (ret == 0) {
 2085              		.loc 1 767 3 is_stmt 1 view .LVU562
 2086              		.loc 1 767 6 is_stmt 0 view .LVU563
 2087 0014 58B9     		cbnz	r0, .L116
 768:D:/fchai/work/i-cube/I-CUBE-HUAWEI/Drivers/BSP/Components/lsm6dso\lsm6dso_reg.c ****     reg.g_hm_mode = (uint8_t)val;
 2088              		.loc 1 768 5 is_stmt 1 view .LVU564
 2089              		.loc 1 768 19 is_stmt 0 view .LVU565
 2090 0016 9DF80430 		ldrb	r3, [sp, #4]	@ zero_extendqisi2
 2091              	.LBB1092:
 2092              	.LBB1093:
  71:D:/fchai/work/i-cube/I-CUBE-HUAWEI/Drivers/BSP/Components/lsm6dso\lsm6dso_reg.c ****   return ret;
 2093              		.loc 1 71 9 view .LVU566
 2094 001a 2668     		ldr	r6, [r4]
 2095 001c A068     		ldr	r0, [r4, #8]
 2096              	.LVL137:
  71:D:/fchai/work/i-cube/I-CUBE-HUAWEI/Drivers/BSP/Components/lsm6dso\lsm6dso_reg.c ****   return ret;
 2097              		.loc 1 71 9 view .LVU567
 2098              	.LBE1093:
 2099              	.LBE1092:
ARM GAS  T:\msys\tmp\ccaXiy3K.s 			page 56


 2100              		.loc 1 768 19 view .LVU568
 2101 001e 65F3C713 		bfi	r3, r5, #7, #1
 2102 0022 8DF80430 		strb	r3, [sp, #4]
 769:D:/fchai/work/i-cube/I-CUBE-HUAWEI/Drivers/BSP/Components/lsm6dso\lsm6dso_reg.c ****     ret = lsm6dso_write_reg(ctx, LSM6DSO_CTRL7_G, (uint8_t*)&reg, 1);
 2103              		.loc 1 769 5 is_stmt 1 view .LVU569
 2104              	.LVL138:
 2105              	.LBB1095:
 2106              	.LBI1092:
  67:D:/fchai/work/i-cube/I-CUBE-HUAWEI/Drivers/BSP/Components/lsm6dso\lsm6dso_reg.c ****                           uint16_t len)
 2107              		.loc 1 67 9 view .LVU570
 2108              	.LBB1094:
  70:D:/fchai/work/i-cube/I-CUBE-HUAWEI/Drivers/BSP/Components/lsm6dso\lsm6dso_reg.c ****   ret = ctx->write_reg(ctx->handle, reg, data, len);
 2109              		.loc 1 70 3 view .LVU571
  71:D:/fchai/work/i-cube/I-CUBE-HUAWEI/Drivers/BSP/Components/lsm6dso\lsm6dso_reg.c ****   return ret;
 2110              		.loc 1 71 3 view .LVU572
  71:D:/fchai/work/i-cube/I-CUBE-HUAWEI/Drivers/BSP/Components/lsm6dso\lsm6dso_reg.c ****   return ret;
 2111              		.loc 1 71 9 is_stmt 0 view .LVU573
 2112 0026 01AA     		add	r2, sp, #4
 2113              	.LVL139:
  71:D:/fchai/work/i-cube/I-CUBE-HUAWEI/Drivers/BSP/Components/lsm6dso\lsm6dso_reg.c ****   return ret;
 2114              		.loc 1 71 9 view .LVU574
 2115 0028 0123     		movs	r3, #1
 2116 002a 1621     		movs	r1, #22
 2117 002c B047     		blx	r6
 2118              	.LVL140:
  72:D:/fchai/work/i-cube/I-CUBE-HUAWEI/Drivers/BSP/Components/lsm6dso\lsm6dso_reg.c **** }
 2119              		.loc 1 72 3 is_stmt 1 view .LVU575
  72:D:/fchai/work/i-cube/I-CUBE-HUAWEI/Drivers/BSP/Components/lsm6dso\lsm6dso_reg.c **** }
 2120              		.loc 1 72 3 is_stmt 0 view .LVU576
 2121              	.LBE1094:
 2122              	.LBE1095:
 770:D:/fchai/work/i-cube/I-CUBE-HUAWEI/Drivers/BSP/Components/lsm6dso\lsm6dso_reg.c ****   }
 771:D:/fchai/work/i-cube/I-CUBE-HUAWEI/Drivers/BSP/Components/lsm6dso\lsm6dso_reg.c ****   return ret;
 2123              		.loc 1 771 3 is_stmt 1 view .LVU577
 2124              	.L116:
 772:D:/fchai/work/i-cube/I-CUBE-HUAWEI/Drivers/BSP/Components/lsm6dso\lsm6dso_reg.c **** }
 2125              		.loc 1 772 1 is_stmt 0 view .LVU578
 2126 002e 02B0     		add	sp, sp, #8
 2127              	.LCFI54:
 2128              		.cfi_def_cfa_offset 16
 2129              		@ sp needed
 2130 0030 70BD     		pop	{r4, r5, r6, pc}
 2131              		.loc 1 772 1 view .LVU579
 2132              		.cfi_endproc
 2133              	.LFE27:
 2135 0032 00BF     		.section	.text.lsm6dso_gy_power_mode_get,"ax",%progbits
 2136              		.align	1
 2137              		.p2align 2,,3
 2138              		.global	lsm6dso_gy_power_mode_get
 2139              		.syntax unified
 2140              		.thumb
 2141              		.thumb_func
 2142              		.fpu fpv4-sp-d16
 2144              	lsm6dso_gy_power_mode_get:
 2145              	.LVL141:
 2146              	.LFB28:
 773:D:/fchai/work/i-cube/I-CUBE-HUAWEI/Drivers/BSP/Components/lsm6dso\lsm6dso_reg.c **** 
ARM GAS  T:\msys\tmp\ccaXiy3K.s 			page 57


 774:D:/fchai/work/i-cube/I-CUBE-HUAWEI/Drivers/BSP/Components/lsm6dso\lsm6dso_reg.c **** /**
 775:D:/fchai/work/i-cube/I-CUBE-HUAWEI/Drivers/BSP/Components/lsm6dso\lsm6dso_reg.c ****   * @brief  Operating mode for gyroscope.[get]
 776:D:/fchai/work/i-cube/I-CUBE-HUAWEI/Drivers/BSP/Components/lsm6dso\lsm6dso_reg.c ****   *
 777:D:/fchai/work/i-cube/I-CUBE-HUAWEI/Drivers/BSP/Components/lsm6dso\lsm6dso_reg.c ****   * @param  ctx      read / write interface definitions
 778:D:/fchai/work/i-cube/I-CUBE-HUAWEI/Drivers/BSP/Components/lsm6dso\lsm6dso_reg.c ****   * @param  val      Get the values of g_hm_mode in reg CTRL7_G
 779:D:/fchai/work/i-cube/I-CUBE-HUAWEI/Drivers/BSP/Components/lsm6dso\lsm6dso_reg.c ****   *
 780:D:/fchai/work/i-cube/I-CUBE-HUAWEI/Drivers/BSP/Components/lsm6dso\lsm6dso_reg.c ****   */
 781:D:/fchai/work/i-cube/I-CUBE-HUAWEI/Drivers/BSP/Components/lsm6dso\lsm6dso_reg.c **** int32_t lsm6dso_gy_power_mode_get(stmdev_ctx_t *ctx,
 782:D:/fchai/work/i-cube/I-CUBE-HUAWEI/Drivers/BSP/Components/lsm6dso\lsm6dso_reg.c ****                                   lsm6dso_g_hm_mode_t *val)
 783:D:/fchai/work/i-cube/I-CUBE-HUAWEI/Drivers/BSP/Components/lsm6dso\lsm6dso_reg.c **** {
 2147              		.loc 1 783 1 is_stmt 1 view -0
 2148              		.cfi_startproc
 2149              		@ args = 0, pretend = 0, frame = 8
 2150              		@ frame_needed = 0, uses_anonymous_args = 0
 784:D:/fchai/work/i-cube/I-CUBE-HUAWEI/Drivers/BSP/Components/lsm6dso\lsm6dso_reg.c ****   lsm6dso_ctrl7_g_t reg;
 2151              		.loc 1 784 3 view .LVU581
 785:D:/fchai/work/i-cube/I-CUBE-HUAWEI/Drivers/BSP/Components/lsm6dso\lsm6dso_reg.c ****   int32_t ret;
 2152              		.loc 1 785 3 view .LVU582
 786:D:/fchai/work/i-cube/I-CUBE-HUAWEI/Drivers/BSP/Components/lsm6dso\lsm6dso_reg.c **** 
 787:D:/fchai/work/i-cube/I-CUBE-HUAWEI/Drivers/BSP/Components/lsm6dso\lsm6dso_reg.c ****   ret = lsm6dso_read_reg(ctx, LSM6DSO_CTRL7_G, (uint8_t*)&reg, 1);
 2153              		.loc 1 787 3 view .LVU583
 783:D:/fchai/work/i-cube/I-CUBE-HUAWEI/Drivers/BSP/Components/lsm6dso\lsm6dso_reg.c ****   lsm6dso_ctrl7_g_t reg;
 2154              		.loc 1 783 1 is_stmt 0 view .LVU584
 2155 0000 30B5     		push	{r4, r5, lr}
 2156              	.LCFI55:
 2157              		.cfi_def_cfa_offset 12
 2158              		.cfi_offset 4, -12
 2159              		.cfi_offset 5, -8
 2160              		.cfi_offset 14, -4
 2161 0002 83B0     		sub	sp, sp, #12
 2162              	.LCFI56:
 2163              		.cfi_def_cfa_offset 24
 2164              	.LVL142:
 2165              	.LBB1096:
 2166              	.LBI1096:
  49:D:/fchai/work/i-cube/I-CUBE-HUAWEI/Drivers/BSP/Components/lsm6dso\lsm6dso_reg.c ****                          uint16_t len)
 2167              		.loc 1 49 9 is_stmt 1 view .LVU585
 2168              	.LBB1097:
  52:D:/fchai/work/i-cube/I-CUBE-HUAWEI/Drivers/BSP/Components/lsm6dso\lsm6dso_reg.c ****   ret = ctx->read_reg(ctx->handle, reg, data, len);
 2169              		.loc 1 52 3 view .LVU586
  53:D:/fchai/work/i-cube/I-CUBE-HUAWEI/Drivers/BSP/Components/lsm6dso\lsm6dso_reg.c ****   return ret;
 2170              		.loc 1 53 3 view .LVU587
 2171              	.LBE1097:
 2172              	.LBE1096:
 783:D:/fchai/work/i-cube/I-CUBE-HUAWEI/Drivers/BSP/Components/lsm6dso\lsm6dso_reg.c ****   lsm6dso_ctrl7_g_t reg;
 2173              		.loc 1 783 1 is_stmt 0 view .LVU588
 2174 0004 0C46     		mov	r4, r1
 2175              	.LBB1100:
 2176              	.LBB1098:
  53:D:/fchai/work/i-cube/I-CUBE-HUAWEI/Drivers/BSP/Components/lsm6dso\lsm6dso_reg.c ****   return ret;
 2177              		.loc 1 53 9 view .LVU589
 2178 0006 01AA     		add	r2, sp, #4
 2179              	.LVL143:
  53:D:/fchai/work/i-cube/I-CUBE-HUAWEI/Drivers/BSP/Components/lsm6dso\lsm6dso_reg.c ****   return ret;
 2180              		.loc 1 53 9 view .LVU590
 2181 0008 D0E90150 		ldrd	r5, r0, [r0, #4]
 2182              	.LVL144:
ARM GAS  T:\msys\tmp\ccaXiy3K.s 			page 58


  53:D:/fchai/work/i-cube/I-CUBE-HUAWEI/Drivers/BSP/Components/lsm6dso\lsm6dso_reg.c ****   return ret;
 2183              		.loc 1 53 9 view .LVU591
 2184 000c 0123     		movs	r3, #1
 2185 000e 1621     		movs	r1, #22
 2186              	.LVL145:
  53:D:/fchai/work/i-cube/I-CUBE-HUAWEI/Drivers/BSP/Components/lsm6dso\lsm6dso_reg.c ****   return ret;
 2187              		.loc 1 53 9 view .LVU592
 2188 0010 A847     		blx	r5
 2189              	.LVL146:
  53:D:/fchai/work/i-cube/I-CUBE-HUAWEI/Drivers/BSP/Components/lsm6dso\lsm6dso_reg.c ****   return ret;
 2190              		.loc 1 53 9 view .LVU593
 2191              	.LBE1098:
 2192              	.LBE1100:
 788:D:/fchai/work/i-cube/I-CUBE-HUAWEI/Drivers/BSP/Components/lsm6dso\lsm6dso_reg.c ****   switch (reg.g_hm_mode) {
 2193              		.loc 1 788 14 view .LVU594
 2194 0012 9DF80430 		ldrb	r3, [sp, #4]	@ zero_extendqisi2
 2195              	.LVL147:
 2196              	.LBB1101:
 2197              	.LBB1099:
  54:D:/fchai/work/i-cube/I-CUBE-HUAWEI/Drivers/BSP/Components/lsm6dso\lsm6dso_reg.c **** }
 2198              		.loc 1 54 3 is_stmt 1 view .LVU595
  54:D:/fchai/work/i-cube/I-CUBE-HUAWEI/Drivers/BSP/Components/lsm6dso\lsm6dso_reg.c **** }
 2199              		.loc 1 54 3 is_stmt 0 view .LVU596
 2200              	.LBE1099:
 2201              	.LBE1101:
 2202              		.loc 1 788 3 is_stmt 1 view .LVU597
 2203              		.loc 1 788 14 is_stmt 0 view .LVU598
 2204 0016 C3F3C012 		ubfx	r2, r3, #7, #1
 2205              		.loc 1 788 3 view .LVU599
 2206 001a DB09     		lsrs	r3, r3, #7
 789:D:/fchai/work/i-cube/I-CUBE-HUAWEI/Drivers/BSP/Components/lsm6dso\lsm6dso_reg.c ****     case LSM6DSO_GY_HIGH_PERFORMANCE:
 790:D:/fchai/work/i-cube/I-CUBE-HUAWEI/Drivers/BSP/Components/lsm6dso\lsm6dso_reg.c ****       *val = LSM6DSO_GY_HIGH_PERFORMANCE;
 2207              		.loc 1 790 7 is_stmt 1 view .LVU600
 2208              		.loc 1 790 12 is_stmt 0 view .LVU601
 2209 001c 06BF     		itte	eq
 2210 001e 0023     		moveq	r3, #0
 2211 0020 2370     		strbeq	r3, [r4]
 791:D:/fchai/work/i-cube/I-CUBE-HUAWEI/Drivers/BSP/Components/lsm6dso\lsm6dso_reg.c ****       break;
 2212              		.loc 1 791 7 is_stmt 1 view .LVU602
 792:D:/fchai/work/i-cube/I-CUBE-HUAWEI/Drivers/BSP/Components/lsm6dso\lsm6dso_reg.c ****     case LSM6DSO_GY_NORMAL:
 793:D:/fchai/work/i-cube/I-CUBE-HUAWEI/Drivers/BSP/Components/lsm6dso\lsm6dso_reg.c ****       *val = LSM6DSO_GY_NORMAL;
 2213              		.loc 1 793 7 view .LVU603
 2214              		.loc 1 793 12 is_stmt 0 view .LVU604
 2215 0022 2270     		strbne	r2, [r4]
 794:D:/fchai/work/i-cube/I-CUBE-HUAWEI/Drivers/BSP/Components/lsm6dso\lsm6dso_reg.c ****       break;
 2216              		.loc 1 794 7 is_stmt 1 view .LVU605
 795:D:/fchai/work/i-cube/I-CUBE-HUAWEI/Drivers/BSP/Components/lsm6dso\lsm6dso_reg.c ****     default:
 796:D:/fchai/work/i-cube/I-CUBE-HUAWEI/Drivers/BSP/Components/lsm6dso\lsm6dso_reg.c ****       *val = LSM6DSO_GY_HIGH_PERFORMANCE;
 797:D:/fchai/work/i-cube/I-CUBE-HUAWEI/Drivers/BSP/Components/lsm6dso\lsm6dso_reg.c ****       break;
 798:D:/fchai/work/i-cube/I-CUBE-HUAWEI/Drivers/BSP/Components/lsm6dso\lsm6dso_reg.c ****   }
 799:D:/fchai/work/i-cube/I-CUBE-HUAWEI/Drivers/BSP/Components/lsm6dso\lsm6dso_reg.c ****   return ret;
 2217              		.loc 1 799 3 view .LVU606
 800:D:/fchai/work/i-cube/I-CUBE-HUAWEI/Drivers/BSP/Components/lsm6dso\lsm6dso_reg.c **** }
 2218              		.loc 1 800 1 is_stmt 0 view .LVU607
 2219 0024 03B0     		add	sp, sp, #12
 2220              	.LCFI57:
 2221              		.cfi_def_cfa_offset 12
ARM GAS  T:\msys\tmp\ccaXiy3K.s 			page 59


 2222              		@ sp needed
 2223 0026 30BD     		pop	{r4, r5, pc}
 2224              		.loc 1 800 1 view .LVU608
 2225              		.cfi_endproc
 2226              	.LFE28:
 2228              		.section	.text.lsm6dso_status_reg_get,"ax",%progbits
 2229              		.align	1
 2230              		.p2align 2,,3
 2231              		.global	lsm6dso_status_reg_get
 2232              		.syntax unified
 2233              		.thumb
 2234              		.thumb_func
 2235              		.fpu fpv4-sp-d16
 2237              	lsm6dso_status_reg_get:
 2238              	.LVL148:
 2239              	.LFB30:
 801:D:/fchai/work/i-cube/I-CUBE-HUAWEI/Drivers/BSP/Components/lsm6dso\lsm6dso_reg.c **** 
 802:D:/fchai/work/i-cube/I-CUBE-HUAWEI/Drivers/BSP/Components/lsm6dso\lsm6dso_reg.c **** /**
 803:D:/fchai/work/i-cube/I-CUBE-HUAWEI/Drivers/BSP/Components/lsm6dso\lsm6dso_reg.c ****   * @brief  Read all the interrupt flag of the device.[get]
 804:D:/fchai/work/i-cube/I-CUBE-HUAWEI/Drivers/BSP/Components/lsm6dso\lsm6dso_reg.c ****   *
 805:D:/fchai/work/i-cube/I-CUBE-HUAWEI/Drivers/BSP/Components/lsm6dso\lsm6dso_reg.c ****   * @param  ctx      read / write interface definitions
 806:D:/fchai/work/i-cube/I-CUBE-HUAWEI/Drivers/BSP/Components/lsm6dso\lsm6dso_reg.c ****   * @param  val      registers ALL_INT_SRC; WAKE_UP_SRC;
 807:D:/fchai/work/i-cube/I-CUBE-HUAWEI/Drivers/BSP/Components/lsm6dso\lsm6dso_reg.c ****   *                              TAP_SRC; D6D_SRC; STATUS_REG;
 808:D:/fchai/work/i-cube/I-CUBE-HUAWEI/Drivers/BSP/Components/lsm6dso\lsm6dso_reg.c ****   *                              EMB_FUNC_STATUS; FSM_STATUS_A/B
 809:D:/fchai/work/i-cube/I-CUBE-HUAWEI/Drivers/BSP/Components/lsm6dso\lsm6dso_reg.c ****   *
 810:D:/fchai/work/i-cube/I-CUBE-HUAWEI/Drivers/BSP/Components/lsm6dso\lsm6dso_reg.c ****   */
 811:D:/fchai/work/i-cube/I-CUBE-HUAWEI/Drivers/BSP/Components/lsm6dso\lsm6dso_reg.c **** int32_t lsm6dso_all_sources_get(stmdev_ctx_t *ctx,
 812:D:/fchai/work/i-cube/I-CUBE-HUAWEI/Drivers/BSP/Components/lsm6dso\lsm6dso_reg.c ****                                 lsm6dso_all_sources_t *val)
 813:D:/fchai/work/i-cube/I-CUBE-HUAWEI/Drivers/BSP/Components/lsm6dso\lsm6dso_reg.c **** {
 814:D:/fchai/work/i-cube/I-CUBE-HUAWEI/Drivers/BSP/Components/lsm6dso\lsm6dso_reg.c ****   int32_t ret;
 815:D:/fchai/work/i-cube/I-CUBE-HUAWEI/Drivers/BSP/Components/lsm6dso\lsm6dso_reg.c **** 
 816:D:/fchai/work/i-cube/I-CUBE-HUAWEI/Drivers/BSP/Components/lsm6dso\lsm6dso_reg.c ****   ret = lsm6dso_read_reg(ctx, LSM6DSO_ALL_INT_SRC,
 817:D:/fchai/work/i-cube/I-CUBE-HUAWEI/Drivers/BSP/Components/lsm6dso\lsm6dso_reg.c ****                          (uint8_t*)&val->all_int_src, 1);
 818:D:/fchai/work/i-cube/I-CUBE-HUAWEI/Drivers/BSP/Components/lsm6dso\lsm6dso_reg.c ****   if (ret == 0) {
 819:D:/fchai/work/i-cube/I-CUBE-HUAWEI/Drivers/BSP/Components/lsm6dso\lsm6dso_reg.c ****     ret = lsm6dso_read_reg(ctx, LSM6DSO_WAKE_UP_SRC,
 820:D:/fchai/work/i-cube/I-CUBE-HUAWEI/Drivers/BSP/Components/lsm6dso\lsm6dso_reg.c ****                            (uint8_t*)&val->wake_up_src, 1);
 821:D:/fchai/work/i-cube/I-CUBE-HUAWEI/Drivers/BSP/Components/lsm6dso\lsm6dso_reg.c ****   }
 822:D:/fchai/work/i-cube/I-CUBE-HUAWEI/Drivers/BSP/Components/lsm6dso\lsm6dso_reg.c ****   if (ret == 0) {
 823:D:/fchai/work/i-cube/I-CUBE-HUAWEI/Drivers/BSP/Components/lsm6dso\lsm6dso_reg.c ****     ret = lsm6dso_read_reg(ctx, LSM6DSO_TAP_SRC,
 824:D:/fchai/work/i-cube/I-CUBE-HUAWEI/Drivers/BSP/Components/lsm6dso\lsm6dso_reg.c ****                            (uint8_t*)&val->tap_src, 1);
 825:D:/fchai/work/i-cube/I-CUBE-HUAWEI/Drivers/BSP/Components/lsm6dso\lsm6dso_reg.c ****   }
 826:D:/fchai/work/i-cube/I-CUBE-HUAWEI/Drivers/BSP/Components/lsm6dso\lsm6dso_reg.c ****   if (ret == 0) {
 827:D:/fchai/work/i-cube/I-CUBE-HUAWEI/Drivers/BSP/Components/lsm6dso\lsm6dso_reg.c ****     ret = lsm6dso_read_reg(ctx, LSM6DSO_D6D_SRC,
 828:D:/fchai/work/i-cube/I-CUBE-HUAWEI/Drivers/BSP/Components/lsm6dso\lsm6dso_reg.c ****                            (uint8_t*)&val->d6d_src, 1);
 829:D:/fchai/work/i-cube/I-CUBE-HUAWEI/Drivers/BSP/Components/lsm6dso\lsm6dso_reg.c ****   }
 830:D:/fchai/work/i-cube/I-CUBE-HUAWEI/Drivers/BSP/Components/lsm6dso\lsm6dso_reg.c ****   if (ret == 0) {
 831:D:/fchai/work/i-cube/I-CUBE-HUAWEI/Drivers/BSP/Components/lsm6dso\lsm6dso_reg.c ****     ret = lsm6dso_read_reg(ctx, LSM6DSO_STATUS_REG,
 832:D:/fchai/work/i-cube/I-CUBE-HUAWEI/Drivers/BSP/Components/lsm6dso\lsm6dso_reg.c ****                            (uint8_t*)&val->status_reg, 1);
 833:D:/fchai/work/i-cube/I-CUBE-HUAWEI/Drivers/BSP/Components/lsm6dso\lsm6dso_reg.c ****   }
 834:D:/fchai/work/i-cube/I-CUBE-HUAWEI/Drivers/BSP/Components/lsm6dso\lsm6dso_reg.c ****   if (ret == 0) {
 835:D:/fchai/work/i-cube/I-CUBE-HUAWEI/Drivers/BSP/Components/lsm6dso\lsm6dso_reg.c **** 
 836:D:/fchai/work/i-cube/I-CUBE-HUAWEI/Drivers/BSP/Components/lsm6dso\lsm6dso_reg.c ****     ret = lsm6dso_mem_bank_set(ctx, LSM6DSO_EMBEDDED_FUNC_BANK);
 837:D:/fchai/work/i-cube/I-CUBE-HUAWEI/Drivers/BSP/Components/lsm6dso\lsm6dso_reg.c ****   }
 838:D:/fchai/work/i-cube/I-CUBE-HUAWEI/Drivers/BSP/Components/lsm6dso\lsm6dso_reg.c ****   if (ret == 0) {
 839:D:/fchai/work/i-cube/I-CUBE-HUAWEI/Drivers/BSP/Components/lsm6dso\lsm6dso_reg.c ****     ret = lsm6dso_read_reg(ctx, LSM6DSO_EMB_FUNC_STATUS,
 840:D:/fchai/work/i-cube/I-CUBE-HUAWEI/Drivers/BSP/Components/lsm6dso\lsm6dso_reg.c ****                            (uint8_t*)&val->emb_func_status, 1);
 841:D:/fchai/work/i-cube/I-CUBE-HUAWEI/Drivers/BSP/Components/lsm6dso\lsm6dso_reg.c ****   }
ARM GAS  T:\msys\tmp\ccaXiy3K.s 			page 60


 842:D:/fchai/work/i-cube/I-CUBE-HUAWEI/Drivers/BSP/Components/lsm6dso\lsm6dso_reg.c ****   if (ret == 0) {
 843:D:/fchai/work/i-cube/I-CUBE-HUAWEI/Drivers/BSP/Components/lsm6dso\lsm6dso_reg.c ****     ret = lsm6dso_read_reg(ctx, LSM6DSO_FSM_STATUS_A,
 844:D:/fchai/work/i-cube/I-CUBE-HUAWEI/Drivers/BSP/Components/lsm6dso\lsm6dso_reg.c ****                            (uint8_t*)&val->fsm_status_a, 1);
 845:D:/fchai/work/i-cube/I-CUBE-HUAWEI/Drivers/BSP/Components/lsm6dso\lsm6dso_reg.c ****   }
 846:D:/fchai/work/i-cube/I-CUBE-HUAWEI/Drivers/BSP/Components/lsm6dso\lsm6dso_reg.c ****   if (ret == 0) {
 847:D:/fchai/work/i-cube/I-CUBE-HUAWEI/Drivers/BSP/Components/lsm6dso\lsm6dso_reg.c ****     ret = lsm6dso_read_reg(ctx, LSM6DSO_FSM_STATUS_B,
 848:D:/fchai/work/i-cube/I-CUBE-HUAWEI/Drivers/BSP/Components/lsm6dso\lsm6dso_reg.c ****                            (uint8_t*)&val->fsm_status_b, 1);
 849:D:/fchai/work/i-cube/I-CUBE-HUAWEI/Drivers/BSP/Components/lsm6dso\lsm6dso_reg.c ****   }
 850:D:/fchai/work/i-cube/I-CUBE-HUAWEI/Drivers/BSP/Components/lsm6dso\lsm6dso_reg.c ****   if (ret == 0) {
 851:D:/fchai/work/i-cube/I-CUBE-HUAWEI/Drivers/BSP/Components/lsm6dso\lsm6dso_reg.c ****     ret = lsm6dso_mem_bank_set(ctx, LSM6DSO_USER_BANK);
 852:D:/fchai/work/i-cube/I-CUBE-HUAWEI/Drivers/BSP/Components/lsm6dso\lsm6dso_reg.c ****   }
 853:D:/fchai/work/i-cube/I-CUBE-HUAWEI/Drivers/BSP/Components/lsm6dso\lsm6dso_reg.c ****   return ret;
 854:D:/fchai/work/i-cube/I-CUBE-HUAWEI/Drivers/BSP/Components/lsm6dso\lsm6dso_reg.c **** }
 855:D:/fchai/work/i-cube/I-CUBE-HUAWEI/Drivers/BSP/Components/lsm6dso\lsm6dso_reg.c **** 
 856:D:/fchai/work/i-cube/I-CUBE-HUAWEI/Drivers/BSP/Components/lsm6dso\lsm6dso_reg.c **** /**
 857:D:/fchai/work/i-cube/I-CUBE-HUAWEI/Drivers/BSP/Components/lsm6dso\lsm6dso_reg.c ****   * @brief  The STATUS_REG register is read by the primary interface.[get]
 858:D:/fchai/work/i-cube/I-CUBE-HUAWEI/Drivers/BSP/Components/lsm6dso\lsm6dso_reg.c ****   *
 859:D:/fchai/work/i-cube/I-CUBE-HUAWEI/Drivers/BSP/Components/lsm6dso\lsm6dso_reg.c ****   * @param  ctx      read / write interface definitions
 860:D:/fchai/work/i-cube/I-CUBE-HUAWEI/Drivers/BSP/Components/lsm6dso\lsm6dso_reg.c ****   * @param  val      register STATUS_REG
 861:D:/fchai/work/i-cube/I-CUBE-HUAWEI/Drivers/BSP/Components/lsm6dso\lsm6dso_reg.c ****   *
 862:D:/fchai/work/i-cube/I-CUBE-HUAWEI/Drivers/BSP/Components/lsm6dso\lsm6dso_reg.c ****   */
 863:D:/fchai/work/i-cube/I-CUBE-HUAWEI/Drivers/BSP/Components/lsm6dso\lsm6dso_reg.c **** int32_t lsm6dso_status_reg_get(stmdev_ctx_t *ctx, lsm6dso_status_reg_t *val)
 864:D:/fchai/work/i-cube/I-CUBE-HUAWEI/Drivers/BSP/Components/lsm6dso\lsm6dso_reg.c **** {
 2240              		.loc 1 864 1 is_stmt 1 view -0
 2241              		.cfi_startproc
 2242              		@ args = 0, pretend = 0, frame = 0
 2243              		@ frame_needed = 0, uses_anonymous_args = 0
 2244              		@ link register save eliminated.
 865:D:/fchai/work/i-cube/I-CUBE-HUAWEI/Drivers/BSP/Components/lsm6dso\lsm6dso_reg.c ****   int32_t ret;
 2245              		.loc 1 865 3 view .LVU610
 866:D:/fchai/work/i-cube/I-CUBE-HUAWEI/Drivers/BSP/Components/lsm6dso\lsm6dso_reg.c ****   ret = lsm6dso_read_reg(ctx, LSM6DSO_STATUS_REG, (uint8_t*) val, 1);
 2246              		.loc 1 866 3 view .LVU611
 864:D:/fchai/work/i-cube/I-CUBE-HUAWEI/Drivers/BSP/Components/lsm6dso\lsm6dso_reg.c ****   int32_t ret;
 2247              		.loc 1 864 1 is_stmt 0 view .LVU612
 2248 0000 10B4     		push	{r4}
 2249              	.LCFI58:
 2250              		.cfi_def_cfa_offset 4
 2251              		.cfi_offset 4, -4
 2252              	.LBB1102:
 2253              	.LBB1103:
  53:D:/fchai/work/i-cube/I-CUBE-HUAWEI/Drivers/BSP/Components/lsm6dso\lsm6dso_reg.c ****   return ret;
 2254              		.loc 1 53 9 view .LVU613
 2255 0002 D0E90140 		ldrd	r4, r0, [r0, #4]
 2256              	.LVL149:
  53:D:/fchai/work/i-cube/I-CUBE-HUAWEI/Drivers/BSP/Components/lsm6dso\lsm6dso_reg.c ****   return ret;
 2257              		.loc 1 53 9 view .LVU614
 2258              	.LBE1103:
 2259              	.LBE1102:
 864:D:/fchai/work/i-cube/I-CUBE-HUAWEI/Drivers/BSP/Components/lsm6dso\lsm6dso_reg.c ****   int32_t ret;
 2260              		.loc 1 864 1 view .LVU615
 2261 0006 0A46     		mov	r2, r1
 2262              	.LVL150:
 2263              	.LBB1106:
 2264              	.LBI1102:
  49:D:/fchai/work/i-cube/I-CUBE-HUAWEI/Drivers/BSP/Components/lsm6dso\lsm6dso_reg.c ****                          uint16_t len)
 2265              		.loc 1 49 9 is_stmt 1 view .LVU616
 2266              	.LBB1104:
ARM GAS  T:\msys\tmp\ccaXiy3K.s 			page 61


  52:D:/fchai/work/i-cube/I-CUBE-HUAWEI/Drivers/BSP/Components/lsm6dso\lsm6dso_reg.c ****   ret = ctx->read_reg(ctx->handle, reg, data, len);
 2267              		.loc 1 52 3 view .LVU617
  53:D:/fchai/work/i-cube/I-CUBE-HUAWEI/Drivers/BSP/Components/lsm6dso\lsm6dso_reg.c ****   return ret;
 2268              		.loc 1 53 3 view .LVU618
  53:D:/fchai/work/i-cube/I-CUBE-HUAWEI/Drivers/BSP/Components/lsm6dso\lsm6dso_reg.c ****   return ret;
 2269              		.loc 1 53 9 is_stmt 0 view .LVU619
 2270 0008 A446     		mov	ip, r4
 2271 000a 0123     		movs	r3, #1
 2272              	.LBE1104:
 2273              	.LBE1106:
 867:D:/fchai/work/i-cube/I-CUBE-HUAWEI/Drivers/BSP/Components/lsm6dso\lsm6dso_reg.c ****   return ret;
 868:D:/fchai/work/i-cube/I-CUBE-HUAWEI/Drivers/BSP/Components/lsm6dso\lsm6dso_reg.c **** }
 2274              		.loc 1 868 1 view .LVU620
 2275 000c 5DF8044B 		ldr	r4, [sp], #4
 2276              	.LCFI59:
 2277              		.cfi_restore 4
 2278              		.cfi_def_cfa_offset 0
 2279              	.LBB1107:
 2280              	.LBB1105:
  53:D:/fchai/work/i-cube/I-CUBE-HUAWEI/Drivers/BSP/Components/lsm6dso\lsm6dso_reg.c ****   return ret;
 2281              		.loc 1 53 9 view .LVU621
 2282 0010 1E21     		movs	r1, #30
 2283              	.LVL151:
  53:D:/fchai/work/i-cube/I-CUBE-HUAWEI/Drivers/BSP/Components/lsm6dso\lsm6dso_reg.c ****   return ret;
 2284              		.loc 1 53 9 view .LVU622
 2285 0012 6047     		bx	ip
 2286              	.LVL152:
  53:D:/fchai/work/i-cube/I-CUBE-HUAWEI/Drivers/BSP/Components/lsm6dso\lsm6dso_reg.c ****   return ret;
 2287              		.loc 1 53 9 view .LVU623
 2288              	.LBE1105:
 2289              	.LBE1107:
 2290              		.cfi_endproc
 2291              	.LFE30:
 2293              		.section	.text.lsm6dso_xl_flag_data_ready_get,"ax",%progbits
 2294              		.align	1
 2295              		.p2align 2,,3
 2296              		.global	lsm6dso_xl_flag_data_ready_get
 2297              		.syntax unified
 2298              		.thumb
 2299              		.thumb_func
 2300              		.fpu fpv4-sp-d16
 2302              	lsm6dso_xl_flag_data_ready_get:
 2303              	.LVL153:
 2304              	.LFB31:
 869:D:/fchai/work/i-cube/I-CUBE-HUAWEI/Drivers/BSP/Components/lsm6dso\lsm6dso_reg.c **** 
 870:D:/fchai/work/i-cube/I-CUBE-HUAWEI/Drivers/BSP/Components/lsm6dso\lsm6dso_reg.c **** /**
 871:D:/fchai/work/i-cube/I-CUBE-HUAWEI/Drivers/BSP/Components/lsm6dso\lsm6dso_reg.c ****   * @brief  Accelerometer new data available.[get]
 872:D:/fchai/work/i-cube/I-CUBE-HUAWEI/Drivers/BSP/Components/lsm6dso\lsm6dso_reg.c ****   *
 873:D:/fchai/work/i-cube/I-CUBE-HUAWEI/Drivers/BSP/Components/lsm6dso\lsm6dso_reg.c ****   * @param  ctx      read / write interface definitions
 874:D:/fchai/work/i-cube/I-CUBE-HUAWEI/Drivers/BSP/Components/lsm6dso\lsm6dso_reg.c ****   * @param  val      change the values of xlda in reg STATUS_REG
 875:D:/fchai/work/i-cube/I-CUBE-HUAWEI/Drivers/BSP/Components/lsm6dso\lsm6dso_reg.c ****   *
 876:D:/fchai/work/i-cube/I-CUBE-HUAWEI/Drivers/BSP/Components/lsm6dso\lsm6dso_reg.c ****   */
 877:D:/fchai/work/i-cube/I-CUBE-HUAWEI/Drivers/BSP/Components/lsm6dso\lsm6dso_reg.c **** int32_t lsm6dso_xl_flag_data_ready_get(stmdev_ctx_t *ctx, uint8_t *val)
 878:D:/fchai/work/i-cube/I-CUBE-HUAWEI/Drivers/BSP/Components/lsm6dso\lsm6dso_reg.c **** {
 2305              		.loc 1 878 1 is_stmt 1 view -0
 2306              		.cfi_startproc
 2307              		@ args = 0, pretend = 0, frame = 8
ARM GAS  T:\msys\tmp\ccaXiy3K.s 			page 62


 2308              		@ frame_needed = 0, uses_anonymous_args = 0
 879:D:/fchai/work/i-cube/I-CUBE-HUAWEI/Drivers/BSP/Components/lsm6dso\lsm6dso_reg.c ****   lsm6dso_status_reg_t reg;
 2309              		.loc 1 879 3 view .LVU625
 880:D:/fchai/work/i-cube/I-CUBE-HUAWEI/Drivers/BSP/Components/lsm6dso\lsm6dso_reg.c ****   int32_t ret;
 2310              		.loc 1 880 3 view .LVU626
 881:D:/fchai/work/i-cube/I-CUBE-HUAWEI/Drivers/BSP/Components/lsm6dso\lsm6dso_reg.c **** 
 882:D:/fchai/work/i-cube/I-CUBE-HUAWEI/Drivers/BSP/Components/lsm6dso\lsm6dso_reg.c ****   ret = lsm6dso_read_reg(ctx, LSM6DSO_STATUS_REG, (uint8_t*)&reg, 1);
 2311              		.loc 1 882 3 view .LVU627
 878:D:/fchai/work/i-cube/I-CUBE-HUAWEI/Drivers/BSP/Components/lsm6dso\lsm6dso_reg.c ****   lsm6dso_status_reg_t reg;
 2312              		.loc 1 878 1 is_stmt 0 view .LVU628
 2313 0000 30B5     		push	{r4, r5, lr}
 2314              	.LCFI60:
 2315              		.cfi_def_cfa_offset 12
 2316              		.cfi_offset 4, -12
 2317              		.cfi_offset 5, -8
 2318              		.cfi_offset 14, -4
 2319 0002 83B0     		sub	sp, sp, #12
 2320              	.LCFI61:
 2321              		.cfi_def_cfa_offset 24
 2322              	.LVL154:
 2323              	.LBB1108:
 2324              	.LBI1108:
  49:D:/fchai/work/i-cube/I-CUBE-HUAWEI/Drivers/BSP/Components/lsm6dso\lsm6dso_reg.c ****                          uint16_t len)
 2325              		.loc 1 49 9 is_stmt 1 view .LVU629
 2326              	.LBB1109:
  52:D:/fchai/work/i-cube/I-CUBE-HUAWEI/Drivers/BSP/Components/lsm6dso\lsm6dso_reg.c ****   ret = ctx->read_reg(ctx->handle, reg, data, len);
 2327              		.loc 1 52 3 view .LVU630
  53:D:/fchai/work/i-cube/I-CUBE-HUAWEI/Drivers/BSP/Components/lsm6dso\lsm6dso_reg.c ****   return ret;
 2328              		.loc 1 53 3 view .LVU631
 2329              	.LBE1109:
 2330              	.LBE1108:
 878:D:/fchai/work/i-cube/I-CUBE-HUAWEI/Drivers/BSP/Components/lsm6dso\lsm6dso_reg.c ****   lsm6dso_status_reg_t reg;
 2331              		.loc 1 878 1 is_stmt 0 view .LVU632
 2332 0004 0C46     		mov	r4, r1
 2333              	.LBB1111:
 2334              	.LBB1110:
  53:D:/fchai/work/i-cube/I-CUBE-HUAWEI/Drivers/BSP/Components/lsm6dso\lsm6dso_reg.c ****   return ret;
 2335              		.loc 1 53 9 view .LVU633
 2336 0006 D0E90150 		ldrd	r5, r0, [r0, #4]
 2337              	.LVL155:
  53:D:/fchai/work/i-cube/I-CUBE-HUAWEI/Drivers/BSP/Components/lsm6dso\lsm6dso_reg.c ****   return ret;
 2338              		.loc 1 53 9 view .LVU634
 2339 000a 0123     		movs	r3, #1
 2340 000c 01AA     		add	r2, sp, #4
 2341              	.LVL156:
  53:D:/fchai/work/i-cube/I-CUBE-HUAWEI/Drivers/BSP/Components/lsm6dso\lsm6dso_reg.c ****   return ret;
 2342              		.loc 1 53 9 view .LVU635
 2343 000e 1E21     		movs	r1, #30
 2344              	.LVL157:
  53:D:/fchai/work/i-cube/I-CUBE-HUAWEI/Drivers/BSP/Components/lsm6dso\lsm6dso_reg.c ****   return ret;
 2345              		.loc 1 53 9 view .LVU636
 2346 0010 A847     		blx	r5
 2347              	.LVL158:
  54:D:/fchai/work/i-cube/I-CUBE-HUAWEI/Drivers/BSP/Components/lsm6dso\lsm6dso_reg.c **** }
 2348              		.loc 1 54 3 is_stmt 1 view .LVU637
  54:D:/fchai/work/i-cube/I-CUBE-HUAWEI/Drivers/BSP/Components/lsm6dso\lsm6dso_reg.c **** }
 2349              		.loc 1 54 3 is_stmt 0 view .LVU638
ARM GAS  T:\msys\tmp\ccaXiy3K.s 			page 63


 2350              	.LBE1110:
 2351              	.LBE1111:
 883:D:/fchai/work/i-cube/I-CUBE-HUAWEI/Drivers/BSP/Components/lsm6dso\lsm6dso_reg.c ****   *val = reg.xlda;
 2352              		.loc 1 883 3 is_stmt 1 view .LVU639
 2353              		.loc 1 883 13 is_stmt 0 view .LVU640
 2354 0012 9DF80430 		ldrb	r3, [sp, #4]	@ zero_extendqisi2
 2355 0016 C3F30003 		ubfx	r3, r3, #0, #1
 2356              		.loc 1 883 8 view .LVU641
 2357 001a 2370     		strb	r3, [r4]
 884:D:/fchai/work/i-cube/I-CUBE-HUAWEI/Drivers/BSP/Components/lsm6dso\lsm6dso_reg.c **** 
 885:D:/fchai/work/i-cube/I-CUBE-HUAWEI/Drivers/BSP/Components/lsm6dso\lsm6dso_reg.c ****   return ret;
 2358              		.loc 1 885 3 is_stmt 1 view .LVU642
 886:D:/fchai/work/i-cube/I-CUBE-HUAWEI/Drivers/BSP/Components/lsm6dso\lsm6dso_reg.c **** }
 2359              		.loc 1 886 1 is_stmt 0 view .LVU643
 2360 001c 03B0     		add	sp, sp, #12
 2361              	.LCFI62:
 2362              		.cfi_def_cfa_offset 12
 2363              		@ sp needed
 2364 001e 30BD     		pop	{r4, r5, pc}
 2365              		.loc 1 886 1 view .LVU644
 2366              		.cfi_endproc
 2367              	.LFE31:
 2369              		.section	.text.lsm6dso_gy_flag_data_ready_get,"ax",%progbits
 2370              		.align	1
 2371              		.p2align 2,,3
 2372              		.global	lsm6dso_gy_flag_data_ready_get
 2373              		.syntax unified
 2374              		.thumb
 2375              		.thumb_func
 2376              		.fpu fpv4-sp-d16
 2378              	lsm6dso_gy_flag_data_ready_get:
 2379              	.LVL159:
 2380              	.LFB32:
 887:D:/fchai/work/i-cube/I-CUBE-HUAWEI/Drivers/BSP/Components/lsm6dso\lsm6dso_reg.c **** 
 888:D:/fchai/work/i-cube/I-CUBE-HUAWEI/Drivers/BSP/Components/lsm6dso\lsm6dso_reg.c **** /**
 889:D:/fchai/work/i-cube/I-CUBE-HUAWEI/Drivers/BSP/Components/lsm6dso\lsm6dso_reg.c ****   * @brief  Gyroscope new data available.[get]
 890:D:/fchai/work/i-cube/I-CUBE-HUAWEI/Drivers/BSP/Components/lsm6dso\lsm6dso_reg.c ****   *
 891:D:/fchai/work/i-cube/I-CUBE-HUAWEI/Drivers/BSP/Components/lsm6dso\lsm6dso_reg.c ****   * @param  ctx      read / write interface definitions
 892:D:/fchai/work/i-cube/I-CUBE-HUAWEI/Drivers/BSP/Components/lsm6dso\lsm6dso_reg.c ****   * @param  val      change the values of gda in reg STATUS_REG
 893:D:/fchai/work/i-cube/I-CUBE-HUAWEI/Drivers/BSP/Components/lsm6dso\lsm6dso_reg.c ****   *
 894:D:/fchai/work/i-cube/I-CUBE-HUAWEI/Drivers/BSP/Components/lsm6dso\lsm6dso_reg.c ****   */
 895:D:/fchai/work/i-cube/I-CUBE-HUAWEI/Drivers/BSP/Components/lsm6dso\lsm6dso_reg.c **** int32_t lsm6dso_gy_flag_data_ready_get(stmdev_ctx_t *ctx, uint8_t *val)
 896:D:/fchai/work/i-cube/I-CUBE-HUAWEI/Drivers/BSP/Components/lsm6dso\lsm6dso_reg.c **** {
 2381              		.loc 1 896 1 is_stmt 1 view -0
 2382              		.cfi_startproc
 2383              		@ args = 0, pretend = 0, frame = 8
 2384              		@ frame_needed = 0, uses_anonymous_args = 0
 897:D:/fchai/work/i-cube/I-CUBE-HUAWEI/Drivers/BSP/Components/lsm6dso\lsm6dso_reg.c ****   lsm6dso_status_reg_t reg;
 2385              		.loc 1 897 3 view .LVU646
 898:D:/fchai/work/i-cube/I-CUBE-HUAWEI/Drivers/BSP/Components/lsm6dso\lsm6dso_reg.c ****   int32_t ret;
 2386              		.loc 1 898 3 view .LVU647
 899:D:/fchai/work/i-cube/I-CUBE-HUAWEI/Drivers/BSP/Components/lsm6dso\lsm6dso_reg.c **** 
 900:D:/fchai/work/i-cube/I-CUBE-HUAWEI/Drivers/BSP/Components/lsm6dso\lsm6dso_reg.c ****   ret = lsm6dso_read_reg(ctx, LSM6DSO_STATUS_REG, (uint8_t*)&reg, 1);
 2387              		.loc 1 900 3 view .LVU648
 896:D:/fchai/work/i-cube/I-CUBE-HUAWEI/Drivers/BSP/Components/lsm6dso\lsm6dso_reg.c ****   lsm6dso_status_reg_t reg;
 2388              		.loc 1 896 1 is_stmt 0 view .LVU649
 2389 0000 30B5     		push	{r4, r5, lr}
ARM GAS  T:\msys\tmp\ccaXiy3K.s 			page 64


 2390              	.LCFI63:
 2391              		.cfi_def_cfa_offset 12
 2392              		.cfi_offset 4, -12
 2393              		.cfi_offset 5, -8
 2394              		.cfi_offset 14, -4
 2395 0002 83B0     		sub	sp, sp, #12
 2396              	.LCFI64:
 2397              		.cfi_def_cfa_offset 24
 2398              	.LVL160:
 2399              	.LBB1112:
 2400              	.LBI1112:
  49:D:/fchai/work/i-cube/I-CUBE-HUAWEI/Drivers/BSP/Components/lsm6dso\lsm6dso_reg.c ****                          uint16_t len)
 2401              		.loc 1 49 9 is_stmt 1 view .LVU650
 2402              	.LBB1113:
  52:D:/fchai/work/i-cube/I-CUBE-HUAWEI/Drivers/BSP/Components/lsm6dso\lsm6dso_reg.c ****   ret = ctx->read_reg(ctx->handle, reg, data, len);
 2403              		.loc 1 52 3 view .LVU651
  53:D:/fchai/work/i-cube/I-CUBE-HUAWEI/Drivers/BSP/Components/lsm6dso\lsm6dso_reg.c ****   return ret;
 2404              		.loc 1 53 3 view .LVU652
 2405              	.LBE1113:
 2406              	.LBE1112:
 896:D:/fchai/work/i-cube/I-CUBE-HUAWEI/Drivers/BSP/Components/lsm6dso\lsm6dso_reg.c ****   lsm6dso_status_reg_t reg;
 2407              		.loc 1 896 1 is_stmt 0 view .LVU653
 2408 0004 0C46     		mov	r4, r1
 2409              	.LBB1115:
 2410              	.LBB1114:
  53:D:/fchai/work/i-cube/I-CUBE-HUAWEI/Drivers/BSP/Components/lsm6dso\lsm6dso_reg.c ****   return ret;
 2411              		.loc 1 53 9 view .LVU654
 2412 0006 D0E90150 		ldrd	r5, r0, [r0, #4]
 2413              	.LVL161:
  53:D:/fchai/work/i-cube/I-CUBE-HUAWEI/Drivers/BSP/Components/lsm6dso\lsm6dso_reg.c ****   return ret;
 2414              		.loc 1 53 9 view .LVU655
 2415 000a 0123     		movs	r3, #1
 2416 000c 01AA     		add	r2, sp, #4
 2417              	.LVL162:
  53:D:/fchai/work/i-cube/I-CUBE-HUAWEI/Drivers/BSP/Components/lsm6dso\lsm6dso_reg.c ****   return ret;
 2418              		.loc 1 53 9 view .LVU656
 2419 000e 1E21     		movs	r1, #30
 2420              	.LVL163:
  53:D:/fchai/work/i-cube/I-CUBE-HUAWEI/Drivers/BSP/Components/lsm6dso\lsm6dso_reg.c ****   return ret;
 2421              		.loc 1 53 9 view .LVU657
 2422 0010 A847     		blx	r5
 2423              	.LVL164:
  54:D:/fchai/work/i-cube/I-CUBE-HUAWEI/Drivers/BSP/Components/lsm6dso\lsm6dso_reg.c **** }
 2424              		.loc 1 54 3 is_stmt 1 view .LVU658
  54:D:/fchai/work/i-cube/I-CUBE-HUAWEI/Drivers/BSP/Components/lsm6dso\lsm6dso_reg.c **** }
 2425              		.loc 1 54 3 is_stmt 0 view .LVU659
 2426              	.LBE1114:
 2427              	.LBE1115:
 901:D:/fchai/work/i-cube/I-CUBE-HUAWEI/Drivers/BSP/Components/lsm6dso\lsm6dso_reg.c ****   *val = reg.gda;
 2428              		.loc 1 901 3 is_stmt 1 view .LVU660
 2429              		.loc 1 901 13 is_stmt 0 view .LVU661
 2430 0012 9DF80430 		ldrb	r3, [sp, #4]	@ zero_extendqisi2
 2431 0016 C3F34003 		ubfx	r3, r3, #1, #1
 2432              		.loc 1 901 8 view .LVU662
 2433 001a 2370     		strb	r3, [r4]
 902:D:/fchai/work/i-cube/I-CUBE-HUAWEI/Drivers/BSP/Components/lsm6dso\lsm6dso_reg.c **** 
 903:D:/fchai/work/i-cube/I-CUBE-HUAWEI/Drivers/BSP/Components/lsm6dso\lsm6dso_reg.c ****   return ret;
ARM GAS  T:\msys\tmp\ccaXiy3K.s 			page 65


 2434              		.loc 1 903 3 is_stmt 1 view .LVU663
 904:D:/fchai/work/i-cube/I-CUBE-HUAWEI/Drivers/BSP/Components/lsm6dso\lsm6dso_reg.c **** }
 2435              		.loc 1 904 1 is_stmt 0 view .LVU664
 2436 001c 03B0     		add	sp, sp, #12
 2437              	.LCFI65:
 2438              		.cfi_def_cfa_offset 12
 2439              		@ sp needed
 2440 001e 30BD     		pop	{r4, r5, pc}
 2441              		.loc 1 904 1 view .LVU665
 2442              		.cfi_endproc
 2443              	.LFE32:
 2445              		.section	.text.lsm6dso_temp_flag_data_ready_get,"ax",%progbits
 2446              		.align	1
 2447              		.p2align 2,,3
 2448              		.global	lsm6dso_temp_flag_data_ready_get
 2449              		.syntax unified
 2450              		.thumb
 2451              		.thumb_func
 2452              		.fpu fpv4-sp-d16
 2454              	lsm6dso_temp_flag_data_ready_get:
 2455              	.LVL165:
 2456              	.LFB33:
 905:D:/fchai/work/i-cube/I-CUBE-HUAWEI/Drivers/BSP/Components/lsm6dso\lsm6dso_reg.c **** 
 906:D:/fchai/work/i-cube/I-CUBE-HUAWEI/Drivers/BSP/Components/lsm6dso\lsm6dso_reg.c **** /**
 907:D:/fchai/work/i-cube/I-CUBE-HUAWEI/Drivers/BSP/Components/lsm6dso\lsm6dso_reg.c ****   * @brief  Temperature new data available.[get]
 908:D:/fchai/work/i-cube/I-CUBE-HUAWEI/Drivers/BSP/Components/lsm6dso\lsm6dso_reg.c ****   *
 909:D:/fchai/work/i-cube/I-CUBE-HUAWEI/Drivers/BSP/Components/lsm6dso\lsm6dso_reg.c ****   * @param  ctx      read / write interface definitions
 910:D:/fchai/work/i-cube/I-CUBE-HUAWEI/Drivers/BSP/Components/lsm6dso\lsm6dso_reg.c ****   * @param  val      change the values of tda in reg STATUS_REG
 911:D:/fchai/work/i-cube/I-CUBE-HUAWEI/Drivers/BSP/Components/lsm6dso\lsm6dso_reg.c ****   *
 912:D:/fchai/work/i-cube/I-CUBE-HUAWEI/Drivers/BSP/Components/lsm6dso\lsm6dso_reg.c ****   */
 913:D:/fchai/work/i-cube/I-CUBE-HUAWEI/Drivers/BSP/Components/lsm6dso\lsm6dso_reg.c **** int32_t lsm6dso_temp_flag_data_ready_get(stmdev_ctx_t *ctx, uint8_t *val)
 914:D:/fchai/work/i-cube/I-CUBE-HUAWEI/Drivers/BSP/Components/lsm6dso\lsm6dso_reg.c **** {
 2457              		.loc 1 914 1 is_stmt 1 view -0
 2458              		.cfi_startproc
 2459              		@ args = 0, pretend = 0, frame = 8
 2460              		@ frame_needed = 0, uses_anonymous_args = 0
 915:D:/fchai/work/i-cube/I-CUBE-HUAWEI/Drivers/BSP/Components/lsm6dso\lsm6dso_reg.c ****   lsm6dso_status_reg_t reg;
 2461              		.loc 1 915 3 view .LVU667
 916:D:/fchai/work/i-cube/I-CUBE-HUAWEI/Drivers/BSP/Components/lsm6dso\lsm6dso_reg.c ****   int32_t ret;
 2462              		.loc 1 916 3 view .LVU668
 917:D:/fchai/work/i-cube/I-CUBE-HUAWEI/Drivers/BSP/Components/lsm6dso\lsm6dso_reg.c **** 
 918:D:/fchai/work/i-cube/I-CUBE-HUAWEI/Drivers/BSP/Components/lsm6dso\lsm6dso_reg.c ****   ret = lsm6dso_read_reg(ctx, LSM6DSO_STATUS_REG, (uint8_t*)&reg, 1);
 2463              		.loc 1 918 3 view .LVU669
 914:D:/fchai/work/i-cube/I-CUBE-HUAWEI/Drivers/BSP/Components/lsm6dso\lsm6dso_reg.c ****   lsm6dso_status_reg_t reg;
 2464              		.loc 1 914 1 is_stmt 0 view .LVU670
 2465 0000 30B5     		push	{r4, r5, lr}
 2466              	.LCFI66:
