ARM GAS  T:\msys\tmp\ccS7xkSM.s 			page 1


   1              		.cpu cortex-m4
   2              		.eabi_attribute 27, 1
   3              		.eabi_attribute 28, 1
   4              		.eabi_attribute 20, 1
   5              		.eabi_attribute 21, 1
   6              		.eabi_attribute 23, 3
   7              		.eabi_attribute 24, 1
   8              		.eabi_attribute 25, 1
   9              		.eabi_attribute 26, 1
  10              		.eabi_attribute 30, 2
  11              		.eabi_attribute 34, 1
  12              		.eabi_attribute 18, 4
  13              		.file	"MQTTDeserializePublish.c"
  14              		.text
  15              	.Ltext0:
  16              		.cfi_sections	.debug_frame
  17              		.section	.text.MQTTDeserialize_publish,"ax",%progbits
  18              		.align	1
  19              		.p2align 2,,3
  20              		.global	MQTTDeserialize_publish
  21              		.arch armv7e-m
  22              		.syntax unified
  23              		.thumb
  24              		.thumb_func
  25              		.fpu fpv4-sp-d16
  27              	MQTTDeserialize_publish:
  28              	.LVL0:
  29              	.LFB3:
  30              		.file 1 "D:/fchai/work/i-cube/I-CUBE-HUAWEI/Middlewares/Third_Party/Huawei/iot_link/network/mqtt/p
   1:D:/fchai/work/i-cube/I-CUBE-HUAWEI/Middlewares/Third_Party/Huawei/iot_link/network/mqtt/paho_mqtt/paho/MQTTPacket/src\MQTTDeserializePublish.c **** /*******************************************************************************
   2:D:/fchai/work/i-cube/I-CUBE-HUAWEI/Middlewares/Third_Party/Huawei/iot_link/network/mqtt/paho_mqtt/paho/MQTTPacket/src\MQTTDeserializePublish.c ****  * Copyright (c) 2014 IBM Corp.
   3:D:/fchai/work/i-cube/I-CUBE-HUAWEI/Middlewares/Third_Party/Huawei/iot_link/network/mqtt/paho_mqtt/paho/MQTTPacket/src\MQTTDeserializePublish.c ****  *
   4:D:/fchai/work/i-cube/I-CUBE-HUAWEI/Middlewares/Third_Party/Huawei/iot_link/network/mqtt/paho_mqtt/paho/MQTTPacket/src\MQTTDeserializePublish.c ****  * All rights reserved. This program and the accompanying materials
   5:D:/fchai/work/i-cube/I-CUBE-HUAWEI/Middlewares/Third_Party/Huawei/iot_link/network/mqtt/paho_mqtt/paho/MQTTPacket/src\MQTTDeserializePublish.c ****  * are made available under the terms of the Eclipse Public License v1.0
   6:D:/fchai/work/i-cube/I-CUBE-HUAWEI/Middlewares/Third_Party/Huawei/iot_link/network/mqtt/paho_mqtt/paho/MQTTPacket/src\MQTTDeserializePublish.c ****  * and Eclipse Distribution License v1.0 which accompany this distribution.
   7:D:/fchai/work/i-cube/I-CUBE-HUAWEI/Middlewares/Third_Party/Huawei/iot_link/network/mqtt/paho_mqtt/paho/MQTTPacket/src\MQTTDeserializePublish.c ****  *
   8:D:/fchai/work/i-cube/I-CUBE-HUAWEI/Middlewares/Third_Party/Huawei/iot_link/network/mqtt/paho_mqtt/paho/MQTTPacket/src\MQTTDeserializePublish.c ****  * The Eclipse Public License is available at
   9:D:/fchai/work/i-cube/I-CUBE-HUAWEI/Middlewares/Third_Party/Huawei/iot_link/network/mqtt/paho_mqtt/paho/MQTTPacket/src\MQTTDeserializePublish.c ****  *    http://www.eclipse.org/legal/epl-v10.html
  10:D:/fchai/work/i-cube/I-CUBE-HUAWEI/Middlewares/Third_Party/Huawei/iot_link/network/mqtt/paho_mqtt/paho/MQTTPacket/src\MQTTDeserializePublish.c ****  * and the Eclipse Distribution License is available at
  11:D:/fchai/work/i-cube/I-CUBE-HUAWEI/Middlewares/Third_Party/Huawei/iot_link/network/mqtt/paho_mqtt/paho/MQTTPacket/src\MQTTDeserializePublish.c ****  *   http://www.eclipse.org/org/documents/edl-v10.php.
  12:D:/fchai/work/i-cube/I-CUBE-HUAWEI/Middlewares/Third_Party/Huawei/iot_link/network/mqtt/paho_mqtt/paho/MQTTPacket/src\MQTTDeserializePublish.c ****  *
  13:D:/fchai/work/i-cube/I-CUBE-HUAWEI/Middlewares/Third_Party/Huawei/iot_link/network/mqtt/paho_mqtt/paho/MQTTPacket/src\MQTTDeserializePublish.c ****  * Contributors:
  14:D:/fchai/work/i-cube/I-CUBE-HUAWEI/Middlewares/Third_Party/Huawei/iot_link/network/mqtt/paho_mqtt/paho/MQTTPacket/src\MQTTDeserializePublish.c ****  *    Ian Craggs - initial API and implementation and/or initial documentation
  15:D:/fchai/work/i-cube/I-CUBE-HUAWEI/Middlewares/Third_Party/Huawei/iot_link/network/mqtt/paho_mqtt/paho/MQTTPacket/src\MQTTDeserializePublish.c ****  *******************************************************************************/
  16:D:/fchai/work/i-cube/I-CUBE-HUAWEI/Middlewares/Third_Party/Huawei/iot_link/network/mqtt/paho_mqtt/paho/MQTTPacket/src\MQTTDeserializePublish.c **** 
  17:D:/fchai/work/i-cube/I-CUBE-HUAWEI/Middlewares/Third_Party/Huawei/iot_link/network/mqtt/paho_mqtt/paho/MQTTPacket/src\MQTTDeserializePublish.c **** #include "StackTrace.h"
  18:D:/fchai/work/i-cube/I-CUBE-HUAWEI/Middlewares/Third_Party/Huawei/iot_link/network/mqtt/paho_mqtt/paho/MQTTPacket/src\MQTTDeserializePublish.c **** #include "MQTTPacket.h"
  19:D:/fchai/work/i-cube/I-CUBE-HUAWEI/Middlewares/Third_Party/Huawei/iot_link/network/mqtt/paho_mqtt/paho/MQTTPacket/src\MQTTDeserializePublish.c **** #include <string.h>
  20:D:/fchai/work/i-cube/I-CUBE-HUAWEI/Middlewares/Third_Party/Huawei/iot_link/network/mqtt/paho_mqtt/paho/MQTTPacket/src\MQTTDeserializePublish.c **** 
  21:D:/fchai/work/i-cube/I-CUBE-HUAWEI/Middlewares/Third_Party/Huawei/iot_link/network/mqtt/paho_mqtt/paho/MQTTPacket/src\MQTTDeserializePublish.c **** #define min(a, b) ((a < b) ? 1 : 0)
  22:D:/fchai/work/i-cube/I-CUBE-HUAWEI/Middlewares/Third_Party/Huawei/iot_link/network/mqtt/paho_mqtt/paho/MQTTPacket/src\MQTTDeserializePublish.c **** 
  23:D:/fchai/work/i-cube/I-CUBE-HUAWEI/Middlewares/Third_Party/Huawei/iot_link/network/mqtt/paho_mqtt/paho/MQTTPacket/src\MQTTDeserializePublish.c **** /**
  24:D:/fchai/work/i-cube/I-CUBE-HUAWEI/Middlewares/Third_Party/Huawei/iot_link/network/mqtt/paho_mqtt/paho/MQTTPacket/src\MQTTDeserializePublish.c ****   * Deserializes the supplied (wire) buffer into publish data
  25:D:/fchai/work/i-cube/I-CUBE-HUAWEI/Middlewares/Third_Party/Huawei/iot_link/network/mqtt/paho_mqtt/paho/MQTTPacket/src\MQTTDeserializePublish.c ****   * @param dup returned integer - the MQTT dup flag
  26:D:/fchai/work/i-cube/I-CUBE-HUAWEI/Middlewares/Third_Party/Huawei/iot_link/network/mqtt/paho_mqtt/paho/MQTTPacket/src\MQTTDeserializePublish.c ****   * @param qos returned integer - the MQTT QoS value
  27:D:/fchai/work/i-cube/I-CUBE-HUAWEI/Middlewares/Third_Party/Huawei/iot_link/network/mqtt/paho_mqtt/paho/MQTTPacket/src\MQTTDeserializePublish.c ****   * @param retained returned integer - the MQTT retained flag
  28:D:/fchai/work/i-cube/I-CUBE-HUAWEI/Middlewares/Third_Party/Huawei/iot_link/network/mqtt/paho_mqtt/paho/MQTTPacket/src\MQTTDeserializePublish.c ****   * @param packetid returned integer - the MQTT packet identifier
ARM GAS  T:\msys\tmp\ccS7xkSM.s 			page 2


  29:D:/fchai/work/i-cube/I-CUBE-HUAWEI/Middlewares/Third_Party/Huawei/iot_link/network/mqtt/paho_mqtt/paho/MQTTPacket/src\MQTTDeserializePublish.c ****   * @param topicName returned MQTTString - the MQTT topic in the publish
  30:D:/fchai/work/i-cube/I-CUBE-HUAWEI/Middlewares/Third_Party/Huawei/iot_link/network/mqtt/paho_mqtt/paho/MQTTPacket/src\MQTTDeserializePublish.c ****   * @param payload returned byte buffer - the MQTT publish payload
  31:D:/fchai/work/i-cube/I-CUBE-HUAWEI/Middlewares/Third_Party/Huawei/iot_link/network/mqtt/paho_mqtt/paho/MQTTPacket/src\MQTTDeserializePublish.c ****   * @param payloadlen returned integer - the length of the MQTT payload
  32:D:/fchai/work/i-cube/I-CUBE-HUAWEI/Middlewares/Third_Party/Huawei/iot_link/network/mqtt/paho_mqtt/paho/MQTTPacket/src\MQTTDeserializePublish.c ****   * @param buf the raw buffer data, of the correct length determined by the remaining length field
  33:D:/fchai/work/i-cube/I-CUBE-HUAWEI/Middlewares/Third_Party/Huawei/iot_link/network/mqtt/paho_mqtt/paho/MQTTPacket/src\MQTTDeserializePublish.c ****   * @param buflen the length in bytes of the data in the supplied buffer
  34:D:/fchai/work/i-cube/I-CUBE-HUAWEI/Middlewares/Third_Party/Huawei/iot_link/network/mqtt/paho_mqtt/paho/MQTTPacket/src\MQTTDeserializePublish.c ****   * @return error code.  1 is success
  35:D:/fchai/work/i-cube/I-CUBE-HUAWEI/Middlewares/Third_Party/Huawei/iot_link/network/mqtt/paho_mqtt/paho/MQTTPacket/src\MQTTDeserializePublish.c ****   */
  36:D:/fchai/work/i-cube/I-CUBE-HUAWEI/Middlewares/Third_Party/Huawei/iot_link/network/mqtt/paho_mqtt/paho/MQTTPacket/src\MQTTDeserializePublish.c **** int MQTTDeserialize_publish(unsigned char* dup, int* qos, unsigned char* retained, unsigned short* 
  37:D:/fchai/work/i-cube/I-CUBE-HUAWEI/Middlewares/Third_Party/Huawei/iot_link/network/mqtt/paho_mqtt/paho/MQTTPacket/src\MQTTDeserializePublish.c **** 		unsigned char** payload, int* payloadlen, unsigned char* buf, int buflen)
  38:D:/fchai/work/i-cube/I-CUBE-HUAWEI/Middlewares/Third_Party/Huawei/iot_link/network/mqtt/paho_mqtt/paho/MQTTPacket/src\MQTTDeserializePublish.c **** {
  31              		.loc 1 38 1 view -0
  32              		.cfi_startproc
  33              		@ args = 20, pretend = 0, frame = 8
  34              		@ frame_needed = 0, uses_anonymous_args = 0
  39:D:/fchai/work/i-cube/I-CUBE-HUAWEI/Middlewares/Third_Party/Huawei/iot_link/network/mqtt/paho_mqtt/paho/MQTTPacket/src\MQTTDeserializePublish.c **** 	MQTTHeader header = {0};
  35              		.loc 1 39 2 view .LVU1
  40:D:/fchai/work/i-cube/I-CUBE-HUAWEI/Middlewares/Third_Party/Huawei/iot_link/network/mqtt/paho_mqtt/paho/MQTTPacket/src\MQTTDeserializePublish.c **** 	unsigned char* curdata = buf;
  36              		.loc 1 40 2 view .LVU2
  38:D:/fchai/work/i-cube/I-CUBE-HUAWEI/Middlewares/Third_Party/Huawei/iot_link/network/mqtt/paho_mqtt/paho/MQTTPacket/src\MQTTDeserializePublish.c **** 	MQTTHeader header = {0};
  37              		.loc 1 38 1 is_stmt 0 view .LVU3
  38 0000 2DE9F043 		push	{r4, r5, r6, r7, r8, r9, lr}
  39              	.LCFI0:
  40              		.cfi_def_cfa_offset 28
  41              		.cfi_offset 4, -28
  42              		.cfi_offset 5, -24
  43              		.cfi_offset 6, -20
  44              		.cfi_offset 7, -16
  45              		.cfi_offset 8, -12
  46              		.cfi_offset 9, -8
  47              		.cfi_offset 14, -4
  48 0004 83B0     		sub	sp, sp, #12
  49              	.LCFI1:
  50              		.cfi_def_cfa_offset 40
  38:D:/fchai/work/i-cube/I-CUBE-HUAWEI/Middlewares/Third_Party/Huawei/iot_link/network/mqtt/paho_mqtt/paho/MQTTPacket/src\MQTTDeserializePublish.c **** 	MQTTHeader header = {0};
  51              		.loc 1 38 1 view .LVU4
  52 0006 8046     		mov	r8, r0
  53 0008 0D9C     		ldr	r4, [sp, #52]
  54              		.loc 1 40 17 view .LVU5
  55 000a 0094     		str	r4, [sp]
  41:D:/fchai/work/i-cube/I-CUBE-HUAWEI/Middlewares/Third_Party/Huawei/iot_link/network/mqtt/paho_mqtt/paho/MQTTPacket/src\MQTTDeserializePublish.c **** 	unsigned char* enddata = NULL;
  56              		.loc 1 41 2 is_stmt 1 view .LVU6
  57              	.LVL1:
  42:D:/fchai/work/i-cube/I-CUBE-HUAWEI/Middlewares/Third_Party/Huawei/iot_link/network/mqtt/paho_mqtt/paho/MQTTPacket/src\MQTTDeserializePublish.c **** 	int rc = 0;
  58              		.loc 1 42 2 view .LVU7
  43:D:/fchai/work/i-cube/I-CUBE-HUAWEI/Middlewares/Third_Party/Huawei/iot_link/network/mqtt/paho_mqtt/paho/MQTTPacket/src\MQTTDeserializePublish.c **** 	int mylen = 0;
  59              		.loc 1 43 2 view .LVU8
  44:D:/fchai/work/i-cube/I-CUBE-HUAWEI/Middlewares/Third_Party/Huawei/iot_link/network/mqtt/paho_mqtt/paho/MQTTPacket/src\MQTTDeserializePublish.c **** 
  45:D:/fchai/work/i-cube/I-CUBE-HUAWEI/Middlewares/Third_Party/Huawei/iot_link/network/mqtt/paho_mqtt/paho/MQTTPacket/src\MQTTDeserializePublish.c **** 	FUNC_ENTRY;
  46:D:/fchai/work/i-cube/I-CUBE-HUAWEI/Middlewares/Third_Party/Huawei/iot_link/network/mqtt/paho_mqtt/paho/MQTTPacket/src\MQTTDeserializePublish.c **** 	header.byte = readChar(&curdata);
  60              		.loc 1 46 16 is_stmt 0 view .LVU9
  61 000c 6846     		mov	r0, sp
  62              	.LVL2:
  43:D:/fchai/work/i-cube/I-CUBE-HUAWEI/Middlewares/Third_Party/Huawei/iot_link/network/mqtt/paho_mqtt/paho/MQTTPacket/src\MQTTDeserializePublish.c **** 	int mylen = 0;
  63              		.loc 1 43 6 view .LVU10
  64 000e 0024     		movs	r4, #0
  38:D:/fchai/work/i-cube/I-CUBE-HUAWEI/Middlewares/Third_Party/Huawei/iot_link/network/mqtt/paho_mqtt/paho/MQTTPacket/src\MQTTDeserializePublish.c **** 	MQTTHeader header = {0};
  65              		.loc 1 38 1 view .LVU11
ARM GAS  T:\msys\tmp\ccS7xkSM.s 			page 3


  66 0010 9946     		mov	r9, r3
  67 0012 0E46     		mov	r6, r1
  68 0014 1746     		mov	r7, r2
  43:D:/fchai/work/i-cube/I-CUBE-HUAWEI/Middlewares/Third_Party/Huawei/iot_link/network/mqtt/paho_mqtt/paho/MQTTPacket/src\MQTTDeserializePublish.c **** 	int mylen = 0;
  69              		.loc 1 43 6 view .LVU12
  70 0016 0194     		str	r4, [sp, #4]
  45:D:/fchai/work/i-cube/I-CUBE-HUAWEI/Middlewares/Third_Party/Huawei/iot_link/network/mqtt/paho_mqtt/paho/MQTTPacket/src\MQTTDeserializePublish.c **** 	header.byte = readChar(&curdata);
  71              		.loc 1 45 12 is_stmt 1 view .LVU13
  72              		.loc 1 46 2 view .LVU14
  73              		.loc 1 46 16 is_stmt 0 view .LVU15
  74 0018 FFF7FEFF 		bl	readChar
  75              	.LVL3:
  47:D:/fchai/work/i-cube/I-CUBE-HUAWEI/Middlewares/Third_Party/Huawei/iot_link/network/mqtt/paho_mqtt/paho/MQTTPacket/src\MQTTDeserializePublish.c **** 	if (header.bits.type != PUBLISH)
  76              		.loc 1 47 5 view .LVU16
  77 001c 00F0F003 		and	r3, r0, #240
  46:D:/fchai/work/i-cube/I-CUBE-HUAWEI/Middlewares/Third_Party/Huawei/iot_link/network/mqtt/paho_mqtt/paho/MQTTPacket/src\MQTTDeserializePublish.c **** 	if (header.bits.type != PUBLISH)
  78              		.loc 1 46 14 view .LVU17
  79 0020 2546     		mov	r5, r4
  80              	.LVL4:
  81              		.loc 1 47 5 view .LVU18
  82 0022 302B     		cmp	r3, #48
  46:D:/fchai/work/i-cube/I-CUBE-HUAWEI/Middlewares/Third_Party/Huawei/iot_link/network/mqtt/paho_mqtt/paho/MQTTPacket/src\MQTTDeserializePublish.c **** 	if (header.bits.type != PUBLISH)
  83              		.loc 1 46 14 view .LVU19
  84 0024 60F30705 		bfi	r5, r0, #0, #8
  85              	.LVL5:
  86              		.loc 1 47 2 is_stmt 1 view .LVU20
  87              		.loc 1 47 5 is_stmt 0 view .LVU21
  88 0028 03D0     		beq	.L10
  89              	.L2:
  90              	.LVL6:
  91              	.L1:
  48:D:/fchai/work/i-cube/I-CUBE-HUAWEI/Middlewares/Third_Party/Huawei/iot_link/network/mqtt/paho_mqtt/paho/MQTTPacket/src\MQTTDeserializePublish.c **** 		goto exit;
  49:D:/fchai/work/i-cube/I-CUBE-HUAWEI/Middlewares/Third_Party/Huawei/iot_link/network/mqtt/paho_mqtt/paho/MQTTPacket/src\MQTTDeserializePublish.c **** 	*dup = header.bits.dup;
  50:D:/fchai/work/i-cube/I-CUBE-HUAWEI/Middlewares/Third_Party/Huawei/iot_link/network/mqtt/paho_mqtt/paho/MQTTPacket/src\MQTTDeserializePublish.c **** 	*qos = header.bits.qos;
  51:D:/fchai/work/i-cube/I-CUBE-HUAWEI/Middlewares/Third_Party/Huawei/iot_link/network/mqtt/paho_mqtt/paho/MQTTPacket/src\MQTTDeserializePublish.c **** 	*retained = header.bits.retain;
  52:D:/fchai/work/i-cube/I-CUBE-HUAWEI/Middlewares/Third_Party/Huawei/iot_link/network/mqtt/paho_mqtt/paho/MQTTPacket/src\MQTTDeserializePublish.c **** 
  53:D:/fchai/work/i-cube/I-CUBE-HUAWEI/Middlewares/Third_Party/Huawei/iot_link/network/mqtt/paho_mqtt/paho/MQTTPacket/src\MQTTDeserializePublish.c **** 	curdata += (rc = MQTTPacket_decodeBuf(curdata, &mylen)); /* read remaining length */
  54:D:/fchai/work/i-cube/I-CUBE-HUAWEI/Middlewares/Third_Party/Huawei/iot_link/network/mqtt/paho_mqtt/paho/MQTTPacket/src\MQTTDeserializePublish.c **** 	enddata = curdata + mylen;
  55:D:/fchai/work/i-cube/I-CUBE-HUAWEI/Middlewares/Third_Party/Huawei/iot_link/network/mqtt/paho_mqtt/paho/MQTTPacket/src\MQTTDeserializePublish.c **** 
  56:D:/fchai/work/i-cube/I-CUBE-HUAWEI/Middlewares/Third_Party/Huawei/iot_link/network/mqtt/paho_mqtt/paho/MQTTPacket/src\MQTTDeserializePublish.c **** 	if (!readMQTTLenString(topicName, &curdata, enddata) ||
  57:D:/fchai/work/i-cube/I-CUBE-HUAWEI/Middlewares/Third_Party/Huawei/iot_link/network/mqtt/paho_mqtt/paho/MQTTPacket/src\MQTTDeserializePublish.c **** 		enddata - curdata < 0) /* do we have enough data to read the protocol version byte? */
  58:D:/fchai/work/i-cube/I-CUBE-HUAWEI/Middlewares/Third_Party/Huawei/iot_link/network/mqtt/paho_mqtt/paho/MQTTPacket/src\MQTTDeserializePublish.c **** 		goto exit;
  59:D:/fchai/work/i-cube/I-CUBE-HUAWEI/Middlewares/Third_Party/Huawei/iot_link/network/mqtt/paho_mqtt/paho/MQTTPacket/src\MQTTDeserializePublish.c **** 
  60:D:/fchai/work/i-cube/I-CUBE-HUAWEI/Middlewares/Third_Party/Huawei/iot_link/network/mqtt/paho_mqtt/paho/MQTTPacket/src\MQTTDeserializePublish.c **** 	if (*qos > 0)
  61:D:/fchai/work/i-cube/I-CUBE-HUAWEI/Middlewares/Third_Party/Huawei/iot_link/network/mqtt/paho_mqtt/paho/MQTTPacket/src\MQTTDeserializePublish.c **** 		*packetid = readInt(&curdata);
  62:D:/fchai/work/i-cube/I-CUBE-HUAWEI/Middlewares/Third_Party/Huawei/iot_link/network/mqtt/paho_mqtt/paho/MQTTPacket/src\MQTTDeserializePublish.c **** 
  63:D:/fchai/work/i-cube/I-CUBE-HUAWEI/Middlewares/Third_Party/Huawei/iot_link/network/mqtt/paho_mqtt/paho/MQTTPacket/src\MQTTDeserializePublish.c **** 	*payloadlen = enddata - curdata;
  64:D:/fchai/work/i-cube/I-CUBE-HUAWEI/Middlewares/Third_Party/Huawei/iot_link/network/mqtt/paho_mqtt/paho/MQTTPacket/src\MQTTDeserializePublish.c **** 	*payload = curdata;
  65:D:/fchai/work/i-cube/I-CUBE-HUAWEI/Middlewares/Third_Party/Huawei/iot_link/network/mqtt/paho_mqtt/paho/MQTTPacket/src\MQTTDeserializePublish.c **** 	rc = 1;
  66:D:/fchai/work/i-cube/I-CUBE-HUAWEI/Middlewares/Third_Party/Huawei/iot_link/network/mqtt/paho_mqtt/paho/MQTTPacket/src\MQTTDeserializePublish.c **** exit:
  67:D:/fchai/work/i-cube/I-CUBE-HUAWEI/Middlewares/Third_Party/Huawei/iot_link/network/mqtt/paho_mqtt/paho/MQTTPacket/src\MQTTDeserializePublish.c **** 	FUNC_EXIT_RC(rc);
  68:D:/fchai/work/i-cube/I-CUBE-HUAWEI/Middlewares/Third_Party/Huawei/iot_link/network/mqtt/paho_mqtt/paho/MQTTPacket/src\MQTTDeserializePublish.c **** 	return rc;
  69:D:/fchai/work/i-cube/I-CUBE-HUAWEI/Middlewares/Third_Party/Huawei/iot_link/network/mqtt/paho_mqtt/paho/MQTTPacket/src\MQTTDeserializePublish.c **** }
  92              		.loc 1 69 1 view .LVU22
  93 002a 2046     		mov	r0, r4
  94 002c 03B0     		add	sp, sp, #12
  95              	.LCFI2:
ARM GAS  T:\msys\tmp\ccS7xkSM.s 			page 4


  96              		.cfi_remember_state
  97              		.cfi_def_cfa_offset 28
  98              		@ sp needed
  99 002e BDE8F083 		pop	{r4, r5, r6, r7, r8, r9, pc}
 100              	.LVL7:
 101              	.L10:
 102              	.LCFI3:
 103              		.cfi_restore_state
  49:D:/fchai/work/i-cube/I-CUBE-HUAWEI/Middlewares/Third_Party/Huawei/iot_link/network/mqtt/paho_mqtt/paho/MQTTPacket/src\MQTTDeserializePublish.c **** 	*qos = header.bits.qos;
 104              		.loc 1 49 2 is_stmt 1 view .LVU23
  49:D:/fchai/work/i-cube/I-CUBE-HUAWEI/Middlewares/Third_Party/Huawei/iot_link/network/mqtt/paho_mqtt/paho/MQTTPacket/src\MQTTDeserializePublish.c **** 	*qos = header.bits.qos;
 105              		.loc 1 49 20 is_stmt 0 view .LVU24
 106 0032 C5F3C002 		ubfx	r2, r5, #3, #1
  50:D:/fchai/work/i-cube/I-CUBE-HUAWEI/Middlewares/Third_Party/Huawei/iot_link/network/mqtt/paho_mqtt/paho/MQTTPacket/src\MQTTDeserializePublish.c **** 	*retained = header.bits.retain;
 107              		.loc 1 50 20 view .LVU25
 108 0036 C5F34103 		ubfx	r3, r5, #1, #2
  51:D:/fchai/work/i-cube/I-CUBE-HUAWEI/Middlewares/Third_Party/Huawei/iot_link/network/mqtt/paho_mqtt/paho/MQTTPacket/src\MQTTDeserializePublish.c **** 
 109              		.loc 1 51 25 view .LVU26
 110 003a C5F30005 		ubfx	r5, r5, #0, #1
 111              	.LVL8:
  49:D:/fchai/work/i-cube/I-CUBE-HUAWEI/Middlewares/Third_Party/Huawei/iot_link/network/mqtt/paho_mqtt/paho/MQTTPacket/src\MQTTDeserializePublish.c **** 	*qos = header.bits.qos;
 112              		.loc 1 49 7 view .LVU27
 113 003e 88F80020 		strb	r2, [r8]
  50:D:/fchai/work/i-cube/I-CUBE-HUAWEI/Middlewares/Third_Party/Huawei/iot_link/network/mqtt/paho_mqtt/paho/MQTTPacket/src\MQTTDeserializePublish.c **** 	*retained = header.bits.retain;
 114              		.loc 1 50 2 is_stmt 1 view .LVU28
  53:D:/fchai/work/i-cube/I-CUBE-HUAWEI/Middlewares/Third_Party/Huawei/iot_link/network/mqtt/paho_mqtt/paho/MQTTPacket/src\MQTTDeserializePublish.c **** 	enddata = curdata + mylen;
 115              		.loc 1 53 19 is_stmt 0 view .LVU29
 116 0042 01A9     		add	r1, sp, #4
  50:D:/fchai/work/i-cube/I-CUBE-HUAWEI/Middlewares/Third_Party/Huawei/iot_link/network/mqtt/paho_mqtt/paho/MQTTPacket/src\MQTTDeserializePublish.c **** 	*retained = header.bits.retain;
 117              		.loc 1 50 20 view .LVU30
 118 0044 3360     		str	r3, [r6]
  51:D:/fchai/work/i-cube/I-CUBE-HUAWEI/Middlewares/Third_Party/Huawei/iot_link/network/mqtt/paho_mqtt/paho/MQTTPacket/src\MQTTDeserializePublish.c **** 
 119              		.loc 1 51 2 is_stmt 1 view .LVU31
  53:D:/fchai/work/i-cube/I-CUBE-HUAWEI/Middlewares/Third_Party/Huawei/iot_link/network/mqtt/paho_mqtt/paho/MQTTPacket/src\MQTTDeserializePublish.c **** 	enddata = curdata + mylen;
 120              		.loc 1 53 19 is_stmt 0 view .LVU32
 121 0046 0098     		ldr	r0, [sp]
  51:D:/fchai/work/i-cube/I-CUBE-HUAWEI/Middlewares/Third_Party/Huawei/iot_link/network/mqtt/paho_mqtt/paho/MQTTPacket/src\MQTTDeserializePublish.c **** 
 122              		.loc 1 51 12 view .LVU33
 123 0048 3D70     		strb	r5, [r7]
  53:D:/fchai/work/i-cube/I-CUBE-HUAWEI/Middlewares/Third_Party/Huawei/iot_link/network/mqtt/paho_mqtt/paho/MQTTPacket/src\MQTTDeserializePublish.c **** 	enddata = curdata + mylen;
 124              		.loc 1 53 2 is_stmt 1 view .LVU34
  53:D:/fchai/work/i-cube/I-CUBE-HUAWEI/Middlewares/Third_Party/Huawei/iot_link/network/mqtt/paho_mqtt/paho/MQTTPacket/src\MQTTDeserializePublish.c **** 	enddata = curdata + mylen;
 125              		.loc 1 53 19 is_stmt 0 view .LVU35
 126 004a FFF7FEFF 		bl	MQTTPacket_decodeBuf
 127              	.LVL9:
  54:D:/fchai/work/i-cube/I-CUBE-HUAWEI/Middlewares/Third_Party/Huawei/iot_link/network/mqtt/paho_mqtt/paho/MQTTPacket/src\MQTTDeserializePublish.c **** 
 128              		.loc 1 54 10 view .LVU36
 129 004e DDE90035 		ldrd	r3, r5, [sp]
  53:D:/fchai/work/i-cube/I-CUBE-HUAWEI/Middlewares/Third_Party/Huawei/iot_link/network/mqtt/paho_mqtt/paho/MQTTPacket/src\MQTTDeserializePublish.c **** 	enddata = curdata + mylen;
 130              		.loc 1 53 10 view .LVU37
 131 0052 0344     		add	r3, r3, r0
  54:D:/fchai/work/i-cube/I-CUBE-HUAWEI/Middlewares/Third_Party/Huawei/iot_link/network/mqtt/paho_mqtt/paho/MQTTPacket/src\MQTTDeserializePublish.c **** 
 132              		.loc 1 54 10 view .LVU38
 133 0054 1D44     		add	r5, r5, r3
  53:D:/fchai/work/i-cube/I-CUBE-HUAWEI/Middlewares/Third_Party/Huawei/iot_link/network/mqtt/paho_mqtt/paho/MQTTPacket/src\MQTTDeserializePublish.c **** 	enddata = curdata + mylen;
 134              		.loc 1 53 19 view .LVU39
 135 0056 0446     		mov	r4, r0
ARM GAS  T:\msys\tmp\ccS7xkSM.s 			page 5


 136              	.LVL10:
  56:D:/fchai/work/i-cube/I-CUBE-HUAWEI/Middlewares/Third_Party/Huawei/iot_link/network/mqtt/paho_mqtt/paho/MQTTPacket/src\MQTTDeserializePublish.c **** 		enddata - curdata < 0) /* do we have enough data to read the protocol version byte? */
 137              		.loc 1 56 7 view .LVU40
 138 0058 2A46     		mov	r2, r5
 139 005a 0A98     		ldr	r0, [sp, #40]
 140              	.LVL11:
  53:D:/fchai/work/i-cube/I-CUBE-HUAWEI/Middlewares/Third_Party/Huawei/iot_link/network/mqtt/paho_mqtt/paho/MQTTPacket/src\MQTTDeserializePublish.c **** 	enddata = curdata + mylen;
 141              		.loc 1 53 10 view .LVU41
 142 005c 0093     		str	r3, [sp]
  54:D:/fchai/work/i-cube/I-CUBE-HUAWEI/Middlewares/Third_Party/Huawei/iot_link/network/mqtt/paho_mqtt/paho/MQTTPacket/src\MQTTDeserializePublish.c **** 
 143              		.loc 1 54 2 is_stmt 1 view .LVU42
 144              	.LVL12:
  56:D:/fchai/work/i-cube/I-CUBE-HUAWEI/Middlewares/Third_Party/Huawei/iot_link/network/mqtt/paho_mqtt/paho/MQTTPacket/src\MQTTDeserializePublish.c **** 		enddata - curdata < 0) /* do we have enough data to read the protocol version byte? */
 145              		.loc 1 56 2 view .LVU43
  56:D:/fchai/work/i-cube/I-CUBE-HUAWEI/Middlewares/Third_Party/Huawei/iot_link/network/mqtt/paho_mqtt/paho/MQTTPacket/src\MQTTDeserializePublish.c **** 		enddata - curdata < 0) /* do we have enough data to read the protocol version byte? */
 146              		.loc 1 56 7 is_stmt 0 view .LVU44
 147 005e 6946     		mov	r1, sp
 148 0060 FFF7FEFF 		bl	readMQTTLenString
 149              	.LVL13:
  56:D:/fchai/work/i-cube/I-CUBE-HUAWEI/Middlewares/Third_Party/Huawei/iot_link/network/mqtt/paho_mqtt/paho/MQTTPacket/src\MQTTDeserializePublish.c **** 		enddata - curdata < 0) /* do we have enough data to read the protocol version byte? */
 150              		.loc 1 56 5 view .LVU45
 151 0064 0028     		cmp	r0, #0
 152 0066 E0D0     		beq	.L1
  57:D:/fchai/work/i-cube/I-CUBE-HUAWEI/Middlewares/Third_Party/Huawei/iot_link/network/mqtt/paho_mqtt/paho/MQTTPacket/src\MQTTDeserializePublish.c **** 		goto exit;
 153              		.loc 1 57 11 discriminator 1 view .LVU46
 154 0068 009B     		ldr	r3, [sp]
  56:D:/fchai/work/i-cube/I-CUBE-HUAWEI/Middlewares/Third_Party/Huawei/iot_link/network/mqtt/paho_mqtt/paho/MQTTPacket/src\MQTTDeserializePublish.c **** 		enddata - curdata < 0) /* do we have enough data to read the protocol version byte? */
 155              		.loc 1 56 55 discriminator 1 view .LVU47
 156 006a EA1A     		subs	r2, r5, r3
 157 006c DDD4     		bmi	.L1
  60:D:/fchai/work/i-cube/I-CUBE-HUAWEI/Middlewares/Third_Party/Huawei/iot_link/network/mqtt/paho_mqtt/paho/MQTTPacket/src\MQTTDeserializePublish.c **** 		*packetid = readInt(&curdata);
 158              		.loc 1 60 2 is_stmt 1 view .LVU48
  60:D:/fchai/work/i-cube/I-CUBE-HUAWEI/Middlewares/Third_Party/Huawei/iot_link/network/mqtt/paho_mqtt/paho/MQTTPacket/src\MQTTDeserializePublish.c **** 		*packetid = readInt(&curdata);
 159              		.loc 1 60 5 is_stmt 0 view .LVU49
 160 006e 3168     		ldr	r1, [r6]
 161 0070 0029     		cmp	r1, #0
 162 0072 06DD     		ble	.L3
  61:D:/fchai/work/i-cube/I-CUBE-HUAWEI/Middlewares/Third_Party/Huawei/iot_link/network/mqtt/paho_mqtt/paho/MQTTPacket/src\MQTTDeserializePublish.c **** 
 163              		.loc 1 61 3 is_stmt 1 view .LVU50
  61:D:/fchai/work/i-cube/I-CUBE-HUAWEI/Middlewares/Third_Party/Huawei/iot_link/network/mqtt/paho_mqtt/paho/MQTTPacket/src\MQTTDeserializePublish.c **** 
 164              		.loc 1 61 15 is_stmt 0 view .LVU51
 165 0074 6846     		mov	r0, sp
 166 0076 FFF7FEFF 		bl	readInt
 167              	.LVL14:
 168 007a 009B     		ldr	r3, [sp]
  61:D:/fchai/work/i-cube/I-CUBE-HUAWEI/Middlewares/Third_Party/Huawei/iot_link/network/mqtt/paho_mqtt/paho/MQTTPacket/src\MQTTDeserializePublish.c **** 
 169              		.loc 1 61 13 view .LVU52
 170 007c A9F80000 		strh	r0, [r9]	@ movhi
 171 0080 EA1A     		subs	r2, r5, r3
 172              	.L3:
  63:D:/fchai/work/i-cube/I-CUBE-HUAWEI/Middlewares/Third_Party/Huawei/iot_link/network/mqtt/paho_mqtt/paho/MQTTPacket/src\MQTTDeserializePublish.c **** 	*payload = curdata;
 173              		.loc 1 63 2 is_stmt 1 view .LVU53
  63:D:/fchai/work/i-cube/I-CUBE-HUAWEI/Middlewares/Third_Party/Huawei/iot_link/network/mqtt/paho_mqtt/paho/MQTTPacket/src\MQTTDeserializePublish.c **** 	*payload = curdata;
 174              		.loc 1 63 14 is_stmt 0 view .LVU54
 175 0082 0C99     		ldr	r1, [sp, #48]
  65:D:/fchai/work/i-cube/I-CUBE-HUAWEI/Middlewares/Third_Party/Huawei/iot_link/network/mqtt/paho_mqtt/paho/MQTTPacket/src\MQTTDeserializePublish.c **** exit:
 176              		.loc 1 65 5 view .LVU55
ARM GAS  T:\msys\tmp\ccS7xkSM.s 			page 6


 177 0084 0124     		movs	r4, #1
 178              	.LVL15:
  63:D:/fchai/work/i-cube/I-CUBE-HUAWEI/Middlewares/Third_Party/Huawei/iot_link/network/mqtt/paho_mqtt/paho/MQTTPacket/src\MQTTDeserializePublish.c **** 	*payload = curdata;
 179              		.loc 1 63 14 view .LVU56
 180 0086 0A60     		str	r2, [r1]
  64:D:/fchai/work/i-cube/I-CUBE-HUAWEI/Middlewares/Third_Party/Huawei/iot_link/network/mqtt/paho_mqtt/paho/MQTTPacket/src\MQTTDeserializePublish.c **** 	rc = 1;
 181              		.loc 1 64 2 is_stmt 1 view .LVU57
  64:D:/fchai/work/i-cube/I-CUBE-HUAWEI/Middlewares/Third_Party/Huawei/iot_link/network/mqtt/paho_mqtt/paho/MQTTPacket/src\MQTTDeserializePublish.c **** 	rc = 1;
 182              		.loc 1 64 11 is_stmt 0 view .LVU58
 183 0088 0B9A     		ldr	r2, [sp, #44]
 184              		.loc 1 69 1 view .LVU59
 185 008a 2046     		mov	r0, r4
  64:D:/fchai/work/i-cube/I-CUBE-HUAWEI/Middlewares/Third_Party/Huawei/iot_link/network/mqtt/paho_mqtt/paho/MQTTPacket/src\MQTTDeserializePublish.c **** 	rc = 1;
 186              		.loc 1 64 11 view .LVU60
 187 008c 1360     		str	r3, [r2]
  65:D:/fchai/work/i-cube/I-CUBE-HUAWEI/Middlewares/Third_Party/Huawei/iot_link/network/mqtt/paho_mqtt/paho/MQTTPacket/src\MQTTDeserializePublish.c **** exit:
 188              		.loc 1 65 2 is_stmt 1 view .LVU61
 189              	.LVL16:
 190              		.loc 1 69 1 is_stmt 0 view .LVU62
 191 008e 03B0     		add	sp, sp, #12
 192              	.LCFI4:
 193              		.cfi_def_cfa_offset 28
 194              		@ sp needed
 195 0090 BDE8F083 		pop	{r4, r5, r6, r7, r8, r9, pc}
 196              		.loc 1 69 1 view .LVU63
 197              		.cfi_endproc
 198              	.LFE3:
 200              		.section	.text.MQTTDeserialize_ack,"ax",%progbits
 201              		.align	1
 202              		.p2align 2,,3
 203              		.global	MQTTDeserialize_ack
 204              		.syntax unified
 205              		.thumb
 206              		.thumb_func
 207              		.fpu fpv4-sp-d16
 209              	MQTTDeserialize_ack:
 210              	.LVL17:
 211              	.LFB4:
  70:D:/fchai/work/i-cube/I-CUBE-HUAWEI/Middlewares/Third_Party/Huawei/iot_link/network/mqtt/paho_mqtt/paho/MQTTPacket/src\MQTTDeserializePublish.c **** 
  71:D:/fchai/work/i-cube/I-CUBE-HUAWEI/Middlewares/Third_Party/Huawei/iot_link/network/mqtt/paho_mqtt/paho/MQTTPacket/src\MQTTDeserializePublish.c **** 
  72:D:/fchai/work/i-cube/I-CUBE-HUAWEI/Middlewares/Third_Party/Huawei/iot_link/network/mqtt/paho_mqtt/paho/MQTTPacket/src\MQTTDeserializePublish.c **** 
  73:D:/fchai/work/i-cube/I-CUBE-HUAWEI/Middlewares/Third_Party/Huawei/iot_link/network/mqtt/paho_mqtt/paho/MQTTPacket/src\MQTTDeserializePublish.c **** /**
  74:D:/fchai/work/i-cube/I-CUBE-HUAWEI/Middlewares/Third_Party/Huawei/iot_link/network/mqtt/paho_mqtt/paho/MQTTPacket/src\MQTTDeserializePublish.c ****   * Deserializes the supplied (wire) buffer into an ack
  75:D:/fchai/work/i-cube/I-CUBE-HUAWEI/Middlewares/Third_Party/Huawei/iot_link/network/mqtt/paho_mqtt/paho/MQTTPacket/src\MQTTDeserializePublish.c ****   * @param packettype returned integer - the MQTT packet type
  76:D:/fchai/work/i-cube/I-CUBE-HUAWEI/Middlewares/Third_Party/Huawei/iot_link/network/mqtt/paho_mqtt/paho/MQTTPacket/src\MQTTDeserializePublish.c ****   * @param dup returned integer - the MQTT dup flag
  77:D:/fchai/work/i-cube/I-CUBE-HUAWEI/Middlewares/Third_Party/Huawei/iot_link/network/mqtt/paho_mqtt/paho/MQTTPacket/src\MQTTDeserializePublish.c ****   * @param packetid returned integer - the MQTT packet identifier
  78:D:/fchai/work/i-cube/I-CUBE-HUAWEI/Middlewares/Third_Party/Huawei/iot_link/network/mqtt/paho_mqtt/paho/MQTTPacket/src\MQTTDeserializePublish.c ****   * @param buf the raw buffer data, of the correct length determined by the remaining length field
  79:D:/fchai/work/i-cube/I-CUBE-HUAWEI/Middlewares/Third_Party/Huawei/iot_link/network/mqtt/paho_mqtt/paho/MQTTPacket/src\MQTTDeserializePublish.c ****   * @param buflen the length in bytes of the data in the supplied buffer
  80:D:/fchai/work/i-cube/I-CUBE-HUAWEI/Middlewares/Third_Party/Huawei/iot_link/network/mqtt/paho_mqtt/paho/MQTTPacket/src\MQTTDeserializePublish.c ****   * @return error code.  1 is success, 0 is failure
  81:D:/fchai/work/i-cube/I-CUBE-HUAWEI/Middlewares/Third_Party/Huawei/iot_link/network/mqtt/paho_mqtt/paho/MQTTPacket/src\MQTTDeserializePublish.c ****   */
  82:D:/fchai/work/i-cube/I-CUBE-HUAWEI/Middlewares/Third_Party/Huawei/iot_link/network/mqtt/paho_mqtt/paho/MQTTPacket/src\MQTTDeserializePublish.c **** int MQTTDeserialize_ack(unsigned char* packettype, unsigned char* dup, unsigned short* packetid, un
  83:D:/fchai/work/i-cube/I-CUBE-HUAWEI/Middlewares/Third_Party/Huawei/iot_link/network/mqtt/paho_mqtt/paho/MQTTPacket/src\MQTTDeserializePublish.c **** {
 212              		.loc 1 83 1 is_stmt 1 view -0
 213              		.cfi_startproc
 214              		@ args = 4, pretend = 0, frame = 8
 215              		@ frame_needed = 0, uses_anonymous_args = 0
  84:D:/fchai/work/i-cube/I-CUBE-HUAWEI/Middlewares/Third_Party/Huawei/iot_link/network/mqtt/paho_mqtt/paho/MQTTPacket/src\MQTTDeserializePublish.c **** 	MQTTHeader header = {0};
ARM GAS  T:\msys\tmp\ccS7xkSM.s 			page 7


 216              		.loc 1 84 2 view .LVU65
  85:D:/fchai/work/i-cube/I-CUBE-HUAWEI/Middlewares/Third_Party/Huawei/iot_link/network/mqtt/paho_mqtt/paho/MQTTPacket/src\MQTTDeserializePublish.c **** 	unsigned char* curdata = buf;
 217              		.loc 1 85 2 view .LVU66
  83:D:/fchai/work/i-cube/I-CUBE-HUAWEI/Middlewares/Third_Party/Huawei/iot_link/network/mqtt/paho_mqtt/paho/MQTTPacket/src\MQTTDeserializePublish.c **** 	MQTTHeader header = {0};
 218              		.loc 1 83 1 is_stmt 0 view .LVU67
 219 0000 70B5     		push	{r4, r5, r6, lr}
 220              	.LCFI5:
 221              		.cfi_def_cfa_offset 16
 222              		.cfi_offset 4, -16
 223              		.cfi_offset 5, -12
 224              		.cfi_offset 6, -8
 225              		.cfi_offset 14, -4
 226 0002 82B0     		sub	sp, sp, #8
 227              	.LCFI6:
 228              		.cfi_def_cfa_offset 24
  83:D:/fchai/work/i-cube/I-CUBE-HUAWEI/Middlewares/Third_Party/Huawei/iot_link/network/mqtt/paho_mqtt/paho/MQTTPacket/src\MQTTDeserializePublish.c **** 	MQTTHeader header = {0};
 229              		.loc 1 83 1 view .LVU68
 230 0004 0446     		mov	r4, r0
  86:D:/fchai/work/i-cube/I-CUBE-HUAWEI/Middlewares/Third_Party/Huawei/iot_link/network/mqtt/paho_mqtt/paho/MQTTPacket/src\MQTTDeserializePublish.c **** 	unsigned char* enddata = NULL;
  87:D:/fchai/work/i-cube/I-CUBE-HUAWEI/Middlewares/Third_Party/Huawei/iot_link/network/mqtt/paho_mqtt/paho/MQTTPacket/src\MQTTDeserializePublish.c **** 	int rc = 0;
  88:D:/fchai/work/i-cube/I-CUBE-HUAWEI/Middlewares/Third_Party/Huawei/iot_link/network/mqtt/paho_mqtt/paho/MQTTPacket/src\MQTTDeserializePublish.c **** 	int mylen;
  89:D:/fchai/work/i-cube/I-CUBE-HUAWEI/Middlewares/Third_Party/Huawei/iot_link/network/mqtt/paho_mqtt/paho/MQTTPacket/src\MQTTDeserializePublish.c **** 
  90:D:/fchai/work/i-cube/I-CUBE-HUAWEI/Middlewares/Third_Party/Huawei/iot_link/network/mqtt/paho_mqtt/paho/MQTTPacket/src\MQTTDeserializePublish.c **** 	FUNC_ENTRY;
  91:D:/fchai/work/i-cube/I-CUBE-HUAWEI/Middlewares/Third_Party/Huawei/iot_link/network/mqtt/paho_mqtt/paho/MQTTPacket/src\MQTTDeserializePublish.c **** 	header.byte = readChar(&curdata);
 231              		.loc 1 91 16 view .LVU69
 232 0006 6846     		mov	r0, sp
 233              	.LVL18:
  83:D:/fchai/work/i-cube/I-CUBE-HUAWEI/Middlewares/Third_Party/Huawei/iot_link/network/mqtt/paho_mqtt/paho/MQTTPacket/src\MQTTDeserializePublish.c **** 	MQTTHeader header = {0};
 234              		.loc 1 83 1 view .LVU70
 235 0008 0E46     		mov	r6, r1
 236 000a 1546     		mov	r5, r2
  85:D:/fchai/work/i-cube/I-CUBE-HUAWEI/Middlewares/Third_Party/Huawei/iot_link/network/mqtt/paho_mqtt/paho/MQTTPacket/src\MQTTDeserializePublish.c **** 	unsigned char* enddata = NULL;
 237              		.loc 1 85 17 view .LVU71
 238 000c 0093     		str	r3, [sp]
  86:D:/fchai/work/i-cube/I-CUBE-HUAWEI/Middlewares/Third_Party/Huawei/iot_link/network/mqtt/paho_mqtt/paho/MQTTPacket/src\MQTTDeserializePublish.c **** 	unsigned char* enddata = NULL;
 239              		.loc 1 86 2 is_stmt 1 view .LVU72
 240              	.LVL19:
  87:D:/fchai/work/i-cube/I-CUBE-HUAWEI/Middlewares/Third_Party/Huawei/iot_link/network/mqtt/paho_mqtt/paho/MQTTPacket/src\MQTTDeserializePublish.c **** 	int mylen;
 241              		.loc 1 87 2 view .LVU73
  88:D:/fchai/work/i-cube/I-CUBE-HUAWEI/Middlewares/Third_Party/Huawei/iot_link/network/mqtt/paho_mqtt/paho/MQTTPacket/src\MQTTDeserializePublish.c **** 
 242              		.loc 1 88 2 view .LVU74
  90:D:/fchai/work/i-cube/I-CUBE-HUAWEI/Middlewares/Third_Party/Huawei/iot_link/network/mqtt/paho_mqtt/paho/MQTTPacket/src\MQTTDeserializePublish.c **** 	header.byte = readChar(&curdata);
 243              		.loc 1 90 12 view .LVU75
 244              		.loc 1 91 2 view .LVU76
 245              		.loc 1 91 16 is_stmt 0 view .LVU77
 246 000e FFF7FEFF 		bl	readChar
 247              	.LVL20:
 248              		.loc 1 91 14 view .LVU78
 249 0012 0023     		movs	r3, #0
 250              	.LVL21:
 251              		.loc 1 91 14 view .LVU79
 252 0014 60F30703 		bfi	r3, r0, #0, #8
 253              	.LVL22:
  92:D:/fchai/work/i-cube/I-CUBE-HUAWEI/Middlewares/Third_Party/Huawei/iot_link/network/mqtt/paho_mqtt/paho/MQTTPacket/src\MQTTDeserializePublish.c **** 	*dup = header.bits.dup;
 254              		.loc 1 92 2 is_stmt 1 view .LVU80
 255              		.loc 1 92 20 is_stmt 0 view .LVU81
 256 0018 C3F3C002 		ubfx	r2, r3, #3, #1
ARM GAS  T:\msys\tmp\ccS7xkSM.s 			page 8


  93:D:/fchai/work/i-cube/I-CUBE-HUAWEI/Middlewares/Third_Party/Huawei/iot_link/network/mqtt/paho_mqtt/paho/MQTTPacket/src\MQTTDeserializePublish.c **** 	*packettype = header.bits.type;
 257              		.loc 1 93 27 view .LVU82
 258 001c C3F30313 		ubfx	r3, r3, #4, #4
 259              	.LVL23:
  92:D:/fchai/work/i-cube/I-CUBE-HUAWEI/Middlewares/Third_Party/Huawei/iot_link/network/mqtt/paho_mqtt/paho/MQTTPacket/src\MQTTDeserializePublish.c **** 	*dup = header.bits.dup;
 260              		.loc 1 92 7 view .LVU83
 261 0020 3270     		strb	r2, [r6]
 262              		.loc 1 93 2 is_stmt 1 view .LVU84
  94:D:/fchai/work/i-cube/I-CUBE-HUAWEI/Middlewares/Third_Party/Huawei/iot_link/network/mqtt/paho_mqtt/paho/MQTTPacket/src\MQTTDeserializePublish.c **** 
  95:D:/fchai/work/i-cube/I-CUBE-HUAWEI/Middlewares/Third_Party/Huawei/iot_link/network/mqtt/paho_mqtt/paho/MQTTPacket/src\MQTTDeserializePublish.c **** 	curdata += (rc = MQTTPacket_decodeBuf(curdata, &mylen)); /* read remaining length */
 263              		.loc 1 95 19 is_stmt 0 view .LVU85
 264 0022 0098     		ldr	r0, [sp]
  93:D:/fchai/work/i-cube/I-CUBE-HUAWEI/Middlewares/Third_Party/Huawei/iot_link/network/mqtt/paho_mqtt/paho/MQTTPacket/src\MQTTDeserializePublish.c **** 	*packettype = header.bits.type;
 265              		.loc 1 93 14 view .LVU86
 266 0024 2370     		strb	r3, [r4]
 267              		.loc 1 95 2 is_stmt 1 view .LVU87
 268              		.loc 1 95 19 is_stmt 0 view .LVU88
 269 0026 01A9     		add	r1, sp, #4
 270 0028 FFF7FEFF 		bl	MQTTPacket_decodeBuf
 271              	.LVL24:
  96:D:/fchai/work/i-cube/I-CUBE-HUAWEI/Middlewares/Third_Party/Huawei/iot_link/network/mqtt/paho_mqtt/paho/MQTTPacket/src\MQTTDeserializePublish.c **** 	enddata = curdata + mylen;
  97:D:/fchai/work/i-cube/I-CUBE-HUAWEI/Middlewares/Third_Party/Huawei/iot_link/network/mqtt/paho_mqtt/paho/MQTTPacket/src\MQTTDeserializePublish.c **** 
  98:D:/fchai/work/i-cube/I-CUBE-HUAWEI/Middlewares/Third_Party/Huawei/iot_link/network/mqtt/paho_mqtt/paho/MQTTPacket/src\MQTTDeserializePublish.c **** 	if (enddata - curdata < 2)
 272              		.loc 1 98 5 view .LVU89
 273 002c DDE90032 		ldrd	r3, r2, [sp]
 274              	.LVL25:
  95:D:/fchai/work/i-cube/I-CUBE-HUAWEI/Middlewares/Third_Party/Huawei/iot_link/network/mqtt/paho_mqtt/paho/MQTTPacket/src\MQTTDeserializePublish.c **** 	enddata = curdata + mylen;
 275              		.loc 1 95 10 view .LVU90
 276 0030 0344     		add	r3, r3, r0
 277              		.loc 1 98 5 view .LVU91
 278 0032 012A     		cmp	r2, #1
  95:D:/fchai/work/i-cube/I-CUBE-HUAWEI/Middlewares/Third_Party/Huawei/iot_link/network/mqtt/paho_mqtt/paho/MQTTPacket/src\MQTTDeserializePublish.c **** 	enddata = curdata + mylen;
 279              		.loc 1 95 10 view .LVU92
 280 0034 0093     		str	r3, [sp]
  96:D:/fchai/work/i-cube/I-CUBE-HUAWEI/Middlewares/Third_Party/Huawei/iot_link/network/mqtt/paho_mqtt/paho/MQTTPacket/src\MQTTDeserializePublish.c **** 	enddata = curdata + mylen;
 281              		.loc 1 96 2 is_stmt 1 view .LVU93
 282              	.LVL26:
 283              		.loc 1 98 2 view .LVU94
 284              		.loc 1 98 5 is_stmt 0 view .LVU95
 285 0036 04DD     		ble	.L11
  99:D:/fchai/work/i-cube/I-CUBE-HUAWEI/Middlewares/Third_Party/Huawei/iot_link/network/mqtt/paho_mqtt/paho/MQTTPacket/src\MQTTDeserializePublish.c **** 		goto exit;
 100:D:/fchai/work/i-cube/I-CUBE-HUAWEI/Middlewares/Third_Party/Huawei/iot_link/network/mqtt/paho_mqtt/paho/MQTTPacket/src\MQTTDeserializePublish.c **** 	*packetid = readInt(&curdata);
 286              		.loc 1 100 2 is_stmt 1 view .LVU96
 287              		.loc 1 100 14 is_stmt 0 view .LVU97
 288 0038 6846     		mov	r0, sp
 289              	.LVL27:
 290              		.loc 1 100 14 view .LVU98
 291 003a FFF7FEFF 		bl	readInt
 292              	.LVL28:
 293              		.loc 1 100 12 view .LVU99
 294 003e 2880     		strh	r0, [r5]	@ movhi
 101:D:/fchai/work/i-cube/I-CUBE-HUAWEI/Middlewares/Third_Party/Huawei/iot_link/network/mqtt/paho_mqtt/paho/MQTTPacket/src\MQTTDeserializePublish.c **** 
 102:D:/fchai/work/i-cube/I-CUBE-HUAWEI/Middlewares/Third_Party/Huawei/iot_link/network/mqtt/paho_mqtt/paho/MQTTPacket/src\MQTTDeserializePublish.c **** 	rc = 1;
 295              		.loc 1 102 2 is_stmt 1 view .LVU100
 296              	.LVL29:
 297              		.loc 1 102 5 is_stmt 0 view .LVU101
 298 0040 0120     		movs	r0, #1
ARM GAS  T:\msys\tmp\ccS7xkSM.s 			page 9


 103:D:/fchai/work/i-cube/I-CUBE-HUAWEI/Middlewares/Third_Party/Huawei/iot_link/network/mqtt/paho_mqtt/paho/MQTTPacket/src\MQTTDeserializePublish.c **** exit:
 104:D:/fchai/work/i-cube/I-CUBE-HUAWEI/Middlewares/Third_Party/Huawei/iot_link/network/mqtt/paho_mqtt/paho/MQTTPacket/src\MQTTDeserializePublish.c **** 	FUNC_EXIT_RC(rc);
 299              		.loc 1 104 18 is_stmt 1 view .LVU102
 105:D:/fchai/work/i-cube/I-CUBE-HUAWEI/Middlewares/Third_Party/Huawei/iot_link/network/mqtt/paho_mqtt/paho/MQTTPacket/src\MQTTDeserializePublish.c **** 	return rc;
 300              		.loc 1 105 2 view .LVU103
 301              	.L12:
 302              	.LVL30:
 303              	.L11:
 106:D:/fchai/work/i-cube/I-CUBE-HUAWEI/Middlewares/Third_Party/Huawei/iot_link/network/mqtt/paho_mqtt/paho/MQTTPacket/src\MQTTDeserializePublish.c **** }
 304              		.loc 1 106 1 is_stmt 0 view .LVU104
 305 0042 02B0     		add	sp, sp, #8
 306              	.LCFI7:
 307              		.cfi_def_cfa_offset 16
 308              		@ sp needed
 309 0044 70BD     		pop	{r4, r5, r6, pc}
 310              		.loc 1 106 1 view .LVU105
 311              		.cfi_endproc
 312              	.LFE4:
 314 0046 00BF     		.text
 315              	.Letext0:
 316              		.file 2 "t:\\msys\\3rd\\gcc-arm-none-eabi-9-2020-q2-update-win32\\lib\\gcc\\arm-none-eabi\\9.3.1\\
 317              		.file 3 "t:\\msys\\3rd\\gcc-arm-none-eabi-9-2020-q2-update-win32\\arm-none-eabi\\include\\sys\\_ty
 318              		.file 4 "t:\\msys\\3rd\\gcc-arm-none-eabi-9-2020-q2-update-win32\\arm-none-eabi\\include\\sys\\ree
 319              		.file 5 "t:\\msys\\3rd\\gcc-arm-none-eabi-9-2020-q2-update-win32\\arm-none-eabi\\include\\sys\\loc
 320              		.file 6 "D:/fchai/work/i-cube/I-CUBE-HUAWEI/Middlewares/Third_Party/Huawei/iot_link/network/mqtt/p
ARM GAS  T:\msys\tmp\ccS7xkSM.s 			page 10

