ARM GAS  T:\msys\tmp\ccqTp987.s 			page 1


   1              		.cpu cortex-m4
   2              		.eabi_attribute 27, 1
   3              		.eabi_attribute 28, 1
   4              		.eabi_attribute 20, 1
   5              		.eabi_attribute 21, 1
   6              		.eabi_attribute 23, 3
   7              		.eabi_attribute 24, 1
   8              		.eabi_attribute 25, 1
   9              		.eabi_attribute 26, 1
  10              		.eabi_attribute 30, 2
  11              		.eabi_attribute 34, 1
  12              		.eabi_attribute 18, 4
  13              		.file	"MQTTPacket.c"
  14              		.text
  15              	.Ltext0:
  16              		.cfi_sections	.debug_frame
  17              		.section	.text.bufchar,"ax",%progbits
  18              		.align	1
  19              		.p2align 2,,3
  20              		.global	bufchar
  21              		.arch armv7e-m
  22              		.syntax unified
  23              		.thumb
  24              		.thumb_func
  25              		.fpu fpv4-sp-d16
  27              	bufchar:
  28              	.LVL0:
  29              	.LFB6:
  30              		.file 1 "D:/fchai/work/i-cube/I-CUBE-HUAWEI/Middlewares/Third_Party/Huawei/iot_link/network/mqtt/p
   1:D:/fchai/work/i-cube/I-CUBE-HUAWEI/Middlewares/Third_Party/Huawei/iot_link/network/mqtt/paho_mqtt/paho/MQTTPacket/src\MQTTPacket.c **** /*******************************************************************************
   2:D:/fchai/work/i-cube/I-CUBE-HUAWEI/Middlewares/Third_Party/Huawei/iot_link/network/mqtt/paho_mqtt/paho/MQTTPacket/src\MQTTPacket.c ****  * Copyright (c) 2014 IBM Corp.
   3:D:/fchai/work/i-cube/I-CUBE-HUAWEI/Middlewares/Third_Party/Huawei/iot_link/network/mqtt/paho_mqtt/paho/MQTTPacket/src\MQTTPacket.c ****  *
   4:D:/fchai/work/i-cube/I-CUBE-HUAWEI/Middlewares/Third_Party/Huawei/iot_link/network/mqtt/paho_mqtt/paho/MQTTPacket/src\MQTTPacket.c ****  * All rights reserved. This program and the accompanying materials
   5:D:/fchai/work/i-cube/I-CUBE-HUAWEI/Middlewares/Third_Party/Huawei/iot_link/network/mqtt/paho_mqtt/paho/MQTTPacket/src\MQTTPacket.c ****  * are made available under the terms of the Eclipse Public License v1.0
   6:D:/fchai/work/i-cube/I-CUBE-HUAWEI/Middlewares/Third_Party/Huawei/iot_link/network/mqtt/paho_mqtt/paho/MQTTPacket/src\MQTTPacket.c ****  * and Eclipse Distribution License v1.0 which accompany this distribution.
   7:D:/fchai/work/i-cube/I-CUBE-HUAWEI/Middlewares/Third_Party/Huawei/iot_link/network/mqtt/paho_mqtt/paho/MQTTPacket/src\MQTTPacket.c ****  *
   8:D:/fchai/work/i-cube/I-CUBE-HUAWEI/Middlewares/Third_Party/Huawei/iot_link/network/mqtt/paho_mqtt/paho/MQTTPacket/src\MQTTPacket.c ****  * The Eclipse Public License is available at
   9:D:/fchai/work/i-cube/I-CUBE-HUAWEI/Middlewares/Third_Party/Huawei/iot_link/network/mqtt/paho_mqtt/paho/MQTTPacket/src\MQTTPacket.c ****  *    http://www.eclipse.org/legal/epl-v10.html
  10:D:/fchai/work/i-cube/I-CUBE-HUAWEI/Middlewares/Third_Party/Huawei/iot_link/network/mqtt/paho_mqtt/paho/MQTTPacket/src\MQTTPacket.c ****  * and the Eclipse Distribution License is available at
  11:D:/fchai/work/i-cube/I-CUBE-HUAWEI/Middlewares/Third_Party/Huawei/iot_link/network/mqtt/paho_mqtt/paho/MQTTPacket/src\MQTTPacket.c ****  *   http://www.eclipse.org/org/documents/edl-v10.php.
  12:D:/fchai/work/i-cube/I-CUBE-HUAWEI/Middlewares/Third_Party/Huawei/iot_link/network/mqtt/paho_mqtt/paho/MQTTPacket/src\MQTTPacket.c ****  *
  13:D:/fchai/work/i-cube/I-CUBE-HUAWEI/Middlewares/Third_Party/Huawei/iot_link/network/mqtt/paho_mqtt/paho/MQTTPacket/src\MQTTPacket.c ****  * Contributors:
  14:D:/fchai/work/i-cube/I-CUBE-HUAWEI/Middlewares/Third_Party/Huawei/iot_link/network/mqtt/paho_mqtt/paho/MQTTPacket/src\MQTTPacket.c ****  *    Ian Craggs - initial API and implementation and/or initial documentation
  15:D:/fchai/work/i-cube/I-CUBE-HUAWEI/Middlewares/Third_Party/Huawei/iot_link/network/mqtt/paho_mqtt/paho/MQTTPacket/src\MQTTPacket.c ****  *    Sergio R. Caprile - non-blocking packet read functions for stream transport
  16:D:/fchai/work/i-cube/I-CUBE-HUAWEI/Middlewares/Third_Party/Huawei/iot_link/network/mqtt/paho_mqtt/paho/MQTTPacket/src\MQTTPacket.c ****  *******************************************************************************/
  17:D:/fchai/work/i-cube/I-CUBE-HUAWEI/Middlewares/Third_Party/Huawei/iot_link/network/mqtt/paho_mqtt/paho/MQTTPacket/src\MQTTPacket.c **** 
  18:D:/fchai/work/i-cube/I-CUBE-HUAWEI/Middlewares/Third_Party/Huawei/iot_link/network/mqtt/paho_mqtt/paho/MQTTPacket/src\MQTTPacket.c **** #include "StackTrace.h"
  19:D:/fchai/work/i-cube/I-CUBE-HUAWEI/Middlewares/Third_Party/Huawei/iot_link/network/mqtt/paho_mqtt/paho/MQTTPacket/src\MQTTPacket.c **** #include "MQTTPacket.h"
  20:D:/fchai/work/i-cube/I-CUBE-HUAWEI/Middlewares/Third_Party/Huawei/iot_link/network/mqtt/paho_mqtt/paho/MQTTPacket/src\MQTTPacket.c **** 
  21:D:/fchai/work/i-cube/I-CUBE-HUAWEI/Middlewares/Third_Party/Huawei/iot_link/network/mqtt/paho_mqtt/paho/MQTTPacket/src\MQTTPacket.c **** #include <string.h>
  22:D:/fchai/work/i-cube/I-CUBE-HUAWEI/Middlewares/Third_Party/Huawei/iot_link/network/mqtt/paho_mqtt/paho/MQTTPacket/src\MQTTPacket.c **** 
  23:D:/fchai/work/i-cube/I-CUBE-HUAWEI/Middlewares/Third_Party/Huawei/iot_link/network/mqtt/paho_mqtt/paho/MQTTPacket/src\MQTTPacket.c **** /**
  24:D:/fchai/work/i-cube/I-CUBE-HUAWEI/Middlewares/Third_Party/Huawei/iot_link/network/mqtt/paho_mqtt/paho/MQTTPacket/src\MQTTPacket.c ****  * Encodes the message length according to the MQTT algorithm
  25:D:/fchai/work/i-cube/I-CUBE-HUAWEI/Middlewares/Third_Party/Huawei/iot_link/network/mqtt/paho_mqtt/paho/MQTTPacket/src\MQTTPacket.c ****  * @param buf the buffer into which the encoded data is written
  26:D:/fchai/work/i-cube/I-CUBE-HUAWEI/Middlewares/Third_Party/Huawei/iot_link/network/mqtt/paho_mqtt/paho/MQTTPacket/src\MQTTPacket.c ****  * @param length the length to be encoded
  27:D:/fchai/work/i-cube/I-CUBE-HUAWEI/Middlewares/Third_Party/Huawei/iot_link/network/mqtt/paho_mqtt/paho/MQTTPacket/src\MQTTPacket.c ****  * @return the number of bytes written to buffer
  28:D:/fchai/work/i-cube/I-CUBE-HUAWEI/Middlewares/Third_Party/Huawei/iot_link/network/mqtt/paho_mqtt/paho/MQTTPacket/src\MQTTPacket.c ****  */
ARM GAS  T:\msys\tmp\ccqTp987.s 			page 2


  29:D:/fchai/work/i-cube/I-CUBE-HUAWEI/Middlewares/Third_Party/Huawei/iot_link/network/mqtt/paho_mqtt/paho/MQTTPacket/src\MQTTPacket.c **** int MQTTPacket_encode(unsigned char* buf, int length)
  30:D:/fchai/work/i-cube/I-CUBE-HUAWEI/Middlewares/Third_Party/Huawei/iot_link/network/mqtt/paho_mqtt/paho/MQTTPacket/src\MQTTPacket.c **** {
  31:D:/fchai/work/i-cube/I-CUBE-HUAWEI/Middlewares/Third_Party/Huawei/iot_link/network/mqtt/paho_mqtt/paho/MQTTPacket/src\MQTTPacket.c **** 	int rc = 0;
  32:D:/fchai/work/i-cube/I-CUBE-HUAWEI/Middlewares/Third_Party/Huawei/iot_link/network/mqtt/paho_mqtt/paho/MQTTPacket/src\MQTTPacket.c **** 
  33:D:/fchai/work/i-cube/I-CUBE-HUAWEI/Middlewares/Third_Party/Huawei/iot_link/network/mqtt/paho_mqtt/paho/MQTTPacket/src\MQTTPacket.c **** 	FUNC_ENTRY;
  34:D:/fchai/work/i-cube/I-CUBE-HUAWEI/Middlewares/Third_Party/Huawei/iot_link/network/mqtt/paho_mqtt/paho/MQTTPacket/src\MQTTPacket.c **** 	do
  35:D:/fchai/work/i-cube/I-CUBE-HUAWEI/Middlewares/Third_Party/Huawei/iot_link/network/mqtt/paho_mqtt/paho/MQTTPacket/src\MQTTPacket.c **** 	{
  36:D:/fchai/work/i-cube/I-CUBE-HUAWEI/Middlewares/Third_Party/Huawei/iot_link/network/mqtt/paho_mqtt/paho/MQTTPacket/src\MQTTPacket.c **** 		char d = length % 128;
  37:D:/fchai/work/i-cube/I-CUBE-HUAWEI/Middlewares/Third_Party/Huawei/iot_link/network/mqtt/paho_mqtt/paho/MQTTPacket/src\MQTTPacket.c **** 		length /= 128;
  38:D:/fchai/work/i-cube/I-CUBE-HUAWEI/Middlewares/Third_Party/Huawei/iot_link/network/mqtt/paho_mqtt/paho/MQTTPacket/src\MQTTPacket.c **** 		/* if there are more digits to encode, set the top bit of this digit */
  39:D:/fchai/work/i-cube/I-CUBE-HUAWEI/Middlewares/Third_Party/Huawei/iot_link/network/mqtt/paho_mqtt/paho/MQTTPacket/src\MQTTPacket.c **** 		if (length > 0)
  40:D:/fchai/work/i-cube/I-CUBE-HUAWEI/Middlewares/Third_Party/Huawei/iot_link/network/mqtt/paho_mqtt/paho/MQTTPacket/src\MQTTPacket.c **** 			d |= 0x80;
  41:D:/fchai/work/i-cube/I-CUBE-HUAWEI/Middlewares/Third_Party/Huawei/iot_link/network/mqtt/paho_mqtt/paho/MQTTPacket/src\MQTTPacket.c **** 		buf[rc++] = d;
  42:D:/fchai/work/i-cube/I-CUBE-HUAWEI/Middlewares/Third_Party/Huawei/iot_link/network/mqtt/paho_mqtt/paho/MQTTPacket/src\MQTTPacket.c **** 	} while (length > 0);
  43:D:/fchai/work/i-cube/I-CUBE-HUAWEI/Middlewares/Third_Party/Huawei/iot_link/network/mqtt/paho_mqtt/paho/MQTTPacket/src\MQTTPacket.c **** 	FUNC_EXIT_RC(rc);
  44:D:/fchai/work/i-cube/I-CUBE-HUAWEI/Middlewares/Third_Party/Huawei/iot_link/network/mqtt/paho_mqtt/paho/MQTTPacket/src\MQTTPacket.c **** 	return rc;
  45:D:/fchai/work/i-cube/I-CUBE-HUAWEI/Middlewares/Third_Party/Huawei/iot_link/network/mqtt/paho_mqtt/paho/MQTTPacket/src\MQTTPacket.c **** }
  46:D:/fchai/work/i-cube/I-CUBE-HUAWEI/Middlewares/Third_Party/Huawei/iot_link/network/mqtt/paho_mqtt/paho/MQTTPacket/src\MQTTPacket.c **** 
  47:D:/fchai/work/i-cube/I-CUBE-HUAWEI/Middlewares/Third_Party/Huawei/iot_link/network/mqtt/paho_mqtt/paho/MQTTPacket/src\MQTTPacket.c **** 
  48:D:/fchai/work/i-cube/I-CUBE-HUAWEI/Middlewares/Third_Party/Huawei/iot_link/network/mqtt/paho_mqtt/paho/MQTTPacket/src\MQTTPacket.c **** /**
  49:D:/fchai/work/i-cube/I-CUBE-HUAWEI/Middlewares/Third_Party/Huawei/iot_link/network/mqtt/paho_mqtt/paho/MQTTPacket/src\MQTTPacket.c ****  * Decodes the message length according to the MQTT algorithm
  50:D:/fchai/work/i-cube/I-CUBE-HUAWEI/Middlewares/Third_Party/Huawei/iot_link/network/mqtt/paho_mqtt/paho/MQTTPacket/src\MQTTPacket.c ****  * @param getcharfn pointer to function to read the next character from the data source
  51:D:/fchai/work/i-cube/I-CUBE-HUAWEI/Middlewares/Third_Party/Huawei/iot_link/network/mqtt/paho_mqtt/paho/MQTTPacket/src\MQTTPacket.c ****  * @param value the decoded length returned
  52:D:/fchai/work/i-cube/I-CUBE-HUAWEI/Middlewares/Third_Party/Huawei/iot_link/network/mqtt/paho_mqtt/paho/MQTTPacket/src\MQTTPacket.c ****  * @return the number of bytes read from the socket
  53:D:/fchai/work/i-cube/I-CUBE-HUAWEI/Middlewares/Third_Party/Huawei/iot_link/network/mqtt/paho_mqtt/paho/MQTTPacket/src\MQTTPacket.c ****  */
  54:D:/fchai/work/i-cube/I-CUBE-HUAWEI/Middlewares/Third_Party/Huawei/iot_link/network/mqtt/paho_mqtt/paho/MQTTPacket/src\MQTTPacket.c **** int MQTTPacket_decode(int (*getcharfn)(unsigned char*, int), int* value)
  55:D:/fchai/work/i-cube/I-CUBE-HUAWEI/Middlewares/Third_Party/Huawei/iot_link/network/mqtt/paho_mqtt/paho/MQTTPacket/src\MQTTPacket.c **** {
  56:D:/fchai/work/i-cube/I-CUBE-HUAWEI/Middlewares/Third_Party/Huawei/iot_link/network/mqtt/paho_mqtt/paho/MQTTPacket/src\MQTTPacket.c **** 	unsigned char c;
  57:D:/fchai/work/i-cube/I-CUBE-HUAWEI/Middlewares/Third_Party/Huawei/iot_link/network/mqtt/paho_mqtt/paho/MQTTPacket/src\MQTTPacket.c **** 	int multiplier = 1;
  58:D:/fchai/work/i-cube/I-CUBE-HUAWEI/Middlewares/Third_Party/Huawei/iot_link/network/mqtt/paho_mqtt/paho/MQTTPacket/src\MQTTPacket.c **** 	int len = 0;
  59:D:/fchai/work/i-cube/I-CUBE-HUAWEI/Middlewares/Third_Party/Huawei/iot_link/network/mqtt/paho_mqtt/paho/MQTTPacket/src\MQTTPacket.c **** #define MAX_NO_OF_REMAINING_LENGTH_BYTES 4
  60:D:/fchai/work/i-cube/I-CUBE-HUAWEI/Middlewares/Third_Party/Huawei/iot_link/network/mqtt/paho_mqtt/paho/MQTTPacket/src\MQTTPacket.c **** 
  61:D:/fchai/work/i-cube/I-CUBE-HUAWEI/Middlewares/Third_Party/Huawei/iot_link/network/mqtt/paho_mqtt/paho/MQTTPacket/src\MQTTPacket.c **** 	FUNC_ENTRY;
  62:D:/fchai/work/i-cube/I-CUBE-HUAWEI/Middlewares/Third_Party/Huawei/iot_link/network/mqtt/paho_mqtt/paho/MQTTPacket/src\MQTTPacket.c **** 	*value = 0;
  63:D:/fchai/work/i-cube/I-CUBE-HUAWEI/Middlewares/Third_Party/Huawei/iot_link/network/mqtt/paho_mqtt/paho/MQTTPacket/src\MQTTPacket.c **** 	do
  64:D:/fchai/work/i-cube/I-CUBE-HUAWEI/Middlewares/Third_Party/Huawei/iot_link/network/mqtt/paho_mqtt/paho/MQTTPacket/src\MQTTPacket.c **** 	{
  65:D:/fchai/work/i-cube/I-CUBE-HUAWEI/Middlewares/Third_Party/Huawei/iot_link/network/mqtt/paho_mqtt/paho/MQTTPacket/src\MQTTPacket.c **** 		int rc = MQTTPACKET_READ_ERROR;
  66:D:/fchai/work/i-cube/I-CUBE-HUAWEI/Middlewares/Third_Party/Huawei/iot_link/network/mqtt/paho_mqtt/paho/MQTTPacket/src\MQTTPacket.c **** 
  67:D:/fchai/work/i-cube/I-CUBE-HUAWEI/Middlewares/Third_Party/Huawei/iot_link/network/mqtt/paho_mqtt/paho/MQTTPacket/src\MQTTPacket.c **** 		if (++len > MAX_NO_OF_REMAINING_LENGTH_BYTES)
  68:D:/fchai/work/i-cube/I-CUBE-HUAWEI/Middlewares/Third_Party/Huawei/iot_link/network/mqtt/paho_mqtt/paho/MQTTPacket/src\MQTTPacket.c **** 		{
  69:D:/fchai/work/i-cube/I-CUBE-HUAWEI/Middlewares/Third_Party/Huawei/iot_link/network/mqtt/paho_mqtt/paho/MQTTPacket/src\MQTTPacket.c **** 			rc = MQTTPACKET_READ_ERROR;	/* bad data */
  70:D:/fchai/work/i-cube/I-CUBE-HUAWEI/Middlewares/Third_Party/Huawei/iot_link/network/mqtt/paho_mqtt/paho/MQTTPacket/src\MQTTPacket.c **** 			goto exit;
  71:D:/fchai/work/i-cube/I-CUBE-HUAWEI/Middlewares/Third_Party/Huawei/iot_link/network/mqtt/paho_mqtt/paho/MQTTPacket/src\MQTTPacket.c **** 		}
  72:D:/fchai/work/i-cube/I-CUBE-HUAWEI/Middlewares/Third_Party/Huawei/iot_link/network/mqtt/paho_mqtt/paho/MQTTPacket/src\MQTTPacket.c **** 		rc = (*getcharfn)(&c, 1);
  73:D:/fchai/work/i-cube/I-CUBE-HUAWEI/Middlewares/Third_Party/Huawei/iot_link/network/mqtt/paho_mqtt/paho/MQTTPacket/src\MQTTPacket.c **** 		if (rc != 1)
  74:D:/fchai/work/i-cube/I-CUBE-HUAWEI/Middlewares/Third_Party/Huawei/iot_link/network/mqtt/paho_mqtt/paho/MQTTPacket/src\MQTTPacket.c **** 			goto exit;
  75:D:/fchai/work/i-cube/I-CUBE-HUAWEI/Middlewares/Third_Party/Huawei/iot_link/network/mqtt/paho_mqtt/paho/MQTTPacket/src\MQTTPacket.c **** 		*value += (c & 127) * multiplier;
  76:D:/fchai/work/i-cube/I-CUBE-HUAWEI/Middlewares/Third_Party/Huawei/iot_link/network/mqtt/paho_mqtt/paho/MQTTPacket/src\MQTTPacket.c **** 		multiplier *= 128;
  77:D:/fchai/work/i-cube/I-CUBE-HUAWEI/Middlewares/Third_Party/Huawei/iot_link/network/mqtt/paho_mqtt/paho/MQTTPacket/src\MQTTPacket.c **** 	} while ((c & 128) != 0);
  78:D:/fchai/work/i-cube/I-CUBE-HUAWEI/Middlewares/Third_Party/Huawei/iot_link/network/mqtt/paho_mqtt/paho/MQTTPacket/src\MQTTPacket.c **** exit:
  79:D:/fchai/work/i-cube/I-CUBE-HUAWEI/Middlewares/Third_Party/Huawei/iot_link/network/mqtt/paho_mqtt/paho/MQTTPacket/src\MQTTPacket.c **** 	FUNC_EXIT_RC(len);
  80:D:/fchai/work/i-cube/I-CUBE-HUAWEI/Middlewares/Third_Party/Huawei/iot_link/network/mqtt/paho_mqtt/paho/MQTTPacket/src\MQTTPacket.c **** 	return len;
  81:D:/fchai/work/i-cube/I-CUBE-HUAWEI/Middlewares/Third_Party/Huawei/iot_link/network/mqtt/paho_mqtt/paho/MQTTPacket/src\MQTTPacket.c **** }
  82:D:/fchai/work/i-cube/I-CUBE-HUAWEI/Middlewares/Third_Party/Huawei/iot_link/network/mqtt/paho_mqtt/paho/MQTTPacket/src\MQTTPacket.c **** 
  83:D:/fchai/work/i-cube/I-CUBE-HUAWEI/Middlewares/Third_Party/Huawei/iot_link/network/mqtt/paho_mqtt/paho/MQTTPacket/src\MQTTPacket.c **** 
  84:D:/fchai/work/i-cube/I-CUBE-HUAWEI/Middlewares/Third_Party/Huawei/iot_link/network/mqtt/paho_mqtt/paho/MQTTPacket/src\MQTTPacket.c **** int MQTTPacket_len(int rem_len)
  85:D:/fchai/work/i-cube/I-CUBE-HUAWEI/Middlewares/Third_Party/Huawei/iot_link/network/mqtt/paho_mqtt/paho/MQTTPacket/src\MQTTPacket.c **** {
ARM GAS  T:\msys\tmp\ccqTp987.s 			page 3


  86:D:/fchai/work/i-cube/I-CUBE-HUAWEI/Middlewares/Third_Party/Huawei/iot_link/network/mqtt/paho_mqtt/paho/MQTTPacket/src\MQTTPacket.c **** 	rem_len += 1; /* header byte */
  87:D:/fchai/work/i-cube/I-CUBE-HUAWEI/Middlewares/Third_Party/Huawei/iot_link/network/mqtt/paho_mqtt/paho/MQTTPacket/src\MQTTPacket.c **** 
  88:D:/fchai/work/i-cube/I-CUBE-HUAWEI/Middlewares/Third_Party/Huawei/iot_link/network/mqtt/paho_mqtt/paho/MQTTPacket/src\MQTTPacket.c **** 	/* now remaining_length field */
  89:D:/fchai/work/i-cube/I-CUBE-HUAWEI/Middlewares/Third_Party/Huawei/iot_link/network/mqtt/paho_mqtt/paho/MQTTPacket/src\MQTTPacket.c **** 	if (rem_len < 128)
  90:D:/fchai/work/i-cube/I-CUBE-HUAWEI/Middlewares/Third_Party/Huawei/iot_link/network/mqtt/paho_mqtt/paho/MQTTPacket/src\MQTTPacket.c **** 		rem_len += 1;
  91:D:/fchai/work/i-cube/I-CUBE-HUAWEI/Middlewares/Third_Party/Huawei/iot_link/network/mqtt/paho_mqtt/paho/MQTTPacket/src\MQTTPacket.c **** 	else if (rem_len < 16384)
  92:D:/fchai/work/i-cube/I-CUBE-HUAWEI/Middlewares/Third_Party/Huawei/iot_link/network/mqtt/paho_mqtt/paho/MQTTPacket/src\MQTTPacket.c **** 		rem_len += 2;
  93:D:/fchai/work/i-cube/I-CUBE-HUAWEI/Middlewares/Third_Party/Huawei/iot_link/network/mqtt/paho_mqtt/paho/MQTTPacket/src\MQTTPacket.c **** 	else if (rem_len < 2097151)
  94:D:/fchai/work/i-cube/I-CUBE-HUAWEI/Middlewares/Third_Party/Huawei/iot_link/network/mqtt/paho_mqtt/paho/MQTTPacket/src\MQTTPacket.c **** 		rem_len += 3;
  95:D:/fchai/work/i-cube/I-CUBE-HUAWEI/Middlewares/Third_Party/Huawei/iot_link/network/mqtt/paho_mqtt/paho/MQTTPacket/src\MQTTPacket.c **** 	else
  96:D:/fchai/work/i-cube/I-CUBE-HUAWEI/Middlewares/Third_Party/Huawei/iot_link/network/mqtt/paho_mqtt/paho/MQTTPacket/src\MQTTPacket.c **** 		rem_len += 4;
  97:D:/fchai/work/i-cube/I-CUBE-HUAWEI/Middlewares/Third_Party/Huawei/iot_link/network/mqtt/paho_mqtt/paho/MQTTPacket/src\MQTTPacket.c **** 	return rem_len;
  98:D:/fchai/work/i-cube/I-CUBE-HUAWEI/Middlewares/Third_Party/Huawei/iot_link/network/mqtt/paho_mqtt/paho/MQTTPacket/src\MQTTPacket.c **** }
  99:D:/fchai/work/i-cube/I-CUBE-HUAWEI/Middlewares/Third_Party/Huawei/iot_link/network/mqtt/paho_mqtt/paho/MQTTPacket/src\MQTTPacket.c **** 
 100:D:/fchai/work/i-cube/I-CUBE-HUAWEI/Middlewares/Third_Party/Huawei/iot_link/network/mqtt/paho_mqtt/paho/MQTTPacket/src\MQTTPacket.c **** 
 101:D:/fchai/work/i-cube/I-CUBE-HUAWEI/Middlewares/Third_Party/Huawei/iot_link/network/mqtt/paho_mqtt/paho/MQTTPacket/src\MQTTPacket.c **** static unsigned char* bufptr;
 102:D:/fchai/work/i-cube/I-CUBE-HUAWEI/Middlewares/Third_Party/Huawei/iot_link/network/mqtt/paho_mqtt/paho/MQTTPacket/src\MQTTPacket.c **** 
 103:D:/fchai/work/i-cube/I-CUBE-HUAWEI/Middlewares/Third_Party/Huawei/iot_link/network/mqtt/paho_mqtt/paho/MQTTPacket/src\MQTTPacket.c **** int bufchar(unsigned char* c, int count)
 104:D:/fchai/work/i-cube/I-CUBE-HUAWEI/Middlewares/Third_Party/Huawei/iot_link/network/mqtt/paho_mqtt/paho/MQTTPacket/src\MQTTPacket.c **** {
  31              		.loc 1 104 1 view -0
  32              		.cfi_startproc
  33              		@ args = 0, pretend = 0, frame = 0
  34              		@ frame_needed = 0, uses_anonymous_args = 0
  35              		@ link register save eliminated.
 105:D:/fchai/work/i-cube/I-CUBE-HUAWEI/Middlewares/Third_Party/Huawei/iot_link/network/mqtt/paho_mqtt/paho/MQTTPacket/src\MQTTPacket.c **** 	int i;
  36              		.loc 1 105 2 view .LVU1
 106:D:/fchai/work/i-cube/I-CUBE-HUAWEI/Middlewares/Third_Party/Huawei/iot_link/network/mqtt/paho_mqtt/paho/MQTTPacket/src\MQTTPacket.c **** 
 107:D:/fchai/work/i-cube/I-CUBE-HUAWEI/Middlewares/Third_Party/Huawei/iot_link/network/mqtt/paho_mqtt/paho/MQTTPacket/src\MQTTPacket.c **** 	for (i = 0; i < count; ++i)
  37              		.loc 1 107 2 view .LVU2
  38              		.loc 1 107 14 view .LVU3
  39              		.loc 1 107 2 is_stmt 0 view .LVU4
  40 0000 0029     		cmp	r1, #0
  41              		.loc 1 107 2 view .LVU5
  42 0002 0CDD     		ble	.L6
 104:D:/fchai/work/i-cube/I-CUBE-HUAWEI/Middlewares/Third_Party/Huawei/iot_link/network/mqtt/paho_mqtt/paho/MQTTPacket/src\MQTTPacket.c **** 	int i;
  43              		.loc 1 104 1 view .LVU6
  44 0004 30B4     		push	{r4, r5}
  45              	.LCFI0:
  46              		.cfi_def_cfa_offset 8
  47              		.cfi_offset 4, -8
  48              		.cfi_offset 5, -4
  49 0006 074D     		ldr	r5, .L10
  50 0008 2B68     		ldr	r3, [r5]
  51 000a 5C18     		adds	r4, r3, r1
  52              	.L3:
 108:D:/fchai/work/i-cube/I-CUBE-HUAWEI/Middlewares/Third_Party/Huawei/iot_link/network/mqtt/paho_mqtt/paho/MQTTPacket/src\MQTTPacket.c **** 		*c = *bufptr++;
  53              		.loc 1 108 3 is_stmt 1 discriminator 3 view .LVU7
  54              		.loc 1 108 8 is_stmt 0 discriminator 3 view .LVU8
  55 000c 13F8012B 		ldrb	r2, [r3], #1	@ zero_extendqisi2
  56              		.loc 1 108 6 discriminator 3 view .LVU9
  57 0010 0270     		strb	r2, [r0]
 107:D:/fchai/work/i-cube/I-CUBE-HUAWEI/Middlewares/Third_Party/Huawei/iot_link/network/mqtt/paho_mqtt/paho/MQTTPacket/src\MQTTPacket.c **** 		*c = *bufptr++;
  58              		.loc 1 107 25 is_stmt 1 discriminator 3 view .LVU10
 107:D:/fchai/work/i-cube/I-CUBE-HUAWEI/Middlewares/Third_Party/Huawei/iot_link/network/mqtt/paho_mqtt/paho/MQTTPacket/src\MQTTPacket.c **** 		*c = *bufptr++;
  59              		.loc 1 107 14 discriminator 3 view .LVU11
 107:D:/fchai/work/i-cube/I-CUBE-HUAWEI/Middlewares/Third_Party/Huawei/iot_link/network/mqtt/paho_mqtt/paho/MQTTPacket/src\MQTTPacket.c **** 		*c = *bufptr++;
  60              		.loc 1 107 2 is_stmt 0 discriminator 3 view .LVU12
ARM GAS  T:\msys\tmp\ccqTp987.s 			page 4


  61 0012 A342     		cmp	r3, r4
  62 0014 FAD1     		bne	.L3
  63 0016 2B60     		str	r3, [r5]
 109:D:/fchai/work/i-cube/I-CUBE-HUAWEI/Middlewares/Third_Party/Huawei/iot_link/network/mqtt/paho_mqtt/paho/MQTTPacket/src\MQTTPacket.c **** 	return count;
  64              		.loc 1 109 2 is_stmt 1 view .LVU13
 110:D:/fchai/work/i-cube/I-CUBE-HUAWEI/Middlewares/Third_Party/Huawei/iot_link/network/mqtt/paho_mqtt/paho/MQTTPacket/src\MQTTPacket.c **** }
  65              		.loc 1 110 1 is_stmt 0 view .LVU14
  66 0018 0846     		mov	r0, r1
  67              	.LVL1:
  68              		.loc 1 110 1 view .LVU15
  69 001a 30BC     		pop	{r4, r5}
  70              	.LCFI1:
  71              		.cfi_restore 5
  72              		.cfi_restore 4
  73              		.cfi_def_cfa_offset 0
  74 001c 7047     		bx	lr
  75              	.LVL2:
  76              	.L6:
 109:D:/fchai/work/i-cube/I-CUBE-HUAWEI/Middlewares/Third_Party/Huawei/iot_link/network/mqtt/paho_mqtt/paho/MQTTPacket/src\MQTTPacket.c **** 	return count;
  77              		.loc 1 109 2 is_stmt 1 view .LVU16
  78              		.loc 1 110 1 is_stmt 0 view .LVU17
  79 001e 0846     		mov	r0, r1
  80              	.LVL3:
  81              		.loc 1 110 1 view .LVU18
  82 0020 7047     		bx	lr
  83              	.L11:
  84 0022 00BF     		.align	2
  85              	.L10:
  86 0024 00000000 		.word	.LANCHOR0
  87              		.cfi_endproc
  88              	.LFE6:
  90              		.section	.text.MQTTPacket_encode,"ax",%progbits
  91              		.align	1
  92              		.p2align 2,,3
  93              		.global	MQTTPacket_encode
  94              		.syntax unified
  95              		.thumb
  96              		.thumb_func
  97              		.fpu fpv4-sp-d16
  99              	MQTTPacket_encode:
 100              	.LVL4:
 101              	.LFB3:
  30:D:/fchai/work/i-cube/I-CUBE-HUAWEI/Middlewares/Third_Party/Huawei/iot_link/network/mqtt/paho_mqtt/paho/MQTTPacket/src\MQTTPacket.c **** 	int rc = 0;
 102              		.loc 1 30 1 is_stmt 1 view -0
 103              		.cfi_startproc
 104              		@ args = 0, pretend = 0, frame = 0
 105              		@ frame_needed = 0, uses_anonymous_args = 0
 106              		@ link register save eliminated.
  31:D:/fchai/work/i-cube/I-CUBE-HUAWEI/Middlewares/Third_Party/Huawei/iot_link/network/mqtt/paho_mqtt/paho/MQTTPacket/src\MQTTPacket.c **** 
 107              		.loc 1 31 2 view .LVU20
  33:D:/fchai/work/i-cube/I-CUBE-HUAWEI/Middlewares/Third_Party/Huawei/iot_link/network/mqtt/paho_mqtt/paho/MQTTPacket/src\MQTTPacket.c **** 	do
 108              		.loc 1 33 12 view .LVU21
  34:D:/fchai/work/i-cube/I-CUBE-HUAWEI/Middlewares/Third_Party/Huawei/iot_link/network/mqtt/paho_mqtt/paho/MQTTPacket/src\MQTTPacket.c **** 	{
 109              		.loc 1 34 2 view .LVU22
 110              	.LBB16:
  36:D:/fchai/work/i-cube/I-CUBE-HUAWEI/Middlewares/Third_Party/Huawei/iot_link/network/mqtt/paho_mqtt/paho/MQTTPacket/src\MQTTPacket.c **** 		length /= 128;
 111              		.loc 1 36 3 view .LVU23
ARM GAS  T:\msys\tmp\ccqTp987.s 			page 5


  36:D:/fchai/work/i-cube/I-CUBE-HUAWEI/Middlewares/Third_Party/Huawei/iot_link/network/mqtt/paho_mqtt/paho/MQTTPacket/src\MQTTPacket.c **** 		length /= 128;
 112              		.loc 1 36 19 is_stmt 0 view .LVU24
 113 0000 4B42     		rsbs	r3, r1, #0
 114 0002 03F07F03 		and	r3, r3, #127
 115              	.LBE16:
  30:D:/fchai/work/i-cube/I-CUBE-HUAWEI/Middlewares/Third_Party/Huawei/iot_link/network/mqtt/paho_mqtt/paho/MQTTPacket/src\MQTTPacket.c **** 	int rc = 0;
 116              		.loc 1 30 1 view .LVU25
 117 0006 F0B4     		push	{r4, r5, r6, r7}
 118              	.LCFI2:
 119              		.cfi_def_cfa_offset 16
 120              		.cfi_offset 4, -16
 121              		.cfi_offset 5, -12
 122              		.cfi_offset 6, -8
 123              		.cfi_offset 7, -4
 124              	.LBB17:
  36:D:/fchai/work/i-cube/I-CUBE-HUAWEI/Middlewares/Third_Party/Huawei/iot_link/network/mqtt/paho_mqtt/paho/MQTTPacket/src\MQTTPacket.c **** 		length /= 128;
 125              		.loc 1 36 19 view .LVU26
 126 0008 01F07F04 		and	r4, r1, #127
 127 000c 58BF     		it	pl
 128 000e 5C42     		rsbpl	r4, r3, #0
  39:D:/fchai/work/i-cube/I-CUBE-HUAWEI/Middlewares/Third_Party/Huawei/iot_link/network/mqtt/paho_mqtt/paho/MQTTPacket/src\MQTTPacket.c **** 			d |= 0x80;
 129              		.loc 1 39 6 view .LVU27
 130 0010 7F29     		cmp	r1, #127
  36:D:/fchai/work/i-cube/I-CUBE-HUAWEI/Middlewares/Third_Party/Huawei/iot_link/network/mqtt/paho_mqtt/paho/MQTTPacket/src\MQTTPacket.c **** 		length /= 128;
 131              		.loc 1 36 8 view .LVU28
 132 0012 E4B2     		uxtb	r4, r4
 133              	.LVL5:
  37:D:/fchai/work/i-cube/I-CUBE-HUAWEI/Middlewares/Third_Party/Huawei/iot_link/network/mqtt/paho_mqtt/paho/MQTTPacket/src\MQTTPacket.c **** 		/* if there are more digits to encode, set the top bit of this digit */
 134              		.loc 1 37 3 is_stmt 1 view .LVU29
  39:D:/fchai/work/i-cube/I-CUBE-HUAWEI/Middlewares/Third_Party/Huawei/iot_link/network/mqtt/paho_mqtt/paho/MQTTPacket/src\MQTTPacket.c **** 			d |= 0x80;
 135              		.loc 1 39 3 view .LVU30
  39:D:/fchai/work/i-cube/I-CUBE-HUAWEI/Middlewares/Third_Party/Huawei/iot_link/network/mqtt/paho_mqtt/paho/MQTTPacket/src\MQTTPacket.c **** 			d |= 0x80;
 136              		.loc 1 39 6 is_stmt 0 view .LVU31
 137 0014 15DD     		ble	.L15
  37:D:/fchai/work/i-cube/I-CUBE-HUAWEI/Middlewares/Third_Party/Huawei/iot_link/network/mqtt/paho_mqtt/paho/MQTTPacket/src\MQTTPacket.c **** 		/* if there are more digits to encode, set the top bit of this digit */
 138              		.loc 1 37 10 view .LVU32
 139 0016 CB11     		asrs	r3, r1, #7
 140 0018 C0F10207 		rsb	r7, r0, #2
 141 001c 411E     		subs	r1, r0, #1
 142              	.LVL6:
 143              	.L14:
  40:D:/fchai/work/i-cube/I-CUBE-HUAWEI/Middlewares/Third_Party/Huawei/iot_link/network/mqtt/paho_mqtt/paho/MQTTPacket/src\MQTTPacket.c **** 		buf[rc++] = d;
 144              		.loc 1 40 4 is_stmt 1 view .LVU33
  41:D:/fchai/work/i-cube/I-CUBE-HUAWEI/Middlewares/Third_Party/Huawei/iot_link/network/mqtt/paho_mqtt/paho/MQTTPacket/src\MQTTPacket.c **** 	} while (length > 0);
 145              		.loc 1 41 3 view .LVU34
  40:D:/fchai/work/i-cube/I-CUBE-HUAWEI/Middlewares/Third_Party/Huawei/iot_link/network/mqtt/paho_mqtt/paho/MQTTPacket/src\MQTTPacket.c **** 		buf[rc++] = d;
 146              		.loc 1 40 6 is_stmt 0 view .LVU35
 147 001e 64F07F06 		orn	r6, r4, #127
  39:D:/fchai/work/i-cube/I-CUBE-HUAWEI/Middlewares/Third_Party/Huawei/iot_link/network/mqtt/paho_mqtt/paho/MQTTPacket/src\MQTTPacket.c **** 			d |= 0x80;
 148              		.loc 1 39 6 view .LVU36
 149 0022 7F2B     		cmp	r3, #127
 150 0024 07EB0105 		add	r5, r7, r1
 151              	.LVL7:
  36:D:/fchai/work/i-cube/I-CUBE-HUAWEI/Middlewares/Third_Party/Huawei/iot_link/network/mqtt/paho_mqtt/paho/MQTTPacket/src\MQTTPacket.c **** 		length /= 128;
 152              		.loc 1 36 8 view .LVU37
 153 0028 03F07F04 		and	r4, r3, #127
 154              	.LVL8:
ARM GAS  T:\msys\tmp\ccqTp987.s 			page 6


  41:D:/fchai/work/i-cube/I-CUBE-HUAWEI/Middlewares/Third_Party/Huawei/iot_link/network/mqtt/paho_mqtt/paho/MQTTPacket/src\MQTTPacket.c **** 	} while (length > 0);
 155              		.loc 1 41 13 view .LVU38
 156 002c 01F8016F 		strb	r6, [r1, #1]!
 157              	.LBE17:
  42:D:/fchai/work/i-cube/I-CUBE-HUAWEI/Middlewares/Third_Party/Huawei/iot_link/network/mqtt/paho_mqtt/paho/MQTTPacket/src\MQTTPacket.c **** 	FUNC_EXIT_RC(rc);
 158              		.loc 1 42 10 is_stmt 1 view .LVU39
  33:D:/fchai/work/i-cube/I-CUBE-HUAWEI/Middlewares/Third_Party/Huawei/iot_link/network/mqtt/paho_mqtt/paho/MQTTPacket/src\MQTTPacket.c **** 	do
 159              		.loc 1 33 12 view .LVU40
  34:D:/fchai/work/i-cube/I-CUBE-HUAWEI/Middlewares/Third_Party/Huawei/iot_link/network/mqtt/paho_mqtt/paho/MQTTPacket/src\MQTTPacket.c **** 	{
 160              		.loc 1 34 2 view .LVU41
 161              	.LBB18:
  36:D:/fchai/work/i-cube/I-CUBE-HUAWEI/Middlewares/Third_Party/Huawei/iot_link/network/mqtt/paho_mqtt/paho/MQTTPacket/src\MQTTPacket.c **** 		length /= 128;
 162              		.loc 1 36 3 view .LVU42
 163              	.LVL9:
  37:D:/fchai/work/i-cube/I-CUBE-HUAWEI/Middlewares/Third_Party/Huawei/iot_link/network/mqtt/paho_mqtt/paho/MQTTPacket/src\MQTTPacket.c **** 		/* if there are more digits to encode, set the top bit of this digit */
 164              		.loc 1 37 3 view .LVU43
  39:D:/fchai/work/i-cube/I-CUBE-HUAWEI/Middlewares/Third_Party/Huawei/iot_link/network/mqtt/paho_mqtt/paho/MQTTPacket/src\MQTTPacket.c **** 			d |= 0x80;
 165              		.loc 1 39 3 view .LVU44
  39:D:/fchai/work/i-cube/I-CUBE-HUAWEI/Middlewares/Third_Party/Huawei/iot_link/network/mqtt/paho_mqtt/paho/MQTTPacket/src\MQTTPacket.c **** 			d |= 0x80;
 166              		.loc 1 39 6 is_stmt 0 view .LVU45
 167 0030 4FEAE313 		asr	r3, r3, #7
 168              	.LVL10:
  39:D:/fchai/work/i-cube/I-CUBE-HUAWEI/Middlewares/Third_Party/Huawei/iot_link/network/mqtt/paho_mqtt/paho/MQTTPacket/src\MQTTPacket.c **** 			d |= 0x80;
 169              		.loc 1 39 6 view .LVU46
 170 0034 F3DC     		bgt	.L14
 171 0036 2844     		add	r0, r0, r5
 172              	.LVL11:
  39:D:/fchai/work/i-cube/I-CUBE-HUAWEI/Middlewares/Third_Party/Huawei/iot_link/network/mqtt/paho_mqtt/paho/MQTTPacket/src\MQTTPacket.c **** 			d |= 0x80;
 173              		.loc 1 39 6 view .LVU47
 174 0038 0135     		adds	r5, r5, #1
 175              	.LVL12:
  41:D:/fchai/work/i-cube/I-CUBE-HUAWEI/Middlewares/Third_Party/Huawei/iot_link/network/mqtt/paho_mqtt/paho/MQTTPacket/src\MQTTPacket.c **** 	} while (length > 0);
 176              		.loc 1 41 3 is_stmt 1 view .LVU48
  41:D:/fchai/work/i-cube/I-CUBE-HUAWEI/Middlewares/Third_Party/Huawei/iot_link/network/mqtt/paho_mqtt/paho/MQTTPacket/src\MQTTPacket.c **** 	} while (length > 0);
 177              		.loc 1 41 13 is_stmt 0 view .LVU49
 178 003a 0470     		strb	r4, [r0]
 179              	.LBE18:
  42:D:/fchai/work/i-cube/I-CUBE-HUAWEI/Middlewares/Third_Party/Huawei/iot_link/network/mqtt/paho_mqtt/paho/MQTTPacket/src\MQTTPacket.c **** 	FUNC_EXIT_RC(rc);
 180              		.loc 1 42 10 is_stmt 1 view .LVU50
  43:D:/fchai/work/i-cube/I-CUBE-HUAWEI/Middlewares/Third_Party/Huawei/iot_link/network/mqtt/paho_mqtt/paho/MQTTPacket/src\MQTTPacket.c **** 	return rc;
 181              		.loc 1 43 18 view .LVU51
  44:D:/fchai/work/i-cube/I-CUBE-HUAWEI/Middlewares/Third_Party/Huawei/iot_link/network/mqtt/paho_mqtt/paho/MQTTPacket/src\MQTTPacket.c **** }
 182              		.loc 1 44 2 view .LVU52
  45:D:/fchai/work/i-cube/I-CUBE-HUAWEI/Middlewares/Third_Party/Huawei/iot_link/network/mqtt/paho_mqtt/paho/MQTTPacket/src\MQTTPacket.c **** 
 183              		.loc 1 45 1 is_stmt 0 view .LVU53
 184 003c 2846     		mov	r0, r5
 185 003e F0BC     		pop	{r4, r5, r6, r7}
 186              	.LCFI3:
 187              		.cfi_remember_state
 188              		.cfi_restore 7
 189              		.cfi_restore 6
 190              		.cfi_restore 5
 191              		.cfi_restore 4
 192              		.cfi_def_cfa_offset 0
 193              	.LVL13:
  45:D:/fchai/work/i-cube/I-CUBE-HUAWEI/Middlewares/Third_Party/Huawei/iot_link/network/mqtt/paho_mqtt/paho/MQTTPacket/src\MQTTPacket.c **** 
 194              		.loc 1 45 1 view .LVU54
ARM GAS  T:\msys\tmp\ccqTp987.s 			page 7


 195 0040 7047     		bx	lr
 196              	.LVL14:
 197              	.L15:
 198              	.LCFI4:
 199              		.cfi_restore_state
 200              	.LBB19:
  39:D:/fchai/work/i-cube/I-CUBE-HUAWEI/Middlewares/Third_Party/Huawei/iot_link/network/mqtt/paho_mqtt/paho/MQTTPacket/src\MQTTPacket.c **** 			d |= 0x80;
 201              		.loc 1 39 6 view .LVU55
 202 0042 0125     		movs	r5, #1
  41:D:/fchai/work/i-cube/I-CUBE-HUAWEI/Middlewares/Third_Party/Huawei/iot_link/network/mqtt/paho_mqtt/paho/MQTTPacket/src\MQTTPacket.c **** 	} while (length > 0);
 203              		.loc 1 41 3 is_stmt 1 view .LVU56
 204              	.LVL15:
  41:D:/fchai/work/i-cube/I-CUBE-HUAWEI/Middlewares/Third_Party/Huawei/iot_link/network/mqtt/paho_mqtt/paho/MQTTPacket/src\MQTTPacket.c **** 	} while (length > 0);
 205              		.loc 1 41 13 is_stmt 0 view .LVU57
 206 0044 0470     		strb	r4, [r0]
 207              	.LBE19:
  42:D:/fchai/work/i-cube/I-CUBE-HUAWEI/Middlewares/Third_Party/Huawei/iot_link/network/mqtt/paho_mqtt/paho/MQTTPacket/src\MQTTPacket.c **** 	FUNC_EXIT_RC(rc);
 208              		.loc 1 42 10 is_stmt 1 view .LVU58
  43:D:/fchai/work/i-cube/I-CUBE-HUAWEI/Middlewares/Third_Party/Huawei/iot_link/network/mqtt/paho_mqtt/paho/MQTTPacket/src\MQTTPacket.c **** 	return rc;
 209              		.loc 1 43 18 view .LVU59
  44:D:/fchai/work/i-cube/I-CUBE-HUAWEI/Middlewares/Third_Party/Huawei/iot_link/network/mqtt/paho_mqtt/paho/MQTTPacket/src\MQTTPacket.c **** }
 210              		.loc 1 44 2 view .LVU60
  45:D:/fchai/work/i-cube/I-CUBE-HUAWEI/Middlewares/Third_Party/Huawei/iot_link/network/mqtt/paho_mqtt/paho/MQTTPacket/src\MQTTPacket.c **** 
 211              		.loc 1 45 1 is_stmt 0 view .LVU61
 212 0046 2846     		mov	r0, r5
 213              	.LVL16:
  45:D:/fchai/work/i-cube/I-CUBE-HUAWEI/Middlewares/Third_Party/Huawei/iot_link/network/mqtt/paho_mqtt/paho/MQTTPacket/src\MQTTPacket.c **** 
 214              		.loc 1 45 1 view .LVU62
 215 0048 F0BC     		pop	{r4, r5, r6, r7}
 216              	.LCFI5:
 217              		.cfi_restore 7
 218              		.cfi_restore 6
 219              		.cfi_restore 5
 220              		.cfi_restore 4
 221              		.cfi_def_cfa_offset 0
 222              	.LVL17:
  45:D:/fchai/work/i-cube/I-CUBE-HUAWEI/Middlewares/Third_Party/Huawei/iot_link/network/mqtt/paho_mqtt/paho/MQTTPacket/src\MQTTPacket.c **** 
 223              		.loc 1 45 1 view .LVU63
 224 004a 7047     		bx	lr
 225              		.cfi_endproc
 226              	.LFE3:
 228              		.section	.text.MQTTPacket_decode,"ax",%progbits
 229              		.align	1
 230              		.p2align 2,,3
 231              		.global	MQTTPacket_decode
 232              		.syntax unified
 233              		.thumb
 234              		.thumb_func
 235              		.fpu fpv4-sp-d16
 237              	MQTTPacket_decode:
 238              	.LVL18:
 239              	.LFB4:
  55:D:/fchai/work/i-cube/I-CUBE-HUAWEI/Middlewares/Third_Party/Huawei/iot_link/network/mqtt/paho_mqtt/paho/MQTTPacket/src\MQTTPacket.c **** 	unsigned char c;
 240              		.loc 1 55 1 is_stmt 1 view -0
 241              		.cfi_startproc
 242              		@ args = 0, pretend = 0, frame = 8
 243              		@ frame_needed = 0, uses_anonymous_args = 0
ARM GAS  T:\msys\tmp\ccqTp987.s 			page 8


  56:D:/fchai/work/i-cube/I-CUBE-HUAWEI/Middlewares/Third_Party/Huawei/iot_link/network/mqtt/paho_mqtt/paho/MQTTPacket/src\MQTTPacket.c **** 	int multiplier = 1;
 244              		.loc 1 56 2 view .LVU65
  57:D:/fchai/work/i-cube/I-CUBE-HUAWEI/Middlewares/Third_Party/Huawei/iot_link/network/mqtt/paho_mqtt/paho/MQTTPacket/src\MQTTPacket.c **** 	int len = 0;
 245              		.loc 1 57 2 view .LVU66
  58:D:/fchai/work/i-cube/I-CUBE-HUAWEI/Middlewares/Third_Party/Huawei/iot_link/network/mqtt/paho_mqtt/paho/MQTTPacket/src\MQTTPacket.c **** #define MAX_NO_OF_REMAINING_LENGTH_BYTES 4
 246              		.loc 1 58 2 view .LVU67
  61:D:/fchai/work/i-cube/I-CUBE-HUAWEI/Middlewares/Third_Party/Huawei/iot_link/network/mqtt/paho_mqtt/paho/MQTTPacket/src\MQTTPacket.c **** 	*value = 0;
 247              		.loc 1 61 12 view .LVU68
  62:D:/fchai/work/i-cube/I-CUBE-HUAWEI/Middlewares/Third_Party/Huawei/iot_link/network/mqtt/paho_mqtt/paho/MQTTPacket/src\MQTTPacket.c **** 	do
 248              		.loc 1 62 2 view .LVU69
  55:D:/fchai/work/i-cube/I-CUBE-HUAWEI/Middlewares/Third_Party/Huawei/iot_link/network/mqtt/paho_mqtt/paho/MQTTPacket/src\MQTTPacket.c **** 	unsigned char c;
 249              		.loc 1 55 1 is_stmt 0 view .LVU70
 250 0000 F0B5     		push	{r4, r5, r6, r7, lr}
 251              	.LCFI6:
 252              		.cfi_def_cfa_offset 20
 253              		.cfi_offset 4, -20
 254              		.cfi_offset 5, -16
 255              		.cfi_offset 6, -12
 256              		.cfi_offset 7, -8
 257              		.cfi_offset 14, -4
  62:D:/fchai/work/i-cube/I-CUBE-HUAWEI/Middlewares/Third_Party/Huawei/iot_link/network/mqtt/paho_mqtt/paho/MQTTPacket/src\MQTTPacket.c **** 	do
 258              		.loc 1 62 9 view .LVU71
 259 0002 0023     		movs	r3, #0
 260              	.LBB20:
  67:D:/fchai/work/i-cube/I-CUBE-HUAWEI/Middlewares/Third_Party/Huawei/iot_link/network/mqtt/paho_mqtt/paho/MQTTPacket/src\MQTTPacket.c **** 		{
 261              		.loc 1 67 6 view .LVU72
 262 0004 0124     		movs	r4, #1
 263              	.LBE20:
  55:D:/fchai/work/i-cube/I-CUBE-HUAWEI/Middlewares/Third_Party/Huawei/iot_link/network/mqtt/paho_mqtt/paho/MQTTPacket/src\MQTTPacket.c **** 	unsigned char c;
 264              		.loc 1 55 1 view .LVU73
 265 0006 83B0     		sub	sp, sp, #12
 266              	.LCFI7:
 267              		.cfi_def_cfa_offset 32
  55:D:/fchai/work/i-cube/I-CUBE-HUAWEI/Middlewares/Third_Party/Huawei/iot_link/network/mqtt/paho_mqtt/paho/MQTTPacket/src\MQTTPacket.c **** 	unsigned char c;
 268              		.loc 1 55 1 view .LVU74
 269 0008 0D46     		mov	r5, r1
 270 000a 0746     		mov	r7, r0
  62:D:/fchai/work/i-cube/I-CUBE-HUAWEI/Middlewares/Third_Party/Huawei/iot_link/network/mqtt/paho_mqtt/paho/MQTTPacket/src\MQTTPacket.c **** 	do
 271              		.loc 1 62 9 view .LVU75
 272 000c 0B60     		str	r3, [r1]
  63:D:/fchai/work/i-cube/I-CUBE-HUAWEI/Middlewares/Third_Party/Huawei/iot_link/network/mqtt/paho_mqtt/paho/MQTTPacket/src\MQTTPacket.c **** 	{
 273              		.loc 1 63 2 is_stmt 1 view .LVU76
 274              	.LBB21:
  65:D:/fchai/work/i-cube/I-CUBE-HUAWEI/Middlewares/Third_Party/Huawei/iot_link/network/mqtt/paho_mqtt/paho/MQTTPacket/src\MQTTPacket.c **** 
 275              		.loc 1 65 3 view .LVU77
 276              	.LVL19:
  67:D:/fchai/work/i-cube/I-CUBE-HUAWEI/Middlewares/Third_Party/Huawei/iot_link/network/mqtt/paho_mqtt/paho/MQTTPacket/src\MQTTPacket.c **** 		{
 277              		.loc 1 67 3 view .LVU78
  67:D:/fchai/work/i-cube/I-CUBE-HUAWEI/Middlewares/Third_Party/Huawei/iot_link/network/mqtt/paho_mqtt/paho/MQTTPacket/src\MQTTPacket.c **** 		{
 278              		.loc 1 67 3 is_stmt 0 view .LVU79
 279              	.LBE21:
  57:D:/fchai/work/i-cube/I-CUBE-HUAWEI/Middlewares/Third_Party/Huawei/iot_link/network/mqtt/paho_mqtt/paho/MQTTPacket/src\MQTTPacket.c **** 	int len = 0;
 280              		.loc 1 57 6 view .LVU80
 281 000e 2646     		mov	r6, r4
 282              	.LVL20:
 283              	.L19:
 284              	.LBB22:
ARM GAS  T:\msys\tmp\ccqTp987.s 			page 9


  72:D:/fchai/work/i-cube/I-CUBE-HUAWEI/Middlewares/Third_Party/Huawei/iot_link/network/mqtt/paho_mqtt/paho/MQTTPacket/src\MQTTPacket.c **** 		if (rc != 1)
 285              		.loc 1 72 3 is_stmt 1 view .LVU81
  72:D:/fchai/work/i-cube/I-CUBE-HUAWEI/Middlewares/Third_Party/Huawei/iot_link/network/mqtt/paho_mqtt/paho/MQTTPacket/src\MQTTPacket.c **** 		if (rc != 1)
 286              		.loc 1 72 9 is_stmt 0 view .LVU82
 287 0010 0121     		movs	r1, #1
 288 0012 0DF10700 		add	r0, sp, #7
 289 0016 B847     		blx	r7
 290              	.LVL21:
  75:D:/fchai/work/i-cube/I-CUBE-HUAWEI/Middlewares/Third_Party/Huawei/iot_link/network/mqtt/paho_mqtt/paho/MQTTPacket/src\MQTTPacket.c **** 		multiplier *= 128;
 291              		.loc 1 75 3 is_stmt 1 view .LVU83
  73:D:/fchai/work/i-cube/I-CUBE-HUAWEI/Middlewares/Third_Party/Huawei/iot_link/network/mqtt/paho_mqtt/paho/MQTTPacket/src\MQTTPacket.c **** 			goto exit;
 292              		.loc 1 73 3 view .LVU84
  73:D:/fchai/work/i-cube/I-CUBE-HUAWEI/Middlewares/Third_Party/Huawei/iot_link/network/mqtt/paho_mqtt/paho/MQTTPacket/src\MQTTPacket.c **** 			goto exit;
 293              		.loc 1 73 6 is_stmt 0 view .LVU85
 294 0018 0128     		cmp	r0, #1
 295 001a 0ED1     		bne	.L18
  75:D:/fchai/work/i-cube/I-CUBE-HUAWEI/Middlewares/Third_Party/Huawei/iot_link/network/mqtt/paho_mqtt/paho/MQTTPacket/src\MQTTPacket.c **** 		multiplier *= 128;
 296              		.loc 1 75 16 view .LVU86
 297 001c 9DF80720 		ldrb	r2, [sp, #7]	@ zero_extendqisi2
  75:D:/fchai/work/i-cube/I-CUBE-HUAWEI/Middlewares/Third_Party/Huawei/iot_link/network/mqtt/paho_mqtt/paho/MQTTPacket/src\MQTTPacket.c **** 		multiplier *= 128;
 298              		.loc 1 75 10 view .LVU87
 299 0020 2968     		ldr	r1, [r5]
  75:D:/fchai/work/i-cube/I-CUBE-HUAWEI/Middlewares/Third_Party/Huawei/iot_link/network/mqtt/paho_mqtt/paho/MQTTPacket/src\MQTTPacket.c **** 		multiplier *= 128;
 300              		.loc 1 75 16 view .LVU88
 301 0022 02F07F03 		and	r3, r2, #127
  75:D:/fchai/work/i-cube/I-CUBE-HUAWEI/Middlewares/Third_Party/Huawei/iot_link/network/mqtt/paho_mqtt/paho/MQTTPacket/src\MQTTPacket.c **** 		multiplier *= 128;
 302              		.loc 1 75 10 view .LVU89
 303 0026 06FB0313 		mla	r3, r6, r3, r1
 304 002a 2B60     		str	r3, [r5]
  76:D:/fchai/work/i-cube/I-CUBE-HUAWEI/Middlewares/Third_Party/Huawei/iot_link/network/mqtt/paho_mqtt/paho/MQTTPacket/src\MQTTPacket.c **** 	} while ((c & 128) != 0);
 305              		.loc 1 76 3 is_stmt 1 view .LVU90
 306              	.LBE22:
  77:D:/fchai/work/i-cube/I-CUBE-HUAWEI/Middlewares/Third_Party/Huawei/iot_link/network/mqtt/paho_mqtt/paho/MQTTPacket/src\MQTTPacket.c **** exit:
 307              		.loc 1 77 2 is_stmt 0 view .LVU91
 308 002c 1306     		lsls	r3, r2, #24
 309              	.LBB23:
  76:D:/fchai/work/i-cube/I-CUBE-HUAWEI/Middlewares/Third_Party/Huawei/iot_link/network/mqtt/paho_mqtt/paho/MQTTPacket/src\MQTTPacket.c **** 	} while ((c & 128) != 0);
 310              		.loc 1 76 14 view .LVU92
 311 002e 4FEAC616 		lsl	r6, r6, #7
 312              	.LVL22:
  76:D:/fchai/work/i-cube/I-CUBE-HUAWEI/Middlewares/Third_Party/Huawei/iot_link/network/mqtt/paho_mqtt/paho/MQTTPacket/src\MQTTPacket.c **** 	} while ((c & 128) != 0);
 313              		.loc 1 76 14 view .LVU93
 314              	.LBE23:
  63:D:/fchai/work/i-cube/I-CUBE-HUAWEI/Middlewares/Third_Party/Huawei/iot_link/network/mqtt/paho_mqtt/paho/MQTTPacket/src\MQTTPacket.c **** 	{
 315              		.loc 1 63 2 is_stmt 1 view .LVU94
 316              	.LBB24:
  65:D:/fchai/work/i-cube/I-CUBE-HUAWEI/Middlewares/Third_Party/Huawei/iot_link/network/mqtt/paho_mqtt/paho/MQTTPacket/src\MQTTPacket.c **** 
 317              		.loc 1 65 3 view .LVU95
  67:D:/fchai/work/i-cube/I-CUBE-HUAWEI/Middlewares/Third_Party/Huawei/iot_link/network/mqtt/paho_mqtt/paho/MQTTPacket/src\MQTTPacket.c **** 		{
 318              		.loc 1 67 3 view .LVU96
  67:D:/fchai/work/i-cube/I-CUBE-HUAWEI/Middlewares/Third_Party/Huawei/iot_link/network/mqtt/paho_mqtt/paho/MQTTPacket/src\MQTTPacket.c **** 		{
 319              		.loc 1 67 3 is_stmt 0 view .LVU97
 320              	.LBE24:
  77:D:/fchai/work/i-cube/I-CUBE-HUAWEI/Middlewares/Third_Party/Huawei/iot_link/network/mqtt/paho_mqtt/paho/MQTTPacket/src\MQTTPacket.c **** exit:
 321              		.loc 1 77 10 is_stmt 1 view .LVU98
  77:D:/fchai/work/i-cube/I-CUBE-HUAWEI/Middlewares/Third_Party/Huawei/iot_link/network/mqtt/paho_mqtt/paho/MQTTPacket/src\MQTTPacket.c **** exit:
 322              		.loc 1 77 2 is_stmt 0 view .LVU99
ARM GAS  T:\msys\tmp\ccqTp987.s 			page 10


 323 0032 02D5     		bpl	.L18
 324              	.LBB25:
  67:D:/fchai/work/i-cube/I-CUBE-HUAWEI/Middlewares/Third_Party/Huawei/iot_link/network/mqtt/paho_mqtt/paho/MQTTPacket/src\MQTTPacket.c **** 		{
 325              		.loc 1 67 6 view .LVU100
 326 0034 0134     		adds	r4, r4, #1
 327              	.LVL23:
  67:D:/fchai/work/i-cube/I-CUBE-HUAWEI/Middlewares/Third_Party/Huawei/iot_link/network/mqtt/paho_mqtt/paho/MQTTPacket/src\MQTTPacket.c **** 		{
 328              		.loc 1 67 6 view .LVU101
 329 0036 052C     		cmp	r4, #5
 330 0038 EAD1     		bne	.L19
 331              	.L20:
 332              	.LVL24:
 333              	.L18:
  67:D:/fchai/work/i-cube/I-CUBE-HUAWEI/Middlewares/Third_Party/Huawei/iot_link/network/mqtt/paho_mqtt/paho/MQTTPacket/src\MQTTPacket.c **** 		{
 334              		.loc 1 67 6 view .LVU102
 335              	.LBE25:
  81:D:/fchai/work/i-cube/I-CUBE-HUAWEI/Middlewares/Third_Party/Huawei/iot_link/network/mqtt/paho_mqtt/paho/MQTTPacket/src\MQTTPacket.c **** 
 336              		.loc 1 81 1 view .LVU103
 337 003a 2046     		mov	r0, r4
 338 003c 03B0     		add	sp, sp, #12
 339              	.LCFI8:
 340              		.cfi_def_cfa_offset 20
 341              		@ sp needed
 342 003e F0BD     		pop	{r4, r5, r6, r7, pc}
  81:D:/fchai/work/i-cube/I-CUBE-HUAWEI/Middlewares/Third_Party/Huawei/iot_link/network/mqtt/paho_mqtt/paho/MQTTPacket/src\MQTTPacket.c **** 
 343              		.loc 1 81 1 view .LVU104
 344              		.cfi_endproc
 345              	.LFE4:
 347              		.section	.text.MQTTPacket_len,"ax",%progbits
 348              		.align	1
 349              		.p2align 2,,3
 350              		.global	MQTTPacket_len
 351              		.syntax unified
 352              		.thumb
 353              		.thumb_func
 354              		.fpu fpv4-sp-d16
 356              	MQTTPacket_len:
 357              	.LVL25:
 358              	.LFB5:
  85:D:/fchai/work/i-cube/I-CUBE-HUAWEI/Middlewares/Third_Party/Huawei/iot_link/network/mqtt/paho_mqtt/paho/MQTTPacket/src\MQTTPacket.c **** 	rem_len += 1; /* header byte */
 359              		.loc 1 85 1 is_stmt 1 view -0
 360              		.cfi_startproc
 361              		@ args = 0, pretend = 0, frame = 0
 362              		@ frame_needed = 0, uses_anonymous_args = 0
 363              		@ link register save eliminated.
  86:D:/fchai/work/i-cube/I-CUBE-HUAWEI/Middlewares/Third_Party/Huawei/iot_link/network/mqtt/paho_mqtt/paho/MQTTPacket/src\MQTTPacket.c **** 
 364              		.loc 1 86 2 view .LVU106
  86:D:/fchai/work/i-cube/I-CUBE-HUAWEI/Middlewares/Third_Party/Huawei/iot_link/network/mqtt/paho_mqtt/paho/MQTTPacket/src\MQTTPacket.c **** 
 365              		.loc 1 86 10 is_stmt 0 view .LVU107
 366 0000 431C     		adds	r3, r0, #1
 367              	.LVL26:
  89:D:/fchai/work/i-cube/I-CUBE-HUAWEI/Middlewares/Third_Party/Huawei/iot_link/network/mqtt/paho_mqtt/paho/MQTTPacket/src\MQTTPacket.c **** 		rem_len += 1;
 368              		.loc 1 89 2 is_stmt 1 view .LVU108
  89:D:/fchai/work/i-cube/I-CUBE-HUAWEI/Middlewares/Third_Party/Huawei/iot_link/network/mqtt/paho_mqtt/paho/MQTTPacket/src\MQTTPacket.c **** 		rem_len += 1;
 369              		.loc 1 89 5 is_stmt 0 view .LVU109
 370 0002 7F2B     		cmp	r3, #127
 371 0004 01DC     		bgt	.L27
ARM GAS  T:\msys\tmp\ccqTp987.s 			page 11


  90:D:/fchai/work/i-cube/I-CUBE-HUAWEI/Middlewares/Third_Party/Huawei/iot_link/network/mqtt/paho_mqtt/paho/MQTTPacket/src\MQTTPacket.c **** 	else if (rem_len < 16384)
 372              		.loc 1 90 3 is_stmt 1 view .LVU110
  90:D:/fchai/work/i-cube/I-CUBE-HUAWEI/Middlewares/Third_Party/Huawei/iot_link/network/mqtt/paho_mqtt/paho/MQTTPacket/src\MQTTPacket.c **** 	else if (rem_len < 16384)
 373              		.loc 1 90 11 is_stmt 0 view .LVU111
 374 0006 0230     		adds	r0, r0, #2
 375              	.LVL27:
  90:D:/fchai/work/i-cube/I-CUBE-HUAWEI/Middlewares/Third_Party/Huawei/iot_link/network/mqtt/paho_mqtt/paho/MQTTPacket/src\MQTTPacket.c **** 	else if (rem_len < 16384)
 376              		.loc 1 90 11 view .LVU112
 377 0008 7047     		bx	lr
 378              	.LVL28:
 379              	.L27:
  91:D:/fchai/work/i-cube/I-CUBE-HUAWEI/Middlewares/Third_Party/Huawei/iot_link/network/mqtt/paho_mqtt/paho/MQTTPacket/src\MQTTPacket.c **** 		rem_len += 2;
 380              		.loc 1 91 7 is_stmt 1 view .LVU113
  91:D:/fchai/work/i-cube/I-CUBE-HUAWEI/Middlewares/Third_Party/Huawei/iot_link/network/mqtt/paho_mqtt/paho/MQTTPacket/src\MQTTPacket.c **** 		rem_len += 2;
 381              		.loc 1 91 10 is_stmt 0 view .LVU114
 382 000a B3F5804F 		cmp	r3, #16384
 383 000e 01DA     		bge	.L29
  92:D:/fchai/work/i-cube/I-CUBE-HUAWEI/Middlewares/Third_Party/Huawei/iot_link/network/mqtt/paho_mqtt/paho/MQTTPacket/src\MQTTPacket.c **** 	else if (rem_len < 2097151)
 384              		.loc 1 92 3 is_stmt 1 view .LVU115
  92:D:/fchai/work/i-cube/I-CUBE-HUAWEI/Middlewares/Third_Party/Huawei/iot_link/network/mqtt/paho_mqtt/paho/MQTTPacket/src\MQTTPacket.c **** 	else if (rem_len < 2097151)
 385              		.loc 1 92 11 is_stmt 0 view .LVU116
 386 0010 0330     		adds	r0, r0, #3
 387              	.LVL29:
  92:D:/fchai/work/i-cube/I-CUBE-HUAWEI/Middlewares/Third_Party/Huawei/iot_link/network/mqtt/paho_mqtt/paho/MQTTPacket/src\MQTTPacket.c **** 	else if (rem_len < 2097151)
 388              		.loc 1 92 11 view .LVU117
 389 0012 7047     		bx	lr
 390              	.LVL30:
 391              	.L29:
  93:D:/fchai/work/i-cube/I-CUBE-HUAWEI/Middlewares/Third_Party/Huawei/iot_link/network/mqtt/paho_mqtt/paho/MQTTPacket/src\MQTTPacket.c **** 		rem_len += 3;
 392              		.loc 1 93 7 is_stmt 1 view .LVU118
  93:D:/fchai/work/i-cube/I-CUBE-HUAWEI/Middlewares/Third_Party/Huawei/iot_link/network/mqtt/paho_mqtt/paho/MQTTPacket/src\MQTTPacket.c **** 		rem_len += 3;
 393              		.loc 1 93 10 is_stmt 0 view .LVU119
 394 0014 024A     		ldr	r2, .L31
 395 0016 9342     		cmp	r3, r2
  94:D:/fchai/work/i-cube/I-CUBE-HUAWEI/Middlewares/Third_Party/Huawei/iot_link/network/mqtt/paho_mqtt/paho/MQTTPacket/src\MQTTPacket.c **** 	else
 396              		.loc 1 94 3 is_stmt 1 view .LVU120
  94:D:/fchai/work/i-cube/I-CUBE-HUAWEI/Middlewares/Third_Party/Huawei/iot_link/network/mqtt/paho_mqtt/paho/MQTTPacket/src\MQTTPacket.c **** 	else
 397              		.loc 1 94 11 is_stmt 0 view .LVU121
 398 0018 D4BF     		ite	le
 399 001a 0430     		addle	r0, r0, #4
 400              	.LVL31:
  96:D:/fchai/work/i-cube/I-CUBE-HUAWEI/Middlewares/Third_Party/Huawei/iot_link/network/mqtt/paho_mqtt/paho/MQTTPacket/src\MQTTPacket.c **** 	return rem_len;
 401              		.loc 1 96 3 is_stmt 1 view .LVU122
  96:D:/fchai/work/i-cube/I-CUBE-HUAWEI/Middlewares/Third_Party/Huawei/iot_link/network/mqtt/paho_mqtt/paho/MQTTPacket/src\MQTTPacket.c **** 	return rem_len;
 402              		.loc 1 96 11 is_stmt 0 view .LVU123
 403 001c 0530     		addgt	r0, r0, #5
 404              	.LVL32:
  97:D:/fchai/work/i-cube/I-CUBE-HUAWEI/Middlewares/Third_Party/Huawei/iot_link/network/mqtt/paho_mqtt/paho/MQTTPacket/src\MQTTPacket.c **** }
 405              		.loc 1 97 2 is_stmt 1 view .LVU124
  98:D:/fchai/work/i-cube/I-CUBE-HUAWEI/Middlewares/Third_Party/Huawei/iot_link/network/mqtt/paho_mqtt/paho/MQTTPacket/src\MQTTPacket.c **** 
 406              		.loc 1 98 1 is_stmt 0 view .LVU125
 407 001e 7047     		bx	lr
 408              	.L32:
 409              		.align	2
 410              	.L31:
 411 0020 FEFF1F00 		.word	2097150
 412              		.cfi_endproc
ARM GAS  T:\msys\tmp\ccqTp987.s 			page 12


 413              	.LFE5:
 415              		.section	.text.MQTTPacket_decodeBuf,"ax",%progbits
 416              		.align	1
 417              		.p2align 2,,3
 418              		.global	MQTTPacket_decodeBuf
 419              		.syntax unified
 420              		.thumb
 421              		.thumb_func
 422              		.fpu fpv4-sp-d16
 424              	MQTTPacket_decodeBuf:
 425              	.LVL33:
 426              	.LFB7:
 111:D:/fchai/work/i-cube/I-CUBE-HUAWEI/Middlewares/Third_Party/Huawei/iot_link/network/mqtt/paho_mqtt/paho/MQTTPacket/src\MQTTPacket.c **** 
 112:D:/fchai/work/i-cube/I-CUBE-HUAWEI/Middlewares/Third_Party/Huawei/iot_link/network/mqtt/paho_mqtt/paho/MQTTPacket/src\MQTTPacket.c **** 
 113:D:/fchai/work/i-cube/I-CUBE-HUAWEI/Middlewares/Third_Party/Huawei/iot_link/network/mqtt/paho_mqtt/paho/MQTTPacket/src\MQTTPacket.c **** int MQTTPacket_decodeBuf(unsigned char* buf, int* value)
 114:D:/fchai/work/i-cube/I-CUBE-HUAWEI/Middlewares/Third_Party/Huawei/iot_link/network/mqtt/paho_mqtt/paho/MQTTPacket/src\MQTTPacket.c **** {
 427              		.loc 1 114 1 is_stmt 1 view -0
 428              		.cfi_startproc
 429              		@ args = 0, pretend = 0, frame = 0
 430              		@ frame_needed = 0, uses_anonymous_args = 0
 431              		@ link register save eliminated.
 115:D:/fchai/work/i-cube/I-CUBE-HUAWEI/Middlewares/Third_Party/Huawei/iot_link/network/mqtt/paho_mqtt/paho/MQTTPacket/src\MQTTPacket.c **** 	bufptr = buf;
 432              		.loc 1 115 2 view .LVU127
 433              		.loc 1 115 9 is_stmt 0 view .LVU128
 434 0000 024B     		ldr	r3, .L34
 114:D:/fchai/work/i-cube/I-CUBE-HUAWEI/Middlewares/Third_Party/Huawei/iot_link/network/mqtt/paho_mqtt/paho/MQTTPacket/src\MQTTPacket.c **** 	bufptr = buf;
 435              		.loc 1 114 1 view .LVU129
 436 0002 0246     		mov	r2, r0
 116:D:/fchai/work/i-cube/I-CUBE-HUAWEI/Middlewares/Third_Party/Huawei/iot_link/network/mqtt/paho_mqtt/paho/MQTTPacket/src\MQTTPacket.c **** 	return MQTTPacket_decode(bufchar, value);
 437              		.loc 1 116 9 view .LVU130
 438 0004 0248     		ldr	r0, .L34+4
 439              	.LVL34:
 115:D:/fchai/work/i-cube/I-CUBE-HUAWEI/Middlewares/Third_Party/Huawei/iot_link/network/mqtt/paho_mqtt/paho/MQTTPacket/src\MQTTPacket.c **** 	bufptr = buf;
 440              		.loc 1 115 9 view .LVU131
 441 0006 1A60     		str	r2, [r3]
 442              		.loc 1 116 2 is_stmt 1 view .LVU132
 443              		.loc 1 116 9 is_stmt 0 view .LVU133
 444 0008 FFF7FEBF 		b	MQTTPacket_decode
 445              	.LVL35:
 446              	.L35:
 447              		.loc 1 116 9 view .LVU134
 448              		.align	2
 449              	.L34:
 450 000c 00000000 		.word	.LANCHOR0
 451 0010 00000000 		.word	bufchar
 452              		.cfi_endproc
 453              	.LFE7:
 455              		.section	.text.readInt,"ax",%progbits
 456              		.align	1
 457              		.p2align 2,,3
 458              		.global	readInt
 459              		.syntax unified
 460              		.thumb
 461              		.thumb_func
 462              		.fpu fpv4-sp-d16
 464              	readInt:
 465              	.LVL36:
ARM GAS  T:\msys\tmp\ccqTp987.s 			page 13


 466              	.LFB8:
 117:D:/fchai/work/i-cube/I-CUBE-HUAWEI/Middlewares/Third_Party/Huawei/iot_link/network/mqtt/paho_mqtt/paho/MQTTPacket/src\MQTTPacket.c **** }
 118:D:/fchai/work/i-cube/I-CUBE-HUAWEI/Middlewares/Third_Party/Huawei/iot_link/network/mqtt/paho_mqtt/paho/MQTTPacket/src\MQTTPacket.c **** 
 119:D:/fchai/work/i-cube/I-CUBE-HUAWEI/Middlewares/Third_Party/Huawei/iot_link/network/mqtt/paho_mqtt/paho/MQTTPacket/src\MQTTPacket.c **** 
 120:D:/fchai/work/i-cube/I-CUBE-HUAWEI/Middlewares/Third_Party/Huawei/iot_link/network/mqtt/paho_mqtt/paho/MQTTPacket/src\MQTTPacket.c **** /**
 121:D:/fchai/work/i-cube/I-CUBE-HUAWEI/Middlewares/Third_Party/Huawei/iot_link/network/mqtt/paho_mqtt/paho/MQTTPacket/src\MQTTPacket.c ****  * Calculates an integer from two bytes read from the input buffer
 122:D:/fchai/work/i-cube/I-CUBE-HUAWEI/Middlewares/Third_Party/Huawei/iot_link/network/mqtt/paho_mqtt/paho/MQTTPacket/src\MQTTPacket.c ****  * @param pptr pointer to the input buffer - incremented by the number of bytes used & returned
 123:D:/fchai/work/i-cube/I-CUBE-HUAWEI/Middlewares/Third_Party/Huawei/iot_link/network/mqtt/paho_mqtt/paho/MQTTPacket/src\MQTTPacket.c ****  * @return the integer value calculated
 124:D:/fchai/work/i-cube/I-CUBE-HUAWEI/Middlewares/Third_Party/Huawei/iot_link/network/mqtt/paho_mqtt/paho/MQTTPacket/src\MQTTPacket.c ****  */
 125:D:/fchai/work/i-cube/I-CUBE-HUAWEI/Middlewares/Third_Party/Huawei/iot_link/network/mqtt/paho_mqtt/paho/MQTTPacket/src\MQTTPacket.c **** int readInt(unsigned char** pptr)
 126:D:/fchai/work/i-cube/I-CUBE-HUAWEI/Middlewares/Third_Party/Huawei/iot_link/network/mqtt/paho_mqtt/paho/MQTTPacket/src\MQTTPacket.c **** {
 467              		.loc 1 126 1 is_stmt 1 view -0
 468              		.cfi_startproc
 469              		@ args = 0, pretend = 0, frame = 0
 470              		@ frame_needed = 0, uses_anonymous_args = 0
 471              		@ link register save eliminated.
 127:D:/fchai/work/i-cube/I-CUBE-HUAWEI/Middlewares/Third_Party/Huawei/iot_link/network/mqtt/paho_mqtt/paho/MQTTPacket/src\MQTTPacket.c **** 	unsigned char* ptr = *pptr;
 472              		.loc 1 127 2 view .LVU136
 473              		.loc 1 127 17 is_stmt 0 view .LVU137
 474 0000 0368     		ldr	r3, [r0]
 475              	.LVL37:
 128:D:/fchai/work/i-cube/I-CUBE-HUAWEI/Middlewares/Third_Party/Huawei/iot_link/network/mqtt/paho_mqtt/paho/MQTTPacket/src\MQTTPacket.c **** 	int len = 256*(*ptr) + (*(ptr+1));
 476              		.loc 1 128 2 is_stmt 1 view .LVU138
 477              		.loc 1 128 17 is_stmt 0 view .LVU139
 478 0002 1978     		ldrb	r1, [r3]	@ zero_extendqisi2
 479              		.loc 1 128 26 view .LVU140
 480 0004 5A78     		ldrb	r2, [r3, #1]	@ zero_extendqisi2
 481              	.LVL38:
 129:D:/fchai/work/i-cube/I-CUBE-HUAWEI/Middlewares/Third_Party/Huawei/iot_link/network/mqtt/paho_mqtt/paho/MQTTPacket/src\MQTTPacket.c **** 	*pptr += 2;
 482              		.loc 1 129 2 is_stmt 1 view .LVU141
 483              		.loc 1 129 8 is_stmt 0 view .LVU142
 484 0006 0233     		adds	r3, r3, #2
 485              	.LVL39:
 486              		.loc 1 129 8 view .LVU143
 487 0008 0360     		str	r3, [r0]
 488              	.LVL40:
 130:D:/fchai/work/i-cube/I-CUBE-HUAWEI/Middlewares/Third_Party/Huawei/iot_link/network/mqtt/paho_mqtt/paho/MQTTPacket/src\MQTTPacket.c **** 	return len;
 489              		.loc 1 130 2 is_stmt 1 view .LVU144
 131:D:/fchai/work/i-cube/I-CUBE-HUAWEI/Middlewares/Third_Party/Huawei/iot_link/network/mqtt/paho_mqtt/paho/MQTTPacket/src\MQTTPacket.c **** }
 490              		.loc 1 131 1 is_stmt 0 view .LVU145
 491 000a 02EB0120 		add	r0, r2, r1, lsl #8
 492              	.LVL41:
 493              		.loc 1 131 1 view .LVU146
 494 000e 7047     		bx	lr
 495              		.cfi_endproc
 496              	.LFE8:
 498              		.section	.text.readChar,"ax",%progbits
 499              		.align	1
 500              		.p2align 2,,3
 501              		.global	readChar
 502              		.syntax unified
 503              		.thumb
 504              		.thumb_func
 505              		.fpu fpv4-sp-d16
 507              	readChar:
 508              	.LVL42:
 509              	.LFB9:
ARM GAS  T:\msys\tmp\ccqTp987.s 			page 14


 132:D:/fchai/work/i-cube/I-CUBE-HUAWEI/Middlewares/Third_Party/Huawei/iot_link/network/mqtt/paho_mqtt/paho/MQTTPacket/src\MQTTPacket.c **** 
 133:D:/fchai/work/i-cube/I-CUBE-HUAWEI/Middlewares/Third_Party/Huawei/iot_link/network/mqtt/paho_mqtt/paho/MQTTPacket/src\MQTTPacket.c **** 
 134:D:/fchai/work/i-cube/I-CUBE-HUAWEI/Middlewares/Third_Party/Huawei/iot_link/network/mqtt/paho_mqtt/paho/MQTTPacket/src\MQTTPacket.c **** /**
 135:D:/fchai/work/i-cube/I-CUBE-HUAWEI/Middlewares/Third_Party/Huawei/iot_link/network/mqtt/paho_mqtt/paho/MQTTPacket/src\MQTTPacket.c ****  * Reads one character from the input buffer.
 136:D:/fchai/work/i-cube/I-CUBE-HUAWEI/Middlewares/Third_Party/Huawei/iot_link/network/mqtt/paho_mqtt/paho/MQTTPacket/src\MQTTPacket.c ****  * @param pptr pointer to the input buffer - incremented by the number of bytes used & returned
 137:D:/fchai/work/i-cube/I-CUBE-HUAWEI/Middlewares/Third_Party/Huawei/iot_link/network/mqtt/paho_mqtt/paho/MQTTPacket/src\MQTTPacket.c ****  * @return the character read
 138:D:/fchai/work/i-cube/I-CUBE-HUAWEI/Middlewares/Third_Party/Huawei/iot_link/network/mqtt/paho_mqtt/paho/MQTTPacket/src\MQTTPacket.c ****  */
 139:D:/fchai/work/i-cube/I-CUBE-HUAWEI/Middlewares/Third_Party/Huawei/iot_link/network/mqtt/paho_mqtt/paho/MQTTPacket/src\MQTTPacket.c **** char readChar(unsigned char** pptr)
 140:D:/fchai/work/i-cube/I-CUBE-HUAWEI/Middlewares/Third_Party/Huawei/iot_link/network/mqtt/paho_mqtt/paho/MQTTPacket/src\MQTTPacket.c **** {
 510              		.loc 1 140 1 is_stmt 1 view -0
 511              		.cfi_startproc
 512              		@ args = 0, pretend = 0, frame = 0
 513              		@ frame_needed = 0, uses_anonymous_args = 0
 514              		@ link register save eliminated.
 141:D:/fchai/work/i-cube/I-CUBE-HUAWEI/Middlewares/Third_Party/Huawei/iot_link/network/mqtt/paho_mqtt/paho/MQTTPacket/src\MQTTPacket.c **** 	char c = **pptr;
 515              		.loc 1 141 2 view .LVU148
 516              		.loc 1 141 7 is_stmt 0 view .LVU149
 517 0000 0268     		ldr	r2, [r0]
 140:D:/fchai/work/i-cube/I-CUBE-HUAWEI/Middlewares/Third_Party/Huawei/iot_link/network/mqtt/paho_mqtt/paho/MQTTPacket/src\MQTTPacket.c **** 	char c = **pptr;
 518              		.loc 1 140 1 view .LVU150
 519 0002 0346     		mov	r3, r0
 520              		.loc 1 141 7 view .LVU151
 521 0004 12F8010B 		ldrb	r0, [r2], #1	@ zero_extendqisi2
 522              	.LVL43:
 142:D:/fchai/work/i-cube/I-CUBE-HUAWEI/Middlewares/Third_Party/Huawei/iot_link/network/mqtt/paho_mqtt/paho/MQTTPacket/src\MQTTPacket.c **** 	(*pptr)++;
 523              		.loc 1 142 2 is_stmt 1 view .LVU152
 524              		.loc 1 142 9 is_stmt 0 view .LVU153
 525 0008 1A60     		str	r2, [r3]
 143:D:/fchai/work/i-cube/I-CUBE-HUAWEI/Middlewares/Third_Party/Huawei/iot_link/network/mqtt/paho_mqtt/paho/MQTTPacket/src\MQTTPacket.c **** 	return c;
 526              		.loc 1 143 2 is_stmt 1 view .LVU154
 144:D:/fchai/work/i-cube/I-CUBE-HUAWEI/Middlewares/Third_Party/Huawei/iot_link/network/mqtt/paho_mqtt/paho/MQTTPacket/src\MQTTPacket.c **** }
 527              		.loc 1 144 1 is_stmt 0 view .LVU155
 528 000a 7047     		bx	lr
 529              		.cfi_endproc
 530              	.LFE9:
 532              		.section	.text.writeChar,"ax",%progbits
 533              		.align	1
 534              		.p2align 2,,3
 535              		.global	writeChar
 536              		.syntax unified
 537              		.thumb
 538              		.thumb_func
 539              		.fpu fpv4-sp-d16
 541              	writeChar:
 542              	.LVL44:
 543              	.LFB10:
 145:D:/fchai/work/i-cube/I-CUBE-HUAWEI/Middlewares/Third_Party/Huawei/iot_link/network/mqtt/paho_mqtt/paho/MQTTPacket/src\MQTTPacket.c **** 
 146:D:/fchai/work/i-cube/I-CUBE-HUAWEI/Middlewares/Third_Party/Huawei/iot_link/network/mqtt/paho_mqtt/paho/MQTTPacket/src\MQTTPacket.c **** 
 147:D:/fchai/work/i-cube/I-CUBE-HUAWEI/Middlewares/Third_Party/Huawei/iot_link/network/mqtt/paho_mqtt/paho/MQTTPacket/src\MQTTPacket.c **** /**
 148:D:/fchai/work/i-cube/I-CUBE-HUAWEI/Middlewares/Third_Party/Huawei/iot_link/network/mqtt/paho_mqtt/paho/MQTTPacket/src\MQTTPacket.c ****  * Writes one character to an output buffer.
 149:D:/fchai/work/i-cube/I-CUBE-HUAWEI/Middlewares/Third_Party/Huawei/iot_link/network/mqtt/paho_mqtt/paho/MQTTPacket/src\MQTTPacket.c ****  * @param pptr pointer to the output buffer - incremented by the number of bytes used & returned
 150:D:/fchai/work/i-cube/I-CUBE-HUAWEI/Middlewares/Third_Party/Huawei/iot_link/network/mqtt/paho_mqtt/paho/MQTTPacket/src\MQTTPacket.c ****  * @param c the character to write
 151:D:/fchai/work/i-cube/I-CUBE-HUAWEI/Middlewares/Third_Party/Huawei/iot_link/network/mqtt/paho_mqtt/paho/MQTTPacket/src\MQTTPacket.c ****  */
 152:D:/fchai/work/i-cube/I-CUBE-HUAWEI/Middlewares/Third_Party/Huawei/iot_link/network/mqtt/paho_mqtt/paho/MQTTPacket/src\MQTTPacket.c **** void writeChar(unsigned char** pptr, char c)
 153:D:/fchai/work/i-cube/I-CUBE-HUAWEI/Middlewares/Third_Party/Huawei/iot_link/network/mqtt/paho_mqtt/paho/MQTTPacket/src\MQTTPacket.c **** {
 544              		.loc 1 153 1 is_stmt 1 view -0
 545              		.cfi_startproc
ARM GAS  T:\msys\tmp\ccqTp987.s 			page 15


 546              		@ args = 0, pretend = 0, frame = 0
 547              		@ frame_needed = 0, uses_anonymous_args = 0
 548              		@ link register save eliminated.
 154:D:/fchai/work/i-cube/I-CUBE-HUAWEI/Middlewares/Third_Party/Huawei/iot_link/network/mqtt/paho_mqtt/paho/MQTTPacket/src\MQTTPacket.c **** 	**pptr = c;
 549              		.loc 1 154 2 view .LVU157
 550              		.loc 1 154 3 is_stmt 0 view .LVU158
 551 0000 0368     		ldr	r3, [r0]
 552              		.loc 1 154 9 view .LVU159
 553 0002 1970     		strb	r1, [r3]
 155:D:/fchai/work/i-cube/I-CUBE-HUAWEI/Middlewares/Third_Party/Huawei/iot_link/network/mqtt/paho_mqtt/paho/MQTTPacket/src\MQTTPacket.c **** 	(*pptr)++;
 554              		.loc 1 155 2 is_stmt 1 view .LVU160
 555              		.loc 1 155 9 is_stmt 0 view .LVU161
 556 0004 0368     		ldr	r3, [r0]
 557 0006 0133     		adds	r3, r3, #1
 558 0008 0360     		str	r3, [r0]
 156:D:/fchai/work/i-cube/I-CUBE-HUAWEI/Middlewares/Third_Party/Huawei/iot_link/network/mqtt/paho_mqtt/paho/MQTTPacket/src\MQTTPacket.c **** }
 559              		.loc 1 156 1 view .LVU162
 560 000a 7047     		bx	lr
 561              		.cfi_endproc
 562              	.LFE10:
 564              		.section	.text.writeInt,"ax",%progbits
 565              		.align	1
 566              		.p2align 2,,3
 567              		.global	writeInt
 568              		.syntax unified
 569              		.thumb
 570              		.thumb_func
 571              		.fpu fpv4-sp-d16
 573              	writeInt:
 574              	.LVL45:
 575              	.LFB11:
 157:D:/fchai/work/i-cube/I-CUBE-HUAWEI/Middlewares/Third_Party/Huawei/iot_link/network/mqtt/paho_mqtt/paho/MQTTPacket/src\MQTTPacket.c **** 
 158:D:/fchai/work/i-cube/I-CUBE-HUAWEI/Middlewares/Third_Party/Huawei/iot_link/network/mqtt/paho_mqtt/paho/MQTTPacket/src\MQTTPacket.c **** 
 159:D:/fchai/work/i-cube/I-CUBE-HUAWEI/Middlewares/Third_Party/Huawei/iot_link/network/mqtt/paho_mqtt/paho/MQTTPacket/src\MQTTPacket.c **** /**
 160:D:/fchai/work/i-cube/I-CUBE-HUAWEI/Middlewares/Third_Party/Huawei/iot_link/network/mqtt/paho_mqtt/paho/MQTTPacket/src\MQTTPacket.c ****  * Writes an integer as 2 bytes to an output buffer.
 161:D:/fchai/work/i-cube/I-CUBE-HUAWEI/Middlewares/Third_Party/Huawei/iot_link/network/mqtt/paho_mqtt/paho/MQTTPacket/src\MQTTPacket.c ****  * @param pptr pointer to the output buffer - incremented by the number of bytes used & returned
 162:D:/fchai/work/i-cube/I-CUBE-HUAWEI/Middlewares/Third_Party/Huawei/iot_link/network/mqtt/paho_mqtt/paho/MQTTPacket/src\MQTTPacket.c ****  * @param anInt the integer to write
 163:D:/fchai/work/i-cube/I-CUBE-HUAWEI/Middlewares/Third_Party/Huawei/iot_link/network/mqtt/paho_mqtt/paho/MQTTPacket/src\MQTTPacket.c ****  */
 164:D:/fchai/work/i-cube/I-CUBE-HUAWEI/Middlewares/Third_Party/Huawei/iot_link/network/mqtt/paho_mqtt/paho/MQTTPacket/src\MQTTPacket.c **** void writeInt(unsigned char** pptr, int anInt)
 165:D:/fchai/work/i-cube/I-CUBE-HUAWEI/Middlewares/Third_Party/Huawei/iot_link/network/mqtt/paho_mqtt/paho/MQTTPacket/src\MQTTPacket.c **** {
 576              		.loc 1 165 1 is_stmt 1 view -0
 577              		.cfi_startproc
 578              		@ args = 0, pretend = 0, frame = 0
 579              		@ frame_needed = 0, uses_anonymous_args = 0
 580              		@ link register save eliminated.
 166:D:/fchai/work/i-cube/I-CUBE-HUAWEI/Middlewares/Third_Party/Huawei/iot_link/network/mqtt/paho_mqtt/paho/MQTTPacket/src\MQTTPacket.c **** 	**pptr = (unsigned char)(anInt / 256);
 581              		.loc 1 166 2 view .LVU164
 582              		.loc 1 166 33 is_stmt 0 view .LVU165
 583 0000 0029     		cmp	r1, #0
 584              		.loc 1 166 3 view .LVU166
 585 0002 0268     		ldr	r2, [r0]
 586              		.loc 1 166 33 view .LVU167
 587 0004 B4BF     		ite	lt
 588 0006 01F1FF03 		addlt	r3, r1, #255
 589 000a 0B46     		movge	r3, r1
 590 000c 1B12     		asrs	r3, r3, #8
 165:D:/fchai/work/i-cube/I-CUBE-HUAWEI/Middlewares/Third_Party/Huawei/iot_link/network/mqtt/paho_mqtt/paho/MQTTPacket/src\MQTTPacket.c **** 	**pptr = (unsigned char)(anInt / 256);
ARM GAS  T:\msys\tmp\ccqTp987.s 			page 16


 591              		.loc 1 165 1 view .LVU168
 592 000e 10B4     		push	{r4}
 593              	.LCFI9:
 594              		.cfi_def_cfa_offset 4
 595              		.cfi_offset 4, -4
 596              		.loc 1 166 11 view .LVU169
 597 0010 1370     		strb	r3, [r2]
 167:D:/fchai/work/i-cube/I-CUBE-HUAWEI/Middlewares/Third_Party/Huawei/iot_link/network/mqtt/paho_mqtt/paho/MQTTPacket/src\MQTTPacket.c **** 	(*pptr)++;
 598              		.loc 1 167 2 is_stmt 1 view .LVU170
 599              		.loc 1 167 3 is_stmt 0 view .LVU171
 600 0012 0268     		ldr	r2, [r0]
 168:D:/fchai/work/i-cube/I-CUBE-HUAWEI/Middlewares/Third_Party/Huawei/iot_link/network/mqtt/paho_mqtt/paho/MQTTPacket/src\MQTTPacket.c **** 	**pptr = (unsigned char)(anInt % 256);
 601              		.loc 1 168 33 view .LVU172
 602 0014 4B42     		rsbs	r3, r1, #0
 603 0016 DBB2     		uxtb	r3, r3
 604 0018 C9B2     		uxtb	r1, r1
 605              	.LVL46:
 167:D:/fchai/work/i-cube/I-CUBE-HUAWEI/Middlewares/Third_Party/Huawei/iot_link/network/mqtt/paho_mqtt/paho/MQTTPacket/src\MQTTPacket.c **** 	(*pptr)++;
 606              		.loc 1 167 9 view .LVU173
 607 001a 02F10104 		add	r4, r2, #1
 608              		.loc 1 168 33 view .LVU174
 609 001e 58BF     		it	pl
 610 0020 5942     		rsbpl	r1, r3, #0
 167:D:/fchai/work/i-cube/I-CUBE-HUAWEI/Middlewares/Third_Party/Huawei/iot_link/network/mqtt/paho_mqtt/paho/MQTTPacket/src\MQTTPacket.c **** 	(*pptr)++;
 611              		.loc 1 167 9 view .LVU175
 612 0022 0460     		str	r4, [r0]
 613              		.loc 1 168 2 is_stmt 1 view .LVU176
 614              		.loc 1 168 11 is_stmt 0 view .LVU177
 615 0024 5170     		strb	r1, [r2, #1]
 169:D:/fchai/work/i-cube/I-CUBE-HUAWEI/Middlewares/Third_Party/Huawei/iot_link/network/mqtt/paho_mqtt/paho/MQTTPacket/src\MQTTPacket.c **** 	(*pptr)++;
 616              		.loc 1 169 2 is_stmt 1 view .LVU178
 617              		.loc 1 169 9 is_stmt 0 view .LVU179
 618 0026 0368     		ldr	r3, [r0]
 170:D:/fchai/work/i-cube/I-CUBE-HUAWEI/Middlewares/Third_Party/Huawei/iot_link/network/mqtt/paho_mqtt/paho/MQTTPacket/src\MQTTPacket.c **** }
 619              		.loc 1 170 1 view .LVU180
 620 0028 5DF8044B 		ldr	r4, [sp], #4
 621              	.LCFI10:
 622              		.cfi_restore 4
 623              		.cfi_def_cfa_offset 0
 169:D:/fchai/work/i-cube/I-CUBE-HUAWEI/Middlewares/Third_Party/Huawei/iot_link/network/mqtt/paho_mqtt/paho/MQTTPacket/src\MQTTPacket.c **** 	(*pptr)++;
 624              		.loc 1 169 9 view .LVU181
 625 002c 0133     		adds	r3, r3, #1
 626 002e 0360     		str	r3, [r0]
 627              		.loc 1 170 1 view .LVU182
 628 0030 7047     		bx	lr
 629              		.cfi_endproc
 630              	.LFE11:
 632 0032 00BF     		.section	.text.writeCString,"ax",%progbits
 633              		.align	1
 634              		.p2align 2,,3
 635              		.global	writeCString
 636              		.syntax unified
 637              		.thumb
 638              		.thumb_func
 639              		.fpu fpv4-sp-d16
 641              	writeCString:
 642              	.LVL47:
ARM GAS  T:\msys\tmp\ccqTp987.s 			page 17


 643              	.LFB12:
 171:D:/fchai/work/i-cube/I-CUBE-HUAWEI/Middlewares/Third_Party/Huawei/iot_link/network/mqtt/paho_mqtt/paho/MQTTPacket/src\MQTTPacket.c **** 
 172:D:/fchai/work/i-cube/I-CUBE-HUAWEI/Middlewares/Third_Party/Huawei/iot_link/network/mqtt/paho_mqtt/paho/MQTTPacket/src\MQTTPacket.c **** 
 173:D:/fchai/work/i-cube/I-CUBE-HUAWEI/Middlewares/Third_Party/Huawei/iot_link/network/mqtt/paho_mqtt/paho/MQTTPacket/src\MQTTPacket.c **** /**
 174:D:/fchai/work/i-cube/I-CUBE-HUAWEI/Middlewares/Third_Party/Huawei/iot_link/network/mqtt/paho_mqtt/paho/MQTTPacket/src\MQTTPacket.c ****  * Writes a "UTF" string to an output buffer.  Converts C string to length-delimited.
 175:D:/fchai/work/i-cube/I-CUBE-HUAWEI/Middlewares/Third_Party/Huawei/iot_link/network/mqtt/paho_mqtt/paho/MQTTPacket/src\MQTTPacket.c ****  * @param pptr pointer to the output buffer - incremented by the number of bytes used & returned
 176:D:/fchai/work/i-cube/I-CUBE-HUAWEI/Middlewares/Third_Party/Huawei/iot_link/network/mqtt/paho_mqtt/paho/MQTTPacket/src\MQTTPacket.c ****  * @param string the C string to write
 177:D:/fchai/work/i-cube/I-CUBE-HUAWEI/Middlewares/Third_Party/Huawei/iot_link/network/mqtt/paho_mqtt/paho/MQTTPacket/src\MQTTPacket.c ****  */
 178:D:/fchai/work/i-cube/I-CUBE-HUAWEI/Middlewares/Third_Party/Huawei/iot_link/network/mqtt/paho_mqtt/paho/MQTTPacket/src\MQTTPacket.c **** void writeCString(unsigned char** pptr, const char* string)
 179:D:/fchai/work/i-cube/I-CUBE-HUAWEI/Middlewares/Third_Party/Huawei/iot_link/network/mqtt/paho_mqtt/paho/MQTTPacket/src\MQTTPacket.c **** {
 644              		.loc 1 179 1 is_stmt 1 view -0
 645              		.cfi_startproc
 646              		@ args = 0, pretend = 0, frame = 8
 647              		@ frame_needed = 0, uses_anonymous_args = 0
 180:D:/fchai/work/i-cube/I-CUBE-HUAWEI/Middlewares/Third_Party/Huawei/iot_link/network/mqtt/paho_mqtt/paho/MQTTPacket/src\MQTTPacket.c **** 	int len = strlen(string);
 648              		.loc 1 180 2 view .LVU184
 179:D:/fchai/work/i-cube/I-CUBE-HUAWEI/Middlewares/Third_Party/Huawei/iot_link/network/mqtt/paho_mqtt/paho/MQTTPacket/src\MQTTPacket.c **** 	int len = strlen(string);
 649              		.loc 1 179 1 is_stmt 0 view .LVU185
 650 0000 30B5     		push	{r4, r5, lr}
 651              	.LCFI11:
 652              		.cfi_def_cfa_offset 12
 653              		.cfi_offset 4, -12
 654              		.cfi_offset 5, -8
 655              		.cfi_offset 14, -4
 656 0002 83B0     		sub	sp, sp, #12
 657              	.LCFI12:
 658              		.cfi_def_cfa_offset 24
 179:D:/fchai/work/i-cube/I-CUBE-HUAWEI/Middlewares/Third_Party/Huawei/iot_link/network/mqtt/paho_mqtt/paho/MQTTPacket/src\MQTTPacket.c **** 	int len = strlen(string);
 659              		.loc 1 179 1 view .LVU186
 660 0004 0446     		mov	r4, r0
 661              		.loc 1 180 12 view .LVU187
 662 0006 0846     		mov	r0, r1
 663              	.LVL48:
 664              		.loc 1 180 12 view .LVU188
 665 0008 0191     		str	r1, [sp, #4]
 666 000a FFF7FEFF 		bl	strlen
 667              	.LVL49:
 668              	.LBB26:
 669              	.LBB27:
 166:D:/fchai/work/i-cube/I-CUBE-HUAWEI/Middlewares/Third_Party/Huawei/iot_link/network/mqtt/paho_mqtt/paho/MQTTPacket/src\MQTTPacket.c **** 	(*pptr)++;
 670              		.loc 1 166 3 view .LVU189
 671 000e 2368     		ldr	r3, [r4]
 672              	.LBE27:
 673              	.LBE26:
 181:D:/fchai/work/i-cube/I-CUBE-HUAWEI/Middlewares/Third_Party/Huawei/iot_link/network/mqtt/paho_mqtt/paho/MQTTPacket/src\MQTTPacket.c **** 	writeInt(pptr, len);
 182:D:/fchai/work/i-cube/I-CUBE-HUAWEI/Middlewares/Third_Party/Huawei/iot_link/network/mqtt/paho_mqtt/paho/MQTTPacket/src\MQTTPacket.c **** 	memcpy(*pptr, string, len);
 674              		.loc 1 182 2 view .LVU190
 675 0010 0199     		ldr	r1, [sp, #4]
 676              	.LBB30:
 677              	.LBB28:
 166:D:/fchai/work/i-cube/I-CUBE-HUAWEI/Middlewares/Third_Party/Huawei/iot_link/network/mqtt/paho_mqtt/paho/MQTTPacket/src\MQTTPacket.c **** 	(*pptr)++;
 678              		.loc 1 166 33 view .LVU191
 679 0012 0212     		asrs	r2, r0, #8
 166:D:/fchai/work/i-cube/I-CUBE-HUAWEI/Middlewares/Third_Party/Huawei/iot_link/network/mqtt/paho_mqtt/paho/MQTTPacket/src\MQTTPacket.c **** 	(*pptr)++;
 680              		.loc 1 166 11 view .LVU192
 681 0014 1A70     		strb	r2, [r3]
 167:D:/fchai/work/i-cube/I-CUBE-HUAWEI/Middlewares/Third_Party/Huawei/iot_link/network/mqtt/paho_mqtt/paho/MQTTPacket/src\MQTTPacket.c **** 	**pptr = (unsigned char)(anInt % 256);
ARM GAS  T:\msys\tmp\ccqTp987.s 			page 18


 682              		.loc 1 167 3 view .LVU193
 683 0016 2368     		ldr	r3, [r4]
 167:D:/fchai/work/i-cube/I-CUBE-HUAWEI/Middlewares/Third_Party/Huawei/iot_link/network/mqtt/paho_mqtt/paho/MQTTPacket/src\MQTTPacket.c **** 	**pptr = (unsigned char)(anInt % 256);
 684              		.loc 1 167 9 view .LVU194
 685 0018 5A1C     		adds	r2, r3, #1
 686 001a 2260     		str	r2, [r4]
 168:D:/fchai/work/i-cube/I-CUBE-HUAWEI/Middlewares/Third_Party/Huawei/iot_link/network/mqtt/paho_mqtt/paho/MQTTPacket/src\MQTTPacket.c **** 	(*pptr)++;
 687              		.loc 1 168 11 view .LVU195
 688 001c 5870     		strb	r0, [r3, #1]
 689              	.LBE28:
 690              	.LBE30:
 180:D:/fchai/work/i-cube/I-CUBE-HUAWEI/Middlewares/Third_Party/Huawei/iot_link/network/mqtt/paho_mqtt/paho/MQTTPacket/src\MQTTPacket.c **** 	writeInt(pptr, len);
 691              		.loc 1 180 12 view .LVU196
 692 001e 0546     		mov	r5, r0
 693              	.LVL50:
 181:D:/fchai/work/i-cube/I-CUBE-HUAWEI/Middlewares/Third_Party/Huawei/iot_link/network/mqtt/paho_mqtt/paho/MQTTPacket/src\MQTTPacket.c **** 	memcpy(*pptr, string, len);
 694              		.loc 1 181 2 is_stmt 1 view .LVU197
 695              	.LBB31:
 696              	.LBI26:
 164:D:/fchai/work/i-cube/I-CUBE-HUAWEI/Middlewares/Third_Party/Huawei/iot_link/network/mqtt/paho_mqtt/paho/MQTTPacket/src\MQTTPacket.c **** {
 697              		.loc 1 164 6 view .LVU198
 698              	.LBB29:
 166:D:/fchai/work/i-cube/I-CUBE-HUAWEI/Middlewares/Third_Party/Huawei/iot_link/network/mqtt/paho_mqtt/paho/MQTTPacket/src\MQTTPacket.c **** 	(*pptr)++;
 699              		.loc 1 166 2 view .LVU199
 167:D:/fchai/work/i-cube/I-CUBE-HUAWEI/Middlewares/Third_Party/Huawei/iot_link/network/mqtt/paho_mqtt/paho/MQTTPacket/src\MQTTPacket.c **** 	**pptr = (unsigned char)(anInt % 256);
 700              		.loc 1 167 2 view .LVU200
 168:D:/fchai/work/i-cube/I-CUBE-HUAWEI/Middlewares/Third_Party/Huawei/iot_link/network/mqtt/paho_mqtt/paho/MQTTPacket/src\MQTTPacket.c **** 	(*pptr)++;
 701              		.loc 1 168 2 view .LVU201
 169:D:/fchai/work/i-cube/I-CUBE-HUAWEI/Middlewares/Third_Party/Huawei/iot_link/network/mqtt/paho_mqtt/paho/MQTTPacket/src\MQTTPacket.c **** }
 702              		.loc 1 169 2 view .LVU202
 169:D:/fchai/work/i-cube/I-CUBE-HUAWEI/Middlewares/Third_Party/Huawei/iot_link/network/mqtt/paho_mqtt/paho/MQTTPacket/src\MQTTPacket.c **** }
 703              		.loc 1 169 9 is_stmt 0 view .LVU203
 704 0020 2068     		ldr	r0, [r4]
 705              	.LVL51:
 169:D:/fchai/work/i-cube/I-CUBE-HUAWEI/Middlewares/Third_Party/Huawei/iot_link/network/mqtt/paho_mqtt/paho/MQTTPacket/src\MQTTPacket.c **** }
 706              		.loc 1 169 9 view .LVU204
 707 0022 0130     		adds	r0, r0, #1
 708 0024 2060     		str	r0, [r4]
 709              	.LVL52:
 169:D:/fchai/work/i-cube/I-CUBE-HUAWEI/Middlewares/Third_Party/Huawei/iot_link/network/mqtt/paho_mqtt/paho/MQTTPacket/src\MQTTPacket.c **** }
 710              		.loc 1 169 9 view .LVU205
 711              	.LBE29:
 712              	.LBE31:
 713              		.loc 1 182 2 is_stmt 1 view .LVU206
 714 0026 2A46     		mov	r2, r5
 715 0028 FFF7FEFF 		bl	memcpy
 716              	.LVL53:
 183:D:/fchai/work/i-cube/I-CUBE-HUAWEI/Middlewares/Third_Party/Huawei/iot_link/network/mqtt/paho_mqtt/paho/MQTTPacket/src\MQTTPacket.c **** 	*pptr += len;
 717              		.loc 1 183 2 view .LVU207
 718              		.loc 1 183 8 is_stmt 0 view .LVU208
 719 002c 2068     		ldr	r0, [r4]
 720 002e 2844     		add	r0, r0, r5
 721 0030 2060     		str	r0, [r4]
 184:D:/fchai/work/i-cube/I-CUBE-HUAWEI/Middlewares/Third_Party/Huawei/iot_link/network/mqtt/paho_mqtt/paho/MQTTPacket/src\MQTTPacket.c **** }
 722              		.loc 1 184 1 view .LVU209
 723 0032 03B0     		add	sp, sp, #12
 724              	.LCFI13:
ARM GAS  T:\msys\tmp\ccqTp987.s 			page 19


 725              		.cfi_def_cfa_offset 12
 726              		@ sp needed
 727 0034 30BD     		pop	{r4, r5, pc}
 728              		.loc 1 184 1 view .LVU210
 729              		.cfi_endproc
 730              	.LFE12:
 732 0036 00BF     		.section	.text.getLenStringLen,"ax",%progbits
 733              		.align	1
 734              		.p2align 2,,3
 735              		.global	getLenStringLen
 736              		.syntax unified
 737              		.thumb
 738              		.thumb_func
 739              		.fpu fpv4-sp-d16
 741              	getLenStringLen:
 742              	.LVL54:
 743              	.LFB13:
 185:D:/fchai/work/i-cube/I-CUBE-HUAWEI/Middlewares/Third_Party/Huawei/iot_link/network/mqtt/paho_mqtt/paho/MQTTPacket/src\MQTTPacket.c **** 
 186:D:/fchai/work/i-cube/I-CUBE-HUAWEI/Middlewares/Third_Party/Huawei/iot_link/network/mqtt/paho_mqtt/paho/MQTTPacket/src\MQTTPacket.c **** 
 187:D:/fchai/work/i-cube/I-CUBE-HUAWEI/Middlewares/Third_Party/Huawei/iot_link/network/mqtt/paho_mqtt/paho/MQTTPacket/src\MQTTPacket.c **** int getLenStringLen(char* ptr)
 188:D:/fchai/work/i-cube/I-CUBE-HUAWEI/Middlewares/Third_Party/Huawei/iot_link/network/mqtt/paho_mqtt/paho/MQTTPacket/src\MQTTPacket.c **** {
 744              		.loc 1 188 1 is_stmt 1 view -0
 745              		.cfi_startproc
 746              		@ args = 0, pretend = 0, frame = 0
 747              		@ frame_needed = 0, uses_anonymous_args = 0
 748              		@ link register save eliminated.
 189:D:/fchai/work/i-cube/I-CUBE-HUAWEI/Middlewares/Third_Party/Huawei/iot_link/network/mqtt/paho_mqtt/paho/MQTTPacket/src\MQTTPacket.c **** 	int len = 256*((unsigned char)(*ptr)) + (unsigned char)(*(ptr+1));
 749              		.loc 1 189 2 view .LVU212
 190:D:/fchai/work/i-cube/I-CUBE-HUAWEI/Middlewares/Third_Party/Huawei/iot_link/network/mqtt/paho_mqtt/paho/MQTTPacket/src\MQTTPacket.c **** 	return len;
 750              		.loc 1 190 2 view .LVU213
 189:D:/fchai/work/i-cube/I-CUBE-HUAWEI/Middlewares/Third_Party/Huawei/iot_link/network/mqtt/paho_mqtt/paho/MQTTPacket/src\MQTTPacket.c **** 	int len = 256*((unsigned char)(*ptr)) + (unsigned char)(*(ptr+1));
 751              		.loc 1 189 17 is_stmt 0 view .LVU214
 752 0000 0278     		ldrb	r2, [r0]	@ zero_extendqisi2
 189:D:/fchai/work/i-cube/I-CUBE-HUAWEI/Middlewares/Third_Party/Huawei/iot_link/network/mqtt/paho_mqtt/paho/MQTTPacket/src\MQTTPacket.c **** 	int len = 256*((unsigned char)(*ptr)) + (unsigned char)(*(ptr+1));
 753              		.loc 1 189 42 view .LVU215
 754 0002 4078     		ldrb	r0, [r0, #1]	@ zero_extendqisi2
 755              	.LVL55:
 191:D:/fchai/work/i-cube/I-CUBE-HUAWEI/Middlewares/Third_Party/Huawei/iot_link/network/mqtt/paho_mqtt/paho/MQTTPacket/src\MQTTPacket.c **** }
 756              		.loc 1 191 1 view .LVU216
 757 0004 00EB0220 		add	r0, r0, r2, lsl #8
 758              	.LVL56:
 759              		.loc 1 191 1 view .LVU217
 760 0008 7047     		bx	lr
 761              		.cfi_endproc
 762              	.LFE13:
 764 000a 00BF     		.section	.text.writeMQTTString,"ax",%progbits
 765              		.align	1
 766              		.p2align 2,,3
 767              		.global	writeMQTTString
 768              		.syntax unified
 769              		.thumb
 770              		.thumb_func
 771              		.fpu fpv4-sp-d16
 773              	writeMQTTString:
 774              	.LVL57:
 775              	.LFB14:
 192:D:/fchai/work/i-cube/I-CUBE-HUAWEI/Middlewares/Third_Party/Huawei/iot_link/network/mqtt/paho_mqtt/paho/MQTTPacket/src\MQTTPacket.c **** 
ARM GAS  T:\msys\tmp\ccqTp987.s 			page 20


 193:D:/fchai/work/i-cube/I-CUBE-HUAWEI/Middlewares/Third_Party/Huawei/iot_link/network/mqtt/paho_mqtt/paho/MQTTPacket/src\MQTTPacket.c **** 
 194:D:/fchai/work/i-cube/I-CUBE-HUAWEI/Middlewares/Third_Party/Huawei/iot_link/network/mqtt/paho_mqtt/paho/MQTTPacket/src\MQTTPacket.c **** void writeMQTTString(unsigned char** pptr, MQTTString mqttstring)
 195:D:/fchai/work/i-cube/I-CUBE-HUAWEI/Middlewares/Third_Party/Huawei/iot_link/network/mqtt/paho_mqtt/paho/MQTTPacket/src\MQTTPacket.c **** {
 776              		.loc 1 195 1 is_stmt 1 view -0
 777              		.cfi_startproc
 778              		@ args = 0, pretend = 0, frame = 16
 779              		@ frame_needed = 0, uses_anonymous_args = 0
 780              		.loc 1 195 1 is_stmt 0 view .LVU219
 781 0000 30B5     		push	{r4, r5, lr}
 782              	.LCFI14:
 783              		.cfi_def_cfa_offset 12
 784              		.cfi_offset 4, -12
 785              		.cfi_offset 5, -8
 786              		.cfi_offset 14, -4
 787 0002 85B0     		sub	sp, sp, #20
 788              	.LCFI15:
 789              		.cfi_def_cfa_offset 32
 790              	.LVL58:
 791              		.loc 1 195 1 view .LVU220
 792 0004 04AC     		add	r4, sp, #16
 793 0006 04E90E00 		stmdb	r4, {r1, r2, r3}
 794              	.LVL59:
 795              		.loc 1 195 1 view .LVU221
 796 000a 029D     		ldr	r5, [sp, #8]
 797              	.LVL60:
 196:D:/fchai/work/i-cube/I-CUBE-HUAWEI/Middlewares/Third_Party/Huawei/iot_link/network/mqtt/paho_mqtt/paho/MQTTPacket/src\MQTTPacket.c **** 	if (mqttstring.lenstring.len > 0)
 798              		.loc 1 196 2 is_stmt 1 view .LVU222
 799              		.loc 1 196 5 is_stmt 0 view .LVU223
 800 000c 002D     		cmp	r5, #0
 195:D:/fchai/work/i-cube/I-CUBE-HUAWEI/Middlewares/Third_Party/Huawei/iot_link/network/mqtt/paho_mqtt/paho/MQTTPacket/src\MQTTPacket.c **** 	if (mqttstring.lenstring.len > 0)
 801              		.loc 1 195 1 view .LVU224
 802 000e 0446     		mov	r4, r0
 803              		.loc 1 196 5 view .LVU225
 804 0010 11DC     		bgt	.L51
 805 0012 0199     		ldr	r1, [sp, #4]
 197:D:/fchai/work/i-cube/I-CUBE-HUAWEI/Middlewares/Third_Party/Huawei/iot_link/network/mqtt/paho_mqtt/paho/MQTTPacket/src\MQTTPacket.c **** 	{
 198:D:/fchai/work/i-cube/I-CUBE-HUAWEI/Middlewares/Third_Party/Huawei/iot_link/network/mqtt/paho_mqtt/paho/MQTTPacket/src\MQTTPacket.c **** 		writeInt(pptr, mqttstring.lenstring.len);
 199:D:/fchai/work/i-cube/I-CUBE-HUAWEI/Middlewares/Third_Party/Huawei/iot_link/network/mqtt/paho_mqtt/paho/MQTTPacket/src\MQTTPacket.c **** 		memcpy(*pptr, mqttstring.lenstring.data, mqttstring.lenstring.len);
 200:D:/fchai/work/i-cube/I-CUBE-HUAWEI/Middlewares/Third_Party/Huawei/iot_link/network/mqtt/paho_mqtt/paho/MQTTPacket/src\MQTTPacket.c **** 		*pptr += mqttstring.lenstring.len;
 201:D:/fchai/work/i-cube/I-CUBE-HUAWEI/Middlewares/Third_Party/Huawei/iot_link/network/mqtt/paho_mqtt/paho/MQTTPacket/src\MQTTPacket.c **** 	}
 202:D:/fchai/work/i-cube/I-CUBE-HUAWEI/Middlewares/Third_Party/Huawei/iot_link/network/mqtt/paho_mqtt/paho/MQTTPacket/src\MQTTPacket.c **** 	else if (mqttstring.cstring)
 806              		.loc 1 202 7 is_stmt 1 view .LVU226
 807              		.loc 1 202 10 is_stmt 0 view .LVU227
 808 0014 21B1     		cbz	r1, .L49
 203:D:/fchai/work/i-cube/I-CUBE-HUAWEI/Middlewares/Third_Party/Huawei/iot_link/network/mqtt/paho_mqtt/paho/MQTTPacket/src\MQTTPacket.c **** 		writeCString(pptr, mqttstring.cstring);
 809              		.loc 1 203 3 is_stmt 1 view .LVU228
 204:D:/fchai/work/i-cube/I-CUBE-HUAWEI/Middlewares/Third_Party/Huawei/iot_link/network/mqtt/paho_mqtt/paho/MQTTPacket/src\MQTTPacket.c **** 	else
 205:D:/fchai/work/i-cube/I-CUBE-HUAWEI/Middlewares/Third_Party/Huawei/iot_link/network/mqtt/paho_mqtt/paho/MQTTPacket/src\MQTTPacket.c **** 		writeInt(pptr, 0);
 206:D:/fchai/work/i-cube/I-CUBE-HUAWEI/Middlewares/Third_Party/Huawei/iot_link/network/mqtt/paho_mqtt/paho/MQTTPacket/src\MQTTPacket.c **** }
 810              		.loc 1 206 1 is_stmt 0 view .LVU229
 811 0016 05B0     		add	sp, sp, #20
 812              	.LCFI16:
 813              		.cfi_remember_state
 814              		.cfi_def_cfa_offset 12
 815              		@ sp needed
 816 0018 BDE83040 		pop	{r4, r5, lr}
 817              	.LCFI17:
ARM GAS  T:\msys\tmp\ccqTp987.s 			page 21


 818              		.cfi_restore 14
 819              		.cfi_restore 5
 820              		.cfi_restore 4
 821              		.cfi_def_cfa_offset 0
 822              	.LVL61:
 203:D:/fchai/work/i-cube/I-CUBE-HUAWEI/Middlewares/Third_Party/Huawei/iot_link/network/mqtt/paho_mqtt/paho/MQTTPacket/src\MQTTPacket.c **** 		writeCString(pptr, mqttstring.cstring);
 823              		.loc 1 203 3 view .LVU230
 824 001c FFF7FEBF 		b	writeCString
 825              	.LVL62:
 826              	.L49:
 827              	.LCFI18:
 828              		.cfi_restore_state
 205:D:/fchai/work/i-cube/I-CUBE-HUAWEI/Middlewares/Third_Party/Huawei/iot_link/network/mqtt/paho_mqtt/paho/MQTTPacket/src\MQTTPacket.c **** }
 829              		.loc 1 205 3 is_stmt 1 view .LVU231
 830              	.LBB32:
 831              	.LBI32:
 164:D:/fchai/work/i-cube/I-CUBE-HUAWEI/Middlewares/Third_Party/Huawei/iot_link/network/mqtt/paho_mqtt/paho/MQTTPacket/src\MQTTPacket.c **** {
 832              		.loc 1 164 6 view .LVU232
 833              	.LBB33:
 166:D:/fchai/work/i-cube/I-CUBE-HUAWEI/Middlewares/Third_Party/Huawei/iot_link/network/mqtt/paho_mqtt/paho/MQTTPacket/src\MQTTPacket.c **** 	(*pptr)++;
 834              		.loc 1 166 2 view .LVU233
 166:D:/fchai/work/i-cube/I-CUBE-HUAWEI/Middlewares/Third_Party/Huawei/iot_link/network/mqtt/paho_mqtt/paho/MQTTPacket/src\MQTTPacket.c **** 	(*pptr)++;
 835              		.loc 1 166 3 is_stmt 0 view .LVU234
 836 0020 0368     		ldr	r3, [r0]
 166:D:/fchai/work/i-cube/I-CUBE-HUAWEI/Middlewares/Third_Party/Huawei/iot_link/network/mqtt/paho_mqtt/paho/MQTTPacket/src\MQTTPacket.c **** 	(*pptr)++;
 837              		.loc 1 166 9 view .LVU235
 838 0022 1970     		strb	r1, [r3]
 167:D:/fchai/work/i-cube/I-CUBE-HUAWEI/Middlewares/Third_Party/Huawei/iot_link/network/mqtt/paho_mqtt/paho/MQTTPacket/src\MQTTPacket.c **** 	**pptr = (unsigned char)(anInt % 256);
 839              		.loc 1 167 2 is_stmt 1 view .LVU236
 167:D:/fchai/work/i-cube/I-CUBE-HUAWEI/Middlewares/Third_Party/Huawei/iot_link/network/mqtt/paho_mqtt/paho/MQTTPacket/src\MQTTPacket.c **** 	**pptr = (unsigned char)(anInt % 256);
 840              		.loc 1 167 3 is_stmt 0 view .LVU237
 841 0024 0368     		ldr	r3, [r0]
 167:D:/fchai/work/i-cube/I-CUBE-HUAWEI/Middlewares/Third_Party/Huawei/iot_link/network/mqtt/paho_mqtt/paho/MQTTPacket/src\MQTTPacket.c **** 	**pptr = (unsigned char)(anInt % 256);
 842              		.loc 1 167 9 view .LVU238
 843 0026 5A1C     		adds	r2, r3, #1
 844 0028 0260     		str	r2, [r0]
 168:D:/fchai/work/i-cube/I-CUBE-HUAWEI/Middlewares/Third_Party/Huawei/iot_link/network/mqtt/paho_mqtt/paho/MQTTPacket/src\MQTTPacket.c **** 	(*pptr)++;
 845              		.loc 1 168 2 is_stmt 1 view .LVU239
 168:D:/fchai/work/i-cube/I-CUBE-HUAWEI/Middlewares/Third_Party/Huawei/iot_link/network/mqtt/paho_mqtt/paho/MQTTPacket/src\MQTTPacket.c **** 	(*pptr)++;
 846              		.loc 1 168 9 is_stmt 0 view .LVU240
 847 002a 5970     		strb	r1, [r3, #1]
 169:D:/fchai/work/i-cube/I-CUBE-HUAWEI/Middlewares/Third_Party/Huawei/iot_link/network/mqtt/paho_mqtt/paho/MQTTPacket/src\MQTTPacket.c **** }
 848              		.loc 1 169 2 is_stmt 1 view .LVU241
 169:D:/fchai/work/i-cube/I-CUBE-HUAWEI/Middlewares/Third_Party/Huawei/iot_link/network/mqtt/paho_mqtt/paho/MQTTPacket/src\MQTTPacket.c **** }
 849              		.loc 1 169 9 is_stmt 0 view .LVU242
 850 002c 0368     		ldr	r3, [r0]
 851 002e 0133     		adds	r3, r3, #1
 852 0030 0360     		str	r3, [r0]
 853              	.LVL63:
 169:D:/fchai/work/i-cube/I-CUBE-HUAWEI/Middlewares/Third_Party/Huawei/iot_link/network/mqtt/paho_mqtt/paho/MQTTPacket/src\MQTTPacket.c **** }
 854              		.loc 1 169 9 view .LVU243
 855              	.LBE33:
 856              	.LBE32:
 857              		.loc 1 206 1 view .LVU244
 858 0032 05B0     		add	sp, sp, #20
 859              	.LCFI19:
 860              		.cfi_remember_state
ARM GAS  T:\msys\tmp\ccqTp987.s 			page 22


 861              		.cfi_def_cfa_offset 12
 862              		@ sp needed
 863 0034 30BD     		pop	{r4, r5, pc}
 864              	.LVL64:
 865              	.L51:
 866              	.LCFI20:
 867              		.cfi_restore_state
 198:D:/fchai/work/i-cube/I-CUBE-HUAWEI/Middlewares/Third_Party/Huawei/iot_link/network/mqtt/paho_mqtt/paho/MQTTPacket/src\MQTTPacket.c **** 		memcpy(*pptr, mqttstring.lenstring.data, mqttstring.lenstring.len);
 868              		.loc 1 198 3 is_stmt 1 view .LVU245
 869              	.LBB34:
 870              	.LBI34:
 164:D:/fchai/work/i-cube/I-CUBE-HUAWEI/Middlewares/Third_Party/Huawei/iot_link/network/mqtt/paho_mqtt/paho/MQTTPacket/src\MQTTPacket.c **** {
 871              		.loc 1 164 6 view .LVU246
 872              	.LBB35:
 166:D:/fchai/work/i-cube/I-CUBE-HUAWEI/Middlewares/Third_Party/Huawei/iot_link/network/mqtt/paho_mqtt/paho/MQTTPacket/src\MQTTPacket.c **** 	(*pptr)++;
 873              		.loc 1 166 2 view .LVU247
 166:D:/fchai/work/i-cube/I-CUBE-HUAWEI/Middlewares/Third_Party/Huawei/iot_link/network/mqtt/paho_mqtt/paho/MQTTPacket/src\MQTTPacket.c **** 	(*pptr)++;
 874              		.loc 1 166 3 is_stmt 0 view .LVU248
 875 0036 0368     		ldr	r3, [r0]
 876              	.LBE35:
 877              	.LBE34:
 199:D:/fchai/work/i-cube/I-CUBE-HUAWEI/Middlewares/Third_Party/Huawei/iot_link/network/mqtt/paho_mqtt/paho/MQTTPacket/src\MQTTPacket.c **** 		*pptr += mqttstring.lenstring.len;
 878              		.loc 1 199 3 view .LVU249
 879 0038 0399     		ldr	r1, [sp, #12]
 880              	.LBB38:
 881              	.LBB36:
 166:D:/fchai/work/i-cube/I-CUBE-HUAWEI/Middlewares/Third_Party/Huawei/iot_link/network/mqtt/paho_mqtt/paho/MQTTPacket/src\MQTTPacket.c **** 	(*pptr)++;
 882              		.loc 1 166 33 view .LVU250
 883 003a 2A12     		asrs	r2, r5, #8
 166:D:/fchai/work/i-cube/I-CUBE-HUAWEI/Middlewares/Third_Party/Huawei/iot_link/network/mqtt/paho_mqtt/paho/MQTTPacket/src\MQTTPacket.c **** 	(*pptr)++;
 884              		.loc 1 166 11 view .LVU251
 885 003c 1A70     		strb	r2, [r3]
 167:D:/fchai/work/i-cube/I-CUBE-HUAWEI/Middlewares/Third_Party/Huawei/iot_link/network/mqtt/paho_mqtt/paho/MQTTPacket/src\MQTTPacket.c **** 	**pptr = (unsigned char)(anInt % 256);
 886              		.loc 1 167 2 is_stmt 1 view .LVU252
 167:D:/fchai/work/i-cube/I-CUBE-HUAWEI/Middlewares/Third_Party/Huawei/iot_link/network/mqtt/paho_mqtt/paho/MQTTPacket/src\MQTTPacket.c **** 	**pptr = (unsigned char)(anInt % 256);
 887              		.loc 1 167 3 is_stmt 0 view .LVU253
 888 003e 0368     		ldr	r3, [r0]
 167:D:/fchai/work/i-cube/I-CUBE-HUAWEI/Middlewares/Third_Party/Huawei/iot_link/network/mqtt/paho_mqtt/paho/MQTTPacket/src\MQTTPacket.c **** 	**pptr = (unsigned char)(anInt % 256);
 889              		.loc 1 167 9 view .LVU254
 890 0040 5A1C     		adds	r2, r3, #1
 891 0042 0260     		str	r2, [r0]
 168:D:/fchai/work/i-cube/I-CUBE-HUAWEI/Middlewares/Third_Party/Huawei/iot_link/network/mqtt/paho_mqtt/paho/MQTTPacket/src\MQTTPacket.c **** 	(*pptr)++;
 892              		.loc 1 168 2 is_stmt 1 view .LVU255
 168:D:/fchai/work/i-cube/I-CUBE-HUAWEI/Middlewares/Third_Party/Huawei/iot_link/network/mqtt/paho_mqtt/paho/MQTTPacket/src\MQTTPacket.c **** 	(*pptr)++;
 893              		.loc 1 168 11 is_stmt 0 view .LVU256
 894 0044 5D70     		strb	r5, [r3, #1]
 169:D:/fchai/work/i-cube/I-CUBE-HUAWEI/Middlewares/Third_Party/Huawei/iot_link/network/mqtt/paho_mqtt/paho/MQTTPacket/src\MQTTPacket.c **** }
 895              		.loc 1 169 2 is_stmt 1 view .LVU257
 169:D:/fchai/work/i-cube/I-CUBE-HUAWEI/Middlewares/Third_Party/Huawei/iot_link/network/mqtt/paho_mqtt/paho/MQTTPacket/src\MQTTPacket.c **** }
 896              		.loc 1 169 9 is_stmt 0 view .LVU258
 897 0046 0068     		ldr	r0, [r0]
 898              	.LVL65:
 169:D:/fchai/work/i-cube/I-CUBE-HUAWEI/Middlewares/Third_Party/Huawei/iot_link/network/mqtt/paho_mqtt/paho/MQTTPacket/src\MQTTPacket.c **** }
 899              		.loc 1 169 9 view .LVU259
 900 0048 0130     		adds	r0, r0, #1
 901              	.LBE36:
 902              	.LBE38:
ARM GAS  T:\msys\tmp\ccqTp987.s 			page 23


 199:D:/fchai/work/i-cube/I-CUBE-HUAWEI/Middlewares/Third_Party/Huawei/iot_link/network/mqtt/paho_mqtt/paho/MQTTPacket/src\MQTTPacket.c **** 		*pptr += mqttstring.lenstring.len;
 903              		.loc 1 199 3 view .LVU260
 904 004a 2A46     		mov	r2, r5
 905              	.LBB39:
 906              	.LBB37:
 169:D:/fchai/work/i-cube/I-CUBE-HUAWEI/Middlewares/Third_Party/Huawei/iot_link/network/mqtt/paho_mqtt/paho/MQTTPacket/src\MQTTPacket.c **** }
 907              		.loc 1 169 9 view .LVU261
 908 004c 2060     		str	r0, [r4]
 909              	.LVL66:
 169:D:/fchai/work/i-cube/I-CUBE-HUAWEI/Middlewares/Third_Party/Huawei/iot_link/network/mqtt/paho_mqtt/paho/MQTTPacket/src\MQTTPacket.c **** }
 910              		.loc 1 169 9 view .LVU262
 911              	.LBE37:
 912              	.LBE39:
 199:D:/fchai/work/i-cube/I-CUBE-HUAWEI/Middlewares/Third_Party/Huawei/iot_link/network/mqtt/paho_mqtt/paho/MQTTPacket/src\MQTTPacket.c **** 		*pptr += mqttstring.lenstring.len;
 913              		.loc 1 199 3 is_stmt 1 view .LVU263
 914 004e FFF7FEFF 		bl	memcpy
 915              	.LVL67:
 200:D:/fchai/work/i-cube/I-CUBE-HUAWEI/Middlewares/Third_Party/Huawei/iot_link/network/mqtt/paho_mqtt/paho/MQTTPacket/src\MQTTPacket.c **** 	}
 916              		.loc 1 200 3 view .LVU264
 200:D:/fchai/work/i-cube/I-CUBE-HUAWEI/Middlewares/Third_Party/Huawei/iot_link/network/mqtt/paho_mqtt/paho/MQTTPacket/src\MQTTPacket.c **** 	}
 917              		.loc 1 200 9 is_stmt 0 view .LVU265
 918 0052 2268     		ldr	r2, [r4]
 919 0054 2A44     		add	r2, r2, r5
 920 0056 2260     		str	r2, [r4]
 921              		.loc 1 206 1 view .LVU266
 922 0058 05B0     		add	sp, sp, #20
 923              	.LCFI21:
 924              		.cfi_def_cfa_offset 12
 925              		@ sp needed
 926 005a 30BD     		pop	{r4, r5, pc}
 927              		.loc 1 206 1 view .LVU267
 928              		.cfi_endproc
 929              	.LFE14:
 931              		.section	.text.readMQTTLenString,"ax",%progbits
 932              		.align	1
 933              		.p2align 2,,3
 934              		.global	readMQTTLenString
 935              		.syntax unified
 936              		.thumb
 937              		.thumb_func
 938              		.fpu fpv4-sp-d16
 940              	readMQTTLenString:
 941              	.LVL68:
 942              	.LFB15:
 207:D:/fchai/work/i-cube/I-CUBE-HUAWEI/Middlewares/Third_Party/Huawei/iot_link/network/mqtt/paho_mqtt/paho/MQTTPacket/src\MQTTPacket.c **** 
 208:D:/fchai/work/i-cube/I-CUBE-HUAWEI/Middlewares/Third_Party/Huawei/iot_link/network/mqtt/paho_mqtt/paho/MQTTPacket/src\MQTTPacket.c **** 
 209:D:/fchai/work/i-cube/I-CUBE-HUAWEI/Middlewares/Third_Party/Huawei/iot_link/network/mqtt/paho_mqtt/paho/MQTTPacket/src\MQTTPacket.c **** /**
 210:D:/fchai/work/i-cube/I-CUBE-HUAWEI/Middlewares/Third_Party/Huawei/iot_link/network/mqtt/paho_mqtt/paho/MQTTPacket/src\MQTTPacket.c ****  * @param mqttstring the MQTTString structure into which the data is to be read
 211:D:/fchai/work/i-cube/I-CUBE-HUAWEI/Middlewares/Third_Party/Huawei/iot_link/network/mqtt/paho_mqtt/paho/MQTTPacket/src\MQTTPacket.c ****  * @param pptr pointer to the output buffer - incremented by the number of bytes used & returned
 212:D:/fchai/work/i-cube/I-CUBE-HUAWEI/Middlewares/Third_Party/Huawei/iot_link/network/mqtt/paho_mqtt/paho/MQTTPacket/src\MQTTPacket.c ****  * @param enddata pointer to the end of the data: do not read beyond
 213:D:/fchai/work/i-cube/I-CUBE-HUAWEI/Middlewares/Third_Party/Huawei/iot_link/network/mqtt/paho_mqtt/paho/MQTTPacket/src\MQTTPacket.c ****  * @return 1 if successful, 0 if not
 214:D:/fchai/work/i-cube/I-CUBE-HUAWEI/Middlewares/Third_Party/Huawei/iot_link/network/mqtt/paho_mqtt/paho/MQTTPacket/src\MQTTPacket.c ****  */
 215:D:/fchai/work/i-cube/I-CUBE-HUAWEI/Middlewares/Third_Party/Huawei/iot_link/network/mqtt/paho_mqtt/paho/MQTTPacket/src\MQTTPacket.c **** int readMQTTLenString(MQTTString* mqttstring, unsigned char** pptr, unsigned char* enddata)
 216:D:/fchai/work/i-cube/I-CUBE-HUAWEI/Middlewares/Third_Party/Huawei/iot_link/network/mqtt/paho_mqtt/paho/MQTTPacket/src\MQTTPacket.c **** {
 943              		.loc 1 216 1 is_stmt 1 view -0
 944              		.cfi_startproc
 945              		@ args = 0, pretend = 0, frame = 0
ARM GAS  T:\msys\tmp\ccqTp987.s 			page 24


 946              		@ frame_needed = 0, uses_anonymous_args = 0
 947              		@ link register save eliminated.
 217:D:/fchai/work/i-cube/I-CUBE-HUAWEI/Middlewares/Third_Party/Huawei/iot_link/network/mqtt/paho_mqtt/paho/MQTTPacket/src\MQTTPacket.c **** 	int rc = 0;
 948              		.loc 1 217 2 view .LVU269
 218:D:/fchai/work/i-cube/I-CUBE-HUAWEI/Middlewares/Third_Party/Huawei/iot_link/network/mqtt/paho_mqtt/paho/MQTTPacket/src\MQTTPacket.c **** 
 219:D:/fchai/work/i-cube/I-CUBE-HUAWEI/Middlewares/Third_Party/Huawei/iot_link/network/mqtt/paho_mqtt/paho/MQTTPacket/src\MQTTPacket.c **** 	FUNC_ENTRY;
 949              		.loc 1 219 12 view .LVU270
 220:D:/fchai/work/i-cube/I-CUBE-HUAWEI/Middlewares/Third_Party/Huawei/iot_link/network/mqtt/paho_mqtt/paho/MQTTPacket/src\MQTTPacket.c **** 	/* the first two bytes are the length of the string */
 221:D:/fchai/work/i-cube/I-CUBE-HUAWEI/Middlewares/Third_Party/Huawei/iot_link/network/mqtt/paho_mqtt/paho/MQTTPacket/src\MQTTPacket.c **** 	if (enddata - (*pptr) > 1) /* enough length to read the integer? */
 950              		.loc 1 221 2 view .LVU271
 951              		.loc 1 221 17 is_stmt 0 view .LVU272
 952 0000 0B68     		ldr	r3, [r1]
 216:D:/fchai/work/i-cube/I-CUBE-HUAWEI/Middlewares/Third_Party/Huawei/iot_link/network/mqtt/paho_mqtt/paho/MQTTPacket/src\MQTTPacket.c **** 	int rc = 0;
 953              		.loc 1 216 1 view .LVU273
 954 0002 30B4     		push	{r4, r5}
 955              	.LCFI22:
 956              		.cfi_def_cfa_offset 8
 957              		.cfi_offset 4, -8
 958              		.cfi_offset 5, -4
 959              		.loc 1 221 14 view .LVU274
 960 0004 D51A     		subs	r5, r2, r3
 961              		.loc 1 221 5 view .LVU275
 962 0006 012D     		cmp	r5, #1
 216:D:/fchai/work/i-cube/I-CUBE-HUAWEI/Middlewares/Third_Party/Huawei/iot_link/network/mqtt/paho_mqtt/paho/MQTTPacket/src\MQTTPacket.c **** 	int rc = 0;
 963              		.loc 1 216 1 view .LVU276
 964 0008 0446     		mov	r4, r0
 965              		.loc 1 221 5 view .LVU277
 966 000a 09DD     		ble	.L55
 222:D:/fchai/work/i-cube/I-CUBE-HUAWEI/Middlewares/Third_Party/Huawei/iot_link/network/mqtt/paho_mqtt/paho/MQTTPacket/src\MQTTPacket.c **** 	{
 223:D:/fchai/work/i-cube/I-CUBE-HUAWEI/Middlewares/Third_Party/Huawei/iot_link/network/mqtt/paho_mqtt/paho/MQTTPacket/src\MQTTPacket.c **** 		mqttstring->lenstring.len = readInt(pptr); /* increments pptr to point past length */
 967              		.loc 1 223 3 is_stmt 1 view .LVU278
 968              	.LVL69:
 969              	.LBB40:
 970              	.LBI40:
 125:D:/fchai/work/i-cube/I-CUBE-HUAWEI/Middlewares/Third_Party/Huawei/iot_link/network/mqtt/paho_mqtt/paho/MQTTPacket/src\MQTTPacket.c **** {
 971              		.loc 1 125 5 view .LVU279
 972              	.LBB41:
 127:D:/fchai/work/i-cube/I-CUBE-HUAWEI/Middlewares/Third_Party/Huawei/iot_link/network/mqtt/paho_mqtt/paho/MQTTPacket/src\MQTTPacket.c **** 	int len = 256*(*ptr) + (*(ptr+1));
 973              		.loc 1 127 2 view .LVU280
 128:D:/fchai/work/i-cube/I-CUBE-HUAWEI/Middlewares/Third_Party/Huawei/iot_link/network/mqtt/paho_mqtt/paho/MQTTPacket/src\MQTTPacket.c **** 	*pptr += 2;
 974              		.loc 1 128 2 view .LVU281
 128:D:/fchai/work/i-cube/I-CUBE-HUAWEI/Middlewares/Third_Party/Huawei/iot_link/network/mqtt/paho_mqtt/paho/MQTTPacket/src\MQTTPacket.c **** 	*pptr += 2;
 975              		.loc 1 128 17 is_stmt 0 view .LVU282
 976 000c 1D78     		ldrb	r5, [r3]	@ zero_extendqisi2
 128:D:/fchai/work/i-cube/I-CUBE-HUAWEI/Middlewares/Third_Party/Huawei/iot_link/network/mqtt/paho_mqtt/paho/MQTTPacket/src\MQTTPacket.c **** 	*pptr += 2;
 977              		.loc 1 128 26 view .LVU283
 978 000e 5878     		ldrb	r0, [r3, #1]	@ zero_extendqisi2
 979              	.LVL70:
 129:D:/fchai/work/i-cube/I-CUBE-HUAWEI/Middlewares/Third_Party/Huawei/iot_link/network/mqtt/paho_mqtt/paho/MQTTPacket/src\MQTTPacket.c **** 	return len;
 980              		.loc 1 129 8 view .LVU284
 981 0010 0233     		adds	r3, r3, #2
 982              	.LVL71:
 128:D:/fchai/work/i-cube/I-CUBE-HUAWEI/Middlewares/Third_Party/Huawei/iot_link/network/mqtt/paho_mqtt/paho/MQTTPacket/src\MQTTPacket.c **** 	*pptr += 2;
 983              		.loc 1 128 6 view .LVU285
 984 0012 00EB0520 		add	r0, r0, r5, lsl #8
 985              	.LVL72:
 129:D:/fchai/work/i-cube/I-CUBE-HUAWEI/Middlewares/Third_Party/Huawei/iot_link/network/mqtt/paho_mqtt/paho/MQTTPacket/src\MQTTPacket.c **** 	return len;
ARM GAS  T:\msys\tmp\ccqTp987.s 			page 25


 986              		.loc 1 129 2 is_stmt 1 view .LVU286
 987              	.LBE41:
 988              	.LBE40:
 224:D:/fchai/work/i-cube/I-CUBE-HUAWEI/Middlewares/Third_Party/Huawei/iot_link/network/mqtt/paho_mqtt/paho/MQTTPacket/src\MQTTPacket.c **** 		if (&(*pptr)[mqttstring->lenstring.len] <= enddata)
 989              		.loc 1 224 7 is_stmt 0 view .LVU287
 990 0016 1D18     		adds	r5, r3, r0
 991              		.loc 1 224 6 view .LVU288
 992 0018 9542     		cmp	r5, r2
 993              	.LBB43:
 994              	.LBB42:
 129:D:/fchai/work/i-cube/I-CUBE-HUAWEI/Middlewares/Third_Party/Huawei/iot_link/network/mqtt/paho_mqtt/paho/MQTTPacket/src\MQTTPacket.c **** 	return len;
 995              		.loc 1 129 8 view .LVU289
 996 001a 0B60     		str	r3, [r1]
 997              	.LVL73:
 130:D:/fchai/work/i-cube/I-CUBE-HUAWEI/Middlewares/Third_Party/Huawei/iot_link/network/mqtt/paho_mqtt/paho/MQTTPacket/src\MQTTPacket.c **** }
 998              		.loc 1 130 2 is_stmt 1 view .LVU290
 130:D:/fchai/work/i-cube/I-CUBE-HUAWEI/Middlewares/Third_Party/Huawei/iot_link/network/mqtt/paho_mqtt/paho/MQTTPacket/src\MQTTPacket.c **** }
 999              		.loc 1 130 2 is_stmt 0 view .LVU291
 1000              	.LBE42:
 1001              	.LBE43:
 223:D:/fchai/work/i-cube/I-CUBE-HUAWEI/Middlewares/Third_Party/Huawei/iot_link/network/mqtt/paho_mqtt/paho/MQTTPacket/src\MQTTPacket.c **** 		if (&(*pptr)[mqttstring->lenstring.len] <= enddata)
 1002              		.loc 1 223 29 view .LVU292
 1003 001c 6060     		str	r0, [r4, #4]
 1004              		.loc 1 224 3 is_stmt 1 view .LVU293
 1005              		.loc 1 224 6 is_stmt 0 view .LVU294
 1006 001e 04D9     		bls	.L57
 1007              	.L55:
 225:D:/fchai/work/i-cube/I-CUBE-HUAWEI/Middlewares/Third_Party/Huawei/iot_link/network/mqtt/paho_mqtt/paho/MQTTPacket/src\MQTTPacket.c **** 		{
 226:D:/fchai/work/i-cube/I-CUBE-HUAWEI/Middlewares/Third_Party/Huawei/iot_link/network/mqtt/paho_mqtt/paho/MQTTPacket/src\MQTTPacket.c **** 			mqttstring->lenstring.data = (char*)*pptr;
 227:D:/fchai/work/i-cube/I-CUBE-HUAWEI/Middlewares/Third_Party/Huawei/iot_link/network/mqtt/paho_mqtt/paho/MQTTPacket/src\MQTTPacket.c **** 			*pptr += mqttstring->lenstring.len;
 228:D:/fchai/work/i-cube/I-CUBE-HUAWEI/Middlewares/Third_Party/Huawei/iot_link/network/mqtt/paho_mqtt/paho/MQTTPacket/src\MQTTPacket.c **** 			rc = 1;
 229:D:/fchai/work/i-cube/I-CUBE-HUAWEI/Middlewares/Third_Party/Huawei/iot_link/network/mqtt/paho_mqtt/paho/MQTTPacket/src\MQTTPacket.c **** 		}
 230:D:/fchai/work/i-cube/I-CUBE-HUAWEI/Middlewares/Third_Party/Huawei/iot_link/network/mqtt/paho_mqtt/paho/MQTTPacket/src\MQTTPacket.c **** 	}
 231:D:/fchai/work/i-cube/I-CUBE-HUAWEI/Middlewares/Third_Party/Huawei/iot_link/network/mqtt/paho_mqtt/paho/MQTTPacket/src\MQTTPacket.c **** 	mqttstring->cstring = NULL;
 1008              		.loc 1 231 22 view .LVU295
 1009 0020 0023     		movs	r3, #0
 217:D:/fchai/work/i-cube/I-CUBE-HUAWEI/Middlewares/Third_Party/Huawei/iot_link/network/mqtt/paho_mqtt/paho/MQTTPacket/src\MQTTPacket.c **** 
 1010              		.loc 1 217 6 view .LVU296
 1011 0022 0020     		movs	r0, #0
 1012              	.LVL74:
 1013              		.loc 1 231 2 is_stmt 1 view .LVU297
 1014              		.loc 1 231 22 is_stmt 0 view .LVU298
 1015 0024 2360     		str	r3, [r4]
 232:D:/fchai/work/i-cube/I-CUBE-HUAWEI/Middlewares/Third_Party/Huawei/iot_link/network/mqtt/paho_mqtt/paho/MQTTPacket/src\MQTTPacket.c **** 	FUNC_EXIT_RC(rc);
 1016              		.loc 1 232 18 is_stmt 1 view .LVU299
 233:D:/fchai/work/i-cube/I-CUBE-HUAWEI/Middlewares/Third_Party/Huawei/iot_link/network/mqtt/paho_mqtt/paho/MQTTPacket/src\MQTTPacket.c **** 	return rc;
 1017              		.loc 1 233 2 view .LVU300
 234:D:/fchai/work/i-cube/I-CUBE-HUAWEI/Middlewares/Third_Party/Huawei/iot_link/network/mqtt/paho_mqtt/paho/MQTTPacket/src\MQTTPacket.c **** }
 1018              		.loc 1 234 1 is_stmt 0 view .LVU301
 1019 0026 30BC     		pop	{r4, r5}
 1020              	.LCFI23:
 1021              		.cfi_remember_state
 1022              		.cfi_restore 5
 1023              		.cfi_restore 4
 1024              		.cfi_def_cfa_offset 0
 1025              	.LVL75:
 1026              		.loc 1 234 1 view .LVU302
ARM GAS  T:\msys\tmp\ccqTp987.s 			page 26


 1027 0028 7047     		bx	lr
 1028              	.LVL76:
 1029              	.L57:
 1030              	.LCFI24:
 1031              		.cfi_restore_state
 226:D:/fchai/work/i-cube/I-CUBE-HUAWEI/Middlewares/Third_Party/Huawei/iot_link/network/mqtt/paho_mqtt/paho/MQTTPacket/src\MQTTPacket.c **** 			*pptr += mqttstring->lenstring.len;
 1032              		.loc 1 226 4 is_stmt 1 view .LVU303
 226:D:/fchai/work/i-cube/I-CUBE-HUAWEI/Middlewares/Third_Party/Huawei/iot_link/network/mqtt/paho_mqtt/paho/MQTTPacket/src\MQTTPacket.c **** 			*pptr += mqttstring->lenstring.len;
 1033              		.loc 1 226 31 is_stmt 0 view .LVU304
 1034 002a A360     		str	r3, [r4, #8]
 227:D:/fchai/work/i-cube/I-CUBE-HUAWEI/Middlewares/Third_Party/Huawei/iot_link/network/mqtt/paho_mqtt/paho/MQTTPacket/src\MQTTPacket.c **** 			rc = 1;
 1035              		.loc 1 227 4 is_stmt 1 view .LVU305
 231:D:/fchai/work/i-cube/I-CUBE-HUAWEI/Middlewares/Third_Party/Huawei/iot_link/network/mqtt/paho_mqtt/paho/MQTTPacket/src\MQTTPacket.c **** 	FUNC_EXIT_RC(rc);
 1036              		.loc 1 231 22 is_stmt 0 view .LVU306
 1037 002c 0023     		movs	r3, #0
 227:D:/fchai/work/i-cube/I-CUBE-HUAWEI/Middlewares/Third_Party/Huawei/iot_link/network/mqtt/paho_mqtt/paho/MQTTPacket/src\MQTTPacket.c **** 			rc = 1;
 1038              		.loc 1 227 10 view .LVU307
 1039 002e 0D60     		str	r5, [r1]
 228:D:/fchai/work/i-cube/I-CUBE-HUAWEI/Middlewares/Third_Party/Huawei/iot_link/network/mqtt/paho_mqtt/paho/MQTTPacket/src\MQTTPacket.c **** 		}
 1040              		.loc 1 228 4 is_stmt 1 view .LVU308
 1041              	.LVL77:
 228:D:/fchai/work/i-cube/I-CUBE-HUAWEI/Middlewares/Third_Party/Huawei/iot_link/network/mqtt/paho_mqtt/paho/MQTTPacket/src\MQTTPacket.c **** 		}
 1042              		.loc 1 228 7 is_stmt 0 view .LVU309
 1043 0030 0120     		movs	r0, #1
 1044              	.LVL78:
 231:D:/fchai/work/i-cube/I-CUBE-HUAWEI/Middlewares/Third_Party/Huawei/iot_link/network/mqtt/paho_mqtt/paho/MQTTPacket/src\MQTTPacket.c **** 	FUNC_EXIT_RC(rc);
 1045              		.loc 1 231 2 is_stmt 1 view .LVU310
 231:D:/fchai/work/i-cube/I-CUBE-HUAWEI/Middlewares/Third_Party/Huawei/iot_link/network/mqtt/paho_mqtt/paho/MQTTPacket/src\MQTTPacket.c **** 	FUNC_EXIT_RC(rc);
 1046              		.loc 1 231 22 is_stmt 0 view .LVU311
 1047 0032 2360     		str	r3, [r4]
 232:D:/fchai/work/i-cube/I-CUBE-HUAWEI/Middlewares/Third_Party/Huawei/iot_link/network/mqtt/paho_mqtt/paho/MQTTPacket/src\MQTTPacket.c **** 	return rc;
 1048              		.loc 1 232 18 is_stmt 1 view .LVU312
 233:D:/fchai/work/i-cube/I-CUBE-HUAWEI/Middlewares/Third_Party/Huawei/iot_link/network/mqtt/paho_mqtt/paho/MQTTPacket/src\MQTTPacket.c **** }
 1049              		.loc 1 233 2 view .LVU313
 1050              		.loc 1 234 1 is_stmt 0 view .LVU314
 1051 0034 30BC     		pop	{r4, r5}
 1052              	.LCFI25:
 1053              		.cfi_restore 5
 1054              		.cfi_restore 4
 1055              		.cfi_def_cfa_offset 0
 1056              	.LVL79:
 1057              		.loc 1 234 1 view .LVU315
 1058 0036 7047     		bx	lr
 1059              		.cfi_endproc
 1060              	.LFE15:
 1062              		.section	.text.MQTTstrlen,"ax",%progbits
 1063              		.align	1
 1064              		.p2align 2,,3
 1065              		.global	MQTTstrlen
 1066              		.syntax unified
 1067              		.thumb
 1068              		.thumb_func
 1069              		.fpu fpv4-sp-d16
 1071              	MQTTstrlen:
 1072              	.LFB16:
 235:D:/fchai/work/i-cube/I-CUBE-HUAWEI/Middlewares/Third_Party/Huawei/iot_link/network/mqtt/paho_mqtt/paho/MQTTPacket/src\MQTTPacket.c **** 
 236:D:/fchai/work/i-cube/I-CUBE-HUAWEI/Middlewares/Third_Party/Huawei/iot_link/network/mqtt/paho_mqtt/paho/MQTTPacket/src\MQTTPacket.c **** 
ARM GAS  T:\msys\tmp\ccqTp987.s 			page 27


 237:D:/fchai/work/i-cube/I-CUBE-HUAWEI/Middlewares/Third_Party/Huawei/iot_link/network/mqtt/paho_mqtt/paho/MQTTPacket/src\MQTTPacket.c **** /**
 238:D:/fchai/work/i-cube/I-CUBE-HUAWEI/Middlewares/Third_Party/Huawei/iot_link/network/mqtt/paho_mqtt/paho/MQTTPacket/src\MQTTPacket.c ****  * Return the length of the MQTTstring - C string if there is one, otherwise the length delimited s
 239:D:/fchai/work/i-cube/I-CUBE-HUAWEI/Middlewares/Third_Party/Huawei/iot_link/network/mqtt/paho_mqtt/paho/MQTTPacket/src\MQTTPacket.c ****  * @param mqttstring the string to return the length of
 240:D:/fchai/work/i-cube/I-CUBE-HUAWEI/Middlewares/Third_Party/Huawei/iot_link/network/mqtt/paho_mqtt/paho/MQTTPacket/src\MQTTPacket.c ****  * @return the length of the string
 241:D:/fchai/work/i-cube/I-CUBE-HUAWEI/Middlewares/Third_Party/Huawei/iot_link/network/mqtt/paho_mqtt/paho/MQTTPacket/src\MQTTPacket.c ****  */
 242:D:/fchai/work/i-cube/I-CUBE-HUAWEI/Middlewares/Third_Party/Huawei/iot_link/network/mqtt/paho_mqtt/paho/MQTTPacket/src\MQTTPacket.c **** int MQTTstrlen(MQTTString mqttstring)
 243:D:/fchai/work/i-cube/I-CUBE-HUAWEI/Middlewares/Third_Party/Huawei/iot_link/network/mqtt/paho_mqtt/paho/MQTTPacket/src\MQTTPacket.c **** {
 1073              		.loc 1 243 1 is_stmt 1 view -0
 1074              		.cfi_startproc
 1075              		@ args = 0, pretend = 0, frame = 16
 1076              		@ frame_needed = 0, uses_anonymous_args = 0
 1077              		@ link register save eliminated.
 1078 0000 84B0     		sub	sp, sp, #16
 1079              	.LCFI26:
 1080              		.cfi_def_cfa_offset 16
 1081              		.loc 1 243 1 is_stmt 0 view .LVU317
 1082 0002 04AB     		add	r3, sp, #16
 1083 0004 03E90700 		stmdb	r3, {r0, r1, r2}
 1084 0008 0198     		ldr	r0, [sp, #4]
 1085              	.LVL80:
 244:D:/fchai/work/i-cube/I-CUBE-HUAWEI/Middlewares/Third_Party/Huawei/iot_link/network/mqtt/paho_mqtt/paho/MQTTPacket/src\MQTTPacket.c **** 	int rc = 0;
 1086              		.loc 1 244 2 is_stmt 1 view .LVU318
 245:D:/fchai/work/i-cube/I-CUBE-HUAWEI/Middlewares/Third_Party/Huawei/iot_link/network/mqtt/paho_mqtt/paho/MQTTPacket/src\MQTTPacket.c **** 
 246:D:/fchai/work/i-cube/I-CUBE-HUAWEI/Middlewares/Third_Party/Huawei/iot_link/network/mqtt/paho_mqtt/paho/MQTTPacket/src\MQTTPacket.c **** 	if (mqttstring.cstring)
 1087              		.loc 1 246 2 view .LVU319
 1088              		.loc 1 246 5 is_stmt 0 view .LVU320
 1089 000a 10B1     		cbz	r0, .L59
 247:D:/fchai/work/i-cube/I-CUBE-HUAWEI/Middlewares/Third_Party/Huawei/iot_link/network/mqtt/paho_mqtt/paho/MQTTPacket/src\MQTTPacket.c **** 		rc = strlen(mqttstring.cstring);
 1090              		.loc 1 247 3 is_stmt 1 view .LVU321
 248:D:/fchai/work/i-cube/I-CUBE-HUAWEI/Middlewares/Third_Party/Huawei/iot_link/network/mqtt/paho_mqtt/paho/MQTTPacket/src\MQTTPacket.c **** 	else
 249:D:/fchai/work/i-cube/I-CUBE-HUAWEI/Middlewares/Third_Party/Huawei/iot_link/network/mqtt/paho_mqtt/paho/MQTTPacket/src\MQTTPacket.c **** 		rc = mqttstring.lenstring.len;
 250:D:/fchai/work/i-cube/I-CUBE-HUAWEI/Middlewares/Third_Party/Huawei/iot_link/network/mqtt/paho_mqtt/paho/MQTTPacket/src\MQTTPacket.c **** 	return rc;
 251:D:/fchai/work/i-cube/I-CUBE-HUAWEI/Middlewares/Third_Party/Huawei/iot_link/network/mqtt/paho_mqtt/paho/MQTTPacket/src\MQTTPacket.c **** }
 1091              		.loc 1 251 1 is_stmt 0 view .LVU322
 1092 000c 04B0     		add	sp, sp, #16
 1093              	.LCFI27:
 1094              		.cfi_remember_state
 1095              		.cfi_def_cfa_offset 0
 1096              		@ sp needed
 247:D:/fchai/work/i-cube/I-CUBE-HUAWEI/Middlewares/Third_Party/Huawei/iot_link/network/mqtt/paho_mqtt/paho/MQTTPacket/src\MQTTPacket.c **** 		rc = strlen(mqttstring.cstring);
 1097              		.loc 1 247 8 view .LVU323
 1098 000e FFF7FEBF 		b	strlen
 1099              	.LVL81:
 1100              	.L59:
 1101              	.LCFI28:
 1102              		.cfi_restore_state
 249:D:/fchai/work/i-cube/I-CUBE-HUAWEI/Middlewares/Third_Party/Huawei/iot_link/network/mqtt/paho_mqtt/paho/MQTTPacket/src\MQTTPacket.c **** 	return rc;
 1103              		.loc 1 249 3 is_stmt 1 view .LVU324
 250:D:/fchai/work/i-cube/I-CUBE-HUAWEI/Middlewares/Third_Party/Huawei/iot_link/network/mqtt/paho_mqtt/paho/MQTTPacket/src\MQTTPacket.c **** }
 1104              		.loc 1 250 2 view .LVU325
 1105              		.loc 1 251 1 is_stmt 0 view .LVU326
 1106 0012 0298     		ldr	r0, [sp, #8]
 1107              	.LVL82:
 1108              		.loc 1 251 1 view .LVU327
 1109 0014 04B0     		add	sp, sp, #16
 1110              	.LCFI29:
 1111              		.cfi_def_cfa_offset 0
ARM GAS  T:\msys\tmp\ccqTp987.s 			page 28


 1112              		@ sp needed
 1113 0016 7047     		bx	lr
 1114              		.cfi_endproc
 1115              	.LFE16:
 1117              		.section	.text.MQTTPacket_equals,"ax",%progbits
 1118              		.align	1
 1119              		.p2align 2,,3
 1120              		.global	MQTTPacket_equals
 1121              		.syntax unified
 1122              		.thumb
 1123              		.thumb_func
 1124              		.fpu fpv4-sp-d16
 1126              	MQTTPacket_equals:
 1127              	.LVL83:
 1128              	.LFB17:
 252:D:/fchai/work/i-cube/I-CUBE-HUAWEI/Middlewares/Third_Party/Huawei/iot_link/network/mqtt/paho_mqtt/paho/MQTTPacket/src\MQTTPacket.c **** 
 253:D:/fchai/work/i-cube/I-CUBE-HUAWEI/Middlewares/Third_Party/Huawei/iot_link/network/mqtt/paho_mqtt/paho/MQTTPacket/src\MQTTPacket.c **** 
 254:D:/fchai/work/i-cube/I-CUBE-HUAWEI/Middlewares/Third_Party/Huawei/iot_link/network/mqtt/paho_mqtt/paho/MQTTPacket/src\MQTTPacket.c **** /**
 255:D:/fchai/work/i-cube/I-CUBE-HUAWEI/Middlewares/Third_Party/Huawei/iot_link/network/mqtt/paho_mqtt/paho/MQTTPacket/src\MQTTPacket.c ****  * Compares an MQTTString to a C string
 256:D:/fchai/work/i-cube/I-CUBE-HUAWEI/Middlewares/Third_Party/Huawei/iot_link/network/mqtt/paho_mqtt/paho/MQTTPacket/src\MQTTPacket.c ****  * @param a the MQTTString to compare
 257:D:/fchai/work/i-cube/I-CUBE-HUAWEI/Middlewares/Third_Party/Huawei/iot_link/network/mqtt/paho_mqtt/paho/MQTTPacket/src\MQTTPacket.c ****  * @param bptr the C string to compare
 258:D:/fchai/work/i-cube/I-CUBE-HUAWEI/Middlewares/Third_Party/Huawei/iot_link/network/mqtt/paho_mqtt/paho/MQTTPacket/src\MQTTPacket.c ****  * @return boolean - equal or not
 259:D:/fchai/work/i-cube/I-CUBE-HUAWEI/Middlewares/Third_Party/Huawei/iot_link/network/mqtt/paho_mqtt/paho/MQTTPacket/src\MQTTPacket.c ****  */
 260:D:/fchai/work/i-cube/I-CUBE-HUAWEI/Middlewares/Third_Party/Huawei/iot_link/network/mqtt/paho_mqtt/paho/MQTTPacket/src\MQTTPacket.c **** int MQTTPacket_equals(MQTTString* a, char* bptr)
 261:D:/fchai/work/i-cube/I-CUBE-HUAWEI/Middlewares/Third_Party/Huawei/iot_link/network/mqtt/paho_mqtt/paho/MQTTPacket/src\MQTTPacket.c **** {
 1129              		.loc 1 261 1 is_stmt 1 view -0
 1130              		.cfi_startproc
 1131              		@ args = 0, pretend = 0, frame = 0
 1132              		@ frame_needed = 0, uses_anonymous_args = 0
 262:D:/fchai/work/i-cube/I-CUBE-HUAWEI/Middlewares/Third_Party/Huawei/iot_link/network/mqtt/paho_mqtt/paho/MQTTPacket/src\MQTTPacket.c **** 	int alen = 0,
 1133              		.loc 1 262 2 view .LVU329
 263:D:/fchai/work/i-cube/I-CUBE-HUAWEI/Middlewares/Third_Party/Huawei/iot_link/network/mqtt/paho_mqtt/paho/MQTTPacket/src\MQTTPacket.c **** 		blen = 0;
 264:D:/fchai/work/i-cube/I-CUBE-HUAWEI/Middlewares/Third_Party/Huawei/iot_link/network/mqtt/paho_mqtt/paho/MQTTPacket/src\MQTTPacket.c **** 	char *aptr;
 1134              		.loc 1 264 2 view .LVU330
 265:D:/fchai/work/i-cube/I-CUBE-HUAWEI/Middlewares/Third_Party/Huawei/iot_link/network/mqtt/paho_mqtt/paho/MQTTPacket/src\MQTTPacket.c **** 	
 266:D:/fchai/work/i-cube/I-CUBE-HUAWEI/Middlewares/Third_Party/Huawei/iot_link/network/mqtt/paho_mqtt/paho/MQTTPacket/src\MQTTPacket.c **** 	if (a->cstring)
 1135              		.loc 1 266 2 view .LVU331
 261:D:/fchai/work/i-cube/I-CUBE-HUAWEI/Middlewares/Third_Party/Huawei/iot_link/network/mqtt/paho_mqtt/paho/MQTTPacket/src\MQTTPacket.c **** 	int alen = 0,
 1136              		.loc 1 261 1 is_stmt 0 view .LVU332
 1137 0000 70B5     		push	{r4, r5, r6, lr}
 1138              	.LCFI30:
 1139              		.cfi_def_cfa_offset 16
 1140              		.cfi_offset 4, -16
 1141              		.cfi_offset 5, -12
 1142              		.cfi_offset 6, -8
 1143              		.cfi_offset 14, -4
 1144              		.loc 1 266 7 view .LVU333
 1145 0002 0668     		ldr	r6, [r0]
 261:D:/fchai/work/i-cube/I-CUBE-HUAWEI/Middlewares/Third_Party/Huawei/iot_link/network/mqtt/paho_mqtt/paho/MQTTPacket/src\MQTTPacket.c **** 	int alen = 0,
 1146              		.loc 1 261 1 view .LVU334
 1147 0004 0C46     		mov	r4, r1
 1148              		.loc 1 266 5 view .LVU335
 1149 0006 9EB1     		cbz	r6, .L62
 267:D:/fchai/work/i-cube/I-CUBE-HUAWEI/Middlewares/Third_Party/Huawei/iot_link/network/mqtt/paho_mqtt/paho/MQTTPacket/src\MQTTPacket.c **** 	{
 268:D:/fchai/work/i-cube/I-CUBE-HUAWEI/Middlewares/Third_Party/Huawei/iot_link/network/mqtt/paho_mqtt/paho/MQTTPacket/src\MQTTPacket.c **** 		aptr = a->cstring;
 1150              		.loc 1 268 3 is_stmt 1 view .LVU336
 1151              	.LVL84:
ARM GAS  T:\msys\tmp\ccqTp987.s 			page 29


 269:D:/fchai/work/i-cube/I-CUBE-HUAWEI/Middlewares/Third_Party/Huawei/iot_link/network/mqtt/paho_mqtt/paho/MQTTPacket/src\MQTTPacket.c **** 		alen = strlen(a->cstring);
 1152              		.loc 1 269 3 view .LVU337
 1153              		.loc 1 269 10 is_stmt 0 view .LVU338
 1154 0008 3046     		mov	r0, r6
 1155              	.LVL85:
 1156              		.loc 1 269 10 view .LVU339
 1157 000a FFF7FEFF 		bl	strlen
 1158              	.LVL86:
 1159              		.loc 1 269 10 view .LVU340
 1160 000e 0546     		mov	r5, r0
 1161              	.LVL87:
 1162              	.L63:
 270:D:/fchai/work/i-cube/I-CUBE-HUAWEI/Middlewares/Third_Party/Huawei/iot_link/network/mqtt/paho_mqtt/paho/MQTTPacket/src\MQTTPacket.c **** 	}
 271:D:/fchai/work/i-cube/I-CUBE-HUAWEI/Middlewares/Third_Party/Huawei/iot_link/network/mqtt/paho_mqtt/paho/MQTTPacket/src\MQTTPacket.c **** 	else
 272:D:/fchai/work/i-cube/I-CUBE-HUAWEI/Middlewares/Third_Party/Huawei/iot_link/network/mqtt/paho_mqtt/paho/MQTTPacket/src\MQTTPacket.c **** 	{
 273:D:/fchai/work/i-cube/I-CUBE-HUAWEI/Middlewares/Third_Party/Huawei/iot_link/network/mqtt/paho_mqtt/paho/MQTTPacket/src\MQTTPacket.c **** 		aptr = a->lenstring.data;
 274:D:/fchai/work/i-cube/I-CUBE-HUAWEI/Middlewares/Third_Party/Huawei/iot_link/network/mqtt/paho_mqtt/paho/MQTTPacket/src\MQTTPacket.c **** 		alen = a->lenstring.len;
 275:D:/fchai/work/i-cube/I-CUBE-HUAWEI/Middlewares/Third_Party/Huawei/iot_link/network/mqtt/paho_mqtt/paho/MQTTPacket/src\MQTTPacket.c **** 	}
 276:D:/fchai/work/i-cube/I-CUBE-HUAWEI/Middlewares/Third_Party/Huawei/iot_link/network/mqtt/paho_mqtt/paho/MQTTPacket/src\MQTTPacket.c **** 	blen = strlen(bptr);
 1163              		.loc 1 276 2 is_stmt 1 view .LVU341
 1164              		.loc 1 276 9 is_stmt 0 view .LVU342
 1165 0010 2046     		mov	r0, r4
 1166 0012 FFF7FEFF 		bl	strlen
 1167              	.LVL88:
 277:D:/fchai/work/i-cube/I-CUBE-HUAWEI/Middlewares/Third_Party/Huawei/iot_link/network/mqtt/paho_mqtt/paho/MQTTPacket/src\MQTTPacket.c **** 	
 278:D:/fchai/work/i-cube/I-CUBE-HUAWEI/Middlewares/Third_Party/Huawei/iot_link/network/mqtt/paho_mqtt/paho/MQTTPacket/src\MQTTPacket.c **** 	return (alen == blen) && (strncmp(aptr, bptr, alen) == 0);
 1168              		.loc 1 278 2 is_stmt 1 view .LVU343
 1169              		.loc 1 278 24 is_stmt 0 view .LVU344
 1170 0016 8542     		cmp	r5, r0
 1171 0018 01D0     		beq	.L67
 1172 001a 0020     		movs	r0, #0
 1173              	.LVL89:
 279:D:/fchai/work/i-cube/I-CUBE-HUAWEI/Middlewares/Third_Party/Huawei/iot_link/network/mqtt/paho_mqtt/paho/MQTTPacket/src\MQTTPacket.c **** }
 1174              		.loc 1 279 1 view .LVU345
 1175 001c 70BD     		pop	{r4, r5, r6, pc}
 1176              	.LVL90:
 1177              	.L67:
 278:D:/fchai/work/i-cube/I-CUBE-HUAWEI/Middlewares/Third_Party/Huawei/iot_link/network/mqtt/paho_mqtt/paho/MQTTPacket/src\MQTTPacket.c **** }
 1178              		.loc 1 278 28 discriminator 1 view .LVU346
 1179 001e 2A46     		mov	r2, r5
 1180 0020 2146     		mov	r1, r4
 1181 0022 3046     		mov	r0, r6
 1182              	.LVL91:
 278:D:/fchai/work/i-cube/I-CUBE-HUAWEI/Middlewares/Third_Party/Huawei/iot_link/network/mqtt/paho_mqtt/paho/MQTTPacket/src\MQTTPacket.c **** }
 1183              		.loc 1 278 28 discriminator 1 view .LVU347
 1184 0024 FFF7FEFF 		bl	strncmp
 1185              	.LVL92:
 278:D:/fchai/work/i-cube/I-CUBE-HUAWEI/Middlewares/Third_Party/Huawei/iot_link/network/mqtt/paho_mqtt/paho/MQTTPacket/src\MQTTPacket.c **** }
 1186              		.loc 1 278 24 discriminator 1 view .LVU348
 1187 0028 B0FA80F0 		clz	r0, r0
 1188 002c 4009     		lsrs	r0, r0, #5
 1189              		.loc 1 279 1 discriminator 1 view .LVU349
 1190 002e 70BD     		pop	{r4, r5, r6, pc}
 1191              	.LVL93:
 1192              	.L62:
 273:D:/fchai/work/i-cube/I-CUBE-HUAWEI/Middlewares/Third_Party/Huawei/iot_link/network/mqtt/paho_mqtt/paho/MQTTPacket/src\MQTTPacket.c **** 		alen = a->lenstring.len;
 1193              		.loc 1 273 3 is_stmt 1 view .LVU350
ARM GAS  T:\msys\tmp\ccqTp987.s 			page 30


 274:D:/fchai/work/i-cube/I-CUBE-HUAWEI/Middlewares/Third_Party/Huawei/iot_link/network/mqtt/paho_mqtt/paho/MQTTPacket/src\MQTTPacket.c **** 	}
 1194              		.loc 1 274 8 is_stmt 0 view .LVU351
 1195 0030 D0E90156 		ldrd	r5, r6, [r0, #4]
 1196              	.LVL94:
 274:D:/fchai/work/i-cube/I-CUBE-HUAWEI/Middlewares/Third_Party/Huawei/iot_link/network/mqtt/paho_mqtt/paho/MQTTPacket/src\MQTTPacket.c **** 	}
 1197              		.loc 1 274 8 view .LVU352
 1198 0034 ECE7     		b	.L63
 1199              		.cfi_endproc
 1200              	.LFE17:
 1202 0036 00BF     		.section	.text.MQTTPacket_read,"ax",%progbits
 1203              		.align	1
 1204              		.p2align 2,,3
 1205              		.global	MQTTPacket_read
 1206              		.syntax unified
 1207              		.thumb
 1208              		.thumb_func
 1209              		.fpu fpv4-sp-d16
 1211              	MQTTPacket_read:
 1212              	.LVL95:
 1213              	.LFB18:
 280:D:/fchai/work/i-cube/I-CUBE-HUAWEI/Middlewares/Third_Party/Huawei/iot_link/network/mqtt/paho_mqtt/paho/MQTTPacket/src\MQTTPacket.c **** 
 281:D:/fchai/work/i-cube/I-CUBE-HUAWEI/Middlewares/Third_Party/Huawei/iot_link/network/mqtt/paho_mqtt/paho/MQTTPacket/src\MQTTPacket.c **** 
 282:D:/fchai/work/i-cube/I-CUBE-HUAWEI/Middlewares/Third_Party/Huawei/iot_link/network/mqtt/paho_mqtt/paho/MQTTPacket/src\MQTTPacket.c **** /**
 283:D:/fchai/work/i-cube/I-CUBE-HUAWEI/Middlewares/Third_Party/Huawei/iot_link/network/mqtt/paho_mqtt/paho/MQTTPacket/src\MQTTPacket.c ****  * Helper function to read packet data from some source into a buffer
 284:D:/fchai/work/i-cube/I-CUBE-HUAWEI/Middlewares/Third_Party/Huawei/iot_link/network/mqtt/paho_mqtt/paho/MQTTPacket/src\MQTTPacket.c ****  * @param buf the buffer into which the packet will be serialized
 285:D:/fchai/work/i-cube/I-CUBE-HUAWEI/Middlewares/Third_Party/Huawei/iot_link/network/mqtt/paho_mqtt/paho/MQTTPacket/src\MQTTPacket.c ****  * @param buflen the length in bytes of the supplied buffer
 286:D:/fchai/work/i-cube/I-CUBE-HUAWEI/Middlewares/Third_Party/Huawei/iot_link/network/mqtt/paho_mqtt/paho/MQTTPacket/src\MQTTPacket.c ****  * @param getfn pointer to a function which will read any number of bytes from the needed source
 287:D:/fchai/work/i-cube/I-CUBE-HUAWEI/Middlewares/Third_Party/Huawei/iot_link/network/mqtt/paho_mqtt/paho/MQTTPacket/src\MQTTPacket.c ****  * @return integer MQTT packet type, or -1 on error
 288:D:/fchai/work/i-cube/I-CUBE-HUAWEI/Middlewares/Third_Party/Huawei/iot_link/network/mqtt/paho_mqtt/paho/MQTTPacket/src\MQTTPacket.c ****  * @note  the whole message must fit into the caller's buffer
 289:D:/fchai/work/i-cube/I-CUBE-HUAWEI/Middlewares/Third_Party/Huawei/iot_link/network/mqtt/paho_mqtt/paho/MQTTPacket/src\MQTTPacket.c ****  */
 290:D:/fchai/work/i-cube/I-CUBE-HUAWEI/Middlewares/Third_Party/Huawei/iot_link/network/mqtt/paho_mqtt/paho/MQTTPacket/src\MQTTPacket.c **** int MQTTPacket_read(unsigned char* buf, int buflen, int (*getfn)(unsigned char*, int))
 291:D:/fchai/work/i-cube/I-CUBE-HUAWEI/Middlewares/Third_Party/Huawei/iot_link/network/mqtt/paho_mqtt/paho/MQTTPacket/src\MQTTPacket.c **** {
 1214              		.loc 1 291 1 is_stmt 1 view -0
 1215              		.cfi_startproc
 1216              		@ args = 0, pretend = 0, frame = 8
 1217              		@ frame_needed = 0, uses_anonymous_args = 0
 292:D:/fchai/work/i-cube/I-CUBE-HUAWEI/Middlewares/Third_Party/Huawei/iot_link/network/mqtt/paho_mqtt/paho/MQTTPacket/src\MQTTPacket.c **** 	int rc = -1;
 1218              		.loc 1 292 2 view .LVU354
 293:D:/fchai/work/i-cube/I-CUBE-HUAWEI/Middlewares/Third_Party/Huawei/iot_link/network/mqtt/paho_mqtt/paho/MQTTPacket/src\MQTTPacket.c **** 	MQTTHeader header = {0};
 1219              		.loc 1 293 2 view .LVU355
 294:D:/fchai/work/i-cube/I-CUBE-HUAWEI/Middlewares/Third_Party/Huawei/iot_link/network/mqtt/paho_mqtt/paho/MQTTPacket/src\MQTTPacket.c **** 	int len = 0;
 1220              		.loc 1 294 2 view .LVU356
 295:D:/fchai/work/i-cube/I-CUBE-HUAWEI/Middlewares/Third_Party/Huawei/iot_link/network/mqtt/paho_mqtt/paho/MQTTPacket/src\MQTTPacket.c **** 	int rem_len = 0;
 1221              		.loc 1 295 2 view .LVU357
 291:D:/fchai/work/i-cube/I-CUBE-HUAWEI/Middlewares/Third_Party/Huawei/iot_link/network/mqtt/paho_mqtt/paho/MQTTPacket/src\MQTTPacket.c **** 	int rc = -1;
 1222              		.loc 1 291 1 is_stmt 0 view .LVU358
 1223 0000 2DE9F047 		push	{r4, r5, r6, r7, r8, r9, r10, lr}
 1224              	.LCFI31:
 1225              		.cfi_def_cfa_offset 32
 1226              		.cfi_offset 4, -32
 1227              		.cfi_offset 5, -28
 1228              		.cfi_offset 6, -24
 1229              		.cfi_offset 7, -20
 1230              		.cfi_offset 8, -16
 1231              		.cfi_offset 9, -12
 1232              		.cfi_offset 10, -8
 1233              		.cfi_offset 14, -4
ARM GAS  T:\msys\tmp\ccqTp987.s 			page 31


 1234 0004 82B0     		sub	sp, sp, #8
 1235              	.LCFI32:
 1236              		.cfi_def_cfa_offset 40
 291:D:/fchai/work/i-cube/I-CUBE-HUAWEI/Middlewares/Third_Party/Huawei/iot_link/network/mqtt/paho_mqtt/paho/MQTTPacket/src\MQTTPacket.c **** 	int rc = -1;
 1237              		.loc 1 291 1 view .LVU359
 1238 0006 8946     		mov	r9, r1
 1239              		.loc 1 295 6 view .LVU360
 1240 0008 0026     		movs	r6, #0
 296:D:/fchai/work/i-cube/I-CUBE-HUAWEI/Middlewares/Third_Party/Huawei/iot_link/network/mqtt/paho_mqtt/paho/MQTTPacket/src\MQTTPacket.c **** 
 297:D:/fchai/work/i-cube/I-CUBE-HUAWEI/Middlewares/Third_Party/Huawei/iot_link/network/mqtt/paho_mqtt/paho/MQTTPacket/src\MQTTPacket.c **** 	/* 1. read the header byte.  This has the packet type in it */
 298:D:/fchai/work/i-cube/I-CUBE-HUAWEI/Middlewares/Third_Party/Huawei/iot_link/network/mqtt/paho_mqtt/paho/MQTTPacket/src\MQTTPacket.c **** 	if ((*getfn)(buf, 1) != 1)
 1241              		.loc 1 298 7 view .LVU361
 1242 000a 0121     		movs	r1, #1
 1243              	.LVL96:
 291:D:/fchai/work/i-cube/I-CUBE-HUAWEI/Middlewares/Third_Party/Huawei/iot_link/network/mqtt/paho_mqtt/paho/MQTTPacket/src\MQTTPacket.c **** 	int rc = -1;
 1244              		.loc 1 291 1 view .LVU362
 1245 000c 9246     		mov	r10, r2
 1246 000e 8046     		mov	r8, r0
 295:D:/fchai/work/i-cube/I-CUBE-HUAWEI/Middlewares/Third_Party/Huawei/iot_link/network/mqtt/paho_mqtt/paho/MQTTPacket/src\MQTTPacket.c **** 
 1247              		.loc 1 295 6 view .LVU363
 1248 0010 0196     		str	r6, [sp, #4]
 1249              		.loc 1 298 2 is_stmt 1 view .LVU364
 1250              		.loc 1 298 7 is_stmt 0 view .LVU365
 1251 0012 9047     		blx	r2
 1252              	.LVL97:
 1253              		.loc 1 298 5 view .LVU366
 1254 0014 0128     		cmp	r0, #1
 1255 0016 30D1     		bne	.L75
 299:D:/fchai/work/i-cube/I-CUBE-HUAWEI/Middlewares/Third_Party/Huawei/iot_link/network/mqtt/paho_mqtt/paho/MQTTPacket/src\MQTTPacket.c **** 		goto exit;
 300:D:/fchai/work/i-cube/I-CUBE-HUAWEI/Middlewares/Third_Party/Huawei/iot_link/network/mqtt/paho_mqtt/paho/MQTTPacket/src\MQTTPacket.c **** 
 301:D:/fchai/work/i-cube/I-CUBE-HUAWEI/Middlewares/Third_Party/Huawei/iot_link/network/mqtt/paho_mqtt/paho/MQTTPacket/src\MQTTPacket.c **** 	len = 1;
 1256              		.loc 1 301 2 is_stmt 1 view .LVU367
 1257              	.LVL98:
 302:D:/fchai/work/i-cube/I-CUBE-HUAWEI/Middlewares/Third_Party/Huawei/iot_link/network/mqtt/paho_mqtt/paho/MQTTPacket/src\MQTTPacket.c **** 	/* 2. read the remaining length.  This is variable in itself */
 303:D:/fchai/work/i-cube/I-CUBE-HUAWEI/Middlewares/Third_Party/Huawei/iot_link/network/mqtt/paho_mqtt/paho/MQTTPacket/src\MQTTPacket.c **** 	MQTTPacket_decode(getfn, &rem_len);
 1258              		.loc 1 303 2 view .LVU368
 1259 0018 01A9     		add	r1, sp, #4
 1260 001a 5046     		mov	r0, r10
 1261 001c FFF7FEFF 		bl	MQTTPacket_decode
 1262              	.LVL99:
 304:D:/fchai/work/i-cube/I-CUBE-HUAWEI/Middlewares/Third_Party/Huawei/iot_link/network/mqtt/paho_mqtt/paho/MQTTPacket/src\MQTTPacket.c **** 	len += MQTTPacket_encode(buf + 1, rem_len); /* put the original remaining length back into the buf
 1263              		.loc 1 304 2 view .LVU369
 1264              		.loc 1 304 9 is_stmt 0 view .LVU370
 1265 0020 0199     		ldr	r1, [sp, #4]
 1266              	.LVL100:
 1267              	.LBB44:
 1268              	.LBI44:
  29:D:/fchai/work/i-cube/I-CUBE-HUAWEI/Middlewares/Third_Party/Huawei/iot_link/network/mqtt/paho_mqtt/paho/MQTTPacket/src\MQTTPacket.c **** {
 1269              		.loc 1 29 5 is_stmt 1 view .LVU371
 1270              	.LBB45:
  31:D:/fchai/work/i-cube/I-CUBE-HUAWEI/Middlewares/Third_Party/Huawei/iot_link/network/mqtt/paho_mqtt/paho/MQTTPacket/src\MQTTPacket.c **** 
 1271              		.loc 1 31 2 view .LVU372
  33:D:/fchai/work/i-cube/I-CUBE-HUAWEI/Middlewares/Third_Party/Huawei/iot_link/network/mqtt/paho_mqtt/paho/MQTTPacket/src\MQTTPacket.c **** 	do
 1272              		.loc 1 33 12 view .LVU373
  34:D:/fchai/work/i-cube/I-CUBE-HUAWEI/Middlewares/Third_Party/Huawei/iot_link/network/mqtt/paho_mqtt/paho/MQTTPacket/src\MQTTPacket.c **** 	{
 1273              		.loc 1 34 2 view .LVU374
 1274              	.LBB46:
ARM GAS  T:\msys\tmp\ccqTp987.s 			page 32


  36:D:/fchai/work/i-cube/I-CUBE-HUAWEI/Middlewares/Third_Party/Huawei/iot_link/network/mqtt/paho_mqtt/paho/MQTTPacket/src\MQTTPacket.c **** 		length /= 128;
 1275              		.loc 1 36 3 view .LVU375
  36:D:/fchai/work/i-cube/I-CUBE-HUAWEI/Middlewares/Third_Party/Huawei/iot_link/network/mqtt/paho_mqtt/paho/MQTTPacket/src\MQTTPacket.c **** 		length /= 128;
 1276              		.loc 1 36 19 is_stmt 0 view .LVU376
 1277 0022 4A42     		rsbs	r2, r1, #0
 1278 0024 02F07F02 		and	r2, r2, #127
 1279 0028 01F07F03 		and	r3, r1, #127
 1280 002c 58BF     		it	pl
 1281 002e 5342     		rsbpl	r3, r2, #0
  39:D:/fchai/work/i-cube/I-CUBE-HUAWEI/Middlewares/Third_Party/Huawei/iot_link/network/mqtt/paho_mqtt/paho/MQTTPacket/src\MQTTPacket.c **** 			d |= 0x80;
 1282              		.loc 1 39 6 view .LVU377
 1283 0030 7F29     		cmp	r1, #127
  36:D:/fchai/work/i-cube/I-CUBE-HUAWEI/Middlewares/Third_Party/Huawei/iot_link/network/mqtt/paho_mqtt/paho/MQTTPacket/src\MQTTPacket.c **** 		length /= 128;
 1284              		.loc 1 36 8 view .LVU378
 1285 0032 DBB2     		uxtb	r3, r3
 1286              	.LVL101:
  37:D:/fchai/work/i-cube/I-CUBE-HUAWEI/Middlewares/Third_Party/Huawei/iot_link/network/mqtt/paho_mqtt/paho/MQTTPacket/src\MQTTPacket.c **** 		/* if there are more digits to encode, set the top bit of this digit */
 1287              		.loc 1 37 3 is_stmt 1 view .LVU379
  39:D:/fchai/work/i-cube/I-CUBE-HUAWEI/Middlewares/Third_Party/Huawei/iot_link/network/mqtt/paho_mqtt/paho/MQTTPacket/src\MQTTPacket.c **** 			d |= 0x80;
 1288              		.loc 1 39 3 view .LVU380
  39:D:/fchai/work/i-cube/I-CUBE-HUAWEI/Middlewares/Third_Party/Huawei/iot_link/network/mqtt/paho_mqtt/paho/MQTTPacket/src\MQTTPacket.c **** 			d |= 0x80;
 1289              		.loc 1 39 6 is_stmt 0 view .LVU381
 1290 0034 26DD     		ble	.L71
  37:D:/fchai/work/i-cube/I-CUBE-HUAWEI/Middlewares/Third_Party/Huawei/iot_link/network/mqtt/paho_mqtt/paho/MQTTPacket/src\MQTTPacket.c **** 		/* if there are more digits to encode, set the top bit of this digit */
 1291              		.loc 1 37 10 view .LVU382
 1292 0036 CC11     		asrs	r4, r1, #7
 1293 0038 08F10107 		add	r7, r8, #1
 1294              	.LVL102:
 1295              	.L72:
  40:D:/fchai/work/i-cube/I-CUBE-HUAWEI/Middlewares/Third_Party/Huawei/iot_link/network/mqtt/paho_mqtt/paho/MQTTPacket/src\MQTTPacket.c **** 		buf[rc++] = d;
 1296              		.loc 1 40 6 view .LVU383
 1297 003c 63F07F03 		orn	r3, r3, #127
 1298              	.LVL103:
  39:D:/fchai/work/i-cube/I-CUBE-HUAWEI/Middlewares/Third_Party/Huawei/iot_link/network/mqtt/paho_mqtt/paho/MQTTPacket/src\MQTTPacket.c **** 			d |= 0x80;
 1299              		.loc 1 39 6 view .LVU384
 1300 0040 7F2C     		cmp	r4, #127
  41:D:/fchai/work/i-cube/I-CUBE-HUAWEI/Middlewares/Third_Party/Huawei/iot_link/network/mqtt/paho_mqtt/paho/MQTTPacket/src\MQTTPacket.c **** 	} while (length > 0);
 1301              		.loc 1 41 13 view .LVU385
 1302 0042 07F8013B 		strb	r3, [r7], #1
 1303 0046 3046     		mov	r0, r6
 1304              	.LVL104:
  40:D:/fchai/work/i-cube/I-CUBE-HUAWEI/Middlewares/Third_Party/Huawei/iot_link/network/mqtt/paho_mqtt/paho/MQTTPacket/src\MQTTPacket.c **** 		buf[rc++] = d;
 1305              		.loc 1 40 4 is_stmt 1 view .LVU386
  41:D:/fchai/work/i-cube/I-CUBE-HUAWEI/Middlewares/Third_Party/Huawei/iot_link/network/mqtt/paho_mqtt/paho/MQTTPacket/src\MQTTPacket.c **** 	} while (length > 0);
 1306              		.loc 1 41 3 view .LVU387
  41:D:/fchai/work/i-cube/I-CUBE-HUAWEI/Middlewares/Third_Party/Huawei/iot_link/network/mqtt/paho_mqtt/paho/MQTTPacket/src\MQTTPacket.c **** 	} while (length > 0);
 1307              		.loc 1 41 3 is_stmt 0 view .LVU388
 1308              	.LBE46:
  42:D:/fchai/work/i-cube/I-CUBE-HUAWEI/Middlewares/Third_Party/Huawei/iot_link/network/mqtt/paho_mqtt/paho/MQTTPacket/src\MQTTPacket.c **** 	FUNC_EXIT_RC(rc);
 1309              		.loc 1 42 10 is_stmt 1 view .LVU389
  33:D:/fchai/work/i-cube/I-CUBE-HUAWEI/Middlewares/Third_Party/Huawei/iot_link/network/mqtt/paho_mqtt/paho/MQTTPacket/src\MQTTPacket.c **** 	do
 1310              		.loc 1 33 12 view .LVU390
  34:D:/fchai/work/i-cube/I-CUBE-HUAWEI/Middlewares/Third_Party/Huawei/iot_link/network/mqtt/paho_mqtt/paho/MQTTPacket/src\MQTTPacket.c **** 	{
 1311              		.loc 1 34 2 view .LVU391
 1312              	.LBB47:
  36:D:/fchai/work/i-cube/I-CUBE-HUAWEI/Middlewares/Third_Party/Huawei/iot_link/network/mqtt/paho_mqtt/paho/MQTTPacket/src\MQTTPacket.c **** 		length /= 128;
 1313              		.loc 1 36 3 view .LVU392
ARM GAS  T:\msys\tmp\ccqTp987.s 			page 33


  36:D:/fchai/work/i-cube/I-CUBE-HUAWEI/Middlewares/Third_Party/Huawei/iot_link/network/mqtt/paho_mqtt/paho/MQTTPacket/src\MQTTPacket.c **** 		length /= 128;
 1314              		.loc 1 36 8 is_stmt 0 view .LVU393
 1315 0048 04F07F03 		and	r3, r4, #127
 1316              	.LVL105:
  37:D:/fchai/work/i-cube/I-CUBE-HUAWEI/Middlewares/Third_Party/Huawei/iot_link/network/mqtt/paho_mqtt/paho/MQTTPacket/src\MQTTPacket.c **** 		/* if there are more digits to encode, set the top bit of this digit */
 1317              		.loc 1 37 3 is_stmt 1 view .LVU394
  39:D:/fchai/work/i-cube/I-CUBE-HUAWEI/Middlewares/Third_Party/Huawei/iot_link/network/mqtt/paho_mqtt/paho/MQTTPacket/src\MQTTPacket.c **** 			d |= 0x80;
 1318              		.loc 1 39 3 view .LVU395
 1319 004c 06F10106 		add	r6, r6, #1
 1320              	.LVL106:
  39:D:/fchai/work/i-cube/I-CUBE-HUAWEI/Middlewares/Third_Party/Huawei/iot_link/network/mqtt/paho_mqtt/paho/MQTTPacket/src\MQTTPacket.c **** 			d |= 0x80;
 1321              		.loc 1 39 6 is_stmt 0 view .LVU396
 1322 0050 4FEAE414 		asr	r4, r4, #7
 1323              	.LVL107:
  39:D:/fchai/work/i-cube/I-CUBE-HUAWEI/Middlewares/Third_Party/Huawei/iot_link/network/mqtt/paho_mqtt/paho/MQTTPacket/src\MQTTPacket.c **** 			d |= 0x80;
 1324              		.loc 1 39 6 view .LVU397
 1325 0054 F2DC     		bgt	.L72
  41:D:/fchai/work/i-cube/I-CUBE-HUAWEI/Middlewares/Third_Party/Huawei/iot_link/network/mqtt/paho_mqtt/paho/MQTTPacket/src\MQTTPacket.c **** 	} while (length > 0);
 1326              		.loc 1 41 3 is_stmt 1 view .LVU398
 1327              	.LVL108:
  41:D:/fchai/work/i-cube/I-CUBE-HUAWEI/Middlewares/Third_Party/Huawei/iot_link/network/mqtt/paho_mqtt/paho/MQTTPacket/src\MQTTPacket.c **** 	} while (length > 0);
 1328              		.loc 1 41 13 is_stmt 0 view .LVU399
 1329 0056 08EB0004 		add	r4, r8, r0
 1330              	.LBE47:
 1331              	.LBE45:
 1332              	.LBE44:
 1333              		.loc 1 304 6 view .LVU400
 1334 005a 0330     		adds	r0, r0, #3
 305:D:/fchai/work/i-cube/I-CUBE-HUAWEI/Middlewares/Third_Party/Huawei/iot_link/network/mqtt/paho_mqtt/paho/MQTTPacket/src\MQTTPacket.c **** 
 306:D:/fchai/work/i-cube/I-CUBE-HUAWEI/Middlewares/Third_Party/Huawei/iot_link/network/mqtt/paho_mqtt/paho/MQTTPacket/src\MQTTPacket.c **** 	/* 3. read the rest of the buffer using a callback to supply the rest of the data */
 307:D:/fchai/work/i-cube/I-CUBE-HUAWEI/Middlewares/Third_Party/Huawei/iot_link/network/mqtt/paho_mqtt/paho/MQTTPacket/src\MQTTPacket.c **** 	if((rem_len + len) > buflen)
 1335              		.loc 1 307 14 view .LVU401
 1336 005c 0A18     		adds	r2, r1, r0
 1337              		.loc 1 307 4 view .LVU402
 1338 005e 9145     		cmp	r9, r2
 1339              	.LBB54:
 1340              	.LBB51:
 1341              	.LBB48:
  41:D:/fchai/work/i-cube/I-CUBE-HUAWEI/Middlewares/Third_Party/Huawei/iot_link/network/mqtt/paho_mqtt/paho/MQTTPacket/src\MQTTPacket.c **** 	} while (length > 0);
 1342              		.loc 1 41 13 view .LVU403
 1343 0060 A370     		strb	r3, [r4, #2]
 1344              	.LBE48:
  42:D:/fchai/work/i-cube/I-CUBE-HUAWEI/Middlewares/Third_Party/Huawei/iot_link/network/mqtt/paho_mqtt/paho/MQTTPacket/src\MQTTPacket.c **** 	FUNC_EXIT_RC(rc);
 1345              		.loc 1 42 10 is_stmt 1 view .LVU404
  43:D:/fchai/work/i-cube/I-CUBE-HUAWEI/Middlewares/Third_Party/Huawei/iot_link/network/mqtt/paho_mqtt/paho/MQTTPacket/src\MQTTPacket.c **** 	return rc;
 1346              		.loc 1 43 18 view .LVU405
  44:D:/fchai/work/i-cube/I-CUBE-HUAWEI/Middlewares/Third_Party/Huawei/iot_link/network/mqtt/paho_mqtt/paho/MQTTPacket/src\MQTTPacket.c **** }
 1347              		.loc 1 44 2 view .LVU406
 1348              	.LVL109:
  44:D:/fchai/work/i-cube/I-CUBE-HUAWEI/Middlewares/Third_Party/Huawei/iot_link/network/mqtt/paho_mqtt/paho/MQTTPacket/src\MQTTPacket.c **** }
 1349              		.loc 1 44 2 is_stmt 0 view .LVU407
 1350              	.LBE51:
 1351              	.LBE54:
 1352              		.loc 1 307 2 is_stmt 1 view .LVU408
 1353              		.loc 1 307 4 is_stmt 0 view .LVU409
 1354 0062 0ADB     		blt	.L75
 1355              	.LVL110:
ARM GAS  T:\msys\tmp\ccqTp987.s 			page 34


 1356              	.L74:
 308:D:/fchai/work/i-cube/I-CUBE-HUAWEI/Middlewares/Third_Party/Huawei/iot_link/network/mqtt/paho_mqtt/paho/MQTTPacket/src\MQTTPacket.c **** 		goto exit;
 309:D:/fchai/work/i-cube/I-CUBE-HUAWEI/Middlewares/Third_Party/Huawei/iot_link/network/mqtt/paho_mqtt/paho/MQTTPacket/src\MQTTPacket.c **** 	if (rem_len && ((*getfn)(buf + len, rem_len) != rem_len))
 1357              		.loc 1 309 19 discriminator 1 view .LVU410
 1358 0064 4044     		add	r0, r0, r8
 1359 0066 D047     		blx	r10
 1360              	.LVL111:
 1361              		.loc 1 309 14 discriminator 1 view .LVU411
 1362 0068 019B     		ldr	r3, [sp, #4]
 1363 006a 9842     		cmp	r0, r3
 1364 006c 05D1     		bne	.L75
 1365              	.L76:
 310:D:/fchai/work/i-cube/I-CUBE-HUAWEI/Middlewares/Third_Party/Huawei/iot_link/network/mqtt/paho_mqtt/paho/MQTTPacket/src\MQTTPacket.c **** 		goto exit;
 311:D:/fchai/work/i-cube/I-CUBE-HUAWEI/Middlewares/Third_Party/Huawei/iot_link/network/mqtt/paho_mqtt/paho/MQTTPacket/src\MQTTPacket.c **** 
 312:D:/fchai/work/i-cube/I-CUBE-HUAWEI/Middlewares/Third_Party/Huawei/iot_link/network/mqtt/paho_mqtt/paho/MQTTPacket/src\MQTTPacket.c **** 	header.byte = buf[0];
 1366              		.loc 1 312 2 is_stmt 1 view .LVU412
 313:D:/fchai/work/i-cube/I-CUBE-HUAWEI/Middlewares/Third_Party/Huawei/iot_link/network/mqtt/paho_mqtt/paho/MQTTPacket/src\MQTTPacket.c **** 	rc = header.bits.type;
 1367              		.loc 1 313 2 view .LVU413
 312:D:/fchai/work/i-cube/I-CUBE-HUAWEI/Middlewares/Third_Party/Huawei/iot_link/network/mqtt/paho_mqtt/paho/MQTTPacket/src\MQTTPacket.c **** 	rc = header.bits.type;
 1368              		.loc 1 312 14 is_stmt 0 view .LVU414
 1369 006e 98F80000 		ldrb	r0, [r8]	@ zero_extendqisi2
 1370              		.loc 1 313 5 view .LVU415
 1371 0072 0009     		lsrs	r0, r0, #4
 1372              	.LVL112:
 314:D:/fchai/work/i-cube/I-CUBE-HUAWEI/Middlewares/Third_Party/Huawei/iot_link/network/mqtt/paho_mqtt/paho/MQTTPacket/src\MQTTPacket.c **** exit:
 315:D:/fchai/work/i-cube/I-CUBE-HUAWEI/Middlewares/Third_Party/Huawei/iot_link/network/mqtt/paho_mqtt/paho/MQTTPacket/src\MQTTPacket.c **** 	return rc;
 316:D:/fchai/work/i-cube/I-CUBE-HUAWEI/Middlewares/Third_Party/Huawei/iot_link/network/mqtt/paho_mqtt/paho/MQTTPacket/src\MQTTPacket.c **** }
 1373              		.loc 1 316 1 view .LVU416
 1374 0074 02B0     		add	sp, sp, #8
 1375              	.LCFI33:
 1376              		.cfi_remember_state
 1377              		.cfi_def_cfa_offset 32
 1378              		@ sp needed
 1379 0076 BDE8F087 		pop	{r4, r5, r6, r7, r8, r9, r10, pc}
 1380              	.LVL113:
 1381              	.L75:
 1382              	.LCFI34:
 1383              		.cfi_restore_state
 292:D:/fchai/work/i-cube/I-CUBE-HUAWEI/Middlewares/Third_Party/Huawei/iot_link/network/mqtt/paho_mqtt/paho/MQTTPacket/src\MQTTPacket.c **** 	MQTTHeader header = {0};
 1384              		.loc 1 292 6 view .LVU417
 1385 007a 4FF0FF30 		mov	r0, #-1
 1386              		.loc 1 316 1 view .LVU418
 1387 007e 02B0     		add	sp, sp, #8
 1388              	.LCFI35:
 1389              		.cfi_remember_state
 1390              		.cfi_def_cfa_offset 32
 1391              		@ sp needed
 1392 0080 BDE8F087 		pop	{r4, r5, r6, r7, r8, r9, r10, pc}
 1393              	.LVL114:
 1394              	.L70:
 1395              	.L71:
 1396              	.LCFI36:
 1397              		.cfi_restore_state
 1398              	.LBB55:
 1399              	.LBB52:
 1400              	.LBB49:
  41:D:/fchai/work/i-cube/I-CUBE-HUAWEI/Middlewares/Third_Party/Huawei/iot_link/network/mqtt/paho_mqtt/paho/MQTTPacket/src\MQTTPacket.c **** 	} while (length > 0);
ARM GAS  T:\msys\tmp\ccqTp987.s 			page 35


 1401              		.loc 1 41 3 is_stmt 1 view .LVU419
  41:D:/fchai/work/i-cube/I-CUBE-HUAWEI/Middlewares/Third_Party/Huawei/iot_link/network/mqtt/paho_mqtt/paho/MQTTPacket/src\MQTTPacket.c **** 	} while (length > 0);
 1402              		.loc 1 41 3 is_stmt 0 view .LVU420
 1403              	.LBE49:
 1404              	.LBE52:
 1405              	.LBE55:
 307:D:/fchai/work/i-cube/I-CUBE-HUAWEI/Middlewares/Third_Party/Huawei/iot_link/network/mqtt/paho_mqtt/paho/MQTTPacket/src\MQTTPacket.c **** 		goto exit;
 1406              		.loc 1 307 14 view .LVU421
 1407 0084 8A1C     		adds	r2, r1, #2
 307:D:/fchai/work/i-cube/I-CUBE-HUAWEI/Middlewares/Third_Party/Huawei/iot_link/network/mqtt/paho_mqtt/paho/MQTTPacket/src\MQTTPacket.c **** 		goto exit;
 1408              		.loc 1 307 4 view .LVU422
 1409 0086 4A45     		cmp	r2, r9
 1410              	.LBB56:
 1411              	.LBB53:
 1412              	.LBB50:
  41:D:/fchai/work/i-cube/I-CUBE-HUAWEI/Middlewares/Third_Party/Huawei/iot_link/network/mqtt/paho_mqtt/paho/MQTTPacket/src\MQTTPacket.c **** 	} while (length > 0);
 1413              		.loc 1 41 13 view .LVU423
 1414 0088 88F80130 		strb	r3, [r8, #1]
 1415              	.LBE50:
  42:D:/fchai/work/i-cube/I-CUBE-HUAWEI/Middlewares/Third_Party/Huawei/iot_link/network/mqtt/paho_mqtt/paho/MQTTPacket/src\MQTTPacket.c **** 	FUNC_EXIT_RC(rc);
 1416              		.loc 1 42 10 is_stmt 1 view .LVU424
  43:D:/fchai/work/i-cube/I-CUBE-HUAWEI/Middlewares/Third_Party/Huawei/iot_link/network/mqtt/paho_mqtt/paho/MQTTPacket/src\MQTTPacket.c **** 	return rc;
 1417              		.loc 1 43 18 view .LVU425
  44:D:/fchai/work/i-cube/I-CUBE-HUAWEI/Middlewares/Third_Party/Huawei/iot_link/network/mqtt/paho_mqtt/paho/MQTTPacket/src\MQTTPacket.c **** }
 1418              		.loc 1 44 2 view .LVU426
 1419              	.LVL115:
  44:D:/fchai/work/i-cube/I-CUBE-HUAWEI/Middlewares/Third_Party/Huawei/iot_link/network/mqtt/paho_mqtt/paho/MQTTPacket/src\MQTTPacket.c **** }
 1420              		.loc 1 44 2 is_stmt 0 view .LVU427
 1421              	.LBE53:
 1422              	.LBE56:
 307:D:/fchai/work/i-cube/I-CUBE-HUAWEI/Middlewares/Third_Party/Huawei/iot_link/network/mqtt/paho_mqtt/paho/MQTTPacket/src\MQTTPacket.c **** 		goto exit;
 1423              		.loc 1 307 2 is_stmt 1 view .LVU428
 307:D:/fchai/work/i-cube/I-CUBE-HUAWEI/Middlewares/Third_Party/Huawei/iot_link/network/mqtt/paho_mqtt/paho/MQTTPacket/src\MQTTPacket.c **** 		goto exit;
 1424              		.loc 1 307 4 is_stmt 0 view .LVU429
 1425 008c F5DC     		bgt	.L75
 309:D:/fchai/work/i-cube/I-CUBE-HUAWEI/Middlewares/Third_Party/Huawei/iot_link/network/mqtt/paho_mqtt/paho/MQTTPacket/src\MQTTPacket.c **** 		goto exit;
 1426              		.loc 1 309 2 is_stmt 1 view .LVU430
 309:D:/fchai/work/i-cube/I-CUBE-HUAWEI/Middlewares/Third_Party/Huawei/iot_link/network/mqtt/paho_mqtt/paho/MQTTPacket/src\MQTTPacket.c **** 		goto exit;
 1427              		.loc 1 309 5 is_stmt 0 view .LVU431
 1428 008e 0029     		cmp	r1, #0
 1429 0090 EDD0     		beq	.L76
 304:D:/fchai/work/i-cube/I-CUBE-HUAWEI/Middlewares/Third_Party/Huawei/iot_link/network/mqtt/paho_mqtt/paho/MQTTPacket/src\MQTTPacket.c **** 
 1430              		.loc 1 304 6 view .LVU432
 1431 0092 0220     		movs	r0, #2
 1432 0094 E6E7     		b	.L74
 1433              		.cfi_endproc
 1434              	.LFE18:
 1436 0096 00BF     		.section	.text.MQTTPacket_readnb,"ax",%progbits
 1437              		.align	1
 1438              		.p2align 2,,3
 1439              		.global	MQTTPacket_readnb
 1440              		.syntax unified
 1441              		.thumb
 1442              		.thumb_func
 1443              		.fpu fpv4-sp-d16
 1445              	MQTTPacket_readnb:
 1446              	.LVL116:
ARM GAS  T:\msys\tmp\ccqTp987.s 			page 36


 1447              	.LFB20:
 317:D:/fchai/work/i-cube/I-CUBE-HUAWEI/Middlewares/Third_Party/Huawei/iot_link/network/mqtt/paho_mqtt/paho/MQTTPacket/src\MQTTPacket.c **** 
 318:D:/fchai/work/i-cube/I-CUBE-HUAWEI/Middlewares/Third_Party/Huawei/iot_link/network/mqtt/paho_mqtt/paho/MQTTPacket/src\MQTTPacket.c **** /**
 319:D:/fchai/work/i-cube/I-CUBE-HUAWEI/Middlewares/Third_Party/Huawei/iot_link/network/mqtt/paho_mqtt/paho/MQTTPacket/src\MQTTPacket.c ****  * Decodes the message length according to the MQTT algorithm, non-blocking
 320:D:/fchai/work/i-cube/I-CUBE-HUAWEI/Middlewares/Third_Party/Huawei/iot_link/network/mqtt/paho_mqtt/paho/MQTTPacket/src\MQTTPacket.c ****  * @param trp pointer to a transport structure holding what is needed to solve getting data from it
 321:D:/fchai/work/i-cube/I-CUBE-HUAWEI/Middlewares/Third_Party/Huawei/iot_link/network/mqtt/paho_mqtt/paho/MQTTPacket/src\MQTTPacket.c ****  * @param value the decoded length returned
 322:D:/fchai/work/i-cube/I-CUBE-HUAWEI/Middlewares/Third_Party/Huawei/iot_link/network/mqtt/paho_mqtt/paho/MQTTPacket/src\MQTTPacket.c ****  * @return integer the number of bytes read from the socket, 0 for call again, or -1 on error
 323:D:/fchai/work/i-cube/I-CUBE-HUAWEI/Middlewares/Third_Party/Huawei/iot_link/network/mqtt/paho_mqtt/paho/MQTTPacket/src\MQTTPacket.c ****  */
 324:D:/fchai/work/i-cube/I-CUBE-HUAWEI/Middlewares/Third_Party/Huawei/iot_link/network/mqtt/paho_mqtt/paho/MQTTPacket/src\MQTTPacket.c **** static int MQTTPacket_decodenb(MQTTTransport *trp)
 325:D:/fchai/work/i-cube/I-CUBE-HUAWEI/Middlewares/Third_Party/Huawei/iot_link/network/mqtt/paho_mqtt/paho/MQTTPacket/src\MQTTPacket.c **** {
 326:D:/fchai/work/i-cube/I-CUBE-HUAWEI/Middlewares/Third_Party/Huawei/iot_link/network/mqtt/paho_mqtt/paho/MQTTPacket/src\MQTTPacket.c **** 	unsigned char c;
 327:D:/fchai/work/i-cube/I-CUBE-HUAWEI/Middlewares/Third_Party/Huawei/iot_link/network/mqtt/paho_mqtt/paho/MQTTPacket/src\MQTTPacket.c **** 	int rc = MQTTPACKET_READ_ERROR;
 328:D:/fchai/work/i-cube/I-CUBE-HUAWEI/Middlewares/Third_Party/Huawei/iot_link/network/mqtt/paho_mqtt/paho/MQTTPacket/src\MQTTPacket.c **** 
 329:D:/fchai/work/i-cube/I-CUBE-HUAWEI/Middlewares/Third_Party/Huawei/iot_link/network/mqtt/paho_mqtt/paho/MQTTPacket/src\MQTTPacket.c **** 	FUNC_ENTRY;
 330:D:/fchai/work/i-cube/I-CUBE-HUAWEI/Middlewares/Third_Party/Huawei/iot_link/network/mqtt/paho_mqtt/paho/MQTTPacket/src\MQTTPacket.c **** 	if(trp->len == 0){		/* initialize on first call */
 331:D:/fchai/work/i-cube/I-CUBE-HUAWEI/Middlewares/Third_Party/Huawei/iot_link/network/mqtt/paho_mqtt/paho/MQTTPacket/src\MQTTPacket.c **** 		trp->multiplier = 1;
 332:D:/fchai/work/i-cube/I-CUBE-HUAWEI/Middlewares/Third_Party/Huawei/iot_link/network/mqtt/paho_mqtt/paho/MQTTPacket/src\MQTTPacket.c **** 		trp->rem_len = 0;
 333:D:/fchai/work/i-cube/I-CUBE-HUAWEI/Middlewares/Third_Party/Huawei/iot_link/network/mqtt/paho_mqtt/paho/MQTTPacket/src\MQTTPacket.c **** 	}
 334:D:/fchai/work/i-cube/I-CUBE-HUAWEI/Middlewares/Third_Party/Huawei/iot_link/network/mqtt/paho_mqtt/paho/MQTTPacket/src\MQTTPacket.c **** 	do {
 335:D:/fchai/work/i-cube/I-CUBE-HUAWEI/Middlewares/Third_Party/Huawei/iot_link/network/mqtt/paho_mqtt/paho/MQTTPacket/src\MQTTPacket.c **** 		int frc;
 336:D:/fchai/work/i-cube/I-CUBE-HUAWEI/Middlewares/Third_Party/Huawei/iot_link/network/mqtt/paho_mqtt/paho/MQTTPacket/src\MQTTPacket.c **** 		if (trp->len >= MAX_NO_OF_REMAINING_LENGTH_BYTES)
 337:D:/fchai/work/i-cube/I-CUBE-HUAWEI/Middlewares/Third_Party/Huawei/iot_link/network/mqtt/paho_mqtt/paho/MQTTPacket/src\MQTTPacket.c **** 			goto exit;
 338:D:/fchai/work/i-cube/I-CUBE-HUAWEI/Middlewares/Third_Party/Huawei/iot_link/network/mqtt/paho_mqtt/paho/MQTTPacket/src\MQTTPacket.c **** 		if ((frc=(*trp->getfn)(trp->sck, &c, 1)) == -1)
 339:D:/fchai/work/i-cube/I-CUBE-HUAWEI/Middlewares/Third_Party/Huawei/iot_link/network/mqtt/paho_mqtt/paho/MQTTPacket/src\MQTTPacket.c **** 			goto exit;
 340:D:/fchai/work/i-cube/I-CUBE-HUAWEI/Middlewares/Third_Party/Huawei/iot_link/network/mqtt/paho_mqtt/paho/MQTTPacket/src\MQTTPacket.c **** 		if (frc == 0){
 341:D:/fchai/work/i-cube/I-CUBE-HUAWEI/Middlewares/Third_Party/Huawei/iot_link/network/mqtt/paho_mqtt/paho/MQTTPacket/src\MQTTPacket.c **** 			rc = 0;
 342:D:/fchai/work/i-cube/I-CUBE-HUAWEI/Middlewares/Third_Party/Huawei/iot_link/network/mqtt/paho_mqtt/paho/MQTTPacket/src\MQTTPacket.c **** 			goto exit;
 343:D:/fchai/work/i-cube/I-CUBE-HUAWEI/Middlewares/Third_Party/Huawei/iot_link/network/mqtt/paho_mqtt/paho/MQTTPacket/src\MQTTPacket.c **** 		}
 344:D:/fchai/work/i-cube/I-CUBE-HUAWEI/Middlewares/Third_Party/Huawei/iot_link/network/mqtt/paho_mqtt/paho/MQTTPacket/src\MQTTPacket.c **** 		++(trp->len);
 345:D:/fchai/work/i-cube/I-CUBE-HUAWEI/Middlewares/Third_Party/Huawei/iot_link/network/mqtt/paho_mqtt/paho/MQTTPacket/src\MQTTPacket.c **** 		trp->rem_len += (c & 127) * trp->multiplier;
 346:D:/fchai/work/i-cube/I-CUBE-HUAWEI/Middlewares/Third_Party/Huawei/iot_link/network/mqtt/paho_mqtt/paho/MQTTPacket/src\MQTTPacket.c **** 		trp->multiplier *= 128;
 347:D:/fchai/work/i-cube/I-CUBE-HUAWEI/Middlewares/Third_Party/Huawei/iot_link/network/mqtt/paho_mqtt/paho/MQTTPacket/src\MQTTPacket.c **** 	} while ((c & 128) != 0);
 348:D:/fchai/work/i-cube/I-CUBE-HUAWEI/Middlewares/Third_Party/Huawei/iot_link/network/mqtt/paho_mqtt/paho/MQTTPacket/src\MQTTPacket.c **** 	rc = trp->len;
 349:D:/fchai/work/i-cube/I-CUBE-HUAWEI/Middlewares/Third_Party/Huawei/iot_link/network/mqtt/paho_mqtt/paho/MQTTPacket/src\MQTTPacket.c **** exit:
 350:D:/fchai/work/i-cube/I-CUBE-HUAWEI/Middlewares/Third_Party/Huawei/iot_link/network/mqtt/paho_mqtt/paho/MQTTPacket/src\MQTTPacket.c **** 	FUNC_EXIT_RC(rc);
 351:D:/fchai/work/i-cube/I-CUBE-HUAWEI/Middlewares/Third_Party/Huawei/iot_link/network/mqtt/paho_mqtt/paho/MQTTPacket/src\MQTTPacket.c **** 	return rc;
 352:D:/fchai/work/i-cube/I-CUBE-HUAWEI/Middlewares/Third_Party/Huawei/iot_link/network/mqtt/paho_mqtt/paho/MQTTPacket/src\MQTTPacket.c **** }
 353:D:/fchai/work/i-cube/I-CUBE-HUAWEI/Middlewares/Third_Party/Huawei/iot_link/network/mqtt/paho_mqtt/paho/MQTTPacket/src\MQTTPacket.c **** 
 354:D:/fchai/work/i-cube/I-CUBE-HUAWEI/Middlewares/Third_Party/Huawei/iot_link/network/mqtt/paho_mqtt/paho/MQTTPacket/src\MQTTPacket.c **** /**
 355:D:/fchai/work/i-cube/I-CUBE-HUAWEI/Middlewares/Third_Party/Huawei/iot_link/network/mqtt/paho_mqtt/paho/MQTTPacket/src\MQTTPacket.c ****  * Helper function to read packet data from some source into a buffer, non-blocking
 356:D:/fchai/work/i-cube/I-CUBE-HUAWEI/Middlewares/Third_Party/Huawei/iot_link/network/mqtt/paho_mqtt/paho/MQTTPacket/src\MQTTPacket.c ****  * @param buf the buffer into which the packet will be serialized
 357:D:/fchai/work/i-cube/I-CUBE-HUAWEI/Middlewares/Third_Party/Huawei/iot_link/network/mqtt/paho_mqtt/paho/MQTTPacket/src\MQTTPacket.c ****  * @param buflen the length in bytes of the supplied buffer
 358:D:/fchai/work/i-cube/I-CUBE-HUAWEI/Middlewares/Third_Party/Huawei/iot_link/network/mqtt/paho_mqtt/paho/MQTTPacket/src\MQTTPacket.c ****  * @param trp pointer to a transport structure holding what is needed to solve getting data from it
 359:D:/fchai/work/i-cube/I-CUBE-HUAWEI/Middlewares/Third_Party/Huawei/iot_link/network/mqtt/paho_mqtt/paho/MQTTPacket/src\MQTTPacket.c ****  * @return integer MQTT packet type, 0 for call again, or -1 on error
 360:D:/fchai/work/i-cube/I-CUBE-HUAWEI/Middlewares/Third_Party/Huawei/iot_link/network/mqtt/paho_mqtt/paho/MQTTPacket/src\MQTTPacket.c ****  * @note  the whole message must fit into the caller's buffer
 361:D:/fchai/work/i-cube/I-CUBE-HUAWEI/Middlewares/Third_Party/Huawei/iot_link/network/mqtt/paho_mqtt/paho/MQTTPacket/src\MQTTPacket.c ****  */
 362:D:/fchai/work/i-cube/I-CUBE-HUAWEI/Middlewares/Third_Party/Huawei/iot_link/network/mqtt/paho_mqtt/paho/MQTTPacket/src\MQTTPacket.c **** int MQTTPacket_readnb(unsigned char* buf, int buflen, MQTTTransport *trp)
 363:D:/fchai/work/i-cube/I-CUBE-HUAWEI/Middlewares/Third_Party/Huawei/iot_link/network/mqtt/paho_mqtt/paho/MQTTPacket/src\MQTTPacket.c **** {
 1448              		.loc 1 363 1 is_stmt 1 view -0
 1449              		.cfi_startproc
 1450              		@ args = 0, pretend = 0, frame = 8
 1451              		@ frame_needed = 0, uses_anonymous_args = 0
 364:D:/fchai/work/i-cube/I-CUBE-HUAWEI/Middlewares/Third_Party/Huawei/iot_link/network/mqtt/paho_mqtt/paho/MQTTPacket/src\MQTTPacket.c **** 	int rc = -1, frc;
 1452              		.loc 1 364 2 view .LVU434
 365:D:/fchai/work/i-cube/I-CUBE-HUAWEI/Middlewares/Third_Party/Huawei/iot_link/network/mqtt/paho_mqtt/paho/MQTTPacket/src\MQTTPacket.c **** 	MQTTHeader header = {0};
 1453              		.loc 1 365 2 view .LVU435
 366:D:/fchai/work/i-cube/I-CUBE-HUAWEI/Middlewares/Third_Party/Huawei/iot_link/network/mqtt/paho_mqtt/paho/MQTTPacket/src\MQTTPacket.c **** 
ARM GAS  T:\msys\tmp\ccqTp987.s 			page 37


 367:D:/fchai/work/i-cube/I-CUBE-HUAWEI/Middlewares/Third_Party/Huawei/iot_link/network/mqtt/paho_mqtt/paho/MQTTPacket/src\MQTTPacket.c **** 	switch(trp->state){
 1454              		.loc 1 367 2 view .LVU436
 363:D:/fchai/work/i-cube/I-CUBE-HUAWEI/Middlewares/Third_Party/Huawei/iot_link/network/mqtt/paho_mqtt/paho/MQTTPacket/src\MQTTPacket.c **** 	int rc = -1, frc;
 1455              		.loc 1 363 1 is_stmt 0 view .LVU437
 1456 0000 F0B5     		push	{r4, r5, r6, r7, lr}
 1457              	.LCFI37:
 1458              		.cfi_def_cfa_offset 20
 1459              		.cfi_offset 4, -20
 1460              		.cfi_offset 5, -16
 1461              		.cfi_offset 6, -12
 1462              		.cfi_offset 7, -8
 1463              		.cfi_offset 14, -4
 1464              		.loc 1 367 12 view .LVU438
 1465 0002 137D     		ldrb	r3, [r2, #20]	@ zero_extendqisi2
 1466              		.loc 1 367 2 view .LVU439
 1467 0004 012B     		cmp	r3, #1
 363:D:/fchai/work/i-cube/I-CUBE-HUAWEI/Middlewares/Third_Party/Huawei/iot_link/network/mqtt/paho_mqtt/paho/MQTTPacket/src\MQTTPacket.c **** 	int rc = -1, frc;
 1468              		.loc 1 363 1 view .LVU440
 1469 0006 83B0     		sub	sp, sp, #12
 1470              	.LCFI38:
 1471              		.cfi_def_cfa_offset 32
 363:D:/fchai/work/i-cube/I-CUBE-HUAWEI/Middlewares/Third_Party/Huawei/iot_link/network/mqtt/paho_mqtt/paho/MQTTPacket/src\MQTTPacket.c **** 	int rc = -1, frc;
 1472              		.loc 1 363 1 view .LVU441
 1473 0008 1446     		mov	r4, r2
 1474 000a 0546     		mov	r5, r0
 1475 000c 0E46     		mov	r6, r1
 1476              		.loc 1 367 2 view .LVU442
 1477 000e 78D0     		beq	.L84
 1478 0010 022B     		cmp	r3, #2
 1479 0012 7AD0     		beq	.L85
 1480 0014 0BB1     		cbz	r3, .L86
 368:D:/fchai/work/i-cube/I-CUBE-HUAWEI/Middlewares/Third_Party/Huawei/iot_link/network/mqtt/paho_mqtt/paho/MQTTPacket/src\MQTTPacket.c **** 	default:
 369:D:/fchai/work/i-cube/I-CUBE-HUAWEI/Middlewares/Third_Party/Huawei/iot_link/network/mqtt/paho_mqtt/paho/MQTTPacket/src\MQTTPacket.c **** 		trp->state = 0;
 1481              		.loc 1 369 3 is_stmt 1 view .LVU443
 1482              		.loc 1 369 14 is_stmt 0 view .LVU444
 1483 0016 0023     		movs	r3, #0
 1484 0018 1375     		strb	r3, [r2, #20]
 1485              	.L86:
 370:D:/fchai/work/i-cube/I-CUBE-HUAWEI/Middlewares/Third_Party/Huawei/iot_link/network/mqtt/paho_mqtt/paho/MQTTPacket/src\MQTTPacket.c **** 		/*FALLTHROUGH*/
 371:D:/fchai/work/i-cube/I-CUBE-HUAWEI/Middlewares/Third_Party/Huawei/iot_link/network/mqtt/paho_mqtt/paho/MQTTPacket/src\MQTTPacket.c **** 	case 0:
 372:D:/fchai/work/i-cube/I-CUBE-HUAWEI/Middlewares/Third_Party/Huawei/iot_link/network/mqtt/paho_mqtt/paho/MQTTPacket/src\MQTTPacket.c **** 		/* read the header byte.  This has the packet type in it */
 373:D:/fchai/work/i-cube/I-CUBE-HUAWEI/Middlewares/Third_Party/Huawei/iot_link/network/mqtt/paho_mqtt/paho/MQTTPacket/src\MQTTPacket.c **** 		if ((frc=(*trp->getfn)(trp->sck, buf, 1)) == -1)
 1486              		.loc 1 373 3 is_stmt 1 view .LVU445
 1487              		.loc 1 373 13 is_stmt 0 view .LVU446
 1488 001a D4E90030 		ldrd	r3, r0, [r4]
 1489              	.LVL117:
 1490              		.loc 1 373 13 view .LVU447
 1491 001e 0122     		movs	r2, #1
 1492              	.LVL118:
 1493              		.loc 1 373 13 view .LVU448
 1494 0020 2946     		mov	r1, r5
 1495              	.LVL119:
 1496              		.loc 1 373 13 view .LVU449
 1497 0022 9847     		blx	r3
 1498              	.LVL120:
 1499              		.loc 1 373 6 view .LVU450
 1500 0024 431C     		adds	r3, r0, #1
ARM GAS  T:\msys\tmp\ccqTp987.s 			page 38


 1501 0026 27D0     		beq	.L95
 374:D:/fchai/work/i-cube/I-CUBE-HUAWEI/Middlewares/Third_Party/Huawei/iot_link/network/mqtt/paho_mqtt/paho/MQTTPacket/src\MQTTPacket.c **** 			goto exit;
 375:D:/fchai/work/i-cube/I-CUBE-HUAWEI/Middlewares/Third_Party/Huawei/iot_link/network/mqtt/paho_mqtt/paho/MQTTPacket/src\MQTTPacket.c **** 		if (frc == 0)
 1502              		.loc 1 375 3 is_stmt 1 view .LVU451
 1503              		.loc 1 375 6 is_stmt 0 view .LVU452
 1504 0028 0028     		cmp	r0, #0
 1505 002a 67D0     		beq	.L100
 376:D:/fchai/work/i-cube/I-CUBE-HUAWEI/Middlewares/Third_Party/Huawei/iot_link/network/mqtt/paho_mqtt/paho/MQTTPacket/src\MQTTPacket.c **** 			return 0;
 377:D:/fchai/work/i-cube/I-CUBE-HUAWEI/Middlewares/Third_Party/Huawei/iot_link/network/mqtt/paho_mqtt/paho/MQTTPacket/src\MQTTPacket.c **** 		trp->len = 0;
 1506              		.loc 1 377 3 is_stmt 1 view .LVU453
 378:D:/fchai/work/i-cube/I-CUBE-HUAWEI/Middlewares/Third_Party/Huawei/iot_link/network/mqtt/paho_mqtt/paho/MQTTPacket/src\MQTTPacket.c **** 		++trp->state;
 1507              		.loc 1 378 3 is_stmt 0 view .LVU454
 1508 002c 237D     		ldrb	r3, [r4, #20]	@ zero_extendqisi2
 377:D:/fchai/work/i-cube/I-CUBE-HUAWEI/Middlewares/Third_Party/Huawei/iot_link/network/mqtt/paho_mqtt/paho/MQTTPacket/src\MQTTPacket.c **** 		++trp->state;
 1509              		.loc 1 377 12 view .LVU455
 1510 002e 0022     		movs	r2, #0
 1511              		.loc 1 378 3 view .LVU456
 1512 0030 0133     		adds	r3, r3, #1
 1513 0032 2375     		strb	r3, [r4, #20]
 377:D:/fchai/work/i-cube/I-CUBE-HUAWEI/Middlewares/Third_Party/Huawei/iot_link/network/mqtt/paho_mqtt/paho/MQTTPacket/src\MQTTPacket.c **** 		++trp->state;
 1514              		.loc 1 377 12 view .LVU457
 1515 0034 2261     		str	r2, [r4, #16]
 1516              		.loc 1 378 3 is_stmt 1 view .LVU458
 379:D:/fchai/work/i-cube/I-CUBE-HUAWEI/Middlewares/Third_Party/Huawei/iot_link/network/mqtt/paho_mqtt/paho/MQTTPacket/src\MQTTPacket.c **** 		/*FALLTHROUGH*/
 380:D:/fchai/work/i-cube/I-CUBE-HUAWEI/Middlewares/Third_Party/Huawei/iot_link/network/mqtt/paho_mqtt/paho/MQTTPacket/src\MQTTPacket.c **** 		/* read the remaining length.  This is variable in itself */
 381:D:/fchai/work/i-cube/I-CUBE-HUAWEI/Middlewares/Third_Party/Huawei/iot_link/network/mqtt/paho_mqtt/paho/MQTTPacket/src\MQTTPacket.c **** 	case 1:
 382:D:/fchai/work/i-cube/I-CUBE-HUAWEI/Middlewares/Third_Party/Huawei/iot_link/network/mqtt/paho_mqtt/paho/MQTTPacket/src\MQTTPacket.c **** 		if((frc=MQTTPacket_decodenb(trp)) == MQTTPACKET_READ_ERROR)
 1517              		.loc 1 382 3 view .LVU459
 1518              	.LVL121:
 1519              	.LBB63:
 1520              	.LBI63:
 324:D:/fchai/work/i-cube/I-CUBE-HUAWEI/Middlewares/Third_Party/Huawei/iot_link/network/mqtt/paho_mqtt/paho/MQTTPacket/src\MQTTPacket.c **** {
 1521              		.loc 1 324 12 view .LVU460
 1522              	.LBB64:
 326:D:/fchai/work/i-cube/I-CUBE-HUAWEI/Middlewares/Third_Party/Huawei/iot_link/network/mqtt/paho_mqtt/paho/MQTTPacket/src\MQTTPacket.c **** 	int rc = MQTTPACKET_READ_ERROR;
 1523              		.loc 1 326 2 view .LVU461
 327:D:/fchai/work/i-cube/I-CUBE-HUAWEI/Middlewares/Third_Party/Huawei/iot_link/network/mqtt/paho_mqtt/paho/MQTTPacket/src\MQTTPacket.c **** 
 1524              		.loc 1 327 2 view .LVU462
 329:D:/fchai/work/i-cube/I-CUBE-HUAWEI/Middlewares/Third_Party/Huawei/iot_link/network/mqtt/paho_mqtt/paho/MQTTPacket/src\MQTTPacket.c **** 	if(trp->len == 0){		/* initialize on first call */
 1525              		.loc 1 329 12 view .LVU463
 330:D:/fchai/work/i-cube/I-CUBE-HUAWEI/Middlewares/Third_Party/Huawei/iot_link/network/mqtt/paho_mqtt/paho/MQTTPacket/src\MQTTPacket.c **** 		trp->multiplier = 1;
 1526              		.loc 1 330 2 view .LVU464
 1527              	.L93:
 331:D:/fchai/work/i-cube/I-CUBE-HUAWEI/Middlewares/Third_Party/Huawei/iot_link/network/mqtt/paho_mqtt/paho/MQTTPacket/src\MQTTPacket.c **** 		trp->rem_len = 0;
 1528              		.loc 1 331 3 view .LVU465
 332:D:/fchai/work/i-cube/I-CUBE-HUAWEI/Middlewares/Third_Party/Huawei/iot_link/network/mqtt/paho_mqtt/paho/MQTTPacket/src\MQTTPacket.c **** 	}
 1529              		.loc 1 332 16 is_stmt 0 view .LVU466
 1530 0036 0123     		movs	r3, #1
 1531 0038 0020     		movs	r0, #0
 1532 003a C4E90230 		strd	r3, r0, [r4, #8]
 1533 003e 15E0     		b	.L97
 1534              	.L134:
 1535              	.LBB65:
 338:D:/fchai/work/i-cube/I-CUBE-HUAWEI/Middlewares/Third_Party/Huawei/iot_link/network/mqtt/paho_mqtt/paho/MQTTPacket/src\MQTTPacket.c **** 			goto exit;
 1536              		.loc 1 338 13 view .LVU467
 1537 0040 D4E90030 		ldrd	r3, r0, [r4]
 1538 0044 9847     		blx	r3
ARM GAS  T:\msys\tmp\ccqTp987.s 			page 39


 1539              	.LVL122:
 340:D:/fchai/work/i-cube/I-CUBE-HUAWEI/Middlewares/Third_Party/Huawei/iot_link/network/mqtt/paho_mqtt/paho/MQTTPacket/src\MQTTPacket.c **** 			rc = 0;
 1540              		.loc 1 340 3 is_stmt 1 view .LVU468
 344:D:/fchai/work/i-cube/I-CUBE-HUAWEI/Middlewares/Third_Party/Huawei/iot_link/network/mqtt/paho_mqtt/paho/MQTTPacket/src\MQTTPacket.c **** 		trp->rem_len += (c & 127) * trp->multiplier;
 1541              		.loc 1 344 3 view .LVU469
 338:D:/fchai/work/i-cube/I-CUBE-HUAWEI/Middlewares/Third_Party/Huawei/iot_link/network/mqtt/paho_mqtt/paho/MQTTPacket/src\MQTTPacket.c **** 			goto exit;
 1542              		.loc 1 338 6 is_stmt 0 view .LVU470
 1543 0046 471C     		adds	r7, r0, #1
 1544 0048 16D0     		beq	.L95
 340:D:/fchai/work/i-cube/I-CUBE-HUAWEI/Middlewares/Third_Party/Huawei/iot_link/network/mqtt/paho_mqtt/paho/MQTTPacket/src\MQTTPacket.c **** 			rc = 0;
 1545              		.loc 1 340 6 view .LVU471
 1546 004a C8B1     		cbz	r0, .L83
 345:D:/fchai/work/i-cube/I-CUBE-HUAWEI/Middlewares/Third_Party/Huawei/iot_link/network/mqtt/paho_mqtt/paho/MQTTPacket/src\MQTTPacket.c **** 		trp->multiplier *= 128;
 1547              		.loc 1 345 16 view .LVU472
 1548 004c D4E90227 		ldrd	r2, r7, [r4, #8]
 345:D:/fchai/work/i-cube/I-CUBE-HUAWEI/Middlewares/Third_Party/Huawei/iot_link/network/mqtt/paho_mqtt/paho/MQTTPacket/src\MQTTPacket.c **** 		trp->multiplier *= 128;
 1549              		.loc 1 345 22 view .LVU473
 1550 0050 9DF80710 		ldrb	r1, [sp, #7]	@ zero_extendqisi2
 344:D:/fchai/work/i-cube/I-CUBE-HUAWEI/Middlewares/Third_Party/Huawei/iot_link/network/mqtt/paho_mqtt/paho/MQTTPacket/src\MQTTPacket.c **** 		trp->rem_len += (c & 127) * trp->multiplier;
 1551              		.loc 1 344 3 view .LVU474
 1552 0054 2069     		ldr	r0, [r4, #16]
 1553              	.LVL123:
 345:D:/fchai/work/i-cube/I-CUBE-HUAWEI/Middlewares/Third_Party/Huawei/iot_link/network/mqtt/paho_mqtt/paho/MQTTPacket/src\MQTTPacket.c **** 		trp->multiplier *= 128;
 1554              		.loc 1 345 22 view .LVU475
 1555 0056 01F07F03 		and	r3, r1, #127
 345:D:/fchai/work/i-cube/I-CUBE-HUAWEI/Middlewares/Third_Party/Huawei/iot_link/network/mqtt/paho_mqtt/paho/MQTTPacket/src\MQTTPacket.c **** 		trp->multiplier *= 128;
 1556              		.loc 1 345 16 view .LVU476
 1557 005a 02FB0373 		mla	r3, r2, r3, r7
 344:D:/fchai/work/i-cube/I-CUBE-HUAWEI/Middlewares/Third_Party/Huawei/iot_link/network/mqtt/paho_mqtt/paho/MQTTPacket/src\MQTTPacket.c **** 		trp->rem_len += (c & 127) * trp->multiplier;
 1558              		.loc 1 344 3 view .LVU477
 1559 005e 0130     		adds	r0, r0, #1
 346:D:/fchai/work/i-cube/I-CUBE-HUAWEI/Middlewares/Third_Party/Huawei/iot_link/network/mqtt/paho_mqtt/paho/MQTTPacket/src\MQTTPacket.c **** 	} while ((c & 128) != 0);
 1560              		.loc 1 346 19 view .LVU478
 1561 0060 D201     		lsls	r2, r2, #7
 1562              	.LBE65:
 347:D:/fchai/work/i-cube/I-CUBE-HUAWEI/Middlewares/Third_Party/Huawei/iot_link/network/mqtt/paho_mqtt/paho/MQTTPacket/src\MQTTPacket.c **** 	rc = trp->len;
 1563              		.loc 1 347 2 view .LVU479
 1564 0062 0906     		lsls	r1, r1, #24
 1565              	.LBB66:
 346:D:/fchai/work/i-cube/I-CUBE-HUAWEI/Middlewares/Third_Party/Huawei/iot_link/network/mqtt/paho_mqtt/paho/MQTTPacket/src\MQTTPacket.c **** 	} while ((c & 128) != 0);
 1566              		.loc 1 346 19 view .LVU480
 1567 0064 C4E90223 		strd	r2, r3, [r4, #8]
 344:D:/fchai/work/i-cube/I-CUBE-HUAWEI/Middlewares/Third_Party/Huawei/iot_link/network/mqtt/paho_mqtt/paho/MQTTPacket/src\MQTTPacket.c **** 		trp->rem_len += (c & 127) * trp->multiplier;
 1568              		.loc 1 344 3 view .LVU481
 1569 0068 2061     		str	r0, [r4, #16]
 345:D:/fchai/work/i-cube/I-CUBE-HUAWEI/Middlewares/Third_Party/Huawei/iot_link/network/mqtt/paho_mqtt/paho/MQTTPacket/src\MQTTPacket.c **** 		trp->multiplier *= 128;
 1570              		.loc 1 345 3 is_stmt 1 view .LVU482
 346:D:/fchai/work/i-cube/I-CUBE-HUAWEI/Middlewares/Third_Party/Huawei/iot_link/network/mqtt/paho_mqtt/paho/MQTTPacket/src\MQTTPacket.c **** 	} while ((c & 128) != 0);
 1571              		.loc 1 346 3 view .LVU483
 1572              	.LBE66:
 347:D:/fchai/work/i-cube/I-CUBE-HUAWEI/Middlewares/Third_Party/Huawei/iot_link/network/mqtt/paho_mqtt/paho/MQTTPacket/src\MQTTPacket.c **** 	rc = trp->len;
 1573              		.loc 1 347 10 view .LVU484
 347:D:/fchai/work/i-cube/I-CUBE-HUAWEI/Middlewares/Third_Party/Huawei/iot_link/network/mqtt/paho_mqtt/paho/MQTTPacket/src\MQTTPacket.c **** 	rc = trp->len;
 1574              		.loc 1 347 2 is_stmt 0 view .LVU485
 1575 006a 0BD5     		bpl	.L133
 1576              	.L97:
 334:D:/fchai/work/i-cube/I-CUBE-HUAWEI/Middlewares/Third_Party/Huawei/iot_link/network/mqtt/paho_mqtt/paho/MQTTPacket/src\MQTTPacket.c **** 		int frc;
ARM GAS  T:\msys\tmp\ccqTp987.s 			page 40


 1577              		.loc 1 334 2 is_stmt 1 view .LVU486
 1578              	.LBB67:
 335:D:/fchai/work/i-cube/I-CUBE-HUAWEI/Middlewares/Third_Party/Huawei/iot_link/network/mqtt/paho_mqtt/paho/MQTTPacket/src\MQTTPacket.c **** 		if (trp->len >= MAX_NO_OF_REMAINING_LENGTH_BYTES)
 1579              		.loc 1 335 3 view .LVU487
 336:D:/fchai/work/i-cube/I-CUBE-HUAWEI/Middlewares/Third_Party/Huawei/iot_link/network/mqtt/paho_mqtt/paho/MQTTPacket/src\MQTTPacket.c **** 			goto exit;
 1580              		.loc 1 336 3 view .LVU488
 338:D:/fchai/work/i-cube/I-CUBE-HUAWEI/Middlewares/Third_Party/Huawei/iot_link/network/mqtt/paho_mqtt/paho/MQTTPacket/src\MQTTPacket.c **** 			goto exit;
 1581              		.loc 1 338 3 view .LVU489
 336:D:/fchai/work/i-cube/I-CUBE-HUAWEI/Middlewares/Third_Party/Huawei/iot_link/network/mqtt/paho_mqtt/paho/MQTTPacket/src\MQTTPacket.c **** 			goto exit;
 1582              		.loc 1 336 6 is_stmt 0 view .LVU490
 1583 006c 0328     		cmp	r0, #3
 338:D:/fchai/work/i-cube/I-CUBE-HUAWEI/Middlewares/Third_Party/Huawei/iot_link/network/mqtt/paho_mqtt/paho/MQTTPacket/src\MQTTPacket.c **** 			goto exit;
 1584              		.loc 1 338 13 view .LVU491
 1585 006e 4FF00102 		mov	r2, #1
 1586 0072 0DF10701 		add	r1, sp, #7
 336:D:/fchai/work/i-cube/I-CUBE-HUAWEI/Middlewares/Third_Party/Huawei/iot_link/network/mqtt/paho_mqtt/paho/MQTTPacket/src\MQTTPacket.c **** 			goto exit;
 1587              		.loc 1 336 6 view .LVU492
 1588 0076 E3DD     		ble	.L134
 1589              	.LVL124:
 1590              	.L95:
 336:D:/fchai/work/i-cube/I-CUBE-HUAWEI/Middlewares/Third_Party/Huawei/iot_link/network/mqtt/paho_mqtt/paho/MQTTPacket/src\MQTTPacket.c **** 			goto exit;
 1591              		.loc 1 336 6 view .LVU493
 1592              	.LBE67:
 350:D:/fchai/work/i-cube/I-CUBE-HUAWEI/Middlewares/Third_Party/Huawei/iot_link/network/mqtt/paho_mqtt/paho/MQTTPacket/src\MQTTPacket.c **** 	return rc;
 1593              		.loc 1 350 18 is_stmt 1 view .LVU494
 351:D:/fchai/work/i-cube/I-CUBE-HUAWEI/Middlewares/Third_Party/Huawei/iot_link/network/mqtt/paho_mqtt/paho/MQTTPacket/src\MQTTPacket.c **** }
 1594              		.loc 1 351 2 view .LVU495
 351:D:/fchai/work/i-cube/I-CUBE-HUAWEI/Middlewares/Third_Party/Huawei/iot_link/network/mqtt/paho_mqtt/paho/MQTTPacket/src\MQTTPacket.c **** }
 1595              		.loc 1 351 2 is_stmt 0 view .LVU496
 1596              	.LBE64:
 1597              	.LBE63:
 364:D:/fchai/work/i-cube/I-CUBE-HUAWEI/Middlewares/Third_Party/Huawei/iot_link/network/mqtt/paho_mqtt/paho/MQTTPacket/src\MQTTPacket.c **** 	MQTTHeader header = {0};
 1598              		.loc 1 364 6 view .LVU497
 1599 0078 4FF0FF30 		mov	r0, #-1
 1600              	.LVL125:
 1601              	.L90:
 383:D:/fchai/work/i-cube/I-CUBE-HUAWEI/Middlewares/Third_Party/Huawei/iot_link/network/mqtt/paho_mqtt/paho/MQTTPacket/src\MQTTPacket.c **** 			goto exit;
 384:D:/fchai/work/i-cube/I-CUBE-HUAWEI/Middlewares/Third_Party/Huawei/iot_link/network/mqtt/paho_mqtt/paho/MQTTPacket/src\MQTTPacket.c **** 		if(frc == 0)
 385:D:/fchai/work/i-cube/I-CUBE-HUAWEI/Middlewares/Third_Party/Huawei/iot_link/network/mqtt/paho_mqtt/paho/MQTTPacket/src\MQTTPacket.c **** 			return 0;
 386:D:/fchai/work/i-cube/I-CUBE-HUAWEI/Middlewares/Third_Party/Huawei/iot_link/network/mqtt/paho_mqtt/paho/MQTTPacket/src\MQTTPacket.c **** 		trp->len = 1 + MQTTPacket_encode(buf + 1, trp->rem_len); /* put the original remaining length bac
 387:D:/fchai/work/i-cube/I-CUBE-HUAWEI/Middlewares/Third_Party/Huawei/iot_link/network/mqtt/paho_mqtt/paho/MQTTPacket/src\MQTTPacket.c **** 		if((trp->rem_len + trp->len) > buflen)
 388:D:/fchai/work/i-cube/I-CUBE-HUAWEI/Middlewares/Third_Party/Huawei/iot_link/network/mqtt/paho_mqtt/paho/MQTTPacket/src\MQTTPacket.c **** 			goto exit;
 389:D:/fchai/work/i-cube/I-CUBE-HUAWEI/Middlewares/Third_Party/Huawei/iot_link/network/mqtt/paho_mqtt/paho/MQTTPacket/src\MQTTPacket.c **** 		++trp->state;
 390:D:/fchai/work/i-cube/I-CUBE-HUAWEI/Middlewares/Third_Party/Huawei/iot_link/network/mqtt/paho_mqtt/paho/MQTTPacket/src\MQTTPacket.c **** 		/*FALLTHROUGH*/
 391:D:/fchai/work/i-cube/I-CUBE-HUAWEI/Middlewares/Third_Party/Huawei/iot_link/network/mqtt/paho_mqtt/paho/MQTTPacket/src\MQTTPacket.c **** 	case 2:
 392:D:/fchai/work/i-cube/I-CUBE-HUAWEI/Middlewares/Third_Party/Huawei/iot_link/network/mqtt/paho_mqtt/paho/MQTTPacket/src\MQTTPacket.c **** 		if(trp->rem_len){
 393:D:/fchai/work/i-cube/I-CUBE-HUAWEI/Middlewares/Third_Party/Huawei/iot_link/network/mqtt/paho_mqtt/paho/MQTTPacket/src\MQTTPacket.c **** 			/* read the rest of the buffer using a callback to supply the rest of the data */
 394:D:/fchai/work/i-cube/I-CUBE-HUAWEI/Middlewares/Third_Party/Huawei/iot_link/network/mqtt/paho_mqtt/paho/MQTTPacket/src\MQTTPacket.c **** 			if ((frc=(*trp->getfn)(trp->sck, buf + trp->len, trp->rem_len)) == -1)
 395:D:/fchai/work/i-cube/I-CUBE-HUAWEI/Middlewares/Third_Party/Huawei/iot_link/network/mqtt/paho_mqtt/paho/MQTTPacket/src\MQTTPacket.c **** 				goto exit;
 396:D:/fchai/work/i-cube/I-CUBE-HUAWEI/Middlewares/Third_Party/Huawei/iot_link/network/mqtt/paho_mqtt/paho/MQTTPacket/src\MQTTPacket.c **** 			if (frc == 0)
 397:D:/fchai/work/i-cube/I-CUBE-HUAWEI/Middlewares/Third_Party/Huawei/iot_link/network/mqtt/paho_mqtt/paho/MQTTPacket/src\MQTTPacket.c **** 				return 0;
 398:D:/fchai/work/i-cube/I-CUBE-HUAWEI/Middlewares/Third_Party/Huawei/iot_link/network/mqtt/paho_mqtt/paho/MQTTPacket/src\MQTTPacket.c **** 			trp->rem_len -= frc;
 399:D:/fchai/work/i-cube/I-CUBE-HUAWEI/Middlewares/Third_Party/Huawei/iot_link/network/mqtt/paho_mqtt/paho/MQTTPacket/src\MQTTPacket.c **** 			trp->len += frc;
 400:D:/fchai/work/i-cube/I-CUBE-HUAWEI/Middlewares/Third_Party/Huawei/iot_link/network/mqtt/paho_mqtt/paho/MQTTPacket/src\MQTTPacket.c **** 			if(trp->rem_len)
 401:D:/fchai/work/i-cube/I-CUBE-HUAWEI/Middlewares/Third_Party/Huawei/iot_link/network/mqtt/paho_mqtt/paho/MQTTPacket/src\MQTTPacket.c **** 				return 0;
 402:D:/fchai/work/i-cube/I-CUBE-HUAWEI/Middlewares/Third_Party/Huawei/iot_link/network/mqtt/paho_mqtt/paho/MQTTPacket/src\MQTTPacket.c **** 		}
 403:D:/fchai/work/i-cube/I-CUBE-HUAWEI/Middlewares/Third_Party/Huawei/iot_link/network/mqtt/paho_mqtt/paho/MQTTPacket/src\MQTTPacket.c **** 		header.byte = buf[0];
ARM GAS  T:\msys\tmp\ccqTp987.s 			page 41


 404:D:/fchai/work/i-cube/I-CUBE-HUAWEI/Middlewares/Third_Party/Huawei/iot_link/network/mqtt/paho_mqtt/paho/MQTTPacket/src\MQTTPacket.c **** 		rc = header.bits.type;
 405:D:/fchai/work/i-cube/I-CUBE-HUAWEI/Middlewares/Third_Party/Huawei/iot_link/network/mqtt/paho_mqtt/paho/MQTTPacket/src\MQTTPacket.c **** 		break;
 406:D:/fchai/work/i-cube/I-CUBE-HUAWEI/Middlewares/Third_Party/Huawei/iot_link/network/mqtt/paho_mqtt/paho/MQTTPacket/src\MQTTPacket.c **** 	}
 407:D:/fchai/work/i-cube/I-CUBE-HUAWEI/Middlewares/Third_Party/Huawei/iot_link/network/mqtt/paho_mqtt/paho/MQTTPacket/src\MQTTPacket.c **** 
 408:D:/fchai/work/i-cube/I-CUBE-HUAWEI/Middlewares/Third_Party/Huawei/iot_link/network/mqtt/paho_mqtt/paho/MQTTPacket/src\MQTTPacket.c **** exit:
 409:D:/fchai/work/i-cube/I-CUBE-HUAWEI/Middlewares/Third_Party/Huawei/iot_link/network/mqtt/paho_mqtt/paho/MQTTPacket/src\MQTTPacket.c **** 	trp->state = 0;
 1602              		.loc 1 409 2 is_stmt 1 view .LVU498
 1603              		.loc 1 409 13 is_stmt 0 view .LVU499
 1604 007c 0023     		movs	r3, #0
 1605 007e 2375     		strb	r3, [r4, #20]
 410:D:/fchai/work/i-cube/I-CUBE-HUAWEI/Middlewares/Third_Party/Huawei/iot_link/network/mqtt/paho_mqtt/paho/MQTTPacket/src\MQTTPacket.c **** 	return rc;
 1606              		.loc 1 410 2 is_stmt 1 view .LVU500
 1607              	.LVL126:
 1608              	.L83:
 411:D:/fchai/work/i-cube/I-CUBE-HUAWEI/Middlewares/Third_Party/Huawei/iot_link/network/mqtt/paho_mqtt/paho/MQTTPacket/src\MQTTPacket.c **** }
 1609              		.loc 1 411 1 is_stmt 0 view .LVU501
 1610 0080 03B0     		add	sp, sp, #12
 1611              	.LCFI39:
 1612              		.cfi_remember_state
 1613              		.cfi_def_cfa_offset 20
 1614              		@ sp needed
 1615 0082 F0BD     		pop	{r4, r5, r6, r7, pc}
 1616              	.LVL127:
 1617              	.L133:
 1618              	.LCFI40:
 1619              		.cfi_restore_state
 1620              	.L98:
 1621              	.LBB70:
 1622              	.LBB68:
 350:D:/fchai/work/i-cube/I-CUBE-HUAWEI/Middlewares/Third_Party/Huawei/iot_link/network/mqtt/paho_mqtt/paho/MQTTPacket/src\MQTTPacket.c **** 	return rc;
 1623              		.loc 1 350 18 is_stmt 1 view .LVU502
 351:D:/fchai/work/i-cube/I-CUBE-HUAWEI/Middlewares/Third_Party/Huawei/iot_link/network/mqtt/paho_mqtt/paho/MQTTPacket/src\MQTTPacket.c **** }
 1624              		.loc 1 351 2 view .LVU503
 351:D:/fchai/work/i-cube/I-CUBE-HUAWEI/Middlewares/Third_Party/Huawei/iot_link/network/mqtt/paho_mqtt/paho/MQTTPacket/src\MQTTPacket.c **** }
 1625              		.loc 1 351 2 is_stmt 0 view .LVU504
 1626              	.LBE68:
 1627              	.LBE70:
 382:D:/fchai/work/i-cube/I-CUBE-HUAWEI/Middlewares/Third_Party/Huawei/iot_link/network/mqtt/paho_mqtt/paho/MQTTPacket/src\MQTTPacket.c **** 			goto exit;
 1628              		.loc 1 382 5 view .LVU505
 1629 0084 421C     		adds	r2, r0, #1
 1630 0086 F7D0     		beq	.L95
 384:D:/fchai/work/i-cube/I-CUBE-HUAWEI/Middlewares/Third_Party/Huawei/iot_link/network/mqtt/paho_mqtt/paho/MQTTPacket/src\MQTTPacket.c **** 			return 0;
 1631              		.loc 1 384 3 is_stmt 1 view .LVU506
 384:D:/fchai/work/i-cube/I-CUBE-HUAWEI/Middlewares/Third_Party/Huawei/iot_link/network/mqtt/paho_mqtt/paho/MQTTPacket/src\MQTTPacket.c **** 			return 0;
 1632              		.loc 1 384 5 is_stmt 0 view .LVU507
 1633 0088 0028     		cmp	r0, #0
 1634 008a 37D0     		beq	.L100
 386:D:/fchai/work/i-cube/I-CUBE-HUAWEI/Middlewares/Third_Party/Huawei/iot_link/network/mqtt/paho_mqtt/paho/MQTTPacket/src\MQTTPacket.c **** 		if((trp->rem_len + trp->len) > buflen)
 1635              		.loc 1 386 3 is_stmt 1 view .LVU508
 1636              	.LVL128:
 1637              	.LBB71:
 1638              	.LBI71:
  29:D:/fchai/work/i-cube/I-CUBE-HUAWEI/Middlewares/Third_Party/Huawei/iot_link/network/mqtt/paho_mqtt/paho/MQTTPacket/src\MQTTPacket.c **** {
 1639              		.loc 1 29 5 view .LVU509
 1640              	.LBB72:
  31:D:/fchai/work/i-cube/I-CUBE-HUAWEI/Middlewares/Third_Party/Huawei/iot_link/network/mqtt/paho_mqtt/paho/MQTTPacket/src\MQTTPacket.c **** 
 1641              		.loc 1 31 2 view .LVU510
ARM GAS  T:\msys\tmp\ccqTp987.s 			page 42


  33:D:/fchai/work/i-cube/I-CUBE-HUAWEI/Middlewares/Third_Party/Huawei/iot_link/network/mqtt/paho_mqtt/paho/MQTTPacket/src\MQTTPacket.c **** 	do
 1642              		.loc 1 33 12 view .LVU511
  34:D:/fchai/work/i-cube/I-CUBE-HUAWEI/Middlewares/Third_Party/Huawei/iot_link/network/mqtt/paho_mqtt/paho/MQTTPacket/src\MQTTPacket.c **** 	{
 1643              		.loc 1 34 2 view .LVU512
 1644              	.LBB73:
  36:D:/fchai/work/i-cube/I-CUBE-HUAWEI/Middlewares/Third_Party/Huawei/iot_link/network/mqtt/paho_mqtt/paho/MQTTPacket/src\MQTTPacket.c **** 		length /= 128;
 1645              		.loc 1 36 3 view .LVU513
  36:D:/fchai/work/i-cube/I-CUBE-HUAWEI/Middlewares/Third_Party/Huawei/iot_link/network/mqtt/paho_mqtt/paho/MQTTPacket/src\MQTTPacket.c **** 		length /= 128;
 1646              		.loc 1 36 19 is_stmt 0 view .LVU514
 1647 008c 5A42     		rsbs	r2, r3, #0
 1648 008e 02F07F02 		and	r2, r2, #127
 1649 0092 03F07F00 		and	r0, r3, #127
 1650              	.LVL129:
  36:D:/fchai/work/i-cube/I-CUBE-HUAWEI/Middlewares/Third_Party/Huawei/iot_link/network/mqtt/paho_mqtt/paho/MQTTPacket/src\MQTTPacket.c **** 		length /= 128;
 1651              		.loc 1 36 19 view .LVU515
 1652 0096 58BF     		it	pl
 1653 0098 5042     		rsbpl	r0, r2, #0
  39:D:/fchai/work/i-cube/I-CUBE-HUAWEI/Middlewares/Third_Party/Huawei/iot_link/network/mqtt/paho_mqtt/paho/MQTTPacket/src\MQTTPacket.c **** 			d |= 0x80;
 1654              		.loc 1 39 6 view .LVU516
 1655 009a 7F2B     		cmp	r3, #127
  36:D:/fchai/work/i-cube/I-CUBE-HUAWEI/Middlewares/Third_Party/Huawei/iot_link/network/mqtt/paho_mqtt/paho/MQTTPacket/src\MQTTPacket.c **** 		length /= 128;
 1656              		.loc 1 36 8 view .LVU517
 1657 009c C0B2     		uxtb	r0, r0
 1658              	.LVL130:
  37:D:/fchai/work/i-cube/I-CUBE-HUAWEI/Middlewares/Third_Party/Huawei/iot_link/network/mqtt/paho_mqtt/paho/MQTTPacket/src\MQTTPacket.c **** 		/* if there are more digits to encode, set the top bit of this digit */
 1659              		.loc 1 37 3 is_stmt 1 view .LVU518
  39:D:/fchai/work/i-cube/I-CUBE-HUAWEI/Middlewares/Third_Party/Huawei/iot_link/network/mqtt/paho_mqtt/paho/MQTTPacket/src\MQTTPacket.c **** 			d |= 0x80;
 1660              		.loc 1 39 3 view .LVU519
  39:D:/fchai/work/i-cube/I-CUBE-HUAWEI/Middlewares/Third_Party/Huawei/iot_link/network/mqtt/paho_mqtt/paho/MQTTPacket/src\MQTTPacket.c **** 			d |= 0x80;
 1661              		.loc 1 39 6 is_stmt 0 view .LVU520
 1662 009e 12DD     		ble	.L106
  37:D:/fchai/work/i-cube/I-CUBE-HUAWEI/Middlewares/Third_Party/Huawei/iot_link/network/mqtt/paho_mqtt/paho/MQTTPacket/src\MQTTPacket.c **** 		/* if there are more digits to encode, set the top bit of this digit */
 1663              		.loc 1 37 10 view .LVU521
 1664 00a0 DB11     		asrs	r3, r3, #7
 1665              	.LVL131:
  37:D:/fchai/work/i-cube/I-CUBE-HUAWEI/Middlewares/Third_Party/Huawei/iot_link/network/mqtt/paho_mqtt/paho/MQTTPacket/src\MQTTPacket.c **** 		/* if there are more digits to encode, set the top bit of this digit */
 1666              		.loc 1 37 10 view .LVU522
 1667 00a2 2946     		mov	r1, r5
 1668 00a4 C5F1010E 		rsb	lr, r5, #1
 1669              	.LVL132:
 1670              	.L102:
  40:D:/fchai/work/i-cube/I-CUBE-HUAWEI/Middlewares/Third_Party/Huawei/iot_link/network/mqtt/paho_mqtt/paho/MQTTPacket/src\MQTTPacket.c **** 		buf[rc++] = d;
 1671              		.loc 1 40 4 is_stmt 1 view .LVU523
  41:D:/fchai/work/i-cube/I-CUBE-HUAWEI/Middlewares/Third_Party/Huawei/iot_link/network/mqtt/paho_mqtt/paho/MQTTPacket/src\MQTTPacket.c **** 	} while (length > 0);
 1672              		.loc 1 41 3 view .LVU524
  40:D:/fchai/work/i-cube/I-CUBE-HUAWEI/Middlewares/Third_Party/Huawei/iot_link/network/mqtt/paho_mqtt/paho/MQTTPacket/src\MQTTPacket.c **** 		buf[rc++] = d;
 1673              		.loc 1 40 6 is_stmt 0 view .LVU525
 1674 00a8 60F07F0C 		orn	ip, r0, #127
  39:D:/fchai/work/i-cube/I-CUBE-HUAWEI/Middlewares/Third_Party/Huawei/iot_link/network/mqtt/paho_mqtt/paho/MQTTPacket/src\MQTTPacket.c **** 			d |= 0x80;
 1675              		.loc 1 39 6 view .LVU526
 1676 00ac 7F2B     		cmp	r3, #127
 1677 00ae 0EEB0107 		add	r7, lr, r1
 1678              	.LVL133:
  36:D:/fchai/work/i-cube/I-CUBE-HUAWEI/Middlewares/Third_Party/Huawei/iot_link/network/mqtt/paho_mqtt/paho/MQTTPacket/src\MQTTPacket.c **** 		length /= 128;
 1679              		.loc 1 36 8 view .LVU527
 1680 00b2 03F07F00 		and	r0, r3, #127
 1681              	.LVL134:
ARM GAS  T:\msys\tmp\ccqTp987.s 			page 43


  41:D:/fchai/work/i-cube/I-CUBE-HUAWEI/Middlewares/Third_Party/Huawei/iot_link/network/mqtt/paho_mqtt/paho/MQTTPacket/src\MQTTPacket.c **** 	} while (length > 0);
 1682              		.loc 1 41 13 view .LVU528
 1683 00b6 01F801CF 		strb	ip, [r1, #1]!
 1684              	.LBE73:
  42:D:/fchai/work/i-cube/I-CUBE-HUAWEI/Middlewares/Third_Party/Huawei/iot_link/network/mqtt/paho_mqtt/paho/MQTTPacket/src\MQTTPacket.c **** 	FUNC_EXIT_RC(rc);
 1685              		.loc 1 42 10 is_stmt 1 view .LVU529
  33:D:/fchai/work/i-cube/I-CUBE-HUAWEI/Middlewares/Third_Party/Huawei/iot_link/network/mqtt/paho_mqtt/paho/MQTTPacket/src\MQTTPacket.c **** 	do
 1686              		.loc 1 33 12 view .LVU530
  34:D:/fchai/work/i-cube/I-CUBE-HUAWEI/Middlewares/Third_Party/Huawei/iot_link/network/mqtt/paho_mqtt/paho/MQTTPacket/src\MQTTPacket.c **** 	{
 1687              		.loc 1 34 2 view .LVU531
 1688              	.LBB74:
  36:D:/fchai/work/i-cube/I-CUBE-HUAWEI/Middlewares/Third_Party/Huawei/iot_link/network/mqtt/paho_mqtt/paho/MQTTPacket/src\MQTTPacket.c **** 		length /= 128;
 1689              		.loc 1 36 3 view .LVU532
 1690              	.LVL135:
  37:D:/fchai/work/i-cube/I-CUBE-HUAWEI/Middlewares/Third_Party/Huawei/iot_link/network/mqtt/paho_mqtt/paho/MQTTPacket/src\MQTTPacket.c **** 		/* if there are more digits to encode, set the top bit of this digit */
 1691              		.loc 1 37 3 view .LVU533
  39:D:/fchai/work/i-cube/I-CUBE-HUAWEI/Middlewares/Third_Party/Huawei/iot_link/network/mqtt/paho_mqtt/paho/MQTTPacket/src\MQTTPacket.c **** 			d |= 0x80;
 1692              		.loc 1 39 3 view .LVU534
  39:D:/fchai/work/i-cube/I-CUBE-HUAWEI/Middlewares/Third_Party/Huawei/iot_link/network/mqtt/paho_mqtt/paho/MQTTPacket/src\MQTTPacket.c **** 			d |= 0x80;
 1693              		.loc 1 39 6 is_stmt 0 view .LVU535
 1694 00ba 4FEAE313 		asr	r3, r3, #7
 1695              	.LVL136:
  39:D:/fchai/work/i-cube/I-CUBE-HUAWEI/Middlewares/Third_Party/Huawei/iot_link/network/mqtt/paho_mqtt/paho/MQTTPacket/src\MQTTPacket.c **** 			d |= 0x80;
 1696              		.loc 1 39 6 view .LVU536
 1697 00be F3DC     		bgt	.L102
 1698 00c0 BB1C     		adds	r3, r7, #2
 1699 00c2 0137     		adds	r7, r7, #1
 1700              	.LVL137:
  39:D:/fchai/work/i-cube/I-CUBE-HUAWEI/Middlewares/Third_Party/Huawei/iot_link/network/mqtt/paho_mqtt/paho/MQTTPacket/src\MQTTPacket.c **** 			d |= 0x80;
 1701              		.loc 1 39 6 view .LVU537
 1702 00c4 01E0     		b	.L101
 1703              	.LVL138:
 1704              	.L106:
  39:D:/fchai/work/i-cube/I-CUBE-HUAWEI/Middlewares/Third_Party/Huawei/iot_link/network/mqtt/paho_mqtt/paho/MQTTPacket/src\MQTTPacket.c **** 			d |= 0x80;
 1705              		.loc 1 39 6 view .LVU538
 1706 00c6 0127     		movs	r7, #1
 1707 00c8 0223     		movs	r3, #2
 1708              	.LVL139:
 1709              	.L101:
  41:D:/fchai/work/i-cube/I-CUBE-HUAWEI/Middlewares/Third_Party/Huawei/iot_link/network/mqtt/paho_mqtt/paho/MQTTPacket/src\MQTTPacket.c **** 	} while (length > 0);
 1710              		.loc 1 41 3 is_stmt 1 view .LVU539
  41:D:/fchai/work/i-cube/I-CUBE-HUAWEI/Middlewares/Third_Party/Huawei/iot_link/network/mqtt/paho_mqtt/paho/MQTTPacket/src\MQTTPacket.c **** 	} while (length > 0);
 1711              		.loc 1 41 13 is_stmt 0 view .LVU540
 1712 00ca E855     		strb	r0, [r5, r7]
 1713              	.LBE74:
  42:D:/fchai/work/i-cube/I-CUBE-HUAWEI/Middlewares/Third_Party/Huawei/iot_link/network/mqtt/paho_mqtt/paho/MQTTPacket/src\MQTTPacket.c **** 	FUNC_EXIT_RC(rc);
 1714              		.loc 1 42 10 is_stmt 1 view .LVU541
  43:D:/fchai/work/i-cube/I-CUBE-HUAWEI/Middlewares/Third_Party/Huawei/iot_link/network/mqtt/paho_mqtt/paho/MQTTPacket/src\MQTTPacket.c **** 	return rc;
 1715              		.loc 1 43 18 view .LVU542
  44:D:/fchai/work/i-cube/I-CUBE-HUAWEI/Middlewares/Third_Party/Huawei/iot_link/network/mqtt/paho_mqtt/paho/MQTTPacket/src\MQTTPacket.c **** }
 1716              		.loc 1 44 2 view .LVU543
 1717              	.LVL140:
  44:D:/fchai/work/i-cube/I-CUBE-HUAWEI/Middlewares/Third_Party/Huawei/iot_link/network/mqtt/paho_mqtt/paho/MQTTPacket/src\MQTTPacket.c **** }
 1718              		.loc 1 44 2 is_stmt 0 view .LVU544
 1719              	.LBE72:
 1720              	.LBE71:
 387:D:/fchai/work/i-cube/I-CUBE-HUAWEI/Middlewares/Third_Party/Huawei/iot_link/network/mqtt/paho_mqtt/paho/MQTTPacket/src\MQTTPacket.c **** 			goto exit;
ARM GAS  T:\msys\tmp\ccqTp987.s 			page 44


 1721              		.loc 1 387 10 view .LVU545
 1722 00cc E268     		ldr	r2, [r4, #12]
 386:D:/fchai/work/i-cube/I-CUBE-HUAWEI/Middlewares/Third_Party/Huawei/iot_link/network/mqtt/paho_mqtt/paho/MQTTPacket/src\MQTTPacket.c **** 		if((trp->rem_len + trp->len) > buflen)
 1723              		.loc 1 386 12 view .LVU546
 1724 00ce 2361     		str	r3, [r4, #16]
 387:D:/fchai/work/i-cube/I-CUBE-HUAWEI/Middlewares/Third_Party/Huawei/iot_link/network/mqtt/paho_mqtt/paho/MQTTPacket/src\MQTTPacket.c **** 			goto exit;
 1725              		.loc 1 387 3 is_stmt 1 view .LVU547
 387:D:/fchai/work/i-cube/I-CUBE-HUAWEI/Middlewares/Third_Party/Huawei/iot_link/network/mqtt/paho_mqtt/paho/MQTTPacket/src\MQTTPacket.c **** 			goto exit;
 1726              		.loc 1 387 20 is_stmt 0 view .LVU548
 1727 00d0 1344     		add	r3, r3, r2
 387:D:/fchai/work/i-cube/I-CUBE-HUAWEI/Middlewares/Third_Party/Huawei/iot_link/network/mqtt/paho_mqtt/paho/MQTTPacket/src\MQTTPacket.c **** 			goto exit;
 1728              		.loc 1 387 5 view .LVU549
 1729 00d2 B342     		cmp	r3, r6
 1730 00d4 D0DC     		bgt	.L95
 389:D:/fchai/work/i-cube/I-CUBE-HUAWEI/Middlewares/Third_Party/Huawei/iot_link/network/mqtt/paho_mqtt/paho/MQTTPacket/src\MQTTPacket.c **** 		/*FALLTHROUGH*/
 1731              		.loc 1 389 3 is_stmt 1 view .LVU550
 392:D:/fchai/work/i-cube/I-CUBE-HUAWEI/Middlewares/Third_Party/Huawei/iot_link/network/mqtt/paho_mqtt/paho/MQTTPacket/src\MQTTPacket.c **** 			/* read the rest of the buffer using a callback to supply the rest of the data */
 1732              		.loc 1 392 3 view .LVU551
 389:D:/fchai/work/i-cube/I-CUBE-HUAWEI/Middlewares/Third_Party/Huawei/iot_link/network/mqtt/paho_mqtt/paho/MQTTPacket/src\MQTTPacket.c **** 		/*FALLTHROUGH*/
 1733              		.loc 1 389 3 is_stmt 0 view .LVU552
 1734 00d6 237D     		ldrb	r3, [r4, #20]	@ zero_extendqisi2
 1735 00d8 0133     		adds	r3, r3, #1
 1736 00da 2375     		strb	r3, [r4, #20]
 392:D:/fchai/work/i-cube/I-CUBE-HUAWEI/Middlewares/Third_Party/Huawei/iot_link/network/mqtt/paho_mqtt/paho/MQTTPacket/src\MQTTPacket.c **** 			/* read the rest of the buffer using a callback to supply the rest of the data */
 1737              		.loc 1 392 5 view .LVU553
 1738 00dc C2B1     		cbz	r2, .L104
 1739              	.L103:
 394:D:/fchai/work/i-cube/I-CUBE-HUAWEI/Middlewares/Third_Party/Huawei/iot_link/network/mqtt/paho_mqtt/paho/MQTTPacket/src\MQTTPacket.c **** 				goto exit;
 1740              		.loc 1 394 4 is_stmt 1 view .LVU554
 394:D:/fchai/work/i-cube/I-CUBE-HUAWEI/Middlewares/Third_Party/Huawei/iot_link/network/mqtt/paho_mqtt/paho/MQTTPacket/src\MQTTPacket.c **** 				goto exit;
 1741              		.loc 1 394 14 is_stmt 0 view .LVU555
 1742 00de 2169     		ldr	r1, [r4, #16]
 1743 00e0 D4E90030 		ldrd	r3, r0, [r4]
 1744 00e4 2944     		add	r1, r1, r5
 1745 00e6 9847     		blx	r3
 1746              	.LVL141:
 394:D:/fchai/work/i-cube/I-CUBE-HUAWEI/Middlewares/Third_Party/Huawei/iot_link/network/mqtt/paho_mqtt/paho/MQTTPacket/src\MQTTPacket.c **** 				goto exit;
 1747              		.loc 1 394 7 view .LVU556
 1748 00e8 431C     		adds	r3, r0, #1
 1749 00ea C5D0     		beq	.L95
 396:D:/fchai/work/i-cube/I-CUBE-HUAWEI/Middlewares/Third_Party/Huawei/iot_link/network/mqtt/paho_mqtt/paho/MQTTPacket/src\MQTTPacket.c **** 				return 0;
 1750              		.loc 1 396 4 is_stmt 1 view .LVU557
 396:D:/fchai/work/i-cube/I-CUBE-HUAWEI/Middlewares/Third_Party/Huawei/iot_link/network/mqtt/paho_mqtt/paho/MQTTPacket/src\MQTTPacket.c **** 				return 0;
 1751              		.loc 1 396 7 is_stmt 0 view .LVU558
 1752 00ec 30B1     		cbz	r0, .L100
 398:D:/fchai/work/i-cube/I-CUBE-HUAWEI/Middlewares/Third_Party/Huawei/iot_link/network/mqtt/paho_mqtt/paho/MQTTPacket/src\MQTTPacket.c **** 			trp->len += frc;
 1753              		.loc 1 398 4 is_stmt 1 view .LVU559
 399:D:/fchai/work/i-cube/I-CUBE-HUAWEI/Middlewares/Third_Party/Huawei/iot_link/network/mqtt/paho_mqtt/paho/MQTTPacket/src\MQTTPacket.c **** 			if(trp->rem_len)
 1754              		.loc 1 399 13 is_stmt 0 view .LVU560
 1755 00ee D4E90332 		ldrd	r3, r2, [r4, #12]
 398:D:/fchai/work/i-cube/I-CUBE-HUAWEI/Middlewares/Third_Party/Huawei/iot_link/network/mqtt/paho_mqtt/paho/MQTTPacket/src\MQTTPacket.c **** 			trp->len += frc;
 1756              		.loc 1 398 17 view .LVU561
 1757 00f2 1B1A     		subs	r3, r3, r0
 399:D:/fchai/work/i-cube/I-CUBE-HUAWEI/Middlewares/Third_Party/Huawei/iot_link/network/mqtt/paho_mqtt/paho/MQTTPacket/src\MQTTPacket.c **** 			if(trp->rem_len)
 1758              		.loc 1 399 13 view .LVU562
 1759 00f4 1044     		add	r0, r0, r2
 1760              	.LVL142:
ARM GAS  T:\msys\tmp\ccqTp987.s 			page 45


 399:D:/fchai/work/i-cube/I-CUBE-HUAWEI/Middlewares/Third_Party/Huawei/iot_link/network/mqtt/paho_mqtt/paho/MQTTPacket/src\MQTTPacket.c **** 			if(trp->rem_len)
 1761              		.loc 1 399 13 view .LVU563
 1762 00f6 C4E90330 		strd	r3, r0, [r4, #12]
 400:D:/fchai/work/i-cube/I-CUBE-HUAWEI/Middlewares/Third_Party/Huawei/iot_link/network/mqtt/paho_mqtt/paho/MQTTPacket/src\MQTTPacket.c **** 				return 0;
 1763              		.loc 1 400 4 is_stmt 1 view .LVU564
 400:D:/fchai/work/i-cube/I-CUBE-HUAWEI/Middlewares/Third_Party/Huawei/iot_link/network/mqtt/paho_mqtt/paho/MQTTPacket/src\MQTTPacket.c **** 				return 0;
 1764              		.loc 1 400 6 is_stmt 0 view .LVU565
 1765 00fa 4BB1     		cbz	r3, .L104
 1766              	.L100:
 376:D:/fchai/work/i-cube/I-CUBE-HUAWEI/Middlewares/Third_Party/Huawei/iot_link/network/mqtt/paho_mqtt/paho/MQTTPacket/src\MQTTPacket.c **** 		trp->len = 0;
 1767              		.loc 1 376 11 view .LVU566
 1768 00fc 0020     		movs	r0, #0
 1769              		.loc 1 411 1 view .LVU567
 1770 00fe 03B0     		add	sp, sp, #12
 1771              	.LCFI41:
 1772              		.cfi_remember_state
 1773              		.cfi_def_cfa_offset 20
 1774              		@ sp needed
 1775 0100 F0BD     		pop	{r4, r5, r6, r7, pc}
 1776              	.LVL143:
 1777              	.L84:
 1778              	.LCFI42:
 1779              		.cfi_restore_state
 382:D:/fchai/work/i-cube/I-CUBE-HUAWEI/Middlewares/Third_Party/Huawei/iot_link/network/mqtt/paho_mqtt/paho/MQTTPacket/src\MQTTPacket.c **** 			goto exit;
 1780              		.loc 1 382 3 is_stmt 1 view .LVU568
 1781              	.LBB75:
 324:D:/fchai/work/i-cube/I-CUBE-HUAWEI/Middlewares/Third_Party/Huawei/iot_link/network/mqtt/paho_mqtt/paho/MQTTPacket/src\MQTTPacket.c **** {
 1782              		.loc 1 324 12 view .LVU569
 1783              	.LBB69:
 326:D:/fchai/work/i-cube/I-CUBE-HUAWEI/Middlewares/Third_Party/Huawei/iot_link/network/mqtt/paho_mqtt/paho/MQTTPacket/src\MQTTPacket.c **** 	int rc = MQTTPACKET_READ_ERROR;
 1784              		.loc 1 326 2 view .LVU570
 327:D:/fchai/work/i-cube/I-CUBE-HUAWEI/Middlewares/Third_Party/Huawei/iot_link/network/mqtt/paho_mqtt/paho/MQTTPacket/src\MQTTPacket.c **** 
 1785              		.loc 1 327 2 view .LVU571
 329:D:/fchai/work/i-cube/I-CUBE-HUAWEI/Middlewares/Third_Party/Huawei/iot_link/network/mqtt/paho_mqtt/paho/MQTTPacket/src\MQTTPacket.c **** 	if(trp->len == 0){		/* initialize on first call */
 1786              		.loc 1 329 12 view .LVU572
 330:D:/fchai/work/i-cube/I-CUBE-HUAWEI/Middlewares/Third_Party/Huawei/iot_link/network/mqtt/paho_mqtt/paho/MQTTPacket/src\MQTTPacket.c **** 		trp->multiplier = 1;
 1787              		.loc 1 330 2 view .LVU573
 330:D:/fchai/work/i-cube/I-CUBE-HUAWEI/Middlewares/Third_Party/Huawei/iot_link/network/mqtt/paho_mqtt/paho/MQTTPacket/src\MQTTPacket.c **** 		trp->multiplier = 1;
 1788              		.loc 1 330 8 is_stmt 0 view .LVU574
 1789 0102 1069     		ldr	r0, [r2, #16]
 1790              	.LVL144:
 330:D:/fchai/work/i-cube/I-CUBE-HUAWEI/Middlewares/Third_Party/Huawei/iot_link/network/mqtt/paho_mqtt/paho/MQTTPacket/src\MQTTPacket.c **** 		trp->multiplier = 1;
 1791              		.loc 1 330 4 view .LVU575
 1792 0104 0028     		cmp	r0, #0
 1793 0106 B1D1     		bne	.L97
 1794 0108 95E7     		b	.L93
 1795              	.LVL145:
 1796              	.L85:
 330:D:/fchai/work/i-cube/I-CUBE-HUAWEI/Middlewares/Third_Party/Huawei/iot_link/network/mqtt/paho_mqtt/paho/MQTTPacket/src\MQTTPacket.c **** 		trp->multiplier = 1;
 1797              		.loc 1 330 4 view .LVU576
 1798 010a D268     		ldr	r2, [r2, #12]
 1799              	.LVL146:
 330:D:/fchai/work/i-cube/I-CUBE-HUAWEI/Middlewares/Third_Party/Huawei/iot_link/network/mqtt/paho_mqtt/paho/MQTTPacket/src\MQTTPacket.c **** 		trp->multiplier = 1;
 1800              		.loc 1 330 4 view .LVU577
 1801              	.LBE69:
 1802              	.LBE75:
 392:D:/fchai/work/i-cube/I-CUBE-HUAWEI/Middlewares/Third_Party/Huawei/iot_link/network/mqtt/paho_mqtt/paho/MQTTPacket/src\MQTTPacket.c **** 			/* read the rest of the buffer using a callback to supply the rest of the data */
ARM GAS  T:\msys\tmp\ccqTp987.s 			page 46


 1803              		.loc 1 392 3 is_stmt 1 view .LVU578
 392:D:/fchai/work/i-cube/I-CUBE-HUAWEI/Middlewares/Third_Party/Huawei/iot_link/network/mqtt/paho_mqtt/paho/MQTTPacket/src\MQTTPacket.c **** 			/* read the rest of the buffer using a callback to supply the rest of the data */
 1804              		.loc 1 392 5 is_stmt 0 view .LVU579
 1805 010c 002A     		cmp	r2, #0
 1806 010e E6D1     		bne	.L103
 1807              	.LVL147:
 1808              	.L104:
 403:D:/fchai/work/i-cube/I-CUBE-HUAWEI/Middlewares/Third_Party/Huawei/iot_link/network/mqtt/paho_mqtt/paho/MQTTPacket/src\MQTTPacket.c **** 		rc = header.bits.type;
 1809              		.loc 1 403 3 is_stmt 1 view .LVU580
 404:D:/fchai/work/i-cube/I-CUBE-HUAWEI/Middlewares/Third_Party/Huawei/iot_link/network/mqtt/paho_mqtt/paho/MQTTPacket/src\MQTTPacket.c **** 		break;
 1810              		.loc 1 404 3 view .LVU581
 403:D:/fchai/work/i-cube/I-CUBE-HUAWEI/Middlewares/Third_Party/Huawei/iot_link/network/mqtt/paho_mqtt/paho/MQTTPacket/src\MQTTPacket.c **** 		rc = header.bits.type;
 1811              		.loc 1 403 15 is_stmt 0 view .LVU582
 1812 0110 2878     		ldrb	r0, [r5]	@ zero_extendqisi2
 404:D:/fchai/work/i-cube/I-CUBE-HUAWEI/Middlewares/Third_Party/Huawei/iot_link/network/mqtt/paho_mqtt/paho/MQTTPacket/src\MQTTPacket.c **** 		break;
 1813              		.loc 1 404 6 view .LVU583
 1814 0112 0009     		lsrs	r0, r0, #4
 1815              	.LVL148:
 405:D:/fchai/work/i-cube/I-CUBE-HUAWEI/Middlewares/Third_Party/Huawei/iot_link/network/mqtt/paho_mqtt/paho/MQTTPacket/src\MQTTPacket.c **** 	}
 1816              		.loc 1 405 3 is_stmt 1 view .LVU584
 1817 0114 B2E7     		b	.L90
 1818              		.cfi_endproc
 1819              	.LFE20:
 1821 0116 00BF     		.section	.bss.bufptr,"aw",%nobits
 1822              		.align	2
 1823              		.set	.LANCHOR0,. + 0
 1826              	bufptr:
 1827 0000 00000000 		.space	4
 1828              		.text
 1829              	.Letext0:
 1830              		.file 2 "t:\\msys\\3rd\\gcc-arm-none-eabi-9-2020-q2-update-win32\\lib\\gcc\\arm-none-eabi\\9.3.1\\
 1831              		.file 3 "t:\\msys\\3rd\\gcc-arm-none-eabi-9-2020-q2-update-win32\\arm-none-eabi\\include\\sys\\_ty
 1832              		.file 4 "t:\\msys\\3rd\\gcc-arm-none-eabi-9-2020-q2-update-win32\\arm-none-eabi\\include\\sys\\ree
 1833              		.file 5 "t:\\msys\\3rd\\gcc-arm-none-eabi-9-2020-q2-update-win32\\arm-none-eabi\\include\\sys\\loc
 1834              		.file 6 "D:/fchai/work/i-cube/I-CUBE-HUAWEI/Middlewares/Third_Party/Huawei/iot_link/network/mqtt/p
 1835              		.file 7 "t:\\msys\\3rd\\gcc-arm-none-eabi-9-2020-q2-update-win32\\arm-none-eabi\\include\\string.h
 1836              		.file 8 "<built-in>"
ARM GAS  T:\msys\tmp\ccqTp987.s 			page 47

