ARM GAS  T:\msys\tmp\ccgwNYp2.s 			page 1


   1              		.cpu cortex-m4
   2              		.eabi_attribute 27, 1
   3              		.eabi_attribute 28, 1
   4              		.eabi_attribute 20, 1
   5              		.eabi_attribute 21, 1
   6              		.eabi_attribute 23, 3
   7              		.eabi_attribute 24, 1
   8              		.eabi_attribute 25, 1
   9              		.eabi_attribute 26, 1
  10              		.eabi_attribute 30, 2
  11              		.eabi_attribute 34, 1
  12              		.eabi_attribute 18, 4
  13              		.file	"MQTTFormat.c"
  14              		.text
  15              	.Ltext0:
  16              		.cfi_sections	.debug_frame
  17              		.section	.text.MQTTPacket_getName,"ax",%progbits
  18              		.align	1
  19              		.p2align 2,,3
  20              		.global	MQTTPacket_getName
  21              		.arch armv7e-m
  22              		.syntax unified
  23              		.thumb
  24              		.thumb_func
  25              		.fpu fpv4-sp-d16
  27              	MQTTPacket_getName:
  28              	.LVL0:
  29              	.LFB3:
  30              		.file 1 "D:/fchai/work/i-cube/I-CUBE-HUAWEI/Middlewares/Third_Party/Huawei/iot_link/network/mqtt/p
   1:D:/fchai/work/i-cube/I-CUBE-HUAWEI/Middlewares/Third_Party/Huawei/iot_link/network/mqtt/paho_mqtt/paho/MQTTPacket/src\MQTTFormat.c **** /*******************************************************************************
   2:D:/fchai/work/i-cube/I-CUBE-HUAWEI/Middlewares/Third_Party/Huawei/iot_link/network/mqtt/paho_mqtt/paho/MQTTPacket/src\MQTTFormat.c ****  * Copyright (c) 2014 IBM Corp.
   3:D:/fchai/work/i-cube/I-CUBE-HUAWEI/Middlewares/Third_Party/Huawei/iot_link/network/mqtt/paho_mqtt/paho/MQTTPacket/src\MQTTFormat.c ****  *
   4:D:/fchai/work/i-cube/I-CUBE-HUAWEI/Middlewares/Third_Party/Huawei/iot_link/network/mqtt/paho_mqtt/paho/MQTTPacket/src\MQTTFormat.c ****  * All rights reserved. This program and the accompanying materials
   5:D:/fchai/work/i-cube/I-CUBE-HUAWEI/Middlewares/Third_Party/Huawei/iot_link/network/mqtt/paho_mqtt/paho/MQTTPacket/src\MQTTFormat.c ****  * are made available under the terms of the Eclipse Public License v1.0
   6:D:/fchai/work/i-cube/I-CUBE-HUAWEI/Middlewares/Third_Party/Huawei/iot_link/network/mqtt/paho_mqtt/paho/MQTTPacket/src\MQTTFormat.c ****  * and Eclipse Distribution License v1.0 which accompany this distribution.
   7:D:/fchai/work/i-cube/I-CUBE-HUAWEI/Middlewares/Third_Party/Huawei/iot_link/network/mqtt/paho_mqtt/paho/MQTTPacket/src\MQTTFormat.c ****  *
   8:D:/fchai/work/i-cube/I-CUBE-HUAWEI/Middlewares/Third_Party/Huawei/iot_link/network/mqtt/paho_mqtt/paho/MQTTPacket/src\MQTTFormat.c ****  * The Eclipse Public License is available at
   9:D:/fchai/work/i-cube/I-CUBE-HUAWEI/Middlewares/Third_Party/Huawei/iot_link/network/mqtt/paho_mqtt/paho/MQTTPacket/src\MQTTFormat.c ****  *    http://www.eclipse.org/legal/epl-v10.html
  10:D:/fchai/work/i-cube/I-CUBE-HUAWEI/Middlewares/Third_Party/Huawei/iot_link/network/mqtt/paho_mqtt/paho/MQTTPacket/src\MQTTFormat.c ****  * and the Eclipse Distribution License is available at
  11:D:/fchai/work/i-cube/I-CUBE-HUAWEI/Middlewares/Third_Party/Huawei/iot_link/network/mqtt/paho_mqtt/paho/MQTTPacket/src\MQTTFormat.c ****  *   http://www.eclipse.org/org/documents/edl-v10.php.
  12:D:/fchai/work/i-cube/I-CUBE-HUAWEI/Middlewares/Third_Party/Huawei/iot_link/network/mqtt/paho_mqtt/paho/MQTTPacket/src\MQTTFormat.c ****  *
  13:D:/fchai/work/i-cube/I-CUBE-HUAWEI/Middlewares/Third_Party/Huawei/iot_link/network/mqtt/paho_mqtt/paho/MQTTPacket/src\MQTTFormat.c ****  * Contributors:
  14:D:/fchai/work/i-cube/I-CUBE-HUAWEI/Middlewares/Third_Party/Huawei/iot_link/network/mqtt/paho_mqtt/paho/MQTTPacket/src\MQTTFormat.c ****  *    Ian Craggs - initial API and implementation and/or initial documentation
  15:D:/fchai/work/i-cube/I-CUBE-HUAWEI/Middlewares/Third_Party/Huawei/iot_link/network/mqtt/paho_mqtt/paho/MQTTPacket/src\MQTTFormat.c ****  *******************************************************************************/
  16:D:/fchai/work/i-cube/I-CUBE-HUAWEI/Middlewares/Third_Party/Huawei/iot_link/network/mqtt/paho_mqtt/paho/MQTTPacket/src\MQTTFormat.c **** 
  17:D:/fchai/work/i-cube/I-CUBE-HUAWEI/Middlewares/Third_Party/Huawei/iot_link/network/mqtt/paho_mqtt/paho/MQTTPacket/src\MQTTFormat.c **** #include "StackTrace.h"
  18:D:/fchai/work/i-cube/I-CUBE-HUAWEI/Middlewares/Third_Party/Huawei/iot_link/network/mqtt/paho_mqtt/paho/MQTTPacket/src\MQTTFormat.c **** #include "MQTTPacket.h"
  19:D:/fchai/work/i-cube/I-CUBE-HUAWEI/Middlewares/Third_Party/Huawei/iot_link/network/mqtt/paho_mqtt/paho/MQTTPacket/src\MQTTFormat.c **** 
  20:D:/fchai/work/i-cube/I-CUBE-HUAWEI/Middlewares/Third_Party/Huawei/iot_link/network/mqtt/paho_mqtt/paho/MQTTPacket/src\MQTTFormat.c **** #include <string.h>
  21:D:/fchai/work/i-cube/I-CUBE-HUAWEI/Middlewares/Third_Party/Huawei/iot_link/network/mqtt/paho_mqtt/paho/MQTTPacket/src\MQTTFormat.c **** 
  22:D:/fchai/work/i-cube/I-CUBE-HUAWEI/Middlewares/Third_Party/Huawei/iot_link/network/mqtt/paho_mqtt/paho/MQTTPacket/src\MQTTFormat.c **** 
  23:D:/fchai/work/i-cube/I-CUBE-HUAWEI/Middlewares/Third_Party/Huawei/iot_link/network/mqtt/paho_mqtt/paho/MQTTPacket/src\MQTTFormat.c **** const char* MQTTPacket_names[] =
  24:D:/fchai/work/i-cube/I-CUBE-HUAWEI/Middlewares/Third_Party/Huawei/iot_link/network/mqtt/paho_mqtt/paho/MQTTPacket/src\MQTTFormat.c **** {
  25:D:/fchai/work/i-cube/I-CUBE-HUAWEI/Middlewares/Third_Party/Huawei/iot_link/network/mqtt/paho_mqtt/paho/MQTTPacket/src\MQTTFormat.c **** 	"RESERVED", "CONNECT", "CONNACK", "PUBLISH", "PUBACK", "PUBREC", "PUBREL",
  26:D:/fchai/work/i-cube/I-CUBE-HUAWEI/Middlewares/Third_Party/Huawei/iot_link/network/mqtt/paho_mqtt/paho/MQTTPacket/src\MQTTFormat.c **** 	"PUBCOMP", "SUBSCRIBE", "SUBACK", "UNSUBSCRIBE", "UNSUBACK",
  27:D:/fchai/work/i-cube/I-CUBE-HUAWEI/Middlewares/Third_Party/Huawei/iot_link/network/mqtt/paho_mqtt/paho/MQTTPacket/src\MQTTFormat.c **** 	"PINGREQ", "PINGRESP", "DISCONNECT"
  28:D:/fchai/work/i-cube/I-CUBE-HUAWEI/Middlewares/Third_Party/Huawei/iot_link/network/mqtt/paho_mqtt/paho/MQTTPacket/src\MQTTFormat.c **** };
ARM GAS  T:\msys\tmp\ccgwNYp2.s 			page 2


  29:D:/fchai/work/i-cube/I-CUBE-HUAWEI/Middlewares/Third_Party/Huawei/iot_link/network/mqtt/paho_mqtt/paho/MQTTPacket/src\MQTTFormat.c **** 
  30:D:/fchai/work/i-cube/I-CUBE-HUAWEI/Middlewares/Third_Party/Huawei/iot_link/network/mqtt/paho_mqtt/paho/MQTTPacket/src\MQTTFormat.c **** 
  31:D:/fchai/work/i-cube/I-CUBE-HUAWEI/Middlewares/Third_Party/Huawei/iot_link/network/mqtt/paho_mqtt/paho/MQTTPacket/src\MQTTFormat.c **** const char* MQTTPacket_getName(unsigned short packetid)
  32:D:/fchai/work/i-cube/I-CUBE-HUAWEI/Middlewares/Third_Party/Huawei/iot_link/network/mqtt/paho_mqtt/paho/MQTTPacket/src\MQTTFormat.c **** {
  31              		.loc 1 32 1 view -0
  32              		.cfi_startproc
  33              		@ args = 0, pretend = 0, frame = 0
  34              		@ frame_needed = 0, uses_anonymous_args = 0
  35              		@ link register save eliminated.
  33:D:/fchai/work/i-cube/I-CUBE-HUAWEI/Middlewares/Third_Party/Huawei/iot_link/network/mqtt/paho_mqtt/paho/MQTTPacket/src\MQTTFormat.c **** 	return MQTTPacket_names[packetid];
  36              		.loc 1 33 2 view .LVU1
  37              		.loc 1 33 25 is_stmt 0 view .LVU2
  38 0000 014B     		ldr	r3, .L3
  34:D:/fchai/work/i-cube/I-CUBE-HUAWEI/Middlewares/Third_Party/Huawei/iot_link/network/mqtt/paho_mqtt/paho/MQTTPacket/src\MQTTFormat.c **** }
  39              		.loc 1 34 1 view .LVU3
  40 0002 53F82000 		ldr	r0, [r3, r0, lsl #2]
  41              	.LVL1:
  42              		.loc 1 34 1 view .LVU4
  43 0006 7047     		bx	lr
  44              	.L4:
  45              		.align	2
  46              	.L3:
  47 0008 00000000 		.word	.LANCHOR0
  48              		.cfi_endproc
  49              	.LFE3:
  51              		.section	.rodata.MQTTStringFormat_connect.str1.4,"aMS",%progbits,1
  52              		.align	2
  53              	.LC0:
  54 0000 434F4E4E 		.ascii	"CONNECT MQTT version %d, client id %.*s, clean sess"
  54      45435420 
  54      4D515454 
  54      20766572 
  54      73696F6E 
  55 0033 696F6E20 		.ascii	"ion %d, keep alive %d\000"
  55      25642C20 
  55      6B656570 
  55      20616C69 
  55      76652025 
  56 0049 000000   		.align	2
  57              	.LC1:
  58 004c 2C207769 		.ascii	", will QoS %d, will retain %d, will topic %.*s, wil"
  58      6C6C2051 
  58      6F532025 
  58      642C2077 
  58      696C6C20 
  59 007f 6C206D65 		.ascii	"l message %.*s\000"
  59      73736167 
  59      6520252E 
  59      2A7300
  60 008e 0000     		.align	2
  61              	.LC2:
  62 0090 2C207573 		.ascii	", user name %.*s\000"
  62      6572206E 
  62      616D6520 
  62      252E2A73 
  62      00
  63 00a1 000000   		.align	2
ARM GAS  T:\msys\tmp\ccgwNYp2.s 			page 3


  64              	.LC3:
  65 00a4 2C207061 		.ascii	", password %.*s\000"
  65      7373776F 
  65      72642025 
  65      2E2A7300 
  66              		.section	.text.MQTTStringFormat_connect,"ax",%progbits
  67              		.align	1
  68              		.p2align 2,,3
  69              		.global	MQTTStringFormat_connect
  70              		.syntax unified
  71              		.thumb
  72              		.thumb_func
  73              		.fpu fpv4-sp-d16
  75              	MQTTStringFormat_connect:
  76              	.LVL2:
  77              	.LFB4:
  35:D:/fchai/work/i-cube/I-CUBE-HUAWEI/Middlewares/Third_Party/Huawei/iot_link/network/mqtt/paho_mqtt/paho/MQTTPacket/src\MQTTFormat.c **** 
  36:D:/fchai/work/i-cube/I-CUBE-HUAWEI/Middlewares/Third_Party/Huawei/iot_link/network/mqtt/paho_mqtt/paho/MQTTPacket/src\MQTTFormat.c **** 
  37:D:/fchai/work/i-cube/I-CUBE-HUAWEI/Middlewares/Third_Party/Huawei/iot_link/network/mqtt/paho_mqtt/paho/MQTTPacket/src\MQTTFormat.c **** int MQTTStringFormat_connect(char* strbuf, int strbuflen, MQTTPacket_connectData* data)
  38:D:/fchai/work/i-cube/I-CUBE-HUAWEI/Middlewares/Third_Party/Huawei/iot_link/network/mqtt/paho_mqtt/paho/MQTTPacket/src\MQTTFormat.c **** {
  78              		.loc 1 38 1 is_stmt 1 view -0
  79              		.cfi_startproc
  80              		@ args = 0, pretend = 0, frame = 0
  81              		@ frame_needed = 0, uses_anonymous_args = 0
  39:D:/fchai/work/i-cube/I-CUBE-HUAWEI/Middlewares/Third_Party/Huawei/iot_link/network/mqtt/paho_mqtt/paho/MQTTPacket/src\MQTTFormat.c **** 	int strindex = 0;
  82              		.loc 1 39 2 view .LVU6
  40:D:/fchai/work/i-cube/I-CUBE-HUAWEI/Middlewares/Third_Party/Huawei/iot_link/network/mqtt/paho_mqtt/paho/MQTTPacket/src\MQTTFormat.c **** 
  41:D:/fchai/work/i-cube/I-CUBE-HUAWEI/Middlewares/Third_Party/Huawei/iot_link/network/mqtt/paho_mqtt/paho/MQTTPacket/src\MQTTFormat.c **** 	strindex = snprintf(strbuf, strbuflen,
  83              		.loc 1 41 2 view .LVU7
  38:D:/fchai/work/i-cube/I-CUBE-HUAWEI/Middlewares/Third_Party/Huawei/iot_link/network/mqtt/paho_mqtt/paho/MQTTPacket/src\MQTTFormat.c **** 	int strindex = 0;
  84              		.loc 1 38 1 is_stmt 0 view .LVU8
  85 0000 F0B5     		push	{r4, r5, r6, r7, lr}
  86              	.LCFI0:
  87              		.cfi_def_cfa_offset 20
  88              		.cfi_offset 4, -20
  89              		.cfi_offset 5, -16
  90              		.cfi_offset 6, -12
  91              		.cfi_offset 7, -8
  92              		.cfi_offset 14, -4
  93 0002 1446     		mov	r4, r2
  94              		.loc 1 41 13 view .LVU9
  95 0004 168B     		ldrh	r6, [r2, #24]
  96 0006 957E     		ldrb	r5, [r2, #26]	@ zero_extendqisi2
  97 0008 2369     		ldr	r3, [r4, #16]
  98 000a 5269     		ldr	r2, [r2, #20]
  99              	.LVL3:
  38:D:/fchai/work/i-cube/I-CUBE-HUAWEI/Middlewares/Third_Party/Huawei/iot_link/network/mqtt/paho_mqtt/paho/MQTTPacket/src\MQTTFormat.c **** 	int strindex = 0;
 100              		.loc 1 38 1 view .LVU10
 101 000c 87B0     		sub	sp, sp, #28
 102              	.LCFI1:
 103              		.cfi_def_cfa_offset 48
 104              		.loc 1 41 13 view .LVU11
 105 000e CDE90256 		strd	r5, r6, [sp, #8]
 106 0012 CDE90032 		strd	r3, r2, [sp]
 107 0016 1E4A     		ldr	r2, .L22
 108 0018 237A     		ldrb	r3, [r4, #8]	@ zero_extendqisi2
  38:D:/fchai/work/i-cube/I-CUBE-HUAWEI/Middlewares/Third_Party/Huawei/iot_link/network/mqtt/paho_mqtt/paho/MQTTPacket/src\MQTTFormat.c **** 	int strindex = 0;
ARM GAS  T:\msys\tmp\ccgwNYp2.s 			page 4


 109              		.loc 1 38 1 view .LVU12
 110 001a 0646     		mov	r6, r0
 111 001c 0F46     		mov	r7, r1
 112              		.loc 1 41 13 view .LVU13
 113 001e FFF7FEFF 		bl	snprintf
 114              	.LVL4:
  42:D:/fchai/work/i-cube/I-CUBE-HUAWEI/Middlewares/Third_Party/Huawei/iot_link/network/mqtt/paho_mqtt/paho/MQTTPacket/src\MQTTFormat.c **** 			"CONNECT MQTT version %d, client id %.*s, clean session %d, keep alive %d",
  43:D:/fchai/work/i-cube/I-CUBE-HUAWEI/Middlewares/Third_Party/Huawei/iot_link/network/mqtt/paho_mqtt/paho/MQTTPacket/src\MQTTFormat.c **** 			(int)data->MQTTVersion, data->clientID.lenstring.len, data->clientID.lenstring.data,
  44:D:/fchai/work/i-cube/I-CUBE-HUAWEI/Middlewares/Third_Party/Huawei/iot_link/network/mqtt/paho_mqtt/paho/MQTTPacket/src\MQTTFormat.c **** 			(int)data->cleansession, data->keepAliveInterval);
  45:D:/fchai/work/i-cube/I-CUBE-HUAWEI/Middlewares/Third_Party/Huawei/iot_link/network/mqtt/paho_mqtt/paho/MQTTPacket/src\MQTTFormat.c **** 	if (data->willFlag)
 115              		.loc 1 45 5 view .LVU14
 116 0022 E37E     		ldrb	r3, [r4, #27]	@ zero_extendqisi2
  41:D:/fchai/work/i-cube/I-CUBE-HUAWEI/Middlewares/Third_Party/Huawei/iot_link/network/mqtt/paho_mqtt/paho/MQTTPacket/src\MQTTFormat.c **** 			"CONNECT MQTT version %d, client id %.*s, clean session %d, keep alive %d",
 117              		.loc 1 41 13 view .LVU15
 118 0024 0546     		mov	r5, r0
 119              	.LVL5:
 120              		.loc 1 45 2 is_stmt 1 view .LVU16
 121              		.loc 1 45 5 is_stmt 0 view .LVU17
 122 0026 F3B9     		cbnz	r3, .L19
 123              	.LVL6:
 124              	.L6:
  46:D:/fchai/work/i-cube/I-CUBE-HUAWEI/Middlewares/Third_Party/Huawei/iot_link/network/mqtt/paho_mqtt/paho/MQTTPacket/src\MQTTFormat.c **** 		strindex += snprintf(&strbuf[strindex], strbuflen - strindex,
  47:D:/fchai/work/i-cube/I-CUBE-HUAWEI/Middlewares/Third_Party/Huawei/iot_link/network/mqtt/paho_mqtt/paho/MQTTPacket/src\MQTTFormat.c **** 				", will QoS %d, will retain %d, will topic %.*s, will message %.*s",
  48:D:/fchai/work/i-cube/I-CUBE-HUAWEI/Middlewares/Third_Party/Huawei/iot_link/network/mqtt/paho_mqtt/paho/MQTTPacket/src\MQTTFormat.c **** 				data->will.qos, data->will.retained,
  49:D:/fchai/work/i-cube/I-CUBE-HUAWEI/Middlewares/Third_Party/Huawei/iot_link/network/mqtt/paho_mqtt/paho/MQTTPacket/src\MQTTFormat.c **** 				data->will.topicName.lenstring.len, data->will.topicName.lenstring.data,
  50:D:/fchai/work/i-cube/I-CUBE-HUAWEI/Middlewares/Third_Party/Huawei/iot_link/network/mqtt/paho_mqtt/paho/MQTTPacket/src\MQTTFormat.c **** 				data->will.message.lenstring.len, data->will.message.lenstring.data);
  51:D:/fchai/work/i-cube/I-CUBE-HUAWEI/Middlewares/Third_Party/Huawei/iot_link/network/mqtt/paho_mqtt/paho/MQTTPacket/src\MQTTFormat.c **** 	if (data->username.lenstring.data && data->username.lenstring.len > 0)
 125              		.loc 1 51 2 is_stmt 1 view .LVU18
 126              		.loc 1 51 30 is_stmt 0 view .LVU19
 127 0028 A26C     		ldr	r2, [r4, #72]
 128              		.loc 1 51 5 view .LVU20
 129 002a 12B1     		cbz	r2, .L7
 130              		.loc 1 51 63 discriminator 1 view .LVU21
 131 002c 636C     		ldr	r3, [r4, #68]
 132              		.loc 1 51 36 discriminator 1 view .LVU22
 133 002e 002B     		cmp	r3, #0
 134 0030 11DC     		bgt	.L20
 135              	.L7:
  52:D:/fchai/work/i-cube/I-CUBE-HUAWEI/Middlewares/Third_Party/Huawei/iot_link/network/mqtt/paho_mqtt/paho/MQTTPacket/src\MQTTFormat.c **** 		strindex += snprintf(&strbuf[strindex], strbuflen - strindex,
  53:D:/fchai/work/i-cube/I-CUBE-HUAWEI/Middlewares/Third_Party/Huawei/iot_link/network/mqtt/paho_mqtt/paho/MQTTPacket/src\MQTTFormat.c **** 				", user name %.*s", data->username.lenstring.len, data->username.lenstring.data);
  54:D:/fchai/work/i-cube/I-CUBE-HUAWEI/Middlewares/Third_Party/Huawei/iot_link/network/mqtt/paho_mqtt/paho/MQTTPacket/src\MQTTFormat.c **** 	if (data->password.lenstring.data && data->password.lenstring.len > 0)
 136              		.loc 1 54 2 is_stmt 1 view .LVU23
 137              		.loc 1 54 30 is_stmt 0 view .LVU24
 138 0032 626D     		ldr	r2, [r4, #84]
 139              		.loc 1 54 5 view .LVU25
 140 0034 12B1     		cbz	r2, .L5
 141              		.loc 1 54 63 discriminator 1 view .LVU26
 142 0036 236D     		ldr	r3, [r4, #80]
 143              		.loc 1 54 36 discriminator 1 view .LVU27
 144 0038 002B     		cmp	r3, #0
 145 003a 02DC     		bgt	.L21
 146              	.L5:
  55:D:/fchai/work/i-cube/I-CUBE-HUAWEI/Middlewares/Third_Party/Huawei/iot_link/network/mqtt/paho_mqtt/paho/MQTTPacket/src\MQTTFormat.c **** 		strindex += snprintf(&strbuf[strindex], strbuflen - strindex,
  56:D:/fchai/work/i-cube/I-CUBE-HUAWEI/Middlewares/Third_Party/Huawei/iot_link/network/mqtt/paho_mqtt/paho/MQTTPacket/src\MQTTFormat.c **** 				", password %.*s", data->password.lenstring.len, data->password.lenstring.data);
  57:D:/fchai/work/i-cube/I-CUBE-HUAWEI/Middlewares/Third_Party/Huawei/iot_link/network/mqtt/paho_mqtt/paho/MQTTPacket/src\MQTTFormat.c **** 	return strindex;
  58:D:/fchai/work/i-cube/I-CUBE-HUAWEI/Middlewares/Third_Party/Huawei/iot_link/network/mqtt/paho_mqtt/paho/MQTTPacket/src\MQTTFormat.c **** }
 147              		.loc 1 58 1 view .LVU28
ARM GAS  T:\msys\tmp\ccgwNYp2.s 			page 5


 148 003c 2846     		mov	r0, r5
 149 003e 07B0     		add	sp, sp, #28
 150              	.LCFI2:
 151              		.cfi_remember_state
 152              		.cfi_def_cfa_offset 20
 153              		@ sp needed
 154 0040 F0BD     		pop	{r4, r5, r6, r7, pc}
 155              	.LVL7:
 156              	.L21:
 157              	.LCFI3:
 158              		.cfi_restore_state
  55:D:/fchai/work/i-cube/I-CUBE-HUAWEI/Middlewares/Third_Party/Huawei/iot_link/network/mqtt/paho_mqtt/paho/MQTTPacket/src\MQTTFormat.c **** 		strindex += snprintf(&strbuf[strindex], strbuflen - strindex,
 159              		.loc 1 55 3 is_stmt 1 view .LVU29
  55:D:/fchai/work/i-cube/I-CUBE-HUAWEI/Middlewares/Third_Party/Huawei/iot_link/network/mqtt/paho_mqtt/paho/MQTTPacket/src\MQTTFormat.c **** 		strindex += snprintf(&strbuf[strindex], strbuflen - strindex,
 160              		.loc 1 55 15 is_stmt 0 view .LVU30
 161 0042 0092     		str	r2, [sp]
 162 0044 791B     		subs	r1, r7, r5
 163 0046 7019     		adds	r0, r6, r5
 164 0048 124A     		ldr	r2, .L22+4
 165 004a FFF7FEFF 		bl	snprintf
 166              	.LVL8:
  55:D:/fchai/work/i-cube/I-CUBE-HUAWEI/Middlewares/Third_Party/Huawei/iot_link/network/mqtt/paho_mqtt/paho/MQTTPacket/src\MQTTFormat.c **** 		strindex += snprintf(&strbuf[strindex], strbuflen - strindex,
 167              		.loc 1 55 12 view .LVU31
 168 004e 0544     		add	r5, r5, r0
 169              	.LVL9:
  57:D:/fchai/work/i-cube/I-CUBE-HUAWEI/Middlewares/Third_Party/Huawei/iot_link/network/mqtt/paho_mqtt/paho/MQTTPacket/src\MQTTFormat.c **** }
 170              		.loc 1 57 2 is_stmt 1 view .LVU32
 171              		.loc 1 58 1 is_stmt 0 view .LVU33
 172 0050 2846     		mov	r0, r5
 173 0052 07B0     		add	sp, sp, #28
 174              	.LCFI4:
 175              		.cfi_remember_state
 176              		.cfi_def_cfa_offset 20
 177              		@ sp needed
 178 0054 F0BD     		pop	{r4, r5, r6, r7, pc}
 179              	.LVL10:
 180              	.L20:
 181              	.LCFI5:
 182              		.cfi_restore_state
  52:D:/fchai/work/i-cube/I-CUBE-HUAWEI/Middlewares/Third_Party/Huawei/iot_link/network/mqtt/paho_mqtt/paho/MQTTPacket/src\MQTTFormat.c **** 		strindex += snprintf(&strbuf[strindex], strbuflen - strindex,
 183              		.loc 1 52 3 is_stmt 1 view .LVU34
  52:D:/fchai/work/i-cube/I-CUBE-HUAWEI/Middlewares/Third_Party/Huawei/iot_link/network/mqtt/paho_mqtt/paho/MQTTPacket/src\MQTTFormat.c **** 		strindex += snprintf(&strbuf[strindex], strbuflen - strindex,
 184              		.loc 1 52 15 is_stmt 0 view .LVU35
 185 0056 0092     		str	r2, [sp]
 186 0058 791B     		subs	r1, r7, r5
 187 005a 7019     		adds	r0, r6, r5
 188 005c 0E4A     		ldr	r2, .L22+8
 189 005e FFF7FEFF 		bl	snprintf
 190              	.LVL11:
  52:D:/fchai/work/i-cube/I-CUBE-HUAWEI/Middlewares/Third_Party/Huawei/iot_link/network/mqtt/paho_mqtt/paho/MQTTPacket/src\MQTTFormat.c **** 		strindex += snprintf(&strbuf[strindex], strbuflen - strindex,
 191              		.loc 1 52 12 view .LVU36
 192 0062 0544     		add	r5, r5, r0
 193              	.LVL12:
  52:D:/fchai/work/i-cube/I-CUBE-HUAWEI/Middlewares/Third_Party/Huawei/iot_link/network/mqtt/paho_mqtt/paho/MQTTPacket/src\MQTTFormat.c **** 		strindex += snprintf(&strbuf[strindex], strbuflen - strindex,
 194              		.loc 1 52 12 view .LVU37
 195 0064 E5E7     		b	.L7
 196              	.LVL13:
ARM GAS  T:\msys\tmp\ccgwNYp2.s 			page 6


 197              	.L19:
  46:D:/fchai/work/i-cube/I-CUBE-HUAWEI/Middlewares/Third_Party/Huawei/iot_link/network/mqtt/paho_mqtt/paho/MQTTPacket/src\MQTTFormat.c **** 				", will QoS %d, will retain %d, will topic %.*s, will message %.*s",
 198              		.loc 1 46 3 is_stmt 1 view .LVU38
  46:D:/fchai/work/i-cube/I-CUBE-HUAWEI/Middlewares/Third_Party/Huawei/iot_link/network/mqtt/paho_mqtt/paho/MQTTPacket/src\MQTTFormat.c **** 				", will QoS %d, will retain %d, will topic %.*s, will message %.*s",
 199              		.loc 1 46 15 is_stmt 0 view .LVU39
 200 0066 D4E90A21 		ldrd	r2, r1, [r4, #40]
 201 006a 606B     		ldr	r0, [r4, #52]
 202              	.LVL14:
  46:D:/fchai/work/i-cube/I-CUBE-HUAWEI/Middlewares/Third_Party/Huawei/iot_link/network/mqtt/paho_mqtt/paho/MQTTPacket/src\MQTTFormat.c **** 				", will QoS %d, will retain %d, will topic %.*s, will message %.*s",
 203              		.loc 1 46 15 view .LVU40
 204 006c A36B     		ldr	r3, [r4, #56]
 205 006e 94F83CC0 		ldrb	ip, [r4, #60]	@ zero_extendqisi2
 206 0072 CDF800C0 		str	ip, [sp]
 207 0076 CDE90121 		strd	r2, r1, [sp, #4]
 208 007a CDE90303 		strd	r0, r3, [sp, #12]
 209 007e 791B     		subs	r1, r7, r5
 210 0080 7019     		adds	r0, r6, r5
 211 0082 94F83D30 		ldrb	r3, [r4, #61]	@ zero_extendqisi2
 212 0086 054A     		ldr	r2, .L22+12
 213 0088 FFF7FEFF 		bl	snprintf
 214              	.LVL15:
  46:D:/fchai/work/i-cube/I-CUBE-HUAWEI/Middlewares/Third_Party/Huawei/iot_link/network/mqtt/paho_mqtt/paho/MQTTPacket/src\MQTTFormat.c **** 				", will QoS %d, will retain %d, will topic %.*s, will message %.*s",
 215              		.loc 1 46 12 view .LVU41
 216 008c 0544     		add	r5, r5, r0
 217              	.LVL16:
  46:D:/fchai/work/i-cube/I-CUBE-HUAWEI/Middlewares/Third_Party/Huawei/iot_link/network/mqtt/paho_mqtt/paho/MQTTPacket/src\MQTTFormat.c **** 				", will QoS %d, will retain %d, will topic %.*s, will message %.*s",
 218              		.loc 1 46 12 view .LVU42
 219 008e CBE7     		b	.L6
 220              	.L23:
 221              		.align	2
 222              	.L22:
 223 0090 00000000 		.word	.LC0
 224 0094 A4000000 		.word	.LC3
 225 0098 90000000 		.word	.LC2
 226 009c 4C000000 		.word	.LC1
 227              		.cfi_endproc
 228              	.LFE4:
 230              		.section	.rodata.MQTTStringFormat_connack.str1.4,"aMS",%progbits,1
 231              		.align	2
 232              	.LC4:
 233 0000 434F4E4E 		.ascii	"CONNACK session present %d, rc %d\000"
 233      41434B20 
 233      73657373 
 233      696F6E20 
 233      70726573 
 234              		.section	.text.MQTTStringFormat_connack,"ax",%progbits
 235              		.align	1
 236              		.p2align 2,,3
 237              		.global	MQTTStringFormat_connack
 238              		.syntax unified
 239              		.thumb
 240              		.thumb_func
 241              		.fpu fpv4-sp-d16
 243              	MQTTStringFormat_connack:
 244              	.LVL17:
 245              	.LFB5:
  59:D:/fchai/work/i-cube/I-CUBE-HUAWEI/Middlewares/Third_Party/Huawei/iot_link/network/mqtt/paho_mqtt/paho/MQTTPacket/src\MQTTFormat.c **** 
ARM GAS  T:\msys\tmp\ccgwNYp2.s 			page 7


  60:D:/fchai/work/i-cube/I-CUBE-HUAWEI/Middlewares/Third_Party/Huawei/iot_link/network/mqtt/paho_mqtt/paho/MQTTPacket/src\MQTTFormat.c **** 
  61:D:/fchai/work/i-cube/I-CUBE-HUAWEI/Middlewares/Third_Party/Huawei/iot_link/network/mqtt/paho_mqtt/paho/MQTTPacket/src\MQTTFormat.c **** int MQTTStringFormat_connack(char* strbuf, int strbuflen, unsigned char connack_rc, unsigned char s
  62:D:/fchai/work/i-cube/I-CUBE-HUAWEI/Middlewares/Third_Party/Huawei/iot_link/network/mqtt/paho_mqtt/paho/MQTTPacket/src\MQTTFormat.c **** {
 246              		.loc 1 62 1 is_stmt 1 view -0
 247              		.cfi_startproc
 248              		@ args = 0, pretend = 0, frame = 0
 249              		@ frame_needed = 0, uses_anonymous_args = 0
  63:D:/fchai/work/i-cube/I-CUBE-HUAWEI/Middlewares/Third_Party/Huawei/iot_link/network/mqtt/paho_mqtt/paho/MQTTPacket/src\MQTTFormat.c **** 	int strindex = snprintf(strbuf, strbuflen, "CONNACK session present %d, rc %d", sessionPresent, co
 250              		.loc 1 63 2 view .LVU44
  62:D:/fchai/work/i-cube/I-CUBE-HUAWEI/Middlewares/Third_Party/Huawei/iot_link/network/mqtt/paho_mqtt/paho/MQTTPacket/src\MQTTFormat.c **** 	int strindex = snprintf(strbuf, strbuflen, "CONNACK session present %d, rc %d", sessionPresent, co
 251              		.loc 1 62 1 is_stmt 0 view .LVU45
 252 0000 00B5     		push	{lr}
 253              	.LCFI6:
 254              		.cfi_def_cfa_offset 4
 255              		.cfi_offset 14, -4
 256 0002 83B0     		sub	sp, sp, #12
 257              	.LCFI7:
 258              		.cfi_def_cfa_offset 16
 259              		.loc 1 63 17 view .LVU46
 260 0004 0092     		str	r2, [sp]
 261 0006 034A     		ldr	r2, .L26
 262              	.LVL18:
 263              		.loc 1 63 17 view .LVU47
 264 0008 FFF7FEFF 		bl	snprintf
 265              	.LVL19:
  64:D:/fchai/work/i-cube/I-CUBE-HUAWEI/Middlewares/Third_Party/Huawei/iot_link/network/mqtt/paho_mqtt/paho/MQTTPacket/src\MQTTFormat.c **** 	return strindex;
 266              		.loc 1 64 2 is_stmt 1 view .LVU48
  65:D:/fchai/work/i-cube/I-CUBE-HUAWEI/Middlewares/Third_Party/Huawei/iot_link/network/mqtt/paho_mqtt/paho/MQTTPacket/src\MQTTFormat.c **** }
 267              		.loc 1 65 1 is_stmt 0 view .LVU49
 268 000c 03B0     		add	sp, sp, #12
 269              	.LCFI8:
 270              		.cfi_def_cfa_offset 4
 271              		@ sp needed
 272 000e 5DF804FB 		ldr	pc, [sp], #4
 273              	.L27:
 274 0012 00BF     		.align	2
 275              	.L26:
 276 0014 00000000 		.word	.LC4
 277              		.cfi_endproc
 278              	.LFE5:
 280              		.section	.rodata.MQTTStringFormat_publish.str1.4,"aMS",%progbits,1
 281              		.align	2
 282              	.LC5:
 283 0000 5055424C 		.ascii	"PUBLISH dup %d, QoS %d, retained %d, packet id %d, "
 283      49534820 
 283      64757020 
 283      25642C20 
 283      516F5320 
 284 0033 746F7069 		.ascii	"topic %.*s, payload length %d, payload %.*s\000"
 284      6320252E 
 284      2A732C20 
 284      7061796C 
 284      6F616420 
 285              		.section	.text.MQTTStringFormat_publish,"ax",%progbits
 286              		.align	1
 287              		.p2align 2,,3
 288              		.global	MQTTStringFormat_publish
ARM GAS  T:\msys\tmp\ccgwNYp2.s 			page 8


 289              		.syntax unified
 290              		.thumb
 291              		.thumb_func
 292              		.fpu fpv4-sp-d16
 294              	MQTTStringFormat_publish:
 295              	.LVL20:
 296              	.LFB6:
  66:D:/fchai/work/i-cube/I-CUBE-HUAWEI/Middlewares/Third_Party/Huawei/iot_link/network/mqtt/paho_mqtt/paho/MQTTPacket/src\MQTTFormat.c **** 
  67:D:/fchai/work/i-cube/I-CUBE-HUAWEI/Middlewares/Third_Party/Huawei/iot_link/network/mqtt/paho_mqtt/paho/MQTTPacket/src\MQTTFormat.c **** 
  68:D:/fchai/work/i-cube/I-CUBE-HUAWEI/Middlewares/Third_Party/Huawei/iot_link/network/mqtt/paho_mqtt/paho/MQTTPacket/src\MQTTFormat.c **** int MQTTStringFormat_publish(char* strbuf, int strbuflen, unsigned char dup, int qos, unsigned char
  69:D:/fchai/work/i-cube/I-CUBE-HUAWEI/Middlewares/Third_Party/Huawei/iot_link/network/mqtt/paho_mqtt/paho/MQTTPacket/src\MQTTFormat.c **** 		unsigned short packetid, MQTTString topicName, unsigned char* payload, int payloadlen)
  70:D:/fchai/work/i-cube/I-CUBE-HUAWEI/Middlewares/Third_Party/Huawei/iot_link/network/mqtt/paho_mqtt/paho/MQTTPacket/src\MQTTFormat.c **** {
 297              		.loc 1 70 1 is_stmt 1 view -0
 298              		.cfi_startproc
 299              		@ args = 28, pretend = 0, frame = 0
 300              		@ frame_needed = 0, uses_anonymous_args = 0
  71:D:/fchai/work/i-cube/I-CUBE-HUAWEI/Middlewares/Third_Party/Huawei/iot_link/network/mqtt/paho_mqtt/paho/MQTTPacket/src\MQTTFormat.c **** 	int strindex = snprintf(strbuf, strbuflen,
 301              		.loc 1 71 2 view .LVU51
  70:D:/fchai/work/i-cube/I-CUBE-HUAWEI/Middlewares/Third_Party/Huawei/iot_link/network/mqtt/paho_mqtt/paho/MQTTPacket/src\MQTTFormat.c **** 	int strindex = snprintf(strbuf, strbuflen,
 302              		.loc 1 70 1 is_stmt 0 view .LVU52
 303 0000 70B5     		push	{r4, r5, r6, lr}
 304              	.LCFI9:
 305              		.cfi_def_cfa_offset 16
 306              		.cfi_offset 4, -16
 307              		.cfi_offset 5, -12
 308              		.cfi_offset 6, -8
 309              		.cfi_offset 14, -4
 310 0002 88B0     		sub	sp, sp, #32
 311              	.LCFI10:
 312              		.cfi_def_cfa_offset 48
  70:D:/fchai/work/i-cube/I-CUBE-HUAWEI/Middlewares/Third_Party/Huawei/iot_link/network/mqtt/paho_mqtt/paho/MQTTPacket/src\MQTTFormat.c **** 	int strindex = snprintf(strbuf, strbuflen,
 313              		.loc 1 70 1 view .LVU53
 314 0004 129C     		ldr	r4, [sp, #72]
 315              		.loc 1 71 17 view .LVU54
 316 0006 0F9D     		ldr	r5, [sp, #60]
 317 0008 0594     		str	r4, [sp, #20]
 318 000a 142C     		cmp	r4, #20
 319 000c A8BF     		it	ge
 320 000e 1424     		movge	r4, #20
 321 0010 142D     		cmp	r5, #20
 322 0012 A8BF     		it	ge
 323 0014 1425     		movge	r5, #20
  70:D:/fchai/work/i-cube/I-CUBE-HUAWEI/Middlewares/Third_Party/Huawei/iot_link/network/mqtt/paho_mqtt/paho/MQTTPacket/src\MQTTFormat.c **** 	int strindex = snprintf(strbuf, strbuflen,
 324              		.loc 1 70 1 view .LVU55
 325 0016 9DF83060 		ldrb	r6, [sp, #48]	@ zero_extendqisi2
 326              		.loc 1 71 17 view .LVU56
 327 001a 0093     		str	r3, [sp]
 328 001c 0694     		str	r4, [sp, #24]
  70:D:/fchai/work/i-cube/I-CUBE-HUAWEI/Middlewares/Third_Party/Huawei/iot_link/network/mqtt/paho_mqtt/paho/MQTTPacket/src\MQTTFormat.c **** 	int strindex = snprintf(strbuf, strbuflen,
 329              		.loc 1 70 1 view .LVU57
 330 001e BDF83430 		ldrh	r3, [sp, #52]
 331              	.LVL21:
 332              		.loc 1 71 17 view .LVU58
 333 0022 109C     		ldr	r4, [sp, #64]
 334 0024 0395     		str	r5, [sp, #12]
  70:D:/fchai/work/i-cube/I-CUBE-HUAWEI/Middlewares/Third_Party/Huawei/iot_link/network/mqtt/paho_mqtt/paho/MQTTPacket/src\MQTTFormat.c **** 	int strindex = snprintf(strbuf, strbuflen,
 335              		.loc 1 70 1 view .LVU59
ARM GAS  T:\msys\tmp\ccgwNYp2.s 			page 9


 336 0026 119D     		ldr	r5, [sp, #68]
 337              		.loc 1 71 17 view .LVU60
 338 0028 0293     		str	r3, [sp, #8]
 339 002a 0196     		str	r6, [sp, #4]
 340 002c 1346     		mov	r3, r2
 341 002e 0795     		str	r5, [sp, #28]
 342 0030 024A     		ldr	r2, .L30
 343              	.LVL22:
 344              		.loc 1 71 17 view .LVU61
 345 0032 0494     		str	r4, [sp, #16]
 346 0034 FFF7FEFF 		bl	snprintf
 347              	.LVL23:
  72:D:/fchai/work/i-cube/I-CUBE-HUAWEI/Middlewares/Third_Party/Huawei/iot_link/network/mqtt/paho_mqtt/paho/MQTTPacket/src\MQTTFormat.c **** 				"PUBLISH dup %d, QoS %d, retained %d, packet id %d, topic %.*s, payload length %d, payload %.*s
  73:D:/fchai/work/i-cube/I-CUBE-HUAWEI/Middlewares/Third_Party/Huawei/iot_link/network/mqtt/paho_mqtt/paho/MQTTPacket/src\MQTTFormat.c **** 				dup, qos, retained, packetid,
  74:D:/fchai/work/i-cube/I-CUBE-HUAWEI/Middlewares/Third_Party/Huawei/iot_link/network/mqtt/paho_mqtt/paho/MQTTPacket/src\MQTTFormat.c **** 				(topicName.lenstring.len < 20) ? topicName.lenstring.len : 20, topicName.lenstring.data,
  75:D:/fchai/work/i-cube/I-CUBE-HUAWEI/Middlewares/Third_Party/Huawei/iot_link/network/mqtt/paho_mqtt/paho/MQTTPacket/src\MQTTFormat.c **** 				payloadlen, (payloadlen < 20) ? payloadlen : 20, payload);
  76:D:/fchai/work/i-cube/I-CUBE-HUAWEI/Middlewares/Third_Party/Huawei/iot_link/network/mqtt/paho_mqtt/paho/MQTTPacket/src\MQTTFormat.c **** 	return strindex;
 348              		.loc 1 76 2 is_stmt 1 view .LVU62
  77:D:/fchai/work/i-cube/I-CUBE-HUAWEI/Middlewares/Third_Party/Huawei/iot_link/network/mqtt/paho_mqtt/paho/MQTTPacket/src\MQTTFormat.c **** }
 349              		.loc 1 77 1 is_stmt 0 view .LVU63
 350 0038 08B0     		add	sp, sp, #32
 351              	.LCFI11:
 352              		.cfi_def_cfa_offset 16
 353              		@ sp needed
 354 003a 70BD     		pop	{r4, r5, r6, pc}
 355              	.LVL24:
 356              	.L31:
 357              		.loc 1 77 1 view .LVU64
 358              		.align	2
 359              	.L30:
 360 003c 00000000 		.word	.LC5
 361              		.cfi_endproc
 362              	.LFE6:
 364              		.section	.rodata.MQTTStringFormat_ack.str1.4,"aMS",%progbits,1
 365              		.align	2
 366              	.LC6:
 367 0000 25732C20 		.ascii	"%s, packet id %d\000"
 367      7061636B 
 367      65742069 
 367      64202564 
 367      00
 368 0011 000000   		.align	2
 369              	.LC7:
 370 0014 2C206475 		.ascii	", dup %d\000"
 370      70202564 
 370      00
 371              		.section	.text.MQTTStringFormat_ack,"ax",%progbits
 372              		.align	1
 373              		.p2align 2,,3
 374              		.global	MQTTStringFormat_ack
 375              		.syntax unified
 376              		.thumb
 377              		.thumb_func
 378              		.fpu fpv4-sp-d16
 380              	MQTTStringFormat_ack:
 381              	.LVL25:
 382              	.LFB7:
ARM GAS  T:\msys\tmp\ccgwNYp2.s 			page 10


  78:D:/fchai/work/i-cube/I-CUBE-HUAWEI/Middlewares/Third_Party/Huawei/iot_link/network/mqtt/paho_mqtt/paho/MQTTPacket/src\MQTTFormat.c **** 
  79:D:/fchai/work/i-cube/I-CUBE-HUAWEI/Middlewares/Third_Party/Huawei/iot_link/network/mqtt/paho_mqtt/paho/MQTTPacket/src\MQTTFormat.c **** 
  80:D:/fchai/work/i-cube/I-CUBE-HUAWEI/Middlewares/Third_Party/Huawei/iot_link/network/mqtt/paho_mqtt/paho/MQTTPacket/src\MQTTFormat.c **** int MQTTStringFormat_ack(char* strbuf, int strbuflen, unsigned char packettype, unsigned char dup, 
  81:D:/fchai/work/i-cube/I-CUBE-HUAWEI/Middlewares/Third_Party/Huawei/iot_link/network/mqtt/paho_mqtt/paho/MQTTPacket/src\MQTTFormat.c **** {
 383              		.loc 1 81 1 is_stmt 1 view -0
 384              		.cfi_startproc
 385              		@ args = 4, pretend = 0, frame = 0
 386              		@ frame_needed = 0, uses_anonymous_args = 0
  82:D:/fchai/work/i-cube/I-CUBE-HUAWEI/Middlewares/Third_Party/Huawei/iot_link/network/mqtt/paho_mqtt/paho/MQTTPacket/src\MQTTFormat.c **** 	int strindex = snprintf(strbuf, strbuflen, "%s, packet id %d", MQTTPacket_names[packettype], packe
 387              		.loc 1 82 2 view .LVU66
  81:D:/fchai/work/i-cube/I-CUBE-HUAWEI/Middlewares/Third_Party/Huawei/iot_link/network/mqtt/paho_mqtt/paho/MQTTPacket/src\MQTTFormat.c **** 	int strindex = snprintf(strbuf, strbuflen, "%s, packet id %d", MQTTPacket_names[packettype], packe
 388              		.loc 1 81 1 is_stmt 0 view .LVU67
 389 0000 F0B5     		push	{r4, r5, r6, r7, lr}
 390              	.LCFI12:
 391              		.cfi_def_cfa_offset 20
 392              		.cfi_offset 4, -20
 393              		.cfi_offset 5, -16
 394              		.cfi_offset 6, -12
 395              		.cfi_offset 7, -8
 396              		.cfi_offset 14, -4
 397 0002 83B0     		sub	sp, sp, #12
 398              	.LCFI13:
 399              		.cfi_def_cfa_offset 32
 400              		.loc 1 82 17 view .LVU68
 401 0004 0D4C     		ldr	r4, .L39
  81:D:/fchai/work/i-cube/I-CUBE-HUAWEI/Middlewares/Third_Party/Huawei/iot_link/network/mqtt/paho_mqtt/paho/MQTTPacket/src\MQTTFormat.c **** 	int strindex = snprintf(strbuf, strbuflen, "%s, packet id %d", MQTTPacket_names[packettype], packe
 402              		.loc 1 81 1 view .LVU69
 403 0006 BDF82050 		ldrh	r5, [sp, #32]
 404              		.loc 1 82 17 view .LVU70
 405 000a 0095     		str	r5, [sp]
  81:D:/fchai/work/i-cube/I-CUBE-HUAWEI/Middlewares/Third_Party/Huawei/iot_link/network/mqtt/paho_mqtt/paho/MQTTPacket/src\MQTTFormat.c **** 	int strindex = snprintf(strbuf, strbuflen, "%s, packet id %d", MQTTPacket_names[packettype], packe
 406              		.loc 1 81 1 view .LVU71
 407 000c 1D46     		mov	r5, r3
 408              		.loc 1 82 17 view .LVU72
 409 000e 54F82230 		ldr	r3, [r4, r2, lsl #2]
 410              	.LVL26:
 411              		.loc 1 82 17 view .LVU73
 412 0012 0B4A     		ldr	r2, .L39+4
 413              	.LVL27:
  81:D:/fchai/work/i-cube/I-CUBE-HUAWEI/Middlewares/Third_Party/Huawei/iot_link/network/mqtt/paho_mqtt/paho/MQTTPacket/src\MQTTFormat.c **** 	int strindex = snprintf(strbuf, strbuflen, "%s, packet id %d", MQTTPacket_names[packettype], packe
 414              		.loc 1 81 1 view .LVU74
 415 0014 0646     		mov	r6, r0
 416 0016 0F46     		mov	r7, r1
 417              		.loc 1 82 17 view .LVU75
 418 0018 FFF7FEFF 		bl	snprintf
 419              	.LVL28:
 420              		.loc 1 82 17 view .LVU76
 421 001c 0446     		mov	r4, r0
 422              	.LVL29:
  83:D:/fchai/work/i-cube/I-CUBE-HUAWEI/Middlewares/Third_Party/Huawei/iot_link/network/mqtt/paho_mqtt/paho/MQTTPacket/src\MQTTFormat.c **** 	if (dup)
 423              		.loc 1 83 2 is_stmt 1 view .LVU77
 424              		.loc 1 83 5 is_stmt 0 view .LVU78
 425 001e 15B9     		cbnz	r5, .L38
  84:D:/fchai/work/i-cube/I-CUBE-HUAWEI/Middlewares/Third_Party/Huawei/iot_link/network/mqtt/paho_mqtt/paho/MQTTPacket/src\MQTTFormat.c **** 		strindex += snprintf(strbuf + strindex, strbuflen - strindex, ", dup %d", dup);
  85:D:/fchai/work/i-cube/I-CUBE-HUAWEI/Middlewares/Third_Party/Huawei/iot_link/network/mqtt/paho_mqtt/paho/MQTTPacket/src\MQTTFormat.c **** 	return strindex;
  86:D:/fchai/work/i-cube/I-CUBE-HUAWEI/Middlewares/Third_Party/Huawei/iot_link/network/mqtt/paho_mqtt/paho/MQTTPacket/src\MQTTFormat.c **** }
 426              		.loc 1 86 1 view .LVU79
ARM GAS  T:\msys\tmp\ccgwNYp2.s 			page 11


 427 0020 2046     		mov	r0, r4
 428              		.loc 1 86 1 view .LVU80
 429 0022 03B0     		add	sp, sp, #12
 430              	.LCFI14:
 431              		.cfi_remember_state
 432              		.cfi_def_cfa_offset 20
 433              		@ sp needed
 434 0024 F0BD     		pop	{r4, r5, r6, r7, pc}
 435              	.LVL30:
 436              	.L38:
 437              	.LCFI15:
 438              		.cfi_restore_state
  84:D:/fchai/work/i-cube/I-CUBE-HUAWEI/Middlewares/Third_Party/Huawei/iot_link/network/mqtt/paho_mqtt/paho/MQTTPacket/src\MQTTFormat.c **** 		strindex += snprintf(strbuf + strindex, strbuflen - strindex, ", dup %d", dup);
 439              		.loc 1 84 3 is_stmt 1 view .LVU81
  84:D:/fchai/work/i-cube/I-CUBE-HUAWEI/Middlewares/Third_Party/Huawei/iot_link/network/mqtt/paho_mqtt/paho/MQTTPacket/src\MQTTFormat.c **** 		strindex += snprintf(strbuf + strindex, strbuflen - strindex, ", dup %d", dup);
 440              		.loc 1 84 15 is_stmt 0 view .LVU82
 441 0026 391A     		subs	r1, r7, r0
 442 0028 064A     		ldr	r2, .L39+8
 443 002a 2B46     		mov	r3, r5
 444 002c 3018     		adds	r0, r6, r0
 445              	.LVL31:
  84:D:/fchai/work/i-cube/I-CUBE-HUAWEI/Middlewares/Third_Party/Huawei/iot_link/network/mqtt/paho_mqtt/paho/MQTTPacket/src\MQTTFormat.c **** 		strindex += snprintf(strbuf + strindex, strbuflen - strindex, ", dup %d", dup);
 446              		.loc 1 84 15 view .LVU83
 447 002e FFF7FEFF 		bl	snprintf
 448              	.LVL32:
  84:D:/fchai/work/i-cube/I-CUBE-HUAWEI/Middlewares/Third_Party/Huawei/iot_link/network/mqtt/paho_mqtt/paho/MQTTPacket/src\MQTTFormat.c **** 		strindex += snprintf(strbuf + strindex, strbuflen - strindex, ", dup %d", dup);
 449              		.loc 1 84 12 view .LVU84
 450 0032 0444     		add	r4, r4, r0
 451              	.LVL33:
  85:D:/fchai/work/i-cube/I-CUBE-HUAWEI/Middlewares/Third_Party/Huawei/iot_link/network/mqtt/paho_mqtt/paho/MQTTPacket/src\MQTTFormat.c **** }
 452              		.loc 1 85 2 is_stmt 1 view .LVU85
 453              		.loc 1 86 1 is_stmt 0 view .LVU86
 454 0034 2046     		mov	r0, r4
 455 0036 03B0     		add	sp, sp, #12
 456              	.LCFI16:
 457              		.cfi_def_cfa_offset 20
 458              		@ sp needed
 459 0038 F0BD     		pop	{r4, r5, r6, r7, pc}
 460              	.LVL34:
 461              	.L40:
 462              		.loc 1 86 1 view .LVU87
 463 003a 00BF     		.align	2
 464              	.L39:
 465 003c 00000000 		.word	.LANCHOR0
 466 0040 00000000 		.word	.LC6
 467 0044 14000000 		.word	.LC7
 468              		.cfi_endproc
 469              	.LFE7:
 471              		.section	.rodata.MQTTStringFormat_subscribe.str1.4,"aMS",%progbits,1
 472              		.align	2
 473              	.LC8:
 474 0000 53554253 		.ascii	"SUBSCRIBE dup %d, packet id %d count %d topic %.*s "
 474      43524942 
 474      45206475 
 474      70202564 
 474      2C207061 
 475 0033 716F7320 		.ascii	"qos %d\000"
ARM GAS  T:\msys\tmp\ccgwNYp2.s 			page 12


 475      256400
 476              		.section	.text.MQTTStringFormat_subscribe,"ax",%progbits
 477              		.align	1
 478              		.p2align 2,,3
 479              		.global	MQTTStringFormat_subscribe
 480              		.syntax unified
 481              		.thumb
 482              		.thumb_func
 483              		.fpu fpv4-sp-d16
 485              	MQTTStringFormat_subscribe:
 486              	.LVL35:
 487              	.LFB8:
  87:D:/fchai/work/i-cube/I-CUBE-HUAWEI/Middlewares/Third_Party/Huawei/iot_link/network/mqtt/paho_mqtt/paho/MQTTPacket/src\MQTTFormat.c **** 
  88:D:/fchai/work/i-cube/I-CUBE-HUAWEI/Middlewares/Third_Party/Huawei/iot_link/network/mqtt/paho_mqtt/paho/MQTTPacket/src\MQTTFormat.c **** 
  89:D:/fchai/work/i-cube/I-CUBE-HUAWEI/Middlewares/Third_Party/Huawei/iot_link/network/mqtt/paho_mqtt/paho/MQTTPacket/src\MQTTFormat.c **** int MQTTStringFormat_subscribe(char* strbuf, int strbuflen, unsigned char dup, unsigned short packe
  90:D:/fchai/work/i-cube/I-CUBE-HUAWEI/Middlewares/Third_Party/Huawei/iot_link/network/mqtt/paho_mqtt/paho/MQTTPacket/src\MQTTFormat.c **** 		MQTTString topicFilters[], int requestedQoSs[])
  91:D:/fchai/work/i-cube/I-CUBE-HUAWEI/Middlewares/Third_Party/Huawei/iot_link/network/mqtt/paho_mqtt/paho/MQTTPacket/src\MQTTFormat.c **** {
 488              		.loc 1 91 1 is_stmt 1 view -0
 489              		.cfi_startproc
 490              		@ args = 12, pretend = 0, frame = 0
 491              		@ frame_needed = 0, uses_anonymous_args = 0
  92:D:/fchai/work/i-cube/I-CUBE-HUAWEI/Middlewares/Third_Party/Huawei/iot_link/network/mqtt/paho_mqtt/paho/MQTTPacket/src\MQTTFormat.c **** 	return snprintf(strbuf, strbuflen,
 492              		.loc 1 92 2 view .LVU89
  91:D:/fchai/work/i-cube/I-CUBE-HUAWEI/Middlewares/Third_Party/Huawei/iot_link/network/mqtt/paho_mqtt/paho/MQTTPacket/src\MQTTFormat.c **** 	return snprintf(strbuf, strbuflen,
 493              		.loc 1 91 1 is_stmt 0 view .LVU90
 494 0000 F0B5     		push	{r4, r5, r6, r7, lr}
 495              	.LCFI17:
 496              		.cfi_def_cfa_offset 20
 497              		.cfi_offset 4, -20
 498              		.cfi_offset 5, -16
 499              		.cfi_offset 6, -12
 500              		.cfi_offset 7, -8
 501              		.cfi_offset 14, -4
 502 0002 87B0     		sub	sp, sp, #28
 503              	.LCFI18:
 504              		.cfi_def_cfa_offset 48
  91:D:/fchai/work/i-cube/I-CUBE-HUAWEI/Middlewares/Third_Party/Huawei/iot_link/network/mqtt/paho_mqtt/paho/MQTTPacket/src\MQTTFormat.c **** 	return snprintf(strbuf, strbuflen,
 505              		.loc 1 91 1 view .LVU91
 506 0004 DDE90D45 		ldrd	r4, r5, [sp, #52]
 507              		.loc 1 92 9 view .LVU92
 508 0008 D4E90167 		ldrd	r6, r7, [r4, #4]
 509 000c 2D68     		ldr	r5, [r5]
  91:D:/fchai/work/i-cube/I-CUBE-HUAWEI/Middlewares/Third_Party/Huawei/iot_link/network/mqtt/paho_mqtt/paho/MQTTPacket/src\MQTTFormat.c **** 	return snprintf(strbuf, strbuflen,
 510              		.loc 1 91 1 view .LVU93
 511 000e 0C9C     		ldr	r4, [sp, #48]
 512              		.loc 1 92 9 view .LVU94
 513 0010 0093     		str	r3, [sp]
 514 0012 0397     		str	r7, [sp, #12]
 515 0014 1346     		mov	r3, r2
 516              	.LVL36:
 517              		.loc 1 92 9 view .LVU95
 518 0016 0296     		str	r6, [sp, #8]
 519 0018 034A     		ldr	r2, .L43
 520              	.LVL37:
 521              		.loc 1 92 9 view .LVU96
 522 001a 0495     		str	r5, [sp, #16]
 523 001c 0194     		str	r4, [sp, #4]
ARM GAS  T:\msys\tmp\ccgwNYp2.s 			page 13


 524 001e FFF7FEFF 		bl	snprintf
 525              	.LVL38:
  93:D:/fchai/work/i-cube/I-CUBE-HUAWEI/Middlewares/Third_Party/Huawei/iot_link/network/mqtt/paho_mqtt/paho/MQTTPacket/src\MQTTFormat.c **** 		"SUBSCRIBE dup %d, packet id %d count %d topic %.*s qos %d",
  94:D:/fchai/work/i-cube/I-CUBE-HUAWEI/Middlewares/Third_Party/Huawei/iot_link/network/mqtt/paho_mqtt/paho/MQTTPacket/src\MQTTFormat.c **** 		dup, packetid, count,
  95:D:/fchai/work/i-cube/I-CUBE-HUAWEI/Middlewares/Third_Party/Huawei/iot_link/network/mqtt/paho_mqtt/paho/MQTTPacket/src\MQTTFormat.c **** 		topicFilters[0].lenstring.len, topicFilters[0].lenstring.data,
  96:D:/fchai/work/i-cube/I-CUBE-HUAWEI/Middlewares/Third_Party/Huawei/iot_link/network/mqtt/paho_mqtt/paho/MQTTPacket/src\MQTTFormat.c **** 		requestedQoSs[0]);
  97:D:/fchai/work/i-cube/I-CUBE-HUAWEI/Middlewares/Third_Party/Huawei/iot_link/network/mqtt/paho_mqtt/paho/MQTTPacket/src\MQTTFormat.c **** }
 526              		.loc 1 97 1 view .LVU97
 527 0022 07B0     		add	sp, sp, #28
 528              	.LCFI19:
 529              		.cfi_def_cfa_offset 20
 530              		@ sp needed
 531 0024 F0BD     		pop	{r4, r5, r6, r7, pc}
 532              	.LVL39:
 533              	.L44:
 534              		.loc 1 97 1 view .LVU98
 535 0026 00BF     		.align	2
 536              	.L43:
 537 0028 00000000 		.word	.LC8
 538              		.cfi_endproc
 539              	.LFE8:
 541              		.section	.rodata.MQTTStringFormat_suback.str1.4,"aMS",%progbits,1
 542              		.align	2
 543              	.LC9:
 544 0000 53554241 		.ascii	"SUBACK packet id %d count %d granted qos %d\000"
 544      434B2070 
 544      61636B65 
 544      74206964 
 544      20256420 
 545              		.section	.text.MQTTStringFormat_suback,"ax",%progbits
 546              		.align	1
 547              		.p2align 2,,3
 548              		.global	MQTTStringFormat_suback
 549              		.syntax unified
 550              		.thumb
 551              		.thumb_func
 552              		.fpu fpv4-sp-d16
 554              	MQTTStringFormat_suback:
 555              	.LVL40:
 556              	.LFB9:
  98:D:/fchai/work/i-cube/I-CUBE-HUAWEI/Middlewares/Third_Party/Huawei/iot_link/network/mqtt/paho_mqtt/paho/MQTTPacket/src\MQTTFormat.c **** 
  99:D:/fchai/work/i-cube/I-CUBE-HUAWEI/Middlewares/Third_Party/Huawei/iot_link/network/mqtt/paho_mqtt/paho/MQTTPacket/src\MQTTFormat.c **** 
 100:D:/fchai/work/i-cube/I-CUBE-HUAWEI/Middlewares/Third_Party/Huawei/iot_link/network/mqtt/paho_mqtt/paho/MQTTPacket/src\MQTTFormat.c **** int MQTTStringFormat_suback(char* strbuf, int strbuflen, unsigned short packetid, int count, int* g
 101:D:/fchai/work/i-cube/I-CUBE-HUAWEI/Middlewares/Third_Party/Huawei/iot_link/network/mqtt/paho_mqtt/paho/MQTTPacket/src\MQTTFormat.c **** {
 557              		.loc 1 101 1 is_stmt 1 view -0
 558              		.cfi_startproc
 559              		@ args = 4, pretend = 0, frame = 0
 560              		@ frame_needed = 0, uses_anonymous_args = 0
 102:D:/fchai/work/i-cube/I-CUBE-HUAWEI/Middlewares/Third_Party/Huawei/iot_link/network/mqtt/paho_mqtt/paho/MQTTPacket/src\MQTTFormat.c **** 	return snprintf(strbuf, strbuflen,
 561              		.loc 1 102 2 view .LVU100
 101:D:/fchai/work/i-cube/I-CUBE-HUAWEI/Middlewares/Third_Party/Huawei/iot_link/network/mqtt/paho_mqtt/paho/MQTTPacket/src\MQTTFormat.c **** 	return snprintf(strbuf, strbuflen,
 562              		.loc 1 101 1 is_stmt 0 view .LVU101
 563 0000 10B5     		push	{r4, lr}
 564              	.LCFI20:
 565              		.cfi_def_cfa_offset 8
 566              		.cfi_offset 4, -8
 567              		.cfi_offset 14, -4
ARM GAS  T:\msys\tmp\ccgwNYp2.s 			page 14


 568 0002 82B0     		sub	sp, sp, #8
 569              	.LCFI21:
 570              		.cfi_def_cfa_offset 16
 101:D:/fchai/work/i-cube/I-CUBE-HUAWEI/Middlewares/Third_Party/Huawei/iot_link/network/mqtt/paho_mqtt/paho/MQTTPacket/src\MQTTFormat.c **** 	return snprintf(strbuf, strbuflen,
 571              		.loc 1 101 1 view .LVU102
 572 0004 049C     		ldr	r4, [sp, #16]
 573              		.loc 1 102 9 view .LVU103
 574 0006 2468     		ldr	r4, [r4]
 575 0008 0194     		str	r4, [sp, #4]
 576 000a 0093     		str	r3, [sp]
 577 000c 1346     		mov	r3, r2
 578              	.LVL41:
 579              		.loc 1 102 9 view .LVU104
 580 000e 024A     		ldr	r2, .L47
 581              	.LVL42:
 582              		.loc 1 102 9 view .LVU105
 583 0010 FFF7FEFF 		bl	snprintf
 584              	.LVL43:
 103:D:/fchai/work/i-cube/I-CUBE-HUAWEI/Middlewares/Third_Party/Huawei/iot_link/network/mqtt/paho_mqtt/paho/MQTTPacket/src\MQTTFormat.c **** 		"SUBACK packet id %d count %d granted qos %d", packetid, count, grantedQoSs[0]);
 104:D:/fchai/work/i-cube/I-CUBE-HUAWEI/Middlewares/Third_Party/Huawei/iot_link/network/mqtt/paho_mqtt/paho/MQTTPacket/src\MQTTFormat.c **** }
 585              		.loc 1 104 1 view .LVU106
 586 0014 02B0     		add	sp, sp, #8
 587              	.LCFI22:
 588              		.cfi_def_cfa_offset 8
 589              		@ sp needed
 590 0016 10BD     		pop	{r4, pc}
 591              	.LVL44:
 592              	.L48:
 593              		.loc 1 104 1 view .LVU107
 594              		.align	2
 595              	.L47:
 596 0018 00000000 		.word	.LC9
 597              		.cfi_endproc
 598              	.LFE9:
 600              		.section	.rodata.MQTTStringFormat_unsubscribe.str1.4,"aMS",%progbits,1
 601              		.align	2
 602              	.LC10:
 603 0000 554E5355 		.ascii	"UNSUBSCRIBE dup %d, packet id %d count %d topic %.*"
 603      42534352 
 603      49424520 
 603      64757020 
 603      25642C20 
 604 0033 7300     		.ascii	"s\000"
 605              		.section	.text.MQTTStringFormat_unsubscribe,"ax",%progbits
 606              		.align	1
 607              		.p2align 2,,3
 608              		.global	MQTTStringFormat_unsubscribe
 609              		.syntax unified
 610              		.thumb
 611              		.thumb_func
 612              		.fpu fpv4-sp-d16
 614              	MQTTStringFormat_unsubscribe:
 615              	.LVL45:
 616              	.LFB10:
 105:D:/fchai/work/i-cube/I-CUBE-HUAWEI/Middlewares/Third_Party/Huawei/iot_link/network/mqtt/paho_mqtt/paho/MQTTPacket/src\MQTTFormat.c **** 
 106:D:/fchai/work/i-cube/I-CUBE-HUAWEI/Middlewares/Third_Party/Huawei/iot_link/network/mqtt/paho_mqtt/paho/MQTTPacket/src\MQTTFormat.c **** 
 107:D:/fchai/work/i-cube/I-CUBE-HUAWEI/Middlewares/Third_Party/Huawei/iot_link/network/mqtt/paho_mqtt/paho/MQTTPacket/src\MQTTFormat.c **** int MQTTStringFormat_unsubscribe(char* strbuf, int strbuflen, unsigned char dup, unsigned short pac
ARM GAS  T:\msys\tmp\ccgwNYp2.s 			page 15


 108:D:/fchai/work/i-cube/I-CUBE-HUAWEI/Middlewares/Third_Party/Huawei/iot_link/network/mqtt/paho_mqtt/paho/MQTTPacket/src\MQTTFormat.c **** 		int count, MQTTString topicFilters[])
 109:D:/fchai/work/i-cube/I-CUBE-HUAWEI/Middlewares/Third_Party/Huawei/iot_link/network/mqtt/paho_mqtt/paho/MQTTPacket/src\MQTTFormat.c **** {
 617              		.loc 1 109 1 is_stmt 1 view -0
 618              		.cfi_startproc
 619              		@ args = 8, pretend = 0, frame = 0
 620              		@ frame_needed = 0, uses_anonymous_args = 0
 110:D:/fchai/work/i-cube/I-CUBE-HUAWEI/Middlewares/Third_Party/Huawei/iot_link/network/mqtt/paho_mqtt/paho/MQTTPacket/src\MQTTFormat.c **** 	return snprintf(strbuf, strbuflen,
 621              		.loc 1 110 2 view .LVU109
 109:D:/fchai/work/i-cube/I-CUBE-HUAWEI/Middlewares/Third_Party/Huawei/iot_link/network/mqtt/paho_mqtt/paho/MQTTPacket/src\MQTTFormat.c **** 	return snprintf(strbuf, strbuflen,
 622              		.loc 1 109 1 is_stmt 0 view .LVU110
 623 0000 30B5     		push	{r4, r5, lr}
 624              	.LCFI23:
 625              		.cfi_def_cfa_offset 12
 626              		.cfi_offset 4, -12
 627              		.cfi_offset 5, -8
 628              		.cfi_offset 14, -4
 629 0002 85B0     		sub	sp, sp, #20
 630              	.LCFI24:
 631              		.cfi_def_cfa_offset 32
 109:D:/fchai/work/i-cube/I-CUBE-HUAWEI/Middlewares/Third_Party/Huawei/iot_link/network/mqtt/paho_mqtt/paho/MQTTPacket/src\MQTTFormat.c **** 	return snprintf(strbuf, strbuflen,
 632              		.loc 1 109 1 view .LVU111
 633 0004 DDE90854 		ldrd	r5, r4, [sp, #32]
 634              		.loc 1 110 9 view .LVU112
 635 0008 0195     		str	r5, [sp, #4]
 636 000a D4E90145 		ldrd	r4, r5, [r4, #4]
 637 000e 0093     		str	r3, [sp]
 638 0010 CDE90245 		strd	r4, r5, [sp, #8]
 639 0014 1346     		mov	r3, r2
 640              	.LVL46:
 641              		.loc 1 110 9 view .LVU113
 642 0016 024A     		ldr	r2, .L51
 643              	.LVL47:
 644              		.loc 1 110 9 view .LVU114
 645 0018 FFF7FEFF 		bl	snprintf
 646              	.LVL48:
 111:D:/fchai/work/i-cube/I-CUBE-HUAWEI/Middlewares/Third_Party/Huawei/iot_link/network/mqtt/paho_mqtt/paho/MQTTPacket/src\MQTTFormat.c **** 					"UNSUBSCRIBE dup %d, packet id %d count %d topic %.*s",
 112:D:/fchai/work/i-cube/I-CUBE-HUAWEI/Middlewares/Third_Party/Huawei/iot_link/network/mqtt/paho_mqtt/paho/MQTTPacket/src\MQTTFormat.c **** 					dup, packetid, count,
 113:D:/fchai/work/i-cube/I-CUBE-HUAWEI/Middlewares/Third_Party/Huawei/iot_link/network/mqtt/paho_mqtt/paho/MQTTPacket/src\MQTTFormat.c **** 					topicFilters[0].lenstring.len, topicFilters[0].lenstring.data);
 114:D:/fchai/work/i-cube/I-CUBE-HUAWEI/Middlewares/Third_Party/Huawei/iot_link/network/mqtt/paho_mqtt/paho/MQTTPacket/src\MQTTFormat.c **** }
 647              		.loc 1 114 1 view .LVU115
 648 001c 05B0     		add	sp, sp, #20
 649              	.LCFI25:
 650              		.cfi_def_cfa_offset 12
 651              		@ sp needed
 652 001e 30BD     		pop	{r4, r5, pc}
 653              	.LVL49:
 654              	.L52:
 655              		.loc 1 114 1 view .LVU116
 656              		.align	2
 657              	.L51:
 658 0020 00000000 		.word	.LC10
 659              		.cfi_endproc
 660              	.LFE10:
 662              		.global	MQTTPacket_names
 663              		.section	.rodata.str1.4,"aMS",%progbits,1
 664              		.align	2
 665              	.LC11:
ARM GAS  T:\msys\tmp\ccgwNYp2.s 			page 16


 666 0000 52455345 		.ascii	"RESERVED\000"
 666      52564544 
 666      00
 667 0009 000000   		.align	2
 668              	.LC12:
 669 000c 434F4E4E 		.ascii	"CONNECT\000"
 669      45435400 
 670              		.align	2
 671              	.LC13:
 672 0014 434F4E4E 		.ascii	"CONNACK\000"
 672      41434B00 
 673              		.align	2
 674              	.LC14:
 675 001c 5055424C 		.ascii	"PUBLISH\000"
 675      49534800 
 676              		.align	2
 677              	.LC15:
 678 0024 50554241 		.ascii	"PUBACK\000"
 678      434B00
 679 002b 00       		.align	2
 680              	.LC16:
 681 002c 50554252 		.ascii	"PUBREC\000"
 681      454300
 682 0033 00       		.align	2
 683              	.LC17:
 684 0034 50554252 		.ascii	"PUBREL\000"
 684      454C00
 685 003b 00       		.align	2
 686              	.LC18:
 687 003c 50554243 		.ascii	"PUBCOMP\000"
 687      4F4D5000 
 688              		.align	2
 689              	.LC19:
 690 0044 53554253 		.ascii	"SUBSCRIBE\000"
 690      43524942 
 690      4500
 691 004e 0000     		.align	2
 692              	.LC20:
 693 0050 53554241 		.ascii	"SUBACK\000"
 693      434B00
 694 0057 00       		.align	2
 695              	.LC21:
 696 0058 554E5355 		.ascii	"UNSUBSCRIBE\000"
 696      42534352 
 696      49424500 
 697              		.align	2
 698              	.LC22:
 699 0064 554E5355 		.ascii	"UNSUBACK\000"
 699      4241434B 
 699      00
 700 006d 000000   		.align	2
 701              	.LC23:
 702 0070 50494E47 		.ascii	"PINGREQ\000"
 702      52455100 
 703              		.align	2
 704              	.LC24:
 705 0078 50494E47 		.ascii	"PINGRESP\000"
ARM GAS  T:\msys\tmp\ccgwNYp2.s 			page 17


 705      52455350 
 705      00
 706 0081 000000   		.align	2
 707              	.LC25:
 708 0084 44495343 		.ascii	"DISCONNECT\000"
 708      4F4E4E45 
 708      435400
 709              		.section	.data.MQTTPacket_names,"aw"
 710              		.align	2
 711              		.set	.LANCHOR0,. + 0
 714              	MQTTPacket_names:
 715 0000 00000000 		.word	.LC11
 716 0004 0C000000 		.word	.LC12
 717 0008 14000000 		.word	.LC13
 718 000c 1C000000 		.word	.LC14
 719 0010 24000000 		.word	.LC15
 720 0014 2C000000 		.word	.LC16
 721 0018 34000000 		.word	.LC17
 722 001c 3C000000 		.word	.LC18
 723 0020 44000000 		.word	.LC19
 724 0024 50000000 		.word	.LC20
 725 0028 58000000 		.word	.LC21
 726 002c 64000000 		.word	.LC22
 727 0030 70000000 		.word	.LC23
 728 0034 78000000 		.word	.LC24
 729 0038 84000000 		.word	.LC25
 730              		.text
 731              	.Letext0:
 732              		.file 2 "t:\\msys\\3rd\\gcc-arm-none-eabi-9-2020-q2-update-win32\\lib\\gcc\\arm-none-eabi\\9.3.1\\
 733              		.file 3 "t:\\msys\\3rd\\gcc-arm-none-eabi-9-2020-q2-update-win32\\arm-none-eabi\\include\\sys\\_ty
 734              		.file 4 "t:\\msys\\3rd\\gcc-arm-none-eabi-9-2020-q2-update-win32\\arm-none-eabi\\include\\sys\\ree
 735              		.file 5 "t:\\msys\\3rd\\gcc-arm-none-eabi-9-2020-q2-update-win32\\arm-none-eabi\\include\\sys\\loc
 736              		.file 6 "D:/fchai/work/i-cube/I-CUBE-HUAWEI/Middlewares/Third_Party/Huawei/iot_link/network/mqtt/p
 737              		.file 7 "D:/fchai/work/i-cube/I-CUBE-HUAWEI/Middlewares/Third_Party/Huawei/iot_link/network/mqtt/p
 738              		.file 8 "t:\\msys\\3rd\\gcc-arm-none-eabi-9-2020-q2-update-win32\\arm-none-eabi\\include\\stdio.h"
ARM GAS  T:\msys\tmp\ccgwNYp2.s 			page 18

