ARM GAS  T:\msys\tmp\ccuiVBP3.s 			page 1


   1              		.cpu cortex-m4
   2              		.eabi_attribute 27, 1
   3              		.eabi_attribute 28, 1
   4              		.eabi_attribute 20, 1
   5              		.eabi_attribute 21, 1
   6              		.eabi_attribute 23, 3
   7              		.eabi_attribute 24, 1
   8              		.eabi_attribute 25, 1
   9              		.eabi_attribute 26, 1
  10              		.eabi_attribute 30, 2
  11              		.eabi_attribute 34, 1
  12              		.eabi_attribute 18, 4
  13              		.file	"iks01a3_motion_sensors_ex.c"
  14              		.text
  15              	.Ltext0:
  16              		.cfi_sections	.debug_frame
  17              		.section	.text.IKS01A3_MOTION_SENSOR_Get_DRDY_Status,"ax",%progbits
  18              		.align	1
  19              		.p2align 2,,3
  20              		.global	IKS01A3_MOTION_SENSOR_Get_DRDY_Status
  21              		.arch armv7e-m
  22              		.syntax unified
  23              		.thumb
  24              		.thumb_func
  25              		.fpu fpv4-sp-d16
  27              	IKS01A3_MOTION_SENSOR_Get_DRDY_Status:
  28              	.LVL0:
  29              	.LFB123:
  30              		.file 1 "D:/fchai/work/i-cube/I-CUBE-HUAWEI/Drivers/BSP/IKS01A3/iks01a3_motion_sensors_ex.c"
   1:D:/fchai/work/i-cube/I-CUBE-HUAWEI/Drivers/BSP/IKS01A3\iks01a3_motion_sensors_ex.c **** /**
   2:D:/fchai/work/i-cube/I-CUBE-HUAWEI/Drivers/BSP/IKS01A3\iks01a3_motion_sensors_ex.c ****  ******************************************************************************
   3:D:/fchai/work/i-cube/I-CUBE-HUAWEI/Drivers/BSP/IKS01A3\iks01a3_motion_sensors_ex.c ****  * @file    iks01a3_motion_sensors_ex.c
   4:D:/fchai/work/i-cube/I-CUBE-HUAWEI/Drivers/BSP/IKS01A3\iks01a3_motion_sensors_ex.c ****  * @author  MEMS Software Solutions Team
   5:D:/fchai/work/i-cube/I-CUBE-HUAWEI/Drivers/BSP/IKS01A3\iks01a3_motion_sensors_ex.c ****  * @brief   This file provides a set of extended functions needed to manage the motion sensors
   6:D:/fchai/work/i-cube/I-CUBE-HUAWEI/Drivers/BSP/IKS01A3\iks01a3_motion_sensors_ex.c ****  ******************************************************************************
   7:D:/fchai/work/i-cube/I-CUBE-HUAWEI/Drivers/BSP/IKS01A3\iks01a3_motion_sensors_ex.c ****  * @attention
   8:D:/fchai/work/i-cube/I-CUBE-HUAWEI/Drivers/BSP/IKS01A3\iks01a3_motion_sensors_ex.c ****  *
   9:D:/fchai/work/i-cube/I-CUBE-HUAWEI/Drivers/BSP/IKS01A3\iks01a3_motion_sensors_ex.c ****  * <h2><center>&copy; Copyright (c) 2020 STMicroelectronics.
  10:D:/fchai/work/i-cube/I-CUBE-HUAWEI/Drivers/BSP/IKS01A3\iks01a3_motion_sensors_ex.c ****  * All rights reserved.</center></h2>
  11:D:/fchai/work/i-cube/I-CUBE-HUAWEI/Drivers/BSP/IKS01A3\iks01a3_motion_sensors_ex.c ****  *
  12:D:/fchai/work/i-cube/I-CUBE-HUAWEI/Drivers/BSP/IKS01A3\iks01a3_motion_sensors_ex.c ****  * This software component is licensed by ST under BSD 3-Clause license,
  13:D:/fchai/work/i-cube/I-CUBE-HUAWEI/Drivers/BSP/IKS01A3\iks01a3_motion_sensors_ex.c ****  * the "License"; You may not use this file except in compliance with the
  14:D:/fchai/work/i-cube/I-CUBE-HUAWEI/Drivers/BSP/IKS01A3\iks01a3_motion_sensors_ex.c ****  * License. You may obtain a copy of the License at:
  15:D:/fchai/work/i-cube/I-CUBE-HUAWEI/Drivers/BSP/IKS01A3\iks01a3_motion_sensors_ex.c ****  *                        opensource.org/licenses/BSD-3-Clause
  16:D:/fchai/work/i-cube/I-CUBE-HUAWEI/Drivers/BSP/IKS01A3\iks01a3_motion_sensors_ex.c ****  *
  17:D:/fchai/work/i-cube/I-CUBE-HUAWEI/Drivers/BSP/IKS01A3\iks01a3_motion_sensors_ex.c ****  ******************************************************************************
  18:D:/fchai/work/i-cube/I-CUBE-HUAWEI/Drivers/BSP/IKS01A3\iks01a3_motion_sensors_ex.c ****  */
  19:D:/fchai/work/i-cube/I-CUBE-HUAWEI/Drivers/BSP/IKS01A3\iks01a3_motion_sensors_ex.c **** 
  20:D:/fchai/work/i-cube/I-CUBE-HUAWEI/Drivers/BSP/IKS01A3\iks01a3_motion_sensors_ex.c **** /* Includes ------------------------------------------------------------------*/
  21:D:/fchai/work/i-cube/I-CUBE-HUAWEI/Drivers/BSP/IKS01A3\iks01a3_motion_sensors_ex.c **** #include "iks01a3_motion_sensors_ex.h"
  22:D:/fchai/work/i-cube/I-CUBE-HUAWEI/Drivers/BSP/IKS01A3\iks01a3_motion_sensors_ex.c **** 
  23:D:/fchai/work/i-cube/I-CUBE-HUAWEI/Drivers/BSP/IKS01A3\iks01a3_motion_sensors_ex.c **** /** @addtogroup BSP BSP
  24:D:/fchai/work/i-cube/I-CUBE-HUAWEI/Drivers/BSP/IKS01A3\iks01a3_motion_sensors_ex.c ****  * @{
  25:D:/fchai/work/i-cube/I-CUBE-HUAWEI/Drivers/BSP/IKS01A3\iks01a3_motion_sensors_ex.c ****  */
  26:D:/fchai/work/i-cube/I-CUBE-HUAWEI/Drivers/BSP/IKS01A3\iks01a3_motion_sensors_ex.c **** 
  27:D:/fchai/work/i-cube/I-CUBE-HUAWEI/Drivers/BSP/IKS01A3\iks01a3_motion_sensors_ex.c **** /** @addtogroup IKS01A3 IKS01A3
  28:D:/fchai/work/i-cube/I-CUBE-HUAWEI/Drivers/BSP/IKS01A3\iks01a3_motion_sensors_ex.c ****  * @{
ARM GAS  T:\msys\tmp\ccuiVBP3.s 			page 2


  29:D:/fchai/work/i-cube/I-CUBE-HUAWEI/Drivers/BSP/IKS01A3\iks01a3_motion_sensors_ex.c ****  */
  30:D:/fchai/work/i-cube/I-CUBE-HUAWEI/Drivers/BSP/IKS01A3\iks01a3_motion_sensors_ex.c **** 
  31:D:/fchai/work/i-cube/I-CUBE-HUAWEI/Drivers/BSP/IKS01A3\iks01a3_motion_sensors_ex.c **** /** @defgroup IKS01A3_MOTION_SENSOR_EX IKS01A3 MOTION SENSOR EX
  32:D:/fchai/work/i-cube/I-CUBE-HUAWEI/Drivers/BSP/IKS01A3\iks01a3_motion_sensors_ex.c ****  * @{
  33:D:/fchai/work/i-cube/I-CUBE-HUAWEI/Drivers/BSP/IKS01A3\iks01a3_motion_sensors_ex.c ****  */
  34:D:/fchai/work/i-cube/I-CUBE-HUAWEI/Drivers/BSP/IKS01A3\iks01a3_motion_sensors_ex.c **** 
  35:D:/fchai/work/i-cube/I-CUBE-HUAWEI/Drivers/BSP/IKS01A3\iks01a3_motion_sensors_ex.c **** /** @defgroup IKS01A3_MOTION_SENSOR_EX_Imported_Variables IKS01A3 MOTION SENSOR EX Imported Variabl
  36:D:/fchai/work/i-cube/I-CUBE-HUAWEI/Drivers/BSP/IKS01A3\iks01a3_motion_sensors_ex.c ****  * @{
  37:D:/fchai/work/i-cube/I-CUBE-HUAWEI/Drivers/BSP/IKS01A3\iks01a3_motion_sensors_ex.c ****  */
  38:D:/fchai/work/i-cube/I-CUBE-HUAWEI/Drivers/BSP/IKS01A3\iks01a3_motion_sensors_ex.c **** 
  39:D:/fchai/work/i-cube/I-CUBE-HUAWEI/Drivers/BSP/IKS01A3\iks01a3_motion_sensors_ex.c **** extern void *MotionCompObj[IKS01A3_MOTION_INSTANCES_NBR];
  40:D:/fchai/work/i-cube/I-CUBE-HUAWEI/Drivers/BSP/IKS01A3\iks01a3_motion_sensors_ex.c **** 
  41:D:/fchai/work/i-cube/I-CUBE-HUAWEI/Drivers/BSP/IKS01A3\iks01a3_motion_sensors_ex.c **** /**
  42:D:/fchai/work/i-cube/I-CUBE-HUAWEI/Drivers/BSP/IKS01A3\iks01a3_motion_sensors_ex.c ****  * @}
  43:D:/fchai/work/i-cube/I-CUBE-HUAWEI/Drivers/BSP/IKS01A3\iks01a3_motion_sensors_ex.c ****  */
  44:D:/fchai/work/i-cube/I-CUBE-HUAWEI/Drivers/BSP/IKS01A3\iks01a3_motion_sensors_ex.c **** 
  45:D:/fchai/work/i-cube/I-CUBE-HUAWEI/Drivers/BSP/IKS01A3\iks01a3_motion_sensors_ex.c **** /** @defgroup IKS01A3_MOTION_SENSOR_EX_Exported_Functions IKS01A3 MOTION SENSOR EX Exported Functio
  46:D:/fchai/work/i-cube/I-CUBE-HUAWEI/Drivers/BSP/IKS01A3\iks01a3_motion_sensors_ex.c ****  * @{
  47:D:/fchai/work/i-cube/I-CUBE-HUAWEI/Drivers/BSP/IKS01A3\iks01a3_motion_sensors_ex.c ****  */
  48:D:/fchai/work/i-cube/I-CUBE-HUAWEI/Drivers/BSP/IKS01A3\iks01a3_motion_sensors_ex.c **** 
  49:D:/fchai/work/i-cube/I-CUBE-HUAWEI/Drivers/BSP/IKS01A3\iks01a3_motion_sensors_ex.c **** /**
  50:D:/fchai/work/i-cube/I-CUBE-HUAWEI/Drivers/BSP/IKS01A3\iks01a3_motion_sensors_ex.c ****  * @brief  Get the status of data ready bit (available only for LSM6DSO, LIS2DW12, LIS2MDL, ASM330L
  51:D:/fchai/work/i-cube/I-CUBE-HUAWEI/Drivers/BSP/IKS01A3\iks01a3_motion_sensors_ex.c ****  * @param  Instance the device instance
  52:D:/fchai/work/i-cube/I-CUBE-HUAWEI/Drivers/BSP/IKS01A3\iks01a3_motion_sensors_ex.c ****  * @param  Function Motion sensor function. Could be:
  53:D:/fchai/work/i-cube/I-CUBE-HUAWEI/Drivers/BSP/IKS01A3\iks01a3_motion_sensors_ex.c ****  *         - MOTION_ACCELERO or MOTION_GYRO for instance IKS01A3_LSM6DSO_0
  54:D:/fchai/work/i-cube/I-CUBE-HUAWEI/Drivers/BSP/IKS01A3\iks01a3_motion_sensors_ex.c ****  *         - MOTION_ACCELERO for instance IKS01A3_LIS2DW12_0
  55:D:/fchai/work/i-cube/I-CUBE-HUAWEI/Drivers/BSP/IKS01A3\iks01a3_motion_sensors_ex.c ****  *         - MOTION_MAGNETO for instance IKS01A3_LIS2MDL_0
  56:D:/fchai/work/i-cube/I-CUBE-HUAWEI/Drivers/BSP/IKS01A3\iks01a3_motion_sensors_ex.c ****  * @param  Status the pointer to the status
  57:D:/fchai/work/i-cube/I-CUBE-HUAWEI/Drivers/BSP/IKS01A3\iks01a3_motion_sensors_ex.c ****  * @retval BSP status
  58:D:/fchai/work/i-cube/I-CUBE-HUAWEI/Drivers/BSP/IKS01A3\iks01a3_motion_sensors_ex.c ****  */
  59:D:/fchai/work/i-cube/I-CUBE-HUAWEI/Drivers/BSP/IKS01A3\iks01a3_motion_sensors_ex.c **** int32_t IKS01A3_MOTION_SENSOR_Get_DRDY_Status(uint32_t Instance, uint32_t Function, uint8_t *Status
  60:D:/fchai/work/i-cube/I-CUBE-HUAWEI/Drivers/BSP/IKS01A3\iks01a3_motion_sensors_ex.c **** {
  31              		.loc 1 60 1 view -0
  32              		.cfi_startproc
  33              		@ args = 0, pretend = 0, frame = 0
  34              		@ frame_needed = 0, uses_anonymous_args = 0
  61:D:/fchai/work/i-cube/I-CUBE-HUAWEI/Drivers/BSP/IKS01A3\iks01a3_motion_sensors_ex.c ****   int32_t ret;
  35              		.loc 1 61 3 view .LVU1
  62:D:/fchai/work/i-cube/I-CUBE-HUAWEI/Drivers/BSP/IKS01A3\iks01a3_motion_sensors_ex.c **** 
  63:D:/fchai/work/i-cube/I-CUBE-HUAWEI/Drivers/BSP/IKS01A3\iks01a3_motion_sensors_ex.c ****   switch (Instance)
  36              		.loc 1 63 3 view .LVU2
  37 0000 0128     		cmp	r0, #1
  60:D:/fchai/work/i-cube/I-CUBE-HUAWEI/Drivers/BSP/IKS01A3\iks01a3_motion_sensors_ex.c ****   int32_t ret;
  38              		.loc 1 60 1 is_stmt 0 view .LVU3
  39 0002 08B5     		push	{r3, lr}
  40              	.LCFI0:
  41              		.cfi_def_cfa_offset 8
  42              		.cfi_offset 3, -8
  43              		.cfi_offset 14, -4
  60:D:/fchai/work/i-cube/I-CUBE-HUAWEI/Drivers/BSP/IKS01A3\iks01a3_motion_sensors_ex.c ****   int32_t ret;
  44              		.loc 1 60 1 view .LVU4
  45 0004 0B46     		mov	r3, r1
  46 0006 1146     		mov	r1, r2
  47              	.LVL1:
  48              		.loc 1 63 3 view .LVU5
  49 0008 05D0     		beq	.L2
  50 000a 0228     		cmp	r0, #2
ARM GAS  T:\msys\tmp\ccuiVBP3.s 			page 3


  51 000c 19D0     		beq	.L3
  52 000e 58B1     		cbz	r0, .L23
  53 0010 6FF00100 		mvn	r0, #1
  54              	.LVL2:
  64:D:/fchai/work/i-cube/I-CUBE-HUAWEI/Drivers/BSP/IKS01A3\iks01a3_motion_sensors_ex.c ****   {
  65:D:/fchai/work/i-cube/I-CUBE-HUAWEI/Drivers/BSP/IKS01A3\iks01a3_motion_sensors_ex.c **** #if (USE_IKS01A3_MOTION_SENSOR_LSM6DSO_0 == 1)
  66:D:/fchai/work/i-cube/I-CUBE-HUAWEI/Drivers/BSP/IKS01A3\iks01a3_motion_sensors_ex.c ****     case IKS01A3_LSM6DSO_0:
  67:D:/fchai/work/i-cube/I-CUBE-HUAWEI/Drivers/BSP/IKS01A3\iks01a3_motion_sensors_ex.c ****       if ((Function & MOTION_ACCELERO) == MOTION_ACCELERO)
  68:D:/fchai/work/i-cube/I-CUBE-HUAWEI/Drivers/BSP/IKS01A3\iks01a3_motion_sensors_ex.c ****       {
  69:D:/fchai/work/i-cube/I-CUBE-HUAWEI/Drivers/BSP/IKS01A3\iks01a3_motion_sensors_ex.c ****         if (LSM6DSO_ACC_Get_DRDY_Status(MotionCompObj[Instance], Status) != BSP_ERROR_NONE)
  70:D:/fchai/work/i-cube/I-CUBE-HUAWEI/Drivers/BSP/IKS01A3\iks01a3_motion_sensors_ex.c ****         {
  71:D:/fchai/work/i-cube/I-CUBE-HUAWEI/Drivers/BSP/IKS01A3\iks01a3_motion_sensors_ex.c ****           ret = BSP_ERROR_COMPONENT_FAILURE;
  72:D:/fchai/work/i-cube/I-CUBE-HUAWEI/Drivers/BSP/IKS01A3\iks01a3_motion_sensors_ex.c ****         }
  73:D:/fchai/work/i-cube/I-CUBE-HUAWEI/Drivers/BSP/IKS01A3\iks01a3_motion_sensors_ex.c ****         else
  74:D:/fchai/work/i-cube/I-CUBE-HUAWEI/Drivers/BSP/IKS01A3\iks01a3_motion_sensors_ex.c ****         {
  75:D:/fchai/work/i-cube/I-CUBE-HUAWEI/Drivers/BSP/IKS01A3\iks01a3_motion_sensors_ex.c ****           ret = BSP_ERROR_NONE;
  76:D:/fchai/work/i-cube/I-CUBE-HUAWEI/Drivers/BSP/IKS01A3\iks01a3_motion_sensors_ex.c ****         }
  77:D:/fchai/work/i-cube/I-CUBE-HUAWEI/Drivers/BSP/IKS01A3\iks01a3_motion_sensors_ex.c ****       }
  78:D:/fchai/work/i-cube/I-CUBE-HUAWEI/Drivers/BSP/IKS01A3\iks01a3_motion_sensors_ex.c ****       else if ((Function & MOTION_GYRO) == MOTION_GYRO)
  79:D:/fchai/work/i-cube/I-CUBE-HUAWEI/Drivers/BSP/IKS01A3\iks01a3_motion_sensors_ex.c ****       {
  80:D:/fchai/work/i-cube/I-CUBE-HUAWEI/Drivers/BSP/IKS01A3\iks01a3_motion_sensors_ex.c ****         if (LSM6DSO_GYRO_Get_DRDY_Status(MotionCompObj[Instance], Status) != BSP_ERROR_NONE)
  81:D:/fchai/work/i-cube/I-CUBE-HUAWEI/Drivers/BSP/IKS01A3\iks01a3_motion_sensors_ex.c ****         {
  82:D:/fchai/work/i-cube/I-CUBE-HUAWEI/Drivers/BSP/IKS01A3\iks01a3_motion_sensors_ex.c ****           ret = BSP_ERROR_COMPONENT_FAILURE;
  83:D:/fchai/work/i-cube/I-CUBE-HUAWEI/Drivers/BSP/IKS01A3\iks01a3_motion_sensors_ex.c ****         }
  84:D:/fchai/work/i-cube/I-CUBE-HUAWEI/Drivers/BSP/IKS01A3\iks01a3_motion_sensors_ex.c ****         else
  85:D:/fchai/work/i-cube/I-CUBE-HUAWEI/Drivers/BSP/IKS01A3\iks01a3_motion_sensors_ex.c ****         {
  86:D:/fchai/work/i-cube/I-CUBE-HUAWEI/Drivers/BSP/IKS01A3\iks01a3_motion_sensors_ex.c ****           ret = BSP_ERROR_NONE;
  87:D:/fchai/work/i-cube/I-CUBE-HUAWEI/Drivers/BSP/IKS01A3\iks01a3_motion_sensors_ex.c ****         }
  88:D:/fchai/work/i-cube/I-CUBE-HUAWEI/Drivers/BSP/IKS01A3\iks01a3_motion_sensors_ex.c ****       }
  89:D:/fchai/work/i-cube/I-CUBE-HUAWEI/Drivers/BSP/IKS01A3\iks01a3_motion_sensors_ex.c ****       else
  90:D:/fchai/work/i-cube/I-CUBE-HUAWEI/Drivers/BSP/IKS01A3\iks01a3_motion_sensors_ex.c ****       {
  91:D:/fchai/work/i-cube/I-CUBE-HUAWEI/Drivers/BSP/IKS01A3\iks01a3_motion_sensors_ex.c ****         ret = BSP_ERROR_COMPONENT_FAILURE;
  92:D:/fchai/work/i-cube/I-CUBE-HUAWEI/Drivers/BSP/IKS01A3\iks01a3_motion_sensors_ex.c ****       }
  93:D:/fchai/work/i-cube/I-CUBE-HUAWEI/Drivers/BSP/IKS01A3\iks01a3_motion_sensors_ex.c ****       break;
  94:D:/fchai/work/i-cube/I-CUBE-HUAWEI/Drivers/BSP/IKS01A3\iks01a3_motion_sensors_ex.c **** #endif
  95:D:/fchai/work/i-cube/I-CUBE-HUAWEI/Drivers/BSP/IKS01A3\iks01a3_motion_sensors_ex.c **** 
  96:D:/fchai/work/i-cube/I-CUBE-HUAWEI/Drivers/BSP/IKS01A3\iks01a3_motion_sensors_ex.c **** #if (USE_IKS01A3_MOTION_SENSOR_LIS2DW12_0 == 1)
  97:D:/fchai/work/i-cube/I-CUBE-HUAWEI/Drivers/BSP/IKS01A3\iks01a3_motion_sensors_ex.c ****     case IKS01A3_LIS2DW12_0:
  98:D:/fchai/work/i-cube/I-CUBE-HUAWEI/Drivers/BSP/IKS01A3\iks01a3_motion_sensors_ex.c ****       if ((Function & MOTION_ACCELERO) == MOTION_ACCELERO)
  99:D:/fchai/work/i-cube/I-CUBE-HUAWEI/Drivers/BSP/IKS01A3\iks01a3_motion_sensors_ex.c ****       {
 100:D:/fchai/work/i-cube/I-CUBE-HUAWEI/Drivers/BSP/IKS01A3\iks01a3_motion_sensors_ex.c ****         if (LIS2DW12_ACC_Get_DRDY_Status(MotionCompObj[Instance], Status) != BSP_ERROR_NONE)
 101:D:/fchai/work/i-cube/I-CUBE-HUAWEI/Drivers/BSP/IKS01A3\iks01a3_motion_sensors_ex.c ****         {
 102:D:/fchai/work/i-cube/I-CUBE-HUAWEI/Drivers/BSP/IKS01A3\iks01a3_motion_sensors_ex.c ****           ret = BSP_ERROR_COMPONENT_FAILURE;
 103:D:/fchai/work/i-cube/I-CUBE-HUAWEI/Drivers/BSP/IKS01A3\iks01a3_motion_sensors_ex.c ****         }
 104:D:/fchai/work/i-cube/I-CUBE-HUAWEI/Drivers/BSP/IKS01A3\iks01a3_motion_sensors_ex.c ****         else
 105:D:/fchai/work/i-cube/I-CUBE-HUAWEI/Drivers/BSP/IKS01A3\iks01a3_motion_sensors_ex.c ****         {
 106:D:/fchai/work/i-cube/I-CUBE-HUAWEI/Drivers/BSP/IKS01A3\iks01a3_motion_sensors_ex.c ****           ret = BSP_ERROR_NONE;
 107:D:/fchai/work/i-cube/I-CUBE-HUAWEI/Drivers/BSP/IKS01A3\iks01a3_motion_sensors_ex.c ****         }
 108:D:/fchai/work/i-cube/I-CUBE-HUAWEI/Drivers/BSP/IKS01A3\iks01a3_motion_sensors_ex.c ****       }
 109:D:/fchai/work/i-cube/I-CUBE-HUAWEI/Drivers/BSP/IKS01A3\iks01a3_motion_sensors_ex.c ****       else
 110:D:/fchai/work/i-cube/I-CUBE-HUAWEI/Drivers/BSP/IKS01A3\iks01a3_motion_sensors_ex.c ****       {
 111:D:/fchai/work/i-cube/I-CUBE-HUAWEI/Drivers/BSP/IKS01A3\iks01a3_motion_sensors_ex.c ****         ret = BSP_ERROR_COMPONENT_FAILURE;
 112:D:/fchai/work/i-cube/I-CUBE-HUAWEI/Drivers/BSP/IKS01A3\iks01a3_motion_sensors_ex.c ****       }
 113:D:/fchai/work/i-cube/I-CUBE-HUAWEI/Drivers/BSP/IKS01A3\iks01a3_motion_sensors_ex.c ****       break;
 114:D:/fchai/work/i-cube/I-CUBE-HUAWEI/Drivers/BSP/IKS01A3\iks01a3_motion_sensors_ex.c **** #endif
 115:D:/fchai/work/i-cube/I-CUBE-HUAWEI/Drivers/BSP/IKS01A3\iks01a3_motion_sensors_ex.c **** 
 116:D:/fchai/work/i-cube/I-CUBE-HUAWEI/Drivers/BSP/IKS01A3\iks01a3_motion_sensors_ex.c **** #if (USE_IKS01A3_MOTION_SENSOR_LIS2MDL_0 == 1)
ARM GAS  T:\msys\tmp\ccuiVBP3.s 			page 4


 117:D:/fchai/work/i-cube/I-CUBE-HUAWEI/Drivers/BSP/IKS01A3\iks01a3_motion_sensors_ex.c ****     case IKS01A3_LIS2MDL_0:
 118:D:/fchai/work/i-cube/I-CUBE-HUAWEI/Drivers/BSP/IKS01A3\iks01a3_motion_sensors_ex.c ****       if ((Function & MOTION_MAGNETO) == MOTION_MAGNETO)
 119:D:/fchai/work/i-cube/I-CUBE-HUAWEI/Drivers/BSP/IKS01A3\iks01a3_motion_sensors_ex.c ****       {
 120:D:/fchai/work/i-cube/I-CUBE-HUAWEI/Drivers/BSP/IKS01A3\iks01a3_motion_sensors_ex.c ****         if (LIS2MDL_MAG_Get_DRDY_Status(MotionCompObj[Instance], Status) != BSP_ERROR_NONE)
 121:D:/fchai/work/i-cube/I-CUBE-HUAWEI/Drivers/BSP/IKS01A3\iks01a3_motion_sensors_ex.c ****         {
 122:D:/fchai/work/i-cube/I-CUBE-HUAWEI/Drivers/BSP/IKS01A3\iks01a3_motion_sensors_ex.c ****           ret = BSP_ERROR_COMPONENT_FAILURE;
 123:D:/fchai/work/i-cube/I-CUBE-HUAWEI/Drivers/BSP/IKS01A3\iks01a3_motion_sensors_ex.c ****         }
 124:D:/fchai/work/i-cube/I-CUBE-HUAWEI/Drivers/BSP/IKS01A3\iks01a3_motion_sensors_ex.c ****         else
 125:D:/fchai/work/i-cube/I-CUBE-HUAWEI/Drivers/BSP/IKS01A3\iks01a3_motion_sensors_ex.c ****         {
 126:D:/fchai/work/i-cube/I-CUBE-HUAWEI/Drivers/BSP/IKS01A3\iks01a3_motion_sensors_ex.c ****           ret = BSP_ERROR_NONE;
 127:D:/fchai/work/i-cube/I-CUBE-HUAWEI/Drivers/BSP/IKS01A3\iks01a3_motion_sensors_ex.c ****         }
 128:D:/fchai/work/i-cube/I-CUBE-HUAWEI/Drivers/BSP/IKS01A3\iks01a3_motion_sensors_ex.c ****       }
 129:D:/fchai/work/i-cube/I-CUBE-HUAWEI/Drivers/BSP/IKS01A3\iks01a3_motion_sensors_ex.c ****       else
 130:D:/fchai/work/i-cube/I-CUBE-HUAWEI/Drivers/BSP/IKS01A3\iks01a3_motion_sensors_ex.c ****       {
 131:D:/fchai/work/i-cube/I-CUBE-HUAWEI/Drivers/BSP/IKS01A3\iks01a3_motion_sensors_ex.c ****         ret = BSP_ERROR_COMPONENT_FAILURE;
 132:D:/fchai/work/i-cube/I-CUBE-HUAWEI/Drivers/BSP/IKS01A3\iks01a3_motion_sensors_ex.c ****       }
 133:D:/fchai/work/i-cube/I-CUBE-HUAWEI/Drivers/BSP/IKS01A3\iks01a3_motion_sensors_ex.c ****       break;
 134:D:/fchai/work/i-cube/I-CUBE-HUAWEI/Drivers/BSP/IKS01A3\iks01a3_motion_sensors_ex.c **** #endif
 135:D:/fchai/work/i-cube/I-CUBE-HUAWEI/Drivers/BSP/IKS01A3\iks01a3_motion_sensors_ex.c **** 
 136:D:/fchai/work/i-cube/I-CUBE-HUAWEI/Drivers/BSP/IKS01A3\iks01a3_motion_sensors_ex.c **** #if (USE_IKS01A3_MOTION_SENSOR_ASM330LHH_0 == 1)
 137:D:/fchai/work/i-cube/I-CUBE-HUAWEI/Drivers/BSP/IKS01A3\iks01a3_motion_sensors_ex.c ****     case IKS01A3_ASM330LHH_0:
 138:D:/fchai/work/i-cube/I-CUBE-HUAWEI/Drivers/BSP/IKS01A3\iks01a3_motion_sensors_ex.c ****       if ((Function & MOTION_ACCELERO) == MOTION_ACCELERO)
 139:D:/fchai/work/i-cube/I-CUBE-HUAWEI/Drivers/BSP/IKS01A3\iks01a3_motion_sensors_ex.c ****       {
 140:D:/fchai/work/i-cube/I-CUBE-HUAWEI/Drivers/BSP/IKS01A3\iks01a3_motion_sensors_ex.c ****         if (ASM330LHH_ACC_Get_DRDY_Status(MotionCompObj[Instance], Status) != BSP_ERROR_NONE)
 141:D:/fchai/work/i-cube/I-CUBE-HUAWEI/Drivers/BSP/IKS01A3\iks01a3_motion_sensors_ex.c ****         {
 142:D:/fchai/work/i-cube/I-CUBE-HUAWEI/Drivers/BSP/IKS01A3\iks01a3_motion_sensors_ex.c ****           ret = BSP_ERROR_COMPONENT_FAILURE;
 143:D:/fchai/work/i-cube/I-CUBE-HUAWEI/Drivers/BSP/IKS01A3\iks01a3_motion_sensors_ex.c ****         }
 144:D:/fchai/work/i-cube/I-CUBE-HUAWEI/Drivers/BSP/IKS01A3\iks01a3_motion_sensors_ex.c ****         else
 145:D:/fchai/work/i-cube/I-CUBE-HUAWEI/Drivers/BSP/IKS01A3\iks01a3_motion_sensors_ex.c ****         {
 146:D:/fchai/work/i-cube/I-CUBE-HUAWEI/Drivers/BSP/IKS01A3\iks01a3_motion_sensors_ex.c ****           ret = BSP_ERROR_NONE;
 147:D:/fchai/work/i-cube/I-CUBE-HUAWEI/Drivers/BSP/IKS01A3\iks01a3_motion_sensors_ex.c ****         }
 148:D:/fchai/work/i-cube/I-CUBE-HUAWEI/Drivers/BSP/IKS01A3\iks01a3_motion_sensors_ex.c ****       }
 149:D:/fchai/work/i-cube/I-CUBE-HUAWEI/Drivers/BSP/IKS01A3\iks01a3_motion_sensors_ex.c ****       else if ((Function & MOTION_GYRO) == MOTION_GYRO)
 150:D:/fchai/work/i-cube/I-CUBE-HUAWEI/Drivers/BSP/IKS01A3\iks01a3_motion_sensors_ex.c ****       {
 151:D:/fchai/work/i-cube/I-CUBE-HUAWEI/Drivers/BSP/IKS01A3\iks01a3_motion_sensors_ex.c ****         if (ASM330LHH_GYRO_Get_DRDY_Status(MotionCompObj[Instance], Status) != BSP_ERROR_NONE)
 152:D:/fchai/work/i-cube/I-CUBE-HUAWEI/Drivers/BSP/IKS01A3\iks01a3_motion_sensors_ex.c ****         {
 153:D:/fchai/work/i-cube/I-CUBE-HUAWEI/Drivers/BSP/IKS01A3\iks01a3_motion_sensors_ex.c ****           ret = BSP_ERROR_COMPONENT_FAILURE;
 154:D:/fchai/work/i-cube/I-CUBE-HUAWEI/Drivers/BSP/IKS01A3\iks01a3_motion_sensors_ex.c ****         }
 155:D:/fchai/work/i-cube/I-CUBE-HUAWEI/Drivers/BSP/IKS01A3\iks01a3_motion_sensors_ex.c ****         else
 156:D:/fchai/work/i-cube/I-CUBE-HUAWEI/Drivers/BSP/IKS01A3\iks01a3_motion_sensors_ex.c ****         {
 157:D:/fchai/work/i-cube/I-CUBE-HUAWEI/Drivers/BSP/IKS01A3\iks01a3_motion_sensors_ex.c ****           ret = BSP_ERROR_NONE;
 158:D:/fchai/work/i-cube/I-CUBE-HUAWEI/Drivers/BSP/IKS01A3\iks01a3_motion_sensors_ex.c ****         }
 159:D:/fchai/work/i-cube/I-CUBE-HUAWEI/Drivers/BSP/IKS01A3\iks01a3_motion_sensors_ex.c ****       }
 160:D:/fchai/work/i-cube/I-CUBE-HUAWEI/Drivers/BSP/IKS01A3\iks01a3_motion_sensors_ex.c ****       else
 161:D:/fchai/work/i-cube/I-CUBE-HUAWEI/Drivers/BSP/IKS01A3\iks01a3_motion_sensors_ex.c ****       {
 162:D:/fchai/work/i-cube/I-CUBE-HUAWEI/Drivers/BSP/IKS01A3\iks01a3_motion_sensors_ex.c ****         ret = BSP_ERROR_COMPONENT_FAILURE;
 163:D:/fchai/work/i-cube/I-CUBE-HUAWEI/Drivers/BSP/IKS01A3\iks01a3_motion_sensors_ex.c ****       }
 164:D:/fchai/work/i-cube/I-CUBE-HUAWEI/Drivers/BSP/IKS01A3\iks01a3_motion_sensors_ex.c ****       break;
 165:D:/fchai/work/i-cube/I-CUBE-HUAWEI/Drivers/BSP/IKS01A3\iks01a3_motion_sensors_ex.c **** #endif
 166:D:/fchai/work/i-cube/I-CUBE-HUAWEI/Drivers/BSP/IKS01A3\iks01a3_motion_sensors_ex.c **** 
 167:D:/fchai/work/i-cube/I-CUBE-HUAWEI/Drivers/BSP/IKS01A3\iks01a3_motion_sensors_ex.c **** #if (USE_IKS01A3_MOTION_SENSOR_IIS2DLPC_0 == 1)
 168:D:/fchai/work/i-cube/I-CUBE-HUAWEI/Drivers/BSP/IKS01A3\iks01a3_motion_sensors_ex.c ****     case IKS01A3_IIS2DLPC_0:
 169:D:/fchai/work/i-cube/I-CUBE-HUAWEI/Drivers/BSP/IKS01A3\iks01a3_motion_sensors_ex.c ****       if ((Function & MOTION_ACCELERO) == MOTION_ACCELERO)
 170:D:/fchai/work/i-cube/I-CUBE-HUAWEI/Drivers/BSP/IKS01A3\iks01a3_motion_sensors_ex.c ****       {
 171:D:/fchai/work/i-cube/I-CUBE-HUAWEI/Drivers/BSP/IKS01A3\iks01a3_motion_sensors_ex.c ****         if (IIS2DLPC_ACC_Get_DRDY_Status(MotionCompObj[Instance], Status) != BSP_ERROR_NONE)
 172:D:/fchai/work/i-cube/I-CUBE-HUAWEI/Drivers/BSP/IKS01A3\iks01a3_motion_sensors_ex.c ****         {
 173:D:/fchai/work/i-cube/I-CUBE-HUAWEI/Drivers/BSP/IKS01A3\iks01a3_motion_sensors_ex.c ****           ret = BSP_ERROR_COMPONENT_FAILURE;
ARM GAS  T:\msys\tmp\ccuiVBP3.s 			page 5


 174:D:/fchai/work/i-cube/I-CUBE-HUAWEI/Drivers/BSP/IKS01A3\iks01a3_motion_sensors_ex.c ****         }
 175:D:/fchai/work/i-cube/I-CUBE-HUAWEI/Drivers/BSP/IKS01A3\iks01a3_motion_sensors_ex.c ****         else
 176:D:/fchai/work/i-cube/I-CUBE-HUAWEI/Drivers/BSP/IKS01A3\iks01a3_motion_sensors_ex.c ****         {
 177:D:/fchai/work/i-cube/I-CUBE-HUAWEI/Drivers/BSP/IKS01A3\iks01a3_motion_sensors_ex.c ****           ret = BSP_ERROR_NONE;
 178:D:/fchai/work/i-cube/I-CUBE-HUAWEI/Drivers/BSP/IKS01A3\iks01a3_motion_sensors_ex.c ****         }
 179:D:/fchai/work/i-cube/I-CUBE-HUAWEI/Drivers/BSP/IKS01A3\iks01a3_motion_sensors_ex.c ****       }
 180:D:/fchai/work/i-cube/I-CUBE-HUAWEI/Drivers/BSP/IKS01A3\iks01a3_motion_sensors_ex.c ****       else
 181:D:/fchai/work/i-cube/I-CUBE-HUAWEI/Drivers/BSP/IKS01A3\iks01a3_motion_sensors_ex.c ****       {
 182:D:/fchai/work/i-cube/I-CUBE-HUAWEI/Drivers/BSP/IKS01A3\iks01a3_motion_sensors_ex.c ****         ret = BSP_ERROR_COMPONENT_FAILURE;
 183:D:/fchai/work/i-cube/I-CUBE-HUAWEI/Drivers/BSP/IKS01A3\iks01a3_motion_sensors_ex.c ****       }
 184:D:/fchai/work/i-cube/I-CUBE-HUAWEI/Drivers/BSP/IKS01A3\iks01a3_motion_sensors_ex.c ****       break;
 185:D:/fchai/work/i-cube/I-CUBE-HUAWEI/Drivers/BSP/IKS01A3\iks01a3_motion_sensors_ex.c **** #endif
 186:D:/fchai/work/i-cube/I-CUBE-HUAWEI/Drivers/BSP/IKS01A3\iks01a3_motion_sensors_ex.c **** 
 187:D:/fchai/work/i-cube/I-CUBE-HUAWEI/Drivers/BSP/IKS01A3\iks01a3_motion_sensors_ex.c **** #if (USE_IKS01A3_MOTION_SENSOR_IIS2MDC_0 == 1)
 188:D:/fchai/work/i-cube/I-CUBE-HUAWEI/Drivers/BSP/IKS01A3\iks01a3_motion_sensors_ex.c ****     case IKS01A3_IIS2MDC_0:
 189:D:/fchai/work/i-cube/I-CUBE-HUAWEI/Drivers/BSP/IKS01A3\iks01a3_motion_sensors_ex.c ****       if ((Function & MOTION_MAGNETO) == MOTION_MAGNETO)
 190:D:/fchai/work/i-cube/I-CUBE-HUAWEI/Drivers/BSP/IKS01A3\iks01a3_motion_sensors_ex.c ****       {
 191:D:/fchai/work/i-cube/I-CUBE-HUAWEI/Drivers/BSP/IKS01A3\iks01a3_motion_sensors_ex.c ****         if (IIS2MDC_MAG_Get_DRDY_Status(MotionCompObj[Instance], Status) != BSP_ERROR_NONE)
 192:D:/fchai/work/i-cube/I-CUBE-HUAWEI/Drivers/BSP/IKS01A3\iks01a3_motion_sensors_ex.c ****         {
 193:D:/fchai/work/i-cube/I-CUBE-HUAWEI/Drivers/BSP/IKS01A3\iks01a3_motion_sensors_ex.c ****           ret = BSP_ERROR_COMPONENT_FAILURE;
 194:D:/fchai/work/i-cube/I-CUBE-HUAWEI/Drivers/BSP/IKS01A3\iks01a3_motion_sensors_ex.c ****         }
 195:D:/fchai/work/i-cube/I-CUBE-HUAWEI/Drivers/BSP/IKS01A3\iks01a3_motion_sensors_ex.c ****         else
 196:D:/fchai/work/i-cube/I-CUBE-HUAWEI/Drivers/BSP/IKS01A3\iks01a3_motion_sensors_ex.c ****         {
 197:D:/fchai/work/i-cube/I-CUBE-HUAWEI/Drivers/BSP/IKS01A3\iks01a3_motion_sensors_ex.c ****           ret = BSP_ERROR_NONE;
 198:D:/fchai/work/i-cube/I-CUBE-HUAWEI/Drivers/BSP/IKS01A3\iks01a3_motion_sensors_ex.c ****         }
 199:D:/fchai/work/i-cube/I-CUBE-HUAWEI/Drivers/BSP/IKS01A3\iks01a3_motion_sensors_ex.c ****       }
 200:D:/fchai/work/i-cube/I-CUBE-HUAWEI/Drivers/BSP/IKS01A3\iks01a3_motion_sensors_ex.c ****       else
 201:D:/fchai/work/i-cube/I-CUBE-HUAWEI/Drivers/BSP/IKS01A3\iks01a3_motion_sensors_ex.c ****       {
 202:D:/fchai/work/i-cube/I-CUBE-HUAWEI/Drivers/BSP/IKS01A3\iks01a3_motion_sensors_ex.c ****         ret = BSP_ERROR_COMPONENT_FAILURE;
 203:D:/fchai/work/i-cube/I-CUBE-HUAWEI/Drivers/BSP/IKS01A3\iks01a3_motion_sensors_ex.c ****       }
 204:D:/fchai/work/i-cube/I-CUBE-HUAWEI/Drivers/BSP/IKS01A3\iks01a3_motion_sensors_ex.c ****       break;
 205:D:/fchai/work/i-cube/I-CUBE-HUAWEI/Drivers/BSP/IKS01A3\iks01a3_motion_sensors_ex.c **** #endif
 206:D:/fchai/work/i-cube/I-CUBE-HUAWEI/Drivers/BSP/IKS01A3\iks01a3_motion_sensors_ex.c **** 
 207:D:/fchai/work/i-cube/I-CUBE-HUAWEI/Drivers/BSP/IKS01A3\iks01a3_motion_sensors_ex.c **** #if (USE_IKS01A3_MOTION_SENSOR_ISM303DAC_ACC_0 == 1)
 208:D:/fchai/work/i-cube/I-CUBE-HUAWEI/Drivers/BSP/IKS01A3\iks01a3_motion_sensors_ex.c ****     case IKS01A3_ISM303DAC_ACC_0:
 209:D:/fchai/work/i-cube/I-CUBE-HUAWEI/Drivers/BSP/IKS01A3\iks01a3_motion_sensors_ex.c ****       if ((Function & MOTION_ACCELERO) == MOTION_ACCELERO)
 210:D:/fchai/work/i-cube/I-CUBE-HUAWEI/Drivers/BSP/IKS01A3\iks01a3_motion_sensors_ex.c ****       {
 211:D:/fchai/work/i-cube/I-CUBE-HUAWEI/Drivers/BSP/IKS01A3\iks01a3_motion_sensors_ex.c ****         if (ISM303DAC_ACC_Get_DRDY_Status(MotionCompObj[Instance], Status) != BSP_ERROR_NONE)
 212:D:/fchai/work/i-cube/I-CUBE-HUAWEI/Drivers/BSP/IKS01A3\iks01a3_motion_sensors_ex.c ****         {
 213:D:/fchai/work/i-cube/I-CUBE-HUAWEI/Drivers/BSP/IKS01A3\iks01a3_motion_sensors_ex.c ****           ret = BSP_ERROR_COMPONENT_FAILURE;
 214:D:/fchai/work/i-cube/I-CUBE-HUAWEI/Drivers/BSP/IKS01A3\iks01a3_motion_sensors_ex.c ****         }
 215:D:/fchai/work/i-cube/I-CUBE-HUAWEI/Drivers/BSP/IKS01A3\iks01a3_motion_sensors_ex.c ****         else
 216:D:/fchai/work/i-cube/I-CUBE-HUAWEI/Drivers/BSP/IKS01A3\iks01a3_motion_sensors_ex.c ****         {
 217:D:/fchai/work/i-cube/I-CUBE-HUAWEI/Drivers/BSP/IKS01A3\iks01a3_motion_sensors_ex.c ****           ret = BSP_ERROR_NONE;
 218:D:/fchai/work/i-cube/I-CUBE-HUAWEI/Drivers/BSP/IKS01A3\iks01a3_motion_sensors_ex.c ****         }
 219:D:/fchai/work/i-cube/I-CUBE-HUAWEI/Drivers/BSP/IKS01A3\iks01a3_motion_sensors_ex.c ****       }
 220:D:/fchai/work/i-cube/I-CUBE-HUAWEI/Drivers/BSP/IKS01A3\iks01a3_motion_sensors_ex.c ****       else
 221:D:/fchai/work/i-cube/I-CUBE-HUAWEI/Drivers/BSP/IKS01A3\iks01a3_motion_sensors_ex.c ****       {
 222:D:/fchai/work/i-cube/I-CUBE-HUAWEI/Drivers/BSP/IKS01A3\iks01a3_motion_sensors_ex.c ****         ret = BSP_ERROR_COMPONENT_FAILURE;
 223:D:/fchai/work/i-cube/I-CUBE-HUAWEI/Drivers/BSP/IKS01A3\iks01a3_motion_sensors_ex.c ****       }
 224:D:/fchai/work/i-cube/I-CUBE-HUAWEI/Drivers/BSP/IKS01A3\iks01a3_motion_sensors_ex.c ****       break;
 225:D:/fchai/work/i-cube/I-CUBE-HUAWEI/Drivers/BSP/IKS01A3\iks01a3_motion_sensors_ex.c **** #endif
 226:D:/fchai/work/i-cube/I-CUBE-HUAWEI/Drivers/BSP/IKS01A3\iks01a3_motion_sensors_ex.c **** 
 227:D:/fchai/work/i-cube/I-CUBE-HUAWEI/Drivers/BSP/IKS01A3\iks01a3_motion_sensors_ex.c **** #if (USE_IKS01A3_MOTION_SENSOR_ISM303DAC_MAG_0 == 1)
 228:D:/fchai/work/i-cube/I-CUBE-HUAWEI/Drivers/BSP/IKS01A3\iks01a3_motion_sensors_ex.c ****     case IKS01A3_ISM303DAC_MAG_0:
 229:D:/fchai/work/i-cube/I-CUBE-HUAWEI/Drivers/BSP/IKS01A3\iks01a3_motion_sensors_ex.c ****       if ((Function & MOTION_MAGNETO) == MOTION_MAGNETO)
 230:D:/fchai/work/i-cube/I-CUBE-HUAWEI/Drivers/BSP/IKS01A3\iks01a3_motion_sensors_ex.c ****       {
ARM GAS  T:\msys\tmp\ccuiVBP3.s 			page 6


 231:D:/fchai/work/i-cube/I-CUBE-HUAWEI/Drivers/BSP/IKS01A3\iks01a3_motion_sensors_ex.c ****         if (ISM303DAC_MAG_Get_DRDY_Status(MotionCompObj[Instance], Status) != BSP_ERROR_NONE)
 232:D:/fchai/work/i-cube/I-CUBE-HUAWEI/Drivers/BSP/IKS01A3\iks01a3_motion_sensors_ex.c ****         {
 233:D:/fchai/work/i-cube/I-CUBE-HUAWEI/Drivers/BSP/IKS01A3\iks01a3_motion_sensors_ex.c ****           ret = BSP_ERROR_COMPONENT_FAILURE;
 234:D:/fchai/work/i-cube/I-CUBE-HUAWEI/Drivers/BSP/IKS01A3\iks01a3_motion_sensors_ex.c ****         }
 235:D:/fchai/work/i-cube/I-CUBE-HUAWEI/Drivers/BSP/IKS01A3\iks01a3_motion_sensors_ex.c ****         else
 236:D:/fchai/work/i-cube/I-CUBE-HUAWEI/Drivers/BSP/IKS01A3\iks01a3_motion_sensors_ex.c ****         {
 237:D:/fchai/work/i-cube/I-CUBE-HUAWEI/Drivers/BSP/IKS01A3\iks01a3_motion_sensors_ex.c ****           ret = BSP_ERROR_NONE;
 238:D:/fchai/work/i-cube/I-CUBE-HUAWEI/Drivers/BSP/IKS01A3\iks01a3_motion_sensors_ex.c ****         }
 239:D:/fchai/work/i-cube/I-CUBE-HUAWEI/Drivers/BSP/IKS01A3\iks01a3_motion_sensors_ex.c ****       }
 240:D:/fchai/work/i-cube/I-CUBE-HUAWEI/Drivers/BSP/IKS01A3\iks01a3_motion_sensors_ex.c ****       else
 241:D:/fchai/work/i-cube/I-CUBE-HUAWEI/Drivers/BSP/IKS01A3\iks01a3_motion_sensors_ex.c ****       {
 242:D:/fchai/work/i-cube/I-CUBE-HUAWEI/Drivers/BSP/IKS01A3\iks01a3_motion_sensors_ex.c ****         ret = BSP_ERROR_COMPONENT_FAILURE;
 243:D:/fchai/work/i-cube/I-CUBE-HUAWEI/Drivers/BSP/IKS01A3\iks01a3_motion_sensors_ex.c ****       }
 244:D:/fchai/work/i-cube/I-CUBE-HUAWEI/Drivers/BSP/IKS01A3\iks01a3_motion_sensors_ex.c ****       break;
 245:D:/fchai/work/i-cube/I-CUBE-HUAWEI/Drivers/BSP/IKS01A3\iks01a3_motion_sensors_ex.c **** #endif
 246:D:/fchai/work/i-cube/I-CUBE-HUAWEI/Drivers/BSP/IKS01A3\iks01a3_motion_sensors_ex.c **** 
 247:D:/fchai/work/i-cube/I-CUBE-HUAWEI/Drivers/BSP/IKS01A3\iks01a3_motion_sensors_ex.c **** #if (USE_IKS01A3_MOTION_SENSOR_ISM330DLC_0 == 1)
 248:D:/fchai/work/i-cube/I-CUBE-HUAWEI/Drivers/BSP/IKS01A3\iks01a3_motion_sensors_ex.c ****     case IKS01A3_ISM330DLC_0:
 249:D:/fchai/work/i-cube/I-CUBE-HUAWEI/Drivers/BSP/IKS01A3\iks01a3_motion_sensors_ex.c ****       if ((Function & MOTION_ACCELERO) == MOTION_ACCELERO)
 250:D:/fchai/work/i-cube/I-CUBE-HUAWEI/Drivers/BSP/IKS01A3\iks01a3_motion_sensors_ex.c ****       {
 251:D:/fchai/work/i-cube/I-CUBE-HUAWEI/Drivers/BSP/IKS01A3\iks01a3_motion_sensors_ex.c ****         if (ISM330DLC_ACC_Get_DRDY_Status(MotionCompObj[Instance], Status) != BSP_ERROR_NONE)
 252:D:/fchai/work/i-cube/I-CUBE-HUAWEI/Drivers/BSP/IKS01A3\iks01a3_motion_sensors_ex.c ****         {
 253:D:/fchai/work/i-cube/I-CUBE-HUAWEI/Drivers/BSP/IKS01A3\iks01a3_motion_sensors_ex.c ****           ret = BSP_ERROR_COMPONENT_FAILURE;
 254:D:/fchai/work/i-cube/I-CUBE-HUAWEI/Drivers/BSP/IKS01A3\iks01a3_motion_sensors_ex.c ****         }
 255:D:/fchai/work/i-cube/I-CUBE-HUAWEI/Drivers/BSP/IKS01A3\iks01a3_motion_sensors_ex.c ****         else
 256:D:/fchai/work/i-cube/I-CUBE-HUAWEI/Drivers/BSP/IKS01A3\iks01a3_motion_sensors_ex.c ****         {
 257:D:/fchai/work/i-cube/I-CUBE-HUAWEI/Drivers/BSP/IKS01A3\iks01a3_motion_sensors_ex.c ****           ret = BSP_ERROR_NONE;
 258:D:/fchai/work/i-cube/I-CUBE-HUAWEI/Drivers/BSP/IKS01A3\iks01a3_motion_sensors_ex.c ****         }
 259:D:/fchai/work/i-cube/I-CUBE-HUAWEI/Drivers/BSP/IKS01A3\iks01a3_motion_sensors_ex.c ****       }
 260:D:/fchai/work/i-cube/I-CUBE-HUAWEI/Drivers/BSP/IKS01A3\iks01a3_motion_sensors_ex.c ****       else if ((Function & MOTION_GYRO) == MOTION_GYRO)
 261:D:/fchai/work/i-cube/I-CUBE-HUAWEI/Drivers/BSP/IKS01A3\iks01a3_motion_sensors_ex.c ****       {
 262:D:/fchai/work/i-cube/I-CUBE-HUAWEI/Drivers/BSP/IKS01A3\iks01a3_motion_sensors_ex.c ****         if (ISM330DLC_GYRO_Get_DRDY_Status(MotionCompObj[Instance], Status) != BSP_ERROR_NONE)
 263:D:/fchai/work/i-cube/I-CUBE-HUAWEI/Drivers/BSP/IKS01A3\iks01a3_motion_sensors_ex.c ****         {
 264:D:/fchai/work/i-cube/I-CUBE-HUAWEI/Drivers/BSP/IKS01A3\iks01a3_motion_sensors_ex.c ****           ret = BSP_ERROR_COMPONENT_FAILURE;
 265:D:/fchai/work/i-cube/I-CUBE-HUAWEI/Drivers/BSP/IKS01A3\iks01a3_motion_sensors_ex.c ****         }
 266:D:/fchai/work/i-cube/I-CUBE-HUAWEI/Drivers/BSP/IKS01A3\iks01a3_motion_sensors_ex.c ****         else
 267:D:/fchai/work/i-cube/I-CUBE-HUAWEI/Drivers/BSP/IKS01A3\iks01a3_motion_sensors_ex.c ****         {
 268:D:/fchai/work/i-cube/I-CUBE-HUAWEI/Drivers/BSP/IKS01A3\iks01a3_motion_sensors_ex.c ****           ret = BSP_ERROR_NONE;
 269:D:/fchai/work/i-cube/I-CUBE-HUAWEI/Drivers/BSP/IKS01A3\iks01a3_motion_sensors_ex.c ****         }
 270:D:/fchai/work/i-cube/I-CUBE-HUAWEI/Drivers/BSP/IKS01A3\iks01a3_motion_sensors_ex.c ****       }
 271:D:/fchai/work/i-cube/I-CUBE-HUAWEI/Drivers/BSP/IKS01A3\iks01a3_motion_sensors_ex.c ****       else
 272:D:/fchai/work/i-cube/I-CUBE-HUAWEI/Drivers/BSP/IKS01A3\iks01a3_motion_sensors_ex.c ****       {
 273:D:/fchai/work/i-cube/I-CUBE-HUAWEI/Drivers/BSP/IKS01A3\iks01a3_motion_sensors_ex.c ****         ret = BSP_ERROR_COMPONENT_FAILURE;
 274:D:/fchai/work/i-cube/I-CUBE-HUAWEI/Drivers/BSP/IKS01A3\iks01a3_motion_sensors_ex.c ****       }
 275:D:/fchai/work/i-cube/I-CUBE-HUAWEI/Drivers/BSP/IKS01A3\iks01a3_motion_sensors_ex.c ****       break;
 276:D:/fchai/work/i-cube/I-CUBE-HUAWEI/Drivers/BSP/IKS01A3\iks01a3_motion_sensors_ex.c **** #endif
 277:D:/fchai/work/i-cube/I-CUBE-HUAWEI/Drivers/BSP/IKS01A3\iks01a3_motion_sensors_ex.c **** 
 278:D:/fchai/work/i-cube/I-CUBE-HUAWEI/Drivers/BSP/IKS01A3\iks01a3_motion_sensors_ex.c **** #if (USE_IKS01A3_MOTION_SENSOR_LIS2DH12_0 == 1)
 279:D:/fchai/work/i-cube/I-CUBE-HUAWEI/Drivers/BSP/IKS01A3\iks01a3_motion_sensors_ex.c ****     case IKS01A3_LIS2DH12_0:
 280:D:/fchai/work/i-cube/I-CUBE-HUAWEI/Drivers/BSP/IKS01A3\iks01a3_motion_sensors_ex.c ****       if ((Function & MOTION_ACCELERO) == MOTION_ACCELERO)
 281:D:/fchai/work/i-cube/I-CUBE-HUAWEI/Drivers/BSP/IKS01A3\iks01a3_motion_sensors_ex.c ****       {
 282:D:/fchai/work/i-cube/I-CUBE-HUAWEI/Drivers/BSP/IKS01A3\iks01a3_motion_sensors_ex.c ****         if (LIS2DH12_Get_DRDY_Status(MotionCompObj[Instance], Status) != BSP_ERROR_NONE)
 283:D:/fchai/work/i-cube/I-CUBE-HUAWEI/Drivers/BSP/IKS01A3\iks01a3_motion_sensors_ex.c ****         {
 284:D:/fchai/work/i-cube/I-CUBE-HUAWEI/Drivers/BSP/IKS01A3\iks01a3_motion_sensors_ex.c ****           ret = BSP_ERROR_COMPONENT_FAILURE;
 285:D:/fchai/work/i-cube/I-CUBE-HUAWEI/Drivers/BSP/IKS01A3\iks01a3_motion_sensors_ex.c ****         }
 286:D:/fchai/work/i-cube/I-CUBE-HUAWEI/Drivers/BSP/IKS01A3\iks01a3_motion_sensors_ex.c ****         else
 287:D:/fchai/work/i-cube/I-CUBE-HUAWEI/Drivers/BSP/IKS01A3\iks01a3_motion_sensors_ex.c ****         {
ARM GAS  T:\msys\tmp\ccuiVBP3.s 			page 7


 288:D:/fchai/work/i-cube/I-CUBE-HUAWEI/Drivers/BSP/IKS01A3\iks01a3_motion_sensors_ex.c ****           ret = BSP_ERROR_NONE;
 289:D:/fchai/work/i-cube/I-CUBE-HUAWEI/Drivers/BSP/IKS01A3\iks01a3_motion_sensors_ex.c ****         }
 290:D:/fchai/work/i-cube/I-CUBE-HUAWEI/Drivers/BSP/IKS01A3\iks01a3_motion_sensors_ex.c ****       }
 291:D:/fchai/work/i-cube/I-CUBE-HUAWEI/Drivers/BSP/IKS01A3\iks01a3_motion_sensors_ex.c ****       else
 292:D:/fchai/work/i-cube/I-CUBE-HUAWEI/Drivers/BSP/IKS01A3\iks01a3_motion_sensors_ex.c ****       {
 293:D:/fchai/work/i-cube/I-CUBE-HUAWEI/Drivers/BSP/IKS01A3\iks01a3_motion_sensors_ex.c ****         ret = BSP_ERROR_COMPONENT_FAILURE;
 294:D:/fchai/work/i-cube/I-CUBE-HUAWEI/Drivers/BSP/IKS01A3\iks01a3_motion_sensors_ex.c ****       }
 295:D:/fchai/work/i-cube/I-CUBE-HUAWEI/Drivers/BSP/IKS01A3\iks01a3_motion_sensors_ex.c ****       break;
 296:D:/fchai/work/i-cube/I-CUBE-HUAWEI/Drivers/BSP/IKS01A3\iks01a3_motion_sensors_ex.c **** #endif
 297:D:/fchai/work/i-cube/I-CUBE-HUAWEI/Drivers/BSP/IKS01A3\iks01a3_motion_sensors_ex.c **** 
 298:D:/fchai/work/i-cube/I-CUBE-HUAWEI/Drivers/BSP/IKS01A3\iks01a3_motion_sensors_ex.c **** #if (USE_IKS01A3_MOTION_SENSOR_LSM6DSOX_0 == 1)
 299:D:/fchai/work/i-cube/I-CUBE-HUAWEI/Drivers/BSP/IKS01A3\iks01a3_motion_sensors_ex.c ****     case IKS01A3_LSM6DSOX_0:
 300:D:/fchai/work/i-cube/I-CUBE-HUAWEI/Drivers/BSP/IKS01A3\iks01a3_motion_sensors_ex.c ****       if ((Function & MOTION_ACCELERO) == MOTION_ACCELERO)
 301:D:/fchai/work/i-cube/I-CUBE-HUAWEI/Drivers/BSP/IKS01A3\iks01a3_motion_sensors_ex.c ****       {
 302:D:/fchai/work/i-cube/I-CUBE-HUAWEI/Drivers/BSP/IKS01A3\iks01a3_motion_sensors_ex.c ****         if (LSM6DSOX_ACC_Get_DRDY_Status(MotionCompObj[Instance], Status) != BSP_ERROR_NONE)
 303:D:/fchai/work/i-cube/I-CUBE-HUAWEI/Drivers/BSP/IKS01A3\iks01a3_motion_sensors_ex.c ****         {
 304:D:/fchai/work/i-cube/I-CUBE-HUAWEI/Drivers/BSP/IKS01A3\iks01a3_motion_sensors_ex.c ****           ret = BSP_ERROR_COMPONENT_FAILURE;
 305:D:/fchai/work/i-cube/I-CUBE-HUAWEI/Drivers/BSP/IKS01A3\iks01a3_motion_sensors_ex.c ****         }
 306:D:/fchai/work/i-cube/I-CUBE-HUAWEI/Drivers/BSP/IKS01A3\iks01a3_motion_sensors_ex.c ****         else
 307:D:/fchai/work/i-cube/I-CUBE-HUAWEI/Drivers/BSP/IKS01A3\iks01a3_motion_sensors_ex.c ****         {
 308:D:/fchai/work/i-cube/I-CUBE-HUAWEI/Drivers/BSP/IKS01A3\iks01a3_motion_sensors_ex.c ****           ret = BSP_ERROR_NONE;
 309:D:/fchai/work/i-cube/I-CUBE-HUAWEI/Drivers/BSP/IKS01A3\iks01a3_motion_sensors_ex.c ****         }
 310:D:/fchai/work/i-cube/I-CUBE-HUAWEI/Drivers/BSP/IKS01A3\iks01a3_motion_sensors_ex.c ****       }
 311:D:/fchai/work/i-cube/I-CUBE-HUAWEI/Drivers/BSP/IKS01A3\iks01a3_motion_sensors_ex.c ****       else if ((Function & MOTION_GYRO) == MOTION_GYRO)
 312:D:/fchai/work/i-cube/I-CUBE-HUAWEI/Drivers/BSP/IKS01A3\iks01a3_motion_sensors_ex.c ****       {
 313:D:/fchai/work/i-cube/I-CUBE-HUAWEI/Drivers/BSP/IKS01A3\iks01a3_motion_sensors_ex.c ****         if (LSM6DSOX_GYRO_Get_DRDY_Status(MotionCompObj[Instance], Status) != BSP_ERROR_NONE)
 314:D:/fchai/work/i-cube/I-CUBE-HUAWEI/Drivers/BSP/IKS01A3\iks01a3_motion_sensors_ex.c ****         {
 315:D:/fchai/work/i-cube/I-CUBE-HUAWEI/Drivers/BSP/IKS01A3\iks01a3_motion_sensors_ex.c ****           ret = BSP_ERROR_COMPONENT_FAILURE;
 316:D:/fchai/work/i-cube/I-CUBE-HUAWEI/Drivers/BSP/IKS01A3\iks01a3_motion_sensors_ex.c ****         }
 317:D:/fchai/work/i-cube/I-CUBE-HUAWEI/Drivers/BSP/IKS01A3\iks01a3_motion_sensors_ex.c ****         else
 318:D:/fchai/work/i-cube/I-CUBE-HUAWEI/Drivers/BSP/IKS01A3\iks01a3_motion_sensors_ex.c ****         {
 319:D:/fchai/work/i-cube/I-CUBE-HUAWEI/Drivers/BSP/IKS01A3\iks01a3_motion_sensors_ex.c ****           ret = BSP_ERROR_NONE;
 320:D:/fchai/work/i-cube/I-CUBE-HUAWEI/Drivers/BSP/IKS01A3\iks01a3_motion_sensors_ex.c ****         }
 321:D:/fchai/work/i-cube/I-CUBE-HUAWEI/Drivers/BSP/IKS01A3\iks01a3_motion_sensors_ex.c ****       }
 322:D:/fchai/work/i-cube/I-CUBE-HUAWEI/Drivers/BSP/IKS01A3\iks01a3_motion_sensors_ex.c ****       else
 323:D:/fchai/work/i-cube/I-CUBE-HUAWEI/Drivers/BSP/IKS01A3\iks01a3_motion_sensors_ex.c ****       {
 324:D:/fchai/work/i-cube/I-CUBE-HUAWEI/Drivers/BSP/IKS01A3\iks01a3_motion_sensors_ex.c ****         ret = BSP_ERROR_COMPONENT_FAILURE;
 325:D:/fchai/work/i-cube/I-CUBE-HUAWEI/Drivers/BSP/IKS01A3\iks01a3_motion_sensors_ex.c ****       }
 326:D:/fchai/work/i-cube/I-CUBE-HUAWEI/Drivers/BSP/IKS01A3\iks01a3_motion_sensors_ex.c ****       break;
 327:D:/fchai/work/i-cube/I-CUBE-HUAWEI/Drivers/BSP/IKS01A3\iks01a3_motion_sensors_ex.c **** #endif
 328:D:/fchai/work/i-cube/I-CUBE-HUAWEI/Drivers/BSP/IKS01A3\iks01a3_motion_sensors_ex.c **** 
 329:D:/fchai/work/i-cube/I-CUBE-HUAWEI/Drivers/BSP/IKS01A3\iks01a3_motion_sensors_ex.c **** #if (USE_IKS01A3_MOTION_SENSOR_AIS2DW12_0 == 1)
 330:D:/fchai/work/i-cube/I-CUBE-HUAWEI/Drivers/BSP/IKS01A3\iks01a3_motion_sensors_ex.c ****     case IKS01A3_AIS2DW12_0:
 331:D:/fchai/work/i-cube/I-CUBE-HUAWEI/Drivers/BSP/IKS01A3\iks01a3_motion_sensors_ex.c ****       if ((Function & MOTION_ACCELERO) == MOTION_ACCELERO)
 332:D:/fchai/work/i-cube/I-CUBE-HUAWEI/Drivers/BSP/IKS01A3\iks01a3_motion_sensors_ex.c ****       {
 333:D:/fchai/work/i-cube/I-CUBE-HUAWEI/Drivers/BSP/IKS01A3\iks01a3_motion_sensors_ex.c ****         if (AIS2DW12_ACC_Get_DRDY_Status(MotionCompObj[Instance], Status) != BSP_ERROR_NONE)
 334:D:/fchai/work/i-cube/I-CUBE-HUAWEI/Drivers/BSP/IKS01A3\iks01a3_motion_sensors_ex.c ****         {
 335:D:/fchai/work/i-cube/I-CUBE-HUAWEI/Drivers/BSP/IKS01A3\iks01a3_motion_sensors_ex.c ****           ret = BSP_ERROR_COMPONENT_FAILURE;
 336:D:/fchai/work/i-cube/I-CUBE-HUAWEI/Drivers/BSP/IKS01A3\iks01a3_motion_sensors_ex.c ****         }
 337:D:/fchai/work/i-cube/I-CUBE-HUAWEI/Drivers/BSP/IKS01A3\iks01a3_motion_sensors_ex.c ****         else
 338:D:/fchai/work/i-cube/I-CUBE-HUAWEI/Drivers/BSP/IKS01A3\iks01a3_motion_sensors_ex.c ****         {
 339:D:/fchai/work/i-cube/I-CUBE-HUAWEI/Drivers/BSP/IKS01A3\iks01a3_motion_sensors_ex.c ****           ret = BSP_ERROR_NONE;
 340:D:/fchai/work/i-cube/I-CUBE-HUAWEI/Drivers/BSP/IKS01A3\iks01a3_motion_sensors_ex.c ****         }
 341:D:/fchai/work/i-cube/I-CUBE-HUAWEI/Drivers/BSP/IKS01A3\iks01a3_motion_sensors_ex.c ****       }
 342:D:/fchai/work/i-cube/I-CUBE-HUAWEI/Drivers/BSP/IKS01A3\iks01a3_motion_sensors_ex.c ****       else
 343:D:/fchai/work/i-cube/I-CUBE-HUAWEI/Drivers/BSP/IKS01A3\iks01a3_motion_sensors_ex.c ****       {
 344:D:/fchai/work/i-cube/I-CUBE-HUAWEI/Drivers/BSP/IKS01A3\iks01a3_motion_sensors_ex.c ****         ret = BSP_ERROR_COMPONENT_FAILURE;
ARM GAS  T:\msys\tmp\ccuiVBP3.s 			page 8


 345:D:/fchai/work/i-cube/I-CUBE-HUAWEI/Drivers/BSP/IKS01A3\iks01a3_motion_sensors_ex.c ****       }
 346:D:/fchai/work/i-cube/I-CUBE-HUAWEI/Drivers/BSP/IKS01A3\iks01a3_motion_sensors_ex.c ****       break;
 347:D:/fchai/work/i-cube/I-CUBE-HUAWEI/Drivers/BSP/IKS01A3\iks01a3_motion_sensors_ex.c **** #endif
 348:D:/fchai/work/i-cube/I-CUBE-HUAWEI/Drivers/BSP/IKS01A3\iks01a3_motion_sensors_ex.c **** 
 349:D:/fchai/work/i-cube/I-CUBE-HUAWEI/Drivers/BSP/IKS01A3\iks01a3_motion_sensors_ex.c **** #if (USE_IKS01A3_MOTION_SENSOR_LIS3MDL_0 == 1)
 350:D:/fchai/work/i-cube/I-CUBE-HUAWEI/Drivers/BSP/IKS01A3\iks01a3_motion_sensors_ex.c ****     case IKS01A3_LIS3MDL_0:
 351:D:/fchai/work/i-cube/I-CUBE-HUAWEI/Drivers/BSP/IKS01A3\iks01a3_motion_sensors_ex.c ****       if ((Function & MOTION_MAGNETO) == MOTION_MAGNETO)
 352:D:/fchai/work/i-cube/I-CUBE-HUAWEI/Drivers/BSP/IKS01A3\iks01a3_motion_sensors_ex.c ****       {
 353:D:/fchai/work/i-cube/I-CUBE-HUAWEI/Drivers/BSP/IKS01A3\iks01a3_motion_sensors_ex.c ****         if (LIS3MDL_MAG_Get_DRDY_Status(MotionCompObj[Instance], Status) != BSP_ERROR_NONE)
 354:D:/fchai/work/i-cube/I-CUBE-HUAWEI/Drivers/BSP/IKS01A3\iks01a3_motion_sensors_ex.c ****         {
 355:D:/fchai/work/i-cube/I-CUBE-HUAWEI/Drivers/BSP/IKS01A3\iks01a3_motion_sensors_ex.c ****           ret = BSP_ERROR_COMPONENT_FAILURE;
 356:D:/fchai/work/i-cube/I-CUBE-HUAWEI/Drivers/BSP/IKS01A3\iks01a3_motion_sensors_ex.c ****         }
 357:D:/fchai/work/i-cube/I-CUBE-HUAWEI/Drivers/BSP/IKS01A3\iks01a3_motion_sensors_ex.c ****         else
 358:D:/fchai/work/i-cube/I-CUBE-HUAWEI/Drivers/BSP/IKS01A3\iks01a3_motion_sensors_ex.c ****         {
 359:D:/fchai/work/i-cube/I-CUBE-HUAWEI/Drivers/BSP/IKS01A3\iks01a3_motion_sensors_ex.c ****           ret = BSP_ERROR_NONE;
 360:D:/fchai/work/i-cube/I-CUBE-HUAWEI/Drivers/BSP/IKS01A3\iks01a3_motion_sensors_ex.c ****         }
 361:D:/fchai/work/i-cube/I-CUBE-HUAWEI/Drivers/BSP/IKS01A3\iks01a3_motion_sensors_ex.c ****       }
 362:D:/fchai/work/i-cube/I-CUBE-HUAWEI/Drivers/BSP/IKS01A3\iks01a3_motion_sensors_ex.c ****       else
 363:D:/fchai/work/i-cube/I-CUBE-HUAWEI/Drivers/BSP/IKS01A3\iks01a3_motion_sensors_ex.c ****       {
 364:D:/fchai/work/i-cube/I-CUBE-HUAWEI/Drivers/BSP/IKS01A3\iks01a3_motion_sensors_ex.c ****         ret = BSP_ERROR_COMPONENT_FAILURE;
 365:D:/fchai/work/i-cube/I-CUBE-HUAWEI/Drivers/BSP/IKS01A3\iks01a3_motion_sensors_ex.c ****       }
 366:D:/fchai/work/i-cube/I-CUBE-HUAWEI/Drivers/BSP/IKS01A3\iks01a3_motion_sensors_ex.c ****       break;
 367:D:/fchai/work/i-cube/I-CUBE-HUAWEI/Drivers/BSP/IKS01A3\iks01a3_motion_sensors_ex.c **** #endif
 368:D:/fchai/work/i-cube/I-CUBE-HUAWEI/Drivers/BSP/IKS01A3\iks01a3_motion_sensors_ex.c **** 
 369:D:/fchai/work/i-cube/I-CUBE-HUAWEI/Drivers/BSP/IKS01A3\iks01a3_motion_sensors_ex.c **** #if (USE_IKS01A3_MOTION_SENSOR_LSM6DSR_0 == 1)
 370:D:/fchai/work/i-cube/I-CUBE-HUAWEI/Drivers/BSP/IKS01A3\iks01a3_motion_sensors_ex.c ****     case IKS01A3_LSM6DSR_0:
 371:D:/fchai/work/i-cube/I-CUBE-HUAWEI/Drivers/BSP/IKS01A3\iks01a3_motion_sensors_ex.c ****       if ((Function & MOTION_ACCELERO) == MOTION_ACCELERO)
 372:D:/fchai/work/i-cube/I-CUBE-HUAWEI/Drivers/BSP/IKS01A3\iks01a3_motion_sensors_ex.c ****       {
 373:D:/fchai/work/i-cube/I-CUBE-HUAWEI/Drivers/BSP/IKS01A3\iks01a3_motion_sensors_ex.c ****         if (LSM6DSR_ACC_Get_DRDY_Status(MotionCompObj[Instance], Status) != BSP_ERROR_NONE)
 374:D:/fchai/work/i-cube/I-CUBE-HUAWEI/Drivers/BSP/IKS01A3\iks01a3_motion_sensors_ex.c ****         {
 375:D:/fchai/work/i-cube/I-CUBE-HUAWEI/Drivers/BSP/IKS01A3\iks01a3_motion_sensors_ex.c ****           ret = BSP_ERROR_COMPONENT_FAILURE;
 376:D:/fchai/work/i-cube/I-CUBE-HUAWEI/Drivers/BSP/IKS01A3\iks01a3_motion_sensors_ex.c ****         }
 377:D:/fchai/work/i-cube/I-CUBE-HUAWEI/Drivers/BSP/IKS01A3\iks01a3_motion_sensors_ex.c ****         else
 378:D:/fchai/work/i-cube/I-CUBE-HUAWEI/Drivers/BSP/IKS01A3\iks01a3_motion_sensors_ex.c ****         {
 379:D:/fchai/work/i-cube/I-CUBE-HUAWEI/Drivers/BSP/IKS01A3\iks01a3_motion_sensors_ex.c ****           ret = BSP_ERROR_NONE;
 380:D:/fchai/work/i-cube/I-CUBE-HUAWEI/Drivers/BSP/IKS01A3\iks01a3_motion_sensors_ex.c ****         }
 381:D:/fchai/work/i-cube/I-CUBE-HUAWEI/Drivers/BSP/IKS01A3\iks01a3_motion_sensors_ex.c ****       }
 382:D:/fchai/work/i-cube/I-CUBE-HUAWEI/Drivers/BSP/IKS01A3\iks01a3_motion_sensors_ex.c ****       else if ((Function & MOTION_GYRO) == MOTION_GYRO)
 383:D:/fchai/work/i-cube/I-CUBE-HUAWEI/Drivers/BSP/IKS01A3\iks01a3_motion_sensors_ex.c ****       {
 384:D:/fchai/work/i-cube/I-CUBE-HUAWEI/Drivers/BSP/IKS01A3\iks01a3_motion_sensors_ex.c ****         if (LSM6DSR_GYRO_Get_DRDY_Status(MotionCompObj[Instance], Status) != BSP_ERROR_NONE)
 385:D:/fchai/work/i-cube/I-CUBE-HUAWEI/Drivers/BSP/IKS01A3\iks01a3_motion_sensors_ex.c ****         {
 386:D:/fchai/work/i-cube/I-CUBE-HUAWEI/Drivers/BSP/IKS01A3\iks01a3_motion_sensors_ex.c ****           ret = BSP_ERROR_COMPONENT_FAILURE;
 387:D:/fchai/work/i-cube/I-CUBE-HUAWEI/Drivers/BSP/IKS01A3\iks01a3_motion_sensors_ex.c ****         }
 388:D:/fchai/work/i-cube/I-CUBE-HUAWEI/Drivers/BSP/IKS01A3\iks01a3_motion_sensors_ex.c ****         else
 389:D:/fchai/work/i-cube/I-CUBE-HUAWEI/Drivers/BSP/IKS01A3\iks01a3_motion_sensors_ex.c ****         {
 390:D:/fchai/work/i-cube/I-CUBE-HUAWEI/Drivers/BSP/IKS01A3\iks01a3_motion_sensors_ex.c ****           ret = BSP_ERROR_NONE;
 391:D:/fchai/work/i-cube/I-CUBE-HUAWEI/Drivers/BSP/IKS01A3\iks01a3_motion_sensors_ex.c ****         }
 392:D:/fchai/work/i-cube/I-CUBE-HUAWEI/Drivers/BSP/IKS01A3\iks01a3_motion_sensors_ex.c ****       }
 393:D:/fchai/work/i-cube/I-CUBE-HUAWEI/Drivers/BSP/IKS01A3\iks01a3_motion_sensors_ex.c ****       else
 394:D:/fchai/work/i-cube/I-CUBE-HUAWEI/Drivers/BSP/IKS01A3\iks01a3_motion_sensors_ex.c ****       {
 395:D:/fchai/work/i-cube/I-CUBE-HUAWEI/Drivers/BSP/IKS01A3\iks01a3_motion_sensors_ex.c ****         ret = BSP_ERROR_COMPONENT_FAILURE;
 396:D:/fchai/work/i-cube/I-CUBE-HUAWEI/Drivers/BSP/IKS01A3\iks01a3_motion_sensors_ex.c ****       }
 397:D:/fchai/work/i-cube/I-CUBE-HUAWEI/Drivers/BSP/IKS01A3\iks01a3_motion_sensors_ex.c ****       break;
 398:D:/fchai/work/i-cube/I-CUBE-HUAWEI/Drivers/BSP/IKS01A3\iks01a3_motion_sensors_ex.c **** #endif
 399:D:/fchai/work/i-cube/I-CUBE-HUAWEI/Drivers/BSP/IKS01A3\iks01a3_motion_sensors_ex.c **** 
 400:D:/fchai/work/i-cube/I-CUBE-HUAWEI/Drivers/BSP/IKS01A3\iks01a3_motion_sensors_ex.c **** #if (USE_IKS01A3_MOTION_SENSOR_A3G4250D_0 == 1)
 401:D:/fchai/work/i-cube/I-CUBE-HUAWEI/Drivers/BSP/IKS01A3\iks01a3_motion_sensors_ex.c ****     case IKS01A3_A3G4250D_0:
ARM GAS  T:\msys\tmp\ccuiVBP3.s 			page 9


 402:D:/fchai/work/i-cube/I-CUBE-HUAWEI/Drivers/BSP/IKS01A3\iks01a3_motion_sensors_ex.c ****       if ((Function & MOTION_GYRO) == MOTION_GYRO)
 403:D:/fchai/work/i-cube/I-CUBE-HUAWEI/Drivers/BSP/IKS01A3\iks01a3_motion_sensors_ex.c ****       {
 404:D:/fchai/work/i-cube/I-CUBE-HUAWEI/Drivers/BSP/IKS01A3\iks01a3_motion_sensors_ex.c ****         if (A3G4250D_GYRO_Get_DRDY_Status(MotionCompObj[Instance], Status) != BSP_ERROR_NONE)
 405:D:/fchai/work/i-cube/I-CUBE-HUAWEI/Drivers/BSP/IKS01A3\iks01a3_motion_sensors_ex.c ****         {
 406:D:/fchai/work/i-cube/I-CUBE-HUAWEI/Drivers/BSP/IKS01A3\iks01a3_motion_sensors_ex.c ****           ret = BSP_ERROR_COMPONENT_FAILURE;
 407:D:/fchai/work/i-cube/I-CUBE-HUAWEI/Drivers/BSP/IKS01A3\iks01a3_motion_sensors_ex.c ****         }
 408:D:/fchai/work/i-cube/I-CUBE-HUAWEI/Drivers/BSP/IKS01A3\iks01a3_motion_sensors_ex.c ****         else
 409:D:/fchai/work/i-cube/I-CUBE-HUAWEI/Drivers/BSP/IKS01A3\iks01a3_motion_sensors_ex.c ****         {
 410:D:/fchai/work/i-cube/I-CUBE-HUAWEI/Drivers/BSP/IKS01A3\iks01a3_motion_sensors_ex.c ****           ret = BSP_ERROR_NONE;
 411:D:/fchai/work/i-cube/I-CUBE-HUAWEI/Drivers/BSP/IKS01A3\iks01a3_motion_sensors_ex.c ****         }
 412:D:/fchai/work/i-cube/I-CUBE-HUAWEI/Drivers/BSP/IKS01A3\iks01a3_motion_sensors_ex.c ****       }
 413:D:/fchai/work/i-cube/I-CUBE-HUAWEI/Drivers/BSP/IKS01A3\iks01a3_motion_sensors_ex.c ****       else
 414:D:/fchai/work/i-cube/I-CUBE-HUAWEI/Drivers/BSP/IKS01A3\iks01a3_motion_sensors_ex.c ****       {
 415:D:/fchai/work/i-cube/I-CUBE-HUAWEI/Drivers/BSP/IKS01A3\iks01a3_motion_sensors_ex.c ****         ret = BSP_ERROR_COMPONENT_FAILURE;
 416:D:/fchai/work/i-cube/I-CUBE-HUAWEI/Drivers/BSP/IKS01A3\iks01a3_motion_sensors_ex.c ****       }
 417:D:/fchai/work/i-cube/I-CUBE-HUAWEI/Drivers/BSP/IKS01A3\iks01a3_motion_sensors_ex.c ****       break;
 418:D:/fchai/work/i-cube/I-CUBE-HUAWEI/Drivers/BSP/IKS01A3\iks01a3_motion_sensors_ex.c **** #endif
 419:D:/fchai/work/i-cube/I-CUBE-HUAWEI/Drivers/BSP/IKS01A3\iks01a3_motion_sensors_ex.c **** 
 420:D:/fchai/work/i-cube/I-CUBE-HUAWEI/Drivers/BSP/IKS01A3\iks01a3_motion_sensors_ex.c **** #if (USE_IKS01A3_MOTION_SENSOR_AIS328DQ_0 == 1)
 421:D:/fchai/work/i-cube/I-CUBE-HUAWEI/Drivers/BSP/IKS01A3\iks01a3_motion_sensors_ex.c ****     case IKS01A3_AIS328DQ_0:
 422:D:/fchai/work/i-cube/I-CUBE-HUAWEI/Drivers/BSP/IKS01A3\iks01a3_motion_sensors_ex.c ****       if ((Function & MOTION_ACCELERO) == MOTION_ACCELERO)
 423:D:/fchai/work/i-cube/I-CUBE-HUAWEI/Drivers/BSP/IKS01A3\iks01a3_motion_sensors_ex.c ****       {
 424:D:/fchai/work/i-cube/I-CUBE-HUAWEI/Drivers/BSP/IKS01A3\iks01a3_motion_sensors_ex.c ****         if (AIS328DQ_ACC_Get_DRDY_Status(MotionCompObj[Instance], Status) != BSP_ERROR_NONE)
 425:D:/fchai/work/i-cube/I-CUBE-HUAWEI/Drivers/BSP/IKS01A3\iks01a3_motion_sensors_ex.c ****         {
 426:D:/fchai/work/i-cube/I-CUBE-HUAWEI/Drivers/BSP/IKS01A3\iks01a3_motion_sensors_ex.c ****           ret = BSP_ERROR_COMPONENT_FAILURE;
 427:D:/fchai/work/i-cube/I-CUBE-HUAWEI/Drivers/BSP/IKS01A3\iks01a3_motion_sensors_ex.c ****         }
 428:D:/fchai/work/i-cube/I-CUBE-HUAWEI/Drivers/BSP/IKS01A3\iks01a3_motion_sensors_ex.c ****         else
 429:D:/fchai/work/i-cube/I-CUBE-HUAWEI/Drivers/BSP/IKS01A3\iks01a3_motion_sensors_ex.c ****         {
 430:D:/fchai/work/i-cube/I-CUBE-HUAWEI/Drivers/BSP/IKS01A3\iks01a3_motion_sensors_ex.c ****           ret = BSP_ERROR_NONE;
 431:D:/fchai/work/i-cube/I-CUBE-HUAWEI/Drivers/BSP/IKS01A3\iks01a3_motion_sensors_ex.c ****         }
 432:D:/fchai/work/i-cube/I-CUBE-HUAWEI/Drivers/BSP/IKS01A3\iks01a3_motion_sensors_ex.c ****       }
 433:D:/fchai/work/i-cube/I-CUBE-HUAWEI/Drivers/BSP/IKS01A3\iks01a3_motion_sensors_ex.c ****       else
 434:D:/fchai/work/i-cube/I-CUBE-HUAWEI/Drivers/BSP/IKS01A3\iks01a3_motion_sensors_ex.c ****       {
 435:D:/fchai/work/i-cube/I-CUBE-HUAWEI/Drivers/BSP/IKS01A3\iks01a3_motion_sensors_ex.c ****         ret = BSP_ERROR_COMPONENT_FAILURE;
 436:D:/fchai/work/i-cube/I-CUBE-HUAWEI/Drivers/BSP/IKS01A3\iks01a3_motion_sensors_ex.c ****       }
 437:D:/fchai/work/i-cube/I-CUBE-HUAWEI/Drivers/BSP/IKS01A3\iks01a3_motion_sensors_ex.c ****       break;
 438:D:/fchai/work/i-cube/I-CUBE-HUAWEI/Drivers/BSP/IKS01A3\iks01a3_motion_sensors_ex.c **** #endif
 439:D:/fchai/work/i-cube/I-CUBE-HUAWEI/Drivers/BSP/IKS01A3\iks01a3_motion_sensors_ex.c **** 
 440:D:/fchai/work/i-cube/I-CUBE-HUAWEI/Drivers/BSP/IKS01A3\iks01a3_motion_sensors_ex.c **** #if (USE_IKS01A3_MOTION_SENSOR_AIS3624DQ_0 == 1)
 441:D:/fchai/work/i-cube/I-CUBE-HUAWEI/Drivers/BSP/IKS01A3\iks01a3_motion_sensors_ex.c ****     case IKS01A3_AIS3624DQ_0:
 442:D:/fchai/work/i-cube/I-CUBE-HUAWEI/Drivers/BSP/IKS01A3\iks01a3_motion_sensors_ex.c ****       if ((Function & MOTION_ACCELERO) == MOTION_ACCELERO)
 443:D:/fchai/work/i-cube/I-CUBE-HUAWEI/Drivers/BSP/IKS01A3\iks01a3_motion_sensors_ex.c ****       {
 444:D:/fchai/work/i-cube/I-CUBE-HUAWEI/Drivers/BSP/IKS01A3\iks01a3_motion_sensors_ex.c ****         if (AIS3624DQ_ACC_Get_DRDY_Status(MotionCompObj[Instance], Status) != BSP_ERROR_NONE)
 445:D:/fchai/work/i-cube/I-CUBE-HUAWEI/Drivers/BSP/IKS01A3\iks01a3_motion_sensors_ex.c ****         {
 446:D:/fchai/work/i-cube/I-CUBE-HUAWEI/Drivers/BSP/IKS01A3\iks01a3_motion_sensors_ex.c ****           ret = BSP_ERROR_COMPONENT_FAILURE;
 447:D:/fchai/work/i-cube/I-CUBE-HUAWEI/Drivers/BSP/IKS01A3\iks01a3_motion_sensors_ex.c ****         }
 448:D:/fchai/work/i-cube/I-CUBE-HUAWEI/Drivers/BSP/IKS01A3\iks01a3_motion_sensors_ex.c ****         else
 449:D:/fchai/work/i-cube/I-CUBE-HUAWEI/Drivers/BSP/IKS01A3\iks01a3_motion_sensors_ex.c ****         {
 450:D:/fchai/work/i-cube/I-CUBE-HUAWEI/Drivers/BSP/IKS01A3\iks01a3_motion_sensors_ex.c ****           ret = BSP_ERROR_NONE;
 451:D:/fchai/work/i-cube/I-CUBE-HUAWEI/Drivers/BSP/IKS01A3\iks01a3_motion_sensors_ex.c ****         }
 452:D:/fchai/work/i-cube/I-CUBE-HUAWEI/Drivers/BSP/IKS01A3\iks01a3_motion_sensors_ex.c ****       }
 453:D:/fchai/work/i-cube/I-CUBE-HUAWEI/Drivers/BSP/IKS01A3\iks01a3_motion_sensors_ex.c ****       else
 454:D:/fchai/work/i-cube/I-CUBE-HUAWEI/Drivers/BSP/IKS01A3\iks01a3_motion_sensors_ex.c ****       {
 455:D:/fchai/work/i-cube/I-CUBE-HUAWEI/Drivers/BSP/IKS01A3\iks01a3_motion_sensors_ex.c ****         ret = BSP_ERROR_COMPONENT_FAILURE;
 456:D:/fchai/work/i-cube/I-CUBE-HUAWEI/Drivers/BSP/IKS01A3\iks01a3_motion_sensors_ex.c ****       }
 457:D:/fchai/work/i-cube/I-CUBE-HUAWEI/Drivers/BSP/IKS01A3\iks01a3_motion_sensors_ex.c ****       break;
 458:D:/fchai/work/i-cube/I-CUBE-HUAWEI/Drivers/BSP/IKS01A3\iks01a3_motion_sensors_ex.c **** #endif
ARM GAS  T:\msys\tmp\ccuiVBP3.s 			page 10


 459:D:/fchai/work/i-cube/I-CUBE-HUAWEI/Drivers/BSP/IKS01A3\iks01a3_motion_sensors_ex.c **** 
 460:D:/fchai/work/i-cube/I-CUBE-HUAWEI/Drivers/BSP/IKS01A3\iks01a3_motion_sensors_ex.c **** #if (USE_IKS01A3_MOTION_SENSOR_H3LIS331DL_0 == 1)
 461:D:/fchai/work/i-cube/I-CUBE-HUAWEI/Drivers/BSP/IKS01A3\iks01a3_motion_sensors_ex.c ****     case IKS01A3_H3LIS331DL_0:
 462:D:/fchai/work/i-cube/I-CUBE-HUAWEI/Drivers/BSP/IKS01A3\iks01a3_motion_sensors_ex.c ****       if ((Function & MOTION_ACCELERO) == MOTION_ACCELERO)
 463:D:/fchai/work/i-cube/I-CUBE-HUAWEI/Drivers/BSP/IKS01A3\iks01a3_motion_sensors_ex.c ****       {
 464:D:/fchai/work/i-cube/I-CUBE-HUAWEI/Drivers/BSP/IKS01A3\iks01a3_motion_sensors_ex.c ****         if (H3LIS331DL_ACC_Get_DRDY_Status(MotionCompObj[Instance], Status) != BSP_ERROR_NONE)
 465:D:/fchai/work/i-cube/I-CUBE-HUAWEI/Drivers/BSP/IKS01A3\iks01a3_motion_sensors_ex.c ****         {
 466:D:/fchai/work/i-cube/I-CUBE-HUAWEI/Drivers/BSP/IKS01A3\iks01a3_motion_sensors_ex.c ****           ret = BSP_ERROR_COMPONENT_FAILURE;
 467:D:/fchai/work/i-cube/I-CUBE-HUAWEI/Drivers/BSP/IKS01A3\iks01a3_motion_sensors_ex.c ****         }
 468:D:/fchai/work/i-cube/I-CUBE-HUAWEI/Drivers/BSP/IKS01A3\iks01a3_motion_sensors_ex.c ****         else
 469:D:/fchai/work/i-cube/I-CUBE-HUAWEI/Drivers/BSP/IKS01A3\iks01a3_motion_sensors_ex.c ****         {
 470:D:/fchai/work/i-cube/I-CUBE-HUAWEI/Drivers/BSP/IKS01A3\iks01a3_motion_sensors_ex.c ****           ret = BSP_ERROR_NONE;
 471:D:/fchai/work/i-cube/I-CUBE-HUAWEI/Drivers/BSP/IKS01A3\iks01a3_motion_sensors_ex.c ****         }
 472:D:/fchai/work/i-cube/I-CUBE-HUAWEI/Drivers/BSP/IKS01A3\iks01a3_motion_sensors_ex.c ****       }
 473:D:/fchai/work/i-cube/I-CUBE-HUAWEI/Drivers/BSP/IKS01A3\iks01a3_motion_sensors_ex.c ****       else
 474:D:/fchai/work/i-cube/I-CUBE-HUAWEI/Drivers/BSP/IKS01A3\iks01a3_motion_sensors_ex.c ****       {
 475:D:/fchai/work/i-cube/I-CUBE-HUAWEI/Drivers/BSP/IKS01A3\iks01a3_motion_sensors_ex.c ****         ret = BSP_ERROR_COMPONENT_FAILURE;
 476:D:/fchai/work/i-cube/I-CUBE-HUAWEI/Drivers/BSP/IKS01A3\iks01a3_motion_sensors_ex.c ****       }
 477:D:/fchai/work/i-cube/I-CUBE-HUAWEI/Drivers/BSP/IKS01A3\iks01a3_motion_sensors_ex.c ****       break;
 478:D:/fchai/work/i-cube/I-CUBE-HUAWEI/Drivers/BSP/IKS01A3\iks01a3_motion_sensors_ex.c **** #endif
 479:D:/fchai/work/i-cube/I-CUBE-HUAWEI/Drivers/BSP/IKS01A3\iks01a3_motion_sensors_ex.c **** 
 480:D:/fchai/work/i-cube/I-CUBE-HUAWEI/Drivers/BSP/IKS01A3\iks01a3_motion_sensors_ex.c **** #if (USE_IKS01A3_MOTION_SENSOR_LSM6DSRX_0 == 1)
 481:D:/fchai/work/i-cube/I-CUBE-HUAWEI/Drivers/BSP/IKS01A3\iks01a3_motion_sensors_ex.c ****     case IKS01A3_LSM6DSRX_0:
 482:D:/fchai/work/i-cube/I-CUBE-HUAWEI/Drivers/BSP/IKS01A3\iks01a3_motion_sensors_ex.c ****       if ((Function & MOTION_ACCELERO) == MOTION_ACCELERO)
 483:D:/fchai/work/i-cube/I-CUBE-HUAWEI/Drivers/BSP/IKS01A3\iks01a3_motion_sensors_ex.c ****       {
 484:D:/fchai/work/i-cube/I-CUBE-HUAWEI/Drivers/BSP/IKS01A3\iks01a3_motion_sensors_ex.c ****         if (LSM6DSRX_ACC_Get_DRDY_Status(MotionCompObj[Instance], Status) != BSP_ERROR_NONE)
 485:D:/fchai/work/i-cube/I-CUBE-HUAWEI/Drivers/BSP/IKS01A3\iks01a3_motion_sensors_ex.c ****         {
 486:D:/fchai/work/i-cube/I-CUBE-HUAWEI/Drivers/BSP/IKS01A3\iks01a3_motion_sensors_ex.c ****           ret = BSP_ERROR_COMPONENT_FAILURE;
 487:D:/fchai/work/i-cube/I-CUBE-HUAWEI/Drivers/BSP/IKS01A3\iks01a3_motion_sensors_ex.c ****         }
 488:D:/fchai/work/i-cube/I-CUBE-HUAWEI/Drivers/BSP/IKS01A3\iks01a3_motion_sensors_ex.c ****         else
 489:D:/fchai/work/i-cube/I-CUBE-HUAWEI/Drivers/BSP/IKS01A3\iks01a3_motion_sensors_ex.c ****         {
 490:D:/fchai/work/i-cube/I-CUBE-HUAWEI/Drivers/BSP/IKS01A3\iks01a3_motion_sensors_ex.c ****           ret = BSP_ERROR_NONE;
 491:D:/fchai/work/i-cube/I-CUBE-HUAWEI/Drivers/BSP/IKS01A3\iks01a3_motion_sensors_ex.c ****         }
 492:D:/fchai/work/i-cube/I-CUBE-HUAWEI/Drivers/BSP/IKS01A3\iks01a3_motion_sensors_ex.c ****       }
 493:D:/fchai/work/i-cube/I-CUBE-HUAWEI/Drivers/BSP/IKS01A3\iks01a3_motion_sensors_ex.c ****       else if ((Function & MOTION_GYRO) == MOTION_GYRO)
 494:D:/fchai/work/i-cube/I-CUBE-HUAWEI/Drivers/BSP/IKS01A3\iks01a3_motion_sensors_ex.c ****       {
 495:D:/fchai/work/i-cube/I-CUBE-HUAWEI/Drivers/BSP/IKS01A3\iks01a3_motion_sensors_ex.c ****         if (LSM6DSRX_GYRO_Get_DRDY_Status(MotionCompObj[Instance], Status) != BSP_ERROR_NONE)
 496:D:/fchai/work/i-cube/I-CUBE-HUAWEI/Drivers/BSP/IKS01A3\iks01a3_motion_sensors_ex.c ****         {
 497:D:/fchai/work/i-cube/I-CUBE-HUAWEI/Drivers/BSP/IKS01A3\iks01a3_motion_sensors_ex.c ****           ret = BSP_ERROR_COMPONENT_FAILURE;
 498:D:/fchai/work/i-cube/I-CUBE-HUAWEI/Drivers/BSP/IKS01A3\iks01a3_motion_sensors_ex.c ****         }
 499:D:/fchai/work/i-cube/I-CUBE-HUAWEI/Drivers/BSP/IKS01A3\iks01a3_motion_sensors_ex.c ****         else
 500:D:/fchai/work/i-cube/I-CUBE-HUAWEI/Drivers/BSP/IKS01A3\iks01a3_motion_sensors_ex.c ****         {
 501:D:/fchai/work/i-cube/I-CUBE-HUAWEI/Drivers/BSP/IKS01A3\iks01a3_motion_sensors_ex.c ****           ret = BSP_ERROR_NONE;
 502:D:/fchai/work/i-cube/I-CUBE-HUAWEI/Drivers/BSP/IKS01A3\iks01a3_motion_sensors_ex.c ****         }
 503:D:/fchai/work/i-cube/I-CUBE-HUAWEI/Drivers/BSP/IKS01A3\iks01a3_motion_sensors_ex.c ****       }
 504:D:/fchai/work/i-cube/I-CUBE-HUAWEI/Drivers/BSP/IKS01A3\iks01a3_motion_sensors_ex.c ****       else
 505:D:/fchai/work/i-cube/I-CUBE-HUAWEI/Drivers/BSP/IKS01A3\iks01a3_motion_sensors_ex.c ****       {
 506:D:/fchai/work/i-cube/I-CUBE-HUAWEI/Drivers/BSP/IKS01A3\iks01a3_motion_sensors_ex.c ****         ret = BSP_ERROR_COMPONENT_FAILURE;
 507:D:/fchai/work/i-cube/I-CUBE-HUAWEI/Drivers/BSP/IKS01A3\iks01a3_motion_sensors_ex.c ****       }
 508:D:/fchai/work/i-cube/I-CUBE-HUAWEI/Drivers/BSP/IKS01A3\iks01a3_motion_sensors_ex.c ****       break;
 509:D:/fchai/work/i-cube/I-CUBE-HUAWEI/Drivers/BSP/IKS01A3\iks01a3_motion_sensors_ex.c **** #endif
 510:D:/fchai/work/i-cube/I-CUBE-HUAWEI/Drivers/BSP/IKS01A3\iks01a3_motion_sensors_ex.c **** 
 511:D:/fchai/work/i-cube/I-CUBE-HUAWEI/Drivers/BSP/IKS01A3\iks01a3_motion_sensors_ex.c **** #if (USE_IKS01A3_MOTION_SENSOR_ISM330DHCX_0 == 1)
 512:D:/fchai/work/i-cube/I-CUBE-HUAWEI/Drivers/BSP/IKS01A3\iks01a3_motion_sensors_ex.c ****     case IKS01A3_ISM330DHCX_0:
 513:D:/fchai/work/i-cube/I-CUBE-HUAWEI/Drivers/BSP/IKS01A3\iks01a3_motion_sensors_ex.c ****       if ((Function & MOTION_ACCELERO) == MOTION_ACCELERO)
 514:D:/fchai/work/i-cube/I-CUBE-HUAWEI/Drivers/BSP/IKS01A3\iks01a3_motion_sensors_ex.c ****       {
 515:D:/fchai/work/i-cube/I-CUBE-HUAWEI/Drivers/BSP/IKS01A3\iks01a3_motion_sensors_ex.c ****         if (ISM330DHCX_ACC_Get_DRDY_Status(MotionCompObj[Instance], Status) != BSP_ERROR_NONE)
ARM GAS  T:\msys\tmp\ccuiVBP3.s 			page 11


 516:D:/fchai/work/i-cube/I-CUBE-HUAWEI/Drivers/BSP/IKS01A3\iks01a3_motion_sensors_ex.c ****         {
 517:D:/fchai/work/i-cube/I-CUBE-HUAWEI/Drivers/BSP/IKS01A3\iks01a3_motion_sensors_ex.c ****           ret = BSP_ERROR_COMPONENT_FAILURE;
 518:D:/fchai/work/i-cube/I-CUBE-HUAWEI/Drivers/BSP/IKS01A3\iks01a3_motion_sensors_ex.c ****         }
 519:D:/fchai/work/i-cube/I-CUBE-HUAWEI/Drivers/BSP/IKS01A3\iks01a3_motion_sensors_ex.c ****         else
 520:D:/fchai/work/i-cube/I-CUBE-HUAWEI/Drivers/BSP/IKS01A3\iks01a3_motion_sensors_ex.c ****         {
 521:D:/fchai/work/i-cube/I-CUBE-HUAWEI/Drivers/BSP/IKS01A3\iks01a3_motion_sensors_ex.c ****           ret = BSP_ERROR_NONE;
 522:D:/fchai/work/i-cube/I-CUBE-HUAWEI/Drivers/BSP/IKS01A3\iks01a3_motion_sensors_ex.c ****         }
 523:D:/fchai/work/i-cube/I-CUBE-HUAWEI/Drivers/BSP/IKS01A3\iks01a3_motion_sensors_ex.c ****       }
 524:D:/fchai/work/i-cube/I-CUBE-HUAWEI/Drivers/BSP/IKS01A3\iks01a3_motion_sensors_ex.c ****       else if ((Function & MOTION_GYRO) == MOTION_GYRO)
 525:D:/fchai/work/i-cube/I-CUBE-HUAWEI/Drivers/BSP/IKS01A3\iks01a3_motion_sensors_ex.c ****       {
 526:D:/fchai/work/i-cube/I-CUBE-HUAWEI/Drivers/BSP/IKS01A3\iks01a3_motion_sensors_ex.c ****         if (ISM330DHCX_GYRO_Get_DRDY_Status(MotionCompObj[Instance], Status) != BSP_ERROR_NONE)
 527:D:/fchai/work/i-cube/I-CUBE-HUAWEI/Drivers/BSP/IKS01A3\iks01a3_motion_sensors_ex.c ****         {
 528:D:/fchai/work/i-cube/I-CUBE-HUAWEI/Drivers/BSP/IKS01A3\iks01a3_motion_sensors_ex.c ****           ret = BSP_ERROR_COMPONENT_FAILURE;
 529:D:/fchai/work/i-cube/I-CUBE-HUAWEI/Drivers/BSP/IKS01A3\iks01a3_motion_sensors_ex.c ****         }
 530:D:/fchai/work/i-cube/I-CUBE-HUAWEI/Drivers/BSP/IKS01A3\iks01a3_motion_sensors_ex.c ****         else
 531:D:/fchai/work/i-cube/I-CUBE-HUAWEI/Drivers/BSP/IKS01A3\iks01a3_motion_sensors_ex.c ****         {
 532:D:/fchai/work/i-cube/I-CUBE-HUAWEI/Drivers/BSP/IKS01A3\iks01a3_motion_sensors_ex.c ****           ret = BSP_ERROR_NONE;
 533:D:/fchai/work/i-cube/I-CUBE-HUAWEI/Drivers/BSP/IKS01A3\iks01a3_motion_sensors_ex.c ****         }
 534:D:/fchai/work/i-cube/I-CUBE-HUAWEI/Drivers/BSP/IKS01A3\iks01a3_motion_sensors_ex.c ****       }
 535:D:/fchai/work/i-cube/I-CUBE-HUAWEI/Drivers/BSP/IKS01A3\iks01a3_motion_sensors_ex.c ****       else
 536:D:/fchai/work/i-cube/I-CUBE-HUAWEI/Drivers/BSP/IKS01A3\iks01a3_motion_sensors_ex.c ****       {
 537:D:/fchai/work/i-cube/I-CUBE-HUAWEI/Drivers/BSP/IKS01A3\iks01a3_motion_sensors_ex.c ****         ret = BSP_ERROR_COMPONENT_FAILURE;
 538:D:/fchai/work/i-cube/I-CUBE-HUAWEI/Drivers/BSP/IKS01A3\iks01a3_motion_sensors_ex.c ****       }
 539:D:/fchai/work/i-cube/I-CUBE-HUAWEI/Drivers/BSP/IKS01A3\iks01a3_motion_sensors_ex.c ****       break;
 540:D:/fchai/work/i-cube/I-CUBE-HUAWEI/Drivers/BSP/IKS01A3\iks01a3_motion_sensors_ex.c **** #endif
 541:D:/fchai/work/i-cube/I-CUBE-HUAWEI/Drivers/BSP/IKS01A3\iks01a3_motion_sensors_ex.c **** 
 542:D:/fchai/work/i-cube/I-CUBE-HUAWEI/Drivers/BSP/IKS01A3\iks01a3_motion_sensors_ex.c ****     default:
 543:D:/fchai/work/i-cube/I-CUBE-HUAWEI/Drivers/BSP/IKS01A3\iks01a3_motion_sensors_ex.c ****       ret = BSP_ERROR_WRONG_PARAM;
 544:D:/fchai/work/i-cube/I-CUBE-HUAWEI/Drivers/BSP/IKS01A3\iks01a3_motion_sensors_ex.c ****       break;
 545:D:/fchai/work/i-cube/I-CUBE-HUAWEI/Drivers/BSP/IKS01A3\iks01a3_motion_sensors_ex.c ****   }
 546:D:/fchai/work/i-cube/I-CUBE-HUAWEI/Drivers/BSP/IKS01A3\iks01a3_motion_sensors_ex.c **** 
 547:D:/fchai/work/i-cube/I-CUBE-HUAWEI/Drivers/BSP/IKS01A3\iks01a3_motion_sensors_ex.c ****   return ret;
  55              		.loc 1 547 3 is_stmt 1 view .LVU6
 548:D:/fchai/work/i-cube/I-CUBE-HUAWEI/Drivers/BSP/IKS01A3\iks01a3_motion_sensors_ex.c **** }
  56              		.loc 1 548 1 is_stmt 0 view .LVU7
  57 0014 08BD     		pop	{r3, pc}
  58              	.LVL3:
  59              	.L2:
  98:D:/fchai/work/i-cube/I-CUBE-HUAWEI/Drivers/BSP/IKS01A3\iks01a3_motion_sensors_ex.c ****       {
  60              		.loc 1 98 7 is_stmt 1 view .LVU8
  98:D:/fchai/work/i-cube/I-CUBE-HUAWEI/Drivers/BSP/IKS01A3\iks01a3_motion_sensors_ex.c ****       {
  61              		.loc 1 98 10 is_stmt 0 view .LVU9
  62 0016 9A07     		lsls	r2, r3, #30
  63              	.LVL4:
  98:D:/fchai/work/i-cube/I-CUBE-HUAWEI/Drivers/BSP/IKS01A3\iks01a3_motion_sensors_ex.c ****       {
  64              		.loc 1 98 10 view .LVU10
  65 0018 10D5     		bpl	.L7
 100:D:/fchai/work/i-cube/I-CUBE-HUAWEI/Drivers/BSP/IKS01A3\iks01a3_motion_sensors_ex.c ****         {
  66              		.loc 1 100 9 is_stmt 1 view .LVU11
 100:D:/fchai/work/i-cube/I-CUBE-HUAWEI/Drivers/BSP/IKS01A3\iks01a3_motion_sensors_ex.c ****         {
  67              		.loc 1 100 55 is_stmt 0 view .LVU12
  68 001a 124B     		ldr	r3, .L25
  69              	.LVL5:
 100:D:/fchai/work/i-cube/I-CUBE-HUAWEI/Drivers/BSP/IKS01A3\iks01a3_motion_sensors_ex.c ****         {
  70              		.loc 1 100 13 view .LVU13
  71 001c 5868     		ldr	r0, [r3, #4]
  72              	.LVL6:
ARM GAS  T:\msys\tmp\ccuiVBP3.s 			page 12


 100:D:/fchai/work/i-cube/I-CUBE-HUAWEI/Drivers/BSP/IKS01A3\iks01a3_motion_sensors_ex.c ****         {
  73              		.loc 1 100 13 view .LVU14
  74 001e FFF7FEFF 		bl	LIS2DW12_ACC_Get_DRDY_Status
  75              	.LVL7:
 100:D:/fchai/work/i-cube/I-CUBE-HUAWEI/Drivers/BSP/IKS01A3\iks01a3_motion_sensors_ex.c ****         {
  76              		.loc 1 100 12 view .LVU15
  77 0022 58B9     		cbnz	r0, .L7
  78              	.L6:
  75:D:/fchai/work/i-cube/I-CUBE-HUAWEI/Drivers/BSP/IKS01A3\iks01a3_motion_sensors_ex.c ****         }
  79              		.loc 1 75 11 is_stmt 1 view .LVU16
  80              	.LVL8:
  75:D:/fchai/work/i-cube/I-CUBE-HUAWEI/Drivers/BSP/IKS01A3\iks01a3_motion_sensors_ex.c ****         }
  81              		.loc 1 75 15 is_stmt 0 view .LVU17
  82 0024 0020     		movs	r0, #0
  83              		.loc 1 548 1 view .LVU18
  84 0026 08BD     		pop	{r3, pc}
  85              	.LVL9:
  86              	.L23:
  67:D:/fchai/work/i-cube/I-CUBE-HUAWEI/Drivers/BSP/IKS01A3\iks01a3_motion_sensors_ex.c ****       {
  87              		.loc 1 67 7 is_stmt 1 view .LVU19
  67:D:/fchai/work/i-cube/I-CUBE-HUAWEI/Drivers/BSP/IKS01A3\iks01a3_motion_sensors_ex.c ****       {
  88              		.loc 1 67 10 is_stmt 0 view .LVU20
  89 0028 9A07     		lsls	r2, r3, #30
  90 002a 13D4     		bmi	.L24
  78:D:/fchai/work/i-cube/I-CUBE-HUAWEI/Drivers/BSP/IKS01A3\iks01a3_motion_sensors_ex.c ****       {
  91              		.loc 1 78 12 is_stmt 1 view .LVU21
  78:D:/fchai/work/i-cube/I-CUBE-HUAWEI/Drivers/BSP/IKS01A3\iks01a3_motion_sensors_ex.c ****       {
  92              		.loc 1 78 15 is_stmt 0 view .LVU22
  93 002c D807     		lsls	r0, r3, #31
  94              	.LVL10:
  78:D:/fchai/work/i-cube/I-CUBE-HUAWEI/Drivers/BSP/IKS01A3\iks01a3_motion_sensors_ex.c ****       {
  95              		.loc 1 78 15 view .LVU23
  96 002e 05D5     		bpl	.L7
  80:D:/fchai/work/i-cube/I-CUBE-HUAWEI/Drivers/BSP/IKS01A3\iks01a3_motion_sensors_ex.c ****         {
  97              		.loc 1 80 9 is_stmt 1 view .LVU24
  80:D:/fchai/work/i-cube/I-CUBE-HUAWEI/Drivers/BSP/IKS01A3\iks01a3_motion_sensors_ex.c ****         {
  98              		.loc 1 80 55 is_stmt 0 view .LVU25
  99 0030 0C4B     		ldr	r3, .L25
 100              	.LVL11:
  80:D:/fchai/work/i-cube/I-CUBE-HUAWEI/Drivers/BSP/IKS01A3\iks01a3_motion_sensors_ex.c ****         {
 101              		.loc 1 80 13 view .LVU26
 102 0032 1868     		ldr	r0, [r3]
 103 0034 FFF7FEFF 		bl	LSM6DSO_GYRO_Get_DRDY_Status
 104              	.LVL12:
  80:D:/fchai/work/i-cube/I-CUBE-HUAWEI/Drivers/BSP/IKS01A3\iks01a3_motion_sensors_ex.c ****         {
 105              		.loc 1 80 12 view .LVU27
 106 0038 0028     		cmp	r0, #0
 107 003a F3D0     		beq	.L6
 108              	.L7:
  71:D:/fchai/work/i-cube/I-CUBE-HUAWEI/Drivers/BSP/IKS01A3\iks01a3_motion_sensors_ex.c ****         }
 109              		.loc 1 71 15 view .LVU28
 110 003c 6FF00400 		mvn	r0, #4
 111              		.loc 1 548 1 view .LVU29
 112 0040 08BD     		pop	{r3, pc}
 113              	.LVL13:
 114              	.L3:
 118:D:/fchai/work/i-cube/I-CUBE-HUAWEI/Drivers/BSP/IKS01A3\iks01a3_motion_sensors_ex.c ****       {
ARM GAS  T:\msys\tmp\ccuiVBP3.s 			page 13


 115              		.loc 1 118 7 is_stmt 1 view .LVU30
 118:D:/fchai/work/i-cube/I-CUBE-HUAWEI/Drivers/BSP/IKS01A3\iks01a3_motion_sensors_ex.c ****       {
 116              		.loc 1 118 10 is_stmt 0 view .LVU31
 117 0042 5B07     		lsls	r3, r3, #29
 118              	.LVL14:
 118:D:/fchai/work/i-cube/I-CUBE-HUAWEI/Drivers/BSP/IKS01A3\iks01a3_motion_sensors_ex.c ****       {
 119              		.loc 1 118 10 view .LVU32
 120 0044 FAD5     		bpl	.L7
 120:D:/fchai/work/i-cube/I-CUBE-HUAWEI/Drivers/BSP/IKS01A3\iks01a3_motion_sensors_ex.c ****         {
 121              		.loc 1 120 9 is_stmt 1 view .LVU33
 120:D:/fchai/work/i-cube/I-CUBE-HUAWEI/Drivers/BSP/IKS01A3\iks01a3_motion_sensors_ex.c ****         {
 122              		.loc 1 120 54 is_stmt 0 view .LVU34
 123 0046 074B     		ldr	r3, .L25
 120:D:/fchai/work/i-cube/I-CUBE-HUAWEI/Drivers/BSP/IKS01A3\iks01a3_motion_sensors_ex.c ****         {
 124              		.loc 1 120 13 view .LVU35
 125 0048 9868     		ldr	r0, [r3, #8]
 126              	.LVL15:
 120:D:/fchai/work/i-cube/I-CUBE-HUAWEI/Drivers/BSP/IKS01A3\iks01a3_motion_sensors_ex.c ****         {
 127              		.loc 1 120 13 view .LVU36
 128 004a FFF7FEFF 		bl	LIS2MDL_MAG_Get_DRDY_Status
 129              	.LVL16:
 120:D:/fchai/work/i-cube/I-CUBE-HUAWEI/Drivers/BSP/IKS01A3\iks01a3_motion_sensors_ex.c ****         {
 130              		.loc 1 120 12 view .LVU37
 131 004e 0028     		cmp	r0, #0
 132 0050 E8D0     		beq	.L6
 133 0052 F3E7     		b	.L7
 134              	.LVL17:
 135              	.L24:
  69:D:/fchai/work/i-cube/I-CUBE-HUAWEI/Drivers/BSP/IKS01A3\iks01a3_motion_sensors_ex.c ****         {
 136              		.loc 1 69 9 is_stmt 1 view .LVU38
  69:D:/fchai/work/i-cube/I-CUBE-HUAWEI/Drivers/BSP/IKS01A3\iks01a3_motion_sensors_ex.c ****         {
 137              		.loc 1 69 54 is_stmt 0 view .LVU39
 138 0054 034B     		ldr	r3, .L25
 139              	.LVL18:
  69:D:/fchai/work/i-cube/I-CUBE-HUAWEI/Drivers/BSP/IKS01A3\iks01a3_motion_sensors_ex.c ****         {
 140              		.loc 1 69 13 view .LVU40
 141 0056 1868     		ldr	r0, [r3]
 142              	.LVL19:
  69:D:/fchai/work/i-cube/I-CUBE-HUAWEI/Drivers/BSP/IKS01A3\iks01a3_motion_sensors_ex.c ****         {
 143              		.loc 1 69 13 view .LVU41
 144 0058 FFF7FEFF 		bl	LSM6DSO_ACC_Get_DRDY_Status
 145              	.LVL20:
  69:D:/fchai/work/i-cube/I-CUBE-HUAWEI/Drivers/BSP/IKS01A3\iks01a3_motion_sensors_ex.c ****         {
 146              		.loc 1 69 12 view .LVU42
 147 005c 0028     		cmp	r0, #0
 148 005e E1D0     		beq	.L6
 149 0060 ECE7     		b	.L7
 150              	.L26:
 151 0062 00BF     		.align	2
 152              	.L25:
 153 0064 00000000 		.word	MotionCompObj
 154              		.cfi_endproc
 155              	.LFE123:
 157              		.section	.text.IKS01A3_MOTION_SENSOR_Read_Register,"ax",%progbits
 158              		.align	1
 159              		.p2align 2,,3
 160              		.global	IKS01A3_MOTION_SENSOR_Read_Register
ARM GAS  T:\msys\tmp\ccuiVBP3.s 			page 14


 161              		.syntax unified
 162              		.thumb
 163              		.thumb_func
 164              		.fpu fpv4-sp-d16
 166              	IKS01A3_MOTION_SENSOR_Read_Register:
 167              	.LVL21:
 168              	.LFB124:
 549:D:/fchai/work/i-cube/I-CUBE-HUAWEI/Drivers/BSP/IKS01A3\iks01a3_motion_sensors_ex.c **** 
 550:D:/fchai/work/i-cube/I-CUBE-HUAWEI/Drivers/BSP/IKS01A3\iks01a3_motion_sensors_ex.c **** /**
 551:D:/fchai/work/i-cube/I-CUBE-HUAWEI/Drivers/BSP/IKS01A3\iks01a3_motion_sensors_ex.c ****  * @brief  Get the register value (available only for LSM6DSO, LIS2DW12, LIS2MDL, ASM330LHH, IIS2DL
 552:D:/fchai/work/i-cube/I-CUBE-HUAWEI/Drivers/BSP/IKS01A3\iks01a3_motion_sensors_ex.c ****  * @param  Instance the device instance
 553:D:/fchai/work/i-cube/I-CUBE-HUAWEI/Drivers/BSP/IKS01A3\iks01a3_motion_sensors_ex.c ****  * @param  Reg address to be read
 554:D:/fchai/work/i-cube/I-CUBE-HUAWEI/Drivers/BSP/IKS01A3\iks01a3_motion_sensors_ex.c ****  * @param  Data pointer where the value is written to
 555:D:/fchai/work/i-cube/I-CUBE-HUAWEI/Drivers/BSP/IKS01A3\iks01a3_motion_sensors_ex.c ****  * @retval BSP status
 556:D:/fchai/work/i-cube/I-CUBE-HUAWEI/Drivers/BSP/IKS01A3\iks01a3_motion_sensors_ex.c ****  */
 557:D:/fchai/work/i-cube/I-CUBE-HUAWEI/Drivers/BSP/IKS01A3\iks01a3_motion_sensors_ex.c **** int32_t IKS01A3_MOTION_SENSOR_Read_Register(uint32_t Instance, uint8_t Reg, uint8_t *Data)
 558:D:/fchai/work/i-cube/I-CUBE-HUAWEI/Drivers/BSP/IKS01A3\iks01a3_motion_sensors_ex.c **** {
 169              		.loc 1 558 1 is_stmt 1 view -0
 170              		.cfi_startproc
 171              		@ args = 0, pretend = 0, frame = 0
 172              		@ frame_needed = 0, uses_anonymous_args = 0
 559:D:/fchai/work/i-cube/I-CUBE-HUAWEI/Drivers/BSP/IKS01A3\iks01a3_motion_sensors_ex.c ****   int32_t ret;
 173              		.loc 1 559 3 view .LVU44
 560:D:/fchai/work/i-cube/I-CUBE-HUAWEI/Drivers/BSP/IKS01A3\iks01a3_motion_sensors_ex.c **** 
 561:D:/fchai/work/i-cube/I-CUBE-HUAWEI/Drivers/BSP/IKS01A3\iks01a3_motion_sensors_ex.c ****   switch (Instance)
 174              		.loc 1 561 3 view .LVU45
 175 0000 0128     		cmp	r0, #1
 558:D:/fchai/work/i-cube/I-CUBE-HUAWEI/Drivers/BSP/IKS01A3\iks01a3_motion_sensors_ex.c ****   int32_t ret;
 176              		.loc 1 558 1 is_stmt 0 view .LVU46
 177 0002 08B5     		push	{r3, lr}
 178              	.LCFI1:
 179              		.cfi_def_cfa_offset 8
 180              		.cfi_offset 3, -8
 181              		.cfi_offset 14, -4
 182              		.loc 1 561 3 view .LVU47
 183 0004 05D0     		beq	.L28
 184 0006 0228     		cmp	r0, #2
 185 0008 13D0     		beq	.L29
 186 000a 48B1     		cbz	r0, .L38
 187 000c 6FF00100 		mvn	r0, #1
 188              	.LVL22:
 562:D:/fchai/work/i-cube/I-CUBE-HUAWEI/Drivers/BSP/IKS01A3\iks01a3_motion_sensors_ex.c ****   {
 563:D:/fchai/work/i-cube/I-CUBE-HUAWEI/Drivers/BSP/IKS01A3\iks01a3_motion_sensors_ex.c **** #if (USE_IKS01A3_MOTION_SENSOR_LSM6DSO_0 == 1)
 564:D:/fchai/work/i-cube/I-CUBE-HUAWEI/Drivers/BSP/IKS01A3\iks01a3_motion_sensors_ex.c ****     case IKS01A3_LSM6DSO_0:
 565:D:/fchai/work/i-cube/I-CUBE-HUAWEI/Drivers/BSP/IKS01A3\iks01a3_motion_sensors_ex.c ****       if (LSM6DSO_Read_Reg(MotionCompObj[Instance], Reg, Data) != BSP_ERROR_NONE)
 566:D:/fchai/work/i-cube/I-CUBE-HUAWEI/Drivers/BSP/IKS01A3\iks01a3_motion_sensors_ex.c ****       {
 567:D:/fchai/work/i-cube/I-CUBE-HUAWEI/Drivers/BSP/IKS01A3\iks01a3_motion_sensors_ex.c ****         ret = BSP_ERROR_COMPONENT_FAILURE;
 568:D:/fchai/work/i-cube/I-CUBE-HUAWEI/Drivers/BSP/IKS01A3\iks01a3_motion_sensors_ex.c ****       }
 569:D:/fchai/work/i-cube/I-CUBE-HUAWEI/Drivers/BSP/IKS01A3\iks01a3_motion_sensors_ex.c ****       else
 570:D:/fchai/work/i-cube/I-CUBE-HUAWEI/Drivers/BSP/IKS01A3\iks01a3_motion_sensors_ex.c ****       {
 571:D:/fchai/work/i-cube/I-CUBE-HUAWEI/Drivers/BSP/IKS01A3\iks01a3_motion_sensors_ex.c ****         ret = BSP_ERROR_NONE;
 572:D:/fchai/work/i-cube/I-CUBE-HUAWEI/Drivers/BSP/IKS01A3\iks01a3_motion_sensors_ex.c ****       }
 573:D:/fchai/work/i-cube/I-CUBE-HUAWEI/Drivers/BSP/IKS01A3\iks01a3_motion_sensors_ex.c ****       break;
 574:D:/fchai/work/i-cube/I-CUBE-HUAWEI/Drivers/BSP/IKS01A3\iks01a3_motion_sensors_ex.c **** #endif
 575:D:/fchai/work/i-cube/I-CUBE-HUAWEI/Drivers/BSP/IKS01A3\iks01a3_motion_sensors_ex.c **** 
 576:D:/fchai/work/i-cube/I-CUBE-HUAWEI/Drivers/BSP/IKS01A3\iks01a3_motion_sensors_ex.c **** #if (USE_IKS01A3_MOTION_SENSOR_LIS2DW12_0 == 1)
 577:D:/fchai/work/i-cube/I-CUBE-HUAWEI/Drivers/BSP/IKS01A3\iks01a3_motion_sensors_ex.c ****     case IKS01A3_LIS2DW12_0:
ARM GAS  T:\msys\tmp\ccuiVBP3.s 			page 15


 578:D:/fchai/work/i-cube/I-CUBE-HUAWEI/Drivers/BSP/IKS01A3\iks01a3_motion_sensors_ex.c ****       if (LIS2DW12_Read_Reg(MotionCompObj[Instance], Reg, Data) != BSP_ERROR_NONE)
 579:D:/fchai/work/i-cube/I-CUBE-HUAWEI/Drivers/BSP/IKS01A3\iks01a3_motion_sensors_ex.c ****       {
 580:D:/fchai/work/i-cube/I-CUBE-HUAWEI/Drivers/BSP/IKS01A3\iks01a3_motion_sensors_ex.c ****         ret = BSP_ERROR_COMPONENT_FAILURE;
 581:D:/fchai/work/i-cube/I-CUBE-HUAWEI/Drivers/BSP/IKS01A3\iks01a3_motion_sensors_ex.c ****       }
 582:D:/fchai/work/i-cube/I-CUBE-HUAWEI/Drivers/BSP/IKS01A3\iks01a3_motion_sensors_ex.c ****       else
 583:D:/fchai/work/i-cube/I-CUBE-HUAWEI/Drivers/BSP/IKS01A3\iks01a3_motion_sensors_ex.c ****       {
 584:D:/fchai/work/i-cube/I-CUBE-HUAWEI/Drivers/BSP/IKS01A3\iks01a3_motion_sensors_ex.c ****         ret = BSP_ERROR_NONE;
 585:D:/fchai/work/i-cube/I-CUBE-HUAWEI/Drivers/BSP/IKS01A3\iks01a3_motion_sensors_ex.c ****       }
 586:D:/fchai/work/i-cube/I-CUBE-HUAWEI/Drivers/BSP/IKS01A3\iks01a3_motion_sensors_ex.c ****       break;
 587:D:/fchai/work/i-cube/I-CUBE-HUAWEI/Drivers/BSP/IKS01A3\iks01a3_motion_sensors_ex.c **** #endif
 588:D:/fchai/work/i-cube/I-CUBE-HUAWEI/Drivers/BSP/IKS01A3\iks01a3_motion_sensors_ex.c **** 
 589:D:/fchai/work/i-cube/I-CUBE-HUAWEI/Drivers/BSP/IKS01A3\iks01a3_motion_sensors_ex.c **** #if (USE_IKS01A3_MOTION_SENSOR_LIS2MDL_0 == 1)
 590:D:/fchai/work/i-cube/I-CUBE-HUAWEI/Drivers/BSP/IKS01A3\iks01a3_motion_sensors_ex.c ****     case IKS01A3_LIS2MDL_0:
 591:D:/fchai/work/i-cube/I-CUBE-HUAWEI/Drivers/BSP/IKS01A3\iks01a3_motion_sensors_ex.c ****       if (LIS2MDL_Read_Reg(MotionCompObj[Instance], Reg, Data) != BSP_ERROR_NONE)
 592:D:/fchai/work/i-cube/I-CUBE-HUAWEI/Drivers/BSP/IKS01A3\iks01a3_motion_sensors_ex.c ****       {
 593:D:/fchai/work/i-cube/I-CUBE-HUAWEI/Drivers/BSP/IKS01A3\iks01a3_motion_sensors_ex.c ****         ret = BSP_ERROR_COMPONENT_FAILURE;
 594:D:/fchai/work/i-cube/I-CUBE-HUAWEI/Drivers/BSP/IKS01A3\iks01a3_motion_sensors_ex.c ****       }
 595:D:/fchai/work/i-cube/I-CUBE-HUAWEI/Drivers/BSP/IKS01A3\iks01a3_motion_sensors_ex.c ****       else
 596:D:/fchai/work/i-cube/I-CUBE-HUAWEI/Drivers/BSP/IKS01A3\iks01a3_motion_sensors_ex.c ****       {
 597:D:/fchai/work/i-cube/I-CUBE-HUAWEI/Drivers/BSP/IKS01A3\iks01a3_motion_sensors_ex.c ****         ret = BSP_ERROR_NONE;
 598:D:/fchai/work/i-cube/I-CUBE-HUAWEI/Drivers/BSP/IKS01A3\iks01a3_motion_sensors_ex.c ****       }
 599:D:/fchai/work/i-cube/I-CUBE-HUAWEI/Drivers/BSP/IKS01A3\iks01a3_motion_sensors_ex.c ****       break;
 600:D:/fchai/work/i-cube/I-CUBE-HUAWEI/Drivers/BSP/IKS01A3\iks01a3_motion_sensors_ex.c **** #endif
 601:D:/fchai/work/i-cube/I-CUBE-HUAWEI/Drivers/BSP/IKS01A3\iks01a3_motion_sensors_ex.c **** 
 602:D:/fchai/work/i-cube/I-CUBE-HUAWEI/Drivers/BSP/IKS01A3\iks01a3_motion_sensors_ex.c **** #if (USE_IKS01A3_MOTION_SENSOR_ASM330LHH_0 == 1)
 603:D:/fchai/work/i-cube/I-CUBE-HUAWEI/Drivers/BSP/IKS01A3\iks01a3_motion_sensors_ex.c ****     case IKS01A3_ASM330LHH_0:
 604:D:/fchai/work/i-cube/I-CUBE-HUAWEI/Drivers/BSP/IKS01A3\iks01a3_motion_sensors_ex.c ****       if (ASM330LHH_Read_Reg(MotionCompObj[Instance], Reg, Data) != BSP_ERROR_NONE)
 605:D:/fchai/work/i-cube/I-CUBE-HUAWEI/Drivers/BSP/IKS01A3\iks01a3_motion_sensors_ex.c ****       {
 606:D:/fchai/work/i-cube/I-CUBE-HUAWEI/Drivers/BSP/IKS01A3\iks01a3_motion_sensors_ex.c ****         ret = BSP_ERROR_COMPONENT_FAILURE;
 607:D:/fchai/work/i-cube/I-CUBE-HUAWEI/Drivers/BSP/IKS01A3\iks01a3_motion_sensors_ex.c ****       }
 608:D:/fchai/work/i-cube/I-CUBE-HUAWEI/Drivers/BSP/IKS01A3\iks01a3_motion_sensors_ex.c ****       else
 609:D:/fchai/work/i-cube/I-CUBE-HUAWEI/Drivers/BSP/IKS01A3\iks01a3_motion_sensors_ex.c ****       {
 610:D:/fchai/work/i-cube/I-CUBE-HUAWEI/Drivers/BSP/IKS01A3\iks01a3_motion_sensors_ex.c ****         ret = BSP_ERROR_NONE;
 611:D:/fchai/work/i-cube/I-CUBE-HUAWEI/Drivers/BSP/IKS01A3\iks01a3_motion_sensors_ex.c ****       }
 612:D:/fchai/work/i-cube/I-CUBE-HUAWEI/Drivers/BSP/IKS01A3\iks01a3_motion_sensors_ex.c ****       break;
 613:D:/fchai/work/i-cube/I-CUBE-HUAWEI/Drivers/BSP/IKS01A3\iks01a3_motion_sensors_ex.c **** #endif
 614:D:/fchai/work/i-cube/I-CUBE-HUAWEI/Drivers/BSP/IKS01A3\iks01a3_motion_sensors_ex.c **** 
 615:D:/fchai/work/i-cube/I-CUBE-HUAWEI/Drivers/BSP/IKS01A3\iks01a3_motion_sensors_ex.c **** #if (USE_IKS01A3_MOTION_SENSOR_IIS2DLPC_0 == 1)
 616:D:/fchai/work/i-cube/I-CUBE-HUAWEI/Drivers/BSP/IKS01A3\iks01a3_motion_sensors_ex.c ****     case IKS01A3_IIS2DLPC_0:
 617:D:/fchai/work/i-cube/I-CUBE-HUAWEI/Drivers/BSP/IKS01A3\iks01a3_motion_sensors_ex.c ****       if (IIS2DLPC_Read_Reg(MotionCompObj[Instance], Reg, Data) != BSP_ERROR_NONE)
 618:D:/fchai/work/i-cube/I-CUBE-HUAWEI/Drivers/BSP/IKS01A3\iks01a3_motion_sensors_ex.c ****       {
 619:D:/fchai/work/i-cube/I-CUBE-HUAWEI/Drivers/BSP/IKS01A3\iks01a3_motion_sensors_ex.c ****         ret = BSP_ERROR_COMPONENT_FAILURE;
 620:D:/fchai/work/i-cube/I-CUBE-HUAWEI/Drivers/BSP/IKS01A3\iks01a3_motion_sensors_ex.c ****       }
 621:D:/fchai/work/i-cube/I-CUBE-HUAWEI/Drivers/BSP/IKS01A3\iks01a3_motion_sensors_ex.c ****       else
 622:D:/fchai/work/i-cube/I-CUBE-HUAWEI/Drivers/BSP/IKS01A3\iks01a3_motion_sensors_ex.c ****       {
 623:D:/fchai/work/i-cube/I-CUBE-HUAWEI/Drivers/BSP/IKS01A3\iks01a3_motion_sensors_ex.c ****         ret = BSP_ERROR_NONE;
 624:D:/fchai/work/i-cube/I-CUBE-HUAWEI/Drivers/BSP/IKS01A3\iks01a3_motion_sensors_ex.c ****       }
 625:D:/fchai/work/i-cube/I-CUBE-HUAWEI/Drivers/BSP/IKS01A3\iks01a3_motion_sensors_ex.c ****       break;
 626:D:/fchai/work/i-cube/I-CUBE-HUAWEI/Drivers/BSP/IKS01A3\iks01a3_motion_sensors_ex.c **** #endif
 627:D:/fchai/work/i-cube/I-CUBE-HUAWEI/Drivers/BSP/IKS01A3\iks01a3_motion_sensors_ex.c **** 
 628:D:/fchai/work/i-cube/I-CUBE-HUAWEI/Drivers/BSP/IKS01A3\iks01a3_motion_sensors_ex.c **** #if (USE_IKS01A3_MOTION_SENSOR_IIS2MDC_0 == 1)
 629:D:/fchai/work/i-cube/I-CUBE-HUAWEI/Drivers/BSP/IKS01A3\iks01a3_motion_sensors_ex.c ****     case IKS01A3_IIS2MDC_0:
 630:D:/fchai/work/i-cube/I-CUBE-HUAWEI/Drivers/BSP/IKS01A3\iks01a3_motion_sensors_ex.c ****       if (IIS2MDC_Read_Reg(MotionCompObj[Instance], Reg, Data) != BSP_ERROR_NONE)
 631:D:/fchai/work/i-cube/I-CUBE-HUAWEI/Drivers/BSP/IKS01A3\iks01a3_motion_sensors_ex.c ****       {
 632:D:/fchai/work/i-cube/I-CUBE-HUAWEI/Drivers/BSP/IKS01A3\iks01a3_motion_sensors_ex.c ****         ret = BSP_ERROR_COMPONENT_FAILURE;
 633:D:/fchai/work/i-cube/I-CUBE-HUAWEI/Drivers/BSP/IKS01A3\iks01a3_motion_sensors_ex.c ****       }
 634:D:/fchai/work/i-cube/I-CUBE-HUAWEI/Drivers/BSP/IKS01A3\iks01a3_motion_sensors_ex.c ****       else
ARM GAS  T:\msys\tmp\ccuiVBP3.s 			page 16


 635:D:/fchai/work/i-cube/I-CUBE-HUAWEI/Drivers/BSP/IKS01A3\iks01a3_motion_sensors_ex.c ****       {
 636:D:/fchai/work/i-cube/I-CUBE-HUAWEI/Drivers/BSP/IKS01A3\iks01a3_motion_sensors_ex.c ****         ret = BSP_ERROR_NONE;
 637:D:/fchai/work/i-cube/I-CUBE-HUAWEI/Drivers/BSP/IKS01A3\iks01a3_motion_sensors_ex.c ****       }
 638:D:/fchai/work/i-cube/I-CUBE-HUAWEI/Drivers/BSP/IKS01A3\iks01a3_motion_sensors_ex.c ****       break;
 639:D:/fchai/work/i-cube/I-CUBE-HUAWEI/Drivers/BSP/IKS01A3\iks01a3_motion_sensors_ex.c **** #endif
 640:D:/fchai/work/i-cube/I-CUBE-HUAWEI/Drivers/BSP/IKS01A3\iks01a3_motion_sensors_ex.c **** 
 641:D:/fchai/work/i-cube/I-CUBE-HUAWEI/Drivers/BSP/IKS01A3\iks01a3_motion_sensors_ex.c **** #if (USE_IKS01A3_MOTION_SENSOR_ISM303DAC_ACC_0 == 1)
 642:D:/fchai/work/i-cube/I-CUBE-HUAWEI/Drivers/BSP/IKS01A3\iks01a3_motion_sensors_ex.c ****     case IKS01A3_ISM303DAC_ACC_0:
 643:D:/fchai/work/i-cube/I-CUBE-HUAWEI/Drivers/BSP/IKS01A3\iks01a3_motion_sensors_ex.c ****       if (ISM303DAC_ACC_Read_Reg(MotionCompObj[Instance], Reg, Data) != BSP_ERROR_NONE)
 644:D:/fchai/work/i-cube/I-CUBE-HUAWEI/Drivers/BSP/IKS01A3\iks01a3_motion_sensors_ex.c ****       {
 645:D:/fchai/work/i-cube/I-CUBE-HUAWEI/Drivers/BSP/IKS01A3\iks01a3_motion_sensors_ex.c ****         ret = BSP_ERROR_COMPONENT_FAILURE;
 646:D:/fchai/work/i-cube/I-CUBE-HUAWEI/Drivers/BSP/IKS01A3\iks01a3_motion_sensors_ex.c ****       }
 647:D:/fchai/work/i-cube/I-CUBE-HUAWEI/Drivers/BSP/IKS01A3\iks01a3_motion_sensors_ex.c ****       else
 648:D:/fchai/work/i-cube/I-CUBE-HUAWEI/Drivers/BSP/IKS01A3\iks01a3_motion_sensors_ex.c ****       {
 649:D:/fchai/work/i-cube/I-CUBE-HUAWEI/Drivers/BSP/IKS01A3\iks01a3_motion_sensors_ex.c ****         ret = BSP_ERROR_NONE;
 650:D:/fchai/work/i-cube/I-CUBE-HUAWEI/Drivers/BSP/IKS01A3\iks01a3_motion_sensors_ex.c ****       }
 651:D:/fchai/work/i-cube/I-CUBE-HUAWEI/Drivers/BSP/IKS01A3\iks01a3_motion_sensors_ex.c ****       break;
 652:D:/fchai/work/i-cube/I-CUBE-HUAWEI/Drivers/BSP/IKS01A3\iks01a3_motion_sensors_ex.c **** #endif
 653:D:/fchai/work/i-cube/I-CUBE-HUAWEI/Drivers/BSP/IKS01A3\iks01a3_motion_sensors_ex.c **** 
 654:D:/fchai/work/i-cube/I-CUBE-HUAWEI/Drivers/BSP/IKS01A3\iks01a3_motion_sensors_ex.c **** #if (USE_IKS01A3_MOTION_SENSOR_ISM303DAC_MAG_0 == 1)
 655:D:/fchai/work/i-cube/I-CUBE-HUAWEI/Drivers/BSP/IKS01A3\iks01a3_motion_sensors_ex.c ****     case IKS01A3_ISM303DAC_MAG_0:
 656:D:/fchai/work/i-cube/I-CUBE-HUAWEI/Drivers/BSP/IKS01A3\iks01a3_motion_sensors_ex.c ****       if (ISM303DAC_MAG_Read_Reg(MotionCompObj[Instance], Reg, Data) != BSP_ERROR_NONE)
 657:D:/fchai/work/i-cube/I-CUBE-HUAWEI/Drivers/BSP/IKS01A3\iks01a3_motion_sensors_ex.c ****       {
 658:D:/fchai/work/i-cube/I-CUBE-HUAWEI/Drivers/BSP/IKS01A3\iks01a3_motion_sensors_ex.c ****         ret = BSP_ERROR_COMPONENT_FAILURE;
 659:D:/fchai/work/i-cube/I-CUBE-HUAWEI/Drivers/BSP/IKS01A3\iks01a3_motion_sensors_ex.c ****       }
 660:D:/fchai/work/i-cube/I-CUBE-HUAWEI/Drivers/BSP/IKS01A3\iks01a3_motion_sensors_ex.c ****       else
 661:D:/fchai/work/i-cube/I-CUBE-HUAWEI/Drivers/BSP/IKS01A3\iks01a3_motion_sensors_ex.c ****       {
 662:D:/fchai/work/i-cube/I-CUBE-HUAWEI/Drivers/BSP/IKS01A3\iks01a3_motion_sensors_ex.c ****         ret = BSP_ERROR_NONE;
 663:D:/fchai/work/i-cube/I-CUBE-HUAWEI/Drivers/BSP/IKS01A3\iks01a3_motion_sensors_ex.c ****       }
 664:D:/fchai/work/i-cube/I-CUBE-HUAWEI/Drivers/BSP/IKS01A3\iks01a3_motion_sensors_ex.c ****       break;
 665:D:/fchai/work/i-cube/I-CUBE-HUAWEI/Drivers/BSP/IKS01A3\iks01a3_motion_sensors_ex.c **** #endif
 666:D:/fchai/work/i-cube/I-CUBE-HUAWEI/Drivers/BSP/IKS01A3\iks01a3_motion_sensors_ex.c **** 
 667:D:/fchai/work/i-cube/I-CUBE-HUAWEI/Drivers/BSP/IKS01A3\iks01a3_motion_sensors_ex.c **** #if (USE_IKS01A3_MOTION_SENSOR_ISM330DLC_0 == 1)
 668:D:/fchai/work/i-cube/I-CUBE-HUAWEI/Drivers/BSP/IKS01A3\iks01a3_motion_sensors_ex.c ****     case IKS01A3_ISM330DLC_0:
 669:D:/fchai/work/i-cube/I-CUBE-HUAWEI/Drivers/BSP/IKS01A3\iks01a3_motion_sensors_ex.c ****       if (ISM330DLC_Read_Reg(MotionCompObj[Instance], Reg, Data) != BSP_ERROR_NONE)
 670:D:/fchai/work/i-cube/I-CUBE-HUAWEI/Drivers/BSP/IKS01A3\iks01a3_motion_sensors_ex.c ****       {
 671:D:/fchai/work/i-cube/I-CUBE-HUAWEI/Drivers/BSP/IKS01A3\iks01a3_motion_sensors_ex.c ****         ret = BSP_ERROR_COMPONENT_FAILURE;
 672:D:/fchai/work/i-cube/I-CUBE-HUAWEI/Drivers/BSP/IKS01A3\iks01a3_motion_sensors_ex.c ****       }
 673:D:/fchai/work/i-cube/I-CUBE-HUAWEI/Drivers/BSP/IKS01A3\iks01a3_motion_sensors_ex.c ****       else
 674:D:/fchai/work/i-cube/I-CUBE-HUAWEI/Drivers/BSP/IKS01A3\iks01a3_motion_sensors_ex.c ****       {
 675:D:/fchai/work/i-cube/I-CUBE-HUAWEI/Drivers/BSP/IKS01A3\iks01a3_motion_sensors_ex.c ****         ret = BSP_ERROR_NONE;
 676:D:/fchai/work/i-cube/I-CUBE-HUAWEI/Drivers/BSP/IKS01A3\iks01a3_motion_sensors_ex.c ****       }
 677:D:/fchai/work/i-cube/I-CUBE-HUAWEI/Drivers/BSP/IKS01A3\iks01a3_motion_sensors_ex.c ****       break;
 678:D:/fchai/work/i-cube/I-CUBE-HUAWEI/Drivers/BSP/IKS01A3\iks01a3_motion_sensors_ex.c **** #endif
 679:D:/fchai/work/i-cube/I-CUBE-HUAWEI/Drivers/BSP/IKS01A3\iks01a3_motion_sensors_ex.c **** 
 680:D:/fchai/work/i-cube/I-CUBE-HUAWEI/Drivers/BSP/IKS01A3\iks01a3_motion_sensors_ex.c **** #if (USE_IKS01A3_MOTION_SENSOR_LIS2DH12_0 == 1)
 681:D:/fchai/work/i-cube/I-CUBE-HUAWEI/Drivers/BSP/IKS01A3\iks01a3_motion_sensors_ex.c ****     case IKS01A3_LIS2DH12_0:
 682:D:/fchai/work/i-cube/I-CUBE-HUAWEI/Drivers/BSP/IKS01A3\iks01a3_motion_sensors_ex.c ****       if (LIS2DH12_Read_Reg(MotionCompObj[Instance], Reg, Data) != BSP_ERROR_NONE)
 683:D:/fchai/work/i-cube/I-CUBE-HUAWEI/Drivers/BSP/IKS01A3\iks01a3_motion_sensors_ex.c ****       {
 684:D:/fchai/work/i-cube/I-CUBE-HUAWEI/Drivers/BSP/IKS01A3\iks01a3_motion_sensors_ex.c ****         ret = BSP_ERROR_COMPONENT_FAILURE;
 685:D:/fchai/work/i-cube/I-CUBE-HUAWEI/Drivers/BSP/IKS01A3\iks01a3_motion_sensors_ex.c ****       }
 686:D:/fchai/work/i-cube/I-CUBE-HUAWEI/Drivers/BSP/IKS01A3\iks01a3_motion_sensors_ex.c ****       else
 687:D:/fchai/work/i-cube/I-CUBE-HUAWEI/Drivers/BSP/IKS01A3\iks01a3_motion_sensors_ex.c ****       {
 688:D:/fchai/work/i-cube/I-CUBE-HUAWEI/Drivers/BSP/IKS01A3\iks01a3_motion_sensors_ex.c ****         ret = BSP_ERROR_NONE;
 689:D:/fchai/work/i-cube/I-CUBE-HUAWEI/Drivers/BSP/IKS01A3\iks01a3_motion_sensors_ex.c ****       }
 690:D:/fchai/work/i-cube/I-CUBE-HUAWEI/Drivers/BSP/IKS01A3\iks01a3_motion_sensors_ex.c ****       break;
 691:D:/fchai/work/i-cube/I-CUBE-HUAWEI/Drivers/BSP/IKS01A3\iks01a3_motion_sensors_ex.c **** #endif
ARM GAS  T:\msys\tmp\ccuiVBP3.s 			page 17


 692:D:/fchai/work/i-cube/I-CUBE-HUAWEI/Drivers/BSP/IKS01A3\iks01a3_motion_sensors_ex.c **** 
 693:D:/fchai/work/i-cube/I-CUBE-HUAWEI/Drivers/BSP/IKS01A3\iks01a3_motion_sensors_ex.c **** #if (USE_IKS01A3_MOTION_SENSOR_LSM6DSOX_0 == 1)
 694:D:/fchai/work/i-cube/I-CUBE-HUAWEI/Drivers/BSP/IKS01A3\iks01a3_motion_sensors_ex.c ****     case IKS01A3_LSM6DSOX_0:
 695:D:/fchai/work/i-cube/I-CUBE-HUAWEI/Drivers/BSP/IKS01A3\iks01a3_motion_sensors_ex.c ****       if (LSM6DSOX_Read_Reg(MotionCompObj[Instance], Reg, Data) != BSP_ERROR_NONE)
 696:D:/fchai/work/i-cube/I-CUBE-HUAWEI/Drivers/BSP/IKS01A3\iks01a3_motion_sensors_ex.c ****       {
 697:D:/fchai/work/i-cube/I-CUBE-HUAWEI/Drivers/BSP/IKS01A3\iks01a3_motion_sensors_ex.c ****         ret = BSP_ERROR_COMPONENT_FAILURE;
 698:D:/fchai/work/i-cube/I-CUBE-HUAWEI/Drivers/BSP/IKS01A3\iks01a3_motion_sensors_ex.c ****       }
 699:D:/fchai/work/i-cube/I-CUBE-HUAWEI/Drivers/BSP/IKS01A3\iks01a3_motion_sensors_ex.c ****       else
 700:D:/fchai/work/i-cube/I-CUBE-HUAWEI/Drivers/BSP/IKS01A3\iks01a3_motion_sensors_ex.c ****       {
 701:D:/fchai/work/i-cube/I-CUBE-HUAWEI/Drivers/BSP/IKS01A3\iks01a3_motion_sensors_ex.c ****         ret = BSP_ERROR_NONE;
 702:D:/fchai/work/i-cube/I-CUBE-HUAWEI/Drivers/BSP/IKS01A3\iks01a3_motion_sensors_ex.c ****       }
 703:D:/fchai/work/i-cube/I-CUBE-HUAWEI/Drivers/BSP/IKS01A3\iks01a3_motion_sensors_ex.c ****       break;
 704:D:/fchai/work/i-cube/I-CUBE-HUAWEI/Drivers/BSP/IKS01A3\iks01a3_motion_sensors_ex.c **** #endif
 705:D:/fchai/work/i-cube/I-CUBE-HUAWEI/Drivers/BSP/IKS01A3\iks01a3_motion_sensors_ex.c **** 
 706:D:/fchai/work/i-cube/I-CUBE-HUAWEI/Drivers/BSP/IKS01A3\iks01a3_motion_sensors_ex.c **** #if (USE_IKS01A3_MOTION_SENSOR_AIS2DW12_0 == 1)
 707:D:/fchai/work/i-cube/I-CUBE-HUAWEI/Drivers/BSP/IKS01A3\iks01a3_motion_sensors_ex.c ****     case IKS01A3_AIS2DW12_0:
 708:D:/fchai/work/i-cube/I-CUBE-HUAWEI/Drivers/BSP/IKS01A3\iks01a3_motion_sensors_ex.c ****       if (AIS2DW12_Read_Reg(MotionCompObj[Instance], Reg, Data) != BSP_ERROR_NONE)
 709:D:/fchai/work/i-cube/I-CUBE-HUAWEI/Drivers/BSP/IKS01A3\iks01a3_motion_sensors_ex.c ****       {
 710:D:/fchai/work/i-cube/I-CUBE-HUAWEI/Drivers/BSP/IKS01A3\iks01a3_motion_sensors_ex.c ****         ret = BSP_ERROR_COMPONENT_FAILURE;
 711:D:/fchai/work/i-cube/I-CUBE-HUAWEI/Drivers/BSP/IKS01A3\iks01a3_motion_sensors_ex.c ****       }
 712:D:/fchai/work/i-cube/I-CUBE-HUAWEI/Drivers/BSP/IKS01A3\iks01a3_motion_sensors_ex.c ****       else
 713:D:/fchai/work/i-cube/I-CUBE-HUAWEI/Drivers/BSP/IKS01A3\iks01a3_motion_sensors_ex.c ****       {
 714:D:/fchai/work/i-cube/I-CUBE-HUAWEI/Drivers/BSP/IKS01A3\iks01a3_motion_sensors_ex.c ****         ret = BSP_ERROR_NONE;
 715:D:/fchai/work/i-cube/I-CUBE-HUAWEI/Drivers/BSP/IKS01A3\iks01a3_motion_sensors_ex.c ****       }
 716:D:/fchai/work/i-cube/I-CUBE-HUAWEI/Drivers/BSP/IKS01A3\iks01a3_motion_sensors_ex.c ****       break;
 717:D:/fchai/work/i-cube/I-CUBE-HUAWEI/Drivers/BSP/IKS01A3\iks01a3_motion_sensors_ex.c **** #endif
 718:D:/fchai/work/i-cube/I-CUBE-HUAWEI/Drivers/BSP/IKS01A3\iks01a3_motion_sensors_ex.c **** 
 719:D:/fchai/work/i-cube/I-CUBE-HUAWEI/Drivers/BSP/IKS01A3\iks01a3_motion_sensors_ex.c **** #if (USE_IKS01A3_MOTION_SENSOR_LIS3MDL_0 == 1)
 720:D:/fchai/work/i-cube/I-CUBE-HUAWEI/Drivers/BSP/IKS01A3\iks01a3_motion_sensors_ex.c ****     case IKS01A3_LIS3MDL_0:
 721:D:/fchai/work/i-cube/I-CUBE-HUAWEI/Drivers/BSP/IKS01A3\iks01a3_motion_sensors_ex.c ****       if (LIS3MDL_Read_Reg(MotionCompObj[Instance], Reg, Data) != BSP_ERROR_NONE)
 722:D:/fchai/work/i-cube/I-CUBE-HUAWEI/Drivers/BSP/IKS01A3\iks01a3_motion_sensors_ex.c ****       {
 723:D:/fchai/work/i-cube/I-CUBE-HUAWEI/Drivers/BSP/IKS01A3\iks01a3_motion_sensors_ex.c ****         ret = BSP_ERROR_COMPONENT_FAILURE;
 724:D:/fchai/work/i-cube/I-CUBE-HUAWEI/Drivers/BSP/IKS01A3\iks01a3_motion_sensors_ex.c ****       }
 725:D:/fchai/work/i-cube/I-CUBE-HUAWEI/Drivers/BSP/IKS01A3\iks01a3_motion_sensors_ex.c ****       else
 726:D:/fchai/work/i-cube/I-CUBE-HUAWEI/Drivers/BSP/IKS01A3\iks01a3_motion_sensors_ex.c ****       {
 727:D:/fchai/work/i-cube/I-CUBE-HUAWEI/Drivers/BSP/IKS01A3\iks01a3_motion_sensors_ex.c ****         ret = BSP_ERROR_NONE;
 728:D:/fchai/work/i-cube/I-CUBE-HUAWEI/Drivers/BSP/IKS01A3\iks01a3_motion_sensors_ex.c ****       }
 729:D:/fchai/work/i-cube/I-CUBE-HUAWEI/Drivers/BSP/IKS01A3\iks01a3_motion_sensors_ex.c ****       break;
 730:D:/fchai/work/i-cube/I-CUBE-HUAWEI/Drivers/BSP/IKS01A3\iks01a3_motion_sensors_ex.c **** #endif
 731:D:/fchai/work/i-cube/I-CUBE-HUAWEI/Drivers/BSP/IKS01A3\iks01a3_motion_sensors_ex.c **** 
 732:D:/fchai/work/i-cube/I-CUBE-HUAWEI/Drivers/BSP/IKS01A3\iks01a3_motion_sensors_ex.c **** #if (USE_IKS01A3_MOTION_SENSOR_LSM6DSR_0 == 1)
 733:D:/fchai/work/i-cube/I-CUBE-HUAWEI/Drivers/BSP/IKS01A3\iks01a3_motion_sensors_ex.c ****     case IKS01A3_LSM6DSR_0:
 734:D:/fchai/work/i-cube/I-CUBE-HUAWEI/Drivers/BSP/IKS01A3\iks01a3_motion_sensors_ex.c ****       if (LSM6DSR_Read_Reg(MotionCompObj[Instance], Reg, Data) != BSP_ERROR_NONE)
 735:D:/fchai/work/i-cube/I-CUBE-HUAWEI/Drivers/BSP/IKS01A3\iks01a3_motion_sensors_ex.c ****       {
 736:D:/fchai/work/i-cube/I-CUBE-HUAWEI/Drivers/BSP/IKS01A3\iks01a3_motion_sensors_ex.c ****         ret = BSP_ERROR_COMPONENT_FAILURE;
 737:D:/fchai/work/i-cube/I-CUBE-HUAWEI/Drivers/BSP/IKS01A3\iks01a3_motion_sensors_ex.c ****       }
 738:D:/fchai/work/i-cube/I-CUBE-HUAWEI/Drivers/BSP/IKS01A3\iks01a3_motion_sensors_ex.c ****       else
 739:D:/fchai/work/i-cube/I-CUBE-HUAWEI/Drivers/BSP/IKS01A3\iks01a3_motion_sensors_ex.c ****       {
 740:D:/fchai/work/i-cube/I-CUBE-HUAWEI/Drivers/BSP/IKS01A3\iks01a3_motion_sensors_ex.c ****         ret = BSP_ERROR_NONE;
 741:D:/fchai/work/i-cube/I-CUBE-HUAWEI/Drivers/BSP/IKS01A3\iks01a3_motion_sensors_ex.c ****       }
 742:D:/fchai/work/i-cube/I-CUBE-HUAWEI/Drivers/BSP/IKS01A3\iks01a3_motion_sensors_ex.c ****       break;
 743:D:/fchai/work/i-cube/I-CUBE-HUAWEI/Drivers/BSP/IKS01A3\iks01a3_motion_sensors_ex.c **** #endif
 744:D:/fchai/work/i-cube/I-CUBE-HUAWEI/Drivers/BSP/IKS01A3\iks01a3_motion_sensors_ex.c **** 
 745:D:/fchai/work/i-cube/I-CUBE-HUAWEI/Drivers/BSP/IKS01A3\iks01a3_motion_sensors_ex.c **** #if (USE_IKS01A3_MOTION_SENSOR_A3G4250D_0 == 1)
 746:D:/fchai/work/i-cube/I-CUBE-HUAWEI/Drivers/BSP/IKS01A3\iks01a3_motion_sensors_ex.c ****     case IKS01A3_A3G4250D_0:
 747:D:/fchai/work/i-cube/I-CUBE-HUAWEI/Drivers/BSP/IKS01A3\iks01a3_motion_sensors_ex.c ****       if (A3G4250D_Read_Reg(MotionCompObj[Instance], Reg, Data) != BSP_ERROR_NONE)
 748:D:/fchai/work/i-cube/I-CUBE-HUAWEI/Drivers/BSP/IKS01A3\iks01a3_motion_sensors_ex.c ****       {
ARM GAS  T:\msys\tmp\ccuiVBP3.s 			page 18


 749:D:/fchai/work/i-cube/I-CUBE-HUAWEI/Drivers/BSP/IKS01A3\iks01a3_motion_sensors_ex.c ****         ret = BSP_ERROR_COMPONENT_FAILURE;
 750:D:/fchai/work/i-cube/I-CUBE-HUAWEI/Drivers/BSP/IKS01A3\iks01a3_motion_sensors_ex.c ****       }
 751:D:/fchai/work/i-cube/I-CUBE-HUAWEI/Drivers/BSP/IKS01A3\iks01a3_motion_sensors_ex.c ****       else
 752:D:/fchai/work/i-cube/I-CUBE-HUAWEI/Drivers/BSP/IKS01A3\iks01a3_motion_sensors_ex.c ****       {
 753:D:/fchai/work/i-cube/I-CUBE-HUAWEI/Drivers/BSP/IKS01A3\iks01a3_motion_sensors_ex.c ****         ret = BSP_ERROR_NONE;
 754:D:/fchai/work/i-cube/I-CUBE-HUAWEI/Drivers/BSP/IKS01A3\iks01a3_motion_sensors_ex.c ****       }
 755:D:/fchai/work/i-cube/I-CUBE-HUAWEI/Drivers/BSP/IKS01A3\iks01a3_motion_sensors_ex.c ****       break;
 756:D:/fchai/work/i-cube/I-CUBE-HUAWEI/Drivers/BSP/IKS01A3\iks01a3_motion_sensors_ex.c **** #endif
 757:D:/fchai/work/i-cube/I-CUBE-HUAWEI/Drivers/BSP/IKS01A3\iks01a3_motion_sensors_ex.c **** 
 758:D:/fchai/work/i-cube/I-CUBE-HUAWEI/Drivers/BSP/IKS01A3\iks01a3_motion_sensors_ex.c **** #if (USE_IKS01A3_MOTION_SENSOR_AIS328DQ_0 == 1)
 759:D:/fchai/work/i-cube/I-CUBE-HUAWEI/Drivers/BSP/IKS01A3\iks01a3_motion_sensors_ex.c ****     case IKS01A3_AIS328DQ_0:
 760:D:/fchai/work/i-cube/I-CUBE-HUAWEI/Drivers/BSP/IKS01A3\iks01a3_motion_sensors_ex.c ****       if (AIS328DQ_Read_Reg(MotionCompObj[Instance], Reg, Data) != BSP_ERROR_NONE)
 761:D:/fchai/work/i-cube/I-CUBE-HUAWEI/Drivers/BSP/IKS01A3\iks01a3_motion_sensors_ex.c ****       {
 762:D:/fchai/work/i-cube/I-CUBE-HUAWEI/Drivers/BSP/IKS01A3\iks01a3_motion_sensors_ex.c ****         ret = BSP_ERROR_COMPONENT_FAILURE;
 763:D:/fchai/work/i-cube/I-CUBE-HUAWEI/Drivers/BSP/IKS01A3\iks01a3_motion_sensors_ex.c ****       }
 764:D:/fchai/work/i-cube/I-CUBE-HUAWEI/Drivers/BSP/IKS01A3\iks01a3_motion_sensors_ex.c ****       else
 765:D:/fchai/work/i-cube/I-CUBE-HUAWEI/Drivers/BSP/IKS01A3\iks01a3_motion_sensors_ex.c ****       {
 766:D:/fchai/work/i-cube/I-CUBE-HUAWEI/Drivers/BSP/IKS01A3\iks01a3_motion_sensors_ex.c ****         ret = BSP_ERROR_NONE;
 767:D:/fchai/work/i-cube/I-CUBE-HUAWEI/Drivers/BSP/IKS01A3\iks01a3_motion_sensors_ex.c ****       }
 768:D:/fchai/work/i-cube/I-CUBE-HUAWEI/Drivers/BSP/IKS01A3\iks01a3_motion_sensors_ex.c ****       break;
 769:D:/fchai/work/i-cube/I-CUBE-HUAWEI/Drivers/BSP/IKS01A3\iks01a3_motion_sensors_ex.c **** #endif
 770:D:/fchai/work/i-cube/I-CUBE-HUAWEI/Drivers/BSP/IKS01A3\iks01a3_motion_sensors_ex.c **** 
 771:D:/fchai/work/i-cube/I-CUBE-HUAWEI/Drivers/BSP/IKS01A3\iks01a3_motion_sensors_ex.c **** #if (USE_IKS01A3_MOTION_SENSOR_AIS3624DQ_0 == 1)
 772:D:/fchai/work/i-cube/I-CUBE-HUAWEI/Drivers/BSP/IKS01A3\iks01a3_motion_sensors_ex.c ****     case IKS01A3_AIS3624DQ_0:
 773:D:/fchai/work/i-cube/I-CUBE-HUAWEI/Drivers/BSP/IKS01A3\iks01a3_motion_sensors_ex.c ****       if (AIS3624DQ_Read_Reg(MotionCompObj[Instance], Reg, Data) != BSP_ERROR_NONE)
 774:D:/fchai/work/i-cube/I-CUBE-HUAWEI/Drivers/BSP/IKS01A3\iks01a3_motion_sensors_ex.c ****       {
 775:D:/fchai/work/i-cube/I-CUBE-HUAWEI/Drivers/BSP/IKS01A3\iks01a3_motion_sensors_ex.c ****         ret = BSP_ERROR_COMPONENT_FAILURE;
 776:D:/fchai/work/i-cube/I-CUBE-HUAWEI/Drivers/BSP/IKS01A3\iks01a3_motion_sensors_ex.c ****       }
 777:D:/fchai/work/i-cube/I-CUBE-HUAWEI/Drivers/BSP/IKS01A3\iks01a3_motion_sensors_ex.c ****       else
 778:D:/fchai/work/i-cube/I-CUBE-HUAWEI/Drivers/BSP/IKS01A3\iks01a3_motion_sensors_ex.c ****       {
 779:D:/fchai/work/i-cube/I-CUBE-HUAWEI/Drivers/BSP/IKS01A3\iks01a3_motion_sensors_ex.c ****         ret = BSP_ERROR_NONE;
 780:D:/fchai/work/i-cube/I-CUBE-HUAWEI/Drivers/BSP/IKS01A3\iks01a3_motion_sensors_ex.c ****       }
 781:D:/fchai/work/i-cube/I-CUBE-HUAWEI/Drivers/BSP/IKS01A3\iks01a3_motion_sensors_ex.c ****       break;
 782:D:/fchai/work/i-cube/I-CUBE-HUAWEI/Drivers/BSP/IKS01A3\iks01a3_motion_sensors_ex.c **** #endif
 783:D:/fchai/work/i-cube/I-CUBE-HUAWEI/Drivers/BSP/IKS01A3\iks01a3_motion_sensors_ex.c **** 
 784:D:/fchai/work/i-cube/I-CUBE-HUAWEI/Drivers/BSP/IKS01A3\iks01a3_motion_sensors_ex.c **** #if (USE_IKS01A3_MOTION_SENSOR_H3LIS331DL_0 == 1)
 785:D:/fchai/work/i-cube/I-CUBE-HUAWEI/Drivers/BSP/IKS01A3\iks01a3_motion_sensors_ex.c ****     case IKS01A3_H3LIS331DL_0:
 786:D:/fchai/work/i-cube/I-CUBE-HUAWEI/Drivers/BSP/IKS01A3\iks01a3_motion_sensors_ex.c ****       if (H3LIS331DL_Read_Reg(MotionCompObj[Instance], Reg, Data) != BSP_ERROR_NONE)
 787:D:/fchai/work/i-cube/I-CUBE-HUAWEI/Drivers/BSP/IKS01A3\iks01a3_motion_sensors_ex.c ****       {
 788:D:/fchai/work/i-cube/I-CUBE-HUAWEI/Drivers/BSP/IKS01A3\iks01a3_motion_sensors_ex.c ****         ret = BSP_ERROR_COMPONENT_FAILURE;
 789:D:/fchai/work/i-cube/I-CUBE-HUAWEI/Drivers/BSP/IKS01A3\iks01a3_motion_sensors_ex.c ****       }
 790:D:/fchai/work/i-cube/I-CUBE-HUAWEI/Drivers/BSP/IKS01A3\iks01a3_motion_sensors_ex.c ****       else
 791:D:/fchai/work/i-cube/I-CUBE-HUAWEI/Drivers/BSP/IKS01A3\iks01a3_motion_sensors_ex.c ****       {
 792:D:/fchai/work/i-cube/I-CUBE-HUAWEI/Drivers/BSP/IKS01A3\iks01a3_motion_sensors_ex.c ****         ret = BSP_ERROR_NONE;
 793:D:/fchai/work/i-cube/I-CUBE-HUAWEI/Drivers/BSP/IKS01A3\iks01a3_motion_sensors_ex.c ****       }
 794:D:/fchai/work/i-cube/I-CUBE-HUAWEI/Drivers/BSP/IKS01A3\iks01a3_motion_sensors_ex.c ****       break;
 795:D:/fchai/work/i-cube/I-CUBE-HUAWEI/Drivers/BSP/IKS01A3\iks01a3_motion_sensors_ex.c **** #endif
 796:D:/fchai/work/i-cube/I-CUBE-HUAWEI/Drivers/BSP/IKS01A3\iks01a3_motion_sensors_ex.c **** 
 797:D:/fchai/work/i-cube/I-CUBE-HUAWEI/Drivers/BSP/IKS01A3\iks01a3_motion_sensors_ex.c **** #if (USE_IKS01A3_MOTION_SENSOR_LSM6DSRX_0 == 1)
 798:D:/fchai/work/i-cube/I-CUBE-HUAWEI/Drivers/BSP/IKS01A3\iks01a3_motion_sensors_ex.c ****     case IKS01A3_LSM6DSRX_0:
 799:D:/fchai/work/i-cube/I-CUBE-HUAWEI/Drivers/BSP/IKS01A3\iks01a3_motion_sensors_ex.c ****       if (LSM6DSRX_Read_Reg(MotionCompObj[Instance], Reg, Data) != BSP_ERROR_NONE)
 800:D:/fchai/work/i-cube/I-CUBE-HUAWEI/Drivers/BSP/IKS01A3\iks01a3_motion_sensors_ex.c ****       {
 801:D:/fchai/work/i-cube/I-CUBE-HUAWEI/Drivers/BSP/IKS01A3\iks01a3_motion_sensors_ex.c ****         ret = BSP_ERROR_COMPONENT_FAILURE;
 802:D:/fchai/work/i-cube/I-CUBE-HUAWEI/Drivers/BSP/IKS01A3\iks01a3_motion_sensors_ex.c ****       }
 803:D:/fchai/work/i-cube/I-CUBE-HUAWEI/Drivers/BSP/IKS01A3\iks01a3_motion_sensors_ex.c ****       else
 804:D:/fchai/work/i-cube/I-CUBE-HUAWEI/Drivers/BSP/IKS01A3\iks01a3_motion_sensors_ex.c ****       {
 805:D:/fchai/work/i-cube/I-CUBE-HUAWEI/Drivers/BSP/IKS01A3\iks01a3_motion_sensors_ex.c ****         ret = BSP_ERROR_NONE;
ARM GAS  T:\msys\tmp\ccuiVBP3.s 			page 19


 806:D:/fchai/work/i-cube/I-CUBE-HUAWEI/Drivers/BSP/IKS01A3\iks01a3_motion_sensors_ex.c ****       }
 807:D:/fchai/work/i-cube/I-CUBE-HUAWEI/Drivers/BSP/IKS01A3\iks01a3_motion_sensors_ex.c ****       break;
 808:D:/fchai/work/i-cube/I-CUBE-HUAWEI/Drivers/BSP/IKS01A3\iks01a3_motion_sensors_ex.c **** #endif
 809:D:/fchai/work/i-cube/I-CUBE-HUAWEI/Drivers/BSP/IKS01A3\iks01a3_motion_sensors_ex.c **** 
 810:D:/fchai/work/i-cube/I-CUBE-HUAWEI/Drivers/BSP/IKS01A3\iks01a3_motion_sensors_ex.c **** #if (USE_IKS01A3_MOTION_SENSOR_ISM330DHCX_0 == 1)
 811:D:/fchai/work/i-cube/I-CUBE-HUAWEI/Drivers/BSP/IKS01A3\iks01a3_motion_sensors_ex.c ****     case IKS01A3_ISM330DHCX_0:
 812:D:/fchai/work/i-cube/I-CUBE-HUAWEI/Drivers/BSP/IKS01A3\iks01a3_motion_sensors_ex.c ****       if (ISM330DHCX_Read_Reg(MotionCompObj[Instance], Reg, Data) != BSP_ERROR_NONE)
 813:D:/fchai/work/i-cube/I-CUBE-HUAWEI/Drivers/BSP/IKS01A3\iks01a3_motion_sensors_ex.c ****       {
 814:D:/fchai/work/i-cube/I-CUBE-HUAWEI/Drivers/BSP/IKS01A3\iks01a3_motion_sensors_ex.c ****         ret = BSP_ERROR_COMPONENT_FAILURE;
 815:D:/fchai/work/i-cube/I-CUBE-HUAWEI/Drivers/BSP/IKS01A3\iks01a3_motion_sensors_ex.c ****       }
 816:D:/fchai/work/i-cube/I-CUBE-HUAWEI/Drivers/BSP/IKS01A3\iks01a3_motion_sensors_ex.c ****       else
 817:D:/fchai/work/i-cube/I-CUBE-HUAWEI/Drivers/BSP/IKS01A3\iks01a3_motion_sensors_ex.c ****       {
 818:D:/fchai/work/i-cube/I-CUBE-HUAWEI/Drivers/BSP/IKS01A3\iks01a3_motion_sensors_ex.c ****         ret = BSP_ERROR_NONE;
 819:D:/fchai/work/i-cube/I-CUBE-HUAWEI/Drivers/BSP/IKS01A3\iks01a3_motion_sensors_ex.c ****       }
 820:D:/fchai/work/i-cube/I-CUBE-HUAWEI/Drivers/BSP/IKS01A3\iks01a3_motion_sensors_ex.c ****       break;
 821:D:/fchai/work/i-cube/I-CUBE-HUAWEI/Drivers/BSP/IKS01A3\iks01a3_motion_sensors_ex.c **** #endif
 822:D:/fchai/work/i-cube/I-CUBE-HUAWEI/Drivers/BSP/IKS01A3\iks01a3_motion_sensors_ex.c **** 
 823:D:/fchai/work/i-cube/I-CUBE-HUAWEI/Drivers/BSP/IKS01A3\iks01a3_motion_sensors_ex.c ****     default:
 824:D:/fchai/work/i-cube/I-CUBE-HUAWEI/Drivers/BSP/IKS01A3\iks01a3_motion_sensors_ex.c ****       ret = BSP_ERROR_WRONG_PARAM;
 825:D:/fchai/work/i-cube/I-CUBE-HUAWEI/Drivers/BSP/IKS01A3\iks01a3_motion_sensors_ex.c ****       break;
 826:D:/fchai/work/i-cube/I-CUBE-HUAWEI/Drivers/BSP/IKS01A3\iks01a3_motion_sensors_ex.c ****   }
 827:D:/fchai/work/i-cube/I-CUBE-HUAWEI/Drivers/BSP/IKS01A3\iks01a3_motion_sensors_ex.c **** 
 828:D:/fchai/work/i-cube/I-CUBE-HUAWEI/Drivers/BSP/IKS01A3\iks01a3_motion_sensors_ex.c ****   return ret;
 189              		.loc 1 828 3 is_stmt 1 view .LVU48
 829:D:/fchai/work/i-cube/I-CUBE-HUAWEI/Drivers/BSP/IKS01A3\iks01a3_motion_sensors_ex.c **** }
 190              		.loc 1 829 1 is_stmt 0 view .LVU49
 191 0010 08BD     		pop	{r3, pc}
 192              	.LVL23:
 193              	.L28:
 578:D:/fchai/work/i-cube/I-CUBE-HUAWEI/Drivers/BSP/IKS01A3\iks01a3_motion_sensors_ex.c ****       {
 194              		.loc 1 578 7 is_stmt 1 view .LVU50
 578:D:/fchai/work/i-cube/I-CUBE-HUAWEI/Drivers/BSP/IKS01A3\iks01a3_motion_sensors_ex.c ****       {
 195              		.loc 1 578 42 is_stmt 0 view .LVU51
 196 0012 0B4B     		ldr	r3, .L39
 578:D:/fchai/work/i-cube/I-CUBE-HUAWEI/Drivers/BSP/IKS01A3\iks01a3_motion_sensors_ex.c ****       {
 197              		.loc 1 578 11 view .LVU52
 198 0014 5868     		ldr	r0, [r3, #4]
 199              	.LVL24:
 578:D:/fchai/work/i-cube/I-CUBE-HUAWEI/Drivers/BSP/IKS01A3\iks01a3_motion_sensors_ex.c ****       {
 200              		.loc 1 578 11 view .LVU53
 201 0016 FFF7FEFF 		bl	LIS2DW12_Read_Reg
 202              	.LVL25:
 578:D:/fchai/work/i-cube/I-CUBE-HUAWEI/Drivers/BSP/IKS01A3\iks01a3_motion_sensors_ex.c ****       {
 203              		.loc 1 578 10 view .LVU54
 204 001a 38B9     		cbnz	r0, .L32
 205              	.L31:
 571:D:/fchai/work/i-cube/I-CUBE-HUAWEI/Drivers/BSP/IKS01A3\iks01a3_motion_sensors_ex.c ****       }
 206              		.loc 1 571 9 is_stmt 1 view .LVU55
 207              	.LVL26:
 571:D:/fchai/work/i-cube/I-CUBE-HUAWEI/Drivers/BSP/IKS01A3\iks01a3_motion_sensors_ex.c ****       }
 208              		.loc 1 571 13 is_stmt 0 view .LVU56
 209 001c 0020     		movs	r0, #0
 210              		.loc 1 829 1 view .LVU57
 211 001e 08BD     		pop	{r3, pc}
 212              	.LVL27:
 213              	.L38:
 565:D:/fchai/work/i-cube/I-CUBE-HUAWEI/Drivers/BSP/IKS01A3\iks01a3_motion_sensors_ex.c ****       {
ARM GAS  T:\msys\tmp\ccuiVBP3.s 			page 20


 214              		.loc 1 565 7 is_stmt 1 view .LVU58
 565:D:/fchai/work/i-cube/I-CUBE-HUAWEI/Drivers/BSP/IKS01A3\iks01a3_motion_sensors_ex.c ****       {
 215              		.loc 1 565 41 is_stmt 0 view .LVU59
 216 0020 074B     		ldr	r3, .L39
 565:D:/fchai/work/i-cube/I-CUBE-HUAWEI/Drivers/BSP/IKS01A3\iks01a3_motion_sensors_ex.c ****       {
 217              		.loc 1 565 11 view .LVU60
 218 0022 1868     		ldr	r0, [r3]
 219              	.LVL28:
 565:D:/fchai/work/i-cube/I-CUBE-HUAWEI/Drivers/BSP/IKS01A3\iks01a3_motion_sensors_ex.c ****       {
 220              		.loc 1 565 11 view .LVU61
 221 0024 FFF7FEFF 		bl	LSM6DSO_Read_Reg
 222              	.LVL29:
 565:D:/fchai/work/i-cube/I-CUBE-HUAWEI/Drivers/BSP/IKS01A3\iks01a3_motion_sensors_ex.c ****       {
 223              		.loc 1 565 10 view .LVU62
 224 0028 0028     		cmp	r0, #0
 225 002a F7D0     		beq	.L31
 226              	.L32:
 567:D:/fchai/work/i-cube/I-CUBE-HUAWEI/Drivers/BSP/IKS01A3\iks01a3_motion_sensors_ex.c ****       }
 227              		.loc 1 567 13 view .LVU63
 228 002c 6FF00400 		mvn	r0, #4
 229              		.loc 1 829 1 view .LVU64
 230 0030 08BD     		pop	{r3, pc}
 231              	.LVL30:
 232              	.L29:
 591:D:/fchai/work/i-cube/I-CUBE-HUAWEI/Drivers/BSP/IKS01A3\iks01a3_motion_sensors_ex.c ****       {
 233              		.loc 1 591 7 is_stmt 1 view .LVU65
 591:D:/fchai/work/i-cube/I-CUBE-HUAWEI/Drivers/BSP/IKS01A3\iks01a3_motion_sensors_ex.c ****       {
 234              		.loc 1 591 41 is_stmt 0 view .LVU66
 235 0032 034B     		ldr	r3, .L39
 591:D:/fchai/work/i-cube/I-CUBE-HUAWEI/Drivers/BSP/IKS01A3\iks01a3_motion_sensors_ex.c ****       {
 236              		.loc 1 591 11 view .LVU67
 237 0034 9868     		ldr	r0, [r3, #8]
 238              	.LVL31:
 591:D:/fchai/work/i-cube/I-CUBE-HUAWEI/Drivers/BSP/IKS01A3\iks01a3_motion_sensors_ex.c ****       {
 239              		.loc 1 591 11 view .LVU68
 240 0036 FFF7FEFF 		bl	LIS2MDL_Read_Reg
 241              	.LVL32:
 591:D:/fchai/work/i-cube/I-CUBE-HUAWEI/Drivers/BSP/IKS01A3\iks01a3_motion_sensors_ex.c ****       {
 242              		.loc 1 591 10 view .LVU69
 243 003a 0028     		cmp	r0, #0
 244 003c EED0     		beq	.L31
 245 003e F5E7     		b	.L32
 246              	.L40:
 247              		.align	2
 248              	.L39:
 249 0040 00000000 		.word	MotionCompObj
 250              		.cfi_endproc
 251              	.LFE124:
 253              		.section	.text.IKS01A3_MOTION_SENSOR_Write_Register,"ax",%progbits
 254              		.align	1
 255              		.p2align 2,,3
 256              		.global	IKS01A3_MOTION_SENSOR_Write_Register
 257              		.syntax unified
 258              		.thumb
 259              		.thumb_func
 260              		.fpu fpv4-sp-d16
 262              	IKS01A3_MOTION_SENSOR_Write_Register:
ARM GAS  T:\msys\tmp\ccuiVBP3.s 			page 21


 263              	.LVL33:
 264              	.LFB125:
 830:D:/fchai/work/i-cube/I-CUBE-HUAWEI/Drivers/BSP/IKS01A3\iks01a3_motion_sensors_ex.c **** 
 831:D:/fchai/work/i-cube/I-CUBE-HUAWEI/Drivers/BSP/IKS01A3\iks01a3_motion_sensors_ex.c **** /**
 832:D:/fchai/work/i-cube/I-CUBE-HUAWEI/Drivers/BSP/IKS01A3\iks01a3_motion_sensors_ex.c ****  * @brief  Set the register value (available only for LSM6DSO, LIS2DW12, LIS2MDL, ASM330LHH, IIS2DL
 833:D:/fchai/work/i-cube/I-CUBE-HUAWEI/Drivers/BSP/IKS01A3\iks01a3_motion_sensors_ex.c ****  * @param  Instance the device instance
 834:D:/fchai/work/i-cube/I-CUBE-HUAWEI/Drivers/BSP/IKS01A3\iks01a3_motion_sensors_ex.c ****  * @param  Reg address to be read
 835:D:/fchai/work/i-cube/I-CUBE-HUAWEI/Drivers/BSP/IKS01A3\iks01a3_motion_sensors_ex.c ****  * @param  Data value to be written
 836:D:/fchai/work/i-cube/I-CUBE-HUAWEI/Drivers/BSP/IKS01A3\iks01a3_motion_sensors_ex.c ****  * @retval BSP status
 837:D:/fchai/work/i-cube/I-CUBE-HUAWEI/Drivers/BSP/IKS01A3\iks01a3_motion_sensors_ex.c ****  */
 838:D:/fchai/work/i-cube/I-CUBE-HUAWEI/Drivers/BSP/IKS01A3\iks01a3_motion_sensors_ex.c **** int32_t IKS01A3_MOTION_SENSOR_Write_Register(uint32_t Instance, uint8_t Reg, uint8_t Data)
 839:D:/fchai/work/i-cube/I-CUBE-HUAWEI/Drivers/BSP/IKS01A3\iks01a3_motion_sensors_ex.c **** {
 265              		.loc 1 839 1 is_stmt 1 view -0
 266              		.cfi_startproc
 267              		@ args = 0, pretend = 0, frame = 0
 268              		@ frame_needed = 0, uses_anonymous_args = 0
 840:D:/fchai/work/i-cube/I-CUBE-HUAWEI/Drivers/BSP/IKS01A3\iks01a3_motion_sensors_ex.c ****   int32_t ret;
 269              		.loc 1 840 3 view .LVU71
 841:D:/fchai/work/i-cube/I-CUBE-HUAWEI/Drivers/BSP/IKS01A3\iks01a3_motion_sensors_ex.c **** 
 842:D:/fchai/work/i-cube/I-CUBE-HUAWEI/Drivers/BSP/IKS01A3\iks01a3_motion_sensors_ex.c ****   switch (Instance)
 270              		.loc 1 842 3 view .LVU72
 271 0000 0128     		cmp	r0, #1
 839:D:/fchai/work/i-cube/I-CUBE-HUAWEI/Drivers/BSP/IKS01A3\iks01a3_motion_sensors_ex.c ****   int32_t ret;
 272              		.loc 1 839 1 is_stmt 0 view .LVU73
 273 0002 08B5     		push	{r3, lr}
 274              	.LCFI2:
 275              		.cfi_def_cfa_offset 8
 276              		.cfi_offset 3, -8
 277              		.cfi_offset 14, -4
 278              		.loc 1 842 3 view .LVU74
 279 0004 05D0     		beq	.L42
 280 0006 0228     		cmp	r0, #2
 281 0008 13D0     		beq	.L43
 282 000a 48B1     		cbz	r0, .L52
 283 000c 6FF00100 		mvn	r0, #1
 284              	.LVL34:
 843:D:/fchai/work/i-cube/I-CUBE-HUAWEI/Drivers/BSP/IKS01A3\iks01a3_motion_sensors_ex.c ****   {
 844:D:/fchai/work/i-cube/I-CUBE-HUAWEI/Drivers/BSP/IKS01A3\iks01a3_motion_sensors_ex.c **** #if (USE_IKS01A3_MOTION_SENSOR_LSM6DSO_0 == 1)
 845:D:/fchai/work/i-cube/I-CUBE-HUAWEI/Drivers/BSP/IKS01A3\iks01a3_motion_sensors_ex.c ****     case IKS01A3_LSM6DSO_0:
 846:D:/fchai/work/i-cube/I-CUBE-HUAWEI/Drivers/BSP/IKS01A3\iks01a3_motion_sensors_ex.c ****       if (LSM6DSO_Write_Reg(MotionCompObj[Instance], Reg, Data) != BSP_ERROR_NONE)
 847:D:/fchai/work/i-cube/I-CUBE-HUAWEI/Drivers/BSP/IKS01A3\iks01a3_motion_sensors_ex.c ****       {
 848:D:/fchai/work/i-cube/I-CUBE-HUAWEI/Drivers/BSP/IKS01A3\iks01a3_motion_sensors_ex.c ****         ret = BSP_ERROR_COMPONENT_FAILURE;
 849:D:/fchai/work/i-cube/I-CUBE-HUAWEI/Drivers/BSP/IKS01A3\iks01a3_motion_sensors_ex.c ****       }
 850:D:/fchai/work/i-cube/I-CUBE-HUAWEI/Drivers/BSP/IKS01A3\iks01a3_motion_sensors_ex.c ****       else
 851:D:/fchai/work/i-cube/I-CUBE-HUAWEI/Drivers/BSP/IKS01A3\iks01a3_motion_sensors_ex.c ****       {
 852:D:/fchai/work/i-cube/I-CUBE-HUAWEI/Drivers/BSP/IKS01A3\iks01a3_motion_sensors_ex.c ****         ret = BSP_ERROR_NONE;
 853:D:/fchai/work/i-cube/I-CUBE-HUAWEI/Drivers/BSP/IKS01A3\iks01a3_motion_sensors_ex.c ****       }
 854:D:/fchai/work/i-cube/I-CUBE-HUAWEI/Drivers/BSP/IKS01A3\iks01a3_motion_sensors_ex.c ****       break;
 855:D:/fchai/work/i-cube/I-CUBE-HUAWEI/Drivers/BSP/IKS01A3\iks01a3_motion_sensors_ex.c **** #endif
 856:D:/fchai/work/i-cube/I-CUBE-HUAWEI/Drivers/BSP/IKS01A3\iks01a3_motion_sensors_ex.c **** 
 857:D:/fchai/work/i-cube/I-CUBE-HUAWEI/Drivers/BSP/IKS01A3\iks01a3_motion_sensors_ex.c **** #if (USE_IKS01A3_MOTION_SENSOR_LIS2DW12_0 == 1)
 858:D:/fchai/work/i-cube/I-CUBE-HUAWEI/Drivers/BSP/IKS01A3\iks01a3_motion_sensors_ex.c ****     case IKS01A3_LIS2DW12_0:
 859:D:/fchai/work/i-cube/I-CUBE-HUAWEI/Drivers/BSP/IKS01A3\iks01a3_motion_sensors_ex.c ****       if (LIS2DW12_Write_Reg(MotionCompObj[Instance], Reg, Data) != BSP_ERROR_NONE)
 860:D:/fchai/work/i-cube/I-CUBE-HUAWEI/Drivers/BSP/IKS01A3\iks01a3_motion_sensors_ex.c ****       {
 861:D:/fchai/work/i-cube/I-CUBE-HUAWEI/Drivers/BSP/IKS01A3\iks01a3_motion_sensors_ex.c ****         ret = BSP_ERROR_COMPONENT_FAILURE;
 862:D:/fchai/work/i-cube/I-CUBE-HUAWEI/Drivers/BSP/IKS01A3\iks01a3_motion_sensors_ex.c ****       }
 863:D:/fchai/work/i-cube/I-CUBE-HUAWEI/Drivers/BSP/IKS01A3\iks01a3_motion_sensors_ex.c ****       else
ARM GAS  T:\msys\tmp\ccuiVBP3.s 			page 22


 864:D:/fchai/work/i-cube/I-CUBE-HUAWEI/Drivers/BSP/IKS01A3\iks01a3_motion_sensors_ex.c ****       {
 865:D:/fchai/work/i-cube/I-CUBE-HUAWEI/Drivers/BSP/IKS01A3\iks01a3_motion_sensors_ex.c ****         ret = BSP_ERROR_NONE;
 866:D:/fchai/work/i-cube/I-CUBE-HUAWEI/Drivers/BSP/IKS01A3\iks01a3_motion_sensors_ex.c ****       }
 867:D:/fchai/work/i-cube/I-CUBE-HUAWEI/Drivers/BSP/IKS01A3\iks01a3_motion_sensors_ex.c ****       break;
 868:D:/fchai/work/i-cube/I-CUBE-HUAWEI/Drivers/BSP/IKS01A3\iks01a3_motion_sensors_ex.c **** #endif
 869:D:/fchai/work/i-cube/I-CUBE-HUAWEI/Drivers/BSP/IKS01A3\iks01a3_motion_sensors_ex.c **** 
 870:D:/fchai/work/i-cube/I-CUBE-HUAWEI/Drivers/BSP/IKS01A3\iks01a3_motion_sensors_ex.c **** #if (USE_IKS01A3_MOTION_SENSOR_LIS2MDL_0 == 1)
 871:D:/fchai/work/i-cube/I-CUBE-HUAWEI/Drivers/BSP/IKS01A3\iks01a3_motion_sensors_ex.c ****     case IKS01A3_LIS2MDL_0:
 872:D:/fchai/work/i-cube/I-CUBE-HUAWEI/Drivers/BSP/IKS01A3\iks01a3_motion_sensors_ex.c ****       if (LIS2MDL_Write_Reg(MotionCompObj[Instance], Reg, Data) != BSP_ERROR_NONE)
 873:D:/fchai/work/i-cube/I-CUBE-HUAWEI/Drivers/BSP/IKS01A3\iks01a3_motion_sensors_ex.c ****       {
 874:D:/fchai/work/i-cube/I-CUBE-HUAWEI/Drivers/BSP/IKS01A3\iks01a3_motion_sensors_ex.c ****         ret = BSP_ERROR_COMPONENT_FAILURE;
 875:D:/fchai/work/i-cube/I-CUBE-HUAWEI/Drivers/BSP/IKS01A3\iks01a3_motion_sensors_ex.c ****       }
 876:D:/fchai/work/i-cube/I-CUBE-HUAWEI/Drivers/BSP/IKS01A3\iks01a3_motion_sensors_ex.c ****       else
 877:D:/fchai/work/i-cube/I-CUBE-HUAWEI/Drivers/BSP/IKS01A3\iks01a3_motion_sensors_ex.c ****       {
 878:D:/fchai/work/i-cube/I-CUBE-HUAWEI/Drivers/BSP/IKS01A3\iks01a3_motion_sensors_ex.c ****         ret = BSP_ERROR_NONE;
 879:D:/fchai/work/i-cube/I-CUBE-HUAWEI/Drivers/BSP/IKS01A3\iks01a3_motion_sensors_ex.c ****       }
 880:D:/fchai/work/i-cube/I-CUBE-HUAWEI/Drivers/BSP/IKS01A3\iks01a3_motion_sensors_ex.c ****       break;
 881:D:/fchai/work/i-cube/I-CUBE-HUAWEI/Drivers/BSP/IKS01A3\iks01a3_motion_sensors_ex.c **** #endif
 882:D:/fchai/work/i-cube/I-CUBE-HUAWEI/Drivers/BSP/IKS01A3\iks01a3_motion_sensors_ex.c **** 
 883:D:/fchai/work/i-cube/I-CUBE-HUAWEI/Drivers/BSP/IKS01A3\iks01a3_motion_sensors_ex.c **** #if (USE_IKS01A3_MOTION_SENSOR_ASM330LHH_0 == 1)
 884:D:/fchai/work/i-cube/I-CUBE-HUAWEI/Drivers/BSP/IKS01A3\iks01a3_motion_sensors_ex.c ****     case IKS01A3_ASM330LHH_0:
 885:D:/fchai/work/i-cube/I-CUBE-HUAWEI/Drivers/BSP/IKS01A3\iks01a3_motion_sensors_ex.c ****       if (ASM330LHH_Write_Reg(MotionCompObj[Instance], Reg, Data) != BSP_ERROR_NONE)
 886:D:/fchai/work/i-cube/I-CUBE-HUAWEI/Drivers/BSP/IKS01A3\iks01a3_motion_sensors_ex.c ****       {
 887:D:/fchai/work/i-cube/I-CUBE-HUAWEI/Drivers/BSP/IKS01A3\iks01a3_motion_sensors_ex.c ****         ret = BSP_ERROR_COMPONENT_FAILURE;
 888:D:/fchai/work/i-cube/I-CUBE-HUAWEI/Drivers/BSP/IKS01A3\iks01a3_motion_sensors_ex.c ****       }
 889:D:/fchai/work/i-cube/I-CUBE-HUAWEI/Drivers/BSP/IKS01A3\iks01a3_motion_sensors_ex.c ****       else
 890:D:/fchai/work/i-cube/I-CUBE-HUAWEI/Drivers/BSP/IKS01A3\iks01a3_motion_sensors_ex.c ****       {
 891:D:/fchai/work/i-cube/I-CUBE-HUAWEI/Drivers/BSP/IKS01A3\iks01a3_motion_sensors_ex.c ****         ret = BSP_ERROR_NONE;
 892:D:/fchai/work/i-cube/I-CUBE-HUAWEI/Drivers/BSP/IKS01A3\iks01a3_motion_sensors_ex.c ****       }
 893:D:/fchai/work/i-cube/I-CUBE-HUAWEI/Drivers/BSP/IKS01A3\iks01a3_motion_sensors_ex.c ****       break;
 894:D:/fchai/work/i-cube/I-CUBE-HUAWEI/Drivers/BSP/IKS01A3\iks01a3_motion_sensors_ex.c **** #endif
 895:D:/fchai/work/i-cube/I-CUBE-HUAWEI/Drivers/BSP/IKS01A3\iks01a3_motion_sensors_ex.c **** 
 896:D:/fchai/work/i-cube/I-CUBE-HUAWEI/Drivers/BSP/IKS01A3\iks01a3_motion_sensors_ex.c **** #if (USE_IKS01A3_MOTION_SENSOR_IIS2DLPC_0 == 1)
 897:D:/fchai/work/i-cube/I-CUBE-HUAWEI/Drivers/BSP/IKS01A3\iks01a3_motion_sensors_ex.c ****     case IKS01A3_IIS2DLPC_0:
 898:D:/fchai/work/i-cube/I-CUBE-HUAWEI/Drivers/BSP/IKS01A3\iks01a3_motion_sensors_ex.c ****       if (IIS2DLPC_Write_Reg(MotionCompObj[Instance], Reg, Data) != BSP_ERROR_NONE)
 899:D:/fchai/work/i-cube/I-CUBE-HUAWEI/Drivers/BSP/IKS01A3\iks01a3_motion_sensors_ex.c ****       {
 900:D:/fchai/work/i-cube/I-CUBE-HUAWEI/Drivers/BSP/IKS01A3\iks01a3_motion_sensors_ex.c ****         ret = BSP_ERROR_COMPONENT_FAILURE;
 901:D:/fchai/work/i-cube/I-CUBE-HUAWEI/Drivers/BSP/IKS01A3\iks01a3_motion_sensors_ex.c ****       }
 902:D:/fchai/work/i-cube/I-CUBE-HUAWEI/Drivers/BSP/IKS01A3\iks01a3_motion_sensors_ex.c ****       else
 903:D:/fchai/work/i-cube/I-CUBE-HUAWEI/Drivers/BSP/IKS01A3\iks01a3_motion_sensors_ex.c ****       {
 904:D:/fchai/work/i-cube/I-CUBE-HUAWEI/Drivers/BSP/IKS01A3\iks01a3_motion_sensors_ex.c ****         ret = BSP_ERROR_NONE;
 905:D:/fchai/work/i-cube/I-CUBE-HUAWEI/Drivers/BSP/IKS01A3\iks01a3_motion_sensors_ex.c ****       }
 906:D:/fchai/work/i-cube/I-CUBE-HUAWEI/Drivers/BSP/IKS01A3\iks01a3_motion_sensors_ex.c ****       break;
 907:D:/fchai/work/i-cube/I-CUBE-HUAWEI/Drivers/BSP/IKS01A3\iks01a3_motion_sensors_ex.c **** #endif
 908:D:/fchai/work/i-cube/I-CUBE-HUAWEI/Drivers/BSP/IKS01A3\iks01a3_motion_sensors_ex.c **** 
 909:D:/fchai/work/i-cube/I-CUBE-HUAWEI/Drivers/BSP/IKS01A3\iks01a3_motion_sensors_ex.c **** #if (USE_IKS01A3_MOTION_SENSOR_IIS2MDC_0 == 1)
 910:D:/fchai/work/i-cube/I-CUBE-HUAWEI/Drivers/BSP/IKS01A3\iks01a3_motion_sensors_ex.c ****     case IKS01A3_IIS2MDC_0:
 911:D:/fchai/work/i-cube/I-CUBE-HUAWEI/Drivers/BSP/IKS01A3\iks01a3_motion_sensors_ex.c ****       if (IIS2MDC_Write_Reg(MotionCompObj[Instance], Reg, Data) != BSP_ERROR_NONE)
 912:D:/fchai/work/i-cube/I-CUBE-HUAWEI/Drivers/BSP/IKS01A3\iks01a3_motion_sensors_ex.c ****       {
 913:D:/fchai/work/i-cube/I-CUBE-HUAWEI/Drivers/BSP/IKS01A3\iks01a3_motion_sensors_ex.c ****         ret = BSP_ERROR_COMPONENT_FAILURE;
 914:D:/fchai/work/i-cube/I-CUBE-HUAWEI/Drivers/BSP/IKS01A3\iks01a3_motion_sensors_ex.c ****       }
 915:D:/fchai/work/i-cube/I-CUBE-HUAWEI/Drivers/BSP/IKS01A3\iks01a3_motion_sensors_ex.c ****       else
 916:D:/fchai/work/i-cube/I-CUBE-HUAWEI/Drivers/BSP/IKS01A3\iks01a3_motion_sensors_ex.c ****       {
 917:D:/fchai/work/i-cube/I-CUBE-HUAWEI/Drivers/BSP/IKS01A3\iks01a3_motion_sensors_ex.c ****         ret = BSP_ERROR_NONE;
 918:D:/fchai/work/i-cube/I-CUBE-HUAWEI/Drivers/BSP/IKS01A3\iks01a3_motion_sensors_ex.c ****       }
 919:D:/fchai/work/i-cube/I-CUBE-HUAWEI/Drivers/BSP/IKS01A3\iks01a3_motion_sensors_ex.c ****       break;
 920:D:/fchai/work/i-cube/I-CUBE-HUAWEI/Drivers/BSP/IKS01A3\iks01a3_motion_sensors_ex.c **** #endif
ARM GAS  T:\msys\tmp\ccuiVBP3.s 			page 23


 921:D:/fchai/work/i-cube/I-CUBE-HUAWEI/Drivers/BSP/IKS01A3\iks01a3_motion_sensors_ex.c **** 
 922:D:/fchai/work/i-cube/I-CUBE-HUAWEI/Drivers/BSP/IKS01A3\iks01a3_motion_sensors_ex.c **** #if (USE_IKS01A3_MOTION_SENSOR_ISM303DAC_ACC_0 == 1)
 923:D:/fchai/work/i-cube/I-CUBE-HUAWEI/Drivers/BSP/IKS01A3\iks01a3_motion_sensors_ex.c ****     case IKS01A3_ISM303DAC_ACC_0:
 924:D:/fchai/work/i-cube/I-CUBE-HUAWEI/Drivers/BSP/IKS01A3\iks01a3_motion_sensors_ex.c ****       if (ISM303DAC_ACC_Write_Reg(MotionCompObj[Instance], Reg, Data) != BSP_ERROR_NONE)
 925:D:/fchai/work/i-cube/I-CUBE-HUAWEI/Drivers/BSP/IKS01A3\iks01a3_motion_sensors_ex.c ****       {
 926:D:/fchai/work/i-cube/I-CUBE-HUAWEI/Drivers/BSP/IKS01A3\iks01a3_motion_sensors_ex.c ****         ret = BSP_ERROR_COMPONENT_FAILURE;
 927:D:/fchai/work/i-cube/I-CUBE-HUAWEI/Drivers/BSP/IKS01A3\iks01a3_motion_sensors_ex.c ****       }
 928:D:/fchai/work/i-cube/I-CUBE-HUAWEI/Drivers/BSP/IKS01A3\iks01a3_motion_sensors_ex.c ****       else
 929:D:/fchai/work/i-cube/I-CUBE-HUAWEI/Drivers/BSP/IKS01A3\iks01a3_motion_sensors_ex.c ****       {
 930:D:/fchai/work/i-cube/I-CUBE-HUAWEI/Drivers/BSP/IKS01A3\iks01a3_motion_sensors_ex.c ****         ret = BSP_ERROR_NONE;
 931:D:/fchai/work/i-cube/I-CUBE-HUAWEI/Drivers/BSP/IKS01A3\iks01a3_motion_sensors_ex.c ****       }
 932:D:/fchai/work/i-cube/I-CUBE-HUAWEI/Drivers/BSP/IKS01A3\iks01a3_motion_sensors_ex.c ****       break;
 933:D:/fchai/work/i-cube/I-CUBE-HUAWEI/Drivers/BSP/IKS01A3\iks01a3_motion_sensors_ex.c **** #endif
 934:D:/fchai/work/i-cube/I-CUBE-HUAWEI/Drivers/BSP/IKS01A3\iks01a3_motion_sensors_ex.c **** 
 935:D:/fchai/work/i-cube/I-CUBE-HUAWEI/Drivers/BSP/IKS01A3\iks01a3_motion_sensors_ex.c **** #if (USE_IKS01A3_MOTION_SENSOR_ISM303DAC_MAG_0 == 1)
 936:D:/fchai/work/i-cube/I-CUBE-HUAWEI/Drivers/BSP/IKS01A3\iks01a3_motion_sensors_ex.c ****     case IKS01A3_ISM303DAC_MAG_0:
 937:D:/fchai/work/i-cube/I-CUBE-HUAWEI/Drivers/BSP/IKS01A3\iks01a3_motion_sensors_ex.c ****       if (ISM303DAC_MAG_Write_Reg(MotionCompObj[Instance], Reg, Data) != BSP_ERROR_NONE)
 938:D:/fchai/work/i-cube/I-CUBE-HUAWEI/Drivers/BSP/IKS01A3\iks01a3_motion_sensors_ex.c ****       {
 939:D:/fchai/work/i-cube/I-CUBE-HUAWEI/Drivers/BSP/IKS01A3\iks01a3_motion_sensors_ex.c ****         ret = BSP_ERROR_COMPONENT_FAILURE;
 940:D:/fchai/work/i-cube/I-CUBE-HUAWEI/Drivers/BSP/IKS01A3\iks01a3_motion_sensors_ex.c ****       }
 941:D:/fchai/work/i-cube/I-CUBE-HUAWEI/Drivers/BSP/IKS01A3\iks01a3_motion_sensors_ex.c ****       else
 942:D:/fchai/work/i-cube/I-CUBE-HUAWEI/Drivers/BSP/IKS01A3\iks01a3_motion_sensors_ex.c ****       {
 943:D:/fchai/work/i-cube/I-CUBE-HUAWEI/Drivers/BSP/IKS01A3\iks01a3_motion_sensors_ex.c ****         ret = BSP_ERROR_NONE;
 944:D:/fchai/work/i-cube/I-CUBE-HUAWEI/Drivers/BSP/IKS01A3\iks01a3_motion_sensors_ex.c ****       }
 945:D:/fchai/work/i-cube/I-CUBE-HUAWEI/Drivers/BSP/IKS01A3\iks01a3_motion_sensors_ex.c ****       break;
 946:D:/fchai/work/i-cube/I-CUBE-HUAWEI/Drivers/BSP/IKS01A3\iks01a3_motion_sensors_ex.c **** #endif
 947:D:/fchai/work/i-cube/I-CUBE-HUAWEI/Drivers/BSP/IKS01A3\iks01a3_motion_sensors_ex.c **** 
 948:D:/fchai/work/i-cube/I-CUBE-HUAWEI/Drivers/BSP/IKS01A3\iks01a3_motion_sensors_ex.c **** #if (USE_IKS01A3_MOTION_SENSOR_ISM330DLC_0 == 1)
 949:D:/fchai/work/i-cube/I-CUBE-HUAWEI/Drivers/BSP/IKS01A3\iks01a3_motion_sensors_ex.c ****     case IKS01A3_ISM330DLC_0:
 950:D:/fchai/work/i-cube/I-CUBE-HUAWEI/Drivers/BSP/IKS01A3\iks01a3_motion_sensors_ex.c ****       if (ISM330DLC_Write_Reg(MotionCompObj[Instance], Reg, Data) != BSP_ERROR_NONE)
 951:D:/fchai/work/i-cube/I-CUBE-HUAWEI/Drivers/BSP/IKS01A3\iks01a3_motion_sensors_ex.c ****       {
 952:D:/fchai/work/i-cube/I-CUBE-HUAWEI/Drivers/BSP/IKS01A3\iks01a3_motion_sensors_ex.c ****         ret = BSP_ERROR_COMPONENT_FAILURE;
 953:D:/fchai/work/i-cube/I-CUBE-HUAWEI/Drivers/BSP/IKS01A3\iks01a3_motion_sensors_ex.c ****       }
 954:D:/fchai/work/i-cube/I-CUBE-HUAWEI/Drivers/BSP/IKS01A3\iks01a3_motion_sensors_ex.c ****       else
 955:D:/fchai/work/i-cube/I-CUBE-HUAWEI/Drivers/BSP/IKS01A3\iks01a3_motion_sensors_ex.c ****       {
 956:D:/fchai/work/i-cube/I-CUBE-HUAWEI/Drivers/BSP/IKS01A3\iks01a3_motion_sensors_ex.c ****         ret = BSP_ERROR_NONE;
 957:D:/fchai/work/i-cube/I-CUBE-HUAWEI/Drivers/BSP/IKS01A3\iks01a3_motion_sensors_ex.c ****       }
 958:D:/fchai/work/i-cube/I-CUBE-HUAWEI/Drivers/BSP/IKS01A3\iks01a3_motion_sensors_ex.c ****       break;
 959:D:/fchai/work/i-cube/I-CUBE-HUAWEI/Drivers/BSP/IKS01A3\iks01a3_motion_sensors_ex.c **** #endif
 960:D:/fchai/work/i-cube/I-CUBE-HUAWEI/Drivers/BSP/IKS01A3\iks01a3_motion_sensors_ex.c **** 
 961:D:/fchai/work/i-cube/I-CUBE-HUAWEI/Drivers/BSP/IKS01A3\iks01a3_motion_sensors_ex.c **** #if (USE_IKS01A3_MOTION_SENSOR_LIS2DH12_0 == 1)
 962:D:/fchai/work/i-cube/I-CUBE-HUAWEI/Drivers/BSP/IKS01A3\iks01a3_motion_sensors_ex.c ****     case IKS01A3_LIS2DH12_0:
 963:D:/fchai/work/i-cube/I-CUBE-HUAWEI/Drivers/BSP/IKS01A3\iks01a3_motion_sensors_ex.c ****       if (LIS2DH12_Write_Reg(MotionCompObj[Instance], Reg, Data) != BSP_ERROR_NONE)
 964:D:/fchai/work/i-cube/I-CUBE-HUAWEI/Drivers/BSP/IKS01A3\iks01a3_motion_sensors_ex.c ****       {
 965:D:/fchai/work/i-cube/I-CUBE-HUAWEI/Drivers/BSP/IKS01A3\iks01a3_motion_sensors_ex.c ****         ret = BSP_ERROR_COMPONENT_FAILURE;
 966:D:/fchai/work/i-cube/I-CUBE-HUAWEI/Drivers/BSP/IKS01A3\iks01a3_motion_sensors_ex.c ****       }
 967:D:/fchai/work/i-cube/I-CUBE-HUAWEI/Drivers/BSP/IKS01A3\iks01a3_motion_sensors_ex.c ****       else
 968:D:/fchai/work/i-cube/I-CUBE-HUAWEI/Drivers/BSP/IKS01A3\iks01a3_motion_sensors_ex.c ****       {
 969:D:/fchai/work/i-cube/I-CUBE-HUAWEI/Drivers/BSP/IKS01A3\iks01a3_motion_sensors_ex.c ****         ret = BSP_ERROR_NONE;
 970:D:/fchai/work/i-cube/I-CUBE-HUAWEI/Drivers/BSP/IKS01A3\iks01a3_motion_sensors_ex.c ****       }
 971:D:/fchai/work/i-cube/I-CUBE-HUAWEI/Drivers/BSP/IKS01A3\iks01a3_motion_sensors_ex.c ****       break;
 972:D:/fchai/work/i-cube/I-CUBE-HUAWEI/Drivers/BSP/IKS01A3\iks01a3_motion_sensors_ex.c **** #endif
 973:D:/fchai/work/i-cube/I-CUBE-HUAWEI/Drivers/BSP/IKS01A3\iks01a3_motion_sensors_ex.c **** 
 974:D:/fchai/work/i-cube/I-CUBE-HUAWEI/Drivers/BSP/IKS01A3\iks01a3_motion_sensors_ex.c **** #if (USE_IKS01A3_MOTION_SENSOR_LSM6DSOX_0 == 1)
 975:D:/fchai/work/i-cube/I-CUBE-HUAWEI/Drivers/BSP/IKS01A3\iks01a3_motion_sensors_ex.c ****     case IKS01A3_LSM6DSOX_0:
 976:D:/fchai/work/i-cube/I-CUBE-HUAWEI/Drivers/BSP/IKS01A3\iks01a3_motion_sensors_ex.c ****       if (LSM6DSOX_Write_Reg(MotionCompObj[Instance], Reg, Data) != BSP_ERROR_NONE)
 977:D:/fchai/work/i-cube/I-CUBE-HUAWEI/Drivers/BSP/IKS01A3\iks01a3_motion_sensors_ex.c ****       {
ARM GAS  T:\msys\tmp\ccuiVBP3.s 			page 24


 978:D:/fchai/work/i-cube/I-CUBE-HUAWEI/Drivers/BSP/IKS01A3\iks01a3_motion_sensors_ex.c ****         ret = BSP_ERROR_COMPONENT_FAILURE;
 979:D:/fchai/work/i-cube/I-CUBE-HUAWEI/Drivers/BSP/IKS01A3\iks01a3_motion_sensors_ex.c ****       }
 980:D:/fchai/work/i-cube/I-CUBE-HUAWEI/Drivers/BSP/IKS01A3\iks01a3_motion_sensors_ex.c ****       else
 981:D:/fchai/work/i-cube/I-CUBE-HUAWEI/Drivers/BSP/IKS01A3\iks01a3_motion_sensors_ex.c ****       {
 982:D:/fchai/work/i-cube/I-CUBE-HUAWEI/Drivers/BSP/IKS01A3\iks01a3_motion_sensors_ex.c ****         ret = BSP_ERROR_NONE;
 983:D:/fchai/work/i-cube/I-CUBE-HUAWEI/Drivers/BSP/IKS01A3\iks01a3_motion_sensors_ex.c ****       }
 984:D:/fchai/work/i-cube/I-CUBE-HUAWEI/Drivers/BSP/IKS01A3\iks01a3_motion_sensors_ex.c ****       break;
 985:D:/fchai/work/i-cube/I-CUBE-HUAWEI/Drivers/BSP/IKS01A3\iks01a3_motion_sensors_ex.c **** #endif
 986:D:/fchai/work/i-cube/I-CUBE-HUAWEI/Drivers/BSP/IKS01A3\iks01a3_motion_sensors_ex.c **** 
 987:D:/fchai/work/i-cube/I-CUBE-HUAWEI/Drivers/BSP/IKS01A3\iks01a3_motion_sensors_ex.c **** #if (USE_IKS01A3_MOTION_SENSOR_AIS2DW12_0 == 1)
 988:D:/fchai/work/i-cube/I-CUBE-HUAWEI/Drivers/BSP/IKS01A3\iks01a3_motion_sensors_ex.c ****     case IKS01A3_AIS2DW12_0:
 989:D:/fchai/work/i-cube/I-CUBE-HUAWEI/Drivers/BSP/IKS01A3\iks01a3_motion_sensors_ex.c ****       if (AIS2DW12_Write_Reg(MotionCompObj[Instance], Reg, Data) != BSP_ERROR_NONE)
 990:D:/fchai/work/i-cube/I-CUBE-HUAWEI/Drivers/BSP/IKS01A3\iks01a3_motion_sensors_ex.c ****       {
 991:D:/fchai/work/i-cube/I-CUBE-HUAWEI/Drivers/BSP/IKS01A3\iks01a3_motion_sensors_ex.c ****         ret = BSP_ERROR_COMPONENT_FAILURE;
 992:D:/fchai/work/i-cube/I-CUBE-HUAWEI/Drivers/BSP/IKS01A3\iks01a3_motion_sensors_ex.c ****       }
 993:D:/fchai/work/i-cube/I-CUBE-HUAWEI/Drivers/BSP/IKS01A3\iks01a3_motion_sensors_ex.c ****       else
 994:D:/fchai/work/i-cube/I-CUBE-HUAWEI/Drivers/BSP/IKS01A3\iks01a3_motion_sensors_ex.c ****       {
 995:D:/fchai/work/i-cube/I-CUBE-HUAWEI/Drivers/BSP/IKS01A3\iks01a3_motion_sensors_ex.c ****         ret = BSP_ERROR_NONE;
 996:D:/fchai/work/i-cube/I-CUBE-HUAWEI/Drivers/BSP/IKS01A3\iks01a3_motion_sensors_ex.c ****       }
 997:D:/fchai/work/i-cube/I-CUBE-HUAWEI/Drivers/BSP/IKS01A3\iks01a3_motion_sensors_ex.c ****       break;
 998:D:/fchai/work/i-cube/I-CUBE-HUAWEI/Drivers/BSP/IKS01A3\iks01a3_motion_sensors_ex.c **** #endif
 999:D:/fchai/work/i-cube/I-CUBE-HUAWEI/Drivers/BSP/IKS01A3\iks01a3_motion_sensors_ex.c **** 
1000:D:/fchai/work/i-cube/I-CUBE-HUAWEI/Drivers/BSP/IKS01A3\iks01a3_motion_sensors_ex.c **** #if (USE_IKS01A3_MOTION_SENSOR_LIS3MDL_0 == 1)
1001:D:/fchai/work/i-cube/I-CUBE-HUAWEI/Drivers/BSP/IKS01A3\iks01a3_motion_sensors_ex.c ****     case IKS01A3_LIS3MDL_0:
1002:D:/fchai/work/i-cube/I-CUBE-HUAWEI/Drivers/BSP/IKS01A3\iks01a3_motion_sensors_ex.c ****       if (LIS3MDL_Write_Reg(MotionCompObj[Instance], Reg, Data) != BSP_ERROR_NONE)
1003:D:/fchai/work/i-cube/I-CUBE-HUAWEI/Drivers/BSP/IKS01A3\iks01a3_motion_sensors_ex.c ****       {
1004:D:/fchai/work/i-cube/I-CUBE-HUAWEI/Drivers/BSP/IKS01A3\iks01a3_motion_sensors_ex.c ****         ret = BSP_ERROR_COMPONENT_FAILURE;
1005:D:/fchai/work/i-cube/I-CUBE-HUAWEI/Drivers/BSP/IKS01A3\iks01a3_motion_sensors_ex.c ****       }
1006:D:/fchai/work/i-cube/I-CUBE-HUAWEI/Drivers/BSP/IKS01A3\iks01a3_motion_sensors_ex.c ****       else
1007:D:/fchai/work/i-cube/I-CUBE-HUAWEI/Drivers/BSP/IKS01A3\iks01a3_motion_sensors_ex.c ****       {
1008:D:/fchai/work/i-cube/I-CUBE-HUAWEI/Drivers/BSP/IKS01A3\iks01a3_motion_sensors_ex.c ****         ret = BSP_ERROR_NONE;
1009:D:/fchai/work/i-cube/I-CUBE-HUAWEI/Drivers/BSP/IKS01A3\iks01a3_motion_sensors_ex.c ****       }
1010:D:/fchai/work/i-cube/I-CUBE-HUAWEI/Drivers/BSP/IKS01A3\iks01a3_motion_sensors_ex.c ****       break;
1011:D:/fchai/work/i-cube/I-CUBE-HUAWEI/Drivers/BSP/IKS01A3\iks01a3_motion_sensors_ex.c **** #endif
1012:D:/fchai/work/i-cube/I-CUBE-HUAWEI/Drivers/BSP/IKS01A3\iks01a3_motion_sensors_ex.c **** 
1013:D:/fchai/work/i-cube/I-CUBE-HUAWEI/Drivers/BSP/IKS01A3\iks01a3_motion_sensors_ex.c **** #if (USE_IKS01A3_MOTION_SENSOR_LSM6DSR_0 == 1)
1014:D:/fchai/work/i-cube/I-CUBE-HUAWEI/Drivers/BSP/IKS01A3\iks01a3_motion_sensors_ex.c ****     case IKS01A3_LSM6DSR_0:
1015:D:/fchai/work/i-cube/I-CUBE-HUAWEI/Drivers/BSP/IKS01A3\iks01a3_motion_sensors_ex.c ****       if (LSM6DSR_Write_Reg(MotionCompObj[Instance], Reg, Data) != BSP_ERROR_NONE)
1016:D:/fchai/work/i-cube/I-CUBE-HUAWEI/Drivers/BSP/IKS01A3\iks01a3_motion_sensors_ex.c ****       {
1017:D:/fchai/work/i-cube/I-CUBE-HUAWEI/Drivers/BSP/IKS01A3\iks01a3_motion_sensors_ex.c ****         ret = BSP_ERROR_COMPONENT_FAILURE;
1018:D:/fchai/work/i-cube/I-CUBE-HUAWEI/Drivers/BSP/IKS01A3\iks01a3_motion_sensors_ex.c ****       }
1019:D:/fchai/work/i-cube/I-CUBE-HUAWEI/Drivers/BSP/IKS01A3\iks01a3_motion_sensors_ex.c ****       else
1020:D:/fchai/work/i-cube/I-CUBE-HUAWEI/Drivers/BSP/IKS01A3\iks01a3_motion_sensors_ex.c ****       {
1021:D:/fchai/work/i-cube/I-CUBE-HUAWEI/Drivers/BSP/IKS01A3\iks01a3_motion_sensors_ex.c ****         ret = BSP_ERROR_NONE;
1022:D:/fchai/work/i-cube/I-CUBE-HUAWEI/Drivers/BSP/IKS01A3\iks01a3_motion_sensors_ex.c ****       }
1023:D:/fchai/work/i-cube/I-CUBE-HUAWEI/Drivers/BSP/IKS01A3\iks01a3_motion_sensors_ex.c ****       break;
1024:D:/fchai/work/i-cube/I-CUBE-HUAWEI/Drivers/BSP/IKS01A3\iks01a3_motion_sensors_ex.c **** #endif
1025:D:/fchai/work/i-cube/I-CUBE-HUAWEI/Drivers/BSP/IKS01A3\iks01a3_motion_sensors_ex.c **** 
1026:D:/fchai/work/i-cube/I-CUBE-HUAWEI/Drivers/BSP/IKS01A3\iks01a3_motion_sensors_ex.c **** #if (USE_IKS01A3_MOTION_SENSOR_A3G4250D_0 == 1)
1027:D:/fchai/work/i-cube/I-CUBE-HUAWEI/Drivers/BSP/IKS01A3\iks01a3_motion_sensors_ex.c ****     case IKS01A3_A3G4250D_0:
1028:D:/fchai/work/i-cube/I-CUBE-HUAWEI/Drivers/BSP/IKS01A3\iks01a3_motion_sensors_ex.c ****       if (A3G4250D_Write_Reg(MotionCompObj[Instance], Reg, Data) != BSP_ERROR_NONE)
1029:D:/fchai/work/i-cube/I-CUBE-HUAWEI/Drivers/BSP/IKS01A3\iks01a3_motion_sensors_ex.c ****       {
1030:D:/fchai/work/i-cube/I-CUBE-HUAWEI/Drivers/BSP/IKS01A3\iks01a3_motion_sensors_ex.c ****         ret = BSP_ERROR_COMPONENT_FAILURE;
1031:D:/fchai/work/i-cube/I-CUBE-HUAWEI/Drivers/BSP/IKS01A3\iks01a3_motion_sensors_ex.c ****       }
1032:D:/fchai/work/i-cube/I-CUBE-HUAWEI/Drivers/BSP/IKS01A3\iks01a3_motion_sensors_ex.c ****       else
1033:D:/fchai/work/i-cube/I-CUBE-HUAWEI/Drivers/BSP/IKS01A3\iks01a3_motion_sensors_ex.c ****       {
1034:D:/fchai/work/i-cube/I-CUBE-HUAWEI/Drivers/BSP/IKS01A3\iks01a3_motion_sensors_ex.c ****         ret = BSP_ERROR_NONE;
ARM GAS  T:\msys\tmp\ccuiVBP3.s 			page 25


1035:D:/fchai/work/i-cube/I-CUBE-HUAWEI/Drivers/BSP/IKS01A3\iks01a3_motion_sensors_ex.c ****       }
1036:D:/fchai/work/i-cube/I-CUBE-HUAWEI/Drivers/BSP/IKS01A3\iks01a3_motion_sensors_ex.c ****       break;
1037:D:/fchai/work/i-cube/I-CUBE-HUAWEI/Drivers/BSP/IKS01A3\iks01a3_motion_sensors_ex.c **** #endif
1038:D:/fchai/work/i-cube/I-CUBE-HUAWEI/Drivers/BSP/IKS01A3\iks01a3_motion_sensors_ex.c **** 
1039:D:/fchai/work/i-cube/I-CUBE-HUAWEI/Drivers/BSP/IKS01A3\iks01a3_motion_sensors_ex.c **** #if (USE_IKS01A3_MOTION_SENSOR_AIS328DQ_0 == 1)
1040:D:/fchai/work/i-cube/I-CUBE-HUAWEI/Drivers/BSP/IKS01A3\iks01a3_motion_sensors_ex.c ****     case IKS01A3_AIS328DQ_0:
1041:D:/fchai/work/i-cube/I-CUBE-HUAWEI/Drivers/BSP/IKS01A3\iks01a3_motion_sensors_ex.c ****       if (AIS328DQ_Write_Reg(MotionCompObj[Instance], Reg, Data) != BSP_ERROR_NONE)
1042:D:/fchai/work/i-cube/I-CUBE-HUAWEI/Drivers/BSP/IKS01A3\iks01a3_motion_sensors_ex.c ****       {
1043:D:/fchai/work/i-cube/I-CUBE-HUAWEI/Drivers/BSP/IKS01A3\iks01a3_motion_sensors_ex.c ****         ret = BSP_ERROR_COMPONENT_FAILURE;
1044:D:/fchai/work/i-cube/I-CUBE-HUAWEI/Drivers/BSP/IKS01A3\iks01a3_motion_sensors_ex.c ****       }
1045:D:/fchai/work/i-cube/I-CUBE-HUAWEI/Drivers/BSP/IKS01A3\iks01a3_motion_sensors_ex.c ****       else
1046:D:/fchai/work/i-cube/I-CUBE-HUAWEI/Drivers/BSP/IKS01A3\iks01a3_motion_sensors_ex.c ****       {
1047:D:/fchai/work/i-cube/I-CUBE-HUAWEI/Drivers/BSP/IKS01A3\iks01a3_motion_sensors_ex.c ****         ret = BSP_ERROR_NONE;
1048:D:/fchai/work/i-cube/I-CUBE-HUAWEI/Drivers/BSP/IKS01A3\iks01a3_motion_sensors_ex.c ****       }
1049:D:/fchai/work/i-cube/I-CUBE-HUAWEI/Drivers/BSP/IKS01A3\iks01a3_motion_sensors_ex.c ****       break;
1050:D:/fchai/work/i-cube/I-CUBE-HUAWEI/Drivers/BSP/IKS01A3\iks01a3_motion_sensors_ex.c **** #endif
1051:D:/fchai/work/i-cube/I-CUBE-HUAWEI/Drivers/BSP/IKS01A3\iks01a3_motion_sensors_ex.c **** 
1052:D:/fchai/work/i-cube/I-CUBE-HUAWEI/Drivers/BSP/IKS01A3\iks01a3_motion_sensors_ex.c **** #if (USE_IKS01A3_MOTION_SENSOR_AIS3624DQ_0 == 1)
1053:D:/fchai/work/i-cube/I-CUBE-HUAWEI/Drivers/BSP/IKS01A3\iks01a3_motion_sensors_ex.c ****     case IKS01A3_AIS3624DQ_0:
1054:D:/fchai/work/i-cube/I-CUBE-HUAWEI/Drivers/BSP/IKS01A3\iks01a3_motion_sensors_ex.c ****       if (AIS3624DQ_Write_Reg(MotionCompObj[Instance], Reg, Data) != BSP_ERROR_NONE)
1055:D:/fchai/work/i-cube/I-CUBE-HUAWEI/Drivers/BSP/IKS01A3\iks01a3_motion_sensors_ex.c ****       {
1056:D:/fchai/work/i-cube/I-CUBE-HUAWEI/Drivers/BSP/IKS01A3\iks01a3_motion_sensors_ex.c ****         ret = BSP_ERROR_COMPONENT_FAILURE;
1057:D:/fchai/work/i-cube/I-CUBE-HUAWEI/Drivers/BSP/IKS01A3\iks01a3_motion_sensors_ex.c ****       }
1058:D:/fchai/work/i-cube/I-CUBE-HUAWEI/Drivers/BSP/IKS01A3\iks01a3_motion_sensors_ex.c ****       else
1059:D:/fchai/work/i-cube/I-CUBE-HUAWEI/Drivers/BSP/IKS01A3\iks01a3_motion_sensors_ex.c ****       {
1060:D:/fchai/work/i-cube/I-CUBE-HUAWEI/Drivers/BSP/IKS01A3\iks01a3_motion_sensors_ex.c ****         ret = BSP_ERROR_NONE;
1061:D:/fchai/work/i-cube/I-CUBE-HUAWEI/Drivers/BSP/IKS01A3\iks01a3_motion_sensors_ex.c ****       }
1062:D:/fchai/work/i-cube/I-CUBE-HUAWEI/Drivers/BSP/IKS01A3\iks01a3_motion_sensors_ex.c ****       break;
1063:D:/fchai/work/i-cube/I-CUBE-HUAWEI/Drivers/BSP/IKS01A3\iks01a3_motion_sensors_ex.c **** #endif
1064:D:/fchai/work/i-cube/I-CUBE-HUAWEI/Drivers/BSP/IKS01A3\iks01a3_motion_sensors_ex.c **** 
1065:D:/fchai/work/i-cube/I-CUBE-HUAWEI/Drivers/BSP/IKS01A3\iks01a3_motion_sensors_ex.c **** #if (USE_IKS01A3_MOTION_SENSOR_H3LIS331DL_0 == 1)
1066:D:/fchai/work/i-cube/I-CUBE-HUAWEI/Drivers/BSP/IKS01A3\iks01a3_motion_sensors_ex.c ****     case IKS01A3_H3LIS331DL_0:
1067:D:/fchai/work/i-cube/I-CUBE-HUAWEI/Drivers/BSP/IKS01A3\iks01a3_motion_sensors_ex.c ****       if (H3LIS331DL_Write_Reg(MotionCompObj[Instance], Reg, Data) != BSP_ERROR_NONE)
1068:D:/fchai/work/i-cube/I-CUBE-HUAWEI/Drivers/BSP/IKS01A3\iks01a3_motion_sensors_ex.c ****       {
1069:D:/fchai/work/i-cube/I-CUBE-HUAWEI/Drivers/BSP/IKS01A3\iks01a3_motion_sensors_ex.c ****         ret = BSP_ERROR_COMPONENT_FAILURE;
1070:D:/fchai/work/i-cube/I-CUBE-HUAWEI/Drivers/BSP/IKS01A3\iks01a3_motion_sensors_ex.c ****       }
1071:D:/fchai/work/i-cube/I-CUBE-HUAWEI/Drivers/BSP/IKS01A3\iks01a3_motion_sensors_ex.c ****       else
1072:D:/fchai/work/i-cube/I-CUBE-HUAWEI/Drivers/BSP/IKS01A3\iks01a3_motion_sensors_ex.c ****       {
1073:D:/fchai/work/i-cube/I-CUBE-HUAWEI/Drivers/BSP/IKS01A3\iks01a3_motion_sensors_ex.c ****         ret = BSP_ERROR_NONE;
1074:D:/fchai/work/i-cube/I-CUBE-HUAWEI/Drivers/BSP/IKS01A3\iks01a3_motion_sensors_ex.c ****       }
1075:D:/fchai/work/i-cube/I-CUBE-HUAWEI/Drivers/BSP/IKS01A3\iks01a3_motion_sensors_ex.c ****       break;
1076:D:/fchai/work/i-cube/I-CUBE-HUAWEI/Drivers/BSP/IKS01A3\iks01a3_motion_sensors_ex.c **** #endif
1077:D:/fchai/work/i-cube/I-CUBE-HUAWEI/Drivers/BSP/IKS01A3\iks01a3_motion_sensors_ex.c **** 
1078:D:/fchai/work/i-cube/I-CUBE-HUAWEI/Drivers/BSP/IKS01A3\iks01a3_motion_sensors_ex.c **** #if (USE_IKS01A3_MOTION_SENSOR_LSM6DSRX_0 == 1)
1079:D:/fchai/work/i-cube/I-CUBE-HUAWEI/Drivers/BSP/IKS01A3\iks01a3_motion_sensors_ex.c ****     case IKS01A3_LSM6DSRX_0:
1080:D:/fchai/work/i-cube/I-CUBE-HUAWEI/Drivers/BSP/IKS01A3\iks01a3_motion_sensors_ex.c ****       if (LSM6DSRX_Write_Reg(MotionCompObj[Instance], Reg, Data) != BSP_ERROR_NONE)
1081:D:/fchai/work/i-cube/I-CUBE-HUAWEI/Drivers/BSP/IKS01A3\iks01a3_motion_sensors_ex.c ****       {
1082:D:/fchai/work/i-cube/I-CUBE-HUAWEI/Drivers/BSP/IKS01A3\iks01a3_motion_sensors_ex.c ****         ret = BSP_ERROR_COMPONENT_FAILURE;
1083:D:/fchai/work/i-cube/I-CUBE-HUAWEI/Drivers/BSP/IKS01A3\iks01a3_motion_sensors_ex.c ****       }
1084:D:/fchai/work/i-cube/I-CUBE-HUAWEI/Drivers/BSP/IKS01A3\iks01a3_motion_sensors_ex.c ****       else
1085:D:/fchai/work/i-cube/I-CUBE-HUAWEI/Drivers/BSP/IKS01A3\iks01a3_motion_sensors_ex.c ****       {
1086:D:/fchai/work/i-cube/I-CUBE-HUAWEI/Drivers/BSP/IKS01A3\iks01a3_motion_sensors_ex.c ****         ret = BSP_ERROR_NONE;
1087:D:/fchai/work/i-cube/I-CUBE-HUAWEI/Drivers/BSP/IKS01A3\iks01a3_motion_sensors_ex.c ****       }
1088:D:/fchai/work/i-cube/I-CUBE-HUAWEI/Drivers/BSP/IKS01A3\iks01a3_motion_sensors_ex.c ****       break;
1089:D:/fchai/work/i-cube/I-CUBE-HUAWEI/Drivers/BSP/IKS01A3\iks01a3_motion_sensors_ex.c **** #endif
1090:D:/fchai/work/i-cube/I-CUBE-HUAWEI/Drivers/BSP/IKS01A3\iks01a3_motion_sensors_ex.c **** 
1091:D:/fchai/work/i-cube/I-CUBE-HUAWEI/Drivers/BSP/IKS01A3\iks01a3_motion_sensors_ex.c **** #if (USE_IKS01A3_MOTION_SENSOR_ISM330DHCX_0 == 1)
ARM GAS  T:\msys\tmp\ccuiVBP3.s 			page 26


1092:D:/fchai/work/i-cube/I-CUBE-HUAWEI/Drivers/BSP/IKS01A3\iks01a3_motion_sensors_ex.c ****     case IKS01A3_ISM330DHCX_0:
1093:D:/fchai/work/i-cube/I-CUBE-HUAWEI/Drivers/BSP/IKS01A3\iks01a3_motion_sensors_ex.c ****       if (ISM330DHCX_Write_Reg(MotionCompObj[Instance], Reg, Data) != BSP_ERROR_NONE)
1094:D:/fchai/work/i-cube/I-CUBE-HUAWEI/Drivers/BSP/IKS01A3\iks01a3_motion_sensors_ex.c ****       {
1095:D:/fchai/work/i-cube/I-CUBE-HUAWEI/Drivers/BSP/IKS01A3\iks01a3_motion_sensors_ex.c ****         ret = BSP_ERROR_COMPONENT_FAILURE;
1096:D:/fchai/work/i-cube/I-CUBE-HUAWEI/Drivers/BSP/IKS01A3\iks01a3_motion_sensors_ex.c ****       }
1097:D:/fchai/work/i-cube/I-CUBE-HUAWEI/Drivers/BSP/IKS01A3\iks01a3_motion_sensors_ex.c ****       else
1098:D:/fchai/work/i-cube/I-CUBE-HUAWEI/Drivers/BSP/IKS01A3\iks01a3_motion_sensors_ex.c ****       {
1099:D:/fchai/work/i-cube/I-CUBE-HUAWEI/Drivers/BSP/IKS01A3\iks01a3_motion_sensors_ex.c ****         ret = BSP_ERROR_NONE;
1100:D:/fchai/work/i-cube/I-CUBE-HUAWEI/Drivers/BSP/IKS01A3\iks01a3_motion_sensors_ex.c ****       }
1101:D:/fchai/work/i-cube/I-CUBE-HUAWEI/Drivers/BSP/IKS01A3\iks01a3_motion_sensors_ex.c ****       break;
1102:D:/fchai/work/i-cube/I-CUBE-HUAWEI/Drivers/BSP/IKS01A3\iks01a3_motion_sensors_ex.c **** #endif
1103:D:/fchai/work/i-cube/I-CUBE-HUAWEI/Drivers/BSP/IKS01A3\iks01a3_motion_sensors_ex.c **** 
1104:D:/fchai/work/i-cube/I-CUBE-HUAWEI/Drivers/BSP/IKS01A3\iks01a3_motion_sensors_ex.c ****     default:
1105:D:/fchai/work/i-cube/I-CUBE-HUAWEI/Drivers/BSP/IKS01A3\iks01a3_motion_sensors_ex.c ****       ret = BSP_ERROR_WRONG_PARAM;
1106:D:/fchai/work/i-cube/I-CUBE-HUAWEI/Drivers/BSP/IKS01A3\iks01a3_motion_sensors_ex.c ****       break;
1107:D:/fchai/work/i-cube/I-CUBE-HUAWEI/Drivers/BSP/IKS01A3\iks01a3_motion_sensors_ex.c ****   }
1108:D:/fchai/work/i-cube/I-CUBE-HUAWEI/Drivers/BSP/IKS01A3\iks01a3_motion_sensors_ex.c **** 
1109:D:/fchai/work/i-cube/I-CUBE-HUAWEI/Drivers/BSP/IKS01A3\iks01a3_motion_sensors_ex.c ****   return ret;
 285              		.loc 1 1109 3 is_stmt 1 view .LVU75
1110:D:/fchai/work/i-cube/I-CUBE-HUAWEI/Drivers/BSP/IKS01A3\iks01a3_motion_sensors_ex.c **** }
 286              		.loc 1 1110 1 is_stmt 0 view .LVU76
 287 0010 08BD     		pop	{r3, pc}
 288              	.LVL35:
 289              	.L42:
 859:D:/fchai/work/i-cube/I-CUBE-HUAWEI/Drivers/BSP/IKS01A3\iks01a3_motion_sensors_ex.c ****       {
 290              		.loc 1 859 7 is_stmt 1 view .LVU77
 859:D:/fchai/work/i-cube/I-CUBE-HUAWEI/Drivers/BSP/IKS01A3\iks01a3_motion_sensors_ex.c ****       {
 291              		.loc 1 859 43 is_stmt 0 view .LVU78
 292 0012 0B4B     		ldr	r3, .L53
 859:D:/fchai/work/i-cube/I-CUBE-HUAWEI/Drivers/BSP/IKS01A3\iks01a3_motion_sensors_ex.c ****       {
 293              		.loc 1 859 11 view .LVU79
 294 0014 5868     		ldr	r0, [r3, #4]
 295              	.LVL36:
 859:D:/fchai/work/i-cube/I-CUBE-HUAWEI/Drivers/BSP/IKS01A3\iks01a3_motion_sensors_ex.c ****       {
 296              		.loc 1 859 11 view .LVU80
 297 0016 FFF7FEFF 		bl	LIS2DW12_Write_Reg
 298              	.LVL37:
 859:D:/fchai/work/i-cube/I-CUBE-HUAWEI/Drivers/BSP/IKS01A3\iks01a3_motion_sensors_ex.c ****       {
 299              		.loc 1 859 10 view .LVU81
 300 001a 38B9     		cbnz	r0, .L46
 301              	.L45:
 852:D:/fchai/work/i-cube/I-CUBE-HUAWEI/Drivers/BSP/IKS01A3\iks01a3_motion_sensors_ex.c ****       }
 302              		.loc 1 852 9 is_stmt 1 view .LVU82
 303              	.LVL38:
 852:D:/fchai/work/i-cube/I-CUBE-HUAWEI/Drivers/BSP/IKS01A3\iks01a3_motion_sensors_ex.c ****       }
 304              		.loc 1 852 13 is_stmt 0 view .LVU83
 305 001c 0020     		movs	r0, #0
 306              		.loc 1 1110 1 view .LVU84
 307 001e 08BD     		pop	{r3, pc}
 308              	.LVL39:
 309              	.L52:
 846:D:/fchai/work/i-cube/I-CUBE-HUAWEI/Drivers/BSP/IKS01A3\iks01a3_motion_sensors_ex.c ****       {
 310              		.loc 1 846 7 is_stmt 1 view .LVU85
 846:D:/fchai/work/i-cube/I-CUBE-HUAWEI/Drivers/BSP/IKS01A3\iks01a3_motion_sensors_ex.c ****       {
 311              		.loc 1 846 42 is_stmt 0 view .LVU86
 312 0020 074B     		ldr	r3, .L53
 846:D:/fchai/work/i-cube/I-CUBE-HUAWEI/Drivers/BSP/IKS01A3\iks01a3_motion_sensors_ex.c ****       {
ARM GAS  T:\msys\tmp\ccuiVBP3.s 			page 27


 313              		.loc 1 846 11 view .LVU87
 314 0022 1868     		ldr	r0, [r3]
 315              	.LVL40:
 846:D:/fchai/work/i-cube/I-CUBE-HUAWEI/Drivers/BSP/IKS01A3\iks01a3_motion_sensors_ex.c ****       {
 316              		.loc 1 846 11 view .LVU88
 317 0024 FFF7FEFF 		bl	LSM6DSO_Write_Reg
 318              	.LVL41:
 846:D:/fchai/work/i-cube/I-CUBE-HUAWEI/Drivers/BSP/IKS01A3\iks01a3_motion_sensors_ex.c ****       {
 319              		.loc 1 846 10 view .LVU89
 320 0028 0028     		cmp	r0, #0
 321 002a F7D0     		beq	.L45
 322              	.L46:
 848:D:/fchai/work/i-cube/I-CUBE-HUAWEI/Drivers/BSP/IKS01A3\iks01a3_motion_sensors_ex.c ****       }
 323              		.loc 1 848 13 view .LVU90
 324 002c 6FF00400 		mvn	r0, #4
 325              		.loc 1 1110 1 view .LVU91
 326 0030 08BD     		pop	{r3, pc}
 327              	.LVL42:
 328              	.L43:
 872:D:/fchai/work/i-cube/I-CUBE-HUAWEI/Drivers/BSP/IKS01A3\iks01a3_motion_sensors_ex.c ****       {
 329              		.loc 1 872 7 is_stmt 1 view .LVU92
 872:D:/fchai/work/i-cube/I-CUBE-HUAWEI/Drivers/BSP/IKS01A3\iks01a3_motion_sensors_ex.c ****       {
 330              		.loc 1 872 42 is_stmt 0 view .LVU93
 331 0032 034B     		ldr	r3, .L53
 872:D:/fchai/work/i-cube/I-CUBE-HUAWEI/Drivers/BSP/IKS01A3\iks01a3_motion_sensors_ex.c ****       {
 332              		.loc 1 872 11 view .LVU94
 333 0034 9868     		ldr	r0, [r3, #8]
 334              	.LVL43:
 872:D:/fchai/work/i-cube/I-CUBE-HUAWEI/Drivers/BSP/IKS01A3\iks01a3_motion_sensors_ex.c ****       {
 335              		.loc 1 872 11 view .LVU95
 336 0036 FFF7FEFF 		bl	LIS2MDL_Write_Reg
 337              	.LVL44:
 872:D:/fchai/work/i-cube/I-CUBE-HUAWEI/Drivers/BSP/IKS01A3\iks01a3_motion_sensors_ex.c ****       {
 338              		.loc 1 872 10 view .LVU96
 339 003a 0028     		cmp	r0, #0
 340 003c EED0     		beq	.L45
 341 003e F5E7     		b	.L46
 342              	.L54:
 343              		.align	2
 344              	.L53:
 345 0040 00000000 		.word	MotionCompObj
 346              		.cfi_endproc
 347              	.LFE125:
 349              		.section	.text.IKS01A3_MOTION_SENSOR_Get_Event_Status,"ax",%progbits
 350              		.align	1
 351              		.p2align 2,,3
 352              		.global	IKS01A3_MOTION_SENSOR_Get_Event_Status
 353              		.syntax unified
 354              		.thumb
 355              		.thumb_func
 356              		.fpu fpv4-sp-d16
 358              	IKS01A3_MOTION_SENSOR_Get_Event_Status:
 359              	.LVL45:
 360              	.LFB126:
1111:D:/fchai/work/i-cube/I-CUBE-HUAWEI/Drivers/BSP/IKS01A3\iks01a3_motion_sensors_ex.c **** 
1112:D:/fchai/work/i-cube/I-CUBE-HUAWEI/Drivers/BSP/IKS01A3\iks01a3_motion_sensors_ex.c **** /**
1113:D:/fchai/work/i-cube/I-CUBE-HUAWEI/Drivers/BSP/IKS01A3\iks01a3_motion_sensors_ex.c ****  * @brief  Get the status of all hardware events (available only for LSM6DSO sensor)
ARM GAS  T:\msys\tmp\ccuiVBP3.s 			page 28


1114:D:/fchai/work/i-cube/I-CUBE-HUAWEI/Drivers/BSP/IKS01A3\iks01a3_motion_sensors_ex.c ****  * @param  Instance the device instance
1115:D:/fchai/work/i-cube/I-CUBE-HUAWEI/Drivers/BSP/IKS01A3\iks01a3_motion_sensors_ex.c ****  * @param  Status the pointer to the status of all hardware events
1116:D:/fchai/work/i-cube/I-CUBE-HUAWEI/Drivers/BSP/IKS01A3\iks01a3_motion_sensors_ex.c ****  * @retval BSP status
1117:D:/fchai/work/i-cube/I-CUBE-HUAWEI/Drivers/BSP/IKS01A3\iks01a3_motion_sensors_ex.c ****  */
1118:D:/fchai/work/i-cube/I-CUBE-HUAWEI/Drivers/BSP/IKS01A3\iks01a3_motion_sensors_ex.c **** int32_t IKS01A3_MOTION_SENSOR_Get_Event_Status(uint32_t Instance, IKS01A3_MOTION_SENSOR_Event_Statu
1119:D:/fchai/work/i-cube/I-CUBE-HUAWEI/Drivers/BSP/IKS01A3\iks01a3_motion_sensors_ex.c **** {
 361              		.loc 1 1119 1 is_stmt 1 view -0
 362              		.cfi_startproc
 363              		@ args = 0, pretend = 0, frame = 0
 364              		@ frame_needed = 0, uses_anonymous_args = 0
1120:D:/fchai/work/i-cube/I-CUBE-HUAWEI/Drivers/BSP/IKS01A3\iks01a3_motion_sensors_ex.c ****   int32_t ret;
 365              		.loc 1 1120 3 view .LVU98
1121:D:/fchai/work/i-cube/I-CUBE-HUAWEI/Drivers/BSP/IKS01A3\iks01a3_motion_sensors_ex.c **** 
1122:D:/fchai/work/i-cube/I-CUBE-HUAWEI/Drivers/BSP/IKS01A3\iks01a3_motion_sensors_ex.c ****   switch (Instance)
 366              		.loc 1 1122 3 view .LVU99
1119:D:/fchai/work/i-cube/I-CUBE-HUAWEI/Drivers/BSP/IKS01A3\iks01a3_motion_sensors_ex.c ****   int32_t ret;
 367              		.loc 1 1119 1 is_stmt 0 view .LVU100
 368 0000 08B5     		push	{r3, lr}
 369              	.LCFI3:
 370              		.cfi_def_cfa_offset 8
 371              		.cfi_offset 3, -8
 372              		.cfi_offset 14, -4
 373              		.loc 1 1122 3 view .LVU101
 374 0002 58B1     		cbz	r0, .L56
 375 0004 0128     		cmp	r0, #1
 376 0006 06D1     		bne	.L65
1123:D:/fchai/work/i-cube/I-CUBE-HUAWEI/Drivers/BSP/IKS01A3\iks01a3_motion_sensors_ex.c ****   {
1124:D:/fchai/work/i-cube/I-CUBE-HUAWEI/Drivers/BSP/IKS01A3\iks01a3_motion_sensors_ex.c **** #if (USE_IKS01A3_MOTION_SENSOR_LSM6DSO_0 == 1)
1125:D:/fchai/work/i-cube/I-CUBE-HUAWEI/Drivers/BSP/IKS01A3\iks01a3_motion_sensors_ex.c ****     case IKS01A3_LSM6DSO_0:
1126:D:/fchai/work/i-cube/I-CUBE-HUAWEI/Drivers/BSP/IKS01A3\iks01a3_motion_sensors_ex.c ****       /* The second cast (void *) is added to bypass Misra R11.3 rule */
1127:D:/fchai/work/i-cube/I-CUBE-HUAWEI/Drivers/BSP/IKS01A3\iks01a3_motion_sensors_ex.c ****       if (LSM6DSO_ACC_Get_Event_Status(MotionCompObj[Instance], (LSM6DSO_Event_Status_t *)(void *)S
1128:D:/fchai/work/i-cube/I-CUBE-HUAWEI/Drivers/BSP/IKS01A3\iks01a3_motion_sensors_ex.c ****       {
1129:D:/fchai/work/i-cube/I-CUBE-HUAWEI/Drivers/BSP/IKS01A3\iks01a3_motion_sensors_ex.c ****         ret = BSP_ERROR_COMPONENT_FAILURE;
1130:D:/fchai/work/i-cube/I-CUBE-HUAWEI/Drivers/BSP/IKS01A3\iks01a3_motion_sensors_ex.c ****       }
1131:D:/fchai/work/i-cube/I-CUBE-HUAWEI/Drivers/BSP/IKS01A3\iks01a3_motion_sensors_ex.c ****       else
1132:D:/fchai/work/i-cube/I-CUBE-HUAWEI/Drivers/BSP/IKS01A3\iks01a3_motion_sensors_ex.c ****       {
1133:D:/fchai/work/i-cube/I-CUBE-HUAWEI/Drivers/BSP/IKS01A3\iks01a3_motion_sensors_ex.c ****         ret = BSP_ERROR_NONE;
1134:D:/fchai/work/i-cube/I-CUBE-HUAWEI/Drivers/BSP/IKS01A3\iks01a3_motion_sensors_ex.c ****       }
1135:D:/fchai/work/i-cube/I-CUBE-HUAWEI/Drivers/BSP/IKS01A3\iks01a3_motion_sensors_ex.c ****       break;
1136:D:/fchai/work/i-cube/I-CUBE-HUAWEI/Drivers/BSP/IKS01A3\iks01a3_motion_sensors_ex.c **** #endif
1137:D:/fchai/work/i-cube/I-CUBE-HUAWEI/Drivers/BSP/IKS01A3\iks01a3_motion_sensors_ex.c **** 
1138:D:/fchai/work/i-cube/I-CUBE-HUAWEI/Drivers/BSP/IKS01A3\iks01a3_motion_sensors_ex.c **** #if (USE_IKS01A3_MOTION_SENSOR_LIS2DW12_0 == 1)
1139:D:/fchai/work/i-cube/I-CUBE-HUAWEI/Drivers/BSP/IKS01A3\iks01a3_motion_sensors_ex.c ****     case IKS01A3_LIS2DW12_0:
1140:D:/fchai/work/i-cube/I-CUBE-HUAWEI/Drivers/BSP/IKS01A3\iks01a3_motion_sensors_ex.c ****       /* The second cast (void *) is added to bypass Misra R11.3 rule */
1141:D:/fchai/work/i-cube/I-CUBE-HUAWEI/Drivers/BSP/IKS01A3\iks01a3_motion_sensors_ex.c ****       if (LIS2DW12_ACC_Get_Event_Status(MotionCompObj[Instance], (LIS2DW12_Event_Status_t *)(void *
 377              		.loc 1 1141 7 is_stmt 1 view .LVU102
 378              		.loc 1 1141 54 is_stmt 0 view .LVU103
 379 0008 094B     		ldr	r3, .L66
 380              		.loc 1 1141 11 view .LVU104
 381 000a 5868     		ldr	r0, [r3, #4]
 382              	.LVL46:
 383              		.loc 1 1141 11 view .LVU105
 384 000c FFF7FEFF 		bl	LIS2DW12_ACC_Get_Event_Status
 385              	.LVL47:
 386              		.loc 1 1141 10 view .LVU106
 387 0010 50B9     		cbnz	r0, .L60
 388              	.L59:
ARM GAS  T:\msys\tmp\ccuiVBP3.s 			page 29


1133:D:/fchai/work/i-cube/I-CUBE-HUAWEI/Drivers/BSP/IKS01A3\iks01a3_motion_sensors_ex.c ****       }
 389              		.loc 1 1133 9 is_stmt 1 view .LVU107
 390              	.LVL48:
1133:D:/fchai/work/i-cube/I-CUBE-HUAWEI/Drivers/BSP/IKS01A3\iks01a3_motion_sensors_ex.c ****       }
 391              		.loc 1 1133 13 is_stmt 0 view .LVU108
 392 0012 0020     		movs	r0, #0
1142:D:/fchai/work/i-cube/I-CUBE-HUAWEI/Drivers/BSP/IKS01A3\iks01a3_motion_sensors_ex.c ****       {
1143:D:/fchai/work/i-cube/I-CUBE-HUAWEI/Drivers/BSP/IKS01A3\iks01a3_motion_sensors_ex.c ****         ret = BSP_ERROR_COMPONENT_FAILURE;
1144:D:/fchai/work/i-cube/I-CUBE-HUAWEI/Drivers/BSP/IKS01A3\iks01a3_motion_sensors_ex.c ****       }
1145:D:/fchai/work/i-cube/I-CUBE-HUAWEI/Drivers/BSP/IKS01A3\iks01a3_motion_sensors_ex.c ****       else
1146:D:/fchai/work/i-cube/I-CUBE-HUAWEI/Drivers/BSP/IKS01A3\iks01a3_motion_sensors_ex.c ****       {
1147:D:/fchai/work/i-cube/I-CUBE-HUAWEI/Drivers/BSP/IKS01A3\iks01a3_motion_sensors_ex.c ****         ret = BSP_ERROR_NONE;
1148:D:/fchai/work/i-cube/I-CUBE-HUAWEI/Drivers/BSP/IKS01A3\iks01a3_motion_sensors_ex.c ****       }
1149:D:/fchai/work/i-cube/I-CUBE-HUAWEI/Drivers/BSP/IKS01A3\iks01a3_motion_sensors_ex.c ****       break;
1150:D:/fchai/work/i-cube/I-CUBE-HUAWEI/Drivers/BSP/IKS01A3\iks01a3_motion_sensors_ex.c **** #endif
1151:D:/fchai/work/i-cube/I-CUBE-HUAWEI/Drivers/BSP/IKS01A3\iks01a3_motion_sensors_ex.c **** 
1152:D:/fchai/work/i-cube/I-CUBE-HUAWEI/Drivers/BSP/IKS01A3\iks01a3_motion_sensors_ex.c ****     default:
1153:D:/fchai/work/i-cube/I-CUBE-HUAWEI/Drivers/BSP/IKS01A3\iks01a3_motion_sensors_ex.c ****       ret = BSP_ERROR_WRONG_PARAM;
1154:D:/fchai/work/i-cube/I-CUBE-HUAWEI/Drivers/BSP/IKS01A3\iks01a3_motion_sensors_ex.c ****       break;
1155:D:/fchai/work/i-cube/I-CUBE-HUAWEI/Drivers/BSP/IKS01A3\iks01a3_motion_sensors_ex.c ****   }
1156:D:/fchai/work/i-cube/I-CUBE-HUAWEI/Drivers/BSP/IKS01A3\iks01a3_motion_sensors_ex.c **** 
1157:D:/fchai/work/i-cube/I-CUBE-HUAWEI/Drivers/BSP/IKS01A3\iks01a3_motion_sensors_ex.c ****   return ret;
1158:D:/fchai/work/i-cube/I-CUBE-HUAWEI/Drivers/BSP/IKS01A3\iks01a3_motion_sensors_ex.c **** }
 393              		.loc 1 1158 1 view .LVU109
 394 0014 08BD     		pop	{r3, pc}
 395              	.LVL49:
 396              	.L65:
1122:D:/fchai/work/i-cube/I-CUBE-HUAWEI/Drivers/BSP/IKS01A3\iks01a3_motion_sensors_ex.c ****   {
 397              		.loc 1 1122 3 view .LVU110
 398 0016 6FF00100 		mvn	r0, #1
 399              	.LVL50:
 400              		.loc 1 1158 1 view .LVU111
 401 001a 08BD     		pop	{r3, pc}
 402              	.LVL51:
 403              	.L56:
1127:D:/fchai/work/i-cube/I-CUBE-HUAWEI/Drivers/BSP/IKS01A3\iks01a3_motion_sensors_ex.c ****       {
 404              		.loc 1 1127 7 is_stmt 1 view .LVU112
1127:D:/fchai/work/i-cube/I-CUBE-HUAWEI/Drivers/BSP/IKS01A3\iks01a3_motion_sensors_ex.c ****       {
 405              		.loc 1 1127 53 is_stmt 0 view .LVU113
 406 001c 044B     		ldr	r3, .L66
1127:D:/fchai/work/i-cube/I-CUBE-HUAWEI/Drivers/BSP/IKS01A3\iks01a3_motion_sensors_ex.c ****       {
 407              		.loc 1 1127 11 view .LVU114
 408 001e 1868     		ldr	r0, [r3]
 409              	.LVL52:
1127:D:/fchai/work/i-cube/I-CUBE-HUAWEI/Drivers/BSP/IKS01A3\iks01a3_motion_sensors_ex.c ****       {
 410              		.loc 1 1127 11 view .LVU115
 411 0020 FFF7FEFF 		bl	LSM6DSO_ACC_Get_Event_Status
 412              	.LVL53:
1127:D:/fchai/work/i-cube/I-CUBE-HUAWEI/Drivers/BSP/IKS01A3\iks01a3_motion_sensors_ex.c ****       {
 413              		.loc 1 1127 10 view .LVU116
 414 0024 0028     		cmp	r0, #0
 415 0026 F4D0     		beq	.L59
 416              	.L60:
1129:D:/fchai/work/i-cube/I-CUBE-HUAWEI/Drivers/BSP/IKS01A3\iks01a3_motion_sensors_ex.c ****       }
 417              		.loc 1 1129 13 view .LVU117
 418 0028 6FF00400 		mvn	r0, #4
 419              		.loc 1 1158 1 view .LVU118
ARM GAS  T:\msys\tmp\ccuiVBP3.s 			page 30


 420 002c 08BD     		pop	{r3, pc}
 421              	.L67:
 422 002e 00BF     		.align	2
 423              	.L66:
 424 0030 00000000 		.word	MotionCompObj
 425              		.cfi_endproc
 426              	.LFE126:
 428              		.section	.text.IKS01A3_MOTION_SENSOR_Enable_Free_Fall_Detection,"ax",%progbits
 429              		.align	1
 430              		.p2align 2,,3
 431              		.global	IKS01A3_MOTION_SENSOR_Enable_Free_Fall_Detection
 432              		.syntax unified
 433              		.thumb
 434              		.thumb_func
 435              		.fpu fpv4-sp-d16
 437              	IKS01A3_MOTION_SENSOR_Enable_Free_Fall_Detection:
 438              	.LVL54:
 439              	.LFB127:
1159:D:/fchai/work/i-cube/I-CUBE-HUAWEI/Drivers/BSP/IKS01A3\iks01a3_motion_sensors_ex.c **** 
1160:D:/fchai/work/i-cube/I-CUBE-HUAWEI/Drivers/BSP/IKS01A3\iks01a3_motion_sensors_ex.c **** /**
1161:D:/fchai/work/i-cube/I-CUBE-HUAWEI/Drivers/BSP/IKS01A3\iks01a3_motion_sensors_ex.c ****  * @brief  Enable the free fall detection (available only for LSM6DSO sensor)
1162:D:/fchai/work/i-cube/I-CUBE-HUAWEI/Drivers/BSP/IKS01A3\iks01a3_motion_sensors_ex.c ****  * @param  Instance the device instance
1163:D:/fchai/work/i-cube/I-CUBE-HUAWEI/Drivers/BSP/IKS01A3\iks01a3_motion_sensors_ex.c ****  * @param  IntPin the interrupt pin to be used
1164:D:/fchai/work/i-cube/I-CUBE-HUAWEI/Drivers/BSP/IKS01A3\iks01a3_motion_sensors_ex.c ****  * @note   This function sets the LSM6DSO accelerometer ODR to 416Hz and the LSM6DSO accelerometer 
1165:D:/fchai/work/i-cube/I-CUBE-HUAWEI/Drivers/BSP/IKS01A3\iks01a3_motion_sensors_ex.c ****  * @retval BSP status
1166:D:/fchai/work/i-cube/I-CUBE-HUAWEI/Drivers/BSP/IKS01A3\iks01a3_motion_sensors_ex.c ****  */
1167:D:/fchai/work/i-cube/I-CUBE-HUAWEI/Drivers/BSP/IKS01A3\iks01a3_motion_sensors_ex.c **** int32_t IKS01A3_MOTION_SENSOR_Enable_Free_Fall_Detection(uint32_t Instance, IKS01A3_MOTION_SENSOR_I
1168:D:/fchai/work/i-cube/I-CUBE-HUAWEI/Drivers/BSP/IKS01A3\iks01a3_motion_sensors_ex.c **** {
 440              		.loc 1 1168 1 is_stmt 1 view -0
 441              		.cfi_startproc
 442              		@ args = 0, pretend = 0, frame = 0
 443              		@ frame_needed = 0, uses_anonymous_args = 0
1169:D:/fchai/work/i-cube/I-CUBE-HUAWEI/Drivers/BSP/IKS01A3\iks01a3_motion_sensors_ex.c ****   int32_t ret;
 444              		.loc 1 1169 3 view .LVU120
1170:D:/fchai/work/i-cube/I-CUBE-HUAWEI/Drivers/BSP/IKS01A3\iks01a3_motion_sensors_ex.c **** 
1171:D:/fchai/work/i-cube/I-CUBE-HUAWEI/Drivers/BSP/IKS01A3\iks01a3_motion_sensors_ex.c ****   switch (Instance)
 445              		.loc 1 1171 3 view .LVU121
 446 0000 48B9     		cbnz	r0, .L70
1172:D:/fchai/work/i-cube/I-CUBE-HUAWEI/Drivers/BSP/IKS01A3\iks01a3_motion_sensors_ex.c ****   {
1173:D:/fchai/work/i-cube/I-CUBE-HUAWEI/Drivers/BSP/IKS01A3\iks01a3_motion_sensors_ex.c **** #if (USE_IKS01A3_MOTION_SENSOR_LSM6DSO_0 == 1)
1174:D:/fchai/work/i-cube/I-CUBE-HUAWEI/Drivers/BSP/IKS01A3\iks01a3_motion_sensors_ex.c ****     case IKS01A3_LSM6DSO_0:
1175:D:/fchai/work/i-cube/I-CUBE-HUAWEI/Drivers/BSP/IKS01A3\iks01a3_motion_sensors_ex.c ****       if (LSM6DSO_ACC_Enable_Free_Fall_Detection(MotionCompObj[Instance], (LSM6DSO_SensorIntPin_t)I
 447              		.loc 1 1175 7 view .LVU122
1168:D:/fchai/work/i-cube/I-CUBE-HUAWEI/Drivers/BSP/IKS01A3\iks01a3_motion_sensors_ex.c ****   int32_t ret;
 448              		.loc 1 1168 1 is_stmt 0 view .LVU123
 449 0002 08B5     		push	{r3, lr}
 450              	.LCFI4:
 451              		.cfi_def_cfa_offset 8
 452              		.cfi_offset 3, -8
 453              		.cfi_offset 14, -4
 454              		.loc 1 1175 63 view .LVU124
 455 0004 054B     		ldr	r3, .L76
 456              		.loc 1 1175 11 view .LVU125
 457 0006 1868     		ldr	r0, [r3]
 458              	.LVL55:
 459              		.loc 1 1175 11 view .LVU126
 460 0008 FFF7FEFF 		bl	LSM6DSO_ACC_Enable_Free_Fall_Detection
ARM GAS  T:\msys\tmp\ccuiVBP3.s 			page 31


 461              	.LVL56:
 462              		.loc 1 1175 10 view .LVU127
 463 000c 0028     		cmp	r0, #0
1176:D:/fchai/work/i-cube/I-CUBE-HUAWEI/Drivers/BSP/IKS01A3\iks01a3_motion_sensors_ex.c ****       {
1177:D:/fchai/work/i-cube/I-CUBE-HUAWEI/Drivers/BSP/IKS01A3\iks01a3_motion_sensors_ex.c ****         ret = BSP_ERROR_COMPONENT_FAILURE;
 464              		.loc 1 1177 13 view .LVU128
 465 000e 18BF     		it	ne
 466 0010 6FF00400 		mvnne	r0, #4
1178:D:/fchai/work/i-cube/I-CUBE-HUAWEI/Drivers/BSP/IKS01A3\iks01a3_motion_sensors_ex.c ****       }
1179:D:/fchai/work/i-cube/I-CUBE-HUAWEI/Drivers/BSP/IKS01A3\iks01a3_motion_sensors_ex.c ****       else
1180:D:/fchai/work/i-cube/I-CUBE-HUAWEI/Drivers/BSP/IKS01A3\iks01a3_motion_sensors_ex.c ****       {
1181:D:/fchai/work/i-cube/I-CUBE-HUAWEI/Drivers/BSP/IKS01A3\iks01a3_motion_sensors_ex.c ****         ret = BSP_ERROR_NONE;
1182:D:/fchai/work/i-cube/I-CUBE-HUAWEI/Drivers/BSP/IKS01A3\iks01a3_motion_sensors_ex.c ****       }
1183:D:/fchai/work/i-cube/I-CUBE-HUAWEI/Drivers/BSP/IKS01A3\iks01a3_motion_sensors_ex.c ****       break;
1184:D:/fchai/work/i-cube/I-CUBE-HUAWEI/Drivers/BSP/IKS01A3\iks01a3_motion_sensors_ex.c **** #endif
1185:D:/fchai/work/i-cube/I-CUBE-HUAWEI/Drivers/BSP/IKS01A3\iks01a3_motion_sensors_ex.c **** 
1186:D:/fchai/work/i-cube/I-CUBE-HUAWEI/Drivers/BSP/IKS01A3\iks01a3_motion_sensors_ex.c ****     default:
1187:D:/fchai/work/i-cube/I-CUBE-HUAWEI/Drivers/BSP/IKS01A3\iks01a3_motion_sensors_ex.c ****       ret = BSP_ERROR_WRONG_PARAM;
1188:D:/fchai/work/i-cube/I-CUBE-HUAWEI/Drivers/BSP/IKS01A3\iks01a3_motion_sensors_ex.c ****       break;
1189:D:/fchai/work/i-cube/I-CUBE-HUAWEI/Drivers/BSP/IKS01A3\iks01a3_motion_sensors_ex.c ****   }
1190:D:/fchai/work/i-cube/I-CUBE-HUAWEI/Drivers/BSP/IKS01A3\iks01a3_motion_sensors_ex.c **** 
1191:D:/fchai/work/i-cube/I-CUBE-HUAWEI/Drivers/BSP/IKS01A3\iks01a3_motion_sensors_ex.c ****   return ret;
1192:D:/fchai/work/i-cube/I-CUBE-HUAWEI/Drivers/BSP/IKS01A3\iks01a3_motion_sensors_ex.c **** }
 467              		.loc 1 1192 1 view .LVU129
 468 0014 08BD     		pop	{r3, pc}
 469              	.LVL57:
 470              	.L70:
 471              	.LCFI5:
 472              		.cfi_def_cfa_offset 0
 473              		.cfi_restore 3
 474              		.cfi_restore 14
1187:D:/fchai/work/i-cube/I-CUBE-HUAWEI/Drivers/BSP/IKS01A3\iks01a3_motion_sensors_ex.c ****       break;
 475              		.loc 1 1187 11 view .LVU130
 476 0016 6FF00100 		mvn	r0, #1
 477              	.LVL58:
 478              		.loc 1 1192 1 view .LVU131
 479 001a 7047     		bx	lr
 480              	.L77:
 481              		.align	2
 482              	.L76:
 483 001c 00000000 		.word	MotionCompObj
 484              		.cfi_endproc
 485              	.LFE127:
 487              		.section	.text.IKS01A3_MOTION_SENSOR_Disable_Free_Fall_Detection,"ax",%progbits
 488              		.align	1
 489              		.p2align 2,,3
 490              		.global	IKS01A3_MOTION_SENSOR_Disable_Free_Fall_Detection
 491              		.syntax unified
 492              		.thumb
 493              		.thumb_func
 494              		.fpu fpv4-sp-d16
 496              	IKS01A3_MOTION_SENSOR_Disable_Free_Fall_Detection:
 497              	.LVL59:
 498              	.LFB128:
1193:D:/fchai/work/i-cube/I-CUBE-HUAWEI/Drivers/BSP/IKS01A3\iks01a3_motion_sensors_ex.c **** 
1194:D:/fchai/work/i-cube/I-CUBE-HUAWEI/Drivers/BSP/IKS01A3\iks01a3_motion_sensors_ex.c **** /**
1195:D:/fchai/work/i-cube/I-CUBE-HUAWEI/Drivers/BSP/IKS01A3\iks01a3_motion_sensors_ex.c ****  * @brief  Disable the free fall detection (available only for LSM6DSO sensor)
ARM GAS  T:\msys\tmp\ccuiVBP3.s 			page 32


1196:D:/fchai/work/i-cube/I-CUBE-HUAWEI/Drivers/BSP/IKS01A3\iks01a3_motion_sensors_ex.c ****  * @param  Instance the device instance
1197:D:/fchai/work/i-cube/I-CUBE-HUAWEI/Drivers/BSP/IKS01A3\iks01a3_motion_sensors_ex.c ****  * @retval BSP status
1198:D:/fchai/work/i-cube/I-CUBE-HUAWEI/Drivers/BSP/IKS01A3\iks01a3_motion_sensors_ex.c ****  */
1199:D:/fchai/work/i-cube/I-CUBE-HUAWEI/Drivers/BSP/IKS01A3\iks01a3_motion_sensors_ex.c **** int32_t IKS01A3_MOTION_SENSOR_Disable_Free_Fall_Detection(uint32_t Instance)
1200:D:/fchai/work/i-cube/I-CUBE-HUAWEI/Drivers/BSP/IKS01A3\iks01a3_motion_sensors_ex.c **** {
 499              		.loc 1 1200 1 is_stmt 1 view -0
 500              		.cfi_startproc
 501              		@ args = 0, pretend = 0, frame = 0
 502              		@ frame_needed = 0, uses_anonymous_args = 0
1201:D:/fchai/work/i-cube/I-CUBE-HUAWEI/Drivers/BSP/IKS01A3\iks01a3_motion_sensors_ex.c ****   int32_t ret;
 503              		.loc 1 1201 3 view .LVU133
1202:D:/fchai/work/i-cube/I-CUBE-HUAWEI/Drivers/BSP/IKS01A3\iks01a3_motion_sensors_ex.c **** 
1203:D:/fchai/work/i-cube/I-CUBE-HUAWEI/Drivers/BSP/IKS01A3\iks01a3_motion_sensors_ex.c ****   switch (Instance)
 504              		.loc 1 1203 3 view .LVU134
 505 0000 48B9     		cbnz	r0, .L80
1204:D:/fchai/work/i-cube/I-CUBE-HUAWEI/Drivers/BSP/IKS01A3\iks01a3_motion_sensors_ex.c ****   {
1205:D:/fchai/work/i-cube/I-CUBE-HUAWEI/Drivers/BSP/IKS01A3\iks01a3_motion_sensors_ex.c **** #if (USE_IKS01A3_MOTION_SENSOR_LSM6DSO_0 == 1)
1206:D:/fchai/work/i-cube/I-CUBE-HUAWEI/Drivers/BSP/IKS01A3\iks01a3_motion_sensors_ex.c ****     case IKS01A3_LSM6DSO_0:
1207:D:/fchai/work/i-cube/I-CUBE-HUAWEI/Drivers/BSP/IKS01A3\iks01a3_motion_sensors_ex.c ****       if (LSM6DSO_ACC_Disable_Free_Fall_Detection(MotionCompObj[Instance]) != BSP_ERROR_NONE)
 506              		.loc 1 1207 7 view .LVU135
1200:D:/fchai/work/i-cube/I-CUBE-HUAWEI/Drivers/BSP/IKS01A3\iks01a3_motion_sensors_ex.c ****   int32_t ret;
 507              		.loc 1 1200 1 is_stmt 0 view .LVU136
 508 0002 08B5     		push	{r3, lr}
 509              	.LCFI6:
 510              		.cfi_def_cfa_offset 8
 511              		.cfi_offset 3, -8
 512              		.cfi_offset 14, -4
 513              		.loc 1 1207 64 view .LVU137
 514 0004 054B     		ldr	r3, .L86
 515              		.loc 1 1207 11 view .LVU138
 516 0006 1868     		ldr	r0, [r3]
 517              	.LVL60:
 518              		.loc 1 1207 11 view .LVU139
 519 0008 FFF7FEFF 		bl	LSM6DSO_ACC_Disable_Free_Fall_Detection
 520              	.LVL61:
 521              		.loc 1 1207 10 view .LVU140
 522 000c 0028     		cmp	r0, #0
1208:D:/fchai/work/i-cube/I-CUBE-HUAWEI/Drivers/BSP/IKS01A3\iks01a3_motion_sensors_ex.c ****       {
1209:D:/fchai/work/i-cube/I-CUBE-HUAWEI/Drivers/BSP/IKS01A3\iks01a3_motion_sensors_ex.c ****         ret = BSP_ERROR_COMPONENT_FAILURE;
 523              		.loc 1 1209 13 view .LVU141
 524 000e 18BF     		it	ne
 525 0010 6FF00400 		mvnne	r0, #4
1210:D:/fchai/work/i-cube/I-CUBE-HUAWEI/Drivers/BSP/IKS01A3\iks01a3_motion_sensors_ex.c ****       }
1211:D:/fchai/work/i-cube/I-CUBE-HUAWEI/Drivers/BSP/IKS01A3\iks01a3_motion_sensors_ex.c ****       else
1212:D:/fchai/work/i-cube/I-CUBE-HUAWEI/Drivers/BSP/IKS01A3\iks01a3_motion_sensors_ex.c ****       {
1213:D:/fchai/work/i-cube/I-CUBE-HUAWEI/Drivers/BSP/IKS01A3\iks01a3_motion_sensors_ex.c ****         ret = BSP_ERROR_NONE;
1214:D:/fchai/work/i-cube/I-CUBE-HUAWEI/Drivers/BSP/IKS01A3\iks01a3_motion_sensors_ex.c ****       }
1215:D:/fchai/work/i-cube/I-CUBE-HUAWEI/Drivers/BSP/IKS01A3\iks01a3_motion_sensors_ex.c ****       break;
1216:D:/fchai/work/i-cube/I-CUBE-HUAWEI/Drivers/BSP/IKS01A3\iks01a3_motion_sensors_ex.c **** #endif
1217:D:/fchai/work/i-cube/I-CUBE-HUAWEI/Drivers/BSP/IKS01A3\iks01a3_motion_sensors_ex.c **** 
1218:D:/fchai/work/i-cube/I-CUBE-HUAWEI/Drivers/BSP/IKS01A3\iks01a3_motion_sensors_ex.c ****     default:
1219:D:/fchai/work/i-cube/I-CUBE-HUAWEI/Drivers/BSP/IKS01A3\iks01a3_motion_sensors_ex.c ****       ret = BSP_ERROR_WRONG_PARAM;
1220:D:/fchai/work/i-cube/I-CUBE-HUAWEI/Drivers/BSP/IKS01A3\iks01a3_motion_sensors_ex.c ****       break;
1221:D:/fchai/work/i-cube/I-CUBE-HUAWEI/Drivers/BSP/IKS01A3\iks01a3_motion_sensors_ex.c ****   }
1222:D:/fchai/work/i-cube/I-CUBE-HUAWEI/Drivers/BSP/IKS01A3\iks01a3_motion_sensors_ex.c **** 
1223:D:/fchai/work/i-cube/I-CUBE-HUAWEI/Drivers/BSP/IKS01A3\iks01a3_motion_sensors_ex.c ****   return ret;
1224:D:/fchai/work/i-cube/I-CUBE-HUAWEI/Drivers/BSP/IKS01A3\iks01a3_motion_sensors_ex.c **** }
ARM GAS  T:\msys\tmp\ccuiVBP3.s 			page 33


 526              		.loc 1 1224 1 view .LVU142
 527 0014 08BD     		pop	{r3, pc}
 528              	.LVL62:
 529              	.L80:
 530              	.LCFI7:
 531              		.cfi_def_cfa_offset 0
 532              		.cfi_restore 3
 533              		.cfi_restore 14
1219:D:/fchai/work/i-cube/I-CUBE-HUAWEI/Drivers/BSP/IKS01A3\iks01a3_motion_sensors_ex.c ****       break;
 534              		.loc 1 1219 11 view .LVU143
 535 0016 6FF00100 		mvn	r0, #1
 536              	.LVL63:
 537              		.loc 1 1224 1 view .LVU144
 538 001a 7047     		bx	lr
 539              	.L87:
 540              		.align	2
 541              	.L86:
 542 001c 00000000 		.word	MotionCompObj
 543              		.cfi_endproc
 544              	.LFE128:
 546              		.section	.text.IKS01A3_MOTION_SENSOR_Set_Free_Fall_Threshold,"ax",%progbits
 547              		.align	1
 548              		.p2align 2,,3
 549              		.global	IKS01A3_MOTION_SENSOR_Set_Free_Fall_Threshold
 550              		.syntax unified
 551              		.thumb
 552              		.thumb_func
 553              		.fpu fpv4-sp-d16
 555              	IKS01A3_MOTION_SENSOR_Set_Free_Fall_Threshold:
 556              	.LVL64:
 557              	.LFB129:
1225:D:/fchai/work/i-cube/I-CUBE-HUAWEI/Drivers/BSP/IKS01A3\iks01a3_motion_sensors_ex.c **** 
1226:D:/fchai/work/i-cube/I-CUBE-HUAWEI/Drivers/BSP/IKS01A3\iks01a3_motion_sensors_ex.c **** /**
1227:D:/fchai/work/i-cube/I-CUBE-HUAWEI/Drivers/BSP/IKS01A3\iks01a3_motion_sensors_ex.c ****  * @brief  Set the free fall detection threshold (available only for LSM6DSO sensor)
1228:D:/fchai/work/i-cube/I-CUBE-HUAWEI/Drivers/BSP/IKS01A3\iks01a3_motion_sensors_ex.c ****  * @param  Instance the device instance
1229:D:/fchai/work/i-cube/I-CUBE-HUAWEI/Drivers/BSP/IKS01A3\iks01a3_motion_sensors_ex.c ****  * @param  Threshold the threshold to be set
1230:D:/fchai/work/i-cube/I-CUBE-HUAWEI/Drivers/BSP/IKS01A3\iks01a3_motion_sensors_ex.c ****  * @retval BSP status
1231:D:/fchai/work/i-cube/I-CUBE-HUAWEI/Drivers/BSP/IKS01A3\iks01a3_motion_sensors_ex.c ****  */
1232:D:/fchai/work/i-cube/I-CUBE-HUAWEI/Drivers/BSP/IKS01A3\iks01a3_motion_sensors_ex.c **** int32_t IKS01A3_MOTION_SENSOR_Set_Free_Fall_Threshold(uint32_t Instance, uint8_t Threshold)
1233:D:/fchai/work/i-cube/I-CUBE-HUAWEI/Drivers/BSP/IKS01A3\iks01a3_motion_sensors_ex.c **** {
 558              		.loc 1 1233 1 is_stmt 1 view -0
 559              		.cfi_startproc
 560              		@ args = 0, pretend = 0, frame = 0
 561              		@ frame_needed = 0, uses_anonymous_args = 0
1234:D:/fchai/work/i-cube/I-CUBE-HUAWEI/Drivers/BSP/IKS01A3\iks01a3_motion_sensors_ex.c ****   int32_t ret;
 562              		.loc 1 1234 3 view .LVU146
1235:D:/fchai/work/i-cube/I-CUBE-HUAWEI/Drivers/BSP/IKS01A3\iks01a3_motion_sensors_ex.c **** 
1236:D:/fchai/work/i-cube/I-CUBE-HUAWEI/Drivers/BSP/IKS01A3\iks01a3_motion_sensors_ex.c ****   switch (Instance)
 563              		.loc 1 1236 3 view .LVU147
 564 0000 48B9     		cbnz	r0, .L90
1237:D:/fchai/work/i-cube/I-CUBE-HUAWEI/Drivers/BSP/IKS01A3\iks01a3_motion_sensors_ex.c ****   {
1238:D:/fchai/work/i-cube/I-CUBE-HUAWEI/Drivers/BSP/IKS01A3\iks01a3_motion_sensors_ex.c **** #if (USE_IKS01A3_MOTION_SENSOR_LSM6DSO_0 == 1)
1239:D:/fchai/work/i-cube/I-CUBE-HUAWEI/Drivers/BSP/IKS01A3\iks01a3_motion_sensors_ex.c ****     case IKS01A3_LSM6DSO_0:
1240:D:/fchai/work/i-cube/I-CUBE-HUAWEI/Drivers/BSP/IKS01A3\iks01a3_motion_sensors_ex.c ****       if (LSM6DSO_ACC_Set_Free_Fall_Threshold(MotionCompObj[Instance], Threshold) != BSP_ERROR_NONE
 565              		.loc 1 1240 7 view .LVU148
1233:D:/fchai/work/i-cube/I-CUBE-HUAWEI/Drivers/BSP/IKS01A3\iks01a3_motion_sensors_ex.c ****   int32_t ret;
 566              		.loc 1 1233 1 is_stmt 0 view .LVU149
ARM GAS  T:\msys\tmp\ccuiVBP3.s 			page 34


 567 0002 08B5     		push	{r3, lr}
 568              	.LCFI8:
 569              		.cfi_def_cfa_offset 8
 570              		.cfi_offset 3, -8
 571              		.cfi_offset 14, -4
 572              		.loc 1 1240 60 view .LVU150
 573 0004 054B     		ldr	r3, .L96
 574              		.loc 1 1240 11 view .LVU151
 575 0006 1868     		ldr	r0, [r3]
 576              	.LVL65:
 577              		.loc 1 1240 11 view .LVU152
 578 0008 FFF7FEFF 		bl	LSM6DSO_ACC_Set_Free_Fall_Threshold
 579              	.LVL66:
 580              		.loc 1 1240 10 view .LVU153
 581 000c 0028     		cmp	r0, #0
1241:D:/fchai/work/i-cube/I-CUBE-HUAWEI/Drivers/BSP/IKS01A3\iks01a3_motion_sensors_ex.c ****       {
1242:D:/fchai/work/i-cube/I-CUBE-HUAWEI/Drivers/BSP/IKS01A3\iks01a3_motion_sensors_ex.c ****         ret = BSP_ERROR_COMPONENT_FAILURE;
 582              		.loc 1 1242 13 view .LVU154
 583 000e 18BF     		it	ne
 584 0010 6FF00400 		mvnne	r0, #4
1243:D:/fchai/work/i-cube/I-CUBE-HUAWEI/Drivers/BSP/IKS01A3\iks01a3_motion_sensors_ex.c ****       }
1244:D:/fchai/work/i-cube/I-CUBE-HUAWEI/Drivers/BSP/IKS01A3\iks01a3_motion_sensors_ex.c ****       else
1245:D:/fchai/work/i-cube/I-CUBE-HUAWEI/Drivers/BSP/IKS01A3\iks01a3_motion_sensors_ex.c ****       {
1246:D:/fchai/work/i-cube/I-CUBE-HUAWEI/Drivers/BSP/IKS01A3\iks01a3_motion_sensors_ex.c ****         ret = BSP_ERROR_NONE;
1247:D:/fchai/work/i-cube/I-CUBE-HUAWEI/Drivers/BSP/IKS01A3\iks01a3_motion_sensors_ex.c ****       }
1248:D:/fchai/work/i-cube/I-CUBE-HUAWEI/Drivers/BSP/IKS01A3\iks01a3_motion_sensors_ex.c ****       break;
1249:D:/fchai/work/i-cube/I-CUBE-HUAWEI/Drivers/BSP/IKS01A3\iks01a3_motion_sensors_ex.c **** #endif
1250:D:/fchai/work/i-cube/I-CUBE-HUAWEI/Drivers/BSP/IKS01A3\iks01a3_motion_sensors_ex.c **** 
1251:D:/fchai/work/i-cube/I-CUBE-HUAWEI/Drivers/BSP/IKS01A3\iks01a3_motion_sensors_ex.c ****     default:
1252:D:/fchai/work/i-cube/I-CUBE-HUAWEI/Drivers/BSP/IKS01A3\iks01a3_motion_sensors_ex.c ****       ret = BSP_ERROR_WRONG_PARAM;
1253:D:/fchai/work/i-cube/I-CUBE-HUAWEI/Drivers/BSP/IKS01A3\iks01a3_motion_sensors_ex.c ****       break;
1254:D:/fchai/work/i-cube/I-CUBE-HUAWEI/Drivers/BSP/IKS01A3\iks01a3_motion_sensors_ex.c ****   }
1255:D:/fchai/work/i-cube/I-CUBE-HUAWEI/Drivers/BSP/IKS01A3\iks01a3_motion_sensors_ex.c **** 
1256:D:/fchai/work/i-cube/I-CUBE-HUAWEI/Drivers/BSP/IKS01A3\iks01a3_motion_sensors_ex.c ****   return ret;
1257:D:/fchai/work/i-cube/I-CUBE-HUAWEI/Drivers/BSP/IKS01A3\iks01a3_motion_sensors_ex.c **** }
 585              		.loc 1 1257 1 view .LVU155
 586 0014 08BD     		pop	{r3, pc}
 587              	.LVL67:
 588              	.L90:
 589              	.LCFI9:
 590              		.cfi_def_cfa_offset 0
 591              		.cfi_restore 3
 592              		.cfi_restore 14
1252:D:/fchai/work/i-cube/I-CUBE-HUAWEI/Drivers/BSP/IKS01A3\iks01a3_motion_sensors_ex.c ****       break;
 593              		.loc 1 1252 11 view .LVU156
 594 0016 6FF00100 		mvn	r0, #1
 595              	.LVL68:
 596              		.loc 1 1257 1 view .LVU157
 597 001a 7047     		bx	lr
 598              	.L97:
 599              		.align	2
 600              	.L96:
 601 001c 00000000 		.word	MotionCompObj
 602              		.cfi_endproc
 603              	.LFE129:
 605              		.section	.text.IKS01A3_MOTION_SENSOR_Set_Free_Fall_Duration,"ax",%progbits
 606              		.align	1
ARM GAS  T:\msys\tmp\ccuiVBP3.s 			page 35


 607              		.p2align 2,,3
 608              		.global	IKS01A3_MOTION_SENSOR_Set_Free_Fall_Duration
 609              		.syntax unified
 610              		.thumb
 611              		.thumb_func
 612              		.fpu fpv4-sp-d16
 614              	IKS01A3_MOTION_SENSOR_Set_Free_Fall_Duration:
 615              	.LVL69:
 616              	.LFB130:
1258:D:/fchai/work/i-cube/I-CUBE-HUAWEI/Drivers/BSP/IKS01A3\iks01a3_motion_sensors_ex.c **** 
1259:D:/fchai/work/i-cube/I-CUBE-HUAWEI/Drivers/BSP/IKS01A3\iks01a3_motion_sensors_ex.c **** /**
1260:D:/fchai/work/i-cube/I-CUBE-HUAWEI/Drivers/BSP/IKS01A3\iks01a3_motion_sensors_ex.c ****  * @brief  Set the free fall detection duration (available only for LSM6DSO sensor)
1261:D:/fchai/work/i-cube/I-CUBE-HUAWEI/Drivers/BSP/IKS01A3\iks01a3_motion_sensors_ex.c ****  * @param  Instance the device instance
1262:D:/fchai/work/i-cube/I-CUBE-HUAWEI/Drivers/BSP/IKS01A3\iks01a3_motion_sensors_ex.c ****  * @param  Duration the duration to be set
1263:D:/fchai/work/i-cube/I-CUBE-HUAWEI/Drivers/BSP/IKS01A3\iks01a3_motion_sensors_ex.c ****  * @retval BSP status
1264:D:/fchai/work/i-cube/I-CUBE-HUAWEI/Drivers/BSP/IKS01A3\iks01a3_motion_sensors_ex.c ****  */
1265:D:/fchai/work/i-cube/I-CUBE-HUAWEI/Drivers/BSP/IKS01A3\iks01a3_motion_sensors_ex.c **** int32_t IKS01A3_MOTION_SENSOR_Set_Free_Fall_Duration(uint32_t Instance, uint8_t Duration)
1266:D:/fchai/work/i-cube/I-CUBE-HUAWEI/Drivers/BSP/IKS01A3\iks01a3_motion_sensors_ex.c **** {
 617              		.loc 1 1266 1 is_stmt 1 view -0
 618              		.cfi_startproc
 619              		@ args = 0, pretend = 0, frame = 0
 620              		@ frame_needed = 0, uses_anonymous_args = 0
1267:D:/fchai/work/i-cube/I-CUBE-HUAWEI/Drivers/BSP/IKS01A3\iks01a3_motion_sensors_ex.c ****   int32_t ret;
 621              		.loc 1 1267 3 view .LVU159
1268:D:/fchai/work/i-cube/I-CUBE-HUAWEI/Drivers/BSP/IKS01A3\iks01a3_motion_sensors_ex.c **** 
1269:D:/fchai/work/i-cube/I-CUBE-HUAWEI/Drivers/BSP/IKS01A3\iks01a3_motion_sensors_ex.c ****   switch (Instance)
 622              		.loc 1 1269 3 view .LVU160
 623 0000 48B9     		cbnz	r0, .L100
1270:D:/fchai/work/i-cube/I-CUBE-HUAWEI/Drivers/BSP/IKS01A3\iks01a3_motion_sensors_ex.c ****   {
1271:D:/fchai/work/i-cube/I-CUBE-HUAWEI/Drivers/BSP/IKS01A3\iks01a3_motion_sensors_ex.c **** #if (USE_IKS01A3_MOTION_SENSOR_LSM6DSO_0 == 1)
1272:D:/fchai/work/i-cube/I-CUBE-HUAWEI/Drivers/BSP/IKS01A3\iks01a3_motion_sensors_ex.c ****     case IKS01A3_LSM6DSO_0:
1273:D:/fchai/work/i-cube/I-CUBE-HUAWEI/Drivers/BSP/IKS01A3\iks01a3_motion_sensors_ex.c ****       if (LSM6DSO_ACC_Set_Free_Fall_Duration(MotionCompObj[Instance], Duration) != BSP_ERROR_NONE)
 624              		.loc 1 1273 7 view .LVU161
1266:D:/fchai/work/i-cube/I-CUBE-HUAWEI/Drivers/BSP/IKS01A3\iks01a3_motion_sensors_ex.c ****   int32_t ret;
 625              		.loc 1 1266 1 is_stmt 0 view .LVU162
 626 0002 08B5     		push	{r3, lr}
 627              	.LCFI10:
 628              		.cfi_def_cfa_offset 8
 629              		.cfi_offset 3, -8
 630              		.cfi_offset 14, -4
 631              		.loc 1 1273 59 view .LVU163
 632 0004 054B     		ldr	r3, .L106
 633              		.loc 1 1273 11 view .LVU164
 634 0006 1868     		ldr	r0, [r3]
 635              	.LVL70:
 636              		.loc 1 1273 11 view .LVU165
 637 0008 FFF7FEFF 		bl	LSM6DSO_ACC_Set_Free_Fall_Duration
 638              	.LVL71:
 639              		.loc 1 1273 10 view .LVU166
 640 000c 0028     		cmp	r0, #0
1274:D:/fchai/work/i-cube/I-CUBE-HUAWEI/Drivers/BSP/IKS01A3\iks01a3_motion_sensors_ex.c ****       {
1275:D:/fchai/work/i-cube/I-CUBE-HUAWEI/Drivers/BSP/IKS01A3\iks01a3_motion_sensors_ex.c ****         ret = BSP_ERROR_COMPONENT_FAILURE;
 641              		.loc 1 1275 13 view .LVU167
 642 000e 18BF     		it	ne
 643 0010 6FF00400 		mvnne	r0, #4
1276:D:/fchai/work/i-cube/I-CUBE-HUAWEI/Drivers/BSP/IKS01A3\iks01a3_motion_sensors_ex.c ****       }
1277:D:/fchai/work/i-cube/I-CUBE-HUAWEI/Drivers/BSP/IKS01A3\iks01a3_motion_sensors_ex.c ****       else
ARM GAS  T:\msys\tmp\ccuiVBP3.s 			page 36


1278:D:/fchai/work/i-cube/I-CUBE-HUAWEI/Drivers/BSP/IKS01A3\iks01a3_motion_sensors_ex.c ****       {
1279:D:/fchai/work/i-cube/I-CUBE-HUAWEI/Drivers/BSP/IKS01A3\iks01a3_motion_sensors_ex.c ****         ret = BSP_ERROR_NONE;
1280:D:/fchai/work/i-cube/I-CUBE-HUAWEI/Drivers/BSP/IKS01A3\iks01a3_motion_sensors_ex.c ****       }
1281:D:/fchai/work/i-cube/I-CUBE-HUAWEI/Drivers/BSP/IKS01A3\iks01a3_motion_sensors_ex.c ****       break;
1282:D:/fchai/work/i-cube/I-CUBE-HUAWEI/Drivers/BSP/IKS01A3\iks01a3_motion_sensors_ex.c **** #endif
1283:D:/fchai/work/i-cube/I-CUBE-HUAWEI/Drivers/BSP/IKS01A3\iks01a3_motion_sensors_ex.c **** 
1284:D:/fchai/work/i-cube/I-CUBE-HUAWEI/Drivers/BSP/IKS01A3\iks01a3_motion_sensors_ex.c ****     default:
1285:D:/fchai/work/i-cube/I-CUBE-HUAWEI/Drivers/BSP/IKS01A3\iks01a3_motion_sensors_ex.c ****       ret = BSP_ERROR_WRONG_PARAM;
1286:D:/fchai/work/i-cube/I-CUBE-HUAWEI/Drivers/BSP/IKS01A3\iks01a3_motion_sensors_ex.c ****       break;
1287:D:/fchai/work/i-cube/I-CUBE-HUAWEI/Drivers/BSP/IKS01A3\iks01a3_motion_sensors_ex.c ****   }
1288:D:/fchai/work/i-cube/I-CUBE-HUAWEI/Drivers/BSP/IKS01A3\iks01a3_motion_sensors_ex.c **** 
1289:D:/fchai/work/i-cube/I-CUBE-HUAWEI/Drivers/BSP/IKS01A3\iks01a3_motion_sensors_ex.c ****   return ret;
1290:D:/fchai/work/i-cube/I-CUBE-HUAWEI/Drivers/BSP/IKS01A3\iks01a3_motion_sensors_ex.c **** }
 644              		.loc 1 1290 1 view .LVU168
 645 0014 08BD     		pop	{r3, pc}
 646              	.LVL72:
 647              	.L100:
 648              	.LCFI11:
 649              		.cfi_def_cfa_offset 0
 650              		.cfi_restore 3
 651              		.cfi_restore 14
1285:D:/fchai/work/i-cube/I-CUBE-HUAWEI/Drivers/BSP/IKS01A3\iks01a3_motion_sensors_ex.c ****       break;
 652              		.loc 1 1285 11 view .LVU169
 653 0016 6FF00100 		mvn	r0, #1
 654              	.LVL73:
 655              		.loc 1 1290 1 view .LVU170
 656 001a 7047     		bx	lr
 657              	.L107:
 658              		.align	2
 659              	.L106:
 660 001c 00000000 		.word	MotionCompObj
 661              		.cfi_endproc
 662              	.LFE130:
 664              		.section	.text.IKS01A3_MOTION_SENSOR_Enable_Pedometer,"ax",%progbits
 665              		.align	1
 666              		.p2align 2,,3
 667              		.global	IKS01A3_MOTION_SENSOR_Enable_Pedometer
 668              		.syntax unified
 669              		.thumb
 670              		.thumb_func
 671              		.fpu fpv4-sp-d16
 673              	IKS01A3_MOTION_SENSOR_Enable_Pedometer:
 674              	.LVL74:
 675              	.LFB131:
1291:D:/fchai/work/i-cube/I-CUBE-HUAWEI/Drivers/BSP/IKS01A3\iks01a3_motion_sensors_ex.c **** 
1292:D:/fchai/work/i-cube/I-CUBE-HUAWEI/Drivers/BSP/IKS01A3\iks01a3_motion_sensors_ex.c **** /**
1293:D:/fchai/work/i-cube/I-CUBE-HUAWEI/Drivers/BSP/IKS01A3\iks01a3_motion_sensors_ex.c ****  * @brief  Enable the pedometer detection (available only for LSM6DSO sensor)
1294:D:/fchai/work/i-cube/I-CUBE-HUAWEI/Drivers/BSP/IKS01A3\iks01a3_motion_sensors_ex.c ****  * @param  Instance the device instance
1295:D:/fchai/work/i-cube/I-CUBE-HUAWEI/Drivers/BSP/IKS01A3\iks01a3_motion_sensors_ex.c ****  * @note   This function sets the LSM6DSO accelerometer ODR to 26Hz and the LSM6DSO accelerometer f
1296:D:/fchai/work/i-cube/I-CUBE-HUAWEI/Drivers/BSP/IKS01A3\iks01a3_motion_sensors_ex.c ****  * @retval BSP status
1297:D:/fchai/work/i-cube/I-CUBE-HUAWEI/Drivers/BSP/IKS01A3\iks01a3_motion_sensors_ex.c ****  */
1298:D:/fchai/work/i-cube/I-CUBE-HUAWEI/Drivers/BSP/IKS01A3\iks01a3_motion_sensors_ex.c **** int32_t IKS01A3_MOTION_SENSOR_Enable_Pedometer(uint32_t Instance)
1299:D:/fchai/work/i-cube/I-CUBE-HUAWEI/Drivers/BSP/IKS01A3\iks01a3_motion_sensors_ex.c **** {
 676              		.loc 1 1299 1 is_stmt 1 view -0
 677              		.cfi_startproc
 678              		@ args = 0, pretend = 0, frame = 0
 679              		@ frame_needed = 0, uses_anonymous_args = 0
ARM GAS  T:\msys\tmp\ccuiVBP3.s 			page 37


1300:D:/fchai/work/i-cube/I-CUBE-HUAWEI/Drivers/BSP/IKS01A3\iks01a3_motion_sensors_ex.c ****   int32_t ret;
 680              		.loc 1 1300 3 view .LVU172
1301:D:/fchai/work/i-cube/I-CUBE-HUAWEI/Drivers/BSP/IKS01A3\iks01a3_motion_sensors_ex.c **** 
1302:D:/fchai/work/i-cube/I-CUBE-HUAWEI/Drivers/BSP/IKS01A3\iks01a3_motion_sensors_ex.c ****   switch (Instance)
 681              		.loc 1 1302 3 view .LVU173
 682 0000 48B9     		cbnz	r0, .L110
1303:D:/fchai/work/i-cube/I-CUBE-HUAWEI/Drivers/BSP/IKS01A3\iks01a3_motion_sensors_ex.c ****   {
1304:D:/fchai/work/i-cube/I-CUBE-HUAWEI/Drivers/BSP/IKS01A3\iks01a3_motion_sensors_ex.c **** #if (USE_IKS01A3_MOTION_SENSOR_LSM6DSO_0 == 1)
1305:D:/fchai/work/i-cube/I-CUBE-HUAWEI/Drivers/BSP/IKS01A3\iks01a3_motion_sensors_ex.c ****     case IKS01A3_LSM6DSO_0:
1306:D:/fchai/work/i-cube/I-CUBE-HUAWEI/Drivers/BSP/IKS01A3\iks01a3_motion_sensors_ex.c ****       if (LSM6DSO_ACC_Enable_Pedometer(MotionCompObj[Instance]) != BSP_ERROR_NONE)
 683              		.loc 1 1306 7 view .LVU174
1299:D:/fchai/work/i-cube/I-CUBE-HUAWEI/Drivers/BSP/IKS01A3\iks01a3_motion_sensors_ex.c ****   int32_t ret;
 684              		.loc 1 1299 1 is_stmt 0 view .LVU175
 685 0002 08B5     		push	{r3, lr}
 686              	.LCFI12:
 687              		.cfi_def_cfa_offset 8
 688              		.cfi_offset 3, -8
 689              		.cfi_offset 14, -4
 690              		.loc 1 1306 53 view .LVU176
 691 0004 054B     		ldr	r3, .L116
 692              		.loc 1 1306 11 view .LVU177
 693 0006 1868     		ldr	r0, [r3]
 694              	.LVL75:
 695              		.loc 1 1306 11 view .LVU178
 696 0008 FFF7FEFF 		bl	LSM6DSO_ACC_Enable_Pedometer
 697              	.LVL76:
 698              		.loc 1 1306 10 view .LVU179
 699 000c 0028     		cmp	r0, #0
1307:D:/fchai/work/i-cube/I-CUBE-HUAWEI/Drivers/BSP/IKS01A3\iks01a3_motion_sensors_ex.c ****       {
1308:D:/fchai/work/i-cube/I-CUBE-HUAWEI/Drivers/BSP/IKS01A3\iks01a3_motion_sensors_ex.c ****         ret = BSP_ERROR_COMPONENT_FAILURE;
 700              		.loc 1 1308 13 view .LVU180
 701 000e 18BF     		it	ne
 702 0010 6FF00400 		mvnne	r0, #4
1309:D:/fchai/work/i-cube/I-CUBE-HUAWEI/Drivers/BSP/IKS01A3\iks01a3_motion_sensors_ex.c ****       }
1310:D:/fchai/work/i-cube/I-CUBE-HUAWEI/Drivers/BSP/IKS01A3\iks01a3_motion_sensors_ex.c ****       else
1311:D:/fchai/work/i-cube/I-CUBE-HUAWEI/Drivers/BSP/IKS01A3\iks01a3_motion_sensors_ex.c ****       {
1312:D:/fchai/work/i-cube/I-CUBE-HUAWEI/Drivers/BSP/IKS01A3\iks01a3_motion_sensors_ex.c ****         ret = BSP_ERROR_NONE;
1313:D:/fchai/work/i-cube/I-CUBE-HUAWEI/Drivers/BSP/IKS01A3\iks01a3_motion_sensors_ex.c ****       }
1314:D:/fchai/work/i-cube/I-CUBE-HUAWEI/Drivers/BSP/IKS01A3\iks01a3_motion_sensors_ex.c ****       break;
1315:D:/fchai/work/i-cube/I-CUBE-HUAWEI/Drivers/BSP/IKS01A3\iks01a3_motion_sensors_ex.c **** #endif
1316:D:/fchai/work/i-cube/I-CUBE-HUAWEI/Drivers/BSP/IKS01A3\iks01a3_motion_sensors_ex.c **** 
1317:D:/fchai/work/i-cube/I-CUBE-HUAWEI/Drivers/BSP/IKS01A3\iks01a3_motion_sensors_ex.c ****     default:
1318:D:/fchai/work/i-cube/I-CUBE-HUAWEI/Drivers/BSP/IKS01A3\iks01a3_motion_sensors_ex.c ****       ret = BSP_ERROR_WRONG_PARAM;
1319:D:/fchai/work/i-cube/I-CUBE-HUAWEI/Drivers/BSP/IKS01A3\iks01a3_motion_sensors_ex.c ****       break;
1320:D:/fchai/work/i-cube/I-CUBE-HUAWEI/Drivers/BSP/IKS01A3\iks01a3_motion_sensors_ex.c ****   }
1321:D:/fchai/work/i-cube/I-CUBE-HUAWEI/Drivers/BSP/IKS01A3\iks01a3_motion_sensors_ex.c **** 
1322:D:/fchai/work/i-cube/I-CUBE-HUAWEI/Drivers/BSP/IKS01A3\iks01a3_motion_sensors_ex.c ****   return ret;
1323:D:/fchai/work/i-cube/I-CUBE-HUAWEI/Drivers/BSP/IKS01A3\iks01a3_motion_sensors_ex.c **** }
 703              		.loc 1 1323 1 view .LVU181
 704 0014 08BD     		pop	{r3, pc}
 705              	.LVL77:
 706              	.L110:
 707              	.LCFI13:
 708              		.cfi_def_cfa_offset 0
 709              		.cfi_restore 3
 710              		.cfi_restore 14
1318:D:/fchai/work/i-cube/I-CUBE-HUAWEI/Drivers/BSP/IKS01A3\iks01a3_motion_sensors_ex.c ****       break;
ARM GAS  T:\msys\tmp\ccuiVBP3.s 			page 38


 711              		.loc 1 1318 11 view .LVU182
 712 0016 6FF00100 		mvn	r0, #1
 713              	.LVL78:
 714              		.loc 1 1323 1 view .LVU183
 715 001a 7047     		bx	lr
 716              	.L117:
 717              		.align	2
 718              	.L116:
 719 001c 00000000 		.word	MotionCompObj
 720              		.cfi_endproc
 721              	.LFE131:
 723              		.section	.text.IKS01A3_MOTION_SENSOR_Disable_Pedometer,"ax",%progbits
 724              		.align	1
 725              		.p2align 2,,3
 726              		.global	IKS01A3_MOTION_SENSOR_Disable_Pedometer
 727              		.syntax unified
 728              		.thumb
 729              		.thumb_func
 730              		.fpu fpv4-sp-d16
 732              	IKS01A3_MOTION_SENSOR_Disable_Pedometer:
 733              	.LVL79:
 734              	.LFB132:
1324:D:/fchai/work/i-cube/I-CUBE-HUAWEI/Drivers/BSP/IKS01A3\iks01a3_motion_sensors_ex.c **** 
1325:D:/fchai/work/i-cube/I-CUBE-HUAWEI/Drivers/BSP/IKS01A3\iks01a3_motion_sensors_ex.c **** /**
1326:D:/fchai/work/i-cube/I-CUBE-HUAWEI/Drivers/BSP/IKS01A3\iks01a3_motion_sensors_ex.c ****  * @brief  Disable the pedometer detection (available only for LSM6DSO sensor)
1327:D:/fchai/work/i-cube/I-CUBE-HUAWEI/Drivers/BSP/IKS01A3\iks01a3_motion_sensors_ex.c ****  * @param  Instance the device instance
1328:D:/fchai/work/i-cube/I-CUBE-HUAWEI/Drivers/BSP/IKS01A3\iks01a3_motion_sensors_ex.c ****  * @retval BSP status
1329:D:/fchai/work/i-cube/I-CUBE-HUAWEI/Drivers/BSP/IKS01A3\iks01a3_motion_sensors_ex.c ****  */
1330:D:/fchai/work/i-cube/I-CUBE-HUAWEI/Drivers/BSP/IKS01A3\iks01a3_motion_sensors_ex.c **** int32_t IKS01A3_MOTION_SENSOR_Disable_Pedometer(uint32_t Instance)
1331:D:/fchai/work/i-cube/I-CUBE-HUAWEI/Drivers/BSP/IKS01A3\iks01a3_motion_sensors_ex.c **** {
 735              		.loc 1 1331 1 is_stmt 1 view -0
 736              		.cfi_startproc
 737              		@ args = 0, pretend = 0, frame = 0
 738              		@ frame_needed = 0, uses_anonymous_args = 0
1332:D:/fchai/work/i-cube/I-CUBE-HUAWEI/Drivers/BSP/IKS01A3\iks01a3_motion_sensors_ex.c ****   int32_t ret;
 739              		.loc 1 1332 3 view .LVU185
1333:D:/fchai/work/i-cube/I-CUBE-HUAWEI/Drivers/BSP/IKS01A3\iks01a3_motion_sensors_ex.c **** 
1334:D:/fchai/work/i-cube/I-CUBE-HUAWEI/Drivers/BSP/IKS01A3\iks01a3_motion_sensors_ex.c ****   switch (Instance)
 740              		.loc 1 1334 3 view .LVU186
 741 0000 48B9     		cbnz	r0, .L120
1335:D:/fchai/work/i-cube/I-CUBE-HUAWEI/Drivers/BSP/IKS01A3\iks01a3_motion_sensors_ex.c ****   {
1336:D:/fchai/work/i-cube/I-CUBE-HUAWEI/Drivers/BSP/IKS01A3\iks01a3_motion_sensors_ex.c **** #if (USE_IKS01A3_MOTION_SENSOR_LSM6DSO_0 == 1)
1337:D:/fchai/work/i-cube/I-CUBE-HUAWEI/Drivers/BSP/IKS01A3\iks01a3_motion_sensors_ex.c ****     case IKS01A3_LSM6DSO_0:
1338:D:/fchai/work/i-cube/I-CUBE-HUAWEI/Drivers/BSP/IKS01A3\iks01a3_motion_sensors_ex.c ****       if (LSM6DSO_ACC_Disable_Pedometer(MotionCompObj[Instance]) != BSP_ERROR_NONE)
 742              		.loc 1 1338 7 view .LVU187
1331:D:/fchai/work/i-cube/I-CUBE-HUAWEI/Drivers/BSP/IKS01A3\iks01a3_motion_sensors_ex.c ****   int32_t ret;
 743              		.loc 1 1331 1 is_stmt 0 view .LVU188
 744 0002 08B5     		push	{r3, lr}
 745              	.LCFI14:
 746              		.cfi_def_cfa_offset 8
 747              		.cfi_offset 3, -8
 748              		.cfi_offset 14, -4
 749              		.loc 1 1338 54 view .LVU189
 750 0004 054B     		ldr	r3, .L126
 751              		.loc 1 1338 11 view .LVU190
 752 0006 1868     		ldr	r0, [r3]
 753              	.LVL80:
ARM GAS  T:\msys\tmp\ccuiVBP3.s 			page 39


 754              		.loc 1 1338 11 view .LVU191
 755 0008 FFF7FEFF 		bl	LSM6DSO_ACC_Disable_Pedometer
 756              	.LVL81:
 757              		.loc 1 1338 10 view .LVU192
 758 000c 0028     		cmp	r0, #0
1339:D:/fchai/work/i-cube/I-CUBE-HUAWEI/Drivers/BSP/IKS01A3\iks01a3_motion_sensors_ex.c ****       {
1340:D:/fchai/work/i-cube/I-CUBE-HUAWEI/Drivers/BSP/IKS01A3\iks01a3_motion_sensors_ex.c ****         ret = BSP_ERROR_COMPONENT_FAILURE;
 759              		.loc 1 1340 13 view .LVU193
 760 000e 18BF     		it	ne
 761 0010 6FF00400 		mvnne	r0, #4
1341:D:/fchai/work/i-cube/I-CUBE-HUAWEI/Drivers/BSP/IKS01A3\iks01a3_motion_sensors_ex.c ****       }
1342:D:/fchai/work/i-cube/I-CUBE-HUAWEI/Drivers/BSP/IKS01A3\iks01a3_motion_sensors_ex.c ****       else
1343:D:/fchai/work/i-cube/I-CUBE-HUAWEI/Drivers/BSP/IKS01A3\iks01a3_motion_sensors_ex.c ****       {
1344:D:/fchai/work/i-cube/I-CUBE-HUAWEI/Drivers/BSP/IKS01A3\iks01a3_motion_sensors_ex.c ****         ret = BSP_ERROR_NONE;
1345:D:/fchai/work/i-cube/I-CUBE-HUAWEI/Drivers/BSP/IKS01A3\iks01a3_motion_sensors_ex.c ****       }
1346:D:/fchai/work/i-cube/I-CUBE-HUAWEI/Drivers/BSP/IKS01A3\iks01a3_motion_sensors_ex.c ****       break;
1347:D:/fchai/work/i-cube/I-CUBE-HUAWEI/Drivers/BSP/IKS01A3\iks01a3_motion_sensors_ex.c **** #endif
1348:D:/fchai/work/i-cube/I-CUBE-HUAWEI/Drivers/BSP/IKS01A3\iks01a3_motion_sensors_ex.c **** 
1349:D:/fchai/work/i-cube/I-CUBE-HUAWEI/Drivers/BSP/IKS01A3\iks01a3_motion_sensors_ex.c ****     default:
1350:D:/fchai/work/i-cube/I-CUBE-HUAWEI/Drivers/BSP/IKS01A3\iks01a3_motion_sensors_ex.c ****       ret = BSP_ERROR_WRONG_PARAM;
1351:D:/fchai/work/i-cube/I-CUBE-HUAWEI/Drivers/BSP/IKS01A3\iks01a3_motion_sensors_ex.c ****       break;
1352:D:/fchai/work/i-cube/I-CUBE-HUAWEI/Drivers/BSP/IKS01A3\iks01a3_motion_sensors_ex.c ****   }
1353:D:/fchai/work/i-cube/I-CUBE-HUAWEI/Drivers/BSP/IKS01A3\iks01a3_motion_sensors_ex.c **** 
1354:D:/fchai/work/i-cube/I-CUBE-HUAWEI/Drivers/BSP/IKS01A3\iks01a3_motion_sensors_ex.c ****   return ret;
1355:D:/fchai/work/i-cube/I-CUBE-HUAWEI/Drivers/BSP/IKS01A3\iks01a3_motion_sensors_ex.c **** }
 762              		.loc 1 1355 1 view .LVU194
 763 0014 08BD     		pop	{r3, pc}
 764              	.LVL82:
 765              	.L120:
 766              	.LCFI15:
 767              		.cfi_def_cfa_offset 0
 768              		.cfi_restore 3
 769              		.cfi_restore 14
1350:D:/fchai/work/i-cube/I-CUBE-HUAWEI/Drivers/BSP/IKS01A3\iks01a3_motion_sensors_ex.c ****       break;
 770              		.loc 1 1350 11 view .LVU195
 771 0016 6FF00100 		mvn	r0, #1
 772              	.LVL83:
 773              		.loc 1 1355 1 view .LVU196
 774 001a 7047     		bx	lr
 775              	.L127:
 776              		.align	2
 777              	.L126:
 778 001c 00000000 		.word	MotionCompObj
 779              		.cfi_endproc
 780              	.LFE132:
 782              		.section	.text.IKS01A3_MOTION_SENSOR_Reset_Step_Counter,"ax",%progbits
 783              		.align	1
 784              		.p2align 2,,3
 785              		.global	IKS01A3_MOTION_SENSOR_Reset_Step_Counter
 786              		.syntax unified
 787              		.thumb
 788              		.thumb_func
 789              		.fpu fpv4-sp-d16
 791              	IKS01A3_MOTION_SENSOR_Reset_Step_Counter:
 792              	.LVL84:
 793              	.LFB133:
1356:D:/fchai/work/i-cube/I-CUBE-HUAWEI/Drivers/BSP/IKS01A3\iks01a3_motion_sensors_ex.c **** 
ARM GAS  T:\msys\tmp\ccuiVBP3.s 			page 40


1357:D:/fchai/work/i-cube/I-CUBE-HUAWEI/Drivers/BSP/IKS01A3\iks01a3_motion_sensors_ex.c **** /**
1358:D:/fchai/work/i-cube/I-CUBE-HUAWEI/Drivers/BSP/IKS01A3\iks01a3_motion_sensors_ex.c ****  * @brief  Reset step counter (available only for LSM6DSO sensor)
1359:D:/fchai/work/i-cube/I-CUBE-HUAWEI/Drivers/BSP/IKS01A3\iks01a3_motion_sensors_ex.c ****  * @param  Instance the device instance
1360:D:/fchai/work/i-cube/I-CUBE-HUAWEI/Drivers/BSP/IKS01A3\iks01a3_motion_sensors_ex.c ****  * @note   This function sets the LSM6DSO accelerometer ODR to 26Hz and the LSM6DSO accelerometer f
1361:D:/fchai/work/i-cube/I-CUBE-HUAWEI/Drivers/BSP/IKS01A3\iks01a3_motion_sensors_ex.c ****  * @retval BSP status
1362:D:/fchai/work/i-cube/I-CUBE-HUAWEI/Drivers/BSP/IKS01A3\iks01a3_motion_sensors_ex.c ****  */
1363:D:/fchai/work/i-cube/I-CUBE-HUAWEI/Drivers/BSP/IKS01A3\iks01a3_motion_sensors_ex.c **** int32_t IKS01A3_MOTION_SENSOR_Reset_Step_Counter(uint32_t Instance)
1364:D:/fchai/work/i-cube/I-CUBE-HUAWEI/Drivers/BSP/IKS01A3\iks01a3_motion_sensors_ex.c **** {
 794              		.loc 1 1364 1 is_stmt 1 view -0
 795              		.cfi_startproc
 796              		@ args = 0, pretend = 0, frame = 0
 797              		@ frame_needed = 0, uses_anonymous_args = 0
1365:D:/fchai/work/i-cube/I-CUBE-HUAWEI/Drivers/BSP/IKS01A3\iks01a3_motion_sensors_ex.c ****   int32_t ret;
 798              		.loc 1 1365 3 view .LVU198
1366:D:/fchai/work/i-cube/I-CUBE-HUAWEI/Drivers/BSP/IKS01A3\iks01a3_motion_sensors_ex.c **** 
1367:D:/fchai/work/i-cube/I-CUBE-HUAWEI/Drivers/BSP/IKS01A3\iks01a3_motion_sensors_ex.c ****   switch (Instance)
 799              		.loc 1 1367 3 view .LVU199
 800 0000 48B9     		cbnz	r0, .L130
1368:D:/fchai/work/i-cube/I-CUBE-HUAWEI/Drivers/BSP/IKS01A3\iks01a3_motion_sensors_ex.c ****   {
1369:D:/fchai/work/i-cube/I-CUBE-HUAWEI/Drivers/BSP/IKS01A3\iks01a3_motion_sensors_ex.c **** #if (USE_IKS01A3_MOTION_SENSOR_LSM6DSO_0 == 1)
1370:D:/fchai/work/i-cube/I-CUBE-HUAWEI/Drivers/BSP/IKS01A3\iks01a3_motion_sensors_ex.c ****     case IKS01A3_LSM6DSO_0:
1371:D:/fchai/work/i-cube/I-CUBE-HUAWEI/Drivers/BSP/IKS01A3\iks01a3_motion_sensors_ex.c ****       if (LSM6DSO_ACC_Step_Counter_Reset(MotionCompObj[Instance]) != BSP_ERROR_NONE)
 801              		.loc 1 1371 7 view .LVU200
1364:D:/fchai/work/i-cube/I-CUBE-HUAWEI/Drivers/BSP/IKS01A3\iks01a3_motion_sensors_ex.c ****   int32_t ret;
 802              		.loc 1 1364 1 is_stmt 0 view .LVU201
 803 0002 08B5     		push	{r3, lr}
 804              	.LCFI16:
 805              		.cfi_def_cfa_offset 8
 806              		.cfi_offset 3, -8
 807              		.cfi_offset 14, -4
 808              		.loc 1 1371 55 view .LVU202
 809 0004 054B     		ldr	r3, .L136
 810              		.loc 1 1371 11 view .LVU203
 811 0006 1868     		ldr	r0, [r3]
 812              	.LVL85:
 813              		.loc 1 1371 11 view .LVU204
 814 0008 FFF7FEFF 		bl	LSM6DSO_ACC_Step_Counter_Reset
 815              	.LVL86:
 816              		.loc 1 1371 10 view .LVU205
 817 000c 0028     		cmp	r0, #0
1372:D:/fchai/work/i-cube/I-CUBE-HUAWEI/Drivers/BSP/IKS01A3\iks01a3_motion_sensors_ex.c ****       {
1373:D:/fchai/work/i-cube/I-CUBE-HUAWEI/Drivers/BSP/IKS01A3\iks01a3_motion_sensors_ex.c ****         ret = BSP_ERROR_COMPONENT_FAILURE;
 818              		.loc 1 1373 13 view .LVU206
 819 000e 18BF     		it	ne
 820 0010 6FF00400 		mvnne	r0, #4
1374:D:/fchai/work/i-cube/I-CUBE-HUAWEI/Drivers/BSP/IKS01A3\iks01a3_motion_sensors_ex.c ****       }
1375:D:/fchai/work/i-cube/I-CUBE-HUAWEI/Drivers/BSP/IKS01A3\iks01a3_motion_sensors_ex.c ****       else
1376:D:/fchai/work/i-cube/I-CUBE-HUAWEI/Drivers/BSP/IKS01A3\iks01a3_motion_sensors_ex.c ****       {
1377:D:/fchai/work/i-cube/I-CUBE-HUAWEI/Drivers/BSP/IKS01A3\iks01a3_motion_sensors_ex.c ****         ret = BSP_ERROR_NONE;
1378:D:/fchai/work/i-cube/I-CUBE-HUAWEI/Drivers/BSP/IKS01A3\iks01a3_motion_sensors_ex.c ****       }
1379:D:/fchai/work/i-cube/I-CUBE-HUAWEI/Drivers/BSP/IKS01A3\iks01a3_motion_sensors_ex.c ****       break;
1380:D:/fchai/work/i-cube/I-CUBE-HUAWEI/Drivers/BSP/IKS01A3\iks01a3_motion_sensors_ex.c **** #endif
1381:D:/fchai/work/i-cube/I-CUBE-HUAWEI/Drivers/BSP/IKS01A3\iks01a3_motion_sensors_ex.c **** 
1382:D:/fchai/work/i-cube/I-CUBE-HUAWEI/Drivers/BSP/IKS01A3\iks01a3_motion_sensors_ex.c ****     default:
1383:D:/fchai/work/i-cube/I-CUBE-HUAWEI/Drivers/BSP/IKS01A3\iks01a3_motion_sensors_ex.c ****       ret = BSP_ERROR_WRONG_PARAM;
1384:D:/fchai/work/i-cube/I-CUBE-HUAWEI/Drivers/BSP/IKS01A3\iks01a3_motion_sensors_ex.c ****       break;
1385:D:/fchai/work/i-cube/I-CUBE-HUAWEI/Drivers/BSP/IKS01A3\iks01a3_motion_sensors_ex.c ****   }
ARM GAS  T:\msys\tmp\ccuiVBP3.s 			page 41


1386:D:/fchai/work/i-cube/I-CUBE-HUAWEI/Drivers/BSP/IKS01A3\iks01a3_motion_sensors_ex.c **** 
1387:D:/fchai/work/i-cube/I-CUBE-HUAWEI/Drivers/BSP/IKS01A3\iks01a3_motion_sensors_ex.c ****   return ret;
1388:D:/fchai/work/i-cube/I-CUBE-HUAWEI/Drivers/BSP/IKS01A3\iks01a3_motion_sensors_ex.c **** }
 821              		.loc 1 1388 1 view .LVU207
 822 0014 08BD     		pop	{r3, pc}
 823              	.LVL87:
 824              	.L130:
 825              	.LCFI17:
 826              		.cfi_def_cfa_offset 0
 827              		.cfi_restore 3
 828              		.cfi_restore 14
1383:D:/fchai/work/i-cube/I-CUBE-HUAWEI/Drivers/BSP/IKS01A3\iks01a3_motion_sensors_ex.c ****       break;
 829              		.loc 1 1383 11 view .LVU208
 830 0016 6FF00100 		mvn	r0, #1
 831              	.LVL88:
 832              		.loc 1 1388 1 view .LVU209
 833 001a 7047     		bx	lr
 834              	.L137:
 835              		.align	2
 836              	.L136:
 837 001c 00000000 		.word	MotionCompObj
 838              		.cfi_endproc
 839              	.LFE133:
 841              		.section	.text.IKS01A3_MOTION_SENSOR_Get_Step_Count,"ax",%progbits
 842              		.align	1
 843              		.p2align 2,,3
 844              		.global	IKS01A3_MOTION_SENSOR_Get_Step_Count
 845              		.syntax unified
 846              		.thumb
 847              		.thumb_func
 848              		.fpu fpv4-sp-d16
 850              	IKS01A3_MOTION_SENSOR_Get_Step_Count:
 851              	.LVL89:
 852              	.LFB134:
1389:D:/fchai/work/i-cube/I-CUBE-HUAWEI/Drivers/BSP/IKS01A3\iks01a3_motion_sensors_ex.c **** 
1390:D:/fchai/work/i-cube/I-CUBE-HUAWEI/Drivers/BSP/IKS01A3\iks01a3_motion_sensors_ex.c **** /**
1391:D:/fchai/work/i-cube/I-CUBE-HUAWEI/Drivers/BSP/IKS01A3\iks01a3_motion_sensors_ex.c ****  * @brief  Get step count (available only for LSM6DSO sensor)
1392:D:/fchai/work/i-cube/I-CUBE-HUAWEI/Drivers/BSP/IKS01A3\iks01a3_motion_sensors_ex.c ****  * @param  Instance the device instance
1393:D:/fchai/work/i-cube/I-CUBE-HUAWEI/Drivers/BSP/IKS01A3\iks01a3_motion_sensors_ex.c ****  * @param  StepCount number of steps
1394:D:/fchai/work/i-cube/I-CUBE-HUAWEI/Drivers/BSP/IKS01A3\iks01a3_motion_sensors_ex.c ****  * @retval BSP status
1395:D:/fchai/work/i-cube/I-CUBE-HUAWEI/Drivers/BSP/IKS01A3\iks01a3_motion_sensors_ex.c ****  */
1396:D:/fchai/work/i-cube/I-CUBE-HUAWEI/Drivers/BSP/IKS01A3\iks01a3_motion_sensors_ex.c **** int32_t IKS01A3_MOTION_SENSOR_Get_Step_Count(uint32_t Instance, uint16_t *StepCount)
1397:D:/fchai/work/i-cube/I-CUBE-HUAWEI/Drivers/BSP/IKS01A3\iks01a3_motion_sensors_ex.c **** {
 853              		.loc 1 1397 1 is_stmt 1 view -0
 854              		.cfi_startproc
 855              		@ args = 0, pretend = 0, frame = 0
 856              		@ frame_needed = 0, uses_anonymous_args = 0
1398:D:/fchai/work/i-cube/I-CUBE-HUAWEI/Drivers/BSP/IKS01A3\iks01a3_motion_sensors_ex.c ****   int32_t ret;
 857              		.loc 1 1398 3 view .LVU211
1399:D:/fchai/work/i-cube/I-CUBE-HUAWEI/Drivers/BSP/IKS01A3\iks01a3_motion_sensors_ex.c **** 
1400:D:/fchai/work/i-cube/I-CUBE-HUAWEI/Drivers/BSP/IKS01A3\iks01a3_motion_sensors_ex.c ****   switch (Instance)
 858              		.loc 1 1400 3 view .LVU212
 859 0000 48B9     		cbnz	r0, .L140
1401:D:/fchai/work/i-cube/I-CUBE-HUAWEI/Drivers/BSP/IKS01A3\iks01a3_motion_sensors_ex.c ****   {
1402:D:/fchai/work/i-cube/I-CUBE-HUAWEI/Drivers/BSP/IKS01A3\iks01a3_motion_sensors_ex.c **** #if (USE_IKS01A3_MOTION_SENSOR_LSM6DSO_0 == 1)
1403:D:/fchai/work/i-cube/I-CUBE-HUAWEI/Drivers/BSP/IKS01A3\iks01a3_motion_sensors_ex.c ****     case IKS01A3_LSM6DSO_0:
1404:D:/fchai/work/i-cube/I-CUBE-HUAWEI/Drivers/BSP/IKS01A3\iks01a3_motion_sensors_ex.c ****       if (LSM6DSO_ACC_Get_Step_Count(MotionCompObj[Instance], StepCount) != BSP_ERROR_NONE)
ARM GAS  T:\msys\tmp\ccuiVBP3.s 			page 42


 860              		.loc 1 1404 7 view .LVU213
1397:D:/fchai/work/i-cube/I-CUBE-HUAWEI/Drivers/BSP/IKS01A3\iks01a3_motion_sensors_ex.c ****   int32_t ret;
 861              		.loc 1 1397 1 is_stmt 0 view .LVU214
 862 0002 08B5     		push	{r3, lr}
 863              	.LCFI18:
 864              		.cfi_def_cfa_offset 8
 865              		.cfi_offset 3, -8
 866              		.cfi_offset 14, -4
 867              		.loc 1 1404 51 view .LVU215
 868 0004 054B     		ldr	r3, .L146
 869              		.loc 1 1404 11 view .LVU216
 870 0006 1868     		ldr	r0, [r3]
 871              	.LVL90:
 872              		.loc 1 1404 11 view .LVU217
 873 0008 FFF7FEFF 		bl	LSM6DSO_ACC_Get_Step_Count
 874              	.LVL91:
 875              		.loc 1 1404 10 view .LVU218
 876 000c 0028     		cmp	r0, #0
1405:D:/fchai/work/i-cube/I-CUBE-HUAWEI/Drivers/BSP/IKS01A3\iks01a3_motion_sensors_ex.c ****       {
1406:D:/fchai/work/i-cube/I-CUBE-HUAWEI/Drivers/BSP/IKS01A3\iks01a3_motion_sensors_ex.c ****         ret = BSP_ERROR_COMPONENT_FAILURE;
 877              		.loc 1 1406 13 view .LVU219
 878 000e 18BF     		it	ne
 879 0010 6FF00400 		mvnne	r0, #4
1407:D:/fchai/work/i-cube/I-CUBE-HUAWEI/Drivers/BSP/IKS01A3\iks01a3_motion_sensors_ex.c ****       }
1408:D:/fchai/work/i-cube/I-CUBE-HUAWEI/Drivers/BSP/IKS01A3\iks01a3_motion_sensors_ex.c ****       else
1409:D:/fchai/work/i-cube/I-CUBE-HUAWEI/Drivers/BSP/IKS01A3\iks01a3_motion_sensors_ex.c ****       {
1410:D:/fchai/work/i-cube/I-CUBE-HUAWEI/Drivers/BSP/IKS01A3\iks01a3_motion_sensors_ex.c ****         ret = BSP_ERROR_NONE;
1411:D:/fchai/work/i-cube/I-CUBE-HUAWEI/Drivers/BSP/IKS01A3\iks01a3_motion_sensors_ex.c ****       }
1412:D:/fchai/work/i-cube/I-CUBE-HUAWEI/Drivers/BSP/IKS01A3\iks01a3_motion_sensors_ex.c ****       break;
1413:D:/fchai/work/i-cube/I-CUBE-HUAWEI/Drivers/BSP/IKS01A3\iks01a3_motion_sensors_ex.c **** #endif
1414:D:/fchai/work/i-cube/I-CUBE-HUAWEI/Drivers/BSP/IKS01A3\iks01a3_motion_sensors_ex.c **** 
1415:D:/fchai/work/i-cube/I-CUBE-HUAWEI/Drivers/BSP/IKS01A3\iks01a3_motion_sensors_ex.c ****     default:
1416:D:/fchai/work/i-cube/I-CUBE-HUAWEI/Drivers/BSP/IKS01A3\iks01a3_motion_sensors_ex.c ****       ret = BSP_ERROR_WRONG_PARAM;
1417:D:/fchai/work/i-cube/I-CUBE-HUAWEI/Drivers/BSP/IKS01A3\iks01a3_motion_sensors_ex.c ****       break;
1418:D:/fchai/work/i-cube/I-CUBE-HUAWEI/Drivers/BSP/IKS01A3\iks01a3_motion_sensors_ex.c ****   }
1419:D:/fchai/work/i-cube/I-CUBE-HUAWEI/Drivers/BSP/IKS01A3\iks01a3_motion_sensors_ex.c **** 
1420:D:/fchai/work/i-cube/I-CUBE-HUAWEI/Drivers/BSP/IKS01A3\iks01a3_motion_sensors_ex.c ****   return ret;
1421:D:/fchai/work/i-cube/I-CUBE-HUAWEI/Drivers/BSP/IKS01A3\iks01a3_motion_sensors_ex.c **** }
 880              		.loc 1 1421 1 view .LVU220
 881 0014 08BD     		pop	{r3, pc}
 882              	.LVL92:
 883              	.L140:
 884              	.LCFI19:
 885              		.cfi_def_cfa_offset 0
 886              		.cfi_restore 3
 887              		.cfi_restore 14
1416:D:/fchai/work/i-cube/I-CUBE-HUAWEI/Drivers/BSP/IKS01A3\iks01a3_motion_sensors_ex.c ****       break;
 888              		.loc 1 1416 11 view .LVU221
 889 0016 6FF00100 		mvn	r0, #1
 890              	.LVL93:
 891              		.loc 1 1421 1 view .LVU222
 892 001a 7047     		bx	lr
 893              	.L147:
 894              		.align	2
 895              	.L146:
 896 001c 00000000 		.word	MotionCompObj
 897              		.cfi_endproc
ARM GAS  T:\msys\tmp\ccuiVBP3.s 			page 43


 898              	.LFE134:
 900              		.section	.text.IKS01A3_MOTION_SENSOR_Enable_Tilt_Detection,"ax",%progbits
 901              		.align	1
 902              		.p2align 2,,3
 903              		.global	IKS01A3_MOTION_SENSOR_Enable_Tilt_Detection
 904              		.syntax unified
 905              		.thumb
 906              		.thumb_func
 907              		.fpu fpv4-sp-d16
 909              	IKS01A3_MOTION_SENSOR_Enable_Tilt_Detection:
 910              	.LVL94:
 911              	.LFB135:
1422:D:/fchai/work/i-cube/I-CUBE-HUAWEI/Drivers/BSP/IKS01A3\iks01a3_motion_sensors_ex.c **** 
1423:D:/fchai/work/i-cube/I-CUBE-HUAWEI/Drivers/BSP/IKS01A3\iks01a3_motion_sensors_ex.c **** /**
1424:D:/fchai/work/i-cube/I-CUBE-HUAWEI/Drivers/BSP/IKS01A3\iks01a3_motion_sensors_ex.c ****  * @brief  Enable the tilt detection (available only for LSM6DSO sensor)
1425:D:/fchai/work/i-cube/I-CUBE-HUAWEI/Drivers/BSP/IKS01A3\iks01a3_motion_sensors_ex.c ****  * @param  Instance the device instance
1426:D:/fchai/work/i-cube/I-CUBE-HUAWEI/Drivers/BSP/IKS01A3\iks01a3_motion_sensors_ex.c ****  * @param  IntPin the interrupt pin to be used
1427:D:/fchai/work/i-cube/I-CUBE-HUAWEI/Drivers/BSP/IKS01A3\iks01a3_motion_sensors_ex.c ****  * @note   This function sets the LSM6DSO accelerometer ODR to 26Hz and the LSM6DSO accelerometer f
1428:D:/fchai/work/i-cube/I-CUBE-HUAWEI/Drivers/BSP/IKS01A3\iks01a3_motion_sensors_ex.c ****  * @retval BSP status
1429:D:/fchai/work/i-cube/I-CUBE-HUAWEI/Drivers/BSP/IKS01A3\iks01a3_motion_sensors_ex.c ****  */
1430:D:/fchai/work/i-cube/I-CUBE-HUAWEI/Drivers/BSP/IKS01A3\iks01a3_motion_sensors_ex.c **** int32_t IKS01A3_MOTION_SENSOR_Enable_Tilt_Detection(uint32_t Instance, IKS01A3_MOTION_SENSOR_IntPin
1431:D:/fchai/work/i-cube/I-CUBE-HUAWEI/Drivers/BSP/IKS01A3\iks01a3_motion_sensors_ex.c **** {
 912              		.loc 1 1431 1 is_stmt 1 view -0
 913              		.cfi_startproc
 914              		@ args = 0, pretend = 0, frame = 0
 915              		@ frame_needed = 0, uses_anonymous_args = 0
1432:D:/fchai/work/i-cube/I-CUBE-HUAWEI/Drivers/BSP/IKS01A3\iks01a3_motion_sensors_ex.c ****   int32_t ret;
 916              		.loc 1 1432 3 view .LVU224
1433:D:/fchai/work/i-cube/I-CUBE-HUAWEI/Drivers/BSP/IKS01A3\iks01a3_motion_sensors_ex.c **** 
1434:D:/fchai/work/i-cube/I-CUBE-HUAWEI/Drivers/BSP/IKS01A3\iks01a3_motion_sensors_ex.c ****   switch (Instance)
 917              		.loc 1 1434 3 view .LVU225
 918 0000 48B9     		cbnz	r0, .L150
1435:D:/fchai/work/i-cube/I-CUBE-HUAWEI/Drivers/BSP/IKS01A3\iks01a3_motion_sensors_ex.c ****   {
1436:D:/fchai/work/i-cube/I-CUBE-HUAWEI/Drivers/BSP/IKS01A3\iks01a3_motion_sensors_ex.c **** #if (USE_IKS01A3_MOTION_SENSOR_LSM6DSO_0 == 1)
1437:D:/fchai/work/i-cube/I-CUBE-HUAWEI/Drivers/BSP/IKS01A3\iks01a3_motion_sensors_ex.c ****     case IKS01A3_LSM6DSO_0:
1438:D:/fchai/work/i-cube/I-CUBE-HUAWEI/Drivers/BSP/IKS01A3\iks01a3_motion_sensors_ex.c ****       if (LSM6DSO_ACC_Enable_Tilt_Detection(MotionCompObj[Instance], (LSM6DSO_SensorIntPin_t)IntPin
 919              		.loc 1 1438 7 view .LVU226
1431:D:/fchai/work/i-cube/I-CUBE-HUAWEI/Drivers/BSP/IKS01A3\iks01a3_motion_sensors_ex.c ****   int32_t ret;
 920              		.loc 1 1431 1 is_stmt 0 view .LVU227
 921 0002 08B5     		push	{r3, lr}
 922              	.LCFI20:
 923              		.cfi_def_cfa_offset 8
 924              		.cfi_offset 3, -8
 925              		.cfi_offset 14, -4
 926              		.loc 1 1438 58 view .LVU228
 927 0004 054B     		ldr	r3, .L156
 928              		.loc 1 1438 11 view .LVU229
 929 0006 1868     		ldr	r0, [r3]
 930              	.LVL95:
 931              		.loc 1 1438 11 view .LVU230
 932 0008 FFF7FEFF 		bl	LSM6DSO_ACC_Enable_Tilt_Detection
 933              	.LVL96:
 934              		.loc 1 1438 10 view .LVU231
 935 000c 0028     		cmp	r0, #0
1439:D:/fchai/work/i-cube/I-CUBE-HUAWEI/Drivers/BSP/IKS01A3\iks01a3_motion_sensors_ex.c ****       {
1440:D:/fchai/work/i-cube/I-CUBE-HUAWEI/Drivers/BSP/IKS01A3\iks01a3_motion_sensors_ex.c ****         ret = BSP_ERROR_COMPONENT_FAILURE;
 936              		.loc 1 1440 13 view .LVU232
ARM GAS  T:\msys\tmp\ccuiVBP3.s 			page 44


 937 000e 18BF     		it	ne
 938 0010 6FF00400 		mvnne	r0, #4
1441:D:/fchai/work/i-cube/I-CUBE-HUAWEI/Drivers/BSP/IKS01A3\iks01a3_motion_sensors_ex.c ****       }
1442:D:/fchai/work/i-cube/I-CUBE-HUAWEI/Drivers/BSP/IKS01A3\iks01a3_motion_sensors_ex.c ****       else
1443:D:/fchai/work/i-cube/I-CUBE-HUAWEI/Drivers/BSP/IKS01A3\iks01a3_motion_sensors_ex.c ****       {
1444:D:/fchai/work/i-cube/I-CUBE-HUAWEI/Drivers/BSP/IKS01A3\iks01a3_motion_sensors_ex.c ****         ret = BSP_ERROR_NONE;
1445:D:/fchai/work/i-cube/I-CUBE-HUAWEI/Drivers/BSP/IKS01A3\iks01a3_motion_sensors_ex.c ****       }
1446:D:/fchai/work/i-cube/I-CUBE-HUAWEI/Drivers/BSP/IKS01A3\iks01a3_motion_sensors_ex.c ****       break;
1447:D:/fchai/work/i-cube/I-CUBE-HUAWEI/Drivers/BSP/IKS01A3\iks01a3_motion_sensors_ex.c **** #endif
1448:D:/fchai/work/i-cube/I-CUBE-HUAWEI/Drivers/BSP/IKS01A3\iks01a3_motion_sensors_ex.c **** 
1449:D:/fchai/work/i-cube/I-CUBE-HUAWEI/Drivers/BSP/IKS01A3\iks01a3_motion_sensors_ex.c ****     default:
1450:D:/fchai/work/i-cube/I-CUBE-HUAWEI/Drivers/BSP/IKS01A3\iks01a3_motion_sensors_ex.c ****       ret = BSP_ERROR_WRONG_PARAM;
1451:D:/fchai/work/i-cube/I-CUBE-HUAWEI/Drivers/BSP/IKS01A3\iks01a3_motion_sensors_ex.c ****       break;
1452:D:/fchai/work/i-cube/I-CUBE-HUAWEI/Drivers/BSP/IKS01A3\iks01a3_motion_sensors_ex.c ****   }
1453:D:/fchai/work/i-cube/I-CUBE-HUAWEI/Drivers/BSP/IKS01A3\iks01a3_motion_sensors_ex.c **** 
1454:D:/fchai/work/i-cube/I-CUBE-HUAWEI/Drivers/BSP/IKS01A3\iks01a3_motion_sensors_ex.c ****   return ret;
1455:D:/fchai/work/i-cube/I-CUBE-HUAWEI/Drivers/BSP/IKS01A3\iks01a3_motion_sensors_ex.c **** }
 939              		.loc 1 1455 1 view .LVU233
 940 0014 08BD     		pop	{r3, pc}
 941              	.LVL97:
 942              	.L150:
 943              	.LCFI21:
 944              		.cfi_def_cfa_offset 0
 945              		.cfi_restore 3
 946              		.cfi_restore 14
1450:D:/fchai/work/i-cube/I-CUBE-HUAWEI/Drivers/BSP/IKS01A3\iks01a3_motion_sensors_ex.c ****       break;
 947              		.loc 1 1450 11 view .LVU234
 948 0016 6FF00100 		mvn	r0, #1
 949              	.LVL98:
 950              		.loc 1 1455 1 view .LVU235
 951 001a 7047     		bx	lr
 952              	.L157:
 953              		.align	2
 954              	.L156:
 955 001c 00000000 		.word	MotionCompObj
 956              		.cfi_endproc
 957              	.LFE135:
 959              		.section	.text.IKS01A3_MOTION_SENSOR_Disable_Tilt_Detection,"ax",%progbits
 960              		.align	1
 961              		.p2align 2,,3
 962              		.global	IKS01A3_MOTION_SENSOR_Disable_Tilt_Detection
 963              		.syntax unified
 964              		.thumb
 965              		.thumb_func
 966              		.fpu fpv4-sp-d16
 968              	IKS01A3_MOTION_SENSOR_Disable_Tilt_Detection:
 969              	.LVL99:
 970              	.LFB136:
1456:D:/fchai/work/i-cube/I-CUBE-HUAWEI/Drivers/BSP/IKS01A3\iks01a3_motion_sensors_ex.c **** 
1457:D:/fchai/work/i-cube/I-CUBE-HUAWEI/Drivers/BSP/IKS01A3\iks01a3_motion_sensors_ex.c **** /**
1458:D:/fchai/work/i-cube/I-CUBE-HUAWEI/Drivers/BSP/IKS01A3\iks01a3_motion_sensors_ex.c ****  * @brief  Disable the tilt detection (available only for LSM6DSO sensor)
1459:D:/fchai/work/i-cube/I-CUBE-HUAWEI/Drivers/BSP/IKS01A3\iks01a3_motion_sensors_ex.c ****  * @param  Instance the device instance
1460:D:/fchai/work/i-cube/I-CUBE-HUAWEI/Drivers/BSP/IKS01A3\iks01a3_motion_sensors_ex.c ****  * @retval BSP status
1461:D:/fchai/work/i-cube/I-CUBE-HUAWEI/Drivers/BSP/IKS01A3\iks01a3_motion_sensors_ex.c ****  */
1462:D:/fchai/work/i-cube/I-CUBE-HUAWEI/Drivers/BSP/IKS01A3\iks01a3_motion_sensors_ex.c **** int32_t IKS01A3_MOTION_SENSOR_Disable_Tilt_Detection(uint32_t Instance)
1463:D:/fchai/work/i-cube/I-CUBE-HUAWEI/Drivers/BSP/IKS01A3\iks01a3_motion_sensors_ex.c **** {
 971              		.loc 1 1463 1 is_stmt 1 view -0
ARM GAS  T:\msys\tmp\ccuiVBP3.s 			page 45


 972              		.cfi_startproc
 973              		@ args = 0, pretend = 0, frame = 0
 974              		@ frame_needed = 0, uses_anonymous_args = 0
1464:D:/fchai/work/i-cube/I-CUBE-HUAWEI/Drivers/BSP/IKS01A3\iks01a3_motion_sensors_ex.c ****   int32_t ret;
 975              		.loc 1 1464 3 view .LVU237
1465:D:/fchai/work/i-cube/I-CUBE-HUAWEI/Drivers/BSP/IKS01A3\iks01a3_motion_sensors_ex.c **** 
1466:D:/fchai/work/i-cube/I-CUBE-HUAWEI/Drivers/BSP/IKS01A3\iks01a3_motion_sensors_ex.c ****   switch (Instance)
 976              		.loc 1 1466 3 view .LVU238
 977 0000 48B9     		cbnz	r0, .L160
1467:D:/fchai/work/i-cube/I-CUBE-HUAWEI/Drivers/BSP/IKS01A3\iks01a3_motion_sensors_ex.c ****   {
1468:D:/fchai/work/i-cube/I-CUBE-HUAWEI/Drivers/BSP/IKS01A3\iks01a3_motion_sensors_ex.c **** #if (USE_IKS01A3_MOTION_SENSOR_LSM6DSO_0 == 1)
1469:D:/fchai/work/i-cube/I-CUBE-HUAWEI/Drivers/BSP/IKS01A3\iks01a3_motion_sensors_ex.c ****     case IKS01A3_LSM6DSO_0:
1470:D:/fchai/work/i-cube/I-CUBE-HUAWEI/Drivers/BSP/IKS01A3\iks01a3_motion_sensors_ex.c ****       if (LSM6DSO_ACC_Disable_Tilt_Detection(MotionCompObj[Instance]) != BSP_ERROR_NONE)
 978              		.loc 1 1470 7 view .LVU239
1463:D:/fchai/work/i-cube/I-CUBE-HUAWEI/Drivers/BSP/IKS01A3\iks01a3_motion_sensors_ex.c ****   int32_t ret;
 979              		.loc 1 1463 1 is_stmt 0 view .LVU240
 980 0002 08B5     		push	{r3, lr}
 981              	.LCFI22:
 982              		.cfi_def_cfa_offset 8
 983              		.cfi_offset 3, -8
 984              		.cfi_offset 14, -4
 985              		.loc 1 1470 59 view .LVU241
 986 0004 054B     		ldr	r3, .L166
 987              		.loc 1 1470 11 view .LVU242
 988 0006 1868     		ldr	r0, [r3]
 989              	.LVL100:
 990              		.loc 1 1470 11 view .LVU243
 991 0008 FFF7FEFF 		bl	LSM6DSO_ACC_Disable_Tilt_Detection
 992              	.LVL101:
 993              		.loc 1 1470 10 view .LVU244
 994 000c 0028     		cmp	r0, #0
1471:D:/fchai/work/i-cube/I-CUBE-HUAWEI/Drivers/BSP/IKS01A3\iks01a3_motion_sensors_ex.c ****       {
1472:D:/fchai/work/i-cube/I-CUBE-HUAWEI/Drivers/BSP/IKS01A3\iks01a3_motion_sensors_ex.c ****         ret = BSP_ERROR_COMPONENT_FAILURE;
 995              		.loc 1 1472 13 view .LVU245
 996 000e 18BF     		it	ne
 997 0010 6FF00400 		mvnne	r0, #4
1473:D:/fchai/work/i-cube/I-CUBE-HUAWEI/Drivers/BSP/IKS01A3\iks01a3_motion_sensors_ex.c ****       }
1474:D:/fchai/work/i-cube/I-CUBE-HUAWEI/Drivers/BSP/IKS01A3\iks01a3_motion_sensors_ex.c ****       else
1475:D:/fchai/work/i-cube/I-CUBE-HUAWEI/Drivers/BSP/IKS01A3\iks01a3_motion_sensors_ex.c ****       {
1476:D:/fchai/work/i-cube/I-CUBE-HUAWEI/Drivers/BSP/IKS01A3\iks01a3_motion_sensors_ex.c ****         ret = BSP_ERROR_NONE;
1477:D:/fchai/work/i-cube/I-CUBE-HUAWEI/Drivers/BSP/IKS01A3\iks01a3_motion_sensors_ex.c ****       }
1478:D:/fchai/work/i-cube/I-CUBE-HUAWEI/Drivers/BSP/IKS01A3\iks01a3_motion_sensors_ex.c ****       break;
1479:D:/fchai/work/i-cube/I-CUBE-HUAWEI/Drivers/BSP/IKS01A3\iks01a3_motion_sensors_ex.c **** #endif
1480:D:/fchai/work/i-cube/I-CUBE-HUAWEI/Drivers/BSP/IKS01A3\iks01a3_motion_sensors_ex.c **** 
1481:D:/fchai/work/i-cube/I-CUBE-HUAWEI/Drivers/BSP/IKS01A3\iks01a3_motion_sensors_ex.c ****     default:
1482:D:/fchai/work/i-cube/I-CUBE-HUAWEI/Drivers/BSP/IKS01A3\iks01a3_motion_sensors_ex.c ****       ret = BSP_ERROR_WRONG_PARAM;
1483:D:/fchai/work/i-cube/I-CUBE-HUAWEI/Drivers/BSP/IKS01A3\iks01a3_motion_sensors_ex.c ****       break;
1484:D:/fchai/work/i-cube/I-CUBE-HUAWEI/Drivers/BSP/IKS01A3\iks01a3_motion_sensors_ex.c ****   }
1485:D:/fchai/work/i-cube/I-CUBE-HUAWEI/Drivers/BSP/IKS01A3\iks01a3_motion_sensors_ex.c **** 
1486:D:/fchai/work/i-cube/I-CUBE-HUAWEI/Drivers/BSP/IKS01A3\iks01a3_motion_sensors_ex.c ****   return ret;
1487:D:/fchai/work/i-cube/I-CUBE-HUAWEI/Drivers/BSP/IKS01A3\iks01a3_motion_sensors_ex.c **** }
 998              		.loc 1 1487 1 view .LVU246
 999 0014 08BD     		pop	{r3, pc}
 1000              	.LVL102:
 1001              	.L160:
 1002              	.LCFI23:
 1003              		.cfi_def_cfa_offset 0
ARM GAS  T:\msys\tmp\ccuiVBP3.s 			page 46


 1004              		.cfi_restore 3
 1005              		.cfi_restore 14
1482:D:/fchai/work/i-cube/I-CUBE-HUAWEI/Drivers/BSP/IKS01A3\iks01a3_motion_sensors_ex.c ****       break;
 1006              		.loc 1 1482 11 view .LVU247
 1007 0016 6FF00100 		mvn	r0, #1
 1008              	.LVL103:
 1009              		.loc 1 1487 1 view .LVU248
 1010 001a 7047     		bx	lr
 1011              	.L167:
 1012              		.align	2
 1013              	.L166:
 1014 001c 00000000 		.word	MotionCompObj
 1015              		.cfi_endproc
 1016              	.LFE136:
 1018              		.section	.text.IKS01A3_MOTION_SENSOR_Enable_Wake_Up_Detection,"ax",%progbits
 1019              		.align	1
 1020              		.p2align 2,,3
 1021              		.global	IKS01A3_MOTION_SENSOR_Enable_Wake_Up_Detection
 1022              		.syntax unified
 1023              		.thumb
 1024              		.thumb_func
 1025              		.fpu fpv4-sp-d16
 1027              	IKS01A3_MOTION_SENSOR_Enable_Wake_Up_Detection:
 1028              	.LVL104:
 1029              	.LFB137:
1488:D:/fchai/work/i-cube/I-CUBE-HUAWEI/Drivers/BSP/IKS01A3\iks01a3_motion_sensors_ex.c **** 
1489:D:/fchai/work/i-cube/I-CUBE-HUAWEI/Drivers/BSP/IKS01A3\iks01a3_motion_sensors_ex.c **** /**
1490:D:/fchai/work/i-cube/I-CUBE-HUAWEI/Drivers/BSP/IKS01A3\iks01a3_motion_sensors_ex.c ****  * @brief  Enable the wake up detection (available only for LSM6DSO and LIS2DW12 sensors)
1491:D:/fchai/work/i-cube/I-CUBE-HUAWEI/Drivers/BSP/IKS01A3\iks01a3_motion_sensors_ex.c ****  * @param  Instance the device instance
1492:D:/fchai/work/i-cube/I-CUBE-HUAWEI/Drivers/BSP/IKS01A3\iks01a3_motion_sensors_ex.c ****  * @param  IntPin the interrupt pin to be used
1493:D:/fchai/work/i-cube/I-CUBE-HUAWEI/Drivers/BSP/IKS01A3\iks01a3_motion_sensors_ex.c ****  * @note   This function sets the LSM6DSO accelerometer ODR to 416Hz and the LSM6DSO accelerometer 
1494:D:/fchai/work/i-cube/I-CUBE-HUAWEI/Drivers/BSP/IKS01A3\iks01a3_motion_sensors_ex.c ****  * @retval BSP status
1495:D:/fchai/work/i-cube/I-CUBE-HUAWEI/Drivers/BSP/IKS01A3\iks01a3_motion_sensors_ex.c ****  */
1496:D:/fchai/work/i-cube/I-CUBE-HUAWEI/Drivers/BSP/IKS01A3\iks01a3_motion_sensors_ex.c **** int32_t IKS01A3_MOTION_SENSOR_Enable_Wake_Up_Detection(uint32_t Instance, IKS01A3_MOTION_SENSOR_Int
1497:D:/fchai/work/i-cube/I-CUBE-HUAWEI/Drivers/BSP/IKS01A3\iks01a3_motion_sensors_ex.c **** {
 1030              		.loc 1 1497 1 is_stmt 1 view -0
 1031              		.cfi_startproc
 1032              		@ args = 0, pretend = 0, frame = 0
 1033              		@ frame_needed = 0, uses_anonymous_args = 0
1498:D:/fchai/work/i-cube/I-CUBE-HUAWEI/Drivers/BSP/IKS01A3\iks01a3_motion_sensors_ex.c ****   int32_t ret;
 1034              		.loc 1 1498 3 view .LVU250
1499:D:/fchai/work/i-cube/I-CUBE-HUAWEI/Drivers/BSP/IKS01A3\iks01a3_motion_sensors_ex.c **** 
1500:D:/fchai/work/i-cube/I-CUBE-HUAWEI/Drivers/BSP/IKS01A3\iks01a3_motion_sensors_ex.c ****   switch (Instance)
 1035              		.loc 1 1500 3 view .LVU251
1497:D:/fchai/work/i-cube/I-CUBE-HUAWEI/Drivers/BSP/IKS01A3\iks01a3_motion_sensors_ex.c ****   int32_t ret;
 1036              		.loc 1 1497 1 is_stmt 0 view .LVU252
 1037 0000 08B5     		push	{r3, lr}
 1038              	.LCFI24:
 1039              		.cfi_def_cfa_offset 8
 1040              		.cfi_offset 3, -8
 1041              		.cfi_offset 14, -4
 1042              		.loc 1 1500 3 view .LVU253
 1043 0002 58B1     		cbz	r0, .L169
 1044 0004 0128     		cmp	r0, #1
 1045 0006 06D1     		bne	.L178
1501:D:/fchai/work/i-cube/I-CUBE-HUAWEI/Drivers/BSP/IKS01A3\iks01a3_motion_sensors_ex.c ****   {
1502:D:/fchai/work/i-cube/I-CUBE-HUAWEI/Drivers/BSP/IKS01A3\iks01a3_motion_sensors_ex.c **** #if (USE_IKS01A3_MOTION_SENSOR_LSM6DSO_0 == 1)
ARM GAS  T:\msys\tmp\ccuiVBP3.s 			page 47


1503:D:/fchai/work/i-cube/I-CUBE-HUAWEI/Drivers/BSP/IKS01A3\iks01a3_motion_sensors_ex.c ****     case IKS01A3_LSM6DSO_0:
1504:D:/fchai/work/i-cube/I-CUBE-HUAWEI/Drivers/BSP/IKS01A3\iks01a3_motion_sensors_ex.c ****       if (LSM6DSO_ACC_Enable_Wake_Up_Detection(MotionCompObj[Instance], (LSM6DSO_SensorIntPin_t)Int
1505:D:/fchai/work/i-cube/I-CUBE-HUAWEI/Drivers/BSP/IKS01A3\iks01a3_motion_sensors_ex.c ****       {
1506:D:/fchai/work/i-cube/I-CUBE-HUAWEI/Drivers/BSP/IKS01A3\iks01a3_motion_sensors_ex.c ****         ret = BSP_ERROR_COMPONENT_FAILURE;
1507:D:/fchai/work/i-cube/I-CUBE-HUAWEI/Drivers/BSP/IKS01A3\iks01a3_motion_sensors_ex.c ****       }
1508:D:/fchai/work/i-cube/I-CUBE-HUAWEI/Drivers/BSP/IKS01A3\iks01a3_motion_sensors_ex.c ****       else
1509:D:/fchai/work/i-cube/I-CUBE-HUAWEI/Drivers/BSP/IKS01A3\iks01a3_motion_sensors_ex.c ****       {
1510:D:/fchai/work/i-cube/I-CUBE-HUAWEI/Drivers/BSP/IKS01A3\iks01a3_motion_sensors_ex.c ****         ret = BSP_ERROR_NONE;
1511:D:/fchai/work/i-cube/I-CUBE-HUAWEI/Drivers/BSP/IKS01A3\iks01a3_motion_sensors_ex.c ****       }
1512:D:/fchai/work/i-cube/I-CUBE-HUAWEI/Drivers/BSP/IKS01A3\iks01a3_motion_sensors_ex.c ****       break;
1513:D:/fchai/work/i-cube/I-CUBE-HUAWEI/Drivers/BSP/IKS01A3\iks01a3_motion_sensors_ex.c **** #endif
1514:D:/fchai/work/i-cube/I-CUBE-HUAWEI/Drivers/BSP/IKS01A3\iks01a3_motion_sensors_ex.c **** 
1515:D:/fchai/work/i-cube/I-CUBE-HUAWEI/Drivers/BSP/IKS01A3\iks01a3_motion_sensors_ex.c **** #if (USE_IKS01A3_MOTION_SENSOR_LIS2DW12_0 == 1)
1516:D:/fchai/work/i-cube/I-CUBE-HUAWEI/Drivers/BSP/IKS01A3\iks01a3_motion_sensors_ex.c ****     case IKS01A3_LIS2DW12_0:
1517:D:/fchai/work/i-cube/I-CUBE-HUAWEI/Drivers/BSP/IKS01A3\iks01a3_motion_sensors_ex.c ****       /* For LIS2DW12 the Wake Up event can be routed only on INT1 pin */
1518:D:/fchai/work/i-cube/I-CUBE-HUAWEI/Drivers/BSP/IKS01A3\iks01a3_motion_sensors_ex.c ****       if (LIS2DW12_ACC_Enable_Wake_Up_Detection(MotionCompObj[Instance]) != BSP_ERROR_NONE)
 1046              		.loc 1 1518 7 is_stmt 1 view .LVU254
 1047              		.loc 1 1518 62 is_stmt 0 view .LVU255
 1048 0008 094B     		ldr	r3, .L179
 1049              		.loc 1 1518 11 view .LVU256
 1050 000a 5868     		ldr	r0, [r3, #4]
 1051              	.LVL105:
 1052              		.loc 1 1518 11 view .LVU257
 1053 000c FFF7FEFF 		bl	LIS2DW12_ACC_Enable_Wake_Up_Detection
 1054              	.LVL106:
 1055              		.loc 1 1518 10 view .LVU258
 1056 0010 50B9     		cbnz	r0, .L173
 1057              	.L172:
1510:D:/fchai/work/i-cube/I-CUBE-HUAWEI/Drivers/BSP/IKS01A3\iks01a3_motion_sensors_ex.c ****       }
 1058              		.loc 1 1510 9 is_stmt 1 view .LVU259
 1059              	.LVL107:
1510:D:/fchai/work/i-cube/I-CUBE-HUAWEI/Drivers/BSP/IKS01A3\iks01a3_motion_sensors_ex.c ****       }
 1060              		.loc 1 1510 13 is_stmt 0 view .LVU260
 1061 0012 0020     		movs	r0, #0
1519:D:/fchai/work/i-cube/I-CUBE-HUAWEI/Drivers/BSP/IKS01A3\iks01a3_motion_sensors_ex.c ****       {
1520:D:/fchai/work/i-cube/I-CUBE-HUAWEI/Drivers/BSP/IKS01A3\iks01a3_motion_sensors_ex.c ****         ret = BSP_ERROR_COMPONENT_FAILURE;
1521:D:/fchai/work/i-cube/I-CUBE-HUAWEI/Drivers/BSP/IKS01A3\iks01a3_motion_sensors_ex.c ****       }
1522:D:/fchai/work/i-cube/I-CUBE-HUAWEI/Drivers/BSP/IKS01A3\iks01a3_motion_sensors_ex.c ****       else
1523:D:/fchai/work/i-cube/I-CUBE-HUAWEI/Drivers/BSP/IKS01A3\iks01a3_motion_sensors_ex.c ****       {
1524:D:/fchai/work/i-cube/I-CUBE-HUAWEI/Drivers/BSP/IKS01A3\iks01a3_motion_sensors_ex.c ****         ret = BSP_ERROR_NONE;
1525:D:/fchai/work/i-cube/I-CUBE-HUAWEI/Drivers/BSP/IKS01A3\iks01a3_motion_sensors_ex.c ****       }
1526:D:/fchai/work/i-cube/I-CUBE-HUAWEI/Drivers/BSP/IKS01A3\iks01a3_motion_sensors_ex.c ****       break;
1527:D:/fchai/work/i-cube/I-CUBE-HUAWEI/Drivers/BSP/IKS01A3\iks01a3_motion_sensors_ex.c **** #endif
1528:D:/fchai/work/i-cube/I-CUBE-HUAWEI/Drivers/BSP/IKS01A3\iks01a3_motion_sensors_ex.c **** 
1529:D:/fchai/work/i-cube/I-CUBE-HUAWEI/Drivers/BSP/IKS01A3\iks01a3_motion_sensors_ex.c ****     default:
1530:D:/fchai/work/i-cube/I-CUBE-HUAWEI/Drivers/BSP/IKS01A3\iks01a3_motion_sensors_ex.c ****       ret = BSP_ERROR_WRONG_PARAM;
1531:D:/fchai/work/i-cube/I-CUBE-HUAWEI/Drivers/BSP/IKS01A3\iks01a3_motion_sensors_ex.c ****       break;
1532:D:/fchai/work/i-cube/I-CUBE-HUAWEI/Drivers/BSP/IKS01A3\iks01a3_motion_sensors_ex.c ****   }
1533:D:/fchai/work/i-cube/I-CUBE-HUAWEI/Drivers/BSP/IKS01A3\iks01a3_motion_sensors_ex.c **** 
1534:D:/fchai/work/i-cube/I-CUBE-HUAWEI/Drivers/BSP/IKS01A3\iks01a3_motion_sensors_ex.c ****   return ret;
1535:D:/fchai/work/i-cube/I-CUBE-HUAWEI/Drivers/BSP/IKS01A3\iks01a3_motion_sensors_ex.c **** }
 1062              		.loc 1 1535 1 view .LVU261
 1063 0014 08BD     		pop	{r3, pc}
 1064              	.LVL108:
 1065              	.L178:
1500:D:/fchai/work/i-cube/I-CUBE-HUAWEI/Drivers/BSP/IKS01A3\iks01a3_motion_sensors_ex.c ****   {
 1066              		.loc 1 1500 3 view .LVU262
ARM GAS  T:\msys\tmp\ccuiVBP3.s 			page 48


 1067 0016 6FF00100 		mvn	r0, #1
 1068              	.LVL109:
 1069              		.loc 1 1535 1 view .LVU263
 1070 001a 08BD     		pop	{r3, pc}
 1071              	.LVL110:
 1072              	.L169:
1504:D:/fchai/work/i-cube/I-CUBE-HUAWEI/Drivers/BSP/IKS01A3\iks01a3_motion_sensors_ex.c ****       {
 1073              		.loc 1 1504 7 is_stmt 1 view .LVU264
1504:D:/fchai/work/i-cube/I-CUBE-HUAWEI/Drivers/BSP/IKS01A3\iks01a3_motion_sensors_ex.c ****       {
 1074              		.loc 1 1504 61 is_stmt 0 view .LVU265
 1075 001c 044B     		ldr	r3, .L179
1504:D:/fchai/work/i-cube/I-CUBE-HUAWEI/Drivers/BSP/IKS01A3\iks01a3_motion_sensors_ex.c ****       {
 1076              		.loc 1 1504 11 view .LVU266
 1077 001e 1868     		ldr	r0, [r3]
 1078              	.LVL111:
1504:D:/fchai/work/i-cube/I-CUBE-HUAWEI/Drivers/BSP/IKS01A3\iks01a3_motion_sensors_ex.c ****       {
 1079              		.loc 1 1504 11 view .LVU267
 1080 0020 FFF7FEFF 		bl	LSM6DSO_ACC_Enable_Wake_Up_Detection
 1081              	.LVL112:
1504:D:/fchai/work/i-cube/I-CUBE-HUAWEI/Drivers/BSP/IKS01A3\iks01a3_motion_sensors_ex.c ****       {
 1082              		.loc 1 1504 10 view .LVU268
 1083 0024 0028     		cmp	r0, #0
 1084 0026 F4D0     		beq	.L172
 1085              	.L173:
1506:D:/fchai/work/i-cube/I-CUBE-HUAWEI/Drivers/BSP/IKS01A3\iks01a3_motion_sensors_ex.c ****       }
 1086              		.loc 1 1506 13 view .LVU269
 1087 0028 6FF00400 		mvn	r0, #4
 1088              		.loc 1 1535 1 view .LVU270
 1089 002c 08BD     		pop	{r3, pc}
 1090              	.L180:
 1091 002e 00BF     		.align	2
 1092              	.L179:
 1093 0030 00000000 		.word	MotionCompObj
 1094              		.cfi_endproc
 1095              	.LFE137:
 1097              		.section	.text.IKS01A3_MOTION_SENSOR_Disable_Wake_Up_Detection,"ax",%progbits
 1098              		.align	1
 1099              		.p2align 2,,3
 1100              		.global	IKS01A3_MOTION_SENSOR_Disable_Wake_Up_Detection
 1101              		.syntax unified
 1102              		.thumb
 1103              		.thumb_func
 1104              		.fpu fpv4-sp-d16
 1106              	IKS01A3_MOTION_SENSOR_Disable_Wake_Up_Detection:
 1107              	.LVL113:
 1108              	.LFB138:
1536:D:/fchai/work/i-cube/I-CUBE-HUAWEI/Drivers/BSP/IKS01A3\iks01a3_motion_sensors_ex.c **** 
1537:D:/fchai/work/i-cube/I-CUBE-HUAWEI/Drivers/BSP/IKS01A3\iks01a3_motion_sensors_ex.c **** /**
1538:D:/fchai/work/i-cube/I-CUBE-HUAWEI/Drivers/BSP/IKS01A3\iks01a3_motion_sensors_ex.c ****  * @brief  Disable the wake up detection (available only for LSM6DSO and LIS2DW12 sensors)
1539:D:/fchai/work/i-cube/I-CUBE-HUAWEI/Drivers/BSP/IKS01A3\iks01a3_motion_sensors_ex.c ****  * @param  Instance the device instance
1540:D:/fchai/work/i-cube/I-CUBE-HUAWEI/Drivers/BSP/IKS01A3\iks01a3_motion_sensors_ex.c ****  * @retval BSP status
1541:D:/fchai/work/i-cube/I-CUBE-HUAWEI/Drivers/BSP/IKS01A3\iks01a3_motion_sensors_ex.c ****  */
1542:D:/fchai/work/i-cube/I-CUBE-HUAWEI/Drivers/BSP/IKS01A3\iks01a3_motion_sensors_ex.c **** int32_t IKS01A3_MOTION_SENSOR_Disable_Wake_Up_Detection(uint32_t Instance)
1543:D:/fchai/work/i-cube/I-CUBE-HUAWEI/Drivers/BSP/IKS01A3\iks01a3_motion_sensors_ex.c **** {
 1109              		.loc 1 1543 1 is_stmt 1 view -0
 1110              		.cfi_startproc
 1111              		@ args = 0, pretend = 0, frame = 0
ARM GAS  T:\msys\tmp\ccuiVBP3.s 			page 49


 1112              		@ frame_needed = 0, uses_anonymous_args = 0
1544:D:/fchai/work/i-cube/I-CUBE-HUAWEI/Drivers/BSP/IKS01A3\iks01a3_motion_sensors_ex.c ****   int32_t ret;
 1113              		.loc 1 1544 3 view .LVU272
1545:D:/fchai/work/i-cube/I-CUBE-HUAWEI/Drivers/BSP/IKS01A3\iks01a3_motion_sensors_ex.c **** 
1546:D:/fchai/work/i-cube/I-CUBE-HUAWEI/Drivers/BSP/IKS01A3\iks01a3_motion_sensors_ex.c ****   switch (Instance)
 1114              		.loc 1 1546 3 view .LVU273
1543:D:/fchai/work/i-cube/I-CUBE-HUAWEI/Drivers/BSP/IKS01A3\iks01a3_motion_sensors_ex.c ****   int32_t ret;
 1115              		.loc 1 1543 1 is_stmt 0 view .LVU274
 1116 0000 08B5     		push	{r3, lr}
 1117              	.LCFI25:
 1118              		.cfi_def_cfa_offset 8
 1119              		.cfi_offset 3, -8
 1120              		.cfi_offset 14, -4
 1121              		.loc 1 1546 3 view .LVU275
 1122 0002 58B1     		cbz	r0, .L182
 1123 0004 0128     		cmp	r0, #1
 1124 0006 06D1     		bne	.L191
1547:D:/fchai/work/i-cube/I-CUBE-HUAWEI/Drivers/BSP/IKS01A3\iks01a3_motion_sensors_ex.c ****   {
1548:D:/fchai/work/i-cube/I-CUBE-HUAWEI/Drivers/BSP/IKS01A3\iks01a3_motion_sensors_ex.c **** #if (USE_IKS01A3_MOTION_SENSOR_LSM6DSO_0 == 1)
1549:D:/fchai/work/i-cube/I-CUBE-HUAWEI/Drivers/BSP/IKS01A3\iks01a3_motion_sensors_ex.c ****     case IKS01A3_LSM6DSO_0:
1550:D:/fchai/work/i-cube/I-CUBE-HUAWEI/Drivers/BSP/IKS01A3\iks01a3_motion_sensors_ex.c ****       if (LSM6DSO_ACC_Disable_Wake_Up_Detection(MotionCompObj[Instance]) != BSP_ERROR_NONE)
1551:D:/fchai/work/i-cube/I-CUBE-HUAWEI/Drivers/BSP/IKS01A3\iks01a3_motion_sensors_ex.c ****       {
1552:D:/fchai/work/i-cube/I-CUBE-HUAWEI/Drivers/BSP/IKS01A3\iks01a3_motion_sensors_ex.c ****         ret = BSP_ERROR_COMPONENT_FAILURE;
1553:D:/fchai/work/i-cube/I-CUBE-HUAWEI/Drivers/BSP/IKS01A3\iks01a3_motion_sensors_ex.c ****       }
1554:D:/fchai/work/i-cube/I-CUBE-HUAWEI/Drivers/BSP/IKS01A3\iks01a3_motion_sensors_ex.c ****       else
1555:D:/fchai/work/i-cube/I-CUBE-HUAWEI/Drivers/BSP/IKS01A3\iks01a3_motion_sensors_ex.c ****       {
1556:D:/fchai/work/i-cube/I-CUBE-HUAWEI/Drivers/BSP/IKS01A3\iks01a3_motion_sensors_ex.c ****         ret = BSP_ERROR_NONE;
1557:D:/fchai/work/i-cube/I-CUBE-HUAWEI/Drivers/BSP/IKS01A3\iks01a3_motion_sensors_ex.c ****       }
1558:D:/fchai/work/i-cube/I-CUBE-HUAWEI/Drivers/BSP/IKS01A3\iks01a3_motion_sensors_ex.c ****       break;
1559:D:/fchai/work/i-cube/I-CUBE-HUAWEI/Drivers/BSP/IKS01A3\iks01a3_motion_sensors_ex.c **** #endif
1560:D:/fchai/work/i-cube/I-CUBE-HUAWEI/Drivers/BSP/IKS01A3\iks01a3_motion_sensors_ex.c **** 
1561:D:/fchai/work/i-cube/I-CUBE-HUAWEI/Drivers/BSP/IKS01A3\iks01a3_motion_sensors_ex.c **** #if (USE_IKS01A3_MOTION_SENSOR_LIS2DW12_0 == 1)
1562:D:/fchai/work/i-cube/I-CUBE-HUAWEI/Drivers/BSP/IKS01A3\iks01a3_motion_sensors_ex.c ****     case IKS01A3_LIS2DW12_0:
1563:D:/fchai/work/i-cube/I-CUBE-HUAWEI/Drivers/BSP/IKS01A3\iks01a3_motion_sensors_ex.c ****       if (LIS2DW12_ACC_Disable_Wake_Up_Detection(MotionCompObj[Instance]) != BSP_ERROR_NONE)
 1125              		.loc 1 1563 7 is_stmt 1 view .LVU276
 1126              		.loc 1 1563 63 is_stmt 0 view .LVU277
 1127 0008 094B     		ldr	r3, .L192
 1128              		.loc 1 1563 11 view .LVU278
 1129 000a 5868     		ldr	r0, [r3, #4]
 1130              	.LVL114:
 1131              		.loc 1 1563 11 view .LVU279
 1132 000c FFF7FEFF 		bl	LIS2DW12_ACC_Disable_Wake_Up_Detection
 1133              	.LVL115:
 1134              		.loc 1 1563 10 view .LVU280
 1135 0010 50B9     		cbnz	r0, .L186
 1136              	.L185:
1556:D:/fchai/work/i-cube/I-CUBE-HUAWEI/Drivers/BSP/IKS01A3\iks01a3_motion_sensors_ex.c ****       }
 1137              		.loc 1 1556 9 is_stmt 1 view .LVU281
 1138              	.LVL116:
1556:D:/fchai/work/i-cube/I-CUBE-HUAWEI/Drivers/BSP/IKS01A3\iks01a3_motion_sensors_ex.c ****       }
 1139              		.loc 1 1556 13 is_stmt 0 view .LVU282
 1140 0012 0020     		movs	r0, #0
1564:D:/fchai/work/i-cube/I-CUBE-HUAWEI/Drivers/BSP/IKS01A3\iks01a3_motion_sensors_ex.c ****       {
1565:D:/fchai/work/i-cube/I-CUBE-HUAWEI/Drivers/BSP/IKS01A3\iks01a3_motion_sensors_ex.c ****         ret = BSP_ERROR_COMPONENT_FAILURE;
1566:D:/fchai/work/i-cube/I-CUBE-HUAWEI/Drivers/BSP/IKS01A3\iks01a3_motion_sensors_ex.c ****       }
1567:D:/fchai/work/i-cube/I-CUBE-HUAWEI/Drivers/BSP/IKS01A3\iks01a3_motion_sensors_ex.c ****       else
1568:D:/fchai/work/i-cube/I-CUBE-HUAWEI/Drivers/BSP/IKS01A3\iks01a3_motion_sensors_ex.c ****       {
ARM GAS  T:\msys\tmp\ccuiVBP3.s 			page 50


1569:D:/fchai/work/i-cube/I-CUBE-HUAWEI/Drivers/BSP/IKS01A3\iks01a3_motion_sensors_ex.c ****         ret = BSP_ERROR_NONE;
1570:D:/fchai/work/i-cube/I-CUBE-HUAWEI/Drivers/BSP/IKS01A3\iks01a3_motion_sensors_ex.c ****       }
1571:D:/fchai/work/i-cube/I-CUBE-HUAWEI/Drivers/BSP/IKS01A3\iks01a3_motion_sensors_ex.c ****       break;
1572:D:/fchai/work/i-cube/I-CUBE-HUAWEI/Drivers/BSP/IKS01A3\iks01a3_motion_sensors_ex.c **** #endif
1573:D:/fchai/work/i-cube/I-CUBE-HUAWEI/Drivers/BSP/IKS01A3\iks01a3_motion_sensors_ex.c **** 
1574:D:/fchai/work/i-cube/I-CUBE-HUAWEI/Drivers/BSP/IKS01A3\iks01a3_motion_sensors_ex.c ****     default:
1575:D:/fchai/work/i-cube/I-CUBE-HUAWEI/Drivers/BSP/IKS01A3\iks01a3_motion_sensors_ex.c ****       ret = BSP_ERROR_WRONG_PARAM;
1576:D:/fchai/work/i-cube/I-CUBE-HUAWEI/Drivers/BSP/IKS01A3\iks01a3_motion_sensors_ex.c ****       break;
1577:D:/fchai/work/i-cube/I-CUBE-HUAWEI/Drivers/BSP/IKS01A3\iks01a3_motion_sensors_ex.c ****   }
1578:D:/fchai/work/i-cube/I-CUBE-HUAWEI/Drivers/BSP/IKS01A3\iks01a3_motion_sensors_ex.c **** 
1579:D:/fchai/work/i-cube/I-CUBE-HUAWEI/Drivers/BSP/IKS01A3\iks01a3_motion_sensors_ex.c ****   return ret;
1580:D:/fchai/work/i-cube/I-CUBE-HUAWEI/Drivers/BSP/IKS01A3\iks01a3_motion_sensors_ex.c **** }
 1141              		.loc 1 1580 1 view .LVU283
 1142 0014 08BD     		pop	{r3, pc}
 1143              	.LVL117:
 1144              	.L191:
1546:D:/fchai/work/i-cube/I-CUBE-HUAWEI/Drivers/BSP/IKS01A3\iks01a3_motion_sensors_ex.c ****   {
 1145              		.loc 1 1546 3 view .LVU284
 1146 0016 6FF00100 		mvn	r0, #1
 1147              	.LVL118:
 1148              		.loc 1 1580 1 view .LVU285
 1149 001a 08BD     		pop	{r3, pc}
 1150              	.LVL119:
 1151              	.L182:
1550:D:/fchai/work/i-cube/I-CUBE-HUAWEI/Drivers/BSP/IKS01A3\iks01a3_motion_sensors_ex.c ****       {
 1152              		.loc 1 1550 7 is_stmt 1 view .LVU286
1550:D:/fchai/work/i-cube/I-CUBE-HUAWEI/Drivers/BSP/IKS01A3\iks01a3_motion_sensors_ex.c ****       {
 1153              		.loc 1 1550 62 is_stmt 0 view .LVU287
 1154 001c 044B     		ldr	r3, .L192
1550:D:/fchai/work/i-cube/I-CUBE-HUAWEI/Drivers/BSP/IKS01A3\iks01a3_motion_sensors_ex.c ****       {
 1155              		.loc 1 1550 11 view .LVU288
 1156 001e 1868     		ldr	r0, [r3]
 1157              	.LVL120:
1550:D:/fchai/work/i-cube/I-CUBE-HUAWEI/Drivers/BSP/IKS01A3\iks01a3_motion_sensors_ex.c ****       {
 1158              		.loc 1 1550 11 view .LVU289
 1159 0020 FFF7FEFF 		bl	LSM6DSO_ACC_Disable_Wake_Up_Detection
 1160              	.LVL121:
1550:D:/fchai/work/i-cube/I-CUBE-HUAWEI/Drivers/BSP/IKS01A3\iks01a3_motion_sensors_ex.c ****       {
 1161              		.loc 1 1550 10 view .LVU290
 1162 0024 0028     		cmp	r0, #0
 1163 0026 F4D0     		beq	.L185
 1164              	.L186:
1552:D:/fchai/work/i-cube/I-CUBE-HUAWEI/Drivers/BSP/IKS01A3\iks01a3_motion_sensors_ex.c ****       }
 1165              		.loc 1 1552 13 view .LVU291
 1166 0028 6FF00400 		mvn	r0, #4
 1167              		.loc 1 1580 1 view .LVU292
 1168 002c 08BD     		pop	{r3, pc}
 1169              	.L193:
 1170 002e 00BF     		.align	2
 1171              	.L192:
 1172 0030 00000000 		.word	MotionCompObj
 1173              		.cfi_endproc
 1174              	.LFE138:
 1176              		.section	.text.IKS01A3_MOTION_SENSOR_Set_Wake_Up_Threshold,"ax",%progbits
 1177              		.align	1
 1178              		.p2align 2,,3
 1179              		.global	IKS01A3_MOTION_SENSOR_Set_Wake_Up_Threshold
ARM GAS  T:\msys\tmp\ccuiVBP3.s 			page 51


 1180              		.syntax unified
 1181              		.thumb
 1182              		.thumb_func
 1183              		.fpu fpv4-sp-d16
 1185              	IKS01A3_MOTION_SENSOR_Set_Wake_Up_Threshold:
 1186              	.LVL122:
 1187              	.LFB139:
1581:D:/fchai/work/i-cube/I-CUBE-HUAWEI/Drivers/BSP/IKS01A3\iks01a3_motion_sensors_ex.c **** 
1582:D:/fchai/work/i-cube/I-CUBE-HUAWEI/Drivers/BSP/IKS01A3\iks01a3_motion_sensors_ex.c **** /**
1583:D:/fchai/work/i-cube/I-CUBE-HUAWEI/Drivers/BSP/IKS01A3\iks01a3_motion_sensors_ex.c ****  * @brief  Set the wake up detection threshold (available only for LSM6DSO and LIS2DW12 sensors)
1584:D:/fchai/work/i-cube/I-CUBE-HUAWEI/Drivers/BSP/IKS01A3\iks01a3_motion_sensors_ex.c ****  * @param  Instance the device instance
1585:D:/fchai/work/i-cube/I-CUBE-HUAWEI/Drivers/BSP/IKS01A3\iks01a3_motion_sensors_ex.c ****  * @param  Threshold the threshold to be set
1586:D:/fchai/work/i-cube/I-CUBE-HUAWEI/Drivers/BSP/IKS01A3\iks01a3_motion_sensors_ex.c ****  * @retval BSP status
1587:D:/fchai/work/i-cube/I-CUBE-HUAWEI/Drivers/BSP/IKS01A3\iks01a3_motion_sensors_ex.c ****  */
1588:D:/fchai/work/i-cube/I-CUBE-HUAWEI/Drivers/BSP/IKS01A3\iks01a3_motion_sensors_ex.c **** int32_t IKS01A3_MOTION_SENSOR_Set_Wake_Up_Threshold(uint32_t Instance, uint8_t Threshold)
1589:D:/fchai/work/i-cube/I-CUBE-HUAWEI/Drivers/BSP/IKS01A3\iks01a3_motion_sensors_ex.c **** {
 1188              		.loc 1 1589 1 is_stmt 1 view -0
 1189              		.cfi_startproc
 1190              		@ args = 0, pretend = 0, frame = 0
 1191              		@ frame_needed = 0, uses_anonymous_args = 0
1590:D:/fchai/work/i-cube/I-CUBE-HUAWEI/Drivers/BSP/IKS01A3\iks01a3_motion_sensors_ex.c ****   int32_t ret;
 1192              		.loc 1 1590 3 view .LVU294
1591:D:/fchai/work/i-cube/I-CUBE-HUAWEI/Drivers/BSP/IKS01A3\iks01a3_motion_sensors_ex.c **** 
1592:D:/fchai/work/i-cube/I-CUBE-HUAWEI/Drivers/BSP/IKS01A3\iks01a3_motion_sensors_ex.c ****   switch (Instance)
 1193              		.loc 1 1592 3 view .LVU295
1589:D:/fchai/work/i-cube/I-CUBE-HUAWEI/Drivers/BSP/IKS01A3\iks01a3_motion_sensors_ex.c ****   int32_t ret;
 1194              		.loc 1 1589 1 is_stmt 0 view .LVU296
 1195 0000 08B5     		push	{r3, lr}
 1196              	.LCFI26:
 1197              		.cfi_def_cfa_offset 8
 1198              		.cfi_offset 3, -8
 1199              		.cfi_offset 14, -4
 1200              		.loc 1 1592 3 view .LVU297
 1201 0002 58B1     		cbz	r0, .L195
 1202 0004 0128     		cmp	r0, #1
 1203 0006 06D1     		bne	.L204
