ARM GAS  T:\msys\tmp\cc0WNqff.s 			page 1


   1              		.cpu cortex-m4
   2              		.eabi_attribute 27, 1
   3              		.eabi_attribute 28, 1
   4              		.eabi_attribute 20, 1
   5              		.eabi_attribute 21, 1
   6              		.eabi_attribute 23, 3
   7              		.eabi_attribute 24, 1
   8              		.eabi_attribute 25, 1
   9              		.eabi_attribute 26, 1
  10              		.eabi_attribute 30, 2
  11              		.eabi_attribute 34, 1
  12              		.eabi_attribute 18, 4
  13              		.file	"iks01a3_env_sensors_ex.c"
  14              		.text
  15              	.Ltext0:
  16              		.cfi_sections	.debug_frame
  17              		.section	.text.IKS01A3_ENV_SENSOR_Get_DRDY_Status,"ax",%progbits
  18              		.align	1
  19              		.p2align 2,,3
  20              		.global	IKS01A3_ENV_SENSOR_Get_DRDY_Status
  21              		.arch armv7e-m
  22              		.syntax unified
  23              		.thumb
  24              		.thumb_func
  25              		.fpu fpv4-sp-d16
  27              	IKS01A3_ENV_SENSOR_Get_DRDY_Status:
  28              	.LVL0:
  29              	.LFB123:
  30              		.file 1 "D:/fchai/work/i-cube/I-CUBE-HUAWEI/Drivers/BSP/IKS01A3/iks01a3_env_sensors_ex.c"
   1:D:/fchai/work/i-cube/I-CUBE-HUAWEI/Drivers/BSP/IKS01A3\iks01a3_env_sensors_ex.c **** /**
   2:D:/fchai/work/i-cube/I-CUBE-HUAWEI/Drivers/BSP/IKS01A3\iks01a3_env_sensors_ex.c ****  ******************************************************************************
   3:D:/fchai/work/i-cube/I-CUBE-HUAWEI/Drivers/BSP/IKS01A3\iks01a3_env_sensors_ex.c ****  * @file    iks01a3_env_sensors_ex.c
   4:D:/fchai/work/i-cube/I-CUBE-HUAWEI/Drivers/BSP/IKS01A3\iks01a3_env_sensors_ex.c ****  * @author  MEMS Software Solutions Team
   5:D:/fchai/work/i-cube/I-CUBE-HUAWEI/Drivers/BSP/IKS01A3\iks01a3_env_sensors_ex.c ****  * @brief   This file provides a set of extended functions needed to manage the environmental senso
   6:D:/fchai/work/i-cube/I-CUBE-HUAWEI/Drivers/BSP/IKS01A3\iks01a3_env_sensors_ex.c ****  ******************************************************************************
   7:D:/fchai/work/i-cube/I-CUBE-HUAWEI/Drivers/BSP/IKS01A3\iks01a3_env_sensors_ex.c ****  * @attention
   8:D:/fchai/work/i-cube/I-CUBE-HUAWEI/Drivers/BSP/IKS01A3\iks01a3_env_sensors_ex.c ****  *
   9:D:/fchai/work/i-cube/I-CUBE-HUAWEI/Drivers/BSP/IKS01A3\iks01a3_env_sensors_ex.c ****  * <h2><center>&copy; Copyright (c) 2020 STMicroelectronics.
  10:D:/fchai/work/i-cube/I-CUBE-HUAWEI/Drivers/BSP/IKS01A3\iks01a3_env_sensors_ex.c ****  * All rights reserved.</center></h2>
  11:D:/fchai/work/i-cube/I-CUBE-HUAWEI/Drivers/BSP/IKS01A3\iks01a3_env_sensors_ex.c ****  *
  12:D:/fchai/work/i-cube/I-CUBE-HUAWEI/Drivers/BSP/IKS01A3\iks01a3_env_sensors_ex.c ****  * This software component is licensed by ST under BSD 3-Clause license,
  13:D:/fchai/work/i-cube/I-CUBE-HUAWEI/Drivers/BSP/IKS01A3\iks01a3_env_sensors_ex.c ****  * the "License"; You may not use this file except in compliance with the
  14:D:/fchai/work/i-cube/I-CUBE-HUAWEI/Drivers/BSP/IKS01A3\iks01a3_env_sensors_ex.c ****  * License. You may obtain a copy of the License at:
  15:D:/fchai/work/i-cube/I-CUBE-HUAWEI/Drivers/BSP/IKS01A3\iks01a3_env_sensors_ex.c ****  *                        opensource.org/licenses/BSD-3-Clause
  16:D:/fchai/work/i-cube/I-CUBE-HUAWEI/Drivers/BSP/IKS01A3\iks01a3_env_sensors_ex.c ****  *
  17:D:/fchai/work/i-cube/I-CUBE-HUAWEI/Drivers/BSP/IKS01A3\iks01a3_env_sensors_ex.c ****  ******************************************************************************
  18:D:/fchai/work/i-cube/I-CUBE-HUAWEI/Drivers/BSP/IKS01A3\iks01a3_env_sensors_ex.c ****  */
  19:D:/fchai/work/i-cube/I-CUBE-HUAWEI/Drivers/BSP/IKS01A3\iks01a3_env_sensors_ex.c **** 
  20:D:/fchai/work/i-cube/I-CUBE-HUAWEI/Drivers/BSP/IKS01A3\iks01a3_env_sensors_ex.c **** /* Includes ------------------------------------------------------------------*/
  21:D:/fchai/work/i-cube/I-CUBE-HUAWEI/Drivers/BSP/IKS01A3\iks01a3_env_sensors_ex.c **** #include "iks01a3_env_sensors_ex.h"
  22:D:/fchai/work/i-cube/I-CUBE-HUAWEI/Drivers/BSP/IKS01A3\iks01a3_env_sensors_ex.c **** 
  23:D:/fchai/work/i-cube/I-CUBE-HUAWEI/Drivers/BSP/IKS01A3\iks01a3_env_sensors_ex.c **** /** @addtogroup BSP BSP
  24:D:/fchai/work/i-cube/I-CUBE-HUAWEI/Drivers/BSP/IKS01A3\iks01a3_env_sensors_ex.c ****  * @{
  25:D:/fchai/work/i-cube/I-CUBE-HUAWEI/Drivers/BSP/IKS01A3\iks01a3_env_sensors_ex.c ****  */
  26:D:/fchai/work/i-cube/I-CUBE-HUAWEI/Drivers/BSP/IKS01A3\iks01a3_env_sensors_ex.c **** 
  27:D:/fchai/work/i-cube/I-CUBE-HUAWEI/Drivers/BSP/IKS01A3\iks01a3_env_sensors_ex.c **** /** @addtogroup IKS01A3 IKS01A3
  28:D:/fchai/work/i-cube/I-CUBE-HUAWEI/Drivers/BSP/IKS01A3\iks01a3_env_sensors_ex.c ****  * @{
ARM GAS  T:\msys\tmp\cc0WNqff.s 			page 2


  29:D:/fchai/work/i-cube/I-CUBE-HUAWEI/Drivers/BSP/IKS01A3\iks01a3_env_sensors_ex.c ****  */
  30:D:/fchai/work/i-cube/I-CUBE-HUAWEI/Drivers/BSP/IKS01A3\iks01a3_env_sensors_ex.c **** 
  31:D:/fchai/work/i-cube/I-CUBE-HUAWEI/Drivers/BSP/IKS01A3\iks01a3_env_sensors_ex.c **** /** @defgroup IKS01A3_ENV_SENSOR_EX IKS01A3 ENV SENSOR EX
  32:D:/fchai/work/i-cube/I-CUBE-HUAWEI/Drivers/BSP/IKS01A3\iks01a3_env_sensors_ex.c ****  * @{
  33:D:/fchai/work/i-cube/I-CUBE-HUAWEI/Drivers/BSP/IKS01A3\iks01a3_env_sensors_ex.c ****  */
  34:D:/fchai/work/i-cube/I-CUBE-HUAWEI/Drivers/BSP/IKS01A3\iks01a3_env_sensors_ex.c **** 
  35:D:/fchai/work/i-cube/I-CUBE-HUAWEI/Drivers/BSP/IKS01A3\iks01a3_env_sensors_ex.c **** /** @defgroup IKS01A3_ENV_SENSOR_EX_Imported_Variables IKS01A3 ENV SENSOR EX Imported Variables
  36:D:/fchai/work/i-cube/I-CUBE-HUAWEI/Drivers/BSP/IKS01A3\iks01a3_env_sensors_ex.c ****  * @{
  37:D:/fchai/work/i-cube/I-CUBE-HUAWEI/Drivers/BSP/IKS01A3\iks01a3_env_sensors_ex.c ****  */
  38:D:/fchai/work/i-cube/I-CUBE-HUAWEI/Drivers/BSP/IKS01A3\iks01a3_env_sensors_ex.c **** 
  39:D:/fchai/work/i-cube/I-CUBE-HUAWEI/Drivers/BSP/IKS01A3\iks01a3_env_sensors_ex.c **** extern void *EnvCompObj[IKS01A3_ENV_INSTANCES_NBR];
  40:D:/fchai/work/i-cube/I-CUBE-HUAWEI/Drivers/BSP/IKS01A3\iks01a3_env_sensors_ex.c **** 
  41:D:/fchai/work/i-cube/I-CUBE-HUAWEI/Drivers/BSP/IKS01A3\iks01a3_env_sensors_ex.c **** /**
  42:D:/fchai/work/i-cube/I-CUBE-HUAWEI/Drivers/BSP/IKS01A3\iks01a3_env_sensors_ex.c ****  * @}
  43:D:/fchai/work/i-cube/I-CUBE-HUAWEI/Drivers/BSP/IKS01A3\iks01a3_env_sensors_ex.c ****  */
  44:D:/fchai/work/i-cube/I-CUBE-HUAWEI/Drivers/BSP/IKS01A3\iks01a3_env_sensors_ex.c **** 
  45:D:/fchai/work/i-cube/I-CUBE-HUAWEI/Drivers/BSP/IKS01A3\iks01a3_env_sensors_ex.c **** /** @defgroup IKS01A3_ENV_SENSOR_EX_Exported_Functions IKS01A3 ENV SENSOR EX Exported Functions
  46:D:/fchai/work/i-cube/I-CUBE-HUAWEI/Drivers/BSP/IKS01A3\iks01a3_env_sensors_ex.c ****  * @{
  47:D:/fchai/work/i-cube/I-CUBE-HUAWEI/Drivers/BSP/IKS01A3\iks01a3_env_sensors_ex.c ****  */
  48:D:/fchai/work/i-cube/I-CUBE-HUAWEI/Drivers/BSP/IKS01A3\iks01a3_env_sensors_ex.c **** 
  49:D:/fchai/work/i-cube/I-CUBE-HUAWEI/Drivers/BSP/IKS01A3\iks01a3_env_sensors_ex.c **** /**
  50:D:/fchai/work/i-cube/I-CUBE-HUAWEI/Drivers/BSP/IKS01A3\iks01a3_env_sensors_ex.c ****  * @brief  Get the status of data ready bit (available only for HTS221, LPS22HH, STTS751, LPS33HW s
  51:D:/fchai/work/i-cube/I-CUBE-HUAWEI/Drivers/BSP/IKS01A3\iks01a3_env_sensors_ex.c ****  * @param  Instance the device instance
  52:D:/fchai/work/i-cube/I-CUBE-HUAWEI/Drivers/BSP/IKS01A3\iks01a3_env_sensors_ex.c ****  * @param  Function Environmental sensor function. Could be:
  53:D:/fchai/work/i-cube/I-CUBE-HUAWEI/Drivers/BSP/IKS01A3\iks01a3_env_sensors_ex.c ****  *         - ENV_HUMIDITY or ENV_TEMPERATURE for instance IKS01A3_HTS221_0
  54:D:/fchai/work/i-cube/I-CUBE-HUAWEI/Drivers/BSP/IKS01A3\iks01a3_env_sensors_ex.c ****  *         - ENV_PRESSURE or ENV_TEMPERATURE for instance IKS01A3_LPS22HH_0
  55:D:/fchai/work/i-cube/I-CUBE-HUAWEI/Drivers/BSP/IKS01A3\iks01a3_env_sensors_ex.c ****  *         - ENV_TEMPERATURE for instance IKS01A3_STTS751_0
  56:D:/fchai/work/i-cube/I-CUBE-HUAWEI/Drivers/BSP/IKS01A3\iks01a3_env_sensors_ex.c ****  * @param  Status the pointer to the status
  57:D:/fchai/work/i-cube/I-CUBE-HUAWEI/Drivers/BSP/IKS01A3\iks01a3_env_sensors_ex.c ****  * @retval BSP status
  58:D:/fchai/work/i-cube/I-CUBE-HUAWEI/Drivers/BSP/IKS01A3\iks01a3_env_sensors_ex.c ****  */
  59:D:/fchai/work/i-cube/I-CUBE-HUAWEI/Drivers/BSP/IKS01A3\iks01a3_env_sensors_ex.c **** int32_t IKS01A3_ENV_SENSOR_Get_DRDY_Status(uint32_t Instance, uint32_t Function, uint8_t *Status)
  60:D:/fchai/work/i-cube/I-CUBE-HUAWEI/Drivers/BSP/IKS01A3\iks01a3_env_sensors_ex.c **** {
  31              		.loc 1 60 1 view -0
  32              		.cfi_startproc
  33              		@ args = 0, pretend = 0, frame = 0
  34              		@ frame_needed = 0, uses_anonymous_args = 0
  61:D:/fchai/work/i-cube/I-CUBE-HUAWEI/Drivers/BSP/IKS01A3\iks01a3_env_sensors_ex.c ****   int32_t ret;
  35              		.loc 1 61 3 view .LVU1
  62:D:/fchai/work/i-cube/I-CUBE-HUAWEI/Drivers/BSP/IKS01A3\iks01a3_env_sensors_ex.c **** 
  63:D:/fchai/work/i-cube/I-CUBE-HUAWEI/Drivers/BSP/IKS01A3\iks01a3_env_sensors_ex.c ****   switch (Instance)
  36              		.loc 1 63 3 view .LVU2
  37 0000 0128     		cmp	r0, #1
  60:D:/fchai/work/i-cube/I-CUBE-HUAWEI/Drivers/BSP/IKS01A3\iks01a3_env_sensors_ex.c ****   int32_t ret;
  38              		.loc 1 60 1 is_stmt 0 view .LVU3
  39 0002 08B5     		push	{r3, lr}
  40              	.LCFI0:
  41              		.cfi_def_cfa_offset 8
  42              		.cfi_offset 3, -8
  43              		.cfi_offset 14, -4
  60:D:/fchai/work/i-cube/I-CUBE-HUAWEI/Drivers/BSP/IKS01A3\iks01a3_env_sensors_ex.c ****   int32_t ret;
  44              		.loc 1 60 1 view .LVU4
  45 0004 0B46     		mov	r3, r1
  46 0006 1146     		mov	r1, r2
  47              	.LVL1:
  48              		.loc 1 63 3 view .LVU5
  49 0008 05D0     		beq	.L2
  50 000a 0228     		cmp	r0, #2
ARM GAS  T:\msys\tmp\cc0WNqff.s 			page 3


  51 000c 19D0     		beq	.L3
  52 000e 70B1     		cbz	r0, .L24
  53 0010 6FF00100 		mvn	r0, #1
  54              	.LVL2:
  64:D:/fchai/work/i-cube/I-CUBE-HUAWEI/Drivers/BSP/IKS01A3\iks01a3_env_sensors_ex.c ****   {
  65:D:/fchai/work/i-cube/I-CUBE-HUAWEI/Drivers/BSP/IKS01A3\iks01a3_env_sensors_ex.c **** #if (USE_IKS01A3_ENV_SENSOR_HTS221_0 == 1)
  66:D:/fchai/work/i-cube/I-CUBE-HUAWEI/Drivers/BSP/IKS01A3\iks01a3_env_sensors_ex.c ****     case IKS01A3_HTS221_0:
  67:D:/fchai/work/i-cube/I-CUBE-HUAWEI/Drivers/BSP/IKS01A3\iks01a3_env_sensors_ex.c ****       if ((Function & ENV_HUMIDITY) == ENV_HUMIDITY)
  68:D:/fchai/work/i-cube/I-CUBE-HUAWEI/Drivers/BSP/IKS01A3\iks01a3_env_sensors_ex.c ****       {
  69:D:/fchai/work/i-cube/I-CUBE-HUAWEI/Drivers/BSP/IKS01A3\iks01a3_env_sensors_ex.c ****         if (HTS221_HUM_Get_DRDY_Status(EnvCompObj[Instance], Status) != BSP_ERROR_NONE)
  70:D:/fchai/work/i-cube/I-CUBE-HUAWEI/Drivers/BSP/IKS01A3\iks01a3_env_sensors_ex.c ****         {
  71:D:/fchai/work/i-cube/I-CUBE-HUAWEI/Drivers/BSP/IKS01A3\iks01a3_env_sensors_ex.c ****           ret = BSP_ERROR_COMPONENT_FAILURE;
  72:D:/fchai/work/i-cube/I-CUBE-HUAWEI/Drivers/BSP/IKS01A3\iks01a3_env_sensors_ex.c ****         }
  73:D:/fchai/work/i-cube/I-CUBE-HUAWEI/Drivers/BSP/IKS01A3\iks01a3_env_sensors_ex.c ****         else
  74:D:/fchai/work/i-cube/I-CUBE-HUAWEI/Drivers/BSP/IKS01A3\iks01a3_env_sensors_ex.c ****         {
  75:D:/fchai/work/i-cube/I-CUBE-HUAWEI/Drivers/BSP/IKS01A3\iks01a3_env_sensors_ex.c ****           ret = BSP_ERROR_NONE;
  76:D:/fchai/work/i-cube/I-CUBE-HUAWEI/Drivers/BSP/IKS01A3\iks01a3_env_sensors_ex.c ****         }
  77:D:/fchai/work/i-cube/I-CUBE-HUAWEI/Drivers/BSP/IKS01A3\iks01a3_env_sensors_ex.c ****       }
  78:D:/fchai/work/i-cube/I-CUBE-HUAWEI/Drivers/BSP/IKS01A3\iks01a3_env_sensors_ex.c ****       else if ((Function & ENV_TEMPERATURE) == ENV_TEMPERATURE)
  79:D:/fchai/work/i-cube/I-CUBE-HUAWEI/Drivers/BSP/IKS01A3\iks01a3_env_sensors_ex.c ****       {
  80:D:/fchai/work/i-cube/I-CUBE-HUAWEI/Drivers/BSP/IKS01A3\iks01a3_env_sensors_ex.c ****         if (HTS221_TEMP_Get_DRDY_Status(EnvCompObj[Instance], Status) != BSP_ERROR_NONE)
  81:D:/fchai/work/i-cube/I-CUBE-HUAWEI/Drivers/BSP/IKS01A3\iks01a3_env_sensors_ex.c ****         {
  82:D:/fchai/work/i-cube/I-CUBE-HUAWEI/Drivers/BSP/IKS01A3\iks01a3_env_sensors_ex.c ****           ret = BSP_ERROR_COMPONENT_FAILURE;
  83:D:/fchai/work/i-cube/I-CUBE-HUAWEI/Drivers/BSP/IKS01A3\iks01a3_env_sensors_ex.c ****         }
  84:D:/fchai/work/i-cube/I-CUBE-HUAWEI/Drivers/BSP/IKS01A3\iks01a3_env_sensors_ex.c ****         else
  85:D:/fchai/work/i-cube/I-CUBE-HUAWEI/Drivers/BSP/IKS01A3\iks01a3_env_sensors_ex.c ****         {
  86:D:/fchai/work/i-cube/I-CUBE-HUAWEI/Drivers/BSP/IKS01A3\iks01a3_env_sensors_ex.c ****           ret = BSP_ERROR_NONE;
  87:D:/fchai/work/i-cube/I-CUBE-HUAWEI/Drivers/BSP/IKS01A3\iks01a3_env_sensors_ex.c ****         }
  88:D:/fchai/work/i-cube/I-CUBE-HUAWEI/Drivers/BSP/IKS01A3\iks01a3_env_sensors_ex.c ****       }
  89:D:/fchai/work/i-cube/I-CUBE-HUAWEI/Drivers/BSP/IKS01A3\iks01a3_env_sensors_ex.c ****       else
  90:D:/fchai/work/i-cube/I-CUBE-HUAWEI/Drivers/BSP/IKS01A3\iks01a3_env_sensors_ex.c ****       {
  91:D:/fchai/work/i-cube/I-CUBE-HUAWEI/Drivers/BSP/IKS01A3\iks01a3_env_sensors_ex.c ****         ret = BSP_ERROR_COMPONENT_FAILURE;
  92:D:/fchai/work/i-cube/I-CUBE-HUAWEI/Drivers/BSP/IKS01A3\iks01a3_env_sensors_ex.c ****       }
  93:D:/fchai/work/i-cube/I-CUBE-HUAWEI/Drivers/BSP/IKS01A3\iks01a3_env_sensors_ex.c ****       break;
  94:D:/fchai/work/i-cube/I-CUBE-HUAWEI/Drivers/BSP/IKS01A3\iks01a3_env_sensors_ex.c **** #endif
  95:D:/fchai/work/i-cube/I-CUBE-HUAWEI/Drivers/BSP/IKS01A3\iks01a3_env_sensors_ex.c **** 
  96:D:/fchai/work/i-cube/I-CUBE-HUAWEI/Drivers/BSP/IKS01A3\iks01a3_env_sensors_ex.c **** #if (USE_IKS01A3_ENV_SENSOR_LPS22HH_0 == 1)
  97:D:/fchai/work/i-cube/I-CUBE-HUAWEI/Drivers/BSP/IKS01A3\iks01a3_env_sensors_ex.c ****     case IKS01A3_LPS22HH_0:
  98:D:/fchai/work/i-cube/I-CUBE-HUAWEI/Drivers/BSP/IKS01A3\iks01a3_env_sensors_ex.c ****       if ((Function & ENV_PRESSURE) == ENV_PRESSURE)
  99:D:/fchai/work/i-cube/I-CUBE-HUAWEI/Drivers/BSP/IKS01A3\iks01a3_env_sensors_ex.c ****       {
 100:D:/fchai/work/i-cube/I-CUBE-HUAWEI/Drivers/BSP/IKS01A3\iks01a3_env_sensors_ex.c ****         if (LPS22HH_PRESS_Get_DRDY_Status(EnvCompObj[Instance], Status) != BSP_ERROR_NONE)
 101:D:/fchai/work/i-cube/I-CUBE-HUAWEI/Drivers/BSP/IKS01A3\iks01a3_env_sensors_ex.c ****         {
 102:D:/fchai/work/i-cube/I-CUBE-HUAWEI/Drivers/BSP/IKS01A3\iks01a3_env_sensors_ex.c ****           ret = BSP_ERROR_COMPONENT_FAILURE;
 103:D:/fchai/work/i-cube/I-CUBE-HUAWEI/Drivers/BSP/IKS01A3\iks01a3_env_sensors_ex.c ****         }
 104:D:/fchai/work/i-cube/I-CUBE-HUAWEI/Drivers/BSP/IKS01A3\iks01a3_env_sensors_ex.c ****         else
 105:D:/fchai/work/i-cube/I-CUBE-HUAWEI/Drivers/BSP/IKS01A3\iks01a3_env_sensors_ex.c ****         {
 106:D:/fchai/work/i-cube/I-CUBE-HUAWEI/Drivers/BSP/IKS01A3\iks01a3_env_sensors_ex.c ****           ret = BSP_ERROR_NONE;
 107:D:/fchai/work/i-cube/I-CUBE-HUAWEI/Drivers/BSP/IKS01A3\iks01a3_env_sensors_ex.c ****         }
 108:D:/fchai/work/i-cube/I-CUBE-HUAWEI/Drivers/BSP/IKS01A3\iks01a3_env_sensors_ex.c ****       }
 109:D:/fchai/work/i-cube/I-CUBE-HUAWEI/Drivers/BSP/IKS01A3\iks01a3_env_sensors_ex.c ****       else if ((Function & ENV_TEMPERATURE) == ENV_TEMPERATURE)
 110:D:/fchai/work/i-cube/I-CUBE-HUAWEI/Drivers/BSP/IKS01A3\iks01a3_env_sensors_ex.c ****       {
 111:D:/fchai/work/i-cube/I-CUBE-HUAWEI/Drivers/BSP/IKS01A3\iks01a3_env_sensors_ex.c ****         if (LPS22HH_TEMP_Get_DRDY_Status(EnvCompObj[Instance], Status) != BSP_ERROR_NONE)
 112:D:/fchai/work/i-cube/I-CUBE-HUAWEI/Drivers/BSP/IKS01A3\iks01a3_env_sensors_ex.c ****         {
 113:D:/fchai/work/i-cube/I-CUBE-HUAWEI/Drivers/BSP/IKS01A3\iks01a3_env_sensors_ex.c ****           ret = BSP_ERROR_COMPONENT_FAILURE;
 114:D:/fchai/work/i-cube/I-CUBE-HUAWEI/Drivers/BSP/IKS01A3\iks01a3_env_sensors_ex.c ****         }
 115:D:/fchai/work/i-cube/I-CUBE-HUAWEI/Drivers/BSP/IKS01A3\iks01a3_env_sensors_ex.c ****         else
 116:D:/fchai/work/i-cube/I-CUBE-HUAWEI/Drivers/BSP/IKS01A3\iks01a3_env_sensors_ex.c ****         {
ARM GAS  T:\msys\tmp\cc0WNqff.s 			page 4


 117:D:/fchai/work/i-cube/I-CUBE-HUAWEI/Drivers/BSP/IKS01A3\iks01a3_env_sensors_ex.c ****           ret = BSP_ERROR_NONE;
 118:D:/fchai/work/i-cube/I-CUBE-HUAWEI/Drivers/BSP/IKS01A3\iks01a3_env_sensors_ex.c ****         }
 119:D:/fchai/work/i-cube/I-CUBE-HUAWEI/Drivers/BSP/IKS01A3\iks01a3_env_sensors_ex.c ****       }
 120:D:/fchai/work/i-cube/I-CUBE-HUAWEI/Drivers/BSP/IKS01A3\iks01a3_env_sensors_ex.c ****       else
 121:D:/fchai/work/i-cube/I-CUBE-HUAWEI/Drivers/BSP/IKS01A3\iks01a3_env_sensors_ex.c ****       {
 122:D:/fchai/work/i-cube/I-CUBE-HUAWEI/Drivers/BSP/IKS01A3\iks01a3_env_sensors_ex.c ****         ret = BSP_ERROR_COMPONENT_FAILURE;
 123:D:/fchai/work/i-cube/I-CUBE-HUAWEI/Drivers/BSP/IKS01A3\iks01a3_env_sensors_ex.c ****       }
 124:D:/fchai/work/i-cube/I-CUBE-HUAWEI/Drivers/BSP/IKS01A3\iks01a3_env_sensors_ex.c ****       break;
 125:D:/fchai/work/i-cube/I-CUBE-HUAWEI/Drivers/BSP/IKS01A3\iks01a3_env_sensors_ex.c **** #endif
 126:D:/fchai/work/i-cube/I-CUBE-HUAWEI/Drivers/BSP/IKS01A3\iks01a3_env_sensors_ex.c **** 
 127:D:/fchai/work/i-cube/I-CUBE-HUAWEI/Drivers/BSP/IKS01A3\iks01a3_env_sensors_ex.c **** #if (USE_IKS01A3_ENV_SENSOR_STTS751_0 == 1)
 128:D:/fchai/work/i-cube/I-CUBE-HUAWEI/Drivers/BSP/IKS01A3\iks01a3_env_sensors_ex.c ****     case IKS01A3_STTS751_0:
 129:D:/fchai/work/i-cube/I-CUBE-HUAWEI/Drivers/BSP/IKS01A3\iks01a3_env_sensors_ex.c ****       if ((Function & ENV_TEMPERATURE) == ENV_TEMPERATURE)
 130:D:/fchai/work/i-cube/I-CUBE-HUAWEI/Drivers/BSP/IKS01A3\iks01a3_env_sensors_ex.c ****       {
 131:D:/fchai/work/i-cube/I-CUBE-HUAWEI/Drivers/BSP/IKS01A3\iks01a3_env_sensors_ex.c ****         if (STTS751_TEMP_Get_DRDY_Status(EnvCompObj[Instance], Status) != BSP_ERROR_NONE)
 132:D:/fchai/work/i-cube/I-CUBE-HUAWEI/Drivers/BSP/IKS01A3\iks01a3_env_sensors_ex.c ****         {
 133:D:/fchai/work/i-cube/I-CUBE-HUAWEI/Drivers/BSP/IKS01A3\iks01a3_env_sensors_ex.c ****           ret = BSP_ERROR_COMPONENT_FAILURE;
 134:D:/fchai/work/i-cube/I-CUBE-HUAWEI/Drivers/BSP/IKS01A3\iks01a3_env_sensors_ex.c ****         }
 135:D:/fchai/work/i-cube/I-CUBE-HUAWEI/Drivers/BSP/IKS01A3\iks01a3_env_sensors_ex.c ****         else
 136:D:/fchai/work/i-cube/I-CUBE-HUAWEI/Drivers/BSP/IKS01A3\iks01a3_env_sensors_ex.c ****         {
 137:D:/fchai/work/i-cube/I-CUBE-HUAWEI/Drivers/BSP/IKS01A3\iks01a3_env_sensors_ex.c ****           ret = BSP_ERROR_NONE;
 138:D:/fchai/work/i-cube/I-CUBE-HUAWEI/Drivers/BSP/IKS01A3\iks01a3_env_sensors_ex.c ****         }
 139:D:/fchai/work/i-cube/I-CUBE-HUAWEI/Drivers/BSP/IKS01A3\iks01a3_env_sensors_ex.c ****       }
 140:D:/fchai/work/i-cube/I-CUBE-HUAWEI/Drivers/BSP/IKS01A3\iks01a3_env_sensors_ex.c ****       else
 141:D:/fchai/work/i-cube/I-CUBE-HUAWEI/Drivers/BSP/IKS01A3\iks01a3_env_sensors_ex.c ****       {
 142:D:/fchai/work/i-cube/I-CUBE-HUAWEI/Drivers/BSP/IKS01A3\iks01a3_env_sensors_ex.c ****         ret = BSP_ERROR_COMPONENT_FAILURE;
 143:D:/fchai/work/i-cube/I-CUBE-HUAWEI/Drivers/BSP/IKS01A3\iks01a3_env_sensors_ex.c ****       }
 144:D:/fchai/work/i-cube/I-CUBE-HUAWEI/Drivers/BSP/IKS01A3\iks01a3_env_sensors_ex.c ****       break;
 145:D:/fchai/work/i-cube/I-CUBE-HUAWEI/Drivers/BSP/IKS01A3\iks01a3_env_sensors_ex.c **** #endif
 146:D:/fchai/work/i-cube/I-CUBE-HUAWEI/Drivers/BSP/IKS01A3\iks01a3_env_sensors_ex.c **** 
 147:D:/fchai/work/i-cube/I-CUBE-HUAWEI/Drivers/BSP/IKS01A3\iks01a3_env_sensors_ex.c **** #if (USE_IKS01A3_ENV_SENSOR_LPS33HW_0 == 1)
 148:D:/fchai/work/i-cube/I-CUBE-HUAWEI/Drivers/BSP/IKS01A3\iks01a3_env_sensors_ex.c ****     case IKS01A3_LPS33HW_0:
 149:D:/fchai/work/i-cube/I-CUBE-HUAWEI/Drivers/BSP/IKS01A3\iks01a3_env_sensors_ex.c ****       if ((Function & ENV_PRESSURE) == ENV_PRESSURE)
 150:D:/fchai/work/i-cube/I-CUBE-HUAWEI/Drivers/BSP/IKS01A3\iks01a3_env_sensors_ex.c ****       {
 151:D:/fchai/work/i-cube/I-CUBE-HUAWEI/Drivers/BSP/IKS01A3\iks01a3_env_sensors_ex.c ****         if (LPS33HW_PRESS_Get_DRDY_Status(EnvCompObj[Instance], Status) != BSP_ERROR_NONE)
 152:D:/fchai/work/i-cube/I-CUBE-HUAWEI/Drivers/BSP/IKS01A3\iks01a3_env_sensors_ex.c ****         {
 153:D:/fchai/work/i-cube/I-CUBE-HUAWEI/Drivers/BSP/IKS01A3\iks01a3_env_sensors_ex.c ****           ret = BSP_ERROR_COMPONENT_FAILURE;
 154:D:/fchai/work/i-cube/I-CUBE-HUAWEI/Drivers/BSP/IKS01A3\iks01a3_env_sensors_ex.c ****         }
 155:D:/fchai/work/i-cube/I-CUBE-HUAWEI/Drivers/BSP/IKS01A3\iks01a3_env_sensors_ex.c ****         else
 156:D:/fchai/work/i-cube/I-CUBE-HUAWEI/Drivers/BSP/IKS01A3\iks01a3_env_sensors_ex.c ****         {
 157:D:/fchai/work/i-cube/I-CUBE-HUAWEI/Drivers/BSP/IKS01A3\iks01a3_env_sensors_ex.c ****           ret = BSP_ERROR_NONE;
 158:D:/fchai/work/i-cube/I-CUBE-HUAWEI/Drivers/BSP/IKS01A3\iks01a3_env_sensors_ex.c ****         }
 159:D:/fchai/work/i-cube/I-CUBE-HUAWEI/Drivers/BSP/IKS01A3\iks01a3_env_sensors_ex.c ****       }
 160:D:/fchai/work/i-cube/I-CUBE-HUAWEI/Drivers/BSP/IKS01A3\iks01a3_env_sensors_ex.c ****       else if ((Function & ENV_TEMPERATURE) == ENV_TEMPERATURE)
 161:D:/fchai/work/i-cube/I-CUBE-HUAWEI/Drivers/BSP/IKS01A3\iks01a3_env_sensors_ex.c ****       {
 162:D:/fchai/work/i-cube/I-CUBE-HUAWEI/Drivers/BSP/IKS01A3\iks01a3_env_sensors_ex.c ****         if (LPS33HW_TEMP_Get_DRDY_Status(EnvCompObj[Instance], Status) != BSP_ERROR_NONE)
 163:D:/fchai/work/i-cube/I-CUBE-HUAWEI/Drivers/BSP/IKS01A3\iks01a3_env_sensors_ex.c ****         {
 164:D:/fchai/work/i-cube/I-CUBE-HUAWEI/Drivers/BSP/IKS01A3\iks01a3_env_sensors_ex.c ****           ret = BSP_ERROR_COMPONENT_FAILURE;
 165:D:/fchai/work/i-cube/I-CUBE-HUAWEI/Drivers/BSP/IKS01A3\iks01a3_env_sensors_ex.c ****         }
 166:D:/fchai/work/i-cube/I-CUBE-HUAWEI/Drivers/BSP/IKS01A3\iks01a3_env_sensors_ex.c ****         else
 167:D:/fchai/work/i-cube/I-CUBE-HUAWEI/Drivers/BSP/IKS01A3\iks01a3_env_sensors_ex.c ****         {
 168:D:/fchai/work/i-cube/I-CUBE-HUAWEI/Drivers/BSP/IKS01A3\iks01a3_env_sensors_ex.c ****           ret = BSP_ERROR_NONE;
 169:D:/fchai/work/i-cube/I-CUBE-HUAWEI/Drivers/BSP/IKS01A3\iks01a3_env_sensors_ex.c ****         }
 170:D:/fchai/work/i-cube/I-CUBE-HUAWEI/Drivers/BSP/IKS01A3\iks01a3_env_sensors_ex.c ****       }
 171:D:/fchai/work/i-cube/I-CUBE-HUAWEI/Drivers/BSP/IKS01A3\iks01a3_env_sensors_ex.c ****       else
 172:D:/fchai/work/i-cube/I-CUBE-HUAWEI/Drivers/BSP/IKS01A3\iks01a3_env_sensors_ex.c ****       {
 173:D:/fchai/work/i-cube/I-CUBE-HUAWEI/Drivers/BSP/IKS01A3\iks01a3_env_sensors_ex.c ****         ret = BSP_ERROR_COMPONENT_FAILURE;
ARM GAS  T:\msys\tmp\cc0WNqff.s 			page 5


 174:D:/fchai/work/i-cube/I-CUBE-HUAWEI/Drivers/BSP/IKS01A3\iks01a3_env_sensors_ex.c ****       }
 175:D:/fchai/work/i-cube/I-CUBE-HUAWEI/Drivers/BSP/IKS01A3\iks01a3_env_sensors_ex.c ****       break;
 176:D:/fchai/work/i-cube/I-CUBE-HUAWEI/Drivers/BSP/IKS01A3\iks01a3_env_sensors_ex.c **** #endif
 177:D:/fchai/work/i-cube/I-CUBE-HUAWEI/Drivers/BSP/IKS01A3\iks01a3_env_sensors_ex.c **** 
 178:D:/fchai/work/i-cube/I-CUBE-HUAWEI/Drivers/BSP/IKS01A3\iks01a3_env_sensors_ex.c **** #if (USE_IKS01A3_ENV_SENSOR_STTS22H_0 == 1)
 179:D:/fchai/work/i-cube/I-CUBE-HUAWEI/Drivers/BSP/IKS01A3\iks01a3_env_sensors_ex.c ****     case IKS01A3_STTS22H_0:
 180:D:/fchai/work/i-cube/I-CUBE-HUAWEI/Drivers/BSP/IKS01A3\iks01a3_env_sensors_ex.c ****       if ((Function & ENV_TEMPERATURE) == ENV_TEMPERATURE)
 181:D:/fchai/work/i-cube/I-CUBE-HUAWEI/Drivers/BSP/IKS01A3\iks01a3_env_sensors_ex.c ****       {
 182:D:/fchai/work/i-cube/I-CUBE-HUAWEI/Drivers/BSP/IKS01A3\iks01a3_env_sensors_ex.c ****         if (STTS22H_TEMP_Get_DRDY_Status(EnvCompObj[Instance], Status) != BSP_ERROR_NONE)
 183:D:/fchai/work/i-cube/I-CUBE-HUAWEI/Drivers/BSP/IKS01A3\iks01a3_env_sensors_ex.c ****         {
 184:D:/fchai/work/i-cube/I-CUBE-HUAWEI/Drivers/BSP/IKS01A3\iks01a3_env_sensors_ex.c ****           ret = BSP_ERROR_COMPONENT_FAILURE;
 185:D:/fchai/work/i-cube/I-CUBE-HUAWEI/Drivers/BSP/IKS01A3\iks01a3_env_sensors_ex.c ****         }
 186:D:/fchai/work/i-cube/I-CUBE-HUAWEI/Drivers/BSP/IKS01A3\iks01a3_env_sensors_ex.c ****         else
 187:D:/fchai/work/i-cube/I-CUBE-HUAWEI/Drivers/BSP/IKS01A3\iks01a3_env_sensors_ex.c ****         {
 188:D:/fchai/work/i-cube/I-CUBE-HUAWEI/Drivers/BSP/IKS01A3\iks01a3_env_sensors_ex.c ****           ret = BSP_ERROR_NONE;
 189:D:/fchai/work/i-cube/I-CUBE-HUAWEI/Drivers/BSP/IKS01A3\iks01a3_env_sensors_ex.c ****         }
 190:D:/fchai/work/i-cube/I-CUBE-HUAWEI/Drivers/BSP/IKS01A3\iks01a3_env_sensors_ex.c ****       }
 191:D:/fchai/work/i-cube/I-CUBE-HUAWEI/Drivers/BSP/IKS01A3\iks01a3_env_sensors_ex.c ****       else
 192:D:/fchai/work/i-cube/I-CUBE-HUAWEI/Drivers/BSP/IKS01A3\iks01a3_env_sensors_ex.c ****       {
 193:D:/fchai/work/i-cube/I-CUBE-HUAWEI/Drivers/BSP/IKS01A3\iks01a3_env_sensors_ex.c ****         ret = BSP_ERROR_COMPONENT_FAILURE;
 194:D:/fchai/work/i-cube/I-CUBE-HUAWEI/Drivers/BSP/IKS01A3\iks01a3_env_sensors_ex.c ****       }
 195:D:/fchai/work/i-cube/I-CUBE-HUAWEI/Drivers/BSP/IKS01A3\iks01a3_env_sensors_ex.c ****       break;
 196:D:/fchai/work/i-cube/I-CUBE-HUAWEI/Drivers/BSP/IKS01A3\iks01a3_env_sensors_ex.c **** #endif
 197:D:/fchai/work/i-cube/I-CUBE-HUAWEI/Drivers/BSP/IKS01A3\iks01a3_env_sensors_ex.c **** 
 198:D:/fchai/work/i-cube/I-CUBE-HUAWEI/Drivers/BSP/IKS01A3\iks01a3_env_sensors_ex.c ****     default:
 199:D:/fchai/work/i-cube/I-CUBE-HUAWEI/Drivers/BSP/IKS01A3\iks01a3_env_sensors_ex.c ****       ret = BSP_ERROR_WRONG_PARAM;
 200:D:/fchai/work/i-cube/I-CUBE-HUAWEI/Drivers/BSP/IKS01A3\iks01a3_env_sensors_ex.c ****       break;
 201:D:/fchai/work/i-cube/I-CUBE-HUAWEI/Drivers/BSP/IKS01A3\iks01a3_env_sensors_ex.c ****   }
 202:D:/fchai/work/i-cube/I-CUBE-HUAWEI/Drivers/BSP/IKS01A3\iks01a3_env_sensors_ex.c **** 
 203:D:/fchai/work/i-cube/I-CUBE-HUAWEI/Drivers/BSP/IKS01A3\iks01a3_env_sensors_ex.c ****   return ret;
  55              		.loc 1 203 3 is_stmt 1 view .LVU6
 204:D:/fchai/work/i-cube/I-CUBE-HUAWEI/Drivers/BSP/IKS01A3\iks01a3_env_sensors_ex.c **** }
  56              		.loc 1 204 1 is_stmt 0 view .LVU7
  57 0014 08BD     		pop	{r3, pc}
  58              	.LVL3:
  59              	.L2:
  98:D:/fchai/work/i-cube/I-CUBE-HUAWEI/Drivers/BSP/IKS01A3\iks01a3_env_sensors_ex.c ****       {
  60              		.loc 1 98 7 is_stmt 1 view .LVU8
  98:D:/fchai/work/i-cube/I-CUBE-HUAWEI/Drivers/BSP/IKS01A3\iks01a3_env_sensors_ex.c ****       {
  61              		.loc 1 98 10 is_stmt 0 view .LVU9
  62 0016 9807     		lsls	r0, r3, #30
  63              	.LVL4:
  98:D:/fchai/work/i-cube/I-CUBE-HUAWEI/Drivers/BSP/IKS01A3\iks01a3_env_sensors_ex.c ****       {
  64              		.loc 1 98 10 view .LVU10
  65 0018 24D4     		bmi	.L25
 109:D:/fchai/work/i-cube/I-CUBE-HUAWEI/Drivers/BSP/IKS01A3\iks01a3_env_sensors_ex.c ****       {
  66              		.loc 1 109 12 is_stmt 1 view .LVU11
 109:D:/fchai/work/i-cube/I-CUBE-HUAWEI/Drivers/BSP/IKS01A3\iks01a3_env_sensors_ex.c ****       {
  67              		.loc 1 109 15 is_stmt 0 view .LVU12
  68 001a DA07     		lsls	r2, r3, #31
  69              	.LVL5:
 109:D:/fchai/work/i-cube/I-CUBE-HUAWEI/Drivers/BSP/IKS01A3\iks01a3_env_sensors_ex.c ****       {
  70              		.loc 1 109 15 view .LVU13
  71 001c 04D5     		bpl	.L7
 111:D:/fchai/work/i-cube/I-CUBE-HUAWEI/Drivers/BSP/IKS01A3\iks01a3_env_sensors_ex.c ****         {
  72              		.loc 1 111 9 is_stmt 1 view .LVU14
 111:D:/fchai/work/i-cube/I-CUBE-HUAWEI/Drivers/BSP/IKS01A3\iks01a3_env_sensors_ex.c ****         {
ARM GAS  T:\msys\tmp\cc0WNqff.s 			page 6


  73              		.loc 1 111 52 is_stmt 0 view .LVU15
  74 001e 154B     		ldr	r3, .L27
  75              	.LVL6:
 111:D:/fchai/work/i-cube/I-CUBE-HUAWEI/Drivers/BSP/IKS01A3\iks01a3_env_sensors_ex.c ****         {
  76              		.loc 1 111 13 view .LVU16
  77 0020 5868     		ldr	r0, [r3, #4]
  78 0022 FFF7FEFF 		bl	LPS22HH_TEMP_Get_DRDY_Status
  79              	.LVL7:
 111:D:/fchai/work/i-cube/I-CUBE-HUAWEI/Drivers/BSP/IKS01A3\iks01a3_env_sensors_ex.c ****         {
  80              		.loc 1 111 12 view .LVU17
  81 0026 A0B1     		cbz	r0, .L6
  82              	.L7:
  71:D:/fchai/work/i-cube/I-CUBE-HUAWEI/Drivers/BSP/IKS01A3\iks01a3_env_sensors_ex.c ****         }
  83              		.loc 1 71 15 view .LVU18
  84 0028 6FF00400 		mvn	r0, #4
  85              		.loc 1 204 1 view .LVU19
  86 002c 08BD     		pop	{r3, pc}
  87              	.LVL8:
  88              	.L24:
  67:D:/fchai/work/i-cube/I-CUBE-HUAWEI/Drivers/BSP/IKS01A3\iks01a3_env_sensors_ex.c ****       {
  89              		.loc 1 67 7 is_stmt 1 view .LVU20
  67:D:/fchai/work/i-cube/I-CUBE-HUAWEI/Drivers/BSP/IKS01A3\iks01a3_env_sensors_ex.c ****       {
  90              		.loc 1 67 10 is_stmt 0 view .LVU21
  91 002e 5A07     		lsls	r2, r3, #29
  92 0030 11D4     		bmi	.L26
  78:D:/fchai/work/i-cube/I-CUBE-HUAWEI/Drivers/BSP/IKS01A3\iks01a3_env_sensors_ex.c ****       {
  93              		.loc 1 78 12 is_stmt 1 view .LVU22
  78:D:/fchai/work/i-cube/I-CUBE-HUAWEI/Drivers/BSP/IKS01A3\iks01a3_env_sensors_ex.c ****       {
  94              		.loc 1 78 15 is_stmt 0 view .LVU23
  95 0032 DB07     		lsls	r3, r3, #31
  96              	.LVL9:
  78:D:/fchai/work/i-cube/I-CUBE-HUAWEI/Drivers/BSP/IKS01A3\iks01a3_env_sensors_ex.c ****       {
  97              		.loc 1 78 15 view .LVU24
  98 0034 F8D5     		bpl	.L7
  80:D:/fchai/work/i-cube/I-CUBE-HUAWEI/Drivers/BSP/IKS01A3\iks01a3_env_sensors_ex.c ****         {
  99              		.loc 1 80 9 is_stmt 1 view .LVU25
  80:D:/fchai/work/i-cube/I-CUBE-HUAWEI/Drivers/BSP/IKS01A3\iks01a3_env_sensors_ex.c ****         {
 100              		.loc 1 80 51 is_stmt 0 view .LVU26
 101 0036 0F4B     		ldr	r3, .L27
  80:D:/fchai/work/i-cube/I-CUBE-HUAWEI/Drivers/BSP/IKS01A3\iks01a3_env_sensors_ex.c ****         {
 102              		.loc 1 80 13 view .LVU27
 103 0038 1868     		ldr	r0, [r3]
 104              	.LVL10:
  80:D:/fchai/work/i-cube/I-CUBE-HUAWEI/Drivers/BSP/IKS01A3\iks01a3_env_sensors_ex.c ****         {
 105              		.loc 1 80 13 view .LVU28
 106 003a FFF7FEFF 		bl	HTS221_TEMP_Get_DRDY_Status
 107              	.LVL11:
  80:D:/fchai/work/i-cube/I-CUBE-HUAWEI/Drivers/BSP/IKS01A3\iks01a3_env_sensors_ex.c ****         {
 108              		.loc 1 80 12 view .LVU29
 109 003e 40B1     		cbz	r0, .L6
 110 0040 F2E7     		b	.L7
 111              	.LVL12:
 112              	.L3:
 129:D:/fchai/work/i-cube/I-CUBE-HUAWEI/Drivers/BSP/IKS01A3\iks01a3_env_sensors_ex.c ****       {
 113              		.loc 1 129 7 is_stmt 1 view .LVU30
 129:D:/fchai/work/i-cube/I-CUBE-HUAWEI/Drivers/BSP/IKS01A3\iks01a3_env_sensors_ex.c ****       {
 114              		.loc 1 129 10 is_stmt 0 view .LVU31
ARM GAS  T:\msys\tmp\cc0WNqff.s 			page 7


 115 0042 DB07     		lsls	r3, r3, #31
 116              	.LVL13:
 129:D:/fchai/work/i-cube/I-CUBE-HUAWEI/Drivers/BSP/IKS01A3\iks01a3_env_sensors_ex.c ****       {
 117              		.loc 1 129 10 view .LVU32
 118 0044 F0D5     		bpl	.L7
 131:D:/fchai/work/i-cube/I-CUBE-HUAWEI/Drivers/BSP/IKS01A3\iks01a3_env_sensors_ex.c ****         {
 119              		.loc 1 131 9 is_stmt 1 view .LVU33
 131:D:/fchai/work/i-cube/I-CUBE-HUAWEI/Drivers/BSP/IKS01A3\iks01a3_env_sensors_ex.c ****         {
 120              		.loc 1 131 52 is_stmt 0 view .LVU34
 121 0046 0B4B     		ldr	r3, .L27
 131:D:/fchai/work/i-cube/I-CUBE-HUAWEI/Drivers/BSP/IKS01A3\iks01a3_env_sensors_ex.c ****         {
 122              		.loc 1 131 13 view .LVU35
 123 0048 9868     		ldr	r0, [r3, #8]
 124              	.LVL14:
 131:D:/fchai/work/i-cube/I-CUBE-HUAWEI/Drivers/BSP/IKS01A3\iks01a3_env_sensors_ex.c ****         {
 125              		.loc 1 131 13 view .LVU36
 126 004a FFF7FEFF 		bl	STTS751_TEMP_Get_DRDY_Status
 127              	.LVL15:
 131:D:/fchai/work/i-cube/I-CUBE-HUAWEI/Drivers/BSP/IKS01A3\iks01a3_env_sensors_ex.c ****         {
 128              		.loc 1 131 12 view .LVU37
 129 004e 0028     		cmp	r0, #0
 130 0050 EAD1     		bne	.L7
 131              	.L6:
  75:D:/fchai/work/i-cube/I-CUBE-HUAWEI/Drivers/BSP/IKS01A3\iks01a3_env_sensors_ex.c ****         }
 132              		.loc 1 75 11 is_stmt 1 view .LVU38
 133              	.LVL16:
  75:D:/fchai/work/i-cube/I-CUBE-HUAWEI/Drivers/BSP/IKS01A3\iks01a3_env_sensors_ex.c ****         }
 134              		.loc 1 75 15 is_stmt 0 view .LVU39
 135 0052 0020     		movs	r0, #0
 136              		.loc 1 204 1 view .LVU40
 137 0054 08BD     		pop	{r3, pc}
 138              	.LVL17:
 139              	.L26:
  69:D:/fchai/work/i-cube/I-CUBE-HUAWEI/Drivers/BSP/IKS01A3\iks01a3_env_sensors_ex.c ****         {
 140              		.loc 1 69 9 is_stmt 1 view .LVU41
  69:D:/fchai/work/i-cube/I-CUBE-HUAWEI/Drivers/BSP/IKS01A3\iks01a3_env_sensors_ex.c ****         {
 141              		.loc 1 69 50 is_stmt 0 view .LVU42
 142 0056 074B     		ldr	r3, .L27
 143              	.LVL18:
  69:D:/fchai/work/i-cube/I-CUBE-HUAWEI/Drivers/BSP/IKS01A3\iks01a3_env_sensors_ex.c ****         {
 144              		.loc 1 69 13 view .LVU43
 145 0058 1868     		ldr	r0, [r3]
 146              	.LVL19:
  69:D:/fchai/work/i-cube/I-CUBE-HUAWEI/Drivers/BSP/IKS01A3\iks01a3_env_sensors_ex.c ****         {
 147              		.loc 1 69 13 view .LVU44
 148 005a FFF7FEFF 		bl	HTS221_HUM_Get_DRDY_Status
 149              	.LVL20:
  69:D:/fchai/work/i-cube/I-CUBE-HUAWEI/Drivers/BSP/IKS01A3\iks01a3_env_sensors_ex.c ****         {
 150              		.loc 1 69 12 view .LVU45
 151 005e 0028     		cmp	r0, #0
 152 0060 F7D0     		beq	.L6
 153 0062 E1E7     		b	.L7
 154              	.LVL21:
 155              	.L25:
 100:D:/fchai/work/i-cube/I-CUBE-HUAWEI/Drivers/BSP/IKS01A3\iks01a3_env_sensors_ex.c ****         {
 156              		.loc 1 100 9 is_stmt 1 view .LVU46
 100:D:/fchai/work/i-cube/I-CUBE-HUAWEI/Drivers/BSP/IKS01A3\iks01a3_env_sensors_ex.c ****         {
ARM GAS  T:\msys\tmp\cc0WNqff.s 			page 8


 157              		.loc 1 100 53 is_stmt 0 view .LVU47
 158 0064 034B     		ldr	r3, .L27
 159              	.LVL22:
 100:D:/fchai/work/i-cube/I-CUBE-HUAWEI/Drivers/BSP/IKS01A3\iks01a3_env_sensors_ex.c ****         {
 160              		.loc 1 100 13 view .LVU48
 161 0066 5868     		ldr	r0, [r3, #4]
 162 0068 FFF7FEFF 		bl	LPS22HH_PRESS_Get_DRDY_Status
 163              	.LVL23:
 100:D:/fchai/work/i-cube/I-CUBE-HUAWEI/Drivers/BSP/IKS01A3\iks01a3_env_sensors_ex.c ****         {
 164              		.loc 1 100 12 view .LVU49
 165 006c 0028     		cmp	r0, #0
 166 006e F0D0     		beq	.L6
 167 0070 DAE7     		b	.L7
 168              	.L28:
 169 0072 00BF     		.align	2
 170              	.L27:
 171 0074 00000000 		.word	EnvCompObj
 172              		.cfi_endproc
 173              	.LFE123:
 175              		.section	.text.IKS01A3_ENV_SENSOR_Read_Register,"ax",%progbits
 176              		.align	1
 177              		.p2align 2,,3
 178              		.global	IKS01A3_ENV_SENSOR_Read_Register
 179              		.syntax unified
 180              		.thumb
 181              		.thumb_func
 182              		.fpu fpv4-sp-d16
 184              	IKS01A3_ENV_SENSOR_Read_Register:
 185              	.LVL24:
 186              	.LFB124:
 205:D:/fchai/work/i-cube/I-CUBE-HUAWEI/Drivers/BSP/IKS01A3\iks01a3_env_sensors_ex.c **** 
 206:D:/fchai/work/i-cube/I-CUBE-HUAWEI/Drivers/BSP/IKS01A3\iks01a3_env_sensors_ex.c **** /**
 207:D:/fchai/work/i-cube/I-CUBE-HUAWEI/Drivers/BSP/IKS01A3\iks01a3_env_sensors_ex.c ****  * @brief  Get the register value (available only for HTS221, LPS22HH, STTS751, LPS33HW sensors)
 208:D:/fchai/work/i-cube/I-CUBE-HUAWEI/Drivers/BSP/IKS01A3\iks01a3_env_sensors_ex.c ****  * @param  Instance the device instance
 209:D:/fchai/work/i-cube/I-CUBE-HUAWEI/Drivers/BSP/IKS01A3\iks01a3_env_sensors_ex.c ****  * @param  Reg address to be read
 210:D:/fchai/work/i-cube/I-CUBE-HUAWEI/Drivers/BSP/IKS01A3\iks01a3_env_sensors_ex.c ****  * @param  Data pointer where the value is written to
 211:D:/fchai/work/i-cube/I-CUBE-HUAWEI/Drivers/BSP/IKS01A3\iks01a3_env_sensors_ex.c ****  * @retval BSP status
 212:D:/fchai/work/i-cube/I-CUBE-HUAWEI/Drivers/BSP/IKS01A3\iks01a3_env_sensors_ex.c ****  */
 213:D:/fchai/work/i-cube/I-CUBE-HUAWEI/Drivers/BSP/IKS01A3\iks01a3_env_sensors_ex.c **** int32_t IKS01A3_ENV_SENSOR_Read_Register(uint32_t Instance, uint8_t Reg, uint8_t *Data)
 214:D:/fchai/work/i-cube/I-CUBE-HUAWEI/Drivers/BSP/IKS01A3\iks01a3_env_sensors_ex.c **** {
 187              		.loc 1 214 1 is_stmt 1 view -0
 188              		.cfi_startproc
 189              		@ args = 0, pretend = 0, frame = 0
 190              		@ frame_needed = 0, uses_anonymous_args = 0
 215:D:/fchai/work/i-cube/I-CUBE-HUAWEI/Drivers/BSP/IKS01A3\iks01a3_env_sensors_ex.c ****   int32_t ret;
 191              		.loc 1 215 3 view .LVU51
 216:D:/fchai/work/i-cube/I-CUBE-HUAWEI/Drivers/BSP/IKS01A3\iks01a3_env_sensors_ex.c **** 
 217:D:/fchai/work/i-cube/I-CUBE-HUAWEI/Drivers/BSP/IKS01A3\iks01a3_env_sensors_ex.c ****   switch (Instance)
 192              		.loc 1 217 3 view .LVU52
 193 0000 0128     		cmp	r0, #1
 214:D:/fchai/work/i-cube/I-CUBE-HUAWEI/Drivers/BSP/IKS01A3\iks01a3_env_sensors_ex.c ****   int32_t ret;
 194              		.loc 1 214 1 is_stmt 0 view .LVU53
 195 0002 08B5     		push	{r3, lr}
 196              	.LCFI1:
 197              		.cfi_def_cfa_offset 8
 198              		.cfi_offset 3, -8
 199              		.cfi_offset 14, -4
ARM GAS  T:\msys\tmp\cc0WNqff.s 			page 9


 200              		.loc 1 217 3 view .LVU54
 201 0004 05D0     		beq	.L30
 202 0006 0228     		cmp	r0, #2
 203 0008 13D0     		beq	.L31
 204 000a 48B1     		cbz	r0, .L40
 205 000c 6FF00100 		mvn	r0, #1
 206              	.LVL25:
 218:D:/fchai/work/i-cube/I-CUBE-HUAWEI/Drivers/BSP/IKS01A3\iks01a3_env_sensors_ex.c ****   {
 219:D:/fchai/work/i-cube/I-CUBE-HUAWEI/Drivers/BSP/IKS01A3\iks01a3_env_sensors_ex.c **** #if (USE_IKS01A3_ENV_SENSOR_HTS221_0 == 1)
 220:D:/fchai/work/i-cube/I-CUBE-HUAWEI/Drivers/BSP/IKS01A3\iks01a3_env_sensors_ex.c ****     case IKS01A3_HTS221_0:
 221:D:/fchai/work/i-cube/I-CUBE-HUAWEI/Drivers/BSP/IKS01A3\iks01a3_env_sensors_ex.c ****       if (HTS221_Read_Reg(EnvCompObj[Instance], Reg, Data) != BSP_ERROR_NONE)
 222:D:/fchai/work/i-cube/I-CUBE-HUAWEI/Drivers/BSP/IKS01A3\iks01a3_env_sensors_ex.c ****       {
 223:D:/fchai/work/i-cube/I-CUBE-HUAWEI/Drivers/BSP/IKS01A3\iks01a3_env_sensors_ex.c ****         ret = BSP_ERROR_COMPONENT_FAILURE;
 224:D:/fchai/work/i-cube/I-CUBE-HUAWEI/Drivers/BSP/IKS01A3\iks01a3_env_sensors_ex.c ****       }
 225:D:/fchai/work/i-cube/I-CUBE-HUAWEI/Drivers/BSP/IKS01A3\iks01a3_env_sensors_ex.c ****       else
 226:D:/fchai/work/i-cube/I-CUBE-HUAWEI/Drivers/BSP/IKS01A3\iks01a3_env_sensors_ex.c ****       {
 227:D:/fchai/work/i-cube/I-CUBE-HUAWEI/Drivers/BSP/IKS01A3\iks01a3_env_sensors_ex.c ****         ret = BSP_ERROR_NONE;
 228:D:/fchai/work/i-cube/I-CUBE-HUAWEI/Drivers/BSP/IKS01A3\iks01a3_env_sensors_ex.c ****       }
 229:D:/fchai/work/i-cube/I-CUBE-HUAWEI/Drivers/BSP/IKS01A3\iks01a3_env_sensors_ex.c ****       break;
 230:D:/fchai/work/i-cube/I-CUBE-HUAWEI/Drivers/BSP/IKS01A3\iks01a3_env_sensors_ex.c **** #endif
 231:D:/fchai/work/i-cube/I-CUBE-HUAWEI/Drivers/BSP/IKS01A3\iks01a3_env_sensors_ex.c **** 
 232:D:/fchai/work/i-cube/I-CUBE-HUAWEI/Drivers/BSP/IKS01A3\iks01a3_env_sensors_ex.c **** #if (USE_IKS01A3_ENV_SENSOR_LPS22HH_0 == 1)
 233:D:/fchai/work/i-cube/I-CUBE-HUAWEI/Drivers/BSP/IKS01A3\iks01a3_env_sensors_ex.c ****     case IKS01A3_LPS22HH_0:
 234:D:/fchai/work/i-cube/I-CUBE-HUAWEI/Drivers/BSP/IKS01A3\iks01a3_env_sensors_ex.c ****       if (LPS22HH_Read_Reg(EnvCompObj[Instance], Reg, Data) != BSP_ERROR_NONE)
 235:D:/fchai/work/i-cube/I-CUBE-HUAWEI/Drivers/BSP/IKS01A3\iks01a3_env_sensors_ex.c ****       {
 236:D:/fchai/work/i-cube/I-CUBE-HUAWEI/Drivers/BSP/IKS01A3\iks01a3_env_sensors_ex.c ****         ret = BSP_ERROR_COMPONENT_FAILURE;
 237:D:/fchai/work/i-cube/I-CUBE-HUAWEI/Drivers/BSP/IKS01A3\iks01a3_env_sensors_ex.c ****       }
 238:D:/fchai/work/i-cube/I-CUBE-HUAWEI/Drivers/BSP/IKS01A3\iks01a3_env_sensors_ex.c ****       else
 239:D:/fchai/work/i-cube/I-CUBE-HUAWEI/Drivers/BSP/IKS01A3\iks01a3_env_sensors_ex.c ****       {
 240:D:/fchai/work/i-cube/I-CUBE-HUAWEI/Drivers/BSP/IKS01A3\iks01a3_env_sensors_ex.c ****         ret = BSP_ERROR_NONE;
 241:D:/fchai/work/i-cube/I-CUBE-HUAWEI/Drivers/BSP/IKS01A3\iks01a3_env_sensors_ex.c ****       }
 242:D:/fchai/work/i-cube/I-CUBE-HUAWEI/Drivers/BSP/IKS01A3\iks01a3_env_sensors_ex.c ****       break;
 243:D:/fchai/work/i-cube/I-CUBE-HUAWEI/Drivers/BSP/IKS01A3\iks01a3_env_sensors_ex.c **** #endif
 244:D:/fchai/work/i-cube/I-CUBE-HUAWEI/Drivers/BSP/IKS01A3\iks01a3_env_sensors_ex.c **** 
 245:D:/fchai/work/i-cube/I-CUBE-HUAWEI/Drivers/BSP/IKS01A3\iks01a3_env_sensors_ex.c **** #if (USE_IKS01A3_ENV_SENSOR_STTS751_0 == 1)
 246:D:/fchai/work/i-cube/I-CUBE-HUAWEI/Drivers/BSP/IKS01A3\iks01a3_env_sensors_ex.c ****     case IKS01A3_STTS751_0:
 247:D:/fchai/work/i-cube/I-CUBE-HUAWEI/Drivers/BSP/IKS01A3\iks01a3_env_sensors_ex.c ****       if (STTS751_Read_Reg(EnvCompObj[Instance], Reg, Data) != BSP_ERROR_NONE)
 248:D:/fchai/work/i-cube/I-CUBE-HUAWEI/Drivers/BSP/IKS01A3\iks01a3_env_sensors_ex.c ****       {
 249:D:/fchai/work/i-cube/I-CUBE-HUAWEI/Drivers/BSP/IKS01A3\iks01a3_env_sensors_ex.c ****         ret = BSP_ERROR_COMPONENT_FAILURE;
 250:D:/fchai/work/i-cube/I-CUBE-HUAWEI/Drivers/BSP/IKS01A3\iks01a3_env_sensors_ex.c ****       }
 251:D:/fchai/work/i-cube/I-CUBE-HUAWEI/Drivers/BSP/IKS01A3\iks01a3_env_sensors_ex.c ****       else
 252:D:/fchai/work/i-cube/I-CUBE-HUAWEI/Drivers/BSP/IKS01A3\iks01a3_env_sensors_ex.c ****       {
 253:D:/fchai/work/i-cube/I-CUBE-HUAWEI/Drivers/BSP/IKS01A3\iks01a3_env_sensors_ex.c ****         ret = BSP_ERROR_NONE;
 254:D:/fchai/work/i-cube/I-CUBE-HUAWEI/Drivers/BSP/IKS01A3\iks01a3_env_sensors_ex.c ****       }
 255:D:/fchai/work/i-cube/I-CUBE-HUAWEI/Drivers/BSP/IKS01A3\iks01a3_env_sensors_ex.c ****       break;
 256:D:/fchai/work/i-cube/I-CUBE-HUAWEI/Drivers/BSP/IKS01A3\iks01a3_env_sensors_ex.c **** #endif
 257:D:/fchai/work/i-cube/I-CUBE-HUAWEI/Drivers/BSP/IKS01A3\iks01a3_env_sensors_ex.c **** 
 258:D:/fchai/work/i-cube/I-CUBE-HUAWEI/Drivers/BSP/IKS01A3\iks01a3_env_sensors_ex.c **** #if (USE_IKS01A3_ENV_SENSOR_LPS33HW_0 == 1)
 259:D:/fchai/work/i-cube/I-CUBE-HUAWEI/Drivers/BSP/IKS01A3\iks01a3_env_sensors_ex.c ****     case IKS01A3_LPS33HW_0:
 260:D:/fchai/work/i-cube/I-CUBE-HUAWEI/Drivers/BSP/IKS01A3\iks01a3_env_sensors_ex.c ****       if (LPS33HW_Read_Reg(EnvCompObj[Instance], Reg, Data) != BSP_ERROR_NONE)
 261:D:/fchai/work/i-cube/I-CUBE-HUAWEI/Drivers/BSP/IKS01A3\iks01a3_env_sensors_ex.c ****       {
 262:D:/fchai/work/i-cube/I-CUBE-HUAWEI/Drivers/BSP/IKS01A3\iks01a3_env_sensors_ex.c ****         ret = BSP_ERROR_COMPONENT_FAILURE;
 263:D:/fchai/work/i-cube/I-CUBE-HUAWEI/Drivers/BSP/IKS01A3\iks01a3_env_sensors_ex.c ****       }
 264:D:/fchai/work/i-cube/I-CUBE-HUAWEI/Drivers/BSP/IKS01A3\iks01a3_env_sensors_ex.c ****       else
 265:D:/fchai/work/i-cube/I-CUBE-HUAWEI/Drivers/BSP/IKS01A3\iks01a3_env_sensors_ex.c ****       {
 266:D:/fchai/work/i-cube/I-CUBE-HUAWEI/Drivers/BSP/IKS01A3\iks01a3_env_sensors_ex.c ****         ret = BSP_ERROR_NONE;
 267:D:/fchai/work/i-cube/I-CUBE-HUAWEI/Drivers/BSP/IKS01A3\iks01a3_env_sensors_ex.c ****       }
ARM GAS  T:\msys\tmp\cc0WNqff.s 			page 10


 268:D:/fchai/work/i-cube/I-CUBE-HUAWEI/Drivers/BSP/IKS01A3\iks01a3_env_sensors_ex.c ****       break;
 269:D:/fchai/work/i-cube/I-CUBE-HUAWEI/Drivers/BSP/IKS01A3\iks01a3_env_sensors_ex.c **** #endif
 270:D:/fchai/work/i-cube/I-CUBE-HUAWEI/Drivers/BSP/IKS01A3\iks01a3_env_sensors_ex.c **** 
 271:D:/fchai/work/i-cube/I-CUBE-HUAWEI/Drivers/BSP/IKS01A3\iks01a3_env_sensors_ex.c **** #if (USE_IKS01A3_ENV_SENSOR_STTS22H_0 == 1)
 272:D:/fchai/work/i-cube/I-CUBE-HUAWEI/Drivers/BSP/IKS01A3\iks01a3_env_sensors_ex.c ****     case IKS01A3_STTS22H_0:
 273:D:/fchai/work/i-cube/I-CUBE-HUAWEI/Drivers/BSP/IKS01A3\iks01a3_env_sensors_ex.c ****       if (STTS22H_Read_Reg(EnvCompObj[Instance], Reg, Data) != BSP_ERROR_NONE)
 274:D:/fchai/work/i-cube/I-CUBE-HUAWEI/Drivers/BSP/IKS01A3\iks01a3_env_sensors_ex.c ****       {
 275:D:/fchai/work/i-cube/I-CUBE-HUAWEI/Drivers/BSP/IKS01A3\iks01a3_env_sensors_ex.c ****         ret = BSP_ERROR_COMPONENT_FAILURE;
 276:D:/fchai/work/i-cube/I-CUBE-HUAWEI/Drivers/BSP/IKS01A3\iks01a3_env_sensors_ex.c ****       }
 277:D:/fchai/work/i-cube/I-CUBE-HUAWEI/Drivers/BSP/IKS01A3\iks01a3_env_sensors_ex.c ****       else
 278:D:/fchai/work/i-cube/I-CUBE-HUAWEI/Drivers/BSP/IKS01A3\iks01a3_env_sensors_ex.c ****       {
 279:D:/fchai/work/i-cube/I-CUBE-HUAWEI/Drivers/BSP/IKS01A3\iks01a3_env_sensors_ex.c ****         ret = BSP_ERROR_NONE;
 280:D:/fchai/work/i-cube/I-CUBE-HUAWEI/Drivers/BSP/IKS01A3\iks01a3_env_sensors_ex.c ****       }
 281:D:/fchai/work/i-cube/I-CUBE-HUAWEI/Drivers/BSP/IKS01A3\iks01a3_env_sensors_ex.c ****       break;
 282:D:/fchai/work/i-cube/I-CUBE-HUAWEI/Drivers/BSP/IKS01A3\iks01a3_env_sensors_ex.c **** #endif
 283:D:/fchai/work/i-cube/I-CUBE-HUAWEI/Drivers/BSP/IKS01A3\iks01a3_env_sensors_ex.c **** 
 284:D:/fchai/work/i-cube/I-CUBE-HUAWEI/Drivers/BSP/IKS01A3\iks01a3_env_sensors_ex.c ****     default:
 285:D:/fchai/work/i-cube/I-CUBE-HUAWEI/Drivers/BSP/IKS01A3\iks01a3_env_sensors_ex.c ****       ret = BSP_ERROR_WRONG_PARAM;
 286:D:/fchai/work/i-cube/I-CUBE-HUAWEI/Drivers/BSP/IKS01A3\iks01a3_env_sensors_ex.c ****       break;
 287:D:/fchai/work/i-cube/I-CUBE-HUAWEI/Drivers/BSP/IKS01A3\iks01a3_env_sensors_ex.c ****   }
 288:D:/fchai/work/i-cube/I-CUBE-HUAWEI/Drivers/BSP/IKS01A3\iks01a3_env_sensors_ex.c **** 
 289:D:/fchai/work/i-cube/I-CUBE-HUAWEI/Drivers/BSP/IKS01A3\iks01a3_env_sensors_ex.c ****   return ret;
 207              		.loc 1 289 3 is_stmt 1 view .LVU55
 290:D:/fchai/work/i-cube/I-CUBE-HUAWEI/Drivers/BSP/IKS01A3\iks01a3_env_sensors_ex.c **** }
 208              		.loc 1 290 1 is_stmt 0 view .LVU56
 209 0010 08BD     		pop	{r3, pc}
 210              	.LVL26:
 211              	.L30:
 234:D:/fchai/work/i-cube/I-CUBE-HUAWEI/Drivers/BSP/IKS01A3\iks01a3_env_sensors_ex.c ****       {
 212              		.loc 1 234 7 is_stmt 1 view .LVU57
 234:D:/fchai/work/i-cube/I-CUBE-HUAWEI/Drivers/BSP/IKS01A3\iks01a3_env_sensors_ex.c ****       {
 213              		.loc 1 234 38 is_stmt 0 view .LVU58
 214 0012 0B4B     		ldr	r3, .L41
 234:D:/fchai/work/i-cube/I-CUBE-HUAWEI/Drivers/BSP/IKS01A3\iks01a3_env_sensors_ex.c ****       {
 215              		.loc 1 234 11 view .LVU59
 216 0014 5868     		ldr	r0, [r3, #4]
 217              	.LVL27:
 234:D:/fchai/work/i-cube/I-CUBE-HUAWEI/Drivers/BSP/IKS01A3\iks01a3_env_sensors_ex.c ****       {
 218              		.loc 1 234 11 view .LVU60
 219 0016 FFF7FEFF 		bl	LPS22HH_Read_Reg
 220              	.LVL28:
 234:D:/fchai/work/i-cube/I-CUBE-HUAWEI/Drivers/BSP/IKS01A3\iks01a3_env_sensors_ex.c ****       {
 221              		.loc 1 234 10 view .LVU61
 222 001a 38B9     		cbnz	r0, .L34
 223              	.L33:
 227:D:/fchai/work/i-cube/I-CUBE-HUAWEI/Drivers/BSP/IKS01A3\iks01a3_env_sensors_ex.c ****       }
 224              		.loc 1 227 9 is_stmt 1 view .LVU62
 225              	.LVL29:
 227:D:/fchai/work/i-cube/I-CUBE-HUAWEI/Drivers/BSP/IKS01A3\iks01a3_env_sensors_ex.c ****       }
 226              		.loc 1 227 13 is_stmt 0 view .LVU63
 227 001c 0020     		movs	r0, #0
 228              		.loc 1 290 1 view .LVU64
 229 001e 08BD     		pop	{r3, pc}
 230              	.LVL30:
 231              	.L40:
 221:D:/fchai/work/i-cube/I-CUBE-HUAWEI/Drivers/BSP/IKS01A3\iks01a3_env_sensors_ex.c ****       {
 232              		.loc 1 221 7 is_stmt 1 view .LVU65
ARM GAS  T:\msys\tmp\cc0WNqff.s 			page 11


 221:D:/fchai/work/i-cube/I-CUBE-HUAWEI/Drivers/BSP/IKS01A3\iks01a3_env_sensors_ex.c ****       {
 233              		.loc 1 221 37 is_stmt 0 view .LVU66
 234 0020 074B     		ldr	r3, .L41
 221:D:/fchai/work/i-cube/I-CUBE-HUAWEI/Drivers/BSP/IKS01A3\iks01a3_env_sensors_ex.c ****       {
 235              		.loc 1 221 11 view .LVU67
 236 0022 1868     		ldr	r0, [r3]
 237              	.LVL31:
 221:D:/fchai/work/i-cube/I-CUBE-HUAWEI/Drivers/BSP/IKS01A3\iks01a3_env_sensors_ex.c ****       {
 238              		.loc 1 221 11 view .LVU68
 239 0024 FFF7FEFF 		bl	HTS221_Read_Reg
 240              	.LVL32:
 221:D:/fchai/work/i-cube/I-CUBE-HUAWEI/Drivers/BSP/IKS01A3\iks01a3_env_sensors_ex.c ****       {
 241              		.loc 1 221 10 view .LVU69
 242 0028 0028     		cmp	r0, #0
 243 002a F7D0     		beq	.L33
 244              	.L34:
 223:D:/fchai/work/i-cube/I-CUBE-HUAWEI/Drivers/BSP/IKS01A3\iks01a3_env_sensors_ex.c ****       }
 245              		.loc 1 223 13 view .LVU70
 246 002c 6FF00400 		mvn	r0, #4
 247              		.loc 1 290 1 view .LVU71
 248 0030 08BD     		pop	{r3, pc}
 249              	.LVL33:
 250              	.L31:
 247:D:/fchai/work/i-cube/I-CUBE-HUAWEI/Drivers/BSP/IKS01A3\iks01a3_env_sensors_ex.c ****       {
 251              		.loc 1 247 7 is_stmt 1 view .LVU72
 247:D:/fchai/work/i-cube/I-CUBE-HUAWEI/Drivers/BSP/IKS01A3\iks01a3_env_sensors_ex.c ****       {
 252              		.loc 1 247 38 is_stmt 0 view .LVU73
 253 0032 034B     		ldr	r3, .L41
 247:D:/fchai/work/i-cube/I-CUBE-HUAWEI/Drivers/BSP/IKS01A3\iks01a3_env_sensors_ex.c ****       {
 254              		.loc 1 247 11 view .LVU74
 255 0034 9868     		ldr	r0, [r3, #8]
 256              	.LVL34:
 247:D:/fchai/work/i-cube/I-CUBE-HUAWEI/Drivers/BSP/IKS01A3\iks01a3_env_sensors_ex.c ****       {
 257              		.loc 1 247 11 view .LVU75
 258 0036 FFF7FEFF 		bl	STTS751_Read_Reg
 259              	.LVL35:
 247:D:/fchai/work/i-cube/I-CUBE-HUAWEI/Drivers/BSP/IKS01A3\iks01a3_env_sensors_ex.c ****       {
 260              		.loc 1 247 10 view .LVU76
 261 003a 0028     		cmp	r0, #0
 262 003c EED0     		beq	.L33
 263 003e F5E7     		b	.L34
 264              	.L42:
 265              		.align	2
 266              	.L41:
 267 0040 00000000 		.word	EnvCompObj
 268              		.cfi_endproc
 269              	.LFE124:
 271              		.section	.text.IKS01A3_ENV_SENSOR_Write_Register,"ax",%progbits
 272              		.align	1
 273              		.p2align 2,,3
 274              		.global	IKS01A3_ENV_SENSOR_Write_Register
 275              		.syntax unified
 276              		.thumb
 277              		.thumb_func
 278              		.fpu fpv4-sp-d16
 280              	IKS01A3_ENV_SENSOR_Write_Register:
 281              	.LVL36:
ARM GAS  T:\msys\tmp\cc0WNqff.s 			page 12


 282              	.LFB125:
 291:D:/fchai/work/i-cube/I-CUBE-HUAWEI/Drivers/BSP/IKS01A3\iks01a3_env_sensors_ex.c **** 
 292:D:/fchai/work/i-cube/I-CUBE-HUAWEI/Drivers/BSP/IKS01A3\iks01a3_env_sensors_ex.c **** /**
 293:D:/fchai/work/i-cube/I-CUBE-HUAWEI/Drivers/BSP/IKS01A3\iks01a3_env_sensors_ex.c ****  * @brief  Set the register value (available only for HTS221, LPS22HH, STTS751 sensors)
 294:D:/fchai/work/i-cube/I-CUBE-HUAWEI/Drivers/BSP/IKS01A3\iks01a3_env_sensors_ex.c ****  * @param  Instance the device instance
 295:D:/fchai/work/i-cube/I-CUBE-HUAWEI/Drivers/BSP/IKS01A3\iks01a3_env_sensors_ex.c ****  * @param  Reg address to be read
 296:D:/fchai/work/i-cube/I-CUBE-HUAWEI/Drivers/BSP/IKS01A3\iks01a3_env_sensors_ex.c ****  * @param  Data value to be written
 297:D:/fchai/work/i-cube/I-CUBE-HUAWEI/Drivers/BSP/IKS01A3\iks01a3_env_sensors_ex.c ****  * @retval BSP status
 298:D:/fchai/work/i-cube/I-CUBE-HUAWEI/Drivers/BSP/IKS01A3\iks01a3_env_sensors_ex.c ****  */
 299:D:/fchai/work/i-cube/I-CUBE-HUAWEI/Drivers/BSP/IKS01A3\iks01a3_env_sensors_ex.c **** int32_t IKS01A3_ENV_SENSOR_Write_Register(uint32_t Instance, uint8_t Reg, uint8_t Data)
 300:D:/fchai/work/i-cube/I-CUBE-HUAWEI/Drivers/BSP/IKS01A3\iks01a3_env_sensors_ex.c **** {
 283              		.loc 1 300 1 is_stmt 1 view -0
 284              		.cfi_startproc
 285              		@ args = 0, pretend = 0, frame = 0
 286              		@ frame_needed = 0, uses_anonymous_args = 0
 301:D:/fchai/work/i-cube/I-CUBE-HUAWEI/Drivers/BSP/IKS01A3\iks01a3_env_sensors_ex.c ****   int32_t ret;
 287              		.loc 1 301 3 view .LVU78
 302:D:/fchai/work/i-cube/I-CUBE-HUAWEI/Drivers/BSP/IKS01A3\iks01a3_env_sensors_ex.c **** 
 303:D:/fchai/work/i-cube/I-CUBE-HUAWEI/Drivers/BSP/IKS01A3\iks01a3_env_sensors_ex.c ****   switch (Instance)
 288              		.loc 1 303 3 view .LVU79
 289 0000 0128     		cmp	r0, #1
 300:D:/fchai/work/i-cube/I-CUBE-HUAWEI/Drivers/BSP/IKS01A3\iks01a3_env_sensors_ex.c ****   int32_t ret;
 290              		.loc 1 300 1 is_stmt 0 view .LVU80
 291 0002 08B5     		push	{r3, lr}
 292              	.LCFI2:
 293              		.cfi_def_cfa_offset 8
 294              		.cfi_offset 3, -8
 295              		.cfi_offset 14, -4
 296              		.loc 1 303 3 view .LVU81
 297 0004 05D0     		beq	.L44
 298 0006 0228     		cmp	r0, #2
 299 0008 13D0     		beq	.L45
 300 000a 48B1     		cbz	r0, .L54
 301 000c 6FF00100 		mvn	r0, #1
 302              	.LVL37:
 304:D:/fchai/work/i-cube/I-CUBE-HUAWEI/Drivers/BSP/IKS01A3\iks01a3_env_sensors_ex.c ****   {
 305:D:/fchai/work/i-cube/I-CUBE-HUAWEI/Drivers/BSP/IKS01A3\iks01a3_env_sensors_ex.c **** #if (USE_IKS01A3_ENV_SENSOR_HTS221_0 == 1)
 306:D:/fchai/work/i-cube/I-CUBE-HUAWEI/Drivers/BSP/IKS01A3\iks01a3_env_sensors_ex.c ****     case IKS01A3_HTS221_0:
 307:D:/fchai/work/i-cube/I-CUBE-HUAWEI/Drivers/BSP/IKS01A3\iks01a3_env_sensors_ex.c ****       if (HTS221_Write_Reg(EnvCompObj[Instance], Reg, Data) != BSP_ERROR_NONE)
 308:D:/fchai/work/i-cube/I-CUBE-HUAWEI/Drivers/BSP/IKS01A3\iks01a3_env_sensors_ex.c ****       {
 309:D:/fchai/work/i-cube/I-CUBE-HUAWEI/Drivers/BSP/IKS01A3\iks01a3_env_sensors_ex.c ****         ret = BSP_ERROR_COMPONENT_FAILURE;
 310:D:/fchai/work/i-cube/I-CUBE-HUAWEI/Drivers/BSP/IKS01A3\iks01a3_env_sensors_ex.c ****       }
 311:D:/fchai/work/i-cube/I-CUBE-HUAWEI/Drivers/BSP/IKS01A3\iks01a3_env_sensors_ex.c ****       else
 312:D:/fchai/work/i-cube/I-CUBE-HUAWEI/Drivers/BSP/IKS01A3\iks01a3_env_sensors_ex.c ****       {
 313:D:/fchai/work/i-cube/I-CUBE-HUAWEI/Drivers/BSP/IKS01A3\iks01a3_env_sensors_ex.c ****         ret = BSP_ERROR_NONE;
 314:D:/fchai/work/i-cube/I-CUBE-HUAWEI/Drivers/BSP/IKS01A3\iks01a3_env_sensors_ex.c ****       }
 315:D:/fchai/work/i-cube/I-CUBE-HUAWEI/Drivers/BSP/IKS01A3\iks01a3_env_sensors_ex.c ****       break;
 316:D:/fchai/work/i-cube/I-CUBE-HUAWEI/Drivers/BSP/IKS01A3\iks01a3_env_sensors_ex.c **** #endif
 317:D:/fchai/work/i-cube/I-CUBE-HUAWEI/Drivers/BSP/IKS01A3\iks01a3_env_sensors_ex.c **** 
 318:D:/fchai/work/i-cube/I-CUBE-HUAWEI/Drivers/BSP/IKS01A3\iks01a3_env_sensors_ex.c **** #if (USE_IKS01A3_ENV_SENSOR_LPS22HH_0 == 1)
 319:D:/fchai/work/i-cube/I-CUBE-HUAWEI/Drivers/BSP/IKS01A3\iks01a3_env_sensors_ex.c ****     case IKS01A3_LPS22HH_0:
 320:D:/fchai/work/i-cube/I-CUBE-HUAWEI/Drivers/BSP/IKS01A3\iks01a3_env_sensors_ex.c ****       if (LPS22HH_Write_Reg(EnvCompObj[Instance], Reg, Data) != BSP_ERROR_NONE)
 321:D:/fchai/work/i-cube/I-CUBE-HUAWEI/Drivers/BSP/IKS01A3\iks01a3_env_sensors_ex.c ****       {
 322:D:/fchai/work/i-cube/I-CUBE-HUAWEI/Drivers/BSP/IKS01A3\iks01a3_env_sensors_ex.c ****         ret = BSP_ERROR_COMPONENT_FAILURE;
 323:D:/fchai/work/i-cube/I-CUBE-HUAWEI/Drivers/BSP/IKS01A3\iks01a3_env_sensors_ex.c ****       }
 324:D:/fchai/work/i-cube/I-CUBE-HUAWEI/Drivers/BSP/IKS01A3\iks01a3_env_sensors_ex.c ****       else
 325:D:/fchai/work/i-cube/I-CUBE-HUAWEI/Drivers/BSP/IKS01A3\iks01a3_env_sensors_ex.c ****       {
ARM GAS  T:\msys\tmp\cc0WNqff.s 			page 13


 326:D:/fchai/work/i-cube/I-CUBE-HUAWEI/Drivers/BSP/IKS01A3\iks01a3_env_sensors_ex.c ****         ret = BSP_ERROR_NONE;
 327:D:/fchai/work/i-cube/I-CUBE-HUAWEI/Drivers/BSP/IKS01A3\iks01a3_env_sensors_ex.c ****       }
 328:D:/fchai/work/i-cube/I-CUBE-HUAWEI/Drivers/BSP/IKS01A3\iks01a3_env_sensors_ex.c ****       break;
 329:D:/fchai/work/i-cube/I-CUBE-HUAWEI/Drivers/BSP/IKS01A3\iks01a3_env_sensors_ex.c **** #endif
 330:D:/fchai/work/i-cube/I-CUBE-HUAWEI/Drivers/BSP/IKS01A3\iks01a3_env_sensors_ex.c **** 
 331:D:/fchai/work/i-cube/I-CUBE-HUAWEI/Drivers/BSP/IKS01A3\iks01a3_env_sensors_ex.c **** #if (USE_IKS01A3_ENV_SENSOR_STTS751_0 == 1)
 332:D:/fchai/work/i-cube/I-CUBE-HUAWEI/Drivers/BSP/IKS01A3\iks01a3_env_sensors_ex.c ****     case IKS01A3_STTS751_0:
 333:D:/fchai/work/i-cube/I-CUBE-HUAWEI/Drivers/BSP/IKS01A3\iks01a3_env_sensors_ex.c ****       if (STTS751_Write_Reg(EnvCompObj[Instance], Reg, Data) != BSP_ERROR_NONE)
 334:D:/fchai/work/i-cube/I-CUBE-HUAWEI/Drivers/BSP/IKS01A3\iks01a3_env_sensors_ex.c ****       {
 335:D:/fchai/work/i-cube/I-CUBE-HUAWEI/Drivers/BSP/IKS01A3\iks01a3_env_sensors_ex.c ****         ret = BSP_ERROR_COMPONENT_FAILURE;
 336:D:/fchai/work/i-cube/I-CUBE-HUAWEI/Drivers/BSP/IKS01A3\iks01a3_env_sensors_ex.c ****       }
 337:D:/fchai/work/i-cube/I-CUBE-HUAWEI/Drivers/BSP/IKS01A3\iks01a3_env_sensors_ex.c ****       else
 338:D:/fchai/work/i-cube/I-CUBE-HUAWEI/Drivers/BSP/IKS01A3\iks01a3_env_sensors_ex.c ****       {
 339:D:/fchai/work/i-cube/I-CUBE-HUAWEI/Drivers/BSP/IKS01A3\iks01a3_env_sensors_ex.c ****         ret = BSP_ERROR_NONE;
 340:D:/fchai/work/i-cube/I-CUBE-HUAWEI/Drivers/BSP/IKS01A3\iks01a3_env_sensors_ex.c ****       }
 341:D:/fchai/work/i-cube/I-CUBE-HUAWEI/Drivers/BSP/IKS01A3\iks01a3_env_sensors_ex.c ****       break;
 342:D:/fchai/work/i-cube/I-CUBE-HUAWEI/Drivers/BSP/IKS01A3\iks01a3_env_sensors_ex.c **** #endif
 343:D:/fchai/work/i-cube/I-CUBE-HUAWEI/Drivers/BSP/IKS01A3\iks01a3_env_sensors_ex.c **** 
 344:D:/fchai/work/i-cube/I-CUBE-HUAWEI/Drivers/BSP/IKS01A3\iks01a3_env_sensors_ex.c **** #if (USE_IKS01A3_ENV_SENSOR_LPS33HW_0 == 1)
 345:D:/fchai/work/i-cube/I-CUBE-HUAWEI/Drivers/BSP/IKS01A3\iks01a3_env_sensors_ex.c ****     case IKS01A3_LPS33HW_0:
 346:D:/fchai/work/i-cube/I-CUBE-HUAWEI/Drivers/BSP/IKS01A3\iks01a3_env_sensors_ex.c ****       if (LPS33HW_Write_Reg(EnvCompObj[Instance], Reg, Data) != BSP_ERROR_NONE)
 347:D:/fchai/work/i-cube/I-CUBE-HUAWEI/Drivers/BSP/IKS01A3\iks01a3_env_sensors_ex.c ****       {
 348:D:/fchai/work/i-cube/I-CUBE-HUAWEI/Drivers/BSP/IKS01A3\iks01a3_env_sensors_ex.c ****         ret = BSP_ERROR_COMPONENT_FAILURE;
 349:D:/fchai/work/i-cube/I-CUBE-HUAWEI/Drivers/BSP/IKS01A3\iks01a3_env_sensors_ex.c ****       }
 350:D:/fchai/work/i-cube/I-CUBE-HUAWEI/Drivers/BSP/IKS01A3\iks01a3_env_sensors_ex.c ****       else
 351:D:/fchai/work/i-cube/I-CUBE-HUAWEI/Drivers/BSP/IKS01A3\iks01a3_env_sensors_ex.c ****       {
 352:D:/fchai/work/i-cube/I-CUBE-HUAWEI/Drivers/BSP/IKS01A3\iks01a3_env_sensors_ex.c ****         ret = BSP_ERROR_NONE;
 353:D:/fchai/work/i-cube/I-CUBE-HUAWEI/Drivers/BSP/IKS01A3\iks01a3_env_sensors_ex.c ****       }
 354:D:/fchai/work/i-cube/I-CUBE-HUAWEI/Drivers/BSP/IKS01A3\iks01a3_env_sensors_ex.c ****       break;
 355:D:/fchai/work/i-cube/I-CUBE-HUAWEI/Drivers/BSP/IKS01A3\iks01a3_env_sensors_ex.c **** #endif
 356:D:/fchai/work/i-cube/I-CUBE-HUAWEI/Drivers/BSP/IKS01A3\iks01a3_env_sensors_ex.c **** 
 357:D:/fchai/work/i-cube/I-CUBE-HUAWEI/Drivers/BSP/IKS01A3\iks01a3_env_sensors_ex.c **** #if (USE_IKS01A3_ENV_SENSOR_STTS22H_0 == 1)
 358:D:/fchai/work/i-cube/I-CUBE-HUAWEI/Drivers/BSP/IKS01A3\iks01a3_env_sensors_ex.c ****     case IKS01A3_STTS22H_0:
 359:D:/fchai/work/i-cube/I-CUBE-HUAWEI/Drivers/BSP/IKS01A3\iks01a3_env_sensors_ex.c ****       if (STTS22H_Write_Reg(EnvCompObj[Instance], Reg, Data) != BSP_ERROR_NONE)
 360:D:/fchai/work/i-cube/I-CUBE-HUAWEI/Drivers/BSP/IKS01A3\iks01a3_env_sensors_ex.c ****       {
 361:D:/fchai/work/i-cube/I-CUBE-HUAWEI/Drivers/BSP/IKS01A3\iks01a3_env_sensors_ex.c ****         ret = BSP_ERROR_COMPONENT_FAILURE;
 362:D:/fchai/work/i-cube/I-CUBE-HUAWEI/Drivers/BSP/IKS01A3\iks01a3_env_sensors_ex.c ****       }
 363:D:/fchai/work/i-cube/I-CUBE-HUAWEI/Drivers/BSP/IKS01A3\iks01a3_env_sensors_ex.c ****       else
 364:D:/fchai/work/i-cube/I-CUBE-HUAWEI/Drivers/BSP/IKS01A3\iks01a3_env_sensors_ex.c ****       {
 365:D:/fchai/work/i-cube/I-CUBE-HUAWEI/Drivers/BSP/IKS01A3\iks01a3_env_sensors_ex.c ****         ret = BSP_ERROR_NONE;
 366:D:/fchai/work/i-cube/I-CUBE-HUAWEI/Drivers/BSP/IKS01A3\iks01a3_env_sensors_ex.c ****       }
 367:D:/fchai/work/i-cube/I-CUBE-HUAWEI/Drivers/BSP/IKS01A3\iks01a3_env_sensors_ex.c ****       break;
 368:D:/fchai/work/i-cube/I-CUBE-HUAWEI/Drivers/BSP/IKS01A3\iks01a3_env_sensors_ex.c **** #endif
 369:D:/fchai/work/i-cube/I-CUBE-HUAWEI/Drivers/BSP/IKS01A3\iks01a3_env_sensors_ex.c **** 
 370:D:/fchai/work/i-cube/I-CUBE-HUAWEI/Drivers/BSP/IKS01A3\iks01a3_env_sensors_ex.c ****     default:
 371:D:/fchai/work/i-cube/I-CUBE-HUAWEI/Drivers/BSP/IKS01A3\iks01a3_env_sensors_ex.c ****       ret = BSP_ERROR_WRONG_PARAM;
 372:D:/fchai/work/i-cube/I-CUBE-HUAWEI/Drivers/BSP/IKS01A3\iks01a3_env_sensors_ex.c ****       break;
 373:D:/fchai/work/i-cube/I-CUBE-HUAWEI/Drivers/BSP/IKS01A3\iks01a3_env_sensors_ex.c ****   }
 374:D:/fchai/work/i-cube/I-CUBE-HUAWEI/Drivers/BSP/IKS01A3\iks01a3_env_sensors_ex.c **** 
 375:D:/fchai/work/i-cube/I-CUBE-HUAWEI/Drivers/BSP/IKS01A3\iks01a3_env_sensors_ex.c ****   return ret;
 303              		.loc 1 375 3 is_stmt 1 view .LVU82
 376:D:/fchai/work/i-cube/I-CUBE-HUAWEI/Drivers/BSP/IKS01A3\iks01a3_env_sensors_ex.c **** }
 304              		.loc 1 376 1 is_stmt 0 view .LVU83
 305 0010 08BD     		pop	{r3, pc}
 306              	.LVL38:
 307              	.L44:
 320:D:/fchai/work/i-cube/I-CUBE-HUAWEI/Drivers/BSP/IKS01A3\iks01a3_env_sensors_ex.c ****       {
ARM GAS  T:\msys\tmp\cc0WNqff.s 			page 14


 308              		.loc 1 320 7 is_stmt 1 view .LVU84
 320:D:/fchai/work/i-cube/I-CUBE-HUAWEI/Drivers/BSP/IKS01A3\iks01a3_env_sensors_ex.c ****       {
 309              		.loc 1 320 39 is_stmt 0 view .LVU85
 310 0012 0B4B     		ldr	r3, .L55
 320:D:/fchai/work/i-cube/I-CUBE-HUAWEI/Drivers/BSP/IKS01A3\iks01a3_env_sensors_ex.c ****       {
 311              		.loc 1 320 11 view .LVU86
 312 0014 5868     		ldr	r0, [r3, #4]
 313              	.LVL39:
 320:D:/fchai/work/i-cube/I-CUBE-HUAWEI/Drivers/BSP/IKS01A3\iks01a3_env_sensors_ex.c ****       {
 314              		.loc 1 320 11 view .LVU87
 315 0016 FFF7FEFF 		bl	LPS22HH_Write_Reg
 316              	.LVL40:
 320:D:/fchai/work/i-cube/I-CUBE-HUAWEI/Drivers/BSP/IKS01A3\iks01a3_env_sensors_ex.c ****       {
 317              		.loc 1 320 10 view .LVU88
 318 001a 38B9     		cbnz	r0, .L48
 319              	.L47:
 313:D:/fchai/work/i-cube/I-CUBE-HUAWEI/Drivers/BSP/IKS01A3\iks01a3_env_sensors_ex.c ****       }
 320              		.loc 1 313 9 is_stmt 1 view .LVU89
 321              	.LVL41:
 313:D:/fchai/work/i-cube/I-CUBE-HUAWEI/Drivers/BSP/IKS01A3\iks01a3_env_sensors_ex.c ****       }
 322              		.loc 1 313 13 is_stmt 0 view .LVU90
 323 001c 0020     		movs	r0, #0
 324              		.loc 1 376 1 view .LVU91
 325 001e 08BD     		pop	{r3, pc}
 326              	.LVL42:
 327              	.L54:
 307:D:/fchai/work/i-cube/I-CUBE-HUAWEI/Drivers/BSP/IKS01A3\iks01a3_env_sensors_ex.c ****       {
 328              		.loc 1 307 7 is_stmt 1 view .LVU92
 307:D:/fchai/work/i-cube/I-CUBE-HUAWEI/Drivers/BSP/IKS01A3\iks01a3_env_sensors_ex.c ****       {
 329              		.loc 1 307 38 is_stmt 0 view .LVU93
 330 0020 074B     		ldr	r3, .L55
 307:D:/fchai/work/i-cube/I-CUBE-HUAWEI/Drivers/BSP/IKS01A3\iks01a3_env_sensors_ex.c ****       {
 331              		.loc 1 307 11 view .LVU94
 332 0022 1868     		ldr	r0, [r3]
 333              	.LVL43:
 307:D:/fchai/work/i-cube/I-CUBE-HUAWEI/Drivers/BSP/IKS01A3\iks01a3_env_sensors_ex.c ****       {
 334              		.loc 1 307 11 view .LVU95
 335 0024 FFF7FEFF 		bl	HTS221_Write_Reg
 336              	.LVL44:
 307:D:/fchai/work/i-cube/I-CUBE-HUAWEI/Drivers/BSP/IKS01A3\iks01a3_env_sensors_ex.c ****       {
 337              		.loc 1 307 10 view .LVU96
 338 0028 0028     		cmp	r0, #0
 339 002a F7D0     		beq	.L47
 340              	.L48:
 309:D:/fchai/work/i-cube/I-CUBE-HUAWEI/Drivers/BSP/IKS01A3\iks01a3_env_sensors_ex.c ****       }
 341              		.loc 1 309 13 view .LVU97
 342 002c 6FF00400 		mvn	r0, #4
 343              		.loc 1 376 1 view .LVU98
 344 0030 08BD     		pop	{r3, pc}
 345              	.LVL45:
 346              	.L45:
 333:D:/fchai/work/i-cube/I-CUBE-HUAWEI/Drivers/BSP/IKS01A3\iks01a3_env_sensors_ex.c ****       {
 347              		.loc 1 333 7 is_stmt 1 view .LVU99
 333:D:/fchai/work/i-cube/I-CUBE-HUAWEI/Drivers/BSP/IKS01A3\iks01a3_env_sensors_ex.c ****       {
 348              		.loc 1 333 39 is_stmt 0 view .LVU100
 349 0032 034B     		ldr	r3, .L55
 333:D:/fchai/work/i-cube/I-CUBE-HUAWEI/Drivers/BSP/IKS01A3\iks01a3_env_sensors_ex.c ****       {
ARM GAS  T:\msys\tmp\cc0WNqff.s 			page 15


 350              		.loc 1 333 11 view .LVU101
 351 0034 9868     		ldr	r0, [r3, #8]
 352              	.LVL46:
 333:D:/fchai/work/i-cube/I-CUBE-HUAWEI/Drivers/BSP/IKS01A3\iks01a3_env_sensors_ex.c ****       {
 353              		.loc 1 333 11 view .LVU102
 354 0036 FFF7FEFF 		bl	STTS751_Write_Reg
 355              	.LVL47:
 333:D:/fchai/work/i-cube/I-CUBE-HUAWEI/Drivers/BSP/IKS01A3\iks01a3_env_sensors_ex.c ****       {
 356              		.loc 1 333 10 view .LVU103
 357 003a 0028     		cmp	r0, #0
 358 003c EED0     		beq	.L47
 359 003e F5E7     		b	.L48
 360              	.L56:
 361              		.align	2
 362              	.L55:
 363 0040 00000000 		.word	EnvCompObj
 364              		.cfi_endproc
 365              	.LFE125:
 367              		.section	.text.IKS01A3_ENV_SENSOR_Set_High_Temperature_Threshold,"ax",%progbits
 368              		.align	1
 369              		.p2align 2,,3
 370              		.global	IKS01A3_ENV_SENSOR_Set_High_Temperature_Threshold
 371              		.syntax unified
 372              		.thumb
 373              		.thumb_func
 374              		.fpu fpv4-sp-d16
 376              	IKS01A3_ENV_SENSOR_Set_High_Temperature_Threshold:
 377              	.LVL48:
 378              	.LFB126:
 377:D:/fchai/work/i-cube/I-CUBE-HUAWEI/Drivers/BSP/IKS01A3\iks01a3_env_sensors_ex.c **** 
 378:D:/fchai/work/i-cube/I-CUBE-HUAWEI/Drivers/BSP/IKS01A3\iks01a3_env_sensors_ex.c **** /**
 379:D:/fchai/work/i-cube/I-CUBE-HUAWEI/Drivers/BSP/IKS01A3\iks01a3_env_sensors_ex.c ****  * @brief  Set the high temperature threshold value (available only STTS751 sensors)
 380:D:/fchai/work/i-cube/I-CUBE-HUAWEI/Drivers/BSP/IKS01A3\iks01a3_env_sensors_ex.c ****  * @param  Instance the device instance
 381:D:/fchai/work/i-cube/I-CUBE-HUAWEI/Drivers/BSP/IKS01A3\iks01a3_env_sensors_ex.c ****  * @param  Value the high temperature threshold to be set
 382:D:/fchai/work/i-cube/I-CUBE-HUAWEI/Drivers/BSP/IKS01A3\iks01a3_env_sensors_ex.c ****  * @retval BSP status
 383:D:/fchai/work/i-cube/I-CUBE-HUAWEI/Drivers/BSP/IKS01A3\iks01a3_env_sensors_ex.c ****  */
 384:D:/fchai/work/i-cube/I-CUBE-HUAWEI/Drivers/BSP/IKS01A3\iks01a3_env_sensors_ex.c **** int32_t IKS01A3_ENV_SENSOR_Set_High_Temperature_Threshold(uint32_t Instance, float Value)
 385:D:/fchai/work/i-cube/I-CUBE-HUAWEI/Drivers/BSP/IKS01A3\iks01a3_env_sensors_ex.c **** {
 379              		.loc 1 385 1 is_stmt 1 view -0
 380              		.cfi_startproc
 381              		@ args = 0, pretend = 0, frame = 0
 382              		@ frame_needed = 0, uses_anonymous_args = 0
 386:D:/fchai/work/i-cube/I-CUBE-HUAWEI/Drivers/BSP/IKS01A3\iks01a3_env_sensors_ex.c ****   int32_t ret;
 383              		.loc 1 386 3 view .LVU105
 387:D:/fchai/work/i-cube/I-CUBE-HUAWEI/Drivers/BSP/IKS01A3\iks01a3_env_sensors_ex.c **** 
 388:D:/fchai/work/i-cube/I-CUBE-HUAWEI/Drivers/BSP/IKS01A3\iks01a3_env_sensors_ex.c ****   switch (Instance)
 384              		.loc 1 388 3 view .LVU106
 385 0000 0228     		cmp	r0, #2
 386 0002 09D1     		bne	.L59
 389:D:/fchai/work/i-cube/I-CUBE-HUAWEI/Drivers/BSP/IKS01A3\iks01a3_env_sensors_ex.c ****   {
 390:D:/fchai/work/i-cube/I-CUBE-HUAWEI/Drivers/BSP/IKS01A3\iks01a3_env_sensors_ex.c **** #if (USE_IKS01A3_ENV_SENSOR_STTS751_0 == 1)
 391:D:/fchai/work/i-cube/I-CUBE-HUAWEI/Drivers/BSP/IKS01A3\iks01a3_env_sensors_ex.c ****     case IKS01A3_STTS751_0:
 392:D:/fchai/work/i-cube/I-CUBE-HUAWEI/Drivers/BSP/IKS01A3\iks01a3_env_sensors_ex.c ****       if (STTS751_TEMP_SetHighTemperatureThreshold(EnvCompObj[Instance], Value) != BSP_ERROR_NONE)
 387              		.loc 1 392 7 view .LVU107
 385:D:/fchai/work/i-cube/I-CUBE-HUAWEI/Drivers/BSP/IKS01A3\iks01a3_env_sensors_ex.c ****   int32_t ret;
 388              		.loc 1 385 1 is_stmt 0 view .LVU108
 389 0004 08B5     		push	{r3, lr}
ARM GAS  T:\msys\tmp\cc0WNqff.s 			page 16


 390              	.LCFI3:
 391              		.cfi_def_cfa_offset 8
 392              		.cfi_offset 3, -8
 393              		.cfi_offset 14, -4
 394              		.loc 1 392 62 view .LVU109
 395 0006 064B     		ldr	r3, .L65
 396              		.loc 1 392 11 view .LVU110
 397 0008 9868     		ldr	r0, [r3, #8]
 398              	.LVL49:
 399              		.loc 1 392 11 view .LVU111
 400 000a FFF7FEFF 		bl	STTS751_TEMP_SetHighTemperatureThreshold
 401              	.LVL50:
 402              		.loc 1 392 10 view .LVU112
 403 000e 0028     		cmp	r0, #0
 393:D:/fchai/work/i-cube/I-CUBE-HUAWEI/Drivers/BSP/IKS01A3\iks01a3_env_sensors_ex.c ****       {
 394:D:/fchai/work/i-cube/I-CUBE-HUAWEI/Drivers/BSP/IKS01A3\iks01a3_env_sensors_ex.c ****         ret = BSP_ERROR_COMPONENT_FAILURE;
 404              		.loc 1 394 13 view .LVU113
 405 0010 18BF     		it	ne
 406 0012 6FF00400 		mvnne	r0, #4
 395:D:/fchai/work/i-cube/I-CUBE-HUAWEI/Drivers/BSP/IKS01A3\iks01a3_env_sensors_ex.c ****       }
 396:D:/fchai/work/i-cube/I-CUBE-HUAWEI/Drivers/BSP/IKS01A3\iks01a3_env_sensors_ex.c ****       else
 397:D:/fchai/work/i-cube/I-CUBE-HUAWEI/Drivers/BSP/IKS01A3\iks01a3_env_sensors_ex.c ****       {
 398:D:/fchai/work/i-cube/I-CUBE-HUAWEI/Drivers/BSP/IKS01A3\iks01a3_env_sensors_ex.c ****         ret = BSP_ERROR_NONE;
 399:D:/fchai/work/i-cube/I-CUBE-HUAWEI/Drivers/BSP/IKS01A3\iks01a3_env_sensors_ex.c ****       }
 400:D:/fchai/work/i-cube/I-CUBE-HUAWEI/Drivers/BSP/IKS01A3\iks01a3_env_sensors_ex.c ****       break;
 401:D:/fchai/work/i-cube/I-CUBE-HUAWEI/Drivers/BSP/IKS01A3\iks01a3_env_sensors_ex.c **** #endif
 402:D:/fchai/work/i-cube/I-CUBE-HUAWEI/Drivers/BSP/IKS01A3\iks01a3_env_sensors_ex.c **** 
 403:D:/fchai/work/i-cube/I-CUBE-HUAWEI/Drivers/BSP/IKS01A3\iks01a3_env_sensors_ex.c ****     default:
 404:D:/fchai/work/i-cube/I-CUBE-HUAWEI/Drivers/BSP/IKS01A3\iks01a3_env_sensors_ex.c ****       ret = BSP_ERROR_WRONG_PARAM;
 405:D:/fchai/work/i-cube/I-CUBE-HUAWEI/Drivers/BSP/IKS01A3\iks01a3_env_sensors_ex.c ****       break;
 406:D:/fchai/work/i-cube/I-CUBE-HUAWEI/Drivers/BSP/IKS01A3\iks01a3_env_sensors_ex.c ****   }
 407:D:/fchai/work/i-cube/I-CUBE-HUAWEI/Drivers/BSP/IKS01A3\iks01a3_env_sensors_ex.c **** 
 408:D:/fchai/work/i-cube/I-CUBE-HUAWEI/Drivers/BSP/IKS01A3\iks01a3_env_sensors_ex.c ****   return ret;
 409:D:/fchai/work/i-cube/I-CUBE-HUAWEI/Drivers/BSP/IKS01A3\iks01a3_env_sensors_ex.c **** }
 407              		.loc 1 409 1 view .LVU114
 408 0016 08BD     		pop	{r3, pc}
 409              	.LVL51:
 410              	.L59:
 411              	.LCFI4:
 412              		.cfi_def_cfa_offset 0
 413              		.cfi_restore 3
 414              		.cfi_restore 14
 404:D:/fchai/work/i-cube/I-CUBE-HUAWEI/Drivers/BSP/IKS01A3\iks01a3_env_sensors_ex.c ****       break;
 415              		.loc 1 404 11 view .LVU115
 416 0018 6FF00100 		mvn	r0, #1
 417              	.LVL52:
 418              		.loc 1 409 1 view .LVU116
 419 001c 7047     		bx	lr
 420              	.L66:
 421 001e 00BF     		.align	2
 422              	.L65:
 423 0020 00000000 		.word	EnvCompObj
 424              		.cfi_endproc
 425              	.LFE126:
 427              		.section	.text.IKS01A3_ENV_SENSOR_Set_Low_Temperature_Threshold,"ax",%progbits
 428              		.align	1
 429              		.p2align 2,,3
ARM GAS  T:\msys\tmp\cc0WNqff.s 			page 17


 430              		.global	IKS01A3_ENV_SENSOR_Set_Low_Temperature_Threshold
 431              		.syntax unified
 432              		.thumb
 433              		.thumb_func
 434              		.fpu fpv4-sp-d16
 436              	IKS01A3_ENV_SENSOR_Set_Low_Temperature_Threshold:
 437              	.LVL53:
 438              	.LFB127:
 410:D:/fchai/work/i-cube/I-CUBE-HUAWEI/Drivers/BSP/IKS01A3\iks01a3_env_sensors_ex.c **** 
 411:D:/fchai/work/i-cube/I-CUBE-HUAWEI/Drivers/BSP/IKS01A3\iks01a3_env_sensors_ex.c **** /**
 412:D:/fchai/work/i-cube/I-CUBE-HUAWEI/Drivers/BSP/IKS01A3\iks01a3_env_sensors_ex.c ****  * @brief  Set the low temperature threshold value (available only STTS751 sensors)
 413:D:/fchai/work/i-cube/I-CUBE-HUAWEI/Drivers/BSP/IKS01A3\iks01a3_env_sensors_ex.c ****  * @param  Instance the device instance
 414:D:/fchai/work/i-cube/I-CUBE-HUAWEI/Drivers/BSP/IKS01A3\iks01a3_env_sensors_ex.c ****  * @param  Value the low temperature threshold to be set
 415:D:/fchai/work/i-cube/I-CUBE-HUAWEI/Drivers/BSP/IKS01A3\iks01a3_env_sensors_ex.c ****  * @retval BSP status
 416:D:/fchai/work/i-cube/I-CUBE-HUAWEI/Drivers/BSP/IKS01A3\iks01a3_env_sensors_ex.c ****  */
 417:D:/fchai/work/i-cube/I-CUBE-HUAWEI/Drivers/BSP/IKS01A3\iks01a3_env_sensors_ex.c **** int32_t IKS01A3_ENV_SENSOR_Set_Low_Temperature_Threshold(uint32_t Instance, float Value)
 418:D:/fchai/work/i-cube/I-CUBE-HUAWEI/Drivers/BSP/IKS01A3\iks01a3_env_sensors_ex.c **** {
 439              		.loc 1 418 1 is_stmt 1 view -0
 440              		.cfi_startproc
 441              		@ args = 0, pretend = 0, frame = 0
 442              		@ frame_needed = 0, uses_anonymous_args = 0
 419:D:/fchai/work/i-cube/I-CUBE-HUAWEI/Drivers/BSP/IKS01A3\iks01a3_env_sensors_ex.c ****   int32_t ret;
 443              		.loc 1 419 3 view .LVU118
 420:D:/fchai/work/i-cube/I-CUBE-HUAWEI/Drivers/BSP/IKS01A3\iks01a3_env_sensors_ex.c **** 
 421:D:/fchai/work/i-cube/I-CUBE-HUAWEI/Drivers/BSP/IKS01A3\iks01a3_env_sensors_ex.c ****   switch (Instance)
 444              		.loc 1 421 3 view .LVU119
 445 0000 0228     		cmp	r0, #2
 446 0002 09D1     		bne	.L69
 422:D:/fchai/work/i-cube/I-CUBE-HUAWEI/Drivers/BSP/IKS01A3\iks01a3_env_sensors_ex.c ****   {
 423:D:/fchai/work/i-cube/I-CUBE-HUAWEI/Drivers/BSP/IKS01A3\iks01a3_env_sensors_ex.c **** #if (USE_IKS01A3_ENV_SENSOR_STTS751_0 == 1)
 424:D:/fchai/work/i-cube/I-CUBE-HUAWEI/Drivers/BSP/IKS01A3\iks01a3_env_sensors_ex.c ****     case IKS01A3_STTS751_0:
 425:D:/fchai/work/i-cube/I-CUBE-HUAWEI/Drivers/BSP/IKS01A3\iks01a3_env_sensors_ex.c ****       if (STTS751_TEMP_SetLowTemperatureThreshold(EnvCompObj[Instance], Value) != BSP_ERROR_NONE)
 447              		.loc 1 425 7 view .LVU120
 418:D:/fchai/work/i-cube/I-CUBE-HUAWEI/Drivers/BSP/IKS01A3\iks01a3_env_sensors_ex.c ****   int32_t ret;
 448              		.loc 1 418 1 is_stmt 0 view .LVU121
 449 0004 08B5     		push	{r3, lr}
 450              	.LCFI5:
 451              		.cfi_def_cfa_offset 8
 452              		.cfi_offset 3, -8
 453              		.cfi_offset 14, -4
 454              		.loc 1 425 61 view .LVU122
 455 0006 064B     		ldr	r3, .L75
 456              		.loc 1 425 11 view .LVU123
 457 0008 9868     		ldr	r0, [r3, #8]
 458              	.LVL54:
 459              		.loc 1 425 11 view .LVU124
 460 000a FFF7FEFF 		bl	STTS751_TEMP_SetLowTemperatureThreshold
 461              	.LVL55:
 462              		.loc 1 425 10 view .LVU125
 463 000e 0028     		cmp	r0, #0
 426:D:/fchai/work/i-cube/I-CUBE-HUAWEI/Drivers/BSP/IKS01A3\iks01a3_env_sensors_ex.c ****       {
 427:D:/fchai/work/i-cube/I-CUBE-HUAWEI/Drivers/BSP/IKS01A3\iks01a3_env_sensors_ex.c ****         ret = BSP_ERROR_COMPONENT_FAILURE;
 464              		.loc 1 427 13 view .LVU126
 465 0010 18BF     		it	ne
 466 0012 6FF00400 		mvnne	r0, #4
 428:D:/fchai/work/i-cube/I-CUBE-HUAWEI/Drivers/BSP/IKS01A3\iks01a3_env_sensors_ex.c ****       }
 429:D:/fchai/work/i-cube/I-CUBE-HUAWEI/Drivers/BSP/IKS01A3\iks01a3_env_sensors_ex.c ****       else
ARM GAS  T:\msys\tmp\cc0WNqff.s 			page 18


 430:D:/fchai/work/i-cube/I-CUBE-HUAWEI/Drivers/BSP/IKS01A3\iks01a3_env_sensors_ex.c ****       {
 431:D:/fchai/work/i-cube/I-CUBE-HUAWEI/Drivers/BSP/IKS01A3\iks01a3_env_sensors_ex.c ****         ret = BSP_ERROR_NONE;
 432:D:/fchai/work/i-cube/I-CUBE-HUAWEI/Drivers/BSP/IKS01A3\iks01a3_env_sensors_ex.c ****       }
 433:D:/fchai/work/i-cube/I-CUBE-HUAWEI/Drivers/BSP/IKS01A3\iks01a3_env_sensors_ex.c ****       break;
 434:D:/fchai/work/i-cube/I-CUBE-HUAWEI/Drivers/BSP/IKS01A3\iks01a3_env_sensors_ex.c **** #endif
 435:D:/fchai/work/i-cube/I-CUBE-HUAWEI/Drivers/BSP/IKS01A3\iks01a3_env_sensors_ex.c **** 
 436:D:/fchai/work/i-cube/I-CUBE-HUAWEI/Drivers/BSP/IKS01A3\iks01a3_env_sensors_ex.c ****     default:
 437:D:/fchai/work/i-cube/I-CUBE-HUAWEI/Drivers/BSP/IKS01A3\iks01a3_env_sensors_ex.c ****       ret = BSP_ERROR_WRONG_PARAM;
 438:D:/fchai/work/i-cube/I-CUBE-HUAWEI/Drivers/BSP/IKS01A3\iks01a3_env_sensors_ex.c ****       break;
 439:D:/fchai/work/i-cube/I-CUBE-HUAWEI/Drivers/BSP/IKS01A3\iks01a3_env_sensors_ex.c ****   }
 440:D:/fchai/work/i-cube/I-CUBE-HUAWEI/Drivers/BSP/IKS01A3\iks01a3_env_sensors_ex.c **** 
 441:D:/fchai/work/i-cube/I-CUBE-HUAWEI/Drivers/BSP/IKS01A3\iks01a3_env_sensors_ex.c ****   return ret;
 442:D:/fchai/work/i-cube/I-CUBE-HUAWEI/Drivers/BSP/IKS01A3\iks01a3_env_sensors_ex.c **** }
 467              		.loc 1 442 1 view .LVU127
 468 0016 08BD     		pop	{r3, pc}
 469              	.LVL56:
 470              	.L69:
 471              	.LCFI6:
 472              		.cfi_def_cfa_offset 0
 473              		.cfi_restore 3
 474              		.cfi_restore 14
 437:D:/fchai/work/i-cube/I-CUBE-HUAWEI/Drivers/BSP/IKS01A3\iks01a3_env_sensors_ex.c ****       break;
 475              		.loc 1 437 11 view .LVU128
 476 0018 6FF00100 		mvn	r0, #1
 477              	.LVL57:
 478              		.loc 1 442 1 view .LVU129
 479 001c 7047     		bx	lr
 480              	.L76:
 481 001e 00BF     		.align	2
 482              	.L75:
 483 0020 00000000 		.word	EnvCompObj
 484              		.cfi_endproc
 485              	.LFE127:
 487              		.section	.text.IKS01A3_ENV_SENSOR_Get_Temperature_Limit_Status,"ax",%progbits
 488              		.align	1
 489              		.p2align 2,,3
 490              		.global	IKS01A3_ENV_SENSOR_Get_Temperature_Limit_Status
 491              		.syntax unified
 492              		.thumb
 493              		.thumb_func
 494              		.fpu fpv4-sp-d16
 496              	IKS01A3_ENV_SENSOR_Get_Temperature_Limit_Status:
 497              	.LVL58:
 498              	.LFB128:
 443:D:/fchai/work/i-cube/I-CUBE-HUAWEI/Drivers/BSP/IKS01A3\iks01a3_env_sensors_ex.c **** 
 444:D:/fchai/work/i-cube/I-CUBE-HUAWEI/Drivers/BSP/IKS01A3\iks01a3_env_sensors_ex.c **** /**
 445:D:/fchai/work/i-cube/I-CUBE-HUAWEI/Drivers/BSP/IKS01A3\iks01a3_env_sensors_ex.c ****  * @brief  Get temperature limit status (available only STTS751 sensors)
 446:D:/fchai/work/i-cube/I-CUBE-HUAWEI/Drivers/BSP/IKS01A3\iks01a3_env_sensors_ex.c ****  * @param  Instance the device instance
 447:D:/fchai/work/i-cube/I-CUBE-HUAWEI/Drivers/BSP/IKS01A3\iks01a3_env_sensors_ex.c ****  * @param  HighLimit indicates that high temperature limit has been exceeded
 448:D:/fchai/work/i-cube/I-CUBE-HUAWEI/Drivers/BSP/IKS01A3\iks01a3_env_sensors_ex.c ****  * @param  LowLimit indicates that low temperature limit has been exceeded
 449:D:/fchai/work/i-cube/I-CUBE-HUAWEI/Drivers/BSP/IKS01A3\iks01a3_env_sensors_ex.c ****  * @param  ThermLimit indicates that therm temperature limit has been exceeded
 450:D:/fchai/work/i-cube/I-CUBE-HUAWEI/Drivers/BSP/IKS01A3\iks01a3_env_sensors_ex.c ****  * @retval BSP status
 451:D:/fchai/work/i-cube/I-CUBE-HUAWEI/Drivers/BSP/IKS01A3\iks01a3_env_sensors_ex.c ****  */
 452:D:/fchai/work/i-cube/I-CUBE-HUAWEI/Drivers/BSP/IKS01A3\iks01a3_env_sensors_ex.c **** int32_t IKS01A3_ENV_SENSOR_Get_Temperature_Limit_Status(uint32_t Instance, uint8_t *HighLimit, uint
 453:D:/fchai/work/i-cube/I-CUBE-HUAWEI/Drivers/BSP/IKS01A3\iks01a3_env_sensors_ex.c **** {
 499              		.loc 1 453 1 is_stmt 1 view -0
 500              		.cfi_startproc
ARM GAS  T:\msys\tmp\cc0WNqff.s 			page 19


 501              		@ args = 0, pretend = 0, frame = 0
 502              		@ frame_needed = 0, uses_anonymous_args = 0
 454:D:/fchai/work/i-cube/I-CUBE-HUAWEI/Drivers/BSP/IKS01A3\iks01a3_env_sensors_ex.c ****   int32_t ret;
 503              		.loc 1 454 3 view .LVU131
 455:D:/fchai/work/i-cube/I-CUBE-HUAWEI/Drivers/BSP/IKS01A3\iks01a3_env_sensors_ex.c **** 
 456:D:/fchai/work/i-cube/I-CUBE-HUAWEI/Drivers/BSP/IKS01A3\iks01a3_env_sensors_ex.c ****   switch (Instance)
 504              		.loc 1 456 3 view .LVU132
 505 0000 0228     		cmp	r0, #2
 506 0002 09D1     		bne	.L79
 457:D:/fchai/work/i-cube/I-CUBE-HUAWEI/Drivers/BSP/IKS01A3\iks01a3_env_sensors_ex.c ****   {
 458:D:/fchai/work/i-cube/I-CUBE-HUAWEI/Drivers/BSP/IKS01A3\iks01a3_env_sensors_ex.c **** #if (USE_IKS01A3_ENV_SENSOR_STTS751_0 == 1)
 459:D:/fchai/work/i-cube/I-CUBE-HUAWEI/Drivers/BSP/IKS01A3\iks01a3_env_sensors_ex.c ****     case IKS01A3_STTS751_0:
 460:D:/fchai/work/i-cube/I-CUBE-HUAWEI/Drivers/BSP/IKS01A3\iks01a3_env_sensors_ex.c ****       if (STTS751_TEMP_GetTemperatureLimitStatus(EnvCompObj[Instance], HighLimit, LowLimit, ThermLi
 507              		.loc 1 460 7 view .LVU133
 508              		.loc 1 460 60 is_stmt 0 view .LVU134
 509 0004 0648     		ldr	r0, .L85
 510              	.LVL59:
 453:D:/fchai/work/i-cube/I-CUBE-HUAWEI/Drivers/BSP/IKS01A3\iks01a3_env_sensors_ex.c ****   int32_t ret;
 511              		.loc 1 453 1 view .LVU135
 512 0006 08B5     		push	{r3, lr}
 513              	.LCFI7:
 514              		.cfi_def_cfa_offset 8
 515              		.cfi_offset 3, -8
 516              		.cfi_offset 14, -4
 517              		.loc 1 460 11 view .LVU136
 518 0008 8068     		ldr	r0, [r0, #8]
 519 000a FFF7FEFF 		bl	STTS751_TEMP_GetTemperatureLimitStatus
 520              	.LVL60:
 521              		.loc 1 460 10 view .LVU137
 522 000e 0028     		cmp	r0, #0
 461:D:/fchai/work/i-cube/I-CUBE-HUAWEI/Drivers/BSP/IKS01A3\iks01a3_env_sensors_ex.c ****       {
 462:D:/fchai/work/i-cube/I-CUBE-HUAWEI/Drivers/BSP/IKS01A3\iks01a3_env_sensors_ex.c ****         ret = BSP_ERROR_COMPONENT_FAILURE;
 523              		.loc 1 462 13 view .LVU138
 524 0010 18BF     		it	ne
 525 0012 6FF00400 		mvnne	r0, #4
 463:D:/fchai/work/i-cube/I-CUBE-HUAWEI/Drivers/BSP/IKS01A3\iks01a3_env_sensors_ex.c ****       }
 464:D:/fchai/work/i-cube/I-CUBE-HUAWEI/Drivers/BSP/IKS01A3\iks01a3_env_sensors_ex.c ****       else
 465:D:/fchai/work/i-cube/I-CUBE-HUAWEI/Drivers/BSP/IKS01A3\iks01a3_env_sensors_ex.c ****       {
 466:D:/fchai/work/i-cube/I-CUBE-HUAWEI/Drivers/BSP/IKS01A3\iks01a3_env_sensors_ex.c ****         ret = BSP_ERROR_NONE;
 467:D:/fchai/work/i-cube/I-CUBE-HUAWEI/Drivers/BSP/IKS01A3\iks01a3_env_sensors_ex.c ****       }
 468:D:/fchai/work/i-cube/I-CUBE-HUAWEI/Drivers/BSP/IKS01A3\iks01a3_env_sensors_ex.c ****       break;
 469:D:/fchai/work/i-cube/I-CUBE-HUAWEI/Drivers/BSP/IKS01A3\iks01a3_env_sensors_ex.c **** #endif
 470:D:/fchai/work/i-cube/I-CUBE-HUAWEI/Drivers/BSP/IKS01A3\iks01a3_env_sensors_ex.c **** 
 471:D:/fchai/work/i-cube/I-CUBE-HUAWEI/Drivers/BSP/IKS01A3\iks01a3_env_sensors_ex.c ****     default:
 472:D:/fchai/work/i-cube/I-CUBE-HUAWEI/Drivers/BSP/IKS01A3\iks01a3_env_sensors_ex.c ****       ret = BSP_ERROR_WRONG_PARAM;
 473:D:/fchai/work/i-cube/I-CUBE-HUAWEI/Drivers/BSP/IKS01A3\iks01a3_env_sensors_ex.c ****       break;
 474:D:/fchai/work/i-cube/I-CUBE-HUAWEI/Drivers/BSP/IKS01A3\iks01a3_env_sensors_ex.c ****   }
 475:D:/fchai/work/i-cube/I-CUBE-HUAWEI/Drivers/BSP/IKS01A3\iks01a3_env_sensors_ex.c **** 
 476:D:/fchai/work/i-cube/I-CUBE-HUAWEI/Drivers/BSP/IKS01A3\iks01a3_env_sensors_ex.c ****   return ret;
 477:D:/fchai/work/i-cube/I-CUBE-HUAWEI/Drivers/BSP/IKS01A3\iks01a3_env_sensors_ex.c **** }
 526              		.loc 1 477 1 view .LVU139
 527 0016 08BD     		pop	{r3, pc}
 528              	.LVL61:
 529              	.L79:
 530              	.LCFI8:
 531              		.cfi_def_cfa_offset 0
 532              		.cfi_restore 3
ARM GAS  T:\msys\tmp\cc0WNqff.s 			page 20


 533              		.cfi_restore 14
 472:D:/fchai/work/i-cube/I-CUBE-HUAWEI/Drivers/BSP/IKS01A3\iks01a3_env_sensors_ex.c ****       break;
 534              		.loc 1 472 11 view .LVU140
 535 0018 6FF00100 		mvn	r0, #1
 536              	.LVL62:
 537              		.loc 1 477 1 view .LVU141
 538 001c 7047     		bx	lr
 539              	.L86:
 540 001e 00BF     		.align	2
 541              	.L85:
 542 0020 00000000 		.word	EnvCompObj
 543              		.cfi_endproc
 544              	.LFE128:
 546              		.section	.text.IKS01A3_ENV_SENSOR_Set_Event_Pin,"ax",%progbits
 547              		.align	1
 548              		.p2align 2,,3
 549              		.global	IKS01A3_ENV_SENSOR_Set_Event_Pin
 550              		.syntax unified
 551              		.thumb
 552              		.thumb_func
 553              		.fpu fpv4-sp-d16
 555              	IKS01A3_ENV_SENSOR_Set_Event_Pin:
 556              	.LVL63:
 557              	.LFB129:
 478:D:/fchai/work/i-cube/I-CUBE-HUAWEI/Drivers/BSP/IKS01A3\iks01a3_env_sensors_ex.c **** 
 479:D:/fchai/work/i-cube/I-CUBE-HUAWEI/Drivers/BSP/IKS01A3\iks01a3_env_sensors_ex.c **** /**
 480:D:/fchai/work/i-cube/I-CUBE-HUAWEI/Drivers/BSP/IKS01A3\iks01a3_env_sensors_ex.c ****  * @brief  Enable or disable interrupt on EVENT pin (available only STTS751 sensors)
 481:D:/fchai/work/i-cube/I-CUBE-HUAWEI/Drivers/BSP/IKS01A3\iks01a3_env_sensors_ex.c ****  * @param  Instance the device instance
 482:D:/fchai/work/i-cube/I-CUBE-HUAWEI/Drivers/BSP/IKS01A3\iks01a3_env_sensors_ex.c ****  * @param  Enable 0 disable the EVENT pin, 1 enable EVENT pin
 483:D:/fchai/work/i-cube/I-CUBE-HUAWEI/Drivers/BSP/IKS01A3\iks01a3_env_sensors_ex.c ****  * @retval BSP status
 484:D:/fchai/work/i-cube/I-CUBE-HUAWEI/Drivers/BSP/IKS01A3\iks01a3_env_sensors_ex.c ****  */
 485:D:/fchai/work/i-cube/I-CUBE-HUAWEI/Drivers/BSP/IKS01A3\iks01a3_env_sensors_ex.c **** int32_t IKS01A3_ENV_SENSOR_Set_Event_Pin(uint32_t Instance, uint8_t Enable)
 486:D:/fchai/work/i-cube/I-CUBE-HUAWEI/Drivers/BSP/IKS01A3\iks01a3_env_sensors_ex.c **** {
 558              		.loc 1 486 1 is_stmt 1 view -0
 559              		.cfi_startproc
 560              		@ args = 0, pretend = 0, frame = 0
 561              		@ frame_needed = 0, uses_anonymous_args = 0
 487:D:/fchai/work/i-cube/I-CUBE-HUAWEI/Drivers/BSP/IKS01A3\iks01a3_env_sensors_ex.c ****   int32_t ret;
 562              		.loc 1 487 3 view .LVU143
 488:D:/fchai/work/i-cube/I-CUBE-HUAWEI/Drivers/BSP/IKS01A3\iks01a3_env_sensors_ex.c **** 
 489:D:/fchai/work/i-cube/I-CUBE-HUAWEI/Drivers/BSP/IKS01A3\iks01a3_env_sensors_ex.c ****   switch (Instance)
 563              		.loc 1 489 3 view .LVU144
 564 0000 0228     		cmp	r0, #2
 565 0002 09D1     		bne	.L89
 490:D:/fchai/work/i-cube/I-CUBE-HUAWEI/Drivers/BSP/IKS01A3\iks01a3_env_sensors_ex.c ****   {
 491:D:/fchai/work/i-cube/I-CUBE-HUAWEI/Drivers/BSP/IKS01A3\iks01a3_env_sensors_ex.c **** #if (USE_IKS01A3_ENV_SENSOR_STTS751_0 == 1)
 492:D:/fchai/work/i-cube/I-CUBE-HUAWEI/Drivers/BSP/IKS01A3\iks01a3_env_sensors_ex.c ****     case IKS01A3_STTS751_0:
 493:D:/fchai/work/i-cube/I-CUBE-HUAWEI/Drivers/BSP/IKS01A3\iks01a3_env_sensors_ex.c ****       if (STTS751_TEMP_SetEventPin(EnvCompObj[Instance], Enable) != BSP_ERROR_NONE)
 566              		.loc 1 493 7 view .LVU145
 486:D:/fchai/work/i-cube/I-CUBE-HUAWEI/Drivers/BSP/IKS01A3\iks01a3_env_sensors_ex.c ****   int32_t ret;
 567              		.loc 1 486 1 is_stmt 0 view .LVU146
 568 0004 08B5     		push	{r3, lr}
 569              	.LCFI9:
 570              		.cfi_def_cfa_offset 8
 571              		.cfi_offset 3, -8
 572              		.cfi_offset 14, -4
 573              		.loc 1 493 46 view .LVU147
ARM GAS  T:\msys\tmp\cc0WNqff.s 			page 21


 574 0006 064B     		ldr	r3, .L95
 575              		.loc 1 493 11 view .LVU148
 576 0008 9868     		ldr	r0, [r3, #8]
 577              	.LVL64:
 578              		.loc 1 493 11 view .LVU149
 579 000a FFF7FEFF 		bl	STTS751_TEMP_SetEventPin
 580              	.LVL65:
 581              		.loc 1 493 10 view .LVU150
 582 000e 0028     		cmp	r0, #0
 494:D:/fchai/work/i-cube/I-CUBE-HUAWEI/Drivers/BSP/IKS01A3\iks01a3_env_sensors_ex.c ****       {
 495:D:/fchai/work/i-cube/I-CUBE-HUAWEI/Drivers/BSP/IKS01A3\iks01a3_env_sensors_ex.c ****         ret = BSP_ERROR_COMPONENT_FAILURE;
 583              		.loc 1 495 13 view .LVU151
 584 0010 18BF     		it	ne
 585 0012 6FF00400 		mvnne	r0, #4
 496:D:/fchai/work/i-cube/I-CUBE-HUAWEI/Drivers/BSP/IKS01A3\iks01a3_env_sensors_ex.c ****       }
 497:D:/fchai/work/i-cube/I-CUBE-HUAWEI/Drivers/BSP/IKS01A3\iks01a3_env_sensors_ex.c ****       else
 498:D:/fchai/work/i-cube/I-CUBE-HUAWEI/Drivers/BSP/IKS01A3\iks01a3_env_sensors_ex.c ****       {
 499:D:/fchai/work/i-cube/I-CUBE-HUAWEI/Drivers/BSP/IKS01A3\iks01a3_env_sensors_ex.c ****         ret = BSP_ERROR_NONE;
 500:D:/fchai/work/i-cube/I-CUBE-HUAWEI/Drivers/BSP/IKS01A3\iks01a3_env_sensors_ex.c ****       }
 501:D:/fchai/work/i-cube/I-CUBE-HUAWEI/Drivers/BSP/IKS01A3\iks01a3_env_sensors_ex.c ****       break;
 502:D:/fchai/work/i-cube/I-CUBE-HUAWEI/Drivers/BSP/IKS01A3\iks01a3_env_sensors_ex.c **** #endif
 503:D:/fchai/work/i-cube/I-CUBE-HUAWEI/Drivers/BSP/IKS01A3\iks01a3_env_sensors_ex.c **** 
 504:D:/fchai/work/i-cube/I-CUBE-HUAWEI/Drivers/BSP/IKS01A3\iks01a3_env_sensors_ex.c ****     default:
 505:D:/fchai/work/i-cube/I-CUBE-HUAWEI/Drivers/BSP/IKS01A3\iks01a3_env_sensors_ex.c ****       ret = BSP_ERROR_WRONG_PARAM;
 506:D:/fchai/work/i-cube/I-CUBE-HUAWEI/Drivers/BSP/IKS01A3\iks01a3_env_sensors_ex.c ****       break;
 507:D:/fchai/work/i-cube/I-CUBE-HUAWEI/Drivers/BSP/IKS01A3\iks01a3_env_sensors_ex.c ****   }
 508:D:/fchai/work/i-cube/I-CUBE-HUAWEI/Drivers/BSP/IKS01A3\iks01a3_env_sensors_ex.c **** 
 509:D:/fchai/work/i-cube/I-CUBE-HUAWEI/Drivers/BSP/IKS01A3\iks01a3_env_sensors_ex.c ****   return ret;
 510:D:/fchai/work/i-cube/I-CUBE-HUAWEI/Drivers/BSP/IKS01A3\iks01a3_env_sensors_ex.c **** }
 586              		.loc 1 510 1 view .LVU152
 587 0016 08BD     		pop	{r3, pc}
 588              	.LVL66:
 589              	.L89:
 590              	.LCFI10:
 591              		.cfi_def_cfa_offset 0
 592              		.cfi_restore 3
 593              		.cfi_restore 14
 505:D:/fchai/work/i-cube/I-CUBE-HUAWEI/Drivers/BSP/IKS01A3\iks01a3_env_sensors_ex.c ****       break;
 594              		.loc 1 505 11 view .LVU153
 595 0018 6FF00100 		mvn	r0, #1
 596              	.LVL67:
 597              		.loc 1 510 1 view .LVU154
 598 001c 7047     		bx	lr
 599              	.L96:
 600 001e 00BF     		.align	2
 601              	.L95:
 602 0020 00000000 		.word	EnvCompObj
 603              		.cfi_endproc
 604              	.LFE129:
 606              		.section	.text.IKS01A3_ENV_SENSOR_FIFO_Get_Data,"ax",%progbits
 607              		.align	1
 608              		.p2align 2,,3
 609              		.global	IKS01A3_ENV_SENSOR_FIFO_Get_Data
 610              		.syntax unified
 611              		.thumb
 612              		.thumb_func
 613              		.fpu fpv4-sp-d16
ARM GAS  T:\msys\tmp\cc0WNqff.s 			page 22


 615              	IKS01A3_ENV_SENSOR_FIFO_Get_Data:
 616              	.LVL68:
 617              	.LFB130:
 511:D:/fchai/work/i-cube/I-CUBE-HUAWEI/Drivers/BSP/IKS01A3\iks01a3_env_sensors_ex.c **** 
 512:D:/fchai/work/i-cube/I-CUBE-HUAWEI/Drivers/BSP/IKS01A3\iks01a3_env_sensors_ex.c **** /**
 513:D:/fchai/work/i-cube/I-CUBE-HUAWEI/Drivers/BSP/IKS01A3\iks01a3_env_sensors_ex.c ****  * @brief  Get the data stored in FIFO (available only for LPS22HH, LPS33HW sensor)
 514:D:/fchai/work/i-cube/I-CUBE-HUAWEI/Drivers/BSP/IKS01A3\iks01a3_env_sensors_ex.c ****  * @param  Instance the device instance
 515:D:/fchai/work/i-cube/I-CUBE-HUAWEI/Drivers/BSP/IKS01A3\iks01a3_env_sensors_ex.c ****  * @param  Press the pressure data
 516:D:/fchai/work/i-cube/I-CUBE-HUAWEI/Drivers/BSP/IKS01A3\iks01a3_env_sensors_ex.c ****  * @param  Temp the temperature data
 517:D:/fchai/work/i-cube/I-CUBE-HUAWEI/Drivers/BSP/IKS01A3\iks01a3_env_sensors_ex.c ****  * @retval BSP status
 518:D:/fchai/work/i-cube/I-CUBE-HUAWEI/Drivers/BSP/IKS01A3\iks01a3_env_sensors_ex.c ****  */
 519:D:/fchai/work/i-cube/I-CUBE-HUAWEI/Drivers/BSP/IKS01A3\iks01a3_env_sensors_ex.c **** int32_t IKS01A3_ENV_SENSOR_FIFO_Get_Data(uint32_t Instance, float *Press, float *Temp)
 520:D:/fchai/work/i-cube/I-CUBE-HUAWEI/Drivers/BSP/IKS01A3\iks01a3_env_sensors_ex.c **** {
 618              		.loc 1 520 1 is_stmt 1 view -0
 619              		.cfi_startproc
 620              		@ args = 0, pretend = 0, frame = 0
 621              		@ frame_needed = 0, uses_anonymous_args = 0
 521:D:/fchai/work/i-cube/I-CUBE-HUAWEI/Drivers/BSP/IKS01A3\iks01a3_env_sensors_ex.c ****   int32_t ret;
 622              		.loc 1 521 3 view .LVU156
 522:D:/fchai/work/i-cube/I-CUBE-HUAWEI/Drivers/BSP/IKS01A3\iks01a3_env_sensors_ex.c **** 
 523:D:/fchai/work/i-cube/I-CUBE-HUAWEI/Drivers/BSP/IKS01A3\iks01a3_env_sensors_ex.c ****   switch (Instance)
 623              		.loc 1 523 3 view .LVU157
 624 0000 0128     		cmp	r0, #1
 625 0002 09D1     		bne	.L99
 524:D:/fchai/work/i-cube/I-CUBE-HUAWEI/Drivers/BSP/IKS01A3\iks01a3_env_sensors_ex.c ****   {
 525:D:/fchai/work/i-cube/I-CUBE-HUAWEI/Drivers/BSP/IKS01A3\iks01a3_env_sensors_ex.c **** #if (USE_IKS01A3_ENV_SENSOR_LPS22HH_0 == 1)
 526:D:/fchai/work/i-cube/I-CUBE-HUAWEI/Drivers/BSP/IKS01A3\iks01a3_env_sensors_ex.c ****     case IKS01A3_LPS22HH_0:
 527:D:/fchai/work/i-cube/I-CUBE-HUAWEI/Drivers/BSP/IKS01A3\iks01a3_env_sensors_ex.c ****       if (LPS22HH_FIFO_Get_Data(EnvCompObj[Instance], Press, Temp) != BSP_ERROR_NONE)
 626              		.loc 1 527 7 view .LVU158
 520:D:/fchai/work/i-cube/I-CUBE-HUAWEI/Drivers/BSP/IKS01A3\iks01a3_env_sensors_ex.c ****   int32_t ret;
 627              		.loc 1 520 1 is_stmt 0 view .LVU159
 628 0004 08B5     		push	{r3, lr}
 629              	.LCFI11:
 630              		.cfi_def_cfa_offset 8
 631              		.cfi_offset 3, -8
 632              		.cfi_offset 14, -4
 633              		.loc 1 527 43 view .LVU160
 634 0006 064B     		ldr	r3, .L105
 635              		.loc 1 527 11 view .LVU161
 636 0008 5868     		ldr	r0, [r3, #4]
 637              	.LVL69:
 638              		.loc 1 527 11 view .LVU162
 639 000a FFF7FEFF 		bl	LPS22HH_FIFO_Get_Data
 640              	.LVL70:
 641              		.loc 1 527 10 view .LVU163
 642 000e 0028     		cmp	r0, #0
 528:D:/fchai/work/i-cube/I-CUBE-HUAWEI/Drivers/BSP/IKS01A3\iks01a3_env_sensors_ex.c ****       {
 529:D:/fchai/work/i-cube/I-CUBE-HUAWEI/Drivers/BSP/IKS01A3\iks01a3_env_sensors_ex.c ****         ret = BSP_ERROR_COMPONENT_FAILURE;
 643              		.loc 1 529 13 view .LVU164
 644 0010 18BF     		it	ne
 645 0012 6FF00400 		mvnne	r0, #4
 530:D:/fchai/work/i-cube/I-CUBE-HUAWEI/Drivers/BSP/IKS01A3\iks01a3_env_sensors_ex.c ****       }
 531:D:/fchai/work/i-cube/I-CUBE-HUAWEI/Drivers/BSP/IKS01A3\iks01a3_env_sensors_ex.c ****       else
 532:D:/fchai/work/i-cube/I-CUBE-HUAWEI/Drivers/BSP/IKS01A3\iks01a3_env_sensors_ex.c ****       {
 533:D:/fchai/work/i-cube/I-CUBE-HUAWEI/Drivers/BSP/IKS01A3\iks01a3_env_sensors_ex.c ****         ret = BSP_ERROR_NONE;
 534:D:/fchai/work/i-cube/I-CUBE-HUAWEI/Drivers/BSP/IKS01A3\iks01a3_env_sensors_ex.c ****       }
 535:D:/fchai/work/i-cube/I-CUBE-HUAWEI/Drivers/BSP/IKS01A3\iks01a3_env_sensors_ex.c ****       break;
ARM GAS  T:\msys\tmp\cc0WNqff.s 			page 23


 536:D:/fchai/work/i-cube/I-CUBE-HUAWEI/Drivers/BSP/IKS01A3\iks01a3_env_sensors_ex.c **** #endif
 537:D:/fchai/work/i-cube/I-CUBE-HUAWEI/Drivers/BSP/IKS01A3\iks01a3_env_sensors_ex.c **** 
 538:D:/fchai/work/i-cube/I-CUBE-HUAWEI/Drivers/BSP/IKS01A3\iks01a3_env_sensors_ex.c ****     default:
 539:D:/fchai/work/i-cube/I-CUBE-HUAWEI/Drivers/BSP/IKS01A3\iks01a3_env_sensors_ex.c ****       ret = BSP_ERROR_WRONG_PARAM;
 540:D:/fchai/work/i-cube/I-CUBE-HUAWEI/Drivers/BSP/IKS01A3\iks01a3_env_sensors_ex.c ****       break;
 541:D:/fchai/work/i-cube/I-CUBE-HUAWEI/Drivers/BSP/IKS01A3\iks01a3_env_sensors_ex.c ****   }
 542:D:/fchai/work/i-cube/I-CUBE-HUAWEI/Drivers/BSP/IKS01A3\iks01a3_env_sensors_ex.c **** 
 543:D:/fchai/work/i-cube/I-CUBE-HUAWEI/Drivers/BSP/IKS01A3\iks01a3_env_sensors_ex.c ****   return ret;
 544:D:/fchai/work/i-cube/I-CUBE-HUAWEI/Drivers/BSP/IKS01A3\iks01a3_env_sensors_ex.c **** }
 646              		.loc 1 544 1 view .LVU165
 647 0016 08BD     		pop	{r3, pc}
 648              	.LVL71:
 649              	.L99:
 650              	.LCFI12:
 651              		.cfi_def_cfa_offset 0
 652              		.cfi_restore 3
 653              		.cfi_restore 14
 539:D:/fchai/work/i-cube/I-CUBE-HUAWEI/Drivers/BSP/IKS01A3\iks01a3_env_sensors_ex.c ****       break;
 654              		.loc 1 539 11 view .LVU166
 655 0018 6FF00100 		mvn	r0, #1
 656              	.LVL72:
 657              		.loc 1 544 1 view .LVU167
 658 001c 7047     		bx	lr
 659              	.L106:
 660 001e 00BF     		.align	2
 661              	.L105:
 662 0020 00000000 		.word	EnvCompObj
 663              		.cfi_endproc
 664              	.LFE130:
 666              		.section	.text.IKS01A3_ENV_SENSOR_FIFO_Get_Fth_Status,"ax",%progbits
 667              		.align	1
 668              		.p2align 2,,3
 669              		.global	IKS01A3_ENV_SENSOR_FIFO_Get_Fth_Status
 670              		.syntax unified
 671              		.thumb
 672              		.thumb_func
 673              		.fpu fpv4-sp-d16
 675              	IKS01A3_ENV_SENSOR_FIFO_Get_Fth_Status:
 676              	.LVL73:
 677              	.LFB131:
 545:D:/fchai/work/i-cube/I-CUBE-HUAWEI/Drivers/BSP/IKS01A3\iks01a3_env_sensors_ex.c **** 
 546:D:/fchai/work/i-cube/I-CUBE-HUAWEI/Drivers/BSP/IKS01A3\iks01a3_env_sensors_ex.c **** /**
 547:D:/fchai/work/i-cube/I-CUBE-HUAWEI/Drivers/BSP/IKS01A3\iks01a3_env_sensors_ex.c ****  * @brief  Get FIFO THR status (available only for LPS22HH, LPS33HW sensor)
 548:D:/fchai/work/i-cube/I-CUBE-HUAWEI/Drivers/BSP/IKS01A3\iks01a3_env_sensors_ex.c ****  * @param  Instance the device instance
 549:D:/fchai/work/i-cube/I-CUBE-HUAWEI/Drivers/BSP/IKS01A3\iks01a3_env_sensors_ex.c ****  * @param  Status the pointer to the status
 550:D:/fchai/work/i-cube/I-CUBE-HUAWEI/Drivers/BSP/IKS01A3\iks01a3_env_sensors_ex.c ****  * @retval BSP status
 551:D:/fchai/work/i-cube/I-CUBE-HUAWEI/Drivers/BSP/IKS01A3\iks01a3_env_sensors_ex.c ****  */
 552:D:/fchai/work/i-cube/I-CUBE-HUAWEI/Drivers/BSP/IKS01A3\iks01a3_env_sensors_ex.c **** int32_t IKS01A3_ENV_SENSOR_FIFO_Get_Fth_Status(uint32_t Instance, uint8_t *Status)
 553:D:/fchai/work/i-cube/I-CUBE-HUAWEI/Drivers/BSP/IKS01A3\iks01a3_env_sensors_ex.c **** {
 678              		.loc 1 553 1 is_stmt 1 view -0
 679              		.cfi_startproc
 680              		@ args = 0, pretend = 0, frame = 0
 681              		@ frame_needed = 0, uses_anonymous_args = 0
 554:D:/fchai/work/i-cube/I-CUBE-HUAWEI/Drivers/BSP/IKS01A3\iks01a3_env_sensors_ex.c ****   int32_t ret;
 682              		.loc 1 554 3 view .LVU169
 555:D:/fchai/work/i-cube/I-CUBE-HUAWEI/Drivers/BSP/IKS01A3\iks01a3_env_sensors_ex.c **** 
 556:D:/fchai/work/i-cube/I-CUBE-HUAWEI/Drivers/BSP/IKS01A3\iks01a3_env_sensors_ex.c ****   switch (Instance)
ARM GAS  T:\msys\tmp\cc0WNqff.s 			page 24


 683              		.loc 1 556 3 view .LVU170
 684 0000 0128     		cmp	r0, #1
 685 0002 09D1     		bne	.L109
 557:D:/fchai/work/i-cube/I-CUBE-HUAWEI/Drivers/BSP/IKS01A3\iks01a3_env_sensors_ex.c ****   {
 558:D:/fchai/work/i-cube/I-CUBE-HUAWEI/Drivers/BSP/IKS01A3\iks01a3_env_sensors_ex.c **** #if (USE_IKS01A3_ENV_SENSOR_LPS22HH_0 == 1)
 559:D:/fchai/work/i-cube/I-CUBE-HUAWEI/Drivers/BSP/IKS01A3\iks01a3_env_sensors_ex.c ****     case IKS01A3_LPS22HH_0:
 560:D:/fchai/work/i-cube/I-CUBE-HUAWEI/Drivers/BSP/IKS01A3\iks01a3_env_sensors_ex.c ****       if (LPS22HH_FIFO_Get_FTh_Status(EnvCompObj[Instance], Status) != BSP_ERROR_NONE)
 686              		.loc 1 560 7 view .LVU171
 553:D:/fchai/work/i-cube/I-CUBE-HUAWEI/Drivers/BSP/IKS01A3\iks01a3_env_sensors_ex.c ****   int32_t ret;
 687              		.loc 1 553 1 is_stmt 0 view .LVU172
 688 0004 08B5     		push	{r3, lr}
 689              	.LCFI13:
 690              		.cfi_def_cfa_offset 8
 691              		.cfi_offset 3, -8
 692              		.cfi_offset 14, -4
 693              		.loc 1 560 49 view .LVU173
 694 0006 064B     		ldr	r3, .L115
 695              		.loc 1 560 11 view .LVU174
 696 0008 5868     		ldr	r0, [r3, #4]
 697              	.LVL74:
 698              		.loc 1 560 11 view .LVU175
 699 000a FFF7FEFF 		bl	LPS22HH_FIFO_Get_FTh_Status
 700              	.LVL75:
 701              		.loc 1 560 10 view .LVU176
 702 000e 0028     		cmp	r0, #0
 561:D:/fchai/work/i-cube/I-CUBE-HUAWEI/Drivers/BSP/IKS01A3\iks01a3_env_sensors_ex.c ****       {
 562:D:/fchai/work/i-cube/I-CUBE-HUAWEI/Drivers/BSP/IKS01A3\iks01a3_env_sensors_ex.c ****         ret = BSP_ERROR_COMPONENT_FAILURE;
 703              		.loc 1 562 13 view .LVU177
 704 0010 18BF     		it	ne
 705 0012 6FF00400 		mvnne	r0, #4
 563:D:/fchai/work/i-cube/I-CUBE-HUAWEI/Drivers/BSP/IKS01A3\iks01a3_env_sensors_ex.c ****       }
 564:D:/fchai/work/i-cube/I-CUBE-HUAWEI/Drivers/BSP/IKS01A3\iks01a3_env_sensors_ex.c ****       else
 565:D:/fchai/work/i-cube/I-CUBE-HUAWEI/Drivers/BSP/IKS01A3\iks01a3_env_sensors_ex.c ****       {
 566:D:/fchai/work/i-cube/I-CUBE-HUAWEI/Drivers/BSP/IKS01A3\iks01a3_env_sensors_ex.c ****         ret = BSP_ERROR_NONE;
 567:D:/fchai/work/i-cube/I-CUBE-HUAWEI/Drivers/BSP/IKS01A3\iks01a3_env_sensors_ex.c ****       }
 568:D:/fchai/work/i-cube/I-CUBE-HUAWEI/Drivers/BSP/IKS01A3\iks01a3_env_sensors_ex.c ****       break;
 569:D:/fchai/work/i-cube/I-CUBE-HUAWEI/Drivers/BSP/IKS01A3\iks01a3_env_sensors_ex.c **** #endif
 570:D:/fchai/work/i-cube/I-CUBE-HUAWEI/Drivers/BSP/IKS01A3\iks01a3_env_sensors_ex.c **** 
 571:D:/fchai/work/i-cube/I-CUBE-HUAWEI/Drivers/BSP/IKS01A3\iks01a3_env_sensors_ex.c ****     default:
 572:D:/fchai/work/i-cube/I-CUBE-HUAWEI/Drivers/BSP/IKS01A3\iks01a3_env_sensors_ex.c ****       ret = BSP_ERROR_WRONG_PARAM;
 573:D:/fchai/work/i-cube/I-CUBE-HUAWEI/Drivers/BSP/IKS01A3\iks01a3_env_sensors_ex.c ****       break;
 574:D:/fchai/work/i-cube/I-CUBE-HUAWEI/Drivers/BSP/IKS01A3\iks01a3_env_sensors_ex.c ****   }
 575:D:/fchai/work/i-cube/I-CUBE-HUAWEI/Drivers/BSP/IKS01A3\iks01a3_env_sensors_ex.c **** 
 576:D:/fchai/work/i-cube/I-CUBE-HUAWEI/Drivers/BSP/IKS01A3\iks01a3_env_sensors_ex.c ****   return ret;
 577:D:/fchai/work/i-cube/I-CUBE-HUAWEI/Drivers/BSP/IKS01A3\iks01a3_env_sensors_ex.c **** }
 706              		.loc 1 577 1 view .LVU178
 707 0016 08BD     		pop	{r3, pc}
 708              	.LVL76:
 709              	.L109:
 710              	.LCFI14:
 711              		.cfi_def_cfa_offset 0
 712              		.cfi_restore 3
 713              		.cfi_restore 14
 572:D:/fchai/work/i-cube/I-CUBE-HUAWEI/Drivers/BSP/IKS01A3\iks01a3_env_sensors_ex.c ****       break;
 714              		.loc 1 572 11 view .LVU179
 715 0018 6FF00100 		mvn	r0, #1
 716              	.LVL77:
ARM GAS  T:\msys\tmp\cc0WNqff.s 			page 25


 717              		.loc 1 577 1 view .LVU180
 718 001c 7047     		bx	lr
 719              	.L116:
 720 001e 00BF     		.align	2
 721              	.L115:
 722 0020 00000000 		.word	EnvCompObj
 723              		.cfi_endproc
 724              	.LFE131:
 726              		.section	.text.IKS01A3_ENV_SENSOR_FIFO_Get_Full_Status,"ax",%progbits
 727              		.align	1
 728              		.p2align 2,,3
 729              		.global	IKS01A3_ENV_SENSOR_FIFO_Get_Full_Status
 730              		.syntax unified
 731              		.thumb
 732              		.thumb_func
 733              		.fpu fpv4-sp-d16
 735              	IKS01A3_ENV_SENSOR_FIFO_Get_Full_Status:
 736              	.LVL78:
 737              	.LFB132:
 578:D:/fchai/work/i-cube/I-CUBE-HUAWEI/Drivers/BSP/IKS01A3\iks01a3_env_sensors_ex.c **** 
 579:D:/fchai/work/i-cube/I-CUBE-HUAWEI/Drivers/BSP/IKS01A3\iks01a3_env_sensors_ex.c **** /**
 580:D:/fchai/work/i-cube/I-CUBE-HUAWEI/Drivers/BSP/IKS01A3\iks01a3_env_sensors_ex.c ****  * @brief  Get FIFO Full status (available only for LPS22HH, LPS33HW sensor)
 581:D:/fchai/work/i-cube/I-CUBE-HUAWEI/Drivers/BSP/IKS01A3\iks01a3_env_sensors_ex.c ****  * @param  Instance the device instance
 582:D:/fchai/work/i-cube/I-CUBE-HUAWEI/Drivers/BSP/IKS01A3\iks01a3_env_sensors_ex.c ****  * @param  Status the pointer to the status
 583:D:/fchai/work/i-cube/I-CUBE-HUAWEI/Drivers/BSP/IKS01A3\iks01a3_env_sensors_ex.c ****  * @retval BSP status
 584:D:/fchai/work/i-cube/I-CUBE-HUAWEI/Drivers/BSP/IKS01A3\iks01a3_env_sensors_ex.c ****  */
 585:D:/fchai/work/i-cube/I-CUBE-HUAWEI/Drivers/BSP/IKS01A3\iks01a3_env_sensors_ex.c **** int32_t IKS01A3_ENV_SENSOR_FIFO_Get_Full_Status(uint32_t Instance, uint8_t *Status)
 586:D:/fchai/work/i-cube/I-CUBE-HUAWEI/Drivers/BSP/IKS01A3\iks01a3_env_sensors_ex.c **** {
 738              		.loc 1 586 1 is_stmt 1 view -0
 739              		.cfi_startproc
 740              		@ args = 0, pretend = 0, frame = 0
 741              		@ frame_needed = 0, uses_anonymous_args = 0
 587:D:/fchai/work/i-cube/I-CUBE-HUAWEI/Drivers/BSP/IKS01A3\iks01a3_env_sensors_ex.c ****   int32_t ret;
 742              		.loc 1 587 3 view .LVU182
 588:D:/fchai/work/i-cube/I-CUBE-HUAWEI/Drivers/BSP/IKS01A3\iks01a3_env_sensors_ex.c **** 
 589:D:/fchai/work/i-cube/I-CUBE-HUAWEI/Drivers/BSP/IKS01A3\iks01a3_env_sensors_ex.c ****   switch (Instance)
 743              		.loc 1 589 3 view .LVU183
 744 0000 0128     		cmp	r0, #1
 745 0002 09D1     		bne	.L119
 590:D:/fchai/work/i-cube/I-CUBE-HUAWEI/Drivers/BSP/IKS01A3\iks01a3_env_sensors_ex.c ****   {
 591:D:/fchai/work/i-cube/I-CUBE-HUAWEI/Drivers/BSP/IKS01A3\iks01a3_env_sensors_ex.c **** #if (USE_IKS01A3_ENV_SENSOR_LPS22HH_0 == 1)
 592:D:/fchai/work/i-cube/I-CUBE-HUAWEI/Drivers/BSP/IKS01A3\iks01a3_env_sensors_ex.c ****     case IKS01A3_LPS22HH_0:
 593:D:/fchai/work/i-cube/I-CUBE-HUAWEI/Drivers/BSP/IKS01A3\iks01a3_env_sensors_ex.c ****       if (LPS22HH_FIFO_Get_Full_Status(EnvCompObj[Instance], Status) != BSP_ERROR_NONE)
 746              		.loc 1 593 7 view .LVU184
 586:D:/fchai/work/i-cube/I-CUBE-HUAWEI/Drivers/BSP/IKS01A3\iks01a3_env_sensors_ex.c ****   int32_t ret;
 747              		.loc 1 586 1 is_stmt 0 view .LVU185
 748 0004 08B5     		push	{r3, lr}
 749              	.LCFI15:
 750              		.cfi_def_cfa_offset 8
 751              		.cfi_offset 3, -8
 752              		.cfi_offset 14, -4
 753              		.loc 1 593 50 view .LVU186
 754 0006 064B     		ldr	r3, .L125
 755              		.loc 1 593 11 view .LVU187
 756 0008 5868     		ldr	r0, [r3, #4]
 757              	.LVL79:
 758              		.loc 1 593 11 view .LVU188
ARM GAS  T:\msys\tmp\cc0WNqff.s 			page 26


 759 000a FFF7FEFF 		bl	LPS22HH_FIFO_Get_Full_Status
 760              	.LVL80:
 761              		.loc 1 593 10 view .LVU189
 762 000e 0028     		cmp	r0, #0
 594:D:/fchai/work/i-cube/I-CUBE-HUAWEI/Drivers/BSP/IKS01A3\iks01a3_env_sensors_ex.c ****       {
 595:D:/fchai/work/i-cube/I-CUBE-HUAWEI/Drivers/BSP/IKS01A3\iks01a3_env_sensors_ex.c ****         ret = BSP_ERROR_COMPONENT_FAILURE;
 763              		.loc 1 595 13 view .LVU190
 764 0010 18BF     		it	ne
 765 0012 6FF00400 		mvnne	r0, #4
 596:D:/fchai/work/i-cube/I-CUBE-HUAWEI/Drivers/BSP/IKS01A3\iks01a3_env_sensors_ex.c ****       }
 597:D:/fchai/work/i-cube/I-CUBE-HUAWEI/Drivers/BSP/IKS01A3\iks01a3_env_sensors_ex.c ****       else
 598:D:/fchai/work/i-cube/I-CUBE-HUAWEI/Drivers/BSP/IKS01A3\iks01a3_env_sensors_ex.c ****       {
 599:D:/fchai/work/i-cube/I-CUBE-HUAWEI/Drivers/BSP/IKS01A3\iks01a3_env_sensors_ex.c ****         ret = BSP_ERROR_NONE;
 600:D:/fchai/work/i-cube/I-CUBE-HUAWEI/Drivers/BSP/IKS01A3\iks01a3_env_sensors_ex.c ****       }
 601:D:/fchai/work/i-cube/I-CUBE-HUAWEI/Drivers/BSP/IKS01A3\iks01a3_env_sensors_ex.c ****       break;
 602:D:/fchai/work/i-cube/I-CUBE-HUAWEI/Drivers/BSP/IKS01A3\iks01a3_env_sensors_ex.c **** #endif
 603:D:/fchai/work/i-cube/I-CUBE-HUAWEI/Drivers/BSP/IKS01A3\iks01a3_env_sensors_ex.c **** 
 604:D:/fchai/work/i-cube/I-CUBE-HUAWEI/Drivers/BSP/IKS01A3\iks01a3_env_sensors_ex.c ****     default:
 605:D:/fchai/work/i-cube/I-CUBE-HUAWEI/Drivers/BSP/IKS01A3\iks01a3_env_sensors_ex.c ****       ret = BSP_ERROR_WRONG_PARAM;
 606:D:/fchai/work/i-cube/I-CUBE-HUAWEI/Drivers/BSP/IKS01A3\iks01a3_env_sensors_ex.c ****       break;
 607:D:/fchai/work/i-cube/I-CUBE-HUAWEI/Drivers/BSP/IKS01A3\iks01a3_env_sensors_ex.c ****   }
 608:D:/fchai/work/i-cube/I-CUBE-HUAWEI/Drivers/BSP/IKS01A3\iks01a3_env_sensors_ex.c **** 
 609:D:/fchai/work/i-cube/I-CUBE-HUAWEI/Drivers/BSP/IKS01A3\iks01a3_env_sensors_ex.c ****   return ret;
 610:D:/fchai/work/i-cube/I-CUBE-HUAWEI/Drivers/BSP/IKS01A3\iks01a3_env_sensors_ex.c **** }
 766              		.loc 1 610 1 view .LVU191
 767 0016 08BD     		pop	{r3, pc}
 768              	.LVL81:
 769              	.L119:
 770              	.LCFI16:
 771              		.cfi_def_cfa_offset 0
 772              		.cfi_restore 3
 773              		.cfi_restore 14
 605:D:/fchai/work/i-cube/I-CUBE-HUAWEI/Drivers/BSP/IKS01A3\iks01a3_env_sensors_ex.c ****       break;
 774              		.loc 1 605 11 view .LVU192
 775 0018 6FF00100 		mvn	r0, #1
 776              	.LVL82:
 777              		.loc 1 610 1 view .LVU193
 778 001c 7047     		bx	lr
 779              	.L126:
 780 001e 00BF     		.align	2
 781              	.L125:
 782 0020 00000000 		.word	EnvCompObj
 783              		.cfi_endproc
 784              	.LFE132:
 786              		.section	.text.IKS01A3_ENV_SENSOR_FIFO_Get_Num_Samples,"ax",%progbits
 787              		.align	1
 788              		.p2align 2,,3
 789              		.global	IKS01A3_ENV_SENSOR_FIFO_Get_Num_Samples
 790              		.syntax unified
 791              		.thumb
 792              		.thumb_func
 793              		.fpu fpv4-sp-d16
 795              	IKS01A3_ENV_SENSOR_FIFO_Get_Num_Samples:
 796              	.LVL83:
 797              	.LFB133:
 611:D:/fchai/work/i-cube/I-CUBE-HUAWEI/Drivers/BSP/IKS01A3\iks01a3_env_sensors_ex.c **** 
 612:D:/fchai/work/i-cube/I-CUBE-HUAWEI/Drivers/BSP/IKS01A3\iks01a3_env_sensors_ex.c **** /**
ARM GAS  T:\msys\tmp\cc0WNqff.s 			page 27


 613:D:/fchai/work/i-cube/I-CUBE-HUAWEI/Drivers/BSP/IKS01A3\iks01a3_env_sensors_ex.c ****  * @brief  Get the number of unread samples in FIFO (available only for LPS22HH, LPS33HW sensor)
 614:D:/fchai/work/i-cube/I-CUBE-HUAWEI/Drivers/BSP/IKS01A3\iks01a3_env_sensors_ex.c ****  * @param  Instance the device instance
 615:D:/fchai/work/i-cube/I-CUBE-HUAWEI/Drivers/BSP/IKS01A3\iks01a3_env_sensors_ex.c ****  * @param  NumSamples the number of unread FIFO samples
 616:D:/fchai/work/i-cube/I-CUBE-HUAWEI/Drivers/BSP/IKS01A3\iks01a3_env_sensors_ex.c ****  * @retval BSP status
 617:D:/fchai/work/i-cube/I-CUBE-HUAWEI/Drivers/BSP/IKS01A3\iks01a3_env_sensors_ex.c ****  */
 618:D:/fchai/work/i-cube/I-CUBE-HUAWEI/Drivers/BSP/IKS01A3\iks01a3_env_sensors_ex.c **** int32_t IKS01A3_ENV_SENSOR_FIFO_Get_Num_Samples(uint32_t Instance, uint8_t *NumSamples)
 619:D:/fchai/work/i-cube/I-CUBE-HUAWEI/Drivers/BSP/IKS01A3\iks01a3_env_sensors_ex.c **** {
 798              		.loc 1 619 1 is_stmt 1 view -0
 799              		.cfi_startproc
 800              		@ args = 0, pretend = 0, frame = 0
 801              		@ frame_needed = 0, uses_anonymous_args = 0
 620:D:/fchai/work/i-cube/I-CUBE-HUAWEI/Drivers/BSP/IKS01A3\iks01a3_env_sensors_ex.c ****   int32_t ret;
 802              		.loc 1 620 3 view .LVU195
 621:D:/fchai/work/i-cube/I-CUBE-HUAWEI/Drivers/BSP/IKS01A3\iks01a3_env_sensors_ex.c **** 
 622:D:/fchai/work/i-cube/I-CUBE-HUAWEI/Drivers/BSP/IKS01A3\iks01a3_env_sensors_ex.c ****   switch (Instance)
 803              		.loc 1 622 3 view .LVU196
 804 0000 0128     		cmp	r0, #1
 805 0002 09D1     		bne	.L129
 623:D:/fchai/work/i-cube/I-CUBE-HUAWEI/Drivers/BSP/IKS01A3\iks01a3_env_sensors_ex.c ****   {
 624:D:/fchai/work/i-cube/I-CUBE-HUAWEI/Drivers/BSP/IKS01A3\iks01a3_env_sensors_ex.c **** #if (USE_IKS01A3_ENV_SENSOR_LPS22HH_0 == 1)
 625:D:/fchai/work/i-cube/I-CUBE-HUAWEI/Drivers/BSP/IKS01A3\iks01a3_env_sensors_ex.c ****     case IKS01A3_LPS22HH_0:
 626:D:/fchai/work/i-cube/I-CUBE-HUAWEI/Drivers/BSP/IKS01A3\iks01a3_env_sensors_ex.c ****       if (LPS22HH_FIFO_Get_Level(EnvCompObj[Instance], NumSamples) != BSP_ERROR_NONE)
 806              		.loc 1 626 7 view .LVU197
 619:D:/fchai/work/i-cube/I-CUBE-HUAWEI/Drivers/BSP/IKS01A3\iks01a3_env_sensors_ex.c ****   int32_t ret;
 807              		.loc 1 619 1 is_stmt 0 view .LVU198
 808 0004 08B5     		push	{r3, lr}
 809              	.LCFI17:
 810              		.cfi_def_cfa_offset 8
 811              		.cfi_offset 3, -8
 812              		.cfi_offset 14, -4
 813              		.loc 1 626 44 view .LVU199
 814 0006 064B     		ldr	r3, .L135
 815              		.loc 1 626 11 view .LVU200
 816 0008 5868     		ldr	r0, [r3, #4]
 817              	.LVL84:
 818              		.loc 1 626 11 view .LVU201
 819 000a FFF7FEFF 		bl	LPS22HH_FIFO_Get_Level
 820              	.LVL85:
 821              		.loc 1 626 10 view .LVU202
 822 000e 0028     		cmp	r0, #0
 627:D:/fchai/work/i-cube/I-CUBE-HUAWEI/Drivers/BSP/IKS01A3\iks01a3_env_sensors_ex.c ****       {
 628:D:/fchai/work/i-cube/I-CUBE-HUAWEI/Drivers/BSP/IKS01A3\iks01a3_env_sensors_ex.c ****         ret = BSP_ERROR_COMPONENT_FAILURE;
 823              		.loc 1 628 13 view .LVU203
 824 0010 18BF     		it	ne
 825 0012 6FF00400 		mvnne	r0, #4
 629:D:/fchai/work/i-cube/I-CUBE-HUAWEI/Drivers/BSP/IKS01A3\iks01a3_env_sensors_ex.c ****       }
 630:D:/fchai/work/i-cube/I-CUBE-HUAWEI/Drivers/BSP/IKS01A3\iks01a3_env_sensors_ex.c ****       else
 631:D:/fchai/work/i-cube/I-CUBE-HUAWEI/Drivers/BSP/IKS01A3\iks01a3_env_sensors_ex.c ****       {
 632:D:/fchai/work/i-cube/I-CUBE-HUAWEI/Drivers/BSP/IKS01A3\iks01a3_env_sensors_ex.c ****         ret = BSP_ERROR_NONE;
 633:D:/fchai/work/i-cube/I-CUBE-HUAWEI/Drivers/BSP/IKS01A3\iks01a3_env_sensors_ex.c ****       }
 634:D:/fchai/work/i-cube/I-CUBE-HUAWEI/Drivers/BSP/IKS01A3\iks01a3_env_sensors_ex.c ****       break;
 635:D:/fchai/work/i-cube/I-CUBE-HUAWEI/Drivers/BSP/IKS01A3\iks01a3_env_sensors_ex.c **** #endif
 636:D:/fchai/work/i-cube/I-CUBE-HUAWEI/Drivers/BSP/IKS01A3\iks01a3_env_sensors_ex.c **** 
 637:D:/fchai/work/i-cube/I-CUBE-HUAWEI/Drivers/BSP/IKS01A3\iks01a3_env_sensors_ex.c ****     default:
 638:D:/fchai/work/i-cube/I-CUBE-HUAWEI/Drivers/BSP/IKS01A3\iks01a3_env_sensors_ex.c ****       ret = BSP_ERROR_WRONG_PARAM;
 639:D:/fchai/work/i-cube/I-CUBE-HUAWEI/Drivers/BSP/IKS01A3\iks01a3_env_sensors_ex.c ****       break;
 640:D:/fchai/work/i-cube/I-CUBE-HUAWEI/Drivers/BSP/IKS01A3\iks01a3_env_sensors_ex.c ****   }
ARM GAS  T:\msys\tmp\cc0WNqff.s 			page 28


 641:D:/fchai/work/i-cube/I-CUBE-HUAWEI/Drivers/BSP/IKS01A3\iks01a3_env_sensors_ex.c **** 
 642:D:/fchai/work/i-cube/I-CUBE-HUAWEI/Drivers/BSP/IKS01A3\iks01a3_env_sensors_ex.c ****   return ret;
 643:D:/fchai/work/i-cube/I-CUBE-HUAWEI/Drivers/BSP/IKS01A3\iks01a3_env_sensors_ex.c **** }
 826              		.loc 1 643 1 view .LVU204
 827 0016 08BD     		pop	{r3, pc}
 828              	.LVL86:
 829              	.L129:
 830              	.LCFI18:
 831              		.cfi_def_cfa_offset 0
 832              		.cfi_restore 3
 833              		.cfi_restore 14
 638:D:/fchai/work/i-cube/I-CUBE-HUAWEI/Drivers/BSP/IKS01A3\iks01a3_env_sensors_ex.c ****       break;
 834              		.loc 1 638 11 view .LVU205
 835 0018 6FF00100 		mvn	r0, #1
 836              	.LVL87:
 837              		.loc 1 643 1 view .LVU206
 838 001c 7047     		bx	lr
 839              	.L136:
 840 001e 00BF     		.align	2
 841              	.L135:
 842 0020 00000000 		.word	EnvCompObj
 843              		.cfi_endproc
 844              	.LFE133:
 846              		.section	.text.IKS01A3_ENV_SENSOR_FIFO_Get_Ovr_Status,"ax",%progbits
 847              		.align	1
 848              		.p2align 2,,3
 849              		.global	IKS01A3_ENV_SENSOR_FIFO_Get_Ovr_Status
 850              		.syntax unified
 851              		.thumb
 852              		.thumb_func
 853              		.fpu fpv4-sp-d16
 855              	IKS01A3_ENV_SENSOR_FIFO_Get_Ovr_Status:
 856              	.LVL88:
 857              	.LFB134:
 644:D:/fchai/work/i-cube/I-CUBE-HUAWEI/Drivers/BSP/IKS01A3\iks01a3_env_sensors_ex.c **** 
 645:D:/fchai/work/i-cube/I-CUBE-HUAWEI/Drivers/BSP/IKS01A3\iks01a3_env_sensors_ex.c **** /**
 646:D:/fchai/work/i-cube/I-CUBE-HUAWEI/Drivers/BSP/IKS01A3\iks01a3_env_sensors_ex.c ****  * @brief  Get FIFO OVR status (available only for LPS22HH, LPS33HW sensor)
 647:D:/fchai/work/i-cube/I-CUBE-HUAWEI/Drivers/BSP/IKS01A3\iks01a3_env_sensors_ex.c ****  * @param  Instance the device instance
 648:D:/fchai/work/i-cube/I-CUBE-HUAWEI/Drivers/BSP/IKS01A3\iks01a3_env_sensors_ex.c ****  * @param  Status the pointer to the status
 649:D:/fchai/work/i-cube/I-CUBE-HUAWEI/Drivers/BSP/IKS01A3\iks01a3_env_sensors_ex.c ****  * @retval BSP status
 650:D:/fchai/work/i-cube/I-CUBE-HUAWEI/Drivers/BSP/IKS01A3\iks01a3_env_sensors_ex.c ****  */
 651:D:/fchai/work/i-cube/I-CUBE-HUAWEI/Drivers/BSP/IKS01A3\iks01a3_env_sensors_ex.c **** int32_t IKS01A3_ENV_SENSOR_FIFO_Get_Ovr_Status(uint32_t Instance, uint8_t *Status)
 652:D:/fchai/work/i-cube/I-CUBE-HUAWEI/Drivers/BSP/IKS01A3\iks01a3_env_sensors_ex.c **** {
 858              		.loc 1 652 1 is_stmt 1 view -0
 859              		.cfi_startproc
 860              		@ args = 0, pretend = 0, frame = 0
 861              		@ frame_needed = 0, uses_anonymous_args = 0
 653:D:/fchai/work/i-cube/I-CUBE-HUAWEI/Drivers/BSP/IKS01A3\iks01a3_env_sensors_ex.c ****   int32_t ret;
 862              		.loc 1 653 3 view .LVU208
 654:D:/fchai/work/i-cube/I-CUBE-HUAWEI/Drivers/BSP/IKS01A3\iks01a3_env_sensors_ex.c **** 
 655:D:/fchai/work/i-cube/I-CUBE-HUAWEI/Drivers/BSP/IKS01A3\iks01a3_env_sensors_ex.c ****   switch (Instance)
 863              		.loc 1 655 3 view .LVU209
 864 0000 0128     		cmp	r0, #1
 865 0002 09D1     		bne	.L139
 656:D:/fchai/work/i-cube/I-CUBE-HUAWEI/Drivers/BSP/IKS01A3\iks01a3_env_sensors_ex.c ****   {
 657:D:/fchai/work/i-cube/I-CUBE-HUAWEI/Drivers/BSP/IKS01A3\iks01a3_env_sensors_ex.c **** #if (USE_IKS01A3_ENV_SENSOR_LPS22HH_0 == 1)
 658:D:/fchai/work/i-cube/I-CUBE-HUAWEI/Drivers/BSP/IKS01A3\iks01a3_env_sensors_ex.c ****     case IKS01A3_LPS22HH_0:
ARM GAS  T:\msys\tmp\cc0WNqff.s 			page 29


 659:D:/fchai/work/i-cube/I-CUBE-HUAWEI/Drivers/BSP/IKS01A3\iks01a3_env_sensors_ex.c ****       if (LPS22HH_FIFO_Get_Ovr_Status(EnvCompObj[Instance], Status) != BSP_ERROR_NONE)
 866              		.loc 1 659 7 view .LVU210
 652:D:/fchai/work/i-cube/I-CUBE-HUAWEI/Drivers/BSP/IKS01A3\iks01a3_env_sensors_ex.c ****   int32_t ret;
 867              		.loc 1 652 1 is_stmt 0 view .LVU211
 868 0004 08B5     		push	{r3, lr}
 869              	.LCFI19:
 870              		.cfi_def_cfa_offset 8
 871              		.cfi_offset 3, -8
 872              		.cfi_offset 14, -4
 873              		.loc 1 659 49 view .LVU212
 874 0006 064B     		ldr	r3, .L145
 875              		.loc 1 659 11 view .LVU213
 876 0008 5868     		ldr	r0, [r3, #4]
 877              	.LVL89:
 878              		.loc 1 659 11 view .LVU214
 879 000a FFF7FEFF 		bl	LPS22HH_FIFO_Get_Ovr_Status
 880              	.LVL90:
 881              		.loc 1 659 10 view .LVU215
 882 000e 0028     		cmp	r0, #0
 660:D:/fchai/work/i-cube/I-CUBE-HUAWEI/Drivers/BSP/IKS01A3\iks01a3_env_sensors_ex.c ****       {
 661:D:/fchai/work/i-cube/I-CUBE-HUAWEI/Drivers/BSP/IKS01A3\iks01a3_env_sensors_ex.c ****         ret = BSP_ERROR_COMPONENT_FAILURE;
 883              		.loc 1 661 13 view .LVU216
 884 0010 18BF     		it	ne
 885 0012 6FF00400 		mvnne	r0, #4
 662:D:/fchai/work/i-cube/I-CUBE-HUAWEI/Drivers/BSP/IKS01A3\iks01a3_env_sensors_ex.c ****       }
 663:D:/fchai/work/i-cube/I-CUBE-HUAWEI/Drivers/BSP/IKS01A3\iks01a3_env_sensors_ex.c ****       else
 664:D:/fchai/work/i-cube/I-CUBE-HUAWEI/Drivers/BSP/IKS01A3\iks01a3_env_sensors_ex.c ****       {
 665:D:/fchai/work/i-cube/I-CUBE-HUAWEI/Drivers/BSP/IKS01A3\iks01a3_env_sensors_ex.c ****         ret = BSP_ERROR_NONE;
 666:D:/fchai/work/i-cube/I-CUBE-HUAWEI/Drivers/BSP/IKS01A3\iks01a3_env_sensors_ex.c ****       }
 667:D:/fchai/work/i-cube/I-CUBE-HUAWEI/Drivers/BSP/IKS01A3\iks01a3_env_sensors_ex.c ****       break;
 668:D:/fchai/work/i-cube/I-CUBE-HUAWEI/Drivers/BSP/IKS01A3\iks01a3_env_sensors_ex.c **** #endif
 669:D:/fchai/work/i-cube/I-CUBE-HUAWEI/Drivers/BSP/IKS01A3\iks01a3_env_sensors_ex.c **** 
 670:D:/fchai/work/i-cube/I-CUBE-HUAWEI/Drivers/BSP/IKS01A3\iks01a3_env_sensors_ex.c ****     default:
 671:D:/fchai/work/i-cube/I-CUBE-HUAWEI/Drivers/BSP/IKS01A3\iks01a3_env_sensors_ex.c ****       ret = BSP_ERROR_WRONG_PARAM;
 672:D:/fchai/work/i-cube/I-CUBE-HUAWEI/Drivers/BSP/IKS01A3\iks01a3_env_sensors_ex.c ****       break;
 673:D:/fchai/work/i-cube/I-CUBE-HUAWEI/Drivers/BSP/IKS01A3\iks01a3_env_sensors_ex.c ****   }
 674:D:/fchai/work/i-cube/I-CUBE-HUAWEI/Drivers/BSP/IKS01A3\iks01a3_env_sensors_ex.c **** 
 675:D:/fchai/work/i-cube/I-CUBE-HUAWEI/Drivers/BSP/IKS01A3\iks01a3_env_sensors_ex.c ****   return ret;
 676:D:/fchai/work/i-cube/I-CUBE-HUAWEI/Drivers/BSP/IKS01A3\iks01a3_env_sensors_ex.c **** }
 886              		.loc 1 676 1 view .LVU217
 887 0016 08BD     		pop	{r3, pc}
 888              	.LVL91:
 889              	.L139:
 890              	.LCFI20:
 891              		.cfi_def_cfa_offset 0
 892              		.cfi_restore 3
 893              		.cfi_restore 14
 671:D:/fchai/work/i-cube/I-CUBE-HUAWEI/Drivers/BSP/IKS01A3\iks01a3_env_sensors_ex.c ****       break;
 894              		.loc 1 671 11 view .LVU218
 895 0018 6FF00100 		mvn	r0, #1
 896              	.LVL92:
 897              		.loc 1 676 1 view .LVU219
 898 001c 7047     		bx	lr
 899              	.L146:
 900 001e 00BF     		.align	2
 901              	.L145:
 902 0020 00000000 		.word	EnvCompObj
ARM GAS  T:\msys\tmp\cc0WNqff.s 			page 30


 903              		.cfi_endproc
 904              	.LFE134:
 906              		.section	.text.IKS01A3_ENV_SENSOR_FIFO_Reset_Interrupt,"ax",%progbits
 907              		.align	1
 908              		.p2align 2,,3
 909              		.global	IKS01A3_ENV_SENSOR_FIFO_Reset_Interrupt
 910              		.syntax unified
 911              		.thumb
 912              		.thumb_func
 913              		.fpu fpv4-sp-d16
 915              	IKS01A3_ENV_SENSOR_FIFO_Reset_Interrupt:
 916              	.LVL93:
 917              	.LFB135:
 677:D:/fchai/work/i-cube/I-CUBE-HUAWEI/Drivers/BSP/IKS01A3\iks01a3_env_sensors_ex.c **** 
 678:D:/fchai/work/i-cube/I-CUBE-HUAWEI/Drivers/BSP/IKS01A3\iks01a3_env_sensors_ex.c **** /**
 679:D:/fchai/work/i-cube/I-CUBE-HUAWEI/Drivers/BSP/IKS01A3\iks01a3_env_sensors_ex.c ****  * @brief  Reset FIFO Interrupt (available only for LPS22HH, LPS33HW sensor)
 680:D:/fchai/work/i-cube/I-CUBE-HUAWEI/Drivers/BSP/IKS01A3\iks01a3_env_sensors_ex.c ****  * @param  Instance the device instance
 681:D:/fchai/work/i-cube/I-CUBE-HUAWEI/Drivers/BSP/IKS01A3\iks01a3_env_sensors_ex.c ****  * @param  Interrupt FIFO interrupt. Could be: FTH, FULL or OVR
 682:D:/fchai/work/i-cube/I-CUBE-HUAWEI/Drivers/BSP/IKS01A3\iks01a3_env_sensors_ex.c ****  * @retval BSP status
 683:D:/fchai/work/i-cube/I-CUBE-HUAWEI/Drivers/BSP/IKS01A3\iks01a3_env_sensors_ex.c ****  */
 684:D:/fchai/work/i-cube/I-CUBE-HUAWEI/Drivers/BSP/IKS01A3\iks01a3_env_sensors_ex.c **** int32_t IKS01A3_ENV_SENSOR_FIFO_Reset_Interrupt(uint32_t Instance, uint8_t Interrupt)
 685:D:/fchai/work/i-cube/I-CUBE-HUAWEI/Drivers/BSP/IKS01A3\iks01a3_env_sensors_ex.c **** {
 918              		.loc 1 685 1 is_stmt 1 view -0
 919              		.cfi_startproc
 920              		@ args = 0, pretend = 0, frame = 0
 921              		@ frame_needed = 0, uses_anonymous_args = 0
 686:D:/fchai/work/i-cube/I-CUBE-HUAWEI/Drivers/BSP/IKS01A3\iks01a3_env_sensors_ex.c ****   int32_t ret;
 922              		.loc 1 686 3 view .LVU221
 687:D:/fchai/work/i-cube/I-CUBE-HUAWEI/Drivers/BSP/IKS01A3\iks01a3_env_sensors_ex.c **** 
 688:D:/fchai/work/i-cube/I-CUBE-HUAWEI/Drivers/BSP/IKS01A3\iks01a3_env_sensors_ex.c ****   switch (Instance)
 923              		.loc 1 688 3 view .LVU222
 924 0000 0128     		cmp	r0, #1
 925 0002 09D1     		bne	.L149
 689:D:/fchai/work/i-cube/I-CUBE-HUAWEI/Drivers/BSP/IKS01A3\iks01a3_env_sensors_ex.c ****   {
 690:D:/fchai/work/i-cube/I-CUBE-HUAWEI/Drivers/BSP/IKS01A3\iks01a3_env_sensors_ex.c **** #if (USE_IKS01A3_ENV_SENSOR_LPS22HH_0 == 1)
 691:D:/fchai/work/i-cube/I-CUBE-HUAWEI/Drivers/BSP/IKS01A3\iks01a3_env_sensors_ex.c ****     case IKS01A3_LPS22HH_0:
 692:D:/fchai/work/i-cube/I-CUBE-HUAWEI/Drivers/BSP/IKS01A3\iks01a3_env_sensors_ex.c ****       if (LPS22HH_FIFO_Reset_Interrupt(EnvCompObj[Instance], Interrupt) != BSP_ERROR_NONE)
 926              		.loc 1 692 7 view .LVU223
 685:D:/fchai/work/i-cube/I-CUBE-HUAWEI/Drivers/BSP/IKS01A3\iks01a3_env_sensors_ex.c ****   int32_t ret;
 927              		.loc 1 685 1 is_stmt 0 view .LVU224
 928 0004 08B5     		push	{r3, lr}
 929              	.LCFI21:
 930              		.cfi_def_cfa_offset 8
 931              		.cfi_offset 3, -8
 932              		.cfi_offset 14, -4
 933              		.loc 1 692 50 view .LVU225
 934 0006 064B     		ldr	r3, .L155
 935              		.loc 1 692 11 view .LVU226
 936 0008 5868     		ldr	r0, [r3, #4]
 937              	.LVL94:
 938              		.loc 1 692 11 view .LVU227
 939 000a FFF7FEFF 		bl	LPS22HH_FIFO_Reset_Interrupt
 940              	.LVL95:
 941              		.loc 1 692 10 view .LVU228
 942 000e 0028     		cmp	r0, #0
 693:D:/fchai/work/i-cube/I-CUBE-HUAWEI/Drivers/BSP/IKS01A3\iks01a3_env_sensors_ex.c ****       {
 694:D:/fchai/work/i-cube/I-CUBE-HUAWEI/Drivers/BSP/IKS01A3\iks01a3_env_sensors_ex.c ****         ret = BSP_ERROR_COMPONENT_FAILURE;
ARM GAS  T:\msys\tmp\cc0WNqff.s 			page 31


 943              		.loc 1 694 13 view .LVU229
 944 0010 18BF     		it	ne
 945 0012 6FF00400 		mvnne	r0, #4
 695:D:/fchai/work/i-cube/I-CUBE-HUAWEI/Drivers/BSP/IKS01A3\iks01a3_env_sensors_ex.c ****       }
 696:D:/fchai/work/i-cube/I-CUBE-HUAWEI/Drivers/BSP/IKS01A3\iks01a3_env_sensors_ex.c ****       else
 697:D:/fchai/work/i-cube/I-CUBE-HUAWEI/Drivers/BSP/IKS01A3\iks01a3_env_sensors_ex.c ****       {
 698:D:/fchai/work/i-cube/I-CUBE-HUAWEI/Drivers/BSP/IKS01A3\iks01a3_env_sensors_ex.c ****         ret = BSP_ERROR_NONE;
 699:D:/fchai/work/i-cube/I-CUBE-HUAWEI/Drivers/BSP/IKS01A3\iks01a3_env_sensors_ex.c ****       }
 700:D:/fchai/work/i-cube/I-CUBE-HUAWEI/Drivers/BSP/IKS01A3\iks01a3_env_sensors_ex.c ****       break;
 701:D:/fchai/work/i-cube/I-CUBE-HUAWEI/Drivers/BSP/IKS01A3\iks01a3_env_sensors_ex.c **** #endif
 702:D:/fchai/work/i-cube/I-CUBE-HUAWEI/Drivers/BSP/IKS01A3\iks01a3_env_sensors_ex.c **** 
 703:D:/fchai/work/i-cube/I-CUBE-HUAWEI/Drivers/BSP/IKS01A3\iks01a3_env_sensors_ex.c ****     default:
 704:D:/fchai/work/i-cube/I-CUBE-HUAWEI/Drivers/BSP/IKS01A3\iks01a3_env_sensors_ex.c ****       ret = BSP_ERROR_WRONG_PARAM;
 705:D:/fchai/work/i-cube/I-CUBE-HUAWEI/Drivers/BSP/IKS01A3\iks01a3_env_sensors_ex.c ****       break;
 706:D:/fchai/work/i-cube/I-CUBE-HUAWEI/Drivers/BSP/IKS01A3\iks01a3_env_sensors_ex.c ****   }
 707:D:/fchai/work/i-cube/I-CUBE-HUAWEI/Drivers/BSP/IKS01A3\iks01a3_env_sensors_ex.c **** 
 708:D:/fchai/work/i-cube/I-CUBE-HUAWEI/Drivers/BSP/IKS01A3\iks01a3_env_sensors_ex.c ****   return ret;
 709:D:/fchai/work/i-cube/I-CUBE-HUAWEI/Drivers/BSP/IKS01A3\iks01a3_env_sensors_ex.c **** }
 946              		.loc 1 709 1 view .LVU230
 947 0016 08BD     		pop	{r3, pc}
 948              	.LVL96:
 949              	.L149:
 950              	.LCFI22:
 951              		.cfi_def_cfa_offset 0
 952              		.cfi_restore 3
 953              		.cfi_restore 14
 704:D:/fchai/work/i-cube/I-CUBE-HUAWEI/Drivers/BSP/IKS01A3\iks01a3_env_sensors_ex.c ****       break;
 954              		.loc 1 704 11 view .LVU231
 955 0018 6FF00100 		mvn	r0, #1
 956              	.LVL97:
 957              		.loc 1 709 1 view .LVU232
 958 001c 7047     		bx	lr
 959              	.L156:
 960 001e 00BF     		.align	2
 961              	.L155:
 962 0020 00000000 		.word	EnvCompObj
 963              		.cfi_endproc
 964              	.LFE135:
 966              		.section	.text.IKS01A3_ENV_SENSOR_FIFO_Set_Interrupt,"ax",%progbits
 967              		.align	1
 968              		.p2align 2,,3
 969              		.global	IKS01A3_ENV_SENSOR_FIFO_Set_Interrupt
 970              		.syntax unified
 971              		.thumb
 972              		.thumb_func
 973              		.fpu fpv4-sp-d16
 975              	IKS01A3_ENV_SENSOR_FIFO_Set_Interrupt:
 976              	.LVL98:
 977              	.LFB136:
 710:D:/fchai/work/i-cube/I-CUBE-HUAWEI/Drivers/BSP/IKS01A3\iks01a3_env_sensors_ex.c **** 
 711:D:/fchai/work/i-cube/I-CUBE-HUAWEI/Drivers/BSP/IKS01A3\iks01a3_env_sensors_ex.c **** /**
 712:D:/fchai/work/i-cube/I-CUBE-HUAWEI/Drivers/BSP/IKS01A3\iks01a3_env_sensors_ex.c ****  * @brief  Set FIFO Interrupt (available only for LPS22HH, LPS33HW sensor)
 713:D:/fchai/work/i-cube/I-CUBE-HUAWEI/Drivers/BSP/IKS01A3\iks01a3_env_sensors_ex.c ****  * @param  Instance the device instance
 714:D:/fchai/work/i-cube/I-CUBE-HUAWEI/Drivers/BSP/IKS01A3\iks01a3_env_sensors_ex.c ****  * @param  Interrupt FIFO interrupt. Could be: FTH, FULL or OVR
 715:D:/fchai/work/i-cube/I-CUBE-HUAWEI/Drivers/BSP/IKS01A3\iks01a3_env_sensors_ex.c ****  * @retval BSP status
 716:D:/fchai/work/i-cube/I-CUBE-HUAWEI/Drivers/BSP/IKS01A3\iks01a3_env_sensors_ex.c ****  */
 717:D:/fchai/work/i-cube/I-CUBE-HUAWEI/Drivers/BSP/IKS01A3\iks01a3_env_sensors_ex.c **** int32_t IKS01A3_ENV_SENSOR_FIFO_Set_Interrupt(uint32_t Instance, uint8_t Interrupt)
ARM GAS  T:\msys\tmp\cc0WNqff.s 			page 32


 718:D:/fchai/work/i-cube/I-CUBE-HUAWEI/Drivers/BSP/IKS01A3\iks01a3_env_sensors_ex.c **** {
 978              		.loc 1 718 1 is_stmt 1 view -0
 979              		.cfi_startproc
 980              		@ args = 0, pretend = 0, frame = 0
 981              		@ frame_needed = 0, uses_anonymous_args = 0
 719:D:/fchai/work/i-cube/I-CUBE-HUAWEI/Drivers/BSP/IKS01A3\iks01a3_env_sensors_ex.c ****   int32_t ret;
 982              		.loc 1 719 3 view .LVU234
 720:D:/fchai/work/i-cube/I-CUBE-HUAWEI/Drivers/BSP/IKS01A3\iks01a3_env_sensors_ex.c **** 
 721:D:/fchai/work/i-cube/I-CUBE-HUAWEI/Drivers/BSP/IKS01A3\iks01a3_env_sensors_ex.c ****   switch (Instance)
 983              		.loc 1 721 3 view .LVU235
 984 0000 0128     		cmp	r0, #1
 985 0002 09D1     		bne	.L159
 722:D:/fchai/work/i-cube/I-CUBE-HUAWEI/Drivers/BSP/IKS01A3\iks01a3_env_sensors_ex.c ****   {
 723:D:/fchai/work/i-cube/I-CUBE-HUAWEI/Drivers/BSP/IKS01A3\iks01a3_env_sensors_ex.c **** #if (USE_IKS01A3_ENV_SENSOR_LPS22HH_0 == 1)
 724:D:/fchai/work/i-cube/I-CUBE-HUAWEI/Drivers/BSP/IKS01A3\iks01a3_env_sensors_ex.c ****     case IKS01A3_LPS22HH_0:
 725:D:/fchai/work/i-cube/I-CUBE-HUAWEI/Drivers/BSP/IKS01A3\iks01a3_env_sensors_ex.c ****       if (LPS22HH_FIFO_Set_Interrupt(EnvCompObj[Instance], Interrupt) != BSP_ERROR_NONE)
 986              		.loc 1 725 7 view .LVU236
 718:D:/fchai/work/i-cube/I-CUBE-HUAWEI/Drivers/BSP/IKS01A3\iks01a3_env_sensors_ex.c ****   int32_t ret;
 987              		.loc 1 718 1 is_stmt 0 view .LVU237
 988 0004 08B5     		push	{r3, lr}
 989              	.LCFI23:
 990              		.cfi_def_cfa_offset 8
 991              		.cfi_offset 3, -8
 992              		.cfi_offset 14, -4
 993              		.loc 1 725 48 view .LVU238
 994 0006 064B     		ldr	r3, .L165
 995              		.loc 1 725 11 view .LVU239
 996 0008 5868     		ldr	r0, [r3, #4]
 997              	.LVL99:
 998              		.loc 1 725 11 view .LVU240
 999 000a FFF7FEFF 		bl	LPS22HH_FIFO_Set_Interrupt
 1000              	.LVL100:
 1001              		.loc 1 725 10 view .LVU241
 1002 000e 0028     		cmp	r0, #0
 726:D:/fchai/work/i-cube/I-CUBE-HUAWEI/Drivers/BSP/IKS01A3\iks01a3_env_sensors_ex.c ****       {
 727:D:/fchai/work/i-cube/I-CUBE-HUAWEI/Drivers/BSP/IKS01A3\iks01a3_env_sensors_ex.c ****         ret = BSP_ERROR_COMPONENT_FAILURE;
 1003              		.loc 1 727 13 view .LVU242
 1004 0010 18BF     		it	ne
 1005 0012 6FF00400 		mvnne	r0, #4
 728:D:/fchai/work/i-cube/I-CUBE-HUAWEI/Drivers/BSP/IKS01A3\iks01a3_env_sensors_ex.c ****       }
 729:D:/fchai/work/i-cube/I-CUBE-HUAWEI/Drivers/BSP/IKS01A3\iks01a3_env_sensors_ex.c ****       else
 730:D:/fchai/work/i-cube/I-CUBE-HUAWEI/Drivers/BSP/IKS01A3\iks01a3_env_sensors_ex.c ****       {
 731:D:/fchai/work/i-cube/I-CUBE-HUAWEI/Drivers/BSP/IKS01A3\iks01a3_env_sensors_ex.c ****         ret = BSP_ERROR_NONE;
 732:D:/fchai/work/i-cube/I-CUBE-HUAWEI/Drivers/BSP/IKS01A3\iks01a3_env_sensors_ex.c ****       }
 733:D:/fchai/work/i-cube/I-CUBE-HUAWEI/Drivers/BSP/IKS01A3\iks01a3_env_sensors_ex.c ****       break;
 734:D:/fchai/work/i-cube/I-CUBE-HUAWEI/Drivers/BSP/IKS01A3\iks01a3_env_sensors_ex.c **** #endif
 735:D:/fchai/work/i-cube/I-CUBE-HUAWEI/Drivers/BSP/IKS01A3\iks01a3_env_sensors_ex.c **** 
 736:D:/fchai/work/i-cube/I-CUBE-HUAWEI/Drivers/BSP/IKS01A3\iks01a3_env_sensors_ex.c ****     default:
 737:D:/fchai/work/i-cube/I-CUBE-HUAWEI/Drivers/BSP/IKS01A3\iks01a3_env_sensors_ex.c ****       ret = BSP_ERROR_WRONG_PARAM;
 738:D:/fchai/work/i-cube/I-CUBE-HUAWEI/Drivers/BSP/IKS01A3\iks01a3_env_sensors_ex.c ****       break;
 739:D:/fchai/work/i-cube/I-CUBE-HUAWEI/Drivers/BSP/IKS01A3\iks01a3_env_sensors_ex.c ****   }
 740:D:/fchai/work/i-cube/I-CUBE-HUAWEI/Drivers/BSP/IKS01A3\iks01a3_env_sensors_ex.c **** 
 741:D:/fchai/work/i-cube/I-CUBE-HUAWEI/Drivers/BSP/IKS01A3\iks01a3_env_sensors_ex.c ****   return ret;
 742:D:/fchai/work/i-cube/I-CUBE-HUAWEI/Drivers/BSP/IKS01A3\iks01a3_env_sensors_ex.c **** }
 1006              		.loc 1 742 1 view .LVU243
 1007 0016 08BD     		pop	{r3, pc}
 1008              	.LVL101:
ARM GAS  T:\msys\tmp\cc0WNqff.s 			page 33


 1009              	.L159:
 1010              	.LCFI24:
 1011              		.cfi_def_cfa_offset 0
 1012              		.cfi_restore 3
 1013              		.cfi_restore 14
 737:D:/fchai/work/i-cube/I-CUBE-HUAWEI/Drivers/BSP/IKS01A3\iks01a3_env_sensors_ex.c ****       break;
 1014              		.loc 1 737 11 view .LVU244
 1015 0018 6FF00100 		mvn	r0, #1
 1016              	.LVL102:
 1017              		.loc 1 742 1 view .LVU245
 1018 001c 7047     		bx	lr
 1019              	.L166:
 1020 001e 00BF     		.align	2
 1021              	.L165:
 1022 0020 00000000 		.word	EnvCompObj
 1023              		.cfi_endproc
 1024              	.LFE136:
 1026              		.section	.text.IKS01A3_ENV_SENSOR_FIFO_Set_Mode,"ax",%progbits
 1027              		.align	1
 1028              		.p2align 2,,3
 1029              		.global	IKS01A3_ENV_SENSOR_FIFO_Set_Mode
 1030              		.syntax unified
 1031              		.thumb
 1032              		.thumb_func
 1033              		.fpu fpv4-sp-d16
 1035              	IKS01A3_ENV_SENSOR_FIFO_Set_Mode:
 1036              	.LVL103:
 1037              	.LFB137:
 743:D:/fchai/work/i-cube/I-CUBE-HUAWEI/Drivers/BSP/IKS01A3\iks01a3_env_sensors_ex.c **** 
 744:D:/fchai/work/i-cube/I-CUBE-HUAWEI/Drivers/BSP/IKS01A3\iks01a3_env_sensors_ex.c **** /**
 745:D:/fchai/work/i-cube/I-CUBE-HUAWEI/Drivers/BSP/IKS01A3\iks01a3_env_sensors_ex.c ****  * @brief  Set FIFO mode  (available only for LPS22HH, LPS33HW sensor)
 746:D:/fchai/work/i-cube/I-CUBE-HUAWEI/Drivers/BSP/IKS01A3\iks01a3_env_sensors_ex.c ****  * @param  Instance the device instance
 747:D:/fchai/work/i-cube/I-CUBE-HUAWEI/Drivers/BSP/IKS01A3\iks01a3_env_sensors_ex.c ****  * @param  Mode FIFO mode
 748:D:/fchai/work/i-cube/I-CUBE-HUAWEI/Drivers/BSP/IKS01A3\iks01a3_env_sensors_ex.c ****  * @retval BSP status
 749:D:/fchai/work/i-cube/I-CUBE-HUAWEI/Drivers/BSP/IKS01A3\iks01a3_env_sensors_ex.c ****  */
 750:D:/fchai/work/i-cube/I-CUBE-HUAWEI/Drivers/BSP/IKS01A3\iks01a3_env_sensors_ex.c **** int32_t IKS01A3_ENV_SENSOR_FIFO_Set_Mode(uint32_t Instance, uint8_t Mode)
 751:D:/fchai/work/i-cube/I-CUBE-HUAWEI/Drivers/BSP/IKS01A3\iks01a3_env_sensors_ex.c **** {
 1038              		.loc 1 751 1 is_stmt 1 view -0
 1039              		.cfi_startproc
 1040              		@ args = 0, pretend = 0, frame = 0
 1041              		@ frame_needed = 0, uses_anonymous_args = 0
 752:D:/fchai/work/i-cube/I-CUBE-HUAWEI/Drivers/BSP/IKS01A3\iks01a3_env_sensors_ex.c ****   int32_t ret;
 1042              		.loc 1 752 3 view .LVU247
 753:D:/fchai/work/i-cube/I-CUBE-HUAWEI/Drivers/BSP/IKS01A3\iks01a3_env_sensors_ex.c **** 
 754:D:/fchai/work/i-cube/I-CUBE-HUAWEI/Drivers/BSP/IKS01A3\iks01a3_env_sensors_ex.c ****   switch (Instance)
 1043              		.loc 1 754 3 view .LVU248
 1044 0000 0128     		cmp	r0, #1
 1045 0002 09D1     		bne	.L169
 755:D:/fchai/work/i-cube/I-CUBE-HUAWEI/Drivers/BSP/IKS01A3\iks01a3_env_sensors_ex.c ****   {
 756:D:/fchai/work/i-cube/I-CUBE-HUAWEI/Drivers/BSP/IKS01A3\iks01a3_env_sensors_ex.c **** #if (USE_IKS01A3_ENV_SENSOR_LPS22HH_0 == 1)
 757:D:/fchai/work/i-cube/I-CUBE-HUAWEI/Drivers/BSP/IKS01A3\iks01a3_env_sensors_ex.c ****     case IKS01A3_LPS22HH_0:
 758:D:/fchai/work/i-cube/I-CUBE-HUAWEI/Drivers/BSP/IKS01A3\iks01a3_env_sensors_ex.c ****       if (LPS22HH_FIFO_Set_Mode(EnvCompObj[Instance], Mode) != BSP_ERROR_NONE)
 1046              		.loc 1 758 7 view .LVU249
 751:D:/fchai/work/i-cube/I-CUBE-HUAWEI/Drivers/BSP/IKS01A3\iks01a3_env_sensors_ex.c ****   int32_t ret;
 1047              		.loc 1 751 1 is_stmt 0 view .LVU250
 1048 0004 08B5     		push	{r3, lr}
 1049              	.LCFI25:
ARM GAS  T:\msys\tmp\cc0WNqff.s 			page 34


 1050              		.cfi_def_cfa_offset 8
 1051              		.cfi_offset 3, -8
 1052              		.cfi_offset 14, -4
 1053              		.loc 1 758 43 view .LVU251
 1054 0006 064B     		ldr	r3, .L175
 1055              		.loc 1 758 11 view .LVU252
 1056 0008 5868     		ldr	r0, [r3, #4]
 1057              	.LVL104:
 1058              		.loc 1 758 11 view .LVU253
 1059 000a FFF7FEFF 		bl	LPS22HH_FIFO_Set_Mode
 1060              	.LVL105:
 1061              		.loc 1 758 10 view .LVU254
 1062 000e 0028     		cmp	r0, #0
 759:D:/fchai/work/i-cube/I-CUBE-HUAWEI/Drivers/BSP/IKS01A3\iks01a3_env_sensors_ex.c ****       {
 760:D:/fchai/work/i-cube/I-CUBE-HUAWEI/Drivers/BSP/IKS01A3\iks01a3_env_sensors_ex.c ****         ret = BSP_ERROR_COMPONENT_FAILURE;
 1063              		.loc 1 760 13 view .LVU255
 1064 0010 18BF     		it	ne
 1065 0012 6FF00400 		mvnne	r0, #4
 761:D:/fchai/work/i-cube/I-CUBE-HUAWEI/Drivers/BSP/IKS01A3\iks01a3_env_sensors_ex.c ****       }
 762:D:/fchai/work/i-cube/I-CUBE-HUAWEI/Drivers/BSP/IKS01A3\iks01a3_env_sensors_ex.c ****       else
 763:D:/fchai/work/i-cube/I-CUBE-HUAWEI/Drivers/BSP/IKS01A3\iks01a3_env_sensors_ex.c ****       {
 764:D:/fchai/work/i-cube/I-CUBE-HUAWEI/Drivers/BSP/IKS01A3\iks01a3_env_sensors_ex.c ****         ret = BSP_ERROR_NONE;
 765:D:/fchai/work/i-cube/I-CUBE-HUAWEI/Drivers/BSP/IKS01A3\iks01a3_env_sensors_ex.c ****       }
 766:D:/fchai/work/i-cube/I-CUBE-HUAWEI/Drivers/BSP/IKS01A3\iks01a3_env_sensors_ex.c ****       break;
 767:D:/fchai/work/i-cube/I-CUBE-HUAWEI/Drivers/BSP/IKS01A3\iks01a3_env_sensors_ex.c **** #endif
 768:D:/fchai/work/i-cube/I-CUBE-HUAWEI/Drivers/BSP/IKS01A3\iks01a3_env_sensors_ex.c **** 
 769:D:/fchai/work/i-cube/I-CUBE-HUAWEI/Drivers/BSP/IKS01A3\iks01a3_env_sensors_ex.c ****     default:
 770:D:/fchai/work/i-cube/I-CUBE-HUAWEI/Drivers/BSP/IKS01A3\iks01a3_env_sensors_ex.c ****       ret = BSP_ERROR_WRONG_PARAM;
 771:D:/fchai/work/i-cube/I-CUBE-HUAWEI/Drivers/BSP/IKS01A3\iks01a3_env_sensors_ex.c ****       break;
 772:D:/fchai/work/i-cube/I-CUBE-HUAWEI/Drivers/BSP/IKS01A3\iks01a3_env_sensors_ex.c ****   }
 773:D:/fchai/work/i-cube/I-CUBE-HUAWEI/Drivers/BSP/IKS01A3\iks01a3_env_sensors_ex.c **** 
 774:D:/fchai/work/i-cube/I-CUBE-HUAWEI/Drivers/BSP/IKS01A3\iks01a3_env_sensors_ex.c ****   return ret;
 775:D:/fchai/work/i-cube/I-CUBE-HUAWEI/Drivers/BSP/IKS01A3\iks01a3_env_sensors_ex.c **** }
 1066              		.loc 1 775 1 view .LVU256
 1067 0016 08BD     		pop	{r3, pc}
 1068              	.LVL106:
 1069              	.L169:
 1070              	.LCFI26:
 1071              		.cfi_def_cfa_offset 0
 1072              		.cfi_restore 3
 1073              		.cfi_restore 14
 770:D:/fchai/work/i-cube/I-CUBE-HUAWEI/Drivers/BSP/IKS01A3\iks01a3_env_sensors_ex.c ****       break;
 1074              		.loc 1 770 11 view .LVU257
 1075 0018 6FF00100 		mvn	r0, #1
 1076              	.LVL107:
 1077              		.loc 1 775 1 view .LVU258
 1078 001c 7047     		bx	lr
 1079              	.L176:
 1080 001e 00BF     		.align	2
 1081              	.L175:
 1082 0020 00000000 		.word	EnvCompObj
 1083              		.cfi_endproc
 1084              	.LFE137:
 1086              		.section	.text.IKS01A3_ENV_SENSOR_FIFO_Set_Watermark_Level,"ax",%progbits
 1087              		.align	1
 1088              		.p2align 2,,3
 1089              		.global	IKS01A3_ENV_SENSOR_FIFO_Set_Watermark_Level
ARM GAS  T:\msys\tmp\cc0WNqff.s 			page 35


 1090              		.syntax unified
 1091              		.thumb
 1092              		.thumb_func
 1093              		.fpu fpv4-sp-d16
 1095              	IKS01A3_ENV_SENSOR_FIFO_Set_Watermark_Level:
 1096              	.LVL108:
 1097              	.LFB138:
 776:D:/fchai/work/i-cube/I-CUBE-HUAWEI/Drivers/BSP/IKS01A3\iks01a3_env_sensors_ex.c **** 
 777:D:/fchai/work/i-cube/I-CUBE-HUAWEI/Drivers/BSP/IKS01A3\iks01a3_env_sensors_ex.c **** /**
 778:D:/fchai/work/i-cube/I-CUBE-HUAWEI/Drivers/BSP/IKS01A3\iks01a3_env_sensors_ex.c ****  * @brief  Set FIFO watermark  (available only for LPS22HH, LPS33HW sensor)
 779:D:/fchai/work/i-cube/I-CUBE-HUAWEI/Drivers/BSP/IKS01A3\iks01a3_env_sensors_ex.c ****  * @param  Instance the device instance
 780:D:/fchai/work/i-cube/I-CUBE-HUAWEI/Drivers/BSP/IKS01A3\iks01a3_env_sensors_ex.c ****  * @param  Watermark FIFO data level threshold
 781:D:/fchai/work/i-cube/I-CUBE-HUAWEI/Drivers/BSP/IKS01A3\iks01a3_env_sensors_ex.c ****  * @retval BSP status
 782:D:/fchai/work/i-cube/I-CUBE-HUAWEI/Drivers/BSP/IKS01A3\iks01a3_env_sensors_ex.c ****  */
 783:D:/fchai/work/i-cube/I-CUBE-HUAWEI/Drivers/BSP/IKS01A3\iks01a3_env_sensors_ex.c **** int32_t IKS01A3_ENV_SENSOR_FIFO_Set_Watermark_Level(uint32_t Instance, uint8_t Watermark)
 784:D:/fchai/work/i-cube/I-CUBE-HUAWEI/Drivers/BSP/IKS01A3\iks01a3_env_sensors_ex.c **** {
 1098              		.loc 1 784 1 is_stmt 1 view -0
 1099              		.cfi_startproc
 1100              		@ args = 0, pretend = 0, frame = 0
 1101              		@ frame_needed = 0, uses_anonymous_args = 0
 785:D:/fchai/work/i-cube/I-CUBE-HUAWEI/Drivers/BSP/IKS01A3\iks01a3_env_sensors_ex.c ****   int32_t ret;
 1102              		.loc 1 785 3 view .LVU260
 786:D:/fchai/work/i-cube/I-CUBE-HUAWEI/Drivers/BSP/IKS01A3\iks01a3_env_sensors_ex.c **** 
 787:D:/fchai/work/i-cube/I-CUBE-HUAWEI/Drivers/BSP/IKS01A3\iks01a3_env_sensors_ex.c ****   switch (Instance)
 1103              		.loc 1 787 3 view .LVU261
 1104 0000 0128     		cmp	r0, #1
 1105 0002 09D1     		bne	.L179
 788:D:/fchai/work/i-cube/I-CUBE-HUAWEI/Drivers/BSP/IKS01A3\iks01a3_env_sensors_ex.c ****   {
 789:D:/fchai/work/i-cube/I-CUBE-HUAWEI/Drivers/BSP/IKS01A3\iks01a3_env_sensors_ex.c **** #if (USE_IKS01A3_ENV_SENSOR_LPS22HH_0 == 1)
 790:D:/fchai/work/i-cube/I-CUBE-HUAWEI/Drivers/BSP/IKS01A3\iks01a3_env_sensors_ex.c ****     case IKS01A3_LPS22HH_0:
 791:D:/fchai/work/i-cube/I-CUBE-HUAWEI/Drivers/BSP/IKS01A3\iks01a3_env_sensors_ex.c ****       if (LPS22HH_FIFO_Set_Watermark_Level(EnvCompObj[Instance], Watermark) != BSP_ERROR_NONE)
 1106              		.loc 1 791 7 view .LVU262
 784:D:/fchai/work/i-cube/I-CUBE-HUAWEI/Drivers/BSP/IKS01A3\iks01a3_env_sensors_ex.c ****   int32_t ret;
 1107              		.loc 1 784 1 is_stmt 0 view .LVU263
 1108 0004 08B5     		push	{r3, lr}
 1109              	.LCFI27:
 1110              		.cfi_def_cfa_offset 8
 1111              		.cfi_offset 3, -8
 1112              		.cfi_offset 14, -4
 1113              		.loc 1 791 54 view .LVU264
 1114 0006 064B     		ldr	r3, .L185
 1115              		.loc 1 791 11 view .LVU265
 1116 0008 5868     		ldr	r0, [r3, #4]
 1117              	.LVL109:
 1118              		.loc 1 791 11 view .LVU266
 1119 000a FFF7FEFF 		bl	LPS22HH_FIFO_Set_Watermark_Level
 1120              	.LVL110:
 1121              		.loc 1 791 10 view .LVU267
 1122 000e 0028     		cmp	r0, #0
 792:D:/fchai/work/i-cube/I-CUBE-HUAWEI/Drivers/BSP/IKS01A3\iks01a3_env_sensors_ex.c ****       {
 793:D:/fchai/work/i-cube/I-CUBE-HUAWEI/Drivers/BSP/IKS01A3\iks01a3_env_sensors_ex.c ****         ret = BSP_ERROR_COMPONENT_FAILURE;
 1123              		.loc 1 793 13 view .LVU268
 1124 0010 18BF     		it	ne
 1125 0012 6FF00400 		mvnne	r0, #4
 794:D:/fchai/work/i-cube/I-CUBE-HUAWEI/Drivers/BSP/IKS01A3\iks01a3_env_sensors_ex.c ****       }
 795:D:/fchai/work/i-cube/I-CUBE-HUAWEI/Drivers/BSP/IKS01A3\iks01a3_env_sensors_ex.c ****       else
 796:D:/fchai/work/i-cube/I-CUBE-HUAWEI/Drivers/BSP/IKS01A3\iks01a3_env_sensors_ex.c ****       {
ARM GAS  T:\msys\tmp\cc0WNqff.s 			page 36


 797:D:/fchai/work/i-cube/I-CUBE-HUAWEI/Drivers/BSP/IKS01A3\iks01a3_env_sensors_ex.c ****         ret = BSP_ERROR_NONE;
 798:D:/fchai/work/i-cube/I-CUBE-HUAWEI/Drivers/BSP/IKS01A3\iks01a3_env_sensors_ex.c ****       }
 799:D:/fchai/work/i-cube/I-CUBE-HUAWEI/Drivers/BSP/IKS01A3\iks01a3_env_sensors_ex.c ****       break;
 800:D:/fchai/work/i-cube/I-CUBE-HUAWEI/Drivers/BSP/IKS01A3\iks01a3_env_sensors_ex.c **** #endif
 801:D:/fchai/work/i-cube/I-CUBE-HUAWEI/Drivers/BSP/IKS01A3\iks01a3_env_sensors_ex.c **** 
 802:D:/fchai/work/i-cube/I-CUBE-HUAWEI/Drivers/BSP/IKS01A3\iks01a3_env_sensors_ex.c ****     default:
 803:D:/fchai/work/i-cube/I-CUBE-HUAWEI/Drivers/BSP/IKS01A3\iks01a3_env_sensors_ex.c ****       ret = BSP_ERROR_WRONG_PARAM;
 804:D:/fchai/work/i-cube/I-CUBE-HUAWEI/Drivers/BSP/IKS01A3\iks01a3_env_sensors_ex.c ****       break;
 805:D:/fchai/work/i-cube/I-CUBE-HUAWEI/Drivers/BSP/IKS01A3\iks01a3_env_sensors_ex.c ****   }
 806:D:/fchai/work/i-cube/I-CUBE-HUAWEI/Drivers/BSP/IKS01A3\iks01a3_env_sensors_ex.c **** 
 807:D:/fchai/work/i-cube/I-CUBE-HUAWEI/Drivers/BSP/IKS01A3\iks01a3_env_sensors_ex.c ****   return ret;
 808:D:/fchai/work/i-cube/I-CUBE-HUAWEI/Drivers/BSP/IKS01A3\iks01a3_env_sensors_ex.c **** }
 1126              		.loc 1 808 1 view .LVU269
 1127 0016 08BD     		pop	{r3, pc}
 1128              	.LVL111:
 1129              	.L179:
 1130              	.LCFI28:
 1131              		.cfi_def_cfa_offset 0
 1132              		.cfi_restore 3
 1133              		.cfi_restore 14
 803:D:/fchai/work/i-cube/I-CUBE-HUAWEI/Drivers/BSP/IKS01A3\iks01a3_env_sensors_ex.c ****       break;
 1134              		.loc 1 803 11 view .LVU270
 1135 0018 6FF00100 		mvn	r0, #1
 1136              	.LVL112:
 1137              		.loc 1 808 1 view .LVU271
 1138 001c 7047     		bx	lr
 1139              	.L186:
 1140 001e 00BF     		.align	2
 1141              	.L185:
 1142 0020 00000000 		.word	EnvCompObj
 1143              		.cfi_endproc
 1144              	.LFE138:
 1146              		.section	.text.IKS01A3_ENV_SENSOR_FIFO_Stop_On_Watermark,"ax",%progbits
 1147              		.align	1
 1148              		.p2align 2,,3
 1149              		.global	IKS01A3_ENV_SENSOR_FIFO_Stop_On_Watermark
 1150              		.syntax unified
 1151              		.thumb
 1152              		.thumb_func
 1153              		.fpu fpv4-sp-d16
 1155              	IKS01A3_ENV_SENSOR_FIFO_Stop_On_Watermark:
 1156              	.LVL113:
 1157              	.LFB139:
 809:D:/fchai/work/i-cube/I-CUBE-HUAWEI/Drivers/BSP/IKS01A3\iks01a3_env_sensors_ex.c **** 
 810:D:/fchai/work/i-cube/I-CUBE-HUAWEI/Drivers/BSP/IKS01A3\iks01a3_env_sensors_ex.c **** /**
 811:D:/fchai/work/i-cube/I-CUBE-HUAWEI/Drivers/BSP/IKS01A3\iks01a3_env_sensors_ex.c ****  * @brief  Set the stop on watermark function (available only for LPS22HH sensor)
 812:D:/fchai/work/i-cube/I-CUBE-HUAWEI/Drivers/BSP/IKS01A3\iks01a3_env_sensors_ex.c ****  * @param  Instance the device instance
 813:D:/fchai/work/i-cube/I-CUBE-HUAWEI/Drivers/BSP/IKS01A3\iks01a3_env_sensors_ex.c ****  * @param  Stop the state of stop on watermark function
 814:D:/fchai/work/i-cube/I-CUBE-HUAWEI/Drivers/BSP/IKS01A3\iks01a3_env_sensors_ex.c ****  * @retval BSP status
 815:D:/fchai/work/i-cube/I-CUBE-HUAWEI/Drivers/BSP/IKS01A3\iks01a3_env_sensors_ex.c ****  */
 816:D:/fchai/work/i-cube/I-CUBE-HUAWEI/Drivers/BSP/IKS01A3\iks01a3_env_sensors_ex.c **** int32_t IKS01A3_ENV_SENSOR_FIFO_Stop_On_Watermark(uint32_t Instance, uint8_t Stop)
 817:D:/fchai/work/i-cube/I-CUBE-HUAWEI/Drivers/BSP/IKS01A3\iks01a3_env_sensors_ex.c **** {
 1158              		.loc 1 817 1 is_stmt 1 view -0
 1159              		.cfi_startproc
 1160              		@ args = 0, pretend = 0, frame = 0
 1161              		@ frame_needed = 0, uses_anonymous_args = 0
 818:D:/fchai/work/i-cube/I-CUBE-HUAWEI/Drivers/BSP/IKS01A3\iks01a3_env_sensors_ex.c ****   int32_t ret;
ARM GAS  T:\msys\tmp\cc0WNqff.s 			page 37


 1162              		.loc 1 818 3 view .LVU273
 819:D:/fchai/work/i-cube/I-CUBE-HUAWEI/Drivers/BSP/IKS01A3\iks01a3_env_sensors_ex.c **** 
 820:D:/fchai/work/i-cube/I-CUBE-HUAWEI/Drivers/BSP/IKS01A3\iks01a3_env_sensors_ex.c ****   switch (Instance)
 1163              		.loc 1 820 3 view .LVU274
 1164 0000 0128     		cmp	r0, #1
 1165 0002 09D1     		bne	.L189
 821:D:/fchai/work/i-cube/I-CUBE-HUAWEI/Drivers/BSP/IKS01A3\iks01a3_env_sensors_ex.c ****   {
 822:D:/fchai/work/i-cube/I-CUBE-HUAWEI/Drivers/BSP/IKS01A3\iks01a3_env_sensors_ex.c **** #if (USE_IKS01A3_ENV_SENSOR_LPS22HH_0 == 1)
 823:D:/fchai/work/i-cube/I-CUBE-HUAWEI/Drivers/BSP/IKS01A3\iks01a3_env_sensors_ex.c ****     case IKS01A3_LPS22HH_0:
 824:D:/fchai/work/i-cube/I-CUBE-HUAWEI/Drivers/BSP/IKS01A3\iks01a3_env_sensors_ex.c ****       if (LPS22HH_FIFO_Stop_On_Watermark(EnvCompObj[Instance], Stop) != BSP_ERROR_NONE)
 1166              		.loc 1 824 7 view .LVU275
 817:D:/fchai/work/i-cube/I-CUBE-HUAWEI/Drivers/BSP/IKS01A3\iks01a3_env_sensors_ex.c ****   int32_t ret;
 1167              		.loc 1 817 1 is_stmt 0 view .LVU276
 1168 0004 08B5     		push	{r3, lr}
 1169              	.LCFI29:
 1170              		.cfi_def_cfa_offset 8
 1171              		.cfi_offset 3, -8
 1172              		.cfi_offset 14, -4
 1173              		.loc 1 824 52 view .LVU277
 1174 0006 064B     		ldr	r3, .L195
 1175              		.loc 1 824 11 view .LVU278
 1176 0008 5868     		ldr	r0, [r3, #4]
 1177              	.LVL114:
 1178              		.loc 1 824 11 view .LVU279
 1179 000a FFF7FEFF 		bl	LPS22HH_FIFO_Stop_On_Watermark
 1180              	.LVL115:
 1181              		.loc 1 824 10 view .LVU280
 1182 000e 0028     		cmp	r0, #0
 825:D:/fchai/work/i-cube/I-CUBE-HUAWEI/Drivers/BSP/IKS01A3\iks01a3_env_sensors_ex.c ****       {
 826:D:/fchai/work/i-cube/I-CUBE-HUAWEI/Drivers/BSP/IKS01A3\iks01a3_env_sensors_ex.c ****         ret = BSP_ERROR_COMPONENT_FAILURE;
 1183              		.loc 1 826 13 view .LVU281
 1184 0010 18BF     		it	ne
 1185 0012 6FF00400 		mvnne	r0, #4
 827:D:/fchai/work/i-cube/I-CUBE-HUAWEI/Drivers/BSP/IKS01A3\iks01a3_env_sensors_ex.c ****       }
 828:D:/fchai/work/i-cube/I-CUBE-HUAWEI/Drivers/BSP/IKS01A3\iks01a3_env_sensors_ex.c ****       else
 829:D:/fchai/work/i-cube/I-CUBE-HUAWEI/Drivers/BSP/IKS01A3\iks01a3_env_sensors_ex.c ****       {
 830:D:/fchai/work/i-cube/I-CUBE-HUAWEI/Drivers/BSP/IKS01A3\iks01a3_env_sensors_ex.c ****         ret = BSP_ERROR_NONE;
 831:D:/fchai/work/i-cube/I-CUBE-HUAWEI/Drivers/BSP/IKS01A3\iks01a3_env_sensors_ex.c ****       }
 832:D:/fchai/work/i-cube/I-CUBE-HUAWEI/Drivers/BSP/IKS01A3\iks01a3_env_sensors_ex.c ****       break;
 833:D:/fchai/work/i-cube/I-CUBE-HUAWEI/Drivers/BSP/IKS01A3\iks01a3_env_sensors_ex.c **** #endif
 834:D:/fchai/work/i-cube/I-CUBE-HUAWEI/Drivers/BSP/IKS01A3\iks01a3_env_sensors_ex.c **** 
 835:D:/fchai/work/i-cube/I-CUBE-HUAWEI/Drivers/BSP/IKS01A3\iks01a3_env_sensors_ex.c ****     default:
 836:D:/fchai/work/i-cube/I-CUBE-HUAWEI/Drivers/BSP/IKS01A3\iks01a3_env_sensors_ex.c ****       ret = BSP_ERROR_WRONG_PARAM;
 837:D:/fchai/work/i-cube/I-CUBE-HUAWEI/Drivers/BSP/IKS01A3\iks01a3_env_sensors_ex.c ****       break;
 838:D:/fchai/work/i-cube/I-CUBE-HUAWEI/Drivers/BSP/IKS01A3\iks01a3_env_sensors_ex.c ****   }
 839:D:/fchai/work/i-cube/I-CUBE-HUAWEI/Drivers/BSP/IKS01A3\iks01a3_env_sensors_ex.c **** 
 840:D:/fchai/work/i-cube/I-CUBE-HUAWEI/Drivers/BSP/IKS01A3\iks01a3_env_sensors_ex.c ****   return ret;
 841:D:/fchai/work/i-cube/I-CUBE-HUAWEI/Drivers/BSP/IKS01A3\iks01a3_env_sensors_ex.c **** }
 1186              		.loc 1 841 1 view .LVU282
 1187 0016 08BD     		pop	{r3, pc}
 1188              	.LVL116:
 1189              	.L189:
 1190              	.LCFI30:
 1191              		.cfi_def_cfa_offset 0
 1192              		.cfi_restore 3
 1193              		.cfi_restore 14
 836:D:/fchai/work/i-cube/I-CUBE-HUAWEI/Drivers/BSP/IKS01A3\iks01a3_env_sensors_ex.c ****       break;
ARM GAS  T:\msys\tmp\cc0WNqff.s 			page 38


 1194              		.loc 1 836 11 view .LVU283
 1195 0018 6FF00100 		mvn	r0, #1
 1196              	.LVL117:
 1197              		.loc 1 841 1 view .LVU284
 1198 001c 7047     		bx	lr
 1199              	.L196:
 1200 001e 00BF     		.align	2
 1201              	.L195:
 1202 0020 00000000 		.word	EnvCompObj
 1203              		.cfi_endproc
 1204              	.LFE139:
 1206              		.section	.text.IKS01A3_ENV_SENSOR_Set_One_Shot,"ax",%progbits
 1207              		.align	1
 1208              		.p2align 2,,3
 1209              		.global	IKS01A3_ENV_SENSOR_Set_One_Shot
 1210              		.syntax unified
 1211              		.thumb
 1212              		.thumb_func
 1213              		.fpu fpv4-sp-d16
 1215              	IKS01A3_ENV_SENSOR_Set_One_Shot:
 1216              	.LVL118:
 1217              	.LFB140:
 842:D:/fchai/work/i-cube/I-CUBE-HUAWEI/Drivers/BSP/IKS01A3\iks01a3_env_sensors_ex.c **** 
 843:D:/fchai/work/i-cube/I-CUBE-HUAWEI/Drivers/BSP/IKS01A3\iks01a3_env_sensors_ex.c **** /**
 844:D:/fchai/work/i-cube/I-CUBE-HUAWEI/Drivers/BSP/IKS01A3\iks01a3_env_sensors_ex.c ****  * @brief  Set environmental sensor one shot mode
 845:D:/fchai/work/i-cube/I-CUBE-HUAWEI/Drivers/BSP/IKS01A3\iks01a3_env_sensors_ex.c ****  * @param  Instance environmental sensor instance to be used
 846:D:/fchai/work/i-cube/I-CUBE-HUAWEI/Drivers/BSP/IKS01A3\iks01a3_env_sensors_ex.c ****  * @retval BSP status
 847:D:/fchai/work/i-cube/I-CUBE-HUAWEI/Drivers/BSP/IKS01A3\iks01a3_env_sensors_ex.c ****  */
 848:D:/fchai/work/i-cube/I-CUBE-HUAWEI/Drivers/BSP/IKS01A3\iks01a3_env_sensors_ex.c **** int32_t IKS01A3_ENV_SENSOR_Set_One_Shot(uint32_t Instance)
 849:D:/fchai/work/i-cube/I-CUBE-HUAWEI/Drivers/BSP/IKS01A3\iks01a3_env_sensors_ex.c **** {
 1218              		.loc 1 849 1 is_stmt 1 view -0
 1219              		.cfi_startproc
 1220              		@ args = 0, pretend = 0, frame = 0
 1221              		@ frame_needed = 0, uses_anonymous_args = 0
 850:D:/fchai/work/i-cube/I-CUBE-HUAWEI/Drivers/BSP/IKS01A3\iks01a3_env_sensors_ex.c ****    int32_t ret;
 1222              		.loc 1 850 4 view .LVU286
 851:D:/fchai/work/i-cube/I-CUBE-HUAWEI/Drivers/BSP/IKS01A3\iks01a3_env_sensors_ex.c **** 
 852:D:/fchai/work/i-cube/I-CUBE-HUAWEI/Drivers/BSP/IKS01A3\iks01a3_env_sensors_ex.c ****   switch (Instance)
 1223              		.loc 1 852 3 view .LVU287
 1224 0000 0128     		cmp	r0, #1
 849:D:/fchai/work/i-cube/I-CUBE-HUAWEI/Drivers/BSP/IKS01A3\iks01a3_env_sensors_ex.c ****    int32_t ret;
 1225              		.loc 1 849 1 is_stmt 0 view .LVU288
 1226 0002 08B5     		push	{r3, lr}
 1227              	.LCFI31:
 1228              		.cfi_def_cfa_offset 8
 1229              		.cfi_offset 3, -8
 1230              		.cfi_offset 14, -4
 1231              		.loc 1 852 3 view .LVU289
 1232 0004 05D0     		beq	.L198
 1233 0006 0228     		cmp	r0, #2
 1234 0008 13D0     		beq	.L199
 1235 000a 48B1     		cbz	r0, .L208
 1236 000c 6FF00100 		mvn	r0, #1
 1237              	.LVL119:
 853:D:/fchai/work/i-cube/I-CUBE-HUAWEI/Drivers/BSP/IKS01A3\iks01a3_env_sensors_ex.c ****   {
 854:D:/fchai/work/i-cube/I-CUBE-HUAWEI/Drivers/BSP/IKS01A3\iks01a3_env_sensors_ex.c **** #if (USE_IKS01A3_ENV_SENSOR_HTS221_0 == 1)
 855:D:/fchai/work/i-cube/I-CUBE-HUAWEI/Drivers/BSP/IKS01A3\iks01a3_env_sensors_ex.c ****     case IKS01A3_HTS221_0:
ARM GAS  T:\msys\tmp\cc0WNqff.s 			page 39


 856:D:/fchai/work/i-cube/I-CUBE-HUAWEI/Drivers/BSP/IKS01A3\iks01a3_env_sensors_ex.c ****       if (HTS221_Set_One_Shot(EnvCompObj[Instance]) != BSP_ERROR_NONE)
 857:D:/fchai/work/i-cube/I-CUBE-HUAWEI/Drivers/BSP/IKS01A3\iks01a3_env_sensors_ex.c ****       {
 858:D:/fchai/work/i-cube/I-CUBE-HUAWEI/Drivers/BSP/IKS01A3\iks01a3_env_sensors_ex.c ****         ret = BSP_ERROR_COMPONENT_FAILURE;
 859:D:/fchai/work/i-cube/I-CUBE-HUAWEI/Drivers/BSP/IKS01A3\iks01a3_env_sensors_ex.c ****       }
 860:D:/fchai/work/i-cube/I-CUBE-HUAWEI/Drivers/BSP/IKS01A3\iks01a3_env_sensors_ex.c ****       else
 861:D:/fchai/work/i-cube/I-CUBE-HUAWEI/Drivers/BSP/IKS01A3\iks01a3_env_sensors_ex.c ****       {
 862:D:/fchai/work/i-cube/I-CUBE-HUAWEI/Drivers/BSP/IKS01A3\iks01a3_env_sensors_ex.c ****         ret = BSP_ERROR_NONE;
 863:D:/fchai/work/i-cube/I-CUBE-HUAWEI/Drivers/BSP/IKS01A3\iks01a3_env_sensors_ex.c ****       }
 864:D:/fchai/work/i-cube/I-CUBE-HUAWEI/Drivers/BSP/IKS01A3\iks01a3_env_sensors_ex.c ****       break;
 865:D:/fchai/work/i-cube/I-CUBE-HUAWEI/Drivers/BSP/IKS01A3\iks01a3_env_sensors_ex.c **** #endif
 866:D:/fchai/work/i-cube/I-CUBE-HUAWEI/Drivers/BSP/IKS01A3\iks01a3_env_sensors_ex.c **** 
 867:D:/fchai/work/i-cube/I-CUBE-HUAWEI/Drivers/BSP/IKS01A3\iks01a3_env_sensors_ex.c **** #if (USE_IKS01A3_ENV_SENSOR_LPS22HH_0 == 1)
 868:D:/fchai/work/i-cube/I-CUBE-HUAWEI/Drivers/BSP/IKS01A3\iks01a3_env_sensors_ex.c ****     case IKS01A3_LPS22HH_0:
 869:D:/fchai/work/i-cube/I-CUBE-HUAWEI/Drivers/BSP/IKS01A3\iks01a3_env_sensors_ex.c ****       if (LPS22HH_Set_One_Shot(EnvCompObj[Instance]) != BSP_ERROR_NONE)
 870:D:/fchai/work/i-cube/I-CUBE-HUAWEI/Drivers/BSP/IKS01A3\iks01a3_env_sensors_ex.c ****       {
 871:D:/fchai/work/i-cube/I-CUBE-HUAWEI/Drivers/BSP/IKS01A3\iks01a3_env_sensors_ex.c ****         ret = BSP_ERROR_COMPONENT_FAILURE;
 872:D:/fchai/work/i-cube/I-CUBE-HUAWEI/Drivers/BSP/IKS01A3\iks01a3_env_sensors_ex.c ****       }
 873:D:/fchai/work/i-cube/I-CUBE-HUAWEI/Drivers/BSP/IKS01A3\iks01a3_env_sensors_ex.c ****       else
 874:D:/fchai/work/i-cube/I-CUBE-HUAWEI/Drivers/BSP/IKS01A3\iks01a3_env_sensors_ex.c ****       {
 875:D:/fchai/work/i-cube/I-CUBE-HUAWEI/Drivers/BSP/IKS01A3\iks01a3_env_sensors_ex.c ****         ret = BSP_ERROR_NONE;
 876:D:/fchai/work/i-cube/I-CUBE-HUAWEI/Drivers/BSP/IKS01A3\iks01a3_env_sensors_ex.c ****       }
 877:D:/fchai/work/i-cube/I-CUBE-HUAWEI/Drivers/BSP/IKS01A3\iks01a3_env_sensors_ex.c ****       break;
 878:D:/fchai/work/i-cube/I-CUBE-HUAWEI/Drivers/BSP/IKS01A3\iks01a3_env_sensors_ex.c **** #endif
 879:D:/fchai/work/i-cube/I-CUBE-HUAWEI/Drivers/BSP/IKS01A3\iks01a3_env_sensors_ex.c **** 
 880:D:/fchai/work/i-cube/I-CUBE-HUAWEI/Drivers/BSP/IKS01A3\iks01a3_env_sensors_ex.c **** #if (USE_IKS01A3_ENV_SENSOR_STTS751_0 == 1)
 881:D:/fchai/work/i-cube/I-CUBE-HUAWEI/Drivers/BSP/IKS01A3\iks01a3_env_sensors_ex.c ****     case IKS01A3_STTS751_0:
 882:D:/fchai/work/i-cube/I-CUBE-HUAWEI/Drivers/BSP/IKS01A3\iks01a3_env_sensors_ex.c ****       if (STTS751_Set_One_Shot(EnvCompObj[Instance]) != BSP_ERROR_NONE)
 883:D:/fchai/work/i-cube/I-CUBE-HUAWEI/Drivers/BSP/IKS01A3\iks01a3_env_sensors_ex.c ****       {
 884:D:/fchai/work/i-cube/I-CUBE-HUAWEI/Drivers/BSP/IKS01A3\iks01a3_env_sensors_ex.c ****         ret = BSP_ERROR_COMPONENT_FAILURE;
 885:D:/fchai/work/i-cube/I-CUBE-HUAWEI/Drivers/BSP/IKS01A3\iks01a3_env_sensors_ex.c ****       }
 886:D:/fchai/work/i-cube/I-CUBE-HUAWEI/Drivers/BSP/IKS01A3\iks01a3_env_sensors_ex.c ****       else
 887:D:/fchai/work/i-cube/I-CUBE-HUAWEI/Drivers/BSP/IKS01A3\iks01a3_env_sensors_ex.c ****       {
 888:D:/fchai/work/i-cube/I-CUBE-HUAWEI/Drivers/BSP/IKS01A3\iks01a3_env_sensors_ex.c ****         ret = BSP_ERROR_NONE;
 889:D:/fchai/work/i-cube/I-CUBE-HUAWEI/Drivers/BSP/IKS01A3\iks01a3_env_sensors_ex.c ****       }
 890:D:/fchai/work/i-cube/I-CUBE-HUAWEI/Drivers/BSP/IKS01A3\iks01a3_env_sensors_ex.c ****       break;
 891:D:/fchai/work/i-cube/I-CUBE-HUAWEI/Drivers/BSP/IKS01A3\iks01a3_env_sensors_ex.c **** #endif
 892:D:/fchai/work/i-cube/I-CUBE-HUAWEI/Drivers/BSP/IKS01A3\iks01a3_env_sensors_ex.c **** 
 893:D:/fchai/work/i-cube/I-CUBE-HUAWEI/Drivers/BSP/IKS01A3\iks01a3_env_sensors_ex.c **** 
 894:D:/fchai/work/i-cube/I-CUBE-HUAWEI/Drivers/BSP/IKS01A3\iks01a3_env_sensors_ex.c **** #if (USE_IKS01A3_ENV_SENSOR_STTS22H_0 == 1)
 895:D:/fchai/work/i-cube/I-CUBE-HUAWEI/Drivers/BSP/IKS01A3\iks01a3_env_sensors_ex.c ****     case IKS01A3_STTS22H_0:
 896:D:/fchai/work/i-cube/I-CUBE-HUAWEI/Drivers/BSP/IKS01A3\iks01a3_env_sensors_ex.c ****       if (STTS22H_Set_One_Shot(EnvCompObj[Instance]) != BSP_ERROR_NONE)
 897:D:/fchai/work/i-cube/I-CUBE-HUAWEI/Drivers/BSP/IKS01A3\iks01a3_env_sensors_ex.c ****       {
 898:D:/fchai/work/i-cube/I-CUBE-HUAWEI/Drivers/BSP/IKS01A3\iks01a3_env_sensors_ex.c ****         ret = BSP_ERROR_COMPONENT_FAILURE;
 899:D:/fchai/work/i-cube/I-CUBE-HUAWEI/Drivers/BSP/IKS01A3\iks01a3_env_sensors_ex.c ****       }
 900:D:/fchai/work/i-cube/I-CUBE-HUAWEI/Drivers/BSP/IKS01A3\iks01a3_env_sensors_ex.c ****       else
 901:D:/fchai/work/i-cube/I-CUBE-HUAWEI/Drivers/BSP/IKS01A3\iks01a3_env_sensors_ex.c ****       {
 902:D:/fchai/work/i-cube/I-CUBE-HUAWEI/Drivers/BSP/IKS01A3\iks01a3_env_sensors_ex.c ****         ret = BSP_ERROR_NONE;
 903:D:/fchai/work/i-cube/I-CUBE-HUAWEI/Drivers/BSP/IKS01A3\iks01a3_env_sensors_ex.c ****       }
 904:D:/fchai/work/i-cube/I-CUBE-HUAWEI/Drivers/BSP/IKS01A3\iks01a3_env_sensors_ex.c ****       break;
 905:D:/fchai/work/i-cube/I-CUBE-HUAWEI/Drivers/BSP/IKS01A3\iks01a3_env_sensors_ex.c **** #endif
 906:D:/fchai/work/i-cube/I-CUBE-HUAWEI/Drivers/BSP/IKS01A3\iks01a3_env_sensors_ex.c **** 
 907:D:/fchai/work/i-cube/I-CUBE-HUAWEI/Drivers/BSP/IKS01A3\iks01a3_env_sensors_ex.c ****     default:
 908:D:/fchai/work/i-cube/I-CUBE-HUAWEI/Drivers/BSP/IKS01A3\iks01a3_env_sensors_ex.c ****       ret = BSP_ERROR_WRONG_PARAM;
 909:D:/fchai/work/i-cube/I-CUBE-HUAWEI/Drivers/BSP/IKS01A3\iks01a3_env_sensors_ex.c ****       break;
 910:D:/fchai/work/i-cube/I-CUBE-HUAWEI/Drivers/BSP/IKS01A3\iks01a3_env_sensors_ex.c ****   }
 911:D:/fchai/work/i-cube/I-CUBE-HUAWEI/Drivers/BSP/IKS01A3\iks01a3_env_sensors_ex.c **** 
 912:D:/fchai/work/i-cube/I-CUBE-HUAWEI/Drivers/BSP/IKS01A3\iks01a3_env_sensors_ex.c ****   return ret;
ARM GAS  T:\msys\tmp\cc0WNqff.s 			page 40


 1238              		.loc 1 912 3 is_stmt 1 view .LVU290
 913:D:/fchai/work/i-cube/I-CUBE-HUAWEI/Drivers/BSP/IKS01A3\iks01a3_env_sensors_ex.c **** }
 1239              		.loc 1 913 1 is_stmt 0 view .LVU291
 1240 0010 08BD     		pop	{r3, pc}
 1241              	.LVL120:
 1242              	.L198:
 869:D:/fchai/work/i-cube/I-CUBE-HUAWEI/Drivers/BSP/IKS01A3\iks01a3_env_sensors_ex.c ****       {
 1243              		.loc 1 869 7 is_stmt 1 view .LVU292
 869:D:/fchai/work/i-cube/I-CUBE-HUAWEI/Drivers/BSP/IKS01A3\iks01a3_env_sensors_ex.c ****       {
 1244              		.loc 1 869 42 is_stmt 0 view .LVU293
 1245 0012 0B4B     		ldr	r3, .L209
 869:D:/fchai/work/i-cube/I-CUBE-HUAWEI/Drivers/BSP/IKS01A3\iks01a3_env_sensors_ex.c ****       {
 1246              		.loc 1 869 11 view .LVU294
 1247 0014 5868     		ldr	r0, [r3, #4]
 1248              	.LVL121:
 869:D:/fchai/work/i-cube/I-CUBE-HUAWEI/Drivers/BSP/IKS01A3\iks01a3_env_sensors_ex.c ****       {
 1249              		.loc 1 869 11 view .LVU295
 1250 0016 FFF7FEFF 		bl	LPS22HH_Set_One_Shot
 1251              	.LVL122:
 869:D:/fchai/work/i-cube/I-CUBE-HUAWEI/Drivers/BSP/IKS01A3\iks01a3_env_sensors_ex.c ****       {
 1252              		.loc 1 869 10 view .LVU296
 1253 001a 38B9     		cbnz	r0, .L202
 1254              	.L201:
 862:D:/fchai/work/i-cube/I-CUBE-HUAWEI/Drivers/BSP/IKS01A3\iks01a3_env_sensors_ex.c ****       }
 1255              		.loc 1 862 9 is_stmt 1 view .LVU297
 1256              	.LVL123:
 862:D:/fchai/work/i-cube/I-CUBE-HUAWEI/Drivers/BSP/IKS01A3\iks01a3_env_sensors_ex.c ****       }
 1257              		.loc 1 862 13 is_stmt 0 view .LVU298
 1258 001c 0020     		movs	r0, #0
 1259              		.loc 1 913 1 view .LVU299
 1260 001e 08BD     		pop	{r3, pc}
 1261              	.LVL124:
 1262              	.L208:
 856:D:/fchai/work/i-cube/I-CUBE-HUAWEI/Drivers/BSP/IKS01A3\iks01a3_env_sensors_ex.c ****       {
 1263              		.loc 1 856 7 is_stmt 1 view .LVU300
 856:D:/fchai/work/i-cube/I-CUBE-HUAWEI/Drivers/BSP/IKS01A3\iks01a3_env_sensors_ex.c ****       {
 1264              		.loc 1 856 41 is_stmt 0 view .LVU301
 1265 0020 074B     		ldr	r3, .L209
 856:D:/fchai/work/i-cube/I-CUBE-HUAWEI/Drivers/BSP/IKS01A3\iks01a3_env_sensors_ex.c ****       {
 1266              		.loc 1 856 11 view .LVU302
 1267 0022 1868     		ldr	r0, [r3]
 1268              	.LVL125:
 856:D:/fchai/work/i-cube/I-CUBE-HUAWEI/Drivers/BSP/IKS01A3\iks01a3_env_sensors_ex.c ****       {
 1269              		.loc 1 856 11 view .LVU303
 1270 0024 FFF7FEFF 		bl	HTS221_Set_One_Shot
 1271              	.LVL126:
 856:D:/fchai/work/i-cube/I-CUBE-HUAWEI/Drivers/BSP/IKS01A3\iks01a3_env_sensors_ex.c ****       {
 1272              		.loc 1 856 10 view .LVU304
 1273 0028 0028     		cmp	r0, #0
 1274 002a F7D0     		beq	.L201
 1275              	.L202:
 858:D:/fchai/work/i-cube/I-CUBE-HUAWEI/Drivers/BSP/IKS01A3\iks01a3_env_sensors_ex.c ****       }
 1276              		.loc 1 858 13 view .LVU305
 1277 002c 6FF00400 		mvn	r0, #4
 1278              		.loc 1 913 1 view .LVU306
 1279 0030 08BD     		pop	{r3, pc}
 1280              	.LVL127:
ARM GAS  T:\msys\tmp\cc0WNqff.s 			page 41


 1281              	.L199:
 882:D:/fchai/work/i-cube/I-CUBE-HUAWEI/Drivers/BSP/IKS01A3\iks01a3_env_sensors_ex.c ****       {
 1282              		.loc 1 882 7 is_stmt 1 view .LVU307
 882:D:/fchai/work/i-cube/I-CUBE-HUAWEI/Drivers/BSP/IKS01A3\iks01a3_env_sensors_ex.c ****       {
 1283              		.loc 1 882 42 is_stmt 0 view .LVU308
 1284 0032 034B     		ldr	r3, .L209
 882:D:/fchai/work/i-cube/I-CUBE-HUAWEI/Drivers/BSP/IKS01A3\iks01a3_env_sensors_ex.c ****       {
 1285              		.loc 1 882 11 view .LVU309
 1286 0034 9868     		ldr	r0, [r3, #8]
 1287              	.LVL128:
 882:D:/fchai/work/i-cube/I-CUBE-HUAWEI/Drivers/BSP/IKS01A3\iks01a3_env_sensors_ex.c ****       {
 1288              		.loc 1 882 11 view .LVU310
 1289 0036 FFF7FEFF 		bl	STTS751_Set_One_Shot
 1290              	.LVL129:
 882:D:/fchai/work/i-cube/I-CUBE-HUAWEI/Drivers/BSP/IKS01A3\iks01a3_env_sensors_ex.c ****       {
 1291              		.loc 1 882 10 view .LVU311
 1292 003a 0028     		cmp	r0, #0
 1293 003c EED0     		beq	.L201
 1294 003e F5E7     		b	.L202
 1295              	.L210:
 1296              		.align	2
 1297              	.L209:
 1298 0040 00000000 		.word	EnvCompObj
 1299              		.cfi_endproc
 1300              	.LFE140:
 1302              		.section	.text.IKS01A3_ENV_SENSOR_Get_One_Shot_Status,"ax",%progbits
 1303              		.align	1
 1304              		.p2align 2,,3
 1305              		.global	IKS01A3_ENV_SENSOR_Get_One_Shot_Status
 1306              		.syntax unified
 1307              		.thumb
 1308              		.thumb_func
 1309              		.fpu fpv4-sp-d16
 1311              	IKS01A3_ENV_SENSOR_Get_One_Shot_Status:
 1312              	.LVL130:
 1313              	.LFB141:
 914:D:/fchai/work/i-cube/I-CUBE-HUAWEI/Drivers/BSP/IKS01A3\iks01a3_env_sensors_ex.c **** 
 915:D:/fchai/work/i-cube/I-CUBE-HUAWEI/Drivers/BSP/IKS01A3\iks01a3_env_sensors_ex.c **** /**
 916:D:/fchai/work/i-cube/I-CUBE-HUAWEI/Drivers/BSP/IKS01A3\iks01a3_env_sensors_ex.c ****  * @brief  Get environmental sensor one shot status
 917:D:/fchai/work/i-cube/I-CUBE-HUAWEI/Drivers/BSP/IKS01A3\iks01a3_env_sensors_ex.c ****  * @param  Instance environmental sensor instance to be used
 918:D:/fchai/work/i-cube/I-CUBE-HUAWEI/Drivers/BSP/IKS01A3\iks01a3_env_sensors_ex.c ****  * @param  Status pointer to the one shot status (1 means measurements available, 0 means measureme
 919:D:/fchai/work/i-cube/I-CUBE-HUAWEI/Drivers/BSP/IKS01A3\iks01a3_env_sensors_ex.c ****  * @retval BSP status
 920:D:/fchai/work/i-cube/I-CUBE-HUAWEI/Drivers/BSP/IKS01A3\iks01a3_env_sensors_ex.c ****  */
 921:D:/fchai/work/i-cube/I-CUBE-HUAWEI/Drivers/BSP/IKS01A3\iks01a3_env_sensors_ex.c **** int32_t IKS01A3_ENV_SENSOR_Get_One_Shot_Status(uint32_t Instance, uint8_t *Status)
 922:D:/fchai/work/i-cube/I-CUBE-HUAWEI/Drivers/BSP/IKS01A3\iks01a3_env_sensors_ex.c **** {
 1314              		.loc 1 922 1 is_stmt 1 view -0
 1315              		.cfi_startproc
 1316              		@ args = 0, pretend = 0, frame = 0
 1317              		@ frame_needed = 0, uses_anonymous_args = 0
 923:D:/fchai/work/i-cube/I-CUBE-HUAWEI/Drivers/BSP/IKS01A3\iks01a3_env_sensors_ex.c ****    int32_t ret;
 1318              		.loc 1 923 4 view .LVU313
 924:D:/fchai/work/i-cube/I-CUBE-HUAWEI/Drivers/BSP/IKS01A3\iks01a3_env_sensors_ex.c **** 
 925:D:/fchai/work/i-cube/I-CUBE-HUAWEI/Drivers/BSP/IKS01A3\iks01a3_env_sensors_ex.c ****   switch (Instance)
 1319              		.loc 1 925 3 view .LVU314
 1320 0000 0128     		cmp	r0, #1
 922:D:/fchai/work/i-cube/I-CUBE-HUAWEI/Drivers/BSP/IKS01A3\iks01a3_env_sensors_ex.c ****    int32_t ret;
 1321              		.loc 1 922 1 is_stmt 0 view .LVU315
ARM GAS  T:\msys\tmp\cc0WNqff.s 			page 42


 1322 0002 08B5     		push	{r3, lr}
 1323              	.LCFI32:
 1324              		.cfi_def_cfa_offset 8
 1325              		.cfi_offset 3, -8
 1326              		.cfi_offset 14, -4
 1327              		.loc 1 925 3 view .LVU316
 1328 0004 05D0     		beq	.L212
 1329 0006 0228     		cmp	r0, #2
 1330 0008 13D0     		beq	.L213
 1331 000a 48B1     		cbz	r0, .L222
 1332 000c 6FF00100 		mvn	r0, #1
 1333              	.LVL131:
 926:D:/fchai/work/i-cube/I-CUBE-HUAWEI/Drivers/BSP/IKS01A3\iks01a3_env_sensors_ex.c ****   {
 927:D:/fchai/work/i-cube/I-CUBE-HUAWEI/Drivers/BSP/IKS01A3\iks01a3_env_sensors_ex.c **** #if (USE_IKS01A3_ENV_SENSOR_HTS221_0 == 1)
 928:D:/fchai/work/i-cube/I-CUBE-HUAWEI/Drivers/BSP/IKS01A3\iks01a3_env_sensors_ex.c ****     case IKS01A3_HTS221_0:
 929:D:/fchai/work/i-cube/I-CUBE-HUAWEI/Drivers/BSP/IKS01A3\iks01a3_env_sensors_ex.c ****       if (HTS221_Get_One_Shot_Status(EnvCompObj[Instance], Status) != BSP_ERROR_NONE)
 930:D:/fchai/work/i-cube/I-CUBE-HUAWEI/Drivers/BSP/IKS01A3\iks01a3_env_sensors_ex.c ****       {
 931:D:/fchai/work/i-cube/I-CUBE-HUAWEI/Drivers/BSP/IKS01A3\iks01a3_env_sensors_ex.c ****         ret = BSP_ERROR_COMPONENT_FAILURE;
 932:D:/fchai/work/i-cube/I-CUBE-HUAWEI/Drivers/BSP/IKS01A3\iks01a3_env_sensors_ex.c ****       }
 933:D:/fchai/work/i-cube/I-CUBE-HUAWEI/Drivers/BSP/IKS01A3\iks01a3_env_sensors_ex.c ****       else
 934:D:/fchai/work/i-cube/I-CUBE-HUAWEI/Drivers/BSP/IKS01A3\iks01a3_env_sensors_ex.c ****       {
 935:D:/fchai/work/i-cube/I-CUBE-HUAWEI/Drivers/BSP/IKS01A3\iks01a3_env_sensors_ex.c ****         ret = BSP_ERROR_NONE;
 936:D:/fchai/work/i-cube/I-CUBE-HUAWEI/Drivers/BSP/IKS01A3\iks01a3_env_sensors_ex.c ****       }
 937:D:/fchai/work/i-cube/I-CUBE-HUAWEI/Drivers/BSP/IKS01A3\iks01a3_env_sensors_ex.c ****       break;
 938:D:/fchai/work/i-cube/I-CUBE-HUAWEI/Drivers/BSP/IKS01A3\iks01a3_env_sensors_ex.c **** #endif
 939:D:/fchai/work/i-cube/I-CUBE-HUAWEI/Drivers/BSP/IKS01A3\iks01a3_env_sensors_ex.c **** 
 940:D:/fchai/work/i-cube/I-CUBE-HUAWEI/Drivers/BSP/IKS01A3\iks01a3_env_sensors_ex.c **** #if (USE_IKS01A3_ENV_SENSOR_LPS22HH_0 == 1)
 941:D:/fchai/work/i-cube/I-CUBE-HUAWEI/Drivers/BSP/IKS01A3\iks01a3_env_sensors_ex.c ****     case IKS01A3_LPS22HH_0:
 942:D:/fchai/work/i-cube/I-CUBE-HUAWEI/Drivers/BSP/IKS01A3\iks01a3_env_sensors_ex.c ****       if (LPS22HH_Get_One_Shot_Status(EnvCompObj[Instance], Status) != BSP_ERROR_NONE)
 943:D:/fchai/work/i-cube/I-CUBE-HUAWEI/Drivers/BSP/IKS01A3\iks01a3_env_sensors_ex.c ****       {
 944:D:/fchai/work/i-cube/I-CUBE-HUAWEI/Drivers/BSP/IKS01A3\iks01a3_env_sensors_ex.c ****         ret = BSP_ERROR_COMPONENT_FAILURE;
 945:D:/fchai/work/i-cube/I-CUBE-HUAWEI/Drivers/BSP/IKS01A3\iks01a3_env_sensors_ex.c ****       }
 946:D:/fchai/work/i-cube/I-CUBE-HUAWEI/Drivers/BSP/IKS01A3\iks01a3_env_sensors_ex.c ****       else
 947:D:/fchai/work/i-cube/I-CUBE-HUAWEI/Drivers/BSP/IKS01A3\iks01a3_env_sensors_ex.c ****       {
 948:D:/fchai/work/i-cube/I-CUBE-HUAWEI/Drivers/BSP/IKS01A3\iks01a3_env_sensors_ex.c ****         ret = BSP_ERROR_NONE;
 949:D:/fchai/work/i-cube/I-CUBE-HUAWEI/Drivers/BSP/IKS01A3\iks01a3_env_sensors_ex.c ****       }
 950:D:/fchai/work/i-cube/I-CUBE-HUAWEI/Drivers/BSP/IKS01A3\iks01a3_env_sensors_ex.c ****       break;
 951:D:/fchai/work/i-cube/I-CUBE-HUAWEI/Drivers/BSP/IKS01A3\iks01a3_env_sensors_ex.c **** #endif
 952:D:/fchai/work/i-cube/I-CUBE-HUAWEI/Drivers/BSP/IKS01A3\iks01a3_env_sensors_ex.c **** 
 953:D:/fchai/work/i-cube/I-CUBE-HUAWEI/Drivers/BSP/IKS01A3\iks01a3_env_sensors_ex.c **** #if (USE_IKS01A3_ENV_SENSOR_STTS751_0 == 1)
 954:D:/fchai/work/i-cube/I-CUBE-HUAWEI/Drivers/BSP/IKS01A3\iks01a3_env_sensors_ex.c ****     case IKS01A3_STTS751_0:
 955:D:/fchai/work/i-cube/I-CUBE-HUAWEI/Drivers/BSP/IKS01A3\iks01a3_env_sensors_ex.c ****       if (STTS751_Get_One_Shot_Status(EnvCompObj[Instance], Status) != BSP_ERROR_NONE)
 956:D:/fchai/work/i-cube/I-CUBE-HUAWEI/Drivers/BSP/IKS01A3\iks01a3_env_sensors_ex.c ****       {
 957:D:/fchai/work/i-cube/I-CUBE-HUAWEI/Drivers/BSP/IKS01A3\iks01a3_env_sensors_ex.c ****         ret = BSP_ERROR_COMPONENT_FAILURE;
 958:D:/fchai/work/i-cube/I-CUBE-HUAWEI/Drivers/BSP/IKS01A3\iks01a3_env_sensors_ex.c ****       }
 959:D:/fchai/work/i-cube/I-CUBE-HUAWEI/Drivers/BSP/IKS01A3\iks01a3_env_sensors_ex.c ****       else
 960:D:/fchai/work/i-cube/I-CUBE-HUAWEI/Drivers/BSP/IKS01A3\iks01a3_env_sensors_ex.c ****       {
 961:D:/fchai/work/i-cube/I-CUBE-HUAWEI/Drivers/BSP/IKS01A3\iks01a3_env_sensors_ex.c ****         ret = BSP_ERROR_NONE;
 962:D:/fchai/work/i-cube/I-CUBE-HUAWEI/Drivers/BSP/IKS01A3\iks01a3_env_sensors_ex.c ****       }
 963:D:/fchai/work/i-cube/I-CUBE-HUAWEI/Drivers/BSP/IKS01A3\iks01a3_env_sensors_ex.c ****       break;
 964:D:/fchai/work/i-cube/I-CUBE-HUAWEI/Drivers/BSP/IKS01A3\iks01a3_env_sensors_ex.c **** #endif
 965:D:/fchai/work/i-cube/I-CUBE-HUAWEI/Drivers/BSP/IKS01A3\iks01a3_env_sensors_ex.c **** 
 966:D:/fchai/work/i-cube/I-CUBE-HUAWEI/Drivers/BSP/IKS01A3\iks01a3_env_sensors_ex.c **** #if (USE_IKS01A3_ENV_SENSOR_STTS22H_0 == 1)
 967:D:/fchai/work/i-cube/I-CUBE-HUAWEI/Drivers/BSP/IKS01A3\iks01a3_env_sensors_ex.c ****     case IKS01A3_STTS22H_0:
 968:D:/fchai/work/i-cube/I-CUBE-HUAWEI/Drivers/BSP/IKS01A3\iks01a3_env_sensors_ex.c ****       if (STTS22H_Get_One_Shot_Status(EnvCompObj[Instance], Status) != BSP_ERROR_NONE)
 969:D:/fchai/work/i-cube/I-CUBE-HUAWEI/Drivers/BSP/IKS01A3\iks01a3_env_sensors_ex.c ****       {
 970:D:/fchai/work/i-cube/I-CUBE-HUAWEI/Drivers/BSP/IKS01A3\iks01a3_env_sensors_ex.c ****         ret = BSP_ERROR_COMPONENT_FAILURE;
ARM GAS  T:\msys\tmp\cc0WNqff.s 			page 43


 971:D:/fchai/work/i-cube/I-CUBE-HUAWEI/Drivers/BSP/IKS01A3\iks01a3_env_sensors_ex.c ****       }
 972:D:/fchai/work/i-cube/I-CUBE-HUAWEI/Drivers/BSP/IKS01A3\iks01a3_env_sensors_ex.c ****       else
 973:D:/fchai/work/i-cube/I-CUBE-HUAWEI/Drivers/BSP/IKS01A3\iks01a3_env_sensors_ex.c ****       {
 974:D:/fchai/work/i-cube/I-CUBE-HUAWEI/Drivers/BSP/IKS01A3\iks01a3_env_sensors_ex.c ****         ret = BSP_ERROR_NONE;
 975:D:/fchai/work/i-cube/I-CUBE-HUAWEI/Drivers/BSP/IKS01A3\iks01a3_env_sensors_ex.c ****       }
 976:D:/fchai/work/i-cube/I-CUBE-HUAWEI/Drivers/BSP/IKS01A3\iks01a3_env_sensors_ex.c ****       break;
 977:D:/fchai/work/i-cube/I-CUBE-HUAWEI/Drivers/BSP/IKS01A3\iks01a3_env_sensors_ex.c **** #endif
 978:D:/fchai/work/i-cube/I-CUBE-HUAWEI/Drivers/BSP/IKS01A3\iks01a3_env_sensors_ex.c **** 
 979:D:/fchai/work/i-cube/I-CUBE-HUAWEI/Drivers/BSP/IKS01A3\iks01a3_env_sensors_ex.c ****     default:
 980:D:/fchai/work/i-cube/I-CUBE-HUAWEI/Drivers/BSP/IKS01A3\iks01a3_env_sensors_ex.c ****       ret = BSP_ERROR_WRONG_PARAM;
 981:D:/fchai/work/i-cube/I-CUBE-HUAWEI/Drivers/BSP/IKS01A3\iks01a3_env_sensors_ex.c ****       break;
 982:D:/fchai/work/i-cube/I-CUBE-HUAWEI/Drivers/BSP/IKS01A3\iks01a3_env_sensors_ex.c ****   }
 983:D:/fchai/work/i-cube/I-CUBE-HUAWEI/Drivers/BSP/IKS01A3\iks01a3_env_sensors_ex.c **** 
 984:D:/fchai/work/i-cube/I-CUBE-HUAWEI/Drivers/BSP/IKS01A3\iks01a3_env_sensors_ex.c ****   return ret;
 1334              		.loc 1 984 3 is_stmt 1 view .LVU317
 985:D:/fchai/work/i-cube/I-CUBE-HUAWEI/Drivers/BSP/IKS01A3\iks01a3_env_sensors_ex.c **** }
 1335              		.loc 1 985 1 is_stmt 0 view .LVU318
 1336 0010 08BD     		pop	{r3, pc}
 1337              	.LVL132:
 1338              	.L212:
 942:D:/fchai/work/i-cube/I-CUBE-HUAWEI/Drivers/BSP/IKS01A3\iks01a3_env_sensors_ex.c ****       {
 1339              		.loc 1 942 7 is_stmt 1 view .LVU319
 942:D:/fchai/work/i-cube/I-CUBE-HUAWEI/Drivers/BSP/IKS01A3\iks01a3_env_sensors_ex.c ****       {
 1340              		.loc 1 942 49 is_stmt 0 view .LVU320
 1341 0012 0B4B     		ldr	r3, .L223
 942:D:/fchai/work/i-cube/I-CUBE-HUAWEI/Drivers/BSP/IKS01A3\iks01a3_env_sensors_ex.c ****       {
 1342              		.loc 1 942 11 view .LVU321
 1343 0014 5868     		ldr	r0, [r3, #4]
 1344              	.LVL133:
 942:D:/fchai/work/i-cube/I-CUBE-HUAWEI/Drivers/BSP/IKS01A3\iks01a3_env_sensors_ex.c ****       {
 1345              		.loc 1 942 11 view .LVU322
 1346 0016 FFF7FEFF 		bl	LPS22HH_Get_One_Shot_Status
 1347              	.LVL134:
 942:D:/fchai/work/i-cube/I-CUBE-HUAWEI/Drivers/BSP/IKS01A3\iks01a3_env_sensors_ex.c ****       {
 1348              		.loc 1 942 10 view .LVU323
 1349 001a 38B9     		cbnz	r0, .L216
 1350              	.L215:
 935:D:/fchai/work/i-cube/I-CUBE-HUAWEI/Drivers/BSP/IKS01A3\iks01a3_env_sensors_ex.c ****       }
 1351              		.loc 1 935 9 is_stmt 1 view .LVU324
 1352              	.LVL135:
 935:D:/fchai/work/i-cube/I-CUBE-HUAWEI/Drivers/BSP/IKS01A3\iks01a3_env_sensors_ex.c ****       }
 1353              		.loc 1 935 13 is_stmt 0 view .LVU325
 1354 001c 0020     		movs	r0, #0
 1355              		.loc 1 985 1 view .LVU326
 1356 001e 08BD     		pop	{r3, pc}
 1357              	.LVL136:
 1358              	.L222:
 929:D:/fchai/work/i-cube/I-CUBE-HUAWEI/Drivers/BSP/IKS01A3\iks01a3_env_sensors_ex.c ****       {
 1359              		.loc 1 929 7 is_stmt 1 view .LVU327
 929:D:/fchai/work/i-cube/I-CUBE-HUAWEI/Drivers/BSP/IKS01A3\iks01a3_env_sensors_ex.c ****       {
 1360              		.loc 1 929 48 is_stmt 0 view .LVU328
 1361 0020 074B     		ldr	r3, .L223
 929:D:/fchai/work/i-cube/I-CUBE-HUAWEI/Drivers/BSP/IKS01A3\iks01a3_env_sensors_ex.c ****       {
 1362              		.loc 1 929 11 view .LVU329
 1363 0022 1868     		ldr	r0, [r3]
 1364              	.LVL137:
 929:D:/fchai/work/i-cube/I-CUBE-HUAWEI/Drivers/BSP/IKS01A3\iks01a3_env_sensors_ex.c ****       {
ARM GAS  T:\msys\tmp\cc0WNqff.s 			page 44


 1365              		.loc 1 929 11 view .LVU330
 1366 0024 FFF7FEFF 		bl	HTS221_Get_One_Shot_Status
 1367              	.LVL138:
 929:D:/fchai/work/i-cube/I-CUBE-HUAWEI/Drivers/BSP/IKS01A3\iks01a3_env_sensors_ex.c ****       {
 1368              		.loc 1 929 10 view .LVU331
 1369 0028 0028     		cmp	r0, #0
 1370 002a F7D0     		beq	.L215
 1371              	.L216:
 931:D:/fchai/work/i-cube/I-CUBE-HUAWEI/Drivers/BSP/IKS01A3\iks01a3_env_sensors_ex.c ****       }
 1372              		.loc 1 931 13 view .LVU332
 1373 002c 6FF00400 		mvn	r0, #4
 1374              		.loc 1 985 1 view .LVU333
 1375 0030 08BD     		pop	{r3, pc}
 1376              	.LVL139:
 1377              	.L213:
 955:D:/fchai/work/i-cube/I-CUBE-HUAWEI/Drivers/BSP/IKS01A3\iks01a3_env_sensors_ex.c ****       {
 1378              		.loc 1 955 7 is_stmt 1 view .LVU334
 955:D:/fchai/work/i-cube/I-CUBE-HUAWEI/Drivers/BSP/IKS01A3\iks01a3_env_sensors_ex.c ****       {
 1379              		.loc 1 955 49 is_stmt 0 view .LVU335
 1380 0032 034B     		ldr	r3, .L223
 955:D:/fchai/work/i-cube/I-CUBE-HUAWEI/Drivers/BSP/IKS01A3\iks01a3_env_sensors_ex.c ****       {
 1381              		.loc 1 955 11 view .LVU336
 1382 0034 9868     		ldr	r0, [r3, #8]
 1383              	.LVL140:
 955:D:/fchai/work/i-cube/I-CUBE-HUAWEI/Drivers/BSP/IKS01A3\iks01a3_env_sensors_ex.c ****       {
 1384              		.loc 1 955 11 view .LVU337
 1385 0036 FFF7FEFF 		bl	STTS751_Get_One_Shot_Status
 1386              	.LVL141:
 955:D:/fchai/work/i-cube/I-CUBE-HUAWEI/Drivers/BSP/IKS01A3\iks01a3_env_sensors_ex.c ****       {
 1387              		.loc 1 955 10 view .LVU338
 1388 003a 0028     		cmp	r0, #0
 1389 003c EED0     		beq	.L215
 1390 003e F5E7     		b	.L216
 1391              	.L224:
 1392              		.align	2
 1393              	.L223:
 1394 0040 00000000 		.word	EnvCompObj
 1395              		.cfi_endproc
 1396              	.LFE141:
 1398              		.text
 1399              	.Letext0:
 1400              		.file 2 "t:\\msys\\3rd\\gcc-arm-none-eabi-9-2020-q2-update-win32\\arm-none-eabi\\include\\machine\
 1401              		.file 3 "t:\\msys\\3rd\\gcc-arm-none-eabi-9-2020-q2-update-win32\\arm-none-eabi\\include\\sys\\_st
 1402              		.file 4 "D:/fchai/work/i-cube/I-CUBE-HUAWEI/Middlewares/Third_Party/Huawei/iot_link/os/liteos/arch
 1403              		.file 5 "D:/fchai/work/i-cube/I-CUBE-HUAWEI/Drivers/CMSIS/Device/ST/STM32L4xx/Include/system_stm32
 1404              		.file 6 "D:/fchai/work/i-cube/I-CUBE-HUAWEI/Drivers/CMSIS/Device/ST/STM32L4xx/Include/stm32l496xx.
 1405              		.file 7 "D:/fchai/work/i-cube/I-CUBE-HUAWEI/Drivers/STM32L4xx_HAL_Driver/Inc/stm32l4xx_hal_def.h"
 1406              		.file 8 "D:/fchai/work/i-cube/I-CUBE-HUAWEI/Drivers/STM32L4xx_HAL_Driver/Inc/stm32l4xx_hal_dma.h"
 1407              		.file 9 "D:/fchai/work/i-cube/I-CUBE-HUAWEI/Drivers/STM32L4xx_HAL_Driver/Inc/stm32l4xx_hal_flash.h
 1408              		.file 10 "D:/fchai/work/i-cube/I-CUBE-HUAWEI/Drivers/STM32L4xx_HAL_Driver/Inc/stm32l4xx_hal_i2c.h"
 1409              		.file 11 "D:/fchai/work/i-cube/I-CUBE-HUAWEI/Drivers/STM32L4xx_HAL_Driver/Inc/stm32l4xx_hal.h"
 1410              		.file 12 "D:/fchai/work/i-cube/I-CUBE-HUAWEI/Projects/NUCLEO-L496ZG/Applications/Cloud/mqtt-ota/In
 1411              		.file 13 "t:\\msys\\3rd\\gcc-arm-none-eabi-9-2020-q2-update-win32\\lib\\gcc\\arm-none-eabi\\9.3.1\
 1412              		.file 14 "t:\\msys\\3rd\\gcc-arm-none-eabi-9-2020-q2-update-win32\\arm-none-eabi\\include\\sys\\_t
 1413              		.file 15 "t:\\msys\\3rd\\gcc-arm-none-eabi-9-2020-q2-update-win32\\arm-none-eabi\\include\\sys\\re
 1414              		.file 16 "t:\\msys\\3rd\\gcc-arm-none-eabi-9-2020-q2-update-win32\\arm-none-eabi\\include\\sys\\lo
 1415              		.file 17 "t:\\msys\\3rd\\gcc-arm-none-eabi-9-2020-q2-update-win32\\arm-none-eabi\\include\\math.h"
ARM GAS  T:\msys\tmp\cc0WNqff.s 			page 45


 1416              		.file 18 "D:/fchai/work/i-cube/I-CUBE-HUAWEI/Drivers/BSP/Components/hts221/hts221_reg.h"
 1417              		.file 19 "D:/fchai/work/i-cube/I-CUBE-HUAWEI/Drivers/BSP/Components/hts221/hts221.h"
 1418              		.file 20 "D:/fchai/work/i-cube/I-CUBE-HUAWEI/Drivers/BSP/Components/lps22hh/lps22hh_reg.h"
 1419              		.file 21 "D:/fchai/work/i-cube/I-CUBE-HUAWEI/Drivers/BSP/Components/lps22hh/lps22hh.h"
 1420              		.file 22 "D:/fchai/work/i-cube/I-CUBE-HUAWEI/Drivers/BSP/Components/stts751/stts751.h"
ARM GAS  T:\msys\tmp\cc0WNqff.s 			page 46

