ARM GAS  T:\msys\tmp\ccgRcQCS.s 			page 1


   1              		.cpu cortex-m4
   2              		.eabi_attribute 27, 1
   3              		.eabi_attribute 28, 1
   4              		.eabi_attribute 20, 1
   5              		.eabi_attribute 21, 1
   6              		.eabi_attribute 23, 3
   7              		.eabi_attribute 24, 1
   8              		.eabi_attribute 25, 1
   9              		.eabi_attribute 26, 1
  10              		.eabi_attribute 30, 2
  11              		.eabi_attribute 34, 1
  12              		.eabi_attribute 18, 4
  13              		.file	"iks01a3_motion_sensors.c"
  14              		.text
  15              	.Ltext0:
  16              		.cfi_sections	.debug_frame
  17              		.section	.text.IKS01A3_MOTION_SENSOR_Init,"ax",%progbits
  18              		.align	1
  19              		.p2align 2,,3
  20              		.global	IKS01A3_MOTION_SENSOR_Init
  21              		.arch armv7e-m
  22              		.syntax unified
  23              		.thumb
  24              		.thumb_func
  25              		.fpu fpv4-sp-d16
  27              	IKS01A3_MOTION_SENSOR_Init:
  28              	.LVL0:
  29              	.LFB123:
  30              		.file 1 "D:/fchai/work/i-cube/I-CUBE-HUAWEI/Drivers/BSP/IKS01A3/iks01a3_motion_sensors.c"
   1:D:/fchai/work/i-cube/I-CUBE-HUAWEI/Drivers/BSP/IKS01A3\iks01a3_motion_sensors.c **** /**
   2:D:/fchai/work/i-cube/I-CUBE-HUAWEI/Drivers/BSP/IKS01A3\iks01a3_motion_sensors.c ****  ******************************************************************************
   3:D:/fchai/work/i-cube/I-CUBE-HUAWEI/Drivers/BSP/IKS01A3\iks01a3_motion_sensors.c ****  * @file    iks01a3_motion_sensors.c
   4:D:/fchai/work/i-cube/I-CUBE-HUAWEI/Drivers/BSP/IKS01A3\iks01a3_motion_sensors.c ****  * @author  MEMS Software Solutions Team
   5:D:/fchai/work/i-cube/I-CUBE-HUAWEI/Drivers/BSP/IKS01A3\iks01a3_motion_sensors.c ****  * @brief   This file provides a set of functions needed to manage the motion sensors
   6:D:/fchai/work/i-cube/I-CUBE-HUAWEI/Drivers/BSP/IKS01A3\iks01a3_motion_sensors.c ****  ******************************************************************************
   7:D:/fchai/work/i-cube/I-CUBE-HUAWEI/Drivers/BSP/IKS01A3\iks01a3_motion_sensors.c ****  * @attention
   8:D:/fchai/work/i-cube/I-CUBE-HUAWEI/Drivers/BSP/IKS01A3\iks01a3_motion_sensors.c ****  *
   9:D:/fchai/work/i-cube/I-CUBE-HUAWEI/Drivers/BSP/IKS01A3\iks01a3_motion_sensors.c ****  * <h2><center>&copy; Copyright (c) 2020 STMicroelectronics.
  10:D:/fchai/work/i-cube/I-CUBE-HUAWEI/Drivers/BSP/IKS01A3\iks01a3_motion_sensors.c ****  * All rights reserved.</center></h2>
  11:D:/fchai/work/i-cube/I-CUBE-HUAWEI/Drivers/BSP/IKS01A3\iks01a3_motion_sensors.c ****  *
  12:D:/fchai/work/i-cube/I-CUBE-HUAWEI/Drivers/BSP/IKS01A3\iks01a3_motion_sensors.c ****  * This software component is licensed by ST under BSD 3-Clause license,
  13:D:/fchai/work/i-cube/I-CUBE-HUAWEI/Drivers/BSP/IKS01A3\iks01a3_motion_sensors.c ****  * the "License"; You may not use this file except in compliance with the
  14:D:/fchai/work/i-cube/I-CUBE-HUAWEI/Drivers/BSP/IKS01A3\iks01a3_motion_sensors.c ****  * License. You may obtain a copy of the License at:
  15:D:/fchai/work/i-cube/I-CUBE-HUAWEI/Drivers/BSP/IKS01A3\iks01a3_motion_sensors.c ****  *                        opensource.org/licenses/BSD-3-Clause
  16:D:/fchai/work/i-cube/I-CUBE-HUAWEI/Drivers/BSP/IKS01A3\iks01a3_motion_sensors.c ****  *
  17:D:/fchai/work/i-cube/I-CUBE-HUAWEI/Drivers/BSP/IKS01A3\iks01a3_motion_sensors.c ****  ******************************************************************************
  18:D:/fchai/work/i-cube/I-CUBE-HUAWEI/Drivers/BSP/IKS01A3\iks01a3_motion_sensors.c ****  */
  19:D:/fchai/work/i-cube/I-CUBE-HUAWEI/Drivers/BSP/IKS01A3\iks01a3_motion_sensors.c **** 
  20:D:/fchai/work/i-cube/I-CUBE-HUAWEI/Drivers/BSP/IKS01A3\iks01a3_motion_sensors.c **** /* Includes ------------------------------------------------------------------*/
  21:D:/fchai/work/i-cube/I-CUBE-HUAWEI/Drivers/BSP/IKS01A3\iks01a3_motion_sensors.c **** #include "iks01a3_motion_sensors.h"
  22:D:/fchai/work/i-cube/I-CUBE-HUAWEI/Drivers/BSP/IKS01A3\iks01a3_motion_sensors.c **** 
  23:D:/fchai/work/i-cube/I-CUBE-HUAWEI/Drivers/BSP/IKS01A3\iks01a3_motion_sensors.c **** /** @addtogroup BSP BSP
  24:D:/fchai/work/i-cube/I-CUBE-HUAWEI/Drivers/BSP/IKS01A3\iks01a3_motion_sensors.c ****  * @{
  25:D:/fchai/work/i-cube/I-CUBE-HUAWEI/Drivers/BSP/IKS01A3\iks01a3_motion_sensors.c ****  */
  26:D:/fchai/work/i-cube/I-CUBE-HUAWEI/Drivers/BSP/IKS01A3\iks01a3_motion_sensors.c **** 
  27:D:/fchai/work/i-cube/I-CUBE-HUAWEI/Drivers/BSP/IKS01A3\iks01a3_motion_sensors.c **** /** @addtogroup IKS01A3 IKS01A3
  28:D:/fchai/work/i-cube/I-CUBE-HUAWEI/Drivers/BSP/IKS01A3\iks01a3_motion_sensors.c ****  * @{
ARM GAS  T:\msys\tmp\ccgRcQCS.s 			page 2


  29:D:/fchai/work/i-cube/I-CUBE-HUAWEI/Drivers/BSP/IKS01A3\iks01a3_motion_sensors.c ****  */
  30:D:/fchai/work/i-cube/I-CUBE-HUAWEI/Drivers/BSP/IKS01A3\iks01a3_motion_sensors.c **** 
  31:D:/fchai/work/i-cube/I-CUBE-HUAWEI/Drivers/BSP/IKS01A3\iks01a3_motion_sensors.c **** /** @defgroup IKS01A3_MOTION_SENSOR IKS01A3 MOTION SENSOR
  32:D:/fchai/work/i-cube/I-CUBE-HUAWEI/Drivers/BSP/IKS01A3\iks01a3_motion_sensors.c ****  * @{
  33:D:/fchai/work/i-cube/I-CUBE-HUAWEI/Drivers/BSP/IKS01A3\iks01a3_motion_sensors.c ****  */
  34:D:/fchai/work/i-cube/I-CUBE-HUAWEI/Drivers/BSP/IKS01A3\iks01a3_motion_sensors.c **** 
  35:D:/fchai/work/i-cube/I-CUBE-HUAWEI/Drivers/BSP/IKS01A3\iks01a3_motion_sensors.c **** /** @defgroup IKS01A3_MOTION_SENSOR_Exported_Variables IKS01A3 MOTION SENSOR Exported Variables
  36:D:/fchai/work/i-cube/I-CUBE-HUAWEI/Drivers/BSP/IKS01A3\iks01a3_motion_sensors.c ****  * @{
  37:D:/fchai/work/i-cube/I-CUBE-HUAWEI/Drivers/BSP/IKS01A3\iks01a3_motion_sensors.c ****  */
  38:D:/fchai/work/i-cube/I-CUBE-HUAWEI/Drivers/BSP/IKS01A3\iks01a3_motion_sensors.c **** extern void
  39:D:/fchai/work/i-cube/I-CUBE-HUAWEI/Drivers/BSP/IKS01A3\iks01a3_motion_sensors.c **** *MotionCompObj[IKS01A3_MOTION_INSTANCES_NBR]; /* This "redundant" line is here to fulfil MISRA C-20
  40:D:/fchai/work/i-cube/I-CUBE-HUAWEI/Drivers/BSP/IKS01A3\iks01a3_motion_sensors.c **** void *MotionCompObj[IKS01A3_MOTION_INSTANCES_NBR];
  41:D:/fchai/work/i-cube/I-CUBE-HUAWEI/Drivers/BSP/IKS01A3\iks01a3_motion_sensors.c **** 
  42:D:/fchai/work/i-cube/I-CUBE-HUAWEI/Drivers/BSP/IKS01A3\iks01a3_motion_sensors.c **** /**
  43:D:/fchai/work/i-cube/I-CUBE-HUAWEI/Drivers/BSP/IKS01A3\iks01a3_motion_sensors.c ****  * @}
  44:D:/fchai/work/i-cube/I-CUBE-HUAWEI/Drivers/BSP/IKS01A3\iks01a3_motion_sensors.c ****  */
  45:D:/fchai/work/i-cube/I-CUBE-HUAWEI/Drivers/BSP/IKS01A3\iks01a3_motion_sensors.c **** 
  46:D:/fchai/work/i-cube/I-CUBE-HUAWEI/Drivers/BSP/IKS01A3\iks01a3_motion_sensors.c **** /** @defgroup IKS01A3_MOTION_SENSOR_Private_Variables IKS01A3 MOTION SENSOR Private Variables
  47:D:/fchai/work/i-cube/I-CUBE-HUAWEI/Drivers/BSP/IKS01A3\iks01a3_motion_sensors.c ****  * @{
  48:D:/fchai/work/i-cube/I-CUBE-HUAWEI/Drivers/BSP/IKS01A3\iks01a3_motion_sensors.c ****  */
  49:D:/fchai/work/i-cube/I-CUBE-HUAWEI/Drivers/BSP/IKS01A3\iks01a3_motion_sensors.c **** 
  50:D:/fchai/work/i-cube/I-CUBE-HUAWEI/Drivers/BSP/IKS01A3\iks01a3_motion_sensors.c **** /* We define a jump table in order to get the correct index from the desired function. */
  51:D:/fchai/work/i-cube/I-CUBE-HUAWEI/Drivers/BSP/IKS01A3\iks01a3_motion_sensors.c **** /* This table should have a size equal to the maximum value of a function plus 1.      */
  52:D:/fchai/work/i-cube/I-CUBE-HUAWEI/Drivers/BSP/IKS01A3\iks01a3_motion_sensors.c **** static uint32_t FunctionIndex[5] = {0, 0, 1, 1, 2};
  53:D:/fchai/work/i-cube/I-CUBE-HUAWEI/Drivers/BSP/IKS01A3\iks01a3_motion_sensors.c **** static MOTION_SENSOR_FuncDrv_t *MotionFuncDrv[IKS01A3_MOTION_INSTANCES_NBR][IKS01A3_MOTION_FUNCTION
  54:D:/fchai/work/i-cube/I-CUBE-HUAWEI/Drivers/BSP/IKS01A3\iks01a3_motion_sensors.c **** static MOTION_SENSOR_CommonDrv_t *MotionDrv[IKS01A3_MOTION_INSTANCES_NBR];
  55:D:/fchai/work/i-cube/I-CUBE-HUAWEI/Drivers/BSP/IKS01A3\iks01a3_motion_sensors.c **** static IKS01A3_MOTION_SENSOR_Ctx_t MotionCtx[IKS01A3_MOTION_INSTANCES_NBR];
  56:D:/fchai/work/i-cube/I-CUBE-HUAWEI/Drivers/BSP/IKS01A3\iks01a3_motion_sensors.c **** 
  57:D:/fchai/work/i-cube/I-CUBE-HUAWEI/Drivers/BSP/IKS01A3\iks01a3_motion_sensors.c **** /**
  58:D:/fchai/work/i-cube/I-CUBE-HUAWEI/Drivers/BSP/IKS01A3\iks01a3_motion_sensors.c ****  * @}
  59:D:/fchai/work/i-cube/I-CUBE-HUAWEI/Drivers/BSP/IKS01A3\iks01a3_motion_sensors.c ****  */
  60:D:/fchai/work/i-cube/I-CUBE-HUAWEI/Drivers/BSP/IKS01A3\iks01a3_motion_sensors.c **** 
  61:D:/fchai/work/i-cube/I-CUBE-HUAWEI/Drivers/BSP/IKS01A3\iks01a3_motion_sensors.c **** /** @defgroup IKS01A3_MOTION_SENSOR_Private_Function_Prototypes IKS01A3 MOTION SENSOR Private Funct
  62:D:/fchai/work/i-cube/I-CUBE-HUAWEI/Drivers/BSP/IKS01A3\iks01a3_motion_sensors.c ****  * @{
  63:D:/fchai/work/i-cube/I-CUBE-HUAWEI/Drivers/BSP/IKS01A3\iks01a3_motion_sensors.c ****  */
  64:D:/fchai/work/i-cube/I-CUBE-HUAWEI/Drivers/BSP/IKS01A3\iks01a3_motion_sensors.c **** 
  65:D:/fchai/work/i-cube/I-CUBE-HUAWEI/Drivers/BSP/IKS01A3\iks01a3_motion_sensors.c **** #if (USE_IKS01A3_MOTION_SENSOR_LSM6DSO_0 == 1)
  66:D:/fchai/work/i-cube/I-CUBE-HUAWEI/Drivers/BSP/IKS01A3\iks01a3_motion_sensors.c **** static int32_t LSM6DSO_0_Probe(uint32_t Functions);
  67:D:/fchai/work/i-cube/I-CUBE-HUAWEI/Drivers/BSP/IKS01A3\iks01a3_motion_sensors.c **** #endif
  68:D:/fchai/work/i-cube/I-CUBE-HUAWEI/Drivers/BSP/IKS01A3\iks01a3_motion_sensors.c **** 
  69:D:/fchai/work/i-cube/I-CUBE-HUAWEI/Drivers/BSP/IKS01A3\iks01a3_motion_sensors.c **** #if (USE_IKS01A3_MOTION_SENSOR_LIS2DW12_0 == 1)
  70:D:/fchai/work/i-cube/I-CUBE-HUAWEI/Drivers/BSP/IKS01A3\iks01a3_motion_sensors.c **** static int32_t LIS2DW12_0_Probe(uint32_t Functions);
  71:D:/fchai/work/i-cube/I-CUBE-HUAWEI/Drivers/BSP/IKS01A3\iks01a3_motion_sensors.c **** #endif
  72:D:/fchai/work/i-cube/I-CUBE-HUAWEI/Drivers/BSP/IKS01A3\iks01a3_motion_sensors.c **** 
  73:D:/fchai/work/i-cube/I-CUBE-HUAWEI/Drivers/BSP/IKS01A3\iks01a3_motion_sensors.c **** #if (USE_IKS01A3_MOTION_SENSOR_LIS2MDL_0 == 1)
  74:D:/fchai/work/i-cube/I-CUBE-HUAWEI/Drivers/BSP/IKS01A3\iks01a3_motion_sensors.c **** static int32_t LIS2MDL_0_Probe(uint32_t Functions);
  75:D:/fchai/work/i-cube/I-CUBE-HUAWEI/Drivers/BSP/IKS01A3\iks01a3_motion_sensors.c **** #endif
  76:D:/fchai/work/i-cube/I-CUBE-HUAWEI/Drivers/BSP/IKS01A3\iks01a3_motion_sensors.c **** 
  77:D:/fchai/work/i-cube/I-CUBE-HUAWEI/Drivers/BSP/IKS01A3\iks01a3_motion_sensors.c **** #if (USE_IKS01A3_MOTION_SENSOR_ASM330LHH_0 == 1)
  78:D:/fchai/work/i-cube/I-CUBE-HUAWEI/Drivers/BSP/IKS01A3\iks01a3_motion_sensors.c **** static int32_t ASM330LHH_0_Probe(uint32_t Functions);
  79:D:/fchai/work/i-cube/I-CUBE-HUAWEI/Drivers/BSP/IKS01A3\iks01a3_motion_sensors.c **** #endif
  80:D:/fchai/work/i-cube/I-CUBE-HUAWEI/Drivers/BSP/IKS01A3\iks01a3_motion_sensors.c **** 
  81:D:/fchai/work/i-cube/I-CUBE-HUAWEI/Drivers/BSP/IKS01A3\iks01a3_motion_sensors.c **** #if (USE_IKS01A3_MOTION_SENSOR_IIS2DLPC_0 == 1)
  82:D:/fchai/work/i-cube/I-CUBE-HUAWEI/Drivers/BSP/IKS01A3\iks01a3_motion_sensors.c **** static int32_t IIS2DLPC_0_Probe(uint32_t Functions);
  83:D:/fchai/work/i-cube/I-CUBE-HUAWEI/Drivers/BSP/IKS01A3\iks01a3_motion_sensors.c **** #endif
  84:D:/fchai/work/i-cube/I-CUBE-HUAWEI/Drivers/BSP/IKS01A3\iks01a3_motion_sensors.c **** 
  85:D:/fchai/work/i-cube/I-CUBE-HUAWEI/Drivers/BSP/IKS01A3\iks01a3_motion_sensors.c **** #if (USE_IKS01A3_MOTION_SENSOR_IIS2MDC_0 == 1)
ARM GAS  T:\msys\tmp\ccgRcQCS.s 			page 3


  86:D:/fchai/work/i-cube/I-CUBE-HUAWEI/Drivers/BSP/IKS01A3\iks01a3_motion_sensors.c **** static int32_t IIS2MDC_0_Probe(uint32_t Functions);
  87:D:/fchai/work/i-cube/I-CUBE-HUAWEI/Drivers/BSP/IKS01A3\iks01a3_motion_sensors.c **** #endif
  88:D:/fchai/work/i-cube/I-CUBE-HUAWEI/Drivers/BSP/IKS01A3\iks01a3_motion_sensors.c **** 
  89:D:/fchai/work/i-cube/I-CUBE-HUAWEI/Drivers/BSP/IKS01A3\iks01a3_motion_sensors.c **** #if (USE_IKS01A3_MOTION_SENSOR_ISM303DAC_ACC_0 == 1)
  90:D:/fchai/work/i-cube/I-CUBE-HUAWEI/Drivers/BSP/IKS01A3\iks01a3_motion_sensors.c **** static int32_t ISM303DAC_ACC_0_Probe(uint32_t Functions);
  91:D:/fchai/work/i-cube/I-CUBE-HUAWEI/Drivers/BSP/IKS01A3\iks01a3_motion_sensors.c **** #endif
  92:D:/fchai/work/i-cube/I-CUBE-HUAWEI/Drivers/BSP/IKS01A3\iks01a3_motion_sensors.c **** 
  93:D:/fchai/work/i-cube/I-CUBE-HUAWEI/Drivers/BSP/IKS01A3\iks01a3_motion_sensors.c **** #if (USE_IKS01A3_MOTION_SENSOR_ISM303DAC_MAG_0 == 1)
  94:D:/fchai/work/i-cube/I-CUBE-HUAWEI/Drivers/BSP/IKS01A3\iks01a3_motion_sensors.c **** static int32_t ISM303DAC_MAG_0_Probe(uint32_t Functions);
  95:D:/fchai/work/i-cube/I-CUBE-HUAWEI/Drivers/BSP/IKS01A3\iks01a3_motion_sensors.c **** #endif
  96:D:/fchai/work/i-cube/I-CUBE-HUAWEI/Drivers/BSP/IKS01A3\iks01a3_motion_sensors.c **** 
  97:D:/fchai/work/i-cube/I-CUBE-HUAWEI/Drivers/BSP/IKS01A3\iks01a3_motion_sensors.c **** #if (USE_IKS01A3_MOTION_SENSOR_ISM330DLC_0 == 1)
  98:D:/fchai/work/i-cube/I-CUBE-HUAWEI/Drivers/BSP/IKS01A3\iks01a3_motion_sensors.c **** static int32_t ISM330DLC_0_Probe(uint32_t Functions);
  99:D:/fchai/work/i-cube/I-CUBE-HUAWEI/Drivers/BSP/IKS01A3\iks01a3_motion_sensors.c **** #endif
 100:D:/fchai/work/i-cube/I-CUBE-HUAWEI/Drivers/BSP/IKS01A3\iks01a3_motion_sensors.c **** 
 101:D:/fchai/work/i-cube/I-CUBE-HUAWEI/Drivers/BSP/IKS01A3\iks01a3_motion_sensors.c **** #if (USE_IKS01A3_MOTION_SENSOR_LIS2DH12_0 == 1)
 102:D:/fchai/work/i-cube/I-CUBE-HUAWEI/Drivers/BSP/IKS01A3\iks01a3_motion_sensors.c **** static int32_t LIS2DH12_0_Probe(uint32_t Functions);
 103:D:/fchai/work/i-cube/I-CUBE-HUAWEI/Drivers/BSP/IKS01A3\iks01a3_motion_sensors.c **** #endif
 104:D:/fchai/work/i-cube/I-CUBE-HUAWEI/Drivers/BSP/IKS01A3\iks01a3_motion_sensors.c **** 
 105:D:/fchai/work/i-cube/I-CUBE-HUAWEI/Drivers/BSP/IKS01A3\iks01a3_motion_sensors.c **** #if (USE_IKS01A3_MOTION_SENSOR_LSM6DSOX_0 == 1)
 106:D:/fchai/work/i-cube/I-CUBE-HUAWEI/Drivers/BSP/IKS01A3\iks01a3_motion_sensors.c **** static int32_t LSM6DSOX_0_Probe(uint32_t Functions);
 107:D:/fchai/work/i-cube/I-CUBE-HUAWEI/Drivers/BSP/IKS01A3\iks01a3_motion_sensors.c **** #endif
 108:D:/fchai/work/i-cube/I-CUBE-HUAWEI/Drivers/BSP/IKS01A3\iks01a3_motion_sensors.c **** 
 109:D:/fchai/work/i-cube/I-CUBE-HUAWEI/Drivers/BSP/IKS01A3\iks01a3_motion_sensors.c **** #if (USE_IKS01A3_MOTION_SENSOR_AIS2DW12_0 == 1)
 110:D:/fchai/work/i-cube/I-CUBE-HUAWEI/Drivers/BSP/IKS01A3\iks01a3_motion_sensors.c **** static int32_t AIS2DW12_0_Probe(uint32_t Functions);
 111:D:/fchai/work/i-cube/I-CUBE-HUAWEI/Drivers/BSP/IKS01A3\iks01a3_motion_sensors.c **** #endif
 112:D:/fchai/work/i-cube/I-CUBE-HUAWEI/Drivers/BSP/IKS01A3\iks01a3_motion_sensors.c **** 
 113:D:/fchai/work/i-cube/I-CUBE-HUAWEI/Drivers/BSP/IKS01A3\iks01a3_motion_sensors.c **** #if (USE_IKS01A3_MOTION_SENSOR_LIS3MDL_0 == 1)
 114:D:/fchai/work/i-cube/I-CUBE-HUAWEI/Drivers/BSP/IKS01A3\iks01a3_motion_sensors.c **** static int32_t LIS3MDL_0_Probe(uint32_t Functions);
 115:D:/fchai/work/i-cube/I-CUBE-HUAWEI/Drivers/BSP/IKS01A3\iks01a3_motion_sensors.c **** #endif
 116:D:/fchai/work/i-cube/I-CUBE-HUAWEI/Drivers/BSP/IKS01A3\iks01a3_motion_sensors.c **** 
 117:D:/fchai/work/i-cube/I-CUBE-HUAWEI/Drivers/BSP/IKS01A3\iks01a3_motion_sensors.c **** #if (USE_IKS01A3_MOTION_SENSOR_LSM6DSR_0 == 1)
 118:D:/fchai/work/i-cube/I-CUBE-HUAWEI/Drivers/BSP/IKS01A3\iks01a3_motion_sensors.c **** static int32_t LSM6DSR_0_Probe(uint32_t Functions);
 119:D:/fchai/work/i-cube/I-CUBE-HUAWEI/Drivers/BSP/IKS01A3\iks01a3_motion_sensors.c **** #endif
 120:D:/fchai/work/i-cube/I-CUBE-HUAWEI/Drivers/BSP/IKS01A3\iks01a3_motion_sensors.c **** 
 121:D:/fchai/work/i-cube/I-CUBE-HUAWEI/Drivers/BSP/IKS01A3\iks01a3_motion_sensors.c **** #if (USE_IKS01A3_MOTION_SENSOR_A3G4250D_0 == 1)
 122:D:/fchai/work/i-cube/I-CUBE-HUAWEI/Drivers/BSP/IKS01A3\iks01a3_motion_sensors.c **** static int32_t A3G4250D_0_Probe(uint32_t Functions);
 123:D:/fchai/work/i-cube/I-CUBE-HUAWEI/Drivers/BSP/IKS01A3\iks01a3_motion_sensors.c **** #endif
 124:D:/fchai/work/i-cube/I-CUBE-HUAWEI/Drivers/BSP/IKS01A3\iks01a3_motion_sensors.c **** 
 125:D:/fchai/work/i-cube/I-CUBE-HUAWEI/Drivers/BSP/IKS01A3\iks01a3_motion_sensors.c **** #if (USE_IKS01A3_MOTION_SENSOR_AIS328DQ_0 == 1)
 126:D:/fchai/work/i-cube/I-CUBE-HUAWEI/Drivers/BSP/IKS01A3\iks01a3_motion_sensors.c **** static int32_t AIS328DQ_0_Probe(uint32_t Functions);
 127:D:/fchai/work/i-cube/I-CUBE-HUAWEI/Drivers/BSP/IKS01A3\iks01a3_motion_sensors.c **** #endif
 128:D:/fchai/work/i-cube/I-CUBE-HUAWEI/Drivers/BSP/IKS01A3\iks01a3_motion_sensors.c **** 
 129:D:/fchai/work/i-cube/I-CUBE-HUAWEI/Drivers/BSP/IKS01A3\iks01a3_motion_sensors.c **** #if (USE_IKS01A3_MOTION_SENSOR_AIS3624DQ_0 == 1)
 130:D:/fchai/work/i-cube/I-CUBE-HUAWEI/Drivers/BSP/IKS01A3\iks01a3_motion_sensors.c **** static int32_t AIS3624DQ_0_Probe(uint32_t Functions);
 131:D:/fchai/work/i-cube/I-CUBE-HUAWEI/Drivers/BSP/IKS01A3\iks01a3_motion_sensors.c **** #endif
 132:D:/fchai/work/i-cube/I-CUBE-HUAWEI/Drivers/BSP/IKS01A3\iks01a3_motion_sensors.c **** 
 133:D:/fchai/work/i-cube/I-CUBE-HUAWEI/Drivers/BSP/IKS01A3\iks01a3_motion_sensors.c **** #if (USE_IKS01A3_MOTION_SENSOR_H3LIS331DL_0 == 1)
 134:D:/fchai/work/i-cube/I-CUBE-HUAWEI/Drivers/BSP/IKS01A3\iks01a3_motion_sensors.c **** static int32_t H3LIS331DL_0_Probe(uint32_t Functions);
 135:D:/fchai/work/i-cube/I-CUBE-HUAWEI/Drivers/BSP/IKS01A3\iks01a3_motion_sensors.c **** #endif
 136:D:/fchai/work/i-cube/I-CUBE-HUAWEI/Drivers/BSP/IKS01A3\iks01a3_motion_sensors.c **** 
 137:D:/fchai/work/i-cube/I-CUBE-HUAWEI/Drivers/BSP/IKS01A3\iks01a3_motion_sensors.c **** #if (USE_IKS01A3_MOTION_SENSOR_LSM6DSRX_0 == 1)
 138:D:/fchai/work/i-cube/I-CUBE-HUAWEI/Drivers/BSP/IKS01A3\iks01a3_motion_sensors.c **** static int32_t LSM6DSRX_0_Probe(uint32_t Functions);
 139:D:/fchai/work/i-cube/I-CUBE-HUAWEI/Drivers/BSP/IKS01A3\iks01a3_motion_sensors.c **** #endif
 140:D:/fchai/work/i-cube/I-CUBE-HUAWEI/Drivers/BSP/IKS01A3\iks01a3_motion_sensors.c **** 
 141:D:/fchai/work/i-cube/I-CUBE-HUAWEI/Drivers/BSP/IKS01A3\iks01a3_motion_sensors.c **** #if (USE_IKS01A3_MOTION_SENSOR_ISM330DHCX_0 == 1)
 142:D:/fchai/work/i-cube/I-CUBE-HUAWEI/Drivers/BSP/IKS01A3\iks01a3_motion_sensors.c **** static int32_t ISM330DHCX_0_Probe(uint32_t Functions);
ARM GAS  T:\msys\tmp\ccgRcQCS.s 			page 4


 143:D:/fchai/work/i-cube/I-CUBE-HUAWEI/Drivers/BSP/IKS01A3\iks01a3_motion_sensors.c **** #endif
 144:D:/fchai/work/i-cube/I-CUBE-HUAWEI/Drivers/BSP/IKS01A3\iks01a3_motion_sensors.c **** 
 145:D:/fchai/work/i-cube/I-CUBE-HUAWEI/Drivers/BSP/IKS01A3\iks01a3_motion_sensors.c **** /**
 146:D:/fchai/work/i-cube/I-CUBE-HUAWEI/Drivers/BSP/IKS01A3\iks01a3_motion_sensors.c ****  * @}
 147:D:/fchai/work/i-cube/I-CUBE-HUAWEI/Drivers/BSP/IKS01A3\iks01a3_motion_sensors.c ****  */
 148:D:/fchai/work/i-cube/I-CUBE-HUAWEI/Drivers/BSP/IKS01A3\iks01a3_motion_sensors.c **** 
 149:D:/fchai/work/i-cube/I-CUBE-HUAWEI/Drivers/BSP/IKS01A3\iks01a3_motion_sensors.c **** /** @defgroup IKS01A3_MOTION_SENSOR_Exported_Functions IKS01A3 MOTION SENSOR Exported Functions
 150:D:/fchai/work/i-cube/I-CUBE-HUAWEI/Drivers/BSP/IKS01A3\iks01a3_motion_sensors.c ****  * @{
 151:D:/fchai/work/i-cube/I-CUBE-HUAWEI/Drivers/BSP/IKS01A3\iks01a3_motion_sensors.c ****  */
 152:D:/fchai/work/i-cube/I-CUBE-HUAWEI/Drivers/BSP/IKS01A3\iks01a3_motion_sensors.c **** 
 153:D:/fchai/work/i-cube/I-CUBE-HUAWEI/Drivers/BSP/IKS01A3\iks01a3_motion_sensors.c **** /**
 154:D:/fchai/work/i-cube/I-CUBE-HUAWEI/Drivers/BSP/IKS01A3\iks01a3_motion_sensors.c ****  * @brief  Initializes the motion sensors
 155:D:/fchai/work/i-cube/I-CUBE-HUAWEI/Drivers/BSP/IKS01A3\iks01a3_motion_sensors.c ****  * @param  Instance Motion sensor instance
 156:D:/fchai/work/i-cube/I-CUBE-HUAWEI/Drivers/BSP/IKS01A3\iks01a3_motion_sensors.c ****  * @param  Functions Motion sensor functions. Could be :
 157:D:/fchai/work/i-cube/I-CUBE-HUAWEI/Drivers/BSP/IKS01A3\iks01a3_motion_sensors.c ****  *         - MOTION_GYRO and/or MOTION_ACCELERO for instances 0, 3, 4
 158:D:/fchai/work/i-cube/I-CUBE-HUAWEI/Drivers/BSP/IKS01A3\iks01a3_motion_sensors.c ****  *         - MOTION_ACCELERO for instance 1
 159:D:/fchai/work/i-cube/I-CUBE-HUAWEI/Drivers/BSP/IKS01A3\iks01a3_motion_sensors.c ****  *         - MOTION_MAGNETO for instance 2
 160:D:/fchai/work/i-cube/I-CUBE-HUAWEI/Drivers/BSP/IKS01A3\iks01a3_motion_sensors.c ****  * @retval BSP status
 161:D:/fchai/work/i-cube/I-CUBE-HUAWEI/Drivers/BSP/IKS01A3\iks01a3_motion_sensors.c ****  */
 162:D:/fchai/work/i-cube/I-CUBE-HUAWEI/Drivers/BSP/IKS01A3\iks01a3_motion_sensors.c **** int32_t IKS01A3_MOTION_SENSOR_Init(uint32_t Instance, uint32_t Functions)
 163:D:/fchai/work/i-cube/I-CUBE-HUAWEI/Drivers/BSP/IKS01A3\iks01a3_motion_sensors.c **** {
  31              		.loc 1 163 1 view -0
  32              		.cfi_startproc
  33              		@ args = 0, pretend = 0, frame = 72
  34              		@ frame_needed = 0, uses_anonymous_args = 0
 164:D:/fchai/work/i-cube/I-CUBE-HUAWEI/Drivers/BSP/IKS01A3\iks01a3_motion_sensors.c ****   int32_t ret = BSP_ERROR_NONE;
  35              		.loc 1 164 3 view .LVU1
 165:D:/fchai/work/i-cube/I-CUBE-HUAWEI/Drivers/BSP/IKS01A3\iks01a3_motion_sensors.c ****   uint32_t function = MOTION_GYRO;
  36              		.loc 1 165 3 view .LVU2
 166:D:/fchai/work/i-cube/I-CUBE-HUAWEI/Drivers/BSP/IKS01A3\iks01a3_motion_sensors.c ****   uint32_t i;
  37              		.loc 1 166 3 view .LVU3
 167:D:/fchai/work/i-cube/I-CUBE-HUAWEI/Drivers/BSP/IKS01A3\iks01a3_motion_sensors.c ****   uint32_t component_functions = 0;
  38              		.loc 1 167 3 view .LVU4
 168:D:/fchai/work/i-cube/I-CUBE-HUAWEI/Drivers/BSP/IKS01A3\iks01a3_motion_sensors.c ****   IKS01A3_MOTION_SENSOR_Capabilities_t cap;
  39              		.loc 1 168 3 view .LVU5
 169:D:/fchai/work/i-cube/I-CUBE-HUAWEI/Drivers/BSP/IKS01A3\iks01a3_motion_sensors.c **** 
 170:D:/fchai/work/i-cube/I-CUBE-HUAWEI/Drivers/BSP/IKS01A3\iks01a3_motion_sensors.c ****   switch (Instance)
  40              		.loc 1 170 3 view .LVU6
 163:D:/fchai/work/i-cube/I-CUBE-HUAWEI/Drivers/BSP/IKS01A3\iks01a3_motion_sensors.c ****   int32_t ret = BSP_ERROR_NONE;
  41              		.loc 1 163 1 is_stmt 0 view .LVU7
  42 0000 2DE9F04F 		push	{r4, r5, r6, r7, r8, r9, r10, fp, lr}
  43              	.LCFI0:
  44              		.cfi_def_cfa_offset 36
  45              		.cfi_offset 4, -36
  46              		.cfi_offset 5, -32
  47              		.cfi_offset 6, -28
  48              		.cfi_offset 7, -24
  49              		.cfi_offset 8, -20
  50              		.cfi_offset 9, -16
  51              		.cfi_offset 10, -12
  52              		.cfi_offset 11, -8
  53              		.cfi_offset 14, -4
  54              		.loc 1 170 3 view .LVU8
  55 0004 0128     		cmp	r0, #1
 163:D:/fchai/work/i-cube/I-CUBE-HUAWEI/Drivers/BSP/IKS01A3\iks01a3_motion_sensors.c ****   int32_t ret = BSP_ERROR_NONE;
  56              		.loc 1 163 1 view .LVU9
  57 0006 93B0     		sub	sp, sp, #76
ARM GAS  T:\msys\tmp\ccgRcQCS.s 			page 5


  58              	.LCFI1:
  59              		.cfi_def_cfa_offset 112
 163:D:/fchai/work/i-cube/I-CUBE-HUAWEI/Drivers/BSP/IKS01A3\iks01a3_motion_sensors.c ****   int32_t ret = BSP_ERROR_NONE;
  60              		.loc 1 163 1 view .LVU10
  61 0008 0646     		mov	r6, r0
  62 000a 0F46     		mov	r7, r1
  63              		.loc 1 170 3 view .LVU11
  64 000c 09D0     		beq	.L2
  65 000e 0228     		cmp	r0, #2
  66 0010 00F0AA80 		beq	.L3
  67 0014 0028     		cmp	r0, #0
  68 0016 55D0     		beq	.L49
  69 0018 6FF00100 		mvn	r0, #1
  70              	.LVL1:
  71              	.L1:
 171:D:/fchai/work/i-cube/I-CUBE-HUAWEI/Drivers/BSP/IKS01A3\iks01a3_motion_sensors.c ****   {
 172:D:/fchai/work/i-cube/I-CUBE-HUAWEI/Drivers/BSP/IKS01A3\iks01a3_motion_sensors.c **** #if (USE_IKS01A3_MOTION_SENSOR_LSM6DSO_0 == 1)
 173:D:/fchai/work/i-cube/I-CUBE-HUAWEI/Drivers/BSP/IKS01A3\iks01a3_motion_sensors.c ****     case IKS01A3_LSM6DSO_0:
 174:D:/fchai/work/i-cube/I-CUBE-HUAWEI/Drivers/BSP/IKS01A3\iks01a3_motion_sensors.c ****       if (LSM6DSO_0_Probe(Functions) != BSP_ERROR_NONE)
 175:D:/fchai/work/i-cube/I-CUBE-HUAWEI/Drivers/BSP/IKS01A3\iks01a3_motion_sensors.c ****       {
 176:D:/fchai/work/i-cube/I-CUBE-HUAWEI/Drivers/BSP/IKS01A3\iks01a3_motion_sensors.c ****         return BSP_ERROR_NO_INIT;
 177:D:/fchai/work/i-cube/I-CUBE-HUAWEI/Drivers/BSP/IKS01A3\iks01a3_motion_sensors.c ****       }
 178:D:/fchai/work/i-cube/I-CUBE-HUAWEI/Drivers/BSP/IKS01A3\iks01a3_motion_sensors.c ****       if (MotionDrv[Instance]->GetCapabilities(MotionCompObj[Instance], (void *)&cap) != BSP_ERROR_
 179:D:/fchai/work/i-cube/I-CUBE-HUAWEI/Drivers/BSP/IKS01A3\iks01a3_motion_sensors.c ****       {
 180:D:/fchai/work/i-cube/I-CUBE-HUAWEI/Drivers/BSP/IKS01A3\iks01a3_motion_sensors.c ****         return BSP_ERROR_UNKNOWN_COMPONENT;
 181:D:/fchai/work/i-cube/I-CUBE-HUAWEI/Drivers/BSP/IKS01A3\iks01a3_motion_sensors.c ****       }
 182:D:/fchai/work/i-cube/I-CUBE-HUAWEI/Drivers/BSP/IKS01A3\iks01a3_motion_sensors.c ****       if (cap.Acc == 1U)
 183:D:/fchai/work/i-cube/I-CUBE-HUAWEI/Drivers/BSP/IKS01A3\iks01a3_motion_sensors.c ****       {
 184:D:/fchai/work/i-cube/I-CUBE-HUAWEI/Drivers/BSP/IKS01A3\iks01a3_motion_sensors.c ****         component_functions |= MOTION_ACCELERO;
 185:D:/fchai/work/i-cube/I-CUBE-HUAWEI/Drivers/BSP/IKS01A3\iks01a3_motion_sensors.c ****       }
 186:D:/fchai/work/i-cube/I-CUBE-HUAWEI/Drivers/BSP/IKS01A3\iks01a3_motion_sensors.c ****       if (cap.Gyro == 1U)
 187:D:/fchai/work/i-cube/I-CUBE-HUAWEI/Drivers/BSP/IKS01A3\iks01a3_motion_sensors.c ****       {
 188:D:/fchai/work/i-cube/I-CUBE-HUAWEI/Drivers/BSP/IKS01A3\iks01a3_motion_sensors.c ****         component_functions |= MOTION_GYRO;
 189:D:/fchai/work/i-cube/I-CUBE-HUAWEI/Drivers/BSP/IKS01A3\iks01a3_motion_sensors.c ****       }
 190:D:/fchai/work/i-cube/I-CUBE-HUAWEI/Drivers/BSP/IKS01A3\iks01a3_motion_sensors.c ****       if (cap.Magneto == 1U)
 191:D:/fchai/work/i-cube/I-CUBE-HUAWEI/Drivers/BSP/IKS01A3\iks01a3_motion_sensors.c ****       {
 192:D:/fchai/work/i-cube/I-CUBE-HUAWEI/Drivers/BSP/IKS01A3\iks01a3_motion_sensors.c ****         component_functions |= MOTION_MAGNETO;
 193:D:/fchai/work/i-cube/I-CUBE-HUAWEI/Drivers/BSP/IKS01A3\iks01a3_motion_sensors.c ****       }
 194:D:/fchai/work/i-cube/I-CUBE-HUAWEI/Drivers/BSP/IKS01A3\iks01a3_motion_sensors.c ****       break;
 195:D:/fchai/work/i-cube/I-CUBE-HUAWEI/Drivers/BSP/IKS01A3\iks01a3_motion_sensors.c **** #endif
 196:D:/fchai/work/i-cube/I-CUBE-HUAWEI/Drivers/BSP/IKS01A3\iks01a3_motion_sensors.c **** 
 197:D:/fchai/work/i-cube/I-CUBE-HUAWEI/Drivers/BSP/IKS01A3\iks01a3_motion_sensors.c **** #if (USE_IKS01A3_MOTION_SENSOR_LIS2DW12_0 == 1)
 198:D:/fchai/work/i-cube/I-CUBE-HUAWEI/Drivers/BSP/IKS01A3\iks01a3_motion_sensors.c ****     case IKS01A3_LIS2DW12_0:
 199:D:/fchai/work/i-cube/I-CUBE-HUAWEI/Drivers/BSP/IKS01A3\iks01a3_motion_sensors.c ****       if (LIS2DW12_0_Probe(Functions) != BSP_ERROR_NONE)
 200:D:/fchai/work/i-cube/I-CUBE-HUAWEI/Drivers/BSP/IKS01A3\iks01a3_motion_sensors.c ****       {
 201:D:/fchai/work/i-cube/I-CUBE-HUAWEI/Drivers/BSP/IKS01A3\iks01a3_motion_sensors.c ****         return BSP_ERROR_NO_INIT;
 202:D:/fchai/work/i-cube/I-CUBE-HUAWEI/Drivers/BSP/IKS01A3\iks01a3_motion_sensors.c ****       }
 203:D:/fchai/work/i-cube/I-CUBE-HUAWEI/Drivers/BSP/IKS01A3\iks01a3_motion_sensors.c ****       if (MotionDrv[Instance]->GetCapabilities(MotionCompObj[Instance], (void *)&cap) != BSP_ERROR_
 204:D:/fchai/work/i-cube/I-CUBE-HUAWEI/Drivers/BSP/IKS01A3\iks01a3_motion_sensors.c ****       {
 205:D:/fchai/work/i-cube/I-CUBE-HUAWEI/Drivers/BSP/IKS01A3\iks01a3_motion_sensors.c ****         return BSP_ERROR_UNKNOWN_COMPONENT;
 206:D:/fchai/work/i-cube/I-CUBE-HUAWEI/Drivers/BSP/IKS01A3\iks01a3_motion_sensors.c ****       }
 207:D:/fchai/work/i-cube/I-CUBE-HUAWEI/Drivers/BSP/IKS01A3\iks01a3_motion_sensors.c ****       if (cap.Acc == 1U)
 208:D:/fchai/work/i-cube/I-CUBE-HUAWEI/Drivers/BSP/IKS01A3\iks01a3_motion_sensors.c ****       {
 209:D:/fchai/work/i-cube/I-CUBE-HUAWEI/Drivers/BSP/IKS01A3\iks01a3_motion_sensors.c ****         component_functions |= MOTION_ACCELERO;
 210:D:/fchai/work/i-cube/I-CUBE-HUAWEI/Drivers/BSP/IKS01A3\iks01a3_motion_sensors.c ****       }
 211:D:/fchai/work/i-cube/I-CUBE-HUAWEI/Drivers/BSP/IKS01A3\iks01a3_motion_sensors.c ****       if (cap.Gyro == 1U)
 212:D:/fchai/work/i-cube/I-CUBE-HUAWEI/Drivers/BSP/IKS01A3\iks01a3_motion_sensors.c ****       {
ARM GAS  T:\msys\tmp\ccgRcQCS.s 			page 6


 213:D:/fchai/work/i-cube/I-CUBE-HUAWEI/Drivers/BSP/IKS01A3\iks01a3_motion_sensors.c ****         component_functions |= MOTION_GYRO;
 214:D:/fchai/work/i-cube/I-CUBE-HUAWEI/Drivers/BSP/IKS01A3\iks01a3_motion_sensors.c ****       }
 215:D:/fchai/work/i-cube/I-CUBE-HUAWEI/Drivers/BSP/IKS01A3\iks01a3_motion_sensors.c ****       if (cap.Magneto == 1U)
 216:D:/fchai/work/i-cube/I-CUBE-HUAWEI/Drivers/BSP/IKS01A3\iks01a3_motion_sensors.c ****       {
 217:D:/fchai/work/i-cube/I-CUBE-HUAWEI/Drivers/BSP/IKS01A3\iks01a3_motion_sensors.c ****         component_functions |= MOTION_MAGNETO;
 218:D:/fchai/work/i-cube/I-CUBE-HUAWEI/Drivers/BSP/IKS01A3\iks01a3_motion_sensors.c ****       }
 219:D:/fchai/work/i-cube/I-CUBE-HUAWEI/Drivers/BSP/IKS01A3\iks01a3_motion_sensors.c ****       break;
 220:D:/fchai/work/i-cube/I-CUBE-HUAWEI/Drivers/BSP/IKS01A3\iks01a3_motion_sensors.c **** #endif
 221:D:/fchai/work/i-cube/I-CUBE-HUAWEI/Drivers/BSP/IKS01A3\iks01a3_motion_sensors.c **** 
 222:D:/fchai/work/i-cube/I-CUBE-HUAWEI/Drivers/BSP/IKS01A3\iks01a3_motion_sensors.c **** #if (USE_IKS01A3_MOTION_SENSOR_LIS2MDL_0 == 1)
 223:D:/fchai/work/i-cube/I-CUBE-HUAWEI/Drivers/BSP/IKS01A3\iks01a3_motion_sensors.c ****     case IKS01A3_LIS2MDL_0:
 224:D:/fchai/work/i-cube/I-CUBE-HUAWEI/Drivers/BSP/IKS01A3\iks01a3_motion_sensors.c ****       if (LIS2MDL_0_Probe(Functions) != BSP_ERROR_NONE)
 225:D:/fchai/work/i-cube/I-CUBE-HUAWEI/Drivers/BSP/IKS01A3\iks01a3_motion_sensors.c ****       {
 226:D:/fchai/work/i-cube/I-CUBE-HUAWEI/Drivers/BSP/IKS01A3\iks01a3_motion_sensors.c ****         return BSP_ERROR_NO_INIT;
 227:D:/fchai/work/i-cube/I-CUBE-HUAWEI/Drivers/BSP/IKS01A3\iks01a3_motion_sensors.c ****       }
 228:D:/fchai/work/i-cube/I-CUBE-HUAWEI/Drivers/BSP/IKS01A3\iks01a3_motion_sensors.c ****       if (MotionDrv[Instance]->GetCapabilities(MotionCompObj[Instance], (void *)&cap) != BSP_ERROR_
 229:D:/fchai/work/i-cube/I-CUBE-HUAWEI/Drivers/BSP/IKS01A3\iks01a3_motion_sensors.c ****       {
 230:D:/fchai/work/i-cube/I-CUBE-HUAWEI/Drivers/BSP/IKS01A3\iks01a3_motion_sensors.c ****         return BSP_ERROR_UNKNOWN_COMPONENT;
 231:D:/fchai/work/i-cube/I-CUBE-HUAWEI/Drivers/BSP/IKS01A3\iks01a3_motion_sensors.c ****       }
 232:D:/fchai/work/i-cube/I-CUBE-HUAWEI/Drivers/BSP/IKS01A3\iks01a3_motion_sensors.c ****       if (cap.Acc == 1U)
 233:D:/fchai/work/i-cube/I-CUBE-HUAWEI/Drivers/BSP/IKS01A3\iks01a3_motion_sensors.c ****       {
 234:D:/fchai/work/i-cube/I-CUBE-HUAWEI/Drivers/BSP/IKS01A3\iks01a3_motion_sensors.c ****         component_functions |= MOTION_ACCELERO;
 235:D:/fchai/work/i-cube/I-CUBE-HUAWEI/Drivers/BSP/IKS01A3\iks01a3_motion_sensors.c ****       }
 236:D:/fchai/work/i-cube/I-CUBE-HUAWEI/Drivers/BSP/IKS01A3\iks01a3_motion_sensors.c ****       if (cap.Gyro == 1U)
 237:D:/fchai/work/i-cube/I-CUBE-HUAWEI/Drivers/BSP/IKS01A3\iks01a3_motion_sensors.c ****       {
 238:D:/fchai/work/i-cube/I-CUBE-HUAWEI/Drivers/BSP/IKS01A3\iks01a3_motion_sensors.c ****         component_functions |= MOTION_GYRO;
 239:D:/fchai/work/i-cube/I-CUBE-HUAWEI/Drivers/BSP/IKS01A3\iks01a3_motion_sensors.c ****       }
 240:D:/fchai/work/i-cube/I-CUBE-HUAWEI/Drivers/BSP/IKS01A3\iks01a3_motion_sensors.c ****       if (cap.Magneto == 1U)
 241:D:/fchai/work/i-cube/I-CUBE-HUAWEI/Drivers/BSP/IKS01A3\iks01a3_motion_sensors.c ****       {
 242:D:/fchai/work/i-cube/I-CUBE-HUAWEI/Drivers/BSP/IKS01A3\iks01a3_motion_sensors.c ****         component_functions |= MOTION_MAGNETO;
 243:D:/fchai/work/i-cube/I-CUBE-HUAWEI/Drivers/BSP/IKS01A3\iks01a3_motion_sensors.c ****       }
 244:D:/fchai/work/i-cube/I-CUBE-HUAWEI/Drivers/BSP/IKS01A3\iks01a3_motion_sensors.c ****       break;
 245:D:/fchai/work/i-cube/I-CUBE-HUAWEI/Drivers/BSP/IKS01A3\iks01a3_motion_sensors.c **** #endif
 246:D:/fchai/work/i-cube/I-CUBE-HUAWEI/Drivers/BSP/IKS01A3\iks01a3_motion_sensors.c **** 
 247:D:/fchai/work/i-cube/I-CUBE-HUAWEI/Drivers/BSP/IKS01A3\iks01a3_motion_sensors.c **** #if (USE_IKS01A3_MOTION_SENSOR_ASM330LHH_0 == 1)
 248:D:/fchai/work/i-cube/I-CUBE-HUAWEI/Drivers/BSP/IKS01A3\iks01a3_motion_sensors.c ****     case IKS01A3_ASM330LHH_0:
 249:D:/fchai/work/i-cube/I-CUBE-HUAWEI/Drivers/BSP/IKS01A3\iks01a3_motion_sensors.c ****       if (ASM330LHH_0_Probe(Functions) != BSP_ERROR_NONE)
 250:D:/fchai/work/i-cube/I-CUBE-HUAWEI/Drivers/BSP/IKS01A3\iks01a3_motion_sensors.c ****       {
 251:D:/fchai/work/i-cube/I-CUBE-HUAWEI/Drivers/BSP/IKS01A3\iks01a3_motion_sensors.c ****         return BSP_ERROR_NO_INIT;
 252:D:/fchai/work/i-cube/I-CUBE-HUAWEI/Drivers/BSP/IKS01A3\iks01a3_motion_sensors.c ****       }
 253:D:/fchai/work/i-cube/I-CUBE-HUAWEI/Drivers/BSP/IKS01A3\iks01a3_motion_sensors.c ****       if (MotionDrv[Instance]->GetCapabilities(MotionCompObj[Instance], (void *)&cap) != BSP_ERROR_
 254:D:/fchai/work/i-cube/I-CUBE-HUAWEI/Drivers/BSP/IKS01A3\iks01a3_motion_sensors.c ****       {
 255:D:/fchai/work/i-cube/I-CUBE-HUAWEI/Drivers/BSP/IKS01A3\iks01a3_motion_sensors.c ****         return BSP_ERROR_UNKNOWN_COMPONENT;
 256:D:/fchai/work/i-cube/I-CUBE-HUAWEI/Drivers/BSP/IKS01A3\iks01a3_motion_sensors.c ****       }
 257:D:/fchai/work/i-cube/I-CUBE-HUAWEI/Drivers/BSP/IKS01A3\iks01a3_motion_sensors.c ****       if (cap.Acc == 1U)
 258:D:/fchai/work/i-cube/I-CUBE-HUAWEI/Drivers/BSP/IKS01A3\iks01a3_motion_sensors.c ****       {
 259:D:/fchai/work/i-cube/I-CUBE-HUAWEI/Drivers/BSP/IKS01A3\iks01a3_motion_sensors.c ****         component_functions |= MOTION_ACCELERO;
 260:D:/fchai/work/i-cube/I-CUBE-HUAWEI/Drivers/BSP/IKS01A3\iks01a3_motion_sensors.c ****       }
 261:D:/fchai/work/i-cube/I-CUBE-HUAWEI/Drivers/BSP/IKS01A3\iks01a3_motion_sensors.c ****       if (cap.Gyro == 1U)
 262:D:/fchai/work/i-cube/I-CUBE-HUAWEI/Drivers/BSP/IKS01A3\iks01a3_motion_sensors.c ****       {
 263:D:/fchai/work/i-cube/I-CUBE-HUAWEI/Drivers/BSP/IKS01A3\iks01a3_motion_sensors.c ****         component_functions |= MOTION_GYRO;
 264:D:/fchai/work/i-cube/I-CUBE-HUAWEI/Drivers/BSP/IKS01A3\iks01a3_motion_sensors.c ****       }
 265:D:/fchai/work/i-cube/I-CUBE-HUAWEI/Drivers/BSP/IKS01A3\iks01a3_motion_sensors.c ****       if (cap.Magneto == 1U)
 266:D:/fchai/work/i-cube/I-CUBE-HUAWEI/Drivers/BSP/IKS01A3\iks01a3_motion_sensors.c ****       {
 267:D:/fchai/work/i-cube/I-CUBE-HUAWEI/Drivers/BSP/IKS01A3\iks01a3_motion_sensors.c ****         component_functions |= MOTION_MAGNETO;
 268:D:/fchai/work/i-cube/I-CUBE-HUAWEI/Drivers/BSP/IKS01A3\iks01a3_motion_sensors.c ****       }
 269:D:/fchai/work/i-cube/I-CUBE-HUAWEI/Drivers/BSP/IKS01A3\iks01a3_motion_sensors.c ****       break;
ARM GAS  T:\msys\tmp\ccgRcQCS.s 			page 7


 270:D:/fchai/work/i-cube/I-CUBE-HUAWEI/Drivers/BSP/IKS01A3\iks01a3_motion_sensors.c **** #endif
 271:D:/fchai/work/i-cube/I-CUBE-HUAWEI/Drivers/BSP/IKS01A3\iks01a3_motion_sensors.c **** 
 272:D:/fchai/work/i-cube/I-CUBE-HUAWEI/Drivers/BSP/IKS01A3\iks01a3_motion_sensors.c **** #if (USE_IKS01A3_MOTION_SENSOR_IIS2DLPC_0 == 1)
 273:D:/fchai/work/i-cube/I-CUBE-HUAWEI/Drivers/BSP/IKS01A3\iks01a3_motion_sensors.c ****     case IKS01A3_IIS2DLPC_0:
 274:D:/fchai/work/i-cube/I-CUBE-HUAWEI/Drivers/BSP/IKS01A3\iks01a3_motion_sensors.c ****       if (IIS2DLPC_0_Probe(Functions) != BSP_ERROR_NONE)
 275:D:/fchai/work/i-cube/I-CUBE-HUAWEI/Drivers/BSP/IKS01A3\iks01a3_motion_sensors.c ****       {
 276:D:/fchai/work/i-cube/I-CUBE-HUAWEI/Drivers/BSP/IKS01A3\iks01a3_motion_sensors.c ****         return BSP_ERROR_NO_INIT;
 277:D:/fchai/work/i-cube/I-CUBE-HUAWEI/Drivers/BSP/IKS01A3\iks01a3_motion_sensors.c ****       }
 278:D:/fchai/work/i-cube/I-CUBE-HUAWEI/Drivers/BSP/IKS01A3\iks01a3_motion_sensors.c ****       if (MotionDrv[Instance]->GetCapabilities(MotionCompObj[Instance], (void *)&cap) != BSP_ERROR_
 279:D:/fchai/work/i-cube/I-CUBE-HUAWEI/Drivers/BSP/IKS01A3\iks01a3_motion_sensors.c ****       {
 280:D:/fchai/work/i-cube/I-CUBE-HUAWEI/Drivers/BSP/IKS01A3\iks01a3_motion_sensors.c ****         return BSP_ERROR_UNKNOWN_COMPONENT;
 281:D:/fchai/work/i-cube/I-CUBE-HUAWEI/Drivers/BSP/IKS01A3\iks01a3_motion_sensors.c ****       }
 282:D:/fchai/work/i-cube/I-CUBE-HUAWEI/Drivers/BSP/IKS01A3\iks01a3_motion_sensors.c ****       if (cap.Acc == 1U)
 283:D:/fchai/work/i-cube/I-CUBE-HUAWEI/Drivers/BSP/IKS01A3\iks01a3_motion_sensors.c ****       {
 284:D:/fchai/work/i-cube/I-CUBE-HUAWEI/Drivers/BSP/IKS01A3\iks01a3_motion_sensors.c ****         component_functions |= MOTION_ACCELERO;
 285:D:/fchai/work/i-cube/I-CUBE-HUAWEI/Drivers/BSP/IKS01A3\iks01a3_motion_sensors.c ****       }
 286:D:/fchai/work/i-cube/I-CUBE-HUAWEI/Drivers/BSP/IKS01A3\iks01a3_motion_sensors.c ****       if (cap.Gyro == 1U)
 287:D:/fchai/work/i-cube/I-CUBE-HUAWEI/Drivers/BSP/IKS01A3\iks01a3_motion_sensors.c ****       {
 288:D:/fchai/work/i-cube/I-CUBE-HUAWEI/Drivers/BSP/IKS01A3\iks01a3_motion_sensors.c ****         component_functions |= MOTION_GYRO;
 289:D:/fchai/work/i-cube/I-CUBE-HUAWEI/Drivers/BSP/IKS01A3\iks01a3_motion_sensors.c ****       }
 290:D:/fchai/work/i-cube/I-CUBE-HUAWEI/Drivers/BSP/IKS01A3\iks01a3_motion_sensors.c ****       if (cap.Magneto == 1U)
 291:D:/fchai/work/i-cube/I-CUBE-HUAWEI/Drivers/BSP/IKS01A3\iks01a3_motion_sensors.c ****       {
 292:D:/fchai/work/i-cube/I-CUBE-HUAWEI/Drivers/BSP/IKS01A3\iks01a3_motion_sensors.c ****         component_functions |= MOTION_MAGNETO;
 293:D:/fchai/work/i-cube/I-CUBE-HUAWEI/Drivers/BSP/IKS01A3\iks01a3_motion_sensors.c ****       }
 294:D:/fchai/work/i-cube/I-CUBE-HUAWEI/Drivers/BSP/IKS01A3\iks01a3_motion_sensors.c ****       break;
 295:D:/fchai/work/i-cube/I-CUBE-HUAWEI/Drivers/BSP/IKS01A3\iks01a3_motion_sensors.c **** #endif
 296:D:/fchai/work/i-cube/I-CUBE-HUAWEI/Drivers/BSP/IKS01A3\iks01a3_motion_sensors.c **** 
 297:D:/fchai/work/i-cube/I-CUBE-HUAWEI/Drivers/BSP/IKS01A3\iks01a3_motion_sensors.c **** #if (USE_IKS01A3_MOTION_SENSOR_IIS2MDC_0 == 1)
 298:D:/fchai/work/i-cube/I-CUBE-HUAWEI/Drivers/BSP/IKS01A3\iks01a3_motion_sensors.c ****     case IKS01A3_IIS2MDC_0:
 299:D:/fchai/work/i-cube/I-CUBE-HUAWEI/Drivers/BSP/IKS01A3\iks01a3_motion_sensors.c ****       if (IIS2MDC_0_Probe(Functions) != BSP_ERROR_NONE)
 300:D:/fchai/work/i-cube/I-CUBE-HUAWEI/Drivers/BSP/IKS01A3\iks01a3_motion_sensors.c ****       {
 301:D:/fchai/work/i-cube/I-CUBE-HUAWEI/Drivers/BSP/IKS01A3\iks01a3_motion_sensors.c ****         return BSP_ERROR_NO_INIT;
 302:D:/fchai/work/i-cube/I-CUBE-HUAWEI/Drivers/BSP/IKS01A3\iks01a3_motion_sensors.c ****       }
 303:D:/fchai/work/i-cube/I-CUBE-HUAWEI/Drivers/BSP/IKS01A3\iks01a3_motion_sensors.c ****       if (MotionDrv[Instance]->GetCapabilities(MotionCompObj[Instance], (void *)&cap) != BSP_ERROR_
 304:D:/fchai/work/i-cube/I-CUBE-HUAWEI/Drivers/BSP/IKS01A3\iks01a3_motion_sensors.c ****       {
 305:D:/fchai/work/i-cube/I-CUBE-HUAWEI/Drivers/BSP/IKS01A3\iks01a3_motion_sensors.c ****         return BSP_ERROR_UNKNOWN_COMPONENT;
 306:D:/fchai/work/i-cube/I-CUBE-HUAWEI/Drivers/BSP/IKS01A3\iks01a3_motion_sensors.c ****       }
 307:D:/fchai/work/i-cube/I-CUBE-HUAWEI/Drivers/BSP/IKS01A3\iks01a3_motion_sensors.c ****       if (cap.Acc == 1U)
 308:D:/fchai/work/i-cube/I-CUBE-HUAWEI/Drivers/BSP/IKS01A3\iks01a3_motion_sensors.c ****       {
 309:D:/fchai/work/i-cube/I-CUBE-HUAWEI/Drivers/BSP/IKS01A3\iks01a3_motion_sensors.c ****         component_functions |= MOTION_ACCELERO;
 310:D:/fchai/work/i-cube/I-CUBE-HUAWEI/Drivers/BSP/IKS01A3\iks01a3_motion_sensors.c ****       }
 311:D:/fchai/work/i-cube/I-CUBE-HUAWEI/Drivers/BSP/IKS01A3\iks01a3_motion_sensors.c ****       if (cap.Gyro == 1U)
 312:D:/fchai/work/i-cube/I-CUBE-HUAWEI/Drivers/BSP/IKS01A3\iks01a3_motion_sensors.c ****       {
 313:D:/fchai/work/i-cube/I-CUBE-HUAWEI/Drivers/BSP/IKS01A3\iks01a3_motion_sensors.c ****         component_functions |= MOTION_GYRO;
 314:D:/fchai/work/i-cube/I-CUBE-HUAWEI/Drivers/BSP/IKS01A3\iks01a3_motion_sensors.c ****       }
 315:D:/fchai/work/i-cube/I-CUBE-HUAWEI/Drivers/BSP/IKS01A3\iks01a3_motion_sensors.c ****       if (cap.Magneto == 1U)
 316:D:/fchai/work/i-cube/I-CUBE-HUAWEI/Drivers/BSP/IKS01A3\iks01a3_motion_sensors.c ****       {
 317:D:/fchai/work/i-cube/I-CUBE-HUAWEI/Drivers/BSP/IKS01A3\iks01a3_motion_sensors.c ****         component_functions |= MOTION_MAGNETO;
 318:D:/fchai/work/i-cube/I-CUBE-HUAWEI/Drivers/BSP/IKS01A3\iks01a3_motion_sensors.c ****       }
 319:D:/fchai/work/i-cube/I-CUBE-HUAWEI/Drivers/BSP/IKS01A3\iks01a3_motion_sensors.c ****       break;
 320:D:/fchai/work/i-cube/I-CUBE-HUAWEI/Drivers/BSP/IKS01A3\iks01a3_motion_sensors.c **** #endif
 321:D:/fchai/work/i-cube/I-CUBE-HUAWEI/Drivers/BSP/IKS01A3\iks01a3_motion_sensors.c **** 
 322:D:/fchai/work/i-cube/I-CUBE-HUAWEI/Drivers/BSP/IKS01A3\iks01a3_motion_sensors.c **** #if (USE_IKS01A3_MOTION_SENSOR_ISM303DAC_ACC_0 == 1)
 323:D:/fchai/work/i-cube/I-CUBE-HUAWEI/Drivers/BSP/IKS01A3\iks01a3_motion_sensors.c ****     case IKS01A3_ISM303DAC_ACC_0:
 324:D:/fchai/work/i-cube/I-CUBE-HUAWEI/Drivers/BSP/IKS01A3\iks01a3_motion_sensors.c ****       if (ISM303DAC_ACC_0_Probe(Functions) != BSP_ERROR_NONE)
 325:D:/fchai/work/i-cube/I-CUBE-HUAWEI/Drivers/BSP/IKS01A3\iks01a3_motion_sensors.c ****       {
 326:D:/fchai/work/i-cube/I-CUBE-HUAWEI/Drivers/BSP/IKS01A3\iks01a3_motion_sensors.c ****         return BSP_ERROR_NO_INIT;
ARM GAS  T:\msys\tmp\ccgRcQCS.s 			page 8


 327:D:/fchai/work/i-cube/I-CUBE-HUAWEI/Drivers/BSP/IKS01A3\iks01a3_motion_sensors.c ****       }
 328:D:/fchai/work/i-cube/I-CUBE-HUAWEI/Drivers/BSP/IKS01A3\iks01a3_motion_sensors.c ****       if (MotionDrv[Instance]->GetCapabilities(MotionCompObj[Instance], (void *)&cap) != BSP_ERROR_
 329:D:/fchai/work/i-cube/I-CUBE-HUAWEI/Drivers/BSP/IKS01A3\iks01a3_motion_sensors.c ****       {
 330:D:/fchai/work/i-cube/I-CUBE-HUAWEI/Drivers/BSP/IKS01A3\iks01a3_motion_sensors.c ****         return BSP_ERROR_UNKNOWN_COMPONENT;
 331:D:/fchai/work/i-cube/I-CUBE-HUAWEI/Drivers/BSP/IKS01A3\iks01a3_motion_sensors.c ****       }
 332:D:/fchai/work/i-cube/I-CUBE-HUAWEI/Drivers/BSP/IKS01A3\iks01a3_motion_sensors.c ****       if (cap.Acc == 1U)
 333:D:/fchai/work/i-cube/I-CUBE-HUAWEI/Drivers/BSP/IKS01A3\iks01a3_motion_sensors.c ****       {
 334:D:/fchai/work/i-cube/I-CUBE-HUAWEI/Drivers/BSP/IKS01A3\iks01a3_motion_sensors.c ****         component_functions |= MOTION_ACCELERO;
 335:D:/fchai/work/i-cube/I-CUBE-HUAWEI/Drivers/BSP/IKS01A3\iks01a3_motion_sensors.c ****       }
 336:D:/fchai/work/i-cube/I-CUBE-HUAWEI/Drivers/BSP/IKS01A3\iks01a3_motion_sensors.c ****       if (cap.Gyro == 1U)
 337:D:/fchai/work/i-cube/I-CUBE-HUAWEI/Drivers/BSP/IKS01A3\iks01a3_motion_sensors.c ****       {
 338:D:/fchai/work/i-cube/I-CUBE-HUAWEI/Drivers/BSP/IKS01A3\iks01a3_motion_sensors.c ****         component_functions |= MOTION_GYRO;
 339:D:/fchai/work/i-cube/I-CUBE-HUAWEI/Drivers/BSP/IKS01A3\iks01a3_motion_sensors.c ****       }
 340:D:/fchai/work/i-cube/I-CUBE-HUAWEI/Drivers/BSP/IKS01A3\iks01a3_motion_sensors.c ****       if (cap.Magneto == 1U)
 341:D:/fchai/work/i-cube/I-CUBE-HUAWEI/Drivers/BSP/IKS01A3\iks01a3_motion_sensors.c ****       {
 342:D:/fchai/work/i-cube/I-CUBE-HUAWEI/Drivers/BSP/IKS01A3\iks01a3_motion_sensors.c ****         component_functions |= MOTION_MAGNETO;
 343:D:/fchai/work/i-cube/I-CUBE-HUAWEI/Drivers/BSP/IKS01A3\iks01a3_motion_sensors.c ****       }
 344:D:/fchai/work/i-cube/I-CUBE-HUAWEI/Drivers/BSP/IKS01A3\iks01a3_motion_sensors.c ****       break;
 345:D:/fchai/work/i-cube/I-CUBE-HUAWEI/Drivers/BSP/IKS01A3\iks01a3_motion_sensors.c **** #endif
 346:D:/fchai/work/i-cube/I-CUBE-HUAWEI/Drivers/BSP/IKS01A3\iks01a3_motion_sensors.c **** 
 347:D:/fchai/work/i-cube/I-CUBE-HUAWEI/Drivers/BSP/IKS01A3\iks01a3_motion_sensors.c **** #if (USE_IKS01A3_MOTION_SENSOR_ISM303DAC_MAG_0 == 1)
 348:D:/fchai/work/i-cube/I-CUBE-HUAWEI/Drivers/BSP/IKS01A3\iks01a3_motion_sensors.c ****     case IKS01A3_ISM303DAC_MAG_0:
 349:D:/fchai/work/i-cube/I-CUBE-HUAWEI/Drivers/BSP/IKS01A3\iks01a3_motion_sensors.c ****       if (ISM303DAC_MAG_0_Probe(Functions) != BSP_ERROR_NONE)
 350:D:/fchai/work/i-cube/I-CUBE-HUAWEI/Drivers/BSP/IKS01A3\iks01a3_motion_sensors.c ****       {
 351:D:/fchai/work/i-cube/I-CUBE-HUAWEI/Drivers/BSP/IKS01A3\iks01a3_motion_sensors.c ****         return BSP_ERROR_NO_INIT;
 352:D:/fchai/work/i-cube/I-CUBE-HUAWEI/Drivers/BSP/IKS01A3\iks01a3_motion_sensors.c ****       }
 353:D:/fchai/work/i-cube/I-CUBE-HUAWEI/Drivers/BSP/IKS01A3\iks01a3_motion_sensors.c ****       if (MotionDrv[Instance]->GetCapabilities(MotionCompObj[Instance], (void *)&cap) != BSP_ERROR_
 354:D:/fchai/work/i-cube/I-CUBE-HUAWEI/Drivers/BSP/IKS01A3\iks01a3_motion_sensors.c ****       {
 355:D:/fchai/work/i-cube/I-CUBE-HUAWEI/Drivers/BSP/IKS01A3\iks01a3_motion_sensors.c ****         return BSP_ERROR_UNKNOWN_COMPONENT;
 356:D:/fchai/work/i-cube/I-CUBE-HUAWEI/Drivers/BSP/IKS01A3\iks01a3_motion_sensors.c ****       }
 357:D:/fchai/work/i-cube/I-CUBE-HUAWEI/Drivers/BSP/IKS01A3\iks01a3_motion_sensors.c ****       if (cap.Acc == 1U)
 358:D:/fchai/work/i-cube/I-CUBE-HUAWEI/Drivers/BSP/IKS01A3\iks01a3_motion_sensors.c ****       {
 359:D:/fchai/work/i-cube/I-CUBE-HUAWEI/Drivers/BSP/IKS01A3\iks01a3_motion_sensors.c ****         component_functions |= MOTION_ACCELERO;
 360:D:/fchai/work/i-cube/I-CUBE-HUAWEI/Drivers/BSP/IKS01A3\iks01a3_motion_sensors.c ****       }
 361:D:/fchai/work/i-cube/I-CUBE-HUAWEI/Drivers/BSP/IKS01A3\iks01a3_motion_sensors.c ****       if (cap.Gyro == 1U)
 362:D:/fchai/work/i-cube/I-CUBE-HUAWEI/Drivers/BSP/IKS01A3\iks01a3_motion_sensors.c ****       {
 363:D:/fchai/work/i-cube/I-CUBE-HUAWEI/Drivers/BSP/IKS01A3\iks01a3_motion_sensors.c ****         component_functions |= MOTION_GYRO;
 364:D:/fchai/work/i-cube/I-CUBE-HUAWEI/Drivers/BSP/IKS01A3\iks01a3_motion_sensors.c ****       }
 365:D:/fchai/work/i-cube/I-CUBE-HUAWEI/Drivers/BSP/IKS01A3\iks01a3_motion_sensors.c ****       if (cap.Magneto == 1U)
 366:D:/fchai/work/i-cube/I-CUBE-HUAWEI/Drivers/BSP/IKS01A3\iks01a3_motion_sensors.c ****       {
 367:D:/fchai/work/i-cube/I-CUBE-HUAWEI/Drivers/BSP/IKS01A3\iks01a3_motion_sensors.c ****         component_functions |= MOTION_MAGNETO;
 368:D:/fchai/work/i-cube/I-CUBE-HUAWEI/Drivers/BSP/IKS01A3\iks01a3_motion_sensors.c ****       }
 369:D:/fchai/work/i-cube/I-CUBE-HUAWEI/Drivers/BSP/IKS01A3\iks01a3_motion_sensors.c ****       break;
 370:D:/fchai/work/i-cube/I-CUBE-HUAWEI/Drivers/BSP/IKS01A3\iks01a3_motion_sensors.c **** #endif
 371:D:/fchai/work/i-cube/I-CUBE-HUAWEI/Drivers/BSP/IKS01A3\iks01a3_motion_sensors.c **** 
 372:D:/fchai/work/i-cube/I-CUBE-HUAWEI/Drivers/BSP/IKS01A3\iks01a3_motion_sensors.c **** #if (USE_IKS01A3_MOTION_SENSOR_ISM330DLC_0 == 1)
 373:D:/fchai/work/i-cube/I-CUBE-HUAWEI/Drivers/BSP/IKS01A3\iks01a3_motion_sensors.c ****     case IKS01A3_ISM330DLC_0:
 374:D:/fchai/work/i-cube/I-CUBE-HUAWEI/Drivers/BSP/IKS01A3\iks01a3_motion_sensors.c ****       if (ISM330DLC_0_Probe(Functions) != BSP_ERROR_NONE)
 375:D:/fchai/work/i-cube/I-CUBE-HUAWEI/Drivers/BSP/IKS01A3\iks01a3_motion_sensors.c ****       {
 376:D:/fchai/work/i-cube/I-CUBE-HUAWEI/Drivers/BSP/IKS01A3\iks01a3_motion_sensors.c ****         return BSP_ERROR_NO_INIT;
 377:D:/fchai/work/i-cube/I-CUBE-HUAWEI/Drivers/BSP/IKS01A3\iks01a3_motion_sensors.c ****       }
 378:D:/fchai/work/i-cube/I-CUBE-HUAWEI/Drivers/BSP/IKS01A3\iks01a3_motion_sensors.c ****       if (MotionDrv[Instance]->GetCapabilities(MotionCompObj[Instance], (void *)&cap) != BSP_ERROR_
 379:D:/fchai/work/i-cube/I-CUBE-HUAWEI/Drivers/BSP/IKS01A3\iks01a3_motion_sensors.c ****       {
 380:D:/fchai/work/i-cube/I-CUBE-HUAWEI/Drivers/BSP/IKS01A3\iks01a3_motion_sensors.c ****         return BSP_ERROR_UNKNOWN_COMPONENT;
 381:D:/fchai/work/i-cube/I-CUBE-HUAWEI/Drivers/BSP/IKS01A3\iks01a3_motion_sensors.c ****       }
 382:D:/fchai/work/i-cube/I-CUBE-HUAWEI/Drivers/BSP/IKS01A3\iks01a3_motion_sensors.c ****       if (cap.Acc == 1U)
 383:D:/fchai/work/i-cube/I-CUBE-HUAWEI/Drivers/BSP/IKS01A3\iks01a3_motion_sensors.c ****       {
ARM GAS  T:\msys\tmp\ccgRcQCS.s 			page 9


 384:D:/fchai/work/i-cube/I-CUBE-HUAWEI/Drivers/BSP/IKS01A3\iks01a3_motion_sensors.c ****         component_functions |= MOTION_ACCELERO;
 385:D:/fchai/work/i-cube/I-CUBE-HUAWEI/Drivers/BSP/IKS01A3\iks01a3_motion_sensors.c ****       }
 386:D:/fchai/work/i-cube/I-CUBE-HUAWEI/Drivers/BSP/IKS01A3\iks01a3_motion_sensors.c ****       if (cap.Gyro == 1U)
 387:D:/fchai/work/i-cube/I-CUBE-HUAWEI/Drivers/BSP/IKS01A3\iks01a3_motion_sensors.c ****       {
 388:D:/fchai/work/i-cube/I-CUBE-HUAWEI/Drivers/BSP/IKS01A3\iks01a3_motion_sensors.c ****         component_functions |= MOTION_GYRO;
 389:D:/fchai/work/i-cube/I-CUBE-HUAWEI/Drivers/BSP/IKS01A3\iks01a3_motion_sensors.c ****       }
 390:D:/fchai/work/i-cube/I-CUBE-HUAWEI/Drivers/BSP/IKS01A3\iks01a3_motion_sensors.c ****       if (cap.Magneto == 1U)
 391:D:/fchai/work/i-cube/I-CUBE-HUAWEI/Drivers/BSP/IKS01A3\iks01a3_motion_sensors.c ****       {
 392:D:/fchai/work/i-cube/I-CUBE-HUAWEI/Drivers/BSP/IKS01A3\iks01a3_motion_sensors.c ****         component_functions |= MOTION_MAGNETO;
 393:D:/fchai/work/i-cube/I-CUBE-HUAWEI/Drivers/BSP/IKS01A3\iks01a3_motion_sensors.c ****       }
 394:D:/fchai/work/i-cube/I-CUBE-HUAWEI/Drivers/BSP/IKS01A3\iks01a3_motion_sensors.c ****       break;
 395:D:/fchai/work/i-cube/I-CUBE-HUAWEI/Drivers/BSP/IKS01A3\iks01a3_motion_sensors.c **** #endif
 396:D:/fchai/work/i-cube/I-CUBE-HUAWEI/Drivers/BSP/IKS01A3\iks01a3_motion_sensors.c **** 
 397:D:/fchai/work/i-cube/I-CUBE-HUAWEI/Drivers/BSP/IKS01A3\iks01a3_motion_sensors.c **** #if (USE_IKS01A3_MOTION_SENSOR_LIS2DH12_0 == 1)
 398:D:/fchai/work/i-cube/I-CUBE-HUAWEI/Drivers/BSP/IKS01A3\iks01a3_motion_sensors.c ****     case IKS01A3_LIS2DH12_0:
 399:D:/fchai/work/i-cube/I-CUBE-HUAWEI/Drivers/BSP/IKS01A3\iks01a3_motion_sensors.c ****       if (LIS2DH12_0_Probe(Functions) != BSP_ERROR_NONE)
 400:D:/fchai/work/i-cube/I-CUBE-HUAWEI/Drivers/BSP/IKS01A3\iks01a3_motion_sensors.c ****       {
 401:D:/fchai/work/i-cube/I-CUBE-HUAWEI/Drivers/BSP/IKS01A3\iks01a3_motion_sensors.c ****         return BSP_ERROR_NO_INIT;
 402:D:/fchai/work/i-cube/I-CUBE-HUAWEI/Drivers/BSP/IKS01A3\iks01a3_motion_sensors.c ****       }
 403:D:/fchai/work/i-cube/I-CUBE-HUAWEI/Drivers/BSP/IKS01A3\iks01a3_motion_sensors.c ****       if (MotionDrv[Instance]->GetCapabilities(MotionCompObj[Instance], (void *)&cap) != BSP_ERROR_
 404:D:/fchai/work/i-cube/I-CUBE-HUAWEI/Drivers/BSP/IKS01A3\iks01a3_motion_sensors.c ****       {
 405:D:/fchai/work/i-cube/I-CUBE-HUAWEI/Drivers/BSP/IKS01A3\iks01a3_motion_sensors.c ****         return BSP_ERROR_UNKNOWN_COMPONENT;
 406:D:/fchai/work/i-cube/I-CUBE-HUAWEI/Drivers/BSP/IKS01A3\iks01a3_motion_sensors.c ****       }
 407:D:/fchai/work/i-cube/I-CUBE-HUAWEI/Drivers/BSP/IKS01A3\iks01a3_motion_sensors.c ****       if (cap.Acc == 1U)
 408:D:/fchai/work/i-cube/I-CUBE-HUAWEI/Drivers/BSP/IKS01A3\iks01a3_motion_sensors.c ****       {
 409:D:/fchai/work/i-cube/I-CUBE-HUAWEI/Drivers/BSP/IKS01A3\iks01a3_motion_sensors.c ****         component_functions |= MOTION_ACCELERO;
 410:D:/fchai/work/i-cube/I-CUBE-HUAWEI/Drivers/BSP/IKS01A3\iks01a3_motion_sensors.c ****       }
 411:D:/fchai/work/i-cube/I-CUBE-HUAWEI/Drivers/BSP/IKS01A3\iks01a3_motion_sensors.c ****       if (cap.Gyro == 1U)
 412:D:/fchai/work/i-cube/I-CUBE-HUAWEI/Drivers/BSP/IKS01A3\iks01a3_motion_sensors.c ****       {
 413:D:/fchai/work/i-cube/I-CUBE-HUAWEI/Drivers/BSP/IKS01A3\iks01a3_motion_sensors.c ****         component_functions |= MOTION_GYRO;
 414:D:/fchai/work/i-cube/I-CUBE-HUAWEI/Drivers/BSP/IKS01A3\iks01a3_motion_sensors.c ****       }
 415:D:/fchai/work/i-cube/I-CUBE-HUAWEI/Drivers/BSP/IKS01A3\iks01a3_motion_sensors.c ****       if (cap.Magneto == 1U)
 416:D:/fchai/work/i-cube/I-CUBE-HUAWEI/Drivers/BSP/IKS01A3\iks01a3_motion_sensors.c ****       {
 417:D:/fchai/work/i-cube/I-CUBE-HUAWEI/Drivers/BSP/IKS01A3\iks01a3_motion_sensors.c ****         component_functions |= MOTION_MAGNETO;
 418:D:/fchai/work/i-cube/I-CUBE-HUAWEI/Drivers/BSP/IKS01A3\iks01a3_motion_sensors.c ****       }
 419:D:/fchai/work/i-cube/I-CUBE-HUAWEI/Drivers/BSP/IKS01A3\iks01a3_motion_sensors.c ****       break;
 420:D:/fchai/work/i-cube/I-CUBE-HUAWEI/Drivers/BSP/IKS01A3\iks01a3_motion_sensors.c **** #endif
 421:D:/fchai/work/i-cube/I-CUBE-HUAWEI/Drivers/BSP/IKS01A3\iks01a3_motion_sensors.c **** 
 422:D:/fchai/work/i-cube/I-CUBE-HUAWEI/Drivers/BSP/IKS01A3\iks01a3_motion_sensors.c **** #if (USE_IKS01A3_MOTION_SENSOR_LSM6DSOX_0 == 1)
 423:D:/fchai/work/i-cube/I-CUBE-HUAWEI/Drivers/BSP/IKS01A3\iks01a3_motion_sensors.c ****     case IKS01A3_LSM6DSOX_0:
 424:D:/fchai/work/i-cube/I-CUBE-HUAWEI/Drivers/BSP/IKS01A3\iks01a3_motion_sensors.c ****       if (LSM6DSOX_0_Probe(Functions) != BSP_ERROR_NONE)
 425:D:/fchai/work/i-cube/I-CUBE-HUAWEI/Drivers/BSP/IKS01A3\iks01a3_motion_sensors.c ****       {
 426:D:/fchai/work/i-cube/I-CUBE-HUAWEI/Drivers/BSP/IKS01A3\iks01a3_motion_sensors.c ****         return BSP_ERROR_NO_INIT;
 427:D:/fchai/work/i-cube/I-CUBE-HUAWEI/Drivers/BSP/IKS01A3\iks01a3_motion_sensors.c ****       }
 428:D:/fchai/work/i-cube/I-CUBE-HUAWEI/Drivers/BSP/IKS01A3\iks01a3_motion_sensors.c ****       if (MotionDrv[Instance]->GetCapabilities(MotionCompObj[Instance], (void *)&cap) != BSP_ERROR_
 429:D:/fchai/work/i-cube/I-CUBE-HUAWEI/Drivers/BSP/IKS01A3\iks01a3_motion_sensors.c ****       {
 430:D:/fchai/work/i-cube/I-CUBE-HUAWEI/Drivers/BSP/IKS01A3\iks01a3_motion_sensors.c ****         return BSP_ERROR_UNKNOWN_COMPONENT;
 431:D:/fchai/work/i-cube/I-CUBE-HUAWEI/Drivers/BSP/IKS01A3\iks01a3_motion_sensors.c ****       }
 432:D:/fchai/work/i-cube/I-CUBE-HUAWEI/Drivers/BSP/IKS01A3\iks01a3_motion_sensors.c ****       if (cap.Acc == 1U)
 433:D:/fchai/work/i-cube/I-CUBE-HUAWEI/Drivers/BSP/IKS01A3\iks01a3_motion_sensors.c ****       {
 434:D:/fchai/work/i-cube/I-CUBE-HUAWEI/Drivers/BSP/IKS01A3\iks01a3_motion_sensors.c ****         component_functions |= MOTION_ACCELERO;
 435:D:/fchai/work/i-cube/I-CUBE-HUAWEI/Drivers/BSP/IKS01A3\iks01a3_motion_sensors.c ****       }
 436:D:/fchai/work/i-cube/I-CUBE-HUAWEI/Drivers/BSP/IKS01A3\iks01a3_motion_sensors.c ****       if (cap.Gyro == 1U)
 437:D:/fchai/work/i-cube/I-CUBE-HUAWEI/Drivers/BSP/IKS01A3\iks01a3_motion_sensors.c ****       {
 438:D:/fchai/work/i-cube/I-CUBE-HUAWEI/Drivers/BSP/IKS01A3\iks01a3_motion_sensors.c ****         component_functions |= MOTION_GYRO;
 439:D:/fchai/work/i-cube/I-CUBE-HUAWEI/Drivers/BSP/IKS01A3\iks01a3_motion_sensors.c ****       }
 440:D:/fchai/work/i-cube/I-CUBE-HUAWEI/Drivers/BSP/IKS01A3\iks01a3_motion_sensors.c ****       if (cap.Magneto == 1U)
ARM GAS  T:\msys\tmp\ccgRcQCS.s 			page 10


 441:D:/fchai/work/i-cube/I-CUBE-HUAWEI/Drivers/BSP/IKS01A3\iks01a3_motion_sensors.c ****       {
 442:D:/fchai/work/i-cube/I-CUBE-HUAWEI/Drivers/BSP/IKS01A3\iks01a3_motion_sensors.c ****         component_functions |= MOTION_MAGNETO;
 443:D:/fchai/work/i-cube/I-CUBE-HUAWEI/Drivers/BSP/IKS01A3\iks01a3_motion_sensors.c ****       }
 444:D:/fchai/work/i-cube/I-CUBE-HUAWEI/Drivers/BSP/IKS01A3\iks01a3_motion_sensors.c ****       break;
 445:D:/fchai/work/i-cube/I-CUBE-HUAWEI/Drivers/BSP/IKS01A3\iks01a3_motion_sensors.c **** #endif
 446:D:/fchai/work/i-cube/I-CUBE-HUAWEI/Drivers/BSP/IKS01A3\iks01a3_motion_sensors.c **** 
 447:D:/fchai/work/i-cube/I-CUBE-HUAWEI/Drivers/BSP/IKS01A3\iks01a3_motion_sensors.c **** #if (USE_IKS01A3_MOTION_SENSOR_AIS2DW12_0 == 1)
 448:D:/fchai/work/i-cube/I-CUBE-HUAWEI/Drivers/BSP/IKS01A3\iks01a3_motion_sensors.c ****     case IKS01A3_AIS2DW12_0:
 449:D:/fchai/work/i-cube/I-CUBE-HUAWEI/Drivers/BSP/IKS01A3\iks01a3_motion_sensors.c ****       if (AIS2DW12_0_Probe(Functions) != BSP_ERROR_NONE)
 450:D:/fchai/work/i-cube/I-CUBE-HUAWEI/Drivers/BSP/IKS01A3\iks01a3_motion_sensors.c ****       {
 451:D:/fchai/work/i-cube/I-CUBE-HUAWEI/Drivers/BSP/IKS01A3\iks01a3_motion_sensors.c ****         return BSP_ERROR_NO_INIT;
 452:D:/fchai/work/i-cube/I-CUBE-HUAWEI/Drivers/BSP/IKS01A3\iks01a3_motion_sensors.c ****       }
 453:D:/fchai/work/i-cube/I-CUBE-HUAWEI/Drivers/BSP/IKS01A3\iks01a3_motion_sensors.c ****       if (MotionDrv[Instance]->GetCapabilities(MotionCompObj[Instance], (void *)&cap) != BSP_ERROR_
 454:D:/fchai/work/i-cube/I-CUBE-HUAWEI/Drivers/BSP/IKS01A3\iks01a3_motion_sensors.c ****       {
 455:D:/fchai/work/i-cube/I-CUBE-HUAWEI/Drivers/BSP/IKS01A3\iks01a3_motion_sensors.c ****         return BSP_ERROR_UNKNOWN_COMPONENT;
 456:D:/fchai/work/i-cube/I-CUBE-HUAWEI/Drivers/BSP/IKS01A3\iks01a3_motion_sensors.c ****       }
 457:D:/fchai/work/i-cube/I-CUBE-HUAWEI/Drivers/BSP/IKS01A3\iks01a3_motion_sensors.c ****       if (cap.Acc == 1U)
 458:D:/fchai/work/i-cube/I-CUBE-HUAWEI/Drivers/BSP/IKS01A3\iks01a3_motion_sensors.c ****       {
 459:D:/fchai/work/i-cube/I-CUBE-HUAWEI/Drivers/BSP/IKS01A3\iks01a3_motion_sensors.c ****         component_functions |= MOTION_ACCELERO;
 460:D:/fchai/work/i-cube/I-CUBE-HUAWEI/Drivers/BSP/IKS01A3\iks01a3_motion_sensors.c ****       }
 461:D:/fchai/work/i-cube/I-CUBE-HUAWEI/Drivers/BSP/IKS01A3\iks01a3_motion_sensors.c ****       if (cap.Gyro == 1U)
 462:D:/fchai/work/i-cube/I-CUBE-HUAWEI/Drivers/BSP/IKS01A3\iks01a3_motion_sensors.c ****       {
 463:D:/fchai/work/i-cube/I-CUBE-HUAWEI/Drivers/BSP/IKS01A3\iks01a3_motion_sensors.c ****         component_functions |= MOTION_GYRO;
 464:D:/fchai/work/i-cube/I-CUBE-HUAWEI/Drivers/BSP/IKS01A3\iks01a3_motion_sensors.c ****       }
 465:D:/fchai/work/i-cube/I-CUBE-HUAWEI/Drivers/BSP/IKS01A3\iks01a3_motion_sensors.c ****       if (cap.Magneto == 1U)
 466:D:/fchai/work/i-cube/I-CUBE-HUAWEI/Drivers/BSP/IKS01A3\iks01a3_motion_sensors.c ****       {
 467:D:/fchai/work/i-cube/I-CUBE-HUAWEI/Drivers/BSP/IKS01A3\iks01a3_motion_sensors.c ****         component_functions |= MOTION_MAGNETO;
 468:D:/fchai/work/i-cube/I-CUBE-HUAWEI/Drivers/BSP/IKS01A3\iks01a3_motion_sensors.c ****       }
 469:D:/fchai/work/i-cube/I-CUBE-HUAWEI/Drivers/BSP/IKS01A3\iks01a3_motion_sensors.c ****       break;
 470:D:/fchai/work/i-cube/I-CUBE-HUAWEI/Drivers/BSP/IKS01A3\iks01a3_motion_sensors.c **** #endif
 471:D:/fchai/work/i-cube/I-CUBE-HUAWEI/Drivers/BSP/IKS01A3\iks01a3_motion_sensors.c **** 
 472:D:/fchai/work/i-cube/I-CUBE-HUAWEI/Drivers/BSP/IKS01A3\iks01a3_motion_sensors.c **** #if (USE_IKS01A3_MOTION_SENSOR_LIS3MDL_0 == 1)
 473:D:/fchai/work/i-cube/I-CUBE-HUAWEI/Drivers/BSP/IKS01A3\iks01a3_motion_sensors.c ****     case IKS01A3_LIS3MDL_0:
 474:D:/fchai/work/i-cube/I-CUBE-HUAWEI/Drivers/BSP/IKS01A3\iks01a3_motion_sensors.c ****       if (LIS3MDL_0_Probe(Functions) != BSP_ERROR_NONE)
 475:D:/fchai/work/i-cube/I-CUBE-HUAWEI/Drivers/BSP/IKS01A3\iks01a3_motion_sensors.c ****       {
 476:D:/fchai/work/i-cube/I-CUBE-HUAWEI/Drivers/BSP/IKS01A3\iks01a3_motion_sensors.c ****         return BSP_ERROR_NO_INIT;
 477:D:/fchai/work/i-cube/I-CUBE-HUAWEI/Drivers/BSP/IKS01A3\iks01a3_motion_sensors.c ****       }
 478:D:/fchai/work/i-cube/I-CUBE-HUAWEI/Drivers/BSP/IKS01A3\iks01a3_motion_sensors.c ****       if (MotionDrv[Instance]->GetCapabilities(MotionCompObj[Instance], (void *)&cap) != BSP_ERROR_
 479:D:/fchai/work/i-cube/I-CUBE-HUAWEI/Drivers/BSP/IKS01A3\iks01a3_motion_sensors.c ****       {
 480:D:/fchai/work/i-cube/I-CUBE-HUAWEI/Drivers/BSP/IKS01A3\iks01a3_motion_sensors.c ****         return BSP_ERROR_UNKNOWN_COMPONENT;
 481:D:/fchai/work/i-cube/I-CUBE-HUAWEI/Drivers/BSP/IKS01A3\iks01a3_motion_sensors.c ****       }
 482:D:/fchai/work/i-cube/I-CUBE-HUAWEI/Drivers/BSP/IKS01A3\iks01a3_motion_sensors.c ****       if (cap.Acc == 1U)
 483:D:/fchai/work/i-cube/I-CUBE-HUAWEI/Drivers/BSP/IKS01A3\iks01a3_motion_sensors.c ****       {
 484:D:/fchai/work/i-cube/I-CUBE-HUAWEI/Drivers/BSP/IKS01A3\iks01a3_motion_sensors.c ****         component_functions |= MOTION_ACCELERO;
 485:D:/fchai/work/i-cube/I-CUBE-HUAWEI/Drivers/BSP/IKS01A3\iks01a3_motion_sensors.c ****       }
 486:D:/fchai/work/i-cube/I-CUBE-HUAWEI/Drivers/BSP/IKS01A3\iks01a3_motion_sensors.c ****       if (cap.Gyro == 1U)
 487:D:/fchai/work/i-cube/I-CUBE-HUAWEI/Drivers/BSP/IKS01A3\iks01a3_motion_sensors.c ****       {
 488:D:/fchai/work/i-cube/I-CUBE-HUAWEI/Drivers/BSP/IKS01A3\iks01a3_motion_sensors.c ****         component_functions |= MOTION_GYRO;
 489:D:/fchai/work/i-cube/I-CUBE-HUAWEI/Drivers/BSP/IKS01A3\iks01a3_motion_sensors.c ****       }
 490:D:/fchai/work/i-cube/I-CUBE-HUAWEI/Drivers/BSP/IKS01A3\iks01a3_motion_sensors.c ****       if (cap.Magneto == 1U)
 491:D:/fchai/work/i-cube/I-CUBE-HUAWEI/Drivers/BSP/IKS01A3\iks01a3_motion_sensors.c ****       {
 492:D:/fchai/work/i-cube/I-CUBE-HUAWEI/Drivers/BSP/IKS01A3\iks01a3_motion_sensors.c ****         component_functions |= MOTION_MAGNETO;
 493:D:/fchai/work/i-cube/I-CUBE-HUAWEI/Drivers/BSP/IKS01A3\iks01a3_motion_sensors.c ****       }
 494:D:/fchai/work/i-cube/I-CUBE-HUAWEI/Drivers/BSP/IKS01A3\iks01a3_motion_sensors.c ****       break;
 495:D:/fchai/work/i-cube/I-CUBE-HUAWEI/Drivers/BSP/IKS01A3\iks01a3_motion_sensors.c **** #endif
 496:D:/fchai/work/i-cube/I-CUBE-HUAWEI/Drivers/BSP/IKS01A3\iks01a3_motion_sensors.c **** 
 497:D:/fchai/work/i-cube/I-CUBE-HUAWEI/Drivers/BSP/IKS01A3\iks01a3_motion_sensors.c **** #if (USE_IKS01A3_MOTION_SENSOR_LSM6DSR_0 == 1)
ARM GAS  T:\msys\tmp\ccgRcQCS.s 			page 11


 498:D:/fchai/work/i-cube/I-CUBE-HUAWEI/Drivers/BSP/IKS01A3\iks01a3_motion_sensors.c ****     case IKS01A3_LSM6DSR_0:
 499:D:/fchai/work/i-cube/I-CUBE-HUAWEI/Drivers/BSP/IKS01A3\iks01a3_motion_sensors.c ****       if (LSM6DSR_0_Probe(Functions) != BSP_ERROR_NONE)
 500:D:/fchai/work/i-cube/I-CUBE-HUAWEI/Drivers/BSP/IKS01A3\iks01a3_motion_sensors.c ****       {
 501:D:/fchai/work/i-cube/I-CUBE-HUAWEI/Drivers/BSP/IKS01A3\iks01a3_motion_sensors.c ****         return BSP_ERROR_NO_INIT;
 502:D:/fchai/work/i-cube/I-CUBE-HUAWEI/Drivers/BSP/IKS01A3\iks01a3_motion_sensors.c ****       }
 503:D:/fchai/work/i-cube/I-CUBE-HUAWEI/Drivers/BSP/IKS01A3\iks01a3_motion_sensors.c ****       if (MotionDrv[Instance]->GetCapabilities(MotionCompObj[Instance], (void *)&cap) != BSP_ERROR_
 504:D:/fchai/work/i-cube/I-CUBE-HUAWEI/Drivers/BSP/IKS01A3\iks01a3_motion_sensors.c ****       {
 505:D:/fchai/work/i-cube/I-CUBE-HUAWEI/Drivers/BSP/IKS01A3\iks01a3_motion_sensors.c ****         return BSP_ERROR_UNKNOWN_COMPONENT;
 506:D:/fchai/work/i-cube/I-CUBE-HUAWEI/Drivers/BSP/IKS01A3\iks01a3_motion_sensors.c ****       }
 507:D:/fchai/work/i-cube/I-CUBE-HUAWEI/Drivers/BSP/IKS01A3\iks01a3_motion_sensors.c ****       if (cap.Acc == 1U)
 508:D:/fchai/work/i-cube/I-CUBE-HUAWEI/Drivers/BSP/IKS01A3\iks01a3_motion_sensors.c ****       {
 509:D:/fchai/work/i-cube/I-CUBE-HUAWEI/Drivers/BSP/IKS01A3\iks01a3_motion_sensors.c ****         component_functions |= MOTION_ACCELERO;
 510:D:/fchai/work/i-cube/I-CUBE-HUAWEI/Drivers/BSP/IKS01A3\iks01a3_motion_sensors.c ****       }
 511:D:/fchai/work/i-cube/I-CUBE-HUAWEI/Drivers/BSP/IKS01A3\iks01a3_motion_sensors.c ****       if (cap.Gyro == 1U)
 512:D:/fchai/work/i-cube/I-CUBE-HUAWEI/Drivers/BSP/IKS01A3\iks01a3_motion_sensors.c ****       {
 513:D:/fchai/work/i-cube/I-CUBE-HUAWEI/Drivers/BSP/IKS01A3\iks01a3_motion_sensors.c ****         component_functions |= MOTION_GYRO;
 514:D:/fchai/work/i-cube/I-CUBE-HUAWEI/Drivers/BSP/IKS01A3\iks01a3_motion_sensors.c ****       }
 515:D:/fchai/work/i-cube/I-CUBE-HUAWEI/Drivers/BSP/IKS01A3\iks01a3_motion_sensors.c ****       if (cap.Magneto == 1U)
 516:D:/fchai/work/i-cube/I-CUBE-HUAWEI/Drivers/BSP/IKS01A3\iks01a3_motion_sensors.c ****       {
 517:D:/fchai/work/i-cube/I-CUBE-HUAWEI/Drivers/BSP/IKS01A3\iks01a3_motion_sensors.c ****         component_functions |= MOTION_MAGNETO;
 518:D:/fchai/work/i-cube/I-CUBE-HUAWEI/Drivers/BSP/IKS01A3\iks01a3_motion_sensors.c ****       }
 519:D:/fchai/work/i-cube/I-CUBE-HUAWEI/Drivers/BSP/IKS01A3\iks01a3_motion_sensors.c ****       break;
 520:D:/fchai/work/i-cube/I-CUBE-HUAWEI/Drivers/BSP/IKS01A3\iks01a3_motion_sensors.c **** #endif
 521:D:/fchai/work/i-cube/I-CUBE-HUAWEI/Drivers/BSP/IKS01A3\iks01a3_motion_sensors.c **** 
 522:D:/fchai/work/i-cube/I-CUBE-HUAWEI/Drivers/BSP/IKS01A3\iks01a3_motion_sensors.c **** #if (USE_IKS01A3_MOTION_SENSOR_A3G4250D_0 == 1)
 523:D:/fchai/work/i-cube/I-CUBE-HUAWEI/Drivers/BSP/IKS01A3\iks01a3_motion_sensors.c ****     case IKS01A3_A3G4250D_0:
 524:D:/fchai/work/i-cube/I-CUBE-HUAWEI/Drivers/BSP/IKS01A3\iks01a3_motion_sensors.c ****       if (A3G4250D_0_Probe(Functions) != BSP_ERROR_NONE)
 525:D:/fchai/work/i-cube/I-CUBE-HUAWEI/Drivers/BSP/IKS01A3\iks01a3_motion_sensors.c ****       {
 526:D:/fchai/work/i-cube/I-CUBE-HUAWEI/Drivers/BSP/IKS01A3\iks01a3_motion_sensors.c ****         return BSP_ERROR_NO_INIT;
 527:D:/fchai/work/i-cube/I-CUBE-HUAWEI/Drivers/BSP/IKS01A3\iks01a3_motion_sensors.c ****       }
 528:D:/fchai/work/i-cube/I-CUBE-HUAWEI/Drivers/BSP/IKS01A3\iks01a3_motion_sensors.c ****       if (MotionDrv[Instance]->GetCapabilities(MotionCompObj[Instance], (void *)&cap) != BSP_ERROR_
 529:D:/fchai/work/i-cube/I-CUBE-HUAWEI/Drivers/BSP/IKS01A3\iks01a3_motion_sensors.c ****       {
 530:D:/fchai/work/i-cube/I-CUBE-HUAWEI/Drivers/BSP/IKS01A3\iks01a3_motion_sensors.c ****         return BSP_ERROR_UNKNOWN_COMPONENT;
 531:D:/fchai/work/i-cube/I-CUBE-HUAWEI/Drivers/BSP/IKS01A3\iks01a3_motion_sensors.c ****       }
 532:D:/fchai/work/i-cube/I-CUBE-HUAWEI/Drivers/BSP/IKS01A3\iks01a3_motion_sensors.c ****       if (cap.Acc == 1U)
 533:D:/fchai/work/i-cube/I-CUBE-HUAWEI/Drivers/BSP/IKS01A3\iks01a3_motion_sensors.c ****       {
 534:D:/fchai/work/i-cube/I-CUBE-HUAWEI/Drivers/BSP/IKS01A3\iks01a3_motion_sensors.c ****         component_functions |= MOTION_ACCELERO;
 535:D:/fchai/work/i-cube/I-CUBE-HUAWEI/Drivers/BSP/IKS01A3\iks01a3_motion_sensors.c ****       }
 536:D:/fchai/work/i-cube/I-CUBE-HUAWEI/Drivers/BSP/IKS01A3\iks01a3_motion_sensors.c ****       if (cap.Gyro == 1U)
 537:D:/fchai/work/i-cube/I-CUBE-HUAWEI/Drivers/BSP/IKS01A3\iks01a3_motion_sensors.c ****       {
 538:D:/fchai/work/i-cube/I-CUBE-HUAWEI/Drivers/BSP/IKS01A3\iks01a3_motion_sensors.c ****         component_functions |= MOTION_GYRO;
 539:D:/fchai/work/i-cube/I-CUBE-HUAWEI/Drivers/BSP/IKS01A3\iks01a3_motion_sensors.c ****       }
 540:D:/fchai/work/i-cube/I-CUBE-HUAWEI/Drivers/BSP/IKS01A3\iks01a3_motion_sensors.c ****       if (cap.Magneto == 1U)
 541:D:/fchai/work/i-cube/I-CUBE-HUAWEI/Drivers/BSP/IKS01A3\iks01a3_motion_sensors.c ****       {
 542:D:/fchai/work/i-cube/I-CUBE-HUAWEI/Drivers/BSP/IKS01A3\iks01a3_motion_sensors.c ****         component_functions |= MOTION_MAGNETO;
 543:D:/fchai/work/i-cube/I-CUBE-HUAWEI/Drivers/BSP/IKS01A3\iks01a3_motion_sensors.c ****       }
 544:D:/fchai/work/i-cube/I-CUBE-HUAWEI/Drivers/BSP/IKS01A3\iks01a3_motion_sensors.c ****       break;
 545:D:/fchai/work/i-cube/I-CUBE-HUAWEI/Drivers/BSP/IKS01A3\iks01a3_motion_sensors.c **** #endif
 546:D:/fchai/work/i-cube/I-CUBE-HUAWEI/Drivers/BSP/IKS01A3\iks01a3_motion_sensors.c **** 
 547:D:/fchai/work/i-cube/I-CUBE-HUAWEI/Drivers/BSP/IKS01A3\iks01a3_motion_sensors.c **** #if (USE_IKS01A3_MOTION_SENSOR_AIS328DQ_0 == 1)
 548:D:/fchai/work/i-cube/I-CUBE-HUAWEI/Drivers/BSP/IKS01A3\iks01a3_motion_sensors.c ****     case IKS01A3_AIS328DQ_0:
 549:D:/fchai/work/i-cube/I-CUBE-HUAWEI/Drivers/BSP/IKS01A3\iks01a3_motion_sensors.c ****       if (AIS328DQ_0_Probe(Functions) != BSP_ERROR_NONE)
 550:D:/fchai/work/i-cube/I-CUBE-HUAWEI/Drivers/BSP/IKS01A3\iks01a3_motion_sensors.c ****       {
 551:D:/fchai/work/i-cube/I-CUBE-HUAWEI/Drivers/BSP/IKS01A3\iks01a3_motion_sensors.c ****         return BSP_ERROR_NO_INIT;
 552:D:/fchai/work/i-cube/I-CUBE-HUAWEI/Drivers/BSP/IKS01A3\iks01a3_motion_sensors.c ****       }
 553:D:/fchai/work/i-cube/I-CUBE-HUAWEI/Drivers/BSP/IKS01A3\iks01a3_motion_sensors.c ****       if (MotionDrv[Instance]->GetCapabilities(MotionCompObj[Instance], (void *)&cap) != BSP_ERROR_
 554:D:/fchai/work/i-cube/I-CUBE-HUAWEI/Drivers/BSP/IKS01A3\iks01a3_motion_sensors.c ****       {
ARM GAS  T:\msys\tmp\ccgRcQCS.s 			page 12


 555:D:/fchai/work/i-cube/I-CUBE-HUAWEI/Drivers/BSP/IKS01A3\iks01a3_motion_sensors.c ****         return BSP_ERROR_UNKNOWN_COMPONENT;
 556:D:/fchai/work/i-cube/I-CUBE-HUAWEI/Drivers/BSP/IKS01A3\iks01a3_motion_sensors.c ****       }
 557:D:/fchai/work/i-cube/I-CUBE-HUAWEI/Drivers/BSP/IKS01A3\iks01a3_motion_sensors.c ****       if (cap.Acc == 1U)
 558:D:/fchai/work/i-cube/I-CUBE-HUAWEI/Drivers/BSP/IKS01A3\iks01a3_motion_sensors.c ****       {
 559:D:/fchai/work/i-cube/I-CUBE-HUAWEI/Drivers/BSP/IKS01A3\iks01a3_motion_sensors.c ****         component_functions |= MOTION_ACCELERO;
 560:D:/fchai/work/i-cube/I-CUBE-HUAWEI/Drivers/BSP/IKS01A3\iks01a3_motion_sensors.c ****       }
 561:D:/fchai/work/i-cube/I-CUBE-HUAWEI/Drivers/BSP/IKS01A3\iks01a3_motion_sensors.c ****       if (cap.Gyro == 1U)
 562:D:/fchai/work/i-cube/I-CUBE-HUAWEI/Drivers/BSP/IKS01A3\iks01a3_motion_sensors.c ****       {
 563:D:/fchai/work/i-cube/I-CUBE-HUAWEI/Drivers/BSP/IKS01A3\iks01a3_motion_sensors.c ****         component_functions |= MOTION_GYRO;
 564:D:/fchai/work/i-cube/I-CUBE-HUAWEI/Drivers/BSP/IKS01A3\iks01a3_motion_sensors.c ****       }
 565:D:/fchai/work/i-cube/I-CUBE-HUAWEI/Drivers/BSP/IKS01A3\iks01a3_motion_sensors.c ****       if (cap.Magneto == 1U)
 566:D:/fchai/work/i-cube/I-CUBE-HUAWEI/Drivers/BSP/IKS01A3\iks01a3_motion_sensors.c ****       {
 567:D:/fchai/work/i-cube/I-CUBE-HUAWEI/Drivers/BSP/IKS01A3\iks01a3_motion_sensors.c ****         component_functions |= MOTION_MAGNETO;
 568:D:/fchai/work/i-cube/I-CUBE-HUAWEI/Drivers/BSP/IKS01A3\iks01a3_motion_sensors.c ****       }
 569:D:/fchai/work/i-cube/I-CUBE-HUAWEI/Drivers/BSP/IKS01A3\iks01a3_motion_sensors.c ****       break;
 570:D:/fchai/work/i-cube/I-CUBE-HUAWEI/Drivers/BSP/IKS01A3\iks01a3_motion_sensors.c **** #endif
 571:D:/fchai/work/i-cube/I-CUBE-HUAWEI/Drivers/BSP/IKS01A3\iks01a3_motion_sensors.c **** 
 572:D:/fchai/work/i-cube/I-CUBE-HUAWEI/Drivers/BSP/IKS01A3\iks01a3_motion_sensors.c **** #if (USE_IKS01A3_MOTION_SENSOR_AIS3624DQ_0 == 1)
 573:D:/fchai/work/i-cube/I-CUBE-HUAWEI/Drivers/BSP/IKS01A3\iks01a3_motion_sensors.c ****     case IKS01A3_AIS3624DQ_0:
 574:D:/fchai/work/i-cube/I-CUBE-HUAWEI/Drivers/BSP/IKS01A3\iks01a3_motion_sensors.c ****       if (AIS3624DQ_0_Probe(Functions) != BSP_ERROR_NONE)
 575:D:/fchai/work/i-cube/I-CUBE-HUAWEI/Drivers/BSP/IKS01A3\iks01a3_motion_sensors.c ****       {
 576:D:/fchai/work/i-cube/I-CUBE-HUAWEI/Drivers/BSP/IKS01A3\iks01a3_motion_sensors.c ****         return BSP_ERROR_NO_INIT;
 577:D:/fchai/work/i-cube/I-CUBE-HUAWEI/Drivers/BSP/IKS01A3\iks01a3_motion_sensors.c ****       }
 578:D:/fchai/work/i-cube/I-CUBE-HUAWEI/Drivers/BSP/IKS01A3\iks01a3_motion_sensors.c ****       if (MotionDrv[Instance]->GetCapabilities(MotionCompObj[Instance], (void *)&cap) != BSP_ERROR_
 579:D:/fchai/work/i-cube/I-CUBE-HUAWEI/Drivers/BSP/IKS01A3\iks01a3_motion_sensors.c ****       {
 580:D:/fchai/work/i-cube/I-CUBE-HUAWEI/Drivers/BSP/IKS01A3\iks01a3_motion_sensors.c ****         return BSP_ERROR_UNKNOWN_COMPONENT;
 581:D:/fchai/work/i-cube/I-CUBE-HUAWEI/Drivers/BSP/IKS01A3\iks01a3_motion_sensors.c ****       }
 582:D:/fchai/work/i-cube/I-CUBE-HUAWEI/Drivers/BSP/IKS01A3\iks01a3_motion_sensors.c ****       if (cap.Acc == 1U)
 583:D:/fchai/work/i-cube/I-CUBE-HUAWEI/Drivers/BSP/IKS01A3\iks01a3_motion_sensors.c ****       {
 584:D:/fchai/work/i-cube/I-CUBE-HUAWEI/Drivers/BSP/IKS01A3\iks01a3_motion_sensors.c ****         component_functions |= MOTION_ACCELERO;
 585:D:/fchai/work/i-cube/I-CUBE-HUAWEI/Drivers/BSP/IKS01A3\iks01a3_motion_sensors.c ****       }
 586:D:/fchai/work/i-cube/I-CUBE-HUAWEI/Drivers/BSP/IKS01A3\iks01a3_motion_sensors.c ****       if (cap.Gyro == 1U)
 587:D:/fchai/work/i-cube/I-CUBE-HUAWEI/Drivers/BSP/IKS01A3\iks01a3_motion_sensors.c ****       {
 588:D:/fchai/work/i-cube/I-CUBE-HUAWEI/Drivers/BSP/IKS01A3\iks01a3_motion_sensors.c ****         component_functions |= MOTION_GYRO;
 589:D:/fchai/work/i-cube/I-CUBE-HUAWEI/Drivers/BSP/IKS01A3\iks01a3_motion_sensors.c ****       }
 590:D:/fchai/work/i-cube/I-CUBE-HUAWEI/Drivers/BSP/IKS01A3\iks01a3_motion_sensors.c ****       if (cap.Magneto == 1U)
 591:D:/fchai/work/i-cube/I-CUBE-HUAWEI/Drivers/BSP/IKS01A3\iks01a3_motion_sensors.c ****       {
 592:D:/fchai/work/i-cube/I-CUBE-HUAWEI/Drivers/BSP/IKS01A3\iks01a3_motion_sensors.c ****         component_functions |= MOTION_MAGNETO;
 593:D:/fchai/work/i-cube/I-CUBE-HUAWEI/Drivers/BSP/IKS01A3\iks01a3_motion_sensors.c ****       }
 594:D:/fchai/work/i-cube/I-CUBE-HUAWEI/Drivers/BSP/IKS01A3\iks01a3_motion_sensors.c ****       break;
 595:D:/fchai/work/i-cube/I-CUBE-HUAWEI/Drivers/BSP/IKS01A3\iks01a3_motion_sensors.c **** #endif
 596:D:/fchai/work/i-cube/I-CUBE-HUAWEI/Drivers/BSP/IKS01A3\iks01a3_motion_sensors.c **** 
 597:D:/fchai/work/i-cube/I-CUBE-HUAWEI/Drivers/BSP/IKS01A3\iks01a3_motion_sensors.c **** #if (USE_IKS01A3_MOTION_SENSOR_H3LIS331DL_0 == 1)
 598:D:/fchai/work/i-cube/I-CUBE-HUAWEI/Drivers/BSP/IKS01A3\iks01a3_motion_sensors.c ****     case IKS01A3_H3LIS331DL_0:
 599:D:/fchai/work/i-cube/I-CUBE-HUAWEI/Drivers/BSP/IKS01A3\iks01a3_motion_sensors.c ****       if (H3LIS331DL_0_Probe(Functions) != BSP_ERROR_NONE)
 600:D:/fchai/work/i-cube/I-CUBE-HUAWEI/Drivers/BSP/IKS01A3\iks01a3_motion_sensors.c ****       {
 601:D:/fchai/work/i-cube/I-CUBE-HUAWEI/Drivers/BSP/IKS01A3\iks01a3_motion_sensors.c ****         return BSP_ERROR_NO_INIT;
 602:D:/fchai/work/i-cube/I-CUBE-HUAWEI/Drivers/BSP/IKS01A3\iks01a3_motion_sensors.c ****       }
 603:D:/fchai/work/i-cube/I-CUBE-HUAWEI/Drivers/BSP/IKS01A3\iks01a3_motion_sensors.c ****       if (MotionDrv[Instance]->GetCapabilities(MotionCompObj[Instance], (void *)&cap) != BSP_ERROR_
 604:D:/fchai/work/i-cube/I-CUBE-HUAWEI/Drivers/BSP/IKS01A3\iks01a3_motion_sensors.c ****       {
 605:D:/fchai/work/i-cube/I-CUBE-HUAWEI/Drivers/BSP/IKS01A3\iks01a3_motion_sensors.c ****         return BSP_ERROR_UNKNOWN_COMPONENT;
 606:D:/fchai/work/i-cube/I-CUBE-HUAWEI/Drivers/BSP/IKS01A3\iks01a3_motion_sensors.c ****       }
 607:D:/fchai/work/i-cube/I-CUBE-HUAWEI/Drivers/BSP/IKS01A3\iks01a3_motion_sensors.c ****       if (cap.Acc == 1U)
 608:D:/fchai/work/i-cube/I-CUBE-HUAWEI/Drivers/BSP/IKS01A3\iks01a3_motion_sensors.c ****       {
 609:D:/fchai/work/i-cube/I-CUBE-HUAWEI/Drivers/BSP/IKS01A3\iks01a3_motion_sensors.c ****         component_functions |= MOTION_ACCELERO;
 610:D:/fchai/work/i-cube/I-CUBE-HUAWEI/Drivers/BSP/IKS01A3\iks01a3_motion_sensors.c ****       }
 611:D:/fchai/work/i-cube/I-CUBE-HUAWEI/Drivers/BSP/IKS01A3\iks01a3_motion_sensors.c ****       if (cap.Gyro == 1U)
ARM GAS  T:\msys\tmp\ccgRcQCS.s 			page 13


 612:D:/fchai/work/i-cube/I-CUBE-HUAWEI/Drivers/BSP/IKS01A3\iks01a3_motion_sensors.c ****       {
 613:D:/fchai/work/i-cube/I-CUBE-HUAWEI/Drivers/BSP/IKS01A3\iks01a3_motion_sensors.c ****         component_functions |= MOTION_GYRO;
 614:D:/fchai/work/i-cube/I-CUBE-HUAWEI/Drivers/BSP/IKS01A3\iks01a3_motion_sensors.c ****       }
 615:D:/fchai/work/i-cube/I-CUBE-HUAWEI/Drivers/BSP/IKS01A3\iks01a3_motion_sensors.c ****       if (cap.Magneto == 1U)
 616:D:/fchai/work/i-cube/I-CUBE-HUAWEI/Drivers/BSP/IKS01A3\iks01a3_motion_sensors.c ****       {
 617:D:/fchai/work/i-cube/I-CUBE-HUAWEI/Drivers/BSP/IKS01A3\iks01a3_motion_sensors.c ****         component_functions |= MOTION_MAGNETO;
 618:D:/fchai/work/i-cube/I-CUBE-HUAWEI/Drivers/BSP/IKS01A3\iks01a3_motion_sensors.c ****       }
 619:D:/fchai/work/i-cube/I-CUBE-HUAWEI/Drivers/BSP/IKS01A3\iks01a3_motion_sensors.c ****       break;
 620:D:/fchai/work/i-cube/I-CUBE-HUAWEI/Drivers/BSP/IKS01A3\iks01a3_motion_sensors.c **** #endif
 621:D:/fchai/work/i-cube/I-CUBE-HUAWEI/Drivers/BSP/IKS01A3\iks01a3_motion_sensors.c **** 
 622:D:/fchai/work/i-cube/I-CUBE-HUAWEI/Drivers/BSP/IKS01A3\iks01a3_motion_sensors.c **** #if (USE_IKS01A3_MOTION_SENSOR_LSM6DSRX_0 == 1)
 623:D:/fchai/work/i-cube/I-CUBE-HUAWEI/Drivers/BSP/IKS01A3\iks01a3_motion_sensors.c ****     case IKS01A3_LSM6DSRX_0:
 624:D:/fchai/work/i-cube/I-CUBE-HUAWEI/Drivers/BSP/IKS01A3\iks01a3_motion_sensors.c ****       if (LSM6DSRX_0_Probe(Functions) != BSP_ERROR_NONE)
 625:D:/fchai/work/i-cube/I-CUBE-HUAWEI/Drivers/BSP/IKS01A3\iks01a3_motion_sensors.c ****       {
 626:D:/fchai/work/i-cube/I-CUBE-HUAWEI/Drivers/BSP/IKS01A3\iks01a3_motion_sensors.c ****         return BSP_ERROR_NO_INIT;
 627:D:/fchai/work/i-cube/I-CUBE-HUAWEI/Drivers/BSP/IKS01A3\iks01a3_motion_sensors.c ****       }
 628:D:/fchai/work/i-cube/I-CUBE-HUAWEI/Drivers/BSP/IKS01A3\iks01a3_motion_sensors.c ****       if (MotionDrv[Instance]->GetCapabilities(MotionCompObj[Instance], (void *)&cap) != BSP_ERROR_
 629:D:/fchai/work/i-cube/I-CUBE-HUAWEI/Drivers/BSP/IKS01A3\iks01a3_motion_sensors.c ****       {
 630:D:/fchai/work/i-cube/I-CUBE-HUAWEI/Drivers/BSP/IKS01A3\iks01a3_motion_sensors.c ****         return BSP_ERROR_UNKNOWN_COMPONENT;
 631:D:/fchai/work/i-cube/I-CUBE-HUAWEI/Drivers/BSP/IKS01A3\iks01a3_motion_sensors.c ****       }
 632:D:/fchai/work/i-cube/I-CUBE-HUAWEI/Drivers/BSP/IKS01A3\iks01a3_motion_sensors.c ****       if (cap.Acc == 1U)
 633:D:/fchai/work/i-cube/I-CUBE-HUAWEI/Drivers/BSP/IKS01A3\iks01a3_motion_sensors.c ****       {
 634:D:/fchai/work/i-cube/I-CUBE-HUAWEI/Drivers/BSP/IKS01A3\iks01a3_motion_sensors.c ****         component_functions |= MOTION_ACCELERO;
 635:D:/fchai/work/i-cube/I-CUBE-HUAWEI/Drivers/BSP/IKS01A3\iks01a3_motion_sensors.c ****       }
 636:D:/fchai/work/i-cube/I-CUBE-HUAWEI/Drivers/BSP/IKS01A3\iks01a3_motion_sensors.c ****       if (cap.Gyro == 1U)
 637:D:/fchai/work/i-cube/I-CUBE-HUAWEI/Drivers/BSP/IKS01A3\iks01a3_motion_sensors.c ****       {
 638:D:/fchai/work/i-cube/I-CUBE-HUAWEI/Drivers/BSP/IKS01A3\iks01a3_motion_sensors.c ****         component_functions |= MOTION_GYRO;
 639:D:/fchai/work/i-cube/I-CUBE-HUAWEI/Drivers/BSP/IKS01A3\iks01a3_motion_sensors.c ****       }
 640:D:/fchai/work/i-cube/I-CUBE-HUAWEI/Drivers/BSP/IKS01A3\iks01a3_motion_sensors.c ****       if (cap.Magneto == 1U)
 641:D:/fchai/work/i-cube/I-CUBE-HUAWEI/Drivers/BSP/IKS01A3\iks01a3_motion_sensors.c ****       {
 642:D:/fchai/work/i-cube/I-CUBE-HUAWEI/Drivers/BSP/IKS01A3\iks01a3_motion_sensors.c ****         component_functions |= MOTION_MAGNETO;
 643:D:/fchai/work/i-cube/I-CUBE-HUAWEI/Drivers/BSP/IKS01A3\iks01a3_motion_sensors.c ****       }
 644:D:/fchai/work/i-cube/I-CUBE-HUAWEI/Drivers/BSP/IKS01A3\iks01a3_motion_sensors.c ****       break;
 645:D:/fchai/work/i-cube/I-CUBE-HUAWEI/Drivers/BSP/IKS01A3\iks01a3_motion_sensors.c **** #endif
 646:D:/fchai/work/i-cube/I-CUBE-HUAWEI/Drivers/BSP/IKS01A3\iks01a3_motion_sensors.c **** 
 647:D:/fchai/work/i-cube/I-CUBE-HUAWEI/Drivers/BSP/IKS01A3\iks01a3_motion_sensors.c **** #if (USE_IKS01A3_MOTION_SENSOR_ISM330DHCX_0 == 1)
 648:D:/fchai/work/i-cube/I-CUBE-HUAWEI/Drivers/BSP/IKS01A3\iks01a3_motion_sensors.c ****     case IKS01A3_ISM330DHCX_0:
 649:D:/fchai/work/i-cube/I-CUBE-HUAWEI/Drivers/BSP/IKS01A3\iks01a3_motion_sensors.c ****       if (ISM330DHCX_0_Probe(Functions) != BSP_ERROR_NONE)
 650:D:/fchai/work/i-cube/I-CUBE-HUAWEI/Drivers/BSP/IKS01A3\iks01a3_motion_sensors.c ****       {
 651:D:/fchai/work/i-cube/I-CUBE-HUAWEI/Drivers/BSP/IKS01A3\iks01a3_motion_sensors.c ****         return BSP_ERROR_NO_INIT;
 652:D:/fchai/work/i-cube/I-CUBE-HUAWEI/Drivers/BSP/IKS01A3\iks01a3_motion_sensors.c ****       }
 653:D:/fchai/work/i-cube/I-CUBE-HUAWEI/Drivers/BSP/IKS01A3\iks01a3_motion_sensors.c ****       if (MotionDrv[Instance]->GetCapabilities(MotionCompObj[Instance], (void *)&cap) != BSP_ERROR_
 654:D:/fchai/work/i-cube/I-CUBE-HUAWEI/Drivers/BSP/IKS01A3\iks01a3_motion_sensors.c ****       {
 655:D:/fchai/work/i-cube/I-CUBE-HUAWEI/Drivers/BSP/IKS01A3\iks01a3_motion_sensors.c ****         return BSP_ERROR_UNKNOWN_COMPONENT;
 656:D:/fchai/work/i-cube/I-CUBE-HUAWEI/Drivers/BSP/IKS01A3\iks01a3_motion_sensors.c ****       }
 657:D:/fchai/work/i-cube/I-CUBE-HUAWEI/Drivers/BSP/IKS01A3\iks01a3_motion_sensors.c ****       if (cap.Acc == 1U)
 658:D:/fchai/work/i-cube/I-CUBE-HUAWEI/Drivers/BSP/IKS01A3\iks01a3_motion_sensors.c ****       {
 659:D:/fchai/work/i-cube/I-CUBE-HUAWEI/Drivers/BSP/IKS01A3\iks01a3_motion_sensors.c ****         component_functions |= MOTION_ACCELERO;
 660:D:/fchai/work/i-cube/I-CUBE-HUAWEI/Drivers/BSP/IKS01A3\iks01a3_motion_sensors.c ****       }
 661:D:/fchai/work/i-cube/I-CUBE-HUAWEI/Drivers/BSP/IKS01A3\iks01a3_motion_sensors.c ****       if (cap.Gyro == 1U)
 662:D:/fchai/work/i-cube/I-CUBE-HUAWEI/Drivers/BSP/IKS01A3\iks01a3_motion_sensors.c ****       {
 663:D:/fchai/work/i-cube/I-CUBE-HUAWEI/Drivers/BSP/IKS01A3\iks01a3_motion_sensors.c ****         component_functions |= MOTION_GYRO;
 664:D:/fchai/work/i-cube/I-CUBE-HUAWEI/Drivers/BSP/IKS01A3\iks01a3_motion_sensors.c ****       }
 665:D:/fchai/work/i-cube/I-CUBE-HUAWEI/Drivers/BSP/IKS01A3\iks01a3_motion_sensors.c ****       if (cap.Magneto == 1U)
 666:D:/fchai/work/i-cube/I-CUBE-HUAWEI/Drivers/BSP/IKS01A3\iks01a3_motion_sensors.c ****       {
 667:D:/fchai/work/i-cube/I-CUBE-HUAWEI/Drivers/BSP/IKS01A3\iks01a3_motion_sensors.c ****         component_functions |= MOTION_MAGNETO;
 668:D:/fchai/work/i-cube/I-CUBE-HUAWEI/Drivers/BSP/IKS01A3\iks01a3_motion_sensors.c ****       }
ARM GAS  T:\msys\tmp\ccgRcQCS.s 			page 14


 669:D:/fchai/work/i-cube/I-CUBE-HUAWEI/Drivers/BSP/IKS01A3\iks01a3_motion_sensors.c ****       break;
 670:D:/fchai/work/i-cube/I-CUBE-HUAWEI/Drivers/BSP/IKS01A3\iks01a3_motion_sensors.c **** #endif
 671:D:/fchai/work/i-cube/I-CUBE-HUAWEI/Drivers/BSP/IKS01A3\iks01a3_motion_sensors.c **** 
 672:D:/fchai/work/i-cube/I-CUBE-HUAWEI/Drivers/BSP/IKS01A3\iks01a3_motion_sensors.c ****     default:
 673:D:/fchai/work/i-cube/I-CUBE-HUAWEI/Drivers/BSP/IKS01A3\iks01a3_motion_sensors.c ****       ret = BSP_ERROR_WRONG_PARAM;
 674:D:/fchai/work/i-cube/I-CUBE-HUAWEI/Drivers/BSP/IKS01A3\iks01a3_motion_sensors.c ****       break;
 675:D:/fchai/work/i-cube/I-CUBE-HUAWEI/Drivers/BSP/IKS01A3\iks01a3_motion_sensors.c ****   }
 676:D:/fchai/work/i-cube/I-CUBE-HUAWEI/Drivers/BSP/IKS01A3\iks01a3_motion_sensors.c **** 
 677:D:/fchai/work/i-cube/I-CUBE-HUAWEI/Drivers/BSP/IKS01A3\iks01a3_motion_sensors.c ****   if (ret != BSP_ERROR_NONE)
 678:D:/fchai/work/i-cube/I-CUBE-HUAWEI/Drivers/BSP/IKS01A3\iks01a3_motion_sensors.c ****   {
 679:D:/fchai/work/i-cube/I-CUBE-HUAWEI/Drivers/BSP/IKS01A3\iks01a3_motion_sensors.c ****     return ret;
 680:D:/fchai/work/i-cube/I-CUBE-HUAWEI/Drivers/BSP/IKS01A3\iks01a3_motion_sensors.c ****   }
 681:D:/fchai/work/i-cube/I-CUBE-HUAWEI/Drivers/BSP/IKS01A3\iks01a3_motion_sensors.c **** 
 682:D:/fchai/work/i-cube/I-CUBE-HUAWEI/Drivers/BSP/IKS01A3\iks01a3_motion_sensors.c ****   for (i = 0; i < IKS01A3_MOTION_FUNCTIONS_NBR; i++)
 683:D:/fchai/work/i-cube/I-CUBE-HUAWEI/Drivers/BSP/IKS01A3\iks01a3_motion_sensors.c ****   {
 684:D:/fchai/work/i-cube/I-CUBE-HUAWEI/Drivers/BSP/IKS01A3\iks01a3_motion_sensors.c ****     if (((Functions & function) == function) && ((component_functions & function) == function))
 685:D:/fchai/work/i-cube/I-CUBE-HUAWEI/Drivers/BSP/IKS01A3\iks01a3_motion_sensors.c ****     {
 686:D:/fchai/work/i-cube/I-CUBE-HUAWEI/Drivers/BSP/IKS01A3\iks01a3_motion_sensors.c ****       if (MotionFuncDrv[Instance][FunctionIndex[function]]->Enable(MotionCompObj[Instance]) != BSP_
 687:D:/fchai/work/i-cube/I-CUBE-HUAWEI/Drivers/BSP/IKS01A3\iks01a3_motion_sensors.c ****       {
 688:D:/fchai/work/i-cube/I-CUBE-HUAWEI/Drivers/BSP/IKS01A3\iks01a3_motion_sensors.c ****         return BSP_ERROR_COMPONENT_FAILURE;
 689:D:/fchai/work/i-cube/I-CUBE-HUAWEI/Drivers/BSP/IKS01A3\iks01a3_motion_sensors.c ****       }
 690:D:/fchai/work/i-cube/I-CUBE-HUAWEI/Drivers/BSP/IKS01A3\iks01a3_motion_sensors.c ****     }
 691:D:/fchai/work/i-cube/I-CUBE-HUAWEI/Drivers/BSP/IKS01A3\iks01a3_motion_sensors.c ****     function = function << 1;
 692:D:/fchai/work/i-cube/I-CUBE-HUAWEI/Drivers/BSP/IKS01A3\iks01a3_motion_sensors.c ****   }
 693:D:/fchai/work/i-cube/I-CUBE-HUAWEI/Drivers/BSP/IKS01A3\iks01a3_motion_sensors.c **** 
 694:D:/fchai/work/i-cube/I-CUBE-HUAWEI/Drivers/BSP/IKS01A3\iks01a3_motion_sensors.c ****   return ret;
 695:D:/fchai/work/i-cube/I-CUBE-HUAWEI/Drivers/BSP/IKS01A3\iks01a3_motion_sensors.c **** }
  72              		.loc 1 695 1 view .LVU12
  73 001c 13B0     		add	sp, sp, #76
  74              	.LCFI2:
  75              		.cfi_remember_state
  76              		.cfi_def_cfa_offset 36
  77              		@ sp needed
  78 001e BDE8F08F 		pop	{r4, r5, r6, r7, r8, r9, r10, fp, pc}
  79              	.LVL2:
  80              	.L2:
  81              	.LCFI3:
  82              		.cfi_restore_state
 199:D:/fchai/work/i-cube/I-CUBE-HUAWEI/Drivers/BSP/IKS01A3\iks01a3_motion_sensors.c ****       {
  83              		.loc 1 199 7 is_stmt 1 view .LVU13
  84              	.LBB8:
  85              	.LBI8:
 696:D:/fchai/work/i-cube/I-CUBE-HUAWEI/Drivers/BSP/IKS01A3\iks01a3_motion_sensors.c **** 
 697:D:/fchai/work/i-cube/I-CUBE-HUAWEI/Drivers/BSP/IKS01A3\iks01a3_motion_sensors.c **** /**
 698:D:/fchai/work/i-cube/I-CUBE-HUAWEI/Drivers/BSP/IKS01A3\iks01a3_motion_sensors.c ****  * @brief  Deinitialize Motion sensor
 699:D:/fchai/work/i-cube/I-CUBE-HUAWEI/Drivers/BSP/IKS01A3\iks01a3_motion_sensors.c ****  * @param  Instance Motion sensor instance
 700:D:/fchai/work/i-cube/I-CUBE-HUAWEI/Drivers/BSP/IKS01A3\iks01a3_motion_sensors.c ****  * @retval BSP status
 701:D:/fchai/work/i-cube/I-CUBE-HUAWEI/Drivers/BSP/IKS01A3\iks01a3_motion_sensors.c ****  */
 702:D:/fchai/work/i-cube/I-CUBE-HUAWEI/Drivers/BSP/IKS01A3\iks01a3_motion_sensors.c **** int32_t IKS01A3_MOTION_SENSOR_DeInit(uint32_t Instance)
 703:D:/fchai/work/i-cube/I-CUBE-HUAWEI/Drivers/BSP/IKS01A3\iks01a3_motion_sensors.c **** {
 704:D:/fchai/work/i-cube/I-CUBE-HUAWEI/Drivers/BSP/IKS01A3\iks01a3_motion_sensors.c ****   int32_t ret;
 705:D:/fchai/work/i-cube/I-CUBE-HUAWEI/Drivers/BSP/IKS01A3\iks01a3_motion_sensors.c **** 
 706:D:/fchai/work/i-cube/I-CUBE-HUAWEI/Drivers/BSP/IKS01A3\iks01a3_motion_sensors.c ****   if (Instance >= IKS01A3_MOTION_INSTANCES_NBR)
 707:D:/fchai/work/i-cube/I-CUBE-HUAWEI/Drivers/BSP/IKS01A3\iks01a3_motion_sensors.c ****   {
 708:D:/fchai/work/i-cube/I-CUBE-HUAWEI/Drivers/BSP/IKS01A3\iks01a3_motion_sensors.c ****     ret = BSP_ERROR_WRONG_PARAM;
 709:D:/fchai/work/i-cube/I-CUBE-HUAWEI/Drivers/BSP/IKS01A3\iks01a3_motion_sensors.c ****   }
 710:D:/fchai/work/i-cube/I-CUBE-HUAWEI/Drivers/BSP/IKS01A3\iks01a3_motion_sensors.c ****   else if (MotionDrv[Instance]->DeInit(MotionCompObj[Instance]) != BSP_ERROR_NONE)
ARM GAS  T:\msys\tmp\ccgRcQCS.s 			page 15


 711:D:/fchai/work/i-cube/I-CUBE-HUAWEI/Drivers/BSP/IKS01A3\iks01a3_motion_sensors.c ****   {
 712:D:/fchai/work/i-cube/I-CUBE-HUAWEI/Drivers/BSP/IKS01A3\iks01a3_motion_sensors.c ****     ret = BSP_ERROR_COMPONENT_FAILURE;
 713:D:/fchai/work/i-cube/I-CUBE-HUAWEI/Drivers/BSP/IKS01A3\iks01a3_motion_sensors.c ****   }
 714:D:/fchai/work/i-cube/I-CUBE-HUAWEI/Drivers/BSP/IKS01A3\iks01a3_motion_sensors.c ****   else
 715:D:/fchai/work/i-cube/I-CUBE-HUAWEI/Drivers/BSP/IKS01A3\iks01a3_motion_sensors.c ****   {
 716:D:/fchai/work/i-cube/I-CUBE-HUAWEI/Drivers/BSP/IKS01A3\iks01a3_motion_sensors.c ****     ret = BSP_ERROR_NONE;
 717:D:/fchai/work/i-cube/I-CUBE-HUAWEI/Drivers/BSP/IKS01A3\iks01a3_motion_sensors.c ****   }
 718:D:/fchai/work/i-cube/I-CUBE-HUAWEI/Drivers/BSP/IKS01A3\iks01a3_motion_sensors.c **** 
 719:D:/fchai/work/i-cube/I-CUBE-HUAWEI/Drivers/BSP/IKS01A3\iks01a3_motion_sensors.c ****   return ret;
 720:D:/fchai/work/i-cube/I-CUBE-HUAWEI/Drivers/BSP/IKS01A3\iks01a3_motion_sensors.c **** }
 721:D:/fchai/work/i-cube/I-CUBE-HUAWEI/Drivers/BSP/IKS01A3\iks01a3_motion_sensors.c **** 
 722:D:/fchai/work/i-cube/I-CUBE-HUAWEI/Drivers/BSP/IKS01A3\iks01a3_motion_sensors.c **** /**
 723:D:/fchai/work/i-cube/I-CUBE-HUAWEI/Drivers/BSP/IKS01A3\iks01a3_motion_sensors.c ****  * @brief  Get motion sensor instance capabilities
 724:D:/fchai/work/i-cube/I-CUBE-HUAWEI/Drivers/BSP/IKS01A3\iks01a3_motion_sensors.c ****  * @param  Instance Motion sensor instance
 725:D:/fchai/work/i-cube/I-CUBE-HUAWEI/Drivers/BSP/IKS01A3\iks01a3_motion_sensors.c ****  * @param  Capabilities pointer to motion sensor capabilities
 726:D:/fchai/work/i-cube/I-CUBE-HUAWEI/Drivers/BSP/IKS01A3\iks01a3_motion_sensors.c ****  * @retval BSP status
 727:D:/fchai/work/i-cube/I-CUBE-HUAWEI/Drivers/BSP/IKS01A3\iks01a3_motion_sensors.c ****  */
 728:D:/fchai/work/i-cube/I-CUBE-HUAWEI/Drivers/BSP/IKS01A3\iks01a3_motion_sensors.c **** int32_t IKS01A3_MOTION_SENSOR_GetCapabilities(uint32_t Instance, IKS01A3_MOTION_SENSOR_Capabilities
 729:D:/fchai/work/i-cube/I-CUBE-HUAWEI/Drivers/BSP/IKS01A3\iks01a3_motion_sensors.c **** {
 730:D:/fchai/work/i-cube/I-CUBE-HUAWEI/Drivers/BSP/IKS01A3\iks01a3_motion_sensors.c ****   int32_t ret;
 731:D:/fchai/work/i-cube/I-CUBE-HUAWEI/Drivers/BSP/IKS01A3\iks01a3_motion_sensors.c **** 
 732:D:/fchai/work/i-cube/I-CUBE-HUAWEI/Drivers/BSP/IKS01A3\iks01a3_motion_sensors.c ****   if (Instance >= IKS01A3_MOTION_INSTANCES_NBR)
 733:D:/fchai/work/i-cube/I-CUBE-HUAWEI/Drivers/BSP/IKS01A3\iks01a3_motion_sensors.c ****   {
 734:D:/fchai/work/i-cube/I-CUBE-HUAWEI/Drivers/BSP/IKS01A3\iks01a3_motion_sensors.c ****     ret = BSP_ERROR_WRONG_PARAM;
 735:D:/fchai/work/i-cube/I-CUBE-HUAWEI/Drivers/BSP/IKS01A3\iks01a3_motion_sensors.c ****   }
 736:D:/fchai/work/i-cube/I-CUBE-HUAWEI/Drivers/BSP/IKS01A3\iks01a3_motion_sensors.c ****   else if (MotionDrv[Instance]->GetCapabilities(MotionCompObj[Instance], Capabilities) != BSP_ERROR
 737:D:/fchai/work/i-cube/I-CUBE-HUAWEI/Drivers/BSP/IKS01A3\iks01a3_motion_sensors.c ****   {
 738:D:/fchai/work/i-cube/I-CUBE-HUAWEI/Drivers/BSP/IKS01A3\iks01a3_motion_sensors.c ****     ret = BSP_ERROR_UNKNOWN_COMPONENT;
 739:D:/fchai/work/i-cube/I-CUBE-HUAWEI/Drivers/BSP/IKS01A3\iks01a3_motion_sensors.c ****   }
 740:D:/fchai/work/i-cube/I-CUBE-HUAWEI/Drivers/BSP/IKS01A3\iks01a3_motion_sensors.c ****   else
 741:D:/fchai/work/i-cube/I-CUBE-HUAWEI/Drivers/BSP/IKS01A3\iks01a3_motion_sensors.c ****   {
 742:D:/fchai/work/i-cube/I-CUBE-HUAWEI/Drivers/BSP/IKS01A3\iks01a3_motion_sensors.c ****     ret = BSP_ERROR_NONE;
 743:D:/fchai/work/i-cube/I-CUBE-HUAWEI/Drivers/BSP/IKS01A3\iks01a3_motion_sensors.c ****   }
 744:D:/fchai/work/i-cube/I-CUBE-HUAWEI/Drivers/BSP/IKS01A3\iks01a3_motion_sensors.c **** 
 745:D:/fchai/work/i-cube/I-CUBE-HUAWEI/Drivers/BSP/IKS01A3\iks01a3_motion_sensors.c ****   return ret;
 746:D:/fchai/work/i-cube/I-CUBE-HUAWEI/Drivers/BSP/IKS01A3\iks01a3_motion_sensors.c **** }
 747:D:/fchai/work/i-cube/I-CUBE-HUAWEI/Drivers/BSP/IKS01A3\iks01a3_motion_sensors.c **** 
 748:D:/fchai/work/i-cube/I-CUBE-HUAWEI/Drivers/BSP/IKS01A3\iks01a3_motion_sensors.c **** /**
 749:D:/fchai/work/i-cube/I-CUBE-HUAWEI/Drivers/BSP/IKS01A3\iks01a3_motion_sensors.c ****  * @brief  Get WHOAMI value
 750:D:/fchai/work/i-cube/I-CUBE-HUAWEI/Drivers/BSP/IKS01A3\iks01a3_motion_sensors.c ****  * @param  Instance Motion sensor instance
 751:D:/fchai/work/i-cube/I-CUBE-HUAWEI/Drivers/BSP/IKS01A3\iks01a3_motion_sensors.c ****  * @param  Id WHOAMI value
 752:D:/fchai/work/i-cube/I-CUBE-HUAWEI/Drivers/BSP/IKS01A3\iks01a3_motion_sensors.c ****  * @retval BSP status
 753:D:/fchai/work/i-cube/I-CUBE-HUAWEI/Drivers/BSP/IKS01A3\iks01a3_motion_sensors.c ****  */
 754:D:/fchai/work/i-cube/I-CUBE-HUAWEI/Drivers/BSP/IKS01A3\iks01a3_motion_sensors.c **** int32_t IKS01A3_MOTION_SENSOR_ReadID(uint32_t Instance, uint8_t *Id)
 755:D:/fchai/work/i-cube/I-CUBE-HUAWEI/Drivers/BSP/IKS01A3\iks01a3_motion_sensors.c **** {
 756:D:/fchai/work/i-cube/I-CUBE-HUAWEI/Drivers/BSP/IKS01A3\iks01a3_motion_sensors.c ****   int32_t ret;
 757:D:/fchai/work/i-cube/I-CUBE-HUAWEI/Drivers/BSP/IKS01A3\iks01a3_motion_sensors.c **** 
 758:D:/fchai/work/i-cube/I-CUBE-HUAWEI/Drivers/BSP/IKS01A3\iks01a3_motion_sensors.c ****   if (Instance >= IKS01A3_MOTION_INSTANCES_NBR)
 759:D:/fchai/work/i-cube/I-CUBE-HUAWEI/Drivers/BSP/IKS01A3\iks01a3_motion_sensors.c ****   {
 760:D:/fchai/work/i-cube/I-CUBE-HUAWEI/Drivers/BSP/IKS01A3\iks01a3_motion_sensors.c ****     ret = BSP_ERROR_WRONG_PARAM;
 761:D:/fchai/work/i-cube/I-CUBE-HUAWEI/Drivers/BSP/IKS01A3\iks01a3_motion_sensors.c ****   }
 762:D:/fchai/work/i-cube/I-CUBE-HUAWEI/Drivers/BSP/IKS01A3\iks01a3_motion_sensors.c ****   else if (MotionDrv[Instance]->ReadID(MotionCompObj[Instance], Id) != BSP_ERROR_NONE)
 763:D:/fchai/work/i-cube/I-CUBE-HUAWEI/Drivers/BSP/IKS01A3\iks01a3_motion_sensors.c ****   {
 764:D:/fchai/work/i-cube/I-CUBE-HUAWEI/Drivers/BSP/IKS01A3\iks01a3_motion_sensors.c ****     ret = BSP_ERROR_UNKNOWN_COMPONENT;
 765:D:/fchai/work/i-cube/I-CUBE-HUAWEI/Drivers/BSP/IKS01A3\iks01a3_motion_sensors.c ****   }
 766:D:/fchai/work/i-cube/I-CUBE-HUAWEI/Drivers/BSP/IKS01A3\iks01a3_motion_sensors.c ****   else
 767:D:/fchai/work/i-cube/I-CUBE-HUAWEI/Drivers/BSP/IKS01A3\iks01a3_motion_sensors.c ****   {
ARM GAS  T:\msys\tmp\ccgRcQCS.s 			page 16


 768:D:/fchai/work/i-cube/I-CUBE-HUAWEI/Drivers/BSP/IKS01A3\iks01a3_motion_sensors.c ****     ret = BSP_ERROR_NONE;
 769:D:/fchai/work/i-cube/I-CUBE-HUAWEI/Drivers/BSP/IKS01A3\iks01a3_motion_sensors.c ****   }
 770:D:/fchai/work/i-cube/I-CUBE-HUAWEI/Drivers/BSP/IKS01A3\iks01a3_motion_sensors.c **** 
 771:D:/fchai/work/i-cube/I-CUBE-HUAWEI/Drivers/BSP/IKS01A3\iks01a3_motion_sensors.c ****   return ret;
 772:D:/fchai/work/i-cube/I-CUBE-HUAWEI/Drivers/BSP/IKS01A3\iks01a3_motion_sensors.c **** }
 773:D:/fchai/work/i-cube/I-CUBE-HUAWEI/Drivers/BSP/IKS01A3\iks01a3_motion_sensors.c **** 
 774:D:/fchai/work/i-cube/I-CUBE-HUAWEI/Drivers/BSP/IKS01A3\iks01a3_motion_sensors.c **** /**
 775:D:/fchai/work/i-cube/I-CUBE-HUAWEI/Drivers/BSP/IKS01A3\iks01a3_motion_sensors.c ****  * @brief  Enable Motion sensor
 776:D:/fchai/work/i-cube/I-CUBE-HUAWEI/Drivers/BSP/IKS01A3\iks01a3_motion_sensors.c ****  * @param  Instance Motion sensor instance
 777:D:/fchai/work/i-cube/I-CUBE-HUAWEI/Drivers/BSP/IKS01A3\iks01a3_motion_sensors.c ****  * @param  Function Motion sensor function. Could be :
 778:D:/fchai/work/i-cube/I-CUBE-HUAWEI/Drivers/BSP/IKS01A3\iks01a3_motion_sensors.c ****  *         - MOTION_GYRO and/or MOTION_ACCELERO for instance 0
 779:D:/fchai/work/i-cube/I-CUBE-HUAWEI/Drivers/BSP/IKS01A3\iks01a3_motion_sensors.c ****  *         - MOTION_ACCELERO for instance 1
 780:D:/fchai/work/i-cube/I-CUBE-HUAWEI/Drivers/BSP/IKS01A3\iks01a3_motion_sensors.c ****  *         - MOTION_MAGNETO for instance 2
 781:D:/fchai/work/i-cube/I-CUBE-HUAWEI/Drivers/BSP/IKS01A3\iks01a3_motion_sensors.c ****  * @retval BSP status
 782:D:/fchai/work/i-cube/I-CUBE-HUAWEI/Drivers/BSP/IKS01A3\iks01a3_motion_sensors.c ****  */
 783:D:/fchai/work/i-cube/I-CUBE-HUAWEI/Drivers/BSP/IKS01A3\iks01a3_motion_sensors.c **** int32_t IKS01A3_MOTION_SENSOR_Enable(uint32_t Instance, uint32_t Function)
 784:D:/fchai/work/i-cube/I-CUBE-HUAWEI/Drivers/BSP/IKS01A3\iks01a3_motion_sensors.c **** {
 785:D:/fchai/work/i-cube/I-CUBE-HUAWEI/Drivers/BSP/IKS01A3\iks01a3_motion_sensors.c ****   int32_t ret;
 786:D:/fchai/work/i-cube/I-CUBE-HUAWEI/Drivers/BSP/IKS01A3\iks01a3_motion_sensors.c **** 
 787:D:/fchai/work/i-cube/I-CUBE-HUAWEI/Drivers/BSP/IKS01A3\iks01a3_motion_sensors.c ****   if (Instance >= IKS01A3_MOTION_INSTANCES_NBR)
 788:D:/fchai/work/i-cube/I-CUBE-HUAWEI/Drivers/BSP/IKS01A3\iks01a3_motion_sensors.c ****   {
 789:D:/fchai/work/i-cube/I-CUBE-HUAWEI/Drivers/BSP/IKS01A3\iks01a3_motion_sensors.c ****     ret = BSP_ERROR_WRONG_PARAM;
 790:D:/fchai/work/i-cube/I-CUBE-HUAWEI/Drivers/BSP/IKS01A3\iks01a3_motion_sensors.c ****   }
 791:D:/fchai/work/i-cube/I-CUBE-HUAWEI/Drivers/BSP/IKS01A3\iks01a3_motion_sensors.c ****   else
 792:D:/fchai/work/i-cube/I-CUBE-HUAWEI/Drivers/BSP/IKS01A3\iks01a3_motion_sensors.c ****   {
 793:D:/fchai/work/i-cube/I-CUBE-HUAWEI/Drivers/BSP/IKS01A3\iks01a3_motion_sensors.c ****     if ((MotionCtx[Instance].Functions & Function) == Function)
 794:D:/fchai/work/i-cube/I-CUBE-HUAWEI/Drivers/BSP/IKS01A3\iks01a3_motion_sensors.c ****     {
 795:D:/fchai/work/i-cube/I-CUBE-HUAWEI/Drivers/BSP/IKS01A3\iks01a3_motion_sensors.c ****       if (MotionFuncDrv[Instance][FunctionIndex[Function]]->Enable(MotionCompObj[Instance]) != BSP_
 796:D:/fchai/work/i-cube/I-CUBE-HUAWEI/Drivers/BSP/IKS01A3\iks01a3_motion_sensors.c ****       {
 797:D:/fchai/work/i-cube/I-CUBE-HUAWEI/Drivers/BSP/IKS01A3\iks01a3_motion_sensors.c ****         ret = BSP_ERROR_COMPONENT_FAILURE;
 798:D:/fchai/work/i-cube/I-CUBE-HUAWEI/Drivers/BSP/IKS01A3\iks01a3_motion_sensors.c ****       }
 799:D:/fchai/work/i-cube/I-CUBE-HUAWEI/Drivers/BSP/IKS01A3\iks01a3_motion_sensors.c ****       else
 800:D:/fchai/work/i-cube/I-CUBE-HUAWEI/Drivers/BSP/IKS01A3\iks01a3_motion_sensors.c ****       {
 801:D:/fchai/work/i-cube/I-CUBE-HUAWEI/Drivers/BSP/IKS01A3\iks01a3_motion_sensors.c ****         ret = BSP_ERROR_NONE;
 802:D:/fchai/work/i-cube/I-CUBE-HUAWEI/Drivers/BSP/IKS01A3\iks01a3_motion_sensors.c ****       }
 803:D:/fchai/work/i-cube/I-CUBE-HUAWEI/Drivers/BSP/IKS01A3\iks01a3_motion_sensors.c ****     }
 804:D:/fchai/work/i-cube/I-CUBE-HUAWEI/Drivers/BSP/IKS01A3\iks01a3_motion_sensors.c ****     else
 805:D:/fchai/work/i-cube/I-CUBE-HUAWEI/Drivers/BSP/IKS01A3\iks01a3_motion_sensors.c ****     {
 806:D:/fchai/work/i-cube/I-CUBE-HUAWEI/Drivers/BSP/IKS01A3\iks01a3_motion_sensors.c ****       ret = BSP_ERROR_WRONG_PARAM;
 807:D:/fchai/work/i-cube/I-CUBE-HUAWEI/Drivers/BSP/IKS01A3\iks01a3_motion_sensors.c ****     }
 808:D:/fchai/work/i-cube/I-CUBE-HUAWEI/Drivers/BSP/IKS01A3\iks01a3_motion_sensors.c ****   }
 809:D:/fchai/work/i-cube/I-CUBE-HUAWEI/Drivers/BSP/IKS01A3\iks01a3_motion_sensors.c **** 
 810:D:/fchai/work/i-cube/I-CUBE-HUAWEI/Drivers/BSP/IKS01A3\iks01a3_motion_sensors.c ****   return ret;
 811:D:/fchai/work/i-cube/I-CUBE-HUAWEI/Drivers/BSP/IKS01A3\iks01a3_motion_sensors.c **** }
 812:D:/fchai/work/i-cube/I-CUBE-HUAWEI/Drivers/BSP/IKS01A3\iks01a3_motion_sensors.c **** 
 813:D:/fchai/work/i-cube/I-CUBE-HUAWEI/Drivers/BSP/IKS01A3\iks01a3_motion_sensors.c **** /**
 814:D:/fchai/work/i-cube/I-CUBE-HUAWEI/Drivers/BSP/IKS01A3\iks01a3_motion_sensors.c ****  * @brief  Disable Motion sensor
 815:D:/fchai/work/i-cube/I-CUBE-HUAWEI/Drivers/BSP/IKS01A3\iks01a3_motion_sensors.c ****  * @param  Instance Motion sensor instance
 816:D:/fchai/work/i-cube/I-CUBE-HUAWEI/Drivers/BSP/IKS01A3\iks01a3_motion_sensors.c ****  * @param  Function Motion sensor function. Could be :
 817:D:/fchai/work/i-cube/I-CUBE-HUAWEI/Drivers/BSP/IKS01A3\iks01a3_motion_sensors.c ****  *         - MOTION_GYRO and/or MOTION_ACCELERO for instance 0
 818:D:/fchai/work/i-cube/I-CUBE-HUAWEI/Drivers/BSP/IKS01A3\iks01a3_motion_sensors.c ****  *         - MOTION_ACCELERO for instance 1
 819:D:/fchai/work/i-cube/I-CUBE-HUAWEI/Drivers/BSP/IKS01A3\iks01a3_motion_sensors.c ****  *         - MOTION_MAGNETO for instance 2
 820:D:/fchai/work/i-cube/I-CUBE-HUAWEI/Drivers/BSP/IKS01A3\iks01a3_motion_sensors.c ****  * @retval BSP status
 821:D:/fchai/work/i-cube/I-CUBE-HUAWEI/Drivers/BSP/IKS01A3\iks01a3_motion_sensors.c ****  */
 822:D:/fchai/work/i-cube/I-CUBE-HUAWEI/Drivers/BSP/IKS01A3\iks01a3_motion_sensors.c **** int32_t IKS01A3_MOTION_SENSOR_Disable(uint32_t Instance, uint32_t Function)
 823:D:/fchai/work/i-cube/I-CUBE-HUAWEI/Drivers/BSP/IKS01A3\iks01a3_motion_sensors.c **** {
 824:D:/fchai/work/i-cube/I-CUBE-HUAWEI/Drivers/BSP/IKS01A3\iks01a3_motion_sensors.c ****   int32_t ret;
ARM GAS  T:\msys\tmp\ccgRcQCS.s 			page 17


 825:D:/fchai/work/i-cube/I-CUBE-HUAWEI/Drivers/BSP/IKS01A3\iks01a3_motion_sensors.c **** 
 826:D:/fchai/work/i-cube/I-CUBE-HUAWEI/Drivers/BSP/IKS01A3\iks01a3_motion_sensors.c ****   if (Instance >= IKS01A3_MOTION_INSTANCES_NBR)
 827:D:/fchai/work/i-cube/I-CUBE-HUAWEI/Drivers/BSP/IKS01A3\iks01a3_motion_sensors.c ****   {
 828:D:/fchai/work/i-cube/I-CUBE-HUAWEI/Drivers/BSP/IKS01A3\iks01a3_motion_sensors.c ****     ret = BSP_ERROR_WRONG_PARAM;
 829:D:/fchai/work/i-cube/I-CUBE-HUAWEI/Drivers/BSP/IKS01A3\iks01a3_motion_sensors.c ****   }
 830:D:/fchai/work/i-cube/I-CUBE-HUAWEI/Drivers/BSP/IKS01A3\iks01a3_motion_sensors.c ****   else
 831:D:/fchai/work/i-cube/I-CUBE-HUAWEI/Drivers/BSP/IKS01A3\iks01a3_motion_sensors.c ****   {
 832:D:/fchai/work/i-cube/I-CUBE-HUAWEI/Drivers/BSP/IKS01A3\iks01a3_motion_sensors.c ****     if ((MotionCtx[Instance].Functions & Function) == Function)
 833:D:/fchai/work/i-cube/I-CUBE-HUAWEI/Drivers/BSP/IKS01A3\iks01a3_motion_sensors.c ****     {
 834:D:/fchai/work/i-cube/I-CUBE-HUAWEI/Drivers/BSP/IKS01A3\iks01a3_motion_sensors.c ****       if (MotionFuncDrv[Instance][FunctionIndex[Function]]->Disable(MotionCompObj[Instance]) != BSP
 835:D:/fchai/work/i-cube/I-CUBE-HUAWEI/Drivers/BSP/IKS01A3\iks01a3_motion_sensors.c ****       {
 836:D:/fchai/work/i-cube/I-CUBE-HUAWEI/Drivers/BSP/IKS01A3\iks01a3_motion_sensors.c ****         ret = BSP_ERROR_COMPONENT_FAILURE;
 837:D:/fchai/work/i-cube/I-CUBE-HUAWEI/Drivers/BSP/IKS01A3\iks01a3_motion_sensors.c ****       }
 838:D:/fchai/work/i-cube/I-CUBE-HUAWEI/Drivers/BSP/IKS01A3\iks01a3_motion_sensors.c ****       else
 839:D:/fchai/work/i-cube/I-CUBE-HUAWEI/Drivers/BSP/IKS01A3\iks01a3_motion_sensors.c ****       {
 840:D:/fchai/work/i-cube/I-CUBE-HUAWEI/Drivers/BSP/IKS01A3\iks01a3_motion_sensors.c ****         ret = BSP_ERROR_NONE;
 841:D:/fchai/work/i-cube/I-CUBE-HUAWEI/Drivers/BSP/IKS01A3\iks01a3_motion_sensors.c ****       }
 842:D:/fchai/work/i-cube/I-CUBE-HUAWEI/Drivers/BSP/IKS01A3\iks01a3_motion_sensors.c ****     }
 843:D:/fchai/work/i-cube/I-CUBE-HUAWEI/Drivers/BSP/IKS01A3\iks01a3_motion_sensors.c ****     else
 844:D:/fchai/work/i-cube/I-CUBE-HUAWEI/Drivers/BSP/IKS01A3\iks01a3_motion_sensors.c ****     {
 845:D:/fchai/work/i-cube/I-CUBE-HUAWEI/Drivers/BSP/IKS01A3\iks01a3_motion_sensors.c ****       ret = BSP_ERROR_WRONG_PARAM;
 846:D:/fchai/work/i-cube/I-CUBE-HUAWEI/Drivers/BSP/IKS01A3\iks01a3_motion_sensors.c ****     }
 847:D:/fchai/work/i-cube/I-CUBE-HUAWEI/Drivers/BSP/IKS01A3\iks01a3_motion_sensors.c ****   }
 848:D:/fchai/work/i-cube/I-CUBE-HUAWEI/Drivers/BSP/IKS01A3\iks01a3_motion_sensors.c **** 
 849:D:/fchai/work/i-cube/I-CUBE-HUAWEI/Drivers/BSP/IKS01A3\iks01a3_motion_sensors.c ****   return ret;
 850:D:/fchai/work/i-cube/I-CUBE-HUAWEI/Drivers/BSP/IKS01A3\iks01a3_motion_sensors.c **** }
 851:D:/fchai/work/i-cube/I-CUBE-HUAWEI/Drivers/BSP/IKS01A3\iks01a3_motion_sensors.c **** 
 852:D:/fchai/work/i-cube/I-CUBE-HUAWEI/Drivers/BSP/IKS01A3\iks01a3_motion_sensors.c **** /**
 853:D:/fchai/work/i-cube/I-CUBE-HUAWEI/Drivers/BSP/IKS01A3\iks01a3_motion_sensors.c ****  * @brief  Get motion sensor axes data
 854:D:/fchai/work/i-cube/I-CUBE-HUAWEI/Drivers/BSP/IKS01A3\iks01a3_motion_sensors.c ****  * @param  Instance Motion sensor instance
 855:D:/fchai/work/i-cube/I-CUBE-HUAWEI/Drivers/BSP/IKS01A3\iks01a3_motion_sensors.c ****  * @param  Function Motion sensor function. Could be :
 856:D:/fchai/work/i-cube/I-CUBE-HUAWEI/Drivers/BSP/IKS01A3\iks01a3_motion_sensors.c ****  *         - MOTION_GYRO and/or MOTION_ACCELERO for instance 0
 857:D:/fchai/work/i-cube/I-CUBE-HUAWEI/Drivers/BSP/IKS01A3\iks01a3_motion_sensors.c ****  *         - MOTION_ACCELERO for instance 1
 858:D:/fchai/work/i-cube/I-CUBE-HUAWEI/Drivers/BSP/IKS01A3\iks01a3_motion_sensors.c ****  *         - MOTION_MAGNETO for instance 2
 859:D:/fchai/work/i-cube/I-CUBE-HUAWEI/Drivers/BSP/IKS01A3\iks01a3_motion_sensors.c ****  * @param  Axes pointer to axes data structure
 860:D:/fchai/work/i-cube/I-CUBE-HUAWEI/Drivers/BSP/IKS01A3\iks01a3_motion_sensors.c ****  * @retval BSP status
 861:D:/fchai/work/i-cube/I-CUBE-HUAWEI/Drivers/BSP/IKS01A3\iks01a3_motion_sensors.c ****  */
 862:D:/fchai/work/i-cube/I-CUBE-HUAWEI/Drivers/BSP/IKS01A3\iks01a3_motion_sensors.c **** int32_t IKS01A3_MOTION_SENSOR_GetAxes(uint32_t Instance, uint32_t Function, IKS01A3_MOTION_SENSOR_A
 863:D:/fchai/work/i-cube/I-CUBE-HUAWEI/Drivers/BSP/IKS01A3\iks01a3_motion_sensors.c **** {
 864:D:/fchai/work/i-cube/I-CUBE-HUAWEI/Drivers/BSP/IKS01A3\iks01a3_motion_sensors.c ****   int32_t ret;
 865:D:/fchai/work/i-cube/I-CUBE-HUAWEI/Drivers/BSP/IKS01A3\iks01a3_motion_sensors.c **** 
 866:D:/fchai/work/i-cube/I-CUBE-HUAWEI/Drivers/BSP/IKS01A3\iks01a3_motion_sensors.c ****   if (Instance >= IKS01A3_MOTION_INSTANCES_NBR)
 867:D:/fchai/work/i-cube/I-CUBE-HUAWEI/Drivers/BSP/IKS01A3\iks01a3_motion_sensors.c ****   {
 868:D:/fchai/work/i-cube/I-CUBE-HUAWEI/Drivers/BSP/IKS01A3\iks01a3_motion_sensors.c ****     ret = BSP_ERROR_WRONG_PARAM;
 869:D:/fchai/work/i-cube/I-CUBE-HUAWEI/Drivers/BSP/IKS01A3\iks01a3_motion_sensors.c ****   }
 870:D:/fchai/work/i-cube/I-CUBE-HUAWEI/Drivers/BSP/IKS01A3\iks01a3_motion_sensors.c ****   else
 871:D:/fchai/work/i-cube/I-CUBE-HUAWEI/Drivers/BSP/IKS01A3\iks01a3_motion_sensors.c ****   {
 872:D:/fchai/work/i-cube/I-CUBE-HUAWEI/Drivers/BSP/IKS01A3\iks01a3_motion_sensors.c ****     if ((MotionCtx[Instance].Functions & Function) == Function)
 873:D:/fchai/work/i-cube/I-CUBE-HUAWEI/Drivers/BSP/IKS01A3\iks01a3_motion_sensors.c ****     {
 874:D:/fchai/work/i-cube/I-CUBE-HUAWEI/Drivers/BSP/IKS01A3\iks01a3_motion_sensors.c ****       if (MotionFuncDrv[Instance][FunctionIndex[Function]]->GetAxes(MotionCompObj[Instance], Axes) 
 875:D:/fchai/work/i-cube/I-CUBE-HUAWEI/Drivers/BSP/IKS01A3\iks01a3_motion_sensors.c ****       {
 876:D:/fchai/work/i-cube/I-CUBE-HUAWEI/Drivers/BSP/IKS01A3\iks01a3_motion_sensors.c ****         ret = BSP_ERROR_COMPONENT_FAILURE;
 877:D:/fchai/work/i-cube/I-CUBE-HUAWEI/Drivers/BSP/IKS01A3\iks01a3_motion_sensors.c ****       }
 878:D:/fchai/work/i-cube/I-CUBE-HUAWEI/Drivers/BSP/IKS01A3\iks01a3_motion_sensors.c ****       else
 879:D:/fchai/work/i-cube/I-CUBE-HUAWEI/Drivers/BSP/IKS01A3\iks01a3_motion_sensors.c ****       {
 880:D:/fchai/work/i-cube/I-CUBE-HUAWEI/Drivers/BSP/IKS01A3\iks01a3_motion_sensors.c ****         ret = BSP_ERROR_NONE;
 881:D:/fchai/work/i-cube/I-CUBE-HUAWEI/Drivers/BSP/IKS01A3\iks01a3_motion_sensors.c ****       }
ARM GAS  T:\msys\tmp\ccgRcQCS.s 			page 18


 882:D:/fchai/work/i-cube/I-CUBE-HUAWEI/Drivers/BSP/IKS01A3\iks01a3_motion_sensors.c ****     }
 883:D:/fchai/work/i-cube/I-CUBE-HUAWEI/Drivers/BSP/IKS01A3\iks01a3_motion_sensors.c ****     else
 884:D:/fchai/work/i-cube/I-CUBE-HUAWEI/Drivers/BSP/IKS01A3\iks01a3_motion_sensors.c ****     {
 885:D:/fchai/work/i-cube/I-CUBE-HUAWEI/Drivers/BSP/IKS01A3\iks01a3_motion_sensors.c ****       ret = BSP_ERROR_WRONG_PARAM;
 886:D:/fchai/work/i-cube/I-CUBE-HUAWEI/Drivers/BSP/IKS01A3\iks01a3_motion_sensors.c ****     }
 887:D:/fchai/work/i-cube/I-CUBE-HUAWEI/Drivers/BSP/IKS01A3\iks01a3_motion_sensors.c ****   }
 888:D:/fchai/work/i-cube/I-CUBE-HUAWEI/Drivers/BSP/IKS01A3\iks01a3_motion_sensors.c **** 
 889:D:/fchai/work/i-cube/I-CUBE-HUAWEI/Drivers/BSP/IKS01A3\iks01a3_motion_sensors.c ****   return ret;
 890:D:/fchai/work/i-cube/I-CUBE-HUAWEI/Drivers/BSP/IKS01A3\iks01a3_motion_sensors.c **** }
 891:D:/fchai/work/i-cube/I-CUBE-HUAWEI/Drivers/BSP/IKS01A3\iks01a3_motion_sensors.c **** 
 892:D:/fchai/work/i-cube/I-CUBE-HUAWEI/Drivers/BSP/IKS01A3\iks01a3_motion_sensors.c **** /**
 893:D:/fchai/work/i-cube/I-CUBE-HUAWEI/Drivers/BSP/IKS01A3\iks01a3_motion_sensors.c ****  * @brief  Get motion sensor axes raw data
 894:D:/fchai/work/i-cube/I-CUBE-HUAWEI/Drivers/BSP/IKS01A3\iks01a3_motion_sensors.c ****  * @param  Instance Motion sensor instance
 895:D:/fchai/work/i-cube/I-CUBE-HUAWEI/Drivers/BSP/IKS01A3\iks01a3_motion_sensors.c ****  * @param  Function Motion sensor function. Could be :
 896:D:/fchai/work/i-cube/I-CUBE-HUAWEI/Drivers/BSP/IKS01A3\iks01a3_motion_sensors.c ****  *         - MOTION_GYRO and/or MOTION_ACCELERO for instance 0
 897:D:/fchai/work/i-cube/I-CUBE-HUAWEI/Drivers/BSP/IKS01A3\iks01a3_motion_sensors.c ****  *         - MOTION_ACCELERO for instance 1
 898:D:/fchai/work/i-cube/I-CUBE-HUAWEI/Drivers/BSP/IKS01A3\iks01a3_motion_sensors.c ****  *         - MOTION_MAGNETO for instance 2
 899:D:/fchai/work/i-cube/I-CUBE-HUAWEI/Drivers/BSP/IKS01A3\iks01a3_motion_sensors.c ****  * @param  Axes pointer to axes raw data structure
 900:D:/fchai/work/i-cube/I-CUBE-HUAWEI/Drivers/BSP/IKS01A3\iks01a3_motion_sensors.c ****  * @retval BSP status
 901:D:/fchai/work/i-cube/I-CUBE-HUAWEI/Drivers/BSP/IKS01A3\iks01a3_motion_sensors.c ****  */
 902:D:/fchai/work/i-cube/I-CUBE-HUAWEI/Drivers/BSP/IKS01A3\iks01a3_motion_sensors.c **** int32_t IKS01A3_MOTION_SENSOR_GetAxesRaw(uint32_t Instance, uint32_t Function, IKS01A3_MOTION_SENSO
 903:D:/fchai/work/i-cube/I-CUBE-HUAWEI/Drivers/BSP/IKS01A3\iks01a3_motion_sensors.c **** {
 904:D:/fchai/work/i-cube/I-CUBE-HUAWEI/Drivers/BSP/IKS01A3\iks01a3_motion_sensors.c ****   int32_t ret;
 905:D:/fchai/work/i-cube/I-CUBE-HUAWEI/Drivers/BSP/IKS01A3\iks01a3_motion_sensors.c **** 
 906:D:/fchai/work/i-cube/I-CUBE-HUAWEI/Drivers/BSP/IKS01A3\iks01a3_motion_sensors.c ****   if (Instance >= IKS01A3_MOTION_INSTANCES_NBR)
 907:D:/fchai/work/i-cube/I-CUBE-HUAWEI/Drivers/BSP/IKS01A3\iks01a3_motion_sensors.c ****   {
 908:D:/fchai/work/i-cube/I-CUBE-HUAWEI/Drivers/BSP/IKS01A3\iks01a3_motion_sensors.c ****     ret = BSP_ERROR_WRONG_PARAM;
 909:D:/fchai/work/i-cube/I-CUBE-HUAWEI/Drivers/BSP/IKS01A3\iks01a3_motion_sensors.c ****   }
 910:D:/fchai/work/i-cube/I-CUBE-HUAWEI/Drivers/BSP/IKS01A3\iks01a3_motion_sensors.c ****   else
 911:D:/fchai/work/i-cube/I-CUBE-HUAWEI/Drivers/BSP/IKS01A3\iks01a3_motion_sensors.c ****   {
 912:D:/fchai/work/i-cube/I-CUBE-HUAWEI/Drivers/BSP/IKS01A3\iks01a3_motion_sensors.c ****     if ((MotionCtx[Instance].Functions & Function) == Function)
 913:D:/fchai/work/i-cube/I-CUBE-HUAWEI/Drivers/BSP/IKS01A3\iks01a3_motion_sensors.c ****     {
 914:D:/fchai/work/i-cube/I-CUBE-HUAWEI/Drivers/BSP/IKS01A3\iks01a3_motion_sensors.c ****       if (MotionFuncDrv[Instance][FunctionIndex[Function]]->GetAxesRaw(MotionCompObj[Instance], Axe
 915:D:/fchai/work/i-cube/I-CUBE-HUAWEI/Drivers/BSP/IKS01A3\iks01a3_motion_sensors.c ****       {
 916:D:/fchai/work/i-cube/I-CUBE-HUAWEI/Drivers/BSP/IKS01A3\iks01a3_motion_sensors.c ****         ret = BSP_ERROR_COMPONENT_FAILURE;
 917:D:/fchai/work/i-cube/I-CUBE-HUAWEI/Drivers/BSP/IKS01A3\iks01a3_motion_sensors.c ****       }
 918:D:/fchai/work/i-cube/I-CUBE-HUAWEI/Drivers/BSP/IKS01A3\iks01a3_motion_sensors.c ****       else
 919:D:/fchai/work/i-cube/I-CUBE-HUAWEI/Drivers/BSP/IKS01A3\iks01a3_motion_sensors.c ****       {
 920:D:/fchai/work/i-cube/I-CUBE-HUAWEI/Drivers/BSP/IKS01A3\iks01a3_motion_sensors.c ****         ret = BSP_ERROR_NONE;
 921:D:/fchai/work/i-cube/I-CUBE-HUAWEI/Drivers/BSP/IKS01A3\iks01a3_motion_sensors.c ****       }
 922:D:/fchai/work/i-cube/I-CUBE-HUAWEI/Drivers/BSP/IKS01A3\iks01a3_motion_sensors.c ****     }
 923:D:/fchai/work/i-cube/I-CUBE-HUAWEI/Drivers/BSP/IKS01A3\iks01a3_motion_sensors.c ****     else
 924:D:/fchai/work/i-cube/I-CUBE-HUAWEI/Drivers/BSP/IKS01A3\iks01a3_motion_sensors.c ****     {
 925:D:/fchai/work/i-cube/I-CUBE-HUAWEI/Drivers/BSP/IKS01A3\iks01a3_motion_sensors.c ****       ret = BSP_ERROR_WRONG_PARAM;
 926:D:/fchai/work/i-cube/I-CUBE-HUAWEI/Drivers/BSP/IKS01A3\iks01a3_motion_sensors.c ****     }
 927:D:/fchai/work/i-cube/I-CUBE-HUAWEI/Drivers/BSP/IKS01A3\iks01a3_motion_sensors.c ****   }
 928:D:/fchai/work/i-cube/I-CUBE-HUAWEI/Drivers/BSP/IKS01A3\iks01a3_motion_sensors.c **** 
 929:D:/fchai/work/i-cube/I-CUBE-HUAWEI/Drivers/BSP/IKS01A3\iks01a3_motion_sensors.c ****   return ret;
 930:D:/fchai/work/i-cube/I-CUBE-HUAWEI/Drivers/BSP/IKS01A3\iks01a3_motion_sensors.c **** }
 931:D:/fchai/work/i-cube/I-CUBE-HUAWEI/Drivers/BSP/IKS01A3\iks01a3_motion_sensors.c **** 
 932:D:/fchai/work/i-cube/I-CUBE-HUAWEI/Drivers/BSP/IKS01A3\iks01a3_motion_sensors.c **** /**
 933:D:/fchai/work/i-cube/I-CUBE-HUAWEI/Drivers/BSP/IKS01A3\iks01a3_motion_sensors.c ****  * @brief  Get motion sensor sensitivity
 934:D:/fchai/work/i-cube/I-CUBE-HUAWEI/Drivers/BSP/IKS01A3\iks01a3_motion_sensors.c ****  * @param  Instance Motion sensor instance
 935:D:/fchai/work/i-cube/I-CUBE-HUAWEI/Drivers/BSP/IKS01A3\iks01a3_motion_sensors.c ****  * @param  Function Motion sensor function. Could be :
 936:D:/fchai/work/i-cube/I-CUBE-HUAWEI/Drivers/BSP/IKS01A3\iks01a3_motion_sensors.c ****  *         - MOTION_GYRO and/or MOTION_ACCELERO for instance 0
 937:D:/fchai/work/i-cube/I-CUBE-HUAWEI/Drivers/BSP/IKS01A3\iks01a3_motion_sensors.c ****  *         - MOTION_ACCELERO for instance 1
 938:D:/fchai/work/i-cube/I-CUBE-HUAWEI/Drivers/BSP/IKS01A3\iks01a3_motion_sensors.c ****  *         - MOTION_MAGNETO for instance 2
ARM GAS  T:\msys\tmp\ccgRcQCS.s 			page 19


 939:D:/fchai/work/i-cube/I-CUBE-HUAWEI/Drivers/BSP/IKS01A3\iks01a3_motion_sensors.c ****  * @param  Sensitivity pointer to sensitivity read value
 940:D:/fchai/work/i-cube/I-CUBE-HUAWEI/Drivers/BSP/IKS01A3\iks01a3_motion_sensors.c ****  * @retval BSP status
 941:D:/fchai/work/i-cube/I-CUBE-HUAWEI/Drivers/BSP/IKS01A3\iks01a3_motion_sensors.c ****  */
 942:D:/fchai/work/i-cube/I-CUBE-HUAWEI/Drivers/BSP/IKS01A3\iks01a3_motion_sensors.c **** int32_t IKS01A3_MOTION_SENSOR_GetSensitivity(uint32_t Instance, uint32_t Function, float *Sensitivi
 943:D:/fchai/work/i-cube/I-CUBE-HUAWEI/Drivers/BSP/IKS01A3\iks01a3_motion_sensors.c **** {
 944:D:/fchai/work/i-cube/I-CUBE-HUAWEI/Drivers/BSP/IKS01A3\iks01a3_motion_sensors.c ****   int32_t ret;
 945:D:/fchai/work/i-cube/I-CUBE-HUAWEI/Drivers/BSP/IKS01A3\iks01a3_motion_sensors.c **** 
 946:D:/fchai/work/i-cube/I-CUBE-HUAWEI/Drivers/BSP/IKS01A3\iks01a3_motion_sensors.c ****   if (Instance >= IKS01A3_MOTION_INSTANCES_NBR)
 947:D:/fchai/work/i-cube/I-CUBE-HUAWEI/Drivers/BSP/IKS01A3\iks01a3_motion_sensors.c ****   {
 948:D:/fchai/work/i-cube/I-CUBE-HUAWEI/Drivers/BSP/IKS01A3\iks01a3_motion_sensors.c ****     ret = BSP_ERROR_WRONG_PARAM;
 949:D:/fchai/work/i-cube/I-CUBE-HUAWEI/Drivers/BSP/IKS01A3\iks01a3_motion_sensors.c ****   }
 950:D:/fchai/work/i-cube/I-CUBE-HUAWEI/Drivers/BSP/IKS01A3\iks01a3_motion_sensors.c ****   else
 951:D:/fchai/work/i-cube/I-CUBE-HUAWEI/Drivers/BSP/IKS01A3\iks01a3_motion_sensors.c ****   {
 952:D:/fchai/work/i-cube/I-CUBE-HUAWEI/Drivers/BSP/IKS01A3\iks01a3_motion_sensors.c ****     if ((MotionCtx[Instance].Functions & Function) == Function)
 953:D:/fchai/work/i-cube/I-CUBE-HUAWEI/Drivers/BSP/IKS01A3\iks01a3_motion_sensors.c ****     {
 954:D:/fchai/work/i-cube/I-CUBE-HUAWEI/Drivers/BSP/IKS01A3\iks01a3_motion_sensors.c ****       if (MotionFuncDrv[Instance][FunctionIndex[Function]]->GetSensitivity(MotionCompObj[Instance],
 955:D:/fchai/work/i-cube/I-CUBE-HUAWEI/Drivers/BSP/IKS01A3\iks01a3_motion_sensors.c ****           Sensitivity) != BSP_ERROR_NONE)
 956:D:/fchai/work/i-cube/I-CUBE-HUAWEI/Drivers/BSP/IKS01A3\iks01a3_motion_sensors.c ****       {
 957:D:/fchai/work/i-cube/I-CUBE-HUAWEI/Drivers/BSP/IKS01A3\iks01a3_motion_sensors.c ****         ret = BSP_ERROR_COMPONENT_FAILURE;
 958:D:/fchai/work/i-cube/I-CUBE-HUAWEI/Drivers/BSP/IKS01A3\iks01a3_motion_sensors.c ****       }
 959:D:/fchai/work/i-cube/I-CUBE-HUAWEI/Drivers/BSP/IKS01A3\iks01a3_motion_sensors.c ****       else
 960:D:/fchai/work/i-cube/I-CUBE-HUAWEI/Drivers/BSP/IKS01A3\iks01a3_motion_sensors.c ****       {
 961:D:/fchai/work/i-cube/I-CUBE-HUAWEI/Drivers/BSP/IKS01A3\iks01a3_motion_sensors.c ****         ret = BSP_ERROR_NONE;
 962:D:/fchai/work/i-cube/I-CUBE-HUAWEI/Drivers/BSP/IKS01A3\iks01a3_motion_sensors.c ****       }
 963:D:/fchai/work/i-cube/I-CUBE-HUAWEI/Drivers/BSP/IKS01A3\iks01a3_motion_sensors.c ****     }
 964:D:/fchai/work/i-cube/I-CUBE-HUAWEI/Drivers/BSP/IKS01A3\iks01a3_motion_sensors.c ****     else
 965:D:/fchai/work/i-cube/I-CUBE-HUAWEI/Drivers/BSP/IKS01A3\iks01a3_motion_sensors.c ****     {
 966:D:/fchai/work/i-cube/I-CUBE-HUAWEI/Drivers/BSP/IKS01A3\iks01a3_motion_sensors.c ****       ret = BSP_ERROR_WRONG_PARAM;
 967:D:/fchai/work/i-cube/I-CUBE-HUAWEI/Drivers/BSP/IKS01A3\iks01a3_motion_sensors.c ****     }
 968:D:/fchai/work/i-cube/I-CUBE-HUAWEI/Drivers/BSP/IKS01A3\iks01a3_motion_sensors.c ****   }
 969:D:/fchai/work/i-cube/I-CUBE-HUAWEI/Drivers/BSP/IKS01A3\iks01a3_motion_sensors.c **** 
 970:D:/fchai/work/i-cube/I-CUBE-HUAWEI/Drivers/BSP/IKS01A3\iks01a3_motion_sensors.c ****   return ret;
 971:D:/fchai/work/i-cube/I-CUBE-HUAWEI/Drivers/BSP/IKS01A3\iks01a3_motion_sensors.c **** }
 972:D:/fchai/work/i-cube/I-CUBE-HUAWEI/Drivers/BSP/IKS01A3\iks01a3_motion_sensors.c **** 
 973:D:/fchai/work/i-cube/I-CUBE-HUAWEI/Drivers/BSP/IKS01A3\iks01a3_motion_sensors.c **** /**
 974:D:/fchai/work/i-cube/I-CUBE-HUAWEI/Drivers/BSP/IKS01A3\iks01a3_motion_sensors.c ****  * @brief  Get motion sensor Output Data Rate
 975:D:/fchai/work/i-cube/I-CUBE-HUAWEI/Drivers/BSP/IKS01A3\iks01a3_motion_sensors.c ****  * @param  Instance Motion sensor instance
 976:D:/fchai/work/i-cube/I-CUBE-HUAWEI/Drivers/BSP/IKS01A3\iks01a3_motion_sensors.c ****  * @param  Function Motion sensor function. Could be :
 977:D:/fchai/work/i-cube/I-CUBE-HUAWEI/Drivers/BSP/IKS01A3\iks01a3_motion_sensors.c ****  *         - MOTION_GYRO and/or MOTION_ACCELERO for instance 0
 978:D:/fchai/work/i-cube/I-CUBE-HUAWEI/Drivers/BSP/IKS01A3\iks01a3_motion_sensors.c ****  *         - MOTION_ACCELERO for instance 1
 979:D:/fchai/work/i-cube/I-CUBE-HUAWEI/Drivers/BSP/IKS01A3\iks01a3_motion_sensors.c ****  *         - MOTION_MAGNETO for instance 2
 980:D:/fchai/work/i-cube/I-CUBE-HUAWEI/Drivers/BSP/IKS01A3\iks01a3_motion_sensors.c ****  * @param  Odr pointer to Output Data Rate read value
 981:D:/fchai/work/i-cube/I-CUBE-HUAWEI/Drivers/BSP/IKS01A3\iks01a3_motion_sensors.c ****  * @retval BSP status
 982:D:/fchai/work/i-cube/I-CUBE-HUAWEI/Drivers/BSP/IKS01A3\iks01a3_motion_sensors.c ****  */
 983:D:/fchai/work/i-cube/I-CUBE-HUAWEI/Drivers/BSP/IKS01A3\iks01a3_motion_sensors.c **** int32_t IKS01A3_MOTION_SENSOR_GetOutputDataRate(uint32_t Instance, uint32_t Function, float *Odr)
 984:D:/fchai/work/i-cube/I-CUBE-HUAWEI/Drivers/BSP/IKS01A3\iks01a3_motion_sensors.c **** {
 985:D:/fchai/work/i-cube/I-CUBE-HUAWEI/Drivers/BSP/IKS01A3\iks01a3_motion_sensors.c ****   int32_t ret;
 986:D:/fchai/work/i-cube/I-CUBE-HUAWEI/Drivers/BSP/IKS01A3\iks01a3_motion_sensors.c **** 
 987:D:/fchai/work/i-cube/I-CUBE-HUAWEI/Drivers/BSP/IKS01A3\iks01a3_motion_sensors.c ****   if (Instance >= IKS01A3_MOTION_INSTANCES_NBR)
 988:D:/fchai/work/i-cube/I-CUBE-HUAWEI/Drivers/BSP/IKS01A3\iks01a3_motion_sensors.c ****   {
 989:D:/fchai/work/i-cube/I-CUBE-HUAWEI/Drivers/BSP/IKS01A3\iks01a3_motion_sensors.c ****     ret = BSP_ERROR_WRONG_PARAM;
 990:D:/fchai/work/i-cube/I-CUBE-HUAWEI/Drivers/BSP/IKS01A3\iks01a3_motion_sensors.c ****   }
 991:D:/fchai/work/i-cube/I-CUBE-HUAWEI/Drivers/BSP/IKS01A3\iks01a3_motion_sensors.c ****   else
 992:D:/fchai/work/i-cube/I-CUBE-HUAWEI/Drivers/BSP/IKS01A3\iks01a3_motion_sensors.c ****   {
 993:D:/fchai/work/i-cube/I-CUBE-HUAWEI/Drivers/BSP/IKS01A3\iks01a3_motion_sensors.c ****     if ((MotionCtx[Instance].Functions & Function) == Function)
 994:D:/fchai/work/i-cube/I-CUBE-HUAWEI/Drivers/BSP/IKS01A3\iks01a3_motion_sensors.c ****     {
 995:D:/fchai/work/i-cube/I-CUBE-HUAWEI/Drivers/BSP/IKS01A3\iks01a3_motion_sensors.c ****       if (MotionFuncDrv[Instance][FunctionIndex[Function]]->GetOutputDataRate(MotionCompObj[Instanc
ARM GAS  T:\msys\tmp\ccgRcQCS.s 			page 20


 996:D:/fchai/work/i-cube/I-CUBE-HUAWEI/Drivers/BSP/IKS01A3\iks01a3_motion_sensors.c ****       {
 997:D:/fchai/work/i-cube/I-CUBE-HUAWEI/Drivers/BSP/IKS01A3\iks01a3_motion_sensors.c ****         ret = BSP_ERROR_COMPONENT_FAILURE;
 998:D:/fchai/work/i-cube/I-CUBE-HUAWEI/Drivers/BSP/IKS01A3\iks01a3_motion_sensors.c ****       }
 999:D:/fchai/work/i-cube/I-CUBE-HUAWEI/Drivers/BSP/IKS01A3\iks01a3_motion_sensors.c ****       else
1000:D:/fchai/work/i-cube/I-CUBE-HUAWEI/Drivers/BSP/IKS01A3\iks01a3_motion_sensors.c ****       {
1001:D:/fchai/work/i-cube/I-CUBE-HUAWEI/Drivers/BSP/IKS01A3\iks01a3_motion_sensors.c ****         ret = BSP_ERROR_NONE;
1002:D:/fchai/work/i-cube/I-CUBE-HUAWEI/Drivers/BSP/IKS01A3\iks01a3_motion_sensors.c ****       }
1003:D:/fchai/work/i-cube/I-CUBE-HUAWEI/Drivers/BSP/IKS01A3\iks01a3_motion_sensors.c ****     }
1004:D:/fchai/work/i-cube/I-CUBE-HUAWEI/Drivers/BSP/IKS01A3\iks01a3_motion_sensors.c ****     else
1005:D:/fchai/work/i-cube/I-CUBE-HUAWEI/Drivers/BSP/IKS01A3\iks01a3_motion_sensors.c ****     {
1006:D:/fchai/work/i-cube/I-CUBE-HUAWEI/Drivers/BSP/IKS01A3\iks01a3_motion_sensors.c ****       ret = BSP_ERROR_WRONG_PARAM;
1007:D:/fchai/work/i-cube/I-CUBE-HUAWEI/Drivers/BSP/IKS01A3\iks01a3_motion_sensors.c ****     }
1008:D:/fchai/work/i-cube/I-CUBE-HUAWEI/Drivers/BSP/IKS01A3\iks01a3_motion_sensors.c ****   }
1009:D:/fchai/work/i-cube/I-CUBE-HUAWEI/Drivers/BSP/IKS01A3\iks01a3_motion_sensors.c **** 
1010:D:/fchai/work/i-cube/I-CUBE-HUAWEI/Drivers/BSP/IKS01A3\iks01a3_motion_sensors.c ****   return ret;
1011:D:/fchai/work/i-cube/I-CUBE-HUAWEI/Drivers/BSP/IKS01A3\iks01a3_motion_sensors.c **** }
1012:D:/fchai/work/i-cube/I-CUBE-HUAWEI/Drivers/BSP/IKS01A3\iks01a3_motion_sensors.c **** 
1013:D:/fchai/work/i-cube/I-CUBE-HUAWEI/Drivers/BSP/IKS01A3\iks01a3_motion_sensors.c **** /**
1014:D:/fchai/work/i-cube/I-CUBE-HUAWEI/Drivers/BSP/IKS01A3\iks01a3_motion_sensors.c ****  * @brief  Get motion sensor Full Scale
1015:D:/fchai/work/i-cube/I-CUBE-HUAWEI/Drivers/BSP/IKS01A3\iks01a3_motion_sensors.c ****  * @param  Instance Motion sensor instance
1016:D:/fchai/work/i-cube/I-CUBE-HUAWEI/Drivers/BSP/IKS01A3\iks01a3_motion_sensors.c ****  * @param  Function Motion sensor function. Could be :
1017:D:/fchai/work/i-cube/I-CUBE-HUAWEI/Drivers/BSP/IKS01A3\iks01a3_motion_sensors.c ****  *         - MOTION_GYRO and/or MOTION_ACCELERO for instance 0
1018:D:/fchai/work/i-cube/I-CUBE-HUAWEI/Drivers/BSP/IKS01A3\iks01a3_motion_sensors.c ****  *         - MOTION_ACCELERO for instance 1
1019:D:/fchai/work/i-cube/I-CUBE-HUAWEI/Drivers/BSP/IKS01A3\iks01a3_motion_sensors.c ****  *         - MOTION_MAGNETO for instance 2
1020:D:/fchai/work/i-cube/I-CUBE-HUAWEI/Drivers/BSP/IKS01A3\iks01a3_motion_sensors.c ****  * @param  Fullscale pointer to Fullscale read value
1021:D:/fchai/work/i-cube/I-CUBE-HUAWEI/Drivers/BSP/IKS01A3\iks01a3_motion_sensors.c ****  * @retval BSP status
1022:D:/fchai/work/i-cube/I-CUBE-HUAWEI/Drivers/BSP/IKS01A3\iks01a3_motion_sensors.c ****  */
1023:D:/fchai/work/i-cube/I-CUBE-HUAWEI/Drivers/BSP/IKS01A3\iks01a3_motion_sensors.c **** int32_t IKS01A3_MOTION_SENSOR_GetFullScale(uint32_t Instance, uint32_t Function, int32_t *Fullscale
1024:D:/fchai/work/i-cube/I-CUBE-HUAWEI/Drivers/BSP/IKS01A3\iks01a3_motion_sensors.c **** {
1025:D:/fchai/work/i-cube/I-CUBE-HUAWEI/Drivers/BSP/IKS01A3\iks01a3_motion_sensors.c ****   int32_t ret;
1026:D:/fchai/work/i-cube/I-CUBE-HUAWEI/Drivers/BSP/IKS01A3\iks01a3_motion_sensors.c **** 
1027:D:/fchai/work/i-cube/I-CUBE-HUAWEI/Drivers/BSP/IKS01A3\iks01a3_motion_sensors.c ****   if (Instance >= IKS01A3_MOTION_INSTANCES_NBR)
1028:D:/fchai/work/i-cube/I-CUBE-HUAWEI/Drivers/BSP/IKS01A3\iks01a3_motion_sensors.c ****   {
1029:D:/fchai/work/i-cube/I-CUBE-HUAWEI/Drivers/BSP/IKS01A3\iks01a3_motion_sensors.c ****     ret = BSP_ERROR_WRONG_PARAM;
1030:D:/fchai/work/i-cube/I-CUBE-HUAWEI/Drivers/BSP/IKS01A3\iks01a3_motion_sensors.c ****   }
1031:D:/fchai/work/i-cube/I-CUBE-HUAWEI/Drivers/BSP/IKS01A3\iks01a3_motion_sensors.c ****   else
1032:D:/fchai/work/i-cube/I-CUBE-HUAWEI/Drivers/BSP/IKS01A3\iks01a3_motion_sensors.c ****   {
1033:D:/fchai/work/i-cube/I-CUBE-HUAWEI/Drivers/BSP/IKS01A3\iks01a3_motion_sensors.c ****     if ((MotionCtx[Instance].Functions & Function) == Function)
1034:D:/fchai/work/i-cube/I-CUBE-HUAWEI/Drivers/BSP/IKS01A3\iks01a3_motion_sensors.c ****     {
1035:D:/fchai/work/i-cube/I-CUBE-HUAWEI/Drivers/BSP/IKS01A3\iks01a3_motion_sensors.c ****       if (MotionFuncDrv[Instance][FunctionIndex[Function]]->GetFullScale(MotionCompObj[Instance],
1036:D:/fchai/work/i-cube/I-CUBE-HUAWEI/Drivers/BSP/IKS01A3\iks01a3_motion_sensors.c ****           Fullscale) != BSP_ERROR_NONE)
1037:D:/fchai/work/i-cube/I-CUBE-HUAWEI/Drivers/BSP/IKS01A3\iks01a3_motion_sensors.c ****       {
1038:D:/fchai/work/i-cube/I-CUBE-HUAWEI/Drivers/BSP/IKS01A3\iks01a3_motion_sensors.c ****         ret = BSP_ERROR_COMPONENT_FAILURE;
1039:D:/fchai/work/i-cube/I-CUBE-HUAWEI/Drivers/BSP/IKS01A3\iks01a3_motion_sensors.c ****       }
1040:D:/fchai/work/i-cube/I-CUBE-HUAWEI/Drivers/BSP/IKS01A3\iks01a3_motion_sensors.c ****       else
1041:D:/fchai/work/i-cube/I-CUBE-HUAWEI/Drivers/BSP/IKS01A3\iks01a3_motion_sensors.c ****       {
1042:D:/fchai/work/i-cube/I-CUBE-HUAWEI/Drivers/BSP/IKS01A3\iks01a3_motion_sensors.c ****         ret = BSP_ERROR_NONE;
1043:D:/fchai/work/i-cube/I-CUBE-HUAWEI/Drivers/BSP/IKS01A3\iks01a3_motion_sensors.c ****       }
1044:D:/fchai/work/i-cube/I-CUBE-HUAWEI/Drivers/BSP/IKS01A3\iks01a3_motion_sensors.c ****     }
1045:D:/fchai/work/i-cube/I-CUBE-HUAWEI/Drivers/BSP/IKS01A3\iks01a3_motion_sensors.c ****     else
1046:D:/fchai/work/i-cube/I-CUBE-HUAWEI/Drivers/BSP/IKS01A3\iks01a3_motion_sensors.c ****     {
1047:D:/fchai/work/i-cube/I-CUBE-HUAWEI/Drivers/BSP/IKS01A3\iks01a3_motion_sensors.c ****       ret = BSP_ERROR_WRONG_PARAM;
1048:D:/fchai/work/i-cube/I-CUBE-HUAWEI/Drivers/BSP/IKS01A3\iks01a3_motion_sensors.c ****     }
1049:D:/fchai/work/i-cube/I-CUBE-HUAWEI/Drivers/BSP/IKS01A3\iks01a3_motion_sensors.c ****   }
1050:D:/fchai/work/i-cube/I-CUBE-HUAWEI/Drivers/BSP/IKS01A3\iks01a3_motion_sensors.c **** 
1051:D:/fchai/work/i-cube/I-CUBE-HUAWEI/Drivers/BSP/IKS01A3\iks01a3_motion_sensors.c ****   return ret;
1052:D:/fchai/work/i-cube/I-CUBE-HUAWEI/Drivers/BSP/IKS01A3\iks01a3_motion_sensors.c **** }
ARM GAS  T:\msys\tmp\ccgRcQCS.s 			page 21


1053:D:/fchai/work/i-cube/I-CUBE-HUAWEI/Drivers/BSP/IKS01A3\iks01a3_motion_sensors.c **** 
1054:D:/fchai/work/i-cube/I-CUBE-HUAWEI/Drivers/BSP/IKS01A3\iks01a3_motion_sensors.c **** /**
1055:D:/fchai/work/i-cube/I-CUBE-HUAWEI/Drivers/BSP/IKS01A3\iks01a3_motion_sensors.c ****  * @brief  Set motion sensor Output Data Rate
1056:D:/fchai/work/i-cube/I-CUBE-HUAWEI/Drivers/BSP/IKS01A3\iks01a3_motion_sensors.c ****  * @param  Instance Motion sensor instance
1057:D:/fchai/work/i-cube/I-CUBE-HUAWEI/Drivers/BSP/IKS01A3\iks01a3_motion_sensors.c ****  * @param  Function Motion sensor function. Could be :
1058:D:/fchai/work/i-cube/I-CUBE-HUAWEI/Drivers/BSP/IKS01A3\iks01a3_motion_sensors.c ****  *         - MOTION_GYRO and/or MOTION_ACCELERO for instance 0
1059:D:/fchai/work/i-cube/I-CUBE-HUAWEI/Drivers/BSP/IKS01A3\iks01a3_motion_sensors.c ****  *         - MOTION_ACCELERO for instance 1
1060:D:/fchai/work/i-cube/I-CUBE-HUAWEI/Drivers/BSP/IKS01A3\iks01a3_motion_sensors.c ****  *         - MOTION_MAGNETO for instance 2
1061:D:/fchai/work/i-cube/I-CUBE-HUAWEI/Drivers/BSP/IKS01A3\iks01a3_motion_sensors.c ****  * @param  Odr Output Data Rate value to be set
1062:D:/fchai/work/i-cube/I-CUBE-HUAWEI/Drivers/BSP/IKS01A3\iks01a3_motion_sensors.c ****  * @retval BSP status
1063:D:/fchai/work/i-cube/I-CUBE-HUAWEI/Drivers/BSP/IKS01A3\iks01a3_motion_sensors.c ****  */
1064:D:/fchai/work/i-cube/I-CUBE-HUAWEI/Drivers/BSP/IKS01A3\iks01a3_motion_sensors.c **** int32_t IKS01A3_MOTION_SENSOR_SetOutputDataRate(uint32_t Instance, uint32_t Function, float Odr)
1065:D:/fchai/work/i-cube/I-CUBE-HUAWEI/Drivers/BSP/IKS01A3\iks01a3_motion_sensors.c **** {
1066:D:/fchai/work/i-cube/I-CUBE-HUAWEI/Drivers/BSP/IKS01A3\iks01a3_motion_sensors.c ****   int32_t ret;
1067:D:/fchai/work/i-cube/I-CUBE-HUAWEI/Drivers/BSP/IKS01A3\iks01a3_motion_sensors.c **** 
1068:D:/fchai/work/i-cube/I-CUBE-HUAWEI/Drivers/BSP/IKS01A3\iks01a3_motion_sensors.c ****   if (Instance >= IKS01A3_MOTION_INSTANCES_NBR)
1069:D:/fchai/work/i-cube/I-CUBE-HUAWEI/Drivers/BSP/IKS01A3\iks01a3_motion_sensors.c ****   {
1070:D:/fchai/work/i-cube/I-CUBE-HUAWEI/Drivers/BSP/IKS01A3\iks01a3_motion_sensors.c ****     ret = BSP_ERROR_WRONG_PARAM;
1071:D:/fchai/work/i-cube/I-CUBE-HUAWEI/Drivers/BSP/IKS01A3\iks01a3_motion_sensors.c ****   }
1072:D:/fchai/work/i-cube/I-CUBE-HUAWEI/Drivers/BSP/IKS01A3\iks01a3_motion_sensors.c ****   else
1073:D:/fchai/work/i-cube/I-CUBE-HUAWEI/Drivers/BSP/IKS01A3\iks01a3_motion_sensors.c ****   {
1074:D:/fchai/work/i-cube/I-CUBE-HUAWEI/Drivers/BSP/IKS01A3\iks01a3_motion_sensors.c ****     if ((MotionCtx[Instance].Functions & Function) == Function)
1075:D:/fchai/work/i-cube/I-CUBE-HUAWEI/Drivers/BSP/IKS01A3\iks01a3_motion_sensors.c ****     {
1076:D:/fchai/work/i-cube/I-CUBE-HUAWEI/Drivers/BSP/IKS01A3\iks01a3_motion_sensors.c ****       if (MotionFuncDrv[Instance][FunctionIndex[Function]]->SetOutputDataRate(MotionCompObj[Instanc
1077:D:/fchai/work/i-cube/I-CUBE-HUAWEI/Drivers/BSP/IKS01A3\iks01a3_motion_sensors.c ****       {
1078:D:/fchai/work/i-cube/I-CUBE-HUAWEI/Drivers/BSP/IKS01A3\iks01a3_motion_sensors.c ****         ret = BSP_ERROR_COMPONENT_FAILURE;
1079:D:/fchai/work/i-cube/I-CUBE-HUAWEI/Drivers/BSP/IKS01A3\iks01a3_motion_sensors.c ****       }
1080:D:/fchai/work/i-cube/I-CUBE-HUAWEI/Drivers/BSP/IKS01A3\iks01a3_motion_sensors.c ****       else
1081:D:/fchai/work/i-cube/I-CUBE-HUAWEI/Drivers/BSP/IKS01A3\iks01a3_motion_sensors.c ****       {
1082:D:/fchai/work/i-cube/I-CUBE-HUAWEI/Drivers/BSP/IKS01A3\iks01a3_motion_sensors.c ****         ret = BSP_ERROR_NONE;
1083:D:/fchai/work/i-cube/I-CUBE-HUAWEI/Drivers/BSP/IKS01A3\iks01a3_motion_sensors.c ****       }
1084:D:/fchai/work/i-cube/I-CUBE-HUAWEI/Drivers/BSP/IKS01A3\iks01a3_motion_sensors.c ****     }
1085:D:/fchai/work/i-cube/I-CUBE-HUAWEI/Drivers/BSP/IKS01A3\iks01a3_motion_sensors.c ****     else
1086:D:/fchai/work/i-cube/I-CUBE-HUAWEI/Drivers/BSP/IKS01A3\iks01a3_motion_sensors.c ****     {
1087:D:/fchai/work/i-cube/I-CUBE-HUAWEI/Drivers/BSP/IKS01A3\iks01a3_motion_sensors.c ****       ret = BSP_ERROR_WRONG_PARAM;
1088:D:/fchai/work/i-cube/I-CUBE-HUAWEI/Drivers/BSP/IKS01A3\iks01a3_motion_sensors.c ****     }
1089:D:/fchai/work/i-cube/I-CUBE-HUAWEI/Drivers/BSP/IKS01A3\iks01a3_motion_sensors.c ****   }
1090:D:/fchai/work/i-cube/I-CUBE-HUAWEI/Drivers/BSP/IKS01A3\iks01a3_motion_sensors.c **** 
1091:D:/fchai/work/i-cube/I-CUBE-HUAWEI/Drivers/BSP/IKS01A3\iks01a3_motion_sensors.c ****   return ret;
1092:D:/fchai/work/i-cube/I-CUBE-HUAWEI/Drivers/BSP/IKS01A3\iks01a3_motion_sensors.c **** }
1093:D:/fchai/work/i-cube/I-CUBE-HUAWEI/Drivers/BSP/IKS01A3\iks01a3_motion_sensors.c **** 
1094:D:/fchai/work/i-cube/I-CUBE-HUAWEI/Drivers/BSP/IKS01A3\iks01a3_motion_sensors.c **** /**
1095:D:/fchai/work/i-cube/I-CUBE-HUAWEI/Drivers/BSP/IKS01A3\iks01a3_motion_sensors.c ****  * @brief  Set motion sensor Full Scale
1096:D:/fchai/work/i-cube/I-CUBE-HUAWEI/Drivers/BSP/IKS01A3\iks01a3_motion_sensors.c ****  * @param  Instance Motion sensor instance
1097:D:/fchai/work/i-cube/I-CUBE-HUAWEI/Drivers/BSP/IKS01A3\iks01a3_motion_sensors.c ****  * @param  Function Motion sensor function. Could be :
1098:D:/fchai/work/i-cube/I-CUBE-HUAWEI/Drivers/BSP/IKS01A3\iks01a3_motion_sensors.c ****  *         - MOTION_GYRO and/or MOTION_ACCELERO for instance 0
1099:D:/fchai/work/i-cube/I-CUBE-HUAWEI/Drivers/BSP/IKS01A3\iks01a3_motion_sensors.c ****  *         - MOTION_ACCELERO for instance 1
1100:D:/fchai/work/i-cube/I-CUBE-HUAWEI/Drivers/BSP/IKS01A3\iks01a3_motion_sensors.c ****  *         - MOTION_MAGNETO for instance 2
1101:D:/fchai/work/i-cube/I-CUBE-HUAWEI/Drivers/BSP/IKS01A3\iks01a3_motion_sensors.c ****  * @param  Fullscale Fullscale value to be set
1102:D:/fchai/work/i-cube/I-CUBE-HUAWEI/Drivers/BSP/IKS01A3\iks01a3_motion_sensors.c ****  * @retval BSP status
1103:D:/fchai/work/i-cube/I-CUBE-HUAWEI/Drivers/BSP/IKS01A3\iks01a3_motion_sensors.c ****  */
1104:D:/fchai/work/i-cube/I-CUBE-HUAWEI/Drivers/BSP/IKS01A3\iks01a3_motion_sensors.c **** int32_t IKS01A3_MOTION_SENSOR_SetFullScale(uint32_t Instance, uint32_t Function, int32_t Fullscale)
1105:D:/fchai/work/i-cube/I-CUBE-HUAWEI/Drivers/BSP/IKS01A3\iks01a3_motion_sensors.c **** {
1106:D:/fchai/work/i-cube/I-CUBE-HUAWEI/Drivers/BSP/IKS01A3\iks01a3_motion_sensors.c ****   int32_t ret;
1107:D:/fchai/work/i-cube/I-CUBE-HUAWEI/Drivers/BSP/IKS01A3\iks01a3_motion_sensors.c **** 
1108:D:/fchai/work/i-cube/I-CUBE-HUAWEI/Drivers/BSP/IKS01A3\iks01a3_motion_sensors.c ****   if (Instance >= IKS01A3_MOTION_INSTANCES_NBR)
1109:D:/fchai/work/i-cube/I-CUBE-HUAWEI/Drivers/BSP/IKS01A3\iks01a3_motion_sensors.c ****   {
ARM GAS  T:\msys\tmp\ccgRcQCS.s 			page 22


1110:D:/fchai/work/i-cube/I-CUBE-HUAWEI/Drivers/BSP/IKS01A3\iks01a3_motion_sensors.c ****     ret = BSP_ERROR_WRONG_PARAM;
1111:D:/fchai/work/i-cube/I-CUBE-HUAWEI/Drivers/BSP/IKS01A3\iks01a3_motion_sensors.c ****   }
1112:D:/fchai/work/i-cube/I-CUBE-HUAWEI/Drivers/BSP/IKS01A3\iks01a3_motion_sensors.c ****   else
1113:D:/fchai/work/i-cube/I-CUBE-HUAWEI/Drivers/BSP/IKS01A3\iks01a3_motion_sensors.c ****   {
1114:D:/fchai/work/i-cube/I-CUBE-HUAWEI/Drivers/BSP/IKS01A3\iks01a3_motion_sensors.c ****     if ((MotionCtx[Instance].Functions & Function) == Function)
1115:D:/fchai/work/i-cube/I-CUBE-HUAWEI/Drivers/BSP/IKS01A3\iks01a3_motion_sensors.c ****     {
1116:D:/fchai/work/i-cube/I-CUBE-HUAWEI/Drivers/BSP/IKS01A3\iks01a3_motion_sensors.c ****       if (MotionFuncDrv[Instance][FunctionIndex[Function]]->SetFullScale(MotionCompObj[Instance],
1117:D:/fchai/work/i-cube/I-CUBE-HUAWEI/Drivers/BSP/IKS01A3\iks01a3_motion_sensors.c ****           Fullscale) != BSP_ERROR_NONE)
1118:D:/fchai/work/i-cube/I-CUBE-HUAWEI/Drivers/BSP/IKS01A3\iks01a3_motion_sensors.c ****       {
1119:D:/fchai/work/i-cube/I-CUBE-HUAWEI/Drivers/BSP/IKS01A3\iks01a3_motion_sensors.c ****         ret = BSP_ERROR_COMPONENT_FAILURE;
1120:D:/fchai/work/i-cube/I-CUBE-HUAWEI/Drivers/BSP/IKS01A3\iks01a3_motion_sensors.c ****       }
1121:D:/fchai/work/i-cube/I-CUBE-HUAWEI/Drivers/BSP/IKS01A3\iks01a3_motion_sensors.c ****       else
1122:D:/fchai/work/i-cube/I-CUBE-HUAWEI/Drivers/BSP/IKS01A3\iks01a3_motion_sensors.c ****       {
1123:D:/fchai/work/i-cube/I-CUBE-HUAWEI/Drivers/BSP/IKS01A3\iks01a3_motion_sensors.c ****         ret = BSP_ERROR_NONE;
1124:D:/fchai/work/i-cube/I-CUBE-HUAWEI/Drivers/BSP/IKS01A3\iks01a3_motion_sensors.c ****       }
1125:D:/fchai/work/i-cube/I-CUBE-HUAWEI/Drivers/BSP/IKS01A3\iks01a3_motion_sensors.c ****     }
1126:D:/fchai/work/i-cube/I-CUBE-HUAWEI/Drivers/BSP/IKS01A3\iks01a3_motion_sensors.c ****     else
1127:D:/fchai/work/i-cube/I-CUBE-HUAWEI/Drivers/BSP/IKS01A3\iks01a3_motion_sensors.c ****     {
1128:D:/fchai/work/i-cube/I-CUBE-HUAWEI/Drivers/BSP/IKS01A3\iks01a3_motion_sensors.c ****       ret = BSP_ERROR_WRONG_PARAM;
1129:D:/fchai/work/i-cube/I-CUBE-HUAWEI/Drivers/BSP/IKS01A3\iks01a3_motion_sensors.c ****     }
1130:D:/fchai/work/i-cube/I-CUBE-HUAWEI/Drivers/BSP/IKS01A3\iks01a3_motion_sensors.c ****   }
1131:D:/fchai/work/i-cube/I-CUBE-HUAWEI/Drivers/BSP/IKS01A3\iks01a3_motion_sensors.c **** 
1132:D:/fchai/work/i-cube/I-CUBE-HUAWEI/Drivers/BSP/IKS01A3\iks01a3_motion_sensors.c ****   return ret;
1133:D:/fchai/work/i-cube/I-CUBE-HUAWEI/Drivers/BSP/IKS01A3\iks01a3_motion_sensors.c **** }
1134:D:/fchai/work/i-cube/I-CUBE-HUAWEI/Drivers/BSP/IKS01A3\iks01a3_motion_sensors.c **** 
1135:D:/fchai/work/i-cube/I-CUBE-HUAWEI/Drivers/BSP/IKS01A3\iks01a3_motion_sensors.c **** /**
1136:D:/fchai/work/i-cube/I-CUBE-HUAWEI/Drivers/BSP/IKS01A3\iks01a3_motion_sensors.c ****  * @}
1137:D:/fchai/work/i-cube/I-CUBE-HUAWEI/Drivers/BSP/IKS01A3\iks01a3_motion_sensors.c ****  */
1138:D:/fchai/work/i-cube/I-CUBE-HUAWEI/Drivers/BSP/IKS01A3\iks01a3_motion_sensors.c **** 
1139:D:/fchai/work/i-cube/I-CUBE-HUAWEI/Drivers/BSP/IKS01A3\iks01a3_motion_sensors.c **** /** @defgroup IKS01A3_MOTION_SENSOR_Private_Functions IKS01A3 MOTION SENSOR Private Functions
1140:D:/fchai/work/i-cube/I-CUBE-HUAWEI/Drivers/BSP/IKS01A3\iks01a3_motion_sensors.c ****  * @{
1141:D:/fchai/work/i-cube/I-CUBE-HUAWEI/Drivers/BSP/IKS01A3\iks01a3_motion_sensors.c ****  */
1142:D:/fchai/work/i-cube/I-CUBE-HUAWEI/Drivers/BSP/IKS01A3\iks01a3_motion_sensors.c **** 
1143:D:/fchai/work/i-cube/I-CUBE-HUAWEI/Drivers/BSP/IKS01A3\iks01a3_motion_sensors.c **** #if (USE_IKS01A3_MOTION_SENSOR_LSM6DSO_0  == 1)
1144:D:/fchai/work/i-cube/I-CUBE-HUAWEI/Drivers/BSP/IKS01A3\iks01a3_motion_sensors.c **** /**
1145:D:/fchai/work/i-cube/I-CUBE-HUAWEI/Drivers/BSP/IKS01A3\iks01a3_motion_sensors.c ****  * @brief  Register Bus IOs for instance 0 if component ID is OK
1146:D:/fchai/work/i-cube/I-CUBE-HUAWEI/Drivers/BSP/IKS01A3\iks01a3_motion_sensors.c ****  * @retval BSP status
1147:D:/fchai/work/i-cube/I-CUBE-HUAWEI/Drivers/BSP/IKS01A3\iks01a3_motion_sensors.c ****  */
1148:D:/fchai/work/i-cube/I-CUBE-HUAWEI/Drivers/BSP/IKS01A3\iks01a3_motion_sensors.c **** static int32_t LSM6DSO_0_Probe(uint32_t Functions)
1149:D:/fchai/work/i-cube/I-CUBE-HUAWEI/Drivers/BSP/IKS01A3\iks01a3_motion_sensors.c **** {
1150:D:/fchai/work/i-cube/I-CUBE-HUAWEI/Drivers/BSP/IKS01A3\iks01a3_motion_sensors.c ****   LSM6DSO_IO_t            io_ctx;
1151:D:/fchai/work/i-cube/I-CUBE-HUAWEI/Drivers/BSP/IKS01A3\iks01a3_motion_sensors.c ****   uint8_t                 id;
1152:D:/fchai/work/i-cube/I-CUBE-HUAWEI/Drivers/BSP/IKS01A3\iks01a3_motion_sensors.c ****   static LSM6DSO_Object_t lsm6dso_obj_0;
1153:D:/fchai/work/i-cube/I-CUBE-HUAWEI/Drivers/BSP/IKS01A3\iks01a3_motion_sensors.c ****   LSM6DSO_Capabilities_t  cap;
1154:D:/fchai/work/i-cube/I-CUBE-HUAWEI/Drivers/BSP/IKS01A3\iks01a3_motion_sensors.c ****   int32_t ret = BSP_ERROR_NONE;
1155:D:/fchai/work/i-cube/I-CUBE-HUAWEI/Drivers/BSP/IKS01A3\iks01a3_motion_sensors.c **** 
1156:D:/fchai/work/i-cube/I-CUBE-HUAWEI/Drivers/BSP/IKS01A3\iks01a3_motion_sensors.c ****   /* Configure the accelero driver */
1157:D:/fchai/work/i-cube/I-CUBE-HUAWEI/Drivers/BSP/IKS01A3\iks01a3_motion_sensors.c ****   io_ctx.BusType     = LSM6DSO_I2C_BUS; /* I2C */
1158:D:/fchai/work/i-cube/I-CUBE-HUAWEI/Drivers/BSP/IKS01A3\iks01a3_motion_sensors.c ****   io_ctx.Address     = LSM6DSO_I2C_ADD_H;
1159:D:/fchai/work/i-cube/I-CUBE-HUAWEI/Drivers/BSP/IKS01A3\iks01a3_motion_sensors.c ****   io_ctx.Init        = IKS01A3_I2C_Init;
1160:D:/fchai/work/i-cube/I-CUBE-HUAWEI/Drivers/BSP/IKS01A3\iks01a3_motion_sensors.c ****   io_ctx.DeInit      = IKS01A3_I2C_DeInit;
1161:D:/fchai/work/i-cube/I-CUBE-HUAWEI/Drivers/BSP/IKS01A3\iks01a3_motion_sensors.c ****   io_ctx.ReadReg     = IKS01A3_I2C_ReadReg;
1162:D:/fchai/work/i-cube/I-CUBE-HUAWEI/Drivers/BSP/IKS01A3\iks01a3_motion_sensors.c ****   io_ctx.WriteReg    = IKS01A3_I2C_WriteReg;
1163:D:/fchai/work/i-cube/I-CUBE-HUAWEI/Drivers/BSP/IKS01A3\iks01a3_motion_sensors.c ****   io_ctx.GetTick     = IKS01A3_GetTick;
1164:D:/fchai/work/i-cube/I-CUBE-HUAWEI/Drivers/BSP/IKS01A3\iks01a3_motion_sensors.c **** 
1165:D:/fchai/work/i-cube/I-CUBE-HUAWEI/Drivers/BSP/IKS01A3\iks01a3_motion_sensors.c ****   if (LSM6DSO_RegisterBusIO(&lsm6dso_obj_0, &io_ctx) != LSM6DSO_OK)
1166:D:/fchai/work/i-cube/I-CUBE-HUAWEI/Drivers/BSP/IKS01A3\iks01a3_motion_sensors.c ****   {
ARM GAS  T:\msys\tmp\ccgRcQCS.s 			page 23


1167:D:/fchai/work/i-cube/I-CUBE-HUAWEI/Drivers/BSP/IKS01A3\iks01a3_motion_sensors.c ****     ret = BSP_ERROR_UNKNOWN_COMPONENT;
1168:D:/fchai/work/i-cube/I-CUBE-HUAWEI/Drivers/BSP/IKS01A3\iks01a3_motion_sensors.c ****   }
1169:D:/fchai/work/i-cube/I-CUBE-HUAWEI/Drivers/BSP/IKS01A3\iks01a3_motion_sensors.c ****   else if (LSM6DSO_ReadID(&lsm6dso_obj_0, &id) != LSM6DSO_OK)
1170:D:/fchai/work/i-cube/I-CUBE-HUAWEI/Drivers/BSP/IKS01A3\iks01a3_motion_sensors.c ****   {
1171:D:/fchai/work/i-cube/I-CUBE-HUAWEI/Drivers/BSP/IKS01A3\iks01a3_motion_sensors.c ****     ret = BSP_ERROR_UNKNOWN_COMPONENT;
1172:D:/fchai/work/i-cube/I-CUBE-HUAWEI/Drivers/BSP/IKS01A3\iks01a3_motion_sensors.c ****   }
1173:D:/fchai/work/i-cube/I-CUBE-HUAWEI/Drivers/BSP/IKS01A3\iks01a3_motion_sensors.c ****   else if (id != LSM6DSO_ID)
1174:D:/fchai/work/i-cube/I-CUBE-HUAWEI/Drivers/BSP/IKS01A3\iks01a3_motion_sensors.c ****   {
1175:D:/fchai/work/i-cube/I-CUBE-HUAWEI/Drivers/BSP/IKS01A3\iks01a3_motion_sensors.c ****     ret = BSP_ERROR_UNKNOWN_COMPONENT;
1176:D:/fchai/work/i-cube/I-CUBE-HUAWEI/Drivers/BSP/IKS01A3\iks01a3_motion_sensors.c ****   }
1177:D:/fchai/work/i-cube/I-CUBE-HUAWEI/Drivers/BSP/IKS01A3\iks01a3_motion_sensors.c ****   else
1178:D:/fchai/work/i-cube/I-CUBE-HUAWEI/Drivers/BSP/IKS01A3\iks01a3_motion_sensors.c ****   {
1179:D:/fchai/work/i-cube/I-CUBE-HUAWEI/Drivers/BSP/IKS01A3\iks01a3_motion_sensors.c ****     (void)LSM6DSO_GetCapabilities(&lsm6dso_obj_0, &cap);
1180:D:/fchai/work/i-cube/I-CUBE-HUAWEI/Drivers/BSP/IKS01A3\iks01a3_motion_sensors.c ****     MotionCtx[IKS01A3_LSM6DSO_0].Functions = ((uint32_t)cap.Gyro) | ((uint32_t)cap.Acc << 1) | ((ui
1181:D:/fchai/work/i-cube/I-CUBE-HUAWEI/Drivers/BSP/IKS01A3\iks01a3_motion_sensors.c **** 
1182:D:/fchai/work/i-cube/I-CUBE-HUAWEI/Drivers/BSP/IKS01A3\iks01a3_motion_sensors.c ****     MotionCompObj[IKS01A3_LSM6DSO_0] = &lsm6dso_obj_0;
1183:D:/fchai/work/i-cube/I-CUBE-HUAWEI/Drivers/BSP/IKS01A3\iks01a3_motion_sensors.c ****     /* The second cast (void *) is added to bypass Misra R11.3 rule */
1184:D:/fchai/work/i-cube/I-CUBE-HUAWEI/Drivers/BSP/IKS01A3\iks01a3_motion_sensors.c ****     MotionDrv[IKS01A3_LSM6DSO_0] = (MOTION_SENSOR_CommonDrv_t *)(void *)&LSM6DSO_COMMON_Driver;
1185:D:/fchai/work/i-cube/I-CUBE-HUAWEI/Drivers/BSP/IKS01A3\iks01a3_motion_sensors.c **** 
1186:D:/fchai/work/i-cube/I-CUBE-HUAWEI/Drivers/BSP/IKS01A3\iks01a3_motion_sensors.c ****     if ((ret == BSP_ERROR_NONE) && ((Functions & MOTION_GYRO) == MOTION_GYRO) && (cap.Gyro == 1U))
1187:D:/fchai/work/i-cube/I-CUBE-HUAWEI/Drivers/BSP/IKS01A3\iks01a3_motion_sensors.c ****     {
1188:D:/fchai/work/i-cube/I-CUBE-HUAWEI/Drivers/BSP/IKS01A3\iks01a3_motion_sensors.c ****       /* The second cast (void *) is added to bypass Misra R11.3 rule */
1189:D:/fchai/work/i-cube/I-CUBE-HUAWEI/Drivers/BSP/IKS01A3\iks01a3_motion_sensors.c ****       MotionFuncDrv[IKS01A3_LSM6DSO_0][FunctionIndex[MOTION_GYRO]] = (MOTION_SENSOR_FuncDrv_t *)(vo
1190:D:/fchai/work/i-cube/I-CUBE-HUAWEI/Drivers/BSP/IKS01A3\iks01a3_motion_sensors.c **** 
1191:D:/fchai/work/i-cube/I-CUBE-HUAWEI/Drivers/BSP/IKS01A3\iks01a3_motion_sensors.c ****       if (MotionDrv[IKS01A3_LSM6DSO_0]->Init(MotionCompObj[IKS01A3_LSM6DSO_0]) != LSM6DSO_OK)
1192:D:/fchai/work/i-cube/I-CUBE-HUAWEI/Drivers/BSP/IKS01A3\iks01a3_motion_sensors.c ****       {
1193:D:/fchai/work/i-cube/I-CUBE-HUAWEI/Drivers/BSP/IKS01A3\iks01a3_motion_sensors.c ****         ret = BSP_ERROR_COMPONENT_FAILURE;
1194:D:/fchai/work/i-cube/I-CUBE-HUAWEI/Drivers/BSP/IKS01A3\iks01a3_motion_sensors.c ****       }
1195:D:/fchai/work/i-cube/I-CUBE-HUAWEI/Drivers/BSP/IKS01A3\iks01a3_motion_sensors.c ****       else
1196:D:/fchai/work/i-cube/I-CUBE-HUAWEI/Drivers/BSP/IKS01A3\iks01a3_motion_sensors.c ****       {
1197:D:/fchai/work/i-cube/I-CUBE-HUAWEI/Drivers/BSP/IKS01A3\iks01a3_motion_sensors.c ****         ret = BSP_ERROR_NONE;
1198:D:/fchai/work/i-cube/I-CUBE-HUAWEI/Drivers/BSP/IKS01A3\iks01a3_motion_sensors.c ****       }
1199:D:/fchai/work/i-cube/I-CUBE-HUAWEI/Drivers/BSP/IKS01A3\iks01a3_motion_sensors.c ****     }
1200:D:/fchai/work/i-cube/I-CUBE-HUAWEI/Drivers/BSP/IKS01A3\iks01a3_motion_sensors.c ****     if ((ret == BSP_ERROR_NONE) && ((Functions & MOTION_ACCELERO) == MOTION_ACCELERO) && (cap.Acc =
1201:D:/fchai/work/i-cube/I-CUBE-HUAWEI/Drivers/BSP/IKS01A3\iks01a3_motion_sensors.c ****     {
1202:D:/fchai/work/i-cube/I-CUBE-HUAWEI/Drivers/BSP/IKS01A3\iks01a3_motion_sensors.c ****       /* The second cast (void *) is added to bypass Misra R11.3 rule */
1203:D:/fchai/work/i-cube/I-CUBE-HUAWEI/Drivers/BSP/IKS01A3\iks01a3_motion_sensors.c ****       MotionFuncDrv[IKS01A3_LSM6DSO_0][FunctionIndex[MOTION_ACCELERO]] = (MOTION_SENSOR_FuncDrv_t *
1204:D:/fchai/work/i-cube/I-CUBE-HUAWEI/Drivers/BSP/IKS01A3\iks01a3_motion_sensors.c ****             void *)&LSM6DSO_ACC_Driver;
1205:D:/fchai/work/i-cube/I-CUBE-HUAWEI/Drivers/BSP/IKS01A3\iks01a3_motion_sensors.c **** 
1206:D:/fchai/work/i-cube/I-CUBE-HUAWEI/Drivers/BSP/IKS01A3\iks01a3_motion_sensors.c ****       if (MotionDrv[IKS01A3_LSM6DSO_0]->Init(MotionCompObj[IKS01A3_LSM6DSO_0]) != LSM6DSO_OK)
1207:D:/fchai/work/i-cube/I-CUBE-HUAWEI/Drivers/BSP/IKS01A3\iks01a3_motion_sensors.c ****       {
1208:D:/fchai/work/i-cube/I-CUBE-HUAWEI/Drivers/BSP/IKS01A3\iks01a3_motion_sensors.c ****         ret = BSP_ERROR_COMPONENT_FAILURE;
1209:D:/fchai/work/i-cube/I-CUBE-HUAWEI/Drivers/BSP/IKS01A3\iks01a3_motion_sensors.c ****       }
1210:D:/fchai/work/i-cube/I-CUBE-HUAWEI/Drivers/BSP/IKS01A3\iks01a3_motion_sensors.c ****       else
1211:D:/fchai/work/i-cube/I-CUBE-HUAWEI/Drivers/BSP/IKS01A3\iks01a3_motion_sensors.c ****       {
1212:D:/fchai/work/i-cube/I-CUBE-HUAWEI/Drivers/BSP/IKS01A3\iks01a3_motion_sensors.c ****         ret = BSP_ERROR_NONE;
1213:D:/fchai/work/i-cube/I-CUBE-HUAWEI/Drivers/BSP/IKS01A3\iks01a3_motion_sensors.c ****       }
1214:D:/fchai/work/i-cube/I-CUBE-HUAWEI/Drivers/BSP/IKS01A3\iks01a3_motion_sensors.c ****     }
1215:D:/fchai/work/i-cube/I-CUBE-HUAWEI/Drivers/BSP/IKS01A3\iks01a3_motion_sensors.c ****     if ((ret == BSP_ERROR_NONE) && ((Functions & MOTION_MAGNETO) == MOTION_MAGNETO))
1216:D:/fchai/work/i-cube/I-CUBE-HUAWEI/Drivers/BSP/IKS01A3\iks01a3_motion_sensors.c ****     {
1217:D:/fchai/work/i-cube/I-CUBE-HUAWEI/Drivers/BSP/IKS01A3\iks01a3_motion_sensors.c ****       /* Return an error if the application try to initialize a function not supported by the compo
1218:D:/fchai/work/i-cube/I-CUBE-HUAWEI/Drivers/BSP/IKS01A3\iks01a3_motion_sensors.c ****       ret = BSP_ERROR_COMPONENT_FAILURE;
1219:D:/fchai/work/i-cube/I-CUBE-HUAWEI/Drivers/BSP/IKS01A3\iks01a3_motion_sensors.c ****     }
1220:D:/fchai/work/i-cube/I-CUBE-HUAWEI/Drivers/BSP/IKS01A3\iks01a3_motion_sensors.c ****   }
1221:D:/fchai/work/i-cube/I-CUBE-HUAWEI/Drivers/BSP/IKS01A3\iks01a3_motion_sensors.c ****   return ret;
1222:D:/fchai/work/i-cube/I-CUBE-HUAWEI/Drivers/BSP/IKS01A3\iks01a3_motion_sensors.c **** }
1223:D:/fchai/work/i-cube/I-CUBE-HUAWEI/Drivers/BSP/IKS01A3\iks01a3_motion_sensors.c **** #endif
ARM GAS  T:\msys\tmp\ccgRcQCS.s 			page 24


1224:D:/fchai/work/i-cube/I-CUBE-HUAWEI/Drivers/BSP/IKS01A3\iks01a3_motion_sensors.c **** 
1225:D:/fchai/work/i-cube/I-CUBE-HUAWEI/Drivers/BSP/IKS01A3\iks01a3_motion_sensors.c **** #if (USE_IKS01A3_MOTION_SENSOR_LIS2DW12_0  == 1)
1226:D:/fchai/work/i-cube/I-CUBE-HUAWEI/Drivers/BSP/IKS01A3\iks01a3_motion_sensors.c **** /**
1227:D:/fchai/work/i-cube/I-CUBE-HUAWEI/Drivers/BSP/IKS01A3\iks01a3_motion_sensors.c ****  * @brief  Register Bus IOs for instance 1 if component ID is OK
1228:D:/fchai/work/i-cube/I-CUBE-HUAWEI/Drivers/BSP/IKS01A3\iks01a3_motion_sensors.c ****  * @retval BSP status
1229:D:/fchai/work/i-cube/I-CUBE-HUAWEI/Drivers/BSP/IKS01A3\iks01a3_motion_sensors.c ****  */
1230:D:/fchai/work/i-cube/I-CUBE-HUAWEI/Drivers/BSP/IKS01A3\iks01a3_motion_sensors.c **** static int32_t LIS2DW12_0_Probe(uint32_t Functions)
  86              		.loc 1 1230 16 view .LVU14
  87              	.LBB9:
1231:D:/fchai/work/i-cube/I-CUBE-HUAWEI/Drivers/BSP/IKS01A3\iks01a3_motion_sensors.c **** {
1232:D:/fchai/work/i-cube/I-CUBE-HUAWEI/Drivers/BSP/IKS01A3\iks01a3_motion_sensors.c ****   LIS2DW12_IO_t            io_ctx;
  88              		.loc 1 1232 3 view .LVU15
1233:D:/fchai/work/i-cube/I-CUBE-HUAWEI/Drivers/BSP/IKS01A3\iks01a3_motion_sensors.c ****   uint8_t                  id;
  89              		.loc 1 1233 3 view .LVU16
1234:D:/fchai/work/i-cube/I-CUBE-HUAWEI/Drivers/BSP/IKS01A3\iks01a3_motion_sensors.c ****   static LIS2DW12_Object_t lis2dw12_obj_0;
  90              		.loc 1 1234 3 view .LVU17
1235:D:/fchai/work/i-cube/I-CUBE-HUAWEI/Drivers/BSP/IKS01A3\iks01a3_motion_sensors.c ****   LIS2DW12_Capabilities_t  cap;
  91              		.loc 1 1235 3 view .LVU18
1236:D:/fchai/work/i-cube/I-CUBE-HUAWEI/Drivers/BSP/IKS01A3\iks01a3_motion_sensors.c ****   int32_t ret = BSP_ERROR_NONE;
  92              		.loc 1 1236 3 view .LVU19
1237:D:/fchai/work/i-cube/I-CUBE-HUAWEI/Drivers/BSP/IKS01A3\iks01a3_motion_sensors.c **** 
1238:D:/fchai/work/i-cube/I-CUBE-HUAWEI/Drivers/BSP/IKS01A3\iks01a3_motion_sensors.c ****   /* Configure the accelero driver */
1239:D:/fchai/work/i-cube/I-CUBE-HUAWEI/Drivers/BSP/IKS01A3\iks01a3_motion_sensors.c ****   io_ctx.BusType     = LIS2DW12_I2C_BUS; /* I2C */
  93              		.loc 1 1239 3 view .LVU20
1240:D:/fchai/work/i-cube/I-CUBE-HUAWEI/Drivers/BSP/IKS01A3\iks01a3_motion_sensors.c ****   io_ctx.Address     = LIS2DW12_I2C_ADD_H;
1241:D:/fchai/work/i-cube/I-CUBE-HUAWEI/Drivers/BSP/IKS01A3\iks01a3_motion_sensors.c ****   io_ctx.Init        = IKS01A3_I2C_Init;
  94              		.loc 1 1241 22 is_stmt 0 view .LVU21
  95 0022 AF4B     		ldr	r3, .L51
1242:D:/fchai/work/i-cube/I-CUBE-HUAWEI/Drivers/BSP/IKS01A3\iks01a3_motion_sensors.c ****   io_ctx.DeInit      = IKS01A3_I2C_DeInit;
1243:D:/fchai/work/i-cube/I-CUBE-HUAWEI/Drivers/BSP/IKS01A3\iks01a3_motion_sensors.c ****   io_ctx.ReadReg     = IKS01A3_I2C_ReadReg;
1244:D:/fchai/work/i-cube/I-CUBE-HUAWEI/Drivers/BSP/IKS01A3\iks01a3_motion_sensors.c ****   io_ctx.WriteReg    = IKS01A3_I2C_WriteReg;
1245:D:/fchai/work/i-cube/I-CUBE-HUAWEI/Drivers/BSP/IKS01A3\iks01a3_motion_sensors.c ****   io_ctx.GetTick     = IKS01A3_GetTick;
1246:D:/fchai/work/i-cube/I-CUBE-HUAWEI/Drivers/BSP/IKS01A3\iks01a3_motion_sensors.c **** 
1247:D:/fchai/work/i-cube/I-CUBE-HUAWEI/Drivers/BSP/IKS01A3\iks01a3_motion_sensors.c ****   if (LIS2DW12_RegisterBusIO(&lis2dw12_obj_0, &io_ctx) != LIS2DW12_OK)
  96              		.loc 1 1247 7 view .LVU22
  97 0024 AF4D     		ldr	r5, .L51+4
1241:D:/fchai/work/i-cube/I-CUBE-HUAWEI/Drivers/BSP/IKS01A3\iks01a3_motion_sensors.c ****   io_ctx.DeInit      = IKS01A3_I2C_DeInit;
  98              		.loc 1 1241 22 view .LVU23
  99 0026 0493     		str	r3, [sp, #16]
1239:D:/fchai/work/i-cube/I-CUBE-HUAWEI/Drivers/BSP/IKS01A3\iks01a3_motion_sensors.c ****   io_ctx.Address     = LIS2DW12_I2C_ADD_H;
 100              		.loc 1 1239 22 view .LVU24
 101 0028 0022     		movs	r2, #0
1240:D:/fchai/work/i-cube/I-CUBE-HUAWEI/Drivers/BSP/IKS01A3\iks01a3_motion_sensors.c ****   io_ctx.Init        = IKS01A3_I2C_Init;
 102              		.loc 1 1240 22 view .LVU25
 103 002a 3323     		movs	r3, #51
1239:D:/fchai/work/i-cube/I-CUBE-HUAWEI/Drivers/BSP/IKS01A3\iks01a3_motion_sensors.c ****   io_ctx.Address     = LIS2DW12_I2C_ADD_H;
 104              		.loc 1 1239 22 view .LVU26
 105 002c 0692     		str	r2, [sp, #24]
1240:D:/fchai/work/i-cube/I-CUBE-HUAWEI/Drivers/BSP/IKS01A3\iks01a3_motion_sensors.c ****   io_ctx.Init        = IKS01A3_I2C_Init;
 106              		.loc 1 1240 3 is_stmt 1 view .LVU27
1240:D:/fchai/work/i-cube/I-CUBE-HUAWEI/Drivers/BSP/IKS01A3\iks01a3_motion_sensors.c ****   io_ctx.Init        = IKS01A3_I2C_Init;
 107              		.loc 1 1240 22 is_stmt 0 view .LVU28
 108 002e 8DF81C30 		strb	r3, [sp, #28]
1241:D:/fchai/work/i-cube/I-CUBE-HUAWEI/Drivers/BSP/IKS01A3\iks01a3_motion_sensors.c ****   io_ctx.DeInit      = IKS01A3_I2C_DeInit;
 109              		.loc 1 1241 3 is_stmt 1 view .LVU29
1242:D:/fchai/work/i-cube/I-CUBE-HUAWEI/Drivers/BSP/IKS01A3\iks01a3_motion_sensors.c ****   io_ctx.ReadReg     = IKS01A3_I2C_ReadReg;
 110              		.loc 1 1242 3 view .LVU30
ARM GAS  T:\msys\tmp\ccgRcQCS.s 			page 25


1242:D:/fchai/work/i-cube/I-CUBE-HUAWEI/Drivers/BSP/IKS01A3\iks01a3_motion_sensors.c ****   io_ctx.ReadReg     = IKS01A3_I2C_ReadReg;
 111              		.loc 1 1242 22 is_stmt 0 view .LVU31
 112 0032 AD4A     		ldr	r2, .L51+8
1243:D:/fchai/work/i-cube/I-CUBE-HUAWEI/Drivers/BSP/IKS01A3\iks01a3_motion_sensors.c ****   io_ctx.WriteReg    = IKS01A3_I2C_WriteReg;
 113              		.loc 1 1243 22 view .LVU32
 114 0034 AD4B     		ldr	r3, .L51+12
1242:D:/fchai/work/i-cube/I-CUBE-HUAWEI/Drivers/BSP/IKS01A3\iks01a3_motion_sensors.c ****   io_ctx.ReadReg     = IKS01A3_I2C_ReadReg;
 115              		.loc 1 1242 22 view .LVU33
 116 0036 0592     		str	r2, [sp, #20]
1243:D:/fchai/work/i-cube/I-CUBE-HUAWEI/Drivers/BSP/IKS01A3\iks01a3_motion_sensors.c ****   io_ctx.WriteReg    = IKS01A3_I2C_WriteReg;
 117              		.loc 1 1243 3 is_stmt 1 view .LVU34
1243:D:/fchai/work/i-cube/I-CUBE-HUAWEI/Drivers/BSP/IKS01A3\iks01a3_motion_sensors.c ****   io_ctx.WriteReg    = IKS01A3_I2C_WriteReg;
 118              		.loc 1 1243 22 is_stmt 0 view .LVU35
 119 0038 0993     		str	r3, [sp, #36]
1244:D:/fchai/work/i-cube/I-CUBE-HUAWEI/Drivers/BSP/IKS01A3\iks01a3_motion_sensors.c ****   io_ctx.GetTick     = IKS01A3_GetTick;
 120              		.loc 1 1244 3 is_stmt 1 view .LVU36
1244:D:/fchai/work/i-cube/I-CUBE-HUAWEI/Drivers/BSP/IKS01A3\iks01a3_motion_sensors.c ****   io_ctx.GetTick     = IKS01A3_GetTick;
 121              		.loc 1 1244 22 is_stmt 0 view .LVU37
 122 003a AD4A     		ldr	r2, .L51+16
1245:D:/fchai/work/i-cube/I-CUBE-HUAWEI/Drivers/BSP/IKS01A3\iks01a3_motion_sensors.c **** 
 123              		.loc 1 1245 22 view .LVU38
 124 003c AD4B     		ldr	r3, .L51+20
1244:D:/fchai/work/i-cube/I-CUBE-HUAWEI/Drivers/BSP/IKS01A3\iks01a3_motion_sensors.c ****   io_ctx.GetTick     = IKS01A3_GetTick;
 125              		.loc 1 1244 22 view .LVU39
 126 003e 0892     		str	r2, [sp, #32]
1245:D:/fchai/work/i-cube/I-CUBE-HUAWEI/Drivers/BSP/IKS01A3\iks01a3_motion_sensors.c **** 
 127              		.loc 1 1245 3 is_stmt 1 view .LVU40
 128              		.loc 1 1247 7 is_stmt 0 view .LVU41
 129 0040 2846     		mov	r0, r5
 130              	.LVL3:
 131              		.loc 1 1247 7 view .LVU42
 132 0042 04A9     		add	r1, sp, #16
 133              	.LVL4:
1245:D:/fchai/work/i-cube/I-CUBE-HUAWEI/Drivers/BSP/IKS01A3\iks01a3_motion_sensors.c **** 
 134              		.loc 1 1245 22 view .LVU43
 135 0044 0A93     		str	r3, [sp, #40]
 136              		.loc 1 1247 3 is_stmt 1 view .LVU44
 137              		.loc 1 1247 7 is_stmt 0 view .LVU45
 138 0046 FFF7FEFF 		bl	LIS2DW12_RegisterBusIO
 139              	.LVL5:
 140              		.loc 1 1247 6 view .LVU46
 141 004a 0028     		cmp	r0, #0
 142 004c 40F02081 		bne	.L22
1248:D:/fchai/work/i-cube/I-CUBE-HUAWEI/Drivers/BSP/IKS01A3\iks01a3_motion_sensors.c ****   {
1249:D:/fchai/work/i-cube/I-CUBE-HUAWEI/Drivers/BSP/IKS01A3\iks01a3_motion_sensors.c ****     ret = BSP_ERROR_UNKNOWN_COMPONENT;
1250:D:/fchai/work/i-cube/I-CUBE-HUAWEI/Drivers/BSP/IKS01A3\iks01a3_motion_sensors.c ****   }
1251:D:/fchai/work/i-cube/I-CUBE-HUAWEI/Drivers/BSP/IKS01A3\iks01a3_motion_sensors.c ****   else if (LIS2DW12_ReadID(&lis2dw12_obj_0, &id) != LIS2DW12_OK)
 143              		.loc 1 1251 8 is_stmt 1 view .LVU47
 144              		.loc 1 1251 12 is_stmt 0 view .LVU48
 145 0050 0DF10F01 		add	r1, sp, #15
 146 0054 2846     		mov	r0, r5
 147 0056 FFF7FEFF 		bl	LIS2DW12_ReadID
 148              	.LVL6:
 149              		.loc 1 1251 11 view .LVU49
 150 005a 0028     		cmp	r0, #0
 151 005c 40F01881 		bne	.L22
1252:D:/fchai/work/i-cube/I-CUBE-HUAWEI/Drivers/BSP/IKS01A3\iks01a3_motion_sensors.c ****   {
ARM GAS  T:\msys\tmp\ccgRcQCS.s 			page 26


1253:D:/fchai/work/i-cube/I-CUBE-HUAWEI/Drivers/BSP/IKS01A3\iks01a3_motion_sensors.c ****     ret = BSP_ERROR_UNKNOWN_COMPONENT;
1254:D:/fchai/work/i-cube/I-CUBE-HUAWEI/Drivers/BSP/IKS01A3\iks01a3_motion_sensors.c ****   }
1255:D:/fchai/work/i-cube/I-CUBE-HUAWEI/Drivers/BSP/IKS01A3\iks01a3_motion_sensors.c ****   else if (id != LIS2DW12_ID)
 152              		.loc 1 1255 8 is_stmt 1 view .LVU50
 153              		.loc 1 1255 11 is_stmt 0 view .LVU51
 154 0060 9DF80F30 		ldrb	r3, [sp, #15]	@ zero_extendqisi2
 155 0064 442B     		cmp	r3, #68
 156 0066 40F01381 		bne	.L22
1256:D:/fchai/work/i-cube/I-CUBE-HUAWEI/Drivers/BSP/IKS01A3\iks01a3_motion_sensors.c ****   {
1257:D:/fchai/work/i-cube/I-CUBE-HUAWEI/Drivers/BSP/IKS01A3\iks01a3_motion_sensors.c ****     ret = BSP_ERROR_UNKNOWN_COMPONENT;
1258:D:/fchai/work/i-cube/I-CUBE-HUAWEI/Drivers/BSP/IKS01A3\iks01a3_motion_sensors.c ****   }
1259:D:/fchai/work/i-cube/I-CUBE-HUAWEI/Drivers/BSP/IKS01A3\iks01a3_motion_sensors.c ****   else
1260:D:/fchai/work/i-cube/I-CUBE-HUAWEI/Drivers/BSP/IKS01A3\iks01a3_motion_sensors.c ****   {
1261:D:/fchai/work/i-cube/I-CUBE-HUAWEI/Drivers/BSP/IKS01A3\iks01a3_motion_sensors.c ****     (void)LIS2DW12_GetCapabilities(&lis2dw12_obj_0, &cap);
 157              		.loc 1 1261 5 is_stmt 1 view .LVU52
 158              		.loc 1 1261 11 is_stmt 0 view .LVU53
 159 006a 0BA9     		add	r1, sp, #44
 160 006c 2846     		mov	r0, r5
 161 006e 0191     		str	r1, [sp, #4]
 162 0070 FFF7FEFF 		bl	LIS2DW12_GetCapabilities
 163              	.LVL7:
1262:D:/fchai/work/i-cube/I-CUBE-HUAWEI/Drivers/BSP/IKS01A3\iks01a3_motion_sensors.c ****     MotionCtx[IKS01A3_LIS2DW12_0].Functions = ((uint32_t)cap.Gyro) | ((uint32_t)cap.Acc << 1) | ((u
 164              		.loc 1 1262 5 is_stmt 1 view .LVU54
 165              		.loc 1 1262 84 is_stmt 0 view .LVU55
 166 0074 9DF82C20 		ldrb	r2, [sp, #44]	@ zero_extendqisi2
 167              		.loc 1 1262 98 view .LVU56
 168 0078 9DF82E40 		ldrb	r4, [sp, #46]	@ zero_extendqisi2
 169              		.loc 1 1262 48 view .LVU57
 170 007c 9DF82DC0 		ldrb	ip, [sp, #45]	@ zero_extendqisi2
 171              		.loc 1 1262 45 view .LVU58
 172 0080 9D48     		ldr	r0, .L51+24
1263:D:/fchai/work/i-cube/I-CUBE-HUAWEI/Drivers/BSP/IKS01A3\iks01a3_motion_sensors.c **** 
1264:D:/fchai/work/i-cube/I-CUBE-HUAWEI/Drivers/BSP/IKS01A3\iks01a3_motion_sensors.c ****     MotionCompObj[IKS01A3_LIS2DW12_0] = &lis2dw12_obj_0;
 173              		.loc 1 1264 39 view .LVU59
 174 0082 DFF8A492 		ldr	r9, .L51+72
1265:D:/fchai/work/i-cube/I-CUBE-HUAWEI/Drivers/BSP/IKS01A3\iks01a3_motion_sensors.c ****     /* The second cast (void *) is added to bypass Misra R11.3 rule */
1266:D:/fchai/work/i-cube/I-CUBE-HUAWEI/Drivers/BSP/IKS01A3\iks01a3_motion_sensors.c ****     MotionDrv[IKS01A3_LIS2DW12_0] = (MOTION_SENSOR_CommonDrv_t *)(void *)&LIS2DW12_COMMON_Driver;
1267:D:/fchai/work/i-cube/I-CUBE-HUAWEI/Drivers/BSP/IKS01A3\iks01a3_motion_sensors.c **** 
1268:D:/fchai/work/i-cube/I-CUBE-HUAWEI/Drivers/BSP/IKS01A3\iks01a3_motion_sensors.c ****     if ((ret == BSP_ERROR_NONE) && ((Functions & MOTION_ACCELERO) == MOTION_ACCELERO) && (cap.Acc =
 175              		.loc 1 1268 33 view .LVU60
 176 0086 0199     		ldr	r1, [sp, #4]
1264:D:/fchai/work/i-cube/I-CUBE-HUAWEI/Drivers/BSP/IKS01A3\iks01a3_motion_sensors.c ****     /* The second cast (void *) is added to bypass Misra R11.3 rule */
 177              		.loc 1 1264 39 view .LVU61
 178 0088 C9F80450 		str	r5, [r9, #4]
1262:D:/fchai/work/i-cube/I-CUBE-HUAWEI/Drivers/BSP/IKS01A3\iks01a3_motion_sensors.c **** 
 179              		.loc 1 1262 89 view .LVU62
 180 008c 5300     		lsls	r3, r2, #1
1262:D:/fchai/work/i-cube/I-CUBE-HUAWEI/Drivers/BSP/IKS01A3\iks01a3_motion_sensors.c **** 
 181              		.loc 1 1262 95 view .LVU63
 182 008e 43EA8403 		orr	r3, r3, r4, lsl #2
 183 0092 43EA0C03 		orr	r3, r3, ip
1266:D:/fchai/work/i-cube/I-CUBE-HUAWEI/Drivers/BSP/IKS01A3\iks01a3_motion_sensors.c **** 
 184              		.loc 1 1266 35 view .LVU64
 185 0096 994C     		ldr	r4, .L51+28
1262:D:/fchai/work/i-cube/I-CUBE-HUAWEI/Drivers/BSP/IKS01A3\iks01a3_motion_sensors.c **** 
 186              		.loc 1 1262 45 view .LVU65
 187 0098 4360     		str	r3, [r0, #4]
ARM GAS  T:\msys\tmp\ccgRcQCS.s 			page 27


1264:D:/fchai/work/i-cube/I-CUBE-HUAWEI/Drivers/BSP/IKS01A3\iks01a3_motion_sensors.c ****     /* The second cast (void *) is added to bypass Misra R11.3 rule */
 188              		.loc 1 1264 5 is_stmt 1 view .LVU66
1266:D:/fchai/work/i-cube/I-CUBE-HUAWEI/Drivers/BSP/IKS01A3\iks01a3_motion_sensors.c **** 
 189              		.loc 1 1266 5 view .LVU67
 190              		.loc 1 1268 33 is_stmt 0 view .LVU68
 191 009a 17F0020F 		tst	r7, #2
1266:D:/fchai/work/i-cube/I-CUBE-HUAWEI/Drivers/BSP/IKS01A3\iks01a3_motion_sensors.c **** 
 192              		.loc 1 1266 35 view .LVU69
 193 009e 984B     		ldr	r3, .L51+32
 194 00a0 6360     		str	r3, [r4, #4]
 195              		.loc 1 1268 5 is_stmt 1 view .LVU70
 196              		.loc 1 1268 33 is_stmt 0 view .LVU71
 197 00a2 40F0E780 		bne	.L16
 198              	.L18:
1269:D:/fchai/work/i-cube/I-CUBE-HUAWEI/Drivers/BSP/IKS01A3\iks01a3_motion_sensors.c ****     {
1270:D:/fchai/work/i-cube/I-CUBE-HUAWEI/Drivers/BSP/IKS01A3\iks01a3_motion_sensors.c ****       /* The second cast (void *) is added to bypass Misra R11.3 rule */
1271:D:/fchai/work/i-cube/I-CUBE-HUAWEI/Drivers/BSP/IKS01A3\iks01a3_motion_sensors.c ****       MotionFuncDrv[IKS01A3_LIS2DW12_0][FunctionIndex[MOTION_ACCELERO]] = (MOTION_SENSOR_FuncDrv_t 
1272:D:/fchai/work/i-cube/I-CUBE-HUAWEI/Drivers/BSP/IKS01A3\iks01a3_motion_sensors.c ****             void *)&LIS2DW12_ACC_Driver;
1273:D:/fchai/work/i-cube/I-CUBE-HUAWEI/Drivers/BSP/IKS01A3\iks01a3_motion_sensors.c **** 
1274:D:/fchai/work/i-cube/I-CUBE-HUAWEI/Drivers/BSP/IKS01A3\iks01a3_motion_sensors.c ****       if (MotionDrv[IKS01A3_LIS2DW12_0]->Init(MotionCompObj[IKS01A3_LIS2DW12_0]) != LIS2DW12_OK)
1275:D:/fchai/work/i-cube/I-CUBE-HUAWEI/Drivers/BSP/IKS01A3\iks01a3_motion_sensors.c ****       {
1276:D:/fchai/work/i-cube/I-CUBE-HUAWEI/Drivers/BSP/IKS01A3\iks01a3_motion_sensors.c ****         ret = BSP_ERROR_COMPONENT_FAILURE;
1277:D:/fchai/work/i-cube/I-CUBE-HUAWEI/Drivers/BSP/IKS01A3\iks01a3_motion_sensors.c ****       }
1278:D:/fchai/work/i-cube/I-CUBE-HUAWEI/Drivers/BSP/IKS01A3\iks01a3_motion_sensors.c ****       else
1279:D:/fchai/work/i-cube/I-CUBE-HUAWEI/Drivers/BSP/IKS01A3\iks01a3_motion_sensors.c ****       {
1280:D:/fchai/work/i-cube/I-CUBE-HUAWEI/Drivers/BSP/IKS01A3\iks01a3_motion_sensors.c ****         ret = BSP_ERROR_NONE;
1281:D:/fchai/work/i-cube/I-CUBE-HUAWEI/Drivers/BSP/IKS01A3\iks01a3_motion_sensors.c ****       }
1282:D:/fchai/work/i-cube/I-CUBE-HUAWEI/Drivers/BSP/IKS01A3\iks01a3_motion_sensors.c ****     }
1283:D:/fchai/work/i-cube/I-CUBE-HUAWEI/Drivers/BSP/IKS01A3\iks01a3_motion_sensors.c ****     if ((ret == BSP_ERROR_NONE) && ((Functions & MOTION_GYRO) == MOTION_GYRO))
1284:D:/fchai/work/i-cube/I-CUBE-HUAWEI/Drivers/BSP/IKS01A3\iks01a3_motion_sensors.c ****     {
1285:D:/fchai/work/i-cube/I-CUBE-HUAWEI/Drivers/BSP/IKS01A3\iks01a3_motion_sensors.c ****       /* Return an error if the application try to initialize a function not supported by the compo
1286:D:/fchai/work/i-cube/I-CUBE-HUAWEI/Drivers/BSP/IKS01A3\iks01a3_motion_sensors.c ****       ret = BSP_ERROR_COMPONENT_FAILURE;
1287:D:/fchai/work/i-cube/I-CUBE-HUAWEI/Drivers/BSP/IKS01A3\iks01a3_motion_sensors.c ****     }
1288:D:/fchai/work/i-cube/I-CUBE-HUAWEI/Drivers/BSP/IKS01A3\iks01a3_motion_sensors.c ****     if ((ret == BSP_ERROR_NONE) && ((Functions & MOTION_MAGNETO) == MOTION_MAGNETO))
 199              		.loc 1 1288 5 is_stmt 1 view .LVU72
 200              		.loc 1 1288 33 is_stmt 0 view .LVU73
 201 00a6 17F00508 		ands	r8, r7, #5
 202 00aa 40F0F180 		bne	.L22
1289:D:/fchai/work/i-cube/I-CUBE-HUAWEI/Drivers/BSP/IKS01A3\iks01a3_motion_sensors.c ****     {
1290:D:/fchai/work/i-cube/I-CUBE-HUAWEI/Drivers/BSP/IKS01A3\iks01a3_motion_sensors.c ****       /* Return an error if the application try to initialize a function not supported by the compo
1291:D:/fchai/work/i-cube/I-CUBE-HUAWEI/Drivers/BSP/IKS01A3\iks01a3_motion_sensors.c ****       ret = BSP_ERROR_COMPONENT_FAILURE;
1292:D:/fchai/work/i-cube/I-CUBE-HUAWEI/Drivers/BSP/IKS01A3\iks01a3_motion_sensors.c ****     }
1293:D:/fchai/work/i-cube/I-CUBE-HUAWEI/Drivers/BSP/IKS01A3\iks01a3_motion_sensors.c ****   }
1294:D:/fchai/work/i-cube/I-CUBE-HUAWEI/Drivers/BSP/IKS01A3\iks01a3_motion_sensors.c ****   return ret;
 203              		.loc 1 1294 3 is_stmt 1 view .LVU74
 204              	.LVL8:
 205              		.loc 1 1294 3 is_stmt 0 view .LVU75
 206              	.LBE9:
 207              	.LBE8:
 203:D:/fchai/work/i-cube/I-CUBE-HUAWEI/Drivers/BSP/IKS01A3\iks01a3_motion_sensors.c ****       {
 208              		.loc 1 203 7 is_stmt 1 view .LVU76
 203:D:/fchai/work/i-cube/I-CUBE-HUAWEI/Drivers/BSP/IKS01A3\iks01a3_motion_sensors.c ****       {
 209              		.loc 1 203 30 is_stmt 0 view .LVU77
 210 00ae 6368     		ldr	r3, [r4, #4]
 203:D:/fchai/work/i-cube/I-CUBE-HUAWEI/Drivers/BSP/IKS01A3\iks01a3_motion_sensors.c ****       {
 211              		.loc 1 203 11 view .LVU78
 212 00b0 D9F80400 		ldr	r0, [r9, #4]
ARM GAS  T:\msys\tmp\ccgRcQCS.s 			page 28


 213 00b4 DB68     		ldr	r3, [r3, #12]
 214 00b6 9847     		blx	r3
 215              	.LVL9:
 203:D:/fchai/work/i-cube/I-CUBE-HUAWEI/Drivers/BSP/IKS01A3\iks01a3_motion_sensors.c ****       {
 216              		.loc 1 203 10 view .LVU79
 217 00b8 0028     		cmp	r0, #0
 218 00ba 00F09E80 		beq	.L46
 219              	.L10:
 180:D:/fchai/work/i-cube/I-CUBE-HUAWEI/Drivers/BSP/IKS01A3\iks01a3_motion_sensors.c ****       }
 220              		.loc 1 180 16 view .LVU80
 221 00be 6FF00600 		mvn	r0, #6
 222 00c2 ABE7     		b	.L1
 223              	.LVL10:
 224              	.L49:
 174:D:/fchai/work/i-cube/I-CUBE-HUAWEI/Drivers/BSP/IKS01A3\iks01a3_motion_sensors.c ****       {
 225              		.loc 1 174 7 is_stmt 1 view .LVU81
 226              	.LBB11:
 227              	.LBI11:
1148:D:/fchai/work/i-cube/I-CUBE-HUAWEI/Drivers/BSP/IKS01A3\iks01a3_motion_sensors.c **** {
 228              		.loc 1 1148 16 view .LVU82
 229              	.LBB12:
1150:D:/fchai/work/i-cube/I-CUBE-HUAWEI/Drivers/BSP/IKS01A3\iks01a3_motion_sensors.c ****   uint8_t                 id;
 230              		.loc 1 1150 3 view .LVU83
1151:D:/fchai/work/i-cube/I-CUBE-HUAWEI/Drivers/BSP/IKS01A3\iks01a3_motion_sensors.c ****   static LSM6DSO_Object_t lsm6dso_obj_0;
 231              		.loc 1 1151 3 view .LVU84
1152:D:/fchai/work/i-cube/I-CUBE-HUAWEI/Drivers/BSP/IKS01A3\iks01a3_motion_sensors.c ****   LSM6DSO_Capabilities_t  cap;
 232              		.loc 1 1152 3 view .LVU85
1153:D:/fchai/work/i-cube/I-CUBE-HUAWEI/Drivers/BSP/IKS01A3\iks01a3_motion_sensors.c ****   int32_t ret = BSP_ERROR_NONE;
 233              		.loc 1 1153 3 view .LVU86
1154:D:/fchai/work/i-cube/I-CUBE-HUAWEI/Drivers/BSP/IKS01A3\iks01a3_motion_sensors.c **** 
 234              		.loc 1 1154 3 view .LVU87
1157:D:/fchai/work/i-cube/I-CUBE-HUAWEI/Drivers/BSP/IKS01A3\iks01a3_motion_sensors.c ****   io_ctx.Address     = LSM6DSO_I2C_ADD_H;
 235              		.loc 1 1157 3 view .LVU88
1159:D:/fchai/work/i-cube/I-CUBE-HUAWEI/Drivers/BSP/IKS01A3\iks01a3_motion_sensors.c ****   io_ctx.DeInit      = IKS01A3_I2C_DeInit;
 236              		.loc 1 1159 22 is_stmt 0 view .LVU89
 237 00c4 864B     		ldr	r3, .L51
1165:D:/fchai/work/i-cube/I-CUBE-HUAWEI/Drivers/BSP/IKS01A3\iks01a3_motion_sensors.c ****   {
 238              		.loc 1 1165 7 view .LVU90
 239 00c6 8F4D     		ldr	r5, .L51+36
1159:D:/fchai/work/i-cube/I-CUBE-HUAWEI/Drivers/BSP/IKS01A3\iks01a3_motion_sensors.c ****   io_ctx.DeInit      = IKS01A3_I2C_DeInit;
 240              		.loc 1 1159 22 view .LVU91
 241 00c8 0493     		str	r3, [sp, #16]
1158:D:/fchai/work/i-cube/I-CUBE-HUAWEI/Drivers/BSP/IKS01A3\iks01a3_motion_sensors.c ****   io_ctx.Init        = IKS01A3_I2C_Init;
 242              		.loc 1 1158 22 view .LVU92
 243 00ca D722     		movs	r2, #215
1161:D:/fchai/work/i-cube/I-CUBE-HUAWEI/Drivers/BSP/IKS01A3\iks01a3_motion_sensors.c ****   io_ctx.WriteReg    = IKS01A3_I2C_WriteReg;
 244              		.loc 1 1161 22 view .LVU93
 245 00cc 874B     		ldr	r3, .L51+12
1158:D:/fchai/work/i-cube/I-CUBE-HUAWEI/Drivers/BSP/IKS01A3\iks01a3_motion_sensors.c ****   io_ctx.Init        = IKS01A3_I2C_Init;
 246              		.loc 1 1158 22 view .LVU94
 247 00ce 8DF81C20 		strb	r2, [sp, #28]
1160:D:/fchai/work/i-cube/I-CUBE-HUAWEI/Drivers/BSP/IKS01A3\iks01a3_motion_sensors.c ****   io_ctx.ReadReg     = IKS01A3_I2C_ReadReg;
 248              		.loc 1 1160 22 view .LVU95
 249 00d2 854A     		ldr	r2, .L51+8
1157:D:/fchai/work/i-cube/I-CUBE-HUAWEI/Drivers/BSP/IKS01A3\iks01a3_motion_sensors.c ****   io_ctx.Address     = LSM6DSO_I2C_ADD_H;
 250              		.loc 1 1157 22 view .LVU96
 251 00d4 0690     		str	r0, [sp, #24]
ARM GAS  T:\msys\tmp\ccgRcQCS.s 			page 29


1158:D:/fchai/work/i-cube/I-CUBE-HUAWEI/Drivers/BSP/IKS01A3\iks01a3_motion_sensors.c ****   io_ctx.Init        = IKS01A3_I2C_Init;
 252              		.loc 1 1158 3 is_stmt 1 view .LVU97
1159:D:/fchai/work/i-cube/I-CUBE-HUAWEI/Drivers/BSP/IKS01A3\iks01a3_motion_sensors.c ****   io_ctx.DeInit      = IKS01A3_I2C_DeInit;
 253              		.loc 1 1159 3 view .LVU98
1160:D:/fchai/work/i-cube/I-CUBE-HUAWEI/Drivers/BSP/IKS01A3\iks01a3_motion_sensors.c ****   io_ctx.ReadReg     = IKS01A3_I2C_ReadReg;
 254              		.loc 1 1160 3 view .LVU99
1160:D:/fchai/work/i-cube/I-CUBE-HUAWEI/Drivers/BSP/IKS01A3\iks01a3_motion_sensors.c ****   io_ctx.ReadReg     = IKS01A3_I2C_ReadReg;
 255              		.loc 1 1160 22 is_stmt 0 view .LVU100
 256 00d6 0592     		str	r2, [sp, #20]
1161:D:/fchai/work/i-cube/I-CUBE-HUAWEI/Drivers/BSP/IKS01A3\iks01a3_motion_sensors.c ****   io_ctx.WriteReg    = IKS01A3_I2C_WriteReg;
 257              		.loc 1 1161 3 is_stmt 1 view .LVU101
1161:D:/fchai/work/i-cube/I-CUBE-HUAWEI/Drivers/BSP/IKS01A3\iks01a3_motion_sensors.c ****   io_ctx.WriteReg    = IKS01A3_I2C_WriteReg;
 258              		.loc 1 1161 22 is_stmt 0 view .LVU102
 259 00d8 0993     		str	r3, [sp, #36]
1162:D:/fchai/work/i-cube/I-CUBE-HUAWEI/Drivers/BSP/IKS01A3\iks01a3_motion_sensors.c ****   io_ctx.GetTick     = IKS01A3_GetTick;
 260              		.loc 1 1162 3 is_stmt 1 view .LVU103
1162:D:/fchai/work/i-cube/I-CUBE-HUAWEI/Drivers/BSP/IKS01A3\iks01a3_motion_sensors.c ****   io_ctx.GetTick     = IKS01A3_GetTick;
 261              		.loc 1 1162 22 is_stmt 0 view .LVU104
 262 00da 854A     		ldr	r2, .L51+16
1163:D:/fchai/work/i-cube/I-CUBE-HUAWEI/Drivers/BSP/IKS01A3\iks01a3_motion_sensors.c **** 
 263              		.loc 1 1163 22 view .LVU105
 264 00dc 854B     		ldr	r3, .L51+20
1162:D:/fchai/work/i-cube/I-CUBE-HUAWEI/Drivers/BSP/IKS01A3\iks01a3_motion_sensors.c ****   io_ctx.GetTick     = IKS01A3_GetTick;
 265              		.loc 1 1162 22 view .LVU106
 266 00de 0892     		str	r2, [sp, #32]
1163:D:/fchai/work/i-cube/I-CUBE-HUAWEI/Drivers/BSP/IKS01A3\iks01a3_motion_sensors.c **** 
 267              		.loc 1 1163 3 is_stmt 1 view .LVU107
1165:D:/fchai/work/i-cube/I-CUBE-HUAWEI/Drivers/BSP/IKS01A3\iks01a3_motion_sensors.c ****   {
 268              		.loc 1 1165 7 is_stmt 0 view .LVU108
 269 00e0 2846     		mov	r0, r5
 270              	.LVL11:
1165:D:/fchai/work/i-cube/I-CUBE-HUAWEI/Drivers/BSP/IKS01A3\iks01a3_motion_sensors.c ****   {
 271              		.loc 1 1165 7 view .LVU109
 272 00e2 04A9     		add	r1, sp, #16
 273              	.LVL12:
1163:D:/fchai/work/i-cube/I-CUBE-HUAWEI/Drivers/BSP/IKS01A3\iks01a3_motion_sensors.c **** 
 274              		.loc 1 1163 22 view .LVU110
 275 00e4 0A93     		str	r3, [sp, #40]
1165:D:/fchai/work/i-cube/I-CUBE-HUAWEI/Drivers/BSP/IKS01A3\iks01a3_motion_sensors.c ****   {
 276              		.loc 1 1165 3 is_stmt 1 view .LVU111
1165:D:/fchai/work/i-cube/I-CUBE-HUAWEI/Drivers/BSP/IKS01A3\iks01a3_motion_sensors.c ****   {
 277              		.loc 1 1165 7 is_stmt 0 view .LVU112
 278 00e6 FFF7FEFF 		bl	LSM6DSO_RegisterBusIO
 279              	.LVL13:
1165:D:/fchai/work/i-cube/I-CUBE-HUAWEI/Drivers/BSP/IKS01A3\iks01a3_motion_sensors.c ****   {
 280              		.loc 1 1165 6 view .LVU113
 281 00ea 0028     		cmp	r0, #0
 282 00ec 40F0D080 		bne	.L22
1169:D:/fchai/work/i-cube/I-CUBE-HUAWEI/Drivers/BSP/IKS01A3\iks01a3_motion_sensors.c ****   {
 283              		.loc 1 1169 8 is_stmt 1 view .LVU114
1169:D:/fchai/work/i-cube/I-CUBE-HUAWEI/Drivers/BSP/IKS01A3\iks01a3_motion_sensors.c ****   {
 284              		.loc 1 1169 12 is_stmt 0 view .LVU115
 285 00f0 0DF10F01 		add	r1, sp, #15
 286 00f4 2846     		mov	r0, r5
 287 00f6 FFF7FEFF 		bl	LSM6DSO_ReadID
 288              	.LVL14:
1169:D:/fchai/work/i-cube/I-CUBE-HUAWEI/Drivers/BSP/IKS01A3\iks01a3_motion_sensors.c ****   {
ARM GAS  T:\msys\tmp\ccgRcQCS.s 			page 30


 289              		.loc 1 1169 11 view .LVU116
 290 00fa 0028     		cmp	r0, #0
 291 00fc 40F0C880 		bne	.L22
1173:D:/fchai/work/i-cube/I-CUBE-HUAWEI/Drivers/BSP/IKS01A3\iks01a3_motion_sensors.c ****   {
 292              		.loc 1 1173 8 is_stmt 1 view .LVU117
1173:D:/fchai/work/i-cube/I-CUBE-HUAWEI/Drivers/BSP/IKS01A3\iks01a3_motion_sensors.c ****   {
 293              		.loc 1 1173 11 is_stmt 0 view .LVU118
 294 0100 9DF80F30 		ldrb	r3, [sp, #15]	@ zero_extendqisi2
 295 0104 6C2B     		cmp	r3, #108
 296 0106 40F0C380 		bne	.L22
1179:D:/fchai/work/i-cube/I-CUBE-HUAWEI/Drivers/BSP/IKS01A3\iks01a3_motion_sensors.c ****     MotionCtx[IKS01A3_LSM6DSO_0].Functions = ((uint32_t)cap.Gyro) | ((uint32_t)cap.Acc << 1) | ((ui
 297              		.loc 1 1179 5 is_stmt 1 view .LVU119
1179:D:/fchai/work/i-cube/I-CUBE-HUAWEI/Drivers/BSP/IKS01A3\iks01a3_motion_sensors.c ****     MotionCtx[IKS01A3_LSM6DSO_0].Functions = ((uint32_t)cap.Gyro) | ((uint32_t)cap.Acc << 1) | ((ui
 298              		.loc 1 1179 11 is_stmt 0 view .LVU120
 299 010a 0BA9     		add	r1, sp, #44
 300 010c 2846     		mov	r0, r5
 301 010e 0191     		str	r1, [sp, #4]
 302 0110 FFF7FEFF 		bl	LSM6DSO_GetCapabilities
 303              	.LVL15:
1180:D:/fchai/work/i-cube/I-CUBE-HUAWEI/Drivers/BSP/IKS01A3\iks01a3_motion_sensors.c **** 
 304              		.loc 1 1180 5 is_stmt 1 view .LVU121
1180:D:/fchai/work/i-cube/I-CUBE-HUAWEI/Drivers/BSP/IKS01A3\iks01a3_motion_sensors.c **** 
 305              		.loc 1 1180 97 is_stmt 0 view .LVU122
 306 0114 9DF82E30 		ldrb	r3, [sp, #46]	@ zero_extendqisi2
1180:D:/fchai/work/i-cube/I-CUBE-HUAWEI/Drivers/BSP/IKS01A3\iks01a3_motion_sensors.c **** 
 307              		.loc 1 1180 70 view .LVU123
 308 0118 9DF82C40 		ldrb	r4, [sp, #44]	@ zero_extendqisi2
1180:D:/fchai/work/i-cube/I-CUBE-HUAWEI/Drivers/BSP/IKS01A3\iks01a3_motion_sensors.c **** 
 309              		.loc 1 1180 60 view .LVU124
 310 011c 9DF82D20 		ldrb	r2, [sp, #45]	@ zero_extendqisi2
1180:D:/fchai/work/i-cube/I-CUBE-HUAWEI/Drivers/BSP/IKS01A3\iks01a3_motion_sensors.c **** 
 311              		.loc 1 1180 44 view .LVU125
 312 0120 7548     		ldr	r0, .L51+24
1182:D:/fchai/work/i-cube/I-CUBE-HUAWEI/Drivers/BSP/IKS01A3\iks01a3_motion_sensors.c ****     /* The second cast (void *) is added to bypass Misra R11.3 rule */
 313              		.loc 1 1182 38 view .LVU126
 314 0122 DFF80492 		ldr	r9, .L51+72
1186:D:/fchai/work/i-cube/I-CUBE-HUAWEI/Drivers/BSP/IKS01A3\iks01a3_motion_sensors.c ****     {
 315              		.loc 1 1186 33 view .LVU127
 316 0126 0199     		ldr	r1, [sp, #4]
1182:D:/fchai/work/i-cube/I-CUBE-HUAWEI/Drivers/BSP/IKS01A3\iks01a3_motion_sensors.c ****     /* The second cast (void *) is added to bypass Misra R11.3 rule */
 317              		.loc 1 1182 38 view .LVU128
 318 0128 C9F80050 		str	r5, [r9]
1180:D:/fchai/work/i-cube/I-CUBE-HUAWEI/Drivers/BSP/IKS01A3\iks01a3_motion_sensors.c **** 
 319              		.loc 1 1180 119 view .LVU129
 320 012c 9B00     		lsls	r3, r3, #2
1180:D:/fchai/work/i-cube/I-CUBE-HUAWEI/Drivers/BSP/IKS01A3\iks01a3_motion_sensors.c **** 
 321              		.loc 1 1180 94 view .LVU130
 322 012e 43EA4403 		orr	r3, r3, r4, lsl #1
 323 0132 1343     		orrs	r3, r3, r2
1184:D:/fchai/work/i-cube/I-CUBE-HUAWEI/Drivers/BSP/IKS01A3\iks01a3_motion_sensors.c **** 
 324              		.loc 1 1184 34 view .LVU131
 325 0134 714C     		ldr	r4, .L51+28
1180:D:/fchai/work/i-cube/I-CUBE-HUAWEI/Drivers/BSP/IKS01A3\iks01a3_motion_sensors.c **** 
 326              		.loc 1 1180 44 view .LVU132
 327 0136 0360     		str	r3, [r0]
1182:D:/fchai/work/i-cube/I-CUBE-HUAWEI/Drivers/BSP/IKS01A3\iks01a3_motion_sensors.c ****     /* The second cast (void *) is added to bypass Misra R11.3 rule */
 328              		.loc 1 1182 5 is_stmt 1 view .LVU133
ARM GAS  T:\msys\tmp\ccgRcQCS.s 			page 31


1184:D:/fchai/work/i-cube/I-CUBE-HUAWEI/Drivers/BSP/IKS01A3\iks01a3_motion_sensors.c **** 
 329              		.loc 1 1184 5 view .LVU134
1186:D:/fchai/work/i-cube/I-CUBE-HUAWEI/Drivers/BSP/IKS01A3\iks01a3_motion_sensors.c ****     {
 330              		.loc 1 1186 33 is_stmt 0 view .LVU135
 331 0138 17F0010F 		tst	r7, #1
1184:D:/fchai/work/i-cube/I-CUBE-HUAWEI/Drivers/BSP/IKS01A3\iks01a3_motion_sensors.c **** 
 332              		.loc 1 1184 34 view .LVU136
 333 013c 724B     		ldr	r3, .L51+40
 334 013e 2360     		str	r3, [r4]
1186:D:/fchai/work/i-cube/I-CUBE-HUAWEI/Drivers/BSP/IKS01A3\iks01a3_motion_sensors.c ****     {
 335              		.loc 1 1186 5 is_stmt 1 view .LVU137
1186:D:/fchai/work/i-cube/I-CUBE-HUAWEI/Drivers/BSP/IKS01A3\iks01a3_motion_sensors.c ****     {
 336              		.loc 1 1186 33 is_stmt 0 view .LVU138
 337 0140 7FD1     		bne	.L6
 338              	.L9:
 339              	.LVL16:
1200:D:/fchai/work/i-cube/I-CUBE-HUAWEI/Drivers/BSP/IKS01A3\iks01a3_motion_sensors.c ****     {
 340              		.loc 1 1200 33 view .LVU139
 341 0142 BB07     		lsls	r3, r7, #30
 342 0144 04D5     		bpl	.L8
1200:D:/fchai/work/i-cube/I-CUBE-HUAWEI/Drivers/BSP/IKS01A3\iks01a3_motion_sensors.c ****     {
 343              		.loc 1 1200 87 view .LVU140
 344 0146 9DF82C30 		ldrb	r3, [sp, #44]	@ zero_extendqisi2
 345 014a 012B     		cmp	r3, #1
 346 014c 00F0B980 		beq	.L50
 347              	.L8:
1215:D:/fchai/work/i-cube/I-CUBE-HUAWEI/Drivers/BSP/IKS01A3\iks01a3_motion_sensors.c ****     {
 348              		.loc 1 1215 33 view .LVU141
 349 0150 17F00408 		ands	r8, r7, #4
 350 0154 40F09C80 		bne	.L22
 351              	.LVL17:
1221:D:/fchai/work/i-cube/I-CUBE-HUAWEI/Drivers/BSP/IKS01A3\iks01a3_motion_sensors.c **** }
 352              		.loc 1 1221 3 is_stmt 1 view .LVU142
1221:D:/fchai/work/i-cube/I-CUBE-HUAWEI/Drivers/BSP/IKS01A3\iks01a3_motion_sensors.c **** }
 353              		.loc 1 1221 3 is_stmt 0 view .LVU143
 354              	.LBE12:
 355              	.LBE11:
 178:D:/fchai/work/i-cube/I-CUBE-HUAWEI/Drivers/BSP/IKS01A3\iks01a3_motion_sensors.c ****       {
 356              		.loc 1 178 7 is_stmt 1 view .LVU144
 178:D:/fchai/work/i-cube/I-CUBE-HUAWEI/Drivers/BSP/IKS01A3\iks01a3_motion_sensors.c ****       {
 357              		.loc 1 178 30 is_stmt 0 view .LVU145
 358 0158 2368     		ldr	r3, [r4]
 178:D:/fchai/work/i-cube/I-CUBE-HUAWEI/Drivers/BSP/IKS01A3\iks01a3_motion_sensors.c ****       {
 359              		.loc 1 178 11 view .LVU146
 360 015a D9F80000 		ldr	r0, [r9]
 361 015e DB68     		ldr	r3, [r3, #12]
 362 0160 9847     		blx	r3
 363              	.LVL18:
 178:D:/fchai/work/i-cube/I-CUBE-HUAWEI/Drivers/BSP/IKS01A3\iks01a3_motion_sensors.c ****       {
 364              		.loc 1 178 10 view .LVU147
 365 0162 0028     		cmp	r0, #0
 366 0164 49D0     		beq	.L46
 367 0166 AAE7     		b	.L10
 368              	.LVL19:
 369              	.L3:
 224:D:/fchai/work/i-cube/I-CUBE-HUAWEI/Drivers/BSP/IKS01A3\iks01a3_motion_sensors.c ****       {
 370              		.loc 1 224 7 is_stmt 1 view .LVU148
ARM GAS  T:\msys\tmp\ccgRcQCS.s 			page 32


 371              	.LBB15:
 372              	.LBI15:
1295:D:/fchai/work/i-cube/I-CUBE-HUAWEI/Drivers/BSP/IKS01A3\iks01a3_motion_sensors.c **** }
1296:D:/fchai/work/i-cube/I-CUBE-HUAWEI/Drivers/BSP/IKS01A3\iks01a3_motion_sensors.c **** #endif
1297:D:/fchai/work/i-cube/I-CUBE-HUAWEI/Drivers/BSP/IKS01A3\iks01a3_motion_sensors.c **** 
1298:D:/fchai/work/i-cube/I-CUBE-HUAWEI/Drivers/BSP/IKS01A3\iks01a3_motion_sensors.c **** #if (USE_IKS01A3_MOTION_SENSOR_LIS2MDL_0  == 1)
1299:D:/fchai/work/i-cube/I-CUBE-HUAWEI/Drivers/BSP/IKS01A3\iks01a3_motion_sensors.c **** /**
1300:D:/fchai/work/i-cube/I-CUBE-HUAWEI/Drivers/BSP/IKS01A3\iks01a3_motion_sensors.c ****  * @brief  Register Bus IOs for instance 1 if component ID is OK
1301:D:/fchai/work/i-cube/I-CUBE-HUAWEI/Drivers/BSP/IKS01A3\iks01a3_motion_sensors.c ****  * @retval BSP status
1302:D:/fchai/work/i-cube/I-CUBE-HUAWEI/Drivers/BSP/IKS01A3\iks01a3_motion_sensors.c ****  */
1303:D:/fchai/work/i-cube/I-CUBE-HUAWEI/Drivers/BSP/IKS01A3\iks01a3_motion_sensors.c **** static int32_t LIS2MDL_0_Probe(uint32_t Functions)
 373              		.loc 1 1303 16 view .LVU149
 374              	.LBB16:
1304:D:/fchai/work/i-cube/I-CUBE-HUAWEI/Drivers/BSP/IKS01A3\iks01a3_motion_sensors.c **** {
1305:D:/fchai/work/i-cube/I-CUBE-HUAWEI/Drivers/BSP/IKS01A3\iks01a3_motion_sensors.c ****   LIS2MDL_IO_t            io_ctx;
 375              		.loc 1 1305 3 view .LVU150
1306:D:/fchai/work/i-cube/I-CUBE-HUAWEI/Drivers/BSP/IKS01A3\iks01a3_motion_sensors.c ****   uint8_t                 id;
 376              		.loc 1 1306 3 view .LVU151
1307:D:/fchai/work/i-cube/I-CUBE-HUAWEI/Drivers/BSP/IKS01A3\iks01a3_motion_sensors.c ****   static LIS2MDL_Object_t lis2mdl_obj_0;
 377              		.loc 1 1307 3 view .LVU152
1308:D:/fchai/work/i-cube/I-CUBE-HUAWEI/Drivers/BSP/IKS01A3\iks01a3_motion_sensors.c ****   LIS2MDL_Capabilities_t  cap;
 378              		.loc 1 1308 3 view .LVU153
1309:D:/fchai/work/i-cube/I-CUBE-HUAWEI/Drivers/BSP/IKS01A3\iks01a3_motion_sensors.c ****   int32_t                 ret = BSP_ERROR_NONE;
 379              		.loc 1 1309 3 view .LVU154
1310:D:/fchai/work/i-cube/I-CUBE-HUAWEI/Drivers/BSP/IKS01A3\iks01a3_motion_sensors.c **** 
1311:D:/fchai/work/i-cube/I-CUBE-HUAWEI/Drivers/BSP/IKS01A3\iks01a3_motion_sensors.c ****   /* Configure the accelero driver */
1312:D:/fchai/work/i-cube/I-CUBE-HUAWEI/Drivers/BSP/IKS01A3\iks01a3_motion_sensors.c ****   io_ctx.BusType     = LIS2MDL_I2C_BUS; /* I2C */
 380              		.loc 1 1312 3 view .LVU155
1313:D:/fchai/work/i-cube/I-CUBE-HUAWEI/Drivers/BSP/IKS01A3\iks01a3_motion_sensors.c ****   io_ctx.Address     = LIS2MDL_I2C_ADD;
1314:D:/fchai/work/i-cube/I-CUBE-HUAWEI/Drivers/BSP/IKS01A3\iks01a3_motion_sensors.c ****   io_ctx.Init        = IKS01A3_I2C_Init;
 381              		.loc 1 1314 22 is_stmt 0 view .LVU156
 382 0168 5D4B     		ldr	r3, .L51
1315:D:/fchai/work/i-cube/I-CUBE-HUAWEI/Drivers/BSP/IKS01A3\iks01a3_motion_sensors.c ****   io_ctx.DeInit      = IKS01A3_I2C_DeInit;
1316:D:/fchai/work/i-cube/I-CUBE-HUAWEI/Drivers/BSP/IKS01A3\iks01a3_motion_sensors.c ****   io_ctx.ReadReg     = IKS01A3_I2C_ReadReg;
1317:D:/fchai/work/i-cube/I-CUBE-HUAWEI/Drivers/BSP/IKS01A3\iks01a3_motion_sensors.c ****   io_ctx.WriteReg    = IKS01A3_I2C_WriteReg;
1318:D:/fchai/work/i-cube/I-CUBE-HUAWEI/Drivers/BSP/IKS01A3\iks01a3_motion_sensors.c ****   io_ctx.GetTick     = IKS01A3_GetTick;
1319:D:/fchai/work/i-cube/I-CUBE-HUAWEI/Drivers/BSP/IKS01A3\iks01a3_motion_sensors.c **** 
1320:D:/fchai/work/i-cube/I-CUBE-HUAWEI/Drivers/BSP/IKS01A3\iks01a3_motion_sensors.c ****   if (LIS2MDL_RegisterBusIO(&lis2mdl_obj_0, &io_ctx) != LIS2MDL_OK)
 383              		.loc 1 1320 7 view .LVU157
 384 016a 684D     		ldr	r5, .L51+44
1314:D:/fchai/work/i-cube/I-CUBE-HUAWEI/Drivers/BSP/IKS01A3\iks01a3_motion_sensors.c ****   io_ctx.DeInit      = IKS01A3_I2C_DeInit;
 385              		.loc 1 1314 22 view .LVU158
 386 016c 0493     		str	r3, [sp, #16]
1312:D:/fchai/work/i-cube/I-CUBE-HUAWEI/Drivers/BSP/IKS01A3\iks01a3_motion_sensors.c ****   io_ctx.Address     = LIS2MDL_I2C_ADD;
 387              		.loc 1 1312 22 view .LVU159
 388 016e 0022     		movs	r2, #0
1313:D:/fchai/work/i-cube/I-CUBE-HUAWEI/Drivers/BSP/IKS01A3\iks01a3_motion_sensors.c ****   io_ctx.Init        = IKS01A3_I2C_Init;
 389              		.loc 1 1313 22 view .LVU160
 390 0170 3D23     		movs	r3, #61
1312:D:/fchai/work/i-cube/I-CUBE-HUAWEI/Drivers/BSP/IKS01A3\iks01a3_motion_sensors.c ****   io_ctx.Address     = LIS2MDL_I2C_ADD;
 391              		.loc 1 1312 22 view .LVU161
 392 0172 0692     		str	r2, [sp, #24]
1313:D:/fchai/work/i-cube/I-CUBE-HUAWEI/Drivers/BSP/IKS01A3\iks01a3_motion_sensors.c ****   io_ctx.Init        = IKS01A3_I2C_Init;
 393              		.loc 1 1313 3 is_stmt 1 view .LVU162
1313:D:/fchai/work/i-cube/I-CUBE-HUAWEI/Drivers/BSP/IKS01A3\iks01a3_motion_sensors.c ****   io_ctx.Init        = IKS01A3_I2C_Init;
 394              		.loc 1 1313 22 is_stmt 0 view .LVU163
 395 0174 8DF81C30 		strb	r3, [sp, #28]
ARM GAS  T:\msys\tmp\ccgRcQCS.s 			page 33


1314:D:/fchai/work/i-cube/I-CUBE-HUAWEI/Drivers/BSP/IKS01A3\iks01a3_motion_sensors.c ****   io_ctx.DeInit      = IKS01A3_I2C_DeInit;
 396              		.loc 1 1314 3 is_stmt 1 view .LVU164
1315:D:/fchai/work/i-cube/I-CUBE-HUAWEI/Drivers/BSP/IKS01A3\iks01a3_motion_sensors.c ****   io_ctx.ReadReg     = IKS01A3_I2C_ReadReg;
 397              		.loc 1 1315 3 view .LVU165
1315:D:/fchai/work/i-cube/I-CUBE-HUAWEI/Drivers/BSP/IKS01A3\iks01a3_motion_sensors.c ****   io_ctx.ReadReg     = IKS01A3_I2C_ReadReg;
 398              		.loc 1 1315 22 is_stmt 0 view .LVU166
 399 0178 5B4A     		ldr	r2, .L51+8
1316:D:/fchai/work/i-cube/I-CUBE-HUAWEI/Drivers/BSP/IKS01A3\iks01a3_motion_sensors.c ****   io_ctx.WriteReg    = IKS01A3_I2C_WriteReg;
 400              		.loc 1 1316 22 view .LVU167
 401 017a 5C4B     		ldr	r3, .L51+12
1315:D:/fchai/work/i-cube/I-CUBE-HUAWEI/Drivers/BSP/IKS01A3\iks01a3_motion_sensors.c ****   io_ctx.ReadReg     = IKS01A3_I2C_ReadReg;
 402              		.loc 1 1315 22 view .LVU168
 403 017c 0592     		str	r2, [sp, #20]
1316:D:/fchai/work/i-cube/I-CUBE-HUAWEI/Drivers/BSP/IKS01A3\iks01a3_motion_sensors.c ****   io_ctx.WriteReg    = IKS01A3_I2C_WriteReg;
 404              		.loc 1 1316 3 is_stmt 1 view .LVU169
1316:D:/fchai/work/i-cube/I-CUBE-HUAWEI/Drivers/BSP/IKS01A3\iks01a3_motion_sensors.c ****   io_ctx.WriteReg    = IKS01A3_I2C_WriteReg;
 405              		.loc 1 1316 22 is_stmt 0 view .LVU170
 406 017e 0993     		str	r3, [sp, #36]
1317:D:/fchai/work/i-cube/I-CUBE-HUAWEI/Drivers/BSP/IKS01A3\iks01a3_motion_sensors.c ****   io_ctx.GetTick     = IKS01A3_GetTick;
 407              		.loc 1 1317 3 is_stmt 1 view .LVU171
1317:D:/fchai/work/i-cube/I-CUBE-HUAWEI/Drivers/BSP/IKS01A3\iks01a3_motion_sensors.c ****   io_ctx.GetTick     = IKS01A3_GetTick;
 408              		.loc 1 1317 22 is_stmt 0 view .LVU172
 409 0180 5B4A     		ldr	r2, .L51+16
1318:D:/fchai/work/i-cube/I-CUBE-HUAWEI/Drivers/BSP/IKS01A3\iks01a3_motion_sensors.c **** 
 410              		.loc 1 1318 22 view .LVU173
 411 0182 5C4B     		ldr	r3, .L51+20
1317:D:/fchai/work/i-cube/I-CUBE-HUAWEI/Drivers/BSP/IKS01A3\iks01a3_motion_sensors.c ****   io_ctx.GetTick     = IKS01A3_GetTick;
 412              		.loc 1 1317 22 view .LVU174
 413 0184 0892     		str	r2, [sp, #32]
1318:D:/fchai/work/i-cube/I-CUBE-HUAWEI/Drivers/BSP/IKS01A3\iks01a3_motion_sensors.c **** 
 414              		.loc 1 1318 3 is_stmt 1 view .LVU175
 415              		.loc 1 1320 7 is_stmt 0 view .LVU176
 416 0186 2846     		mov	r0, r5
 417              	.LVL20:
 418              		.loc 1 1320 7 view .LVU177
 419 0188 04A9     		add	r1, sp, #16
 420              	.LVL21:
1318:D:/fchai/work/i-cube/I-CUBE-HUAWEI/Drivers/BSP/IKS01A3\iks01a3_motion_sensors.c **** 
 421              		.loc 1 1318 22 view .LVU178
 422 018a 0A93     		str	r3, [sp, #40]
 423              		.loc 1 1320 3 is_stmt 1 view .LVU179
 424              		.loc 1 1320 7 is_stmt 0 view .LVU180
 425 018c FFF7FEFF 		bl	LIS2MDL_RegisterBusIO
 426              	.LVL22:
 427              		.loc 1 1320 6 view .LVU181
 428 0190 0028     		cmp	r0, #0
 429 0192 7DD1     		bne	.L22
1321:D:/fchai/work/i-cube/I-CUBE-HUAWEI/Drivers/BSP/IKS01A3\iks01a3_motion_sensors.c ****   {
1322:D:/fchai/work/i-cube/I-CUBE-HUAWEI/Drivers/BSP/IKS01A3\iks01a3_motion_sensors.c ****     ret = BSP_ERROR_UNKNOWN_COMPONENT;
1323:D:/fchai/work/i-cube/I-CUBE-HUAWEI/Drivers/BSP/IKS01A3\iks01a3_motion_sensors.c ****   }
1324:D:/fchai/work/i-cube/I-CUBE-HUAWEI/Drivers/BSP/IKS01A3\iks01a3_motion_sensors.c ****   else if (LIS2MDL_ReadID(&lis2mdl_obj_0, &id) != LIS2MDL_OK)
 430              		.loc 1 1324 8 is_stmt 1 view .LVU182
 431              		.loc 1 1324 12 is_stmt 0 view .LVU183
 432 0194 0DF10F01 		add	r1, sp, #15
 433 0198 2846     		mov	r0, r5
 434 019a FFF7FEFF 		bl	LIS2MDL_ReadID
 435              	.LVL23:
ARM GAS  T:\msys\tmp\ccgRcQCS.s 			page 34


 436              		.loc 1 1324 11 view .LVU184
 437 019e 0028     		cmp	r0, #0
 438 01a0 76D1     		bne	.L22
1325:D:/fchai/work/i-cube/I-CUBE-HUAWEI/Drivers/BSP/IKS01A3\iks01a3_motion_sensors.c ****   {
1326:D:/fchai/work/i-cube/I-CUBE-HUAWEI/Drivers/BSP/IKS01A3\iks01a3_motion_sensors.c ****     ret = BSP_ERROR_UNKNOWN_COMPONENT;
1327:D:/fchai/work/i-cube/I-CUBE-HUAWEI/Drivers/BSP/IKS01A3\iks01a3_motion_sensors.c ****   }
1328:D:/fchai/work/i-cube/I-CUBE-HUAWEI/Drivers/BSP/IKS01A3\iks01a3_motion_sensors.c ****   else if (id != LIS2MDL_ID)
 439              		.loc 1 1328 8 is_stmt 1 view .LVU185
 440              		.loc 1 1328 11 is_stmt 0 view .LVU186
 441 01a2 9DF80F30 		ldrb	r3, [sp, #15]	@ zero_extendqisi2
 442 01a6 402B     		cmp	r3, #64
 443 01a8 72D1     		bne	.L22
1329:D:/fchai/work/i-cube/I-CUBE-HUAWEI/Drivers/BSP/IKS01A3\iks01a3_motion_sensors.c ****   {
1330:D:/fchai/work/i-cube/I-CUBE-HUAWEI/Drivers/BSP/IKS01A3\iks01a3_motion_sensors.c ****     ret = BSP_ERROR_UNKNOWN_COMPONENT;
1331:D:/fchai/work/i-cube/I-CUBE-HUAWEI/Drivers/BSP/IKS01A3\iks01a3_motion_sensors.c ****   }
1332:D:/fchai/work/i-cube/I-CUBE-HUAWEI/Drivers/BSP/IKS01A3\iks01a3_motion_sensors.c ****   else
1333:D:/fchai/work/i-cube/I-CUBE-HUAWEI/Drivers/BSP/IKS01A3\iks01a3_motion_sensors.c ****   {
1334:D:/fchai/work/i-cube/I-CUBE-HUAWEI/Drivers/BSP/IKS01A3\iks01a3_motion_sensors.c ****     (void)LIS2MDL_GetCapabilities(&lis2mdl_obj_0, &cap);
 444              		.loc 1 1334 5 is_stmt 1 view .LVU187
 445              		.loc 1 1334 11 is_stmt 0 view .LVU188
 446 01aa 0BA9     		add	r1, sp, #44
 447 01ac 2846     		mov	r0, r5
 448 01ae 0191     		str	r1, [sp, #4]
 449 01b0 FFF7FEFF 		bl	LIS2MDL_GetCapabilities
 450              	.LVL24:
1335:D:/fchai/work/i-cube/I-CUBE-HUAWEI/Drivers/BSP/IKS01A3\iks01a3_motion_sensors.c ****     MotionCtx[IKS01A3_LIS2MDL_0].Functions = ((uint32_t)cap.Gyro) | ((uint32_t)cap.Acc << 1) | ((ui
 451              		.loc 1 1335 5 is_stmt 1 view .LVU189
 452              		.loc 1 1335 110 is_stmt 0 view .LVU190
 453 01b4 9DF82E20 		ldrb	r2, [sp, #46]	@ zero_extendqisi2
 454              		.loc 1 1335 70 view .LVU191
 455 01b8 9DF82C40 		ldrb	r4, [sp, #44]	@ zero_extendqisi2
 456              		.loc 1 1335 47 view .LVU192
 457 01bc 9DF82DC0 		ldrb	ip, [sp, #45]	@ zero_extendqisi2
 458              		.loc 1 1335 44 view .LVU193
 459 01c0 4D48     		ldr	r0, .L51+24
1336:D:/fchai/work/i-cube/I-CUBE-HUAWEI/Drivers/BSP/IKS01A3\iks01a3_motion_sensors.c **** 
1337:D:/fchai/work/i-cube/I-CUBE-HUAWEI/Drivers/BSP/IKS01A3\iks01a3_motion_sensors.c ****     MotionCompObj[IKS01A3_LIS2MDL_0] = &lis2mdl_obj_0;
 460              		.loc 1 1337 38 view .LVU194
 461 01c2 DFF86491 		ldr	r9, .L51+72
1338:D:/fchai/work/i-cube/I-CUBE-HUAWEI/Drivers/BSP/IKS01A3\iks01a3_motion_sensors.c ****     /* The second cast (void *) is added to bypass Misra R11.3 rule */
1339:D:/fchai/work/i-cube/I-CUBE-HUAWEI/Drivers/BSP/IKS01A3\iks01a3_motion_sensors.c ****     MotionDrv[IKS01A3_LIS2MDL_0] = (MOTION_SENSOR_CommonDrv_t *)(void *)&LIS2MDL_COMMON_Driver;
1340:D:/fchai/work/i-cube/I-CUBE-HUAWEI/Drivers/BSP/IKS01A3\iks01a3_motion_sensors.c **** 
1341:D:/fchai/work/i-cube/I-CUBE-HUAWEI/Drivers/BSP/IKS01A3\iks01a3_motion_sensors.c ****     if ((ret == BSP_ERROR_NONE) && ((Functions & MOTION_MAGNETO) == MOTION_MAGNETO) && (cap.Magneto
 462              		.loc 1 1341 33 view .LVU195
 463 01c6 0199     		ldr	r1, [sp, #4]
1337:D:/fchai/work/i-cube/I-CUBE-HUAWEI/Drivers/BSP/IKS01A3\iks01a3_motion_sensors.c ****     /* The second cast (void *) is added to bypass Misra R11.3 rule */
 464              		.loc 1 1337 38 view .LVU196
 465 01c8 C9F80850 		str	r5, [r9, #8]
1335:D:/fchai/work/i-cube/I-CUBE-HUAWEI/Drivers/BSP/IKS01A3\iks01a3_motion_sensors.c **** 
 466              		.loc 1 1335 119 view .LVU197
 467 01cc 9300     		lsls	r3, r2, #2
1335:D:/fchai/work/i-cube/I-CUBE-HUAWEI/Drivers/BSP/IKS01A3\iks01a3_motion_sensors.c **** 
 468              		.loc 1 1335 94 view .LVU198
 469 01ce 43EA4403 		orr	r3, r3, r4, lsl #1
 470 01d2 43EA0C03 		orr	r3, r3, ip
1339:D:/fchai/work/i-cube/I-CUBE-HUAWEI/Drivers/BSP/IKS01A3\iks01a3_motion_sensors.c **** 
 471              		.loc 1 1339 34 view .LVU199
ARM GAS  T:\msys\tmp\ccgRcQCS.s 			page 35


 472 01d6 494C     		ldr	r4, .L51+28
1335:D:/fchai/work/i-cube/I-CUBE-HUAWEI/Drivers/BSP/IKS01A3\iks01a3_motion_sensors.c **** 
 473              		.loc 1 1335 44 view .LVU200
 474 01d8 8360     		str	r3, [r0, #8]
1337:D:/fchai/work/i-cube/I-CUBE-HUAWEI/Drivers/BSP/IKS01A3\iks01a3_motion_sensors.c ****     /* The second cast (void *) is added to bypass Misra R11.3 rule */
 475              		.loc 1 1337 5 is_stmt 1 view .LVU201
1339:D:/fchai/work/i-cube/I-CUBE-HUAWEI/Drivers/BSP/IKS01A3\iks01a3_motion_sensors.c **** 
 476              		.loc 1 1339 5 view .LVU202
 477              		.loc 1 1341 33 is_stmt 0 view .LVU203
 478 01da 17F0040F 		tst	r7, #4
1339:D:/fchai/work/i-cube/I-CUBE-HUAWEI/Drivers/BSP/IKS01A3\iks01a3_motion_sensors.c **** 
 479              		.loc 1 1339 34 view .LVU204
 480 01de 4C4B     		ldr	r3, .L51+48
 481 01e0 A360     		str	r3, [r4, #8]
 482              		.loc 1 1341 5 is_stmt 1 view .LVU205
 483              		.loc 1 1341 33 is_stmt 0 view .LVU206
 484 01e2 3BD1     		bne	.L23
 485              	.L25:
1342:D:/fchai/work/i-cube/I-CUBE-HUAWEI/Drivers/BSP/IKS01A3\iks01a3_motion_sensors.c ****     {
1343:D:/fchai/work/i-cube/I-CUBE-HUAWEI/Drivers/BSP/IKS01A3\iks01a3_motion_sensors.c ****       /* The second cast (void *) is added to bypass Misra R11.3 rule */
1344:D:/fchai/work/i-cube/I-CUBE-HUAWEI/Drivers/BSP/IKS01A3\iks01a3_motion_sensors.c ****       MotionFuncDrv[IKS01A3_LIS2MDL_0][FunctionIndex[MOTION_MAGNETO]] = (MOTION_SENSOR_FuncDrv_t *)
1345:D:/fchai/work/i-cube/I-CUBE-HUAWEI/Drivers/BSP/IKS01A3\iks01a3_motion_sensors.c ****             void *)&LIS2MDL_MAG_Driver;
1346:D:/fchai/work/i-cube/I-CUBE-HUAWEI/Drivers/BSP/IKS01A3\iks01a3_motion_sensors.c **** 
1347:D:/fchai/work/i-cube/I-CUBE-HUAWEI/Drivers/BSP/IKS01A3\iks01a3_motion_sensors.c ****       if (MotionDrv[IKS01A3_LIS2MDL_0]->Init(MotionCompObj[IKS01A3_LIS2MDL_0]) != LIS2MDL_OK)
1348:D:/fchai/work/i-cube/I-CUBE-HUAWEI/Drivers/BSP/IKS01A3\iks01a3_motion_sensors.c ****       {
1349:D:/fchai/work/i-cube/I-CUBE-HUAWEI/Drivers/BSP/IKS01A3\iks01a3_motion_sensors.c ****         ret = BSP_ERROR_COMPONENT_FAILURE;
1350:D:/fchai/work/i-cube/I-CUBE-HUAWEI/Drivers/BSP/IKS01A3\iks01a3_motion_sensors.c ****       }
1351:D:/fchai/work/i-cube/I-CUBE-HUAWEI/Drivers/BSP/IKS01A3\iks01a3_motion_sensors.c ****       else
1352:D:/fchai/work/i-cube/I-CUBE-HUAWEI/Drivers/BSP/IKS01A3\iks01a3_motion_sensors.c ****       {
1353:D:/fchai/work/i-cube/I-CUBE-HUAWEI/Drivers/BSP/IKS01A3\iks01a3_motion_sensors.c ****         ret = BSP_ERROR_NONE;
1354:D:/fchai/work/i-cube/I-CUBE-HUAWEI/Drivers/BSP/IKS01A3\iks01a3_motion_sensors.c ****       }
1355:D:/fchai/work/i-cube/I-CUBE-HUAWEI/Drivers/BSP/IKS01A3\iks01a3_motion_sensors.c ****     }
1356:D:/fchai/work/i-cube/I-CUBE-HUAWEI/Drivers/BSP/IKS01A3\iks01a3_motion_sensors.c ****     if ((ret == BSP_ERROR_NONE) && ((Functions & MOTION_ACCELERO) == MOTION_ACCELERO))
1357:D:/fchai/work/i-cube/I-CUBE-HUAWEI/Drivers/BSP/IKS01A3\iks01a3_motion_sensors.c ****     {
1358:D:/fchai/work/i-cube/I-CUBE-HUAWEI/Drivers/BSP/IKS01A3\iks01a3_motion_sensors.c ****       /* Return an error if the application try to initialize a function not supported by the compo
1359:D:/fchai/work/i-cube/I-CUBE-HUAWEI/Drivers/BSP/IKS01A3\iks01a3_motion_sensors.c ****       ret = BSP_ERROR_COMPONENT_FAILURE;
1360:D:/fchai/work/i-cube/I-CUBE-HUAWEI/Drivers/BSP/IKS01A3\iks01a3_motion_sensors.c ****     }
1361:D:/fchai/work/i-cube/I-CUBE-HUAWEI/Drivers/BSP/IKS01A3\iks01a3_motion_sensors.c ****     if ((ret == BSP_ERROR_NONE) && ((Functions & MOTION_GYRO) == MOTION_GYRO))
 486              		.loc 1 1361 5 is_stmt 1 view .LVU207
 487              		.loc 1 1361 33 is_stmt 0 view .LVU208
 488 01e4 17F00308 		ands	r8, r7, #3
 489 01e8 52D1     		bne	.L22
1362:D:/fchai/work/i-cube/I-CUBE-HUAWEI/Drivers/BSP/IKS01A3\iks01a3_motion_sensors.c ****     {
1363:D:/fchai/work/i-cube/I-CUBE-HUAWEI/Drivers/BSP/IKS01A3\iks01a3_motion_sensors.c ****       /* Return an error if the application try to initialize a function not supported by the compo
1364:D:/fchai/work/i-cube/I-CUBE-HUAWEI/Drivers/BSP/IKS01A3\iks01a3_motion_sensors.c ****       ret = BSP_ERROR_COMPONENT_FAILURE;
1365:D:/fchai/work/i-cube/I-CUBE-HUAWEI/Drivers/BSP/IKS01A3\iks01a3_motion_sensors.c ****     }
1366:D:/fchai/work/i-cube/I-CUBE-HUAWEI/Drivers/BSP/IKS01A3\iks01a3_motion_sensors.c ****   }
1367:D:/fchai/work/i-cube/I-CUBE-HUAWEI/Drivers/BSP/IKS01A3\iks01a3_motion_sensors.c ****   return ret;
 490              		.loc 1 1367 3 is_stmt 1 view .LVU209
 491              	.LVL25:
 492              		.loc 1 1367 3 is_stmt 0 view .LVU210
 493              	.LBE16:
 494              	.LBE15:
 228:D:/fchai/work/i-cube/I-CUBE-HUAWEI/Drivers/BSP/IKS01A3\iks01a3_motion_sensors.c ****       {
 495              		.loc 1 228 7 is_stmt 1 view .LVU211
 228:D:/fchai/work/i-cube/I-CUBE-HUAWEI/Drivers/BSP/IKS01A3\iks01a3_motion_sensors.c ****       {
 496              		.loc 1 228 30 is_stmt 0 view .LVU212
ARM GAS  T:\msys\tmp\ccgRcQCS.s 			page 36


 497 01ea A368     		ldr	r3, [r4, #8]
 228:D:/fchai/work/i-cube/I-CUBE-HUAWEI/Drivers/BSP/IKS01A3\iks01a3_motion_sensors.c ****       {
 498              		.loc 1 228 11 view .LVU213
 499 01ec D9F80800 		ldr	r0, [r9, #8]
 500 01f0 DB68     		ldr	r3, [r3, #12]
 501 01f2 9847     		blx	r3
 502              	.LVL26:
 228:D:/fchai/work/i-cube/I-CUBE-HUAWEI/Drivers/BSP/IKS01A3\iks01a3_motion_sensors.c ****       {
 503              		.loc 1 228 10 view .LVU214
 504 01f4 0028     		cmp	r0, #0
 505 01f6 7FF462AF 		bne	.L10
 506              	.L46:
 232:D:/fchai/work/i-cube/I-CUBE-HUAWEI/Drivers/BSP/IKS01A3\iks01a3_motion_sensors.c ****       {
 507              		.loc 1 232 7 is_stmt 1 view .LVU215
 232:D:/fchai/work/i-cube/I-CUBE-HUAWEI/Drivers/BSP/IKS01A3\iks01a3_motion_sensors.c ****       {
 508              		.loc 1 232 10 is_stmt 0 view .LVU216
 509 01fa 9DF82C20 		ldrb	r2, [sp, #44]	@ zero_extendqisi2
 236:D:/fchai/work/i-cube/I-CUBE-HUAWEI/Drivers/BSP/IKS01A3\iks01a3_motion_sensors.c ****       {
 510              		.loc 1 236 10 view .LVU217
 511 01fe 9DF82D30 		ldrb	r3, [sp, #45]	@ zero_extendqisi2
 234:D:/fchai/work/i-cube/I-CUBE-HUAWEI/Drivers/BSP/IKS01A3\iks01a3_motion_sensors.c ****       }
 512              		.loc 1 234 29 view .LVU218
 513 0202 012A     		cmp	r2, #1
 514 0204 08BF     		it	eq
 515 0206 4FF00208 		moveq	r8, #2
 516              	.LVL27:
 236:D:/fchai/work/i-cube/I-CUBE-HUAWEI/Drivers/BSP/IKS01A3\iks01a3_motion_sensors.c ****       {
 517              		.loc 1 236 7 is_stmt 1 view .LVU219
 236:D:/fchai/work/i-cube/I-CUBE-HUAWEI/Drivers/BSP/IKS01A3\iks01a3_motion_sensors.c ****       {
 518              		.loc 1 236 10 is_stmt 0 view .LVU220
 519 020a 012B     		cmp	r3, #1
 238:D:/fchai/work/i-cube/I-CUBE-HUAWEI/Drivers/BSP/IKS01A3\iks01a3_motion_sensors.c ****       }
 520              		.loc 1 238 9 is_stmt 1 view .LVU221
 240:D:/fchai/work/i-cube/I-CUBE-HUAWEI/Drivers/BSP/IKS01A3\iks01a3_motion_sensors.c ****       {
 521              		.loc 1 240 10 is_stmt 0 view .LVU222
 522 020c 9DF82E30 		ldrb	r3, [sp, #46]	@ zero_extendqisi2
 238:D:/fchai/work/i-cube/I-CUBE-HUAWEI/Drivers/BSP/IKS01A3\iks01a3_motion_sensors.c ****       }
 523              		.loc 1 238 29 view .LVU223
 524 0210 08BF     		it	eq
 525 0212 48F00108 		orreq	r8, r8, #1
 526              	.LVL28:
 240:D:/fchai/work/i-cube/I-CUBE-HUAWEI/Drivers/BSP/IKS01A3\iks01a3_motion_sensors.c ****       {
 527              		.loc 1 240 7 is_stmt 1 view .LVU224
 240:D:/fchai/work/i-cube/I-CUBE-HUAWEI/Drivers/BSP/IKS01A3\iks01a3_motion_sensors.c ****       {
 528              		.loc 1 240 10 is_stmt 0 view .LVU225
 529 0216 012B     		cmp	r3, #1
 530 0218 01D1     		bne	.L14
 242:D:/fchai/work/i-cube/I-CUBE-HUAWEI/Drivers/BSP/IKS01A3\iks01a3_motion_sensors.c ****       }
 531              		.loc 1 242 9 is_stmt 1 view .LVU226
 242:D:/fchai/work/i-cube/I-CUBE-HUAWEI/Drivers/BSP/IKS01A3\iks01a3_motion_sensors.c ****       }
 532              		.loc 1 242 29 is_stmt 0 view .LVU227
 533 021a 48F00408 		orr	r8, r8, #4
 534              	.LVL29:
 677:D:/fchai/work/i-cube/I-CUBE-HUAWEI/Drivers/BSP/IKS01A3\iks01a3_motion_sensors.c ****   {
 535              		.loc 1 677 3 is_stmt 1 view .LVU228
 536              	.L14:
 682:D:/fchai/work/i-cube/I-CUBE-HUAWEI/Drivers/BSP/IKS01A3\iks01a3_motion_sensors.c ****   {
ARM GAS  T:\msys\tmp\ccgRcQCS.s 			page 37


 537              		.loc 1 682 15 discriminator 1 view .LVU229
 234:D:/fchai/work/i-cube/I-CUBE-HUAWEI/Drivers/BSP/IKS01A3\iks01a3_motion_sensors.c ****       }
 538              		.loc 1 234 29 is_stmt 0 discriminator 1 view .LVU230
 539 021e 0125     		movs	r5, #1
 686:D:/fchai/work/i-cube/I-CUBE-HUAWEI/Drivers/BSP/IKS01A3\iks01a3_motion_sensors.c ****       {
 540              		.loc 1 686 34 discriminator 1 view .LVU231
 541 0220 3C4A     		ldr	r2, .L51+52
 686:D:/fchai/work/i-cube/I-CUBE-HUAWEI/Drivers/BSP/IKS01A3\iks01a3_motion_sensors.c ****       {
 542              		.loc 1 686 48 discriminator 1 view .LVU232
 543 0222 DFF808B1 		ldr	fp, .L51+76
 234:D:/fchai/work/i-cube/I-CUBE-HUAWEI/Drivers/BSP/IKS01A3\iks01a3_motion_sensors.c ****       }
 544              		.loc 1 234 29 discriminator 1 view .LVU233
 545 0226 0324     		movs	r4, #3
 686:D:/fchai/work/i-cube/I-CUBE-HUAWEI/Drivers/BSP/IKS01A3\iks01a3_motion_sensors.c ****       {
 546              		.loc 1 686 34 discriminator 1 view .LVU234
 547 0228 06FA05FA 		lsl	r10, r6, r5
 548              	.LVL30:
 549              	.L29:
 684:D:/fchai/work/i-cube/I-CUBE-HUAWEI/Drivers/BSP/IKS01A3\iks01a3_motion_sensors.c ****     {
 550              		.loc 1 684 5 is_stmt 1 view .LVU235
 684:D:/fchai/work/i-cube/I-CUBE-HUAWEI/Drivers/BSP/IKS01A3\iks01a3_motion_sensors.c ****     {
 551              		.loc 1 684 8 is_stmt 0 view .LVU236
 552 022c 35EA0703 		bics	r3, r5, r7
 553 0230 33D0     		beq	.L28
 554              	.L30:
 691:D:/fchai/work/i-cube/I-CUBE-HUAWEI/Drivers/BSP/IKS01A3\iks01a3_motion_sensors.c ****   }
 555              		.loc 1 691 5 is_stmt 1 view .LVU237
 682:D:/fchai/work/i-cube/I-CUBE-HUAWEI/Drivers/BSP/IKS01A3\iks01a3_motion_sensors.c ****   {
 556              		.loc 1 682 3 is_stmt 0 view .LVU238
 557 0232 013C     		subs	r4, r4, #1
 558              	.LVL31:
 691:D:/fchai/work/i-cube/I-CUBE-HUAWEI/Drivers/BSP/IKS01A3\iks01a3_motion_sensors.c ****   }
 559              		.loc 1 691 14 view .LVU239
 560 0234 4FEA4505 		lsl	r5, r5, #1
 561              	.LVL32:
 682:D:/fchai/work/i-cube/I-CUBE-HUAWEI/Drivers/BSP/IKS01A3\iks01a3_motion_sensors.c ****   {
 562              		.loc 1 682 49 is_stmt 1 view .LVU240
 682:D:/fchai/work/i-cube/I-CUBE-HUAWEI/Drivers/BSP/IKS01A3\iks01a3_motion_sensors.c ****   {
 563              		.loc 1 682 15 view .LVU241
 682:D:/fchai/work/i-cube/I-CUBE-HUAWEI/Drivers/BSP/IKS01A3\iks01a3_motion_sensors.c ****   {
 564              		.loc 1 682 3 is_stmt 0 view .LVU242
 565 0238 F8D1     		bne	.L29
 566 023a 2046     		mov	r0, r4
 695:D:/fchai/work/i-cube/I-CUBE-HUAWEI/Drivers/BSP/IKS01A3\iks01a3_motion_sensors.c **** 
 567              		.loc 1 695 1 view .LVU243
 568 023c 13B0     		add	sp, sp, #76
 569              	.LCFI4:
 570              		.cfi_remember_state
 571              		.cfi_def_cfa_offset 36
 572              		@ sp needed
 573 023e BDE8F08F 		pop	{r4, r5, r6, r7, r8, r9, r10, fp, pc}
 574              	.LVL33:
 575              	.L6:
 576              	.LCFI5:
 577              		.cfi_restore_state
 578              	.LBB19:
 579              	.LBB13:
ARM GAS  T:\msys\tmp\ccgRcQCS.s 			page 38


1186:D:/fchai/work/i-cube/I-CUBE-HUAWEI/Drivers/BSP/IKS01A3\iks01a3_motion_sensors.c ****     {
 580              		.loc 1 1186 79 view .LVU244
 581 0242 012A     		cmp	r2, #1
 582 0244 7FF47DAF 		bne	.L9
1189:D:/fchai/work/i-cube/I-CUBE-HUAWEI/Drivers/BSP/IKS01A3\iks01a3_motion_sensors.c **** 
 583              		.loc 1 1189 7 is_stmt 1 view .LVU245
1189:D:/fchai/work/i-cube/I-CUBE-HUAWEI/Drivers/BSP/IKS01A3\iks01a3_motion_sensors.c **** 
 584              		.loc 1 1189 68 is_stmt 0 view .LVU246
 585 0248 324A     		ldr	r2, .L51+52
 586 024a 3348     		ldr	r0, .L51+56
 587 024c 1060     		str	r0, [r2]
1191:D:/fchai/work/i-cube/I-CUBE-HUAWEI/Drivers/BSP/IKS01A3\iks01a3_motion_sensors.c ****       {
 588              		.loc 1 1191 7 is_stmt 1 view .LVU247
1191:D:/fchai/work/i-cube/I-CUBE-HUAWEI/Drivers/BSP/IKS01A3\iks01a3_motion_sensors.c ****       {
 589              		.loc 1 1191 11 is_stmt 0 view .LVU248
 590 024e 1B68     		ldr	r3, [r3]
 591 0250 0191     		str	r1, [sp, #4]
 592 0252 2846     		mov	r0, r5
 593 0254 9847     		blx	r3
 594              	.LVL34:
1191:D:/fchai/work/i-cube/I-CUBE-HUAWEI/Drivers/BSP/IKS01A3\iks01a3_motion_sensors.c ****       {
 595              		.loc 1 1191 10 view .LVU249
 596 0256 D8B9     		cbnz	r0, .L22
 597 0258 0199     		ldr	r1, [sp, #4]
 598 025a 72E7     		b	.L9
 599              	.LVL35:
 600              	.L23:
1191:D:/fchai/work/i-cube/I-CUBE-HUAWEI/Drivers/BSP/IKS01A3\iks01a3_motion_sensors.c ****       {
 601              		.loc 1 1191 10 view .LVU250
 602              	.LBE13:
 603              	.LBE19:
 604              	.LBB20:
 605              	.LBB17:
1341:D:/fchai/work/i-cube/I-CUBE-HUAWEI/Drivers/BSP/IKS01A3\iks01a3_motion_sensors.c ****     {
 606              		.loc 1 1341 85 view .LVU251
 607 025c 012A     		cmp	r2, #1
 608 025e C1D1     		bne	.L25
1344:D:/fchai/work/i-cube/I-CUBE-HUAWEI/Drivers/BSP/IKS01A3\iks01a3_motion_sensors.c ****             void *)&LIS2MDL_MAG_Driver;
 609              		.loc 1 1344 7 is_stmt 1 view .LVU252
1344:D:/fchai/work/i-cube/I-CUBE-HUAWEI/Drivers/BSP/IKS01A3\iks01a3_motion_sensors.c ****             void *)&LIS2MDL_MAG_Driver;
 610              		.loc 1 1344 71 is_stmt 0 view .LVU253
 611 0260 2C4A     		ldr	r2, .L51+52
 612 0262 2E48     		ldr	r0, .L51+60
 613 0264 1062     		str	r0, [r2, #32]
1347:D:/fchai/work/i-cube/I-CUBE-HUAWEI/Drivers/BSP/IKS01A3\iks01a3_motion_sensors.c ****       {
 614              		.loc 1 1347 7 is_stmt 1 view .LVU254
1347:D:/fchai/work/i-cube/I-CUBE-HUAWEI/Drivers/BSP/IKS01A3\iks01a3_motion_sensors.c ****       {
 615              		.loc 1 1347 11 is_stmt 0 view .LVU255
 616 0266 1B68     		ldr	r3, [r3]
 617 0268 0191     		str	r1, [sp, #4]
 618 026a 2846     		mov	r0, r5
 619 026c 9847     		blx	r3
 620              	.LVL36:
1347:D:/fchai/work/i-cube/I-CUBE-HUAWEI/Drivers/BSP/IKS01A3\iks01a3_motion_sensors.c ****       {
 621              		.loc 1 1347 10 view .LVU256
 622 026e 78B9     		cbnz	r0, .L22
 623 0270 0199     		ldr	r1, [sp, #4]
ARM GAS  T:\msys\tmp\ccgRcQCS.s 			page 39


 624 0272 B7E7     		b	.L25
 625              	.LVL37:
 626              	.L16:
1347:D:/fchai/work/i-cube/I-CUBE-HUAWEI/Drivers/BSP/IKS01A3\iks01a3_motion_sensors.c ****       {
 627              		.loc 1 1347 10 view .LVU257
 628              	.LBE17:
 629              	.LBE20:
 630              	.LBB21:
 631              	.LBB10:
1268:D:/fchai/work/i-cube/I-CUBE-HUAWEI/Drivers/BSP/IKS01A3\iks01a3_motion_sensors.c ****     {
 632              		.loc 1 1268 87 view .LVU258
 633 0274 012A     		cmp	r2, #1
 634 0276 7FF416AF 		bne	.L18
1271:D:/fchai/work/i-cube/I-CUBE-HUAWEI/Drivers/BSP/IKS01A3\iks01a3_motion_sensors.c ****             void *)&LIS2DW12_ACC_Driver;
 635              		.loc 1 1271 7 is_stmt 1 view .LVU259
1271:D:/fchai/work/i-cube/I-CUBE-HUAWEI/Drivers/BSP/IKS01A3\iks01a3_motion_sensors.c ****             void *)&LIS2DW12_ACC_Driver;
 636              		.loc 1 1271 73 is_stmt 0 view .LVU260
 637 027a 264A     		ldr	r2, .L51+52
 638 027c 2848     		ldr	r0, .L51+64
 639 027e 1061     		str	r0, [r2, #16]
1274:D:/fchai/work/i-cube/I-CUBE-HUAWEI/Drivers/BSP/IKS01A3\iks01a3_motion_sensors.c ****       {
 640              		.loc 1 1274 7 is_stmt 1 view .LVU261
1274:D:/fchai/work/i-cube/I-CUBE-HUAWEI/Drivers/BSP/IKS01A3\iks01a3_motion_sensors.c ****       {
 641              		.loc 1 1274 11 is_stmt 0 view .LVU262
 642 0280 1B68     		ldr	r3, [r3]
 643 0282 0191     		str	r1, [sp, #4]
 644 0284 2846     		mov	r0, r5
 645 0286 9847     		blx	r3
 646              	.LVL38:
1274:D:/fchai/work/i-cube/I-CUBE-HUAWEI/Drivers/BSP/IKS01A3\iks01a3_motion_sensors.c ****       {
 647              		.loc 1 1274 10 view .LVU263
 648 0288 0199     		ldr	r1, [sp, #4]
 649 028a 0028     		cmp	r0, #0
 650 028c 3FF40BAF 		beq	.L18
 651              	.LVL39:
 652              	.L22:
1274:D:/fchai/work/i-cube/I-CUBE-HUAWEI/Drivers/BSP/IKS01A3\iks01a3_motion_sensors.c ****       {
 653              		.loc 1 1274 10 view .LVU264
 654              	.LBE10:
 655              	.LBE21:
 656              	.LBB22:
 657              	.LBB18:
 658              		.loc 1 1367 3 is_stmt 1 view .LVU265
 659              		.loc 1 1367 3 is_stmt 0 view .LVU266
 660              	.LBE18:
 661              	.LBE22:
 226:D:/fchai/work/i-cube/I-CUBE-HUAWEI/Drivers/BSP/IKS01A3\iks01a3_motion_sensors.c ****       }
 662              		.loc 1 226 16 view .LVU267
 663 0290 4FF0FF30 		mov	r0, #-1
 695:D:/fchai/work/i-cube/I-CUBE-HUAWEI/Drivers/BSP/IKS01A3\iks01a3_motion_sensors.c **** 
 664              		.loc 1 695 1 view .LVU268
 665 0294 13B0     		add	sp, sp, #76
 666              	.LCFI6:
 667              		.cfi_remember_state
 668              		.cfi_def_cfa_offset 36
 669              		@ sp needed
 670 0296 BDE8F08F 		pop	{r4, r5, r6, r7, r8, r9, r10, fp, pc}
ARM GAS  T:\msys\tmp\ccgRcQCS.s 			page 40


 671              	.LVL40:
 672              	.L28:
 673              	.LCFI7:
 674              		.cfi_restore_state
 684:D:/fchai/work/i-cube/I-CUBE-HUAWEI/Drivers/BSP/IKS01A3\iks01a3_motion_sensors.c ****     {
 675              		.loc 1 684 46 discriminator 1 view .LVU269
 676 029a 35EA0803 		bics	r3, r5, r8
 677 029e C8D1     		bne	.L30
 686:D:/fchai/work/i-cube/I-CUBE-HUAWEI/Drivers/BSP/IKS01A3\iks01a3_motion_sensors.c ****       {
 678              		.loc 1 686 7 is_stmt 1 view .LVU270
 686:D:/fchai/work/i-cube/I-CUBE-HUAWEI/Drivers/BSP/IKS01A3\iks01a3_motion_sensors.c ****       {
 679              		.loc 1 686 34 is_stmt 0 view .LVU271
 680 02a0 5BF82530 		ldr	r3, [fp, r5, lsl #2]
 686:D:/fchai/work/i-cube/I-CUBE-HUAWEI/Drivers/BSP/IKS01A3\iks01a3_motion_sensors.c ****       {
 681              		.loc 1 686 11 view .LVU272
 682 02a4 59F82600 		ldr	r0, [r9, r6, lsl #2]
 686:D:/fchai/work/i-cube/I-CUBE-HUAWEI/Drivers/BSP/IKS01A3\iks01a3_motion_sensors.c ****       {
 683              		.loc 1 686 34 view .LVU273
 684 02a8 0AEB0601 		add	r1, r10, r6
 685 02ac 0B44     		add	r3, r3, r1
 686:D:/fchai/work/i-cube/I-CUBE-HUAWEI/Drivers/BSP/IKS01A3\iks01a3_motion_sensors.c ****       {
 686              		.loc 1 686 59 view .LVU274
 687 02ae 52F82330 		ldr	r3, [r2, r3, lsl #2]
 686:D:/fchai/work/i-cube/I-CUBE-HUAWEI/Drivers/BSP/IKS01A3\iks01a3_motion_sensors.c ****       {
 688              		.loc 1 686 11 view .LVU275
 689 02b2 1B68     		ldr	r3, [r3]
 690 02b4 9847     		blx	r3
 691              	.LVL41:
 686:D:/fchai/work/i-cube/I-CUBE-HUAWEI/Drivers/BSP/IKS01A3\iks01a3_motion_sensors.c ****       {
 692              		.loc 1 686 10 view .LVU276
 693 02b6 174A     		ldr	r2, .L51+52
 694 02b8 0028     		cmp	r0, #0
 695 02ba BAD0     		beq	.L30
 688:D:/fchai/work/i-cube/I-CUBE-HUAWEI/Drivers/BSP/IKS01A3\iks01a3_motion_sensors.c ****       }
 696              		.loc 1 688 16 view .LVU277
 697 02bc 6FF00400 		mvn	r0, #4
 698 02c0 ACE6     		b	.L1
 699              	.LVL42:
 700              	.L50:
 701              	.LBB23:
 702              	.LBB14:
1203:D:/fchai/work/i-cube/I-CUBE-HUAWEI/Drivers/BSP/IKS01A3\iks01a3_motion_sensors.c ****             void *)&LSM6DSO_ACC_Driver;
 703              		.loc 1 1203 7 is_stmt 1 view .LVU278
1206:D:/fchai/work/i-cube/I-CUBE-HUAWEI/Drivers/BSP/IKS01A3\iks01a3_motion_sensors.c ****       {
 704              		.loc 1 1206 39 is_stmt 0 view .LVU279
 705 02c2 2368     		ldr	r3, [r4]
1203:D:/fchai/work/i-cube/I-CUBE-HUAWEI/Drivers/BSP/IKS01A3\iks01a3_motion_sensors.c ****             void *)&LSM6DSO_ACC_Driver;
 706              		.loc 1 1203 72 view .LVU280
 707 02c4 134A     		ldr	r2, .L51+52
1206:D:/fchai/work/i-cube/I-CUBE-HUAWEI/Drivers/BSP/IKS01A3\iks01a3_motion_sensors.c ****       {
 708              		.loc 1 1206 11 view .LVU281
 709 02c6 1B68     		ldr	r3, [r3]
1203:D:/fchai/work/i-cube/I-CUBE-HUAWEI/Drivers/BSP/IKS01A3\iks01a3_motion_sensors.c ****             void *)&LSM6DSO_ACC_Driver;
 710              		.loc 1 1203 72 view .LVU282
 711 02c8 164D     		ldr	r5, .L51+68
1206:D:/fchai/work/i-cube/I-CUBE-HUAWEI/Drivers/BSP/IKS01A3\iks01a3_motion_sensors.c ****       {
 712              		.loc 1 1206 11 view .LVU283
ARM GAS  T:\msys\tmp\ccgRcQCS.s 			page 41


 713 02ca D9F80000 		ldr	r0, [r9]
 714 02ce 0191     		str	r1, [sp, #4]
1203:D:/fchai/work/i-cube/I-CUBE-HUAWEI/Drivers/BSP/IKS01A3\iks01a3_motion_sensors.c ****             void *)&LSM6DSO_ACC_Driver;
 715              		.loc 1 1203 72 view .LVU284
 716 02d0 5560     		str	r5, [r2, #4]
1206:D:/fchai/work/i-cube/I-CUBE-HUAWEI/Drivers/BSP/IKS01A3\iks01a3_motion_sensors.c ****       {
 717              		.loc 1 1206 7 is_stmt 1 view .LVU285
1206:D:/fchai/work/i-cube/I-CUBE-HUAWEI/Drivers/BSP/IKS01A3\iks01a3_motion_sensors.c ****       {
 718              		.loc 1 1206 11 is_stmt 0 view .LVU286
 719 02d2 9847     		blx	r3
 720              	.LVL43:
1206:D:/fchai/work/i-cube/I-CUBE-HUAWEI/Drivers/BSP/IKS01A3\iks01a3_motion_sensors.c ****       {
 721              		.loc 1 1206 10 view .LVU287
 722 02d4 0199     		ldr	r1, [sp, #4]
 723 02d6 0028     		cmp	r0, #0
 724 02d8 3FF43AAF 		beq	.L8
 725 02dc D8E7     		b	.L22
 726              	.L52:
 727 02de 00BF     		.align	2
 728              	.L51:
 729 02e0 00000000 		.word	BSP_I2C1_Init
 730 02e4 00000000 		.word	.LANCHOR4
 731 02e8 00000000 		.word	BSP_I2C1_DeInit
 732 02ec 00000000 		.word	BSP_I2C1_ReadReg
 733 02f0 00000000 		.word	BSP_I2C1_WriteReg
 734 02f4 00000000 		.word	BSP_GetTick
 735 02f8 00000000 		.word	.LANCHOR1
 736 02fc 00000000 		.word	.LANCHOR2
 737 0300 00000000 		.word	LIS2DW12_COMMON_Driver
 738 0304 00000000 		.word	.LANCHOR0
 739 0308 00000000 		.word	LSM6DSO_COMMON_Driver
 740 030c 00000000 		.word	.LANCHOR5
 741 0310 00000000 		.word	LIS2MDL_COMMON_Driver
 742 0314 00000000 		.word	.LANCHOR3
 743 0318 00000000 		.word	LSM6DSO_GYRO_Driver
 744 031c 00000000 		.word	LIS2MDL_MAG_Driver
 745 0320 00000000 		.word	LIS2DW12_ACC_Driver
 746 0324 00000000 		.word	LSM6DSO_ACC_Driver
 747 0328 00000000 		.word	MotionCompObj
 748 032c 00000000 		.word	.LANCHOR6
 749              	.LBE14:
 750              	.LBE23:
 751              		.cfi_endproc
 752              	.LFE123:
 754              		.section	.text.IKS01A3_MOTION_SENSOR_DeInit,"ax",%progbits
 755              		.align	1
 756              		.p2align 2,,3
 757              		.global	IKS01A3_MOTION_SENSOR_DeInit
 758              		.syntax unified
 759              		.thumb
 760              		.thumb_func
 761              		.fpu fpv4-sp-d16
 763              	IKS01A3_MOTION_SENSOR_DeInit:
 764              	.LVL44:
 765              	.LFB124:
 703:D:/fchai/work/i-cube/I-CUBE-HUAWEI/Drivers/BSP/IKS01A3\iks01a3_motion_sensors.c ****   int32_t ret;
 766              		.loc 1 703 1 is_stmt 1 view -0
ARM GAS  T:\msys\tmp\ccgRcQCS.s 			page 42


 767              		.cfi_startproc
 768              		@ args = 0, pretend = 0, frame = 0
 769              		@ frame_needed = 0, uses_anonymous_args = 0
 704:D:/fchai/work/i-cube/I-CUBE-HUAWEI/Drivers/BSP/IKS01A3\iks01a3_motion_sensors.c **** 
 770              		.loc 1 704 3 view .LVU289
 706:D:/fchai/work/i-cube/I-CUBE-HUAWEI/Drivers/BSP/IKS01A3\iks01a3_motion_sensors.c ****   {
 771              		.loc 1 706 3 view .LVU290
 706:D:/fchai/work/i-cube/I-CUBE-HUAWEI/Drivers/BSP/IKS01A3\iks01a3_motion_sensors.c ****   {
 772              		.loc 1 706 6 is_stmt 0 view .LVU291
 773 0000 0228     		cmp	r0, #2
 774 0002 0DD8     		bhi	.L55
 710:D:/fchai/work/i-cube/I-CUBE-HUAWEI/Drivers/BSP/IKS01A3\iks01a3_motion_sensors.c ****   {
 775              		.loc 1 710 8 is_stmt 1 view .LVU292
 703:D:/fchai/work/i-cube/I-CUBE-HUAWEI/Drivers/BSP/IKS01A3\iks01a3_motion_sensors.c ****   int32_t ret;
 776              		.loc 1 703 1 is_stmt 0 view .LVU293
 777 0004 08B5     		push	{r3, lr}
 778              	.LCFI8:
 779              		.cfi_def_cfa_offset 8
 780              		.cfi_offset 3, -8
 781              		.cfi_offset 14, -4
 710:D:/fchai/work/i-cube/I-CUBE-HUAWEI/Drivers/BSP/IKS01A3\iks01a3_motion_sensors.c ****   {
 782              		.loc 1 710 21 view .LVU294
 783 0006 084B     		ldr	r3, .L61
 710:D:/fchai/work/i-cube/I-CUBE-HUAWEI/Drivers/BSP/IKS01A3\iks01a3_motion_sensors.c ****   {
 784              		.loc 1 710 12 view .LVU295
 785 0008 084A     		ldr	r2, .L61+4
 710:D:/fchai/work/i-cube/I-CUBE-HUAWEI/Drivers/BSP/IKS01A3\iks01a3_motion_sensors.c ****   {
 786              		.loc 1 710 31 view .LVU296
 787 000a 53F82030 		ldr	r3, [r3, r0, lsl #2]
 710:D:/fchai/work/i-cube/I-CUBE-HUAWEI/Drivers/BSP/IKS01A3\iks01a3_motion_sensors.c ****   {
 788              		.loc 1 710 12 view .LVU297
 789 000e 52F82000 		ldr	r0, [r2, r0, lsl #2]
 790              	.LVL45:
 710:D:/fchai/work/i-cube/I-CUBE-HUAWEI/Drivers/BSP/IKS01A3\iks01a3_motion_sensors.c ****   {
 791              		.loc 1 710 12 view .LVU298
 792 0012 5B68     		ldr	r3, [r3, #4]
 793 0014 9847     		blx	r3
 794              	.LVL46:
 710:D:/fchai/work/i-cube/I-CUBE-HUAWEI/Drivers/BSP/IKS01A3\iks01a3_motion_sensors.c ****   {
 795              		.loc 1 710 11 view .LVU299
 796 0016 0028     		cmp	r0, #0
 712:D:/fchai/work/i-cube/I-CUBE-HUAWEI/Drivers/BSP/IKS01A3\iks01a3_motion_sensors.c ****   }
 797              		.loc 1 712 9 view .LVU300
 798 0018 18BF     		it	ne
 799 001a 6FF00400 		mvnne	r0, #4
 720:D:/fchai/work/i-cube/I-CUBE-HUAWEI/Drivers/BSP/IKS01A3\iks01a3_motion_sensors.c **** 
 800              		.loc 1 720 1 view .LVU301
 801 001e 08BD     		pop	{r3, pc}
 802              	.LVL47:
 803              	.L55:
 804              	.LCFI9:
 805              		.cfi_def_cfa_offset 0
 806              		.cfi_restore 3
 807              		.cfi_restore 14
 708:D:/fchai/work/i-cube/I-CUBE-HUAWEI/Drivers/BSP/IKS01A3\iks01a3_motion_sensors.c ****   }
 808              		.loc 1 708 9 view .LVU302
 809 0020 6FF00100 		mvn	r0, #1
ARM GAS  T:\msys\tmp\ccgRcQCS.s 			page 43


 810              	.LVL48:
 720:D:/fchai/work/i-cube/I-CUBE-HUAWEI/Drivers/BSP/IKS01A3\iks01a3_motion_sensors.c **** 
 811              		.loc 1 720 1 view .LVU303
 812 0024 7047     		bx	lr
 813              	.L62:
 814 0026 00BF     		.align	2
 815              	.L61:
 816 0028 00000000 		.word	.LANCHOR2
 817 002c 00000000 		.word	MotionCompObj
 818              		.cfi_endproc
 819              	.LFE124:
 821              		.section	.text.IKS01A3_MOTION_SENSOR_GetCapabilities,"ax",%progbits
 822              		.align	1
 823              		.p2align 2,,3
 824              		.global	IKS01A3_MOTION_SENSOR_GetCapabilities
 825              		.syntax unified
 826              		.thumb
 827              		.thumb_func
 828              		.fpu fpv4-sp-d16
 830              	IKS01A3_MOTION_SENSOR_GetCapabilities:
 831              	.LVL49:
 832              	.LFB125:
 729:D:/fchai/work/i-cube/I-CUBE-HUAWEI/Drivers/BSP/IKS01A3\iks01a3_motion_sensors.c ****   int32_t ret;
 833              		.loc 1 729 1 is_stmt 1 view -0
 834              		.cfi_startproc
 835              		@ args = 0, pretend = 0, frame = 0
 836              		@ frame_needed = 0, uses_anonymous_args = 0
 730:D:/fchai/work/i-cube/I-CUBE-HUAWEI/Drivers/BSP/IKS01A3\iks01a3_motion_sensors.c **** 
 837              		.loc 1 730 3 view .LVU305
 732:D:/fchai/work/i-cube/I-CUBE-HUAWEI/Drivers/BSP/IKS01A3\iks01a3_motion_sensors.c ****   {
 838              		.loc 1 732 3 view .LVU306
 732:D:/fchai/work/i-cube/I-CUBE-HUAWEI/Drivers/BSP/IKS01A3\iks01a3_motion_sensors.c ****   {
 839              		.loc 1 732 6 is_stmt 0 view .LVU307
 840 0000 0228     		cmp	r0, #2
 841 0002 0DD8     		bhi	.L65
 736:D:/fchai/work/i-cube/I-CUBE-HUAWEI/Drivers/BSP/IKS01A3\iks01a3_motion_sensors.c ****   {
 842              		.loc 1 736 8 is_stmt 1 view .LVU308
 729:D:/fchai/work/i-cube/I-CUBE-HUAWEI/Drivers/BSP/IKS01A3\iks01a3_motion_sensors.c ****   int32_t ret;
 843              		.loc 1 729 1 is_stmt 0 view .LVU309
 844 0004 08B5     		push	{r3, lr}
 845              	.LCFI10:
 846              		.cfi_def_cfa_offset 8
 847              		.cfi_offset 3, -8
 848              		.cfi_offset 14, -4
 736:D:/fchai/work/i-cube/I-CUBE-HUAWEI/Drivers/BSP/IKS01A3\iks01a3_motion_sensors.c ****   {
 849              		.loc 1 736 21 view .LVU310
 850 0006 084B     		ldr	r3, .L71
 736:D:/fchai/work/i-cube/I-CUBE-HUAWEI/Drivers/BSP/IKS01A3\iks01a3_motion_sensors.c ****   {
 851              		.loc 1 736 12 view .LVU311
 852 0008 084A     		ldr	r2, .L71+4
 736:D:/fchai/work/i-cube/I-CUBE-HUAWEI/Drivers/BSP/IKS01A3\iks01a3_motion_sensors.c ****   {
 853              		.loc 1 736 31 view .LVU312
 854 000a 53F82030 		ldr	r3, [r3, r0, lsl #2]
 736:D:/fchai/work/i-cube/I-CUBE-HUAWEI/Drivers/BSP/IKS01A3\iks01a3_motion_sensors.c ****   {
 855              		.loc 1 736 12 view .LVU313
 856 000e 52F82000 		ldr	r0, [r2, r0, lsl #2]
 857              	.LVL50:
ARM GAS  T:\msys\tmp\ccgRcQCS.s 			page 44


 736:D:/fchai/work/i-cube/I-CUBE-HUAWEI/Drivers/BSP/IKS01A3\iks01a3_motion_sensors.c ****   {
 858              		.loc 1 736 12 view .LVU314
 859 0012 DB68     		ldr	r3, [r3, #12]
 860 0014 9847     		blx	r3
 861              	.LVL51:
 736:D:/fchai/work/i-cube/I-CUBE-HUAWEI/Drivers/BSP/IKS01A3\iks01a3_motion_sensors.c ****   {
 862              		.loc 1 736 11 view .LVU315
 863 0016 0028     		cmp	r0, #0
 738:D:/fchai/work/i-cube/I-CUBE-HUAWEI/Drivers/BSP/IKS01A3\iks01a3_motion_sensors.c ****   }
 864              		.loc 1 738 9 view .LVU316
 865 0018 18BF     		it	ne
 866 001a 6FF00600 		mvnne	r0, #6
 746:D:/fchai/work/i-cube/I-CUBE-HUAWEI/Drivers/BSP/IKS01A3\iks01a3_motion_sensors.c **** 
 867              		.loc 1 746 1 view .LVU317
 868 001e 08BD     		pop	{r3, pc}
 869              	.LVL52:
 870              	.L65:
 871              	.LCFI11:
 872              		.cfi_def_cfa_offset 0
 873              		.cfi_restore 3
 874              		.cfi_restore 14
 734:D:/fchai/work/i-cube/I-CUBE-HUAWEI/Drivers/BSP/IKS01A3\iks01a3_motion_sensors.c ****   }
 875              		.loc 1 734 9 view .LVU318
 876 0020 6FF00100 		mvn	r0, #1
 877              	.LVL53:
 746:D:/fchai/work/i-cube/I-CUBE-HUAWEI/Drivers/BSP/IKS01A3\iks01a3_motion_sensors.c **** 
 878              		.loc 1 746 1 view .LVU319
 879 0024 7047     		bx	lr
 880              	.L72:
 881 0026 00BF     		.align	2
 882              	.L71:
 883 0028 00000000 		.word	.LANCHOR2
 884 002c 00000000 		.word	MotionCompObj
 885              		.cfi_endproc
 886              	.LFE125:
 888              		.section	.text.IKS01A3_MOTION_SENSOR_ReadID,"ax",%progbits
 889              		.align	1
 890              		.p2align 2,,3
 891              		.global	IKS01A3_MOTION_SENSOR_ReadID
 892              		.syntax unified
 893              		.thumb
 894              		.thumb_func
 895              		.fpu fpv4-sp-d16
 897              	IKS01A3_MOTION_SENSOR_ReadID:
 898              	.LVL54:
 899              	.LFB126:
 755:D:/fchai/work/i-cube/I-CUBE-HUAWEI/Drivers/BSP/IKS01A3\iks01a3_motion_sensors.c ****   int32_t ret;
 900              		.loc 1 755 1 is_stmt 1 view -0
 901              		.cfi_startproc
 902              		@ args = 0, pretend = 0, frame = 0
 903              		@ frame_needed = 0, uses_anonymous_args = 0
 756:D:/fchai/work/i-cube/I-CUBE-HUAWEI/Drivers/BSP/IKS01A3\iks01a3_motion_sensors.c **** 
 904              		.loc 1 756 3 view .LVU321
 758:D:/fchai/work/i-cube/I-CUBE-HUAWEI/Drivers/BSP/IKS01A3\iks01a3_motion_sensors.c ****   {
 905              		.loc 1 758 3 view .LVU322
 758:D:/fchai/work/i-cube/I-CUBE-HUAWEI/Drivers/BSP/IKS01A3\iks01a3_motion_sensors.c ****   {
 906              		.loc 1 758 6 is_stmt 0 view .LVU323
ARM GAS  T:\msys\tmp\ccgRcQCS.s 			page 45


 907 0000 0228     		cmp	r0, #2
 908 0002 0DD8     		bhi	.L75
 762:D:/fchai/work/i-cube/I-CUBE-HUAWEI/Drivers/BSP/IKS01A3\iks01a3_motion_sensors.c ****   {
 909              		.loc 1 762 8 is_stmt 1 view .LVU324
 755:D:/fchai/work/i-cube/I-CUBE-HUAWEI/Drivers/BSP/IKS01A3\iks01a3_motion_sensors.c ****   int32_t ret;
 910              		.loc 1 755 1 is_stmt 0 view .LVU325
 911 0004 08B5     		push	{r3, lr}
 912              	.LCFI12:
 913              		.cfi_def_cfa_offset 8
 914              		.cfi_offset 3, -8
 915              		.cfi_offset 14, -4
 762:D:/fchai/work/i-cube/I-CUBE-HUAWEI/Drivers/BSP/IKS01A3\iks01a3_motion_sensors.c ****   {
 916              		.loc 1 762 21 view .LVU326
 917 0006 084B     		ldr	r3, .L81
 762:D:/fchai/work/i-cube/I-CUBE-HUAWEI/Drivers/BSP/IKS01A3\iks01a3_motion_sensors.c ****   {
 918              		.loc 1 762 12 view .LVU327
 919 0008 084A     		ldr	r2, .L81+4
 762:D:/fchai/work/i-cube/I-CUBE-HUAWEI/Drivers/BSP/IKS01A3\iks01a3_motion_sensors.c ****   {
 920              		.loc 1 762 31 view .LVU328
 921 000a 53F82030 		ldr	r3, [r3, r0, lsl #2]
 762:D:/fchai/work/i-cube/I-CUBE-HUAWEI/Drivers/BSP/IKS01A3\iks01a3_motion_sensors.c ****   {
 922              		.loc 1 762 12 view .LVU329
 923 000e 52F82000 		ldr	r0, [r2, r0, lsl #2]
 924              	.LVL55:
 762:D:/fchai/work/i-cube/I-CUBE-HUAWEI/Drivers/BSP/IKS01A3\iks01a3_motion_sensors.c ****   {
 925              		.loc 1 762 12 view .LVU330
 926 0012 9B68     		ldr	r3, [r3, #8]
 927 0014 9847     		blx	r3
 928              	.LVL56:
 762:D:/fchai/work/i-cube/I-CUBE-HUAWEI/Drivers/BSP/IKS01A3\iks01a3_motion_sensors.c ****   {
 929              		.loc 1 762 11 view .LVU331
 930 0016 0028     		cmp	r0, #0
 764:D:/fchai/work/i-cube/I-CUBE-HUAWEI/Drivers/BSP/IKS01A3\iks01a3_motion_sensors.c ****   }
 931              		.loc 1 764 9 view .LVU332
 932 0018 18BF     		it	ne
 933 001a 6FF00600 		mvnne	r0, #6
 772:D:/fchai/work/i-cube/I-CUBE-HUAWEI/Drivers/BSP/IKS01A3\iks01a3_motion_sensors.c **** 
 934              		.loc 1 772 1 view .LVU333
 935 001e 08BD     		pop	{r3, pc}
 936              	.LVL57:
 937              	.L75:
 938              	.LCFI13:
 939              		.cfi_def_cfa_offset 0
 940              		.cfi_restore 3
 941              		.cfi_restore 14
 760:D:/fchai/work/i-cube/I-CUBE-HUAWEI/Drivers/BSP/IKS01A3\iks01a3_motion_sensors.c ****   }
 942              		.loc 1 760 9 view .LVU334
 943 0020 6FF00100 		mvn	r0, #1
 944              	.LVL58:
 772:D:/fchai/work/i-cube/I-CUBE-HUAWEI/Drivers/BSP/IKS01A3\iks01a3_motion_sensors.c **** 
 945              		.loc 1 772 1 view .LVU335
 946 0024 7047     		bx	lr
 947              	.L82:
 948 0026 00BF     		.align	2
 949              	.L81:
 950 0028 00000000 		.word	.LANCHOR2
 951 002c 00000000 		.word	MotionCompObj
ARM GAS  T:\msys\tmp\ccgRcQCS.s 			page 46


 952              		.cfi_endproc
 953              	.LFE126:
 955              		.section	.text.IKS01A3_MOTION_SENSOR_Enable,"ax",%progbits
 956              		.align	1
 957              		.p2align 2,,3
 958              		.global	IKS01A3_MOTION_SENSOR_Enable
 959              		.syntax unified
 960              		.thumb
 961              		.thumb_func
 962              		.fpu fpv4-sp-d16
 964              	IKS01A3_MOTION_SENSOR_Enable:
 965              	.LVL59:
 966              	.LFB127:
 784:D:/fchai/work/i-cube/I-CUBE-HUAWEI/Drivers/BSP/IKS01A3\iks01a3_motion_sensors.c ****   int32_t ret;
 967              		.loc 1 784 1 is_stmt 1 view -0
 968              		.cfi_startproc
 969              		@ args = 0, pretend = 0, frame = 0
 970              		@ frame_needed = 0, uses_anonymous_args = 0
 785:D:/fchai/work/i-cube/I-CUBE-HUAWEI/Drivers/BSP/IKS01A3\iks01a3_motion_sensors.c **** 
 971              		.loc 1 785 3 view .LVU337
 787:D:/fchai/work/i-cube/I-CUBE-HUAWEI/Drivers/BSP/IKS01A3\iks01a3_motion_sensors.c ****   {
 972              		.loc 1 787 3 view .LVU338
 787:D:/fchai/work/i-cube/I-CUBE-HUAWEI/Drivers/BSP/IKS01A3\iks01a3_motion_sensors.c ****   {
 973              		.loc 1 787 6 is_stmt 0 view .LVU339
 974 0000 0228     		cmp	r0, #2
 975 0002 1BD8     		bhi	.L86
 793:D:/fchai/work/i-cube/I-CUBE-HUAWEI/Drivers/BSP/IKS01A3\iks01a3_motion_sensors.c ****     {
 976              		.loc 1 793 5 is_stmt 1 view .LVU340
 793:D:/fchai/work/i-cube/I-CUBE-HUAWEI/Drivers/BSP/IKS01A3\iks01a3_motion_sensors.c ****     {
 977              		.loc 1 793 29 is_stmt 0 view .LVU341
 978 0004 0F4B     		ldr	r3, .L92
 793:D:/fchai/work/i-cube/I-CUBE-HUAWEI/Drivers/BSP/IKS01A3\iks01a3_motion_sensors.c ****     {
 979              		.loc 1 793 40 view .LVU342
 980 0006 53F82030 		ldr	r3, [r3, r0, lsl #2]
 981 000a 01EA0302 		and	r2, r1, r3
 793:D:/fchai/work/i-cube/I-CUBE-HUAWEI/Drivers/BSP/IKS01A3\iks01a3_motion_sensors.c ****     {
 982              		.loc 1 793 8 view .LVU343
 983 000e 31EA0303 		bics	r3, r1, r3
 984 0012 13D1     		bne	.L86
 795:D:/fchai/work/i-cube/I-CUBE-HUAWEI/Drivers/BSP/IKS01A3\iks01a3_motion_sensors.c ****       {
 985              		.loc 1 795 7 is_stmt 1 view .LVU344
 795:D:/fchai/work/i-cube/I-CUBE-HUAWEI/Drivers/BSP/IKS01A3\iks01a3_motion_sensors.c ****       {
 986              		.loc 1 795 48 is_stmt 0 view .LVU345
 987 0014 0C4B     		ldr	r3, .L92+4
 795:D:/fchai/work/i-cube/I-CUBE-HUAWEI/Drivers/BSP/IKS01A3\iks01a3_motion_sensors.c ****       {
 988              		.loc 1 795 34 view .LVU346
 989 0016 0D49     		ldr	r1, .L92+8
 990              	.LVL60:
 784:D:/fchai/work/i-cube/I-CUBE-HUAWEI/Drivers/BSP/IKS01A3\iks01a3_motion_sensors.c ****   int32_t ret;
 991              		.loc 1 784 1 view .LVU347
 992 0018 10B5     		push	{r4, lr}
 993              	.LCFI14:
 994              		.cfi_def_cfa_offset 8
 995              		.cfi_offset 4, -8
 996              		.cfi_offset 14, -4
 795:D:/fchai/work/i-cube/I-CUBE-HUAWEI/Drivers/BSP/IKS01A3\iks01a3_motion_sensors.c ****       {
 997              		.loc 1 795 34 view .LVU348
ARM GAS  T:\msys\tmp\ccgRcQCS.s 			page 47


 998 001a 53F82240 		ldr	r4, [r3, r2, lsl #2]
 795:D:/fchai/work/i-cube/I-CUBE-HUAWEI/Drivers/BSP/IKS01A3\iks01a3_motion_sensors.c ****       {
 999              		.loc 1 795 11 view .LVU349
 1000 001e 0C4A     		ldr	r2, .L92+12
 795:D:/fchai/work/i-cube/I-CUBE-HUAWEI/Drivers/BSP/IKS01A3\iks01a3_motion_sensors.c ****       {
 1001              		.loc 1 795 34 view .LVU350
 1002 0020 00EB4003 		add	r3, r0, r0, lsl #1
 1003 0024 2344     		add	r3, r3, r4
 795:D:/fchai/work/i-cube/I-CUBE-HUAWEI/Drivers/BSP/IKS01A3\iks01a3_motion_sensors.c ****       {
 1004              		.loc 1 795 11 view .LVU351
 1005 0026 52F82000 		ldr	r0, [r2, r0, lsl #2]
 1006              	.LVL61:
 795:D:/fchai/work/i-cube/I-CUBE-HUAWEI/Drivers/BSP/IKS01A3\iks01a3_motion_sensors.c ****       {
 1007              		.loc 1 795 59 view .LVU352
 1008 002a 51F82330 		ldr	r3, [r1, r3, lsl #2]
 795:D:/fchai/work/i-cube/I-CUBE-HUAWEI/Drivers/BSP/IKS01A3\iks01a3_motion_sensors.c ****       {
 1009              		.loc 1 795 11 view .LVU353
 1010 002e 1B68     		ldr	r3, [r3]
 1011 0030 9847     		blx	r3
 1012              	.LVL62:
 795:D:/fchai/work/i-cube/I-CUBE-HUAWEI/Drivers/BSP/IKS01A3\iks01a3_motion_sensors.c ****       {
 1013              		.loc 1 795 10 view .LVU354
 1014 0032 0028     		cmp	r0, #0
 797:D:/fchai/work/i-cube/I-CUBE-HUAWEI/Drivers/BSP/IKS01A3\iks01a3_motion_sensors.c ****       }
 1015              		.loc 1 797 13 view .LVU355
 1016 0034 18BF     		it	ne
 1017 0036 6FF00400 		mvnne	r0, #4
 811:D:/fchai/work/i-cube/I-CUBE-HUAWEI/Drivers/BSP/IKS01A3\iks01a3_motion_sensors.c **** 
 1018              		.loc 1 811 1 view .LVU356
 1019 003a 10BD     		pop	{r4, pc}
 1020              	.LVL63:
 1021              	.L86:
 1022              	.LCFI15:
 1023              		.cfi_def_cfa_offset 0
 1024              		.cfi_restore 4
 1025              		.cfi_restore 14
 789:D:/fchai/work/i-cube/I-CUBE-HUAWEI/Drivers/BSP/IKS01A3\iks01a3_motion_sensors.c ****   }
 1026              		.loc 1 789 9 view .LVU357
 1027 003c 6FF00100 		mvn	r0, #1
 1028              	.LVL64:
 811:D:/fchai/work/i-cube/I-CUBE-HUAWEI/Drivers/BSP/IKS01A3\iks01a3_motion_sensors.c **** 
 1029              		.loc 1 811 1 view .LVU358
 1030 0040 7047     		bx	lr
 1031              	.L93:
 1032 0042 00BF     		.align	2
 1033              	.L92:
 1034 0044 00000000 		.word	.LANCHOR1
 1035 0048 00000000 		.word	.LANCHOR6
 1036 004c 00000000 		.word	.LANCHOR3
 1037 0050 00000000 		.word	MotionCompObj
 1038              		.cfi_endproc
 1039              	.LFE127:
 1041              		.section	.text.IKS01A3_MOTION_SENSOR_Disable,"ax",%progbits
 1042              		.align	1
 1043              		.p2align 2,,3
 1044              		.global	IKS01A3_MOTION_SENSOR_Disable
 1045              		.syntax unified
ARM GAS  T:\msys\tmp\ccgRcQCS.s 			page 48


 1046              		.thumb
 1047              		.thumb_func
 1048              		.fpu fpv4-sp-d16
 1050              	IKS01A3_MOTION_SENSOR_Disable:
 1051              	.LVL65:
 1052              	.LFB128:
 823:D:/fchai/work/i-cube/I-CUBE-HUAWEI/Drivers/BSP/IKS01A3\iks01a3_motion_sensors.c ****   int32_t ret;
 1053              		.loc 1 823 1 is_stmt 1 view -0
 1054              		.cfi_startproc
 1055              		@ args = 0, pretend = 0, frame = 0
 1056              		@ frame_needed = 0, uses_anonymous_args = 0
 824:D:/fchai/work/i-cube/I-CUBE-HUAWEI/Drivers/BSP/IKS01A3\iks01a3_motion_sensors.c **** 
 1057              		.loc 1 824 3 view .LVU360
 826:D:/fchai/work/i-cube/I-CUBE-HUAWEI/Drivers/BSP/IKS01A3\iks01a3_motion_sensors.c ****   {
 1058              		.loc 1 826 3 view .LVU361
 826:D:/fchai/work/i-cube/I-CUBE-HUAWEI/Drivers/BSP/IKS01A3\iks01a3_motion_sensors.c ****   {
 1059              		.loc 1 826 6 is_stmt 0 view .LVU362
 1060 0000 0228     		cmp	r0, #2
 1061 0002 1BD8     		bhi	.L97
 832:D:/fchai/work/i-cube/I-CUBE-HUAWEI/Drivers/BSP/IKS01A3\iks01a3_motion_sensors.c ****     {
 1062              		.loc 1 832 5 is_stmt 1 view .LVU363
 832:D:/fchai/work/i-cube/I-CUBE-HUAWEI/Drivers/BSP/IKS01A3\iks01a3_motion_sensors.c ****     {
 1063              		.loc 1 832 29 is_stmt 0 view .LVU364
 1064 0004 0F4B     		ldr	r3, .L103
 832:D:/fchai/work/i-cube/I-CUBE-HUAWEI/Drivers/BSP/IKS01A3\iks01a3_motion_sensors.c ****     {
 1065              		.loc 1 832 40 view .LVU365
 1066 0006 53F82030 		ldr	r3, [r3, r0, lsl #2]
 1067 000a 01EA0302 		and	r2, r1, r3
 832:D:/fchai/work/i-cube/I-CUBE-HUAWEI/Drivers/BSP/IKS01A3\iks01a3_motion_sensors.c ****     {
 1068              		.loc 1 832 8 view .LVU366
 1069 000e 31EA0303 		bics	r3, r1, r3
 1070 0012 13D1     		bne	.L97
 834:D:/fchai/work/i-cube/I-CUBE-HUAWEI/Drivers/BSP/IKS01A3\iks01a3_motion_sensors.c ****       {
 1071              		.loc 1 834 7 is_stmt 1 view .LVU367
 834:D:/fchai/work/i-cube/I-CUBE-HUAWEI/Drivers/BSP/IKS01A3\iks01a3_motion_sensors.c ****       {
 1072              		.loc 1 834 48 is_stmt 0 view .LVU368
 1073 0014 0C4B     		ldr	r3, .L103+4
 834:D:/fchai/work/i-cube/I-CUBE-HUAWEI/Drivers/BSP/IKS01A3\iks01a3_motion_sensors.c ****       {
 1074              		.loc 1 834 34 view .LVU369
 1075 0016 0D49     		ldr	r1, .L103+8
 1076              	.LVL66:
 823:D:/fchai/work/i-cube/I-CUBE-HUAWEI/Drivers/BSP/IKS01A3\iks01a3_motion_sensors.c ****   int32_t ret;
 1077              		.loc 1 823 1 view .LVU370
 1078 0018 10B5     		push	{r4, lr}
 1079              	.LCFI16:
 1080              		.cfi_def_cfa_offset 8
 1081              		.cfi_offset 4, -8
 1082              		.cfi_offset 14, -4
 834:D:/fchai/work/i-cube/I-CUBE-HUAWEI/Drivers/BSP/IKS01A3\iks01a3_motion_sensors.c ****       {
 1083              		.loc 1 834 34 view .LVU371
 1084 001a 53F82240 		ldr	r4, [r3, r2, lsl #2]
 834:D:/fchai/work/i-cube/I-CUBE-HUAWEI/Drivers/BSP/IKS01A3\iks01a3_motion_sensors.c ****       {
 1085              		.loc 1 834 11 view .LVU372
 1086 001e 0C4A     		ldr	r2, .L103+12
 834:D:/fchai/work/i-cube/I-CUBE-HUAWEI/Drivers/BSP/IKS01A3\iks01a3_motion_sensors.c ****       {
 1087              		.loc 1 834 34 view .LVU373
 1088 0020 00EB4003 		add	r3, r0, r0, lsl #1
ARM GAS  T:\msys\tmp\ccgRcQCS.s 			page 49


 1089 0024 2344     		add	r3, r3, r4
 834:D:/fchai/work/i-cube/I-CUBE-HUAWEI/Drivers/BSP/IKS01A3\iks01a3_motion_sensors.c ****       {
 1090              		.loc 1 834 11 view .LVU374
 1091 0026 52F82000 		ldr	r0, [r2, r0, lsl #2]
 1092              	.LVL67:
 834:D:/fchai/work/i-cube/I-CUBE-HUAWEI/Drivers/BSP/IKS01A3\iks01a3_motion_sensors.c ****       {
 1093              		.loc 1 834 59 view .LVU375
 1094 002a 51F82330 		ldr	r3, [r1, r3, lsl #2]
 834:D:/fchai/work/i-cube/I-CUBE-HUAWEI/Drivers/BSP/IKS01A3\iks01a3_motion_sensors.c ****       {
 1095              		.loc 1 834 11 view .LVU376
 1096 002e 5B68     		ldr	r3, [r3, #4]
 1097 0030 9847     		blx	r3
 1098              	.LVL68:
 834:D:/fchai/work/i-cube/I-CUBE-HUAWEI/Drivers/BSP/IKS01A3\iks01a3_motion_sensors.c ****       {
 1099              		.loc 1 834 10 view .LVU377
 1100 0032 0028     		cmp	r0, #0
 836:D:/fchai/work/i-cube/I-CUBE-HUAWEI/Drivers/BSP/IKS01A3\iks01a3_motion_sensors.c ****       }
 1101              		.loc 1 836 13 view .LVU378
 1102 0034 18BF     		it	ne
 1103 0036 6FF00400 		mvnne	r0, #4
 850:D:/fchai/work/i-cube/I-CUBE-HUAWEI/Drivers/BSP/IKS01A3\iks01a3_motion_sensors.c **** 
 1104              		.loc 1 850 1 view .LVU379
 1105 003a 10BD     		pop	{r4, pc}
 1106              	.LVL69:
 1107              	.L97:
 1108              	.LCFI17:
 1109              		.cfi_def_cfa_offset 0
 1110              		.cfi_restore 4
 1111              		.cfi_restore 14
 828:D:/fchai/work/i-cube/I-CUBE-HUAWEI/Drivers/BSP/IKS01A3\iks01a3_motion_sensors.c ****   }
 1112              		.loc 1 828 9 view .LVU380
 1113 003c 6FF00100 		mvn	r0, #1
 1114              	.LVL70:
 850:D:/fchai/work/i-cube/I-CUBE-HUAWEI/Drivers/BSP/IKS01A3\iks01a3_motion_sensors.c **** 
 1115              		.loc 1 850 1 view .LVU381
 1116 0040 7047     		bx	lr
 1117              	.L104:
 1118 0042 00BF     		.align	2
 1119              	.L103:
 1120 0044 00000000 		.word	.LANCHOR1
 1121 0048 00000000 		.word	.LANCHOR6
 1122 004c 00000000 		.word	.LANCHOR3
 1123 0050 00000000 		.word	MotionCompObj
 1124              		.cfi_endproc
 1125              	.LFE128:
 1127              		.section	.text.IKS01A3_MOTION_SENSOR_GetAxes,"ax",%progbits
 1128              		.align	1
 1129              		.p2align 2,,3
 1130              		.global	IKS01A3_MOTION_SENSOR_GetAxes
 1131              		.syntax unified
 1132              		.thumb
 1133              		.thumb_func
 1134              		.fpu fpv4-sp-d16
 1136              	IKS01A3_MOTION_SENSOR_GetAxes:
 1137              	.LVL71:
 1138              	.LFB129:
 863:D:/fchai/work/i-cube/I-CUBE-HUAWEI/Drivers/BSP/IKS01A3\iks01a3_motion_sensors.c ****   int32_t ret;
ARM GAS  T:\msys\tmp\ccgRcQCS.s 			page 50


 1139              		.loc 1 863 1 is_stmt 1 view -0
 1140              		.cfi_startproc
 1141              		@ args = 0, pretend = 0, frame = 0
 1142              		@ frame_needed = 0, uses_anonymous_args = 0
 864:D:/fchai/work/i-cube/I-CUBE-HUAWEI/Drivers/BSP/IKS01A3\iks01a3_motion_sensors.c **** 
 1143              		.loc 1 864 3 view .LVU383
 866:D:/fchai/work/i-cube/I-CUBE-HUAWEI/Drivers/BSP/IKS01A3\iks01a3_motion_sensors.c ****   {
 1144              		.loc 1 866 3 view .LVU384
 866:D:/fchai/work/i-cube/I-CUBE-HUAWEI/Drivers/BSP/IKS01A3\iks01a3_motion_sensors.c ****   {
 1145              		.loc 1 866 6 is_stmt 0 view .LVU385
 1146 0000 0228     		cmp	r0, #2
 1147 0002 1FD8     		bhi	.L107
 863:D:/fchai/work/i-cube/I-CUBE-HUAWEI/Drivers/BSP/IKS01A3\iks01a3_motion_sensors.c ****   int32_t ret;
 1148              		.loc 1 863 1 view .LVU386
 1149 0004 38B5     		push	{r3, r4, r5, lr}
 1150              	.LCFI18:
 1151              		.cfi_def_cfa_offset 16
 1152              		.cfi_offset 3, -16
 1153              		.cfi_offset 4, -12
 1154              		.cfi_offset 5, -8
 1155              		.cfi_offset 14, -4
 1156 0006 0B46     		mov	r3, r1
 1157 0008 1146     		mov	r1, r2
 1158              	.LVL72:
 872:D:/fchai/work/i-cube/I-CUBE-HUAWEI/Drivers/BSP/IKS01A3\iks01a3_motion_sensors.c ****     {
 1159              		.loc 1 872 5 is_stmt 1 view .LVU387
 872:D:/fchai/work/i-cube/I-CUBE-HUAWEI/Drivers/BSP/IKS01A3\iks01a3_motion_sensors.c ****     {
 1160              		.loc 1 872 29 is_stmt 0 view .LVU388
 1161 000a 104A     		ldr	r2, .L114
 1162              	.LVL73:
 872:D:/fchai/work/i-cube/I-CUBE-HUAWEI/Drivers/BSP/IKS01A3\iks01a3_motion_sensors.c ****     {
 1163              		.loc 1 872 40 view .LVU389
 1164 000c 52F82020 		ldr	r2, [r2, r0, lsl #2]
 1165 0010 03EA0204 		and	r4, r3, r2
 872:D:/fchai/work/i-cube/I-CUBE-HUAWEI/Drivers/BSP/IKS01A3\iks01a3_motion_sensors.c ****     {
 1166              		.loc 1 872 8 view .LVU390
 1167 0014 9343     		bics	r3, r3, r2
 1168              	.LVL74:
 872:D:/fchai/work/i-cube/I-CUBE-HUAWEI/Drivers/BSP/IKS01A3\iks01a3_motion_sensors.c ****     {
 1169              		.loc 1 872 8 view .LVU391
 1170 0016 12D1     		bne	.L108
 874:D:/fchai/work/i-cube/I-CUBE-HUAWEI/Drivers/BSP/IKS01A3\iks01a3_motion_sensors.c ****       {
 1171              		.loc 1 874 7 is_stmt 1 view .LVU392
 874:D:/fchai/work/i-cube/I-CUBE-HUAWEI/Drivers/BSP/IKS01A3\iks01a3_motion_sensors.c ****       {
 1172              		.loc 1 874 48 is_stmt 0 view .LVU393
 1173 0018 0D4B     		ldr	r3, .L114+4
 874:D:/fchai/work/i-cube/I-CUBE-HUAWEI/Drivers/BSP/IKS01A3\iks01a3_motion_sensors.c ****       {
 1174              		.loc 1 874 34 view .LVU394
 1175 001a 0E4D     		ldr	r5, .L114+8
 1176 001c 53F82440 		ldr	r4, [r3, r4, lsl #2]
 874:D:/fchai/work/i-cube/I-CUBE-HUAWEI/Drivers/BSP/IKS01A3\iks01a3_motion_sensors.c ****       {
 1177              		.loc 1 874 11 view .LVU395
 1178 0020 0D4A     		ldr	r2, .L114+12
 874:D:/fchai/work/i-cube/I-CUBE-HUAWEI/Drivers/BSP/IKS01A3\iks01a3_motion_sensors.c ****       {
 1179              		.loc 1 874 34 view .LVU396
 1180 0022 00EB4003 		add	r3, r0, r0, lsl #1
 1181 0026 2344     		add	r3, r3, r4
ARM GAS  T:\msys\tmp\ccgRcQCS.s 			page 51


 874:D:/fchai/work/i-cube/I-CUBE-HUAWEI/Drivers/BSP/IKS01A3\iks01a3_motion_sensors.c ****       {
 1182              		.loc 1 874 11 view .LVU397
 1183 0028 52F82000 		ldr	r0, [r2, r0, lsl #2]
 1184              	.LVL75:
 874:D:/fchai/work/i-cube/I-CUBE-HUAWEI/Drivers/BSP/IKS01A3\iks01a3_motion_sensors.c ****       {
 1185              		.loc 1 874 59 view .LVU398
 1186 002c 55F82330 		ldr	r3, [r5, r3, lsl #2]
 874:D:/fchai/work/i-cube/I-CUBE-HUAWEI/Drivers/BSP/IKS01A3\iks01a3_motion_sensors.c ****       {
 1187              		.loc 1 874 11 view .LVU399
 1188 0030 DB69     		ldr	r3, [r3, #28]
 1189 0032 9847     		blx	r3
 1190              	.LVL76:
 874:D:/fchai/work/i-cube/I-CUBE-HUAWEI/Drivers/BSP/IKS01A3\iks01a3_motion_sensors.c ****       {
 1191              		.loc 1 874 10 view .LVU400
 1192 0034 0028     		cmp	r0, #0
 876:D:/fchai/work/i-cube/I-CUBE-HUAWEI/Drivers/BSP/IKS01A3\iks01a3_motion_sensors.c ****       }
 1193              		.loc 1 876 13 view .LVU401
 1194 0036 18BF     		it	ne
 1195 0038 6FF00400 		mvnne	r0, #4
 890:D:/fchai/work/i-cube/I-CUBE-HUAWEI/Drivers/BSP/IKS01A3\iks01a3_motion_sensors.c **** 
 1196              		.loc 1 890 1 view .LVU402
 1197 003c 38BD     		pop	{r3, r4, r5, pc}
 1198              	.LVL77:
 1199              	.L108:
 868:D:/fchai/work/i-cube/I-CUBE-HUAWEI/Drivers/BSP/IKS01A3\iks01a3_motion_sensors.c ****   }
 1200              		.loc 1 868 9 view .LVU403
 1201 003e 6FF00100 		mvn	r0, #1
 1202              	.LVL78:
 890:D:/fchai/work/i-cube/I-CUBE-HUAWEI/Drivers/BSP/IKS01A3\iks01a3_motion_sensors.c **** 
 1203              		.loc 1 890 1 view .LVU404
 1204 0042 38BD     		pop	{r3, r4, r5, pc}
 1205              	.LVL79:
 1206              	.L107:
 1207              	.LCFI19:
 1208              		.cfi_def_cfa_offset 0
 1209              		.cfi_restore 3
 1210              		.cfi_restore 4
 1211              		.cfi_restore 5
 1212              		.cfi_restore 14
 868:D:/fchai/work/i-cube/I-CUBE-HUAWEI/Drivers/BSP/IKS01A3\iks01a3_motion_sensors.c ****   }
 1213              		.loc 1 868 9 view .LVU405
 1214 0044 6FF00100 		mvn	r0, #1
 1215              	.LVL80:
 890:D:/fchai/work/i-cube/I-CUBE-HUAWEI/Drivers/BSP/IKS01A3\iks01a3_motion_sensors.c **** 
 1216              		.loc 1 890 1 view .LVU406
 1217 0048 7047     		bx	lr
 1218              	.L115:
 1219 004a 00BF     		.align	2
 1220              	.L114:
 1221 004c 00000000 		.word	.LANCHOR1
 1222 0050 00000000 		.word	.LANCHOR6
 1223 0054 00000000 		.word	.LANCHOR3
 1224 0058 00000000 		.word	MotionCompObj
 1225              		.cfi_endproc
 1226              	.LFE129:
 1228              		.section	.text.IKS01A3_MOTION_SENSOR_GetAxesRaw,"ax",%progbits
 1229              		.align	1
ARM GAS  T:\msys\tmp\ccgRcQCS.s 			page 52


 1230              		.p2align 2,,3
 1231              		.global	IKS01A3_MOTION_SENSOR_GetAxesRaw
 1232              		.syntax unified
 1233              		.thumb
 1234              		.thumb_func
 1235              		.fpu fpv4-sp-d16
 1237              	IKS01A3_MOTION_SENSOR_GetAxesRaw:
 1238              	.LVL81:
 1239              	.LFB130:
 903:D:/fchai/work/i-cube/I-CUBE-HUAWEI/Drivers/BSP/IKS01A3\iks01a3_motion_sensors.c ****   int32_t ret;
 1240              		.loc 1 903 1 is_stmt 1 view -0
 1241              		.cfi_startproc
 1242              		@ args = 0, pretend = 0, frame = 0
 1243              		@ frame_needed = 0, uses_anonymous_args = 0
 904:D:/fchai/work/i-cube/I-CUBE-HUAWEI/Drivers/BSP/IKS01A3\iks01a3_motion_sensors.c **** 
 1244              		.loc 1 904 3 view .LVU408
 906:D:/fchai/work/i-cube/I-CUBE-HUAWEI/Drivers/BSP/IKS01A3\iks01a3_motion_sensors.c ****   {
 1245              		.loc 1 906 3 view .LVU409
 906:D:/fchai/work/i-cube/I-CUBE-HUAWEI/Drivers/BSP/IKS01A3\iks01a3_motion_sensors.c ****   {
 1246              		.loc 1 906 6 is_stmt 0 view .LVU410
 1247 0000 0228     		cmp	r0, #2
 1248 0002 1FD8     		bhi	.L118
 903:D:/fchai/work/i-cube/I-CUBE-HUAWEI/Drivers/BSP/IKS01A3\iks01a3_motion_sensors.c ****   int32_t ret;
 1249              		.loc 1 903 1 view .LVU411
 1250 0004 38B5     		push	{r3, r4, r5, lr}
 1251              	.LCFI20:
 1252              		.cfi_def_cfa_offset 16
 1253              		.cfi_offset 3, -16
 1254              		.cfi_offset 4, -12
 1255              		.cfi_offset 5, -8
 1256              		.cfi_offset 14, -4
 1257 0006 0B46     		mov	r3, r1
 1258 0008 1146     		mov	r1, r2
 1259              	.LVL82:
 912:D:/fchai/work/i-cube/I-CUBE-HUAWEI/Drivers/BSP/IKS01A3\iks01a3_motion_sensors.c ****     {
 1260              		.loc 1 912 5 is_stmt 1 view .LVU412
