ARM GAS  T:\msys\tmp\ccD4SZ3u.s 			page 1


   1              		.cpu cortex-m4
   2              		.eabi_attribute 27, 1
   3              		.eabi_attribute 28, 1
   4              		.eabi_attribute 20, 1
   5              		.eabi_attribute 21, 1
   6              		.eabi_attribute 23, 3
   7              		.eabi_attribute 24, 1
   8              		.eabi_attribute 25, 1
   9              		.eabi_attribute 26, 1
  10              		.eabi_attribute 30, 2
  11              		.eabi_attribute 34, 1
  12              		.eabi_attribute 18, 4
  13              		.file	"shell_cmd.c"
  14              		.text
  15              	.Ltext0:
  16              		.cfi_sections	.debug_frame
  17              		.section	.rodata.shell_cmd_help.str1.4,"aMS",%progbits,1
  18              		.align	2
  19              	.LC0:
  20 0000 4C656E00 		.ascii	"Len\000"
  21              		.align	2
  22              	.LC1:
  23 0004 54797065 		.ascii	"Type\000"
  23      00
  24 0009 000000   		.align	2
  25              	.LC2:
  26 000c 4E616D65 		.ascii	"Name\000"
  26      00
  27 0011 000000   		.align	2
  28              	.LC3:
  29 0014 252D3136 		.ascii	"%-16s%-5s%-4s%-10s%-20s\012\015\000"
  29      73252D35 
  29      73252D34 
  29      73252D31 
  29      3073252D 
  30 002e 0000     		.align	2
  31              	.LC4:
  32 0030 44657363 		.ascii	"Description\000"
  32      72697074 
  32      696F6E00 
  33              		.align	2
  34              	.LC5:
  35 003c 52756E41 		.ascii	"RunAddr\000"
  35      64647200 
  36              		.align	2
  37              	.LC6:
  38 0044 252D3136 		.ascii	"%-16s%-5s%-4x%08x  %-30s\012\015\000"
  38      73252D35 
  38      73252D34 
  38      78253038 
  38      78202025 
  39 005f 00       		.align	2
  40              	.LC7:
  41 0060 252D3278 		.ascii	"%-2x  %-16s%-5s%-4x%08x  %-30s\012\015\000"
  41      2020252D 
  41      31367325 
  41      2D357325 
ARM GAS  T:\msys\tmp\ccD4SZ3u.s 			page 2


  41      2D347825 
  42              		.section	.text.shell_cmd_help,"ax",%progbits
  43              		.align	1
  44              		.p2align 2,,3
  45              		.arch armv7e-m
  46              		.syntax unified
  47              		.thumb
  48              		.thumb_func
  49              		.fpu fpv4-sp-d16
  51              	shell_cmd_help:
  52              	.LVL0:
  53              	.LFB3:
  54              		.file 1 "D:/fchai/work/i-cube/I-CUBE-HUAWEI/Middlewares/Third_Party/Huawei/iot_link/shell/shell_cm
   1:D:/fchai/work/i-cube/I-CUBE-HUAWEI/Middlewares/Third_Party/Huawei/iot_link/shell\shell_cmd.c **** /*----------------------------------------------------------------------------
   2:D:/fchai/work/i-cube/I-CUBE-HUAWEI/Middlewares/Third_Party/Huawei/iot_link/shell\shell_cmd.c ****  * Copyright (c) <2018>, <Huawei Technologies Co., Ltd>
   3:D:/fchai/work/i-cube/I-CUBE-HUAWEI/Middlewares/Third_Party/Huawei/iot_link/shell\shell_cmd.c ****  * All rights reserved.
   4:D:/fchai/work/i-cube/I-CUBE-HUAWEI/Middlewares/Third_Party/Huawei/iot_link/shell\shell_cmd.c ****  * Redistribution and use in source and binary forms, with or without modification,
   5:D:/fchai/work/i-cube/I-CUBE-HUAWEI/Middlewares/Third_Party/Huawei/iot_link/shell\shell_cmd.c ****  * are permitted provided that the following conditions are met:
   6:D:/fchai/work/i-cube/I-CUBE-HUAWEI/Middlewares/Third_Party/Huawei/iot_link/shell\shell_cmd.c ****  * 1. Redistributions of source code must retain the above copyright notice, this list of
   7:D:/fchai/work/i-cube/I-CUBE-HUAWEI/Middlewares/Third_Party/Huawei/iot_link/shell\shell_cmd.c ****  * conditions and the following disclaimer.
   8:D:/fchai/work/i-cube/I-CUBE-HUAWEI/Middlewares/Third_Party/Huawei/iot_link/shell\shell_cmd.c ****  * 2. Redistributions in binary form must reproduce the above copyright notice, this list
   9:D:/fchai/work/i-cube/I-CUBE-HUAWEI/Middlewares/Third_Party/Huawei/iot_link/shell\shell_cmd.c ****  * of conditions and the following disclaimer in the documentation and/or other materials
  10:D:/fchai/work/i-cube/I-CUBE-HUAWEI/Middlewares/Third_Party/Huawei/iot_link/shell\shell_cmd.c ****  * provided with the distribution.
  11:D:/fchai/work/i-cube/I-CUBE-HUAWEI/Middlewares/Third_Party/Huawei/iot_link/shell\shell_cmd.c ****  * 3. Neither the name of the copyright holder nor the names of its contributors may be used
  12:D:/fchai/work/i-cube/I-CUBE-HUAWEI/Middlewares/Third_Party/Huawei/iot_link/shell\shell_cmd.c ****  * to endorse or promote products derived from this software without specific prior written
  13:D:/fchai/work/i-cube/I-CUBE-HUAWEI/Middlewares/Third_Party/Huawei/iot_link/shell\shell_cmd.c ****  * permission.
  14:D:/fchai/work/i-cube/I-CUBE-HUAWEI/Middlewares/Third_Party/Huawei/iot_link/shell\shell_cmd.c ****  * THIS SOFTWARE IS PROVIDED BY THE COPYRIGHT HOLDERS AND CONTRIBUTORS
  15:D:/fchai/work/i-cube/I-CUBE-HUAWEI/Middlewares/Third_Party/Huawei/iot_link/shell\shell_cmd.c ****  * "AS IS" AND ANY EXPRESS OR IMPLIED WARRANTIES, INCLUDING, BUT NOT LIMITED TO,
  16:D:/fchai/work/i-cube/I-CUBE-HUAWEI/Middlewares/Third_Party/Huawei/iot_link/shell\shell_cmd.c ****  * THE IMPLIED WARRANTIES OF MERCHANTABILITY AND FITNESS FOR A PARTICULAR
  17:D:/fchai/work/i-cube/I-CUBE-HUAWEI/Middlewares/Third_Party/Huawei/iot_link/shell\shell_cmd.c ****  * PURPOSE ARE DISCLAIMED. IN NO EVENT SHALL THE COPYRIGHT HOLDER OR
  18:D:/fchai/work/i-cube/I-CUBE-HUAWEI/Middlewares/Third_Party/Huawei/iot_link/shell\shell_cmd.c ****  * CONTRIBUTORS BE LIABLE FOR ANY DIRECT, INDIRECT, INCIDENTAL, SPECIAL,
  19:D:/fchai/work/i-cube/I-CUBE-HUAWEI/Middlewares/Third_Party/Huawei/iot_link/shell\shell_cmd.c ****  * EXEMPLARY, OR CONSEQUENTIAL DAMAGES (INCLUDING, BUT NOT LIMITED TO,
  20:D:/fchai/work/i-cube/I-CUBE-HUAWEI/Middlewares/Third_Party/Huawei/iot_link/shell\shell_cmd.c ****  * PROCUREMENT OF SUBSTITUTE GOODS OR SERVICES; LOSS OF USE, DATA, OR PROFITS;
  21:D:/fchai/work/i-cube/I-CUBE-HUAWEI/Middlewares/Third_Party/Huawei/iot_link/shell\shell_cmd.c ****  * OR BUSINESS INTERRUPTION) HOWEVER CAUSED AND ON ANY THEORY OF LIABILITY,
  22:D:/fchai/work/i-cube/I-CUBE-HUAWEI/Middlewares/Third_Party/Huawei/iot_link/shell\shell_cmd.c ****  * WHETHER IN CONTRACT, STRICT LIABILITY, OR TORT (INCLUDING NEGLIGENCE OR
  23:D:/fchai/work/i-cube/I-CUBE-HUAWEI/Middlewares/Third_Party/Huawei/iot_link/shell\shell_cmd.c ****  * OTHERWISE) ARISING IN ANY WAY OUT OF THE USE OF THIS SOFTWARE, EVEN IF
  24:D:/fchai/work/i-cube/I-CUBE-HUAWEI/Middlewares/Third_Party/Huawei/iot_link/shell\shell_cmd.c ****  * ADVISED OF THE POSSIBILITY OF SUCH DAMAGE.
  25:D:/fchai/work/i-cube/I-CUBE-HUAWEI/Middlewares/Third_Party/Huawei/iot_link/shell\shell_cmd.c ****  *---------------------------------------------------------------------------*/
  26:D:/fchai/work/i-cube/I-CUBE-HUAWEI/Middlewares/Third_Party/Huawei/iot_link/shell\shell_cmd.c **** /*----------------------------------------------------------------------------
  27:D:/fchai/work/i-cube/I-CUBE-HUAWEI/Middlewares/Third_Party/Huawei/iot_link/shell\shell_cmd.c ****  * Notice of Export Control Law
  28:D:/fchai/work/i-cube/I-CUBE-HUAWEI/Middlewares/Third_Party/Huawei/iot_link/shell\shell_cmd.c ****  * ===============================================
  29:D:/fchai/work/i-cube/I-CUBE-HUAWEI/Middlewares/Third_Party/Huawei/iot_link/shell\shell_cmd.c ****  * Huawei LiteOS may be subject to applicable export control laws and regulations, which might
  30:D:/fchai/work/i-cube/I-CUBE-HUAWEI/Middlewares/Third_Party/Huawei/iot_link/shell\shell_cmd.c ****  * include those applicable to Huawei LiteOS of U.S. and the country in which you are located.
  31:D:/fchai/work/i-cube/I-CUBE-HUAWEI/Middlewares/Third_Party/Huawei/iot_link/shell\shell_cmd.c ****  * Import, export and usage of Huawei LiteOS in any manner by you shall be in compliance with such
  32:D:/fchai/work/i-cube/I-CUBE-HUAWEI/Middlewares/Third_Party/Huawei/iot_link/shell\shell_cmd.c ****  * applicable export control laws and regulations.
  33:D:/fchai/work/i-cube/I-CUBE-HUAWEI/Middlewares/Third_Party/Huawei/iot_link/shell\shell_cmd.c ****  *---------------------------------------------------------------------------*/
  34:D:/fchai/work/i-cube/I-CUBE-HUAWEI/Middlewares/Third_Party/Huawei/iot_link/shell\shell_cmd.c **** /**
  35:D:/fchai/work/i-cube/I-CUBE-HUAWEI/Middlewares/Third_Party/Huawei/iot_link/shell\shell_cmd.c ****  *  DATE                AUTHOR      INSTRUCTION
  36:D:/fchai/work/i-cube/I-CUBE-HUAWEI/Middlewares/Third_Party/Huawei/iot_link/shell\shell_cmd.c ****  *  2019-05-14 17:22  zhangqianfu  The first version
  37:D:/fchai/work/i-cube/I-CUBE-HUAWEI/Middlewares/Third_Party/Huawei/iot_link/shell\shell_cmd.c ****  *
  38:D:/fchai/work/i-cube/I-CUBE-HUAWEI/Middlewares/Third_Party/Huawei/iot_link/shell\shell_cmd.c ****  */
  39:D:/fchai/work/i-cube/I-CUBE-HUAWEI/Middlewares/Third_Party/Huawei/iot_link/shell\shell_cmd.c **** 
  40:D:/fchai/work/i-cube/I-CUBE-HUAWEI/Middlewares/Third_Party/Huawei/iot_link/shell\shell_cmd.c **** /**********************************README***************************************
  41:D:/fchai/work/i-cube/I-CUBE-HUAWEI/Middlewares/Third_Party/Huawei/iot_link/shell\shell_cmd.c ****  * 1, we will load the command table in shell_cmd_init
  42:D:/fchai/work/i-cube/I-CUBE-HUAWEI/Middlewares/Third_Party/Huawei/iot_link/shell\shell_cmd.c ****  * 2, uptil now, we support the keil,gcc,you could add more compiler here
  43:D:/fchai/work/i-cube/I-CUBE-HUAWEI/Middlewares/Third_Party/Huawei/iot_link/shell\shell_cmd.c ****  *    make sure you get the method to define a section and know its address and size
  44:D:/fchai/work/i-cube/I-CUBE-HUAWEI/Middlewares/Third_Party/Huawei/iot_link/shell\shell_cmd.c **** *******************************************************************************/
ARM GAS  T:\msys\tmp\ccD4SZ3u.s 			page 3


  45:D:/fchai/work/i-cube/I-CUBE-HUAWEI/Middlewares/Third_Party/Huawei/iot_link/shell\shell_cmd.c **** 
  46:D:/fchai/work/i-cube/I-CUBE-HUAWEI/Middlewares/Third_Party/Huawei/iot_link/shell\shell_cmd.c **** 
  47:D:/fchai/work/i-cube/I-CUBE-HUAWEI/Middlewares/Third_Party/Huawei/iot_link/shell\shell_cmd.c **** /**************************************FILE INCLIUDES**************************/
  48:D:/fchai/work/i-cube/I-CUBE-HUAWEI/Middlewares/Third_Party/Huawei/iot_link/shell\shell_cmd.c **** 
  49:D:/fchai/work/i-cube/I-CUBE-HUAWEI/Middlewares/Third_Party/Huawei/iot_link/shell\shell_cmd.c **** #include <stdint.h>
  50:D:/fchai/work/i-cube/I-CUBE-HUAWEI/Middlewares/Third_Party/Huawei/iot_link/shell\shell_cmd.c **** #include <stddef.h>
  51:D:/fchai/work/i-cube/I-CUBE-HUAWEI/Middlewares/Third_Party/Huawei/iot_link/shell\shell_cmd.c **** #include <stdio.h>
  52:D:/fchai/work/i-cube/I-CUBE-HUAWEI/Middlewares/Third_Party/Huawei/iot_link/shell\shell_cmd.c **** #include <string.h>
  53:D:/fchai/work/i-cube/I-CUBE-HUAWEI/Middlewares/Third_Party/Huawei/iot_link/shell\shell_cmd.c **** #include <stdlib.h>
  54:D:/fchai/work/i-cube/I-CUBE-HUAWEI/Middlewares/Third_Party/Huawei/iot_link/shell\shell_cmd.c **** #include <shell.h>
  55:D:/fchai/work/i-cube/I-CUBE-HUAWEI/Middlewares/Third_Party/Huawei/iot_link/shell\shell_cmd.c **** #include <link_misc.h>
  56:D:/fchai/work/i-cube/I-CUBE-HUAWEI/Middlewares/Third_Party/Huawei/iot_link/shell\shell_cmd.c **** 
  57:D:/fchai/work/i-cube/I-CUBE-HUAWEI/Middlewares/Third_Party/Huawei/iot_link/shell\shell_cmd.c **** 
  58:D:/fchai/work/i-cube/I-CUBE-HUAWEI/Middlewares/Third_Party/Huawei/iot_link/shell\shell_cmd.c **** typedef int (*fn_shell_cmdentry)(int argc, const char *argv[]);
  59:D:/fchai/work/i-cube/I-CUBE-HUAWEI/Middlewares/Third_Party/Huawei/iot_link/shell\shell_cmd.c **** 
  60:D:/fchai/work/i-cube/I-CUBE-HUAWEI/Middlewares/Third_Party/Huawei/iot_link/shell\shell_cmd.c **** 
  61:D:/fchai/work/i-cube/I-CUBE-HUAWEI/Middlewares/Third_Party/Huawei/iot_link/shell\shell_cmd.c **** /**************************************FILE DEFINES****************************/
  62:D:/fchai/work/i-cube/I-CUBE-HUAWEI/Middlewares/Third_Party/Huawei/iot_link/shell\shell_cmd.c **** #define cn_shell_args       16     //at most could support 16 parameters for command
  63:D:/fchai/work/i-cube/I-CUBE-HUAWEI/Middlewares/Third_Party/Huawei/iot_link/shell\shell_cmd.c **** #define cn_shell_ver_major  1
  64:D:/fchai/work/i-cube/I-CUBE-HUAWEI/Middlewares/Third_Party/Huawei/iot_link/shell\shell_cmd.c **** #define cn_shell_ver_minor  0
  65:D:/fchai/work/i-cube/I-CUBE-HUAWEI/Middlewares/Third_Party/Huawei/iot_link/shell\shell_cmd.c **** 
  66:D:/fchai/work/i-cube/I-CUBE-HUAWEI/Middlewares/Third_Party/Huawei/iot_link/shell\shell_cmd.c **** /**************************************FILE DATA STRUCTURE*********************/
  67:D:/fchai/work/i-cube/I-CUBE-HUAWEI/Middlewares/Third_Party/Huawei/iot_link/shell\shell_cmd.c **** struct shell_cb_t
  68:D:/fchai/work/i-cube/I-CUBE-HUAWEI/Middlewares/Third_Party/Huawei/iot_link/shell\shell_cmd.c **** {
  69:D:/fchai/work/i-cube/I-CUBE-HUAWEI/Middlewares/Third_Party/Huawei/iot_link/shell\shell_cmd.c ****     struct shell_item_t *s;      //static tabs
  70:D:/fchai/work/i-cube/I-CUBE-HUAWEI/Middlewares/Third_Party/Huawei/iot_link/shell\shell_cmd.c ****     int                  s_num;  //static number
  71:D:/fchai/work/i-cube/I-CUBE-HUAWEI/Middlewares/Third_Party/Huawei/iot_link/shell\shell_cmd.c ****     struct shell_item_t *d;      //dynamic list
  72:D:/fchai/work/i-cube/I-CUBE-HUAWEI/Middlewares/Third_Party/Huawei/iot_link/shell\shell_cmd.c ****     int                  d_num;  //dynamic number;
  73:D:/fchai/work/i-cube/I-CUBE-HUAWEI/Middlewares/Third_Party/Huawei/iot_link/shell\shell_cmd.c **** };
  74:D:/fchai/work/i-cube/I-CUBE-HUAWEI/Middlewares/Third_Party/Huawei/iot_link/shell\shell_cmd.c **** 
  75:D:/fchai/work/i-cube/I-CUBE-HUAWEI/Middlewares/Third_Party/Huawei/iot_link/shell\shell_cmd.c **** 
  76:D:/fchai/work/i-cube/I-CUBE-HUAWEI/Middlewares/Third_Party/Huawei/iot_link/shell\shell_cmd.c **** /**************************************FILE VARS*******************************/
  77:D:/fchai/work/i-cube/I-CUBE-HUAWEI/Middlewares/Third_Party/Huawei/iot_link/shell\shell_cmd.c **** static struct shell_cb_t gs_shell_cb; //shell controller here
  78:D:/fchai/work/i-cube/I-CUBE-HUAWEI/Middlewares/Third_Party/Huawei/iot_link/shell\shell_cmd.c **** 
  79:D:/fchai/work/i-cube/I-CUBE-HUAWEI/Middlewares/Third_Party/Huawei/iot_link/shell\shell_cmd.c **** static const char *gs_os_shell_type[EN_OSSHELL_LAST]={
  80:D:/fchai/work/i-cube/I-CUBE-HUAWEI/Middlewares/Third_Party/Huawei/iot_link/shell\shell_cmd.c ****     "CMD",\
  81:D:/fchai/work/i-cube/I-CUBE-HUAWEI/Middlewares/Third_Party/Huawei/iot_link/shell\shell_cmd.c ****     "VAR",
  82:D:/fchai/work/i-cube/I-CUBE-HUAWEI/Middlewares/Third_Party/Huawei/iot_link/shell\shell_cmd.c **** };//this will be used in show the shell type
  83:D:/fchai/work/i-cube/I-CUBE-HUAWEI/Middlewares/Third_Party/Huawei/iot_link/shell\shell_cmd.c **** static struct shell_tab_matches tab_matches;
  84:D:/fchai/work/i-cube/I-CUBE-HUAWEI/Middlewares/Third_Party/Huawei/iot_link/shell\shell_cmd.c **** /**************************************FILE FUNCTIONS**************************/
  85:D:/fchai/work/i-cube/I-CUBE-HUAWEI/Middlewares/Third_Party/Huawei/iot_link/shell\shell_cmd.c **** //export functions
  86:D:/fchai/work/i-cube/I-CUBE-HUAWEI/Middlewares/Third_Party/Huawei/iot_link/shell\shell_cmd.c **** int   shell_cmd_execute(char *param);            //execute the command
  87:D:/fchai/work/i-cube/I-CUBE-HUAWEI/Middlewares/Third_Party/Huawei/iot_link/shell\shell_cmd.c **** int   shell_cmd_init(void);                      //do the command table load
  88:D:/fchai/work/i-cube/I-CUBE-HUAWEI/Middlewares/Third_Party/Huawei/iot_link/shell\shell_cmd.c **** const struct shell_tab_matches *shell_cmd_index(const char *index);  //find the most like command
  89:D:/fchai/work/i-cube/I-CUBE-HUAWEI/Middlewares/Third_Party/Huawei/iot_link/shell\shell_cmd.c **** 
  90:D:/fchai/work/i-cube/I-CUBE-HUAWEI/Middlewares/Third_Party/Huawei/iot_link/shell\shell_cmd.c **** 
  91:D:/fchai/work/i-cube/I-CUBE-HUAWEI/Middlewares/Third_Party/Huawei/iot_link/shell\shell_cmd.c **** /**************************************FILE FUNCIMPLEMENT**********************/
  92:D:/fchai/work/i-cube/I-CUBE-HUAWEI/Middlewares/Third_Party/Huawei/iot_link/shell\shell_cmd.c **** 
  93:D:/fchai/work/i-cube/I-CUBE-HUAWEI/Middlewares/Third_Party/Huawei/iot_link/shell\shell_cmd.c **** /*******************************************************************************
  94:D:/fchai/work/i-cube/I-CUBE-HUAWEI/Middlewares/Third_Party/Huawei/iot_link/shell\shell_cmd.c **** function     :system help
  95:D:/fchai/work/i-cube/I-CUBE-HUAWEI/Middlewares/Third_Party/Huawei/iot_link/shell\shell_cmd.c **** parameters   :
  96:D:/fchai/work/i-cube/I-CUBE-HUAWEI/Middlewares/Third_Party/Huawei/iot_link/shell\shell_cmd.c **** instruction  :take care of help specified command
  97:D:/fchai/work/i-cube/I-CUBE-HUAWEI/Middlewares/Third_Party/Huawei/iot_link/shell\shell_cmd.c **** *******************************************************************************/
  98:D:/fchai/work/i-cube/I-CUBE-HUAWEI/Middlewares/Third_Party/Huawei/iot_link/shell\shell_cmd.c **** static int   shell_cmd_help(int argc, const char *argv[]){
  55              		.loc 1 98 58 view -0
  56              		.cfi_startproc
  57              		@ args = 0, pretend = 0, frame = 0
ARM GAS  T:\msys\tmp\ccD4SZ3u.s 			page 4


  58              		@ frame_needed = 0, uses_anonymous_args = 0
  99:D:/fchai/work/i-cube/I-CUBE-HUAWEI/Middlewares/Third_Party/Huawei/iot_link/shell\shell_cmd.c ****     int   i ;
  59              		.loc 1 99 5 view .LVU1
 100:D:/fchai/work/i-cube/I-CUBE-HUAWEI/Middlewares/Third_Party/Huawei/iot_link/shell\shell_cmd.c ****     struct shell_item_t *item;
  60              		.loc 1 100 5 view .LVU2
 101:D:/fchai/work/i-cube/I-CUBE-HUAWEI/Middlewares/Third_Party/Huawei/iot_link/shell\shell_cmd.c **** 
 102:D:/fchai/work/i-cube/I-CUBE-HUAWEI/Middlewares/Third_Party/Huawei/iot_link/shell\shell_cmd.c ****     (void) item;
  61              		.loc 1 102 5 view .LVU3
 103:D:/fchai/work/i-cube/I-CUBE-HUAWEI/Middlewares/Third_Party/Huawei/iot_link/shell\shell_cmd.c ****     (void) gs_os_shell_type;
  62              		.loc 1 103 5 view .LVU4
 104:D:/fchai/work/i-cube/I-CUBE-HUAWEI/Middlewares/Third_Party/Huawei/iot_link/shell\shell_cmd.c **** 
 105:D:/fchai/work/i-cube/I-CUBE-HUAWEI/Middlewares/Third_Party/Huawei/iot_link/shell\shell_cmd.c ****     link_printf("%-16s%-5s%-4s%-10s%-20s\n\r",\
  63              		.loc 1 105 5 view .LVU5
  64              		.loc 1 105 5 view .LVU6
  98:D:/fchai/work/i-cube/I-CUBE-HUAWEI/Middlewares/Third_Party/Huawei/iot_link/shell\shell_cmd.c ****     int   i ;
  65              		.loc 1 98 58 is_stmt 0 view .LVU7
  66 0000 2DE9F041 		push	{r4, r5, r6, r7, r8, lr}
  67              	.LCFI0:
  68              		.cfi_def_cfa_offset 24
  69              		.cfi_offset 4, -24
  70              		.cfi_offset 5, -20
  71              		.cfi_offset 6, -16
  72              		.cfi_offset 7, -12
  73              		.cfi_offset 8, -8
  74              		.cfi_offset 14, -4
  75              		.loc 1 105 5 view .LVU8
  76 0004 2E4A     		ldr	r2, .L10
  77 0006 2F4B     		ldr	r3, .L10+4
  78 0008 2F4E     		ldr	r6, .L10+8
  79 000a 3049     		ldr	r1, .L10+12
  80              	.LVL1:
  81              		.loc 1 105 5 view .LVU9
  82 000c 3048     		ldr	r0, .L10+16
  83              	.LVL2:
 106:D:/fchai/work/i-cube/I-CUBE-HUAWEI/Middlewares/Third_Party/Huawei/iot_link/shell\shell_cmd.c ****             "Name","Type","Len","RunAddr","Description");
 107:D:/fchai/work/i-cube/I-CUBE-HUAWEI/Middlewares/Third_Party/Huawei/iot_link/shell\shell_cmd.c ****     for(i = 0;i <gs_shell_cb.s_num;i++){
  84              		.loc 1 107 29 view .LVU10
  85 000e 314D     		ldr	r5, .L10+20
  98:D:/fchai/work/i-cube/I-CUBE-HUAWEI/Middlewares/Third_Party/Huawei/iot_link/shell\shell_cmd.c ****     int   i ;
  86              		.loc 1 98 58 view .LVU11
  87 0010 84B0     		sub	sp, sp, #16
  88              	.LCFI1:
  89              		.cfi_def_cfa_offset 40
 105:D:/fchai/work/i-cube/I-CUBE-HUAWEI/Middlewares/Third_Party/Huawei/iot_link/shell\shell_cmd.c ****             "Name","Type","Len","RunAddr","Description");
  90              		.loc 1 105 5 view .LVU12
  91 0012 CDE90032 		strd	r3, r2, [sp]
  92 0016 304B     		ldr	r3, .L10+24
  93 0018 304A     		ldr	r2, .L10+28
  94 001a FFF7FEFF 		bl	printf
  95              	.LVL3:
 105:D:/fchai/work/i-cube/I-CUBE-HUAWEI/Middlewares/Third_Party/Huawei/iot_link/shell\shell_cmd.c ****             "Name","Type","Len","RunAddr","Description");
  96              		.loc 1 105 5 is_stmt 1 view .LVU13
  97 001e 3368     		ldr	r3, [r6]
  98 0020 9868     		ldr	r0, [r3, #8]
  99 0022 FFF7FEFF 		bl	fflush
 100              	.LVL4:
 105:D:/fchai/work/i-cube/I-CUBE-HUAWEI/Middlewares/Third_Party/Huawei/iot_link/shell\shell_cmd.c ****             "Name","Type","Len","RunAddr","Description");
ARM GAS  T:\msys\tmp\ccD4SZ3u.s 			page 5


 101              		.loc 1 105 5 view .LVU14
 102              		.loc 1 107 5 view .LVU15
 103              		.loc 1 107 15 view .LVU16
 104              		.loc 1 107 5 is_stmt 0 view .LVU17
 105 0026 6B68     		ldr	r3, [r5, #4]
 106 0028 002B     		cmp	r3, #0
 107 002a 21DD     		ble	.L2
 108 002c 2C4F     		ldr	r7, .L10+32
 108:D:/fchai/work/i-cube/I-CUBE-HUAWEI/Middlewares/Third_Party/Huawei/iot_link/shell\shell_cmd.c ****         item = &(gs_shell_cb.s[i]);
 109:D:/fchai/work/i-cube/I-CUBE-HUAWEI/Middlewares/Third_Party/Huawei/iot_link/shell\shell_cmd.c ****         link_printf("%-16s%-5s%-4x%08x  %-30s\n\r",\
 109              		.loc 1 109 9 view .LVU18
 110 002e DFF8B480 		ldr	r8, .L10+36
 107:D:/fchai/work/i-cube/I-CUBE-HUAWEI/Middlewares/Third_Party/Huawei/iot_link/shell\shell_cmd.c ****         item = &(gs_shell_cb.s[i]);
 111              		.loc 1 107 11 view .LVU19
 112 0032 0024     		movs	r4, #0
 113              	.LVL5:
 114              	.L3:
 108:D:/fchai/work/i-cube/I-CUBE-HUAWEI/Middlewares/Third_Party/Huawei/iot_link/shell\shell_cmd.c ****         item = &(gs_shell_cb.s[i]);
 115              		.loc 1 108 9 is_stmt 1 discriminator 3 view .LVU20
 108:D:/fchai/work/i-cube/I-CUBE-HUAWEI/Middlewares/Third_Party/Huawei/iot_link/shell\shell_cmd.c ****         item = &(gs_shell_cb.s[i]);
 116              		.loc 1 108 14 is_stmt 0 discriminator 3 view .LVU21
 117 0034 2B68     		ldr	r3, [r5]
 118 0036 03EB0412 		add	r2, r3, r4, lsl #4
 119              	.LVL6:
 120              		.loc 1 109 9 is_stmt 1 discriminator 3 view .LVU22
 121              		.loc 1 109 9 discriminator 3 view .LVU23
 108:D:/fchai/work/i-cube/I-CUBE-HUAWEI/Middlewares/Third_Party/Huawei/iot_link/shell\shell_cmd.c ****         item = &(gs_shell_cb.s[i]);
 122              		.loc 1 108 14 is_stmt 0 discriminator 3 view .LVU24
 123 003a 2101     		lsls	r1, r4, #4
 124              		.loc 1 109 9 discriminator 3 view .LVU25
 125 003c 9089     		ldrh	r0, [r2, #12]
 126 003e 5958     		ldr	r1, [r3, r1]
 127 0040 5368     		ldr	r3, [r2, #4]
 128 0042 B2F80EE0 		ldrh	lr, [r2, #14]
 129 0046 0193     		str	r3, [sp, #4]
 130 0048 00F00100 		and	r0, r0, #1
 131 004c D2F808C0 		ldr	ip, [r2, #8]
 132 0050 CDF800C0 		str	ip, [sp]
 133 0054 57F82020 		ldr	r2, [r7, r0, lsl #2]
 134              	.LVL7:
 135              		.loc 1 109 9 discriminator 3 view .LVU26
 136 0058 7346     		mov	r3, lr
 137 005a 4046     		mov	r0, r8
 138 005c FFF7FEFF 		bl	printf
 139              	.LVL8:
 140              		.loc 1 109 9 is_stmt 1 discriminator 3 view .LVU27
 141 0060 3368     		ldr	r3, [r6]
 142 0062 9868     		ldr	r0, [r3, #8]
 143 0064 FFF7FEFF 		bl	fflush
 144              	.LVL9:
 145              		.loc 1 109 9 discriminator 3 view .LVU28
 107:D:/fchai/work/i-cube/I-CUBE-HUAWEI/Middlewares/Third_Party/Huawei/iot_link/shell\shell_cmd.c ****         item = &(gs_shell_cb.s[i]);
 146              		.loc 1 107 36 discriminator 3 view .LVU29
 107:D:/fchai/work/i-cube/I-CUBE-HUAWEI/Middlewares/Third_Party/Huawei/iot_link/shell\shell_cmd.c ****         item = &(gs_shell_cb.s[i]);
 147              		.loc 1 107 5 is_stmt 0 discriminator 3 view .LVU30
 148 0068 6B68     		ldr	r3, [r5, #4]
 107:D:/fchai/work/i-cube/I-CUBE-HUAWEI/Middlewares/Third_Party/Huawei/iot_link/shell\shell_cmd.c ****         item = &(gs_shell_cb.s[i]);
ARM GAS  T:\msys\tmp\ccD4SZ3u.s 			page 6


 149              		.loc 1 107 37 discriminator 3 view .LVU31
 150 006a 0134     		adds	r4, r4, #1
 151              	.LVL10:
 107:D:/fchai/work/i-cube/I-CUBE-HUAWEI/Middlewares/Third_Party/Huawei/iot_link/shell\shell_cmd.c ****         item = &(gs_shell_cb.s[i]);
 152              		.loc 1 107 15 is_stmt 1 discriminator 3 view .LVU32
 107:D:/fchai/work/i-cube/I-CUBE-HUAWEI/Middlewares/Third_Party/Huawei/iot_link/shell\shell_cmd.c ****         item = &(gs_shell_cb.s[i]);
 153              		.loc 1 107 5 is_stmt 0 discriminator 3 view .LVU33
 154 006c A342     		cmp	r3, r4
 155 006e E1DC     		bgt	.L3
 156              	.LVL11:
 157              	.L2:
 110:D:/fchai/work/i-cube/I-CUBE-HUAWEI/Middlewares/Third_Party/Huawei/iot_link/shell\shell_cmd.c ****                 item->name,gs_os_shell_type[item->type%EN_OSSHELL_LAST],\
 111:D:/fchai/work/i-cube/I-CUBE-HUAWEI/Middlewares/Third_Party/Huawei/iot_link/shell\shell_cmd.c ****                 item->len,(unsigned int)item->addr,item->help);
 112:D:/fchai/work/i-cube/I-CUBE-HUAWEI/Middlewares/Third_Party/Huawei/iot_link/shell\shell_cmd.c ****     }
 113:D:/fchai/work/i-cube/I-CUBE-HUAWEI/Middlewares/Third_Party/Huawei/iot_link/shell\shell_cmd.c ****     for(i = 0;i <gs_shell_cb.d_num;i++){
 158              		.loc 1 113 15 is_stmt 1 view .LVU34
 159              		.loc 1 113 5 is_stmt 0 view .LVU35
 160 0070 EB68     		ldr	r3, [r5, #12]
 161 0072 002B     		cmp	r3, #0
 162 0074 1FDD     		ble	.L4
 163 0076 1A4F     		ldr	r7, .L10+32
 114:D:/fchai/work/i-cube/I-CUBE-HUAWEI/Middlewares/Third_Party/Huawei/iot_link/shell\shell_cmd.c ****         item = &(gs_shell_cb.d[i]);
 115:D:/fchai/work/i-cube/I-CUBE-HUAWEI/Middlewares/Third_Party/Huawei/iot_link/shell\shell_cmd.c ****         link_printf("%-2x  %-16s%-5s%-4x%08x  %-30s\n\r",\
 164              		.loc 1 115 9 view .LVU36
 165 0078 DFF86C80 		ldr	r8, .L10+40
 113:D:/fchai/work/i-cube/I-CUBE-HUAWEI/Middlewares/Third_Party/Huawei/iot_link/shell\shell_cmd.c ****         item = &(gs_shell_cb.d[i]);
 166              		.loc 1 113 11 view .LVU37
 167 007c 0024     		movs	r4, #0
 168              	.LVL12:
 169              	.L5:
 114:D:/fchai/work/i-cube/I-CUBE-HUAWEI/Middlewares/Third_Party/Huawei/iot_link/shell\shell_cmd.c ****         item = &(gs_shell_cb.d[i]);
 170              		.loc 1 114 9 is_stmt 1 discriminator 3 view .LVU38
 114:D:/fchai/work/i-cube/I-CUBE-HUAWEI/Middlewares/Third_Party/Huawei/iot_link/shell\shell_cmd.c ****         item = &(gs_shell_cb.d[i]);
 171              		.loc 1 114 14 is_stmt 0 discriminator 3 view .LVU39
 172 007e AA68     		ldr	r2, [r5, #8]
 173 0080 02EB0413 		add	r3, r2, r4, lsl #4
 174              	.LVL13:
 175              		.loc 1 115 9 is_stmt 1 discriminator 3 view .LVU40
 176              		.loc 1 115 9 discriminator 3 view .LVU41
 114:D:/fchai/work/i-cube/I-CUBE-HUAWEI/Middlewares/Third_Party/Huawei/iot_link/shell\shell_cmd.c ****         item = &(gs_shell_cb.d[i]);
 177              		.loc 1 114 14 is_stmt 0 discriminator 3 view .LVU42
 178 0084 2101     		lsls	r1, r4, #4
 179              		.loc 1 115 9 discriminator 3 view .LVU43
 180 0086 5868     		ldr	r0, [r3, #4]
 181 0088 5258     		ldr	r2, [r2, r1]
 182 008a 9989     		ldrh	r1, [r3, #12]
 183 008c 0290     		str	r0, [sp, #8]
 184 008e 9868     		ldr	r0, [r3, #8]
 185 0090 0190     		str	r0, [sp, #4]
 186 0092 01F00101 		and	r1, r1, #1
 187 0096 D889     		ldrh	r0, [r3, #14]
 188 0098 0090     		str	r0, [sp]
 189 009a 57F82130 		ldr	r3, [r7, r1, lsl #2]
 190              	.LVL14:
 191              		.loc 1 115 9 discriminator 3 view .LVU44
 192 009e 4046     		mov	r0, r8
 193 00a0 2146     		mov	r1, r4
ARM GAS  T:\msys\tmp\ccD4SZ3u.s 			page 7


 194 00a2 FFF7FEFF 		bl	printf
 195              	.LVL15:
 196              		.loc 1 115 9 is_stmt 1 discriminator 3 view .LVU45
 197 00a6 3368     		ldr	r3, [r6]
 198 00a8 9868     		ldr	r0, [r3, #8]
 199 00aa FFF7FEFF 		bl	fflush
 200              	.LVL16:
 201              		.loc 1 115 9 discriminator 3 view .LVU46
 113:D:/fchai/work/i-cube/I-CUBE-HUAWEI/Middlewares/Third_Party/Huawei/iot_link/shell\shell_cmd.c ****         item = &(gs_shell_cb.d[i]);
 202              		.loc 1 113 36 discriminator 3 view .LVU47
 113:D:/fchai/work/i-cube/I-CUBE-HUAWEI/Middlewares/Third_Party/Huawei/iot_link/shell\shell_cmd.c ****         item = &(gs_shell_cb.d[i]);
 203              		.loc 1 113 5 is_stmt 0 discriminator 3 view .LVU48
 204 00ae EB68     		ldr	r3, [r5, #12]
 113:D:/fchai/work/i-cube/I-CUBE-HUAWEI/Middlewares/Third_Party/Huawei/iot_link/shell\shell_cmd.c ****         item = &(gs_shell_cb.d[i]);
 205              		.loc 1 113 37 discriminator 3 view .LVU49
 206 00b0 0134     		adds	r4, r4, #1
 207              	.LVL17:
 113:D:/fchai/work/i-cube/I-CUBE-HUAWEI/Middlewares/Third_Party/Huawei/iot_link/shell\shell_cmd.c ****         item = &(gs_shell_cb.d[i]);
 208              		.loc 1 113 15 is_stmt 1 discriminator 3 view .LVU50
 113:D:/fchai/work/i-cube/I-CUBE-HUAWEI/Middlewares/Third_Party/Huawei/iot_link/shell\shell_cmd.c ****         item = &(gs_shell_cb.d[i]);
 209              		.loc 1 113 5 is_stmt 0 discriminator 3 view .LVU51
 210 00b2 A342     		cmp	r3, r4
 211 00b4 E3DC     		bgt	.L5
 212              	.LVL18:
 213              	.L4:
 116:D:/fchai/work/i-cube/I-CUBE-HUAWEI/Middlewares/Third_Party/Huawei/iot_link/shell\shell_cmd.c ****                 i,item->name,gs_os_shell_type[item->type%EN_OSSHELL_LAST],\
 117:D:/fchai/work/i-cube/I-CUBE-HUAWEI/Middlewares/Third_Party/Huawei/iot_link/shell\shell_cmd.c ****                 item->len,(unsigned int)item->addr,item->help);
 118:D:/fchai/work/i-cube/I-CUBE-HUAWEI/Middlewares/Third_Party/Huawei/iot_link/shell\shell_cmd.c ****     }
 119:D:/fchai/work/i-cube/I-CUBE-HUAWEI/Middlewares/Third_Party/Huawei/iot_link/shell\shell_cmd.c ****     return 0;
 214              		.loc 1 119 5 is_stmt 1 view .LVU52
 120:D:/fchai/work/i-cube/I-CUBE-HUAWEI/Middlewares/Third_Party/Huawei/iot_link/shell\shell_cmd.c **** }
 215              		.loc 1 120 1 is_stmt 0 view .LVU53
 216 00b6 0020     		movs	r0, #0
 217 00b8 04B0     		add	sp, sp, #16
 218              	.LCFI2:
 219              		.cfi_def_cfa_offset 24
 220              		@ sp needed
 221 00ba BDE8F081 		pop	{r4, r5, r6, r7, r8, pc}
 222              	.L11:
 223 00be 00BF     		.align	2
 224              	.L10:
 225 00c0 30000000 		.word	.LC4
 226 00c4 3C000000 		.word	.LC5
 227 00c8 00000000 		.word	_impure_ptr
 228 00cc 0C000000 		.word	.LC2
 229 00d0 14000000 		.word	.LC3
 230 00d4 00000000 		.word	.LANCHOR0
 231 00d8 00000000 		.word	.LC0
 232 00dc 04000000 		.word	.LC1
 233 00e0 00000000 		.word	.LANCHOR1
 234 00e4 44000000 		.word	.LC6
 235 00e8 60000000 		.word	.LC7
 236              		.cfi_endproc
 237              	.LFE3:
 239              		.section	.rodata.os_shell_version.str1.4,"aMS",%progbits,1
 240              		.align	2
 241              	.LC8:
ARM GAS  T:\msys\tmp\ccD4SZ3u.s 			page 8


 242 0000 6F735F73 		.ascii	"os_shell_version:%d.%d\012\015\000"
 242      68656C6C 
 242      5F766572 
 242      73696F6E 
 242      3A25642E 
 243              		.section	.text.os_shell_version,"ax",%progbits
 244              		.align	1
 245              		.p2align 2,,3
 246              		.syntax unified
 247              		.thumb
 248              		.thumb_func
 249              		.fpu fpv4-sp-d16
 251              	os_shell_version:
 252              	.LVL19:
 253              	.LFB8:
 121:D:/fchai/work/i-cube/I-CUBE-HUAWEI/Middlewares/Third_Party/Huawei/iot_link/shell\shell_cmd.c **** 
 122:D:/fchai/work/i-cube/I-CUBE-HUAWEI/Middlewares/Third_Party/Huawei/iot_link/shell\shell_cmd.c **** /*******************************************************************************
 123:D:/fchai/work/i-cube/I-CUBE-HUAWEI/Middlewares/Third_Party/Huawei/iot_link/shell\shell_cmd.c **** function     :used to find the command
 124:D:/fchai/work/i-cube/I-CUBE-HUAWEI/Middlewares/Third_Party/Huawei/iot_link/shell\shell_cmd.c **** parameters   :
 125:D:/fchai/work/i-cube/I-CUBE-HUAWEI/Middlewares/Third_Party/Huawei/iot_link/shell\shell_cmd.c **** instruction  :
 126:D:/fchai/work/i-cube/I-CUBE-HUAWEI/Middlewares/Third_Party/Huawei/iot_link/shell\shell_cmd.c **** *******************************************************************************/
 127:D:/fchai/work/i-cube/I-CUBE-HUAWEI/Middlewares/Third_Party/Huawei/iot_link/shell\shell_cmd.c **** static struct shell_item_t *shell_cmd_match(const char *name)
 128:D:/fchai/work/i-cube/I-CUBE-HUAWEI/Middlewares/Third_Party/Huawei/iot_link/shell\shell_cmd.c **** {
 129:D:/fchai/work/i-cube/I-CUBE-HUAWEI/Middlewares/Third_Party/Huawei/iot_link/shell\shell_cmd.c ****     struct shell_item_t *item = NULL;
 130:D:/fchai/work/i-cube/I-CUBE-HUAWEI/Middlewares/Third_Party/Huawei/iot_link/shell\shell_cmd.c ****     struct shell_item_t  *ret = NULL;
 131:D:/fchai/work/i-cube/I-CUBE-HUAWEI/Middlewares/Third_Party/Huawei/iot_link/shell\shell_cmd.c ****     int   i;
 132:D:/fchai/work/i-cube/I-CUBE-HUAWEI/Middlewares/Third_Party/Huawei/iot_link/shell\shell_cmd.c ****     //search the static tab first,if not found then find the dynamic tab
 133:D:/fchai/work/i-cube/I-CUBE-HUAWEI/Middlewares/Third_Party/Huawei/iot_link/shell\shell_cmd.c ****     ret = NULL;
 134:D:/fchai/work/i-cube/I-CUBE-HUAWEI/Middlewares/Third_Party/Huawei/iot_link/shell\shell_cmd.c ****     for(i = 0;i <gs_shell_cb.s_num;i++){
 135:D:/fchai/work/i-cube/I-CUBE-HUAWEI/Middlewares/Third_Party/Huawei/iot_link/shell\shell_cmd.c ****         item = &(gs_shell_cb.s[i]);
 136:D:/fchai/work/i-cube/I-CUBE-HUAWEI/Middlewares/Third_Party/Huawei/iot_link/shell\shell_cmd.c ****         if(0 == strcmp(name,item->name)){
 137:D:/fchai/work/i-cube/I-CUBE-HUAWEI/Middlewares/Third_Party/Huawei/iot_link/shell\shell_cmd.c ****             ret = item;
 138:D:/fchai/work/i-cube/I-CUBE-HUAWEI/Middlewares/Third_Party/Huawei/iot_link/shell\shell_cmd.c ****             break;
 139:D:/fchai/work/i-cube/I-CUBE-HUAWEI/Middlewares/Third_Party/Huawei/iot_link/shell\shell_cmd.c ****         }
 140:D:/fchai/work/i-cube/I-CUBE-HUAWEI/Middlewares/Third_Party/Huawei/iot_link/shell\shell_cmd.c ****     }
 141:D:/fchai/work/i-cube/I-CUBE-HUAWEI/Middlewares/Third_Party/Huawei/iot_link/shell\shell_cmd.c ****     if(NULL == ret){
 142:D:/fchai/work/i-cube/I-CUBE-HUAWEI/Middlewares/Third_Party/Huawei/iot_link/shell\shell_cmd.c ****         for(i = 0;i <gs_shell_cb.d_num;i++){
 143:D:/fchai/work/i-cube/I-CUBE-HUAWEI/Middlewares/Third_Party/Huawei/iot_link/shell\shell_cmd.c ****             item = &(gs_shell_cb.d[i]);
 144:D:/fchai/work/i-cube/I-CUBE-HUAWEI/Middlewares/Third_Party/Huawei/iot_link/shell\shell_cmd.c ****             if(0 == strcmp(name,item->name)){
 145:D:/fchai/work/i-cube/I-CUBE-HUAWEI/Middlewares/Third_Party/Huawei/iot_link/shell\shell_cmd.c ****                 ret = item;
 146:D:/fchai/work/i-cube/I-CUBE-HUAWEI/Middlewares/Third_Party/Huawei/iot_link/shell\shell_cmd.c ****                 break;
 147:D:/fchai/work/i-cube/I-CUBE-HUAWEI/Middlewares/Third_Party/Huawei/iot_link/shell\shell_cmd.c ****             }
 148:D:/fchai/work/i-cube/I-CUBE-HUAWEI/Middlewares/Third_Party/Huawei/iot_link/shell\shell_cmd.c ****         }
 149:D:/fchai/work/i-cube/I-CUBE-HUAWEI/Middlewares/Third_Party/Huawei/iot_link/shell\shell_cmd.c ****     }
 150:D:/fchai/work/i-cube/I-CUBE-HUAWEI/Middlewares/Third_Party/Huawei/iot_link/shell\shell_cmd.c ****     return ret;
 151:D:/fchai/work/i-cube/I-CUBE-HUAWEI/Middlewares/Third_Party/Huawei/iot_link/shell\shell_cmd.c **** }
 152:D:/fchai/work/i-cube/I-CUBE-HUAWEI/Middlewares/Third_Party/Huawei/iot_link/shell\shell_cmd.c **** 
 153:D:/fchai/work/i-cube/I-CUBE-HUAWEI/Middlewares/Third_Party/Huawei/iot_link/shell\shell_cmd.c **** /*******************************************************************************
 154:D:/fchai/work/i-cube/I-CUBE-HUAWEI/Middlewares/Third_Party/Huawei/iot_link/shell\shell_cmd.c **** function     :used to find the most like command
 155:D:/fchai/work/i-cube/I-CUBE-HUAWEI/Middlewares/Third_Party/Huawei/iot_link/shell\shell_cmd.c **** parameters   :
 156:D:/fchai/work/i-cube/I-CUBE-HUAWEI/Middlewares/Third_Party/Huawei/iot_link/shell\shell_cmd.c **** instruction  :
 157:D:/fchai/work/i-cube/I-CUBE-HUAWEI/Middlewares/Third_Party/Huawei/iot_link/shell\shell_cmd.c **** *******************************************************************************/
 158:D:/fchai/work/i-cube/I-CUBE-HUAWEI/Middlewares/Third_Party/Huawei/iot_link/shell\shell_cmd.c **** const struct shell_tab_matches *shell_cmd_index(const char *index){
 159:D:/fchai/work/i-cube/I-CUBE-HUAWEI/Middlewares/Third_Party/Huawei/iot_link/shell\shell_cmd.c ****     struct shell_item_t *item;
 160:D:/fchai/work/i-cube/I-CUBE-HUAWEI/Middlewares/Third_Party/Huawei/iot_link/shell\shell_cmd.c ****     int   i;
 161:D:/fchai/work/i-cube/I-CUBE-HUAWEI/Middlewares/Third_Party/Huawei/iot_link/shell\shell_cmd.c ****     //search the static tab first,if not found then find the dynamic tab
 162:D:/fchai/work/i-cube/I-CUBE-HUAWEI/Middlewares/Third_Party/Huawei/iot_link/shell\shell_cmd.c ****     tab_matches.len = 0;
ARM GAS  T:\msys\tmp\ccD4SZ3u.s 			page 9


 163:D:/fchai/work/i-cube/I-CUBE-HUAWEI/Middlewares/Third_Party/Huawei/iot_link/shell\shell_cmd.c ****     for(i = 0;i <gs_shell_cb.s_num && tab_matches.len < MAX_TAB_MATCHES; i++){
 164:D:/fchai/work/i-cube/I-CUBE-HUAWEI/Middlewares/Third_Party/Huawei/iot_link/shell\shell_cmd.c ****         item = &(gs_shell_cb.s[i]);
 165:D:/fchai/work/i-cube/I-CUBE-HUAWEI/Middlewares/Third_Party/Huawei/iot_link/shell\shell_cmd.c ****         if (strncmp(item->name, index, strlen(index)) == 0) {
 166:D:/fchai/work/i-cube/I-CUBE-HUAWEI/Middlewares/Third_Party/Huawei/iot_link/shell\shell_cmd.c ****             tab_matches.matches[tab_matches.len++] = item->name;
 167:D:/fchai/work/i-cube/I-CUBE-HUAWEI/Middlewares/Third_Party/Huawei/iot_link/shell\shell_cmd.c ****         }
 168:D:/fchai/work/i-cube/I-CUBE-HUAWEI/Middlewares/Third_Party/Huawei/iot_link/shell\shell_cmd.c ****     }
 169:D:/fchai/work/i-cube/I-CUBE-HUAWEI/Middlewares/Third_Party/Huawei/iot_link/shell\shell_cmd.c ****     
 170:D:/fchai/work/i-cube/I-CUBE-HUAWEI/Middlewares/Third_Party/Huawei/iot_link/shell\shell_cmd.c ****     for(i = 0;i <gs_shell_cb.d_num && tab_matches.len < MAX_TAB_MATCHES; i++){
 171:D:/fchai/work/i-cube/I-CUBE-HUAWEI/Middlewares/Third_Party/Huawei/iot_link/shell\shell_cmd.c ****         item = &(gs_shell_cb.d[i]);
 172:D:/fchai/work/i-cube/I-CUBE-HUAWEI/Middlewares/Third_Party/Huawei/iot_link/shell\shell_cmd.c ****         if(strncmp(item->name, index, strlen(index)) == 0){
 173:D:/fchai/work/i-cube/I-CUBE-HUAWEI/Middlewares/Third_Party/Huawei/iot_link/shell\shell_cmd.c ****             tab_matches.matches[tab_matches.len++] = item->name;
 174:D:/fchai/work/i-cube/I-CUBE-HUAWEI/Middlewares/Third_Party/Huawei/iot_link/shell\shell_cmd.c ****         }
 175:D:/fchai/work/i-cube/I-CUBE-HUAWEI/Middlewares/Third_Party/Huawei/iot_link/shell\shell_cmd.c ****     }
 176:D:/fchai/work/i-cube/I-CUBE-HUAWEI/Middlewares/Third_Party/Huawei/iot_link/shell\shell_cmd.c ****     
 177:D:/fchai/work/i-cube/I-CUBE-HUAWEI/Middlewares/Third_Party/Huawei/iot_link/shell\shell_cmd.c ****     return &tab_matches;
 178:D:/fchai/work/i-cube/I-CUBE-HUAWEI/Middlewares/Third_Party/Huawei/iot_link/shell\shell_cmd.c **** }
 179:D:/fchai/work/i-cube/I-CUBE-HUAWEI/Middlewares/Third_Party/Huawei/iot_link/shell\shell_cmd.c **** 
 180:D:/fchai/work/i-cube/I-CUBE-HUAWEI/Middlewares/Third_Party/Huawei/iot_link/shell\shell_cmd.c **** /*******************************************************************************
 181:D:/fchai/work/i-cube/I-CUBE-HUAWEI/Middlewares/Third_Party/Huawei/iot_link/shell\shell_cmd.c **** function     :used to execute the command specified by the string
 182:D:/fchai/work/i-cube/I-CUBE-HUAWEI/Middlewares/Third_Party/Huawei/iot_link/shell\shell_cmd.c **** parameters   :
 183:D:/fchai/work/i-cube/I-CUBE-HUAWEI/Middlewares/Third_Party/Huawei/iot_link/shell\shell_cmd.c **** instruction  :we will split the string with the blank space, and the first one
 184:D:/fchai/work/i-cube/I-CUBE-HUAWEI/Middlewares/Third_Party/Huawei/iot_link/shell\shell_cmd.c ****              will be used as the shell name to search the shell.If a shell cmd
 185:D:/fchai/work/i-cube/I-CUBE-HUAWEI/Middlewares/Third_Party/Huawei/iot_link/shell\shell_cmd.c ****              found then will execute the command,and then all the args will be
 186:D:/fchai/work/i-cube/I-CUBE-HUAWEI/Middlewares/Third_Party/Huawei/iot_link/shell\shell_cmd.c ****              passed to the function;if a data shell found, then will only do the
 187:D:/fchai/work/i-cube/I-CUBE-HUAWEI/Middlewares/Third_Party/Huawei/iot_link/shell\shell_cmd.c ****              "get" or set "action";attention that the first arg is the shell name
 188:D:/fchai/work/i-cube/I-CUBE-HUAWEI/Middlewares/Third_Party/Huawei/iot_link/shell\shell_cmd.c ****              itself!
 189:D:/fchai/work/i-cube/I-CUBE-HUAWEI/Middlewares/Third_Party/Huawei/iot_link/shell\shell_cmd.c **** *******************************************************************************/
 190:D:/fchai/work/i-cube/I-CUBE-HUAWEI/Middlewares/Third_Party/Huawei/iot_link/shell\shell_cmd.c **** int   shell_cmd_execute(char *param){
 191:D:/fchai/work/i-cube/I-CUBE-HUAWEI/Middlewares/Third_Party/Huawei/iot_link/shell\shell_cmd.c ****     int   ret= -1;
 192:D:/fchai/work/i-cube/I-CUBE-HUAWEI/Middlewares/Third_Party/Huawei/iot_link/shell\shell_cmd.c ****     int    argc = cn_shell_args;           //split the params to argc and argv format
 193:D:/fchai/work/i-cube/I-CUBE-HUAWEI/Middlewares/Third_Party/Huawei/iot_link/shell\shell_cmd.c ****     unsigned int     value;
 194:D:/fchai/work/i-cube/I-CUBE-HUAWEI/Middlewares/Third_Party/Huawei/iot_link/shell\shell_cmd.c ****     unsigned char   *bytes;
 195:D:/fchai/work/i-cube/I-CUBE-HUAWEI/Middlewares/Third_Party/Huawei/iot_link/shell\shell_cmd.c ****     int     i;
 196:D:/fchai/work/i-cube/I-CUBE-HUAWEI/Middlewares/Third_Party/Huawei/iot_link/shell\shell_cmd.c ****     const  char *argv[cn_shell_args];
 197:D:/fchai/work/i-cube/I-CUBE-HUAWEI/Middlewares/Third_Party/Huawei/iot_link/shell\shell_cmd.c ****     struct shell_item_t *item;            //match the command item
 198:D:/fchai/work/i-cube/I-CUBE-HUAWEI/Middlewares/Third_Party/Huawei/iot_link/shell\shell_cmd.c ****     fn_shell_cmdentry shell_cmd_entry;    //command function entry
 199:D:/fchai/work/i-cube/I-CUBE-HUAWEI/Middlewares/Third_Party/Huawei/iot_link/shell\shell_cmd.c **** 
 200:D:/fchai/work/i-cube/I-CUBE-HUAWEI/Middlewares/Third_Party/Huawei/iot_link/shell\shell_cmd.c ****     (void)bytes;
 201:D:/fchai/work/i-cube/I-CUBE-HUAWEI/Middlewares/Third_Party/Huawei/iot_link/shell\shell_cmd.c **** 
 202:D:/fchai/work/i-cube/I-CUBE-HUAWEI/Middlewares/Third_Party/Huawei/iot_link/shell\shell_cmd.c ****     string_to_arg(&argc,argv,param);      //format the parameters
 203:D:/fchai/work/i-cube/I-CUBE-HUAWEI/Middlewares/Third_Party/Huawei/iot_link/shell\shell_cmd.c ****     if(argc == 0){
 204:D:/fchai/work/i-cube/I-CUBE-HUAWEI/Middlewares/Third_Party/Huawei/iot_link/shell\shell_cmd.c ****         shell_cmd_help(0,NULL);               //if no args we show system help
 205:D:/fchai/work/i-cube/I-CUBE-HUAWEI/Middlewares/Third_Party/Huawei/iot_link/shell\shell_cmd.c ****         ret = 0;
 206:D:/fchai/work/i-cube/I-CUBE-HUAWEI/Middlewares/Third_Party/Huawei/iot_link/shell\shell_cmd.c ****     }
 207:D:/fchai/work/i-cube/I-CUBE-HUAWEI/Middlewares/Third_Party/Huawei/iot_link/shell\shell_cmd.c ****     else{
 208:D:/fchai/work/i-cube/I-CUBE-HUAWEI/Middlewares/Third_Party/Huawei/iot_link/shell\shell_cmd.c ****         item =shell_cmd_match(argv[0]);//find the item
 209:D:/fchai/work/i-cube/I-CUBE-HUAWEI/Middlewares/Third_Party/Huawei/iot_link/shell\shell_cmd.c ****         if(NULL == item){
 210:D:/fchai/work/i-cube/I-CUBE-HUAWEI/Middlewares/Third_Party/Huawei/iot_link/shell\shell_cmd.c ****             link_printf("SHELL COMMAND NOT FIND:%s\n\r",argv[0]);
 211:D:/fchai/work/i-cube/I-CUBE-HUAWEI/Middlewares/Third_Party/Huawei/iot_link/shell\shell_cmd.c ****             ret = -1;
 212:D:/fchai/work/i-cube/I-CUBE-HUAWEI/Middlewares/Third_Party/Huawei/iot_link/shell\shell_cmd.c ****         }
 213:D:/fchai/work/i-cube/I-CUBE-HUAWEI/Middlewares/Third_Party/Huawei/iot_link/shell\shell_cmd.c ****         else{
 214:D:/fchai/work/i-cube/I-CUBE-HUAWEI/Middlewares/Third_Party/Huawei/iot_link/shell\shell_cmd.c ****             if(item->type == EN_OSSHELL_CMD){
 215:D:/fchai/work/i-cube/I-CUBE-HUAWEI/Middlewares/Third_Party/Huawei/iot_link/shell\shell_cmd.c ****                 shell_cmd_entry = (fn_shell_cmdentry)item->addr;
 216:D:/fchai/work/i-cube/I-CUBE-HUAWEI/Middlewares/Third_Party/Huawei/iot_link/shell\shell_cmd.c ****                 shell_cmd_entry(argc,argv);
 217:D:/fchai/work/i-cube/I-CUBE-HUAWEI/Middlewares/Third_Party/Huawei/iot_link/shell\shell_cmd.c ****             }
 218:D:/fchai/work/i-cube/I-CUBE-HUAWEI/Middlewares/Third_Party/Huawei/iot_link/shell\shell_cmd.c ****             else{
 219:D:/fchai/work/i-cube/I-CUBE-HUAWEI/Middlewares/Third_Party/Huawei/iot_link/shell\shell_cmd.c ****                 if((argc == 3)&&(0 == strcmp(argv[1],"set"))){
ARM GAS  T:\msys\tmp\ccD4SZ3u.s 			page 10


 220:D:/fchai/work/i-cube/I-CUBE-HUAWEI/Middlewares/Third_Party/Huawei/iot_link/shell\shell_cmd.c ****                     //deal it simple and easy here
 221:D:/fchai/work/i-cube/I-CUBE-HUAWEI/Middlewares/Third_Party/Huawei/iot_link/shell\shell_cmd.c ****                     value = strtol(argv[2],NULL,0);
 222:D:/fchai/work/i-cube/I-CUBE-HUAWEI/Middlewares/Third_Party/Huawei/iot_link/shell\shell_cmd.c ****                     (void) memcpy(item->addr,&value,item->len);
 223:D:/fchai/work/i-cube/I-CUBE-HUAWEI/Middlewares/Third_Party/Huawei/iot_link/shell\shell_cmd.c ****                 }
 224:D:/fchai/work/i-cube/I-CUBE-HUAWEI/Middlewares/Third_Party/Huawei/iot_link/shell\shell_cmd.c ****                 else{
 225:D:/fchai/work/i-cube/I-CUBE-HUAWEI/Middlewares/Third_Party/Huawei/iot_link/shell\shell_cmd.c ****                     bytes = item->addr;
 226:D:/fchai/work/i-cube/I-CUBE-HUAWEI/Middlewares/Third_Party/Huawei/iot_link/shell\shell_cmd.c ****                     link_printf("(HEX):ADDR:0X%08X:",(unsigned int)bytes);
 227:D:/fchai/work/i-cube/I-CUBE-HUAWEI/Middlewares/Third_Party/Huawei/iot_link/shell\shell_cmd.c ****                     for(i = 0;i<item->len;i++){
 228:D:/fchai/work/i-cube/I-CUBE-HUAWEI/Middlewares/Third_Party/Huawei/iot_link/shell\shell_cmd.c ****                         link_printf("%02x ",*bytes++);
 229:D:/fchai/work/i-cube/I-CUBE-HUAWEI/Middlewares/Third_Party/Huawei/iot_link/shell\shell_cmd.c ****                     }
 230:D:/fchai/work/i-cube/I-CUBE-HUAWEI/Middlewares/Third_Party/Huawei/iot_link/shell\shell_cmd.c ****                 }
 231:D:/fchai/work/i-cube/I-CUBE-HUAWEI/Middlewares/Third_Party/Huawei/iot_link/shell\shell_cmd.c ****             }
 232:D:/fchai/work/i-cube/I-CUBE-HUAWEI/Middlewares/Third_Party/Huawei/iot_link/shell\shell_cmd.c ****         }
 233:D:/fchai/work/i-cube/I-CUBE-HUAWEI/Middlewares/Third_Party/Huawei/iot_link/shell\shell_cmd.c ****     }
 234:D:/fchai/work/i-cube/I-CUBE-HUAWEI/Middlewares/Third_Party/Huawei/iot_link/shell\shell_cmd.c ****     return ret;
 235:D:/fchai/work/i-cube/I-CUBE-HUAWEI/Middlewares/Third_Party/Huawei/iot_link/shell\shell_cmd.c **** }
 236:D:/fchai/work/i-cube/I-CUBE-HUAWEI/Middlewares/Third_Party/Huawei/iot_link/shell\shell_cmd.c **** 
 237:D:/fchai/work/i-cube/I-CUBE-HUAWEI/Middlewares/Third_Party/Huawei/iot_link/shell\shell_cmd.c **** /*******************************************************************************
 238:D:/fchai/work/i-cube/I-CUBE-HUAWEI/Middlewares/Third_Party/Huawei/iot_link/shell\shell_cmd.c **** function     :used to load the command table
 239:D:/fchai/work/i-cube/I-CUBE-HUAWEI/Middlewares/Third_Party/Huawei/iot_link/shell\shell_cmd.c **** parameters   :
 240:D:/fchai/work/i-cube/I-CUBE-HUAWEI/Middlewares/Third_Party/Huawei/iot_link/shell\shell_cmd.c **** instruction  :different compiler has different method to ge the section("oshell")
 241:D:/fchai/work/i-cube/I-CUBE-HUAWEI/Middlewares/Third_Party/Huawei/iot_link/shell\shell_cmd.c ****               so take care of your compiler
 242:D:/fchai/work/i-cube/I-CUBE-HUAWEI/Middlewares/Third_Party/Huawei/iot_link/shell\shell_cmd.c **** *******************************************************************************/
 243:D:/fchai/work/i-cube/I-CUBE-HUAWEI/Middlewares/Third_Party/Huawei/iot_link/shell\shell_cmd.c **** #ifdef __CC_ARM /* ARM C Compiler ,like keil,options for linker:--keep *.o(oshell)*/
 244:D:/fchai/work/i-cube/I-CUBE-HUAWEI/Middlewares/Third_Party/Huawei/iot_link/shell\shell_cmd.c **** extern unsigned int oshell$$Base;
 245:D:/fchai/work/i-cube/I-CUBE-HUAWEI/Middlewares/Third_Party/Huawei/iot_link/shell\shell_cmd.c **** extern unsigned int oshell$$Limit;
 246:D:/fchai/work/i-cube/I-CUBE-HUAWEI/Middlewares/Third_Party/Huawei/iot_link/shell\shell_cmd.c **** //#pragma section("oshell", read) 
 247:D:/fchai/work/i-cube/I-CUBE-HUAWEI/Middlewares/Third_Party/Huawei/iot_link/shell\shell_cmd.c **** #elif defined(__GNUC__)
 248:D:/fchai/work/i-cube/I-CUBE-HUAWEI/Middlewares/Third_Party/Huawei/iot_link/shell\shell_cmd.c ****     extern unsigned int __oshell_start;
 249:D:/fchai/work/i-cube/I-CUBE-HUAWEI/Middlewares/Third_Party/Huawei/iot_link/shell\shell_cmd.c ****     extern unsigned int __oshell_end;
 250:D:/fchai/work/i-cube/I-CUBE-HUAWEI/Middlewares/Third_Party/Huawei/iot_link/shell\shell_cmd.c **** #else
 251:D:/fchai/work/i-cube/I-CUBE-HUAWEI/Middlewares/Third_Party/Huawei/iot_link/shell\shell_cmd.c ****     #error("unknown compiler here");
 252:D:/fchai/work/i-cube/I-CUBE-HUAWEI/Middlewares/Third_Party/Huawei/iot_link/shell\shell_cmd.c **** #endif        
 253:D:/fchai/work/i-cube/I-CUBE-HUAWEI/Middlewares/Third_Party/Huawei/iot_link/shell\shell_cmd.c **** 
 254:D:/fchai/work/i-cube/I-CUBE-HUAWEI/Middlewares/Third_Party/Huawei/iot_link/shell\shell_cmd.c **** 
 255:D:/fchai/work/i-cube/I-CUBE-HUAWEI/Middlewares/Third_Party/Huawei/iot_link/shell\shell_cmd.c **** int   shell_cmd_init(void){
 256:D:/fchai/work/i-cube/I-CUBE-HUAWEI/Middlewares/Third_Party/Huawei/iot_link/shell\shell_cmd.c ****     void  *cmd_start = NULL;
 257:D:/fchai/work/i-cube/I-CUBE-HUAWEI/Middlewares/Third_Party/Huawei/iot_link/shell\shell_cmd.c ****     unsigned int len = 0;
 258:D:/fchai/work/i-cube/I-CUBE-HUAWEI/Middlewares/Third_Party/Huawei/iot_link/shell\shell_cmd.c **** #if defined (__CC_ARM)    //you could add other compiler like this
 259:D:/fchai/work/i-cube/I-CUBE-HUAWEI/Middlewares/Third_Party/Huawei/iot_link/shell\shell_cmd.c ****     len = (unsigned int)&oshell$$Limit-(unsigned int)&oshell$$Base;
 260:D:/fchai/work/i-cube/I-CUBE-HUAWEI/Middlewares/Third_Party/Huawei/iot_link/shell\shell_cmd.c ****     cmd_start = &oshell$$Base;
 261:D:/fchai/work/i-cube/I-CUBE-HUAWEI/Middlewares/Third_Party/Huawei/iot_link/shell\shell_cmd.c **** #elif defined(__GNUC__)
 262:D:/fchai/work/i-cube/I-CUBE-HUAWEI/Middlewares/Third_Party/Huawei/iot_link/shell\shell_cmd.c ****     cmd_start = &__oshell_start;
 263:D:/fchai/work/i-cube/I-CUBE-HUAWEI/Middlewares/Third_Party/Huawei/iot_link/shell\shell_cmd.c ****     len = (unsigned int )&__oshell_end - (unsigned int)&__oshell_start;
 264:D:/fchai/work/i-cube/I-CUBE-HUAWEI/Middlewares/Third_Party/Huawei/iot_link/shell\shell_cmd.c **** #else 
 265:D:/fchai/work/i-cube/I-CUBE-HUAWEI/Middlewares/Third_Party/Huawei/iot_link/shell\shell_cmd.c ****     #error("unknown compiler here");
 266:D:/fchai/work/i-cube/I-CUBE-HUAWEI/Middlewares/Third_Party/Huawei/iot_link/shell\shell_cmd.c **** #endif    
 267:D:/fchai/work/i-cube/I-CUBE-HUAWEI/Middlewares/Third_Party/Huawei/iot_link/shell\shell_cmd.c ****     if(len > 0){
 268:D:/fchai/work/i-cube/I-CUBE-HUAWEI/Middlewares/Third_Party/Huawei/iot_link/shell\shell_cmd.c ****         len = len/sizeof(struct shell_item_t);
 269:D:/fchai/work/i-cube/I-CUBE-HUAWEI/Middlewares/Third_Party/Huawei/iot_link/shell\shell_cmd.c ****         gs_shell_cb.s = (struct shell_item_t *)cmd_start;
 270:D:/fchai/work/i-cube/I-CUBE-HUAWEI/Middlewares/Third_Party/Huawei/iot_link/shell\shell_cmd.c ****         gs_shell_cb.s_num = len;
 271:D:/fchai/work/i-cube/I-CUBE-HUAWEI/Middlewares/Third_Party/Huawei/iot_link/shell\shell_cmd.c ****     }
 272:D:/fchai/work/i-cube/I-CUBE-HUAWEI/Middlewares/Third_Party/Huawei/iot_link/shell\shell_cmd.c ****     return 0;
 273:D:/fchai/work/i-cube/I-CUBE-HUAWEI/Middlewares/Third_Party/Huawei/iot_link/shell\shell_cmd.c **** }
 274:D:/fchai/work/i-cube/I-CUBE-HUAWEI/Middlewares/Third_Party/Huawei/iot_link/shell\shell_cmd.c **** 
 275:D:/fchai/work/i-cube/I-CUBE-HUAWEI/Middlewares/Third_Party/Huawei/iot_link/shell\shell_cmd.c **** static int   os_shell_version(int argc, char *argv){
 254              		.loc 1 275 52 is_stmt 1 view -0
ARM GAS  T:\msys\tmp\ccD4SZ3u.s 			page 11


 255              		.cfi_startproc
 256              		@ args = 0, pretend = 0, frame = 0
 257              		@ frame_needed = 0, uses_anonymous_args = 0
 276:D:/fchai/work/i-cube/I-CUBE-HUAWEI/Middlewares/Third_Party/Huawei/iot_link/shell\shell_cmd.c ****     link_printf("os_shell_version:%d.%d\n\r",cn_shell_ver_major,cn_shell_ver_minor);
 258              		.loc 1 276 5 view .LVU55
 259              		.loc 1 276 5 view .LVU56
 275:D:/fchai/work/i-cube/I-CUBE-HUAWEI/Middlewares/Third_Party/Huawei/iot_link/shell\shell_cmd.c ****     link_printf("os_shell_version:%d.%d\n\r",cn_shell_ver_major,cn_shell_ver_minor);
 260              		.loc 1 275 52 is_stmt 0 view .LVU57
 261 0000 08B5     		push	{r3, lr}
 262              	.LCFI3:
 263              		.cfi_def_cfa_offset 8
 264              		.cfi_offset 3, -8
 265              		.cfi_offset 14, -4
 266              		.loc 1 276 5 view .LVU58
 267 0002 0022     		movs	r2, #0
 268 0004 0121     		movs	r1, #1
 269              	.LVL20:
 270              		.loc 1 276 5 view .LVU59
 271 0006 0548     		ldr	r0, .L14
 272              	.LVL21:
 273              		.loc 1 276 5 view .LVU60
 274 0008 FFF7FEFF 		bl	printf
 275              	.LVL22:
 276              		.loc 1 276 5 is_stmt 1 view .LVU61
 277 000c 044B     		ldr	r3, .L14+4
 278 000e 1B68     		ldr	r3, [r3]
 279 0010 9868     		ldr	r0, [r3, #8]
 280 0012 FFF7FEFF 		bl	fflush
 281              	.LVL23:
 282              		.loc 1 276 5 view .LVU62
 277:D:/fchai/work/i-cube/I-CUBE-HUAWEI/Middlewares/Third_Party/Huawei/iot_link/shell\shell_cmd.c ****     return 0;
 283              		.loc 1 277 5 view .LVU63
 278:D:/fchai/work/i-cube/I-CUBE-HUAWEI/Middlewares/Third_Party/Huawei/iot_link/shell\shell_cmd.c **** };
 284              		.loc 1 278 1 is_stmt 0 view .LVU64
 285 0016 0020     		movs	r0, #0
 286 0018 08BD     		pop	{r3, pc}
 287              	.L15:
 288 001a 00BF     		.align	2
 289              	.L14:
 290 001c 00000000 		.word	.LC8
 291 0020 00000000 		.word	_impure_ptr
 292              		.cfi_endproc
 293              	.LFE8:
 295              		.section	.text.shell_cmd_index,"ax",%progbits
 296              		.align	1
 297              		.p2align 2,,3
 298              		.global	shell_cmd_index
 299              		.syntax unified
 300              		.thumb
 301              		.thumb_func
 302              		.fpu fpv4-sp-d16
 304              	shell_cmd_index:
 305              	.LVL24:
 306              	.LFB5:
 158:D:/fchai/work/i-cube/I-CUBE-HUAWEI/Middlewares/Third_Party/Huawei/iot_link/shell\shell_cmd.c ****     struct shell_item_t *item;
 307              		.loc 1 158 67 is_stmt 1 view -0
 308              		.cfi_startproc
ARM GAS  T:\msys\tmp\ccD4SZ3u.s 			page 12


 309              		@ args = 0, pretend = 0, frame = 0
 310              		@ frame_needed = 0, uses_anonymous_args = 0
 159:D:/fchai/work/i-cube/I-CUBE-HUAWEI/Middlewares/Third_Party/Huawei/iot_link/shell\shell_cmd.c ****     int   i;
 311              		.loc 1 159 5 view .LVU66
 160:D:/fchai/work/i-cube/I-CUBE-HUAWEI/Middlewares/Third_Party/Huawei/iot_link/shell\shell_cmd.c ****     //search the static tab first,if not found then find the dynamic tab
 312              		.loc 1 160 5 view .LVU67
 162:D:/fchai/work/i-cube/I-CUBE-HUAWEI/Middlewares/Third_Party/Huawei/iot_link/shell\shell_cmd.c ****     for(i = 0;i <gs_shell_cb.s_num && tab_matches.len < MAX_TAB_MATCHES; i++){
 313              		.loc 1 162 5 view .LVU68
 158:D:/fchai/work/i-cube/I-CUBE-HUAWEI/Middlewares/Third_Party/Huawei/iot_link/shell\shell_cmd.c ****     struct shell_item_t *item;
 314              		.loc 1 158 67 is_stmt 0 view .LVU69
 315 0000 2DE9F84F 		push	{r3, r4, r5, r6, r7, r8, r9, r10, fp, lr}
 316              	.LCFI4:
 317              		.cfi_def_cfa_offset 40
 318              		.cfi_offset 3, -40
 319              		.cfi_offset 4, -36
 320              		.cfi_offset 5, -32
 321              		.cfi_offset 6, -28
 322              		.cfi_offset 7, -24
 323              		.cfi_offset 8, -20
 324              		.cfi_offset 9, -16
 325              		.cfi_offset 10, -12
 326              		.cfi_offset 11, -8
 327              		.cfi_offset 14, -4
 163:D:/fchai/work/i-cube/I-CUBE-HUAWEI/Middlewares/Third_Party/Huawei/iot_link/shell\shell_cmd.c ****         item = &(gs_shell_cb.s[i]);
 328              		.loc 1 163 29 view .LVU70
 329 0004 DFF898A0 		ldr	r10, .L30+4
 162:D:/fchai/work/i-cube/I-CUBE-HUAWEI/Middlewares/Third_Party/Huawei/iot_link/shell\shell_cmd.c ****     for(i = 0;i <gs_shell_cb.s_num && tab_matches.len < MAX_TAB_MATCHES; i++){
 330              		.loc 1 162 21 view .LVU71
 331 0008 244E     		ldr	r6, .L30
 163:D:/fchai/work/i-cube/I-CUBE-HUAWEI/Middlewares/Third_Party/Huawei/iot_link/shell\shell_cmd.c ****         item = &(gs_shell_cb.s[i]);
 332              		.loc 1 163 29 view .LVU72
 333 000a DAF80490 		ldr	r9, [r10, #4]
 162:D:/fchai/work/i-cube/I-CUBE-HUAWEI/Middlewares/Third_Party/Huawei/iot_link/shell\shell_cmd.c ****     for(i = 0;i <gs_shell_cb.s_num && tab_matches.len < MAX_TAB_MATCHES; i++){
 334              		.loc 1 162 21 view .LVU73
 335 000e 0024     		movs	r4, #0
 163:D:/fchai/work/i-cube/I-CUBE-HUAWEI/Middlewares/Third_Party/Huawei/iot_link/shell\shell_cmd.c ****         item = &(gs_shell_cb.s[i]);
 336              		.loc 1 163 5 view .LVU74
 337 0010 A145     		cmp	r9, r4
 158:D:/fchai/work/i-cube/I-CUBE-HUAWEI/Middlewares/Third_Party/Huawei/iot_link/shell\shell_cmd.c ****     struct shell_item_t *item;
 338              		.loc 1 158 67 view .LVU75
 339 0012 0546     		mov	r5, r0
 162:D:/fchai/work/i-cube/I-CUBE-HUAWEI/Middlewares/Third_Party/Huawei/iot_link/shell\shell_cmd.c ****     for(i = 0;i <gs_shell_cb.s_num && tab_matches.len < MAX_TAB_MATCHES; i++){
 340              		.loc 1 162 21 view .LVU76
 341 0014 A6F84040 		strh	r4, [r6, #64]	@ movhi
 163:D:/fchai/work/i-cube/I-CUBE-HUAWEI/Middlewares/Third_Party/Huawei/iot_link/shell\shell_cmd.c ****         item = &(gs_shell_cb.s[i]);
 342              		.loc 1 163 5 is_stmt 1 view .LVU77
 343              	.LVL25:
 163:D:/fchai/work/i-cube/I-CUBE-HUAWEI/Middlewares/Third_Party/Huawei/iot_link/shell\shell_cmd.c ****         item = &(gs_shell_cb.s[i]);
 344              		.loc 1 163 15 view .LVU78
 163:D:/fchai/work/i-cube/I-CUBE-HUAWEI/Middlewares/Third_Party/Huawei/iot_link/shell\shell_cmd.c ****         item = &(gs_shell_cb.s[i]);
 345              		.loc 1 163 5 is_stmt 0 view .LVU79
 346 0018 1ADD     		ble	.L22
 164:D:/fchai/work/i-cube/I-CUBE-HUAWEI/Middlewares/Third_Party/Huawei/iot_link/shell\shell_cmd.c ****         if (strncmp(item->name, index, strlen(index)) == 0) {
 347              		.loc 1 164 29 view .LVU80
 348 001a DAF800B0 		ldr	fp, [r10]
 163:D:/fchai/work/i-cube/I-CUBE-HUAWEI/Middlewares/Third_Party/Huawei/iot_link/shell\shell_cmd.c ****         item = &(gs_shell_cb.s[i]);
 349              		.loc 1 163 50 view .LVU81
ARM GAS  T:\msys\tmp\ccD4SZ3u.s 			page 13


 350 001e 2746     		mov	r7, r4
 351              	.LVL26:
 352              	.L24:
 164:D:/fchai/work/i-cube/I-CUBE-HUAWEI/Middlewares/Third_Party/Huawei/iot_link/shell\shell_cmd.c ****         if (strncmp(item->name, index, strlen(index)) == 0) {
 353              		.loc 1 164 9 is_stmt 1 view .LVU82
 165:D:/fchai/work/i-cube/I-CUBE-HUAWEI/Middlewares/Third_Party/Huawei/iot_link/shell\shell_cmd.c ****             tab_matches.matches[tab_matches.len++] = item->name;
 354              		.loc 1 165 9 view .LVU83
 165:D:/fchai/work/i-cube/I-CUBE-HUAWEI/Middlewares/Third_Party/Huawei/iot_link/shell\shell_cmd.c ****             tab_matches.matches[tab_matches.len++] = item->name;
 355              		.loc 1 165 13 is_stmt 0 view .LVU84
 356 0020 2301     		lsls	r3, r4, #4
 357 0022 2846     		mov	r0, r5
 358 0024 5BF80380 		ldr	r8, [fp, r3]
 359 0028 FFF7FEFF 		bl	strlen
 360              	.LVL27:
 361 002c 2946     		mov	r1, r5
 362 002e 0246     		mov	r2, r0
 363 0030 4046     		mov	r0, r8
 163:D:/fchai/work/i-cube/I-CUBE-HUAWEI/Middlewares/Third_Party/Huawei/iot_link/shell\shell_cmd.c ****         item = &(gs_shell_cb.s[i]);
 364              		.loc 1 163 75 view .LVU85
 365 0032 0134     		adds	r4, r4, #1
 366              	.LVL28:
 165:D:/fchai/work/i-cube/I-CUBE-HUAWEI/Middlewares/Third_Party/Huawei/iot_link/shell\shell_cmd.c ****             tab_matches.matches[tab_matches.len++] = item->name;
 367              		.loc 1 165 13 view .LVU86
 368 0034 FFF7FEFF 		bl	strncmp
 369              	.LVL29:
 166:D:/fchai/work/i-cube/I-CUBE-HUAWEI/Middlewares/Third_Party/Huawei/iot_link/shell\shell_cmd.c ****         }
 370              		.loc 1 166 13 is_stmt 1 view .LVU87
 163:D:/fchai/work/i-cube/I-CUBE-HUAWEI/Middlewares/Third_Party/Huawei/iot_link/shell\shell_cmd.c ****         item = &(gs_shell_cb.s[i]);
 371              		.loc 1 163 74 view .LVU88
 163:D:/fchai/work/i-cube/I-CUBE-HUAWEI/Middlewares/Third_Party/Huawei/iot_link/shell\shell_cmd.c ****         item = &(gs_shell_cb.s[i]);
 372              		.loc 1 163 15 view .LVU89
 165:D:/fchai/work/i-cube/I-CUBE-HUAWEI/Middlewares/Third_Party/Huawei/iot_link/shell\shell_cmd.c ****             tab_matches.matches[tab_matches.len++] = item->name;
 373              		.loc 1 165 12 is_stmt 0 view .LVU90
 374 0038 20B9     		cbnz	r0, .L20
 166:D:/fchai/work/i-cube/I-CUBE-HUAWEI/Middlewares/Third_Party/Huawei/iot_link/shell\shell_cmd.c ****         }
 375              		.loc 1 166 52 view .LVU91
 376 003a 46F82780 		str	r8, [r6, r7, lsl #2]
 166:D:/fchai/work/i-cube/I-CUBE-HUAWEI/Middlewares/Third_Party/Huawei/iot_link/shell\shell_cmd.c ****         }
 377              		.loc 1 166 48 view .LVU92
 378 003e 0137     		adds	r7, r7, #1
 379 0040 A6F84070 		strh	r7, [r6, #64]	@ movhi
 380              	.L20:
 163:D:/fchai/work/i-cube/I-CUBE-HUAWEI/Middlewares/Third_Party/Huawei/iot_link/shell\shell_cmd.c ****         item = &(gs_shell_cb.s[i]);
 381              		.loc 1 163 5 discriminator 2 view .LVU93
 382 0044 4C45     		cmp	r4, r9
 383 0046 03D0     		beq	.L22
 163:D:/fchai/work/i-cube/I-CUBE-HUAWEI/Middlewares/Third_Party/Huawei/iot_link/shell\shell_cmd.c ****         item = &(gs_shell_cb.s[i]);
 384              		.loc 1 163 50 discriminator 3 view .LVU94
 385 0048 B6F84070 		ldrh	r7, [r6, #64]
 163:D:/fchai/work/i-cube/I-CUBE-HUAWEI/Middlewares/Third_Party/Huawei/iot_link/shell\shell_cmd.c ****         item = &(gs_shell_cb.s[i]);
 386              		.loc 1 163 36 discriminator 3 view .LVU95
 387 004c 0F2F     		cmp	r7, #15
 388 004e E7D9     		bls	.L24
 389              	.LVL30:
 390              	.L22:
 170:D:/fchai/work/i-cube/I-CUBE-HUAWEI/Middlewares/Third_Party/Huawei/iot_link/shell\shell_cmd.c ****         item = &(gs_shell_cb.d[i]);
 391              		.loc 1 170 15 is_stmt 1 view .LVU96
ARM GAS  T:\msys\tmp\ccD4SZ3u.s 			page 14


 170:D:/fchai/work/i-cube/I-CUBE-HUAWEI/Middlewares/Third_Party/Huawei/iot_link/shell\shell_cmd.c ****         item = &(gs_shell_cb.d[i]);
 392              		.loc 1 170 29 is_stmt 0 view .LVU97
 393 0050 DAF80C90 		ldr	r9, [r10, #12]
 170:D:/fchai/work/i-cube/I-CUBE-HUAWEI/Middlewares/Third_Party/Huawei/iot_link/shell\shell_cmd.c ****         item = &(gs_shell_cb.d[i]);
 394              		.loc 1 170 5 view .LVU98
 395 0054 B9F1000F 		cmp	r9, #0
 396 0058 1DDD     		ble	.L27
 171:D:/fchai/work/i-cube/I-CUBE-HUAWEI/Middlewares/Third_Party/Huawei/iot_link/shell\shell_cmd.c ****         if(strncmp(item->name, index, strlen(index)) == 0){
 397              		.loc 1 171 29 view .LVU99
 398 005a DAF808A0 		ldr	r10, [r10, #8]
 399 005e 0024     		movs	r4, #0
 400 0060 10E0     		b	.L23
 401              	.LVL31:
 402              	.L26:
 172:D:/fchai/work/i-cube/I-CUBE-HUAWEI/Middlewares/Third_Party/Huawei/iot_link/shell\shell_cmd.c ****             tab_matches.matches[tab_matches.len++] = item->name;
 403              		.loc 1 172 12 view .LVU100
 404 0062 5AF80380 		ldr	r8, [r10, r3]
 405 0066 FFF7FEFF 		bl	strlen
 406              	.LVL32:
 172:D:/fchai/work/i-cube/I-CUBE-HUAWEI/Middlewares/Third_Party/Huawei/iot_link/shell\shell_cmd.c ****             tab_matches.matches[tab_matches.len++] = item->name;
 407              		.loc 1 172 12 view .LVU101
 408 006a 2946     		mov	r1, r5
 409 006c 0246     		mov	r2, r0
 410 006e 4046     		mov	r0, r8
 411 0070 FFF7FEFF 		bl	strncmp
 412              	.LVL33:
 173:D:/fchai/work/i-cube/I-CUBE-HUAWEI/Middlewares/Third_Party/Huawei/iot_link/shell\shell_cmd.c ****         }
 413              		.loc 1 173 13 is_stmt 1 view .LVU102
 170:D:/fchai/work/i-cube/I-CUBE-HUAWEI/Middlewares/Third_Party/Huawei/iot_link/shell\shell_cmd.c ****         item = &(gs_shell_cb.d[i]);
 414              		.loc 1 170 74 view .LVU103
 170:D:/fchai/work/i-cube/I-CUBE-HUAWEI/Middlewares/Third_Party/Huawei/iot_link/shell\shell_cmd.c ****         item = &(gs_shell_cb.d[i]);
 415              		.loc 1 170 15 view .LVU104
 172:D:/fchai/work/i-cube/I-CUBE-HUAWEI/Middlewares/Third_Party/Huawei/iot_link/shell\shell_cmd.c ****             tab_matches.matches[tab_matches.len++] = item->name;
 416              		.loc 1 172 11 is_stmt 0 view .LVU105
 417 0074 20B9     		cbnz	r0, .L25
 173:D:/fchai/work/i-cube/I-CUBE-HUAWEI/Middlewares/Third_Party/Huawei/iot_link/shell\shell_cmd.c ****         }
 418              		.loc 1 173 52 view .LVU106
 419 0076 46F82780 		str	r8, [r6, r7, lsl #2]
 173:D:/fchai/work/i-cube/I-CUBE-HUAWEI/Middlewares/Third_Party/Huawei/iot_link/shell\shell_cmd.c ****         }
 420              		.loc 1 173 48 view .LVU107
 421 007a 0137     		adds	r7, r7, #1
 422 007c A6F84070 		strh	r7, [r6, #64]	@ movhi
 423              	.L25:
 170:D:/fchai/work/i-cube/I-CUBE-HUAWEI/Middlewares/Third_Party/Huawei/iot_link/shell\shell_cmd.c ****         item = &(gs_shell_cb.d[i]);
 424              		.loc 1 170 5 discriminator 2 view .LVU108
 425 0080 4C45     		cmp	r4, r9
 426 0082 08D0     		beq	.L27
 427              	.LVL34:
 428              	.L23:
 171:D:/fchai/work/i-cube/I-CUBE-HUAWEI/Middlewares/Third_Party/Huawei/iot_link/shell\shell_cmd.c ****         if(strncmp(item->name, index, strlen(index)) == 0){
 429              		.loc 1 171 9 is_stmt 1 discriminator 3 view .LVU109
 172:D:/fchai/work/i-cube/I-CUBE-HUAWEI/Middlewares/Third_Party/Huawei/iot_link/shell\shell_cmd.c ****             tab_matches.matches[tab_matches.len++] = item->name;
 430              		.loc 1 172 9 discriminator 3 view .LVU110
 170:D:/fchai/work/i-cube/I-CUBE-HUAWEI/Middlewares/Third_Party/Huawei/iot_link/shell\shell_cmd.c ****         item = &(gs_shell_cb.d[i]);
 431              		.loc 1 170 50 is_stmt 0 discriminator 3 view .LVU111
 432 0084 B6F84070 		ldrh	r7, [r6, #64]
 170:D:/fchai/work/i-cube/I-CUBE-HUAWEI/Middlewares/Third_Party/Huawei/iot_link/shell\shell_cmd.c ****         item = &(gs_shell_cb.d[i]);
ARM GAS  T:\msys\tmp\ccD4SZ3u.s 			page 15


 433              		.loc 1 170 36 discriminator 3 view .LVU112
 434 0088 0F2F     		cmp	r7, #15
 172:D:/fchai/work/i-cube/I-CUBE-HUAWEI/Middlewares/Third_Party/Huawei/iot_link/shell\shell_cmd.c ****             tab_matches.matches[tab_matches.len++] = item->name;
 435              		.loc 1 172 12 discriminator 3 view .LVU113
 436 008a 4FEA0413 		lsl	r3, r4, #4
 437 008e 2846     		mov	r0, r5
 170:D:/fchai/work/i-cube/I-CUBE-HUAWEI/Middlewares/Third_Party/Huawei/iot_link/shell\shell_cmd.c ****         item = &(gs_shell_cb.d[i]);
 438              		.loc 1 170 75 discriminator 3 view .LVU114
 439 0090 04F10104 		add	r4, r4, #1
 440              	.LVL35:
 170:D:/fchai/work/i-cube/I-CUBE-HUAWEI/Middlewares/Third_Party/Huawei/iot_link/shell\shell_cmd.c ****         item = &(gs_shell_cb.d[i]);
 441              		.loc 1 170 36 discriminator 3 view .LVU115
 442 0094 E5D9     		bls	.L26
 443              	.LVL36:
 444              	.L27:
 178:D:/fchai/work/i-cube/I-CUBE-HUAWEI/Middlewares/Third_Party/Huawei/iot_link/shell\shell_cmd.c **** 
 445              		.loc 1 178 1 view .LVU116
 446 0096 0148     		ldr	r0, .L30
 447 0098 BDE8F88F 		pop	{r3, r4, r5, r6, r7, r8, r9, r10, fp, pc}
 448              	.LVL37:
 449              	.L31:
 178:D:/fchai/work/i-cube/I-CUBE-HUAWEI/Middlewares/Third_Party/Huawei/iot_link/shell\shell_cmd.c **** 
 450              		.loc 1 178 1 view .LVU117
 451              		.align	2
 452              	.L30:
 453 009c 00000000 		.word	.LANCHOR2
 454 00a0 00000000 		.word	.LANCHOR0
 455              		.cfi_endproc
 456              	.LFE5:
 458              		.section	.rodata.shell_cmd_execute.str1.4,"aMS",%progbits,1
 459              		.align	2
 460              	.LC9:
 461 0000 73657400 		.ascii	"set\000"
 462              		.align	2
 463              	.LC10:
 464 0004 28484558 		.ascii	"(HEX):ADDR:0X%08X:\000"
 464      293A4144 
 464      44523A30 
 464      58253038 
 464      583A00
 465 0017 00       		.align	2
 466              	.LC11:
 467 0018 25303278 		.ascii	"%02x \000"
 467      2000
 468 001e 0000     		.align	2
 469              	.LC12:
 470 0020 5348454C 		.ascii	"SHELL COMMAND NOT FIND:%s\012\015\000"
 470      4C20434F 
 470      4D4D414E 
 470      44204E4F 
 470      54204649 
 471              		.section	.text.shell_cmd_execute,"ax",%progbits
 472              		.align	1
 473              		.p2align 2,,3
 474              		.global	shell_cmd_execute
 475              		.syntax unified
 476              		.thumb
ARM GAS  T:\msys\tmp\ccD4SZ3u.s 			page 16


 477              		.thumb_func
 478              		.fpu fpv4-sp-d16
 480              	shell_cmd_execute:
 481              	.LVL38:
 482              	.LFB6:
 190:D:/fchai/work/i-cube/I-CUBE-HUAWEI/Middlewares/Third_Party/Huawei/iot_link/shell\shell_cmd.c ****     int   ret= -1;
 483              		.loc 1 190 37 is_stmt 1 view -0
 484              		.cfi_startproc
 485              		@ args = 0, pretend = 0, frame = 72
 486              		@ frame_needed = 0, uses_anonymous_args = 0
 191:D:/fchai/work/i-cube/I-CUBE-HUAWEI/Middlewares/Third_Party/Huawei/iot_link/shell\shell_cmd.c ****     int    argc = cn_shell_args;           //split the params to argc and argv format
 487              		.loc 1 191 5 view .LVU119
 192:D:/fchai/work/i-cube/I-CUBE-HUAWEI/Middlewares/Third_Party/Huawei/iot_link/shell\shell_cmd.c ****     unsigned int     value;
 488              		.loc 1 192 5 view .LVU120
 190:D:/fchai/work/i-cube/I-CUBE-HUAWEI/Middlewares/Third_Party/Huawei/iot_link/shell\shell_cmd.c ****     int   ret= -1;
 489              		.loc 1 190 37 is_stmt 0 view .LVU121
 490 0000 2DE9F047 		push	{r4, r5, r6, r7, r8, r9, r10, lr}
 491              	.LCFI5:
 492              		.cfi_def_cfa_offset 32
 493              		.cfi_offset 4, -32
 494              		.cfi_offset 5, -28
 495              		.cfi_offset 6, -24
 496              		.cfi_offset 7, -20
 497              		.cfi_offset 8, -16
 498              		.cfi_offset 9, -12
 499              		.cfi_offset 10, -8
 500              		.cfi_offset 14, -4
 501 0004 92B0     		sub	sp, sp, #72
 502              	.LCFI6:
 503              		.cfi_def_cfa_offset 104
 190:D:/fchai/work/i-cube/I-CUBE-HUAWEI/Middlewares/Third_Party/Huawei/iot_link/shell\shell_cmd.c ****     int   ret= -1;
 504              		.loc 1 190 37 view .LVU122
 505 0006 0246     		mov	r2, r0
 192:D:/fchai/work/i-cube/I-CUBE-HUAWEI/Middlewares/Third_Party/Huawei/iot_link/shell\shell_cmd.c ****     unsigned int     value;
 506              		.loc 1 192 12 view .LVU123
 507 0008 1023     		movs	r3, #16
 202:D:/fchai/work/i-cube/I-CUBE-HUAWEI/Middlewares/Third_Party/Huawei/iot_link/shell\shell_cmd.c ****     if(argc == 0){
 508              		.loc 1 202 5 view .LVU124
 509 000a 02A9     		add	r1, sp, #8
 510 000c 6846     		mov	r0, sp
 511              	.LVL39:
 192:D:/fchai/work/i-cube/I-CUBE-HUAWEI/Middlewares/Third_Party/Huawei/iot_link/shell\shell_cmd.c ****     unsigned int     value;
 512              		.loc 1 192 12 view .LVU125
 513 000e 0093     		str	r3, [sp]
 193:D:/fchai/work/i-cube/I-CUBE-HUAWEI/Middlewares/Third_Party/Huawei/iot_link/shell\shell_cmd.c ****     unsigned char   *bytes;
 514              		.loc 1 193 5 is_stmt 1 view .LVU126
 194:D:/fchai/work/i-cube/I-CUBE-HUAWEI/Middlewares/Third_Party/Huawei/iot_link/shell\shell_cmd.c ****     int     i;
 515              		.loc 1 194 5 view .LVU127
 195:D:/fchai/work/i-cube/I-CUBE-HUAWEI/Middlewares/Third_Party/Huawei/iot_link/shell\shell_cmd.c ****     const  char *argv[cn_shell_args];
 516              		.loc 1 195 5 view .LVU128
 196:D:/fchai/work/i-cube/I-CUBE-HUAWEI/Middlewares/Third_Party/Huawei/iot_link/shell\shell_cmd.c ****     struct shell_item_t *item;            //match the command item
 517              		.loc 1 196 5 view .LVU129
 197:D:/fchai/work/i-cube/I-CUBE-HUAWEI/Middlewares/Third_Party/Huawei/iot_link/shell\shell_cmd.c ****     fn_shell_cmdentry shell_cmd_entry;    //command function entry
 518              		.loc 1 197 5 view .LVU130
 198:D:/fchai/work/i-cube/I-CUBE-HUAWEI/Middlewares/Third_Party/Huawei/iot_link/shell\shell_cmd.c **** 
 519              		.loc 1 198 5 view .LVU131
 200:D:/fchai/work/i-cube/I-CUBE-HUAWEI/Middlewares/Third_Party/Huawei/iot_link/shell\shell_cmd.c **** 
ARM GAS  T:\msys\tmp\ccD4SZ3u.s 			page 17


 520              		.loc 1 200 5 view .LVU132
 202:D:/fchai/work/i-cube/I-CUBE-HUAWEI/Middlewares/Third_Party/Huawei/iot_link/shell\shell_cmd.c ****     if(argc == 0){
 521              		.loc 1 202 5 view .LVU133
 522 0010 FFF7FEFF 		bl	string_to_arg
 523              	.LVL40:
 203:D:/fchai/work/i-cube/I-CUBE-HUAWEI/Middlewares/Third_Party/Huawei/iot_link/shell\shell_cmd.c ****         shell_cmd_help(0,NULL);               //if no args we show system help
 524              		.loc 1 203 5 view .LVU134
 203:D:/fchai/work/i-cube/I-CUBE-HUAWEI/Middlewares/Third_Party/Huawei/iot_link/shell\shell_cmd.c ****         shell_cmd_help(0,NULL);               //if no args we show system help
 525              		.loc 1 203 13 is_stmt 0 view .LVU135
 526 0014 DDF80090 		ldr	r9, [sp]
 203:D:/fchai/work/i-cube/I-CUBE-HUAWEI/Middlewares/Third_Party/Huawei/iot_link/shell\shell_cmd.c ****         shell_cmd_help(0,NULL);               //if no args we show system help
 527              		.loc 1 203 7 view .LVU136
 528 0018 B9F1000F 		cmp	r9, #0
 529 001c 59D0     		beq	.L60
 208:D:/fchai/work/i-cube/I-CUBE-HUAWEI/Middlewares/Third_Party/Huawei/iot_link/shell\shell_cmd.c ****         if(NULL == item){
 530              		.loc 1 208 9 is_stmt 1 view .LVU137
 531              	.LBB4:
 532              	.LBB5:
 134:D:/fchai/work/i-cube/I-CUBE-HUAWEI/Middlewares/Third_Party/Huawei/iot_link/shell\shell_cmd.c ****         item = &(gs_shell_cb.s[i]);
 533              		.loc 1 134 29 is_stmt 0 view .LVU138
 534 001e DFF814A1 		ldr	r10, .L65+16
 535              	.LBE5:
 536              	.LBE4:
 208:D:/fchai/work/i-cube/I-CUBE-HUAWEI/Middlewares/Third_Party/Huawei/iot_link/shell\shell_cmd.c ****         if(NULL == item){
 537              		.loc 1 208 15 view .LVU139
 538 0022 029F     		ldr	r7, [sp, #8]
 539              	.LVL41:
 540              	.LBB9:
 541              	.LBI4:
 127:D:/fchai/work/i-cube/I-CUBE-HUAWEI/Middlewares/Third_Party/Huawei/iot_link/shell\shell_cmd.c **** {
 542              		.loc 1 127 29 is_stmt 1 view .LVU140
 543              	.LBB6:
 129:D:/fchai/work/i-cube/I-CUBE-HUAWEI/Middlewares/Third_Party/Huawei/iot_link/shell\shell_cmd.c ****     struct shell_item_t  *ret = NULL;
 544              		.loc 1 129 5 view .LVU141
 130:D:/fchai/work/i-cube/I-CUBE-HUAWEI/Middlewares/Third_Party/Huawei/iot_link/shell\shell_cmd.c ****     int   i;
 545              		.loc 1 130 5 view .LVU142
 131:D:/fchai/work/i-cube/I-CUBE-HUAWEI/Middlewares/Third_Party/Huawei/iot_link/shell\shell_cmd.c ****     //search the static tab first,if not found then find the dynamic tab
 546              		.loc 1 131 5 view .LVU143
 133:D:/fchai/work/i-cube/I-CUBE-HUAWEI/Middlewares/Third_Party/Huawei/iot_link/shell\shell_cmd.c ****     for(i = 0;i <gs_shell_cb.s_num;i++){
 547              		.loc 1 133 5 view .LVU144
 134:D:/fchai/work/i-cube/I-CUBE-HUAWEI/Middlewares/Third_Party/Huawei/iot_link/shell\shell_cmd.c ****         item = &(gs_shell_cb.s[i]);
 548              		.loc 1 134 5 view .LVU145
 134:D:/fchai/work/i-cube/I-CUBE-HUAWEI/Middlewares/Third_Party/Huawei/iot_link/shell\shell_cmd.c ****         item = &(gs_shell_cb.s[i]);
 549              		.loc 1 134 15 view .LVU146
 134:D:/fchai/work/i-cube/I-CUBE-HUAWEI/Middlewares/Third_Party/Huawei/iot_link/shell\shell_cmd.c ****         item = &(gs_shell_cb.s[i]);
 550              		.loc 1 134 29 is_stmt 0 view .LVU147
 551 0024 DAF80480 		ldr	r8, [r10, #4]
 134:D:/fchai/work/i-cube/I-CUBE-HUAWEI/Middlewares/Third_Party/Huawei/iot_link/shell\shell_cmd.c ****         item = &(gs_shell_cb.s[i]);
 552              		.loc 1 134 5 view .LVU148
 553 0028 B8F1000F 		cmp	r8, #0
 554 002c 3CDD     		ble	.L35
 555 002e DAF80040 		ldr	r4, [r10]
 134:D:/fchai/work/i-cube/I-CUBE-HUAWEI/Middlewares/Third_Party/Huawei/iot_link/shell\shell_cmd.c ****         item = &(gs_shell_cb.s[i]);
 556              		.loc 1 134 11 view .LVU149
 557 0032 0025     		movs	r5, #0
 558 0034 01E0     		b	.L37
 559              	.LVL42:
ARM GAS  T:\msys\tmp\ccD4SZ3u.s 			page 18


 560              	.L61:
 134:D:/fchai/work/i-cube/I-CUBE-HUAWEI/Middlewares/Third_Party/Huawei/iot_link/shell\shell_cmd.c ****         item = &(gs_shell_cb.s[i]);
 561              		.loc 1 134 5 view .LVU150
 562 0036 4545     		cmp	r5, r8
 563 0038 36D0     		beq	.L35
 564              	.LVL43:
 565              	.L37:
 135:D:/fchai/work/i-cube/I-CUBE-HUAWEI/Middlewares/Third_Party/Huawei/iot_link/shell\shell_cmd.c ****         if(0 == strcmp(name,item->name)){
 566              		.loc 1 135 9 is_stmt 1 view .LVU151
 136:D:/fchai/work/i-cube/I-CUBE-HUAWEI/Middlewares/Third_Party/Huawei/iot_link/shell\shell_cmd.c ****             ret = item;
 567              		.loc 1 136 17 is_stmt 0 view .LVU152
 568 003a 2168     		ldr	r1, [r4]
 569 003c 3846     		mov	r0, r7
 570 003e FFF7FEFF 		bl	strcmp
 571              	.LVL44:
 134:D:/fchai/work/i-cube/I-CUBE-HUAWEI/Middlewares/Third_Party/Huawei/iot_link/shell\shell_cmd.c ****         item = &(gs_shell_cb.s[i]);
 572              		.loc 1 134 36 is_stmt 1 view .LVU153
 135:D:/fchai/work/i-cube/I-CUBE-HUAWEI/Middlewares/Third_Party/Huawei/iot_link/shell\shell_cmd.c ****         if(0 == strcmp(name,item->name)){
 573              		.loc 1 135 14 is_stmt 0 view .LVU154
 574 0042 2646     		mov	r6, r4
 134:D:/fchai/work/i-cube/I-CUBE-HUAWEI/Middlewares/Third_Party/Huawei/iot_link/shell\shell_cmd.c ****         item = &(gs_shell_cb.s[i]);
 575              		.loc 1 134 37 view .LVU155
 576 0044 0135     		adds	r5, r5, #1
 577              	.LVL45:
 134:D:/fchai/work/i-cube/I-CUBE-HUAWEI/Middlewares/Third_Party/Huawei/iot_link/shell\shell_cmd.c ****         item = &(gs_shell_cb.s[i]);
 578              		.loc 1 134 15 is_stmt 1 view .LVU156
 136:D:/fchai/work/i-cube/I-CUBE-HUAWEI/Middlewares/Third_Party/Huawei/iot_link/shell\shell_cmd.c ****             ret = item;
 579              		.loc 1 136 9 view .LVU157
 580 0046 1034     		adds	r4, r4, #16
 581              	.LVL46:
 136:D:/fchai/work/i-cube/I-CUBE-HUAWEI/Middlewares/Third_Party/Huawei/iot_link/shell\shell_cmd.c ****             ret = item;
 582              		.loc 1 136 11 is_stmt 0 view .LVU158
 583 0048 0028     		cmp	r0, #0
 584 004a F4D1     		bne	.L61
 585              	.LVL47:
 586              	.L36:
 150:D:/fchai/work/i-cube/I-CUBE-HUAWEI/Middlewares/Third_Party/Huawei/iot_link/shell\shell_cmd.c **** }
 587              		.loc 1 150 5 is_stmt 1 view .LVU159
 150:D:/fchai/work/i-cube/I-CUBE-HUAWEI/Middlewares/Third_Party/Huawei/iot_link/shell\shell_cmd.c **** }
 588              		.loc 1 150 5 is_stmt 0 view .LVU160
 589              	.LBE6:
 590              	.LBE9:
 209:D:/fchai/work/i-cube/I-CUBE-HUAWEI/Middlewares/Third_Party/Huawei/iot_link/shell\shell_cmd.c ****             link_printf("SHELL COMMAND NOT FIND:%s\n\r",argv[0]);
 591              		.loc 1 209 9 is_stmt 1 view .LVU161
 214:D:/fchai/work/i-cube/I-CUBE-HUAWEI/Middlewares/Third_Party/Huawei/iot_link/shell\shell_cmd.c ****                 shell_cmd_entry = (fn_shell_cmdentry)item->addr;
 592              		.loc 1 214 13 view .LVU162
 214:D:/fchai/work/i-cube/I-CUBE-HUAWEI/Middlewares/Third_Party/Huawei/iot_link/shell\shell_cmd.c ****                 shell_cmd_entry = (fn_shell_cmdentry)item->addr;
 593              		.loc 1 214 15 is_stmt 0 view .LVU163
 594 004c B389     		ldrh	r3, [r6, #12]
 595 004e 002B     		cmp	r3, #0
 596 0050 56D0     		beq	.L62
 219:D:/fchai/work/i-cube/I-CUBE-HUAWEI/Middlewares/Third_Party/Huawei/iot_link/shell\shell_cmd.c ****                     //deal it simple and easy here
 597              		.loc 1 219 17 is_stmt 1 view .LVU164
 219:D:/fchai/work/i-cube/I-CUBE-HUAWEI/Middlewares/Third_Party/Huawei/iot_link/shell\shell_cmd.c ****                     //deal it simple and easy here
 598              		.loc 1 219 19 is_stmt 0 view .LVU165
 599 0052 B9F1030F 		cmp	r9, #3
 600 0056 05D1     		bne	.L40
ARM GAS  T:\msys\tmp\ccD4SZ3u.s 			page 19


 219:D:/fchai/work/i-cube/I-CUBE-HUAWEI/Middlewares/Third_Party/Huawei/iot_link/shell\shell_cmd.c ****                     //deal it simple and easy here
 601              		.loc 1 219 39 discriminator 1 view .LVU166
 602 0058 3249     		ldr	r1, .L65
 603 005a 0398     		ldr	r0, [sp, #12]
 604 005c FFF7FEFF 		bl	strcmp
 605              	.LVL48:
 219:D:/fchai/work/i-cube/I-CUBE-HUAWEI/Middlewares/Third_Party/Huawei/iot_link/shell\shell_cmd.c ****                     //deal it simple and easy here
 606              		.loc 1 219 31 discriminator 1 view .LVU167
 607 0060 0028     		cmp	r0, #0
 608 0062 3ED0     		beq	.L63
 609              	.L40:
 225:D:/fchai/work/i-cube/I-CUBE-HUAWEI/Middlewares/Third_Party/Huawei/iot_link/shell\shell_cmd.c ****                     link_printf("(HEX):ADDR:0X%08X:",(unsigned int)bytes);
 610              		.loc 1 225 21 is_stmt 1 view .LVU168
 225:D:/fchai/work/i-cube/I-CUBE-HUAWEI/Middlewares/Third_Party/Huawei/iot_link/shell\shell_cmd.c ****                     link_printf("(HEX):ADDR:0X%08X:",(unsigned int)bytes);
 611              		.loc 1 225 27 is_stmt 0 view .LVU169
 612 0064 B568     		ldr	r5, [r6, #8]
 613              	.LVL49:
 226:D:/fchai/work/i-cube/I-CUBE-HUAWEI/Middlewares/Third_Party/Huawei/iot_link/shell\shell_cmd.c ****                     for(i = 0;i<item->len;i++){
 614              		.loc 1 226 21 is_stmt 1 view .LVU170
 226:D:/fchai/work/i-cube/I-CUBE-HUAWEI/Middlewares/Third_Party/Huawei/iot_link/shell\shell_cmd.c ****                     for(i = 0;i<item->len;i++){
 615              		.loc 1 226 21 view .LVU171
 616 0066 304F     		ldr	r7, .L65+4
 617 0068 3048     		ldr	r0, .L65+8
 618 006a 2946     		mov	r1, r5
 619 006c FFF7FEFF 		bl	printf
 620              	.LVL50:
 226:D:/fchai/work/i-cube/I-CUBE-HUAWEI/Middlewares/Third_Party/Huawei/iot_link/shell\shell_cmd.c ****                     for(i = 0;i<item->len;i++){
 621              		.loc 1 226 21 view .LVU172
 622 0070 3B68     		ldr	r3, [r7]
 623 0072 9868     		ldr	r0, [r3, #8]
 624 0074 FFF7FEFF 		bl	fflush
 625              	.LVL51:
 226:D:/fchai/work/i-cube/I-CUBE-HUAWEI/Middlewares/Third_Party/Huawei/iot_link/shell\shell_cmd.c ****                     for(i = 0;i<item->len;i++){
 626              		.loc 1 226 21 view .LVU173
 227:D:/fchai/work/i-cube/I-CUBE-HUAWEI/Middlewares/Third_Party/Huawei/iot_link/shell\shell_cmd.c ****                         link_printf("%02x ",*bytes++);
 627              		.loc 1 227 21 view .LVU174
 227:D:/fchai/work/i-cube/I-CUBE-HUAWEI/Middlewares/Third_Party/Huawei/iot_link/shell\shell_cmd.c ****                         link_printf("%02x ",*bytes++);
 628              		.loc 1 227 31 view .LVU175
 227:D:/fchai/work/i-cube/I-CUBE-HUAWEI/Middlewares/Third_Party/Huawei/iot_link/shell\shell_cmd.c ****                         link_printf("%02x ",*bytes++);
 629              		.loc 1 227 21 is_stmt 0 view .LVU176
 630 0078 F389     		ldrh	r3, [r6, #14]
 631 007a 7BB1     		cbz	r3, .L59
 228:D:/fchai/work/i-cube/I-CUBE-HUAWEI/Middlewares/Third_Party/Huawei/iot_link/shell\shell_cmd.c ****                     }
 632              		.loc 1 228 25 view .LVU177
 633 007c DFF8B880 		ldr	r8, .L65+20
 227:D:/fchai/work/i-cube/I-CUBE-HUAWEI/Middlewares/Third_Party/Huawei/iot_link/shell\shell_cmd.c ****                         link_printf("%02x ",*bytes++);
 634              		.loc 1 227 27 view .LVU178
 635 0080 0024     		movs	r4, #0
 636              	.LVL52:
 637              	.L42:
 228:D:/fchai/work/i-cube/I-CUBE-HUAWEI/Middlewares/Third_Party/Huawei/iot_link/shell\shell_cmd.c ****                     }
 638              		.loc 1 228 25 is_stmt 1 discriminator 3 view .LVU179
 228:D:/fchai/work/i-cube/I-CUBE-HUAWEI/Middlewares/Third_Party/Huawei/iot_link/shell\shell_cmd.c ****                     }
 639              		.loc 1 228 25 discriminator 3 view .LVU180
 228:D:/fchai/work/i-cube/I-CUBE-HUAWEI/Middlewares/Third_Party/Huawei/iot_link/shell\shell_cmd.c ****                     }
 640              		.loc 1 228 25 is_stmt 0 discriminator 3 view .LVU181
 641 0082 15F8011B 		ldrb	r1, [r5], #1	@ zero_extendqisi2
ARM GAS  T:\msys\tmp\ccD4SZ3u.s 			page 20


 642              	.LVL53:
 228:D:/fchai/work/i-cube/I-CUBE-HUAWEI/Middlewares/Third_Party/Huawei/iot_link/shell\shell_cmd.c ****                     }
 643              		.loc 1 228 25 discriminator 3 view .LVU182
 644 0086 4046     		mov	r0, r8
 645 0088 FFF7FEFF 		bl	printf
 646              	.LVL54:
 228:D:/fchai/work/i-cube/I-CUBE-HUAWEI/Middlewares/Third_Party/Huawei/iot_link/shell\shell_cmd.c ****                     }
 647              		.loc 1 228 25 is_stmt 1 discriminator 3 view .LVU183
 648 008c 3B68     		ldr	r3, [r7]
 649 008e 9868     		ldr	r0, [r3, #8]
 650 0090 FFF7FEFF 		bl	fflush
 651              	.LVL55:
 228:D:/fchai/work/i-cube/I-CUBE-HUAWEI/Middlewares/Third_Party/Huawei/iot_link/shell\shell_cmd.c ****                     }
 652              		.loc 1 228 25 discriminator 3 view .LVU184
 227:D:/fchai/work/i-cube/I-CUBE-HUAWEI/Middlewares/Third_Party/Huawei/iot_link/shell\shell_cmd.c ****                         link_printf("%02x ",*bytes++);
 653              		.loc 1 227 43 discriminator 3 view .LVU185
 227:D:/fchai/work/i-cube/I-CUBE-HUAWEI/Middlewares/Third_Party/Huawei/iot_link/shell\shell_cmd.c ****                         link_printf("%02x ",*bytes++);
 654              		.loc 1 227 37 is_stmt 0 discriminator 3 view .LVU186
 655 0094 F389     		ldrh	r3, [r6, #14]
 227:D:/fchai/work/i-cube/I-CUBE-HUAWEI/Middlewares/Third_Party/Huawei/iot_link/shell\shell_cmd.c ****                         link_printf("%02x ",*bytes++);
 656              		.loc 1 227 44 discriminator 3 view .LVU187
 657 0096 0134     		adds	r4, r4, #1
 658              	.LVL56:
 227:D:/fchai/work/i-cube/I-CUBE-HUAWEI/Middlewares/Third_Party/Huawei/iot_link/shell\shell_cmd.c ****                         link_printf("%02x ",*bytes++);
 659              		.loc 1 227 31 is_stmt 1 discriminator 3 view .LVU188
 227:D:/fchai/work/i-cube/I-CUBE-HUAWEI/Middlewares/Third_Party/Huawei/iot_link/shell\shell_cmd.c ****                         link_printf("%02x ",*bytes++);
 660              		.loc 1 227 21 is_stmt 0 discriminator 3 view .LVU189
 661 0098 A342     		cmp	r3, r4
 662 009a F2DC     		bgt	.L42
 663              	.LVL57:
 664              	.L59:
 210:D:/fchai/work/i-cube/I-CUBE-HUAWEI/Middlewares/Third_Party/Huawei/iot_link/shell\shell_cmd.c ****             ret = -1;
 665              		.loc 1 210 13 is_stmt 1 view .LVU190
 211:D:/fchai/work/i-cube/I-CUBE-HUAWEI/Middlewares/Third_Party/Huawei/iot_link/shell\shell_cmd.c ****         }
 666              		.loc 1 211 13 view .LVU191
 211:D:/fchai/work/i-cube/I-CUBE-HUAWEI/Middlewares/Third_Party/Huawei/iot_link/shell\shell_cmd.c ****         }
 667              		.loc 1 211 17 is_stmt 0 view .LVU192
 668 009c 4FF0FF39 		mov	r9, #-1
 669              	.L32:
 235:D:/fchai/work/i-cube/I-CUBE-HUAWEI/Middlewares/Third_Party/Huawei/iot_link/shell\shell_cmd.c **** 
 670              		.loc 1 235 1 view .LVU193
 671 00a0 4846     		mov	r0, r9
 672 00a2 12B0     		add	sp, sp, #72
 673              	.LCFI7:
 674              		.cfi_remember_state
 675              		.cfi_def_cfa_offset 32
 676              		@ sp needed
 677 00a4 BDE8F087 		pop	{r4, r5, r6, r7, r8, r9, r10, pc}
 678              	.LVL58:
 679              	.L35:
 680              	.LCFI8:
 681              		.cfi_restore_state
 682              	.LBB10:
 683              	.LBB7:
 142:D:/fchai/work/i-cube/I-CUBE-HUAWEI/Middlewares/Third_Party/Huawei/iot_link/shell\shell_cmd.c ****             item = &(gs_shell_cb.d[i]);
 684              		.loc 1 142 19 is_stmt 1 view .LVU194
 142:D:/fchai/work/i-cube/I-CUBE-HUAWEI/Middlewares/Third_Party/Huawei/iot_link/shell\shell_cmd.c ****             item = &(gs_shell_cb.d[i]);
ARM GAS  T:\msys\tmp\ccD4SZ3u.s 			page 21


 685              		.loc 1 142 33 is_stmt 0 view .LVU195
 686 00a8 DAF80C80 		ldr	r8, [r10, #12]
 142:D:/fchai/work/i-cube/I-CUBE-HUAWEI/Middlewares/Third_Party/Huawei/iot_link/shell\shell_cmd.c ****             item = &(gs_shell_cb.d[i]);
 687              		.loc 1 142 9 view .LVU196
 688 00ac B8F1000F 		cmp	r8, #0
 689 00b0 2DDD     		ble	.L38
 690 00b2 DAF80840 		ldr	r4, [r10, #8]
 142:D:/fchai/work/i-cube/I-CUBE-HUAWEI/Middlewares/Third_Party/Huawei/iot_link/shell\shell_cmd.c ****             item = &(gs_shell_cb.d[i]);
 691              		.loc 1 142 15 view .LVU197
 692 00b6 0025     		movs	r5, #0
 693 00b8 01E0     		b	.L39
 694              	.LVL59:
 695              	.L64:
 142:D:/fchai/work/i-cube/I-CUBE-HUAWEI/Middlewares/Third_Party/Huawei/iot_link/shell\shell_cmd.c ****             item = &(gs_shell_cb.d[i]);
 696              		.loc 1 142 9 view .LVU198
 697 00ba 4545     		cmp	r5, r8
 698 00bc 27D0     		beq	.L38
 699              	.LVL60:
 700              	.L39:
 143:D:/fchai/work/i-cube/I-CUBE-HUAWEI/Middlewares/Third_Party/Huawei/iot_link/shell\shell_cmd.c ****             if(0 == strcmp(name,item->name)){
 701              		.loc 1 143 13 is_stmt 1 view .LVU199
 144:D:/fchai/work/i-cube/I-CUBE-HUAWEI/Middlewares/Third_Party/Huawei/iot_link/shell\shell_cmd.c ****                 ret = item;
 702              		.loc 1 144 21 is_stmt 0 view .LVU200
 703 00be 2168     		ldr	r1, [r4]
 704 00c0 3846     		mov	r0, r7
 705 00c2 FFF7FEFF 		bl	strcmp
 706              	.LVL61:
 142:D:/fchai/work/i-cube/I-CUBE-HUAWEI/Middlewares/Third_Party/Huawei/iot_link/shell\shell_cmd.c ****             item = &(gs_shell_cb.d[i]);
 707              		.loc 1 142 40 is_stmt 1 view .LVU201
 143:D:/fchai/work/i-cube/I-CUBE-HUAWEI/Middlewares/Third_Party/Huawei/iot_link/shell\shell_cmd.c ****             if(0 == strcmp(name,item->name)){
 708              		.loc 1 143 18 is_stmt 0 view .LVU202
 709 00c6 2646     		mov	r6, r4
 142:D:/fchai/work/i-cube/I-CUBE-HUAWEI/Middlewares/Third_Party/Huawei/iot_link/shell\shell_cmd.c ****             item = &(gs_shell_cb.d[i]);
 710              		.loc 1 142 41 view .LVU203
 711 00c8 0135     		adds	r5, r5, #1
 712              	.LVL62:
 142:D:/fchai/work/i-cube/I-CUBE-HUAWEI/Middlewares/Third_Party/Huawei/iot_link/shell\shell_cmd.c ****             item = &(gs_shell_cb.d[i]);
 713              		.loc 1 142 19 is_stmt 1 view .LVU204
 144:D:/fchai/work/i-cube/I-CUBE-HUAWEI/Middlewares/Third_Party/Huawei/iot_link/shell\shell_cmd.c ****                 ret = item;
 714              		.loc 1 144 13 view .LVU205
 715 00ca 1034     		adds	r4, r4, #16
 716              	.LVL63:
 144:D:/fchai/work/i-cube/I-CUBE-HUAWEI/Middlewares/Third_Party/Huawei/iot_link/shell\shell_cmd.c ****                 ret = item;
 717              		.loc 1 144 15 is_stmt 0 view .LVU206
 718 00cc 0028     		cmp	r0, #0
 719 00ce F4D1     		bne	.L64
 720 00d0 BCE7     		b	.L36
 721              	.LVL64:
 722              	.L60:
 144:D:/fchai/work/i-cube/I-CUBE-HUAWEI/Middlewares/Third_Party/Huawei/iot_link/shell\shell_cmd.c ****                 ret = item;
 723              		.loc 1 144 15 view .LVU207
 724              	.LBE7:
 725              	.LBE10:
 204:D:/fchai/work/i-cube/I-CUBE-HUAWEI/Middlewares/Third_Party/Huawei/iot_link/shell\shell_cmd.c ****         ret = 0;
 726              		.loc 1 204 9 is_stmt 1 view .LVU208
 727 00d2 4946     		mov	r1, r9
 728 00d4 4846     		mov	r0, r9
ARM GAS  T:\msys\tmp\ccD4SZ3u.s 			page 22


 729 00d6 FFF7FEFF 		bl	shell_cmd_help
 730              	.LVL65:
 205:D:/fchai/work/i-cube/I-CUBE-HUAWEI/Middlewares/Third_Party/Huawei/iot_link/shell\shell_cmd.c ****     }
 731              		.loc 1 205 9 view .LVU209
 235:D:/fchai/work/i-cube/I-CUBE-HUAWEI/Middlewares/Third_Party/Huawei/iot_link/shell\shell_cmd.c **** 
 732              		.loc 1 235 1 is_stmt 0 view .LVU210
 733 00da 4846     		mov	r0, r9
 734 00dc 12B0     		add	sp, sp, #72
 735              	.LCFI9:
 736              		.cfi_remember_state
 737              		.cfi_def_cfa_offset 32
 738              		@ sp needed
 739 00de BDE8F087 		pop	{r4, r5, r6, r7, r8, r9, r10, pc}
 740              	.LVL66:
 741              	.L63:
 742              	.LCFI10:
 743              		.cfi_restore_state
 221:D:/fchai/work/i-cube/I-CUBE-HUAWEI/Middlewares/Third_Party/Huawei/iot_link/shell\shell_cmd.c ****                     (void) memcpy(item->addr,&value,item->len);
 744              		.loc 1 221 21 is_stmt 1 view .LVU211
 221:D:/fchai/work/i-cube/I-CUBE-HUAWEI/Middlewares/Third_Party/Huawei/iot_link/shell\shell_cmd.c ****                     (void) memcpy(item->addr,&value,item->len);
 745              		.loc 1 221 29 is_stmt 0 view .LVU212
 746 00e2 0246     		mov	r2, r0
 747 00e4 0146     		mov	r1, r0
 748 00e6 0498     		ldr	r0, [sp, #16]
 749 00e8 FFF7FEFF 		bl	strtol
 750              	.LVL67:
 222:D:/fchai/work/i-cube/I-CUBE-HUAWEI/Middlewares/Third_Party/Huawei/iot_link/shell\shell_cmd.c ****                 }
 751              		.loc 1 222 28 view .LVU213
 752 00ec F289     		ldrh	r2, [r6, #14]
 221:D:/fchai/work/i-cube/I-CUBE-HUAWEI/Middlewares/Third_Party/Huawei/iot_link/shell\shell_cmd.c ****                     (void) memcpy(item->addr,&value,item->len);
 753              		.loc 1 221 29 view .LVU214
 754 00ee 0346     		mov	r3, r0
 222:D:/fchai/work/i-cube/I-CUBE-HUAWEI/Middlewares/Third_Party/Huawei/iot_link/shell\shell_cmd.c ****                 }
 755              		.loc 1 222 28 view .LVU215
 756 00f0 01A9     		add	r1, sp, #4
 757 00f2 B068     		ldr	r0, [r6, #8]
 221:D:/fchai/work/i-cube/I-CUBE-HUAWEI/Middlewares/Third_Party/Huawei/iot_link/shell\shell_cmd.c ****                     (void) memcpy(item->addr,&value,item->len);
 758              		.loc 1 221 27 view .LVU216
 759 00f4 0193     		str	r3, [sp, #4]
 222:D:/fchai/work/i-cube/I-CUBE-HUAWEI/Middlewares/Third_Party/Huawei/iot_link/shell\shell_cmd.c ****                 }
 760              		.loc 1 222 21 is_stmt 1 view .LVU217
 191:D:/fchai/work/i-cube/I-CUBE-HUAWEI/Middlewares/Third_Party/Huawei/iot_link/shell\shell_cmd.c ****     int    argc = cn_shell_args;           //split the params to argc and argv format
 761              		.loc 1 191 11 is_stmt 0 view .LVU218
 762 00f6 4FF0FF39 		mov	r9, #-1
 222:D:/fchai/work/i-cube/I-CUBE-HUAWEI/Middlewares/Third_Party/Huawei/iot_link/shell\shell_cmd.c ****                 }
 763              		.loc 1 222 28 view .LVU219
 764 00fa FFF7FEFF 		bl	memcpy
 765              	.LVL68:
 222:D:/fchai/work/i-cube/I-CUBE-HUAWEI/Middlewares/Third_Party/Huawei/iot_link/shell\shell_cmd.c ****                 }
 766              		.loc 1 222 21 view .LVU220
 767 00fe CFE7     		b	.L32
 768              	.L62:
 215:D:/fchai/work/i-cube/I-CUBE-HUAWEI/Middlewares/Third_Party/Huawei/iot_link/shell\shell_cmd.c ****                 shell_cmd_entry(argc,argv);
 769              		.loc 1 215 17 is_stmt 1 view .LVU221
 770              	.LVL69:
 216:D:/fchai/work/i-cube/I-CUBE-HUAWEI/Middlewares/Third_Party/Huawei/iot_link/shell\shell_cmd.c ****             }
 771              		.loc 1 216 17 view .LVU222
ARM GAS  T:\msys\tmp\ccD4SZ3u.s 			page 23


 772 0100 4846     		mov	r0, r9
 773 0102 B368     		ldr	r3, [r6, #8]
 774 0104 02A9     		add	r1, sp, #8
 775 0106 9847     		blx	r3
 776              	.LVL70:
 191:D:/fchai/work/i-cube/I-CUBE-HUAWEI/Middlewares/Third_Party/Huawei/iot_link/shell\shell_cmd.c ****     int    argc = cn_shell_args;           //split the params to argc and argv format
 777              		.loc 1 191 11 is_stmt 0 view .LVU223
 778 0108 4FF0FF39 		mov	r9, #-1
 779 010c C8E7     		b	.L32
 780              	.LVL71:
 781              	.L38:
 782              	.LBB11:
 783              	.LBB8:
 150:D:/fchai/work/i-cube/I-CUBE-HUAWEI/Middlewares/Third_Party/Huawei/iot_link/shell\shell_cmd.c **** }
 784              		.loc 1 150 5 is_stmt 1 view .LVU224
 150:D:/fchai/work/i-cube/I-CUBE-HUAWEI/Middlewares/Third_Party/Huawei/iot_link/shell\shell_cmd.c **** }
 785              		.loc 1 150 5 is_stmt 0 view .LVU225
 786              	.LBE8:
 787              	.LBE11:
 209:D:/fchai/work/i-cube/I-CUBE-HUAWEI/Middlewares/Third_Party/Huawei/iot_link/shell\shell_cmd.c ****             link_printf("SHELL COMMAND NOT FIND:%s\n\r",argv[0]);
 788              		.loc 1 209 9 is_stmt 1 view .LVU226
 210:D:/fchai/work/i-cube/I-CUBE-HUAWEI/Middlewares/Third_Party/Huawei/iot_link/shell\shell_cmd.c ****             ret = -1;
 789              		.loc 1 210 13 view .LVU227
 210:D:/fchai/work/i-cube/I-CUBE-HUAWEI/Middlewares/Third_Party/Huawei/iot_link/shell\shell_cmd.c ****             ret = -1;
 790              		.loc 1 210 13 view .LVU228
 791 010e 3946     		mov	r1, r7
 792 0110 0748     		ldr	r0, .L65+12
 793 0112 FFF7FEFF 		bl	printf
 794              	.LVL72:
 210:D:/fchai/work/i-cube/I-CUBE-HUAWEI/Middlewares/Third_Party/Huawei/iot_link/shell\shell_cmd.c ****             ret = -1;
 795              		.loc 1 210 13 view .LVU229
 796 0116 044B     		ldr	r3, .L65+4
 797 0118 1B68     		ldr	r3, [r3]
 798 011a 9868     		ldr	r0, [r3, #8]
 799 011c FFF7FEFF 		bl	fflush
 800              	.LVL73:
 801 0120 BCE7     		b	.L59
 802              	.L66:
 803 0122 00BF     		.align	2
 804              	.L65:
 805 0124 00000000 		.word	.LC9
 806 0128 00000000 		.word	_impure_ptr
 807 012c 04000000 		.word	.LC10
 808 0130 20000000 		.word	.LC12
 809 0134 00000000 		.word	.LANCHOR0
 810 0138 18000000 		.word	.LC11
 811              		.cfi_endproc
 812              	.LFE6:
 814              		.section	.text.shell_cmd_init,"ax",%progbits
 815              		.align	1
 816              		.p2align 2,,3
 817              		.global	shell_cmd_init
 818              		.syntax unified
 819              		.thumb
 820              		.thumb_func
 821              		.fpu fpv4-sp-d16
 823              	shell_cmd_init:
ARM GAS  T:\msys\tmp\ccD4SZ3u.s 			page 24


 824              	.LFB7:
 255:D:/fchai/work/i-cube/I-CUBE-HUAWEI/Middlewares/Third_Party/Huawei/iot_link/shell\shell_cmd.c ****     void  *cmd_start = NULL;
 825              		.loc 1 255 27 view -0
 826              		.cfi_startproc
 827              		@ args = 0, pretend = 0, frame = 0
 828              		@ frame_needed = 0, uses_anonymous_args = 0
 829              		@ link register save eliminated.
 256:D:/fchai/work/i-cube/I-CUBE-HUAWEI/Middlewares/Third_Party/Huawei/iot_link/shell\shell_cmd.c ****     unsigned int len = 0;
 830              		.loc 1 256 5 view .LVU231
 831              	.LVL74:
 257:D:/fchai/work/i-cube/I-CUBE-HUAWEI/Middlewares/Third_Party/Huawei/iot_link/shell\shell_cmd.c **** #if defined (__CC_ARM)    //you could add other compiler like this
 832              		.loc 1 257 5 view .LVU232
 262:D:/fchai/work/i-cube/I-CUBE-HUAWEI/Middlewares/Third_Party/Huawei/iot_link/shell\shell_cmd.c ****     len = (unsigned int )&__oshell_end - (unsigned int)&__oshell_start;
 833              		.loc 1 262 5 view .LVU233
 263:D:/fchai/work/i-cube/I-CUBE-HUAWEI/Middlewares/Third_Party/Huawei/iot_link/shell\shell_cmd.c **** #else 
 834              		.loc 1 263 5 view .LVU234
 263:D:/fchai/work/i-cube/I-CUBE-HUAWEI/Middlewares/Third_Party/Huawei/iot_link/shell\shell_cmd.c **** #else 
 835              		.loc 1 263 9 is_stmt 0 view .LVU235
 836 0000 044B     		ldr	r3, .L72
 837 0002 054A     		ldr	r2, .L72+4
 838              	.LVL75:
 267:D:/fchai/work/i-cube/I-CUBE-HUAWEI/Middlewares/Third_Party/Huawei/iot_link/shell\shell_cmd.c ****         len = len/sizeof(struct shell_item_t);
 839              		.loc 1 267 5 is_stmt 1 view .LVU236
 267:D:/fchai/work/i-cube/I-CUBE-HUAWEI/Middlewares/Third_Party/Huawei/iot_link/shell\shell_cmd.c ****         len = len/sizeof(struct shell_item_t);
 840              		.loc 1 267 7 is_stmt 0 view .LVU237
 841 0004 9B1A     		subs	r3, r3, r2
 842              	.LVL76:
 267:D:/fchai/work/i-cube/I-CUBE-HUAWEI/Middlewares/Third_Party/Huawei/iot_link/shell\shell_cmd.c ****         len = len/sizeof(struct shell_item_t);
 843              		.loc 1 267 7 view .LVU238
 844 0006 03D0     		beq	.L68
 268:D:/fchai/work/i-cube/I-CUBE-HUAWEI/Middlewares/Third_Party/Huawei/iot_link/shell\shell_cmd.c ****         gs_shell_cb.s = (struct shell_item_t *)cmd_start;
 845              		.loc 1 268 9 is_stmt 1 view .LVU239
 846              	.LVL77:
 269:D:/fchai/work/i-cube/I-CUBE-HUAWEI/Middlewares/Third_Party/Huawei/iot_link/shell\shell_cmd.c ****         gs_shell_cb.s_num = len;
 847              		.loc 1 269 9 view .LVU240
 269:D:/fchai/work/i-cube/I-CUBE-HUAWEI/Middlewares/Third_Party/Huawei/iot_link/shell\shell_cmd.c ****         gs_shell_cb.s_num = len;
 848              		.loc 1 269 23 is_stmt 0 view .LVU241
 849 0008 0449     		ldr	r1, .L72+8
 268:D:/fchai/work/i-cube/I-CUBE-HUAWEI/Middlewares/Third_Party/Huawei/iot_link/shell\shell_cmd.c ****         gs_shell_cb.s = (struct shell_item_t *)cmd_start;
 850              		.loc 1 268 13 view .LVU242
 851 000a 1B09     		lsrs	r3, r3, #4
 852              	.LVL78:
 269:D:/fchai/work/i-cube/I-CUBE-HUAWEI/Middlewares/Third_Party/Huawei/iot_link/shell\shell_cmd.c ****         gs_shell_cb.s_num = len;
 853              		.loc 1 269 23 view .LVU243
 854 000c C1E90023 		strd	r2, r3, [r1]
 270:D:/fchai/work/i-cube/I-CUBE-HUAWEI/Middlewares/Third_Party/Huawei/iot_link/shell\shell_cmd.c ****     }
 855              		.loc 1 270 9 is_stmt 1 view .LVU244
 856              	.LVL79:
 857              	.L68:
 272:D:/fchai/work/i-cube/I-CUBE-HUAWEI/Middlewares/Third_Party/Huawei/iot_link/shell\shell_cmd.c **** }
 858              		.loc 1 272 5 view .LVU245
 273:D:/fchai/work/i-cube/I-CUBE-HUAWEI/Middlewares/Third_Party/Huawei/iot_link/shell\shell_cmd.c **** 
 859              		.loc 1 273 1 is_stmt 0 view .LVU246
 860 0010 0020     		movs	r0, #0
 861 0012 7047     		bx	lr
 862              	.L73:
 863              		.align	2
ARM GAS  T:\msys\tmp\ccD4SZ3u.s 			page 25


 864              	.L72:
 865 0014 00000000 		.word	__oshell_end
 866 0018 00000000 		.word	__oshell_start
 867 001c 00000000 		.word	.LANCHOR0
 868              		.cfi_endproc
 869              	.LFE7:
 871              		.section	.rodata.str1.4,"aMS",%progbits,1
 872              		.align	2
 873              	.LC13:
 874 0000 68656C70 		.ascii	"help\000"
 874      00
 875 0005 000000   		.align	2
 876              	.LC14:
 877 0008 7368656C 		.ascii	"shellversion\000"
 877      6C766572 
 877      73696F6E 
 877      00
 878 0015 000000   		.align	2
 879              	.LC15:
 880 0018 434D4400 		.ascii	"CMD\000"
 881              		.align	2
 882              	.LC16:
 883 001c 56415200 		.ascii	"VAR\000"
 884              		.section	.bss.gs_shell_cb,"aw",%nobits
 885              		.align	2
 886              		.set	.LANCHOR0,. + 0
 889              	gs_shell_cb:
 890 0000 00000000 		.space	16
 890      00000000 
 890      00000000 
 890      00000000 
 891              		.section	.bss.tab_matches,"aw",%nobits
 892              		.align	2
 893              		.set	.LANCHOR2,. + 0
 896              	tab_matches:
 897 0000 00000000 		.space	68
 897      00000000 
 897      00000000 
 897      00000000 
 897      00000000 
 898              		.section	.rodata.gs_os_shell_type,"a"
 899              		.align	2
 900              		.set	.LANCHOR1,. + 0
 903              	gs_os_shell_type:
 904 0000 18000000 		.word	.LC15
 905 0004 1C000000 		.word	.LC16
 906              		.section	oshell,"a"
 907              		.align	2
 910              	__oshell_shell_cmd_help:
 911 0000 00000000 		.word	.LC13
 912 0004 00000000 		.word	.LC13
 913 0008 00000000 		.word	shell_cmd_help
 914 000c 0000     		.short	0
 915 000e 0400     		.short	4
 918              	__oshell_os_shell_version:
 919 0010 08000000 		.word	.LC14
 920 0014 08000000 		.word	.LC14
ARM GAS  T:\msys\tmp\ccD4SZ3u.s 			page 26


 921 0018 00000000 		.word	os_shell_version
 922 001c 0000     		.short	0
 923 001e 0400     		.short	4
 924              		.text
 925              	.Letext0:
 926              		.file 2 "t:\\msys\\3rd\\gcc-arm-none-eabi-9-2020-q2-update-win32\\lib\\gcc\\arm-none-eabi\\9.3.1\\
 927              		.file 3 "t:\\msys\\3rd\\gcc-arm-none-eabi-9-2020-q2-update-win32\\arm-none-eabi\\include\\sys\\_ty
 928              		.file 4 "t:\\msys\\3rd\\gcc-arm-none-eabi-9-2020-q2-update-win32\\arm-none-eabi\\include\\sys\\ree
 929              		.file 5 "t:\\msys\\3rd\\gcc-arm-none-eabi-9-2020-q2-update-win32\\arm-none-eabi\\include\\sys\\loc
 930              		.file 6 "t:\\msys\\3rd\\gcc-arm-none-eabi-9-2020-q2-update-win32\\arm-none-eabi\\include\\stdlib.h
 931              		.file 7 "D:/fchai/work/i-cube/I-CUBE-HUAWEI/Middlewares/Third_Party/Huawei/iot_link/inc/shell.h"
 932              		.file 8 "t:\\msys\\3rd\\gcc-arm-none-eabi-9-2020-q2-update-win32\\arm-none-eabi\\include\\stdio.h"
 933              		.file 9 "t:\\msys\\3rd\\gcc-arm-none-eabi-9-2020-q2-update-win32\\arm-none-eabi\\include\\string.h
 934              		.file 10 "D:/fchai/work/i-cube/I-CUBE-HUAWEI/Middlewares/Third_Party/Huawei/iot_link/link_misc/lin
 935              		.file 11 "<built-in>"
ARM GAS  T:\msys\tmp\ccD4SZ3u.s 			page 27

