ARM GAS  T:\msys\tmp\ccldiPcz.s 			page 1


   1              		.cpu cortex-m4
   2              		.eabi_attribute 27, 1
   3              		.eabi_attribute 28, 1
   4              		.eabi_attribute 20, 1
   5              		.eabi_attribute 21, 1
   6              		.eabi_attribute 23, 3
   7              		.eabi_attribute 24, 1
   8              		.eabi_attribute 25, 1
   9              		.eabi_attribute 26, 1
  10              		.eabi_attribute 30, 2
  11              		.eabi_attribute 34, 1
  12              		.eabi_attribute 18, 4
  13              		.file	"shell_main.c"
  14              		.text
  15              	.Ltext0:
  16              		.cfi_sections	.debug_frame
  17              		.section	.text.shell_put_space,"ax",%progbits
  18              		.align	1
  19              		.p2align 2,,3
  20              		.arch armv7e-m
  21              		.syntax unified
  22              		.thumb
  23              		.thumb_func
  24              		.fpu fpv4-sp-d16
  26              	shell_put_space:
  27              	.LVL0:
  28              	.LFB8:
  29              		.file 1 "D:/fchai/work/i-cube/I-CUBE-HUAWEI/Middlewares/Third_Party/Huawei/iot_link/shell/shell_ma
   1:D:/fchai/work/i-cube/I-CUBE-HUAWEI/Middlewares/Third_Party/Huawei/iot_link/shell\shell_main.c **** /*----------------------------------------------------------------------------
   2:D:/fchai/work/i-cube/I-CUBE-HUAWEI/Middlewares/Third_Party/Huawei/iot_link/shell\shell_main.c ****  * Copyright (c) <2018>, <Huawei Technologies Co., Ltd>
   3:D:/fchai/work/i-cube/I-CUBE-HUAWEI/Middlewares/Third_Party/Huawei/iot_link/shell\shell_main.c ****  * All rights reserved.
   4:D:/fchai/work/i-cube/I-CUBE-HUAWEI/Middlewares/Third_Party/Huawei/iot_link/shell\shell_main.c ****  * Redistribution and use in source and binary forms, with or without modification,
   5:D:/fchai/work/i-cube/I-CUBE-HUAWEI/Middlewares/Third_Party/Huawei/iot_link/shell\shell_main.c ****  * are permitted provided that the following conditions are met:
   6:D:/fchai/work/i-cube/I-CUBE-HUAWEI/Middlewares/Third_Party/Huawei/iot_link/shell\shell_main.c ****  * 1. Redistributions of source code must retain the above copyright notice, this list of
   7:D:/fchai/work/i-cube/I-CUBE-HUAWEI/Middlewares/Third_Party/Huawei/iot_link/shell\shell_main.c ****  * conditions and the following disclaimer.
   8:D:/fchai/work/i-cube/I-CUBE-HUAWEI/Middlewares/Third_Party/Huawei/iot_link/shell\shell_main.c ****  * 2. Redistributions in binary form must reproduce the above copyright notice, this list
   9:D:/fchai/work/i-cube/I-CUBE-HUAWEI/Middlewares/Third_Party/Huawei/iot_link/shell\shell_main.c ****  * of conditions and the following disclaimer in the documentation and/or other materials
  10:D:/fchai/work/i-cube/I-CUBE-HUAWEI/Middlewares/Third_Party/Huawei/iot_link/shell\shell_main.c ****  * provided with the distribution.
  11:D:/fchai/work/i-cube/I-CUBE-HUAWEI/Middlewares/Third_Party/Huawei/iot_link/shell\shell_main.c ****  * 3. Neither the name of the copyright holder nor the names of its contributors may be used
  12:D:/fchai/work/i-cube/I-CUBE-HUAWEI/Middlewares/Third_Party/Huawei/iot_link/shell\shell_main.c ****  * to endorse or promote products derived from this software without specific prior written
  13:D:/fchai/work/i-cube/I-CUBE-HUAWEI/Middlewares/Third_Party/Huawei/iot_link/shell\shell_main.c ****  * permission.
  14:D:/fchai/work/i-cube/I-CUBE-HUAWEI/Middlewares/Third_Party/Huawei/iot_link/shell\shell_main.c ****  * THIS SOFTWARE IS PROVIDED BY THE COPYRIGHT HOLDERS AND CONTRIBUTORS
  15:D:/fchai/work/i-cube/I-CUBE-HUAWEI/Middlewares/Third_Party/Huawei/iot_link/shell\shell_main.c ****  * "AS IS" AND ANY EXPRESS OR IMPLIED WARRANTIES, INCLUDING, BUT NOT LIMITED TO,
  16:D:/fchai/work/i-cube/I-CUBE-HUAWEI/Middlewares/Third_Party/Huawei/iot_link/shell\shell_main.c ****  * THE IMPLIED WARRANTIES OF MERCHANTABILITY AND FITNESS FOR A PARTICULAR
  17:D:/fchai/work/i-cube/I-CUBE-HUAWEI/Middlewares/Third_Party/Huawei/iot_link/shell\shell_main.c ****  * PURPOSE ARE DISCLAIMED. IN NO EVENT SHALL THE COPYRIGHT HOLDER OR
  18:D:/fchai/work/i-cube/I-CUBE-HUAWEI/Middlewares/Third_Party/Huawei/iot_link/shell\shell_main.c ****  * CONTRIBUTORS BE LIABLE FOR ANY DIRECT, INDIRECT, INCIDENTAL, SPECIAL,
  19:D:/fchai/work/i-cube/I-CUBE-HUAWEI/Middlewares/Third_Party/Huawei/iot_link/shell\shell_main.c ****  * EXEMPLARY, OR CONSEQUENTIAL DAMAGES (INCLUDING, BUT NOT LIMITED TO,
  20:D:/fchai/work/i-cube/I-CUBE-HUAWEI/Middlewares/Third_Party/Huawei/iot_link/shell\shell_main.c ****  * PROCUREMENT OF SUBSTITUTE GOODS OR SERVICES; LOSS OF USE, DATA, OR PROFITS;
  21:D:/fchai/work/i-cube/I-CUBE-HUAWEI/Middlewares/Third_Party/Huawei/iot_link/shell\shell_main.c ****  * OR BUSINESS INTERRUPTION) HOWEVER CAUSED AND ON ANY THEORY OF LIABILITY,
  22:D:/fchai/work/i-cube/I-CUBE-HUAWEI/Middlewares/Third_Party/Huawei/iot_link/shell\shell_main.c ****  * WHETHER IN CONTRACT, STRICT LIABILITY, OR TORT (INCLUDING NEGLIGENCE OR
  23:D:/fchai/work/i-cube/I-CUBE-HUAWEI/Middlewares/Third_Party/Huawei/iot_link/shell\shell_main.c ****  * OTHERWISE) ARISING IN ANY WAY OUT OF THE USE OF THIS SOFTWARE, EVEN IF
  24:D:/fchai/work/i-cube/I-CUBE-HUAWEI/Middlewares/Third_Party/Huawei/iot_link/shell\shell_main.c ****  * ADVISED OF THE POSSIBILITY OF SUCH DAMAGE.
  25:D:/fchai/work/i-cube/I-CUBE-HUAWEI/Middlewares/Third_Party/Huawei/iot_link/shell\shell_main.c ****  *---------------------------------------------------------------------------*/
  26:D:/fchai/work/i-cube/I-CUBE-HUAWEI/Middlewares/Third_Party/Huawei/iot_link/shell\shell_main.c **** /*----------------------------------------------------------------------------
  27:D:/fchai/work/i-cube/I-CUBE-HUAWEI/Middlewares/Third_Party/Huawei/iot_link/shell\shell_main.c ****  * Notice of Export Control Law
  28:D:/fchai/work/i-cube/I-CUBE-HUAWEI/Middlewares/Third_Party/Huawei/iot_link/shell\shell_main.c ****  * ===============================================
  29:D:/fchai/work/i-cube/I-CUBE-HUAWEI/Middlewares/Third_Party/Huawei/iot_link/shell\shell_main.c ****  * Huawei LiteOS may be subject to applicable export control laws and regulations, which might
ARM GAS  T:\msys\tmp\ccldiPcz.s 			page 2


  30:D:/fchai/work/i-cube/I-CUBE-HUAWEI/Middlewares/Third_Party/Huawei/iot_link/shell\shell_main.c ****  * include those applicable to Huawei LiteOS of U.S. and the country in which you are located.
  31:D:/fchai/work/i-cube/I-CUBE-HUAWEI/Middlewares/Third_Party/Huawei/iot_link/shell\shell_main.c ****  * Import, export and usage of Huawei LiteOS in any manner by you shall be in compliance with such
  32:D:/fchai/work/i-cube/I-CUBE-HUAWEI/Middlewares/Third_Party/Huawei/iot_link/shell\shell_main.c ****  * applicable export control laws and regulations.
  33:D:/fchai/work/i-cube/I-CUBE-HUAWEI/Middlewares/Third_Party/Huawei/iot_link/shell\shell_main.c ****  *---------------------------------------------------------------------------*/
  34:D:/fchai/work/i-cube/I-CUBE-HUAWEI/Middlewares/Third_Party/Huawei/iot_link/shell\shell_main.c **** /**
  35:D:/fchai/work/i-cube/I-CUBE-HUAWEI/Middlewares/Third_Party/Huawei/iot_link/shell\shell_main.c ****  *  DATE                AUTHOR      INSTRUCTION
  36:D:/fchai/work/i-cube/I-CUBE-HUAWEI/Middlewares/Third_Party/Huawei/iot_link/shell\shell_main.c ****  *  2019-05-14 17:22  zhangqianfu  The first version
  37:D:/fchai/work/i-cube/I-CUBE-HUAWEI/Middlewares/Third_Party/Huawei/iot_link/shell\shell_main.c ****  *
  38:D:/fchai/work/i-cube/I-CUBE-HUAWEI/Middlewares/Third_Party/Huawei/iot_link/shell\shell_main.c ****  */
  39:D:/fchai/work/i-cube/I-CUBE-HUAWEI/Middlewares/Third_Party/Huawei/iot_link/shell\shell_main.c **** 
  40:D:/fchai/work/i-cube/I-CUBE-HUAWEI/Middlewares/Third_Party/Huawei/iot_link/shell\shell_main.c **** /**********************************README***************************************
  41:D:/fchai/work/i-cube/I-CUBE-HUAWEI/Middlewares/Third_Party/Huawei/iot_link/shell\shell_main.c **** this file implement the shell for the system.the following instruction you must take care!
  42:D:/fchai/work/i-cube/I-CUBE-HUAWEI/Middlewares/Third_Party/Huawei/iot_link/shell\shell_main.c **** 1,anyway,you should implement the getchar and puchar first,maybe you could do the redirection here
  43:D:/fchai/work/i-cube/I-CUBE-HUAWEI/Middlewares/Third_Party/Huawei/iot_link/shell\shell_main.c ****   i don't care what the stdin and stdout is,that depends you!
  44:D:/fchai/work/i-cube/I-CUBE-HUAWEI/Middlewares/Third_Party/Huawei/iot_link/shell\shell_main.c **** 2,you could call the shell_install after the system is up!for we will create task here
  45:D:/fchai/work/i-cube/I-CUBE-HUAWEI/Middlewares/Third_Party/Huawei/iot_link/shell\shell_main.c **** 3,we will do the echo in the shell server:only for the isprint charactor
  46:D:/fchai/work/i-cube/I-CUBE-HUAWEI/Middlewares/Third_Party/Huawei/iot_link/shell\shell_main.c **** 4,1B XX 41 move the current cursor up
  47:D:/fchai/work/i-cube/I-CUBE-HUAWEI/Middlewares/Third_Party/Huawei/iot_link/shell\shell_main.c **** 5,1B XX 42 move the current cursor down
  48:D:/fchai/work/i-cube/I-CUBE-HUAWEI/Middlewares/Third_Party/Huawei/iot_link/shell\shell_main.c **** 6,1B XX 44 move the current cursor left
  49:D:/fchai/work/i-cube/I-CUBE-HUAWEI/Middlewares/Third_Party/Huawei/iot_link/shell\shell_main.c **** 7,1B XX 43 move the current cursor right
  50:D:/fchai/work/i-cube/I-CUBE-HUAWEI/Middlewares/Third_Party/Huawei/iot_link/shell\shell_main.c **** 8,'\B' move the current cursor left
  51:D:/fchai/work/i-cube/I-CUBE-HUAWEI/Middlewares/Third_Party/Huawei/iot_link/shell\shell_main.c **** 9,1B delete all the input and make the following code transfer
  52:D:/fchai/work/i-cube/I-CUBE-HUAWEI/Middlewares/Third_Party/Huawei/iot_link/shell\shell_main.c **** 10,support insert dynamicly, which implemented  by lynus, thanks
  53:D:/fchai/work/i-cube/I-CUBE-HUAWEI/Middlewares/Third_Party/Huawei/iot_link/shell\shell_main.c **** *******************************************************************************/
  54:D:/fchai/work/i-cube/I-CUBE-HUAWEI/Middlewares/Third_Party/Huawei/iot_link/shell\shell_main.c **** 
  55:D:/fchai/work/i-cube/I-CUBE-HUAWEI/Middlewares/Third_Party/Huawei/iot_link/shell\shell_main.c **** /**************************************FILE INCLIUDES**************************/
  56:D:/fchai/work/i-cube/I-CUBE-HUAWEI/Middlewares/Third_Party/Huawei/iot_link/shell\shell_main.c **** 
  57:D:/fchai/work/i-cube/I-CUBE-HUAWEI/Middlewares/Third_Party/Huawei/iot_link/shell\shell_main.c **** #include <stdint.h>
  58:D:/fchai/work/i-cube/I-CUBE-HUAWEI/Middlewares/Third_Party/Huawei/iot_link/shell\shell_main.c **** #include <stddef.h>
  59:D:/fchai/work/i-cube/I-CUBE-HUAWEI/Middlewares/Third_Party/Huawei/iot_link/shell\shell_main.c **** #include <stdio.h>
  60:D:/fchai/work/i-cube/I-CUBE-HUAWEI/Middlewares/Third_Party/Huawei/iot_link/shell\shell_main.c **** #include <string.h>
  61:D:/fchai/work/i-cube/I-CUBE-HUAWEI/Middlewares/Third_Party/Huawei/iot_link/shell\shell_main.c **** #include <shell.h>
  62:D:/fchai/work/i-cube/I-CUBE-HUAWEI/Middlewares/Third_Party/Huawei/iot_link/shell\shell_main.c **** #include <link_log.h>
  63:D:/fchai/work/i-cube/I-CUBE-HUAWEI/Middlewares/Third_Party/Huawei/iot_link/shell\shell_main.c **** #include <osal.h>
  64:D:/fchai/work/i-cube/I-CUBE-HUAWEI/Middlewares/Third_Party/Huawei/iot_link/shell\shell_main.c **** 
  65:D:/fchai/work/i-cube/I-CUBE-HUAWEI/Middlewares/Third_Party/Huawei/iot_link/shell\shell_main.c **** /**************************************FILE DEFINES****************************/
  66:D:/fchai/work/i-cube/I-CUBE-HUAWEI/Middlewares/Third_Party/Huawei/iot_link/shell\shell_main.c **** //DEFINE VIRTUAL KEYS:VIRTUAL KEYS ARE COMBINED BY:0X1b 0xXX CODE
  67:D:/fchai/work/i-cube/I-CUBE-HUAWEI/Middlewares/Third_Party/Huawei/iot_link/shell\shell_main.c **** #define CN_VIRTUAL_KEY_NULL         (0x000000)    //NULL
  68:D:/fchai/work/i-cube/I-CUBE-HUAWEI/Middlewares/Third_Party/Huawei/iot_link/shell\shell_main.c **** #define CN_VIRTUAL_KEY_ARROWU       (0X41001B)    //UP
  69:D:/fchai/work/i-cube/I-CUBE-HUAWEI/Middlewares/Third_Party/Huawei/iot_link/shell\shell_main.c **** #define CN_VIRTUAL_KEY_ARROWD       (0X42001B)    //DOWN
  70:D:/fchai/work/i-cube/I-CUBE-HUAWEI/Middlewares/Third_Party/Huawei/iot_link/shell\shell_main.c **** #define CN_VIRTUAL_KEY_ARROWR       (0X43001B)    //RIGHT
  71:D:/fchai/work/i-cube/I-CUBE-HUAWEI/Middlewares/Third_Party/Huawei/iot_link/shell\shell_main.c **** #define CN_VIRTUAL_KEY_ARROWL       (0X44001B)    //LEFT
  72:D:/fchai/work/i-cube/I-CUBE-HUAWEI/Middlewares/Third_Party/Huawei/iot_link/shell\shell_main.c **** //DEFINE SOME SPECIAL KEYS 
  73:D:/fchai/work/i-cube/I-CUBE-HUAWEI/Middlewares/Third_Party/Huawei/iot_link/shell\shell_main.c **** #define CN_KEY_LF                   (0X00000D)    //ENTER
  74:D:/fchai/work/i-cube/I-CUBE-HUAWEI/Middlewares/Third_Party/Huawei/iot_link/shell\shell_main.c **** #define CN_KEY_CR                   (0X00000A)    //NEW
  75:D:/fchai/work/i-cube/I-CUBE-HUAWEI/Middlewares/Third_Party/Huawei/iot_link/shell\shell_main.c **** #define CN_KEY_TAB                  (0X000009)    //TAB
  76:D:/fchai/work/i-cube/I-CUBE-HUAWEI/Middlewares/Third_Party/Huawei/iot_link/shell\shell_main.c **** #define CN_KEY_BS                   (0X000008)    //BACK
  77:D:/fchai/work/i-cube/I-CUBE-HUAWEI/Middlewares/Third_Party/Huawei/iot_link/shell\shell_main.c **** #define CN_KEY_ES                   (0X00001B)    //ESPACE
  78:D:/fchai/work/i-cube/I-CUBE-HUAWEI/Middlewares/Third_Party/Huawei/iot_link/shell\shell_main.c **** //DEFINES FOR THE COMMAND CACHE BUFFER
  79:D:/fchai/work/i-cube/I-CUBE-HUAWEI/Middlewares/Third_Party/Huawei/iot_link/shell\shell_main.c **** #define CN_CMDLEN_MAX  64  //THE COMMAND MAXLENGTH COULD CACHED
  80:D:/fchai/work/i-cube/I-CUBE-HUAWEI/Middlewares/Third_Party/Huawei/iot_link/shell\shell_main.c **** #define CN_CMD_CACHE   4   //THE COMMAND CACHED DEPTH
  81:D:/fchai/work/i-cube/I-CUBE-HUAWEI/Middlewares/Third_Party/Huawei/iot_link/shell\shell_main.c **** //DEFINES FOR THE SHELL SERVER TASK STACK SIZE
  82:D:/fchai/work/i-cube/I-CUBE-HUAWEI/Middlewares/Third_Party/Huawei/iot_link/shell\shell_main.c **** 
  83:D:/fchai/work/i-cube/I-CUBE-HUAWEI/Middlewares/Third_Party/Huawei/iot_link/shell\shell_main.c **** #ifndef  CONFIG_SHELL_TASK_STACKSIZE
  84:D:/fchai/work/i-cube/I-CUBE-HUAWEI/Middlewares/Third_Party/Huawei/iot_link/shell\shell_main.c **** #define  CONFIG_SHELL_TASK_STACKSIZE   0x800
  85:D:/fchai/work/i-cube/I-CUBE-HUAWEI/Middlewares/Third_Party/Huawei/iot_link/shell\shell_main.c **** #endif
  86:D:/fchai/work/i-cube/I-CUBE-HUAWEI/Middlewares/Third_Party/Huawei/iot_link/shell\shell_main.c **** 
ARM GAS  T:\msys\tmp\ccldiPcz.s 			page 3


  87:D:/fchai/work/i-cube/I-CUBE-HUAWEI/Middlewares/Third_Party/Huawei/iot_link/shell\shell_main.c **** 
  88:D:/fchai/work/i-cube/I-CUBE-HUAWEI/Middlewares/Third_Party/Huawei/iot_link/shell\shell_main.c **** #ifndef  CONFIG_SHELL_TASK_STACKPRIOR
  89:D:/fchai/work/i-cube/I-CUBE-HUAWEI/Middlewares/Third_Party/Huawei/iot_link/shell\shell_main.c **** #define  CONFIG_SHELL_TASK_STACKPRIOR  10
  90:D:/fchai/work/i-cube/I-CUBE-HUAWEI/Middlewares/Third_Party/Huawei/iot_link/shell\shell_main.c **** #endif
  91:D:/fchai/work/i-cube/I-CUBE-HUAWEI/Middlewares/Third_Party/Huawei/iot_link/shell\shell_main.c **** 
  92:D:/fchai/work/i-cube/I-CUBE-HUAWEI/Middlewares/Third_Party/Huawei/iot_link/shell\shell_main.c **** 
  93:D:/fchai/work/i-cube/I-CUBE-HUAWEI/Middlewares/Third_Party/Huawei/iot_link/shell\shell_main.c **** /**************************************FILE DATA STRUCTURE*********************/
  94:D:/fchai/work/i-cube/I-CUBE-HUAWEI/Middlewares/Third_Party/Huawei/iot_link/shell\shell_main.c **** //data structure used for cache the command
  95:D:/fchai/work/i-cube/I-CUBE-HUAWEI/Middlewares/Third_Party/Huawei/iot_link/shell\shell_main.c **** struct shell_buffer_t
  96:D:/fchai/work/i-cube/I-CUBE-HUAWEI/Middlewares/Third_Party/Huawei/iot_link/shell\shell_main.c **** {
  97:D:/fchai/work/i-cube/I-CUBE-HUAWEI/Middlewares/Third_Party/Huawei/iot_link/shell\shell_main.c ****     char             curcmd[CN_CMDLEN_MAX];               //current command edited
  98:D:/fchai/work/i-cube/I-CUBE-HUAWEI/Middlewares/Third_Party/Huawei/iot_link/shell\shell_main.c ****     unsigned char    curoffset;                           //position to be edit
  99:D:/fchai/work/i-cube/I-CUBE-HUAWEI/Middlewares/Third_Party/Huawei/iot_link/shell\shell_main.c ****     char             tab[CN_CMD_CACHE][CN_CMDLEN_MAX];    //command cache table
 100:D:/fchai/work/i-cube/I-CUBE-HUAWEI/Middlewares/Third_Party/Huawei/iot_link/shell\shell_main.c ****     unsigned char    taboffset;                           //position to be cached in table
 101:D:/fchai/work/i-cube/I-CUBE-HUAWEI/Middlewares/Third_Party/Huawei/iot_link/shell\shell_main.c **** };
 102:D:/fchai/work/i-cube/I-CUBE-HUAWEI/Middlewares/Third_Party/Huawei/iot_link/shell\shell_main.c **** 
 103:D:/fchai/work/i-cube/I-CUBE-HUAWEI/Middlewares/Third_Party/Huawei/iot_link/shell\shell_main.c **** /**************************************FILE VARS*******************************/
 104:D:/fchai/work/i-cube/I-CUBE-HUAWEI/Middlewares/Third_Party/Huawei/iot_link/shell\shell_main.c **** //define your global variables here
 105:D:/fchai/work/i-cube/I-CUBE-HUAWEI/Middlewares/Third_Party/Huawei/iot_link/shell\shell_main.c **** static  char *gs_welcome_info= "WELCOME TO IOT_LINK SHELL";
 106:D:/fchai/work/i-cube/I-CUBE-HUAWEI/Middlewares/Third_Party/Huawei/iot_link/shell\shell_main.c **** /**************************************FILE FUNCTIONS**************************/
 107:D:/fchai/work/i-cube/I-CUBE-HUAWEI/Middlewares/Third_Party/Huawei/iot_link/shell\shell_main.c **** //functions import
 108:D:/fchai/work/i-cube/I-CUBE-HUAWEI/Middlewares/Third_Party/Huawei/iot_link/shell\shell_main.c **** extern int shell_cmd_execute(char *param);            //execute the command
 109:D:/fchai/work/i-cube/I-CUBE-HUAWEI/Middlewares/Third_Party/Huawei/iot_link/shell\shell_main.c **** extern int shell_cmd_init(void);                      //do the command table load
 110:D:/fchai/work/i-cube/I-CUBE-HUAWEI/Middlewares/Third_Party/Huawei/iot_link/shell\shell_main.c **** extern const struct shell_tab_matches *shell_cmd_index(const char *index);  //find the most like co
 111:D:/fchai/work/i-cube/I-CUBE-HUAWEI/Middlewares/Third_Party/Huawei/iot_link/shell\shell_main.c **** 
 112:D:/fchai/work/i-cube/I-CUBE-HUAWEI/Middlewares/Third_Party/Huawei/iot_link/shell\shell_main.c **** 
 113:D:/fchai/work/i-cube/I-CUBE-HUAWEI/Middlewares/Third_Party/Huawei/iot_link/shell\shell_main.c **** /**************************************FUNCTION IMPLEMENT**********************/
 114:D:/fchai/work/i-cube/I-CUBE-HUAWEI/Middlewares/Third_Party/Huawei/iot_link/shell\shell_main.c **** /*******************************************************************************
 115:D:/fchai/work/i-cube/I-CUBE-HUAWEI/Middlewares/Third_Party/Huawei/iot_link/shell\shell_main.c **** function     :function used to get char from the input device
 116:D:/fchai/work/i-cube/I-CUBE-HUAWEI/Middlewares/Third_Party/Huawei/iot_link/shell\shell_main.c **** parameters   :
 117:D:/fchai/work/i-cube/I-CUBE-HUAWEI/Middlewares/Third_Party/Huawei/iot_link/shell\shell_main.c **** instruction  :you could reimplement by redirection,make sure it is block mode
 118:D:/fchai/work/i-cube/I-CUBE-HUAWEI/Middlewares/Third_Party/Huawei/iot_link/shell\shell_main.c **** *******************************************************************************/
 119:D:/fchai/work/i-cube/I-CUBE-HUAWEI/Middlewares/Third_Party/Huawei/iot_link/shell\shell_main.c **** static int shell_get_char()
 120:D:/fchai/work/i-cube/I-CUBE-HUAWEI/Middlewares/Third_Party/Huawei/iot_link/shell\shell_main.c **** {
 121:D:/fchai/work/i-cube/I-CUBE-HUAWEI/Middlewares/Third_Party/Huawei/iot_link/shell\shell_main.c ****     return getchar();
 122:D:/fchai/work/i-cube/I-CUBE-HUAWEI/Middlewares/Third_Party/Huawei/iot_link/shell\shell_main.c **** }
 123:D:/fchai/work/i-cube/I-CUBE-HUAWEI/Middlewares/Third_Party/Huawei/iot_link/shell\shell_main.c **** /*******************************************************************************
 124:D:/fchai/work/i-cube/I-CUBE-HUAWEI/Middlewares/Third_Party/Huawei/iot_link/shell\shell_main.c **** function     :function used to put char to the output device
 125:D:/fchai/work/i-cube/I-CUBE-HUAWEI/Middlewares/Third_Party/Huawei/iot_link/shell\shell_main.c **** parameters   :
 126:D:/fchai/work/i-cube/I-CUBE-HUAWEI/Middlewares/Third_Party/Huawei/iot_link/shell\shell_main.c **** instruction  :you could reimplement by redirection
 127:D:/fchai/work/i-cube/I-CUBE-HUAWEI/Middlewares/Third_Party/Huawei/iot_link/shell\shell_main.c **** *******************************************************************************/
 128:D:/fchai/work/i-cube/I-CUBE-HUAWEI/Middlewares/Third_Party/Huawei/iot_link/shell\shell_main.c **** static void shell_put_char(int ch)
 129:D:/fchai/work/i-cube/I-CUBE-HUAWEI/Middlewares/Third_Party/Huawei/iot_link/shell\shell_main.c **** {
 130:D:/fchai/work/i-cube/I-CUBE-HUAWEI/Middlewares/Third_Party/Huawei/iot_link/shell\shell_main.c ****     link_printf("%c",ch);
 131:D:/fchai/work/i-cube/I-CUBE-HUAWEI/Middlewares/Third_Party/Huawei/iot_link/shell\shell_main.c **** }
 132:D:/fchai/work/i-cube/I-CUBE-HUAWEI/Middlewares/Third_Party/Huawei/iot_link/shell\shell_main.c **** 
 133:D:/fchai/work/i-cube/I-CUBE-HUAWEI/Middlewares/Third_Party/Huawei/iot_link/shell\shell_main.c **** /*******************************************************************************
 134:D:/fchai/work/i-cube/I-CUBE-HUAWEI/Middlewares/Third_Party/Huawei/iot_link/shell\shell_main.c **** function     :function used to put a string
 135:D:/fchai/work/i-cube/I-CUBE-HUAWEI/Middlewares/Third_Party/Huawei/iot_link/shell\shell_main.c **** parameters   :
 136:D:/fchai/work/i-cube/I-CUBE-HUAWEI/Middlewares/Third_Party/Huawei/iot_link/shell\shell_main.c **** instruction  :you could reimplement by redirection
 137:D:/fchai/work/i-cube/I-CUBE-HUAWEI/Middlewares/Third_Party/Huawei/iot_link/shell\shell_main.c **** *******************************************************************************/
 138:D:/fchai/work/i-cube/I-CUBE-HUAWEI/Middlewares/Third_Party/Huawei/iot_link/shell\shell_main.c **** static void  shell_put_string(const char *str)
 139:D:/fchai/work/i-cube/I-CUBE-HUAWEI/Middlewares/Third_Party/Huawei/iot_link/shell\shell_main.c **** {
 140:D:/fchai/work/i-cube/I-CUBE-HUAWEI/Middlewares/Third_Party/Huawei/iot_link/shell\shell_main.c ****     int len;
 141:D:/fchai/work/i-cube/I-CUBE-HUAWEI/Middlewares/Third_Party/Huawei/iot_link/shell\shell_main.c ****     int i;
 142:D:/fchai/work/i-cube/I-CUBE-HUAWEI/Middlewares/Third_Party/Huawei/iot_link/shell\shell_main.c ****     len = strlen(str);
 143:D:/fchai/work/i-cube/I-CUBE-HUAWEI/Middlewares/Third_Party/Huawei/iot_link/shell\shell_main.c ****     for(i =0;i<len;i++)
ARM GAS  T:\msys\tmp\ccldiPcz.s 			page 4


 144:D:/fchai/work/i-cube/I-CUBE-HUAWEI/Middlewares/Third_Party/Huawei/iot_link/shell\shell_main.c ****     {
 145:D:/fchai/work/i-cube/I-CUBE-HUAWEI/Middlewares/Third_Party/Huawei/iot_link/shell\shell_main.c ****         shell_put_char(*str);
 146:D:/fchai/work/i-cube/I-CUBE-HUAWEI/Middlewares/Third_Party/Huawei/iot_link/shell\shell_main.c ****         str++;
 147:D:/fchai/work/i-cube/I-CUBE-HUAWEI/Middlewares/Third_Party/Huawei/iot_link/shell\shell_main.c ****     }
 148:D:/fchai/work/i-cube/I-CUBE-HUAWEI/Middlewares/Third_Party/Huawei/iot_link/shell\shell_main.c **** }
 149:D:/fchai/work/i-cube/I-CUBE-HUAWEI/Middlewares/Third_Party/Huawei/iot_link/shell\shell_main.c **** 
 150:D:/fchai/work/i-cube/I-CUBE-HUAWEI/Middlewares/Third_Party/Huawei/iot_link/shell\shell_main.c **** /*******************************************************************************
 151:D:/fchai/work/i-cube/I-CUBE-HUAWEI/Middlewares/Third_Party/Huawei/iot_link/shell\shell_main.c **** function     :function used to print the path index
 152:D:/fchai/work/i-cube/I-CUBE-HUAWEI/Middlewares/Third_Party/Huawei/iot_link/shell\shell_main.c **** parameters   :
 153:D:/fchai/work/i-cube/I-CUBE-HUAWEI/Middlewares/Third_Party/Huawei/iot_link/shell\shell_main.c **** instruction  :if you has a getcwd function,you could modify this
 154:D:/fchai/work/i-cube/I-CUBE-HUAWEI/Middlewares/Third_Party/Huawei/iot_link/shell\shell_main.c **** *******************************************************************************/
 155:D:/fchai/work/i-cube/I-CUBE-HUAWEI/Middlewares/Third_Party/Huawei/iot_link/shell\shell_main.c **** static void shell_put_index()
 156:D:/fchai/work/i-cube/I-CUBE-HUAWEI/Middlewares/Third_Party/Huawei/iot_link/shell\shell_main.c **** {
 157:D:/fchai/work/i-cube/I-CUBE-HUAWEI/Middlewares/Third_Party/Huawei/iot_link/shell\shell_main.c ****     shell_put_string("\n\rLiteOS:/>");
 158:D:/fchai/work/i-cube/I-CUBE-HUAWEI/Middlewares/Third_Party/Huawei/iot_link/shell\shell_main.c **** }
 159:D:/fchai/work/i-cube/I-CUBE-HUAWEI/Middlewares/Third_Party/Huawei/iot_link/shell\shell_main.c **** 
 160:D:/fchai/work/i-cube/I-CUBE-HUAWEI/Middlewares/Third_Party/Huawei/iot_link/shell\shell_main.c **** /*******************************************************************************
 161:D:/fchai/work/i-cube/I-CUBE-HUAWEI/Middlewares/Third_Party/Huawei/iot_link/shell\shell_main.c **** function     :function used to delete a string in the user display
 162:D:/fchai/work/i-cube/I-CUBE-HUAWEI/Middlewares/Third_Party/Huawei/iot_link/shell\shell_main.c **** parameters   :
 163:D:/fchai/work/i-cube/I-CUBE-HUAWEI/Middlewares/Third_Party/Huawei/iot_link/shell\shell_main.c **** instruction  :
 164:D:/fchai/work/i-cube/I-CUBE-HUAWEI/Middlewares/Third_Party/Huawei/iot_link/shell\shell_main.c **** *******************************************************************************/
 165:D:/fchai/work/i-cube/I-CUBE-HUAWEI/Middlewares/Third_Party/Huawei/iot_link/shell\shell_main.c **** static void shell_put_backspace(int times)
 166:D:/fchai/work/i-cube/I-CUBE-HUAWEI/Middlewares/Third_Party/Huawei/iot_link/shell\shell_main.c **** {
 167:D:/fchai/work/i-cube/I-CUBE-HUAWEI/Middlewares/Third_Party/Huawei/iot_link/shell\shell_main.c ****     int i =0;
 168:D:/fchai/work/i-cube/I-CUBE-HUAWEI/Middlewares/Third_Party/Huawei/iot_link/shell\shell_main.c ****     char *str = "\b \b";
 169:D:/fchai/work/i-cube/I-CUBE-HUAWEI/Middlewares/Third_Party/Huawei/iot_link/shell\shell_main.c ****     for(i =0;i<times;i++)
 170:D:/fchai/work/i-cube/I-CUBE-HUAWEI/Middlewares/Third_Party/Huawei/iot_link/shell\shell_main.c ****     {
 171:D:/fchai/work/i-cube/I-CUBE-HUAWEI/Middlewares/Third_Party/Huawei/iot_link/shell\shell_main.c ****         shell_put_string(str);
 172:D:/fchai/work/i-cube/I-CUBE-HUAWEI/Middlewares/Third_Party/Huawei/iot_link/shell\shell_main.c ****     }
 173:D:/fchai/work/i-cube/I-CUBE-HUAWEI/Middlewares/Third_Party/Huawei/iot_link/shell\shell_main.c **** }
 174:D:/fchai/work/i-cube/I-CUBE-HUAWEI/Middlewares/Third_Party/Huawei/iot_link/shell\shell_main.c **** 
 175:D:/fchai/work/i-cube/I-CUBE-HUAWEI/Middlewares/Third_Party/Huawei/iot_link/shell\shell_main.c **** /*******************************************************************************
 176:D:/fchai/work/i-cube/I-CUBE-HUAWEI/Middlewares/Third_Party/Huawei/iot_link/shell\shell_main.c **** function     :function used to put a space to display
 177:D:/fchai/work/i-cube/I-CUBE-HUAWEI/Middlewares/Third_Party/Huawei/iot_link/shell\shell_main.c **** parameters   :
 178:D:/fchai/work/i-cube/I-CUBE-HUAWEI/Middlewares/Third_Party/Huawei/iot_link/shell\shell_main.c **** instruction  :
 179:D:/fchai/work/i-cube/I-CUBE-HUAWEI/Middlewares/Third_Party/Huawei/iot_link/shell\shell_main.c **** *******************************************************************************/
 180:D:/fchai/work/i-cube/I-CUBE-HUAWEI/Middlewares/Third_Party/Huawei/iot_link/shell\shell_main.c **** static void shell_put_space(int times)
 181:D:/fchai/work/i-cube/I-CUBE-HUAWEI/Middlewares/Third_Party/Huawei/iot_link/shell\shell_main.c **** {
  30              		.loc 1 181 1 view -0
  31              		.cfi_startproc
  32              		@ args = 0, pretend = 0, frame = 0
  33              		@ frame_needed = 0, uses_anonymous_args = 0
 182:D:/fchai/work/i-cube/I-CUBE-HUAWEI/Middlewares/Third_Party/Huawei/iot_link/shell\shell_main.c ****     int i =0;
  34              		.loc 1 182 5 view .LVU1
 183:D:/fchai/work/i-cube/I-CUBE-HUAWEI/Middlewares/Third_Party/Huawei/iot_link/shell\shell_main.c ****     for(i =0;i<times;i++)
  35              		.loc 1 183 5 view .LVU2
  36              		.loc 1 183 14 view .LVU3
 181:D:/fchai/work/i-cube/I-CUBE-HUAWEI/Middlewares/Third_Party/Huawei/iot_link/shell\shell_main.c ****     int i =0;
  37              		.loc 1 181 1 is_stmt 0 view .LVU4
  38 0000 70B5     		push	{r4, r5, r6, lr}
  39              	.LCFI0:
  40              		.cfi_def_cfa_offset 16
  41              		.cfi_offset 4, -16
  42              		.cfi_offset 5, -12
  43              		.cfi_offset 6, -8
  44              		.cfi_offset 14, -4
  45              		.loc 1 183 5 view .LVU5
ARM GAS  T:\msys\tmp\ccldiPcz.s 			page 5


  46 0002 051E     		subs	r5, r0, #0
  47 0004 0BDD     		ble	.L1
  48 0006 064E     		ldr	r6, .L7
  49              		.loc 1 183 11 view .LVU6
  50 0008 0024     		movs	r4, #0
  51              	.LVL1:
  52              	.L3:
 184:D:/fchai/work/i-cube/I-CUBE-HUAWEI/Middlewares/Third_Party/Huawei/iot_link/shell\shell_main.c ****     {
 185:D:/fchai/work/i-cube/I-CUBE-HUAWEI/Middlewares/Third_Party/Huawei/iot_link/shell\shell_main.c ****         shell_put_char(' ');
  53              		.loc 1 185 9 is_stmt 1 view .LVU7
  54              	.LBB46:
  55              	.LBI46:
 128:D:/fchai/work/i-cube/I-CUBE-HUAWEI/Middlewares/Third_Party/Huawei/iot_link/shell\shell_main.c **** {
  56              		.loc 1 128 13 view .LVU8
  57              	.LBB47:
 130:D:/fchai/work/i-cube/I-CUBE-HUAWEI/Middlewares/Third_Party/Huawei/iot_link/shell\shell_main.c **** }
  58              		.loc 1 130 5 view .LVU9
 130:D:/fchai/work/i-cube/I-CUBE-HUAWEI/Middlewares/Third_Party/Huawei/iot_link/shell\shell_main.c **** }
  59              		.loc 1 130 5 view .LVU10
  60 000a 2020     		movs	r0, #32
  61 000c FFF7FEFF 		bl	putchar
  62              	.LVL2:
 130:D:/fchai/work/i-cube/I-CUBE-HUAWEI/Middlewares/Third_Party/Huawei/iot_link/shell\shell_main.c **** }
  63              		.loc 1 130 5 view .LVU11
  64 0010 3368     		ldr	r3, [r6]
  65              	.LBE47:
  66              	.LBE46:
 183:D:/fchai/work/i-cube/I-CUBE-HUAWEI/Middlewares/Third_Party/Huawei/iot_link/shell\shell_main.c ****     {
  67              		.loc 1 183 23 is_stmt 0 view .LVU12
  68 0012 0134     		adds	r4, r4, #1
  69              	.LVL3:
  70              	.LBB49:
  71              	.LBB48:
 130:D:/fchai/work/i-cube/I-CUBE-HUAWEI/Middlewares/Third_Party/Huawei/iot_link/shell\shell_main.c **** }
  72              		.loc 1 130 5 view .LVU13
  73 0014 9868     		ldr	r0, [r3, #8]
  74 0016 FFF7FEFF 		bl	fflush
  75              	.LVL4:
 130:D:/fchai/work/i-cube/I-CUBE-HUAWEI/Middlewares/Third_Party/Huawei/iot_link/shell\shell_main.c **** }
  76              		.loc 1 130 5 is_stmt 1 view .LVU14
 130:D:/fchai/work/i-cube/I-CUBE-HUAWEI/Middlewares/Third_Party/Huawei/iot_link/shell\shell_main.c **** }
  77              		.loc 1 130 5 is_stmt 0 view .LVU15
  78              	.LBE48:
  79              	.LBE49:
 183:D:/fchai/work/i-cube/I-CUBE-HUAWEI/Middlewares/Third_Party/Huawei/iot_link/shell\shell_main.c ****     {
  80              		.loc 1 183 22 is_stmt 1 view .LVU16
 183:D:/fchai/work/i-cube/I-CUBE-HUAWEI/Middlewares/Third_Party/Huawei/iot_link/shell\shell_main.c ****     {
  81              		.loc 1 183 14 view .LVU17
 183:D:/fchai/work/i-cube/I-CUBE-HUAWEI/Middlewares/Third_Party/Huawei/iot_link/shell\shell_main.c ****     {
  82              		.loc 1 183 5 is_stmt 0 view .LVU18
  83 001a A542     		cmp	r5, r4
  84 001c F5D1     		bne	.L3
  85              	.LVL5:
  86              	.L1:
 186:D:/fchai/work/i-cube/I-CUBE-HUAWEI/Middlewares/Third_Party/Huawei/iot_link/shell\shell_main.c ****     }
 187:D:/fchai/work/i-cube/I-CUBE-HUAWEI/Middlewares/Third_Party/Huawei/iot_link/shell\shell_main.c **** }
  87              		.loc 1 187 1 view .LVU19
ARM GAS  T:\msys\tmp\ccldiPcz.s 			page 6


  88 001e 70BD     		pop	{r4, r5, r6, pc}
  89              	.LVL6:
  90              	.L8:
  91              		.loc 1 187 1 view .LVU20
  92              		.align	2
  93              	.L7:
  94 0020 00000000 		.word	_impure_ptr
  95              		.cfi_endproc
  96              	.LFE8:
  98              		.section	.text.shell_put_string,"ax",%progbits
  99              		.align	1
 100              		.p2align 2,,3
 101              		.syntax unified
 102              		.thumb
 103              		.thumb_func
 104              		.fpu fpv4-sp-d16
 106              	shell_put_string:
 107              	.LVL7:
 108              	.LFB5:
 139:D:/fchai/work/i-cube/I-CUBE-HUAWEI/Middlewares/Third_Party/Huawei/iot_link/shell\shell_main.c ****     int len;
 109              		.loc 1 139 1 is_stmt 1 view -0
 110              		.cfi_startproc
 111              		@ args = 0, pretend = 0, frame = 0
 112              		@ frame_needed = 0, uses_anonymous_args = 0
 140:D:/fchai/work/i-cube/I-CUBE-HUAWEI/Middlewares/Third_Party/Huawei/iot_link/shell\shell_main.c ****     int i;
 113              		.loc 1 140 5 view .LVU22
 141:D:/fchai/work/i-cube/I-CUBE-HUAWEI/Middlewares/Third_Party/Huawei/iot_link/shell\shell_main.c ****     len = strlen(str);
 114              		.loc 1 141 5 view .LVU23
 142:D:/fchai/work/i-cube/I-CUBE-HUAWEI/Middlewares/Third_Party/Huawei/iot_link/shell\shell_main.c ****     for(i =0;i<len;i++)
 115              		.loc 1 142 5 view .LVU24
 139:D:/fchai/work/i-cube/I-CUBE-HUAWEI/Middlewares/Third_Party/Huawei/iot_link/shell\shell_main.c ****     int len;
 116              		.loc 1 139 1 is_stmt 0 view .LVU25
 117 0000 70B5     		push	{r4, r5, r6, lr}
 118              	.LCFI1:
 119              		.cfi_def_cfa_offset 16
 120              		.cfi_offset 4, -16
 121              		.cfi_offset 5, -12
 122              		.cfi_offset 6, -8
 123              		.cfi_offset 14, -4
 139:D:/fchai/work/i-cube/I-CUBE-HUAWEI/Middlewares/Third_Party/Huawei/iot_link/shell\shell_main.c ****     int len;
 124              		.loc 1 139 1 view .LVU26
 125 0002 0446     		mov	r4, r0
 142:D:/fchai/work/i-cube/I-CUBE-HUAWEI/Middlewares/Third_Party/Huawei/iot_link/shell\shell_main.c ****     for(i =0;i<len;i++)
 126              		.loc 1 142 11 view .LVU27
 127 0004 FFF7FEFF 		bl	strlen
 128              	.LVL8:
 143:D:/fchai/work/i-cube/I-CUBE-HUAWEI/Middlewares/Third_Party/Huawei/iot_link/shell\shell_main.c ****     {
 129              		.loc 1 143 5 is_stmt 1 view .LVU28
 143:D:/fchai/work/i-cube/I-CUBE-HUAWEI/Middlewares/Third_Party/Huawei/iot_link/shell\shell_main.c ****     {
 130              		.loc 1 143 14 view .LVU29
 143:D:/fchai/work/i-cube/I-CUBE-HUAWEI/Middlewares/Third_Party/Huawei/iot_link/shell\shell_main.c ****     {
 131              		.loc 1 143 5 is_stmt 0 view .LVU30
 132 0008 58B1     		cbz	r0, .L9
 133 000a 064E     		ldr	r6, .L17
 134 000c 2518     		adds	r5, r4, r0
 135              	.LVL9:
 136              	.L11:
ARM GAS  T:\msys\tmp\ccldiPcz.s 			page 7


 145:D:/fchai/work/i-cube/I-CUBE-HUAWEI/Middlewares/Third_Party/Huawei/iot_link/shell\shell_main.c ****         str++;
 137              		.loc 1 145 9 is_stmt 1 discriminator 3 view .LVU31
 138              	.LBB50:
 139              	.LBI50:
 128:D:/fchai/work/i-cube/I-CUBE-HUAWEI/Middlewares/Third_Party/Huawei/iot_link/shell\shell_main.c **** {
 140              		.loc 1 128 13 discriminator 3 view .LVU32
 141              	.LBB51:
 130:D:/fchai/work/i-cube/I-CUBE-HUAWEI/Middlewares/Third_Party/Huawei/iot_link/shell\shell_main.c **** }
 142              		.loc 1 130 5 discriminator 3 view .LVU33
 130:D:/fchai/work/i-cube/I-CUBE-HUAWEI/Middlewares/Third_Party/Huawei/iot_link/shell\shell_main.c **** }
 143              		.loc 1 130 5 discriminator 3 view .LVU34
 144 000e 14F8010B 		ldrb	r0, [r4], #1	@ zero_extendqisi2
 145              	.LVL10:
 130:D:/fchai/work/i-cube/I-CUBE-HUAWEI/Middlewares/Third_Party/Huawei/iot_link/shell\shell_main.c **** }
 146              		.loc 1 130 5 is_stmt 0 discriminator 3 view .LVU35
 147 0012 FFF7FEFF 		bl	putchar
 148              	.LVL11:
 130:D:/fchai/work/i-cube/I-CUBE-HUAWEI/Middlewares/Third_Party/Huawei/iot_link/shell\shell_main.c **** }
 149              		.loc 1 130 5 is_stmt 1 discriminator 3 view .LVU36
 150 0016 3368     		ldr	r3, [r6]
 151 0018 9868     		ldr	r0, [r3, #8]
 152 001a FFF7FEFF 		bl	fflush
 153              	.LVL12:
 130:D:/fchai/work/i-cube/I-CUBE-HUAWEI/Middlewares/Third_Party/Huawei/iot_link/shell\shell_main.c **** }
 154              		.loc 1 130 5 discriminator 3 view .LVU37
 130:D:/fchai/work/i-cube/I-CUBE-HUAWEI/Middlewares/Third_Party/Huawei/iot_link/shell\shell_main.c **** }
 155              		.loc 1 130 5 is_stmt 0 discriminator 3 view .LVU38
 156              	.LBE51:
 157              	.LBE50:
 146:D:/fchai/work/i-cube/I-CUBE-HUAWEI/Middlewares/Third_Party/Huawei/iot_link/shell\shell_main.c ****     }
 158              		.loc 1 146 9 is_stmt 1 discriminator 3 view .LVU39
 143:D:/fchai/work/i-cube/I-CUBE-HUAWEI/Middlewares/Third_Party/Huawei/iot_link/shell\shell_main.c ****     {
 159              		.loc 1 143 20 discriminator 3 view .LVU40
 143:D:/fchai/work/i-cube/I-CUBE-HUAWEI/Middlewares/Third_Party/Huawei/iot_link/shell\shell_main.c ****     {
 160              		.loc 1 143 14 discriminator 3 view .LVU41
 143:D:/fchai/work/i-cube/I-CUBE-HUAWEI/Middlewares/Third_Party/Huawei/iot_link/shell\shell_main.c ****     {
 161              		.loc 1 143 5 is_stmt 0 discriminator 3 view .LVU42
 162 001e AC42     		cmp	r4, r5
 163 0020 F5D1     		bne	.L11
 164              	.L9:
 148:D:/fchai/work/i-cube/I-CUBE-HUAWEI/Middlewares/Third_Party/Huawei/iot_link/shell\shell_main.c **** 
 165              		.loc 1 148 1 view .LVU43
 166 0022 70BD     		pop	{r4, r5, r6, pc}
 167              	.LVL13:
 168              	.L18:
 148:D:/fchai/work/i-cube/I-CUBE-HUAWEI/Middlewares/Third_Party/Huawei/iot_link/shell\shell_main.c **** 
 169              		.loc 1 148 1 view .LVU44
 170              		.align	2
 171              	.L17:
 172 0024 00000000 		.word	_impure_ptr
 173              		.cfi_endproc
 174              	.LFE5:
 176              		.section	.text.shell_moves_cursor_left,"ax",%progbits
 177              		.align	1
 178              		.p2align 2,,3
 179              		.syntax unified
 180              		.thumb
ARM GAS  T:\msys\tmp\ccldiPcz.s 			page 8


 181              		.thumb_func
 182              		.fpu fpv4-sp-d16
 184              	shell_moves_cursor_left:
 185              	.LVL14:
 186              	.LFB11:
 188:D:/fchai/work/i-cube/I-CUBE-HUAWEI/Middlewares/Third_Party/Huawei/iot_link/shell\shell_main.c **** /*******************************************************************************
 189:D:/fchai/work/i-cube/I-CUBE-HUAWEI/Middlewares/Third_Party/Huawei/iot_link/shell\shell_main.c **** function     :function used to move cursor right
 190:D:/fchai/work/i-cube/I-CUBE-HUAWEI/Middlewares/Third_Party/Huawei/iot_link/shell\shell_main.c **** parameters   :
 191:D:/fchai/work/i-cube/I-CUBE-HUAWEI/Middlewares/Third_Party/Huawei/iot_link/shell\shell_main.c **** instruction  :
 192:D:/fchai/work/i-cube/I-CUBE-HUAWEI/Middlewares/Third_Party/Huawei/iot_link/shell\shell_main.c **** *******************************************************************************/
 193:D:/fchai/work/i-cube/I-CUBE-HUAWEI/Middlewares/Third_Party/Huawei/iot_link/shell\shell_main.c **** static void  shell_moves_cursor_right(int times,unsigned int vk)
 194:D:/fchai/work/i-cube/I-CUBE-HUAWEI/Middlewares/Third_Party/Huawei/iot_link/shell\shell_main.c **** {
 195:D:/fchai/work/i-cube/I-CUBE-HUAWEI/Middlewares/Third_Party/Huawei/iot_link/shell\shell_main.c ****     char ch;
 196:D:/fchai/work/i-cube/I-CUBE-HUAWEI/Middlewares/Third_Party/Huawei/iot_link/shell\shell_main.c ****     int i =0;
 197:D:/fchai/work/i-cube/I-CUBE-HUAWEI/Middlewares/Third_Party/Huawei/iot_link/shell\shell_main.c ****     for(i =0;i<times;i++)
 198:D:/fchai/work/i-cube/I-CUBE-HUAWEI/Middlewares/Third_Party/Huawei/iot_link/shell\shell_main.c ****     {
 199:D:/fchai/work/i-cube/I-CUBE-HUAWEI/Middlewares/Third_Party/Huawei/iot_link/shell\shell_main.c ****         ch = (char)(vk&0xff);
 200:D:/fchai/work/i-cube/I-CUBE-HUAWEI/Middlewares/Third_Party/Huawei/iot_link/shell\shell_main.c ****         shell_put_char(ch);
 201:D:/fchai/work/i-cube/I-CUBE-HUAWEI/Middlewares/Third_Party/Huawei/iot_link/shell\shell_main.c ****         ch = (char)((vk>>8)&0xff);
 202:D:/fchai/work/i-cube/I-CUBE-HUAWEI/Middlewares/Third_Party/Huawei/iot_link/shell\shell_main.c ****         shell_put_char(ch);
 203:D:/fchai/work/i-cube/I-CUBE-HUAWEI/Middlewares/Third_Party/Huawei/iot_link/shell\shell_main.c ****         ch = (char)((vk>>16)&0xff);
 204:D:/fchai/work/i-cube/I-CUBE-HUAWEI/Middlewares/Third_Party/Huawei/iot_link/shell\shell_main.c ****         shell_put_char(ch);
 205:D:/fchai/work/i-cube/I-CUBE-HUAWEI/Middlewares/Third_Party/Huawei/iot_link/shell\shell_main.c ****     }
 206:D:/fchai/work/i-cube/I-CUBE-HUAWEI/Middlewares/Third_Party/Huawei/iot_link/shell\shell_main.c **** }
 207:D:/fchai/work/i-cube/I-CUBE-HUAWEI/Middlewares/Third_Party/Huawei/iot_link/shell\shell_main.c **** /*******************************************************************************
 208:D:/fchai/work/i-cube/I-CUBE-HUAWEI/Middlewares/Third_Party/Huawei/iot_link/shell\shell_main.c **** function     :function used ring the terminal's bell
 209:D:/fchai/work/i-cube/I-CUBE-HUAWEI/Middlewares/Third_Party/Huawei/iot_link/shell\shell_main.c **** parameters   :
 210:D:/fchai/work/i-cube/I-CUBE-HUAWEI/Middlewares/Third_Party/Huawei/iot_link/shell\shell_main.c **** instruction  :
 211:D:/fchai/work/i-cube/I-CUBE-HUAWEI/Middlewares/Third_Party/Huawei/iot_link/shell\shell_main.c **** *******************************************************************************/
 212:D:/fchai/work/i-cube/I-CUBE-HUAWEI/Middlewares/Third_Party/Huawei/iot_link/shell\shell_main.c **** static void shell_bell() {
 213:D:/fchai/work/i-cube/I-CUBE-HUAWEI/Middlewares/Third_Party/Huawei/iot_link/shell\shell_main.c ****     shell_put_char('\a');
 214:D:/fchai/work/i-cube/I-CUBE-HUAWEI/Middlewares/Third_Party/Huawei/iot_link/shell\shell_main.c **** }
 215:D:/fchai/work/i-cube/I-CUBE-HUAWEI/Middlewares/Third_Party/Huawei/iot_link/shell\shell_main.c **** /*******************************************************************************
 216:D:/fchai/work/i-cube/I-CUBE-HUAWEI/Middlewares/Third_Party/Huawei/iot_link/shell\shell_main.c **** function     :function used to move cursor left
 217:D:/fchai/work/i-cube/I-CUBE-HUAWEI/Middlewares/Third_Party/Huawei/iot_link/shell\shell_main.c **** parameters   :
 218:D:/fchai/work/i-cube/I-CUBE-HUAWEI/Middlewares/Third_Party/Huawei/iot_link/shell\shell_main.c **** instruction  :
 219:D:/fchai/work/i-cube/I-CUBE-HUAWEI/Middlewares/Third_Party/Huawei/iot_link/shell\shell_main.c **** *******************************************************************************/
 220:D:/fchai/work/i-cube/I-CUBE-HUAWEI/Middlewares/Third_Party/Huawei/iot_link/shell\shell_main.c **** static void  shell_moves_cursor_left(int times){
 187              		.loc 1 220 48 is_stmt 1 view -0
 188              		.cfi_startproc
 189              		@ args = 0, pretend = 0, frame = 0
 190              		@ frame_needed = 0, uses_anonymous_args = 0
 221:D:/fchai/work/i-cube/I-CUBE-HUAWEI/Middlewares/Third_Party/Huawei/iot_link/shell\shell_main.c ****     int i =0;
 191              		.loc 1 221 5 view .LVU46
 222:D:/fchai/work/i-cube/I-CUBE-HUAWEI/Middlewares/Third_Party/Huawei/iot_link/shell\shell_main.c ****     for(i =0;i<times;i++){
 192              		.loc 1 222 5 view .LVU47
 193              		.loc 1 222 14 view .LVU48
 220:D:/fchai/work/i-cube/I-CUBE-HUAWEI/Middlewares/Third_Party/Huawei/iot_link/shell\shell_main.c ****     int i =0;
 194              		.loc 1 220 48 is_stmt 0 view .LVU49
 195 0000 70B5     		push	{r4, r5, r6, lr}
 196              	.LCFI2:
 197              		.cfi_def_cfa_offset 16
 198              		.cfi_offset 4, -16
 199              		.cfi_offset 5, -12
 200              		.cfi_offset 6, -8
 201              		.cfi_offset 14, -4
 202              		.loc 1 222 5 view .LVU50
ARM GAS  T:\msys\tmp\ccldiPcz.s 			page 9


 203 0002 051E     		subs	r5, r0, #0
 204 0004 0BDD     		ble	.L19
 205 0006 064E     		ldr	r6, .L24
 206              		.loc 1 222 11 view .LVU51
 207 0008 0024     		movs	r4, #0
 208              	.LVL15:
 209              	.L21:
 223:D:/fchai/work/i-cube/I-CUBE-HUAWEI/Middlewares/Third_Party/Huawei/iot_link/shell\shell_main.c ****         shell_put_char('\b');
 210              		.loc 1 223 9 is_stmt 1 view .LVU52
 211              	.LBB52:
 212              	.LBI52:
 128:D:/fchai/work/i-cube/I-CUBE-HUAWEI/Middlewares/Third_Party/Huawei/iot_link/shell\shell_main.c **** {
 213              		.loc 1 128 13 view .LVU53
 214              	.LBB53:
 130:D:/fchai/work/i-cube/I-CUBE-HUAWEI/Middlewares/Third_Party/Huawei/iot_link/shell\shell_main.c **** }
 215              		.loc 1 130 5 view .LVU54
 130:D:/fchai/work/i-cube/I-CUBE-HUAWEI/Middlewares/Third_Party/Huawei/iot_link/shell\shell_main.c **** }
 216              		.loc 1 130 5 view .LVU55
 217 000a 0820     		movs	r0, #8
 218 000c FFF7FEFF 		bl	putchar
 219              	.LVL16:
 130:D:/fchai/work/i-cube/I-CUBE-HUAWEI/Middlewares/Third_Party/Huawei/iot_link/shell\shell_main.c **** }
 220              		.loc 1 130 5 view .LVU56
 221 0010 3368     		ldr	r3, [r6]
 222              	.LBE53:
 223              	.LBE52:
 222:D:/fchai/work/i-cube/I-CUBE-HUAWEI/Middlewares/Third_Party/Huawei/iot_link/shell\shell_main.c ****         shell_put_char('\b');
 224              		.loc 1 222 23 is_stmt 0 view .LVU57
 225 0012 0134     		adds	r4, r4, #1
 226              	.LVL17:
 227              	.LBB55:
 228              	.LBB54:
 130:D:/fchai/work/i-cube/I-CUBE-HUAWEI/Middlewares/Third_Party/Huawei/iot_link/shell\shell_main.c **** }
 229              		.loc 1 130 5 view .LVU58
 230 0014 9868     		ldr	r0, [r3, #8]
 231 0016 FFF7FEFF 		bl	fflush
 232              	.LVL18:
 130:D:/fchai/work/i-cube/I-CUBE-HUAWEI/Middlewares/Third_Party/Huawei/iot_link/shell\shell_main.c **** }
 233              		.loc 1 130 5 is_stmt 1 view .LVU59
 130:D:/fchai/work/i-cube/I-CUBE-HUAWEI/Middlewares/Third_Party/Huawei/iot_link/shell\shell_main.c **** }
 234              		.loc 1 130 5 is_stmt 0 view .LVU60
 235              	.LBE54:
 236              	.LBE55:
 222:D:/fchai/work/i-cube/I-CUBE-HUAWEI/Middlewares/Third_Party/Huawei/iot_link/shell\shell_main.c ****         shell_put_char('\b');
 237              		.loc 1 222 22 is_stmt 1 view .LVU61
 222:D:/fchai/work/i-cube/I-CUBE-HUAWEI/Middlewares/Third_Party/Huawei/iot_link/shell\shell_main.c ****         shell_put_char('\b');
 238              		.loc 1 222 14 view .LVU62
 222:D:/fchai/work/i-cube/I-CUBE-HUAWEI/Middlewares/Third_Party/Huawei/iot_link/shell\shell_main.c ****         shell_put_char('\b');
 239              		.loc 1 222 5 is_stmt 0 view .LVU63
 240 001a A542     		cmp	r5, r4
 241 001c F5D1     		bne	.L21
 242              	.LVL19:
 243              	.L19:
 224:D:/fchai/work/i-cube/I-CUBE-HUAWEI/Middlewares/Third_Party/Huawei/iot_link/shell\shell_main.c ****     }
 225:D:/fchai/work/i-cube/I-CUBE-HUAWEI/Middlewares/Third_Party/Huawei/iot_link/shell\shell_main.c **** }
 244              		.loc 1 225 1 view .LVU64
 245 001e 70BD     		pop	{r4, r5, r6, pc}
ARM GAS  T:\msys\tmp\ccldiPcz.s 			page 10


 246              	.LVL20:
 247              	.L25:
 248              		.loc 1 225 1 view .LVU65
 249              		.align	2
 250              	.L24:
 251 0020 00000000 		.word	_impure_ptr
 252              		.cfi_endproc
 253              	.LFE11:
 255              		.section	.text.shell_insert_string,"ax",%progbits
 256              		.align	1
 257              		.p2align 2,,3
 258              		.syntax unified
 259              		.thumb
 260              		.thumb_func
 261              		.fpu fpv4-sp-d16
 263              	shell_insert_string:
 264              	.LVL21:
 265              	.LFB13:
 226:D:/fchai/work/i-cube/I-CUBE-HUAWEI/Middlewares/Third_Party/Huawei/iot_link/shell\shell_main.c **** 
 227:D:/fchai/work/i-cube/I-CUBE-HUAWEI/Middlewares/Third_Party/Huawei/iot_link/shell\shell_main.c **** 
 228:D:/fchai/work/i-cube/I-CUBE-HUAWEI/Middlewares/Third_Party/Huawei/iot_link/shell\shell_main.c **** /*******************************************************************************
 229:D:/fchai/work/i-cube/I-CUBE-HUAWEI/Middlewares/Third_Party/Huawei/iot_link/shell\shell_main.c **** function     :function used cache the current command
 230:D:/fchai/work/i-cube/I-CUBE-HUAWEI/Middlewares/Third_Party/Huawei/iot_link/shell\shell_main.c **** parameters   :
 231:D:/fchai/work/i-cube/I-CUBE-HUAWEI/Middlewares/Third_Party/Huawei/iot_link/shell\shell_main.c **** instruction  :check if it has been cached.
 232:D:/fchai/work/i-cube/I-CUBE-HUAWEI/Middlewares/Third_Party/Huawei/iot_link/shell\shell_main.c **** *******************************************************************************/
 233:D:/fchai/work/i-cube/I-CUBE-HUAWEI/Middlewares/Third_Party/Huawei/iot_link/shell\shell_main.c **** static void shell_cachecmd(struct shell_buffer_t *tab){
 234:D:/fchai/work/i-cube/I-CUBE-HUAWEI/Middlewares/Third_Party/Huawei/iot_link/shell\shell_main.c ****     int i = 0;
 235:D:/fchai/work/i-cube/I-CUBE-HUAWEI/Middlewares/Third_Party/Huawei/iot_link/shell\shell_main.c ****     int offset;
 236:D:/fchai/work/i-cube/I-CUBE-HUAWEI/Middlewares/Third_Party/Huawei/iot_link/shell\shell_main.c ****     for(i = 0;i < CN_CMD_CACHE;i++){
 237:D:/fchai/work/i-cube/I-CUBE-HUAWEI/Middlewares/Third_Party/Huawei/iot_link/shell\shell_main.c ****         if(0 == strcmp(tab->curcmd,tab->tab[i])){
 238:D:/fchai/work/i-cube/I-CUBE-HUAWEI/Middlewares/Third_Party/Huawei/iot_link/shell\shell_main.c ****             break;
 239:D:/fchai/work/i-cube/I-CUBE-HUAWEI/Middlewares/Third_Party/Huawei/iot_link/shell\shell_main.c ****         }
 240:D:/fchai/work/i-cube/I-CUBE-HUAWEI/Middlewares/Third_Party/Huawei/iot_link/shell\shell_main.c ****     }
 241:D:/fchai/work/i-cube/I-CUBE-HUAWEI/Middlewares/Third_Party/Huawei/iot_link/shell\shell_main.c ****     if(i == CN_CMD_CACHE){
 242:D:/fchai/work/i-cube/I-CUBE-HUAWEI/Middlewares/Third_Party/Huawei/iot_link/shell\shell_main.c ****         offset=tab->taboffset;
 243:D:/fchai/work/i-cube/I-CUBE-HUAWEI/Middlewares/Third_Party/Huawei/iot_link/shell\shell_main.c ****         (void) memset(tab->tab[offset],0,CN_CMDLEN_MAX);
 244:D:/fchai/work/i-cube/I-CUBE-HUAWEI/Middlewares/Third_Party/Huawei/iot_link/shell\shell_main.c ****         (void) strncpy(tab->tab[offset],tab->curcmd,CN_CMDLEN_MAX);
 245:D:/fchai/work/i-cube/I-CUBE-HUAWEI/Middlewares/Third_Party/Huawei/iot_link/shell\shell_main.c ****         offset = (offset +1)%CN_CMD_CACHE;
 246:D:/fchai/work/i-cube/I-CUBE-HUAWEI/Middlewares/Third_Party/Huawei/iot_link/shell\shell_main.c ****         tab->taboffset = offset;
 247:D:/fchai/work/i-cube/I-CUBE-HUAWEI/Middlewares/Third_Party/Huawei/iot_link/shell\shell_main.c ****     }
 248:D:/fchai/work/i-cube/I-CUBE-HUAWEI/Middlewares/Third_Party/Huawei/iot_link/shell\shell_main.c ****     return;
 249:D:/fchai/work/i-cube/I-CUBE-HUAWEI/Middlewares/Third_Party/Huawei/iot_link/shell\shell_main.c **** }
 250:D:/fchai/work/i-cube/I-CUBE-HUAWEI/Middlewares/Third_Party/Huawei/iot_link/shell\shell_main.c **** 
 251:D:/fchai/work/i-cube/I-CUBE-HUAWEI/Middlewares/Third_Party/Huawei/iot_link/shell\shell_main.c **** /*******************************************************************************
 252:D:/fchai/work/i-cube/I-CUBE-HUAWEI/Middlewares/Third_Party/Huawei/iot_link/shell\shell_main.c **** function     :insert string at the cursor's position
 253:D:/fchai/work/i-cube/I-CUBE-HUAWEI/Middlewares/Third_Party/Huawei/iot_link/shell\shell_main.c **** parameters   :
 254:D:/fchai/work/i-cube/I-CUBE-HUAWEI/Middlewares/Third_Party/Huawei/iot_link/shell\shell_main.c **** instruction  :check if it has been cached.
 255:D:/fchai/work/i-cube/I-CUBE-HUAWEI/Middlewares/Third_Party/Huawei/iot_link/shell\shell_main.c **** *******************************************************************************/
 256:D:/fchai/work/i-cube/I-CUBE-HUAWEI/Middlewares/Third_Party/Huawei/iot_link/shell\shell_main.c **** static void shell_insert_string(struct shell_buffer_t *tab, const char *str) {
 266              		.loc 1 256 78 is_stmt 1 view -0
 267              		.cfi_startproc
 268              		@ args = 0, pretend = 0, frame = 0
 269              		@ frame_needed = 0, uses_anonymous_args = 0
 257:D:/fchai/work/i-cube/I-CUBE-HUAWEI/Middlewares/Third_Party/Huawei/iot_link/shell\shell_main.c ****     char *cursor;
 270              		.loc 1 257 5 view .LVU67
 258:D:/fchai/work/i-cube/I-CUBE-HUAWEI/Middlewares/Third_Party/Huawei/iot_link/shell\shell_main.c ****     cursor = tab->curcmd + tab->curoffset;
 271              		.loc 1 258 5 view .LVU68
ARM GAS  T:\msys\tmp\ccldiPcz.s 			page 11


 256:D:/fchai/work/i-cube/I-CUBE-HUAWEI/Middlewares/Third_Party/Huawei/iot_link/shell\shell_main.c ****     char *cursor;
 272              		.loc 1 256 78 is_stmt 0 view .LVU69
 273 0000 2DE9F843 		push	{r3, r4, r5, r6, r7, r8, r9, lr}
 274              	.LCFI3:
 275              		.cfi_def_cfa_offset 32
 276              		.cfi_offset 3, -32
 277              		.cfi_offset 4, -28
 278              		.cfi_offset 5, -24
 279              		.cfi_offset 6, -20
 280              		.cfi_offset 7, -16
 281              		.cfi_offset 8, -12
 282              		.cfi_offset 9, -8
 283              		.cfi_offset 14, -4
 284              		.loc 1 258 31 view .LVU70
 285 0004 90F84060 		ldrb	r6, [r0, #64]	@ zero_extendqisi2
 286              		.loc 1 258 12 view .LVU71
 287 0008 0644     		add	r6, r6, r0
 288              	.LVL22:
 259:D:/fchai/work/i-cube/I-CUBE-HUAWEI/Middlewares/Third_Party/Huawei/iot_link/shell\shell_main.c ****     int cursor_len = strlen(cursor);
 289              		.loc 1 259 5 is_stmt 1 view .LVU72
 256:D:/fchai/work/i-cube/I-CUBE-HUAWEI/Middlewares/Third_Party/Huawei/iot_link/shell\shell_main.c ****     char *cursor;
 290              		.loc 1 256 78 is_stmt 0 view .LVU73
 291 000a 0446     		mov	r4, r0
 292              		.loc 1 259 22 view .LVU74
 293 000c 3046     		mov	r0, r6
 294              	.LVL23:
 256:D:/fchai/work/i-cube/I-CUBE-HUAWEI/Middlewares/Third_Party/Huawei/iot_link/shell\shell_main.c ****     char *cursor;
 295              		.loc 1 256 78 view .LVU75
 296 000e 8946     		mov	r9, r1
 297              		.loc 1 259 22 view .LVU76
 298 0010 FFF7FEFF 		bl	strlen
 299              	.LVL24:
 300              		.loc 1 259 22 view .LVU77
 301 0014 8046     		mov	r8, r0
 260:D:/fchai/work/i-cube/I-CUBE-HUAWEI/Middlewares/Third_Party/Huawei/iot_link/shell\shell_main.c ****     int str_len = strlen(str);
 302              		.loc 1 260 19 view .LVU78
 303 0016 4846     		mov	r0, r9
 304              	.LVL25:
 305              		.loc 1 260 5 is_stmt 1 view .LVU79
 306              		.loc 1 260 19 is_stmt 0 view .LVU80
 307 0018 FFF7FEFF 		bl	strlen
 308              	.LVL26:
 309 001c 0746     		mov	r7, r0
 261:D:/fchai/work/i-cube/I-CUBE-HUAWEI/Middlewares/Third_Party/Huawei/iot_link/shell\shell_main.c ****     shell_put_string(str);
 310              		.loc 1 261 5 view .LVU81
 311 001e 4846     		mov	r0, r9
 312              	.LVL27:
 313              		.loc 1 261 5 is_stmt 1 view .LVU82
 314 0020 FFF7FEFF 		bl	shell_put_string
 315              	.LVL28:
 262:D:/fchai/work/i-cube/I-CUBE-HUAWEI/Middlewares/Third_Party/Huawei/iot_link/shell\shell_main.c ****     shell_put_string(cursor);
 316              		.loc 1 262 5 view .LVU83
 317 0024 3046     		mov	r0, r6
 318 0026 FFF7FEFF 		bl	shell_put_string
 319              	.LVL29:
 263:D:/fchai/work/i-cube/I-CUBE-HUAWEI/Middlewares/Third_Party/Huawei/iot_link/shell\shell_main.c ****     shell_moves_cursor_left(cursor_len);
 320              		.loc 1 263 5 view .LVU84
ARM GAS  T:\msys\tmp\ccldiPcz.s 			page 12


 321 002a 4046     		mov	r0, r8
 322 002c FFF7FEFF 		bl	shell_moves_cursor_left
 323              	.LVL30:
 264:D:/fchai/work/i-cube/I-CUBE-HUAWEI/Middlewares/Third_Party/Huawei/iot_link/shell\shell_main.c ****     
 265:D:/fchai/work/i-cube/I-CUBE-HUAWEI/Middlewares/Third_Party/Huawei/iot_link/shell\shell_main.c ****     tab->curoffset += str_len;
 324              		.loc 1 265 5 view .LVU85
 325              		.loc 1 265 20 is_stmt 0 view .LVU86
 326 0030 94F84030 		ldrb	r3, [r4, #64]	@ zero_extendqisi2
 327 0034 3B44     		add	r3, r3, r7
 328 0036 84F84030 		strb	r3, [r4, #64]
 266:D:/fchai/work/i-cube/I-CUBE-HUAWEI/Middlewares/Third_Party/Huawei/iot_link/shell\shell_main.c ****     cursor = tab->curcmd + strlen(tab->curcmd) + str_len;
 329              		.loc 1 266 5 is_stmt 1 view .LVU87
 330              		.loc 1 266 28 is_stmt 0 view .LVU88
 331 003a 2046     		mov	r0, r4
 332 003c FFF7FEFF 		bl	strlen
 333              	.LVL31:
 334              		.loc 1 266 48 view .LVU89
 335 0040 3B18     		adds	r3, r7, r0
 267:D:/fchai/work/i-cube/I-CUBE-HUAWEI/Middlewares/Third_Party/Huawei/iot_link/shell\shell_main.c ****     *(cursor--) = 0;
 336              		.loc 1 267 17 view .LVU90
 337 0042 0021     		movs	r1, #0
 266:D:/fchai/work/i-cube/I-CUBE-HUAWEI/Middlewares/Third_Party/Huawei/iot_link/shell\shell_main.c ****     cursor = tab->curcmd + strlen(tab->curcmd) + str_len;
 338              		.loc 1 266 12 view .LVU91
 339 0044 E218     		adds	r2, r4, r3
 340              	.LVL32:
 341              		.loc 1 267 5 is_stmt 1 view .LVU92
 342              		.loc 1 267 17 is_stmt 0 view .LVU93
 343 0046 E154     		strb	r1, [r4, r3]
 344              		.loc 1 267 13 view .LVU94
 345 0048 551E     		subs	r5, r2, #1
 346              	.LVL33:
 268:D:/fchai/work/i-cube/I-CUBE-HUAWEI/Middlewares/Third_Party/Huawei/iot_link/shell\shell_main.c ****     for (int i = 0; i < cursor_len; i++) {
 347              		.loc 1 268 5 is_stmt 1 view .LVU95
 348              	.LBB56:
 349              		.loc 1 268 10 view .LVU96
 350              		.loc 1 268 21 view .LVU97
 351              		.loc 1 268 5 is_stmt 0 view .LVU98
 352 004a B8F1000F 		cmp	r8, #0
 353 004e 13D0     		beq	.L27
 354 0050 6FEA0806 		mvn	r6, r8
 355 0054 2318     		adds	r3, r4, r0
 356 0056 1644     		add	r6, r6, r2
 357 0058 7842     		rsbs	r0, r7, #0
 358              	.LVL34:
 359              	.L28:
 269:D:/fchai/work/i-cube/I-CUBE-HUAWEI/Middlewares/Third_Party/Huawei/iot_link/shell\shell_main.c ****         *cursor = *(cursor - str_len);
 360              		.loc 1 269 9 is_stmt 1 discriminator 3 view .LVU99
 361              		.loc 1 269 19 is_stmt 0 discriminator 3 view .LVU100
 362 005a 13F8014D 		ldrb	r4, [r3, #-1]!	@ zero_extendqisi2
 363              		.loc 1 269 17 discriminator 3 view .LVU101
 364 005e 05F80149 		strb	r4, [r5], #-1
 365              	.LVL35:
 270:D:/fchai/work/i-cube/I-CUBE-HUAWEI/Middlewares/Third_Party/Huawei/iot_link/shell\shell_main.c ****         cursor--;
 366              		.loc 1 270 9 is_stmt 1 discriminator 3 view .LVU102
 268:D:/fchai/work/i-cube/I-CUBE-HUAWEI/Middlewares/Third_Party/Huawei/iot_link/shell\shell_main.c ****     for (int i = 0; i < cursor_len; i++) {
 367              		.loc 1 268 37 discriminator 3 view .LVU103
 268:D:/fchai/work/i-cube/I-CUBE-HUAWEI/Middlewares/Third_Party/Huawei/iot_link/shell\shell_main.c ****     for (int i = 0; i < cursor_len; i++) {
ARM GAS  T:\msys\tmp\ccldiPcz.s 			page 13


 368              		.loc 1 268 21 discriminator 3 view .LVU104
 268:D:/fchai/work/i-cube/I-CUBE-HUAWEI/Middlewares/Third_Party/Huawei/iot_link/shell\shell_main.c ****     for (int i = 0; i < cursor_len; i++) {
 369              		.loc 1 268 5 is_stmt 0 discriminator 3 view .LVU105
 370 0062 B542     		cmp	r5, r6
 371 0064 F9D1     		bne	.L28
 372 0066 A0EB0800 		sub	r0, r0, r8
 373 006a 1044     		add	r0, r0, r2
 374              	.LBE56:
 271:D:/fchai/work/i-cube/I-CUBE-HUAWEI/Middlewares/Third_Party/Huawei/iot_link/shell\shell_main.c ****     }
 272:D:/fchai/work/i-cube/I-CUBE-HUAWEI/Middlewares/Third_Party/Huawei/iot_link/shell\shell_main.c ****     cursor = cursor - (str_len - 1);
 375              		.loc 1 272 5 is_stmt 1 view .LVU106
 376              	.LVL36:
 273:D:/fchai/work/i-cube/I-CUBE-HUAWEI/Middlewares/Third_Party/Huawei/iot_link/shell\shell_main.c ****     (void) strncpy(cursor, str, str_len);
 377              		.loc 1 273 5 view .LVU107
 378              		.loc 1 273 12 is_stmt 0 view .LVU108
 379 006c 4946     		mov	r1, r9
 380 006e 3A46     		mov	r2, r7
 274:D:/fchai/work/i-cube/I-CUBE-HUAWEI/Middlewares/Third_Party/Huawei/iot_link/shell\shell_main.c **** }
 381              		.loc 1 274 1 view .LVU109
 382 0070 BDE8F843 		pop	{r3, r4, r5, r6, r7, r8, r9, lr}
 383              	.LCFI4:
 384              		.cfi_remember_state
 385              		.cfi_restore 14
 386              		.cfi_restore 9
 387              		.cfi_restore 8
 388              		.cfi_restore 7
 389              		.cfi_restore 6
 390              		.cfi_restore 5
 391              		.cfi_restore 4
 392              		.cfi_restore 3
 393              		.cfi_def_cfa_offset 0
 394              	.LVL37:
 273:D:/fchai/work/i-cube/I-CUBE-HUAWEI/Middlewares/Third_Party/Huawei/iot_link/shell\shell_main.c ****     (void) strncpy(cursor, str, str_len);
 395              		.loc 1 273 12 view .LVU110
 396 0074 FFF7FEBF 		b	strncpy
 397              	.LVL38:
 398              	.L27:
 399              	.LCFI5:
 400              		.cfi_restore_state
 273:D:/fchai/work/i-cube/I-CUBE-HUAWEI/Middlewares/Third_Party/Huawei/iot_link/shell\shell_main.c ****     (void) strncpy(cursor, str, str_len);
 401              		.loc 1 273 12 view .LVU111
 402 0078 C7F10102 		rsb	r2, r7, #1
 403 007c A818     		adds	r0, r5, r2
 272:D:/fchai/work/i-cube/I-CUBE-HUAWEI/Middlewares/Third_Party/Huawei/iot_link/shell\shell_main.c ****     (void) strncpy(cursor, str, str_len);
 404              		.loc 1 272 5 is_stmt 1 view .LVU112
 405              	.LVL39:
 273:D:/fchai/work/i-cube/I-CUBE-HUAWEI/Middlewares/Third_Party/Huawei/iot_link/shell\shell_main.c ****     (void) strncpy(cursor, str, str_len);
 406              		.loc 1 273 5 view .LVU113
 273:D:/fchai/work/i-cube/I-CUBE-HUAWEI/Middlewares/Third_Party/Huawei/iot_link/shell\shell_main.c ****     (void) strncpy(cursor, str, str_len);
 407              		.loc 1 273 12 is_stmt 0 view .LVU114
 408 007e 4946     		mov	r1, r9
 409 0080 3A46     		mov	r2, r7
 410              		.loc 1 274 1 view .LVU115
 411 0082 BDE8F843 		pop	{r3, r4, r5, r6, r7, r8, r9, lr}
 412              	.LCFI6:
 413              		.cfi_restore 14
 414              		.cfi_restore 9
ARM GAS  T:\msys\tmp\ccldiPcz.s 			page 14


 415              		.cfi_restore 8
 416              		.cfi_restore 7
 417              		.cfi_restore 6
 418              		.cfi_restore 5
 419              		.cfi_restore 4
 420              		.cfi_restore 3
 421              		.cfi_def_cfa_offset 0
 422              	.LVL40:
 273:D:/fchai/work/i-cube/I-CUBE-HUAWEI/Middlewares/Third_Party/Huawei/iot_link/shell\shell_main.c ****     (void) strncpy(cursor, str, str_len);
 423              		.loc 1 273 12 view .LVU116
 424 0086 FFF7FEBF 		b	strncpy
 425              	.LVL41:
 273:D:/fchai/work/i-cube/I-CUBE-HUAWEI/Middlewares/Third_Party/Huawei/iot_link/shell\shell_main.c ****     (void) strncpy(cursor, str, str_len);
 426              		.loc 1 273 12 view .LVU117
 427              		.cfi_endproc
 428              	.LFE13:
 430 008a 00BF     		.section	.text.shell_bell,"ax",%progbits
 431              		.align	1
 432              		.p2align 2,,3
 433              		.syntax unified
 434              		.thumb
 435              		.thumb_func
 436              		.fpu fpv4-sp-d16
 438              	shell_bell:
 439              	.LFB10:
 212:D:/fchai/work/i-cube/I-CUBE-HUAWEI/Middlewares/Third_Party/Huawei/iot_link/shell\shell_main.c ****     shell_put_char('\a');
 440              		.loc 1 212 26 is_stmt 1 view -0
 441              		.cfi_startproc
 442              		@ args = 0, pretend = 0, frame = 0
 443              		@ frame_needed = 0, uses_anonymous_args = 0
 213:D:/fchai/work/i-cube/I-CUBE-HUAWEI/Middlewares/Third_Party/Huawei/iot_link/shell\shell_main.c **** }
 444              		.loc 1 213 5 view .LVU119
 445              	.LVL42:
 446              	.LBB57:
 447              	.LBI57:
 128:D:/fchai/work/i-cube/I-CUBE-HUAWEI/Middlewares/Third_Party/Huawei/iot_link/shell\shell_main.c **** {
 448              		.loc 1 128 13 view .LVU120
 449              	.LBB58:
 130:D:/fchai/work/i-cube/I-CUBE-HUAWEI/Middlewares/Third_Party/Huawei/iot_link/shell\shell_main.c **** }
 450              		.loc 1 130 5 view .LVU121
 130:D:/fchai/work/i-cube/I-CUBE-HUAWEI/Middlewares/Third_Party/Huawei/iot_link/shell\shell_main.c **** }
 451              		.loc 1 130 5 view .LVU122
 452              	.LBE58:
 453              	.LBE57:
 212:D:/fchai/work/i-cube/I-CUBE-HUAWEI/Middlewares/Third_Party/Huawei/iot_link/shell\shell_main.c ****     shell_put_char('\a');
 454              		.loc 1 212 26 is_stmt 0 view .LVU123
 455 0000 08B5     		push	{r3, lr}
 456              	.LCFI7:
 457              		.cfi_def_cfa_offset 8
 458              		.cfi_offset 3, -8
 459              		.cfi_offset 14, -4
 460              	.LBB61:
 461              	.LBB59:
 130:D:/fchai/work/i-cube/I-CUBE-HUAWEI/Middlewares/Third_Party/Huawei/iot_link/shell\shell_main.c **** }
 462              		.loc 1 130 5 view .LVU124
 463 0002 0720     		movs	r0, #7
 464 0004 FFF7FEFF 		bl	putchar
ARM GAS  T:\msys\tmp\ccldiPcz.s 			page 15


 465              	.LVL43:
 130:D:/fchai/work/i-cube/I-CUBE-HUAWEI/Middlewares/Third_Party/Huawei/iot_link/shell\shell_main.c **** }
 466              		.loc 1 130 5 is_stmt 1 view .LVU125
 467 0008 034B     		ldr	r3, .L34
 468 000a 1B68     		ldr	r3, [r3]
 469 000c 9868     		ldr	r0, [r3, #8]
 470              	.LBE59:
 471              	.LBE61:
 214:D:/fchai/work/i-cube/I-CUBE-HUAWEI/Middlewares/Third_Party/Huawei/iot_link/shell\shell_main.c **** /*******************************************************************************
 472              		.loc 1 214 1 is_stmt 0 view .LVU126
 473 000e BDE80840 		pop	{r3, lr}
 474              	.LCFI8:
 475              		.cfi_restore 14
 476              		.cfi_restore 3
 477              		.cfi_def_cfa_offset 0
 478              	.LBB62:
 479              	.LBB60:
 130:D:/fchai/work/i-cube/I-CUBE-HUAWEI/Middlewares/Third_Party/Huawei/iot_link/shell\shell_main.c **** }
 480              		.loc 1 130 5 view .LVU127
 481 0012 FFF7FEBF 		b	fflush
 482              	.LVL44:
 483              	.L35:
 484 0016 00BF     		.align	2
 485              	.L34:
 486 0018 00000000 		.word	_impure_ptr
 487              	.LBE60:
 488              	.LBE62:
 489              		.cfi_endproc
 490              	.LFE10:
 492              		.section	.text.shell_cachecmd,"ax",%progbits
 493              		.align	1
 494              		.p2align 2,,3
 495              		.syntax unified
 496              		.thumb
 497              		.thumb_func
 498              		.fpu fpv4-sp-d16
 500              	shell_cachecmd:
 501              	.LVL45:
 502              	.LFB12:
 233:D:/fchai/work/i-cube/I-CUBE-HUAWEI/Middlewares/Third_Party/Huawei/iot_link/shell\shell_main.c ****     int i = 0;
 503              		.loc 1 233 55 is_stmt 1 view -0
 504              		.cfi_startproc
 505              		@ args = 0, pretend = 0, frame = 0
 506              		@ frame_needed = 0, uses_anonymous_args = 0
 234:D:/fchai/work/i-cube/I-CUBE-HUAWEI/Middlewares/Third_Party/Huawei/iot_link/shell\shell_main.c ****     int offset;
 507              		.loc 1 234 5 view .LVU129
 235:D:/fchai/work/i-cube/I-CUBE-HUAWEI/Middlewares/Third_Party/Huawei/iot_link/shell\shell_main.c ****     for(i = 0;i < CN_CMD_CACHE;i++){
 508              		.loc 1 235 5 view .LVU130
 236:D:/fchai/work/i-cube/I-CUBE-HUAWEI/Middlewares/Third_Party/Huawei/iot_link/shell\shell_main.c ****         if(0 == strcmp(tab->curcmd,tab->tab[i])){
 509              		.loc 1 236 5 view .LVU131
 236:D:/fchai/work/i-cube/I-CUBE-HUAWEI/Middlewares/Third_Party/Huawei/iot_link/shell\shell_main.c ****         if(0 == strcmp(tab->curcmd,tab->tab[i])){
 510              		.loc 1 236 15 view .LVU132
 233:D:/fchai/work/i-cube/I-CUBE-HUAWEI/Middlewares/Third_Party/Huawei/iot_link/shell\shell_main.c ****     int i = 0;
 511              		.loc 1 233 55 is_stmt 0 view .LVU133
 512 0000 70B5     		push	{r4, r5, r6, lr}
 513              	.LCFI9:
 514              		.cfi_def_cfa_offset 16
ARM GAS  T:\msys\tmp\ccldiPcz.s 			page 16


 515              		.cfi_offset 4, -16
 516              		.cfi_offset 5, -12
 517              		.cfi_offset 6, -8
 518              		.cfi_offset 14, -4
 233:D:/fchai/work/i-cube/I-CUBE-HUAWEI/Middlewares/Third_Party/Huawei/iot_link/shell\shell_main.c ****     int i = 0;
 519              		.loc 1 233 55 view .LVU134
 520 0002 0546     		mov	r5, r0
 521 0004 00F14104 		add	r4, r0, #65
 522 0008 00F24116 		addw	r6, r0, #321
 523              	.LVL46:
 524              	.L38:
 237:D:/fchai/work/i-cube/I-CUBE-HUAWEI/Middlewares/Third_Party/Huawei/iot_link/shell\shell_main.c ****             break;
 525              		.loc 1 237 9 is_stmt 1 view .LVU135
 237:D:/fchai/work/i-cube/I-CUBE-HUAWEI/Middlewares/Third_Party/Huawei/iot_link/shell\shell_main.c ****             break;
 526              		.loc 1 237 17 is_stmt 0 view .LVU136
 527 000c 2146     		mov	r1, r4
 528 000e 2846     		mov	r0, r5
 529 0010 4034     		adds	r4, r4, #64
 530 0012 FFF7FEFF 		bl	strcmp
 531              	.LVL47:
 236:D:/fchai/work/i-cube/I-CUBE-HUAWEI/Middlewares/Third_Party/Huawei/iot_link/shell\shell_main.c ****         if(0 == strcmp(tab->curcmd,tab->tab[i])){
 532              		.loc 1 236 32 is_stmt 1 view .LVU137
 236:D:/fchai/work/i-cube/I-CUBE-HUAWEI/Middlewares/Third_Party/Huawei/iot_link/shell\shell_main.c ****         if(0 == strcmp(tab->curcmd,tab->tab[i])){
 533              		.loc 1 236 15 view .LVU138
 237:D:/fchai/work/i-cube/I-CUBE-HUAWEI/Middlewares/Third_Party/Huawei/iot_link/shell\shell_main.c ****             break;
 534              		.loc 1 237 11 is_stmt 0 view .LVU139
 535 0016 A0B1     		cbz	r0, .L36
 236:D:/fchai/work/i-cube/I-CUBE-HUAWEI/Middlewares/Third_Party/Huawei/iot_link/shell\shell_main.c ****         if(0 == strcmp(tab->curcmd,tab->tab[i])){
 536              		.loc 1 236 5 discriminator 2 view .LVU140
 537 0018 B442     		cmp	r4, r6
 538 001a F7D1     		bne	.L38
 241:D:/fchai/work/i-cube/I-CUBE-HUAWEI/Middlewares/Third_Party/Huawei/iot_link/shell\shell_main.c ****         offset=tab->taboffset;
 539              		.loc 1 241 5 is_stmt 1 view .LVU141
 540              	.LVL48:
 541              	.LBB65:
 542              	.LBI65:
 233:D:/fchai/work/i-cube/I-CUBE-HUAWEI/Middlewares/Third_Party/Huawei/iot_link/shell\shell_main.c ****     int i = 0;
 543              		.loc 1 233 13 view .LVU142
 544              	.LBB66:
 242:D:/fchai/work/i-cube/I-CUBE-HUAWEI/Middlewares/Third_Party/Huawei/iot_link/shell\shell_main.c ****         (void) memset(tab->tab[offset],0,CN_CMDLEN_MAX);
 545              		.loc 1 242 9 view .LVU143
 242:D:/fchai/work/i-cube/I-CUBE-HUAWEI/Middlewares/Third_Party/Huawei/iot_link/shell\shell_main.c ****         (void) memset(tab->tab[offset],0,CN_CMDLEN_MAX);
 546              		.loc 1 242 19 is_stmt 0 view .LVU144
 547 001c 95F84141 		ldrb	r4, [r5, #321]	@ zero_extendqisi2
 548              	.LVL49:
 243:D:/fchai/work/i-cube/I-CUBE-HUAWEI/Middlewares/Third_Party/Huawei/iot_link/shell\shell_main.c ****         (void) strncpy(tab->tab[offset],tab->curcmd,CN_CMDLEN_MAX);
 549              		.loc 1 243 9 is_stmt 1 view .LVU145
 243:D:/fchai/work/i-cube/I-CUBE-HUAWEI/Middlewares/Third_Party/Huawei/iot_link/shell\shell_main.c ****         (void) strncpy(tab->tab[offset],tab->curcmd,CN_CMDLEN_MAX);
 550              		.loc 1 243 31 is_stmt 0 view .LVU146
 551 0020 0134     		adds	r4, r4, #1
 552              	.LVL50:
 243:D:/fchai/work/i-cube/I-CUBE-HUAWEI/Middlewares/Third_Party/Huawei/iot_link/shell\shell_main.c ****         (void) strncpy(tab->tab[offset],tab->curcmd,CN_CMDLEN_MAX);
 553              		.loc 1 243 31 view .LVU147
 554 0022 05EB8413 		add	r3, r5, r4, lsl #6
 555 0026 0133     		adds	r3, r3, #1
 243:D:/fchai/work/i-cube/I-CUBE-HUAWEI/Middlewares/Third_Party/Huawei/iot_link/shell\shell_main.c ****         (void) strncpy(tab->tab[offset],tab->curcmd,CN_CMDLEN_MAX);
 556              		.loc 1 243 16 view .LVU148
ARM GAS  T:\msys\tmp\ccldiPcz.s 			page 17


 557 0028 1846     		mov	r0, r3
 558 002a 4022     		movs	r2, #64
 559 002c 0021     		movs	r1, #0
 560 002e FFF7FEFF 		bl	memset
 561              	.LVL51:
 244:D:/fchai/work/i-cube/I-CUBE-HUAWEI/Middlewares/Third_Party/Huawei/iot_link/shell\shell_main.c ****         offset = (offset +1)%CN_CMD_CACHE;
 562              		.loc 1 244 9 is_stmt 1 view .LVU149
 245:D:/fchai/work/i-cube/I-CUBE-HUAWEI/Middlewares/Third_Party/Huawei/iot_link/shell\shell_main.c ****         tab->taboffset = offset;
 563              		.loc 1 245 16 is_stmt 0 view .LVU150
 564 0032 04F00304 		and	r4, r4, #3
 565              	.LVL52:
 244:D:/fchai/work/i-cube/I-CUBE-HUAWEI/Middlewares/Third_Party/Huawei/iot_link/shell\shell_main.c ****         offset = (offset +1)%CN_CMD_CACHE;
 566              		.loc 1 244 16 view .LVU151
 567 0036 4022     		movs	r2, #64
 568 0038 2946     		mov	r1, r5
 569 003a FFF7FEFF 		bl	strncpy
 570              	.LVL53:
 245:D:/fchai/work/i-cube/I-CUBE-HUAWEI/Middlewares/Third_Party/Huawei/iot_link/shell\shell_main.c ****         tab->taboffset = offset;
 571              		.loc 1 245 9 is_stmt 1 view .LVU152
 246:D:/fchai/work/i-cube/I-CUBE-HUAWEI/Middlewares/Third_Party/Huawei/iot_link/shell\shell_main.c ****     }
 572              		.loc 1 246 9 view .LVU153
 246:D:/fchai/work/i-cube/I-CUBE-HUAWEI/Middlewares/Third_Party/Huawei/iot_link/shell\shell_main.c ****     }
 573              		.loc 1 246 24 is_stmt 0 view .LVU154
 574 003e 85F84141 		strb	r4, [r5, #321]
 248:D:/fchai/work/i-cube/I-CUBE-HUAWEI/Middlewares/Third_Party/Huawei/iot_link/shell\shell_main.c **** }
 575              		.loc 1 248 5 is_stmt 1 view .LVU155
 576              	.LVL54:
 577              	.L36:
 248:D:/fchai/work/i-cube/I-CUBE-HUAWEI/Middlewares/Third_Party/Huawei/iot_link/shell\shell_main.c **** }
 578              		.loc 1 248 5 is_stmt 0 view .LVU156
 579              	.LBE66:
 580              	.LBE65:
 249:D:/fchai/work/i-cube/I-CUBE-HUAWEI/Middlewares/Third_Party/Huawei/iot_link/shell\shell_main.c **** 
 581              		.loc 1 249 1 view .LVU157
 582 0042 70BD     		pop	{r4, r5, r6, pc}
 249:D:/fchai/work/i-cube/I-CUBE-HUAWEI/Middlewares/Third_Party/Huawei/iot_link/shell\shell_main.c **** 
 583              		.loc 1 249 1 view .LVU158
 584              		.cfi_endproc
 585              	.LFE12:
 587              		.section	.rodata.shell_server_entry.str1.4,"aMS",%progbits,1
 588              		.align	2
 589              	.LC0:
 590 0000 57454C43 		.ascii	"WELCOME TO IOT_LINK SHELL\000"
 590      4F4D4520 
 590      544F2049 
 590      4F545F4C 
 590      494E4B20 
 591 001a 0000     		.align	2
 592              	.LC1:
 593 001c 0A0D4C69 		.ascii	"\012\015LiteOS:/>\000"
 593      74654F53 
 593      3A2F3E00 
 594              		.align	2
 595              	.LC2:
 596 0028 08200800 		.ascii	"\010 \010\000"
 597              		.align	2
 598              	.LC3:
ARM GAS  T:\msys\tmp\ccldiPcz.s 			page 18


 599 002c 0A0D00   		.ascii	"\012\015\000"
 600              		.section	.text.shell_server_entry,"ax",%progbits
 601              		.align	1
 602              		.p2align 2,,3
 603              		.syntax unified
 604              		.thumb
 605              		.thumb_func
 606              		.fpu fpv4-sp-d16
 608              	shell_server_entry:
 609              	.LVL55:
 610              	.LFB14:
 275:D:/fchai/work/i-cube/I-CUBE-HUAWEI/Middlewares/Third_Party/Huawei/iot_link/shell\shell_main.c **** /*******************************************************************************
 276:D:/fchai/work/i-cube/I-CUBE-HUAWEI/Middlewares/Third_Party/Huawei/iot_link/shell\shell_main.c **** function     :this is the  shell server task entry
 277:D:/fchai/work/i-cube/I-CUBE-HUAWEI/Middlewares/Third_Party/Huawei/iot_link/shell\shell_main.c **** parameters   :
 278:D:/fchai/work/i-cube/I-CUBE-HUAWEI/Middlewares/Third_Party/Huawei/iot_link/shell\shell_main.c **** instruction  :we get character from the input device each time,cached it in the 
 279:D:/fchai/work/i-cube/I-CUBE-HUAWEI/Middlewares/Third_Party/Huawei/iot_link/shell\shell_main.c ****               current command line,if enter key received, then do command execute;
 280:D:/fchai/work/i-cube/I-CUBE-HUAWEI/Middlewares/Third_Party/Huawei/iot_link/shell\shell_main.c ****               if other virtual key received, then do the specified action.
 281:D:/fchai/work/i-cube/I-CUBE-HUAWEI/Middlewares/Third_Party/Huawei/iot_link/shell\shell_main.c **** *******************************************************************************/
 282:D:/fchai/work/i-cube/I-CUBE-HUAWEI/Middlewares/Third_Party/Huawei/iot_link/shell\shell_main.c **** static int shell_server_entry(void *args)
 283:D:/fchai/work/i-cube/I-CUBE-HUAWEI/Middlewares/Third_Party/Huawei/iot_link/shell\shell_main.c **** {
 611              		.loc 1 283 1 is_stmt 1 view -0
 612              		.cfi_startproc
 613              		@ args = 0, pretend = 0, frame = 328
 614              		@ frame_needed = 0, uses_anonymous_args = 0
 284:D:/fchai/work/i-cube/I-CUBE-HUAWEI/Middlewares/Third_Party/Huawei/iot_link/shell\shell_main.c ****     int    ch;
 615              		.loc 1 284 5 view .LVU160
 285:D:/fchai/work/i-cube/I-CUBE-HUAWEI/Middlewares/Third_Party/Huawei/iot_link/shell\shell_main.c ****     int   len;
 616              		.loc 1 285 5 view .LVU161
 286:D:/fchai/work/i-cube/I-CUBE-HUAWEI/Middlewares/Third_Party/Huawei/iot_link/shell\shell_main.c ****     unsigned char    offset;
 617              		.loc 1 286 5 view .LVU162
 287:D:/fchai/work/i-cube/I-CUBE-HUAWEI/Middlewares/Third_Party/Huawei/iot_link/shell\shell_main.c ****     unsigned int   vk = CN_VIRTUAL_KEY_NULL;
 618              		.loc 1 287 5 view .LVU163
 288:D:/fchai/work/i-cube/I-CUBE-HUAWEI/Middlewares/Third_Party/Huawei/iot_link/shell\shell_main.c ****     unsigned int   vkmask = CN_VIRTUAL_KEY_NULL;
 619              		.loc 1 288 5 view .LVU164
 289:D:/fchai/work/i-cube/I-CUBE-HUAWEI/Middlewares/Third_Party/Huawei/iot_link/shell\shell_main.c ****     struct shell_buffer_t shell_cmd_cache; 
 620              		.loc 1 289 5 view .LVU165
 290:D:/fchai/work/i-cube/I-CUBE-HUAWEI/Middlewares/Third_Party/Huawei/iot_link/shell\shell_main.c **** 
 291:D:/fchai/work/i-cube/I-CUBE-HUAWEI/Middlewares/Third_Party/Huawei/iot_link/shell\shell_main.c ****     (void) memset(&shell_cmd_cache,0,sizeof(shell_cmd_cache));  //initialize the buffer
 621              		.loc 1 291 5 view .LVU166
 283:D:/fchai/work/i-cube/I-CUBE-HUAWEI/Middlewares/Third_Party/Huawei/iot_link/shell\shell_main.c ****     int    ch;
 622              		.loc 1 283 1 is_stmt 0 view .LVU167
 623 0000 2DE9F047 		push	{r4, r5, r6, r7, r8, r9, r10, lr}
 624              	.LCFI10:
 625              		.cfi_def_cfa_offset 32
 626              		.cfi_offset 4, -32
 627              		.cfi_offset 5, -28
 628              		.cfi_offset 6, -24
 629              		.cfi_offset 7, -20
 630              		.cfi_offset 8, -16
 631              		.cfi_offset 9, -12
 632              		.cfi_offset 10, -8
 633              		.cfi_offset 14, -4
 634 0004 D2B0     		sub	sp, sp, #328
 635              	.LCFI11:
 636              		.cfi_def_cfa_offset 360
 637              		.loc 1 291 12 view .LVU168
 638 0006 4FF4A172 		mov	r2, #322
ARM GAS  T:\msys\tmp\ccldiPcz.s 			page 19


 639 000a 0021     		movs	r1, #0
 640 000c 01A8     		add	r0, sp, #4
 641              	.LVL56:
 642              		.loc 1 291 12 view .LVU169
 643 000e FFF7FEFF 		bl	memset
 644              	.LVL57:
 292:D:/fchai/work/i-cube/I-CUBE-HUAWEI/Middlewares/Third_Party/Huawei/iot_link/shell\shell_main.c ****     shell_put_string(gs_welcome_info);     //put the welcome information
 645              		.loc 1 292 5 is_stmt 1 view .LVU170
 646 0012 AB48     		ldr	r0, .L117
 647 0014 DFF8C482 		ldr	r8, .L117+28
 293:D:/fchai/work/i-cube/I-CUBE-HUAWEI/Middlewares/Third_Party/Huawei/iot_link/shell\shell_main.c ****     shell_put_index();                                   //do initialize
 294:D:/fchai/work/i-cube/I-CUBE-HUAWEI/Middlewares/Third_Party/Huawei/iot_link/shell\shell_main.c ****     while(1){
 295:D:/fchai/work/i-cube/I-CUBE-HUAWEI/Middlewares/Third_Party/Huawei/iot_link/shell\shell_main.c ****         ch= shell_get_char();
 296:D:/fchai/work/i-cube/I-CUBE-HUAWEI/Middlewares/Third_Party/Huawei/iot_link/shell\shell_main.c ****         if((ch == CN_VIRTUAL_KEY_NULL)||(EOF == ch)||(ch == 0xFF)){
 297:D:/fchai/work/i-cube/I-CUBE-HUAWEI/Middlewares/Third_Party/Huawei/iot_link/shell\shell_main.c ****             continue;
 298:D:/fchai/work/i-cube/I-CUBE-HUAWEI/Middlewares/Third_Party/Huawei/iot_link/shell\shell_main.c ****         }
 299:D:/fchai/work/i-cube/I-CUBE-HUAWEI/Middlewares/Third_Party/Huawei/iot_link/shell\shell_main.c ****         if((vk&0xFF) != 0)  {
 300:D:/fchai/work/i-cube/I-CUBE-HUAWEI/Middlewares/Third_Party/Huawei/iot_link/shell\shell_main.c ****             if(((vk>>8)&0xff) == CN_VIRTUAL_KEY_NULL)  {
 301:D:/fchai/work/i-cube/I-CUBE-HUAWEI/Middlewares/Third_Party/Huawei/iot_link/shell\shell_main.c ****                 vk|=(ch<<8); 
 302:D:/fchai/work/i-cube/I-CUBE-HUAWEI/Middlewares/Third_Party/Huawei/iot_link/shell\shell_main.c ****                 continue;    
 303:D:/fchai/work/i-cube/I-CUBE-HUAWEI/Middlewares/Third_Party/Huawei/iot_link/shell\shell_main.c ****             }
 304:D:/fchai/work/i-cube/I-CUBE-HUAWEI/Middlewares/Third_Party/Huawei/iot_link/shell\shell_main.c ****             else  {
 305:D:/fchai/work/i-cube/I-CUBE-HUAWEI/Middlewares/Third_Party/Huawei/iot_link/shell\shell_main.c ****                 vk |= (ch <<16);//this is the vk code
 306:D:/fchai/work/i-cube/I-CUBE-HUAWEI/Middlewares/Third_Party/Huawei/iot_link/shell\shell_main.c ****                 vkmask |= (ch <<16);
 307:D:/fchai/work/i-cube/I-CUBE-HUAWEI/Middlewares/Third_Party/Huawei/iot_link/shell\shell_main.c ****             }
 308:D:/fchai/work/i-cube/I-CUBE-HUAWEI/Middlewares/Third_Party/Huawei/iot_link/shell\shell_main.c ****         }
 309:D:/fchai/work/i-cube/I-CUBE-HUAWEI/Middlewares/Third_Party/Huawei/iot_link/shell\shell_main.c ****         else{
 310:D:/fchai/work/i-cube/I-CUBE-HUAWEI/Middlewares/Third_Party/Huawei/iot_link/shell\shell_main.c ****             vkmask  = ch;
 311:D:/fchai/work/i-cube/I-CUBE-HUAWEI/Middlewares/Third_Party/Huawei/iot_link/shell\shell_main.c ****         }
 312:D:/fchai/work/i-cube/I-CUBE-HUAWEI/Middlewares/Third_Party/Huawei/iot_link/shell\shell_main.c ****         switch (vkmask)
 648              		.loc 1 312 9 is_stmt 0 view .LVU171
 649 0018 AA4F     		ldr	r7, .L117+4
 650 001a AB4E     		ldr	r6, .L117+8
 651 001c AB4D     		ldr	r5, .L117+12
 292:D:/fchai/work/i-cube/I-CUBE-HUAWEI/Middlewares/Third_Party/Huawei/iot_link/shell\shell_main.c ****     shell_put_string(gs_welcome_info);     //put the welcome information
 652              		.loc 1 292 5 view .LVU172
 653 001e FFF7FEFF 		bl	shell_put_string
 654              	.LVL58:
 293:D:/fchai/work/i-cube/I-CUBE-HUAWEI/Middlewares/Third_Party/Huawei/iot_link/shell\shell_main.c ****     shell_put_index();                                   //do initialize
 655              		.loc 1 293 5 is_stmt 1 view .LVU173
 656              	.LBB99:
 657              	.LBI99:
 155:D:/fchai/work/i-cube/I-CUBE-HUAWEI/Middlewares/Third_Party/Huawei/iot_link/shell\shell_main.c **** {
 658              		.loc 1 155 13 view .LVU174
 659              	.LBB100:
 157:D:/fchai/work/i-cube/I-CUBE-HUAWEI/Middlewares/Third_Party/Huawei/iot_link/shell\shell_main.c **** }
 660              		.loc 1 157 5 view .LVU175
 661 0022 AB48     		ldr	r0, .L117+16
 662 0024 FFF7FEFF 		bl	shell_put_string
 663              	.LVL59:
 664              	.LBE100:
 665              	.LBE99:
 288:D:/fchai/work/i-cube/I-CUBE-HUAWEI/Middlewares/Third_Party/Huawei/iot_link/shell\shell_main.c ****     struct shell_buffer_t shell_cmd_cache; 
 666              		.loc 1 288 20 is_stmt 0 view .LVU176
 667 0028 4FF00009 		mov	r9, #0
 287:D:/fchai/work/i-cube/I-CUBE-HUAWEI/Middlewares/Third_Party/Huawei/iot_link/shell\shell_main.c ****     unsigned int   vkmask = CN_VIRTUAL_KEY_NULL;
 668              		.loc 1 287 20 view .LVU177
ARM GAS  T:\msys\tmp\ccldiPcz.s 			page 20


 669 002c 4C46     		mov	r4, r9
 670              	.LVL60:
 671              	.L46:
 294:D:/fchai/work/i-cube/I-CUBE-HUAWEI/Middlewares/Third_Party/Huawei/iot_link/shell\shell_main.c ****         ch= shell_get_char();
 672              		.loc 1 294 5 is_stmt 1 view .LVU178
 295:D:/fchai/work/i-cube/I-CUBE-HUAWEI/Middlewares/Third_Party/Huawei/iot_link/shell\shell_main.c ****         if((ch == CN_VIRTUAL_KEY_NULL)||(EOF == ch)||(ch == 0xFF)){
 673              		.loc 1 295 9 view .LVU179
 674              	.LBB101:
 675              	.LBI101:
 119:D:/fchai/work/i-cube/I-CUBE-HUAWEI/Middlewares/Third_Party/Huawei/iot_link/shell\shell_main.c **** {
 676              		.loc 1 119 12 view .LVU180
 677              	.LBB102:
 121:D:/fchai/work/i-cube/I-CUBE-HUAWEI/Middlewares/Third_Party/Huawei/iot_link/shell\shell_main.c **** }
 678              		.loc 1 121 5 view .LVU181
 121:D:/fchai/work/i-cube/I-CUBE-HUAWEI/Middlewares/Third_Party/Huawei/iot_link/shell\shell_main.c **** }
 679              		.loc 1 121 12 is_stmt 0 view .LVU182
 680 002e FFF7FEFF 		bl	getchar
 681              	.LVL61:
 682              	.LBE102:
 683              	.LBE101:
 296:D:/fchai/work/i-cube/I-CUBE-HUAWEI/Middlewares/Third_Party/Huawei/iot_link/shell\shell_main.c ****             continue;
 684              		.loc 1 296 39 view .LVU183
 685 0032 431C     		adds	r3, r0, #1
 296:D:/fchai/work/i-cube/I-CUBE-HUAWEI/Middlewares/Third_Party/Huawei/iot_link/shell\shell_main.c ****             continue;
 686              		.loc 1 296 11 view .LVU184
 687 0034 012B     		cmp	r3, #1
 295:D:/fchai/work/i-cube/I-CUBE-HUAWEI/Middlewares/Third_Party/Huawei/iot_link/shell\shell_main.c ****         if((ch == CN_VIRTUAL_KEY_NULL)||(EOF == ch)||(ch == 0xFF)){
 688              		.loc 1 295 11 view .LVU185
 689 0036 0090     		str	r0, [sp]
 296:D:/fchai/work/i-cube/I-CUBE-HUAWEI/Middlewares/Third_Party/Huawei/iot_link/shell\shell_main.c ****             continue;
 690              		.loc 1 296 9 is_stmt 1 view .LVU186
 296:D:/fchai/work/i-cube/I-CUBE-HUAWEI/Middlewares/Third_Party/Huawei/iot_link/shell\shell_main.c ****             continue;
 691              		.loc 1 296 11 is_stmt 0 view .LVU187
 692 0038 F9D9     		bls	.L46
 296:D:/fchai/work/i-cube/I-CUBE-HUAWEI/Middlewares/Third_Party/Huawei/iot_link/shell\shell_main.c ****             continue;
 693              		.loc 1 296 52 discriminator 1 view .LVU188
 694 003a FF28     		cmp	r0, #255
 695 003c F7D0     		beq	.L46
 299:D:/fchai/work/i-cube/I-CUBE-HUAWEI/Middlewares/Third_Party/Huawei/iot_link/shell\shell_main.c ****             if(((vk>>8)&0xff) == CN_VIRTUAL_KEY_NULL)  {
 696              		.loc 1 299 9 is_stmt 1 view .LVU189
 299:D:/fchai/work/i-cube/I-CUBE-HUAWEI/Middlewares/Third_Party/Huawei/iot_link/shell\shell_main.c ****             if(((vk>>8)&0xff) == CN_VIRTUAL_KEY_NULL)  {
 697              		.loc 1 299 11 is_stmt 0 view .LVU190
 698 003e 14F0FF0F 		tst	r4, #255
 699 0042 00F0D080 		beq	.L74
 300:D:/fchai/work/i-cube/I-CUBE-HUAWEI/Middlewares/Third_Party/Huawei/iot_link/shell\shell_main.c ****                 vk|=(ch<<8); 
 700              		.loc 1 300 13 is_stmt 1 view .LVU191
 300:D:/fchai/work/i-cube/I-CUBE-HUAWEI/Middlewares/Third_Party/Huawei/iot_link/shell\shell_main.c ****                 vk|=(ch<<8); 
 701              		.loc 1 300 15 is_stmt 0 view .LVU192
 702 0046 14F47F4F 		tst	r4, #65280
 703 004a 00F0CF80 		beq	.L110
 305:D:/fchai/work/i-cube/I-CUBE-HUAWEI/Middlewares/Third_Party/Huawei/iot_link/shell\shell_main.c ****                 vkmask |= (ch <<16);
 704              		.loc 1 305 17 is_stmt 1 view .LVU193
 305:D:/fchai/work/i-cube/I-CUBE-HUAWEI/Middlewares/Third_Party/Huawei/iot_link/shell\shell_main.c ****                 vkmask |= (ch <<16);
 705              		.loc 1 305 20 is_stmt 0 view .LVU194
 706 004e 44EA004A 		orr	r10, r4, r0, lsl #16
 707              	.LVL62:
 306:D:/fchai/work/i-cube/I-CUBE-HUAWEI/Middlewares/Third_Party/Huawei/iot_link/shell\shell_main.c ****             }
ARM GAS  T:\msys\tmp\ccldiPcz.s 			page 21


 708              		.loc 1 306 17 is_stmt 1 view .LVU195
 306:D:/fchai/work/i-cube/I-CUBE-HUAWEI/Middlewares/Third_Party/Huawei/iot_link/shell\shell_main.c ****             }
 709              		.loc 1 306 24 is_stmt 0 view .LVU196
 710 0052 49EA0044 		orr	r4, r9, r0, lsl #16
 711              	.LVL63:
 712              	.L48:
 713              		.loc 1 312 9 is_stmt 1 view .LVU197
 714 0056 1B2C     		cmp	r4, #27
 715 0058 78D8     		bhi	.L50
 716              		.loc 1 312 9 is_stmt 0 view .LVU198
 717 005a 072C     		cmp	r4, #7
 718 005c 4BD9     		bls	.L51
 719 005e A4F10803 		sub	r3, r4, #8
 720 0062 132B     		cmp	r3, #19
 721 0064 47D8     		bhi	.L51
 722 0066 DFE803F0 		tbb	[pc, r3]
 723              	.L52:
 724 006a 18       		.byte	(.L56-.L52)/2
 725 006b 52       		.byte	(.L55-.L52)/2
 726 006c 0C       		.byte	(.L53-.L52)/2
 727 006d 46       		.byte	(.L51-.L52)/2
 728 006e 46       		.byte	(.L51-.L52)/2
 729 006f 0C       		.byte	(.L53-.L52)/2
 730 0070 46       		.byte	(.L51-.L52)/2
 731 0071 46       		.byte	(.L51-.L52)/2
 732 0072 46       		.byte	(.L51-.L52)/2
 733 0073 46       		.byte	(.L51-.L52)/2
 734 0074 46       		.byte	(.L51-.L52)/2
 735 0075 46       		.byte	(.L51-.L52)/2
 736 0076 46       		.byte	(.L51-.L52)/2
 737 0077 46       		.byte	(.L51-.L52)/2
 738 0078 46       		.byte	(.L51-.L52)/2
 739 0079 46       		.byte	(.L51-.L52)/2
 740 007a 46       		.byte	(.L51-.L52)/2
 741 007b 46       		.byte	(.L51-.L52)/2
 742 007c 46       		.byte	(.L51-.L52)/2
 743 007d 0A       		.byte	(.L75-.L52)/2
 744              		.p2align 1
 745              	.L75:
 746 007e A146     		mov	r9, r4
 747 0080 D5E7     		b	.L46
 748              	.L53:
 313:D:/fchai/work/i-cube/I-CUBE-HUAWEI/Middlewares/Third_Party/Huawei/iot_link/shell\shell_main.c ****         {
 314:D:/fchai/work/i-cube/I-CUBE-HUAWEI/Middlewares/Third_Party/Huawei/iot_link/shell\shell_main.c ****             case CN_VIRTUAL_KEY_ARROWL:        //left,make the cursor moved left
 315:D:/fchai/work/i-cube/I-CUBE-HUAWEI/Middlewares/Third_Party/Huawei/iot_link/shell\shell_main.c ****                 if(shell_cmd_cache.curoffset > 0){
 316:D:/fchai/work/i-cube/I-CUBE-HUAWEI/Middlewares/Third_Party/Huawei/iot_link/shell\shell_main.c ****                     shell_cmd_cache.curoffset--;
 317:D:/fchai/work/i-cube/I-CUBE-HUAWEI/Middlewares/Third_Party/Huawei/iot_link/shell\shell_main.c ****                     //push back the left cursor and make the terminal display know what has happene
 318:D:/fchai/work/i-cube/I-CUBE-HUAWEI/Middlewares/Third_Party/Huawei/iot_link/shell\shell_main.c ****                     shell_moves_cursor_left(1);
 319:D:/fchai/work/i-cube/I-CUBE-HUAWEI/Middlewares/Third_Party/Huawei/iot_link/shell\shell_main.c ****                 }else
 320:D:/fchai/work/i-cube/I-CUBE-HUAWEI/Middlewares/Third_Party/Huawei/iot_link/shell\shell_main.c ****                     shell_bell();
 321:D:/fchai/work/i-cube/I-CUBE-HUAWEI/Middlewares/Third_Party/Huawei/iot_link/shell\shell_main.c ****                 //flush the vk
 322:D:/fchai/work/i-cube/I-CUBE-HUAWEI/Middlewares/Third_Party/Huawei/iot_link/shell\shell_main.c ****                 vk = CN_VIRTUAL_KEY_NULL;
 323:D:/fchai/work/i-cube/I-CUBE-HUAWEI/Middlewares/Third_Party/Huawei/iot_link/shell\shell_main.c ****                 vkmask = CN_VIRTUAL_KEY_NULL;
 324:D:/fchai/work/i-cube/I-CUBE-HUAWEI/Middlewares/Third_Party/Huawei/iot_link/shell\shell_main.c ****                 break;
 325:D:/fchai/work/i-cube/I-CUBE-HUAWEI/Middlewares/Third_Party/Huawei/iot_link/shell\shell_main.c ****             case CN_VIRTUAL_KEY_ARROWR:        //right,make the cursor moved right,if the buffer ha
 326:D:/fchai/work/i-cube/I-CUBE-HUAWEI/Middlewares/Third_Party/Huawei/iot_link/shell\shell_main.c ****                 len = strlen(shell_cmd_cache.curcmd);
 327:D:/fchai/work/i-cube/I-CUBE-HUAWEI/Middlewares/Third_Party/Huawei/iot_link/shell\shell_main.c ****                 if(shell_cmd_cache.curoffset < len){
ARM GAS  T:\msys\tmp\ccldiPcz.s 			page 22


 328:D:/fchai/work/i-cube/I-CUBE-HUAWEI/Middlewares/Third_Party/Huawei/iot_link/shell\shell_main.c ****                     shell_cmd_cache.curoffset++;
 329:D:/fchai/work/i-cube/I-CUBE-HUAWEI/Middlewares/Third_Party/Huawei/iot_link/shell\shell_main.c ****                     //push back the right cursor and make the terminal display know what has happen
 330:D:/fchai/work/i-cube/I-CUBE-HUAWEI/Middlewares/Third_Party/Huawei/iot_link/shell\shell_main.c ****                     shell_moves_cursor_right(1,vk);
 331:D:/fchai/work/i-cube/I-CUBE-HUAWEI/Middlewares/Third_Party/Huawei/iot_link/shell\shell_main.c ****                 } else
 332:D:/fchai/work/i-cube/I-CUBE-HUAWEI/Middlewares/Third_Party/Huawei/iot_link/shell\shell_main.c ****                 shell_bell();
 333:D:/fchai/work/i-cube/I-CUBE-HUAWEI/Middlewares/Third_Party/Huawei/iot_link/shell\shell_main.c ****                 //flush the vk
 334:D:/fchai/work/i-cube/I-CUBE-HUAWEI/Middlewares/Third_Party/Huawei/iot_link/shell\shell_main.c ****                 vk = CN_VIRTUAL_KEY_NULL;
 335:D:/fchai/work/i-cube/I-CUBE-HUAWEI/Middlewares/Third_Party/Huawei/iot_link/shell\shell_main.c ****                 vkmask = CN_VIRTUAL_KEY_NULL;
 336:D:/fchai/work/i-cube/I-CUBE-HUAWEI/Middlewares/Third_Party/Huawei/iot_link/shell\shell_main.c ****                 break;
 337:D:/fchai/work/i-cube/I-CUBE-HUAWEI/Middlewares/Third_Party/Huawei/iot_link/shell\shell_main.c ****             case CN_VIRTUAL_KEY_ARROWU:        //moves to the previous command
 338:D:/fchai/work/i-cube/I-CUBE-HUAWEI/Middlewares/Third_Party/Huawei/iot_link/shell\shell_main.c ****                 //first,we should clear what we has get,do the reset current command
 339:D:/fchai/work/i-cube/I-CUBE-HUAWEI/Middlewares/Third_Party/Huawei/iot_link/shell\shell_main.c ****                 //first moves to the left,then putsnxt to the next to the right,then back
 340:D:/fchai/work/i-cube/I-CUBE-HUAWEI/Middlewares/Third_Party/Huawei/iot_link/shell\shell_main.c ****                 len = strlen(shell_cmd_cache.curcmd);
 341:D:/fchai/work/i-cube/I-CUBE-HUAWEI/Middlewares/Third_Party/Huawei/iot_link/shell\shell_main.c ****                 if(shell_cmd_cache.curoffset < len){
 342:D:/fchai/work/i-cube/I-CUBE-HUAWEI/Middlewares/Third_Party/Huawei/iot_link/shell\shell_main.c ****                     shell_put_space(len - shell_cmd_cache.curoffset);
 343:D:/fchai/work/i-cube/I-CUBE-HUAWEI/Middlewares/Third_Party/Huawei/iot_link/shell\shell_main.c ****                     shell_cmd_cache.curoffset = len;
 344:D:/fchai/work/i-cube/I-CUBE-HUAWEI/Middlewares/Third_Party/Huawei/iot_link/shell\shell_main.c ****                 }
 345:D:/fchai/work/i-cube/I-CUBE-HUAWEI/Middlewares/Third_Party/Huawei/iot_link/shell\shell_main.c ****                 shell_put_backspace(len);
 346:D:/fchai/work/i-cube/I-CUBE-HUAWEI/Middlewares/Third_Party/Huawei/iot_link/shell\shell_main.c ****                 (void) memset(shell_cmd_cache.curcmd,0,CN_CMDLEN_MAX);
 347:D:/fchai/work/i-cube/I-CUBE-HUAWEI/Middlewares/Third_Party/Huawei/iot_link/shell\shell_main.c ****                 shell_cmd_cache.curoffset = 0;
 348:D:/fchai/work/i-cube/I-CUBE-HUAWEI/Middlewares/Third_Party/Huawei/iot_link/shell\shell_main.c ****                 //then copy the previous command to current and echo all the info
 349:D:/fchai/work/i-cube/I-CUBE-HUAWEI/Middlewares/Third_Party/Huawei/iot_link/shell\shell_main.c ****                 offset = (shell_cmd_cache.taboffset +CN_CMD_CACHE -1)%CN_CMD_CACHE;
 350:D:/fchai/work/i-cube/I-CUBE-HUAWEI/Middlewares/Third_Party/Huawei/iot_link/shell\shell_main.c ****                 (void) strncpy(shell_cmd_cache.curcmd,shell_cmd_cache.tab[offset],CN_CMDLEN_MAX);
 351:D:/fchai/work/i-cube/I-CUBE-HUAWEI/Middlewares/Third_Party/Huawei/iot_link/shell\shell_main.c ****                 shell_cmd_cache.taboffset = offset;
 352:D:/fchai/work/i-cube/I-CUBE-HUAWEI/Middlewares/Third_Party/Huawei/iot_link/shell\shell_main.c ****                 shell_cmd_cache.curoffset = strlen(shell_cmd_cache.curcmd);
 353:D:/fchai/work/i-cube/I-CUBE-HUAWEI/Middlewares/Third_Party/Huawei/iot_link/shell\shell_main.c ****                 //OK,now puts all the current character to the terminal
 354:D:/fchai/work/i-cube/I-CUBE-HUAWEI/Middlewares/Third_Party/Huawei/iot_link/shell\shell_main.c ****                 shell_put_string(shell_cmd_cache.curcmd);
 355:D:/fchai/work/i-cube/I-CUBE-HUAWEI/Middlewares/Third_Party/Huawei/iot_link/shell\shell_main.c ****                 //flush the vk
 356:D:/fchai/work/i-cube/I-CUBE-HUAWEI/Middlewares/Third_Party/Huawei/iot_link/shell\shell_main.c ****                 vk = CN_VIRTUAL_KEY_NULL;
 357:D:/fchai/work/i-cube/I-CUBE-HUAWEI/Middlewares/Third_Party/Huawei/iot_link/shell\shell_main.c ****                 vkmask = CN_VIRTUAL_KEY_NULL;
 358:D:/fchai/work/i-cube/I-CUBE-HUAWEI/Middlewares/Third_Party/Huawei/iot_link/shell\shell_main.c ****                 break;
 359:D:/fchai/work/i-cube/I-CUBE-HUAWEI/Middlewares/Third_Party/Huawei/iot_link/shell\shell_main.c ****             case CN_VIRTUAL_KEY_ARROWD:        //moves to the next command
 360:D:/fchai/work/i-cube/I-CUBE-HUAWEI/Middlewares/Third_Party/Huawei/iot_link/shell\shell_main.c ****                 //first,we should clear what we has get,do the reset current command
 361:D:/fchai/work/i-cube/I-CUBE-HUAWEI/Middlewares/Third_Party/Huawei/iot_link/shell\shell_main.c ****                 //first moves to the right,then backspace all the input
 362:D:/fchai/work/i-cube/I-CUBE-HUAWEI/Middlewares/Third_Party/Huawei/iot_link/shell\shell_main.c ****                 len = strlen(shell_cmd_cache.curcmd);
 363:D:/fchai/work/i-cube/I-CUBE-HUAWEI/Middlewares/Third_Party/Huawei/iot_link/shell\shell_main.c ****                 if(shell_cmd_cache.curoffset < len){
 364:D:/fchai/work/i-cube/I-CUBE-HUAWEI/Middlewares/Third_Party/Huawei/iot_link/shell\shell_main.c ****                     shell_put_space(len - shell_cmd_cache.curoffset);
 365:D:/fchai/work/i-cube/I-CUBE-HUAWEI/Middlewares/Third_Party/Huawei/iot_link/shell\shell_main.c ****                     shell_cmd_cache.curoffset = len;
 366:D:/fchai/work/i-cube/I-CUBE-HUAWEI/Middlewares/Third_Party/Huawei/iot_link/shell\shell_main.c ****                 }
 367:D:/fchai/work/i-cube/I-CUBE-HUAWEI/Middlewares/Third_Party/Huawei/iot_link/shell\shell_main.c ****                 shell_put_backspace(len);
 368:D:/fchai/work/i-cube/I-CUBE-HUAWEI/Middlewares/Third_Party/Huawei/iot_link/shell\shell_main.c ****                 (void) memset(shell_cmd_cache.curcmd,0,CN_CMDLEN_MAX);
 369:D:/fchai/work/i-cube/I-CUBE-HUAWEI/Middlewares/Third_Party/Huawei/iot_link/shell\shell_main.c ****                 shell_cmd_cache.curoffset = 0;
 370:D:/fchai/work/i-cube/I-CUBE-HUAWEI/Middlewares/Third_Party/Huawei/iot_link/shell\shell_main.c ****                 //then copy the next command to current
 371:D:/fchai/work/i-cube/I-CUBE-HUAWEI/Middlewares/Third_Party/Huawei/iot_link/shell\shell_main.c ****                 offset = (shell_cmd_cache.taboffset +CN_CMD_CACHE +1)%CN_CMD_CACHE;
 372:D:/fchai/work/i-cube/I-CUBE-HUAWEI/Middlewares/Third_Party/Huawei/iot_link/shell\shell_main.c ****                 (void) strncpy(shell_cmd_cache.curcmd,shell_cmd_cache.tab[offset],CN_CMDLEN_MAX);
 373:D:/fchai/work/i-cube/I-CUBE-HUAWEI/Middlewares/Third_Party/Huawei/iot_link/shell\shell_main.c ****                 shell_cmd_cache.taboffset = offset;
 374:D:/fchai/work/i-cube/I-CUBE-HUAWEI/Middlewares/Third_Party/Huawei/iot_link/shell\shell_main.c ****                 shell_cmd_cache.curoffset = strlen(shell_cmd_cache.curcmd);
 375:D:/fchai/work/i-cube/I-CUBE-HUAWEI/Middlewares/Third_Party/Huawei/iot_link/shell\shell_main.c ****                 //OK,now puts all the current character to the terminal
 376:D:/fchai/work/i-cube/I-CUBE-HUAWEI/Middlewares/Third_Party/Huawei/iot_link/shell\shell_main.c ****                 shell_put_string(shell_cmd_cache.curcmd);
 377:D:/fchai/work/i-cube/I-CUBE-HUAWEI/Middlewares/Third_Party/Huawei/iot_link/shell\shell_main.c ****                 //flush the vk
 378:D:/fchai/work/i-cube/I-CUBE-HUAWEI/Middlewares/Third_Party/Huawei/iot_link/shell\shell_main.c ****                 vk = CN_VIRTUAL_KEY_NULL;
 379:D:/fchai/work/i-cube/I-CUBE-HUAWEI/Middlewares/Third_Party/Huawei/iot_link/shell\shell_main.c ****                 vkmask = CN_VIRTUAL_KEY_NULL;
 380:D:/fchai/work/i-cube/I-CUBE-HUAWEI/Middlewares/Third_Party/Huawei/iot_link/shell\shell_main.c ****                 break;
 381:D:/fchai/work/i-cube/I-CUBE-HUAWEI/Middlewares/Third_Party/Huawei/iot_link/shell\shell_main.c ****             case CN_KEY_TAB:      //tab,should auto complete the command
 382:D:/fchai/work/i-cube/I-CUBE-HUAWEI/Middlewares/Third_Party/Huawei/iot_link/shell\shell_main.c ****                 //should search the command we has installed if some index has get
 383:D:/fchai/work/i-cube/I-CUBE-HUAWEI/Middlewares/Third_Party/Huawei/iot_link/shell\shell_main.c ****                 if(shell_cmd_cache.curoffset > 0) {
 384:D:/fchai/work/i-cube/I-CUBE-HUAWEI/Middlewares/Third_Party/Huawei/iot_link/shell\shell_main.c ****                     char cursor = shell_cmd_cache.curcmd[shell_cmd_cache.curoffset];
ARM GAS  T:\msys\tmp\ccldiPcz.s 			page 23


 385:D:/fchai/work/i-cube/I-CUBE-HUAWEI/Middlewares/Third_Party/Huawei/iot_link/shell\shell_main.c ****                     shell_cmd_cache.curcmd[shell_cmd_cache.curoffset] = 0;
 386:D:/fchai/work/i-cube/I-CUBE-HUAWEI/Middlewares/Third_Party/Huawei/iot_link/shell\shell_main.c ****                     const struct shell_tab_matches *matches;
 387:D:/fchai/work/i-cube/I-CUBE-HUAWEI/Middlewares/Third_Party/Huawei/iot_link/shell\shell_main.c ****                     matches = shell_cmd_index((const char*)shell_cmd_cache.curcmd);
 388:D:/fchai/work/i-cube/I-CUBE-HUAWEI/Middlewares/Third_Party/Huawei/iot_link/shell\shell_main.c ****                     shell_cmd_cache.curcmd[shell_cmd_cache.curoffset] = cursor;
 389:D:/fchai/work/i-cube/I-CUBE-HUAWEI/Middlewares/Third_Party/Huawei/iot_link/shell\shell_main.c ****                     if (matches->len == 1) {
 390:D:/fchai/work/i-cube/I-CUBE-HUAWEI/Middlewares/Third_Party/Huawei/iot_link/shell\shell_main.c ****                         //only one cmd matched, insert the matched cmd at current cursor
 391:D:/fchai/work/i-cube/I-CUBE-HUAWEI/Middlewares/Third_Party/Huawei/iot_link/shell\shell_main.c ****                         shell_insert_string(&shell_cmd_cache, matches->matches[0] + shell_cmd_cache
 392:D:/fchai/work/i-cube/I-CUBE-HUAWEI/Middlewares/Third_Party/Huawei/iot_link/shell\shell_main.c ****                     } else if (matches->len > 1) {
 393:D:/fchai/work/i-cube/I-CUBE-HUAWEI/Middlewares/Third_Party/Huawei/iot_link/shell\shell_main.c ****                         link_printf("\n\r");
 394:D:/fchai/work/i-cube/I-CUBE-HUAWEI/Middlewares/Third_Party/Huawei/iot_link/shell\shell_main.c ****                         for (int i = 0; i < matches->len; i++) {
 395:D:/fchai/work/i-cube/I-CUBE-HUAWEI/Middlewares/Third_Party/Huawei/iot_link/shell\shell_main.c ****                             shell_put_string(matches->matches[i]);
 396:D:/fchai/work/i-cube/I-CUBE-HUAWEI/Middlewares/Third_Party/Huawei/iot_link/shell\shell_main.c ****                             shell_put_char('\t');
 397:D:/fchai/work/i-cube/I-CUBE-HUAWEI/Middlewares/Third_Party/Huawei/iot_link/shell\shell_main.c ****                         }
 398:D:/fchai/work/i-cube/I-CUBE-HUAWEI/Middlewares/Third_Party/Huawei/iot_link/shell\shell_main.c ****                         link_printf("\n\r");
 399:D:/fchai/work/i-cube/I-CUBE-HUAWEI/Middlewares/Third_Party/Huawei/iot_link/shell\shell_main.c ****                         shell_put_index();
 400:D:/fchai/work/i-cube/I-CUBE-HUAWEI/Middlewares/Third_Party/Huawei/iot_link/shell\shell_main.c ****                         shell_put_string(shell_cmd_cache.curcmd);
 401:D:/fchai/work/i-cube/I-CUBE-HUAWEI/Middlewares/Third_Party/Huawei/iot_link/shell\shell_main.c ****                         shell_moves_cursor_left(strlen(shell_cmd_cache.curcmd) - shell_cmd_cache.cu
 402:D:/fchai/work/i-cube/I-CUBE-HUAWEI/Middlewares/Third_Party/Huawei/iot_link/shell\shell_main.c ****                     } else 
 403:D:/fchai/work/i-cube/I-CUBE-HUAWEI/Middlewares/Third_Party/Huawei/iot_link/shell\shell_main.c ****                         shell_bell();
 404:D:/fchai/work/i-cube/I-CUBE-HUAWEI/Middlewares/Third_Party/Huawei/iot_link/shell\shell_main.c ****                 } else
 405:D:/fchai/work/i-cube/I-CUBE-HUAWEI/Middlewares/Third_Party/Huawei/iot_link/shell\shell_main.c ****                     shell_bell();
 406:D:/fchai/work/i-cube/I-CUBE-HUAWEI/Middlewares/Third_Party/Huawei/iot_link/shell\shell_main.c ****                 //flush the vk
 407:D:/fchai/work/i-cube/I-CUBE-HUAWEI/Middlewares/Third_Party/Huawei/iot_link/shell\shell_main.c ****                 vk = CN_VIRTUAL_KEY_NULL;
 408:D:/fchai/work/i-cube/I-CUBE-HUAWEI/Middlewares/Third_Party/Huawei/iot_link/shell\shell_main.c ****                 vkmask = CN_VIRTUAL_KEY_NULL;
 409:D:/fchai/work/i-cube/I-CUBE-HUAWEI/Middlewares/Third_Party/Huawei/iot_link/shell\shell_main.c ****                 break;
 410:D:/fchai/work/i-cube/I-CUBE-HUAWEI/Middlewares/Third_Party/Huawei/iot_link/shell\shell_main.c ****             case CN_KEY_LF:      //execute the command here, and push the command to the history ca
 411:D:/fchai/work/i-cube/I-CUBE-HUAWEI/Middlewares/Third_Party/Huawei/iot_link/shell\shell_main.c ****                 if(strlen(shell_cmd_cache.curcmd) != 0){
 749              		.loc 1 411 17 is_stmt 1 view .LVU199
 750              		.loc 1 411 19 is_stmt 0 view .LVU200
 751 0082 9DF80430 		ldrb	r3, [sp, #4]	@ zero_extendqisi2
 752 0086 002B     		cmp	r3, #0
 753 0088 40F0F680 		bne	.L111
 754              	.L73:
 412:D:/fchai/work/i-cube/I-CUBE-HUAWEI/Middlewares/Third_Party/Huawei/iot_link/shell\shell_main.c ****                     link_printf("\n\r");
 413:D:/fchai/work/i-cube/I-CUBE-HUAWEI/Middlewares/Third_Party/Huawei/iot_link/shell\shell_main.c ****                     //copy the current to the history cache if the current command is not none
 414:D:/fchai/work/i-cube/I-CUBE-HUAWEI/Middlewares/Third_Party/Huawei/iot_link/shell\shell_main.c ****                     shell_cachecmd(&shell_cmd_cache);//must do before the execute,execute will spli
 415:D:/fchai/work/i-cube/I-CUBE-HUAWEI/Middlewares/Third_Party/Huawei/iot_link/shell\shell_main.c ****                     shell_cmd_execute(shell_cmd_cache.curcmd);  //execute the command
 416:D:/fchai/work/i-cube/I-CUBE-HUAWEI/Middlewares/Third_Party/Huawei/iot_link/shell\shell_main.c ****                     (void) memset(shell_cmd_cache.curcmd,0,CN_CMDLEN_MAX);
 417:D:/fchai/work/i-cube/I-CUBE-HUAWEI/Middlewares/Third_Party/Huawei/iot_link/shell\shell_main.c ****                     shell_cmd_cache.curoffset = 0;
 418:D:/fchai/work/i-cube/I-CUBE-HUAWEI/Middlewares/Third_Party/Huawei/iot_link/shell\shell_main.c ****                 }
 419:D:/fchai/work/i-cube/I-CUBE-HUAWEI/Middlewares/Third_Party/Huawei/iot_link/shell\shell_main.c ****                 shell_put_index();
 755              		.loc 1 419 17 is_stmt 1 view .LVU201
 756              	.LBB103:
 757              	.LBI103:
 155:D:/fchai/work/i-cube/I-CUBE-HUAWEI/Middlewares/Third_Party/Huawei/iot_link/shell\shell_main.c **** {
 758              		.loc 1 155 13 view .LVU202
 759              	.LBB104:
 157:D:/fchai/work/i-cube/I-CUBE-HUAWEI/Middlewares/Third_Party/Huawei/iot_link/shell\shell_main.c **** }
 760              		.loc 1 157 5 view .LVU203
 761 008c 9048     		ldr	r0, .L117+16
 762              	.LBE104:
 763              	.LBE103:
 420:D:/fchai/work/i-cube/I-CUBE-HUAWEI/Middlewares/Third_Party/Huawei/iot_link/shell\shell_main.c ****                 //flush the vk
 421:D:/fchai/work/i-cube/I-CUBE-HUAWEI/Middlewares/Third_Party/Huawei/iot_link/shell\shell_main.c ****                 vk = CN_VIRTUAL_KEY_NULL;
 422:D:/fchai/work/i-cube/I-CUBE-HUAWEI/Middlewares/Third_Party/Huawei/iot_link/shell\shell_main.c ****                 vkmask = CN_VIRTUAL_KEY_NULL;
 764              		.loc 1 422 24 is_stmt 0 view .LVU204
 765 008e 4FF00009 		mov	r9, #0
ARM GAS  T:\msys\tmp\ccldiPcz.s 			page 24


 766              	.LBB106:
 767              	.LBB105:
 157:D:/fchai/work/i-cube/I-CUBE-HUAWEI/Middlewares/Third_Party/Huawei/iot_link/shell\shell_main.c **** }
 768              		.loc 1 157 5 view .LVU205
 769 0092 FFF7FEFF 		bl	shell_put_string
 770              	.LVL64:
 771              	.LBE105:
 772              	.LBE106:
 421:D:/fchai/work/i-cube/I-CUBE-HUAWEI/Middlewares/Third_Party/Huawei/iot_link/shell\shell_main.c ****                 vkmask = CN_VIRTUAL_KEY_NULL;
 773              		.loc 1 421 17 is_stmt 1 view .LVU206
 774              		.loc 1 422 17 view .LVU207
 423:D:/fchai/work/i-cube/I-CUBE-HUAWEI/Middlewares/Third_Party/Huawei/iot_link/shell\shell_main.c ****                 break;
 775              		.loc 1 423 17 view .LVU208
 421:D:/fchai/work/i-cube/I-CUBE-HUAWEI/Middlewares/Third_Party/Huawei/iot_link/shell\shell_main.c ****                 vkmask = CN_VIRTUAL_KEY_NULL;
 776              		.loc 1 421 20 is_stmt 0 view .LVU209
 777 0096 4C46     		mov	r4, r9
 778              		.loc 1 423 17 view .LVU210
 779 0098 C9E7     		b	.L46
 780              	.LVL65:
 781              	.L56:
 424:D:/fchai/work/i-cube/I-CUBE-HUAWEI/Middlewares/Third_Party/Huawei/iot_link/shell\shell_main.c ****             case CN_KEY_CR:      //execute the command here, and push the command to the history ca
 425:D:/fchai/work/i-cube/I-CUBE-HUAWEI/Middlewares/Third_Party/Huawei/iot_link/shell\shell_main.c ****                 if(strlen(shell_cmd_cache.curcmd) != 0){
 426:D:/fchai/work/i-cube/I-CUBE-HUAWEI/Middlewares/Third_Party/Huawei/iot_link/shell\shell_main.c ****                     link_printf("\n\r");
 427:D:/fchai/work/i-cube/I-CUBE-HUAWEI/Middlewares/Third_Party/Huawei/iot_link/shell\shell_main.c ****                     //copy the current to the history cache if the current command is not none
 428:D:/fchai/work/i-cube/I-CUBE-HUAWEI/Middlewares/Third_Party/Huawei/iot_link/shell\shell_main.c ****                     shell_cachecmd(&shell_cmd_cache);//must do before the execute,execute will spli
 429:D:/fchai/work/i-cube/I-CUBE-HUAWEI/Middlewares/Third_Party/Huawei/iot_link/shell\shell_main.c ****                     shell_cmd_execute(shell_cmd_cache.curcmd);  //execute the command
 430:D:/fchai/work/i-cube/I-CUBE-HUAWEI/Middlewares/Third_Party/Huawei/iot_link/shell\shell_main.c ****                     (void) memset(shell_cmd_cache.curcmd,0,CN_CMDLEN_MAX);
 431:D:/fchai/work/i-cube/I-CUBE-HUAWEI/Middlewares/Third_Party/Huawei/iot_link/shell\shell_main.c ****                     shell_cmd_cache.curoffset = 0;
 432:D:/fchai/work/i-cube/I-CUBE-HUAWEI/Middlewares/Third_Party/Huawei/iot_link/shell\shell_main.c ****                 }
 433:D:/fchai/work/i-cube/I-CUBE-HUAWEI/Middlewares/Third_Party/Huawei/iot_link/shell\shell_main.c ****                 shell_put_index();
 434:D:/fchai/work/i-cube/I-CUBE-HUAWEI/Middlewares/Third_Party/Huawei/iot_link/shell\shell_main.c ****                 //flush the vk
 435:D:/fchai/work/i-cube/I-CUBE-HUAWEI/Middlewares/Third_Party/Huawei/iot_link/shell\shell_main.c ****                 vk = CN_VIRTUAL_KEY_NULL;
 436:D:/fchai/work/i-cube/I-CUBE-HUAWEI/Middlewares/Third_Party/Huawei/iot_link/shell\shell_main.c ****                 vkmask = CN_VIRTUAL_KEY_NULL;
 437:D:/fchai/work/i-cube/I-CUBE-HUAWEI/Middlewares/Third_Party/Huawei/iot_link/shell\shell_main.c ****                 break;
 438:D:/fchai/work/i-cube/I-CUBE-HUAWEI/Middlewares/Third_Party/Huawei/iot_link/shell\shell_main.c ****             case CN_KEY_BS:      //should delete the current character,move all the following chara
 439:D:/fchai/work/i-cube/I-CUBE-HUAWEI/Middlewares/Third_Party/Huawei/iot_link/shell\shell_main.c ****                 if(shell_cmd_cache.curoffset >0){
 782              		.loc 1 439 17 is_stmt 1 view .LVU211
 783              		.loc 1 439 35 is_stmt 0 view .LVU212
 784 009a 9DF84440 		ldrb	r4, [sp, #68]	@ zero_extendqisi2
 785              	.LVL66:
 786              		.loc 1 439 19 view .LVU213
 787 009e 002C     		cmp	r4, #0
 788 00a0 4ED0     		beq	.L61
 789              	.LBB107:
 440:D:/fchai/work/i-cube/I-CUBE-HUAWEI/Middlewares/Third_Party/Huawei/iot_link/shell\shell_main.c ****                     char *substr = shell_cmd_cache.curcmd + shell_cmd_cache.curoffset;
 790              		.loc 1 440 21 is_stmt 1 view .LVU214
 791              		.loc 1 440 27 is_stmt 0 view .LVU215
 792 00a2 01AB     		add	r3, sp, #4
 793              	.LVL67:
 794              		.loc 1 440 27 view .LVU216
 795 00a4 1C44     		add	r4, r4, r3
 796              	.LVL68:
 441:D:/fchai/work/i-cube/I-CUBE-HUAWEI/Middlewares/Third_Party/Huawei/iot_link/shell\shell_main.c ****                     int len = strlen(substr);
 797              		.loc 1 441 21 is_stmt 1 view .LVU217
 798              		.loc 1 441 31 is_stmt 0 view .LVU218
 799 00a6 2046     		mov	r0, r4
 800 00a8 FFF7FEFF 		bl	strlen
ARM GAS  T:\msys\tmp\ccldiPcz.s 			page 25


 801              	.LVL69:
 802 00ac 8146     		mov	r9, r0
 803              	.LBB108:
 804              	.LBB109:
 130:D:/fchai/work/i-cube/I-CUBE-HUAWEI/Middlewares/Third_Party/Huawei/iot_link/shell\shell_main.c **** }
 805              		.loc 1 130 5 view .LVU219
 806 00ae 0820     		movs	r0, #8
 807              	.LVL70:
 130:D:/fchai/work/i-cube/I-CUBE-HUAWEI/Middlewares/Third_Party/Huawei/iot_link/shell\shell_main.c **** }
 808              		.loc 1 130 5 view .LVU220
 809              	.LBE109:
 810              	.LBE108:
 442:D:/fchai/work/i-cube/I-CUBE-HUAWEI/Middlewares/Third_Party/Huawei/iot_link/shell\shell_main.c ****                     shell_put_char('\b');
 811              		.loc 1 442 21 is_stmt 1 view .LVU221
 812              	.LBB111:
 813              	.LBI108:
 128:D:/fchai/work/i-cube/I-CUBE-HUAWEI/Middlewares/Third_Party/Huawei/iot_link/shell\shell_main.c **** {
 814              		.loc 1 128 13 view .LVU222
 815              	.LBB110:
 130:D:/fchai/work/i-cube/I-CUBE-HUAWEI/Middlewares/Third_Party/Huawei/iot_link/shell\shell_main.c **** }
 816              		.loc 1 130 5 view .LVU223
 130:D:/fchai/work/i-cube/I-CUBE-HUAWEI/Middlewares/Third_Party/Huawei/iot_link/shell\shell_main.c **** }
 817              		.loc 1 130 5 view .LVU224
 818 00b0 FFF7FEFF 		bl	putchar
 819              	.LVL71:
 130:D:/fchai/work/i-cube/I-CUBE-HUAWEI/Middlewares/Third_Party/Huawei/iot_link/shell\shell_main.c **** }
 820              		.loc 1 130 5 view .LVU225
 821 00b4 D8F80030 		ldr	r3, [r8]
 822 00b8 9868     		ldr	r0, [r3, #8]
 823 00ba FFF7FEFF 		bl	fflush
 824              	.LVL72:
 130:D:/fchai/work/i-cube/I-CUBE-HUAWEI/Middlewares/Third_Party/Huawei/iot_link/shell\shell_main.c **** }
 825              		.loc 1 130 5 view .LVU226
 130:D:/fchai/work/i-cube/I-CUBE-HUAWEI/Middlewares/Third_Party/Huawei/iot_link/shell\shell_main.c **** }
 826              		.loc 1 130 5 is_stmt 0 view .LVU227
 827              	.LBE110:
 828              	.LBE111:
 443:D:/fchai/work/i-cube/I-CUBE-HUAWEI/Middlewares/Third_Party/Huawei/iot_link/shell\shell_main.c ****                     shell_put_string(substr);
 829              		.loc 1 443 21 is_stmt 1 view .LVU228
 830 00be 2046     		mov	r0, r4
 831 00c0 FFF7FEFF 		bl	shell_put_string
 832              	.LVL73:
 444:D:/fchai/work/i-cube/I-CUBE-HUAWEI/Middlewares/Third_Party/Huawei/iot_link/shell\shell_main.c ****                     shell_put_char(' ');
 833              		.loc 1 444 21 view .LVU229
 834              	.LBB112:
 835              	.LBI112:
 128:D:/fchai/work/i-cube/I-CUBE-HUAWEI/Middlewares/Third_Party/Huawei/iot_link/shell\shell_main.c **** {
 836              		.loc 1 128 13 view .LVU230
 837              	.LBB113:
 130:D:/fchai/work/i-cube/I-CUBE-HUAWEI/Middlewares/Third_Party/Huawei/iot_link/shell\shell_main.c **** }
 838              		.loc 1 130 5 view .LVU231
 130:D:/fchai/work/i-cube/I-CUBE-HUAWEI/Middlewares/Third_Party/Huawei/iot_link/shell\shell_main.c **** }
 839              		.loc 1 130 5 view .LVU232
 840 00c4 2020     		movs	r0, #32
 841 00c6 FFF7FEFF 		bl	putchar
 842              	.LVL74:
 130:D:/fchai/work/i-cube/I-CUBE-HUAWEI/Middlewares/Third_Party/Huawei/iot_link/shell\shell_main.c **** }
ARM GAS  T:\msys\tmp\ccldiPcz.s 			page 26


 843              		.loc 1 130 5 view .LVU233
 844 00ca D8F80030 		ldr	r3, [r8]
 845 00ce 9868     		ldr	r0, [r3, #8]
 846 00d0 FFF7FEFF 		bl	fflush
 847              	.LVL75:
 130:D:/fchai/work/i-cube/I-CUBE-HUAWEI/Middlewares/Third_Party/Huawei/iot_link/shell\shell_main.c **** }
 848              		.loc 1 130 5 view .LVU234
 130:D:/fchai/work/i-cube/I-CUBE-HUAWEI/Middlewares/Third_Party/Huawei/iot_link/shell\shell_main.c **** }
 849              		.loc 1 130 5 is_stmt 0 view .LVU235
 850              	.LBE113:
 851              	.LBE112:
 445:D:/fchai/work/i-cube/I-CUBE-HUAWEI/Middlewares/Third_Party/Huawei/iot_link/shell\shell_main.c ****                     shell_moves_cursor_left(len + 1);
 852              		.loc 1 445 21 is_stmt 1 view .LVU236
 853 00d4 09F10100 		add	r0, r9, #1
 854 00d8 FFF7FEFF 		bl	shell_moves_cursor_left
 855              	.LVL76:
 446:D:/fchai/work/i-cube/I-CUBE-HUAWEI/Middlewares/Third_Party/Huawei/iot_link/shell\shell_main.c ****                     
 447:D:/fchai/work/i-cube/I-CUBE-HUAWEI/Middlewares/Third_Party/Huawei/iot_link/shell\shell_main.c ****                     (void) strcpy(substr - 1, substr);
 856              		.loc 1 447 21 view .LVU237
 857              		.loc 1 447 28 is_stmt 0 view .LVU238
 858 00dc 2146     		mov	r1, r4
 859 00de 601E     		subs	r0, r4, #1
 860 00e0 FFF7FEFF 		bl	strcpy
 861              	.LVL77:
 448:D:/fchai/work/i-cube/I-CUBE-HUAWEI/Middlewares/Third_Party/Huawei/iot_link/shell\shell_main.c ****                     shell_cmd_cache.curoffset--;
 862              		.loc 1 448 21 is_stmt 1 view .LVU239
 863              		.loc 1 448 46 is_stmt 0 view .LVU240
 864 00e4 9DF84430 		ldrb	r3, [sp, #68]	@ zero_extendqisi2
 865              	.LBE107:
 449:D:/fchai/work/i-cube/I-CUBE-HUAWEI/Middlewares/Third_Party/Huawei/iot_link/shell\shell_main.c ****                 } else
 450:D:/fchai/work/i-cube/I-CUBE-HUAWEI/Middlewares/Third_Party/Huawei/iot_link/shell\shell_main.c ****                     shell_bell();
 451:D:/fchai/work/i-cube/I-CUBE-HUAWEI/Middlewares/Third_Party/Huawei/iot_link/shell\shell_main.c ****                 //flush the vk
 452:D:/fchai/work/i-cube/I-CUBE-HUAWEI/Middlewares/Third_Party/Huawei/iot_link/shell\shell_main.c ****                 vk = CN_VIRTUAL_KEY_NULL;
 453:D:/fchai/work/i-cube/I-CUBE-HUAWEI/Middlewares/Third_Party/Huawei/iot_link/shell\shell_main.c ****                 vkmask = CN_VIRTUAL_KEY_NULL;
 866              		.loc 1 453 24 view .LVU241
 867 00e8 4FF00009 		mov	r9, #0
 868              	.LVL78:
 869              	.LBB114:
 448:D:/fchai/work/i-cube/I-CUBE-HUAWEI/Middlewares/Third_Party/Huawei/iot_link/shell\shell_main.c ****                     shell_cmd_cache.curoffset--;
 870              		.loc 1 448 46 view .LVU242
 871 00ec 013B     		subs	r3, r3, #1
 872 00ee 8DF84430 		strb	r3, [sp, #68]
 873              	.LBE114:
 452:D:/fchai/work/i-cube/I-CUBE-HUAWEI/Middlewares/Third_Party/Huawei/iot_link/shell\shell_main.c ****                 vkmask = CN_VIRTUAL_KEY_NULL;
 874              		.loc 1 452 20 view .LVU243
 875 00f2 4C46     		mov	r4, r9
 876              	.LVL79:
 452:D:/fchai/work/i-cube/I-CUBE-HUAWEI/Middlewares/Third_Party/Huawei/iot_link/shell\shell_main.c ****                 vkmask = CN_VIRTUAL_KEY_NULL;
 877              		.loc 1 452 20 view .LVU244
 878 00f4 9BE7     		b	.L46
 879              	.LVL80:
 880              	.L51:
 454:D:/fchai/work/i-cube/I-CUBE-HUAWEI/Middlewares/Third_Party/Huawei/iot_link/shell\shell_main.c ****                 break;
 455:D:/fchai/work/i-cube/I-CUBE-HUAWEI/Middlewares/Third_Party/Huawei/iot_link/shell\shell_main.c ****             case CN_KEY_ES:      //esc key,delete all the input here
 456:D:/fchai/work/i-cube/I-CUBE-HUAWEI/Middlewares/Third_Party/Huawei/iot_link/shell\shell_main.c ****                 vk= CN_KEY_ES;
 457:D:/fchai/work/i-cube/I-CUBE-HUAWEI/Middlewares/Third_Party/Huawei/iot_link/shell\shell_main.c ****                 vkmask = CN_KEY_ES;
 458:D:/fchai/work/i-cube/I-CUBE-HUAWEI/Middlewares/Third_Party/Huawei/iot_link/shell\shell_main.c ****                 break;
ARM GAS  T:\msys\tmp\ccldiPcz.s 			page 27


 459:D:/fchai/work/i-cube/I-CUBE-HUAWEI/Middlewares/Third_Party/Huawei/iot_link/shell\shell_main.c ****             default: //other control character will be ignored
 460:D:/fchai/work/i-cube/I-CUBE-HUAWEI/Middlewares/Third_Party/Huawei/iot_link/shell\shell_main.c ****                 //push the character to the buffer until its full and the '\n' comes
 461:D:/fchai/work/i-cube/I-CUBE-HUAWEI/Middlewares/Third_Party/Huawei/iot_link/shell\shell_main.c ****                 if(shell_cmd_cache.curoffset <(CN_CMDLEN_MAX-1)){
 881              		.loc 1 461 17 is_stmt 1 view .LVU245
 882              		.loc 1 461 19 is_stmt 0 view .LVU246
 883 00f6 9DF84430 		ldrb	r3, [sp, #68]	@ zero_extendqisi2
 884 00fa 3E2B     		cmp	r3, #62
 885 00fc 20D8     		bhi	.L61
 886              	.LBB115:
 462:D:/fchai/work/i-cube/I-CUBE-HUAWEI/Middlewares/Third_Party/Huawei/iot_link/shell\shell_main.c ****                     char *p = (char *)&ch;
 887              		.loc 1 462 21 is_stmt 1 view .LVU247
 888              	.LVL81:
 463:D:/fchai/work/i-cube/I-CUBE-HUAWEI/Middlewares/Third_Party/Huawei/iot_link/shell\shell_main.c ****                     if (*p == 0)
 889              		.loc 1 463 21 view .LVU248
 464:D:/fchai/work/i-cube/I-CUBE-HUAWEI/Middlewares/Third_Party/Huawei/iot_link/shell\shell_main.c ****                         // this architecture is big-endian
 465:D:/fchai/work/i-cube/I-CUBE-HUAWEI/Middlewares/Third_Party/Huawei/iot_link/shell\shell_main.c ****                         *p = (char)ch;    
 466:D:/fchai/work/i-cube/I-CUBE-HUAWEI/Middlewares/Third_Party/Huawei/iot_link/shell\shell_main.c ****                     shell_insert_string(&shell_cmd_cache, p);
 890              		.loc 1 466 21 view .LVU249
 891 00fe 6946     		mov	r1, sp
 892 0100 01A8     		add	r0, sp, #4
 893              	.LBE115:
 467:D:/fchai/work/i-cube/I-CUBE-HUAWEI/Middlewares/Third_Party/Huawei/iot_link/shell\shell_main.c ****                 } else
 468:D:/fchai/work/i-cube/I-CUBE-HUAWEI/Middlewares/Third_Party/Huawei/iot_link/shell\shell_main.c ****                     shell_bell();
 469:D:/fchai/work/i-cube/I-CUBE-HUAWEI/Middlewares/Third_Party/Huawei/iot_link/shell\shell_main.c ****                 //flush the vk
 470:D:/fchai/work/i-cube/I-CUBE-HUAWEI/Middlewares/Third_Party/Huawei/iot_link/shell\shell_main.c ****                 vk = CN_VIRTUAL_KEY_NULL;
 471:D:/fchai/work/i-cube/I-CUBE-HUAWEI/Middlewares/Third_Party/Huawei/iot_link/shell\shell_main.c ****                 vkmask = CN_VIRTUAL_KEY_NULL;
 894              		.loc 1 471 24 is_stmt 0 view .LVU250
 895 0102 4FF00009 		mov	r9, #0
 896              	.LBB116:
 466:D:/fchai/work/i-cube/I-CUBE-HUAWEI/Middlewares/Third_Party/Huawei/iot_link/shell\shell_main.c ****                 } else
 897              		.loc 1 466 21 view .LVU251
 898 0106 FFF7FEFF 		bl	shell_insert_string
 899              	.LVL82:
 900              	.LBE116:
 470:D:/fchai/work/i-cube/I-CUBE-HUAWEI/Middlewares/Third_Party/Huawei/iot_link/shell\shell_main.c ****                 vkmask = CN_VIRTUAL_KEY_NULL;
 901              		.loc 1 470 20 view .LVU252
 902 010a 4C46     		mov	r4, r9
 903              	.LVL83:
 470:D:/fchai/work/i-cube/I-CUBE-HUAWEI/Middlewares/Third_Party/Huawei/iot_link/shell\shell_main.c ****                 vkmask = CN_VIRTUAL_KEY_NULL;
 904              		.loc 1 470 20 view .LVU253
 905 010c 8FE7     		b	.L46
 906              	.LVL84:
 907              	.L55:
 383:D:/fchai/work/i-cube/I-CUBE-HUAWEI/Middlewares/Third_Party/Huawei/iot_link/shell\shell_main.c ****                     char cursor = shell_cmd_cache.curcmd[shell_cmd_cache.curoffset];
 908              		.loc 1 383 17 is_stmt 1 view .LVU254
 383:D:/fchai/work/i-cube/I-CUBE-HUAWEI/Middlewares/Third_Party/Huawei/iot_link/shell\shell_main.c ****                     char cursor = shell_cmd_cache.curcmd[shell_cmd_cache.curoffset];
 909              		.loc 1 383 35 is_stmt 0 view .LVU255
 910 010e 9DF84430 		ldrb	r3, [sp, #68]	@ zero_extendqisi2
 383:D:/fchai/work/i-cube/I-CUBE-HUAWEI/Middlewares/Third_Party/Huawei/iot_link/shell\shell_main.c ****                     char cursor = shell_cmd_cache.curcmd[shell_cmd_cache.curoffset];
 911              		.loc 1 383 19 view .LVU256
 912 0112 ABB1     		cbz	r3, .L61
 913              	.LBB117:
 384:D:/fchai/work/i-cube/I-CUBE-HUAWEI/Middlewares/Third_Party/Huawei/iot_link/shell\shell_main.c ****                     shell_cmd_cache.curcmd[shell_cmd_cache.curoffset] = 0;
 914              		.loc 1 384 21 is_stmt 1 view .LVU257
 387:D:/fchai/work/i-cube/I-CUBE-HUAWEI/Middlewares/Third_Party/Huawei/iot_link/shell\shell_main.c ****                     shell_cmd_cache.curcmd[shell_cmd_cache.curoffset] = cursor;
 915              		.loc 1 387 31 is_stmt 0 view .LVU258
 916 0114 01A8     		add	r0, sp, #4
ARM GAS  T:\msys\tmp\ccldiPcz.s 			page 28


 385:D:/fchai/work/i-cube/I-CUBE-HUAWEI/Middlewares/Third_Party/Huawei/iot_link/shell\shell_main.c ****                     const struct shell_tab_matches *matches;
 917              		.loc 1 385 71 view .LVU259
 918 0116 4FF00009 		mov	r9, #0
 384:D:/fchai/work/i-cube/I-CUBE-HUAWEI/Middlewares/Third_Party/Huawei/iot_link/shell\shell_main.c ****                     shell_cmd_cache.curcmd[shell_cmd_cache.curoffset] = 0;
 919              		.loc 1 384 26 view .LVU260
 920 011a 10F803A0 		ldrb	r10, [r0, r3]	@ zero_extendqisi2
 921              	.LVL85:
 385:D:/fchai/work/i-cube/I-CUBE-HUAWEI/Middlewares/Third_Party/Huawei/iot_link/shell\shell_main.c ****                     const struct shell_tab_matches *matches;
 922              		.loc 1 385 21 is_stmt 1 view .LVU261
 385:D:/fchai/work/i-cube/I-CUBE-HUAWEI/Middlewares/Third_Party/Huawei/iot_link/shell\shell_main.c ****                     const struct shell_tab_matches *matches;
 923              		.loc 1 385 71 is_stmt 0 view .LVU262
 924 011e 00F80390 		strb	r9, [r0, r3]
 386:D:/fchai/work/i-cube/I-CUBE-HUAWEI/Middlewares/Third_Party/Huawei/iot_link/shell\shell_main.c ****                     matches = shell_cmd_index((const char*)shell_cmd_cache.curcmd);
 925              		.loc 1 386 21 is_stmt 1 view .LVU263
 387:D:/fchai/work/i-cube/I-CUBE-HUAWEI/Middlewares/Third_Party/Huawei/iot_link/shell\shell_main.c ****                     shell_cmd_cache.curcmd[shell_cmd_cache.curoffset] = cursor;
 926              		.loc 1 387 21 view .LVU264
 387:D:/fchai/work/i-cube/I-CUBE-HUAWEI/Middlewares/Third_Party/Huawei/iot_link/shell\shell_main.c ****                     shell_cmd_cache.curcmd[shell_cmd_cache.curoffset] = cursor;
 927              		.loc 1 387 31 is_stmt 0 view .LVU265
 928 0122 FFF7FEFF 		bl	shell_cmd_index
 929              	.LVL86:
 389:D:/fchai/work/i-cube/I-CUBE-HUAWEI/Middlewares/Third_Party/Huawei/iot_link/shell\shell_main.c ****                         //only one cmd matched, insert the matched cmd at current cursor
 930              		.loc 1 389 32 view .LVU266
 931 0126 B0F84020 		ldrh	r2, [r0, #64]
 388:D:/fchai/work/i-cube/I-CUBE-HUAWEI/Middlewares/Third_Party/Huawei/iot_link/shell\shell_main.c ****                     if (matches->len == 1) {
 932              		.loc 1 388 59 view .LVU267
 933 012a 9DF84430 		ldrb	r3, [sp, #68]	@ zero_extendqisi2
 388:D:/fchai/work/i-cube/I-CUBE-HUAWEI/Middlewares/Third_Party/Huawei/iot_link/shell\shell_main.c ****                     if (matches->len == 1) {
 934              		.loc 1 388 71 view .LVU268
 935 012e 01A9     		add	r1, sp, #4
 389:D:/fchai/work/i-cube/I-CUBE-HUAWEI/Middlewares/Third_Party/Huawei/iot_link/shell\shell_main.c ****                         //only one cmd matched, insert the matched cmd at current cursor
 936              		.loc 1 389 24 view .LVU269
 937 0130 012A     		cmp	r2, #1
 388:D:/fchai/work/i-cube/I-CUBE-HUAWEI/Middlewares/Third_Party/Huawei/iot_link/shell\shell_main.c ****                     if (matches->len == 1) {
 938              		.loc 1 388 71 view .LVU270
 939 0132 01F803A0 		strb	r10, [r1, r3]
 387:D:/fchai/work/i-cube/I-CUBE-HUAWEI/Middlewares/Third_Party/Huawei/iot_link/shell\shell_main.c ****                     shell_cmd_cache.curcmd[shell_cmd_cache.curoffset] = cursor;
 940              		.loc 1 387 31 view .LVU271
 941 0136 0446     		mov	r4, r0
 942              	.LVL87:
 388:D:/fchai/work/i-cube/I-CUBE-HUAWEI/Middlewares/Third_Party/Huawei/iot_link/shell\shell_main.c ****                     if (matches->len == 1) {
 943              		.loc 1 388 21 is_stmt 1 view .LVU272
 389:D:/fchai/work/i-cube/I-CUBE-HUAWEI/Middlewares/Third_Party/Huawei/iot_link/shell\shell_main.c ****                         //only one cmd matched, insert the matched cmd at current cursor
 944              		.loc 1 389 21 view .LVU273
 389:D:/fchai/work/i-cube/I-CUBE-HUAWEI/Middlewares/Third_Party/Huawei/iot_link/shell\shell_main.c ****                         //only one cmd matched, insert the matched cmd at current cursor
 945              		.loc 1 389 24 is_stmt 0 view .LVU274
 946 0138 00F00D81 		beq	.L112
 392:D:/fchai/work/i-cube/I-CUBE-HUAWEI/Middlewares/Third_Party/Huawei/iot_link/shell\shell_main.c ****                         link_printf("\n\r");
 947              		.loc 1 392 28 is_stmt 1 view .LVU275
 392:D:/fchai/work/i-cube/I-CUBE-HUAWEI/Middlewares/Third_Party/Huawei/iot_link/shell\shell_main.c ****                         link_printf("\n\r");
 948              		.loc 1 392 31 is_stmt 0 view .LVU276
 949 013c 00F2D280 		bhi	.L113
 950              	.LVL88:
 951              	.L61:
 392:D:/fchai/work/i-cube/I-CUBE-HUAWEI/Middlewares/Third_Party/Huawei/iot_link/shell\shell_main.c ****                         link_printf("\n\r");
 952              		.loc 1 392 31 view .LVU277
 953              	.LBE117:
 320:D:/fchai/work/i-cube/I-CUBE-HUAWEI/Middlewares/Third_Party/Huawei/iot_link/shell\shell_main.c ****                 //flush the vk
ARM GAS  T:\msys\tmp\ccldiPcz.s 			page 29


 954              		.loc 1 320 21 is_stmt 1 view .LVU278
 323:D:/fchai/work/i-cube/I-CUBE-HUAWEI/Middlewares/Third_Party/Huawei/iot_link/shell\shell_main.c ****                 break;
 955              		.loc 1 323 24 is_stmt 0 view .LVU279
 956 0140 4FF00009 		mov	r9, #0
 320:D:/fchai/work/i-cube/I-CUBE-HUAWEI/Middlewares/Third_Party/Huawei/iot_link/shell\shell_main.c ****                 //flush the vk
 957              		.loc 1 320 21 view .LVU280
 958 0144 FFF7FEFF 		bl	shell_bell
 959              	.LVL89:
 322:D:/fchai/work/i-cube/I-CUBE-HUAWEI/Middlewares/Third_Party/Huawei/iot_link/shell\shell_main.c ****                 vkmask = CN_VIRTUAL_KEY_NULL;
 960              		.loc 1 322 20 view .LVU281
 961 0148 4C46     		mov	r4, r9
 962 014a 70E7     		b	.L46
 963              	.LVL90:
 964              	.L50:
 312:D:/fchai/work/i-cube/I-CUBE-HUAWEI/Middlewares/Third_Party/Huawei/iot_link/shell\shell_main.c ****         {
 965              		.loc 1 312 9 view .LVU282
 966 014c BC42     		cmp	r4, r7
 967 014e 50D0     		beq	.L57
 968 0150 0ED9     		bls	.L114
 969 0152 B442     		cmp	r4, r6
 970 0154 CFD1     		bne	.L51
 315:D:/fchai/work/i-cube/I-CUBE-HUAWEI/Middlewares/Third_Party/Huawei/iot_link/shell\shell_main.c ****                     shell_cmd_cache.curoffset--;
 971              		.loc 1 315 17 is_stmt 1 view .LVU283
 315:D:/fchai/work/i-cube/I-CUBE-HUAWEI/Middlewares/Third_Party/Huawei/iot_link/shell\shell_main.c ****                     shell_cmd_cache.curoffset--;
 972              		.loc 1 315 35 is_stmt 0 view .LVU284
 973 0156 9DF84430 		ldrb	r3, [sp, #68]	@ zero_extendqisi2
 315:D:/fchai/work/i-cube/I-CUBE-HUAWEI/Middlewares/Third_Party/Huawei/iot_link/shell\shell_main.c ****                     shell_cmd_cache.curoffset--;
 974              		.loc 1 315 19 view .LVU285
 975 015a 002B     		cmp	r3, #0
 976 015c F0D0     		beq	.L61
 316:D:/fchai/work/i-cube/I-CUBE-HUAWEI/Middlewares/Third_Party/Huawei/iot_link/shell\shell_main.c ****                     //push back the left cursor and make the terminal display know what has happene
 977              		.loc 1 316 21 is_stmt 1 view .LVU286
 316:D:/fchai/work/i-cube/I-CUBE-HUAWEI/Middlewares/Third_Party/Huawei/iot_link/shell\shell_main.c ****                     //push back the left cursor and make the terminal display know what has happene
 978              		.loc 1 316 46 is_stmt 0 view .LVU287
 979 015e 013B     		subs	r3, r3, #1
 323:D:/fchai/work/i-cube/I-CUBE-HUAWEI/Middlewares/Third_Party/Huawei/iot_link/shell\shell_main.c ****                 break;
 980              		.loc 1 323 24 view .LVU288
 981 0160 0024     		movs	r4, #0
 982              	.LVL91:
 318:D:/fchai/work/i-cube/I-CUBE-HUAWEI/Middlewares/Third_Party/Huawei/iot_link/shell\shell_main.c ****                 }else
 983              		.loc 1 318 21 view .LVU289
 984 0162 0120     		movs	r0, #1
 316:D:/fchai/work/i-cube/I-CUBE-HUAWEI/Middlewares/Third_Party/Huawei/iot_link/shell\shell_main.c ****                     //push back the left cursor and make the terminal display know what has happene
 985              		.loc 1 316 46 view .LVU290
 986 0164 8DF84430 		strb	r3, [sp, #68]
 318:D:/fchai/work/i-cube/I-CUBE-HUAWEI/Middlewares/Third_Party/Huawei/iot_link/shell\shell_main.c ****                 }else
 987              		.loc 1 318 21 is_stmt 1 view .LVU291
 322:D:/fchai/work/i-cube/I-CUBE-HUAWEI/Middlewares/Third_Party/Huawei/iot_link/shell\shell_main.c ****                 vkmask = CN_VIRTUAL_KEY_NULL;
 988              		.loc 1 322 20 is_stmt 0 view .LVU292
 989 0168 A146     		mov	r9, r4
 318:D:/fchai/work/i-cube/I-CUBE-HUAWEI/Middlewares/Third_Party/Huawei/iot_link/shell\shell_main.c ****                 }else
 990              		.loc 1 318 21 view .LVU293
 991 016a FFF7FEFF 		bl	shell_moves_cursor_left
 992              	.LVL92:
 993 016e 5EE7     		b	.L46
 994              	.LVL93:
 995              	.L114:
ARM GAS  T:\msys\tmp\ccldiPcz.s 			page 30


 312:D:/fchai/work/i-cube/I-CUBE-HUAWEI/Middlewares/Third_Party/Huawei/iot_link/shell\shell_main.c ****         {
 996              		.loc 1 312 9 view .LVU294
 997 0170 AC42     		cmp	r4, r5
 998 0172 66D0     		beq	.L59
 999 0174 574B     		ldr	r3, .L117+20
 1000 0176 9C42     		cmp	r4, r3
 1001 0178 BDD1     		bne	.L51
 362:D:/fchai/work/i-cube/I-CUBE-HUAWEI/Middlewares/Third_Party/Huawei/iot_link/shell\shell_main.c ****                 if(shell_cmd_cache.curoffset < len){
 1002              		.loc 1 362 17 is_stmt 1 view .LVU295
 362:D:/fchai/work/i-cube/I-CUBE-HUAWEI/Middlewares/Third_Party/Huawei/iot_link/shell\shell_main.c ****                 if(shell_cmd_cache.curoffset < len){
 1003              		.loc 1 362 23 is_stmt 0 view .LVU296
 1004 017a 01A8     		add	r0, sp, #4
 1005 017c FFF7FEFF 		bl	strlen
 1006              	.LVL94:
 363:D:/fchai/work/i-cube/I-CUBE-HUAWEI/Middlewares/Third_Party/Huawei/iot_link/shell\shell_main.c ****                     shell_put_space(len - shell_cmd_cache.curoffset);
 1007              		.loc 1 363 35 view .LVU297
 1008 0180 9DF84430 		ldrb	r3, [sp, #68]	@ zero_extendqisi2
 363:D:/fchai/work/i-cube/I-CUBE-HUAWEI/Middlewares/Third_Party/Huawei/iot_link/shell\shell_main.c ****                     shell_put_space(len - shell_cmd_cache.curoffset);
 1009              		.loc 1 363 19 view .LVU298
 1010 0184 8342     		cmp	r3, r0
 362:D:/fchai/work/i-cube/I-CUBE-HUAWEI/Middlewares/Third_Party/Huawei/iot_link/shell\shell_main.c ****                 if(shell_cmd_cache.curoffset < len){
 1011              		.loc 1 362 23 view .LVU299
 1012 0186 8146     		mov	r9, r0
 1013              	.LVL95:
 363:D:/fchai/work/i-cube/I-CUBE-HUAWEI/Middlewares/Third_Party/Huawei/iot_link/shell\shell_main.c ****                     shell_put_space(len - shell_cmd_cache.curoffset);
 1014              		.loc 1 363 17 is_stmt 1 view .LVU300
 363:D:/fchai/work/i-cube/I-CUBE-HUAWEI/Middlewares/Third_Party/Huawei/iot_link/shell\shell_main.c ****                     shell_put_space(len - shell_cmd_cache.curoffset);
 1015              		.loc 1 363 19 is_stmt 0 view .LVU301
 1016 0188 C0F29380 		blt	.L115
 1017              	.LVL96:
 1018              	.LBB123:
 1019              	.LBB124:
 169:D:/fchai/work/i-cube/I-CUBE-HUAWEI/Middlewares/Third_Party/Huawei/iot_link/shell\shell_main.c ****     {
 1020              		.loc 1 169 14 is_stmt 1 view .LVU302
 169:D:/fchai/work/i-cube/I-CUBE-HUAWEI/Middlewares/Third_Party/Huawei/iot_link/shell\shell_main.c ****     {
 1021              		.loc 1 169 5 is_stmt 0 view .LVU303
 1022 018c 40B1     		cbz	r0, .L68
 1023              	.LVL97:
 1024              	.L67:
 171:D:/fchai/work/i-cube/I-CUBE-HUAWEI/Middlewares/Third_Party/Huawei/iot_link/shell\shell_main.c ****     }
 1025              		.loc 1 171 9 view .LVU304
 1026 018e DFF850A1 		ldr	r10, .L117+32
 1027              	.LVL98:
 171:D:/fchai/work/i-cube/I-CUBE-HUAWEI/Middlewares/Third_Party/Huawei/iot_link/shell\shell_main.c ****     }
 1028              		.loc 1 171 9 view .LVU305
 1029              	.LBE124:
 1030              	.LBE123:
 1031 0192 0024     		movs	r4, #0
 1032              	.LVL99:
 1033              	.L69:
 1034              	.LBB127:
 1035              	.LBB125:
 171:D:/fchai/work/i-cube/I-CUBE-HUAWEI/Middlewares/Third_Party/Huawei/iot_link/shell\shell_main.c ****     }
 1036              		.loc 1 171 9 is_stmt 1 view .LVU306
 169:D:/fchai/work/i-cube/I-CUBE-HUAWEI/Middlewares/Third_Party/Huawei/iot_link/shell\shell_main.c ****     {
 1037              		.loc 1 169 23 is_stmt 0 view .LVU307
 1038 0194 0134     		adds	r4, r4, #1
ARM GAS  T:\msys\tmp\ccldiPcz.s 			page 31


 1039              	.LVL100:
 171:D:/fchai/work/i-cube/I-CUBE-HUAWEI/Middlewares/Third_Party/Huawei/iot_link/shell\shell_main.c ****     }
 1040              		.loc 1 171 9 view .LVU308
 1041 0196 5046     		mov	r0, r10
 1042 0198 FFF7FEFF 		bl	shell_put_string
 1043              	.LVL101:
 169:D:/fchai/work/i-cube/I-CUBE-HUAWEI/Middlewares/Third_Party/Huawei/iot_link/shell\shell_main.c ****     {
 1044              		.loc 1 169 22 is_stmt 1 view .LVU309
 169:D:/fchai/work/i-cube/I-CUBE-HUAWEI/Middlewares/Third_Party/Huawei/iot_link/shell\shell_main.c ****     {
 1045              		.loc 1 169 14 view .LVU310
 169:D:/fchai/work/i-cube/I-CUBE-HUAWEI/Middlewares/Third_Party/Huawei/iot_link/shell\shell_main.c ****     {
 1046              		.loc 1 169 5 is_stmt 0 view .LVU311
 1047 019c A145     		cmp	r9, r4
 1048 019e F9DC     		bgt	.L69
 1049              	.LVL102:
 1050              	.L68:
 169:D:/fchai/work/i-cube/I-CUBE-HUAWEI/Middlewares/Third_Party/Huawei/iot_link/shell\shell_main.c ****     {
 1051              		.loc 1 169 5 view .LVU312
 1052              	.LBE125:
 1053              	.LBE127:
 368:D:/fchai/work/i-cube/I-CUBE-HUAWEI/Middlewares/Third_Party/Huawei/iot_link/shell\shell_main.c ****                 shell_cmd_cache.curoffset = 0;
 1054              		.loc 1 368 17 is_stmt 1 view .LVU313
 368:D:/fchai/work/i-cube/I-CUBE-HUAWEI/Middlewares/Third_Party/Huawei/iot_link/shell\shell_main.c ****                 shell_cmd_cache.curoffset = 0;
 1055              		.loc 1 368 24 is_stmt 0 view .LVU314
 1056 01a0 4022     		movs	r2, #64
 1057 01a2 0021     		movs	r1, #0
 1058 01a4 01A8     		add	r0, sp, #4
 1059 01a6 FFF7FEFF 		bl	memset
 1060              	.LVL103:
 369:D:/fchai/work/i-cube/I-CUBE-HUAWEI/Middlewares/Third_Party/Huawei/iot_link/shell\shell_main.c ****                 //then copy the next command to current
 1061              		.loc 1 369 17 is_stmt 1 view .LVU315
 371:D:/fchai/work/i-cube/I-CUBE-HUAWEI/Middlewares/Third_Party/Huawei/iot_link/shell\shell_main.c ****                 (void) strncpy(shell_cmd_cache.curcmd,shell_cmd_cache.tab[offset],CN_CMDLEN_MAX);
 1062              		.loc 1 371 42 is_stmt 0 view .LVU316
 1063 01aa 9DF84541 		ldrb	r4, [sp, #325]	@ zero_extendqisi2
 371:D:/fchai/work/i-cube/I-CUBE-HUAWEI/Middlewares/Third_Party/Huawei/iot_link/shell\shell_main.c ****                 (void) strncpy(shell_cmd_cache.curcmd,shell_cmd_cache.tab[offset],CN_CMDLEN_MAX);
 1064              		.loc 1 371 67 view .LVU317
 1065 01ae 0534     		adds	r4, r4, #5
 1066              	.L107:
 372:D:/fchai/work/i-cube/I-CUBE-HUAWEI/Middlewares/Third_Party/Huawei/iot_link/shell\shell_main.c ****                 shell_cmd_cache.taboffset = offset;
 1067              		.loc 1 372 74 view .LVU318
 1068 01b0 01AB     		add	r3, sp, #4
 371:D:/fchai/work/i-cube/I-CUBE-HUAWEI/Middlewares/Third_Party/Huawei/iot_link/shell\shell_main.c ****                 (void) strncpy(shell_cmd_cache.curcmd,shell_cmd_cache.tab[offset],CN_CMDLEN_MAX);
 1069              		.loc 1 371 70 view .LVU319
 1070 01b2 04F00304 		and	r4, r4, #3
 372:D:/fchai/work/i-cube/I-CUBE-HUAWEI/Middlewares/Third_Party/Huawei/iot_link/shell\shell_main.c ****                 shell_cmd_cache.taboffset = offset;
 1071              		.loc 1 372 74 view .LVU320
 1072 01b6 03EB8411 		add	r1, r3, r4, lsl #6
 372:D:/fchai/work/i-cube/I-CUBE-HUAWEI/Middlewares/Third_Party/Huawei/iot_link/shell\shell_main.c ****                 shell_cmd_cache.taboffset = offset;
 1073              		.loc 1 372 24 view .LVU321
 1074 01ba 4131     		adds	r1, r1, #65
 369:D:/fchai/work/i-cube/I-CUBE-HUAWEI/Middlewares/Third_Party/Huawei/iot_link/shell\shell_main.c ****                 //then copy the next command to current
 1075              		.loc 1 369 43 view .LVU322
 1076 01bc 4FF00009 		mov	r9, #0
 1077              	.LVL104:
 372:D:/fchai/work/i-cube/I-CUBE-HUAWEI/Middlewares/Third_Party/Huawei/iot_link/shell\shell_main.c ****                 shell_cmd_cache.taboffset = offset;
 1078              		.loc 1 372 24 view .LVU323
 1079 01c0 4022     		movs	r2, #64
ARM GAS  T:\msys\tmp\ccldiPcz.s 			page 32


 1080 01c2 1846     		mov	r0, r3
 369:D:/fchai/work/i-cube/I-CUBE-HUAWEI/Middlewares/Third_Party/Huawei/iot_link/shell\shell_main.c ****                 //then copy the next command to current
 1081              		.loc 1 369 43 view .LVU324
 1082 01c4 8DF84490 		strb	r9, [sp, #68]
 371:D:/fchai/work/i-cube/I-CUBE-HUAWEI/Middlewares/Third_Party/Huawei/iot_link/shell\shell_main.c ****                 (void) strncpy(shell_cmd_cache.curcmd,shell_cmd_cache.tab[offset],CN_CMDLEN_MAX);
 1083              		.loc 1 371 17 is_stmt 1 view .LVU325
 1084              	.LVL105:
 372:D:/fchai/work/i-cube/I-CUBE-HUAWEI/Middlewares/Third_Party/Huawei/iot_link/shell\shell_main.c ****                 shell_cmd_cache.taboffset = offset;
 1085              		.loc 1 372 17 view .LVU326
 372:D:/fchai/work/i-cube/I-CUBE-HUAWEI/Middlewares/Third_Party/Huawei/iot_link/shell\shell_main.c ****                 shell_cmd_cache.taboffset = offset;
 1086              		.loc 1 372 24 is_stmt 0 view .LVU327
 1087 01c8 FFF7FEFF 		bl	strncpy
 1088              	.LVL106:
 373:D:/fchai/work/i-cube/I-CUBE-HUAWEI/Middlewares/Third_Party/Huawei/iot_link/shell\shell_main.c ****                 shell_cmd_cache.curoffset = strlen(shell_cmd_cache.curcmd);
 1089              		.loc 1 373 17 is_stmt 1 view .LVU328
 374:D:/fchai/work/i-cube/I-CUBE-HUAWEI/Middlewares/Third_Party/Huawei/iot_link/shell\shell_main.c ****                 //OK,now puts all the current character to the terminal
 1090              		.loc 1 374 45 is_stmt 0 view .LVU329
 1091 01cc 01A8     		add	r0, sp, #4
 371:D:/fchai/work/i-cube/I-CUBE-HUAWEI/Middlewares/Third_Party/Huawei/iot_link/shell\shell_main.c ****                 (void) strncpy(shell_cmd_cache.curcmd,shell_cmd_cache.tab[offset],CN_CMDLEN_MAX);
 1092              		.loc 1 371 24 view .LVU330
 1093 01ce 8DF84541 		strb	r4, [sp, #325]
 374:D:/fchai/work/i-cube/I-CUBE-HUAWEI/Middlewares/Third_Party/Huawei/iot_link/shell\shell_main.c ****                 //OK,now puts all the current character to the terminal
 1094              		.loc 1 374 17 is_stmt 1 view .LVU331
 374:D:/fchai/work/i-cube/I-CUBE-HUAWEI/Middlewares/Third_Party/Huawei/iot_link/shell\shell_main.c ****                 //OK,now puts all the current character to the terminal
 1095              		.loc 1 374 45 is_stmt 0 view .LVU332
 1096 01d2 FFF7FEFF 		bl	strlen
 1097              	.LVL107:
 1098 01d6 0346     		mov	r3, r0
 376:D:/fchai/work/i-cube/I-CUBE-HUAWEI/Middlewares/Third_Party/Huawei/iot_link/shell\shell_main.c ****                 //flush the vk
 1099              		.loc 1 376 17 view .LVU333
 1100 01d8 01A8     		add	r0, sp, #4
 374:D:/fchai/work/i-cube/I-CUBE-HUAWEI/Middlewares/Third_Party/Huawei/iot_link/shell\shell_main.c ****                 //OK,now puts all the current character to the terminal
 1101              		.loc 1 374 43 view .LVU334
 1102 01da 8DF84430 		strb	r3, [sp, #68]
 376:D:/fchai/work/i-cube/I-CUBE-HUAWEI/Middlewares/Third_Party/Huawei/iot_link/shell\shell_main.c ****                 //flush the vk
 1103              		.loc 1 376 17 is_stmt 1 view .LVU335
 378:D:/fchai/work/i-cube/I-CUBE-HUAWEI/Middlewares/Third_Party/Huawei/iot_link/shell\shell_main.c ****                 vkmask = CN_VIRTUAL_KEY_NULL;
 1104              		.loc 1 378 20 is_stmt 0 view .LVU336
 1105 01de 4C46     		mov	r4, r9
 1106              	.LVL108:
 376:D:/fchai/work/i-cube/I-CUBE-HUAWEI/Middlewares/Third_Party/Huawei/iot_link/shell\shell_main.c ****                 //flush the vk
 1107              		.loc 1 376 17 view .LVU337
 1108 01e0 FFF7FEFF 		bl	shell_put_string
 1109              	.LVL109:
 378:D:/fchai/work/i-cube/I-CUBE-HUAWEI/Middlewares/Third_Party/Huawei/iot_link/shell\shell_main.c ****                 vkmask = CN_VIRTUAL_KEY_NULL;
 1110              		.loc 1 378 17 is_stmt 1 view .LVU338
 379:D:/fchai/work/i-cube/I-CUBE-HUAWEI/Middlewares/Third_Party/Huawei/iot_link/shell\shell_main.c ****                 break;
 1111              		.loc 1 379 17 view .LVU339
 380:D:/fchai/work/i-cube/I-CUBE-HUAWEI/Middlewares/Third_Party/Huawei/iot_link/shell\shell_main.c ****             case CN_KEY_TAB:      //tab,should auto complete the command
 1112              		.loc 1 380 17 view .LVU340
 1113 01e4 23E7     		b	.L46
 1114              	.LVL110:
 1115              	.L74:
 380:D:/fchai/work/i-cube/I-CUBE-HUAWEI/Middlewares/Third_Party/Huawei/iot_link/shell\shell_main.c ****             case CN_KEY_TAB:      //tab,should auto complete the command
 1116              		.loc 1 380 17 is_stmt 0 view .LVU341
 1117 01e6 A246     		mov	r10, r4
 1118 01e8 0446     		mov	r4, r0
ARM GAS  T:\msys\tmp\ccldiPcz.s 			page 33


 1119              	.LVL111:
 380:D:/fchai/work/i-cube/I-CUBE-HUAWEI/Middlewares/Third_Party/Huawei/iot_link/shell\shell_main.c ****             case CN_KEY_TAB:      //tab,should auto complete the command
 1120              		.loc 1 380 17 view .LVU342
 1121 01ea 34E7     		b	.L48
 1122              	.LVL112:
 1123              	.L110:
 301:D:/fchai/work/i-cube/I-CUBE-HUAWEI/Middlewares/Third_Party/Huawei/iot_link/shell\shell_main.c ****                 continue;    
 1124              		.loc 1 301 17 is_stmt 1 view .LVU343
 301:D:/fchai/work/i-cube/I-CUBE-HUAWEI/Middlewares/Third_Party/Huawei/iot_link/shell\shell_main.c ****                 continue;    
 1125              		.loc 1 301 19 is_stmt 0 view .LVU344
 1126 01ec 44EA0024 		orr	r4, r4, r0, lsl #8
 1127              	.LVL113:
 302:D:/fchai/work/i-cube/I-CUBE-HUAWEI/Middlewares/Third_Party/Huawei/iot_link/shell\shell_main.c ****             }
 1128              		.loc 1 302 17 is_stmt 1 view .LVU345
 1129 01f0 1DE7     		b	.L46
 1130              	.LVL114:
 1131              	.L57:
 326:D:/fchai/work/i-cube/I-CUBE-HUAWEI/Middlewares/Third_Party/Huawei/iot_link/shell\shell_main.c ****                 if(shell_cmd_cache.curoffset < len){
 1132              		.loc 1 326 17 view .LVU346
 326:D:/fchai/work/i-cube/I-CUBE-HUAWEI/Middlewares/Third_Party/Huawei/iot_link/shell\shell_main.c ****                 if(shell_cmd_cache.curoffset < len){
 1133              		.loc 1 326 23 is_stmt 0 view .LVU347
 1134 01f2 01A8     		add	r0, sp, #4
 1135 01f4 FFF7FEFF 		bl	strlen
 1136              	.LVL115:
 327:D:/fchai/work/i-cube/I-CUBE-HUAWEI/Middlewares/Third_Party/Huawei/iot_link/shell\shell_main.c ****                     shell_cmd_cache.curoffset++;
 1137              		.loc 1 327 17 is_stmt 1 view .LVU348
 327:D:/fchai/work/i-cube/I-CUBE-HUAWEI/Middlewares/Third_Party/Huawei/iot_link/shell\shell_main.c ****                     shell_cmd_cache.curoffset++;
 1138              		.loc 1 327 35 is_stmt 0 view .LVU349
 1139 01f8 9DF84430 		ldrb	r3, [sp, #68]	@ zero_extendqisi2
 327:D:/fchai/work/i-cube/I-CUBE-HUAWEI/Middlewares/Third_Party/Huawei/iot_link/shell\shell_main.c ****                     shell_cmd_cache.curoffset++;
 1140              		.loc 1 327 19 view .LVU350
 1141 01fc 8342     		cmp	r3, r0
 1142 01fe 9FDA     		bge	.L61
 328:D:/fchai/work/i-cube/I-CUBE-HUAWEI/Middlewares/Third_Party/Huawei/iot_link/shell\shell_main.c ****                     //push back the right cursor and make the terminal display know what has happen
 1143              		.loc 1 328 21 is_stmt 1 view .LVU351
 328:D:/fchai/work/i-cube/I-CUBE-HUAWEI/Middlewares/Third_Party/Huawei/iot_link/shell\shell_main.c ****                     //push back the right cursor and make the terminal display know what has happen
 1144              		.loc 1 328 46 is_stmt 0 view .LVU352
 1145 0200 0133     		adds	r3, r3, #1
 1146              	.LBB128:
 1147              	.LBB129:
 1148              	.LBB130:
 1149              	.LBB131:
 130:D:/fchai/work/i-cube/I-CUBE-HUAWEI/Middlewares/Third_Party/Huawei/iot_link/shell\shell_main.c **** }
 1150              		.loc 1 130 5 view .LVU353
 1151 0202 5FFA8AF0 		uxtb	r0, r10
 1152              	.LVL116:
 130:D:/fchai/work/i-cube/I-CUBE-HUAWEI/Middlewares/Third_Party/Huawei/iot_link/shell\shell_main.c **** }
 1153              		.loc 1 130 5 view .LVU354
 1154              	.LBE131:
 1155              	.LBE130:
 1156              	.LBE129:
 1157              	.LBE128:
 328:D:/fchai/work/i-cube/I-CUBE-HUAWEI/Middlewares/Third_Party/Huawei/iot_link/shell\shell_main.c ****                     //push back the right cursor and make the terminal display know what has happen
 1158              		.loc 1 328 46 view .LVU355
 1159 0206 8DF84430 		strb	r3, [sp, #68]
 330:D:/fchai/work/i-cube/I-CUBE-HUAWEI/Middlewares/Third_Party/Huawei/iot_link/shell\shell_main.c ****                 } else
 1160              		.loc 1 330 21 is_stmt 1 view .LVU356
ARM GAS  T:\msys\tmp\ccldiPcz.s 			page 34


 1161              	.LVL117:
 1162              	.LBB143:
 1163              	.LBI128:
 193:D:/fchai/work/i-cube/I-CUBE-HUAWEI/Middlewares/Third_Party/Huawei/iot_link/shell\shell_main.c **** {
 1164              		.loc 1 193 14 view .LVU357
 1165              	.LBB140:
 197:D:/fchai/work/i-cube/I-CUBE-HUAWEI/Middlewares/Third_Party/Huawei/iot_link/shell\shell_main.c ****     {
 1166              		.loc 1 197 14 view .LVU358
 199:D:/fchai/work/i-cube/I-CUBE-HUAWEI/Middlewares/Third_Party/Huawei/iot_link/shell\shell_main.c ****         shell_put_char(ch);
 1167              		.loc 1 199 9 view .LVU359
 200:D:/fchai/work/i-cube/I-CUBE-HUAWEI/Middlewares/Third_Party/Huawei/iot_link/shell\shell_main.c ****         ch = (char)((vk>>8)&0xff);
 1168              		.loc 1 200 9 view .LVU360
 1169              	.LBB133:
 1170              	.LBI130:
 128:D:/fchai/work/i-cube/I-CUBE-HUAWEI/Middlewares/Third_Party/Huawei/iot_link/shell\shell_main.c **** {
 1171              		.loc 1 128 13 view .LVU361
 1172              	.LBB132:
 130:D:/fchai/work/i-cube/I-CUBE-HUAWEI/Middlewares/Third_Party/Huawei/iot_link/shell\shell_main.c **** }
 1173              		.loc 1 130 5 view .LVU362
 130:D:/fchai/work/i-cube/I-CUBE-HUAWEI/Middlewares/Third_Party/Huawei/iot_link/shell\shell_main.c **** }
 1174              		.loc 1 130 5 view .LVU363
 1175 020a FFF7FEFF 		bl	putchar
 1176              	.LVL118:
 130:D:/fchai/work/i-cube/I-CUBE-HUAWEI/Middlewares/Third_Party/Huawei/iot_link/shell\shell_main.c **** }
 1177              		.loc 1 130 5 view .LVU364
 1178 020e D8F80030 		ldr	r3, [r8]
 1179 0212 9868     		ldr	r0, [r3, #8]
 1180 0214 FFF7FEFF 		bl	fflush
 1181              	.LVL119:
 130:D:/fchai/work/i-cube/I-CUBE-HUAWEI/Middlewares/Third_Party/Huawei/iot_link/shell\shell_main.c **** }
 1182              		.loc 1 130 5 view .LVU365
 130:D:/fchai/work/i-cube/I-CUBE-HUAWEI/Middlewares/Third_Party/Huawei/iot_link/shell\shell_main.c **** }
 1183              		.loc 1 130 5 is_stmt 0 view .LVU366
 1184              	.LBE132:
 1185              	.LBE133:
 201:D:/fchai/work/i-cube/I-CUBE-HUAWEI/Middlewares/Third_Party/Huawei/iot_link/shell\shell_main.c ****         shell_put_char(ch);
 1186              		.loc 1 201 9 is_stmt 1 view .LVU367
 202:D:/fchai/work/i-cube/I-CUBE-HUAWEI/Middlewares/Third_Party/Huawei/iot_link/shell\shell_main.c ****         ch = (char)((vk>>16)&0xff);
 1187              		.loc 1 202 9 view .LVU368
 1188              	.LBB134:
 1189              	.LBI134:
 128:D:/fchai/work/i-cube/I-CUBE-HUAWEI/Middlewares/Third_Party/Huawei/iot_link/shell\shell_main.c **** {
 1190              		.loc 1 128 13 view .LVU369
 1191              	.LBB135:
 130:D:/fchai/work/i-cube/I-CUBE-HUAWEI/Middlewares/Third_Party/Huawei/iot_link/shell\shell_main.c **** }
 1192              		.loc 1 130 5 view .LVU370
 130:D:/fchai/work/i-cube/I-CUBE-HUAWEI/Middlewares/Third_Party/Huawei/iot_link/shell\shell_main.c **** }
 1193              		.loc 1 130 5 view .LVU371
 1194 0218 CAF30720 		ubfx	r0, r10, #8, #8
 1195 021c FFF7FEFF 		bl	putchar
 1196              	.LVL120:
 130:D:/fchai/work/i-cube/I-CUBE-HUAWEI/Middlewares/Third_Party/Huawei/iot_link/shell\shell_main.c **** }
 1197              		.loc 1 130 5 view .LVU372
 1198 0220 D8F80030 		ldr	r3, [r8]
 1199 0224 9868     		ldr	r0, [r3, #8]
 1200 0226 FFF7FEFF 		bl	fflush
 1201              	.LVL121:
ARM GAS  T:\msys\tmp\ccldiPcz.s 			page 35


 130:D:/fchai/work/i-cube/I-CUBE-HUAWEI/Middlewares/Third_Party/Huawei/iot_link/shell\shell_main.c **** }
 1202              		.loc 1 130 5 view .LVU373
 130:D:/fchai/work/i-cube/I-CUBE-HUAWEI/Middlewares/Third_Party/Huawei/iot_link/shell\shell_main.c **** }
 1203              		.loc 1 130 5 is_stmt 0 view .LVU374
 1204              	.LBE135:
 1205              	.LBE134:
 203:D:/fchai/work/i-cube/I-CUBE-HUAWEI/Middlewares/Third_Party/Huawei/iot_link/shell\shell_main.c ****         shell_put_char(ch);
 1206              		.loc 1 203 9 is_stmt 1 view .LVU375
 204:D:/fchai/work/i-cube/I-CUBE-HUAWEI/Middlewares/Third_Party/Huawei/iot_link/shell\shell_main.c ****     }
 1207              		.loc 1 204 9 view .LVU376
 1208              	.LBB136:
 1209              	.LBI136:
 128:D:/fchai/work/i-cube/I-CUBE-HUAWEI/Middlewares/Third_Party/Huawei/iot_link/shell\shell_main.c **** {
 1210              		.loc 1 128 13 view .LVU377
 1211              	.LBB137:
 130:D:/fchai/work/i-cube/I-CUBE-HUAWEI/Middlewares/Third_Party/Huawei/iot_link/shell\shell_main.c **** }
 1212              		.loc 1 130 5 view .LVU378
 130:D:/fchai/work/i-cube/I-CUBE-HUAWEI/Middlewares/Third_Party/Huawei/iot_link/shell\shell_main.c **** }
 1213              		.loc 1 130 5 view .LVU379
 1214 022a CAF30740 		ubfx	r0, r10, #16, #8
 1215 022e FFF7FEFF 		bl	putchar
 1216              	.LVL122:
 130:D:/fchai/work/i-cube/I-CUBE-HUAWEI/Middlewares/Third_Party/Huawei/iot_link/shell\shell_main.c **** }
 1217              		.loc 1 130 5 view .LVU380
 1218 0232 D8F80030 		ldr	r3, [r8]
 1219              	.LBE137:
 1220              	.LBE136:
 1221              	.LBE140:
 1222              	.LBE143:
 335:D:/fchai/work/i-cube/I-CUBE-HUAWEI/Middlewares/Third_Party/Huawei/iot_link/shell\shell_main.c ****                 break;
 1223              		.loc 1 335 24 is_stmt 0 view .LVU381
 1224 0236 0024     		movs	r4, #0
 1225              	.LVL123:
 1226              	.LBB144:
 1227              	.LBB141:
 1228              	.LBB139:
 1229              	.LBB138:
 130:D:/fchai/work/i-cube/I-CUBE-HUAWEI/Middlewares/Third_Party/Huawei/iot_link/shell\shell_main.c **** }
 1230              		.loc 1 130 5 view .LVU382
 1231 0238 9868     		ldr	r0, [r3, #8]
 1232 023a FFF7FEFF 		bl	fflush
 1233              	.LVL124:
 130:D:/fchai/work/i-cube/I-CUBE-HUAWEI/Middlewares/Third_Party/Huawei/iot_link/shell\shell_main.c **** }
 1234              		.loc 1 130 5 is_stmt 1 view .LVU383
 130:D:/fchai/work/i-cube/I-CUBE-HUAWEI/Middlewares/Third_Party/Huawei/iot_link/shell\shell_main.c **** }
 1235              		.loc 1 130 5 is_stmt 0 view .LVU384
 1236              	.LBE138:
 1237              	.LBE139:
 197:D:/fchai/work/i-cube/I-CUBE-HUAWEI/Middlewares/Third_Party/Huawei/iot_link/shell\shell_main.c ****     {
 1238              		.loc 1 197 22 is_stmt 1 view .LVU385
 197:D:/fchai/work/i-cube/I-CUBE-HUAWEI/Middlewares/Third_Party/Huawei/iot_link/shell\shell_main.c ****     {
 1239              		.loc 1 197 14 view .LVU386
 1240              	.LBE141:
 1241              	.LBE144:
 334:D:/fchai/work/i-cube/I-CUBE-HUAWEI/Middlewares/Third_Party/Huawei/iot_link/shell\shell_main.c ****                 vkmask = CN_VIRTUAL_KEY_NULL;
 1242              		.loc 1 334 20 is_stmt 0 view .LVU387
 1243 023e A146     		mov	r9, r4
ARM GAS  T:\msys\tmp\ccldiPcz.s 			page 36


 1244              	.LBB145:
 1245              	.LBB142:
 1246 0240 F5E6     		b	.L46
 1247              	.LVL125:
 1248              	.L59:
 334:D:/fchai/work/i-cube/I-CUBE-HUAWEI/Middlewares/Third_Party/Huawei/iot_link/shell\shell_main.c ****                 vkmask = CN_VIRTUAL_KEY_NULL;
 1249              		.loc 1 334 20 view .LVU388
 1250              	.LBE142:
 1251              	.LBE145:
 340:D:/fchai/work/i-cube/I-CUBE-HUAWEI/Middlewares/Third_Party/Huawei/iot_link/shell\shell_main.c ****                 if(shell_cmd_cache.curoffset < len){
 1252              		.loc 1 340 17 is_stmt 1 view .LVU389
 340:D:/fchai/work/i-cube/I-CUBE-HUAWEI/Middlewares/Third_Party/Huawei/iot_link/shell\shell_main.c ****                 if(shell_cmd_cache.curoffset < len){
 1253              		.loc 1 340 23 is_stmt 0 view .LVU390
 1254 0242 01A8     		add	r0, sp, #4
 1255 0244 FFF7FEFF 		bl	strlen
 1256              	.LVL126:
 341:D:/fchai/work/i-cube/I-CUBE-HUAWEI/Middlewares/Third_Party/Huawei/iot_link/shell\shell_main.c ****                     shell_put_space(len - shell_cmd_cache.curoffset);
 1257              		.loc 1 341 35 view .LVU391
 1258 0248 9DF84430 		ldrb	r3, [sp, #68]	@ zero_extendqisi2
 341:D:/fchai/work/i-cube/I-CUBE-HUAWEI/Middlewares/Third_Party/Huawei/iot_link/shell\shell_main.c ****                     shell_put_space(len - shell_cmd_cache.curoffset);
 1259              		.loc 1 341 19 view .LVU392
 1260 024c 8342     		cmp	r3, r0
 340:D:/fchai/work/i-cube/I-CUBE-HUAWEI/Middlewares/Third_Party/Huawei/iot_link/shell\shell_main.c ****                 if(shell_cmd_cache.curoffset < len){
 1261              		.loc 1 340 23 view .LVU393
 1262 024e 8146     		mov	r9, r0
 1263              	.LVL127:
 341:D:/fchai/work/i-cube/I-CUBE-HUAWEI/Middlewares/Third_Party/Huawei/iot_link/shell\shell_main.c ****                     shell_put_space(len - shell_cmd_cache.curoffset);
 1264              		.loc 1 341 17 is_stmt 1 view .LVU394
 341:D:/fchai/work/i-cube/I-CUBE-HUAWEI/Middlewares/Third_Party/Huawei/iot_link/shell\shell_main.c ****                     shell_put_space(len - shell_cmd_cache.curoffset);
 1265              		.loc 1 341 19 is_stmt 0 view .LVU395
 1266 0250 29DB     		blt	.L116
 1267              	.LVL128:
 1268              	.LBB146:
 1269              	.LBB147:
 169:D:/fchai/work/i-cube/I-CUBE-HUAWEI/Middlewares/Third_Party/Huawei/iot_link/shell\shell_main.c ****     {
 1270              		.loc 1 169 14 is_stmt 1 view .LVU396
 169:D:/fchai/work/i-cube/I-CUBE-HUAWEI/Middlewares/Third_Party/Huawei/iot_link/shell\shell_main.c ****     {
 1271              		.loc 1 169 5 is_stmt 0 view .LVU397
 1272 0252 40B1     		cbz	r0, .L64
 1273              	.LVL129:
 1274              	.L63:
 171:D:/fchai/work/i-cube/I-CUBE-HUAWEI/Middlewares/Third_Party/Huawei/iot_link/shell\shell_main.c ****     }
 1275              		.loc 1 171 9 view .LVU398
 1276 0254 DFF888A0 		ldr	r10, .L117+32
 1277              	.LVL130:
 171:D:/fchai/work/i-cube/I-CUBE-HUAWEI/Middlewares/Third_Party/Huawei/iot_link/shell\shell_main.c ****     }
 1278              		.loc 1 171 9 view .LVU399
 1279              	.LBE147:
 1280              	.LBE146:
 1281 0258 0024     		movs	r4, #0
 1282              	.LVL131:
 1283              	.L65:
 1284              	.LBB150:
 1285              	.LBB148:
 171:D:/fchai/work/i-cube/I-CUBE-HUAWEI/Middlewares/Third_Party/Huawei/iot_link/shell\shell_main.c ****     }
 1286              		.loc 1 171 9 is_stmt 1 view .LVU400
 169:D:/fchai/work/i-cube/I-CUBE-HUAWEI/Middlewares/Third_Party/Huawei/iot_link/shell\shell_main.c ****     {
ARM GAS  T:\msys\tmp\ccldiPcz.s 			page 37


 1287              		.loc 1 169 23 is_stmt 0 view .LVU401
 1288 025a 0134     		adds	r4, r4, #1
 1289              	.LVL132:
 171:D:/fchai/work/i-cube/I-CUBE-HUAWEI/Middlewares/Third_Party/Huawei/iot_link/shell\shell_main.c ****     }
 1290              		.loc 1 171 9 view .LVU402
 1291 025c 5046     		mov	r0, r10
 1292 025e FFF7FEFF 		bl	shell_put_string
 1293              	.LVL133:
 169:D:/fchai/work/i-cube/I-CUBE-HUAWEI/Middlewares/Third_Party/Huawei/iot_link/shell\shell_main.c ****     {
 1294              		.loc 1 169 22 is_stmt 1 view .LVU403
 169:D:/fchai/work/i-cube/I-CUBE-HUAWEI/Middlewares/Third_Party/Huawei/iot_link/shell\shell_main.c ****     {
 1295              		.loc 1 169 14 view .LVU404
 169:D:/fchai/work/i-cube/I-CUBE-HUAWEI/Middlewares/Third_Party/Huawei/iot_link/shell\shell_main.c ****     {
 1296              		.loc 1 169 5 is_stmt 0 view .LVU405
 1297 0262 A145     		cmp	r9, r4
 1298 0264 F9DC     		bgt	.L65
 1299              	.LVL134:
 1300              	.L64:
 169:D:/fchai/work/i-cube/I-CUBE-HUAWEI/Middlewares/Third_Party/Huawei/iot_link/shell\shell_main.c ****     {
 1301              		.loc 1 169 5 view .LVU406
 1302              	.LBE148:
 1303              	.LBE150:
 346:D:/fchai/work/i-cube/I-CUBE-HUAWEI/Middlewares/Third_Party/Huawei/iot_link/shell\shell_main.c ****                 shell_cmd_cache.curoffset = 0;
 1304              		.loc 1 346 17 is_stmt 1 view .LVU407
 346:D:/fchai/work/i-cube/I-CUBE-HUAWEI/Middlewares/Third_Party/Huawei/iot_link/shell\shell_main.c ****                 shell_cmd_cache.curoffset = 0;
 1305              		.loc 1 346 24 is_stmt 0 view .LVU408
 1306 0266 4022     		movs	r2, #64
 1307 0268 0021     		movs	r1, #0
 1308 026a 01A8     		add	r0, sp, #4
 1309 026c FFF7FEFF 		bl	memset
 1310              	.LVL135:
 347:D:/fchai/work/i-cube/I-CUBE-HUAWEI/Middlewares/Third_Party/Huawei/iot_link/shell\shell_main.c ****                 //then copy the previous command to current and echo all the info
 1311              		.loc 1 347 17 is_stmt 1 view .LVU409
 349:D:/fchai/work/i-cube/I-CUBE-HUAWEI/Middlewares/Third_Party/Huawei/iot_link/shell\shell_main.c ****                 (void) strncpy(shell_cmd_cache.curcmd,shell_cmd_cache.tab[offset],CN_CMDLEN_MAX);
 1312              		.loc 1 349 42 is_stmt 0 view .LVU410
 1313 0270 9DF84541 		ldrb	r4, [sp, #325]	@ zero_extendqisi2
 349:D:/fchai/work/i-cube/I-CUBE-HUAWEI/Middlewares/Third_Party/Huawei/iot_link/shell\shell_main.c ****                 (void) strncpy(shell_cmd_cache.curcmd,shell_cmd_cache.tab[offset],CN_CMDLEN_MAX);
 1314              		.loc 1 349 67 view .LVU411
 1315 0274 0334     		adds	r4, r4, #3
 1316 0276 9BE7     		b	.L107
 1317              	.LVL136:
 1318              	.L111:
 412:D:/fchai/work/i-cube/I-CUBE-HUAWEI/Middlewares/Third_Party/Huawei/iot_link/shell\shell_main.c ****                     //copy the current to the history cache if the current command is not none
 1319              		.loc 1 412 21 is_stmt 1 view .LVU412
 412:D:/fchai/work/i-cube/I-CUBE-HUAWEI/Middlewares/Third_Party/Huawei/iot_link/shell\shell_main.c ****                     //copy the current to the history cache if the current command is not none
 1320              		.loc 1 412 21 view .LVU413
 1321 0278 1748     		ldr	r0, .L117+24
 1322 027a FFF7FEFF 		bl	printf
 1323              	.LVL137:
 412:D:/fchai/work/i-cube/I-CUBE-HUAWEI/Middlewares/Third_Party/Huawei/iot_link/shell\shell_main.c ****                     //copy the current to the history cache if the current command is not none
 1324              		.loc 1 412 21 view .LVU414
 1325 027e D8F80030 		ldr	r3, [r8]
 1326 0282 9868     		ldr	r0, [r3, #8]
 1327 0284 FFF7FEFF 		bl	fflush
 1328              	.LVL138:
 412:D:/fchai/work/i-cube/I-CUBE-HUAWEI/Middlewares/Third_Party/Huawei/iot_link/shell\shell_main.c ****                     //copy the current to the history cache if the current command is not none
 1329              		.loc 1 412 21 view .LVU415
ARM GAS  T:\msys\tmp\ccldiPcz.s 			page 38


 414:D:/fchai/work/i-cube/I-CUBE-HUAWEI/Middlewares/Third_Party/Huawei/iot_link/shell\shell_main.c ****                     shell_cmd_execute(shell_cmd_cache.curcmd);  //execute the command
 1330              		.loc 1 414 21 view .LVU416
 1331 0288 01A8     		add	r0, sp, #4
 1332 028a FFF7FEFF 		bl	shell_cachecmd
 1333              	.LVL139:
 415:D:/fchai/work/i-cube/I-CUBE-HUAWEI/Middlewares/Third_Party/Huawei/iot_link/shell\shell_main.c ****                     (void) memset(shell_cmd_cache.curcmd,0,CN_CMDLEN_MAX);
 1334              		.loc 1 415 21 view .LVU417
 1335 028e 01A8     		add	r0, sp, #4
 1336 0290 FFF7FEFF 		bl	shell_cmd_execute
 1337              	.LVL140:
 416:D:/fchai/work/i-cube/I-CUBE-HUAWEI/Middlewares/Third_Party/Huawei/iot_link/shell\shell_main.c ****                     shell_cmd_cache.curoffset = 0;
 1338              		.loc 1 416 21 view .LVU418
 416:D:/fchai/work/i-cube/I-CUBE-HUAWEI/Middlewares/Third_Party/Huawei/iot_link/shell\shell_main.c ****                     shell_cmd_cache.curoffset = 0;
 1339              		.loc 1 416 28 is_stmt 0 view .LVU419
 1340 0294 4022     		movs	r2, #64
 1341 0296 0021     		movs	r1, #0
 1342 0298 01A8     		add	r0, sp, #4
 1343 029a FFF7FEFF 		bl	memset
 1344              	.LVL141:
 417:D:/fchai/work/i-cube/I-CUBE-HUAWEI/Middlewares/Third_Party/Huawei/iot_link/shell\shell_main.c ****                 }
 1345              		.loc 1 417 21 is_stmt 1 view .LVU420
 417:D:/fchai/work/i-cube/I-CUBE-HUAWEI/Middlewares/Third_Party/Huawei/iot_link/shell\shell_main.c ****                 }
 1346              		.loc 1 417 47 is_stmt 0 view .LVU421
 1347 029e 0023     		movs	r3, #0
 1348 02a0 8DF84430 		strb	r3, [sp, #68]
 1349 02a4 F2E6     		b	.L73
 1350              	.LVL142:
 1351              	.L116:
 342:D:/fchai/work/i-cube/I-CUBE-HUAWEI/Middlewares/Third_Party/Huawei/iot_link/shell\shell_main.c ****                     shell_cmd_cache.curoffset = len;
 1352              		.loc 1 342 21 is_stmt 1 view .LVU422
 1353 02a6 C01A     		subs	r0, r0, r3
 1354              	.LVL143:
 342:D:/fchai/work/i-cube/I-CUBE-HUAWEI/Middlewares/Third_Party/Huawei/iot_link/shell\shell_main.c ****                     shell_cmd_cache.curoffset = len;
 1355              		.loc 1 342 21 is_stmt 0 view .LVU423
 1356 02a8 FFF7FEFF 		bl	shell_put_space
 1357              	.LVL144:
 343:D:/fchai/work/i-cube/I-CUBE-HUAWEI/Middlewares/Third_Party/Huawei/iot_link/shell\shell_main.c ****                 }
 1358              		.loc 1 343 21 is_stmt 1 view .LVU424
 343:D:/fchai/work/i-cube/I-CUBE-HUAWEI/Middlewares/Third_Party/Huawei/iot_link/shell\shell_main.c ****                 }
 1359              		.loc 1 343 47 is_stmt 0 view .LVU425
 1360 02ac 8DF84490 		strb	r9, [sp, #68]
 1361              	.LVL145:
 1362              	.LBB151:
 1363              	.LBB149:
 169:D:/fchai/work/i-cube/I-CUBE-HUAWEI/Middlewares/Third_Party/Huawei/iot_link/shell\shell_main.c ****     {
 1364              		.loc 1 169 14 is_stmt 1 view .LVU426
 1365 02b0 D0E7     		b	.L63
 1366              	.LVL146:
 1367              	.L115:
 169:D:/fchai/work/i-cube/I-CUBE-HUAWEI/Middlewares/Third_Party/Huawei/iot_link/shell\shell_main.c ****     {
 1368              		.loc 1 169 14 is_stmt 0 view .LVU427
 1369              	.LBE149:
 1370              	.LBE151:
 364:D:/fchai/work/i-cube/I-CUBE-HUAWEI/Middlewares/Third_Party/Huawei/iot_link/shell\shell_main.c ****                     shell_cmd_cache.curoffset = len;
 1371              		.loc 1 364 21 is_stmt 1 view .LVU428
 1372 02b2 C01A     		subs	r0, r0, r3
 1373              	.LVL147:
ARM GAS  T:\msys\tmp\ccldiPcz.s 			page 39


 364:D:/fchai/work/i-cube/I-CUBE-HUAWEI/Middlewares/Third_Party/Huawei/iot_link/shell\shell_main.c ****                     shell_cmd_cache.curoffset = len;
 1374              		.loc 1 364 21 is_stmt 0 view .LVU429
 1375 02b4 FFF7FEFF 		bl	shell_put_space
 1376              	.LVL148:
 365:D:/fchai/work/i-cube/I-CUBE-HUAWEI/Middlewares/Third_Party/Huawei/iot_link/shell\shell_main.c ****                 }
 1377              		.loc 1 365 21 is_stmt 1 view .LVU430
 365:D:/fchai/work/i-cube/I-CUBE-HUAWEI/Middlewares/Third_Party/Huawei/iot_link/shell\shell_main.c ****                 }
 1378              		.loc 1 365 47 is_stmt 0 view .LVU431
 1379 02b8 8DF84490 		strb	r9, [sp, #68]
 1380              	.LVL149:
 1381              	.LBB152:
 1382              	.LBB126:
 169:D:/fchai/work/i-cube/I-CUBE-HUAWEI/Middlewares/Third_Party/Huawei/iot_link/shell\shell_main.c ****     {
 1383              		.loc 1 169 14 is_stmt 1 view .LVU432
 1384 02bc 67E7     		b	.L67
 1385              	.L118:
 1386 02be 00BF     		.align	2
 1387              	.L117:
 1388 02c0 00000000 		.word	.LC0
 1389 02c4 1B004300 		.word	4390939
 1390 02c8 1B004400 		.word	4456475
 1391 02cc 1B004100 		.word	4259867
 1392 02d0 1C000000 		.word	.LC1
 1393 02d4 1B004200 		.word	4325403
 1394 02d8 2C000000 		.word	.LC3
 1395 02dc 00000000 		.word	_impure_ptr
 1396 02e0 28000000 		.word	.LC2
 1397              	.LVL150:
 1398              	.L113:
 169:D:/fchai/work/i-cube/I-CUBE-HUAWEI/Middlewares/Third_Party/Huawei/iot_link/shell\shell_main.c ****     {
 1399              		.loc 1 169 14 is_stmt 0 view .LVU433
 1400              	.LBE126:
 1401              	.LBE152:
 1402              	.LBB153:
 393:D:/fchai/work/i-cube/I-CUBE-HUAWEI/Middlewares/Third_Party/Huawei/iot_link/shell\shell_main.c ****                         for (int i = 0; i < matches->len; i++) {
 1403              		.loc 1 393 25 is_stmt 1 view .LVU434
 393:D:/fchai/work/i-cube/I-CUBE-HUAWEI/Middlewares/Third_Party/Huawei/iot_link/shell\shell_main.c ****                         for (int i = 0; i < matches->len; i++) {
 1404              		.loc 1 393 25 view .LVU435
 1405 02e4 1F48     		ldr	r0, .L119
 1406              	.LVL151:
 393:D:/fchai/work/i-cube/I-CUBE-HUAWEI/Middlewares/Third_Party/Huawei/iot_link/shell\shell_main.c ****                         for (int i = 0; i < matches->len; i++) {
 1407              		.loc 1 393 25 is_stmt 0 view .LVU436
 1408 02e6 FFF7FEFF 		bl	printf
 1409              	.LVL152:
 393:D:/fchai/work/i-cube/I-CUBE-HUAWEI/Middlewares/Third_Party/Huawei/iot_link/shell\shell_main.c ****                         for (int i = 0; i < matches->len; i++) {
 1410              		.loc 1 393 25 is_stmt 1 view .LVU437
 1411 02ea D8F80030 		ldr	r3, [r8]
 1412 02ee 9868     		ldr	r0, [r3, #8]
 1413 02f0 FFF7FEFF 		bl	fflush
 1414              	.LVL153:
 393:D:/fchai/work/i-cube/I-CUBE-HUAWEI/Middlewares/Third_Party/Huawei/iot_link/shell\shell_main.c ****                         for (int i = 0; i < matches->len; i++) {
 1415              		.loc 1 393 25 view .LVU438
 394:D:/fchai/work/i-cube/I-CUBE-HUAWEI/Middlewares/Third_Party/Huawei/iot_link/shell\shell_main.c ****                             shell_put_string(matches->matches[i]);
 1416              		.loc 1 394 25 view .LVU439
 1417              	.LBB118:
 394:D:/fchai/work/i-cube/I-CUBE-HUAWEI/Middlewares/Third_Party/Huawei/iot_link/shell\shell_main.c ****                             shell_put_string(matches->matches[i]);
 1418              		.loc 1 394 30 view .LVU440
ARM GAS  T:\msys\tmp\ccldiPcz.s 			page 40


 394:D:/fchai/work/i-cube/I-CUBE-HUAWEI/Middlewares/Third_Party/Huawei/iot_link/shell\shell_main.c ****                             shell_put_string(matches->matches[i]);
 1419              		.loc 1 394 41 view .LVU441
 394:D:/fchai/work/i-cube/I-CUBE-HUAWEI/Middlewares/Third_Party/Huawei/iot_link/shell\shell_main.c ****                             shell_put_string(matches->matches[i]);
 1420              		.loc 1 394 25 is_stmt 0 view .LVU442
 1421 02f4 B4F84030 		ldrh	r3, [r4, #64]
 1422 02f8 9BB1     		cbz	r3, .L71
 1423 02fa A4F1040A 		sub	r10, r4, #4
 1424              	.LVL154:
 1425              	.L72:
 395:D:/fchai/work/i-cube/I-CUBE-HUAWEI/Middlewares/Third_Party/Huawei/iot_link/shell\shell_main.c ****                             shell_put_char('\t');
 1426              		.loc 1 395 29 is_stmt 1 discriminator 3 view .LVU443
 1427 02fe 5AF8040F 		ldr	r0, [r10, #4]!
 1428 0302 FFF7FEFF 		bl	shell_put_string
 1429              	.LVL155:
 396:D:/fchai/work/i-cube/I-CUBE-HUAWEI/Middlewares/Third_Party/Huawei/iot_link/shell\shell_main.c ****                         }
 1430              		.loc 1 396 29 discriminator 3 view .LVU444
 1431              	.LBB119:
 1432              	.LBI119:
 128:D:/fchai/work/i-cube/I-CUBE-HUAWEI/Middlewares/Third_Party/Huawei/iot_link/shell\shell_main.c **** {
 1433              		.loc 1 128 13 discriminator 3 view .LVU445
 1434              	.LBB120:
 130:D:/fchai/work/i-cube/I-CUBE-HUAWEI/Middlewares/Third_Party/Huawei/iot_link/shell\shell_main.c **** }
 1435              		.loc 1 130 5 discriminator 3 view .LVU446
 130:D:/fchai/work/i-cube/I-CUBE-HUAWEI/Middlewares/Third_Party/Huawei/iot_link/shell\shell_main.c **** }
 1436              		.loc 1 130 5 discriminator 3 view .LVU447
 1437 0306 0920     		movs	r0, #9
 1438 0308 FFF7FEFF 		bl	putchar
 1439              	.LVL156:
 130:D:/fchai/work/i-cube/I-CUBE-HUAWEI/Middlewares/Third_Party/Huawei/iot_link/shell\shell_main.c **** }
 1440              		.loc 1 130 5 discriminator 3 view .LVU448
 1441 030c D8F80030 		ldr	r3, [r8]
 1442 0310 9868     		ldr	r0, [r3, #8]
 1443 0312 FFF7FEFF 		bl	fflush
 1444              	.LVL157:
 130:D:/fchai/work/i-cube/I-CUBE-HUAWEI/Middlewares/Third_Party/Huawei/iot_link/shell\shell_main.c **** }
 1445              		.loc 1 130 5 discriminator 3 view .LVU449
 130:D:/fchai/work/i-cube/I-CUBE-HUAWEI/Middlewares/Third_Party/Huawei/iot_link/shell\shell_main.c **** }
 1446              		.loc 1 130 5 is_stmt 0 discriminator 3 view .LVU450
 1447              	.LBE120:
 1448              	.LBE119:
 394:D:/fchai/work/i-cube/I-CUBE-HUAWEI/Middlewares/Third_Party/Huawei/iot_link/shell\shell_main.c ****                             shell_put_string(matches->matches[i]);
 1449              		.loc 1 394 59 is_stmt 1 discriminator 3 view .LVU451
 394:D:/fchai/work/i-cube/I-CUBE-HUAWEI/Middlewares/Third_Party/Huawei/iot_link/shell\shell_main.c ****                             shell_put_string(matches->matches[i]);
 1450              		.loc 1 394 52 is_stmt 0 discriminator 3 view .LVU452
 1451 0316 B4F84030 		ldrh	r3, [r4, #64]
 394:D:/fchai/work/i-cube/I-CUBE-HUAWEI/Middlewares/Third_Party/Huawei/iot_link/shell\shell_main.c ****                             shell_put_string(matches->matches[i]);
 1452              		.loc 1 394 60 discriminator 3 view .LVU453
 1453 031a 09F10109 		add	r9, r9, #1
 1454              	.LVL158:
 394:D:/fchai/work/i-cube/I-CUBE-HUAWEI/Middlewares/Third_Party/Huawei/iot_link/shell\shell_main.c ****                             shell_put_string(matches->matches[i]);
 1455              		.loc 1 394 41 is_stmt 1 discriminator 3 view .LVU454
 394:D:/fchai/work/i-cube/I-CUBE-HUAWEI/Middlewares/Third_Party/Huawei/iot_link/shell\shell_main.c ****                             shell_put_string(matches->matches[i]);
 1456              		.loc 1 394 25 is_stmt 0 discriminator 3 view .LVU455
 1457 031e 4B45     		cmp	r3, r9
 1458 0320 EDDC     		bgt	.L72
 1459              	.LVL159:
 1460              	.L71:
ARM GAS  T:\msys\tmp\ccldiPcz.s 			page 41


 394:D:/fchai/work/i-cube/I-CUBE-HUAWEI/Middlewares/Third_Party/Huawei/iot_link/shell\shell_main.c ****                             shell_put_string(matches->matches[i]);
 1461              		.loc 1 394 25 discriminator 3 view .LVU456
 1462              	.LBE118:
 398:D:/fchai/work/i-cube/I-CUBE-HUAWEI/Middlewares/Third_Party/Huawei/iot_link/shell\shell_main.c ****                         shell_put_index();
 1463              		.loc 1 398 25 is_stmt 1 view .LVU457
 398:D:/fchai/work/i-cube/I-CUBE-HUAWEI/Middlewares/Third_Party/Huawei/iot_link/shell\shell_main.c ****                         shell_put_index();
 1464              		.loc 1 398 25 view .LVU458
 1465 0322 1048     		ldr	r0, .L119
 1466 0324 FFF7FEFF 		bl	printf
 1467              	.LVL160:
 398:D:/fchai/work/i-cube/I-CUBE-HUAWEI/Middlewares/Third_Party/Huawei/iot_link/shell\shell_main.c ****                         shell_put_index();
 1468              		.loc 1 398 25 view .LVU459
 1469 0328 D8F80030 		ldr	r3, [r8]
 1470 032c 9868     		ldr	r0, [r3, #8]
 1471 032e FFF7FEFF 		bl	fflush
 1472              	.LVL161:
 398:D:/fchai/work/i-cube/I-CUBE-HUAWEI/Middlewares/Third_Party/Huawei/iot_link/shell\shell_main.c ****                         shell_put_index();
 1473              		.loc 1 398 25 view .LVU460
 399:D:/fchai/work/i-cube/I-CUBE-HUAWEI/Middlewares/Third_Party/Huawei/iot_link/shell\shell_main.c ****                         shell_put_string(shell_cmd_cache.curcmd);
 1474              		.loc 1 399 25 view .LVU461
 1475              	.LBB121:
 1476              	.LBI121:
 155:D:/fchai/work/i-cube/I-CUBE-HUAWEI/Middlewares/Third_Party/Huawei/iot_link/shell\shell_main.c **** {
 1477              		.loc 1 155 13 view .LVU462
 1478              	.LBB122:
 157:D:/fchai/work/i-cube/I-CUBE-HUAWEI/Middlewares/Third_Party/Huawei/iot_link/shell\shell_main.c **** }
 1479              		.loc 1 157 5 view .LVU463
 1480 0332 0D48     		ldr	r0, .L119+4
 1481 0334 FFF7FEFF 		bl	shell_put_string
 1482              	.LVL162:
 1483              	.LBE122:
 1484              	.LBE121:
 400:D:/fchai/work/i-cube/I-CUBE-HUAWEI/Middlewares/Third_Party/Huawei/iot_link/shell\shell_main.c ****                         shell_moves_cursor_left(strlen(shell_cmd_cache.curcmd) - shell_cmd_cache.cu
 1485              		.loc 1 400 25 view .LVU464
 1486 0338 01A8     		add	r0, sp, #4
 1487 033a FFF7FEFF 		bl	shell_put_string
 1488              	.LVL163:
 401:D:/fchai/work/i-cube/I-CUBE-HUAWEI/Middlewares/Third_Party/Huawei/iot_link/shell\shell_main.c ****                     } else 
 1489              		.loc 1 401 25 view .LVU465
 401:D:/fchai/work/i-cube/I-CUBE-HUAWEI/Middlewares/Third_Party/Huawei/iot_link/shell\shell_main.c ****                     } else 
 1490              		.loc 1 401 49 is_stmt 0 view .LVU466
 1491 033e 01A8     		add	r0, sp, #4
 1492 0340 FFF7FEFF 		bl	strlen
 1493              	.LVL164:
 401:D:/fchai/work/i-cube/I-CUBE-HUAWEI/Middlewares/Third_Party/Huawei/iot_link/shell\shell_main.c ****                     } else 
 1494              		.loc 1 401 97 view .LVU467
 1495 0344 9DF84430 		ldrb	r3, [sp, #68]	@ zero_extendqisi2
 1496              	.LBE153:
 408:D:/fchai/work/i-cube/I-CUBE-HUAWEI/Middlewares/Third_Party/Huawei/iot_link/shell\shell_main.c ****                 break;
 1497              		.loc 1 408 24 view .LVU468
 1498 0348 4FF00009 		mov	r9, #0
 1499              	.LBB154:
 401:D:/fchai/work/i-cube/I-CUBE-HUAWEI/Middlewares/Third_Party/Huawei/iot_link/shell\shell_main.c ****                     } else 
 1500              		.loc 1 401 25 view .LVU469
 1501 034c C01A     		subs	r0, r0, r3
 1502 034e FFF7FEFF 		bl	shell_moves_cursor_left
 1503              	.LVL165:
ARM GAS  T:\msys\tmp\ccldiPcz.s 			page 42


 1504              	.LBE154:
 407:D:/fchai/work/i-cube/I-CUBE-HUAWEI/Middlewares/Third_Party/Huawei/iot_link/shell\shell_main.c ****                 vkmask = CN_VIRTUAL_KEY_NULL;
 1505              		.loc 1 407 20 view .LVU470
 1506 0352 4C46     		mov	r4, r9
 1507              	.LVL166:
 1508              	.LBB155:
 407:D:/fchai/work/i-cube/I-CUBE-HUAWEI/Middlewares/Third_Party/Huawei/iot_link/shell\shell_main.c ****                 vkmask = CN_VIRTUAL_KEY_NULL;
 1509              		.loc 1 407 20 view .LVU471
 1510 0354 6BE6     		b	.L46
 1511              	.LVL167:
 1512              	.L112:
 391:D:/fchai/work/i-cube/I-CUBE-HUAWEI/Middlewares/Third_Party/Huawei/iot_link/shell\shell_main.c ****                     } else if (matches->len > 1) {
 1513              		.loc 1 391 25 is_stmt 1 view .LVU472
 1514 0356 0168     		ldr	r1, [r0]
 1515 0358 01A8     		add	r0, sp, #4
 1516              	.LVL168:
 391:D:/fchai/work/i-cube/I-CUBE-HUAWEI/Middlewares/Third_Party/Huawei/iot_link/shell\shell_main.c ****                     } else if (matches->len > 1) {
 1517              		.loc 1 391 25 is_stmt 0 view .LVU473
 1518 035a 1944     		add	r1, r1, r3
 1519 035c FFF7FEFF 		bl	shell_insert_string
 1520              	.LVL169:
 1521              	.LBE155:
 407:D:/fchai/work/i-cube/I-CUBE-HUAWEI/Middlewares/Third_Party/Huawei/iot_link/shell\shell_main.c ****                 vkmask = CN_VIRTUAL_KEY_NULL;
 1522              		.loc 1 407 20 view .LVU474
 1523 0360 4C46     		mov	r4, r9
 1524              	.LVL170:
 1525              	.LBB156:
 407:D:/fchai/work/i-cube/I-CUBE-HUAWEI/Middlewares/Third_Party/Huawei/iot_link/shell\shell_main.c ****                 vkmask = CN_VIRTUAL_KEY_NULL;
 1526              		.loc 1 407 20 view .LVU475
 1527 0362 64E6     		b	.L46
 1528              	.L120:
 1529              		.align	2
 1530              	.L119:
 1531 0364 2C000000 		.word	.LC3
 1532 0368 1C000000 		.word	.LC1
 1533              	.LBE156:
 1534              		.cfi_endproc
 1535              	.LFE14:
 1537              		.section	.rodata.shell_init.str1.4,"aMS",%progbits,1
 1538              		.align	2
 1539              	.LC4:
 1540 0000 7368656C 		.ascii	"shell_server\000"
 1540      6C5F7365 
 1540      72766572 
 1540      00
 1541              		.section	.text.shell_init,"ax",%progbits
 1542              		.align	1
 1543              		.p2align 2,,3
 1544              		.global	shell_init
 1545              		.syntax unified
 1546              		.thumb
 1547              		.thumb_func
 1548              		.fpu fpv4-sp-d16
 1550              	shell_init:
 1551              	.LFB15:
 472:D:/fchai/work/i-cube/I-CUBE-HUAWEI/Middlewares/Third_Party/Huawei/iot_link/shell\shell_main.c ****                 break;
 473:D:/fchai/work/i-cube/I-CUBE-HUAWEI/Middlewares/Third_Party/Huawei/iot_link/shell\shell_main.c ****         }
ARM GAS  T:\msys\tmp\ccldiPcz.s 			page 43


 474:D:/fchai/work/i-cube/I-CUBE-HUAWEI/Middlewares/Third_Party/Huawei/iot_link/shell\shell_main.c ****     }
 475:D:/fchai/work/i-cube/I-CUBE-HUAWEI/Middlewares/Third_Party/Huawei/iot_link/shell\shell_main.c **** 
 476:D:/fchai/work/i-cube/I-CUBE-HUAWEI/Middlewares/Third_Party/Huawei/iot_link/shell\shell_main.c ****     return -1;
 477:D:/fchai/work/i-cube/I-CUBE-HUAWEI/Middlewares/Third_Party/Huawei/iot_link/shell\shell_main.c **** }
 478:D:/fchai/work/i-cube/I-CUBE-HUAWEI/Middlewares/Third_Party/Huawei/iot_link/shell\shell_main.c **** 
 479:D:/fchai/work/i-cube/I-CUBE-HUAWEI/Middlewares/Third_Party/Huawei/iot_link/shell\shell_main.c **** /*******************************************************************************
 480:D:/fchai/work/i-cube/I-CUBE-HUAWEI/Middlewares/Third_Party/Huawei/iot_link/shell\shell_main.c **** function     :this is the  shell module initialize function
 481:D:/fchai/work/i-cube/I-CUBE-HUAWEI/Middlewares/Third_Party/Huawei/iot_link/shell\shell_main.c **** parameters   :
 482:D:/fchai/work/i-cube/I-CUBE-HUAWEI/Middlewares/Third_Party/Huawei/iot_link/shell\shell_main.c **** instruction  :if you want use shell,you should do two things
 483:D:/fchai/work/i-cube/I-CUBE-HUAWEI/Middlewares/Third_Party/Huawei/iot_link/shell\shell_main.c ****               1,make CFG_SHELL_ENABLE true in target_config.h
 484:D:/fchai/work/i-cube/I-CUBE-HUAWEI/Middlewares/Third_Party/Huawei/iot_link/shell\shell_main.c ****               2,call shell_init in your process:make sure after the system has
 485:D:/fchai/work/i-cube/I-CUBE-HUAWEI/Middlewares/Third_Party/Huawei/iot_link/shell\shell_main.c ****                 been initialized
 486:D:/fchai/work/i-cube/I-CUBE-HUAWEI/Middlewares/Third_Party/Huawei/iot_link/shell\shell_main.c **** *******************************************************************************/
 487:D:/fchai/work/i-cube/I-CUBE-HUAWEI/Middlewares/Third_Party/Huawei/iot_link/shell\shell_main.c **** void shell_init()
 488:D:/fchai/work/i-cube/I-CUBE-HUAWEI/Middlewares/Third_Party/Huawei/iot_link/shell\shell_main.c **** {
 1552              		.loc 1 488 1 is_stmt 1 view -0
 1553              		.cfi_startproc
 1554              		@ args = 0, pretend = 0, frame = 0
 1555              		@ frame_needed = 0, uses_anonymous_args = 0
 489:D:/fchai/work/i-cube/I-CUBE-HUAWEI/Middlewares/Third_Party/Huawei/iot_link/shell\shell_main.c ****     shell_cmd_init();
 1556              		.loc 1 489 5 view .LVU477
 488:D:/fchai/work/i-cube/I-CUBE-HUAWEI/Middlewares/Third_Party/Huawei/iot_link/shell\shell_main.c ****     shell_cmd_init();
 1557              		.loc 1 488 1 is_stmt 0 view .LVU478
 1558 0000 00B5     		push	{lr}
 1559              	.LCFI12:
 1560              		.cfi_def_cfa_offset 4
 1561              		.cfi_offset 14, -4
 1562 0002 83B0     		sub	sp, sp, #12
 1563              	.LCFI13:
 1564              		.cfi_def_cfa_offset 16
 1565              		.loc 1 489 5 view .LVU479
 1566 0004 FFF7FEFF 		bl	shell_cmd_init
 1567              	.LVL171:
 490:D:/fchai/work/i-cube/I-CUBE-HUAWEI/Middlewares/Third_Party/Huawei/iot_link/shell\shell_main.c **** 
 491:D:/fchai/work/i-cube/I-CUBE-HUAWEI/Middlewares/Third_Party/Huawei/iot_link/shell\shell_main.c ****     osal_task_create("shell_server",shell_server_entry,NULL,\
 1568              		.loc 1 491 5 is_stmt 1 view .LVU480
 1569 0008 0022     		movs	r2, #0
 1570 000a 0A23     		movs	r3, #10
 1571 000c CDE90023 		strd	r2, r3, [sp]
 1572 0010 0449     		ldr	r1, .L123
 1573 0012 0548     		ldr	r0, .L123+4
 1574 0014 4FF41063 		mov	r3, #2304
 1575 0018 FFF7FEFF 		bl	osal_task_create
 1576              	.LVL172:
 492:D:/fchai/work/i-cube/I-CUBE-HUAWEI/Middlewares/Third_Party/Huawei/iot_link/shell\shell_main.c ****                       CONFIG_SHELL_TASK_STACKSIZE+CN_CMD_CACHE*CN_CMDLEN_MAX,NULL,CONFIG_SHELL_TASK
 493:D:/fchai/work/i-cube/I-CUBE-HUAWEI/Middlewares/Third_Party/Huawei/iot_link/shell\shell_main.c **** }
 1577              		.loc 1 493 1 is_stmt 0 view .LVU481
 1578 001c 03B0     		add	sp, sp, #12
 1579              	.LCFI14:
 1580              		.cfi_def_cfa_offset 4
 1581              		@ sp needed
 1582 001e 5DF804FB 		ldr	pc, [sp], #4
 1583              	.L124:
 1584 0022 00BF     		.align	2
 1585              	.L123:
 1586 0024 00000000 		.word	shell_server_entry
 1587 0028 00000000 		.word	.LC4
ARM GAS  T:\msys\tmp\ccldiPcz.s 			page 44


 1588              		.cfi_endproc
 1589              	.LFE15:
 1591              		.text
 1592              	.Letext0:
 1593              		.file 2 "t:\\msys\\3rd\\gcc-arm-none-eabi-9-2020-q2-update-win32\\lib\\gcc\\arm-none-eabi\\9.3.1\\
 1594              		.file 3 "t:\\msys\\3rd\\gcc-arm-none-eabi-9-2020-q2-update-win32\\arm-none-eabi\\include\\sys\\_ty
 1595              		.file 4 "t:\\msys\\3rd\\gcc-arm-none-eabi-9-2020-q2-update-win32\\arm-none-eabi\\include\\sys\\ree
 1596              		.file 5 "t:\\msys\\3rd\\gcc-arm-none-eabi-9-2020-q2-update-win32\\arm-none-eabi\\include\\sys\\loc
 1597              		.file 6 "D:/fchai/work/i-cube/I-CUBE-HUAWEI/Middlewares/Third_Party/Huawei/iot_link/inc/shell.h"
 1598              		.file 7 "D:/fchai/work/i-cube/I-CUBE-HUAWEI/Middlewares/Third_Party/Huawei/iot_link/os/osal/osal.h
 1599              		.file 8 "t:\\msys\\3rd\\gcc-arm-none-eabi-9-2020-q2-update-win32\\arm-none-eabi\\include\\stdio.h"
 1600              		.file 9 "t:\\msys\\3rd\\gcc-arm-none-eabi-9-2020-q2-update-win32\\arm-none-eabi\\include\\string.h
 1601              		.file 10 "<built-in>"
ARM GAS  T:\msys\tmp\ccldiPcz.s 			page 45

