ARM GAS  T:\msys\tmp\ccsrUqql.s 			page 1


   1              		.cpu cortex-m4
   2              		.eabi_attribute 27, 1
   3              		.eabi_attribute 28, 1
   4              		.eabi_attribute 20, 1
   5              		.eabi_attribute 21, 1
   6              		.eabi_attribute 23, 3
   7              		.eabi_attribute 24, 1
   8              		.eabi_attribute 25, 1
   9              		.eabi_attribute 26, 1
  10              		.eabi_attribute 30, 2
  11              		.eabi_attribute 34, 1
  12              		.eabi_attribute 18, 4
  13              		.file	"MQTTClient.c"
  14              		.text
  15              	.Ltext0:
  16              		.cfi_sections	.debug_frame
  17              		.section	.text.sendPacket,"ax",%progbits
  18              		.align	1
  19              		.p2align 2,,3
  20              		.arch armv7e-m
  21              		.syntax unified
  22              		.thumb
  23              		.thumb_func
  24              		.fpu fpv4-sp-d16
  26              	sendPacket:
  27              	.LVL0:
  28              	.LFB6:
  29              		.file 1 "D:/fchai/work/i-cube/I-CUBE-HUAWEI/Middlewares/Third_Party/Huawei/iot_link/network/mqtt/p
   1:D:/fchai/work/i-cube/I-CUBE-HUAWEI/Middlewares/Third_Party/Huawei/iot_link/network/mqtt/paho_mqtt/paho/MQTTClient-C/src\MQTTClient.c **** /*******************************************************************************
   2:D:/fchai/work/i-cube/I-CUBE-HUAWEI/Middlewares/Third_Party/Huawei/iot_link/network/mqtt/paho_mqtt/paho/MQTTClient-C/src\MQTTClient.c ****  * Copyright (c) 2014, 2017 IBM Corp.
   3:D:/fchai/work/i-cube/I-CUBE-HUAWEI/Middlewares/Third_Party/Huawei/iot_link/network/mqtt/paho_mqtt/paho/MQTTClient-C/src\MQTTClient.c ****  *
   4:D:/fchai/work/i-cube/I-CUBE-HUAWEI/Middlewares/Third_Party/Huawei/iot_link/network/mqtt/paho_mqtt/paho/MQTTClient-C/src\MQTTClient.c ****  * All rights reserved. This program and the accompanying materials
   5:D:/fchai/work/i-cube/I-CUBE-HUAWEI/Middlewares/Third_Party/Huawei/iot_link/network/mqtt/paho_mqtt/paho/MQTTClient-C/src\MQTTClient.c ****  * are made available under the terms of the Eclipse Public License v1.0
   6:D:/fchai/work/i-cube/I-CUBE-HUAWEI/Middlewares/Third_Party/Huawei/iot_link/network/mqtt/paho_mqtt/paho/MQTTClient-C/src\MQTTClient.c ****  * and Eclipse Distribution License v1.0 which accompany this distribution.
   7:D:/fchai/work/i-cube/I-CUBE-HUAWEI/Middlewares/Third_Party/Huawei/iot_link/network/mqtt/paho_mqtt/paho/MQTTClient-C/src\MQTTClient.c ****  *
   8:D:/fchai/work/i-cube/I-CUBE-HUAWEI/Middlewares/Third_Party/Huawei/iot_link/network/mqtt/paho_mqtt/paho/MQTTClient-C/src\MQTTClient.c ****  * The Eclipse Public License is available at
   9:D:/fchai/work/i-cube/I-CUBE-HUAWEI/Middlewares/Third_Party/Huawei/iot_link/network/mqtt/paho_mqtt/paho/MQTTClient-C/src\MQTTClient.c ****  *    http://www.eclipse.org/legal/epl-v10.html
  10:D:/fchai/work/i-cube/I-CUBE-HUAWEI/Middlewares/Third_Party/Huawei/iot_link/network/mqtt/paho_mqtt/paho/MQTTClient-C/src\MQTTClient.c ****  * and the Eclipse Distribution License is available at
  11:D:/fchai/work/i-cube/I-CUBE-HUAWEI/Middlewares/Third_Party/Huawei/iot_link/network/mqtt/paho_mqtt/paho/MQTTClient-C/src\MQTTClient.c ****  *   http://www.eclipse.org/org/documents/edl-v10.php.
  12:D:/fchai/work/i-cube/I-CUBE-HUAWEI/Middlewares/Third_Party/Huawei/iot_link/network/mqtt/paho_mqtt/paho/MQTTClient-C/src\MQTTClient.c ****  *
  13:D:/fchai/work/i-cube/I-CUBE-HUAWEI/Middlewares/Third_Party/Huawei/iot_link/network/mqtt/paho_mqtt/paho/MQTTClient-C/src\MQTTClient.c ****  * Contributors:
  14:D:/fchai/work/i-cube/I-CUBE-HUAWEI/Middlewares/Third_Party/Huawei/iot_link/network/mqtt/paho_mqtt/paho/MQTTClient-C/src\MQTTClient.c ****  *   Allan Stockdill-Mander/Ian Craggs - initial API and implementation and/or initial documentatio
  15:D:/fchai/work/i-cube/I-CUBE-HUAWEI/Middlewares/Third_Party/Huawei/iot_link/network/mqtt/paho_mqtt/paho/MQTTClient-C/src\MQTTClient.c ****  *   Ian Craggs - fix for #96 - check rem_len in readPacket
  16:D:/fchai/work/i-cube/I-CUBE-HUAWEI/Middlewares/Third_Party/Huawei/iot_link/network/mqtt/paho_mqtt/paho/MQTTClient-C/src\MQTTClient.c ****  *   Ian Craggs - add ability to set message handler separately #6
  17:D:/fchai/work/i-cube/I-CUBE-HUAWEI/Middlewares/Third_Party/Huawei/iot_link/network/mqtt/paho_mqtt/paho/MQTTClient-C/src\MQTTClient.c ****  *******************************************************************************/
  18:D:/fchai/work/i-cube/I-CUBE-HUAWEI/Middlewares/Third_Party/Huawei/iot_link/network/mqtt/paho_mqtt/paho/MQTTClient-C/src\MQTTClient.c **** #include "MQTTClient.h"
  19:D:/fchai/work/i-cube/I-CUBE-HUAWEI/Middlewares/Third_Party/Huawei/iot_link/network/mqtt/paho_mqtt/paho/MQTTClient-C/src\MQTTClient.c **** 
  20:D:/fchai/work/i-cube/I-CUBE-HUAWEI/Middlewares/Third_Party/Huawei/iot_link/network/mqtt/paho_mqtt/paho/MQTTClient-C/src\MQTTClient.c **** static void NewMessageData(MessageData* md, MQTTString* aTopicName, MQTTMessage* aMessage) {
  21:D:/fchai/work/i-cube/I-CUBE-HUAWEI/Middlewares/Third_Party/Huawei/iot_link/network/mqtt/paho_mqtt/paho/MQTTClient-C/src\MQTTClient.c ****     md->topicName = aTopicName;
  22:D:/fchai/work/i-cube/I-CUBE-HUAWEI/Middlewares/Third_Party/Huawei/iot_link/network/mqtt/paho_mqtt/paho/MQTTClient-C/src\MQTTClient.c ****     md->message = aMessage;
  23:D:/fchai/work/i-cube/I-CUBE-HUAWEI/Middlewares/Third_Party/Huawei/iot_link/network/mqtt/paho_mqtt/paho/MQTTClient-C/src\MQTTClient.c **** }
  24:D:/fchai/work/i-cube/I-CUBE-HUAWEI/Middlewares/Third_Party/Huawei/iot_link/network/mqtt/paho_mqtt/paho/MQTTClient-C/src\MQTTClient.c **** 
  25:D:/fchai/work/i-cube/I-CUBE-HUAWEI/Middlewares/Third_Party/Huawei/iot_link/network/mqtt/paho_mqtt/paho/MQTTClient-C/src\MQTTClient.c **** 
  26:D:/fchai/work/i-cube/I-CUBE-HUAWEI/Middlewares/Third_Party/Huawei/iot_link/network/mqtt/paho_mqtt/paho/MQTTClient-C/src\MQTTClient.c **** static int getNextPacketId(MQTTClient *c) {
  27:D:/fchai/work/i-cube/I-CUBE-HUAWEI/Middlewares/Third_Party/Huawei/iot_link/network/mqtt/paho_mqtt/paho/MQTTClient-C/src\MQTTClient.c ****     return c->next_packetid = (c->next_packetid == MAX_PACKET_ID) ? 1 : c->next_packetid + 1;
  28:D:/fchai/work/i-cube/I-CUBE-HUAWEI/Middlewares/Third_Party/Huawei/iot_link/network/mqtt/paho_mqtt/paho/MQTTClient-C/src\MQTTClient.c **** }
  29:D:/fchai/work/i-cube/I-CUBE-HUAWEI/Middlewares/Third_Party/Huawei/iot_link/network/mqtt/paho_mqtt/paho/MQTTClient-C/src\MQTTClient.c **** 
ARM GAS  T:\msys\tmp\ccsrUqql.s 			page 2


  30:D:/fchai/work/i-cube/I-CUBE-HUAWEI/Middlewares/Third_Party/Huawei/iot_link/network/mqtt/paho_mqtt/paho/MQTTClient-C/src\MQTTClient.c **** 
  31:D:/fchai/work/i-cube/I-CUBE-HUAWEI/Middlewares/Third_Party/Huawei/iot_link/network/mqtt/paho_mqtt/paho/MQTTClient-C/src\MQTTClient.c **** static int sendPacket(MQTTClient* c, int length, Timer* timer)
  32:D:/fchai/work/i-cube/I-CUBE-HUAWEI/Middlewares/Third_Party/Huawei/iot_link/network/mqtt/paho_mqtt/paho/MQTTClient-C/src\MQTTClient.c **** {
  30              		.loc 1 32 1 view -0
  31              		.cfi_startproc
  32              		@ args = 0, pretend = 0, frame = 8
  33              		@ frame_needed = 0, uses_anonymous_args = 0
  33:D:/fchai/work/i-cube/I-CUBE-HUAWEI/Middlewares/Third_Party/Huawei/iot_link/network/mqtt/paho_mqtt/paho/MQTTClient-C/src\MQTTClient.c ****     int rc = FAILURE,
  34              		.loc 1 33 5 view .LVU1
  34:D:/fchai/work/i-cube/I-CUBE-HUAWEI/Middlewares/Third_Party/Huawei/iot_link/network/mqtt/paho_mqtt/paho/MQTTClient-C/src\MQTTClient.c ****         sent = 0;
  35:D:/fchai/work/i-cube/I-CUBE-HUAWEI/Middlewares/Third_Party/Huawei/iot_link/network/mqtt/paho_mqtt/paho/MQTTClient-C/src\MQTTClient.c **** 
  36:D:/fchai/work/i-cube/I-CUBE-HUAWEI/Middlewares/Third_Party/Huawei/iot_link/network/mqtt/paho_mqtt/paho/MQTTClient-C/src\MQTTClient.c ****     while (sent < length && !TimerIsExpired(timer))
  35              		.loc 1 36 5 view .LVU2
  36              		.loc 1 36 11 view .LVU3
  32:D:/fchai/work/i-cube/I-CUBE-HUAWEI/Middlewares/Third_Party/Huawei/iot_link/network/mqtt/paho_mqtt/paho/MQTTClient-C/src\MQTTClient.c ****     int rc = FAILURE,
  37              		.loc 1 32 1 is_stmt 0 view .LVU4
  38 0000 2DE9F043 		push	{r4, r5, r6, r7, r8, r9, lr}
  39              	.LCFI0:
  40              		.cfi_def_cfa_offset 28
  41              		.cfi_offset 4, -28
  42              		.cfi_offset 5, -24
  43              		.cfi_offset 6, -20
  44              		.cfi_offset 7, -16
  45              		.cfi_offset 8, -12
  46              		.cfi_offset 9, -8
  47              		.cfi_offset 14, -4
  48              		.loc 1 36 11 view .LVU5
  49 0004 0E1E     		subs	r6, r1, #0
  32:D:/fchai/work/i-cube/I-CUBE-HUAWEI/Middlewares/Third_Party/Huawei/iot_link/network/mqtt/paho_mqtt/paho/MQTTClient-C/src\MQTTClient.c ****     int rc = FAILURE,
  50              		.loc 1 32 1 view .LVU6
  51 0006 83B0     		sub	sp, sp, #12
  52              	.LCFI1:
  53              		.cfi_def_cfa_offset 40
  32:D:/fchai/work/i-cube/I-CUBE-HUAWEI/Middlewares/Third_Party/Huawei/iot_link/network/mqtt/paho_mqtt/paho/MQTTClient-C/src\MQTTClient.c ****     int rc = FAILURE,
  54              		.loc 1 32 1 view .LVU7
  55 0008 0546     		mov	r5, r0
  34:D:/fchai/work/i-cube/I-CUBE-HUAWEI/Middlewares/Third_Party/Huawei/iot_link/network/mqtt/paho_mqtt/paho/MQTTClient-C/src\MQTTClient.c ****         sent = 0;
  56              		.loc 1 34 9 view .LVU8
  57 000a D8BF     		it	le
  58 000c 0024     		movle	r4, #0
  59              		.loc 1 36 11 view .LVU9
  60 000e 21DD     		ble	.L3
  61 0010 1746     		mov	r7, r2
  34:D:/fchai/work/i-cube/I-CUBE-HUAWEI/Middlewares/Third_Party/Huawei/iot_link/network/mqtt/paho_mqtt/paho/MQTTClient-C/src\MQTTClient.c ****         sent = 0;
  62              		.loc 1 34 9 view .LVU10
  63 0012 0024     		movs	r4, #0
  64 0014 12E0     		b	.L2
  65              	.LVL1:
  66              	.L6:
  37:D:/fchai/work/i-cube/I-CUBE-HUAWEI/Middlewares/Third_Party/Huawei/iot_link/network/mqtt/paho_mqtt/paho/MQTTClient-C/src\MQTTClient.c ****     {
  38:D:/fchai/work/i-cube/I-CUBE-HUAWEI/Middlewares/Third_Party/Huawei/iot_link/network/mqtt/paho_mqtt/paho/MQTTClient-C/src\MQTTClient.c ****         rc = c->ipstack->mqttwrite(c->ipstack, &c->buf[sent], length, TimerLeftMS(timer));
  67              		.loc 1 38 14 view .LVU11
  68 0016 2969     		ldr	r1, [r5, #16]
  69              		.loc 1 38 15 view .LVU12
  70 0018 D5F8A480 		ldr	r8, [r5, #164]
  71              		.loc 1 38 14 view .LVU13
  72 001c 2144     		add	r1, r1, r4
ARM GAS  T:\msys\tmp\ccsrUqql.s 			page 3


  73              		.loc 1 38 24 view .LVU14
  74 001e D8F83090 		ldr	r9, [r8, #48]
  75              		.loc 1 38 14 view .LVU15
  76 0022 0191     		str	r1, [sp, #4]
  77 0024 FFF7FEFF 		bl	osal_loop_timer_left
  78              	.LVL2:
  79              		.loc 1 38 14 view .LVU16
  80 0028 0199     		ldr	r1, [sp, #4]
  81 002a 0346     		mov	r3, r0
  82 002c 3246     		mov	r2, r6
  83 002e 4046     		mov	r0, r8
  84 0030 C847     		blx	r9
  85              	.LVL3:
  39:D:/fchai/work/i-cube/I-CUBE-HUAWEI/Middlewares/Third_Party/Huawei/iot_link/network/mqtt/paho_mqtt/paho/MQTTClient-C/src\MQTTClient.c ****         if (rc < 0)  // there was an error writing the data
  40:D:/fchai/work/i-cube/I-CUBE-HUAWEI/Middlewares/Third_Party/Huawei/iot_link/network/mqtt/paho_mqtt/paho/MQTTClient-C/src\MQTTClient.c ****             break;
  41:D:/fchai/work/i-cube/I-CUBE-HUAWEI/Middlewares/Third_Party/Huawei/iot_link/network/mqtt/paho_mqtt/paho/MQTTClient-C/src\MQTTClient.c ****         sent += rc;
  86              		.loc 1 41 9 is_stmt 1 view .LVU17
  39:D:/fchai/work/i-cube/I-CUBE-HUAWEI/Middlewares/Third_Party/Huawei/iot_link/network/mqtt/paho_mqtt/paho/MQTTClient-C/src\MQTTClient.c ****         if (rc < 0)  // there was an error writing the data
  87              		.loc 1 39 9 view .LVU18
  39:D:/fchai/work/i-cube/I-CUBE-HUAWEI/Middlewares/Third_Party/Huawei/iot_link/network/mqtt/paho_mqtt/paho/MQTTClient-C/src\MQTTClient.c ****         if (rc < 0)  // there was an error writing the data
  88              		.loc 1 39 12 is_stmt 0 view .LVU19
  89 0032 031E     		subs	r3, r0, #0
  90              		.loc 1 41 14 view .LVU20
  91 0034 1C44     		add	r4, r4, r3
  92              	.LVL4:
  36:D:/fchai/work/i-cube/I-CUBE-HUAWEI/Middlewares/Third_Party/Huawei/iot_link/network/mqtt/paho_mqtt/paho/MQTTClient-C/src\MQTTClient.c ****     {
  93              		.loc 1 36 11 is_stmt 1 view .LVU21
  39:D:/fchai/work/i-cube/I-CUBE-HUAWEI/Middlewares/Third_Party/Huawei/iot_link/network/mqtt/paho_mqtt/paho/MQTTClient-C/src\MQTTClient.c ****         if (rc < 0)  // there was an error writing the data
  94              		.loc 1 39 12 is_stmt 0 view .LVU22
  95 0036 08DB     		blt	.L7
  36:D:/fchai/work/i-cube/I-CUBE-HUAWEI/Middlewares/Third_Party/Huawei/iot_link/network/mqtt/paho_mqtt/paho/MQTTClient-C/src\MQTTClient.c ****     {
  96              		.loc 1 36 11 view .LVU23
  97 0038 A642     		cmp	r6, r4
  98 003a 0BDD     		ble	.L3
  99              	.LVL5:
 100              	.L2:
  36:D:/fchai/work/i-cube/I-CUBE-HUAWEI/Middlewares/Third_Party/Huawei/iot_link/network/mqtt/paho_mqtt/paho/MQTTClient-C/src\MQTTClient.c ****     {
 101              		.loc 1 36 30 discriminator 1 view .LVU24
 102 003c 3846     		mov	r0, r7
 103 003e FFF7FEFF 		bl	osal_loop_timer_expired
 104              	.LVL6:
  38:D:/fchai/work/i-cube/I-CUBE-HUAWEI/Middlewares/Third_Party/Huawei/iot_link/network/mqtt/paho_mqtt/paho/MQTTClient-C/src\MQTTClient.c ****         if (rc < 0)  // there was an error writing the data
 105              		.loc 1 38 9 is_stmt 1 discriminator 1 view .LVU25
  36:D:/fchai/work/i-cube/I-CUBE-HUAWEI/Middlewares/Third_Party/Huawei/iot_link/network/mqtt/paho_mqtt/paho/MQTTClient-C/src\MQTTClient.c ****     {
 106              		.loc 1 36 30 is_stmt 0 discriminator 1 view .LVU26
 107 0042 0346     		mov	r3, r0
  38:D:/fchai/work/i-cube/I-CUBE-HUAWEI/Middlewares/Third_Party/Huawei/iot_link/network/mqtt/paho_mqtt/paho/MQTTClient-C/src\MQTTClient.c ****         if (rc < 0)  // there was an error writing the data
 108              		.loc 1 38 14 discriminator 1 view .LVU27
 109 0044 3846     		mov	r0, r7
  36:D:/fchai/work/i-cube/I-CUBE-HUAWEI/Middlewares/Third_Party/Huawei/iot_link/network/mqtt/paho_mqtt/paho/MQTTClient-C/src\MQTTClient.c ****     {
 110              		.loc 1 36 26 discriminator 1 view .LVU28
 111 0046 002B     		cmp	r3, #0
 112 0048 E5D0     		beq	.L6
 113              	.LVL7:
 114              	.L7:
  42:D:/fchai/work/i-cube/I-CUBE-HUAWEI/Middlewares/Third_Party/Huawei/iot_link/network/mqtt/paho_mqtt/paho/MQTTClient-C/src\MQTTClient.c ****     }
  43:D:/fchai/work/i-cube/I-CUBE-HUAWEI/Middlewares/Third_Party/Huawei/iot_link/network/mqtt/paho_mqtt/paho/MQTTClient-C/src\MQTTClient.c ****     if (sent == length)
ARM GAS  T:\msys\tmp\ccsrUqql.s 			page 4


  44:D:/fchai/work/i-cube/I-CUBE-HUAWEI/Middlewares/Third_Party/Huawei/iot_link/network/mqtt/paho_mqtt/paho/MQTTClient-C/src\MQTTClient.c ****     {
  45:D:/fchai/work/i-cube/I-CUBE-HUAWEI/Middlewares/Third_Party/Huawei/iot_link/network/mqtt/paho_mqtt/paho/MQTTClient-C/src\MQTTClient.c ****         TimerCountdown(&c->last_sent, c->keepAliveInterval); // record the fact that we have succes
  46:D:/fchai/work/i-cube/I-CUBE-HUAWEI/Middlewares/Third_Party/Huawei/iot_link/network/mqtt/paho_mqtt/paho/MQTTClient-C/src\MQTTClient.c ****         rc = MQTT_SUCCESS;
  47:D:/fchai/work/i-cube/I-CUBE-HUAWEI/Middlewares/Third_Party/Huawei/iot_link/network/mqtt/paho_mqtt/paho/MQTTClient-C/src\MQTTClient.c ****     }
  48:D:/fchai/work/i-cube/I-CUBE-HUAWEI/Middlewares/Third_Party/Huawei/iot_link/network/mqtt/paho_mqtt/paho/MQTTClient-C/src\MQTTClient.c ****     else
  49:D:/fchai/work/i-cube/I-CUBE-HUAWEI/Middlewares/Third_Party/Huawei/iot_link/network/mqtt/paho_mqtt/paho/MQTTClient-C/src\MQTTClient.c ****         rc = FAILURE;
 115              		.loc 1 49 12 view .LVU29
 116 004a 4FF0FF30 		mov	r0, #-1
  50:D:/fchai/work/i-cube/I-CUBE-HUAWEI/Middlewares/Third_Party/Huawei/iot_link/network/mqtt/paho_mqtt/paho/MQTTClient-C/src\MQTTClient.c ****     return rc;
  51:D:/fchai/work/i-cube/I-CUBE-HUAWEI/Middlewares/Third_Party/Huawei/iot_link/network/mqtt/paho_mqtt/paho/MQTTClient-C/src\MQTTClient.c **** }
 117              		.loc 1 51 1 view .LVU30
 118 004e 03B0     		add	sp, sp, #12
 119              	.LCFI2:
 120              		.cfi_remember_state
 121              		.cfi_def_cfa_offset 28
 122              		@ sp needed
 123 0050 BDE8F083 		pop	{r4, r5, r6, r7, r8, r9, pc}
 124              	.LVL8:
 125              	.L3:
 126              	.LCFI3:
 127              		.cfi_restore_state
  43:D:/fchai/work/i-cube/I-CUBE-HUAWEI/Middlewares/Third_Party/Huawei/iot_link/network/mqtt/paho_mqtt/paho/MQTTClient-C/src\MQTTClient.c ****     {
 128              		.loc 1 43 5 is_stmt 1 view .LVU31
  43:D:/fchai/work/i-cube/I-CUBE-HUAWEI/Middlewares/Third_Party/Huawei/iot_link/network/mqtt/paho_mqtt/paho/MQTTClient-C/src\MQTTClient.c ****     {
 129              		.loc 1 43 8 is_stmt 0 view .LVU32
 130 0054 A642     		cmp	r6, r4
 131 0056 F8D1     		bne	.L7
  45:D:/fchai/work/i-cube/I-CUBE-HUAWEI/Middlewares/Third_Party/Huawei/iot_link/network/mqtt/paho_mqtt/paho/MQTTClient-C/src\MQTTClient.c ****         rc = MQTT_SUCCESS;
 132              		.loc 1 45 9 is_stmt 1 view .LVU33
 133 0058 05F1A800 		add	r0, r5, #168
 134 005c A969     		ldr	r1, [r5, #24]
 135 005e FFF7FEFF 		bl	osal_loop_timer_count_down
 136              	.LVL9:
  46:D:/fchai/work/i-cube/I-CUBE-HUAWEI/Middlewares/Third_Party/Huawei/iot_link/network/mqtt/paho_mqtt/paho/MQTTClient-C/src\MQTTClient.c ****     }
 137              		.loc 1 46 9 view .LVU34
  46:D:/fchai/work/i-cube/I-CUBE-HUAWEI/Middlewares/Third_Party/Huawei/iot_link/network/mqtt/paho_mqtt/paho/MQTTClient-C/src\MQTTClient.c ****     }
 138              		.loc 1 46 12 is_stmt 0 view .LVU35
 139 0062 0020     		movs	r0, #0
  50:D:/fchai/work/i-cube/I-CUBE-HUAWEI/Middlewares/Third_Party/Huawei/iot_link/network/mqtt/paho_mqtt/paho/MQTTClient-C/src\MQTTClient.c **** }
 140              		.loc 1 50 5 is_stmt 1 view .LVU36
 141              		.loc 1 51 1 is_stmt 0 view .LVU37
 142 0064 03B0     		add	sp, sp, #12
 143              	.LCFI4:
 144              		.cfi_def_cfa_offset 28
 145              		@ sp needed
 146 0066 BDE8F083 		pop	{r4, r5, r6, r7, r8, r9, pc}
 147              		.loc 1 51 1 view .LVU38
 148              		.cfi_endproc
 149              	.LFE6:
 151 006a 00BF     		.section	.text.MQTTCloseSession.part.0,"ax",%progbits
 152              		.align	1
 153              		.p2align 2,,3
 154              		.syntax unified
 155              		.thumb
 156              		.thumb_func
 157              		.fpu fpv4-sp-d16
 159              	MQTTCloseSession.part.0:
ARM GAS  T:\msys\tmp\ccsrUqql.s 			page 5


 160              	.LVL10:
 161              	.LFB35:
  52:D:/fchai/work/i-cube/I-CUBE-HUAWEI/Middlewares/Third_Party/Huawei/iot_link/network/mqtt/paho_mqtt/paho/MQTTClient-C/src\MQTTClient.c **** 
  53:D:/fchai/work/i-cube/I-CUBE-HUAWEI/Middlewares/Third_Party/Huawei/iot_link/network/mqtt/paho_mqtt/paho/MQTTClient-C/src\MQTTClient.c **** 
  54:D:/fchai/work/i-cube/I-CUBE-HUAWEI/Middlewares/Third_Party/Huawei/iot_link/network/mqtt/paho_mqtt/paho/MQTTClient-C/src\MQTTClient.c **** int MQTTClientInit(MQTTClient* c, Network* network, unsigned int command_timeout_ms,
  55:D:/fchai/work/i-cube/I-CUBE-HUAWEI/Middlewares/Third_Party/Huawei/iot_link/network/mqtt/paho_mqtt/paho/MQTTClient-C/src\MQTTClient.c ****                     unsigned char *sendbuf, size_t sendbuf_size, unsigned char *readbuf, size_t rea
  56:D:/fchai/work/i-cube/I-CUBE-HUAWEI/Middlewares/Third_Party/Huawei/iot_link/network/mqtt/paho_mqtt/paho/MQTTClient-C/src\MQTTClient.c **** {
  57:D:/fchai/work/i-cube/I-CUBE-HUAWEI/Middlewares/Third_Party/Huawei/iot_link/network/mqtt/paho_mqtt/paho/MQTTClient-C/src\MQTTClient.c ****     int i;
  58:D:/fchai/work/i-cube/I-CUBE-HUAWEI/Middlewares/Third_Party/Huawei/iot_link/network/mqtt/paho_mqtt/paho/MQTTClient-C/src\MQTTClient.c ****     c->ipstack = network;
  59:D:/fchai/work/i-cube/I-CUBE-HUAWEI/Middlewares/Third_Party/Huawei/iot_link/network/mqtt/paho_mqtt/paho/MQTTClient-C/src\MQTTClient.c **** 
  60:D:/fchai/work/i-cube/I-CUBE-HUAWEI/Middlewares/Third_Party/Huawei/iot_link/network/mqtt/paho_mqtt/paho/MQTTClient-C/src\MQTTClient.c ****     for (i = 0; i < MAX_MESSAGE_HANDLERS; ++i)
  61:D:/fchai/work/i-cube/I-CUBE-HUAWEI/Middlewares/Third_Party/Huawei/iot_link/network/mqtt/paho_mqtt/paho/MQTTClient-C/src\MQTTClient.c ****         c->messageHandlers[i].topicFilter = 0;
  62:D:/fchai/work/i-cube/I-CUBE-HUAWEI/Middlewares/Third_Party/Huawei/iot_link/network/mqtt/paho_mqtt/paho/MQTTClient-C/src\MQTTClient.c ****     c->command_timeout_ms = command_timeout_ms;
  63:D:/fchai/work/i-cube/I-CUBE-HUAWEI/Middlewares/Third_Party/Huawei/iot_link/network/mqtt/paho_mqtt/paho/MQTTClient-C/src\MQTTClient.c ****     c->buf = sendbuf;
  64:D:/fchai/work/i-cube/I-CUBE-HUAWEI/Middlewares/Third_Party/Huawei/iot_link/network/mqtt/paho_mqtt/paho/MQTTClient-C/src\MQTTClient.c ****     c->buf_size = sendbuf_size;
  65:D:/fchai/work/i-cube/I-CUBE-HUAWEI/Middlewares/Third_Party/Huawei/iot_link/network/mqtt/paho_mqtt/paho/MQTTClient-C/src\MQTTClient.c ****     c->readbuf = readbuf;
  66:D:/fchai/work/i-cube/I-CUBE-HUAWEI/Middlewares/Third_Party/Huawei/iot_link/network/mqtt/paho_mqtt/paho/MQTTClient-C/src\MQTTClient.c ****     c->readbuf_size = readbuf_size;
  67:D:/fchai/work/i-cube/I-CUBE-HUAWEI/Middlewares/Third_Party/Huawei/iot_link/network/mqtt/paho_mqtt/paho/MQTTClient-C/src\MQTTClient.c ****     c->isconnected = 0;
  68:D:/fchai/work/i-cube/I-CUBE-HUAWEI/Middlewares/Third_Party/Huawei/iot_link/network/mqtt/paho_mqtt/paho/MQTTClient-C/src\MQTTClient.c ****     c->cleansession = 0;
  69:D:/fchai/work/i-cube/I-CUBE-HUAWEI/Middlewares/Third_Party/Huawei/iot_link/network/mqtt/paho_mqtt/paho/MQTTClient-C/src\MQTTClient.c ****     c->ping_outstanding = 0;
  70:D:/fchai/work/i-cube/I-CUBE-HUAWEI/Middlewares/Third_Party/Huawei/iot_link/network/mqtt/paho_mqtt/paho/MQTTClient-C/src\MQTTClient.c ****     c->defaultMessageHandler = NULL;
  71:D:/fchai/work/i-cube/I-CUBE-HUAWEI/Middlewares/Third_Party/Huawei/iot_link/network/mqtt/paho_mqtt/paho/MQTTClient-C/src\MQTTClient.c **** 	c->next_packetid = 1;
  72:D:/fchai/work/i-cube/I-CUBE-HUAWEI/Middlewares/Third_Party/Huawei/iot_link/network/mqtt/paho_mqtt/paho/MQTTClient-C/src\MQTTClient.c ****     TimerInit(&c->last_sent);
  73:D:/fchai/work/i-cube/I-CUBE-HUAWEI/Middlewares/Third_Party/Huawei/iot_link/network/mqtt/paho_mqtt/paho/MQTTClient-C/src\MQTTClient.c ****     TimerInit(&c->last_received);
  74:D:/fchai/work/i-cube/I-CUBE-HUAWEI/Middlewares/Third_Party/Huawei/iot_link/network/mqtt/paho_mqtt/paho/MQTTClient-C/src\MQTTClient.c **** #if defined(MQTT_TASK)
  75:D:/fchai/work/i-cube/I-CUBE-HUAWEI/Middlewares/Third_Party/Huawei/iot_link/network/mqtt/paho_mqtt/paho/MQTTClient-C/src\MQTTClient.c ****     if (MutexInit(&c->mutex) != 0)
  76:D:/fchai/work/i-cube/I-CUBE-HUAWEI/Middlewares/Third_Party/Huawei/iot_link/network/mqtt/paho_mqtt/paho/MQTTClient-C/src\MQTTClient.c ****     {
  77:D:/fchai/work/i-cube/I-CUBE-HUAWEI/Middlewares/Third_Party/Huawei/iot_link/network/mqtt/paho_mqtt/paho/MQTTClient-C/src\MQTTClient.c ****         return FAILURE;
  78:D:/fchai/work/i-cube/I-CUBE-HUAWEI/Middlewares/Third_Party/Huawei/iot_link/network/mqtt/paho_mqtt/paho/MQTTClient-C/src\MQTTClient.c ****     }
  79:D:/fchai/work/i-cube/I-CUBE-HUAWEI/Middlewares/Third_Party/Huawei/iot_link/network/mqtt/paho_mqtt/paho/MQTTClient-C/src\MQTTClient.c **** #endif
  80:D:/fchai/work/i-cube/I-CUBE-HUAWEI/Middlewares/Third_Party/Huawei/iot_link/network/mqtt/paho_mqtt/paho/MQTTClient-C/src\MQTTClient.c ****     return MQTT_SUCCESS;
  81:D:/fchai/work/i-cube/I-CUBE-HUAWEI/Middlewares/Third_Party/Huawei/iot_link/network/mqtt/paho_mqtt/paho/MQTTClient-C/src\MQTTClient.c **** }
  82:D:/fchai/work/i-cube/I-CUBE-HUAWEI/Middlewares/Third_Party/Huawei/iot_link/network/mqtt/paho_mqtt/paho/MQTTClient-C/src\MQTTClient.c **** 
  83:D:/fchai/work/i-cube/I-CUBE-HUAWEI/Middlewares/Third_Party/Huawei/iot_link/network/mqtt/paho_mqtt/paho/MQTTClient-C/src\MQTTClient.c **** void MQTTClientDeInit(MQTTClient *c)
  84:D:/fchai/work/i-cube/I-CUBE-HUAWEI/Middlewares/Third_Party/Huawei/iot_link/network/mqtt/paho_mqtt/paho/MQTTClient-C/src\MQTTClient.c **** {
  85:D:/fchai/work/i-cube/I-CUBE-HUAWEI/Middlewares/Third_Party/Huawei/iot_link/network/mqtt/paho_mqtt/paho/MQTTClient-C/src\MQTTClient.c ****     if(!c)
  86:D:/fchai/work/i-cube/I-CUBE-HUAWEI/Middlewares/Third_Party/Huawei/iot_link/network/mqtt/paho_mqtt/paho/MQTTClient-C/src\MQTTClient.c ****         return;
  87:D:/fchai/work/i-cube/I-CUBE-HUAWEI/Middlewares/Third_Party/Huawei/iot_link/network/mqtt/paho_mqtt/paho/MQTTClient-C/src\MQTTClient.c **** #if defined(MQTT_TASK)
  88:D:/fchai/work/i-cube/I-CUBE-HUAWEI/Middlewares/Third_Party/Huawei/iot_link/network/mqtt/paho_mqtt/paho/MQTTClient-C/src\MQTTClient.c ****     MutexDestory(&c->mutex);
  89:D:/fchai/work/i-cube/I-CUBE-HUAWEI/Middlewares/Third_Party/Huawei/iot_link/network/mqtt/paho_mqtt/paho/MQTTClient-C/src\MQTTClient.c **** #endif
  90:D:/fchai/work/i-cube/I-CUBE-HUAWEI/Middlewares/Third_Party/Huawei/iot_link/network/mqtt/paho_mqtt/paho/MQTTClient-C/src\MQTTClient.c ****     return;
  91:D:/fchai/work/i-cube/I-CUBE-HUAWEI/Middlewares/Third_Party/Huawei/iot_link/network/mqtt/paho_mqtt/paho/MQTTClient-C/src\MQTTClient.c **** }
  92:D:/fchai/work/i-cube/I-CUBE-HUAWEI/Middlewares/Third_Party/Huawei/iot_link/network/mqtt/paho_mqtt/paho/MQTTClient-C/src\MQTTClient.c **** 
  93:D:/fchai/work/i-cube/I-CUBE-HUAWEI/Middlewares/Third_Party/Huawei/iot_link/network/mqtt/paho_mqtt/paho/MQTTClient-C/src\MQTTClient.c **** static int decodePacket(MQTTClient* c, int* value, int timeout)
  94:D:/fchai/work/i-cube/I-CUBE-HUAWEI/Middlewares/Third_Party/Huawei/iot_link/network/mqtt/paho_mqtt/paho/MQTTClient-C/src\MQTTClient.c **** {
  95:D:/fchai/work/i-cube/I-CUBE-HUAWEI/Middlewares/Third_Party/Huawei/iot_link/network/mqtt/paho_mqtt/paho/MQTTClient-C/src\MQTTClient.c ****     unsigned char i;
  96:D:/fchai/work/i-cube/I-CUBE-HUAWEI/Middlewares/Third_Party/Huawei/iot_link/network/mqtt/paho_mqtt/paho/MQTTClient-C/src\MQTTClient.c ****     int multiplier = 1;
  97:D:/fchai/work/i-cube/I-CUBE-HUAWEI/Middlewares/Third_Party/Huawei/iot_link/network/mqtt/paho_mqtt/paho/MQTTClient-C/src\MQTTClient.c ****     int len = 0;
  98:D:/fchai/work/i-cube/I-CUBE-HUAWEI/Middlewares/Third_Party/Huawei/iot_link/network/mqtt/paho_mqtt/paho/MQTTClient-C/src\MQTTClient.c ****     const int MAX_NO_OF_REMAINING_LENGTH_BYTES = 4;
  99:D:/fchai/work/i-cube/I-CUBE-HUAWEI/Middlewares/Third_Party/Huawei/iot_link/network/mqtt/paho_mqtt/paho/MQTTClient-C/src\MQTTClient.c **** 
 100:D:/fchai/work/i-cube/I-CUBE-HUAWEI/Middlewares/Third_Party/Huawei/iot_link/network/mqtt/paho_mqtt/paho/MQTTClient-C/src\MQTTClient.c ****     *value = 0;
 101:D:/fchai/work/i-cube/I-CUBE-HUAWEI/Middlewares/Third_Party/Huawei/iot_link/network/mqtt/paho_mqtt/paho/MQTTClient-C/src\MQTTClient.c ****     do
 102:D:/fchai/work/i-cube/I-CUBE-HUAWEI/Middlewares/Third_Party/Huawei/iot_link/network/mqtt/paho_mqtt/paho/MQTTClient-C/src\MQTTClient.c ****     {
 103:D:/fchai/work/i-cube/I-CUBE-HUAWEI/Middlewares/Third_Party/Huawei/iot_link/network/mqtt/paho_mqtt/paho/MQTTClient-C/src\MQTTClient.c ****         int rc = MQTTPACKET_READ_ERROR;
 104:D:/fchai/work/i-cube/I-CUBE-HUAWEI/Middlewares/Third_Party/Huawei/iot_link/network/mqtt/paho_mqtt/paho/MQTTClient-C/src\MQTTClient.c **** 
 105:D:/fchai/work/i-cube/I-CUBE-HUAWEI/Middlewares/Third_Party/Huawei/iot_link/network/mqtt/paho_mqtt/paho/MQTTClient-C/src\MQTTClient.c ****         if (++len > MAX_NO_OF_REMAINING_LENGTH_BYTES)
 106:D:/fchai/work/i-cube/I-CUBE-HUAWEI/Middlewares/Third_Party/Huawei/iot_link/network/mqtt/paho_mqtt/paho/MQTTClient-C/src\MQTTClient.c ****         {
ARM GAS  T:\msys\tmp\ccsrUqql.s 			page 6


 107:D:/fchai/work/i-cube/I-CUBE-HUAWEI/Middlewares/Third_Party/Huawei/iot_link/network/mqtt/paho_mqtt/paho/MQTTClient-C/src\MQTTClient.c ****             rc = MQTTPACKET_READ_ERROR; /* bad data */
 108:D:/fchai/work/i-cube/I-CUBE-HUAWEI/Middlewares/Third_Party/Huawei/iot_link/network/mqtt/paho_mqtt/paho/MQTTClient-C/src\MQTTClient.c ****             goto exit;
 109:D:/fchai/work/i-cube/I-CUBE-HUAWEI/Middlewares/Third_Party/Huawei/iot_link/network/mqtt/paho_mqtt/paho/MQTTClient-C/src\MQTTClient.c ****         }
 110:D:/fchai/work/i-cube/I-CUBE-HUAWEI/Middlewares/Third_Party/Huawei/iot_link/network/mqtt/paho_mqtt/paho/MQTTClient-C/src\MQTTClient.c ****         rc = c->ipstack->mqttread(c->ipstack, &i, 1, timeout);
 111:D:/fchai/work/i-cube/I-CUBE-HUAWEI/Middlewares/Third_Party/Huawei/iot_link/network/mqtt/paho_mqtt/paho/MQTTClient-C/src\MQTTClient.c ****         if (rc != 1)
 112:D:/fchai/work/i-cube/I-CUBE-HUAWEI/Middlewares/Third_Party/Huawei/iot_link/network/mqtt/paho_mqtt/paho/MQTTClient-C/src\MQTTClient.c ****             goto exit;
 113:D:/fchai/work/i-cube/I-CUBE-HUAWEI/Middlewares/Third_Party/Huawei/iot_link/network/mqtt/paho_mqtt/paho/MQTTClient-C/src\MQTTClient.c ****         *value += (i & 127) * multiplier;
 114:D:/fchai/work/i-cube/I-CUBE-HUAWEI/Middlewares/Third_Party/Huawei/iot_link/network/mqtt/paho_mqtt/paho/MQTTClient-C/src\MQTTClient.c ****         multiplier *= 128;
 115:D:/fchai/work/i-cube/I-CUBE-HUAWEI/Middlewares/Third_Party/Huawei/iot_link/network/mqtt/paho_mqtt/paho/MQTTClient-C/src\MQTTClient.c ****     } while ((i & 128) != 0);
 116:D:/fchai/work/i-cube/I-CUBE-HUAWEI/Middlewares/Third_Party/Huawei/iot_link/network/mqtt/paho_mqtt/paho/MQTTClient-C/src\MQTTClient.c **** exit:
 117:D:/fchai/work/i-cube/I-CUBE-HUAWEI/Middlewares/Third_Party/Huawei/iot_link/network/mqtt/paho_mqtt/paho/MQTTClient-C/src\MQTTClient.c ****     return len;
 118:D:/fchai/work/i-cube/I-CUBE-HUAWEI/Middlewares/Third_Party/Huawei/iot_link/network/mqtt/paho_mqtt/paho/MQTTClient-C/src\MQTTClient.c **** }
 119:D:/fchai/work/i-cube/I-CUBE-HUAWEI/Middlewares/Third_Party/Huawei/iot_link/network/mqtt/paho_mqtt/paho/MQTTClient-C/src\MQTTClient.c **** 
 120:D:/fchai/work/i-cube/I-CUBE-HUAWEI/Middlewares/Third_Party/Huawei/iot_link/network/mqtt/paho_mqtt/paho/MQTTClient-C/src\MQTTClient.c **** 
 121:D:/fchai/work/i-cube/I-CUBE-HUAWEI/Middlewares/Third_Party/Huawei/iot_link/network/mqtt/paho_mqtt/paho/MQTTClient-C/src\MQTTClient.c **** static int readPacket(MQTTClient* c, Timer* timer)
 122:D:/fchai/work/i-cube/I-CUBE-HUAWEI/Middlewares/Third_Party/Huawei/iot_link/network/mqtt/paho_mqtt/paho/MQTTClient-C/src\MQTTClient.c **** {
 123:D:/fchai/work/i-cube/I-CUBE-HUAWEI/Middlewares/Third_Party/Huawei/iot_link/network/mqtt/paho_mqtt/paho/MQTTClient-C/src\MQTTClient.c ****     MQTTHeader header = {0};
 124:D:/fchai/work/i-cube/I-CUBE-HUAWEI/Middlewares/Third_Party/Huawei/iot_link/network/mqtt/paho_mqtt/paho/MQTTClient-C/src\MQTTClient.c ****     int len = 0;
 125:D:/fchai/work/i-cube/I-CUBE-HUAWEI/Middlewares/Third_Party/Huawei/iot_link/network/mqtt/paho_mqtt/paho/MQTTClient-C/src\MQTTClient.c ****     int rem_len = 0;
 126:D:/fchai/work/i-cube/I-CUBE-HUAWEI/Middlewares/Third_Party/Huawei/iot_link/network/mqtt/paho_mqtt/paho/MQTTClient-C/src\MQTTClient.c **** 
 127:D:/fchai/work/i-cube/I-CUBE-HUAWEI/Middlewares/Third_Party/Huawei/iot_link/network/mqtt/paho_mqtt/paho/MQTTClient-C/src\MQTTClient.c ****     /* 1. read the header byte.  This has the packet type in it */
 128:D:/fchai/work/i-cube/I-CUBE-HUAWEI/Middlewares/Third_Party/Huawei/iot_link/network/mqtt/paho_mqtt/paho/MQTTClient-C/src\MQTTClient.c ****     int rc = c->ipstack->mqttread(c->ipstack, c->readbuf, 1, TimerLeftMS(timer));
 129:D:/fchai/work/i-cube/I-CUBE-HUAWEI/Middlewares/Third_Party/Huawei/iot_link/network/mqtt/paho_mqtt/paho/MQTTClient-C/src\MQTTClient.c ****     if (rc != 1)
 130:D:/fchai/work/i-cube/I-CUBE-HUAWEI/Middlewares/Third_Party/Huawei/iot_link/network/mqtt/paho_mqtt/paho/MQTTClient-C/src\MQTTClient.c ****         goto exit;
 131:D:/fchai/work/i-cube/I-CUBE-HUAWEI/Middlewares/Third_Party/Huawei/iot_link/network/mqtt/paho_mqtt/paho/MQTTClient-C/src\MQTTClient.c **** 
 132:D:/fchai/work/i-cube/I-CUBE-HUAWEI/Middlewares/Third_Party/Huawei/iot_link/network/mqtt/paho_mqtt/paho/MQTTClient-C/src\MQTTClient.c ****     len = 1;
 133:D:/fchai/work/i-cube/I-CUBE-HUAWEI/Middlewares/Third_Party/Huawei/iot_link/network/mqtt/paho_mqtt/paho/MQTTClient-C/src\MQTTClient.c ****     /* 2. read the remaining length.  This is variable in itself */
 134:D:/fchai/work/i-cube/I-CUBE-HUAWEI/Middlewares/Third_Party/Huawei/iot_link/network/mqtt/paho_mqtt/paho/MQTTClient-C/src\MQTTClient.c ****     decodePacket(c, &rem_len, TimerLeftMS(timer));
 135:D:/fchai/work/i-cube/I-CUBE-HUAWEI/Middlewares/Third_Party/Huawei/iot_link/network/mqtt/paho_mqtt/paho/MQTTClient-C/src\MQTTClient.c ****     len += MQTTPacket_encode(c->readbuf + 1, rem_len); /* put the original remaining length back in
 136:D:/fchai/work/i-cube/I-CUBE-HUAWEI/Middlewares/Third_Party/Huawei/iot_link/network/mqtt/paho_mqtt/paho/MQTTClient-C/src\MQTTClient.c **** 
 137:D:/fchai/work/i-cube/I-CUBE-HUAWEI/Middlewares/Third_Party/Huawei/iot_link/network/mqtt/paho_mqtt/paho/MQTTClient-C/src\MQTTClient.c ****     if (rem_len > (c->readbuf_size - len))
 138:D:/fchai/work/i-cube/I-CUBE-HUAWEI/Middlewares/Third_Party/Huawei/iot_link/network/mqtt/paho_mqtt/paho/MQTTClient-C/src\MQTTClient.c ****     {
 139:D:/fchai/work/i-cube/I-CUBE-HUAWEI/Middlewares/Third_Party/Huawei/iot_link/network/mqtt/paho_mqtt/paho/MQTTClient-C/src\MQTTClient.c ****         rc = BUFFER_OVERFLOW;
 140:D:/fchai/work/i-cube/I-CUBE-HUAWEI/Middlewares/Third_Party/Huawei/iot_link/network/mqtt/paho_mqtt/paho/MQTTClient-C/src\MQTTClient.c ****         goto exit;
 141:D:/fchai/work/i-cube/I-CUBE-HUAWEI/Middlewares/Third_Party/Huawei/iot_link/network/mqtt/paho_mqtt/paho/MQTTClient-C/src\MQTTClient.c ****     }
 142:D:/fchai/work/i-cube/I-CUBE-HUAWEI/Middlewares/Third_Party/Huawei/iot_link/network/mqtt/paho_mqtt/paho/MQTTClient-C/src\MQTTClient.c **** 
 143:D:/fchai/work/i-cube/I-CUBE-HUAWEI/Middlewares/Third_Party/Huawei/iot_link/network/mqtt/paho_mqtt/paho/MQTTClient-C/src\MQTTClient.c ****     /* 3. read the rest of the buffer using a callback to supply the rest of the data */
 144:D:/fchai/work/i-cube/I-CUBE-HUAWEI/Middlewares/Third_Party/Huawei/iot_link/network/mqtt/paho_mqtt/paho/MQTTClient-C/src\MQTTClient.c ****     if (rem_len > 0 && (rc = c->ipstack->mqttread(c->ipstack, c->readbuf + len, rem_len, TimerLeftM
 145:D:/fchai/work/i-cube/I-CUBE-HUAWEI/Middlewares/Third_Party/Huawei/iot_link/network/mqtt/paho_mqtt/paho/MQTTClient-C/src\MQTTClient.c ****         rc = 0;
 146:D:/fchai/work/i-cube/I-CUBE-HUAWEI/Middlewares/Third_Party/Huawei/iot_link/network/mqtt/paho_mqtt/paho/MQTTClient-C/src\MQTTClient.c ****         goto exit;
 147:D:/fchai/work/i-cube/I-CUBE-HUAWEI/Middlewares/Third_Party/Huawei/iot_link/network/mqtt/paho_mqtt/paho/MQTTClient-C/src\MQTTClient.c ****     }
 148:D:/fchai/work/i-cube/I-CUBE-HUAWEI/Middlewares/Third_Party/Huawei/iot_link/network/mqtt/paho_mqtt/paho/MQTTClient-C/src\MQTTClient.c **** 
 149:D:/fchai/work/i-cube/I-CUBE-HUAWEI/Middlewares/Third_Party/Huawei/iot_link/network/mqtt/paho_mqtt/paho/MQTTClient-C/src\MQTTClient.c ****     header.byte = c->readbuf[0];
 150:D:/fchai/work/i-cube/I-CUBE-HUAWEI/Middlewares/Third_Party/Huawei/iot_link/network/mqtt/paho_mqtt/paho/MQTTClient-C/src\MQTTClient.c ****     rc = header.bits.type;
 151:D:/fchai/work/i-cube/I-CUBE-HUAWEI/Middlewares/Third_Party/Huawei/iot_link/network/mqtt/paho_mqtt/paho/MQTTClient-C/src\MQTTClient.c ****     if (c->keepAliveInterval > 0)
 152:D:/fchai/work/i-cube/I-CUBE-HUAWEI/Middlewares/Third_Party/Huawei/iot_link/network/mqtt/paho_mqtt/paho/MQTTClient-C/src\MQTTClient.c ****         TimerCountdown(&c->last_received, c->keepAliveInterval); // record the fact that we have su
 153:D:/fchai/work/i-cube/I-CUBE-HUAWEI/Middlewares/Third_Party/Huawei/iot_link/network/mqtt/paho_mqtt/paho/MQTTClient-C/src\MQTTClient.c **** exit:
 154:D:/fchai/work/i-cube/I-CUBE-HUAWEI/Middlewares/Third_Party/Huawei/iot_link/network/mqtt/paho_mqtt/paho/MQTTClient-C/src\MQTTClient.c ****     return rc;
 155:D:/fchai/work/i-cube/I-CUBE-HUAWEI/Middlewares/Third_Party/Huawei/iot_link/network/mqtt/paho_mqtt/paho/MQTTClient-C/src\MQTTClient.c **** }
 156:D:/fchai/work/i-cube/I-CUBE-HUAWEI/Middlewares/Third_Party/Huawei/iot_link/network/mqtt/paho_mqtt/paho/MQTTClient-C/src\MQTTClient.c **** 
 157:D:/fchai/work/i-cube/I-CUBE-HUAWEI/Middlewares/Third_Party/Huawei/iot_link/network/mqtt/paho_mqtt/paho/MQTTClient-C/src\MQTTClient.c **** /**
 158:D:/fchai/work/i-cube/I-CUBE-HUAWEI/Middlewares/Third_Party/Huawei/iot_link/network/mqtt/paho_mqtt/paho/MQTTClient-C/src\MQTTClient.c ****  * Copyright (c) 2009-2018 Roger Light <roger@atchoo.org>
 159:D:/fchai/work/i-cube/I-CUBE-HUAWEI/Middlewares/Third_Party/Huawei/iot_link/network/mqtt/paho_mqtt/paho/MQTTClient-C/src\MQTTClient.c ****  * licensed under the Eclipse Public License 1.0 and the Eclipse Distribution License 1.0
 160:D:/fchai/work/i-cube/I-CUBE-HUAWEI/Middlewares/Third_Party/Huawei/iot_link/network/mqtt/paho_mqtt/paho/MQTTClient-C/src\MQTTClient.c ****  */
 161:D:/fchai/work/i-cube/I-CUBE-HUAWEI/Middlewares/Third_Party/Huawei/iot_link/network/mqtt/paho_mqtt/paho/MQTTClient-C/src\MQTTClient.c **** static int MQTTTopicMatched(const char *sub, MQTTString *topic_name, char *result)
 162:D:/fchai/work/i-cube/I-CUBE-HUAWEI/Middlewares/Third_Party/Huawei/iot_link/network/mqtt/paho_mqtt/paho/MQTTClient-C/src\MQTTClient.c **** {
 163:D:/fchai/work/i-cube/I-CUBE-HUAWEI/Middlewares/Third_Party/Huawei/iot_link/network/mqtt/paho_mqtt/paho/MQTTClient-C/src\MQTTClient.c ****     int sublen, topiclen;
ARM GAS  T:\msys\tmp\ccsrUqql.s 			page 7


 164:D:/fchai/work/i-cube/I-CUBE-HUAWEI/Middlewares/Third_Party/Huawei/iot_link/network/mqtt/paho_mqtt/paho/MQTTClient-C/src\MQTTClient.c ****     int spos, tpos;
 165:D:/fchai/work/i-cube/I-CUBE-HUAWEI/Middlewares/Third_Party/Huawei/iot_link/network/mqtt/paho_mqtt/paho/MQTTClient-C/src\MQTTClient.c ****     char multilevel_wildcard = 0;
 166:D:/fchai/work/i-cube/I-CUBE-HUAWEI/Middlewares/Third_Party/Huawei/iot_link/network/mqtt/paho_mqtt/paho/MQTTClient-C/src\MQTTClient.c ****     char *topic;
 167:D:/fchai/work/i-cube/I-CUBE-HUAWEI/Middlewares/Third_Party/Huawei/iot_link/network/mqtt/paho_mqtt/paho/MQTTClient-C/src\MQTTClient.c **** 
 168:D:/fchai/work/i-cube/I-CUBE-HUAWEI/Middlewares/Third_Party/Huawei/iot_link/network/mqtt/paho_mqtt/paho/MQTTClient-C/src\MQTTClient.c ****     if(!result)
 169:D:/fchai/work/i-cube/I-CUBE-HUAWEI/Middlewares/Third_Party/Huawei/iot_link/network/mqtt/paho_mqtt/paho/MQTTClient-C/src\MQTTClient.c ****         return -1;
 170:D:/fchai/work/i-cube/I-CUBE-HUAWEI/Middlewares/Third_Party/Huawei/iot_link/network/mqtt/paho_mqtt/paho/MQTTClient-C/src\MQTTClient.c ****     *result = 0;
 171:D:/fchai/work/i-cube/I-CUBE-HUAWEI/Middlewares/Third_Party/Huawei/iot_link/network/mqtt/paho_mqtt/paho/MQTTClient-C/src\MQTTClient.c **** 
 172:D:/fchai/work/i-cube/I-CUBE-HUAWEI/Middlewares/Third_Party/Huawei/iot_link/network/mqtt/paho_mqtt/paho/MQTTClient-C/src\MQTTClient.c ****     if(!sub || !topic_name)
 173:D:/fchai/work/i-cube/I-CUBE-HUAWEI/Middlewares/Third_Party/Huawei/iot_link/network/mqtt/paho_mqtt/paho/MQTTClient-C/src\MQTTClient.c ****     {
 174:D:/fchai/work/i-cube/I-CUBE-HUAWEI/Middlewares/Third_Party/Huawei/iot_link/network/mqtt/paho_mqtt/paho/MQTTClient-C/src\MQTTClient.c ****         return -1;
 175:D:/fchai/work/i-cube/I-CUBE-HUAWEI/Middlewares/Third_Party/Huawei/iot_link/network/mqtt/paho_mqtt/paho/MQTTClient-C/src\MQTTClient.c ****     }
 176:D:/fchai/work/i-cube/I-CUBE-HUAWEI/Middlewares/Third_Party/Huawei/iot_link/network/mqtt/paho_mqtt/paho/MQTTClient-C/src\MQTTClient.c **** 
 177:D:/fchai/work/i-cube/I-CUBE-HUAWEI/Middlewares/Third_Party/Huawei/iot_link/network/mqtt/paho_mqtt/paho/MQTTClient-C/src\MQTTClient.c ****     sublen = strlen(sub);
 178:D:/fchai/work/i-cube/I-CUBE-HUAWEI/Middlewares/Third_Party/Huawei/iot_link/network/mqtt/paho_mqtt/paho/MQTTClient-C/src\MQTTClient.c **** 
 179:D:/fchai/work/i-cube/I-CUBE-HUAWEI/Middlewares/Third_Party/Huawei/iot_link/network/mqtt/paho_mqtt/paho/MQTTClient-C/src\MQTTClient.c ****     if(topic_name->cstring)
 180:D:/fchai/work/i-cube/I-CUBE-HUAWEI/Middlewares/Third_Party/Huawei/iot_link/network/mqtt/paho_mqtt/paho/MQTTClient-C/src\MQTTClient.c ****     {
 181:D:/fchai/work/i-cube/I-CUBE-HUAWEI/Middlewares/Third_Party/Huawei/iot_link/network/mqtt/paho_mqtt/paho/MQTTClient-C/src\MQTTClient.c ****         topic = topic_name->cstring;
 182:D:/fchai/work/i-cube/I-CUBE-HUAWEI/Middlewares/Third_Party/Huawei/iot_link/network/mqtt/paho_mqtt/paho/MQTTClient-C/src\MQTTClient.c ****         topiclen = strlen(topic_name->cstring);
 183:D:/fchai/work/i-cube/I-CUBE-HUAWEI/Middlewares/Third_Party/Huawei/iot_link/network/mqtt/paho_mqtt/paho/MQTTClient-C/src\MQTTClient.c ****     }
 184:D:/fchai/work/i-cube/I-CUBE-HUAWEI/Middlewares/Third_Party/Huawei/iot_link/network/mqtt/paho_mqtt/paho/MQTTClient-C/src\MQTTClient.c ****     else
 185:D:/fchai/work/i-cube/I-CUBE-HUAWEI/Middlewares/Third_Party/Huawei/iot_link/network/mqtt/paho_mqtt/paho/MQTTClient-C/src\MQTTClient.c ****     {
 186:D:/fchai/work/i-cube/I-CUBE-HUAWEI/Middlewares/Third_Party/Huawei/iot_link/network/mqtt/paho_mqtt/paho/MQTTClient-C/src\MQTTClient.c ****         topic = topic_name->lenstring.data;
 187:D:/fchai/work/i-cube/I-CUBE-HUAWEI/Middlewares/Third_Party/Huawei/iot_link/network/mqtt/paho_mqtt/paho/MQTTClient-C/src\MQTTClient.c ****         topiclen = topic_name->lenstring.len;
 188:D:/fchai/work/i-cube/I-CUBE-HUAWEI/Middlewares/Third_Party/Huawei/iot_link/network/mqtt/paho_mqtt/paho/MQTTClient-C/src\MQTTClient.c ****     }
 189:D:/fchai/work/i-cube/I-CUBE-HUAWEI/Middlewares/Third_Party/Huawei/iot_link/network/mqtt/paho_mqtt/paho/MQTTClient-C/src\MQTTClient.c **** 
 190:D:/fchai/work/i-cube/I-CUBE-HUAWEI/Middlewares/Third_Party/Huawei/iot_link/network/mqtt/paho_mqtt/paho/MQTTClient-C/src\MQTTClient.c ****     if(!sublen || !topiclen)
 191:D:/fchai/work/i-cube/I-CUBE-HUAWEI/Middlewares/Third_Party/Huawei/iot_link/network/mqtt/paho_mqtt/paho/MQTTClient-C/src\MQTTClient.c ****     {
 192:D:/fchai/work/i-cube/I-CUBE-HUAWEI/Middlewares/Third_Party/Huawei/iot_link/network/mqtt/paho_mqtt/paho/MQTTClient-C/src\MQTTClient.c ****         *result = 0;
 193:D:/fchai/work/i-cube/I-CUBE-HUAWEI/Middlewares/Third_Party/Huawei/iot_link/network/mqtt/paho_mqtt/paho/MQTTClient-C/src\MQTTClient.c ****         return -1;
 194:D:/fchai/work/i-cube/I-CUBE-HUAWEI/Middlewares/Third_Party/Huawei/iot_link/network/mqtt/paho_mqtt/paho/MQTTClient-C/src\MQTTClient.c ****     }
 195:D:/fchai/work/i-cube/I-CUBE-HUAWEI/Middlewares/Third_Party/Huawei/iot_link/network/mqtt/paho_mqtt/paho/MQTTClient-C/src\MQTTClient.c **** 
 196:D:/fchai/work/i-cube/I-CUBE-HUAWEI/Middlewares/Third_Party/Huawei/iot_link/network/mqtt/paho_mqtt/paho/MQTTClient-C/src\MQTTClient.c ****     if(sublen && topiclen)
 197:D:/fchai/work/i-cube/I-CUBE-HUAWEI/Middlewares/Third_Party/Huawei/iot_link/network/mqtt/paho_mqtt/paho/MQTTClient-C/src\MQTTClient.c ****     {
 198:D:/fchai/work/i-cube/I-CUBE-HUAWEI/Middlewares/Third_Party/Huawei/iot_link/network/mqtt/paho_mqtt/paho/MQTTClient-C/src\MQTTClient.c ****         if((sub[0] == '$' && topic[0] != '$')
 199:D:/fchai/work/i-cube/I-CUBE-HUAWEI/Middlewares/Third_Party/Huawei/iot_link/network/mqtt/paho_mqtt/paho/MQTTClient-C/src\MQTTClient.c ****                 || (topic[0] == '$' && sub[0] != '$'))
 200:D:/fchai/work/i-cube/I-CUBE-HUAWEI/Middlewares/Third_Party/Huawei/iot_link/network/mqtt/paho_mqtt/paho/MQTTClient-C/src\MQTTClient.c ****         {
 201:D:/fchai/work/i-cube/I-CUBE-HUAWEI/Middlewares/Third_Party/Huawei/iot_link/network/mqtt/paho_mqtt/paho/MQTTClient-C/src\MQTTClient.c ****             return 0;
 202:D:/fchai/work/i-cube/I-CUBE-HUAWEI/Middlewares/Third_Party/Huawei/iot_link/network/mqtt/paho_mqtt/paho/MQTTClient-C/src\MQTTClient.c ****         }
 203:D:/fchai/work/i-cube/I-CUBE-HUAWEI/Middlewares/Third_Party/Huawei/iot_link/network/mqtt/paho_mqtt/paho/MQTTClient-C/src\MQTTClient.c ****     }
 204:D:/fchai/work/i-cube/I-CUBE-HUAWEI/Middlewares/Third_Party/Huawei/iot_link/network/mqtt/paho_mqtt/paho/MQTTClient-C/src\MQTTClient.c **** 
 205:D:/fchai/work/i-cube/I-CUBE-HUAWEI/Middlewares/Third_Party/Huawei/iot_link/network/mqtt/paho_mqtt/paho/MQTTClient-C/src\MQTTClient.c ****     spos = 0;
 206:D:/fchai/work/i-cube/I-CUBE-HUAWEI/Middlewares/Third_Party/Huawei/iot_link/network/mqtt/paho_mqtt/paho/MQTTClient-C/src\MQTTClient.c ****     tpos = 0;
 207:D:/fchai/work/i-cube/I-CUBE-HUAWEI/Middlewares/Third_Party/Huawei/iot_link/network/mqtt/paho_mqtt/paho/MQTTClient-C/src\MQTTClient.c **** 
 208:D:/fchai/work/i-cube/I-CUBE-HUAWEI/Middlewares/Third_Party/Huawei/iot_link/network/mqtt/paho_mqtt/paho/MQTTClient-C/src\MQTTClient.c ****     while(spos < sublen && tpos <= topiclen)
 209:D:/fchai/work/i-cube/I-CUBE-HUAWEI/Middlewares/Third_Party/Huawei/iot_link/network/mqtt/paho_mqtt/paho/MQTTClient-C/src\MQTTClient.c ****     {
 210:D:/fchai/work/i-cube/I-CUBE-HUAWEI/Middlewares/Third_Party/Huawei/iot_link/network/mqtt/paho_mqtt/paho/MQTTClient-C/src\MQTTClient.c ****         if(sub[spos] == topic[tpos])
 211:D:/fchai/work/i-cube/I-CUBE-HUAWEI/Middlewares/Third_Party/Huawei/iot_link/network/mqtt/paho_mqtt/paho/MQTTClient-C/src\MQTTClient.c ****         {
 212:D:/fchai/work/i-cube/I-CUBE-HUAWEI/Middlewares/Third_Party/Huawei/iot_link/network/mqtt/paho_mqtt/paho/MQTTClient-C/src\MQTTClient.c ****             if(tpos == topiclen - 1)
 213:D:/fchai/work/i-cube/I-CUBE-HUAWEI/Middlewares/Third_Party/Huawei/iot_link/network/mqtt/paho_mqtt/paho/MQTTClient-C/src\MQTTClient.c ****             {
 214:D:/fchai/work/i-cube/I-CUBE-HUAWEI/Middlewares/Third_Party/Huawei/iot_link/network/mqtt/paho_mqtt/paho/MQTTClient-C/src\MQTTClient.c ****                 /* Check for e.g. foo matching foo/# */
 215:D:/fchai/work/i-cube/I-CUBE-HUAWEI/Middlewares/Third_Party/Huawei/iot_link/network/mqtt/paho_mqtt/paho/MQTTClient-C/src\MQTTClient.c ****                 if(spos == sublen - 3 && sub[spos + 1] == '/' && sub[spos + 2] == '#')
 216:D:/fchai/work/i-cube/I-CUBE-HUAWEI/Middlewares/Third_Party/Huawei/iot_link/network/mqtt/paho_mqtt/paho/MQTTClient-C/src\MQTTClient.c ****                 {
 217:D:/fchai/work/i-cube/I-CUBE-HUAWEI/Middlewares/Third_Party/Huawei/iot_link/network/mqtt/paho_mqtt/paho/MQTTClient-C/src\MQTTClient.c ****                     *result = 1;
 218:D:/fchai/work/i-cube/I-CUBE-HUAWEI/Middlewares/Third_Party/Huawei/iot_link/network/mqtt/paho_mqtt/paho/MQTTClient-C/src\MQTTClient.c ****                     multilevel_wildcard = 1;
 219:D:/fchai/work/i-cube/I-CUBE-HUAWEI/Middlewares/Third_Party/Huawei/iot_link/network/mqtt/paho_mqtt/paho/MQTTClient-C/src\MQTTClient.c ****                     return 0;
 220:D:/fchai/work/i-cube/I-CUBE-HUAWEI/Middlewares/Third_Party/Huawei/iot_link/network/mqtt/paho_mqtt/paho/MQTTClient-C/src\MQTTClient.c ****                 }
ARM GAS  T:\msys\tmp\ccsrUqql.s 			page 8


 221:D:/fchai/work/i-cube/I-CUBE-HUAWEI/Middlewares/Third_Party/Huawei/iot_link/network/mqtt/paho_mqtt/paho/MQTTClient-C/src\MQTTClient.c ****             }
 222:D:/fchai/work/i-cube/I-CUBE-HUAWEI/Middlewares/Third_Party/Huawei/iot_link/network/mqtt/paho_mqtt/paho/MQTTClient-C/src\MQTTClient.c ****             spos++;
 223:D:/fchai/work/i-cube/I-CUBE-HUAWEI/Middlewares/Third_Party/Huawei/iot_link/network/mqtt/paho_mqtt/paho/MQTTClient-C/src\MQTTClient.c ****             tpos++;
 224:D:/fchai/work/i-cube/I-CUBE-HUAWEI/Middlewares/Third_Party/Huawei/iot_link/network/mqtt/paho_mqtt/paho/MQTTClient-C/src\MQTTClient.c ****             if(spos == sublen && tpos == topiclen)
 225:D:/fchai/work/i-cube/I-CUBE-HUAWEI/Middlewares/Third_Party/Huawei/iot_link/network/mqtt/paho_mqtt/paho/MQTTClient-C/src\MQTTClient.c ****             {
 226:D:/fchai/work/i-cube/I-CUBE-HUAWEI/Middlewares/Third_Party/Huawei/iot_link/network/mqtt/paho_mqtt/paho/MQTTClient-C/src\MQTTClient.c ****                 *result = 1;
 227:D:/fchai/work/i-cube/I-CUBE-HUAWEI/Middlewares/Third_Party/Huawei/iot_link/network/mqtt/paho_mqtt/paho/MQTTClient-C/src\MQTTClient.c ****                 return 0;
 228:D:/fchai/work/i-cube/I-CUBE-HUAWEI/Middlewares/Third_Party/Huawei/iot_link/network/mqtt/paho_mqtt/paho/MQTTClient-C/src\MQTTClient.c ****             }
 229:D:/fchai/work/i-cube/I-CUBE-HUAWEI/Middlewares/Third_Party/Huawei/iot_link/network/mqtt/paho_mqtt/paho/MQTTClient-C/src\MQTTClient.c ****             else if(tpos == topiclen && spos == sublen - 1 && sub[spos] == '+')
 230:D:/fchai/work/i-cube/I-CUBE-HUAWEI/Middlewares/Third_Party/Huawei/iot_link/network/mqtt/paho_mqtt/paho/MQTTClient-C/src\MQTTClient.c ****             {
 231:D:/fchai/work/i-cube/I-CUBE-HUAWEI/Middlewares/Third_Party/Huawei/iot_link/network/mqtt/paho_mqtt/paho/MQTTClient-C/src\MQTTClient.c ****                 if(spos > 0 && sub[spos - 1] != '/')
 232:D:/fchai/work/i-cube/I-CUBE-HUAWEI/Middlewares/Third_Party/Huawei/iot_link/network/mqtt/paho_mqtt/paho/MQTTClient-C/src\MQTTClient.c ****                 {
 233:D:/fchai/work/i-cube/I-CUBE-HUAWEI/Middlewares/Third_Party/Huawei/iot_link/network/mqtt/paho_mqtt/paho/MQTTClient-C/src\MQTTClient.c ****                     return -1;
 234:D:/fchai/work/i-cube/I-CUBE-HUAWEI/Middlewares/Third_Party/Huawei/iot_link/network/mqtt/paho_mqtt/paho/MQTTClient-C/src\MQTTClient.c ****                 }
 235:D:/fchai/work/i-cube/I-CUBE-HUAWEI/Middlewares/Third_Party/Huawei/iot_link/network/mqtt/paho_mqtt/paho/MQTTClient-C/src\MQTTClient.c ****                 spos++;
 236:D:/fchai/work/i-cube/I-CUBE-HUAWEI/Middlewares/Third_Party/Huawei/iot_link/network/mqtt/paho_mqtt/paho/MQTTClient-C/src\MQTTClient.c ****                 *result = 1;
 237:D:/fchai/work/i-cube/I-CUBE-HUAWEI/Middlewares/Third_Party/Huawei/iot_link/network/mqtt/paho_mqtt/paho/MQTTClient-C/src\MQTTClient.c ****                 return 0;
 238:D:/fchai/work/i-cube/I-CUBE-HUAWEI/Middlewares/Third_Party/Huawei/iot_link/network/mqtt/paho_mqtt/paho/MQTTClient-C/src\MQTTClient.c ****             }
 239:D:/fchai/work/i-cube/I-CUBE-HUAWEI/Middlewares/Third_Party/Huawei/iot_link/network/mqtt/paho_mqtt/paho/MQTTClient-C/src\MQTTClient.c ****         }
 240:D:/fchai/work/i-cube/I-CUBE-HUAWEI/Middlewares/Third_Party/Huawei/iot_link/network/mqtt/paho_mqtt/paho/MQTTClient-C/src\MQTTClient.c ****         else
 241:D:/fchai/work/i-cube/I-CUBE-HUAWEI/Middlewares/Third_Party/Huawei/iot_link/network/mqtt/paho_mqtt/paho/MQTTClient-C/src\MQTTClient.c ****         {
 242:D:/fchai/work/i-cube/I-CUBE-HUAWEI/Middlewares/Third_Party/Huawei/iot_link/network/mqtt/paho_mqtt/paho/MQTTClient-C/src\MQTTClient.c ****             if(sub[spos] == '+')
 243:D:/fchai/work/i-cube/I-CUBE-HUAWEI/Middlewares/Third_Party/Huawei/iot_link/network/mqtt/paho_mqtt/paho/MQTTClient-C/src\MQTTClient.c ****             {
 244:D:/fchai/work/i-cube/I-CUBE-HUAWEI/Middlewares/Third_Party/Huawei/iot_link/network/mqtt/paho_mqtt/paho/MQTTClient-C/src\MQTTClient.c ****                 /* Check for bad "+foo" or "a/+foo" subscription */
 245:D:/fchai/work/i-cube/I-CUBE-HUAWEI/Middlewares/Third_Party/Huawei/iot_link/network/mqtt/paho_mqtt/paho/MQTTClient-C/src\MQTTClient.c ****                 if(spos > 0 && sub[spos - 1] != '/')
 246:D:/fchai/work/i-cube/I-CUBE-HUAWEI/Middlewares/Third_Party/Huawei/iot_link/network/mqtt/paho_mqtt/paho/MQTTClient-C/src\MQTTClient.c ****                 {
 247:D:/fchai/work/i-cube/I-CUBE-HUAWEI/Middlewares/Third_Party/Huawei/iot_link/network/mqtt/paho_mqtt/paho/MQTTClient-C/src\MQTTClient.c ****                     return -1;
 248:D:/fchai/work/i-cube/I-CUBE-HUAWEI/Middlewares/Third_Party/Huawei/iot_link/network/mqtt/paho_mqtt/paho/MQTTClient-C/src\MQTTClient.c ****                 }
 249:D:/fchai/work/i-cube/I-CUBE-HUAWEI/Middlewares/Third_Party/Huawei/iot_link/network/mqtt/paho_mqtt/paho/MQTTClient-C/src\MQTTClient.c ****                 /* Check for bad "foo+" or "foo+/a" subscription */
 250:D:/fchai/work/i-cube/I-CUBE-HUAWEI/Middlewares/Third_Party/Huawei/iot_link/network/mqtt/paho_mqtt/paho/MQTTClient-C/src\MQTTClient.c ****                 if(spos < sublen - 1 && sub[spos + 1] != '/')
 251:D:/fchai/work/i-cube/I-CUBE-HUAWEI/Middlewares/Third_Party/Huawei/iot_link/network/mqtt/paho_mqtt/paho/MQTTClient-C/src\MQTTClient.c ****                 {
 252:D:/fchai/work/i-cube/I-CUBE-HUAWEI/Middlewares/Third_Party/Huawei/iot_link/network/mqtt/paho_mqtt/paho/MQTTClient-C/src\MQTTClient.c ****                     return -1;
 253:D:/fchai/work/i-cube/I-CUBE-HUAWEI/Middlewares/Third_Party/Huawei/iot_link/network/mqtt/paho_mqtt/paho/MQTTClient-C/src\MQTTClient.c ****                 }
 254:D:/fchai/work/i-cube/I-CUBE-HUAWEI/Middlewares/Third_Party/Huawei/iot_link/network/mqtt/paho_mqtt/paho/MQTTClient-C/src\MQTTClient.c ****                 spos++;
 255:D:/fchai/work/i-cube/I-CUBE-HUAWEI/Middlewares/Third_Party/Huawei/iot_link/network/mqtt/paho_mqtt/paho/MQTTClient-C/src\MQTTClient.c ****                 while(tpos < topiclen && topic[tpos] != '/')
 256:D:/fchai/work/i-cube/I-CUBE-HUAWEI/Middlewares/Third_Party/Huawei/iot_link/network/mqtt/paho_mqtt/paho/MQTTClient-C/src\MQTTClient.c ****                 {
 257:D:/fchai/work/i-cube/I-CUBE-HUAWEI/Middlewares/Third_Party/Huawei/iot_link/network/mqtt/paho_mqtt/paho/MQTTClient-C/src\MQTTClient.c ****                     tpos++;
 258:D:/fchai/work/i-cube/I-CUBE-HUAWEI/Middlewares/Third_Party/Huawei/iot_link/network/mqtt/paho_mqtt/paho/MQTTClient-C/src\MQTTClient.c ****                 }
 259:D:/fchai/work/i-cube/I-CUBE-HUAWEI/Middlewares/Third_Party/Huawei/iot_link/network/mqtt/paho_mqtt/paho/MQTTClient-C/src\MQTTClient.c ****                 if(tpos == topiclen && spos == sublen)
 260:D:/fchai/work/i-cube/I-CUBE-HUAWEI/Middlewares/Third_Party/Huawei/iot_link/network/mqtt/paho_mqtt/paho/MQTTClient-C/src\MQTTClient.c ****                 {
 261:D:/fchai/work/i-cube/I-CUBE-HUAWEI/Middlewares/Third_Party/Huawei/iot_link/network/mqtt/paho_mqtt/paho/MQTTClient-C/src\MQTTClient.c ****                     *result = 1;
 262:D:/fchai/work/i-cube/I-CUBE-HUAWEI/Middlewares/Third_Party/Huawei/iot_link/network/mqtt/paho_mqtt/paho/MQTTClient-C/src\MQTTClient.c ****                     return 0;
 263:D:/fchai/work/i-cube/I-CUBE-HUAWEI/Middlewares/Third_Party/Huawei/iot_link/network/mqtt/paho_mqtt/paho/MQTTClient-C/src\MQTTClient.c ****                 }
 264:D:/fchai/work/i-cube/I-CUBE-HUAWEI/Middlewares/Third_Party/Huawei/iot_link/network/mqtt/paho_mqtt/paho/MQTTClient-C/src\MQTTClient.c ****             }
 265:D:/fchai/work/i-cube/I-CUBE-HUAWEI/Middlewares/Third_Party/Huawei/iot_link/network/mqtt/paho_mqtt/paho/MQTTClient-C/src\MQTTClient.c ****             else if(sub[spos] == '#')
 266:D:/fchai/work/i-cube/I-CUBE-HUAWEI/Middlewares/Third_Party/Huawei/iot_link/network/mqtt/paho_mqtt/paho/MQTTClient-C/src\MQTTClient.c ****             {
 267:D:/fchai/work/i-cube/I-CUBE-HUAWEI/Middlewares/Third_Party/Huawei/iot_link/network/mqtt/paho_mqtt/paho/MQTTClient-C/src\MQTTClient.c ****                 if(spos > 0 && sub[spos - 1] != '/')
 268:D:/fchai/work/i-cube/I-CUBE-HUAWEI/Middlewares/Third_Party/Huawei/iot_link/network/mqtt/paho_mqtt/paho/MQTTClient-C/src\MQTTClient.c ****                 {
 269:D:/fchai/work/i-cube/I-CUBE-HUAWEI/Middlewares/Third_Party/Huawei/iot_link/network/mqtt/paho_mqtt/paho/MQTTClient-C/src\MQTTClient.c ****                     return -1;
 270:D:/fchai/work/i-cube/I-CUBE-HUAWEI/Middlewares/Third_Party/Huawei/iot_link/network/mqtt/paho_mqtt/paho/MQTTClient-C/src\MQTTClient.c ****                 }
 271:D:/fchai/work/i-cube/I-CUBE-HUAWEI/Middlewares/Third_Party/Huawei/iot_link/network/mqtt/paho_mqtt/paho/MQTTClient-C/src\MQTTClient.c ****                 multilevel_wildcard = 1;
 272:D:/fchai/work/i-cube/I-CUBE-HUAWEI/Middlewares/Third_Party/Huawei/iot_link/network/mqtt/paho_mqtt/paho/MQTTClient-C/src\MQTTClient.c ****                 if(spos + 1 != sublen)
 273:D:/fchai/work/i-cube/I-CUBE-HUAWEI/Middlewares/Third_Party/Huawei/iot_link/network/mqtt/paho_mqtt/paho/MQTTClient-C/src\MQTTClient.c ****                 {
 274:D:/fchai/work/i-cube/I-CUBE-HUAWEI/Middlewares/Third_Party/Huawei/iot_link/network/mqtt/paho_mqtt/paho/MQTTClient-C/src\MQTTClient.c ****                     return -1;
 275:D:/fchai/work/i-cube/I-CUBE-HUAWEI/Middlewares/Third_Party/Huawei/iot_link/network/mqtt/paho_mqtt/paho/MQTTClient-C/src\MQTTClient.c ****                 }
 276:D:/fchai/work/i-cube/I-CUBE-HUAWEI/Middlewares/Third_Party/Huawei/iot_link/network/mqtt/paho_mqtt/paho/MQTTClient-C/src\MQTTClient.c ****                 else
 277:D:/fchai/work/i-cube/I-CUBE-HUAWEI/Middlewares/Third_Party/Huawei/iot_link/network/mqtt/paho_mqtt/paho/MQTTClient-C/src\MQTTClient.c ****                 {
ARM GAS  T:\msys\tmp\ccsrUqql.s 			page 9


 278:D:/fchai/work/i-cube/I-CUBE-HUAWEI/Middlewares/Third_Party/Huawei/iot_link/network/mqtt/paho_mqtt/paho/MQTTClient-C/src\MQTTClient.c ****                     *result = 1;
 279:D:/fchai/work/i-cube/I-CUBE-HUAWEI/Middlewares/Third_Party/Huawei/iot_link/network/mqtt/paho_mqtt/paho/MQTTClient-C/src\MQTTClient.c ****                     return 0;
 280:D:/fchai/work/i-cube/I-CUBE-HUAWEI/Middlewares/Third_Party/Huawei/iot_link/network/mqtt/paho_mqtt/paho/MQTTClient-C/src\MQTTClient.c ****                 }
 281:D:/fchai/work/i-cube/I-CUBE-HUAWEI/Middlewares/Third_Party/Huawei/iot_link/network/mqtt/paho_mqtt/paho/MQTTClient-C/src\MQTTClient.c ****             }
 282:D:/fchai/work/i-cube/I-CUBE-HUAWEI/Middlewares/Third_Party/Huawei/iot_link/network/mqtt/paho_mqtt/paho/MQTTClient-C/src\MQTTClient.c ****             else
 283:D:/fchai/work/i-cube/I-CUBE-HUAWEI/Middlewares/Third_Party/Huawei/iot_link/network/mqtt/paho_mqtt/paho/MQTTClient-C/src\MQTTClient.c ****             {
 284:D:/fchai/work/i-cube/I-CUBE-HUAWEI/Middlewares/Third_Party/Huawei/iot_link/network/mqtt/paho_mqtt/paho/MQTTClient-C/src\MQTTClient.c ****                 /* Check for e.g. foo/bar matching foo/+/# */
 285:D:/fchai/work/i-cube/I-CUBE-HUAWEI/Middlewares/Third_Party/Huawei/iot_link/network/mqtt/paho_mqtt/paho/MQTTClient-C/src\MQTTClient.c ****                 if(spos > 0 && spos + 2 == sublen && tpos == topiclen
 286:D:/fchai/work/i-cube/I-CUBE-HUAWEI/Middlewares/Third_Party/Huawei/iot_link/network/mqtt/paho_mqtt/paho/MQTTClient-C/src\MQTTClient.c ****                         && sub[spos - 1] == '+' && sub[spos] == '/' && sub[spos + 1] == '#')
 287:D:/fchai/work/i-cube/I-CUBE-HUAWEI/Middlewares/Third_Party/Huawei/iot_link/network/mqtt/paho_mqtt/paho/MQTTClient-C/src\MQTTClient.c ****                 {
 288:D:/fchai/work/i-cube/I-CUBE-HUAWEI/Middlewares/Third_Party/Huawei/iot_link/network/mqtt/paho_mqtt/paho/MQTTClient-C/src\MQTTClient.c ****                     *result = 1;
 289:D:/fchai/work/i-cube/I-CUBE-HUAWEI/Middlewares/Third_Party/Huawei/iot_link/network/mqtt/paho_mqtt/paho/MQTTClient-C/src\MQTTClient.c ****                     multilevel_wildcard = 1;
 290:D:/fchai/work/i-cube/I-CUBE-HUAWEI/Middlewares/Third_Party/Huawei/iot_link/network/mqtt/paho_mqtt/paho/MQTTClient-C/src\MQTTClient.c ****                     return 0;
 291:D:/fchai/work/i-cube/I-CUBE-HUAWEI/Middlewares/Third_Party/Huawei/iot_link/network/mqtt/paho_mqtt/paho/MQTTClient-C/src\MQTTClient.c ****                 }
 292:D:/fchai/work/i-cube/I-CUBE-HUAWEI/Middlewares/Third_Party/Huawei/iot_link/network/mqtt/paho_mqtt/paho/MQTTClient-C/src\MQTTClient.c ****                 return 0;
 293:D:/fchai/work/i-cube/I-CUBE-HUAWEI/Middlewares/Third_Party/Huawei/iot_link/network/mqtt/paho_mqtt/paho/MQTTClient-C/src\MQTTClient.c ****             }
 294:D:/fchai/work/i-cube/I-CUBE-HUAWEI/Middlewares/Third_Party/Huawei/iot_link/network/mqtt/paho_mqtt/paho/MQTTClient-C/src\MQTTClient.c ****         }
 295:D:/fchai/work/i-cube/I-CUBE-HUAWEI/Middlewares/Third_Party/Huawei/iot_link/network/mqtt/paho_mqtt/paho/MQTTClient-C/src\MQTTClient.c ****     }
 296:D:/fchai/work/i-cube/I-CUBE-HUAWEI/Middlewares/Third_Party/Huawei/iot_link/network/mqtt/paho_mqtt/paho/MQTTClient-C/src\MQTTClient.c ****     if(multilevel_wildcard == 0 && (tpos < topiclen || spos < sublen))
 297:D:/fchai/work/i-cube/I-CUBE-HUAWEI/Middlewares/Third_Party/Huawei/iot_link/network/mqtt/paho_mqtt/paho/MQTTClient-C/src\MQTTClient.c ****     {
 298:D:/fchai/work/i-cube/I-CUBE-HUAWEI/Middlewares/Third_Party/Huawei/iot_link/network/mqtt/paho_mqtt/paho/MQTTClient-C/src\MQTTClient.c ****         *result = 0;
 299:D:/fchai/work/i-cube/I-CUBE-HUAWEI/Middlewares/Third_Party/Huawei/iot_link/network/mqtt/paho_mqtt/paho/MQTTClient-C/src\MQTTClient.c ****     }
 300:D:/fchai/work/i-cube/I-CUBE-HUAWEI/Middlewares/Third_Party/Huawei/iot_link/network/mqtt/paho_mqtt/paho/MQTTClient-C/src\MQTTClient.c **** 
 301:D:/fchai/work/i-cube/I-CUBE-HUAWEI/Middlewares/Third_Party/Huawei/iot_link/network/mqtt/paho_mqtt/paho/MQTTClient-C/src\MQTTClient.c ****     return 0;
 302:D:/fchai/work/i-cube/I-CUBE-HUAWEI/Middlewares/Third_Party/Huawei/iot_link/network/mqtt/paho_mqtt/paho/MQTTClient-C/src\MQTTClient.c **** }
 303:D:/fchai/work/i-cube/I-CUBE-HUAWEI/Middlewares/Third_Party/Huawei/iot_link/network/mqtt/paho_mqtt/paho/MQTTClient-C/src\MQTTClient.c **** 
 304:D:/fchai/work/i-cube/I-CUBE-HUAWEI/Middlewares/Third_Party/Huawei/iot_link/network/mqtt/paho_mqtt/paho/MQTTClient-C/src\MQTTClient.c **** 
 305:D:/fchai/work/i-cube/I-CUBE-HUAWEI/Middlewares/Third_Party/Huawei/iot_link/network/mqtt/paho_mqtt/paho/MQTTClient-C/src\MQTTClient.c **** int deliverMessage(MQTTClient* c, MQTTString* topicName, MQTTMessage* message)
 306:D:/fchai/work/i-cube/I-CUBE-HUAWEI/Middlewares/Third_Party/Huawei/iot_link/network/mqtt/paho_mqtt/paho/MQTTClient-C/src\MQTTClient.c **** {
 307:D:/fchai/work/i-cube/I-CUBE-HUAWEI/Middlewares/Third_Party/Huawei/iot_link/network/mqtt/paho_mqtt/paho/MQTTClient-C/src\MQTTClient.c ****     int i;
 308:D:/fchai/work/i-cube/I-CUBE-HUAWEI/Middlewares/Third_Party/Huawei/iot_link/network/mqtt/paho_mqtt/paho/MQTTClient-C/src\MQTTClient.c ****     int rc = FAILURE;
 309:D:/fchai/work/i-cube/I-CUBE-HUAWEI/Middlewares/Third_Party/Huawei/iot_link/network/mqtt/paho_mqtt/paho/MQTTClient-C/src\MQTTClient.c ****     char match_rst = 0;
 310:D:/fchai/work/i-cube/I-CUBE-HUAWEI/Middlewares/Third_Party/Huawei/iot_link/network/mqtt/paho_mqtt/paho/MQTTClient-C/src\MQTTClient.c **** 
 311:D:/fchai/work/i-cube/I-CUBE-HUAWEI/Middlewares/Third_Party/Huawei/iot_link/network/mqtt/paho_mqtt/paho/MQTTClient-C/src\MQTTClient.c ****     // we have to find the right message handler - indexed by topic
 312:D:/fchai/work/i-cube/I-CUBE-HUAWEI/Middlewares/Third_Party/Huawei/iot_link/network/mqtt/paho_mqtt/paho/MQTTClient-C/src\MQTTClient.c ****     for (i = 0; i < MAX_MESSAGE_HANDLERS; ++i)
 313:D:/fchai/work/i-cube/I-CUBE-HUAWEI/Middlewares/Third_Party/Huawei/iot_link/network/mqtt/paho_mqtt/paho/MQTTClient-C/src\MQTTClient.c ****     {
 314:D:/fchai/work/i-cube/I-CUBE-HUAWEI/Middlewares/Third_Party/Huawei/iot_link/network/mqtt/paho_mqtt/paho/MQTTClient-C/src\MQTTClient.c ****         if (c->messageHandlers[i].topicFilter != 0)
 315:D:/fchai/work/i-cube/I-CUBE-HUAWEI/Middlewares/Third_Party/Huawei/iot_link/network/mqtt/paho_mqtt/paho/MQTTClient-C/src\MQTTClient.c ****         {
 316:D:/fchai/work/i-cube/I-CUBE-HUAWEI/Middlewares/Third_Party/Huawei/iot_link/network/mqtt/paho_mqtt/paho/MQTTClient-C/src\MQTTClient.c ****             (void)MQTTTopicMatched((const char *)c->messageHandlers[i].topicFilter, topicName, &mat
 317:D:/fchai/work/i-cube/I-CUBE-HUAWEI/Middlewares/Third_Party/Huawei/iot_link/network/mqtt/paho_mqtt/paho/MQTTClient-C/src\MQTTClient.c ****             if (1 == match_rst && c->messageHandlers[i].fp != NULL)
 318:D:/fchai/work/i-cube/I-CUBE-HUAWEI/Middlewares/Third_Party/Huawei/iot_link/network/mqtt/paho_mqtt/paho/MQTTClient-C/src\MQTTClient.c ****             {
 319:D:/fchai/work/i-cube/I-CUBE-HUAWEI/Middlewares/Third_Party/Huawei/iot_link/network/mqtt/paho_mqtt/paho/MQTTClient-C/src\MQTTClient.c ****                 MessageData md;
 320:D:/fchai/work/i-cube/I-CUBE-HUAWEI/Middlewares/Third_Party/Huawei/iot_link/network/mqtt/paho_mqtt/paho/MQTTClient-C/src\MQTTClient.c ****                 NewMessageData(&md, topicName, message);
 321:D:/fchai/work/i-cube/I-CUBE-HUAWEI/Middlewares/Third_Party/Huawei/iot_link/network/mqtt/paho_mqtt/paho/MQTTClient-C/src\MQTTClient.c **** 
 322:D:/fchai/work/i-cube/I-CUBE-HUAWEI/Middlewares/Third_Party/Huawei/iot_link/network/mqtt/paho_mqtt/paho/MQTTClient-C/src\MQTTClient.c ****                 md.arg = c->messageHandlers[i].arg;   ///< --modified,we need a args for the handle
 323:D:/fchai/work/i-cube/I-CUBE-HUAWEI/Middlewares/Third_Party/Huawei/iot_link/network/mqtt/paho_mqtt/paho/MQTTClient-C/src\MQTTClient.c ****                 c->messageHandlers[i].fp(&md);
 324:D:/fchai/work/i-cube/I-CUBE-HUAWEI/Middlewares/Third_Party/Huawei/iot_link/network/mqtt/paho_mqtt/paho/MQTTClient-C/src\MQTTClient.c ****                 rc = MQTT_SUCCESS;
 325:D:/fchai/work/i-cube/I-CUBE-HUAWEI/Middlewares/Third_Party/Huawei/iot_link/network/mqtt/paho_mqtt/paho/MQTTClient-C/src\MQTTClient.c ****             }
 326:D:/fchai/work/i-cube/I-CUBE-HUAWEI/Middlewares/Third_Party/Huawei/iot_link/network/mqtt/paho_mqtt/paho/MQTTClient-C/src\MQTTClient.c ****         }
 327:D:/fchai/work/i-cube/I-CUBE-HUAWEI/Middlewares/Third_Party/Huawei/iot_link/network/mqtt/paho_mqtt/paho/MQTTClient-C/src\MQTTClient.c ****     }
 328:D:/fchai/work/i-cube/I-CUBE-HUAWEI/Middlewares/Third_Party/Huawei/iot_link/network/mqtt/paho_mqtt/paho/MQTTClient-C/src\MQTTClient.c **** 
 329:D:/fchai/work/i-cube/I-CUBE-HUAWEI/Middlewares/Third_Party/Huawei/iot_link/network/mqtt/paho_mqtt/paho/MQTTClient-C/src\MQTTClient.c ****     if (rc == FAILURE && c->defaultMessageHandler != NULL)
 330:D:/fchai/work/i-cube/I-CUBE-HUAWEI/Middlewares/Third_Party/Huawei/iot_link/network/mqtt/paho_mqtt/paho/MQTTClient-C/src\MQTTClient.c ****     {
 331:D:/fchai/work/i-cube/I-CUBE-HUAWEI/Middlewares/Third_Party/Huawei/iot_link/network/mqtt/paho_mqtt/paho/MQTTClient-C/src\MQTTClient.c ****         MessageData md;
 332:D:/fchai/work/i-cube/I-CUBE-HUAWEI/Middlewares/Third_Party/Huawei/iot_link/network/mqtt/paho_mqtt/paho/MQTTClient-C/src\MQTTClient.c ****         NewMessageData(&md, topicName, message);
 333:D:/fchai/work/i-cube/I-CUBE-HUAWEI/Middlewares/Third_Party/Huawei/iot_link/network/mqtt/paho_mqtt/paho/MQTTClient-C/src\MQTTClient.c ****         c->defaultMessageHandler(&md);
 334:D:/fchai/work/i-cube/I-CUBE-HUAWEI/Middlewares/Third_Party/Huawei/iot_link/network/mqtt/paho_mqtt/paho/MQTTClient-C/src\MQTTClient.c ****         rc = MQTT_SUCCESS;
ARM GAS  T:\msys\tmp\ccsrUqql.s 			page 10


 335:D:/fchai/work/i-cube/I-CUBE-HUAWEI/Middlewares/Third_Party/Huawei/iot_link/network/mqtt/paho_mqtt/paho/MQTTClient-C/src\MQTTClient.c ****     }
 336:D:/fchai/work/i-cube/I-CUBE-HUAWEI/Middlewares/Third_Party/Huawei/iot_link/network/mqtt/paho_mqtt/paho/MQTTClient-C/src\MQTTClient.c **** 
 337:D:/fchai/work/i-cube/I-CUBE-HUAWEI/Middlewares/Third_Party/Huawei/iot_link/network/mqtt/paho_mqtt/paho/MQTTClient-C/src\MQTTClient.c ****     return rc;
 338:D:/fchai/work/i-cube/I-CUBE-HUAWEI/Middlewares/Third_Party/Huawei/iot_link/network/mqtt/paho_mqtt/paho/MQTTClient-C/src\MQTTClient.c **** }
 339:D:/fchai/work/i-cube/I-CUBE-HUAWEI/Middlewares/Third_Party/Huawei/iot_link/network/mqtt/paho_mqtt/paho/MQTTClient-C/src\MQTTClient.c **** 
 340:D:/fchai/work/i-cube/I-CUBE-HUAWEI/Middlewares/Third_Party/Huawei/iot_link/network/mqtt/paho_mqtt/paho/MQTTClient-C/src\MQTTClient.c **** 
 341:D:/fchai/work/i-cube/I-CUBE-HUAWEI/Middlewares/Third_Party/Huawei/iot_link/network/mqtt/paho_mqtt/paho/MQTTClient-C/src\MQTTClient.c **** int keepalive(MQTTClient* c)
 342:D:/fchai/work/i-cube/I-CUBE-HUAWEI/Middlewares/Third_Party/Huawei/iot_link/network/mqtt/paho_mqtt/paho/MQTTClient-C/src\MQTTClient.c **** {
 343:D:/fchai/work/i-cube/I-CUBE-HUAWEI/Middlewares/Third_Party/Huawei/iot_link/network/mqtt/paho_mqtt/paho/MQTTClient-C/src\MQTTClient.c ****     int rc = MQTT_SUCCESS;
 344:D:/fchai/work/i-cube/I-CUBE-HUAWEI/Middlewares/Third_Party/Huawei/iot_link/network/mqtt/paho_mqtt/paho/MQTTClient-C/src\MQTTClient.c **** 
 345:D:/fchai/work/i-cube/I-CUBE-HUAWEI/Middlewares/Third_Party/Huawei/iot_link/network/mqtt/paho_mqtt/paho/MQTTClient-C/src\MQTTClient.c ****     if (c->keepAliveInterval == 0)
 346:D:/fchai/work/i-cube/I-CUBE-HUAWEI/Middlewares/Third_Party/Huawei/iot_link/network/mqtt/paho_mqtt/paho/MQTTClient-C/src\MQTTClient.c ****         goto exit;
 347:D:/fchai/work/i-cube/I-CUBE-HUAWEI/Middlewares/Third_Party/Huawei/iot_link/network/mqtt/paho_mqtt/paho/MQTTClient-C/src\MQTTClient.c **** 
 348:D:/fchai/work/i-cube/I-CUBE-HUAWEI/Middlewares/Third_Party/Huawei/iot_link/network/mqtt/paho_mqtt/paho/MQTTClient-C/src\MQTTClient.c ****     ///<ACOCORDING TO THE protocol,we only care about the  send time
 349:D:/fchai/work/i-cube/I-CUBE-HUAWEI/Middlewares/Third_Party/Huawei/iot_link/network/mqtt/paho_mqtt/paho/MQTTClient-C/src\MQTTClient.c ****     if (TimerIsExpired(&c->last_sent))
 350:D:/fchai/work/i-cube/I-CUBE-HUAWEI/Middlewares/Third_Party/Huawei/iot_link/network/mqtt/paho_mqtt/paho/MQTTClient-C/src\MQTTClient.c ****     {
 351:D:/fchai/work/i-cube/I-CUBE-HUAWEI/Middlewares/Third_Party/Huawei/iot_link/network/mqtt/paho_mqtt/paho/MQTTClient-C/src\MQTTClient.c ****         if (c->ping_outstanding)
 352:D:/fchai/work/i-cube/I-CUBE-HUAWEI/Middlewares/Third_Party/Huawei/iot_link/network/mqtt/paho_mqtt/paho/MQTTClient-C/src\MQTTClient.c ****             rc = FAILURE; /* PINGRESP not received in keepalive interval */
 353:D:/fchai/work/i-cube/I-CUBE-HUAWEI/Middlewares/Third_Party/Huawei/iot_link/network/mqtt/paho_mqtt/paho/MQTTClient-C/src\MQTTClient.c ****         else
 354:D:/fchai/work/i-cube/I-CUBE-HUAWEI/Middlewares/Third_Party/Huawei/iot_link/network/mqtt/paho_mqtt/paho/MQTTClient-C/src\MQTTClient.c ****         {
 355:D:/fchai/work/i-cube/I-CUBE-HUAWEI/Middlewares/Third_Party/Huawei/iot_link/network/mqtt/paho_mqtt/paho/MQTTClient-C/src\MQTTClient.c ****             Timer timer;
 356:D:/fchai/work/i-cube/I-CUBE-HUAWEI/Middlewares/Third_Party/Huawei/iot_link/network/mqtt/paho_mqtt/paho/MQTTClient-C/src\MQTTClient.c ****             TimerInit(&timer);
 357:D:/fchai/work/i-cube/I-CUBE-HUAWEI/Middlewares/Third_Party/Huawei/iot_link/network/mqtt/paho_mqtt/paho/MQTTClient-C/src\MQTTClient.c ****             TimerCountdownMS(&timer, 1000);
 358:D:/fchai/work/i-cube/I-CUBE-HUAWEI/Middlewares/Third_Party/Huawei/iot_link/network/mqtt/paho_mqtt/paho/MQTTClient-C/src\MQTTClient.c ****             int len = MQTTSerialize_pingreq(c->buf, c->buf_size);
 359:D:/fchai/work/i-cube/I-CUBE-HUAWEI/Middlewares/Third_Party/Huawei/iot_link/network/mqtt/paho_mqtt/paho/MQTTClient-C/src\MQTTClient.c ****             if (len > 0 && (rc = sendPacket(c, len, &timer)) == MQTT_SUCCESS) // send the ping pack
 360:D:/fchai/work/i-cube/I-CUBE-HUAWEI/Middlewares/Third_Party/Huawei/iot_link/network/mqtt/paho_mqtt/paho/MQTTClient-C/src\MQTTClient.c ****                 c->ping_outstanding = 1;
 361:D:/fchai/work/i-cube/I-CUBE-HUAWEI/Middlewares/Third_Party/Huawei/iot_link/network/mqtt/paho_mqtt/paho/MQTTClient-C/src\MQTTClient.c ****         }
 362:D:/fchai/work/i-cube/I-CUBE-HUAWEI/Middlewares/Third_Party/Huawei/iot_link/network/mqtt/paho_mqtt/paho/MQTTClient-C/src\MQTTClient.c ****     }
 363:D:/fchai/work/i-cube/I-CUBE-HUAWEI/Middlewares/Third_Party/Huawei/iot_link/network/mqtt/paho_mqtt/paho/MQTTClient-C/src\MQTTClient.c **** 
 364:D:/fchai/work/i-cube/I-CUBE-HUAWEI/Middlewares/Third_Party/Huawei/iot_link/network/mqtt/paho_mqtt/paho/MQTTClient-C/src\MQTTClient.c **** exit:
 365:D:/fchai/work/i-cube/I-CUBE-HUAWEI/Middlewares/Third_Party/Huawei/iot_link/network/mqtt/paho_mqtt/paho/MQTTClient-C/src\MQTTClient.c ****     return rc;
 366:D:/fchai/work/i-cube/I-CUBE-HUAWEI/Middlewares/Third_Party/Huawei/iot_link/network/mqtt/paho_mqtt/paho/MQTTClient-C/src\MQTTClient.c **** }
 367:D:/fchai/work/i-cube/I-CUBE-HUAWEI/Middlewares/Third_Party/Huawei/iot_link/network/mqtt/paho_mqtt/paho/MQTTClient-C/src\MQTTClient.c **** 
 368:D:/fchai/work/i-cube/I-CUBE-HUAWEI/Middlewares/Third_Party/Huawei/iot_link/network/mqtt/paho_mqtt/paho/MQTTClient-C/src\MQTTClient.c **** 
 369:D:/fchai/work/i-cube/I-CUBE-HUAWEI/Middlewares/Third_Party/Huawei/iot_link/network/mqtt/paho_mqtt/paho/MQTTClient-C/src\MQTTClient.c **** void MQTTCleanSession(MQTTClient* c)
 370:D:/fchai/work/i-cube/I-CUBE-HUAWEI/Middlewares/Third_Party/Huawei/iot_link/network/mqtt/paho_mqtt/paho/MQTTClient-C/src\MQTTClient.c **** {
 371:D:/fchai/work/i-cube/I-CUBE-HUAWEI/Middlewares/Third_Party/Huawei/iot_link/network/mqtt/paho_mqtt/paho/MQTTClient-C/src\MQTTClient.c ****     int i = 0;
 372:D:/fchai/work/i-cube/I-CUBE-HUAWEI/Middlewares/Third_Party/Huawei/iot_link/network/mqtt/paho_mqtt/paho/MQTTClient-C/src\MQTTClient.c **** 
 373:D:/fchai/work/i-cube/I-CUBE-HUAWEI/Middlewares/Third_Party/Huawei/iot_link/network/mqtt/paho_mqtt/paho/MQTTClient-C/src\MQTTClient.c ****     for (i = 0; i < MAX_MESSAGE_HANDLERS; ++i)
 374:D:/fchai/work/i-cube/I-CUBE-HUAWEI/Middlewares/Third_Party/Huawei/iot_link/network/mqtt/paho_mqtt/paho/MQTTClient-C/src\MQTTClient.c ****         c->messageHandlers[i].topicFilter = NULL;
 375:D:/fchai/work/i-cube/I-CUBE-HUAWEI/Middlewares/Third_Party/Huawei/iot_link/network/mqtt/paho_mqtt/paho/MQTTClient-C/src\MQTTClient.c **** }
 376:D:/fchai/work/i-cube/I-CUBE-HUAWEI/Middlewares/Third_Party/Huawei/iot_link/network/mqtt/paho_mqtt/paho/MQTTClient-C/src\MQTTClient.c **** 
 377:D:/fchai/work/i-cube/I-CUBE-HUAWEI/Middlewares/Third_Party/Huawei/iot_link/network/mqtt/paho_mqtt/paho/MQTTClient-C/src\MQTTClient.c **** 
 378:D:/fchai/work/i-cube/I-CUBE-HUAWEI/Middlewares/Third_Party/Huawei/iot_link/network/mqtt/paho_mqtt/paho/MQTTClient-C/src\MQTTClient.c **** void MQTTCloseSession(MQTTClient* c)
 162              		.loc 1 378 6 is_stmt 1 view -0
 163              		.cfi_startproc
 164              		@ args = 0, pretend = 0, frame = 0
 165              		@ frame_needed = 0, uses_anonymous_args = 0
 166              		@ link register save eliminated.
 167              	.LBB59:
 168              	.LBB60:
 373:D:/fchai/work/i-cube/I-CUBE-HUAWEI/Middlewares/Third_Party/Huawei/iot_link/network/mqtt/paho_mqtt/paho/MQTTClient-C/src\MQTTClient.c ****         c->messageHandlers[i].topicFilter = NULL;
 169              		.loc 1 373 17 view .LVU40
 170 0000 00F17802 		add	r2, r0, #120
 374:D:/fchai/work/i-cube/I-CUBE-HUAWEI/Middlewares/Third_Party/Huawei/iot_link/network/mqtt/paho_mqtt/paho/MQTTClient-C/src\MQTTClient.c **** }
 171              		.loc 1 374 43 is_stmt 0 view .LVU41
 172 0004 0023     		movs	r3, #0
ARM GAS  T:\msys\tmp\ccsrUqql.s 			page 11


 173              	.LVL11:
 174              	.L12:
 374:D:/fchai/work/i-cube/I-CUBE-HUAWEI/Middlewares/Third_Party/Huawei/iot_link/network/mqtt/paho_mqtt/paho/MQTTClient-C/src\MQTTClient.c **** }
 175              		.loc 1 374 9 is_stmt 1 view .LVU42
 374:D:/fchai/work/i-cube/I-CUBE-HUAWEI/Middlewares/Third_Party/Huawei/iot_link/network/mqtt/paho_mqtt/paho/MQTTClient-C/src\MQTTClient.c **** }
 176              		.loc 1 374 43 is_stmt 0 view .LVU43
 177 0006 8362     		str	r3, [r0, #40]
 373:D:/fchai/work/i-cube/I-CUBE-HUAWEI/Middlewares/Third_Party/Huawei/iot_link/network/mqtt/paho_mqtt/paho/MQTTClient-C/src\MQTTClient.c ****         c->messageHandlers[i].topicFilter = NULL;
 178              		.loc 1 373 43 is_stmt 1 view .LVU44
 373:D:/fchai/work/i-cube/I-CUBE-HUAWEI/Middlewares/Third_Party/Huawei/iot_link/network/mqtt/paho_mqtt/paho/MQTTClient-C/src\MQTTClient.c ****         c->messageHandlers[i].topicFilter = NULL;
 179              		.loc 1 373 17 view .LVU45
 180 0008 0C30     		adds	r0, r0, #12
 373:D:/fchai/work/i-cube/I-CUBE-HUAWEI/Middlewares/Third_Party/Huawei/iot_link/network/mqtt/paho_mqtt/paho/MQTTClient-C/src\MQTTClient.c ****         c->messageHandlers[i].topicFilter = NULL;
 181              		.loc 1 373 5 is_stmt 0 view .LVU46
 182 000a 9042     		cmp	r0, r2
 183 000c FBD1     		bne	.L12
 184              	.LBE60:
 185              	.LBE59:
 379:D:/fchai/work/i-cube/I-CUBE-HUAWEI/Middlewares/Third_Party/Huawei/iot_link/network/mqtt/paho_mqtt/paho/MQTTClient-C/src\MQTTClient.c **** {
 380:D:/fchai/work/i-cube/I-CUBE-HUAWEI/Middlewares/Third_Party/Huawei/iot_link/network/mqtt/paho_mqtt/paho/MQTTClient-C/src\MQTTClient.c ****     c->ping_outstanding = 0;
 381:D:/fchai/work/i-cube/I-CUBE-HUAWEI/Middlewares/Third_Party/Huawei/iot_link/network/mqtt/paho_mqtt/paho/MQTTClient-C/src\MQTTClient.c ****     c->isconnected = 0;
 382:D:/fchai/work/i-cube/I-CUBE-HUAWEI/Middlewares/Third_Party/Huawei/iot_link/network/mqtt/paho_mqtt/paho/MQTTClient-C/src\MQTTClient.c ****     if (c->cleansession)
 383:D:/fchai/work/i-cube/I-CUBE-HUAWEI/Middlewares/Third_Party/Huawei/iot_link/network/mqtt/paho_mqtt/paho/MQTTClient-C/src\MQTTClient.c ****         MQTTCleanSession(c);
 384:D:/fchai/work/i-cube/I-CUBE-HUAWEI/Middlewares/Third_Party/Huawei/iot_link/network/mqtt/paho_mqtt/paho/MQTTClient-C/src\MQTTClient.c **** }
 186              		.loc 1 384 1 view .LVU47
 187 000e 7047     		bx	lr
 188              		.cfi_endproc
 189              	.LFE35:
 191              		.section	.text.MQTTClientInit,"ax",%progbits
 192              		.align	1
 193              		.p2align 2,,3
 194              		.global	MQTTClientInit
 195              		.syntax unified
 196              		.thumb
 197              		.thumb_func
 198              		.fpu fpv4-sp-d16
 200              	MQTTClientInit:
 201              	.LVL12:
 202              	.LFB7:
  56:D:/fchai/work/i-cube/I-CUBE-HUAWEI/Middlewares/Third_Party/Huawei/iot_link/network/mqtt/paho_mqtt/paho/MQTTClient-C/src\MQTTClient.c ****     int i;
 203              		.loc 1 56 1 is_stmt 1 view -0
 204              		.cfi_startproc
 205              		@ args = 12, pretend = 0, frame = 0
 206              		@ frame_needed = 0, uses_anonymous_args = 0
  57:D:/fchai/work/i-cube/I-CUBE-HUAWEI/Middlewares/Third_Party/Huawei/iot_link/network/mqtt/paho_mqtt/paho/MQTTClient-C/src\MQTTClient.c ****     c->ipstack = network;
 207              		.loc 1 57 5 view .LVU49
  58:D:/fchai/work/i-cube/I-CUBE-HUAWEI/Middlewares/Third_Party/Huawei/iot_link/network/mqtt/paho_mqtt/paho/MQTTClient-C/src\MQTTClient.c **** 
 208              		.loc 1 58 5 view .LVU50
  56:D:/fchai/work/i-cube/I-CUBE-HUAWEI/Middlewares/Third_Party/Huawei/iot_link/network/mqtt/paho_mqtt/paho/MQTTClient-C/src\MQTTClient.c ****     int i;
 209              		.loc 1 56 1 is_stmt 0 view .LVU51
 210 0000 F8B5     		push	{r3, r4, r5, r6, r7, lr}
 211              	.LCFI5:
 212              		.cfi_def_cfa_offset 24
 213              		.cfi_offset 3, -24
 214              		.cfi_offset 4, -20
 215              		.cfi_offset 5, -16
 216              		.cfi_offset 6, -12
ARM GAS  T:\msys\tmp\ccsrUqql.s 			page 12


 217              		.cfi_offset 7, -8
 218              		.cfi_offset 14, -4
  56:D:/fchai/work/i-cube/I-CUBE-HUAWEI/Middlewares/Third_Party/Huawei/iot_link/network/mqtt/paho_mqtt/paho/MQTTClient-C/src\MQTTClient.c ****     int i;
 219              		.loc 1 56 1 view .LVU52
 220 0002 DDE90776 		ldrd	r7, r6, [sp, #28]
  58:D:/fchai/work/i-cube/I-CUBE-HUAWEI/Middlewares/Third_Party/Huawei/iot_link/network/mqtt/paho_mqtt/paho/MQTTClient-C/src\MQTTClient.c **** 
 221              		.loc 1 58 16 view .LVU53
 222 0006 C0F8A410 		str	r1, [r0, #164]
  60:D:/fchai/work/i-cube/I-CUBE-HUAWEI/Middlewares/Third_Party/Huawei/iot_link/network/mqtt/paho_mqtt/paho/MQTTClient-C/src\MQTTClient.c ****         c->messageHandlers[i].topicFilter = 0;
 223              		.loc 1 60 5 is_stmt 1 view .LVU54
 224              	.LVL13:
  60:D:/fchai/work/i-cube/I-CUBE-HUAWEI/Middlewares/Third_Party/Huawei/iot_link/network/mqtt/paho_mqtt/paho/MQTTClient-C/src\MQTTClient.c ****         c->messageHandlers[i].topicFilter = 0;
 225              		.loc 1 60 17 view .LVU55
  56:D:/fchai/work/i-cube/I-CUBE-HUAWEI/Middlewares/Third_Party/Huawei/iot_link/network/mqtt/paho_mqtt/paho/MQTTClient-C/src\MQTTClient.c ****     int i;
 226              		.loc 1 56 1 is_stmt 0 view .LVU56
 227 000a 0446     		mov	r4, r0
 228 000c 0146     		mov	r1, r0
 229              	.LVL14:
  61:D:/fchai/work/i-cube/I-CUBE-HUAWEI/Middlewares/Third_Party/Huawei/iot_link/network/mqtt/paho_mqtt/paho/MQTTClient-C/src\MQTTClient.c ****     c->command_timeout_ms = command_timeout_ms;
 230              		.loc 1 61 43 view .LVU57
 231 000e 0025     		movs	r5, #0
 232 0010 7830     		adds	r0, r0, #120
 233              	.LVL15:
 234              	.L15:
  61:D:/fchai/work/i-cube/I-CUBE-HUAWEI/Middlewares/Third_Party/Huawei/iot_link/network/mqtt/paho_mqtt/paho/MQTTClient-C/src\MQTTClient.c ****     c->command_timeout_ms = command_timeout_ms;
 235              		.loc 1 61 9 is_stmt 1 discriminator 3 view .LVU58
  61:D:/fchai/work/i-cube/I-CUBE-HUAWEI/Middlewares/Third_Party/Huawei/iot_link/network/mqtt/paho_mqtt/paho/MQTTClient-C/src\MQTTClient.c ****     c->command_timeout_ms = command_timeout_ms;
 236              		.loc 1 61 43 is_stmt 0 discriminator 3 view .LVU59
 237 0012 8D62     		str	r5, [r1, #40]
  60:D:/fchai/work/i-cube/I-CUBE-HUAWEI/Middlewares/Third_Party/Huawei/iot_link/network/mqtt/paho_mqtt/paho/MQTTClient-C/src\MQTTClient.c ****         c->messageHandlers[i].topicFilter = 0;
 238              		.loc 1 60 43 is_stmt 1 discriminator 3 view .LVU60
  60:D:/fchai/work/i-cube/I-CUBE-HUAWEI/Middlewares/Third_Party/Huawei/iot_link/network/mqtt/paho_mqtt/paho/MQTTClient-C/src\MQTTClient.c ****         c->messageHandlers[i].topicFilter = 0;
 239              		.loc 1 60 17 discriminator 3 view .LVU61
 240 0014 0C31     		adds	r1, r1, #12
  60:D:/fchai/work/i-cube/I-CUBE-HUAWEI/Middlewares/Third_Party/Huawei/iot_link/network/mqtt/paho_mqtt/paho/MQTTClient-C/src\MQTTClient.c ****         c->messageHandlers[i].topicFilter = 0;
 241              		.loc 1 60 5 is_stmt 0 discriminator 3 view .LVU62
 242 0016 8142     		cmp	r1, r0
 243 0018 FBD1     		bne	.L15
  62:D:/fchai/work/i-cube/I-CUBE-HUAWEI/Middlewares/Third_Party/Huawei/iot_link/network/mqtt/paho_mqtt/paho/MQTTClient-C/src\MQTTClient.c ****     c->buf = sendbuf;
 244              		.loc 1 62 5 is_stmt 1 view .LVU63
  71:D:/fchai/work/i-cube/I-CUBE-HUAWEI/Middlewares/Third_Party/Huawei/iot_link/network/mqtt/paho_mqtt/paho/MQTTClient-C/src\MQTTClient.c ****     TimerInit(&c->last_sent);
 245              		.loc 1 71 19 is_stmt 0 view .LVU64
 246 001a 2046     		mov	r0, r4
  62:D:/fchai/work/i-cube/I-CUBE-HUAWEI/Middlewares/Third_Party/Huawei/iot_link/network/mqtt/paho_mqtt/paho/MQTTClient-C/src\MQTTClient.c ****     c->buf = sendbuf;
 247              		.loc 1 62 27 view .LVU65
 248 001c 6260     		str	r2, [r4, #4]
  63:D:/fchai/work/i-cube/I-CUBE-HUAWEI/Middlewares/Third_Party/Huawei/iot_link/network/mqtt/paho_mqtt/paho/MQTTClient-C/src\MQTTClient.c ****     c->buf_size = sendbuf_size;
 249              		.loc 1 63 5 is_stmt 1 view .LVU66
  63:D:/fchai/work/i-cube/I-CUBE-HUAWEI/Middlewares/Third_Party/Huawei/iot_link/network/mqtt/paho_mqtt/paho/MQTTClient-C/src\MQTTClient.c ****     c->buf_size = sendbuf_size;
 250              		.loc 1 63 12 is_stmt 0 view .LVU67
 251 001e 2361     		str	r3, [r4, #16]
  64:D:/fchai/work/i-cube/I-CUBE-HUAWEI/Middlewares/Third_Party/Huawei/iot_link/network/mqtt/paho_mqtt/paho/MQTTClient-C/src\MQTTClient.c ****     c->readbuf = readbuf;
 252              		.loc 1 64 5 is_stmt 1 view .LVU68
  71:D:/fchai/work/i-cube/I-CUBE-HUAWEI/Middlewares/Third_Party/Huawei/iot_link/network/mqtt/paho_mqtt/paho/MQTTClient-C/src\MQTTClient.c ****     TimerInit(&c->last_sent);
 253              		.loc 1 71 19 is_stmt 0 view .LVU69
 254 0020 0122     		movs	r2, #1
 255              	.LVL16:
ARM GAS  T:\msys\tmp\ccsrUqql.s 			page 13


  64:D:/fchai/work/i-cube/I-CUBE-HUAWEI/Middlewares/Third_Party/Huawei/iot_link/network/mqtt/paho_mqtt/paho/MQTTClient-C/src\MQTTClient.c ****     c->readbuf = readbuf;
 256              		.loc 1 64 17 view .LVU70
 257 0022 069B     		ldr	r3, [sp, #24]
 258              	.LVL17:
  64:D:/fchai/work/i-cube/I-CUBE-HUAWEI/Middlewares/Third_Party/Huawei/iot_link/network/mqtt/paho_mqtt/paho/MQTTClient-C/src\MQTTClient.c ****     c->readbuf = readbuf;
 259              		.loc 1 64 17 view .LVU71
 260 0024 A360     		str	r3, [r4, #8]
  65:D:/fchai/work/i-cube/I-CUBE-HUAWEI/Middlewares/Third_Party/Huawei/iot_link/network/mqtt/paho_mqtt/paho/MQTTClient-C/src\MQTTClient.c ****     c->readbuf_size = readbuf_size;
 261              		.loc 1 65 5 is_stmt 1 view .LVU72
  68:D:/fchai/work/i-cube/I-CUBE-HUAWEI/Middlewares/Third_Party/Huawei/iot_link/network/mqtt/paho_mqtt/paho/MQTTClient-C/src\MQTTClient.c ****     c->ping_outstanding = 0;
 262              		.loc 1 68 21 is_stmt 0 view .LVU73
 263 0026 C4E90855 		strd	r5, r5, [r4, #32]
  65:D:/fchai/work/i-cube/I-CUBE-HUAWEI/Middlewares/Third_Party/Huawei/iot_link/network/mqtt/paho_mqtt/paho/MQTTClient-C/src\MQTTClient.c ****     c->readbuf_size = readbuf_size;
 264              		.loc 1 65 16 view .LVU74
 265 002a 6761     		str	r7, [r4, #20]
  66:D:/fchai/work/i-cube/I-CUBE-HUAWEI/Middlewares/Third_Party/Huawei/iot_link/network/mqtt/paho_mqtt/paho/MQTTClient-C/src\MQTTClient.c ****     c->isconnected = 0;
 266              		.loc 1 66 5 is_stmt 1 view .LVU75
  66:D:/fchai/work/i-cube/I-CUBE-HUAWEI/Middlewares/Third_Party/Huawei/iot_link/network/mqtt/paho_mqtt/paho/MQTTClient-C/src\MQTTClient.c ****     c->isconnected = 0;
 267              		.loc 1 66 21 is_stmt 0 view .LVU76
 268 002c E660     		str	r6, [r4, #12]
  67:D:/fchai/work/i-cube/I-CUBE-HUAWEI/Middlewares/Third_Party/Huawei/iot_link/network/mqtt/paho_mqtt/paho/MQTTClient-C/src\MQTTClient.c ****     c->cleansession = 0;
 269              		.loc 1 67 5 is_stmt 1 view .LVU77
  69:D:/fchai/work/i-cube/I-CUBE-HUAWEI/Middlewares/Third_Party/Huawei/iot_link/network/mqtt/paho_mqtt/paho/MQTTClient-C/src\MQTTClient.c ****     c->defaultMessageHandler = NULL;
 270              		.loc 1 69 5 view .LVU78
  69:D:/fchai/work/i-cube/I-CUBE-HUAWEI/Middlewares/Third_Party/Huawei/iot_link/network/mqtt/paho_mqtt/paho/MQTTClient-C/src\MQTTClient.c ****     c->defaultMessageHandler = NULL;
 271              		.loc 1 69 25 is_stmt 0 view .LVU79
 272 002e 2577     		strb	r5, [r4, #28]
  70:D:/fchai/work/i-cube/I-CUBE-HUAWEI/Middlewares/Third_Party/Huawei/iot_link/network/mqtt/paho_mqtt/paho/MQTTClient-C/src\MQTTClient.c **** 	c->next_packetid = 1;
 273              		.loc 1 70 5 is_stmt 1 view .LVU80
  70:D:/fchai/work/i-cube/I-CUBE-HUAWEI/Middlewares/Third_Party/Huawei/iot_link/network/mqtt/paho_mqtt/paho/MQTTClient-C/src\MQTTClient.c **** 	c->next_packetid = 1;
 274              		.loc 1 70 30 is_stmt 0 view .LVU81
 275 0030 C4F8A050 		str	r5, [r4, #160]
  71:D:/fchai/work/i-cube/I-CUBE-HUAWEI/Middlewares/Third_Party/Huawei/iot_link/network/mqtt/paho_mqtt/paho/MQTTClient-C/src\MQTTClient.c ****     TimerInit(&c->last_sent);
 276              		.loc 1 71 2 is_stmt 1 view .LVU82
  71:D:/fchai/work/i-cube/I-CUBE-HUAWEI/Middlewares/Third_Party/Huawei/iot_link/network/mqtt/paho_mqtt/paho/MQTTClient-C/src\MQTTClient.c ****     TimerInit(&c->last_sent);
 277              		.loc 1 71 19 is_stmt 0 view .LVU83
 278 0034 40F8A82B 		str	r2, [r0], #168
 279              	.LVL18:
  72:D:/fchai/work/i-cube/I-CUBE-HUAWEI/Middlewares/Third_Party/Huawei/iot_link/network/mqtt/paho_mqtt/paho/MQTTClient-C/src\MQTTClient.c ****     TimerInit(&c->last_received);
 280              		.loc 1 72 5 is_stmt 1 view .LVU84
 281 0038 FFF7FEFF 		bl	osal_loop_timer_init
 282              	.LVL19:
  73:D:/fchai/work/i-cube/I-CUBE-HUAWEI/Middlewares/Third_Party/Huawei/iot_link/network/mqtt/paho_mqtt/paho/MQTTClient-C/src\MQTTClient.c **** #if defined(MQTT_TASK)
 283              		.loc 1 73 5 view .LVU85
 284 003c 04F1B000 		add	r0, r4, #176
 285 0040 FFF7FEFF 		bl	osal_loop_timer_init
 286              	.LVL20:
  75:D:/fchai/work/i-cube/I-CUBE-HUAWEI/Middlewares/Third_Party/Huawei/iot_link/network/mqtt/paho_mqtt/paho/MQTTClient-C/src\MQTTClient.c ****     {
 287              		.loc 1 75 5 view .LVU86
  75:D:/fchai/work/i-cube/I-CUBE-HUAWEI/Middlewares/Third_Party/Huawei/iot_link/network/mqtt/paho_mqtt/paho/MQTTClient-C/src\MQTTClient.c ****     {
 288              		.loc 1 75 9 is_stmt 0 view .LVU87
 289 0044 04F1B800 		add	r0, r4, #184
 290 0048 FFF7FEFF 		bl	osal_mutex_create
 291              	.LVL21:
  81:D:/fchai/work/i-cube/I-CUBE-HUAWEI/Middlewares/Third_Party/Huawei/iot_link/network/mqtt/paho_mqtt/paho/MQTTClient-C/src\MQTTClient.c **** 
 292              		.loc 1 81 1 view .LVU88
 293 004c 0138     		subs	r0, r0, #1
ARM GAS  T:\msys\tmp\ccsrUqql.s 			page 14


 294 004e 18BF     		it	ne
 295 0050 4FF0FF30 		movne	r0, #-1
 296 0054 F8BD     		pop	{r3, r4, r5, r6, r7, pc}
  81:D:/fchai/work/i-cube/I-CUBE-HUAWEI/Middlewares/Third_Party/Huawei/iot_link/network/mqtt/paho_mqtt/paho/MQTTClient-C/src\MQTTClient.c **** 
 297              		.loc 1 81 1 view .LVU89
 298              		.cfi_endproc
 299              	.LFE7:
 301 0056 00BF     		.section	.text.MQTTClientDeInit,"ax",%progbits
 302              		.align	1
 303              		.p2align 2,,3
 304              		.global	MQTTClientDeInit
 305              		.syntax unified
 306              		.thumb
 307              		.thumb_func
 308              		.fpu fpv4-sp-d16
 310              	MQTTClientDeInit:
 311              	.LVL22:
 312              	.LFB8:
  84:D:/fchai/work/i-cube/I-CUBE-HUAWEI/Middlewares/Third_Party/Huawei/iot_link/network/mqtt/paho_mqtt/paho/MQTTClient-C/src\MQTTClient.c ****     if(!c)
 313              		.loc 1 84 1 is_stmt 1 view -0
 314              		.cfi_startproc
 315              		@ args = 0, pretend = 0, frame = 0
 316              		@ frame_needed = 0, uses_anonymous_args = 0
 317              		@ link register save eliminated.
  85:D:/fchai/work/i-cube/I-CUBE-HUAWEI/Middlewares/Third_Party/Huawei/iot_link/network/mqtt/paho_mqtt/paho/MQTTClient-C/src\MQTTClient.c ****         return;
 318              		.loc 1 85 5 view .LVU91
  85:D:/fchai/work/i-cube/I-CUBE-HUAWEI/Middlewares/Third_Party/Huawei/iot_link/network/mqtt/paho_mqtt/paho/MQTTClient-C/src\MQTTClient.c ****         return;
 319              		.loc 1 85 7 is_stmt 0 view .LVU92
 320 0000 18B1     		cbz	r0, .L18
  88:D:/fchai/work/i-cube/I-CUBE-HUAWEI/Middlewares/Third_Party/Huawei/iot_link/network/mqtt/paho_mqtt/paho/MQTTClient-C/src\MQTTClient.c **** #endif
 321              		.loc 1 88 5 is_stmt 1 view .LVU93
 322 0002 D0F8B800 		ldr	r0, [r0, #184]
 323              	.LVL23:
  88:D:/fchai/work/i-cube/I-CUBE-HUAWEI/Middlewares/Third_Party/Huawei/iot_link/network/mqtt/paho_mqtt/paho/MQTTClient-C/src\MQTTClient.c **** #endif
 324              		.loc 1 88 5 is_stmt 0 view .LVU94
 325 0006 FFF7FEBF 		b	osal_mutex_del
 326              	.LVL24:
 327              	.L18:
  91:D:/fchai/work/i-cube/I-CUBE-HUAWEI/Middlewares/Third_Party/Huawei/iot_link/network/mqtt/paho_mqtt/paho/MQTTClient-C/src\MQTTClient.c **** 
 328              		.loc 1 91 1 view .LVU95
 329 000a 7047     		bx	lr
 330              		.cfi_endproc
 331              	.LFE8:
 333              		.section	.text.deliverMessage,"ax",%progbits
 334              		.align	1
 335              		.p2align 2,,3
 336              		.global	deliverMessage
 337              		.syntax unified
 338              		.thumb
 339              		.thumb_func
 340              		.fpu fpv4-sp-d16
 342              	deliverMessage:
 343              	.LVL25:
 344              	.LFB12:
 306:D:/fchai/work/i-cube/I-CUBE-HUAWEI/Middlewares/Third_Party/Huawei/iot_link/network/mqtt/paho_mqtt/paho/MQTTClient-C/src\MQTTClient.c ****     int i;
 345              		.loc 1 306 1 is_stmt 1 view -0
 346              		.cfi_startproc
ARM GAS  T:\msys\tmp\ccsrUqql.s 			page 15


 347              		@ args = 0, pretend = 0, frame = 48
 348              		@ frame_needed = 0, uses_anonymous_args = 0
 307:D:/fchai/work/i-cube/I-CUBE-HUAWEI/Middlewares/Third_Party/Huawei/iot_link/network/mqtt/paho_mqtt/paho/MQTTClient-C/src\MQTTClient.c ****     int rc = FAILURE;
 349              		.loc 1 307 5 view .LVU97
 308:D:/fchai/work/i-cube/I-CUBE-HUAWEI/Middlewares/Third_Party/Huawei/iot_link/network/mqtt/paho_mqtt/paho/MQTTClient-C/src\MQTTClient.c ****     char match_rst = 0;
 350              		.loc 1 308 5 view .LVU98
 309:D:/fchai/work/i-cube/I-CUBE-HUAWEI/Middlewares/Third_Party/Huawei/iot_link/network/mqtt/paho_mqtt/paho/MQTTClient-C/src\MQTTClient.c **** 
 351              		.loc 1 309 5 view .LVU99
 312:D:/fchai/work/i-cube/I-CUBE-HUAWEI/Middlewares/Third_Party/Huawei/iot_link/network/mqtt/paho_mqtt/paho/MQTTClient-C/src\MQTTClient.c ****     {
 352              		.loc 1 312 5 view .LVU100
 312:D:/fchai/work/i-cube/I-CUBE-HUAWEI/Middlewares/Third_Party/Huawei/iot_link/network/mqtt/paho_mqtt/paho/MQTTClient-C/src\MQTTClient.c ****     {
 353              		.loc 1 312 17 view .LVU101
 306:D:/fchai/work/i-cube/I-CUBE-HUAWEI/Middlewares/Third_Party/Huawei/iot_link/network/mqtt/paho_mqtt/paho/MQTTClient-C/src\MQTTClient.c ****     int i;
 354              		.loc 1 306 1 is_stmt 0 view .LVU102
 355 0000 2DE9F04F 		push	{r4, r5, r6, r7, r8, r9, r10, fp, lr}
 356              	.LCFI6:
 357              		.cfi_def_cfa_offset 36
 358              		.cfi_offset 4, -36
 359              		.cfi_offset 5, -32
 360              		.cfi_offset 6, -28
 361              		.cfi_offset 7, -24
 362              		.cfi_offset 8, -20
 363              		.cfi_offset 9, -16
 364              		.cfi_offset 10, -12
 365              		.cfi_offset 11, -8
 366              		.cfi_offset 14, -4
 367 0004 0346     		mov	r3, r0
 368 0006 8DB0     		sub	sp, sp, #52
 369              	.LCFI7:
 370              		.cfi_def_cfa_offset 88
 371 0008 7833     		adds	r3, r3, #120
 372 000a 0193     		str	r3, [sp, #4]
 308:D:/fchai/work/i-cube/I-CUBE-HUAWEI/Middlewares/Third_Party/Huawei/iot_link/network/mqtt/paho_mqtt/paho/MQTTClient-C/src\MQTTClient.c ****     char match_rst = 0;
 373              		.loc 1 308 9 view .LVU103
 374 000c 4FF0FF33 		mov	r3, #-1
 306:D:/fchai/work/i-cube/I-CUBE-HUAWEI/Middlewares/Third_Party/Huawei/iot_link/network/mqtt/paho_mqtt/paho/MQTTClient-C/src\MQTTClient.c ****     int i;
 375              		.loc 1 306 1 view .LVU104
 376 0010 0790     		str	r0, [sp, #28]
 377 0012 0291     		str	r1, [sp, #8]
 378 0014 0692     		str	r2, [sp, #24]
 379 0016 8346     		mov	fp, r0
 308:D:/fchai/work/i-cube/I-CUBE-HUAWEI/Middlewares/Third_Party/Huawei/iot_link/network/mqtt/paho_mqtt/paho/MQTTClient-C/src\MQTTClient.c ****     char match_rst = 0;
 380              		.loc 1 308 9 view .LVU105
 381 0018 0493     		str	r3, [sp, #16]
 382              	.LVL26:
 383              	.L42:
 314:D:/fchai/work/i-cube/I-CUBE-HUAWEI/Middlewares/Third_Party/Huawei/iot_link/network/mqtt/paho_mqtt/paho/MQTTClient-C/src\MQTTClient.c ****         {
 384              		.loc 1 314 9 is_stmt 1 view .LVU106
 314:D:/fchai/work/i-cube/I-CUBE-HUAWEI/Middlewares/Third_Party/Huawei/iot_link/network/mqtt/paho_mqtt/paho/MQTTClient-C/src\MQTTClient.c ****         {
 385              		.loc 1 314 34 is_stmt 0 view .LVU107
 386 001a DBF82890 		ldr	r9, [fp, #40]
 314:D:/fchai/work/i-cube/I-CUBE-HUAWEI/Middlewares/Third_Party/Huawei/iot_link/network/mqtt/paho_mqtt/paho/MQTTClient-C/src\MQTTClient.c ****         {
 387              		.loc 1 314 12 view .LVU108
 388 001e B9F1000F 		cmp	r9, #0
 389 0022 75D0     		beq	.L21
 316:D:/fchai/work/i-cube/I-CUBE-HUAWEI/Middlewares/Third_Party/Huawei/iot_link/network/mqtt/paho_mqtt/paho/MQTTClient-C/src\MQTTClient.c ****             if (1 == match_rst && c->messageHandlers[i].fp != NULL)
 390              		.loc 1 316 13 is_stmt 1 view .LVU109
ARM GAS  T:\msys\tmp\ccsrUqql.s 			page 16


 391              	.LVL27:
 392              	.LBB74:
 393              	.LBI74:
 161:D:/fchai/work/i-cube/I-CUBE-HUAWEI/Middlewares/Third_Party/Huawei/iot_link/network/mqtt/paho_mqtt/paho/MQTTClient-C/src\MQTTClient.c **** {
 394              		.loc 1 161 12 view .LVU110
 395              	.LBB75:
 163:D:/fchai/work/i-cube/I-CUBE-HUAWEI/Middlewares/Third_Party/Huawei/iot_link/network/mqtt/paho_mqtt/paho/MQTTClient-C/src\MQTTClient.c ****     int spos, tpos;
 396              		.loc 1 163 5 view .LVU111
 164:D:/fchai/work/i-cube/I-CUBE-HUAWEI/Middlewares/Third_Party/Huawei/iot_link/network/mqtt/paho_mqtt/paho/MQTTClient-C/src\MQTTClient.c ****     char multilevel_wildcard = 0;
 397              		.loc 1 164 5 view .LVU112
 165:D:/fchai/work/i-cube/I-CUBE-HUAWEI/Middlewares/Third_Party/Huawei/iot_link/network/mqtt/paho_mqtt/paho/MQTTClient-C/src\MQTTClient.c ****     char *topic;
 398              		.loc 1 165 5 view .LVU113
 166:D:/fchai/work/i-cube/I-CUBE-HUAWEI/Middlewares/Third_Party/Huawei/iot_link/network/mqtt/paho_mqtt/paho/MQTTClient-C/src\MQTTClient.c **** 
 399              		.loc 1 166 5 view .LVU114
 168:D:/fchai/work/i-cube/I-CUBE-HUAWEI/Middlewares/Third_Party/Huawei/iot_link/network/mqtt/paho_mqtt/paho/MQTTClient-C/src\MQTTClient.c ****         return -1;
 400              		.loc 1 168 5 view .LVU115
 170:D:/fchai/work/i-cube/I-CUBE-HUAWEI/Middlewares/Third_Party/Huawei/iot_link/network/mqtt/paho_mqtt/paho/MQTTClient-C/src\MQTTClient.c **** 
 401              		.loc 1 170 5 view .LVU116
 172:D:/fchai/work/i-cube/I-CUBE-HUAWEI/Middlewares/Third_Party/Huawei/iot_link/network/mqtt/paho_mqtt/paho/MQTTClient-C/src\MQTTClient.c ****     {
 402              		.loc 1 172 5 view .LVU117
 172:D:/fchai/work/i-cube/I-CUBE-HUAWEI/Middlewares/Third_Party/Huawei/iot_link/network/mqtt/paho_mqtt/paho/MQTTClient-C/src\MQTTClient.c ****     {
 403              		.loc 1 172 13 is_stmt 0 view .LVU118
 404 0024 029C     		ldr	r4, [sp, #8]
 405 0026 002C     		cmp	r4, #0
 406 0028 72D0     		beq	.L21
 177:D:/fchai/work/i-cube/I-CUBE-HUAWEI/Middlewares/Third_Party/Huawei/iot_link/network/mqtt/paho_mqtt/paho/MQTTClient-C/src\MQTTClient.c **** 
 407              		.loc 1 177 5 is_stmt 1 view .LVU119
 177:D:/fchai/work/i-cube/I-CUBE-HUAWEI/Middlewares/Third_Party/Huawei/iot_link/network/mqtt/paho_mqtt/paho/MQTTClient-C/src\MQTTClient.c **** 
 408              		.loc 1 177 14 is_stmt 0 view .LVU120
 409 002a 4846     		mov	r0, r9
 410 002c FFF7FEFF 		bl	strlen
 411              	.LVL28:
 179:D:/fchai/work/i-cube/I-CUBE-HUAWEI/Middlewares/Third_Party/Huawei/iot_link/network/mqtt/paho_mqtt/paho/MQTTClient-C/src\MQTTClient.c ****     {
 412              		.loc 1 179 18 view .LVU121
 413 0030 D4F80080 		ldr	r8, [r4]
 177:D:/fchai/work/i-cube/I-CUBE-HUAWEI/Middlewares/Third_Party/Huawei/iot_link/network/mqtt/paho_mqtt/paho/MQTTClient-C/src\MQTTClient.c **** 
 414              		.loc 1 177 14 view .LVU122
 415 0034 0446     		mov	r4, r0
 416              	.LVL29:
 179:D:/fchai/work/i-cube/I-CUBE-HUAWEI/Middlewares/Third_Party/Huawei/iot_link/network/mqtt/paho_mqtt/paho/MQTTClient-C/src\MQTTClient.c ****     {
 417              		.loc 1 179 5 is_stmt 1 view .LVU123
 179:D:/fchai/work/i-cube/I-CUBE-HUAWEI/Middlewares/Third_Party/Huawei/iot_link/network/mqtt/paho_mqtt/paho/MQTTClient-C/src\MQTTClient.c ****     {
 418              		.loc 1 179 7 is_stmt 0 view .LVU124
 419 0036 B8F1000F 		cmp	r8, #0
 420 003a 00F08F80 		beq	.L22
 181:D:/fchai/work/i-cube/I-CUBE-HUAWEI/Middlewares/Third_Party/Huawei/iot_link/network/mqtt/paho_mqtt/paho/MQTTClient-C/src\MQTTClient.c ****         topiclen = strlen(topic_name->cstring);
 421              		.loc 1 181 9 is_stmt 1 view .LVU125
 422              	.LVL30:
 182:D:/fchai/work/i-cube/I-CUBE-HUAWEI/Middlewares/Third_Party/Huawei/iot_link/network/mqtt/paho_mqtt/paho/MQTTClient-C/src\MQTTClient.c ****     }
 423              		.loc 1 182 9 view .LVU126
 182:D:/fchai/work/i-cube/I-CUBE-HUAWEI/Middlewares/Third_Party/Huawei/iot_link/network/mqtt/paho_mqtt/paho/MQTTClient-C/src\MQTTClient.c ****     }
 424              		.loc 1 182 20 is_stmt 0 view .LVU127
 425 003e 4046     		mov	r0, r8
 426              	.LVL31:
 182:D:/fchai/work/i-cube/I-CUBE-HUAWEI/Middlewares/Third_Party/Huawei/iot_link/network/mqtt/paho_mqtt/paho/MQTTClient-C/src\MQTTClient.c ****     }
 427              		.loc 1 182 20 view .LVU128
 428 0040 FFF7FEFF 		bl	strlen
ARM GAS  T:\msys\tmp\ccsrUqql.s 			page 17


 429              	.LVL32:
 430 0044 0246     		mov	r2, r0
 431              	.LVL33:
 432              	.L23:
 190:D:/fchai/work/i-cube/I-CUBE-HUAWEI/Middlewares/Third_Party/Huawei/iot_link/network/mqtt/paho_mqtt/paho/MQTTClient-C/src\MQTTClient.c ****     {
 433              		.loc 1 190 5 is_stmt 1 view .LVU129
 190:D:/fchai/work/i-cube/I-CUBE-HUAWEI/Middlewares/Third_Party/Huawei/iot_link/network/mqtt/paho_mqtt/paho/MQTTClient-C/src\MQTTClient.c ****     {
 434              		.loc 1 190 7 is_stmt 0 view .LVU130
 435 0046 002C     		cmp	r4, #0
 436 0048 62D0     		beq	.L21
 190:D:/fchai/work/i-cube/I-CUBE-HUAWEI/Middlewares/Third_Party/Huawei/iot_link/network/mqtt/paho_mqtt/paho/MQTTClient-C/src\MQTTClient.c ****     {
 437              		.loc 1 190 16 view .LVU131
 438 004a 002A     		cmp	r2, #0
 439 004c 60D0     		beq	.L21
 196:D:/fchai/work/i-cube/I-CUBE-HUAWEI/Middlewares/Third_Party/Huawei/iot_link/network/mqtt/paho_mqtt/paho/MQTTClient-C/src\MQTTClient.c ****     {
 440              		.loc 1 196 5 is_stmt 1 view .LVU132
 198:D:/fchai/work/i-cube/I-CUBE-HUAWEI/Middlewares/Third_Party/Huawei/iot_link/network/mqtt/paho_mqtt/paho/MQTTClient-C/src\MQTTClient.c ****                 || (topic[0] == '$' && sub[0] != '$'))
 441              		.loc 1 198 9 view .LVU133
 198:D:/fchai/work/i-cube/I-CUBE-HUAWEI/Middlewares/Third_Party/Huawei/iot_link/network/mqtt/paho_mqtt/paho/MQTTClient-C/src\MQTTClient.c ****                 || (topic[0] == '$' && sub[0] != '$'))
 442              		.loc 1 198 11 is_stmt 0 view .LVU134
 443 004e 99F80030 		ldrb	r3, [r9]	@ zero_extendqisi2
 444 0052 242B     		cmp	r3, #36
 198:D:/fchai/work/i-cube/I-CUBE-HUAWEI/Middlewares/Third_Party/Huawei/iot_link/network/mqtt/paho_mqtt/paho/MQTTClient-C/src\MQTTClient.c ****                 || (topic[0] == '$' && sub[0] != '$'))
 445              		.loc 1 198 27 view .LVU135
 446 0054 98F80030 		ldrb	r3, [r8]	@ zero_extendqisi2
 198:D:/fchai/work/i-cube/I-CUBE-HUAWEI/Middlewares/Third_Party/Huawei/iot_link/network/mqtt/paho_mqtt/paho/MQTTClient-C/src\MQTTClient.c ****                 || (topic[0] == '$' && sub[0] != '$'))
 447              		.loc 1 198 11 view .LVU136
 448 0058 7DD0     		beq	.L89
 199:D:/fchai/work/i-cube/I-CUBE-HUAWEI/Middlewares/Third_Party/Huawei/iot_link/network/mqtt/paho_mqtt/paho/MQTTClient-C/src\MQTTClient.c ****         {
 449              		.loc 1 199 17 view .LVU137
 450 005a 242B     		cmp	r3, #36
 451 005c 58D0     		beq	.L21
 452              	.L25:
 177:D:/fchai/work/i-cube/I-CUBE-HUAWEI/Middlewares/Third_Party/Huawei/iot_link/network/mqtt/paho_mqtt/paho/MQTTClient-C/src\MQTTClient.c **** 
 453              		.loc 1 177 12 view .LVU138
 454 005e 0020     		movs	r0, #0
 212:D:/fchai/work/i-cube/I-CUBE-HUAWEI/Middlewares/Third_Party/Huawei/iot_link/network/mqtt/paho_mqtt/paho/MQTTClient-C/src\MQTTClient.c ****             {
 455              		.loc 1 212 33 view .LVU139
 456 0060 551E     		subs	r5, r2, #1
 215:D:/fchai/work/i-cube/I-CUBE-HUAWEI/Middlewares/Third_Party/Huawei/iot_link/network/mqtt/paho_mqtt/paho/MQTTClient-C/src\MQTTClient.c ****                 {
 457              		.loc 1 215 35 view .LVU140
 458 0062 E71E     		subs	r7, r4, #3
 459 0064 4E46     		mov	r6, r9
 460 0066 CDF81490 		str	r9, [sp, #20]
 177:D:/fchai/work/i-cube/I-CUBE-HUAWEI/Middlewares/Third_Party/Huawei/iot_link/network/mqtt/paho_mqtt/paho/MQTTClient-C/src\MQTTClient.c **** 
 461              		.loc 1 177 12 view .LVU141
 462 006a 0346     		mov	r3, r0
 463 006c 0121     		movs	r1, #1
 250:D:/fchai/work/i-cube/I-CUBE-HUAWEI/Middlewares/Third_Party/Huawei/iot_link/network/mqtt/paho_mqtt/paho/MQTTClient-C/src\MQTTClient.c ****                 {
 464              		.loc 1 250 34 view .LVU142
 465 006e 04F1FF3A 		add	r10, r4, #-1
 215:D:/fchai/work/i-cube/I-CUBE-HUAWEI/Middlewares/Third_Party/Huawei/iot_link/network/mqtt/paho_mqtt/paho/MQTTClient-C/src\MQTTClient.c ****                 {
 466              		.loc 1 215 35 view .LVU143
 467 0072 0397     		str	r7, [sp, #12]
 468 0074 A946     		mov	r9, r5
 469              	.LVL34:
 470              	.L40:
ARM GAS  T:\msys\tmp\ccsrUqql.s 			page 18


 208:D:/fchai/work/i-cube/I-CUBE-HUAWEI/Middlewares/Third_Party/Huawei/iot_link/network/mqtt/paho_mqtt/paho/MQTTClient-C/src\MQTTClient.c ****     {
 471              		.loc 1 208 25 view .LVU144
 472 0076 9A42     		cmp	r2, r3
 473 0078 4ADB     		blt	.L21
 210:D:/fchai/work/i-cube/I-CUBE-HUAWEI/Middlewares/Third_Party/Huawei/iot_link/network/mqtt/paho_mqtt/paho/MQTTClient-C/src\MQTTClient.c ****         {
 474              		.loc 1 210 9 is_stmt 1 view .LVU145
 210:D:/fchai/work/i-cube/I-CUBE-HUAWEI/Middlewares/Third_Party/Huawei/iot_link/network/mqtt/paho_mqtt/paho/MQTTClient-C/src\MQTTClient.c ****         {
 475              		.loc 1 210 15 is_stmt 0 view .LVU146
 476 007a 16F801CB 		ldrb	ip, [r6], #1	@ zero_extendqisi2
 210:D:/fchai/work/i-cube/I-CUBE-HUAWEI/Middlewares/Third_Party/Huawei/iot_link/network/mqtt/paho_mqtt/paho/MQTTClient-C/src\MQTTClient.c ****         {
 477              		.loc 1 210 22 view .LVU147
 478 007e 18F80370 		ldrb	r7, [r8, r3]	@ zero_extendqisi2
 210:D:/fchai/work/i-cube/I-CUBE-HUAWEI/Middlewares/Third_Party/Huawei/iot_link/network/mqtt/paho_mqtt/paho/MQTTClient-C/src\MQTTClient.c ****         {
 479              		.loc 1 210 11 view .LVU148
 480 0082 BC45     		cmp	ip, r7
 210:D:/fchai/work/i-cube/I-CUBE-HUAWEI/Middlewares/Third_Party/Huawei/iot_link/network/mqtt/paho_mqtt/paho/MQTTClient-C/src\MQTTClient.c ****         {
 481              		.loc 1 210 30 view .LVU149
 482 0084 08EB0305 		add	r5, r8, r3
 210:D:/fchai/work/i-cube/I-CUBE-HUAWEI/Middlewares/Third_Party/Huawei/iot_link/network/mqtt/paho_mqtt/paho/MQTTClient-C/src\MQTTClient.c ****         {
 483              		.loc 1 210 11 view .LVU150
 484 0088 23D0     		beq	.L90
 242:D:/fchai/work/i-cube/I-CUBE-HUAWEI/Middlewares/Third_Party/Huawei/iot_link/network/mqtt/paho_mqtt/paho/MQTTClient-C/src\MQTTClient.c ****             {
 485              		.loc 1 242 13 is_stmt 1 view .LVU151
 242:D:/fchai/work/i-cube/I-CUBE-HUAWEI/Middlewares/Third_Party/Huawei/iot_link/network/mqtt/paho_mqtt/paho/MQTTClient-C/src\MQTTClient.c ****             {
 486              		.loc 1 242 15 is_stmt 0 view .LVU152
 487 008a BCF12B0F 		cmp	ip, #43
 488 008e 6AD1     		bne	.L31
 245:D:/fchai/work/i-cube/I-CUBE-HUAWEI/Middlewares/Third_Party/Huawei/iot_link/network/mqtt/paho_mqtt/paho/MQTTClient-C/src\MQTTClient.c ****                 {
 489              		.loc 1 245 17 is_stmt 1 view .LVU153
 245:D:/fchai/work/i-cube/I-CUBE-HUAWEI/Middlewares/Third_Party/Huawei/iot_link/network/mqtt/paho_mqtt/paho/MQTTClient-C/src\MQTTClient.c ****                 {
 490              		.loc 1 245 19 is_stmt 0 view .LVU154
 491 0090 20B1     		cbz	r0, .L32
 245:D:/fchai/work/i-cube/I-CUBE-HUAWEI/Middlewares/Third_Party/Huawei/iot_link/network/mqtt/paho_mqtt/paho/MQTTClient-C/src\MQTTClient.c ****                 {
 492              		.loc 1 245 29 view .LVU155
 493 0092 16F802CC 		ldrb	ip, [r6, #-2]	@ zero_extendqisi2
 494 0096 BCF12F0F 		cmp	ip, #47
 495 009a 39D1     		bne	.L21
 496              	.L32:
 250:D:/fchai/work/i-cube/I-CUBE-HUAWEI/Middlewares/Third_Party/Huawei/iot_link/network/mqtt/paho_mqtt/paho/MQTTClient-C/src\MQTTClient.c ****                 {
 497              		.loc 1 250 17 is_stmt 1 view .LVU156
 250:D:/fchai/work/i-cube/I-CUBE-HUAWEI/Middlewares/Third_Party/Huawei/iot_link/network/mqtt/paho_mqtt/paho/MQTTClient-C/src\MQTTClient.c ****                 {
 498              		.loc 1 250 19 is_stmt 0 view .LVU157
 499 009c 8245     		cmp	r10, r0
 500 009e 04DD     		ble	.L33
 250:D:/fchai/work/i-cube/I-CUBE-HUAWEI/Middlewares/Third_Party/Huawei/iot_link/network/mqtt/paho_mqtt/paho/MQTTClient-C/src\MQTTClient.c ****                 {
 501              		.loc 1 250 38 view .LVU158
 502 00a0 96F800C0 		ldrb	ip, [r6]	@ zero_extendqisi2
 503 00a4 BCF12F0F 		cmp	ip, #47
 504 00a8 32D1     		bne	.L21
 505              	.L33:
 254:D:/fchai/work/i-cube/I-CUBE-HUAWEI/Middlewares/Third_Party/Huawei/iot_link/network/mqtt/paho_mqtt/paho/MQTTClient-C/src\MQTTClient.c ****                 while(tpos < topiclen && topic[tpos] != '/')
 506              		.loc 1 254 17 is_stmt 1 view .LVU159
 255:D:/fchai/work/i-cube/I-CUBE-HUAWEI/Middlewares/Third_Party/Huawei/iot_link/network/mqtt/paho_mqtt/paho/MQTTClient-C/src\MQTTClient.c ****                 {
 507              		.loc 1 255 22 is_stmt 0 view .LVU160
 508 00aa 9A42     		cmp	r2, r3
 254:D:/fchai/work/i-cube/I-CUBE-HUAWEI/Middlewares/Third_Party/Huawei/iot_link/network/mqtt/paho_mqtt/paho/MQTTClient-C/src\MQTTClient.c ****                 while(tpos < topiclen && topic[tpos] != '/')
 509              		.loc 1 254 21 view .LVU161
ARM GAS  T:\msys\tmp\ccsrUqql.s 			page 19


 510 00ac 8E46     		mov	lr, r1
 511              	.LVL35:
 255:D:/fchai/work/i-cube/I-CUBE-HUAWEI/Middlewares/Third_Party/Huawei/iot_link/network/mqtt/paho_mqtt/paho/MQTTClient-C/src\MQTTClient.c ****                 {
 512              		.loc 1 255 17 is_stmt 1 view .LVU162
 255:D:/fchai/work/i-cube/I-CUBE-HUAWEI/Middlewares/Third_Party/Huawei/iot_link/network/mqtt/paho_mqtt/paho/MQTTClient-C/src\MQTTClient.c ****                 {
 513              		.loc 1 255 22 view .LVU163
 514 00ae 05DC     		bgt	.L35
 515 00b0 06E0     		b	.L34
 516              	.L37:
 257:D:/fchai/work/i-cube/I-CUBE-HUAWEI/Middlewares/Third_Party/Huawei/iot_link/network/mqtt/paho_mqtt/paho/MQTTClient-C/src\MQTTClient.c ****                 }
 517              		.loc 1 257 25 is_stmt 0 view .LVU164
 518 00b2 0133     		adds	r3, r3, #1
 519              	.LVL36:
 255:D:/fchai/work/i-cube/I-CUBE-HUAWEI/Middlewares/Third_Party/Huawei/iot_link/network/mqtt/paho_mqtt/paho/MQTTClient-C/src\MQTTClient.c ****                 {
 520              		.loc 1 255 22 is_stmt 1 view .LVU165
 521 00b4 9A42     		cmp	r2, r3
 522 00b6 3AD0     		beq	.L36
 523 00b8 15F8017F 		ldrb	r7, [r5, #1]!	@ zero_extendqisi2
 524              	.L35:
 257:D:/fchai/work/i-cube/I-CUBE-HUAWEI/Middlewares/Third_Party/Huawei/iot_link/network/mqtt/paho_mqtt/paho/MQTTClient-C/src\MQTTClient.c ****                 }
 525              		.loc 1 257 21 view .LVU166
 255:D:/fchai/work/i-cube/I-CUBE-HUAWEI/Middlewares/Third_Party/Huawei/iot_link/network/mqtt/paho_mqtt/paho/MQTTClient-C/src\MQTTClient.c ****                 {
 526              		.loc 1 255 39 is_stmt 0 view .LVU167
 527 00bc 2F2F     		cmp	r7, #47
 528 00be F8D1     		bne	.L37
 529              	.L34:
 259:D:/fchai/work/i-cube/I-CUBE-HUAWEI/Middlewares/Third_Party/Huawei/iot_link/network/mqtt/paho_mqtt/paho/MQTTClient-C/src\MQTTClient.c ****                 {
 530              		.loc 1 259 17 is_stmt 1 view .LVU168
 259:D:/fchai/work/i-cube/I-CUBE-HUAWEI/Middlewares/Third_Party/Huawei/iot_link/network/mqtt/paho_mqtt/paho/MQTTClient-C/src\MQTTClient.c ****                 {
 531              		.loc 1 259 19 is_stmt 0 view .LVU169
 532 00c0 9A42     		cmp	r2, r3
 533 00c2 34D0     		beq	.L36
 534              	.L30:
 208:D:/fchai/work/i-cube/I-CUBE-HUAWEI/Middlewares/Third_Party/Huawei/iot_link/network/mqtt/paho_mqtt/paho/MQTTClient-C/src\MQTTClient.c ****     {
 535              		.loc 1 208 10 is_stmt 1 view .LVU170
 536 00c4 7445     		cmp	r4, lr
 537 00c6 00F10100 		add	r0, r0, #1
 538 00ca 01F10101 		add	r1, r1, #1
 539              	.LVL37:
 208:D:/fchai/work/i-cube/I-CUBE-HUAWEI/Middlewares/Third_Party/Huawei/iot_link/network/mqtt/paho_mqtt/paho/MQTTClient-C/src\MQTTClient.c ****     {
 540              		.loc 1 208 10 is_stmt 0 view .LVU171
 541 00ce D2DC     		bgt	.L40
 208:D:/fchai/work/i-cube/I-CUBE-HUAWEI/Middlewares/Third_Party/Huawei/iot_link/network/mqtt/paho_mqtt/paho/MQTTClient-C/src\MQTTClient.c ****     {
 542              		.loc 1 208 10 view .LVU172
 543 00d0 1EE0     		b	.L21
 544              	.LVL38:
 545              	.L90:
 212:D:/fchai/work/i-cube/I-CUBE-HUAWEI/Middlewares/Third_Party/Huawei/iot_link/network/mqtt/paho_mqtt/paho/MQTTClient-C/src\MQTTClient.c ****             {
 546              		.loc 1 212 13 is_stmt 1 view .LVU173
 212:D:/fchai/work/i-cube/I-CUBE-HUAWEI/Middlewares/Third_Party/Huawei/iot_link/network/mqtt/paho_mqtt/paho/MQTTClient-C/src\MQTTClient.c ****             {
 547              		.loc 1 212 15 is_stmt 0 view .LVU174
 548 00d2 9945     		cmp	r9, r3
 549 00d4 2ED0     		beq	.L91
 550              	.L27:
 222:D:/fchai/work/i-cube/I-CUBE-HUAWEI/Middlewares/Third_Party/Huawei/iot_link/network/mqtt/paho_mqtt/paho/MQTTClient-C/src\MQTTClient.c ****             tpos++;
 551              		.loc 1 222 13 is_stmt 1 view .LVU175
 224:D:/fchai/work/i-cube/I-CUBE-HUAWEI/Middlewares/Third_Party/Huawei/iot_link/network/mqtt/paho_mqtt/paho/MQTTClient-C/src\MQTTClient.c ****             {
ARM GAS  T:\msys\tmp\ccsrUqql.s 			page 20


 552              		.loc 1 224 15 is_stmt 0 view .LVU176
 553 00d6 8C42     		cmp	r4, r1
 223:D:/fchai/work/i-cube/I-CUBE-HUAWEI/Middlewares/Third_Party/Huawei/iot_link/network/mqtt/paho_mqtt/paho/MQTTClient-C/src\MQTTClient.c ****             if(spos == sublen && tpos == topiclen)
 554              		.loc 1 223 17 view .LVU177
 555 00d8 03F10103 		add	r3, r3, #1
 556              	.LVL39:
 222:D:/fchai/work/i-cube/I-CUBE-HUAWEI/Middlewares/Third_Party/Huawei/iot_link/network/mqtt/paho_mqtt/paho/MQTTClient-C/src\MQTTClient.c ****             tpos++;
 557              		.loc 1 222 17 view .LVU178
 558 00dc 8E46     		mov	lr, r1
 559              	.LVL40:
 223:D:/fchai/work/i-cube/I-CUBE-HUAWEI/Middlewares/Third_Party/Huawei/iot_link/network/mqtt/paho_mqtt/paho/MQTTClient-C/src\MQTTClient.c ****             if(spos == sublen && tpos == topiclen)
 560              		.loc 1 223 13 is_stmt 1 view .LVU179
 224:D:/fchai/work/i-cube/I-CUBE-HUAWEI/Middlewares/Third_Party/Huawei/iot_link/network/mqtt/paho_mqtt/paho/MQTTClient-C/src\MQTTClient.c ****             {
 561              		.loc 1 224 13 view .LVU180
 224:D:/fchai/work/i-cube/I-CUBE-HUAWEI/Middlewares/Third_Party/Huawei/iot_link/network/mqtt/paho_mqtt/paho/MQTTClient-C/src\MQTTClient.c ****             {
 562              		.loc 1 224 15 is_stmt 0 view .LVU181
 563 00de 37D0     		beq	.L92
 564              	.L29:
 229:D:/fchai/work/i-cube/I-CUBE-HUAWEI/Middlewares/Third_Party/Huawei/iot_link/network/mqtt/paho_mqtt/paho/MQTTClient-C/src\MQTTClient.c ****             {
 565              		.loc 1 229 18 is_stmt 1 view .LVU182
 229:D:/fchai/work/i-cube/I-CUBE-HUAWEI/Middlewares/Third_Party/Huawei/iot_link/network/mqtt/paho_mqtt/paho/MQTTClient-C/src\MQTTClient.c ****             {
 566              		.loc 1 229 20 is_stmt 0 view .LVU183
 567 00e0 9A42     		cmp	r2, r3
 568 00e2 EFD1     		bne	.L30
 229:D:/fchai/work/i-cube/I-CUBE-HUAWEI/Middlewares/Third_Party/Huawei/iot_link/network/mqtt/paho_mqtt/paho/MQTTClient-C/src\MQTTClient.c ****             {
 569              		.loc 1 229 38 view .LVU184
 570 00e4 5145     		cmp	r1, r10
 571 00e6 EDD1     		bne	.L30
 229:D:/fchai/work/i-cube/I-CUBE-HUAWEI/Middlewares/Third_Party/Huawei/iot_link/network/mqtt/paho_mqtt/paho/MQTTClient-C/src\MQTTClient.c ****             {
 572              		.loc 1 229 60 view .LVU185
 573 00e8 3578     		ldrb	r5, [r6]	@ zero_extendqisi2
 574 00ea 2B2D     		cmp	r5, #43
 575 00ec EAD1     		bne	.L30
 231:D:/fchai/work/i-cube/I-CUBE-HUAWEI/Middlewares/Third_Party/Huawei/iot_link/network/mqtt/paho_mqtt/paho/MQTTClient-C/src\MQTTClient.c ****                 {
 576              		.loc 1 231 17 is_stmt 1 view .LVU186
 231:D:/fchai/work/i-cube/I-CUBE-HUAWEI/Middlewares/Third_Party/Huawei/iot_link/network/mqtt/paho_mqtt/paho/MQTTClient-C/src\MQTTClient.c ****                 {
 577              		.loc 1 231 29 is_stmt 0 view .LVU187
 578 00ee BCF12F0F 		cmp	ip, #47
 579 00f2 0DD1     		bne	.L21
 580              	.LVL41:
 581              	.L28:
 231:D:/fchai/work/i-cube/I-CUBE-HUAWEI/Middlewares/Third_Party/Huawei/iot_link/network/mqtt/paho_mqtt/paho/MQTTClient-C/src\MQTTClient.c ****                 {
 582              		.loc 1 231 29 view .LVU188
 583              	.LBE75:
 584              	.LBE74:
 317:D:/fchai/work/i-cube/I-CUBE-HUAWEI/Middlewares/Third_Party/Huawei/iot_link/network/mqtt/paho_mqtt/paho/MQTTClient-C/src\MQTTClient.c ****             {
 585              		.loc 1 317 56 discriminator 1 view .LVU189
 586 00f4 DBF82C30 		ldr	r3, [fp, #44]
 317:D:/fchai/work/i-cube/I-CUBE-HUAWEI/Middlewares/Third_Party/Huawei/iot_link/network/mqtt/paho_mqtt/paho/MQTTClient-C/src\MQTTClient.c ****             {
 587              		.loc 1 317 32 discriminator 1 view .LVU190
 588 00f8 53B1     		cbz	r3, .L21
 589              	.LBB77:
 319:D:/fchai/work/i-cube/I-CUBE-HUAWEI/Middlewares/Third_Party/Huawei/iot_link/network/mqtt/paho_mqtt/paho/MQTTClient-C/src\MQTTClient.c ****                 NewMessageData(&md, topicName, message);
 590              		.loc 1 319 17 is_stmt 1 view .LVU191
 320:D:/fchai/work/i-cube/I-CUBE-HUAWEI/Middlewares/Third_Party/Huawei/iot_link/network/mqtt/paho_mqtt/paho/MQTTClient-C/src\MQTTClient.c **** 
 591              		.loc 1 320 17 view .LVU192
 592              	.LVL42:
ARM GAS  T:\msys\tmp\ccsrUqql.s 			page 21


 593              	.LBB78:
 594              	.LBI78:
  20:D:/fchai/work/i-cube/I-CUBE-HUAWEI/Middlewares/Third_Party/Huawei/iot_link/network/mqtt/paho_mqtt/paho/MQTTClient-C/src\MQTTClient.c ****     md->topicName = aTopicName;
 595              		.loc 1 20 13 view .LVU193
 596              	.LBB79:
  21:D:/fchai/work/i-cube/I-CUBE-HUAWEI/Middlewares/Third_Party/Huawei/iot_link/network/mqtt/paho_mqtt/paho/MQTTClient-C/src\MQTTClient.c ****     md->message = aMessage;
 597              		.loc 1 21 5 view .LVU194
  21:D:/fchai/work/i-cube/I-CUBE-HUAWEI/Middlewares/Third_Party/Huawei/iot_link/network/mqtt/paho_mqtt/paho/MQTTClient-C/src\MQTTClient.c ****     md->message = aMessage;
 598              		.loc 1 21 19 is_stmt 0 view .LVU195
 599 00fa 0299     		ldr	r1, [sp, #8]
 600              	.LBE79:
 601              	.LBE78:
 322:D:/fchai/work/i-cube/I-CUBE-HUAWEI/Middlewares/Third_Party/Huawei/iot_link/network/mqtt/paho_mqtt/paho/MQTTClient-C/src\MQTTClient.c ****                 c->messageHandlers[i].fp(&md);
 602              		.loc 1 322 24 view .LVU196
 603 00fc DBF83020 		ldr	r2, [fp, #48]
 604              	.LBB81:
 605              	.LBB80:
  21:D:/fchai/work/i-cube/I-CUBE-HUAWEI/Middlewares/Third_Party/Huawei/iot_link/network/mqtt/paho_mqtt/paho/MQTTClient-C/src\MQTTClient.c ****     md->message = aMessage;
 606              		.loc 1 21 19 view .LVU197
 607 0100 0A91     		str	r1, [sp, #40]
  22:D:/fchai/work/i-cube/I-CUBE-HUAWEI/Middlewares/Third_Party/Huawei/iot_link/network/mqtt/paho_mqtt/paho/MQTTClient-C/src\MQTTClient.c **** }
 608              		.loc 1 22 5 is_stmt 1 view .LVU198
  22:D:/fchai/work/i-cube/I-CUBE-HUAWEI/Middlewares/Third_Party/Huawei/iot_link/network/mqtt/paho_mqtt/paho/MQTTClient-C/src\MQTTClient.c **** }
 609              		.loc 1 22 17 is_stmt 0 view .LVU199
 610 0102 0699     		ldr	r1, [sp, #24]
 611 0104 0991     		str	r1, [sp, #36]
 612              	.LVL43:
  22:D:/fchai/work/i-cube/I-CUBE-HUAWEI/Middlewares/Third_Party/Huawei/iot_link/network/mqtt/paho_mqtt/paho/MQTTClient-C/src\MQTTClient.c **** }
 613              		.loc 1 22 17 view .LVU200
 614              	.LBE80:
 615              	.LBE81:
 322:D:/fchai/work/i-cube/I-CUBE-HUAWEI/Middlewares/Third_Party/Huawei/iot_link/network/mqtt/paho_mqtt/paho/MQTTClient-C/src\MQTTClient.c ****                 c->messageHandlers[i].fp(&md);
 616              		.loc 1 322 17 is_stmt 1 view .LVU201
 322:D:/fchai/work/i-cube/I-CUBE-HUAWEI/Middlewares/Third_Party/Huawei/iot_link/network/mqtt/paho_mqtt/paho/MQTTClient-C/src\MQTTClient.c ****                 c->messageHandlers[i].fp(&md);
 617              		.loc 1 322 24 is_stmt 0 view .LVU202
 618 0106 0B92     		str	r2, [sp, #44]
 323:D:/fchai/work/i-cube/I-CUBE-HUAWEI/Middlewares/Third_Party/Huawei/iot_link/network/mqtt/paho_mqtt/paho/MQTTClient-C/src\MQTTClient.c ****                 rc = MQTT_SUCCESS;
 619              		.loc 1 323 17 is_stmt 1 view .LVU203
 620 0108 09A8     		add	r0, sp, #36
 621              	.LVL44:
 323:D:/fchai/work/i-cube/I-CUBE-HUAWEI/Middlewares/Third_Party/Huawei/iot_link/network/mqtt/paho_mqtt/paho/MQTTClient-C/src\MQTTClient.c ****                 rc = MQTT_SUCCESS;
 622              		.loc 1 323 17 is_stmt 0 view .LVU204
 623 010a 9847     		blx	r3
 624              	.LVL45:
 324:D:/fchai/work/i-cube/I-CUBE-HUAWEI/Middlewares/Third_Party/Huawei/iot_link/network/mqtt/paho_mqtt/paho/MQTTClient-C/src\MQTTClient.c ****             }
 625              		.loc 1 324 17 is_stmt 1 view .LVU205
 324:D:/fchai/work/i-cube/I-CUBE-HUAWEI/Middlewares/Third_Party/Huawei/iot_link/network/mqtt/paho_mqtt/paho/MQTTClient-C/src\MQTTClient.c ****             }
 626              		.loc 1 324 20 is_stmt 0 view .LVU206
 627 010c 0023     		movs	r3, #0
 628 010e 0493     		str	r3, [sp, #16]
 629              	.LVL46:
 630              	.L21:
 324:D:/fchai/work/i-cube/I-CUBE-HUAWEI/Middlewares/Third_Party/Huawei/iot_link/network/mqtt/paho_mqtt/paho/MQTTClient-C/src\MQTTClient.c ****             }
 631              		.loc 1 324 20 view .LVU207
 632              	.LBE77:
 312:D:/fchai/work/i-cube/I-CUBE-HUAWEI/Middlewares/Third_Party/Huawei/iot_link/network/mqtt/paho_mqtt/paho/MQTTClient-C/src\MQTTClient.c ****     {
 633              		.loc 1 312 43 is_stmt 1 discriminator 2 view .LVU208
ARM GAS  T:\msys\tmp\ccsrUqql.s 			page 22


 312:D:/fchai/work/i-cube/I-CUBE-HUAWEI/Middlewares/Third_Party/Huawei/iot_link/network/mqtt/paho_mqtt/paho/MQTTClient-C/src\MQTTClient.c ****     {
 634              		.loc 1 312 17 discriminator 2 view .LVU209
 312:D:/fchai/work/i-cube/I-CUBE-HUAWEI/Middlewares/Third_Party/Huawei/iot_link/network/mqtt/paho_mqtt/paho/MQTTClient-C/src\MQTTClient.c ****     {
 635              		.loc 1 312 5 is_stmt 0 discriminator 2 view .LVU210
 636 0110 019B     		ldr	r3, [sp, #4]
 637 0112 0BF10C0B 		add	fp, fp, #12
 638 0116 9B45     		cmp	fp, r3
 639 0118 7FF47FAF 		bne	.L42
 329:D:/fchai/work/i-cube/I-CUBE-HUAWEI/Middlewares/Third_Party/Huawei/iot_link/network/mqtt/paho_mqtt/paho/MQTTClient-C/src\MQTTClient.c ****     {
 640              		.loc 1 329 5 is_stmt 1 view .LVU211
 329:D:/fchai/work/i-cube/I-CUBE-HUAWEI/Middlewares/Third_Party/Huawei/iot_link/network/mqtt/paho_mqtt/paho/MQTTClient-C/src\MQTTClient.c ****     {
 641              		.loc 1 329 8 is_stmt 0 view .LVU212
 642 011c 049B     		ldr	r3, [sp, #16]
 643 011e 002B     		cmp	r3, #0
 644 0120 43D1     		bne	.L93
 645 0122 0023     		movs	r3, #0
 646 0124 0493     		str	r3, [sp, #16]
 647              	.LVL47:
 337:D:/fchai/work/i-cube/I-CUBE-HUAWEI/Middlewares/Third_Party/Huawei/iot_link/network/mqtt/paho_mqtt/paho/MQTTClient-C/src\MQTTClient.c **** }
 648              		.loc 1 337 5 is_stmt 1 view .LVU213
 649              	.L20:
 338:D:/fchai/work/i-cube/I-CUBE-HUAWEI/Middlewares/Third_Party/Huawei/iot_link/network/mqtt/paho_mqtt/paho/MQTTClient-C/src\MQTTClient.c **** 
 650              		.loc 1 338 1 is_stmt 0 view .LVU214
 651 0126 0498     		ldr	r0, [sp, #16]
 652 0128 0DB0     		add	sp, sp, #52
 653              	.LCFI8:
 654              		.cfi_remember_state
 655              		.cfi_def_cfa_offset 36
 656              		@ sp needed
 657 012a BDE8F08F 		pop	{r4, r5, r6, r7, r8, r9, r10, fp, pc}
 658              	.LVL48:
 659              	.L36:
 660              	.LCFI9:
 661              		.cfi_restore_state
 662              	.LBB82:
 663              	.LBB76:
 259:D:/fchai/work/i-cube/I-CUBE-HUAWEI/Middlewares/Third_Party/Huawei/iot_link/network/mqtt/paho_mqtt/paho/MQTTClient-C/src\MQTTClient.c ****                 {
 664              		.loc 1 259 37 view .LVU215
 665 012e 8C42     		cmp	r4, r1
 666 0130 C8D1     		bne	.L30
 667 0132 DFE7     		b	.L28
 668              	.LVL49:
 669              	.L91:
 215:D:/fchai/work/i-cube/I-CUBE-HUAWEI/Middlewares/Third_Party/Huawei/iot_link/network/mqtt/paho_mqtt/paho/MQTTClient-C/src\MQTTClient.c ****                 {
 670              		.loc 1 215 17 is_stmt 1 view .LVU216
 215:D:/fchai/work/i-cube/I-CUBE-HUAWEI/Middlewares/Third_Party/Huawei/iot_link/network/mqtt/paho_mqtt/paho/MQTTClient-C/src\MQTTClient.c ****                 {
 671              		.loc 1 215 19 is_stmt 0 view .LVU217
 672 0134 039D     		ldr	r5, [sp, #12]
 673 0136 8542     		cmp	r5, r0
 674 0138 CDD1     		bne	.L27
 215:D:/fchai/work/i-cube/I-CUBE-HUAWEI/Middlewares/Third_Party/Huawei/iot_link/network/mqtt/paho_mqtt/paho/MQTTClient-C/src\MQTTClient.c ****                 {
 675              		.loc 1 215 39 view .LVU218
 676 013a 3578     		ldrb	r5, [r6]	@ zero_extendqisi2
 677 013c 2F2D     		cmp	r5, #47
 678 013e CAD1     		bne	.L27
 215:D:/fchai/work/i-cube/I-CUBE-HUAWEI/Middlewares/Third_Party/Huawei/iot_link/network/mqtt/paho_mqtt/paho/MQTTClient-C/src\MQTTClient.c ****                 {
 679              		.loc 1 215 63 view .LVU219
ARM GAS  T:\msys\tmp\ccsrUqql.s 			page 23


 680 0140 7578     		ldrb	r5, [r6, #1]	@ zero_extendqisi2
 681 0142 232D     		cmp	r5, #35
 682 0144 D6D0     		beq	.L28
 222:D:/fchai/work/i-cube/I-CUBE-HUAWEI/Middlewares/Third_Party/Huawei/iot_link/network/mqtt/paho_mqtt/paho/MQTTClient-C/src\MQTTClient.c ****             tpos++;
 683              		.loc 1 222 13 is_stmt 1 view .LVU220
 224:D:/fchai/work/i-cube/I-CUBE-HUAWEI/Middlewares/Third_Party/Huawei/iot_link/network/mqtt/paho_mqtt/paho/MQTTClient-C/src\MQTTClient.c ****             {
 684              		.loc 1 224 15 is_stmt 0 view .LVU221
 685 0146 8C42     		cmp	r4, r1
 223:D:/fchai/work/i-cube/I-CUBE-HUAWEI/Middlewares/Third_Party/Huawei/iot_link/network/mqtt/paho_mqtt/paho/MQTTClient-C/src\MQTTClient.c ****             if(spos == sublen && tpos == topiclen)
 686              		.loc 1 223 17 view .LVU222
 687 0148 03F10103 		add	r3, r3, #1
 688              	.LVL50:
 222:D:/fchai/work/i-cube/I-CUBE-HUAWEI/Middlewares/Third_Party/Huawei/iot_link/network/mqtt/paho_mqtt/paho/MQTTClient-C/src\MQTTClient.c ****             tpos++;
 689              		.loc 1 222 17 view .LVU223
 690 014c 8E46     		mov	lr, r1
 691              	.LVL51:
 223:D:/fchai/work/i-cube/I-CUBE-HUAWEI/Middlewares/Third_Party/Huawei/iot_link/network/mqtt/paho_mqtt/paho/MQTTClient-C/src\MQTTClient.c ****             if(spos == sublen && tpos == topiclen)
 692              		.loc 1 223 13 is_stmt 1 view .LVU224
 224:D:/fchai/work/i-cube/I-CUBE-HUAWEI/Middlewares/Third_Party/Huawei/iot_link/network/mqtt/paho_mqtt/paho/MQTTClient-C/src\MQTTClient.c ****             {
 693              		.loc 1 224 13 view .LVU225
 224:D:/fchai/work/i-cube/I-CUBE-HUAWEI/Middlewares/Third_Party/Huawei/iot_link/network/mqtt/paho_mqtt/paho/MQTTClient-C/src\MQTTClient.c ****             {
 694              		.loc 1 224 15 is_stmt 0 view .LVU226
 695 014e C7D1     		bne	.L29
 696              	.L92:
 224:D:/fchai/work/i-cube/I-CUBE-HUAWEI/Middlewares/Third_Party/Huawei/iot_link/network/mqtt/paho_mqtt/paho/MQTTClient-C/src\MQTTClient.c ****             {
 697              		.loc 1 224 31 view .LVU227
 698 0150 9A42     		cmp	r2, r3
 699 0152 DDD1     		bne	.L21
 224:D:/fchai/work/i-cube/I-CUBE-HUAWEI/Middlewares/Third_Party/Huawei/iot_link/network/mqtt/paho_mqtt/paho/MQTTClient-C/src\MQTTClient.c ****             {
 700              		.loc 1 224 31 view .LVU228
 701 0154 CEE7     		b	.L28
 702              	.LVL52:
 703              	.L89:
 198:D:/fchai/work/i-cube/I-CUBE-HUAWEI/Middlewares/Third_Party/Huawei/iot_link/network/mqtt/paho_mqtt/paho/MQTTClient-C/src\MQTTClient.c ****                 || (topic[0] == '$' && sub[0] != '$'))
 704              		.loc 1 198 27 view .LVU229
 705 0156 242B     		cmp	r3, #36
 706 0158 DAD1     		bne	.L21
 707 015a 80E7     		b	.L25
 708              	.LVL53:
 709              	.L22:
 186:D:/fchai/work/i-cube/I-CUBE-HUAWEI/Middlewares/Third_Party/Huawei/iot_link/network/mqtt/paho_mqtt/paho/MQTTClient-C/src\MQTTClient.c ****         topiclen = topic_name->lenstring.len;
 710              		.loc 1 186 9 is_stmt 1 view .LVU230
 186:D:/fchai/work/i-cube/I-CUBE-HUAWEI/Middlewares/Third_Party/Huawei/iot_link/network/mqtt/paho_mqtt/paho/MQTTClient-C/src\MQTTClient.c ****         topiclen = topic_name->lenstring.len;
 711              		.loc 1 186 15 is_stmt 0 view .LVU231
 712 015c 029B     		ldr	r3, [sp, #8]
 713 015e D3F80880 		ldr	r8, [r3, #8]
 714              	.LVL54:
 187:D:/fchai/work/i-cube/I-CUBE-HUAWEI/Middlewares/Third_Party/Huawei/iot_link/network/mqtt/paho_mqtt/paho/MQTTClient-C/src\MQTTClient.c ****     }
 715              		.loc 1 187 9 is_stmt 1 view .LVU232
 187:D:/fchai/work/i-cube/I-CUBE-HUAWEI/Middlewares/Third_Party/Huawei/iot_link/network/mqtt/paho_mqtt/paho/MQTTClient-C/src\MQTTClient.c ****     }
 716              		.loc 1 187 18 is_stmt 0 view .LVU233
 717 0162 5A68     		ldr	r2, [r3, #4]
 718              	.LVL55:
 187:D:/fchai/work/i-cube/I-CUBE-HUAWEI/Middlewares/Third_Party/Huawei/iot_link/network/mqtt/paho_mqtt/paho/MQTTClient-C/src\MQTTClient.c ****     }
 719              		.loc 1 187 18 view .LVU234
 720 0164 6FE7     		b	.L23
 721              	.LVL56:
ARM GAS  T:\msys\tmp\ccsrUqql.s 			page 24


 722              	.L31:
 265:D:/fchai/work/i-cube/I-CUBE-HUAWEI/Middlewares/Third_Party/Huawei/iot_link/network/mqtt/paho_mqtt/paho/MQTTClient-C/src\MQTTClient.c ****             {
 723              		.loc 1 265 20 view .LVU235
 724 0166 BCF1230F 		cmp	ip, #35
 725 016a DDF81490 		ldr	r9, [sp, #20]
 265:D:/fchai/work/i-cube/I-CUBE-HUAWEI/Middlewares/Third_Party/Huawei/iot_link/network/mqtt/paho_mqtt/paho/MQTTClient-C/src\MQTTClient.c ****             {
 726              		.loc 1 265 18 is_stmt 1 view .LVU236
 265:D:/fchai/work/i-cube/I-CUBE-HUAWEI/Middlewares/Third_Party/Huawei/iot_link/network/mqtt/paho_mqtt/paho/MQTTClient-C/src\MQTTClient.c ****             {
 727              		.loc 1 265 20 is_stmt 0 view .LVU237
 728 016e 12D0     		beq	.L94
 285:D:/fchai/work/i-cube/I-CUBE-HUAWEI/Middlewares/Third_Party/Huawei/iot_link/network/mqtt/paho_mqtt/paho/MQTTClient-C/src\MQTTClient.c ****                         && sub[spos - 1] == '+' && sub[spos] == '/' && sub[spos + 1] == '#')
 729              		.loc 1 285 17 is_stmt 1 view .LVU238
 285:D:/fchai/work/i-cube/I-CUBE-HUAWEI/Middlewares/Third_Party/Huawei/iot_link/network/mqtt/paho_mqtt/paho/MQTTClient-C/src\MQTTClient.c ****                         && sub[spos - 1] == '+' && sub[spos] == '/' && sub[spos + 1] == '#')
 730              		.loc 1 285 19 is_stmt 0 view .LVU239
 731 0170 0028     		cmp	r0, #0
 732 0172 CDD0     		beq	.L21
 285:D:/fchai/work/i-cube/I-CUBE-HUAWEI/Middlewares/Third_Party/Huawei/iot_link/network/mqtt/paho_mqtt/paho/MQTTClient-C/src\MQTTClient.c ****                         && sub[spos - 1] == '+' && sub[spos] == '/' && sub[spos + 1] == '#')
 733              		.loc 1 285 37 view .LVU240
 734 0174 811C     		adds	r1, r0, #2
 285:D:/fchai/work/i-cube/I-CUBE-HUAWEI/Middlewares/Third_Party/Huawei/iot_link/network/mqtt/paho_mqtt/paho/MQTTClient-C/src\MQTTClient.c ****                         && sub[spos - 1] == '+' && sub[spos] == '/' && sub[spos + 1] == '#')
 735              		.loc 1 285 29 view .LVU241
 736 0176 8C42     		cmp	r4, r1
 737 0178 CAD1     		bne	.L21
 285:D:/fchai/work/i-cube/I-CUBE-HUAWEI/Middlewares/Third_Party/Huawei/iot_link/network/mqtt/paho_mqtt/paho/MQTTClient-C/src\MQTTClient.c ****                         && sub[spos - 1] == '+' && sub[spos] == '/' && sub[spos + 1] == '#')
 738              		.loc 1 285 51 view .LVU242
 739 017a 9A42     		cmp	r2, r3
 740 017c C8D1     		bne	.L21
 286:D:/fchai/work/i-cube/I-CUBE-HUAWEI/Middlewares/Third_Party/Huawei/iot_link/network/mqtt/paho_mqtt/paho/MQTTClient-C/src\MQTTClient.c ****                 {
 741              		.loc 1 286 31 view .LVU243
 742 017e 4844     		add	r0, r0, r9
 743              	.LVL57:
 286:D:/fchai/work/i-cube/I-CUBE-HUAWEI/Middlewares/Third_Party/Huawei/iot_link/network/mqtt/paho_mqtt/paho/MQTTClient-C/src\MQTTClient.c ****                 {
 744              		.loc 1 286 25 view .LVU244
 745 0180 10F8013C 		ldrb	r3, [r0, #-1]	@ zero_extendqisi2
 746              	.LVL58:
 286:D:/fchai/work/i-cube/I-CUBE-HUAWEI/Middlewares/Third_Party/Huawei/iot_link/network/mqtt/paho_mqtt/paho/MQTTClient-C/src\MQTTClient.c ****                 {
 747              		.loc 1 286 25 view .LVU245
 748 0184 2B2B     		cmp	r3, #43
 749 0186 C3D1     		bne	.L21
 286:D:/fchai/work/i-cube/I-CUBE-HUAWEI/Middlewares/Third_Party/Huawei/iot_link/network/mqtt/paho_mqtt/paho/MQTTClient-C/src\MQTTClient.c ****                 {
 750              		.loc 1 286 49 view .LVU246
 751 0188 BCF12F0F 		cmp	ip, #47
 752 018c C0D1     		bne	.L21
 286:D:/fchai/work/i-cube/I-CUBE-HUAWEI/Middlewares/Third_Party/Huawei/iot_link/network/mqtt/paho_mqtt/paho/MQTTClient-C/src\MQTTClient.c ****                 {
 753              		.loc 1 286 69 view .LVU247
 754 018e 4378     		ldrb	r3, [r0, #1]	@ zero_extendqisi2
 755 0190 232B     		cmp	r3, #35
 756 0192 BDD1     		bne	.L21
 757 0194 AEE7     		b	.L28
 758              	.LVL59:
 759              	.L94:
 267:D:/fchai/work/i-cube/I-CUBE-HUAWEI/Middlewares/Third_Party/Huawei/iot_link/network/mqtt/paho_mqtt/paho/MQTTClient-C/src\MQTTClient.c ****                 {
 760              		.loc 1 267 17 is_stmt 1 view .LVU248
 267:D:/fchai/work/i-cube/I-CUBE-HUAWEI/Middlewares/Third_Party/Huawei/iot_link/network/mqtt/paho_mqtt/paho/MQTTClient-C/src\MQTTClient.c ****                 {
 761              		.loc 1 267 19 is_stmt 0 view .LVU249
 762 0196 20B1     		cbz	r0, .L39
 267:D:/fchai/work/i-cube/I-CUBE-HUAWEI/Middlewares/Third_Party/Huawei/iot_link/network/mqtt/paho_mqtt/paho/MQTTClient-C/src\MQTTClient.c ****                 {
ARM GAS  T:\msys\tmp\ccsrUqql.s 			page 25


 763              		.loc 1 267 35 view .LVU250
 764 0198 8144     		add	r9, r9, r0
 267:D:/fchai/work/i-cube/I-CUBE-HUAWEI/Middlewares/Third_Party/Huawei/iot_link/network/mqtt/paho_mqtt/paho/MQTTClient-C/src\MQTTClient.c ****                 {
 765              		.loc 1 267 29 view .LVU251
 766 019a 19F8013C 		ldrb	r3, [r9, #-1]	@ zero_extendqisi2
 767              	.LVL60:
 267:D:/fchai/work/i-cube/I-CUBE-HUAWEI/Middlewares/Third_Party/Huawei/iot_link/network/mqtt/paho_mqtt/paho/MQTTClient-C/src\MQTTClient.c ****                 {
 768              		.loc 1 267 29 view .LVU252
 769 019e 2F2B     		cmp	r3, #47
 770 01a0 B6D1     		bne	.L21
 771              	.L39:
 271:D:/fchai/work/i-cube/I-CUBE-HUAWEI/Middlewares/Third_Party/Huawei/iot_link/network/mqtt/paho_mqtt/paho/MQTTClient-C/src\MQTTClient.c ****                 if(spos + 1 != sublen)
 772              		.loc 1 271 17 is_stmt 1 view .LVU253
 773              	.LVL61:
 272:D:/fchai/work/i-cube/I-CUBE-HUAWEI/Middlewares/Third_Party/Huawei/iot_link/network/mqtt/paho_mqtt/paho/MQTTClient-C/src\MQTTClient.c ****                 {
 774              		.loc 1 272 17 view .LVU254
 272:D:/fchai/work/i-cube/I-CUBE-HUAWEI/Middlewares/Third_Party/Huawei/iot_link/network/mqtt/paho_mqtt/paho/MQTTClient-C/src\MQTTClient.c ****                 {
 775              		.loc 1 272 25 is_stmt 0 view .LVU255
 776 01a2 0130     		adds	r0, r0, #1
 777              	.LVL62:
 272:D:/fchai/work/i-cube/I-CUBE-HUAWEI/Middlewares/Third_Party/Huawei/iot_link/network/mqtt/paho_mqtt/paho/MQTTClient-C/src\MQTTClient.c ****                 {
 778              		.loc 1 272 19 view .LVU256
 779 01a4 8442     		cmp	r4, r0
 780 01a6 A5D0     		beq	.L28
 781 01a8 B2E7     		b	.L21
 782              	.LVL63:
 783              	.L93:
 272:D:/fchai/work/i-cube/I-CUBE-HUAWEI/Middlewares/Third_Party/Huawei/iot_link/network/mqtt/paho_mqtt/paho/MQTTClient-C/src\MQTTClient.c ****                 {
 784              		.loc 1 272 19 view .LVU257
 785              	.LBE76:
 786              	.LBE82:
 787              	.LBB83:
 788              	.LBI83:
 305:D:/fchai/work/i-cube/I-CUBE-HUAWEI/Middlewares/Third_Party/Huawei/iot_link/network/mqtt/paho_mqtt/paho/MQTTClient-C/src\MQTTClient.c **** {
 789              		.loc 1 305 5 is_stmt 1 view .LVU258
 790              	.LBB84:
 329:D:/fchai/work/i-cube/I-CUBE-HUAWEI/Middlewares/Third_Party/Huawei/iot_link/network/mqtt/paho_mqtt/paho/MQTTClient-C/src\MQTTClient.c ****     {
 791              		.loc 1 329 27 is_stmt 0 view .LVU259
 792 01aa 079B     		ldr	r3, [sp, #28]
 793 01ac D3F8A030 		ldr	r3, [r3, #160]
 329:D:/fchai/work/i-cube/I-CUBE-HUAWEI/Middlewares/Third_Party/Huawei/iot_link/network/mqtt/paho_mqtt/paho/MQTTClient-C/src\MQTTClient.c ****     {
 794              		.loc 1 329 23 view .LVU260
 795 01b0 002B     		cmp	r3, #0
 796 01b2 B8D0     		beq	.L20
 797              	.LBB85:
 331:D:/fchai/work/i-cube/I-CUBE-HUAWEI/Middlewares/Third_Party/Huawei/iot_link/network/mqtt/paho_mqtt/paho/MQTTClient-C/src\MQTTClient.c ****         NewMessageData(&md, topicName, message);
 798              		.loc 1 331 9 is_stmt 1 view .LVU261
 332:D:/fchai/work/i-cube/I-CUBE-HUAWEI/Middlewares/Third_Party/Huawei/iot_link/network/mqtt/paho_mqtt/paho/MQTTClient-C/src\MQTTClient.c ****         c->defaultMessageHandler(&md);
 799              		.loc 1 332 9 view .LVU262
 800              	.LVL64:
 801              	.LBB86:
 802              	.LBI86:
  20:D:/fchai/work/i-cube/I-CUBE-HUAWEI/Middlewares/Third_Party/Huawei/iot_link/network/mqtt/paho_mqtt/paho/MQTTClient-C/src\MQTTClient.c ****     md->topicName = aTopicName;
 803              		.loc 1 20 13 view .LVU263
 804              	.LBB87:
  21:D:/fchai/work/i-cube/I-CUBE-HUAWEI/Middlewares/Third_Party/Huawei/iot_link/network/mqtt/paho_mqtt/paho/MQTTClient-C/src\MQTTClient.c ****     md->message = aMessage;
 805              		.loc 1 21 5 view .LVU264
ARM GAS  T:\msys\tmp\ccsrUqql.s 			page 26


  21:D:/fchai/work/i-cube/I-CUBE-HUAWEI/Middlewares/Third_Party/Huawei/iot_link/network/mqtt/paho_mqtt/paho/MQTTClient-C/src\MQTTClient.c ****     md->message = aMessage;
 806              		.loc 1 21 19 is_stmt 0 view .LVU265
 807 01b4 029A     		ldr	r2, [sp, #8]
 808 01b6 0A92     		str	r2, [sp, #40]
  22:D:/fchai/work/i-cube/I-CUBE-HUAWEI/Middlewares/Third_Party/Huawei/iot_link/network/mqtt/paho_mqtt/paho/MQTTClient-C/src\MQTTClient.c **** }
 809              		.loc 1 22 5 is_stmt 1 view .LVU266
  22:D:/fchai/work/i-cube/I-CUBE-HUAWEI/Middlewares/Third_Party/Huawei/iot_link/network/mqtt/paho_mqtt/paho/MQTTClient-C/src\MQTTClient.c **** }
 810              		.loc 1 22 17 is_stmt 0 view .LVU267
 811 01b8 069A     		ldr	r2, [sp, #24]
 812 01ba 0992     		str	r2, [sp, #36]
 813              	.LVL65:
  22:D:/fchai/work/i-cube/I-CUBE-HUAWEI/Middlewares/Third_Party/Huawei/iot_link/network/mqtt/paho_mqtt/paho/MQTTClient-C/src\MQTTClient.c **** }
 814              		.loc 1 22 17 view .LVU268
 815              	.LBE87:
 816              	.LBE86:
 333:D:/fchai/work/i-cube/I-CUBE-HUAWEI/Middlewares/Third_Party/Huawei/iot_link/network/mqtt/paho_mqtt/paho/MQTTClient-C/src\MQTTClient.c ****         rc = MQTT_SUCCESS;
 817              		.loc 1 333 9 is_stmt 1 view .LVU269
 818 01bc 09A8     		add	r0, sp, #36
 819              	.LVL66:
 333:D:/fchai/work/i-cube/I-CUBE-HUAWEI/Middlewares/Third_Party/Huawei/iot_link/network/mqtt/paho_mqtt/paho/MQTTClient-C/src\MQTTClient.c ****         rc = MQTT_SUCCESS;
 820              		.loc 1 333 9 is_stmt 0 view .LVU270
 821 01be 9847     		blx	r3
 822              	.LVL67:
 334:D:/fchai/work/i-cube/I-CUBE-HUAWEI/Middlewares/Third_Party/Huawei/iot_link/network/mqtt/paho_mqtt/paho/MQTTClient-C/src\MQTTClient.c ****     }
 823              		.loc 1 334 9 is_stmt 1 view .LVU271
 334:D:/fchai/work/i-cube/I-CUBE-HUAWEI/Middlewares/Third_Party/Huawei/iot_link/network/mqtt/paho_mqtt/paho/MQTTClient-C/src\MQTTClient.c ****     }
 824              		.loc 1 334 12 is_stmt 0 view .LVU272
 825 01c0 0023     		movs	r3, #0
 826 01c2 0493     		str	r3, [sp, #16]
 827              	.LBE85:
 828              	.LBE84:
 829              	.LBE83:
 338:D:/fchai/work/i-cube/I-CUBE-HUAWEI/Middlewares/Third_Party/Huawei/iot_link/network/mqtt/paho_mqtt/paho/MQTTClient-C/src\MQTTClient.c **** 
 830              		.loc 1 338 1 view .LVU273
 831 01c4 0498     		ldr	r0, [sp, #16]
 832 01c6 0DB0     		add	sp, sp, #52
 833              	.LCFI10:
 834              		.cfi_def_cfa_offset 36
 835              		@ sp needed
 836 01c8 BDE8F08F 		pop	{r4, r5, r6, r7, r8, r9, r10, fp, pc}
 338:D:/fchai/work/i-cube/I-CUBE-HUAWEI/Middlewares/Third_Party/Huawei/iot_link/network/mqtt/paho_mqtt/paho/MQTTClient-C/src\MQTTClient.c **** 
 837              		.loc 1 338 1 view .LVU274
 838              		.cfi_endproc
 839              	.LFE12:
 841              		.section	.text.keepalive,"ax",%progbits
 842              		.align	1
 843              		.p2align 2,,3
 844              		.global	keepalive
 845              		.syntax unified
 846              		.thumb
 847              		.thumb_func
 848              		.fpu fpv4-sp-d16
 850              	keepalive:
 851              	.LVL68:
 852              	.LFB13:
 342:D:/fchai/work/i-cube/I-CUBE-HUAWEI/Middlewares/Third_Party/Huawei/iot_link/network/mqtt/paho_mqtt/paho/MQTTClient-C/src\MQTTClient.c ****     int rc = MQTT_SUCCESS;
 853              		.loc 1 342 1 is_stmt 1 view -0
ARM GAS  T:\msys\tmp\ccsrUqql.s 			page 27


 854              		.cfi_startproc
 855              		@ args = 0, pretend = 0, frame = 8
 856              		@ frame_needed = 0, uses_anonymous_args = 0
 343:D:/fchai/work/i-cube/I-CUBE-HUAWEI/Middlewares/Third_Party/Huawei/iot_link/network/mqtt/paho_mqtt/paho/MQTTClient-C/src\MQTTClient.c **** 
 857              		.loc 1 343 5 view .LVU276
 345:D:/fchai/work/i-cube/I-CUBE-HUAWEI/Middlewares/Third_Party/Huawei/iot_link/network/mqtt/paho_mqtt/paho/MQTTClient-C/src\MQTTClient.c ****         goto exit;
 858              		.loc 1 345 5 view .LVU277
 345:D:/fchai/work/i-cube/I-CUBE-HUAWEI/Middlewares/Third_Party/Huawei/iot_link/network/mqtt/paho_mqtt/paho/MQTTClient-C/src\MQTTClient.c ****         goto exit;
 859              		.loc 1 345 8 is_stmt 0 view .LVU278
 860 0000 8369     		ldr	r3, [r0, #24]
 861 0002 0BB9     		cbnz	r3, .L96
 343:D:/fchai/work/i-cube/I-CUBE-HUAWEI/Middlewares/Third_Party/Huawei/iot_link/network/mqtt/paho_mqtt/paho/MQTTClient-C/src\MQTTClient.c **** 
 862              		.loc 1 343 9 view .LVU279
 863 0004 0020     		movs	r0, #0
 864              	.LVL69:
 366:D:/fchai/work/i-cube/I-CUBE-HUAWEI/Middlewares/Third_Party/Huawei/iot_link/network/mqtt/paho_mqtt/paho/MQTTClient-C/src\MQTTClient.c **** 
 865              		.loc 1 366 1 view .LVU280
 866 0006 7047     		bx	lr
 867              	.LVL70:
 868              	.L96:
 349:D:/fchai/work/i-cube/I-CUBE-HUAWEI/Middlewares/Third_Party/Huawei/iot_link/network/mqtt/paho_mqtt/paho/MQTTClient-C/src\MQTTClient.c ****     {
 869              		.loc 1 349 5 is_stmt 1 view .LVU281
 342:D:/fchai/work/i-cube/I-CUBE-HUAWEI/Middlewares/Third_Party/Huawei/iot_link/network/mqtt/paho_mqtt/paho/MQTTClient-C/src\MQTTClient.c ****     int rc = MQTT_SUCCESS;
 870              		.loc 1 342 1 is_stmt 0 view .LVU282
 871 0008 30B5     		push	{r4, r5, lr}
 872              	.LCFI11:
 873              		.cfi_def_cfa_offset 12
 874              		.cfi_offset 4, -12
 875              		.cfi_offset 5, -8
 876              		.cfi_offset 14, -4
 877 000a 0446     		mov	r4, r0
 878 000c 83B0     		sub	sp, sp, #12
 879              	.LCFI12:
 880              		.cfi_def_cfa_offset 24
 349:D:/fchai/work/i-cube/I-CUBE-HUAWEI/Middlewares/Third_Party/Huawei/iot_link/network/mqtt/paho_mqtt/paho/MQTTClient-C/src\MQTTClient.c ****     {
 881              		.loc 1 349 9 view .LVU283
 882 000e A830     		adds	r0, r0, #168
 883              	.LVL71:
 349:D:/fchai/work/i-cube/I-CUBE-HUAWEI/Middlewares/Third_Party/Huawei/iot_link/network/mqtt/paho_mqtt/paho/MQTTClient-C/src\MQTTClient.c ****     {
 884              		.loc 1 349 9 view .LVU284
 885 0010 FFF7FEFF 		bl	osal_loop_timer_expired
 886              	.LVL72:
 349:D:/fchai/work/i-cube/I-CUBE-HUAWEI/Middlewares/Third_Party/Huawei/iot_link/network/mqtt/paho_mqtt/paho/MQTTClient-C/src\MQTTClient.c ****     {
 887              		.loc 1 349 8 view .LVU285
 888 0014 78B1     		cbz	r0, .L98
 351:D:/fchai/work/i-cube/I-CUBE-HUAWEI/Middlewares/Third_Party/Huawei/iot_link/network/mqtt/paho_mqtt/paho/MQTTClient-C/src\MQTTClient.c ****             rc = FAILURE; /* PINGRESP not received in keepalive interval */
 889              		.loc 1 351 9 is_stmt 1 view .LVU286
 351:D:/fchai/work/i-cube/I-CUBE-HUAWEI/Middlewares/Third_Party/Huawei/iot_link/network/mqtt/paho_mqtt/paho/MQTTClient-C/src\MQTTClient.c ****             rc = FAILURE; /* PINGRESP not received in keepalive interval */
 890              		.loc 1 351 12 is_stmt 0 view .LVU287
 891 0016 257F     		ldrb	r5, [r4, #28]	@ zero_extendqisi2
 892 0018 CDB9     		cbnz	r5, .L100
 893              	.LVL73:
 894              	.LBB91:
 895              	.LBI91:
 341:D:/fchai/work/i-cube/I-CUBE-HUAWEI/Middlewares/Third_Party/Huawei/iot_link/network/mqtt/paho_mqtt/paho/MQTTClient-C/src\MQTTClient.c **** {
 896              		.loc 1 341 5 is_stmt 1 view .LVU288
 897              	.LBB92:
ARM GAS  T:\msys\tmp\ccsrUqql.s 			page 28


 898              	.LBB93:
 355:D:/fchai/work/i-cube/I-CUBE-HUAWEI/Middlewares/Third_Party/Huawei/iot_link/network/mqtt/paho_mqtt/paho/MQTTClient-C/src\MQTTClient.c ****             TimerInit(&timer);
 899              		.loc 1 355 13 view .LVU289
 356:D:/fchai/work/i-cube/I-CUBE-HUAWEI/Middlewares/Third_Party/Huawei/iot_link/network/mqtt/paho_mqtt/paho/MQTTClient-C/src\MQTTClient.c ****             TimerCountdownMS(&timer, 1000);
 900              		.loc 1 356 13 view .LVU290
 901 001a 6846     		mov	r0, sp
 902 001c FFF7FEFF 		bl	osal_loop_timer_init
 903              	.LVL74:
 357:D:/fchai/work/i-cube/I-CUBE-HUAWEI/Middlewares/Third_Party/Huawei/iot_link/network/mqtt/paho_mqtt/paho/MQTTClient-C/src\MQTTClient.c ****             int len = MQTTSerialize_pingreq(c->buf, c->buf_size);
 904              		.loc 1 357 13 view .LVU291
 905 0020 6846     		mov	r0, sp
 906 0022 4FF47A71 		mov	r1, #1000
 907 0026 FFF7FEFF 		bl	osal_loop_timer_count_downms
 908              	.LVL75:
 358:D:/fchai/work/i-cube/I-CUBE-HUAWEI/Middlewares/Third_Party/Huawei/iot_link/network/mqtt/paho_mqtt/paho/MQTTClient-C/src\MQTTClient.c ****             if (len > 0 && (rc = sendPacket(c, len, &timer)) == MQTT_SUCCESS) // send the ping pack
 909              		.loc 1 358 13 view .LVU292
 358:D:/fchai/work/i-cube/I-CUBE-HUAWEI/Middlewares/Third_Party/Huawei/iot_link/network/mqtt/paho_mqtt/paho/MQTTClient-C/src\MQTTClient.c ****             if (len > 0 && (rc = sendPacket(c, len, &timer)) == MQTT_SUCCESS) // send the ping pack
 910              		.loc 1 358 23 is_stmt 0 view .LVU293
 911 002a A168     		ldr	r1, [r4, #8]
 912 002c 2069     		ldr	r0, [r4, #16]
 913 002e FFF7FEFF 		bl	MQTTSerialize_pingreq
 914              	.LVL76:
 359:D:/fchai/work/i-cube/I-CUBE-HUAWEI/Middlewares/Third_Party/Huawei/iot_link/network/mqtt/paho_mqtt/paho/MQTTClient-C/src\MQTTClient.c ****                 c->ping_outstanding = 1;
 915              		.loc 1 359 13 is_stmt 1 view .LVU294
 359:D:/fchai/work/i-cube/I-CUBE-HUAWEI/Middlewares/Third_Party/Huawei/iot_link/network/mqtt/paho_mqtt/paho/MQTTClient-C/src\MQTTClient.c ****                 c->ping_outstanding = 1;
 916              		.loc 1 359 16 is_stmt 0 view .LVU295
 917 0032 011E     		subs	r1, r0, #0
 918 0034 02DC     		bgt	.L108
 919              	.LVL77:
 920              	.L98:
 359:D:/fchai/work/i-cube/I-CUBE-HUAWEI/Middlewares/Third_Party/Huawei/iot_link/network/mqtt/paho_mqtt/paho/MQTTClient-C/src\MQTTClient.c ****                 c->ping_outstanding = 1;
 921              		.loc 1 359 16 view .LVU296
 922              	.LBE93:
 923              	.LBE92:
 924              	.LBE91:
 343:D:/fchai/work/i-cube/I-CUBE-HUAWEI/Middlewares/Third_Party/Huawei/iot_link/network/mqtt/paho_mqtt/paho/MQTTClient-C/src\MQTTClient.c **** 
 925              		.loc 1 343 9 view .LVU297
 926 0036 0020     		movs	r0, #0
 927              	.LVL78:
 928              	.L95:
 366:D:/fchai/work/i-cube/I-CUBE-HUAWEI/Middlewares/Third_Party/Huawei/iot_link/network/mqtt/paho_mqtt/paho/MQTTClient-C/src\MQTTClient.c **** 
 929              		.loc 1 366 1 view .LVU298
 930 0038 03B0     		add	sp, sp, #12
 931              	.LCFI13:
 932              		.cfi_remember_state
 933              		.cfi_def_cfa_offset 12
 934              		@ sp needed
 935 003a 30BD     		pop	{r4, r5, pc}
 936              	.LVL79:
 937              	.L108:
 938              	.LCFI14:
 939              		.cfi_restore_state
 940              	.LBB96:
 941              	.LBB95:
 942              	.LBB94:
 359:D:/fchai/work/i-cube/I-CUBE-HUAWEI/Middlewares/Third_Party/Huawei/iot_link/network/mqtt/paho_mqtt/paho/MQTTClient-C/src\MQTTClient.c ****                 c->ping_outstanding = 1;
 943              		.loc 1 359 34 view .LVU299
ARM GAS  T:\msys\tmp\ccsrUqql.s 			page 29


 944 003c 6A46     		mov	r2, sp
 945 003e 2046     		mov	r0, r4
 946              	.LVL80:
 359:D:/fchai/work/i-cube/I-CUBE-HUAWEI/Middlewares/Third_Party/Huawei/iot_link/network/mqtt/paho_mqtt/paho/MQTTClient-C/src\MQTTClient.c ****                 c->ping_outstanding = 1;
 947              		.loc 1 359 34 view .LVU300
 948 0040 FFF7FEFF 		bl	sendPacket
 949              	.LVL81:
 359:D:/fchai/work/i-cube/I-CUBE-HUAWEI/Middlewares/Third_Party/Huawei/iot_link/network/mqtt/paho_mqtt/paho/MQTTClient-C/src\MQTTClient.c ****                 c->ping_outstanding = 1;
 950              		.loc 1 359 25 view .LVU301
 951 0044 0028     		cmp	r0, #0
 952 0046 F7D1     		bne	.L95
 360:D:/fchai/work/i-cube/I-CUBE-HUAWEI/Middlewares/Third_Party/Huawei/iot_link/network/mqtt/paho_mqtt/paho/MQTTClient-C/src\MQTTClient.c ****         }
 953              		.loc 1 360 17 is_stmt 1 view .LVU302
 360:D:/fchai/work/i-cube/I-CUBE-HUAWEI/Middlewares/Third_Party/Huawei/iot_link/network/mqtt/paho_mqtt/paho/MQTTClient-C/src\MQTTClient.c ****         }
 954              		.loc 1 360 37 is_stmt 0 view .LVU303
 955 0048 0123     		movs	r3, #1
 956 004a 2377     		strb	r3, [r4, #28]
 957 004c F4E7     		b	.L95
 958              	.LVL82:
 959              	.L100:
 960              	.L97:
 360:D:/fchai/work/i-cube/I-CUBE-HUAWEI/Middlewares/Third_Party/Huawei/iot_link/network/mqtt/paho_mqtt/paho/MQTTClient-C/src\MQTTClient.c ****         }
 961              		.loc 1 360 37 view .LVU304
 962              	.LBE94:
 963              	.LBE95:
 964              	.LBE96:
 352:D:/fchai/work/i-cube/I-CUBE-HUAWEI/Middlewares/Third_Party/Huawei/iot_link/network/mqtt/paho_mqtt/paho/MQTTClient-C/src\MQTTClient.c ****         else
 965              		.loc 1 352 16 view .LVU305
 966 004e 4FF0FF30 		mov	r0, #-1
 967              	.LVL83:
 365:D:/fchai/work/i-cube/I-CUBE-HUAWEI/Middlewares/Third_Party/Huawei/iot_link/network/mqtt/paho_mqtt/paho/MQTTClient-C/src\MQTTClient.c **** }
 968              		.loc 1 365 5 is_stmt 1 view .LVU306
 365:D:/fchai/work/i-cube/I-CUBE-HUAWEI/Middlewares/Third_Party/Huawei/iot_link/network/mqtt/paho_mqtt/paho/MQTTClient-C/src\MQTTClient.c **** }
 969              		.loc 1 365 12 is_stmt 0 view .LVU307
 970 0052 F1E7     		b	.L95
 971              		.cfi_endproc
 972              	.LFE13:
 974              		.section	.text.MQTTCleanSession,"ax",%progbits
 975              		.align	1
 976              		.p2align 2,,3
 977              		.global	MQTTCleanSession
 978              		.syntax unified
 979              		.thumb
 980              		.thumb_func
 981              		.fpu fpv4-sp-d16
 983              	MQTTCleanSession:
 984              	.LVL84:
 985              	.LFB14:
 370:D:/fchai/work/i-cube/I-CUBE-HUAWEI/Middlewares/Third_Party/Huawei/iot_link/network/mqtt/paho_mqtt/paho/MQTTClient-C/src\MQTTClient.c ****     int i = 0;
 986              		.loc 1 370 1 is_stmt 1 view -0
 987              		.cfi_startproc
 988              		@ args = 0, pretend = 0, frame = 0
 989              		@ frame_needed = 0, uses_anonymous_args = 0
 990              		@ link register save eliminated.
 371:D:/fchai/work/i-cube/I-CUBE-HUAWEI/Middlewares/Third_Party/Huawei/iot_link/network/mqtt/paho_mqtt/paho/MQTTClient-C/src\MQTTClient.c **** 
 991              		.loc 1 371 5 view .LVU309
 373:D:/fchai/work/i-cube/I-CUBE-HUAWEI/Middlewares/Third_Party/Huawei/iot_link/network/mqtt/paho_mqtt/paho/MQTTClient-C/src\MQTTClient.c ****         c->messageHandlers[i].topicFilter = NULL;
ARM GAS  T:\msys\tmp\ccsrUqql.s 			page 30


 992              		.loc 1 373 5 view .LVU310
 373:D:/fchai/work/i-cube/I-CUBE-HUAWEI/Middlewares/Third_Party/Huawei/iot_link/network/mqtt/paho_mqtt/paho/MQTTClient-C/src\MQTTClient.c ****         c->messageHandlers[i].topicFilter = NULL;
 993              		.loc 1 373 17 view .LVU311
 994 0000 00F17802 		add	r2, r0, #120
 374:D:/fchai/work/i-cube/I-CUBE-HUAWEI/Middlewares/Third_Party/Huawei/iot_link/network/mqtt/paho_mqtt/paho/MQTTClient-C/src\MQTTClient.c **** }
 995              		.loc 1 374 43 is_stmt 0 view .LVU312
 996 0004 0023     		movs	r3, #0
 997              	.LVL85:
 998              	.L110:
 374:D:/fchai/work/i-cube/I-CUBE-HUAWEI/Middlewares/Third_Party/Huawei/iot_link/network/mqtt/paho_mqtt/paho/MQTTClient-C/src\MQTTClient.c **** }
 999              		.loc 1 374 9 is_stmt 1 discriminator 3 view .LVU313
 374:D:/fchai/work/i-cube/I-CUBE-HUAWEI/Middlewares/Third_Party/Huawei/iot_link/network/mqtt/paho_mqtt/paho/MQTTClient-C/src\MQTTClient.c **** }
 1000              		.loc 1 374 43 is_stmt 0 discriminator 3 view .LVU314
 1001 0006 8362     		str	r3, [r0, #40]
 373:D:/fchai/work/i-cube/I-CUBE-HUAWEI/Middlewares/Third_Party/Huawei/iot_link/network/mqtt/paho_mqtt/paho/MQTTClient-C/src\MQTTClient.c ****         c->messageHandlers[i].topicFilter = NULL;
 1002              		.loc 1 373 43 is_stmt 1 discriminator 3 view .LVU315
 373:D:/fchai/work/i-cube/I-CUBE-HUAWEI/Middlewares/Third_Party/Huawei/iot_link/network/mqtt/paho_mqtt/paho/MQTTClient-C/src\MQTTClient.c ****         c->messageHandlers[i].topicFilter = NULL;
 1003              		.loc 1 373 17 discriminator 3 view .LVU316
 1004 0008 0C30     		adds	r0, r0, #12
 373:D:/fchai/work/i-cube/I-CUBE-HUAWEI/Middlewares/Third_Party/Huawei/iot_link/network/mqtt/paho_mqtt/paho/MQTTClient-C/src\MQTTClient.c ****         c->messageHandlers[i].topicFilter = NULL;
 1005              		.loc 1 373 5 is_stmt 0 discriminator 3 view .LVU317
 1006 000a 9042     		cmp	r0, r2
 1007 000c FBD1     		bne	.L110
 375:D:/fchai/work/i-cube/I-CUBE-HUAWEI/Middlewares/Third_Party/Huawei/iot_link/network/mqtt/paho_mqtt/paho/MQTTClient-C/src\MQTTClient.c **** 
 1008              		.loc 1 375 1 view .LVU318
 1009 000e 7047     		bx	lr
 1010              		.cfi_endproc
 1011              	.LFE14:
 1013              		.section	.text.MQTTCloseSession,"ax",%progbits
 1014              		.align	1
 1015              		.p2align 2,,3
 1016              		.global	MQTTCloseSession
 1017              		.syntax unified
 1018              		.thumb
 1019              		.thumb_func
 1020              		.fpu fpv4-sp-d16
 1022              	MQTTCloseSession:
 1023              	.LVL86:
 1024              	.LFB15:
 379:D:/fchai/work/i-cube/I-CUBE-HUAWEI/Middlewares/Third_Party/Huawei/iot_link/network/mqtt/paho_mqtt/paho/MQTTClient-C/src\MQTTClient.c ****     c->ping_outstanding = 0;
 1025              		.loc 1 379 1 is_stmt 1 view -0
 1026              		.cfi_startproc
 1027              		@ args = 0, pretend = 0, frame = 0
 1028              		@ frame_needed = 0, uses_anonymous_args = 0
 1029              		@ link register save eliminated.
 380:D:/fchai/work/i-cube/I-CUBE-HUAWEI/Middlewares/Third_Party/Huawei/iot_link/network/mqtt/paho_mqtt/paho/MQTTClient-C/src\MQTTClient.c ****     c->isconnected = 0;
 1030              		.loc 1 380 5 view .LVU320
 382:D:/fchai/work/i-cube/I-CUBE-HUAWEI/Middlewares/Third_Party/Huawei/iot_link/network/mqtt/paho_mqtt/paho/MQTTClient-C/src\MQTTClient.c ****         MQTTCleanSession(c);
 1031              		.loc 1 382 8 is_stmt 0 view .LVU321
 1032 0000 416A     		ldr	r1, [r0, #36]
 380:D:/fchai/work/i-cube/I-CUBE-HUAWEI/Middlewares/Third_Party/Huawei/iot_link/network/mqtt/paho_mqtt/paho/MQTTClient-C/src\MQTTClient.c ****     c->isconnected = 0;
 1033              		.loc 1 380 25 view .LVU322
 1034 0002 0022     		movs	r2, #0
 1035 0004 0277     		strb	r2, [r0, #28]
 381:D:/fchai/work/i-cube/I-CUBE-HUAWEI/Middlewares/Third_Party/Huawei/iot_link/network/mqtt/paho_mqtt/paho/MQTTClient-C/src\MQTTClient.c ****     if (c->cleansession)
 1036              		.loc 1 381 5 is_stmt 1 view .LVU323
 381:D:/fchai/work/i-cube/I-CUBE-HUAWEI/Middlewares/Third_Party/Huawei/iot_link/network/mqtt/paho_mqtt/paho/MQTTClient-C/src\MQTTClient.c ****     if (c->cleansession)
ARM GAS  T:\msys\tmp\ccsrUqql.s 			page 31


 1037              		.loc 1 381 20 is_stmt 0 view .LVU324
 1038 0006 0262     		str	r2, [r0, #32]
 382:D:/fchai/work/i-cube/I-CUBE-HUAWEI/Middlewares/Third_Party/Huawei/iot_link/network/mqtt/paho_mqtt/paho/MQTTClient-C/src\MQTTClient.c ****         MQTTCleanSession(c);
 1039              		.loc 1 382 5 is_stmt 1 view .LVU325
 382:D:/fchai/work/i-cube/I-CUBE-HUAWEI/Middlewares/Third_Party/Huawei/iot_link/network/mqtt/paho_mqtt/paho/MQTTClient-C/src\MQTTClient.c ****         MQTTCleanSession(c);
 1040              		.loc 1 382 8 is_stmt 0 view .LVU326
 1041 0008 09B1     		cbz	r1, .L112
 1042 000a FFF7FEBF 		b	MQTTCloseSession.part.0
 1043              	.LVL87:
 1044              	.L112:
 1045              		.loc 1 384 1 view .LVU327
 1046 000e 7047     		bx	lr
 1047              		.cfi_endproc
 1048              	.LFE15:
 1050              		.section	.text.cycle,"ax",%progbits
 1051              		.align	1
 1052              		.p2align 2,,3
 1053              		.global	cycle
 1054              		.syntax unified
 1055              		.thumb
 1056              		.thumb_func
 1057              		.fpu fpv4-sp-d16
 1059              	cycle:
 1060              	.LVL88:
 1061              	.LFB16:
 385:D:/fchai/work/i-cube/I-CUBE-HUAWEI/Middlewares/Third_Party/Huawei/iot_link/network/mqtt/paho_mqtt/paho/MQTTClient-C/src\MQTTClient.c **** 
 386:D:/fchai/work/i-cube/I-CUBE-HUAWEI/Middlewares/Third_Party/Huawei/iot_link/network/mqtt/paho_mqtt/paho/MQTTClient-C/src\MQTTClient.c **** 
 387:D:/fchai/work/i-cube/I-CUBE-HUAWEI/Middlewares/Third_Party/Huawei/iot_link/network/mqtt/paho_mqtt/paho/MQTTClient-C/src\MQTTClient.c **** int cycle(MQTTClient* c, Timer* timer)
 388:D:/fchai/work/i-cube/I-CUBE-HUAWEI/Middlewares/Third_Party/Huawei/iot_link/network/mqtt/paho_mqtt/paho/MQTTClient-C/src\MQTTClient.c **** {
 1062              		.loc 1 388 1 is_stmt 1 view -0
 1063              		.cfi_startproc
 1064              		@ args = 0, pretend = 0, frame = 56
 1065              		@ frame_needed = 0, uses_anonymous_args = 0
 389:D:/fchai/work/i-cube/I-CUBE-HUAWEI/Middlewares/Third_Party/Huawei/iot_link/network/mqtt/paho_mqtt/paho/MQTTClient-C/src\MQTTClient.c ****     int len = 0,
 1066              		.loc 1 389 5 view .LVU329
 390:D:/fchai/work/i-cube/I-CUBE-HUAWEI/Middlewares/Third_Party/Huawei/iot_link/network/mqtt/paho_mqtt/paho/MQTTClient-C/src\MQTTClient.c ****         rc = MQTT_SUCCESS;
 391:D:/fchai/work/i-cube/I-CUBE-HUAWEI/Middlewares/Third_Party/Huawei/iot_link/network/mqtt/paho_mqtt/paho/MQTTClient-C/src\MQTTClient.c ****     Timer send_timer;
 1067              		.loc 1 391 5 view .LVU330
 392:D:/fchai/work/i-cube/I-CUBE-HUAWEI/Middlewares/Third_Party/Huawei/iot_link/network/mqtt/paho_mqtt/paho/MQTTClient-C/src\MQTTClient.c **** 
 393:D:/fchai/work/i-cube/I-CUBE-HUAWEI/Middlewares/Third_Party/Huawei/iot_link/network/mqtt/paho_mqtt/paho/MQTTClient-C/src\MQTTClient.c ****     int packet_type = readPacket(c, timer);     /* read the socket, see what work is due */
 1068              		.loc 1 393 5 view .LVU331
 388:D:/fchai/work/i-cube/I-CUBE-HUAWEI/Middlewares/Third_Party/Huawei/iot_link/network/mqtt/paho_mqtt/paho/MQTTClient-C/src\MQTTClient.c ****     int len = 0,
 1069              		.loc 1 388 1 is_stmt 0 view .LVU332
 1070 0000 2DE9F047 		push	{r4, r5, r6, r7, r8, r9, r10, lr}
 1071              	.LCFI15:
 1072              		.cfi_def_cfa_offset 32
 1073              		.cfi_offset 4, -32
 1074              		.cfi_offset 5, -28
 1075              		.cfi_offset 6, -24
 1076              		.cfi_offset 7, -20
 1077              		.cfi_offset 8, -16
 1078              		.cfi_offset 9, -12
 1079              		.cfi_offset 10, -8
 1080              		.cfi_offset 14, -4
 1081              	.LBB106:
 1082              	.LBB107:
 128:D:/fchai/work/i-cube/I-CUBE-HUAWEI/Middlewares/Third_Party/Huawei/iot_link/network/mqtt/paho_mqtt/paho/MQTTClient-C/src\MQTTClient.c ****     if (rc != 1)
ARM GAS  T:\msys\tmp\ccsrUqql.s 			page 32


 1083              		.loc 1 128 15 view .LVU333
 1084 0004 D0F8A440 		ldr	r4, [r0, #164]
 1085              	.LBE107:
 1086              	.LBE106:
 388:D:/fchai/work/i-cube/I-CUBE-HUAWEI/Middlewares/Third_Party/Huawei/iot_link/network/mqtt/paho_mqtt/paho/MQTTClient-C/src\MQTTClient.c ****     int len = 0,
 1087              		.loc 1 388 1 view .LVU334
 1088 0008 94B0     		sub	sp, sp, #80
 1089              	.LCFI16:
 1090              		.cfi_def_cfa_offset 112
 388:D:/fchai/work/i-cube/I-CUBE-HUAWEI/Middlewares/Third_Party/Huawei/iot_link/network/mqtt/paho_mqtt/paho/MQTTClient-C/src\MQTTClient.c ****     int len = 0,
 1091              		.loc 1 388 1 view .LVU335
 1092 000a 0E46     		mov	r6, r1
 1093 000c 0546     		mov	r5, r0
 1094              	.LVL89:
 1095              	.LBB119:
 1096              	.LBI106:
 121:D:/fchai/work/i-cube/I-CUBE-HUAWEI/Middlewares/Third_Party/Huawei/iot_link/network/mqtt/paho_mqtt/paho/MQTTClient-C/src\MQTTClient.c **** {
 1097              		.loc 1 121 12 is_stmt 1 view .LVU336
 1098              	.LBB115:
 123:D:/fchai/work/i-cube/I-CUBE-HUAWEI/Middlewares/Third_Party/Huawei/iot_link/network/mqtt/paho_mqtt/paho/MQTTClient-C/src\MQTTClient.c ****     int len = 0;
 1099              		.loc 1 123 5 view .LVU337
 124:D:/fchai/work/i-cube/I-CUBE-HUAWEI/Middlewares/Third_Party/Huawei/iot_link/network/mqtt/paho_mqtt/paho/MQTTClient-C/src\MQTTClient.c ****     int rem_len = 0;
 1100              		.loc 1 124 5 view .LVU338
 125:D:/fchai/work/i-cube/I-CUBE-HUAWEI/Middlewares/Third_Party/Huawei/iot_link/network/mqtt/paho_mqtt/paho/MQTTClient-C/src\MQTTClient.c **** 
 1101              		.loc 1 125 5 view .LVU339
 128:D:/fchai/work/i-cube/I-CUBE-HUAWEI/Middlewares/Third_Party/Huawei/iot_link/network/mqtt/paho_mqtt/paho/MQTTClient-C/src\MQTTClient.c ****     if (rc != 1)
 1102              		.loc 1 128 5 view .LVU340
 128:D:/fchai/work/i-cube/I-CUBE-HUAWEI/Middlewares/Third_Party/Huawei/iot_link/network/mqtt/paho_mqtt/paho/MQTTClient-C/src\MQTTClient.c ****     if (rc != 1)
 1103              		.loc 1 128 14 is_stmt 0 view .LVU341
 1104 000e 4169     		ldr	r1, [r0, #20]
 1105              	.LVL90:
 128:D:/fchai/work/i-cube/I-CUBE-HUAWEI/Middlewares/Third_Party/Huawei/iot_link/network/mqtt/paho_mqtt/paho/MQTTClient-C/src\MQTTClient.c ****     if (rc != 1)
 1106              		.loc 1 128 24 view .LVU342
 1107 0010 E76A     		ldr	r7, [r4, #44]
 128:D:/fchai/work/i-cube/I-CUBE-HUAWEI/Middlewares/Third_Party/Huawei/iot_link/network/mqtt/paho_mqtt/paho/MQTTClient-C/src\MQTTClient.c ****     if (rc != 1)
 1108              		.loc 1 128 14 view .LVU343
 1109 0012 0791     		str	r1, [sp, #28]
 1110 0014 3046     		mov	r0, r6
 1111              	.LVL91:
 128:D:/fchai/work/i-cube/I-CUBE-HUAWEI/Middlewares/Third_Party/Huawei/iot_link/network/mqtt/paho_mqtt/paho/MQTTClient-C/src\MQTTClient.c ****     if (rc != 1)
 1112              		.loc 1 128 14 view .LVU344
 1113 0016 FFF7FEFF 		bl	osal_loop_timer_left
 1114              	.LVL92:
 1115 001a 0799     		ldr	r1, [sp, #28]
 1116 001c 0346     		mov	r3, r0
 1117 001e 0122     		movs	r2, #1
 1118 0020 2046     		mov	r0, r4
 1119 0022 B847     		blx	r7
 1120              	.LVL93:
 129:D:/fchai/work/i-cube/I-CUBE-HUAWEI/Middlewares/Third_Party/Huawei/iot_link/network/mqtt/paho_mqtt/paho/MQTTClient-C/src\MQTTClient.c ****         goto exit;
 1121              		.loc 1 129 8 view .LVU345
 1122 0024 0128     		cmp	r0, #1
 128:D:/fchai/work/i-cube/I-CUBE-HUAWEI/Middlewares/Third_Party/Huawei/iot_link/network/mqtt/paho_mqtt/paho/MQTTClient-C/src\MQTTClient.c ****     if (rc != 1)
 1123              		.loc 1 128 14 view .LVU346
 1124 0026 0446     		mov	r4, r0
 1125              	.LVL94:
 129:D:/fchai/work/i-cube/I-CUBE-HUAWEI/Middlewares/Third_Party/Huawei/iot_link/network/mqtt/paho_mqtt/paho/MQTTClient-C/src\MQTTClient.c ****         goto exit;
ARM GAS  T:\msys\tmp\ccsrUqql.s 			page 33


 1126              		.loc 1 129 5 is_stmt 1 view .LVU347
 129:D:/fchai/work/i-cube/I-CUBE-HUAWEI/Middlewares/Third_Party/Huawei/iot_link/network/mqtt/paho_mqtt/paho/MQTTClient-C/src\MQTTClient.c ****         goto exit;
 1127              		.loc 1 129 8 is_stmt 0 view .LVU348
 1128 0028 69D0     		beq	.L167
 1129              	.LVL95:
 1130              	.L115:
 154:D:/fchai/work/i-cube/I-CUBE-HUAWEI/Middlewares/Third_Party/Huawei/iot_link/network/mqtt/paho_mqtt/paho/MQTTClient-C/src\MQTTClient.c **** }
 1131              		.loc 1 154 5 is_stmt 1 view .LVU349
 154:D:/fchai/work/i-cube/I-CUBE-HUAWEI/Middlewares/Third_Party/Huawei/iot_link/network/mqtt/paho_mqtt/paho/MQTTClient-C/src\MQTTClient.c **** }
 1132              		.loc 1 154 5 is_stmt 0 view .LVU350
 1133              	.LBE115:
 1134              	.LBE119:
 394:D:/fchai/work/i-cube/I-CUBE-HUAWEI/Middlewares/Third_Party/Huawei/iot_link/network/mqtt/paho_mqtt/paho/MQTTClient-C/src\MQTTClient.c **** 
 395:D:/fchai/work/i-cube/I-CUBE-HUAWEI/Middlewares/Third_Party/Huawei/iot_link/network/mqtt/paho_mqtt/paho/MQTTClient-C/src\MQTTClient.c ****     switch (packet_type)
 1135              		.loc 1 395 5 is_stmt 1 view .LVU351
 1136 002a 0D2C     		cmp	r4, #13
 1137 002c 59D8     		bhi	.L120
 1138 002e DFE814F0 		tbh	[pc, r4, lsl #1]
 1139              	.L124:
 1140 0032 A400     		.2byte	(.L166-.L124)/2
 1141 0034 5800     		.2byte	(.L120-.L124)/2
 1142 0036 A400     		.2byte	(.L166-.L124)/2
 1143 0038 0E00     		.2byte	(.L126-.L124)/2
 1144 003a A400     		.2byte	(.L166-.L124)/2
 1145 003c AF00     		.2byte	(.L125-.L124)/2
 1146 003e AF00     		.2byte	(.L125-.L124)/2
 1147 0040 A400     		.2byte	(.L166-.L124)/2
 1148 0042 5800     		.2byte	(.L120-.L124)/2
 1149 0044 A400     		.2byte	(.L166-.L124)/2
 1150 0046 5800     		.2byte	(.L120-.L124)/2
 1151 0048 A400     		.2byte	(.L166-.L124)/2
 1152 004a 5800     		.2byte	(.L120-.L124)/2
 1153 004c D700     		.2byte	(.L123-.L124)/2
 1154              		.p2align 1
 1155              	.L126:
 1156              	.LBB120:
 396:D:/fchai/work/i-cube/I-CUBE-HUAWEI/Middlewares/Third_Party/Huawei/iot_link/network/mqtt/paho_mqtt/paho/MQTTClient-C/src\MQTTClient.c ****     {
 397:D:/fchai/work/i-cube/I-CUBE-HUAWEI/Middlewares/Third_Party/Huawei/iot_link/network/mqtt/paho_mqtt/paho/MQTTClient-C/src\MQTTClient.c ****     default:
 398:D:/fchai/work/i-cube/I-CUBE-HUAWEI/Middlewares/Third_Party/Huawei/iot_link/network/mqtt/paho_mqtt/paho/MQTTClient-C/src\MQTTClient.c ****         /* no more data to read, unrecoverable. Or read packet fails due to unexpected network erro
 399:D:/fchai/work/i-cube/I-CUBE-HUAWEI/Middlewares/Third_Party/Huawei/iot_link/network/mqtt/paho_mqtt/paho/MQTTClient-C/src\MQTTClient.c ****         rc = packet_type;
 400:D:/fchai/work/i-cube/I-CUBE-HUAWEI/Middlewares/Third_Party/Huawei/iot_link/network/mqtt/paho_mqtt/paho/MQTTClient-C/src\MQTTClient.c ****         goto exit;
 401:D:/fchai/work/i-cube/I-CUBE-HUAWEI/Middlewares/Third_Party/Huawei/iot_link/network/mqtt/paho_mqtt/paho/MQTTClient-C/src\MQTTClient.c ****     case 0: /* timed out reading packet */
 402:D:/fchai/work/i-cube/I-CUBE-HUAWEI/Middlewares/Third_Party/Huawei/iot_link/network/mqtt/paho_mqtt/paho/MQTTClient-C/src\MQTTClient.c ****         break;
 403:D:/fchai/work/i-cube/I-CUBE-HUAWEI/Middlewares/Third_Party/Huawei/iot_link/network/mqtt/paho_mqtt/paho/MQTTClient-C/src\MQTTClient.c ****     case CONNACK:
 404:D:/fchai/work/i-cube/I-CUBE-HUAWEI/Middlewares/Third_Party/Huawei/iot_link/network/mqtt/paho_mqtt/paho/MQTTClient-C/src\MQTTClient.c ****     case PUBACK:
 405:D:/fchai/work/i-cube/I-CUBE-HUAWEI/Middlewares/Third_Party/Huawei/iot_link/network/mqtt/paho_mqtt/paho/MQTTClient-C/src\MQTTClient.c ****     case SUBACK:
 406:D:/fchai/work/i-cube/I-CUBE-HUAWEI/Middlewares/Third_Party/Huawei/iot_link/network/mqtt/paho_mqtt/paho/MQTTClient-C/src\MQTTClient.c ****     case UNSUBACK:
 407:D:/fchai/work/i-cube/I-CUBE-HUAWEI/Middlewares/Third_Party/Huawei/iot_link/network/mqtt/paho_mqtt/paho/MQTTClient-C/src\MQTTClient.c ****         break;
 408:D:/fchai/work/i-cube/I-CUBE-HUAWEI/Middlewares/Third_Party/Huawei/iot_link/network/mqtt/paho_mqtt/paho/MQTTClient-C/src\MQTTClient.c ****     case PUBLISH:
 409:D:/fchai/work/i-cube/I-CUBE-HUAWEI/Middlewares/Third_Party/Huawei/iot_link/network/mqtt/paho_mqtt/paho/MQTTClient-C/src\MQTTClient.c ****     {
 410:D:/fchai/work/i-cube/I-CUBE-HUAWEI/Middlewares/Third_Party/Huawei/iot_link/network/mqtt/paho_mqtt/paho/MQTTClient-C/src\MQTTClient.c ****         MQTTString topicName;
 1157              		.loc 1 410 9 view .LVU352
 411:D:/fchai/work/i-cube/I-CUBE-HUAWEI/Middlewares/Third_Party/Huawei/iot_link/network/mqtt/paho_mqtt/paho/MQTTClient-C/src\MQTTClient.c ****         MQTTMessage msg;
 1158              		.loc 1 411 9 view .LVU353
 412:D:/fchai/work/i-cube/I-CUBE-HUAWEI/Middlewares/Third_Party/Huawei/iot_link/network/mqtt/paho_mqtt/paho/MQTTClient-C/src\MQTTClient.c ****         int intQoS;
 1159              		.loc 1 412 9 view .LVU354
 413:D:/fchai/work/i-cube/I-CUBE-HUAWEI/Middlewares/Third_Party/Huawei/iot_link/network/mqtt/paho_mqtt/paho/MQTTClient-C/src\MQTTClient.c ****         msg.payloadlen = 0; /* this is a size_t, but deserialize publish sets this as int */
ARM GAS  T:\msys\tmp\ccsrUqql.s 			page 34


 1160              		.loc 1 413 9 view .LVU355
 414:D:/fchai/work/i-cube/I-CUBE-HUAWEI/Middlewares/Third_Party/Huawei/iot_link/network/mqtt/paho_mqtt/paho/MQTTClient-C/src\MQTTClient.c ****         if (MQTTDeserialize_publish(&msg.dup, &intQoS, &msg.retained, &msg.id, &topicName,
 1161              		.loc 1 414 13 is_stmt 0 view .LVU356
 1162 004e EB68     		ldr	r3, [r5, #12]
 1163 0050 6969     		ldr	r1, [r5, #20]
 1164 0052 0493     		str	r3, [sp, #16]
 1165 0054 13AA     		add	r2, sp, #76
 1166 0056 12AB     		add	r3, sp, #72
 1167 0058 0DAE     		add	r6, sp, #52
 1168 005a CDE90221 		strd	r2, r1, [sp, #8]
 1169 005e CDE90063 		strd	r6, r3, [sp]
 413:D:/fchai/work/i-cube/I-CUBE-HUAWEI/Middlewares/Third_Party/Huawei/iot_link/network/mqtt/paho_mqtt/paho/MQTTClient-C/src\MQTTClient.c ****         msg.payloadlen = 0; /* this is a size_t, but deserialize publish sets this as int */
 1170              		.loc 1 413 24 view .LVU357
 1171 0062 0027     		movs	r7, #0
 1172              		.loc 1 414 13 view .LVU358
 1173 0064 11AB     		add	r3, sp, #68
 1174 0066 0DF14102 		add	r2, sp, #65
 1175 006a 09A9     		add	r1, sp, #36
 1176 006c 0DF14200 		add	r0, sp, #66
 413:D:/fchai/work/i-cube/I-CUBE-HUAWEI/Middlewares/Third_Party/Huawei/iot_link/network/mqtt/paho_mqtt/paho/MQTTClient-C/src\MQTTClient.c ****         msg.payloadlen = 0; /* this is a size_t, but deserialize publish sets this as int */
 1177              		.loc 1 413 24 view .LVU359
 1178 0070 1397     		str	r7, [sp, #76]
 1179              		.loc 1 414 9 is_stmt 1 view .LVU360
 1180              		.loc 1 414 13 is_stmt 0 view .LVU361
 1181 0072 FFF7FEFF 		bl	MQTTDeserialize_publish
 1182              	.LVL96:
 1183              		.loc 1 414 12 view .LVU362
 1184 0076 0128     		cmp	r0, #1
 1185 0078 3DD1     		bne	.L114
 415:D:/fchai/work/i-cube/I-CUBE-HUAWEI/Middlewares/Third_Party/Huawei/iot_link/network/mqtt/paho_mqtt/paho/MQTTClient-C/src\MQTTClient.c ****                                     (unsigned char **)&msg.payload, (int *)&msg.payloadlen, c->read
 416:D:/fchai/work/i-cube/I-CUBE-HUAWEI/Middlewares/Third_Party/Huawei/iot_link/network/mqtt/paho_mqtt/paho/MQTTClient-C/src\MQTTClient.c ****             goto exit;
 417:D:/fchai/work/i-cube/I-CUBE-HUAWEI/Middlewares/Third_Party/Huawei/iot_link/network/mqtt/paho_mqtt/paho/MQTTClient-C/src\MQTTClient.c ****         msg.qos = (enum QoS)intQoS;
 1186              		.loc 1 417 9 is_stmt 1 view .LVU363
 1187              		.loc 1 417 19 is_stmt 0 view .LVU364
 1188 007a 099B     		ldr	r3, [sp, #36]
 1189 007c 8DF84030 		strb	r3, [sp, #64]
 418:D:/fchai/work/i-cube/I-CUBE-HUAWEI/Middlewares/Third_Party/Huawei/iot_link/network/mqtt/paho_mqtt/paho/MQTTClient-C/src\MQTTClient.c ****         deliverMessage(c, &topicName, &msg);
 1190              		.loc 1 418 9 is_stmt 1 view .LVU365
 1191 0080 10AA     		add	r2, sp, #64
 1192 0082 3146     		mov	r1, r6
 1193 0084 2846     		mov	r0, r5
 1194 0086 FFF7FEFF 		bl	deliverMessage
 1195              	.LVL97:
 419:D:/fchai/work/i-cube/I-CUBE-HUAWEI/Middlewares/Third_Party/Huawei/iot_link/network/mqtt/paho_mqtt/paho/MQTTClient-C/src\MQTTClient.c ****         if (msg.qos != QOS0)
 1196              		.loc 1 419 9 view .LVU366
 1197              		.loc 1 419 16 is_stmt 0 view .LVU367
 1198 008a 9DF84030 		ldrb	r3, [sp, #64]	@ zero_extendqisi2
 1199              		.loc 1 419 12 view .LVU368
 1200 008e 002B     		cmp	r3, #0
 1201 0090 73D0     		beq	.L166
 420:D:/fchai/work/i-cube/I-CUBE-HUAWEI/Middlewares/Third_Party/Huawei/iot_link/network/mqtt/paho_mqtt/paho/MQTTClient-C/src\MQTTClient.c ****         {
 421:D:/fchai/work/i-cube/I-CUBE-HUAWEI/Middlewares/Third_Party/Huawei/iot_link/network/mqtt/paho_mqtt/paho/MQTTClient-C/src\MQTTClient.c ****             if (msg.qos == QOS1)
 1202              		.loc 1 421 13 is_stmt 1 view .LVU369
 1203              		.loc 1 421 16 is_stmt 0 view .LVU370
 1204 0092 012B     		cmp	r3, #1
 1205 0094 00F0B380 		beq	.L168
 422:D:/fchai/work/i-cube/I-CUBE-HUAWEI/Middlewares/Third_Party/Huawei/iot_link/network/mqtt/paho_mqtt/paho/MQTTClient-C/src\MQTTClient.c ****                 len = MQTTSerialize_ack(c->buf, c->buf_size, PUBACK, 0, msg.id);
ARM GAS  T:\msys\tmp\ccsrUqql.s 			page 35


 423:D:/fchai/work/i-cube/I-CUBE-HUAWEI/Middlewares/Third_Party/Huawei/iot_link/network/mqtt/paho_mqtt/paho/MQTTClient-C/src\MQTTClient.c ****             else if (msg.qos == QOS2)
 1206              		.loc 1 423 18 is_stmt 1 view .LVU371
 1207              		.loc 1 423 21 is_stmt 0 view .LVU372
 1208 0098 022B     		cmp	r3, #2
 1209 009a 73D1     		bne	.L137
 424:D:/fchai/work/i-cube/I-CUBE-HUAWEI/Middlewares/Third_Party/Huawei/iot_link/network/mqtt/paho_mqtt/paho/MQTTClient-C/src\MQTTClient.c ****                 len = MQTTSerialize_ack(c->buf, c->buf_size, PUBREC, 0, msg.id);
 1210              		.loc 1 424 17 is_stmt 1 view .LVU373
 1211              		.loc 1 424 23 is_stmt 0 view .LVU374
 1212 009c BDF84430 		ldrh	r3, [sp, #68]
 1213 00a0 0093     		str	r3, [sp]
 1214 00a2 A968     		ldr	r1, [r5, #8]
 1215 00a4 2869     		ldr	r0, [r5, #16]
 1216 00a6 3B46     		mov	r3, r7
 1217 00a8 0522     		movs	r2, #5
 1218 00aa FFF7FEFF 		bl	MQTTSerialize_ack
 1219              	.LVL98:
 1220 00ae 0646     		mov	r6, r0
 1221              	.LVL99:
 1222              	.L131:
 425:D:/fchai/work/i-cube/I-CUBE-HUAWEI/Middlewares/Third_Party/Huawei/iot_link/network/mqtt/paho_mqtt/paho/MQTTClient-C/src\MQTTClient.c ****             if (len <= 0)
 1223              		.loc 1 425 13 is_stmt 1 view .LVU375
 1224              		.loc 1 425 16 is_stmt 0 view .LVU376
 1225 00b0 002E     		cmp	r6, #0
 1226 00b2 67DD     		ble	.L137
 426:D:/fchai/work/i-cube/I-CUBE-HUAWEI/Middlewares/Third_Party/Huawei/iot_link/network/mqtt/paho_mqtt/paho/MQTTClient-C/src\MQTTClient.c ****                 rc = FAILURE;
 427:D:/fchai/work/i-cube/I-CUBE-HUAWEI/Middlewares/Third_Party/Huawei/iot_link/network/mqtt/paho_mqtt/paho/MQTTClient-C/src\MQTTClient.c ****             else
 428:D:/fchai/work/i-cube/I-CUBE-HUAWEI/Middlewares/Third_Party/Huawei/iot_link/network/mqtt/paho_mqtt/paho/MQTTClient-C/src\MQTTClient.c ****             {
 429:D:/fchai/work/i-cube/I-CUBE-HUAWEI/Middlewares/Third_Party/Huawei/iot_link/network/mqtt/paho_mqtt/paho/MQTTClient-C/src\MQTTClient.c ****                 TimerInit(&send_timer);
 1227              		.loc 1 429 17 is_stmt 1 view .LVU377
 1228 00b4 0AA8     		add	r0, sp, #40
 1229              	.LVL100:
 1230              		.loc 1 429 17 is_stmt 0 view .LVU378
 1231 00b6 FFF7FEFF 		bl	osal_loop_timer_init
 1232              	.LVL101:
 430:D:/fchai/work/i-cube/I-CUBE-HUAWEI/Middlewares/Third_Party/Huawei/iot_link/network/mqtt/paho_mqtt/paho/MQTTClient-C/src\MQTTClient.c ****                 TimerCountdownMS(&send_timer, 1000);
 1233              		.loc 1 430 17 is_stmt 1 view .LVU379
 1234 00ba 0AA8     		add	r0, sp, #40
 1235 00bc 4FF47A71 		mov	r1, #1000
 1236 00c0 FFF7FEFF 		bl	osal_loop_timer_count_downms
 1237              	.LVL102:
 431:D:/fchai/work/i-cube/I-CUBE-HUAWEI/Middlewares/Third_Party/Huawei/iot_link/network/mqtt/paho_mqtt/paho/MQTTClient-C/src\MQTTClient.c ****                 rc = sendPacket(c, len, &send_timer);
 1238              		.loc 1 431 17 view .LVU380
 1239              		.loc 1 431 22 is_stmt 0 view .LVU381
 1240 00c4 3146     		mov	r1, r6
 1241 00c6 0AAA     		add	r2, sp, #40
 1242 00c8 2846     		mov	r0, r5
 1243 00ca FFF7FEFF 		bl	sendPacket
 1244              	.LVL103:
 432:D:/fchai/work/i-cube/I-CUBE-HUAWEI/Middlewares/Third_Party/Huawei/iot_link/network/mqtt/paho_mqtt/paho/MQTTClient-C/src\MQTTClient.c ****             }
 433:D:/fchai/work/i-cube/I-CUBE-HUAWEI/Middlewares/Third_Party/Huawei/iot_link/network/mqtt/paho_mqtt/paho/MQTTClient-C/src\MQTTClient.c ****             if (rc == FAILURE)
 1245              		.loc 1 433 16 view .LVU382
 1246 00ce 431C     		adds	r3, r0, #1
 431:D:/fchai/work/i-cube/I-CUBE-HUAWEI/Middlewares/Third_Party/Huawei/iot_link/network/mqtt/paho_mqtt/paho/MQTTClient-C/src\MQTTClient.c ****                 rc = sendPacket(c, len, &send_timer);
 1247              		.loc 1 431 22 view .LVU383
 1248 00d0 0646     		mov	r6, r0
 1249              	.LVL104:
 1250              		.loc 1 433 13 is_stmt 1 view .LVU384
ARM GAS  T:\msys\tmp\ccsrUqql.s 			page 36


 1251              		.loc 1 433 16 is_stmt 0 view .LVU385
 1252 00d2 57D0     		beq	.L137
 434:D:/fchai/work/i-cube/I-CUBE-HUAWEI/Middlewares/Third_Party/Huawei/iot_link/network/mqtt/paho_mqtt/paho/MQTTClient-C/src\MQTTClient.c ****                 goto exit; // there was a problem
 435:D:/fchai/work/i-cube/I-CUBE-HUAWEI/Middlewares/Third_Party/Huawei/iot_link/network/mqtt/paho_mqtt/paho/MQTTClient-C/src\MQTTClient.c ****         }
 436:D:/fchai/work/i-cube/I-CUBE-HUAWEI/Middlewares/Third_Party/Huawei/iot_link/network/mqtt/paho_mqtt/paho/MQTTClient-C/src\MQTTClient.c ****         break;
 1253              		.loc 1 436 9 is_stmt 1 view .LVU386
 1254              		.loc 1 436 9 is_stmt 0 view .LVU387
 1255              	.LBE120:
 437:D:/fchai/work/i-cube/I-CUBE-HUAWEI/Middlewares/Third_Party/Huawei/iot_link/network/mqtt/paho_mqtt/paho/MQTTClient-C/src\MQTTClient.c ****     }
 438:D:/fchai/work/i-cube/I-CUBE-HUAWEI/Middlewares/Third_Party/Huawei/iot_link/network/mqtt/paho_mqtt/paho/MQTTClient-C/src\MQTTClient.c ****     case PUBREC:
 439:D:/fchai/work/i-cube/I-CUBE-HUAWEI/Middlewares/Third_Party/Huawei/iot_link/network/mqtt/paho_mqtt/paho/MQTTClient-C/src\MQTTClient.c ****     case PUBREL:
 440:D:/fchai/work/i-cube/I-CUBE-HUAWEI/Middlewares/Third_Party/Huawei/iot_link/network/mqtt/paho_mqtt/paho/MQTTClient-C/src\MQTTClient.c ****     {
 441:D:/fchai/work/i-cube/I-CUBE-HUAWEI/Middlewares/Third_Party/Huawei/iot_link/network/mqtt/paho_mqtt/paho/MQTTClient-C/src\MQTTClient.c ****         unsigned short mypacketid;
 442:D:/fchai/work/i-cube/I-CUBE-HUAWEI/Middlewares/Third_Party/Huawei/iot_link/network/mqtt/paho_mqtt/paho/MQTTClient-C/src\MQTTClient.c ****         unsigned char dup, type;
 443:D:/fchai/work/i-cube/I-CUBE-HUAWEI/Middlewares/Third_Party/Huawei/iot_link/network/mqtt/paho_mqtt/paho/MQTTClient-C/src\MQTTClient.c ****         if (MQTTDeserialize_ack(&type, &dup, &mypacketid, c->readbuf, c->readbuf_size) != 1)
 444:D:/fchai/work/i-cube/I-CUBE-HUAWEI/Middlewares/Third_Party/Huawei/iot_link/network/mqtt/paho_mqtt/paho/MQTTClient-C/src\MQTTClient.c ****             rc = FAILURE;
 445:D:/fchai/work/i-cube/I-CUBE-HUAWEI/Middlewares/Third_Party/Huawei/iot_link/network/mqtt/paho_mqtt/paho/MQTTClient-C/src\MQTTClient.c ****         else if ((len = MQTTSerialize_ack(c->buf, c->buf_size,
 446:D:/fchai/work/i-cube/I-CUBE-HUAWEI/Middlewares/Third_Party/Huawei/iot_link/network/mqtt/paho_mqtt/paho/MQTTClient-C/src\MQTTClient.c ****                                           (packet_type == PUBREC) ? PUBREL : PUBCOMP, 0, mypacketid
 447:D:/fchai/work/i-cube/I-CUBE-HUAWEI/Middlewares/Third_Party/Huawei/iot_link/network/mqtt/paho_mqtt/paho/MQTTClient-C/src\MQTTClient.c ****             rc = FAILURE;
 448:D:/fchai/work/i-cube/I-CUBE-HUAWEI/Middlewares/Third_Party/Huawei/iot_link/network/mqtt/paho_mqtt/paho/MQTTClient-C/src\MQTTClient.c ****         else
 449:D:/fchai/work/i-cube/I-CUBE-HUAWEI/Middlewares/Third_Party/Huawei/iot_link/network/mqtt/paho_mqtt/paho/MQTTClient-C/src\MQTTClient.c ****         {
 450:D:/fchai/work/i-cube/I-CUBE-HUAWEI/Middlewares/Third_Party/Huawei/iot_link/network/mqtt/paho_mqtt/paho/MQTTClient-C/src\MQTTClient.c ****             TimerInit(&send_timer);
 451:D:/fchai/work/i-cube/I-CUBE-HUAWEI/Middlewares/Third_Party/Huawei/iot_link/network/mqtt/paho_mqtt/paho/MQTTClient-C/src\MQTTClient.c ****             TimerCountdownMS(&send_timer, 1000);
 452:D:/fchai/work/i-cube/I-CUBE-HUAWEI/Middlewares/Third_Party/Huawei/iot_link/network/mqtt/paho_mqtt/paho/MQTTClient-C/src\MQTTClient.c ****             rc = sendPacket(c, len, &send_timer);
 453:D:/fchai/work/i-cube/I-CUBE-HUAWEI/Middlewares/Third_Party/Huawei/iot_link/network/mqtt/paho_mqtt/paho/MQTTClient-C/src\MQTTClient.c ****             if(rc != MQTT_SUCCESS)
 454:D:/fchai/work/i-cube/I-CUBE-HUAWEI/Middlewares/Third_Party/Huawei/iot_link/network/mqtt/paho_mqtt/paho/MQTTClient-C/src\MQTTClient.c ****                 rc = FAILURE; // there was a problem
 455:D:/fchai/work/i-cube/I-CUBE-HUAWEI/Middlewares/Third_Party/Huawei/iot_link/network/mqtt/paho_mqtt/paho/MQTTClient-C/src\MQTTClient.c ****         }
 456:D:/fchai/work/i-cube/I-CUBE-HUAWEI/Middlewares/Third_Party/Huawei/iot_link/network/mqtt/paho_mqtt/paho/MQTTClient-C/src\MQTTClient.c ****         if (rc == FAILURE)
 457:D:/fchai/work/i-cube/I-CUBE-HUAWEI/Middlewares/Third_Party/Huawei/iot_link/network/mqtt/paho_mqtt/paho/MQTTClient-C/src\MQTTClient.c ****             goto exit; // there was a problem
 458:D:/fchai/work/i-cube/I-CUBE-HUAWEI/Middlewares/Third_Party/Huawei/iot_link/network/mqtt/paho_mqtt/paho/MQTTClient-C/src\MQTTClient.c ****         break;
 459:D:/fchai/work/i-cube/I-CUBE-HUAWEI/Middlewares/Third_Party/Huawei/iot_link/network/mqtt/paho_mqtt/paho/MQTTClient-C/src\MQTTClient.c ****     }
 460:D:/fchai/work/i-cube/I-CUBE-HUAWEI/Middlewares/Third_Party/Huawei/iot_link/network/mqtt/paho_mqtt/paho/MQTTClient-C/src\MQTTClient.c **** 
 461:D:/fchai/work/i-cube/I-CUBE-HUAWEI/Middlewares/Third_Party/Huawei/iot_link/network/mqtt/paho_mqtt/paho/MQTTClient-C/src\MQTTClient.c ****     case PUBCOMP:
 462:D:/fchai/work/i-cube/I-CUBE-HUAWEI/Middlewares/Third_Party/Huawei/iot_link/network/mqtt/paho_mqtt/paho/MQTTClient-C/src\MQTTClient.c ****         break;
 463:D:/fchai/work/i-cube/I-CUBE-HUAWEI/Middlewares/Third_Party/Huawei/iot_link/network/mqtt/paho_mqtt/paho/MQTTClient-C/src\MQTTClient.c ****     case PINGRESP:
 464:D:/fchai/work/i-cube/I-CUBE-HUAWEI/Middlewares/Third_Party/Huawei/iot_link/network/mqtt/paho_mqtt/paho/MQTTClient-C/src\MQTTClient.c ****         c->ping_outstanding = 0;
 465:D:/fchai/work/i-cube/I-CUBE-HUAWEI/Middlewares/Third_Party/Huawei/iot_link/network/mqtt/paho_mqtt/paho/MQTTClient-C/src\MQTTClient.c ****         break;
 466:D:/fchai/work/i-cube/I-CUBE-HUAWEI/Middlewares/Third_Party/Huawei/iot_link/network/mqtt/paho_mqtt/paho/MQTTClient-C/src\MQTTClient.c ****     }
 467:D:/fchai/work/i-cube/I-CUBE-HUAWEI/Middlewares/Third_Party/Huawei/iot_link/network/mqtt/paho_mqtt/paho/MQTTClient-C/src\MQTTClient.c **** 
 468:D:/fchai/work/i-cube/I-CUBE-HUAWEI/Middlewares/Third_Party/Huawei/iot_link/network/mqtt/paho_mqtt/paho/MQTTClient-C/src\MQTTClient.c ****     if (keepalive(c) != MQTT_SUCCESS)
 1256              		.loc 1 468 5 is_stmt 1 view .LVU388
 1257              		.loc 1 468 9 is_stmt 0 view .LVU389
 1258 00d4 2846     		mov	r0, r5
 1259              	.LVL105:
 1260              		.loc 1 468 9 view .LVU390
 1261 00d6 FFF7FEFF 		bl	keepalive
 1262              	.LVL106:
 1263              		.loc 1 468 8 view .LVU391
 1264 00da 0028     		cmp	r0, #0
 1265 00dc 52D1     		bne	.L137
 1266              	.L136:
 469:D:/fchai/work/i-cube/I-CUBE-HUAWEI/Middlewares/Third_Party/Huawei/iot_link/network/mqtt/paho_mqtt/paho/MQTTClient-C/src\MQTTClient.c ****     {
 470:D:/fchai/work/i-cube/I-CUBE-HUAWEI/Middlewares/Third_Party/Huawei/iot_link/network/mqtt/paho_mqtt/paho/MQTTClient-C/src\MQTTClient.c ****         //check only keepalive FAILURE status so that previous FAILURE status can be considered as 
 471:D:/fchai/work/i-cube/I-CUBE-HUAWEI/Middlewares/Third_Party/Huawei/iot_link/network/mqtt/paho_mqtt/paho/MQTTClient-C/src\MQTTClient.c ****         rc = FAILURE;
 472:D:/fchai/work/i-cube/I-CUBE-HUAWEI/Middlewares/Third_Party/Huawei/iot_link/network/mqtt/paho_mqtt/paho/MQTTClient-C/src\MQTTClient.c ****     }
 473:D:/fchai/work/i-cube/I-CUBE-HUAWEI/Middlewares/Third_Party/Huawei/iot_link/network/mqtt/paho_mqtt/paho/MQTTClient-C/src\MQTTClient.c **** 
 474:D:/fchai/work/i-cube/I-CUBE-HUAWEI/Middlewares/Third_Party/Huawei/iot_link/network/mqtt/paho_mqtt/paho/MQTTClient-C/src\MQTTClient.c **** exit:
ARM GAS  T:\msys\tmp\ccsrUqql.s 			page 37


 475:D:/fchai/work/i-cube/I-CUBE-HUAWEI/Middlewares/Third_Party/Huawei/iot_link/network/mqtt/paho_mqtt/paho/MQTTClient-C/src\MQTTClient.c ****     if (rc == MQTT_SUCCESS)
 1267              		.loc 1 475 5 is_stmt 1 view .LVU392
 1268              		.loc 1 475 8 is_stmt 0 view .LVU393
 1269 00de 56B1     		cbz	r6, .L114
 1270 00e0 3446     		mov	r4, r6
 1271              	.LVL107:
 1272              	.L120:
 476:D:/fchai/work/i-cube/I-CUBE-HUAWEI/Middlewares/Third_Party/Huawei/iot_link/network/mqtt/paho_mqtt/paho/MQTTClient-C/src\MQTTClient.c ****         rc = packet_type;
 477:D:/fchai/work/i-cube/I-CUBE-HUAWEI/Middlewares/Third_Party/Huawei/iot_link/network/mqtt/paho_mqtt/paho/MQTTClient-C/src\MQTTClient.c ****     else if (c->isconnected)
 1273              		.loc 1 477 10 is_stmt 1 view .LVU394
 1274              		.loc 1 477 13 is_stmt 0 view .LVU395
 1275 00e2 2B6A     		ldr	r3, [r5, #32]
 1276 00e4 3BB1     		cbz	r3, .L114
 1277              	.L169:
 478:D:/fchai/work/i-cube/I-CUBE-HUAWEI/Middlewares/Third_Party/Huawei/iot_link/network/mqtt/paho_mqtt/paho/MQTTClient-C/src\MQTTClient.c ****         MQTTCloseSession(c);
 1278              		.loc 1 478 9 is_stmt 1 view .LVU396
 1279              	.LVL108:
 1280              	.LBB121:
 1281              	.LBI121:
 378:D:/fchai/work/i-cube/I-CUBE-HUAWEI/Middlewares/Third_Party/Huawei/iot_link/network/mqtt/paho_mqtt/paho/MQTTClient-C/src\MQTTClient.c **** {
 1282              		.loc 1 378 6 view .LVU397
 1283              	.LBB122:
 380:D:/fchai/work/i-cube/I-CUBE-HUAWEI/Middlewares/Third_Party/Huawei/iot_link/network/mqtt/paho_mqtt/paho/MQTTClient-C/src\MQTTClient.c ****     c->isconnected = 0;
 1284              		.loc 1 380 5 view .LVU398
 382:D:/fchai/work/i-cube/I-CUBE-HUAWEI/Middlewares/Third_Party/Huawei/iot_link/network/mqtt/paho_mqtt/paho/MQTTClient-C/src\MQTTClient.c ****         MQTTCleanSession(c);
 1285              		.loc 1 382 8 is_stmt 0 view .LVU399
 1286 00e6 6A6A     		ldr	r2, [r5, #36]
 380:D:/fchai/work/i-cube/I-CUBE-HUAWEI/Middlewares/Third_Party/Huawei/iot_link/network/mqtt/paho_mqtt/paho/MQTTClient-C/src\MQTTClient.c ****     c->isconnected = 0;
 1287              		.loc 1 380 25 view .LVU400
 1288 00e8 0023     		movs	r3, #0
 1289 00ea 2B77     		strb	r3, [r5, #28]
 381:D:/fchai/work/i-cube/I-CUBE-HUAWEI/Middlewares/Third_Party/Huawei/iot_link/network/mqtt/paho_mqtt/paho/MQTTClient-C/src\MQTTClient.c ****     if (c->cleansession)
 1290              		.loc 1 381 5 is_stmt 1 view .LVU401
 381:D:/fchai/work/i-cube/I-CUBE-HUAWEI/Middlewares/Third_Party/Huawei/iot_link/network/mqtt/paho_mqtt/paho/MQTTClient-C/src\MQTTClient.c ****     if (c->cleansession)
 1291              		.loc 1 381 20 is_stmt 0 view .LVU402
 1292 00ec 2B62     		str	r3, [r5, #32]
 382:D:/fchai/work/i-cube/I-CUBE-HUAWEI/Middlewares/Third_Party/Huawei/iot_link/network/mqtt/paho_mqtt/paho/MQTTClient-C/src\MQTTClient.c ****         MQTTCleanSession(c);
 1293              		.loc 1 382 5 is_stmt 1 view .LVU403
 382:D:/fchai/work/i-cube/I-CUBE-HUAWEI/Middlewares/Third_Party/Huawei/iot_link/network/mqtt/paho_mqtt/paho/MQTTClient-C/src\MQTTClient.c ****         MQTTCleanSession(c);
 1294              		.loc 1 382 8 is_stmt 0 view .LVU404
 1295 00ee 12B1     		cbz	r2, .L114
 1296 00f0 2846     		mov	r0, r5
 1297 00f2 FFF7FEFF 		bl	MQTTCloseSession.part.0
 1298              	.LVL109:
 382:D:/fchai/work/i-cube/I-CUBE-HUAWEI/Middlewares/Third_Party/Huawei/iot_link/network/mqtt/paho_mqtt/paho/MQTTClient-C/src\MQTTClient.c ****         MQTTCleanSession(c);
 1299              		.loc 1 382 8 view .LVU405
 1300              	.LBE122:
 1301              	.LBE121:
 479:D:/fchai/work/i-cube/I-CUBE-HUAWEI/Middlewares/Third_Party/Huawei/iot_link/network/mqtt/paho_mqtt/paho/MQTTClient-C/src\MQTTClient.c ****     return rc;
 1302              		.loc 1 479 5 is_stmt 1 view .LVU406
 1303              	.L114:
 480:D:/fchai/work/i-cube/I-CUBE-HUAWEI/Middlewares/Third_Party/Huawei/iot_link/network/mqtt/paho_mqtt/paho/MQTTClient-C/src\MQTTClient.c **** }
 1304              		.loc 1 480 1 is_stmt 0 view .LVU407
 1305 00f6 2046     		mov	r0, r4
 1306 00f8 14B0     		add	sp, sp, #80
 1307              	.LCFI17:
 1308              		.cfi_remember_state
ARM GAS  T:\msys\tmp\ccsrUqql.s 			page 38


 1309              		.cfi_def_cfa_offset 32
 1310              		@ sp needed
 1311 00fa BDE8F087 		pop	{r4, r5, r6, r7, r8, r9, r10, pc}
 1312              	.LVL110:
 1313              	.L167:
 1314              	.LCFI18:
 1315              		.cfi_restore_state
 1316              	.LBB123:
 1317              	.LBB116:
 132:D:/fchai/work/i-cube/I-CUBE-HUAWEI/Middlewares/Third_Party/Huawei/iot_link/network/mqtt/paho_mqtt/paho/MQTTClient-C/src\MQTTClient.c ****     /* 2. read the remaining length.  This is variable in itself */
 1318              		.loc 1 132 5 is_stmt 1 view .LVU408
 134:D:/fchai/work/i-cube/I-CUBE-HUAWEI/Middlewares/Third_Party/Huawei/iot_link/network/mqtt/paho_mqtt/paho/MQTTClient-C/src\MQTTClient.c ****     len += MQTTPacket_encode(c->readbuf + 1, rem_len); /* put the original remaining length back in
 1319              		.loc 1 134 5 view .LVU409
 1320 00fe 3046     		mov	r0, r6
 1321              	.LVL111:
 134:D:/fchai/work/i-cube/I-CUBE-HUAWEI/Middlewares/Third_Party/Huawei/iot_link/network/mqtt/paho_mqtt/paho/MQTTClient-C/src\MQTTClient.c ****     len += MQTTPacket_encode(c->readbuf + 1, rem_len); /* put the original remaining length back in
 1322              		.loc 1 134 5 is_stmt 0 view .LVU410
 1323 0100 FFF7FEFF 		bl	osal_loop_timer_left
 1324              	.LVL112:
 1325 0104 4FF00408 		mov	r8, #4
 1326 0108 8146     		mov	r9, r0
 1327              	.LVL113:
 1328              	.LBB108:
 1329              	.LBI108:
  93:D:/fchai/work/i-cube/I-CUBE-HUAWEI/Middlewares/Third_Party/Huawei/iot_link/network/mqtt/paho_mqtt/paho/MQTTClient-C/src\MQTTClient.c **** {
 1330              		.loc 1 93 12 is_stmt 1 view .LVU411
 1331              	.LBB109:
  95:D:/fchai/work/i-cube/I-CUBE-HUAWEI/Middlewares/Third_Party/Huawei/iot_link/network/mqtt/paho_mqtt/paho/MQTTClient-C/src\MQTTClient.c ****     int multiplier = 1;
 1332              		.loc 1 95 5 view .LVU412
  96:D:/fchai/work/i-cube/I-CUBE-HUAWEI/Middlewares/Third_Party/Huawei/iot_link/network/mqtt/paho_mqtt/paho/MQTTClient-C/src\MQTTClient.c ****     int len = 0;
 1333              		.loc 1 96 5 view .LVU413
  97:D:/fchai/work/i-cube/I-CUBE-HUAWEI/Middlewares/Third_Party/Huawei/iot_link/network/mqtt/paho_mqtt/paho/MQTTClient-C/src\MQTTClient.c ****     const int MAX_NO_OF_REMAINING_LENGTH_BYTES = 4;
 1334              		.loc 1 97 5 view .LVU414
  98:D:/fchai/work/i-cube/I-CUBE-HUAWEI/Middlewares/Third_Party/Huawei/iot_link/network/mqtt/paho_mqtt/paho/MQTTClient-C/src\MQTTClient.c **** 
 1335              		.loc 1 98 5 view .LVU415
 100:D:/fchai/work/i-cube/I-CUBE-HUAWEI/Middlewares/Third_Party/Huawei/iot_link/network/mqtt/paho_mqtt/paho/MQTTClient-C/src\MQTTClient.c ****     do
 1336              		.loc 1 100 5 view .LVU416
 101:D:/fchai/work/i-cube/I-CUBE-HUAWEI/Middlewares/Third_Party/Huawei/iot_link/network/mqtt/paho_mqtt/paho/MQTTClient-C/src\MQTTClient.c ****     {
 1337              		.loc 1 101 5 view .LVU417
 1338              	.LBB110:
 103:D:/fchai/work/i-cube/I-CUBE-HUAWEI/Middlewares/Third_Party/Huawei/iot_link/network/mqtt/paho_mqtt/paho/MQTTClient-C/src\MQTTClient.c **** 
 1339              		.loc 1 103 9 view .LVU418
 105:D:/fchai/work/i-cube/I-CUBE-HUAWEI/Middlewares/Third_Party/Huawei/iot_link/network/mqtt/paho_mqtt/paho/MQTTClient-C/src\MQTTClient.c ****         {
 1340              		.loc 1 105 9 view .LVU419
 105:D:/fchai/work/i-cube/I-CUBE-HUAWEI/Middlewares/Third_Party/Huawei/iot_link/network/mqtt/paho_mqtt/paho/MQTTClient-C/src\MQTTClient.c ****         {
 1341              		.loc 1 105 9 is_stmt 0 view .LVU420
 1342              	.LBE110:
 100:D:/fchai/work/i-cube/I-CUBE-HUAWEI/Middlewares/Third_Party/Huawei/iot_link/network/mqtt/paho_mqtt/paho/MQTTClient-C/src\MQTTClient.c ****     do
 1343              		.loc 1 100 12 view .LVU421
 1344 010a 0027     		movs	r7, #0
 1345              	.LVL114:
 1346              	.L116:
 1347              	.LBB111:
 110:D:/fchai/work/i-cube/I-CUBE-HUAWEI/Middlewares/Third_Party/Huawei/iot_link/network/mqtt/paho_mqtt/paho/MQTTClient-C/src\MQTTClient.c ****         if (rc != 1)
 1348              		.loc 1 110 9 is_stmt 1 view .LVU422
 110:D:/fchai/work/i-cube/I-CUBE-HUAWEI/Middlewares/Third_Party/Huawei/iot_link/network/mqtt/paho_mqtt/paho/MQTTClient-C/src\MQTTClient.c ****         if (rc != 1)
 1349              		.loc 1 110 15 is_stmt 0 view .LVU423
ARM GAS  T:\msys\tmp\ccsrUqql.s 			page 39


 1350 010c D5F8A400 		ldr	r0, [r5, #164]
 110:D:/fchai/work/i-cube/I-CUBE-HUAWEI/Middlewares/Third_Party/Huawei/iot_link/network/mqtt/paho_mqtt/paho/MQTTClient-C/src\MQTTClient.c ****         if (rc != 1)
 1351              		.loc 1 110 14 view .LVU424
 1352 0110 4B46     		mov	r3, r9
 1353 0112 D0F82CA0 		ldr	r10, [r0, #44]
 1354 0116 0122     		movs	r2, #1
 1355 0118 10A9     		add	r1, sp, #64
 1356 011a D047     		blx	r10
 1357              	.LVL115:
 113:D:/fchai/work/i-cube/I-CUBE-HUAWEI/Middlewares/Third_Party/Huawei/iot_link/network/mqtt/paho_mqtt/paho/MQTTClient-C/src\MQTTClient.c ****         multiplier *= 128;
 1358              		.loc 1 113 9 is_stmt 1 view .LVU425
 111:D:/fchai/work/i-cube/I-CUBE-HUAWEI/Middlewares/Third_Party/Huawei/iot_link/network/mqtt/paho_mqtt/paho/MQTTClient-C/src\MQTTClient.c ****             goto exit;
 1359              		.loc 1 111 9 view .LVU426
 111:D:/fchai/work/i-cube/I-CUBE-HUAWEI/Middlewares/Third_Party/Huawei/iot_link/network/mqtt/paho_mqtt/paho/MQTTClient-C/src\MQTTClient.c ****             goto exit;
 1360              		.loc 1 111 12 is_stmt 0 view .LVU427
 1361 011c 0128     		cmp	r0, #1
 1362 011e 0CD1     		bne	.L117
 113:D:/fchai/work/i-cube/I-CUBE-HUAWEI/Middlewares/Third_Party/Huawei/iot_link/network/mqtt/paho_mqtt/paho/MQTTClient-C/src\MQTTClient.c ****         multiplier *= 128;
 1363              		.loc 1 113 22 view .LVU428
 1364 0120 9DF84020 		ldrb	r2, [sp, #64]	@ zero_extendqisi2
 1365 0124 02F07F03 		and	r3, r2, #127
 1366              	.LBE111:
 115:D:/fchai/work/i-cube/I-CUBE-HUAWEI/Middlewares/Third_Party/Huawei/iot_link/network/mqtt/paho_mqtt/paho/MQTTClient-C/src\MQTTClient.c **** exit:
 1367              		.loc 1 115 5 view .LVU429
 1368 0128 1206     		lsls	r2, r2, #24
 1369              	.LBB112:
 113:D:/fchai/work/i-cube/I-CUBE-HUAWEI/Middlewares/Third_Party/Huawei/iot_link/network/mqtt/paho_mqtt/paho/MQTTClient-C/src\MQTTClient.c ****         multiplier *= 128;
 1370              		.loc 1 113 16 view .LVU430
 1371 012a 04FB0377 		mla	r7, r4, r3, r7
 1372              	.LVL116:
 114:D:/fchai/work/i-cube/I-CUBE-HUAWEI/Middlewares/Third_Party/Huawei/iot_link/network/mqtt/paho_mqtt/paho/MQTTClient-C/src\MQTTClient.c ****     } while ((i & 128) != 0);
 1373              		.loc 1 114 9 is_stmt 1 view .LVU431
 114:D:/fchai/work/i-cube/I-CUBE-HUAWEI/Middlewares/Third_Party/Huawei/iot_link/network/mqtt/paho_mqtt/paho/MQTTClient-C/src\MQTTClient.c ****     } while ((i & 128) != 0);
 1374              		.loc 1 114 20 is_stmt 0 view .LVU432
 1375 012e 4FEAC414 		lsl	r4, r4, #7
 1376              	.LVL117:
 114:D:/fchai/work/i-cube/I-CUBE-HUAWEI/Middlewares/Third_Party/Huawei/iot_link/network/mqtt/paho_mqtt/paho/MQTTClient-C/src\MQTTClient.c ****     } while ((i & 128) != 0);
 1377              		.loc 1 114 20 view .LVU433
 1378              	.LBE112:
 101:D:/fchai/work/i-cube/I-CUBE-HUAWEI/Middlewares/Third_Party/Huawei/iot_link/network/mqtt/paho_mqtt/paho/MQTTClient-C/src\MQTTClient.c ****     {
 1379              		.loc 1 101 5 is_stmt 1 view .LVU434
 1380              	.LBB113:
 103:D:/fchai/work/i-cube/I-CUBE-HUAWEI/Middlewares/Third_Party/Huawei/iot_link/network/mqtt/paho_mqtt/paho/MQTTClient-C/src\MQTTClient.c **** 
 1381              		.loc 1 103 9 view .LVU435
 105:D:/fchai/work/i-cube/I-CUBE-HUAWEI/Middlewares/Third_Party/Huawei/iot_link/network/mqtt/paho_mqtt/paho/MQTTClient-C/src\MQTTClient.c ****         {
 1382              		.loc 1 105 9 view .LVU436
 105:D:/fchai/work/i-cube/I-CUBE-HUAWEI/Middlewares/Third_Party/Huawei/iot_link/network/mqtt/paho_mqtt/paho/MQTTClient-C/src\MQTTClient.c ****         {
 1383              		.loc 1 105 9 is_stmt 0 view .LVU437
 1384              	.LBE113:
 115:D:/fchai/work/i-cube/I-CUBE-HUAWEI/Middlewares/Third_Party/Huawei/iot_link/network/mqtt/paho_mqtt/paho/MQTTClient-C/src\MQTTClient.c **** exit:
 1385              		.loc 1 115 13 is_stmt 1 view .LVU438
 115:D:/fchai/work/i-cube/I-CUBE-HUAWEI/Middlewares/Third_Party/Huawei/iot_link/network/mqtt/paho_mqtt/paho/MQTTClient-C/src\MQTTClient.c **** exit:
 1386              		.loc 1 115 5 is_stmt 0 view .LVU439
 1387 0132 02D5     		bpl	.L117
 1388              	.LBB114:
 105:D:/fchai/work/i-cube/I-CUBE-HUAWEI/Middlewares/Third_Party/Huawei/iot_link/network/mqtt/paho_mqtt/paho/MQTTClient-C/src\MQTTClient.c ****         {
 1389              		.loc 1 105 12 view .LVU440
ARM GAS  T:\msys\tmp\ccsrUqql.s 			page 40


 1390 0134 B8F10108 		subs	r8, r8, #1
 1391              	.LVL118:
 105:D:/fchai/work/i-cube/I-CUBE-HUAWEI/Middlewares/Third_Party/Huawei/iot_link/network/mqtt/paho_mqtt/paho/MQTTClient-C/src\MQTTClient.c ****         {
 1392              		.loc 1 105 12 view .LVU441
 1393 0138 E8D1     		bne	.L116
 1394              	.LVL119:
 1395              	.L117:
 105:D:/fchai/work/i-cube/I-CUBE-HUAWEI/Middlewares/Third_Party/Huawei/iot_link/network/mqtt/paho_mqtt/paho/MQTTClient-C/src\MQTTClient.c ****         {
 1396              		.loc 1 105 12 view .LVU442
 1397              	.LBE114:
 117:D:/fchai/work/i-cube/I-CUBE-HUAWEI/Middlewares/Third_Party/Huawei/iot_link/network/mqtt/paho_mqtt/paho/MQTTClient-C/src\MQTTClient.c **** }
 1398              		.loc 1 117 5 is_stmt 1 view .LVU443
 117:D:/fchai/work/i-cube/I-CUBE-HUAWEI/Middlewares/Third_Party/Huawei/iot_link/network/mqtt/paho_mqtt/paho/MQTTClient-C/src\MQTTClient.c **** }
 1399              		.loc 1 117 5 is_stmt 0 view .LVU444
 1400              	.LBE109:
 1401              	.LBE108:
 135:D:/fchai/work/i-cube/I-CUBE-HUAWEI/Middlewares/Third_Party/Huawei/iot_link/network/mqtt/paho_mqtt/paho/MQTTClient-C/src\MQTTClient.c **** 
 1402              		.loc 1 135 5 is_stmt 1 view .LVU445
 135:D:/fchai/work/i-cube/I-CUBE-HUAWEI/Middlewares/Third_Party/Huawei/iot_link/network/mqtt/paho_mqtt/paho/MQTTClient-C/src\MQTTClient.c **** 
 1403              		.loc 1 135 12 is_stmt 0 view .LVU446
 1404 013a 6869     		ldr	r0, [r5, #20]
 1405 013c 3946     		mov	r1, r7
 1406 013e 0130     		adds	r0, r0, #1
 1407 0140 FFF7FEFF 		bl	MQTTPacket_encode
 1408              	.LVL120:
 137:D:/fchai/work/i-cube/I-CUBE-HUAWEI/Middlewares/Third_Party/Huawei/iot_link/network/mqtt/paho_mqtt/paho/MQTTClient-C/src\MQTTClient.c ****     {
 1409              		.loc 1 137 5 is_stmt 1 view .LVU447
 137:D:/fchai/work/i-cube/I-CUBE-HUAWEI/Middlewares/Third_Party/Huawei/iot_link/network/mqtt/paho_mqtt/paho/MQTTClient-C/src\MQTTClient.c ****     {
 1410              		.loc 1 137 36 is_stmt 0 view .LVU448
 1411 0144 EB68     		ldr	r3, [r5, #12]
 135:D:/fchai/work/i-cube/I-CUBE-HUAWEI/Middlewares/Third_Party/Huawei/iot_link/network/mqtt/paho_mqtt/paho/MQTTClient-C/src\MQTTClient.c **** 
 1412              		.loc 1 135 9 view .LVU449
 1413 0146 411C     		adds	r1, r0, #1
 1414              	.LVL121:
 137:D:/fchai/work/i-cube/I-CUBE-HUAWEI/Middlewares/Third_Party/Huawei/iot_link/network/mqtt/paho_mqtt/paho/MQTTClient-C/src\MQTTClient.c ****     {
 1415              		.loc 1 137 36 view .LVU450
 1416 0148 5B1A     		subs	r3, r3, r1
 137:D:/fchai/work/i-cube/I-CUBE-HUAWEI/Middlewares/Third_Party/Huawei/iot_link/network/mqtt/paho_mqtt/paho/MQTTClient-C/src\MQTTClient.c ****     {
 1417              		.loc 1 137 8 view .LVU451
 1418 014a BB42     		cmp	r3, r7
 139:D:/fchai/work/i-cube/I-CUBE-HUAWEI/Middlewares/Third_Party/Huawei/iot_link/network/mqtt/paho_mqtt/paho/MQTTClient-C/src\MQTTClient.c ****         goto exit;
 1419              		.loc 1 139 12 view .LVU452
 1420 014c 38BF     		it	cc
 1421 014e 6FF00104 		mvncc	r4, #1
 137:D:/fchai/work/i-cube/I-CUBE-HUAWEI/Middlewares/Third_Party/Huawei/iot_link/network/mqtt/paho_mqtt/paho/MQTTClient-C/src\MQTTClient.c ****     {
 1422              		.loc 1 137 8 view .LVU453
 1423 0152 C6D3     		bcc	.L120
 144:D:/fchai/work/i-cube/I-CUBE-HUAWEI/Middlewares/Third_Party/Huawei/iot_link/network/mqtt/paho_mqtt/paho/MQTTClient-C/src\MQTTClient.c ****         rc = 0;
 1424              		.loc 1 144 5 is_stmt 1 view .LVU454
 144:D:/fchai/work/i-cube/I-CUBE-HUAWEI/Middlewares/Third_Party/Huawei/iot_link/network/mqtt/paho_mqtt/paho/MQTTClient-C/src\MQTTClient.c ****         rc = 0;
 1425              		.loc 1 144 8 is_stmt 0 view .LVU455
 1426 0154 002F     		cmp	r7, #0
 1427 0156 46D0     		beq	.L121
 144:D:/fchai/work/i-cube/I-CUBE-HUAWEI/Middlewares/Third_Party/Huawei/iot_link/network/mqtt/paho_mqtt/paho/MQTTClient-C/src\MQTTClient.c ****         rc = 0;
 1428              		.loc 1 144 30 view .LVU456
 1429 0158 6B69     		ldr	r3, [r5, #20]
 144:D:/fchai/work/i-cube/I-CUBE-HUAWEI/Middlewares/Third_Party/Huawei/iot_link/network/mqtt/paho_mqtt/paho/MQTTClient-C/src\MQTTClient.c ****         rc = 0;
ARM GAS  T:\msys\tmp\ccsrUqql.s 			page 41


 1430              		.loc 1 144 31 view .LVU457
 1431 015a D5F8A440 		ldr	r4, [r5, #164]
 144:D:/fchai/work/i-cube/I-CUBE-HUAWEI/Middlewares/Third_Party/Huawei/iot_link/network/mqtt/paho_mqtt/paho/MQTTClient-C/src\MQTTClient.c ****         rc = 0;
 1432              		.loc 1 144 30 view .LVU458
 1433 015e 1944     		add	r1, r1, r3
 1434              	.LVL122:
 144:D:/fchai/work/i-cube/I-CUBE-HUAWEI/Middlewares/Third_Party/Huawei/iot_link/network/mqtt/paho_mqtt/paho/MQTTClient-C/src\MQTTClient.c ****         rc = 0;
 1435              		.loc 1 144 30 view .LVU459
 1436 0160 3046     		mov	r0, r6
 1437              	.LVL123:
 144:D:/fchai/work/i-cube/I-CUBE-HUAWEI/Middlewares/Third_Party/Huawei/iot_link/network/mqtt/paho_mqtt/paho/MQTTClient-C/src\MQTTClient.c ****         rc = 0;
 1438              		.loc 1 144 30 view .LVU460
 1439 0162 0791     		str	r1, [sp, #28]
 144:D:/fchai/work/i-cube/I-CUBE-HUAWEI/Middlewares/Third_Party/Huawei/iot_link/network/mqtt/paho_mqtt/paho/MQTTClient-C/src\MQTTClient.c ****         rc = 0;
 1440              		.loc 1 144 40 view .LVU461
 1441 0164 E66A     		ldr	r6, [r4, #44]
 1442              	.LVL124:
 144:D:/fchai/work/i-cube/I-CUBE-HUAWEI/Middlewares/Third_Party/Huawei/iot_link/network/mqtt/paho_mqtt/paho/MQTTClient-C/src\MQTTClient.c ****         rc = 0;
 1443              		.loc 1 144 30 view .LVU462
 1444 0166 FFF7FEFF 		bl	osal_loop_timer_left
 1445              	.LVL125:
 144:D:/fchai/work/i-cube/I-CUBE-HUAWEI/Middlewares/Third_Party/Huawei/iot_link/network/mqtt/paho_mqtt/paho/MQTTClient-C/src\MQTTClient.c ****         rc = 0;
 1446              		.loc 1 144 30 view .LVU463
 1447 016a 0799     		ldr	r1, [sp, #28]
 1448 016c 0346     		mov	r3, r0
 1449 016e 3A46     		mov	r2, r7
 1450 0170 2046     		mov	r0, r4
 1451 0172 B047     		blx	r6
 1452              	.LVL126:
 144:D:/fchai/work/i-cube/I-CUBE-HUAWEI/Middlewares/Third_Party/Huawei/iot_link/network/mqtt/paho_mqtt/paho/MQTTClient-C/src\MQTTClient.c ****         rc = 0;
 1453              		.loc 1 144 21 view .LVU464
 1454 0174 B842     		cmp	r0, r7
 1455 0176 36D0     		beq	.L121
 1456              	.LVL127:
 154:D:/fchai/work/i-cube/I-CUBE-HUAWEI/Middlewares/Third_Party/Huawei/iot_link/network/mqtt/paho_mqtt/paho/MQTTClient-C/src\MQTTClient.c **** }
 1457              		.loc 1 154 5 is_stmt 1 view .LVU465
 154:D:/fchai/work/i-cube/I-CUBE-HUAWEI/Middlewares/Third_Party/Huawei/iot_link/network/mqtt/paho_mqtt/paho/MQTTClient-C/src\MQTTClient.c **** }
 1458              		.loc 1 154 5 is_stmt 0 view .LVU466
 1459              	.LBE116:
 1460              	.LBE123:
 395:D:/fchai/work/i-cube/I-CUBE-HUAWEI/Middlewares/Third_Party/Huawei/iot_link/network/mqtt/paho_mqtt/paho/MQTTClient-C/src\MQTTClient.c ****     {
 1461              		.loc 1 395 5 is_stmt 1 view .LVU467
 1462              	.LBB124:
 1463              	.LBB117:
 145:D:/fchai/work/i-cube/I-CUBE-HUAWEI/Middlewares/Third_Party/Huawei/iot_link/network/mqtt/paho_mqtt/paho/MQTTClient-C/src\MQTTClient.c ****         goto exit;
 1464              		.loc 1 145 12 is_stmt 0 view .LVU468
 1465 0178 0024     		movs	r4, #0
 1466              	.LVL128:
 1467              	.L166:
 145:D:/fchai/work/i-cube/I-CUBE-HUAWEI/Middlewares/Third_Party/Huawei/iot_link/network/mqtt/paho_mqtt/paho/MQTTClient-C/src\MQTTClient.c ****         goto exit;
 1468              		.loc 1 145 12 view .LVU469
 1469              	.LBE117:
 1470              	.LBE124:
 465:D:/fchai/work/i-cube/I-CUBE-HUAWEI/Middlewares/Third_Party/Huawei/iot_link/network/mqtt/paho_mqtt/paho/MQTTClient-C/src\MQTTClient.c ****     }
 1471              		.loc 1 465 9 is_stmt 1 view .LVU470
 468:D:/fchai/work/i-cube/I-CUBE-HUAWEI/Middlewares/Third_Party/Huawei/iot_link/network/mqtt/paho_mqtt/paho/MQTTClient-C/src\MQTTClient.c ****     {
 1472              		.loc 1 468 5 view .LVU471
ARM GAS  T:\msys\tmp\ccsrUqql.s 			page 42


 468:D:/fchai/work/i-cube/I-CUBE-HUAWEI/Middlewares/Third_Party/Huawei/iot_link/network/mqtt/paho_mqtt/paho/MQTTClient-C/src\MQTTClient.c ****     {
 1473              		.loc 1 468 9 is_stmt 0 view .LVU472
 1474 017a 2846     		mov	r0, r5
 1475 017c FFF7FEFF 		bl	keepalive
 1476              	.LVL129:
 468:D:/fchai/work/i-cube/I-CUBE-HUAWEI/Middlewares/Third_Party/Huawei/iot_link/network/mqtt/paho_mqtt/paho/MQTTClient-C/src\MQTTClient.c ****     {
 1477              		.loc 1 468 8 view .LVU473
 1478 0180 0028     		cmp	r0, #0
 1479 0182 B8D0     		beq	.L114
 1480              	.LVL130:
 1481              	.L137:
 1482              	.LBB125:
 457:D:/fchai/work/i-cube/I-CUBE-HUAWEI/Middlewares/Third_Party/Huawei/iot_link/network/mqtt/paho_mqtt/paho/MQTTClient-C/src\MQTTClient.c ****         break;
 1483              		.loc 1 457 13 is_stmt 1 view .LVU474
 457:D:/fchai/work/i-cube/I-CUBE-HUAWEI/Middlewares/Third_Party/Huawei/iot_link/network/mqtt/paho_mqtt/paho/MQTTClient-C/src\MQTTClient.c ****         break;
 1484              		.loc 1 457 13 is_stmt 0 view .LVU475
 1485              	.LBE125:
 475:D:/fchai/work/i-cube/I-CUBE-HUAWEI/Middlewares/Third_Party/Huawei/iot_link/network/mqtt/paho_mqtt/paho/MQTTClient-C/src\MQTTClient.c ****         rc = packet_type;
 1486              		.loc 1 475 5 is_stmt 1 view .LVU476
 477:D:/fchai/work/i-cube/I-CUBE-HUAWEI/Middlewares/Third_Party/Huawei/iot_link/network/mqtt/paho_mqtt/paho/MQTTClient-C/src\MQTTClient.c ****         MQTTCloseSession(c);
 1487              		.loc 1 477 13 is_stmt 0 view .LVU477
 1488 0184 2B6A     		ldr	r3, [r5, #32]
 1489              	.LBB126:
 457:D:/fchai/work/i-cube/I-CUBE-HUAWEI/Middlewares/Third_Party/Huawei/iot_link/network/mqtt/paho_mqtt/paho/MQTTClient-C/src\MQTTClient.c ****         break;
 1490              		.loc 1 457 13 view .LVU478
 1491 0186 4FF0FF34 		mov	r4, #-1
 1492              	.LVL131:
 457:D:/fchai/work/i-cube/I-CUBE-HUAWEI/Middlewares/Third_Party/Huawei/iot_link/network/mqtt/paho_mqtt/paho/MQTTClient-C/src\MQTTClient.c ****         break;
 1493              		.loc 1 457 13 view .LVU479
 1494              	.LBE126:
 477:D:/fchai/work/i-cube/I-CUBE-HUAWEI/Middlewares/Third_Party/Huawei/iot_link/network/mqtt/paho_mqtt/paho/MQTTClient-C/src\MQTTClient.c ****         MQTTCloseSession(c);
 1495              		.loc 1 477 10 is_stmt 1 view .LVU480
 477:D:/fchai/work/i-cube/I-CUBE-HUAWEI/Middlewares/Third_Party/Huawei/iot_link/network/mqtt/paho_mqtt/paho/MQTTClient-C/src\MQTTClient.c ****         MQTTCloseSession(c);
 1496              		.loc 1 477 13 is_stmt 0 view .LVU481
 1497 018a 002B     		cmp	r3, #0
 1498 018c B3D0     		beq	.L114
 1499 018e AAE7     		b	.L169
 1500              	.LVL132:
 1501              	.L125:
 1502              	.LBB127:
 441:D:/fchai/work/i-cube/I-CUBE-HUAWEI/Middlewares/Third_Party/Huawei/iot_link/network/mqtt/paho_mqtt/paho/MQTTClient-C/src\MQTTClient.c ****         unsigned char dup, type;
 1503              		.loc 1 441 9 is_stmt 1 view .LVU482
 442:D:/fchai/work/i-cube/I-CUBE-HUAWEI/Middlewares/Third_Party/Huawei/iot_link/network/mqtt/paho_mqtt/paho/MQTTClient-C/src\MQTTClient.c ****         if (MQTTDeserialize_ack(&type, &dup, &mypacketid, c->readbuf, c->readbuf_size) != 1)
 1504              		.loc 1 442 9 view .LVU483
 443:D:/fchai/work/i-cube/I-CUBE-HUAWEI/Middlewares/Third_Party/Huawei/iot_link/network/mqtt/paho_mqtt/paho/MQTTClient-C/src\MQTTClient.c ****             rc = FAILURE;
 1505              		.loc 1 443 9 view .LVU484
 443:D:/fchai/work/i-cube/I-CUBE-HUAWEI/Middlewares/Third_Party/Huawei/iot_link/network/mqtt/paho_mqtt/paho/MQTTClient-C/src\MQTTClient.c ****             rc = FAILURE;
 1506              		.loc 1 443 13 is_stmt 0 view .LVU485
 1507 0190 EB68     		ldr	r3, [r5, #12]
 1508 0192 0093     		str	r3, [sp]
 1509 0194 6B69     		ldr	r3, [r5, #20]
 1510 0196 10AA     		add	r2, sp, #64
 1511 0198 09A9     		add	r1, sp, #36
 1512 019a 0DA8     		add	r0, sp, #52
 1513 019c FFF7FEFF 		bl	MQTTDeserialize_ack
 1514              	.LVL133:
 443:D:/fchai/work/i-cube/I-CUBE-HUAWEI/Middlewares/Third_Party/Huawei/iot_link/network/mqtt/paho_mqtt/paho/MQTTClient-C/src\MQTTClient.c ****             rc = FAILURE;
ARM GAS  T:\msys\tmp\ccsrUqql.s 			page 43


 1515              		.loc 1 443 12 view .LVU486
 1516 01a0 0128     		cmp	r0, #1
 1517 01a2 EFD1     		bne	.L137
 445:D:/fchai/work/i-cube/I-CUBE-HUAWEI/Middlewares/Third_Party/Huawei/iot_link/network/mqtt/paho_mqtt/paho/MQTTClient-C/src\MQTTClient.c ****                                           (packet_type == PUBREC) ? PUBREL : PUBCOMP, 0, mypacketid
 1518              		.loc 1 445 14 is_stmt 1 view .LVU487
 445:D:/fchai/work/i-cube/I-CUBE-HUAWEI/Middlewares/Third_Party/Huawei/iot_link/network/mqtt/paho_mqtt/paho/MQTTClient-C/src\MQTTClient.c ****                                           (packet_type == PUBREC) ? PUBREL : PUBCOMP, 0, mypacketid
 1519              		.loc 1 445 25 is_stmt 0 view .LVU488
 1520 01a4 BDF84030 		ldrh	r3, [sp, #64]
 1521 01a8 0093     		str	r3, [sp]
 1522 01aa 052C     		cmp	r4, #5
 1523 01ac 0CBF     		ite	eq
 1524 01ae 0622     		moveq	r2, #6
 1525 01b0 0722     		movne	r2, #7
 1526 01b2 A968     		ldr	r1, [r5, #8]
 1527 01b4 2869     		ldr	r0, [r5, #16]
 1528 01b6 0023     		movs	r3, #0
 1529 01b8 FFF7FEFF 		bl	MQTTSerialize_ack
 1530              	.LVL134:
 445:D:/fchai/work/i-cube/I-CUBE-HUAWEI/Middlewares/Third_Party/Huawei/iot_link/network/mqtt/paho_mqtt/paho/MQTTClient-C/src\MQTTClient.c ****                                           (packet_type == PUBREC) ? PUBREL : PUBCOMP, 0, mypacketid
 1531              		.loc 1 445 17 view .LVU489
 1532 01bc 061E     		subs	r6, r0, #0
 1533 01be E1DD     		ble	.L137
 450:D:/fchai/work/i-cube/I-CUBE-HUAWEI/Middlewares/Third_Party/Huawei/iot_link/network/mqtt/paho_mqtt/paho/MQTTClient-C/src\MQTTClient.c ****             TimerCountdownMS(&send_timer, 1000);
 1534              		.loc 1 450 13 is_stmt 1 view .LVU490
 1535 01c0 0AA8     		add	r0, sp, #40
 1536              	.LVL135:
 450:D:/fchai/work/i-cube/I-CUBE-HUAWEI/Middlewares/Third_Party/Huawei/iot_link/network/mqtt/paho_mqtt/paho/MQTTClient-C/src\MQTTClient.c ****             TimerCountdownMS(&send_timer, 1000);
 1537              		.loc 1 450 13 is_stmt 0 view .LVU491
 1538 01c2 FFF7FEFF 		bl	osal_loop_timer_init
 1539              	.LVL136:
 451:D:/fchai/work/i-cube/I-CUBE-HUAWEI/Middlewares/Third_Party/Huawei/iot_link/network/mqtt/paho_mqtt/paho/MQTTClient-C/src\MQTTClient.c ****             rc = sendPacket(c, len, &send_timer);
 1540              		.loc 1 451 13 is_stmt 1 view .LVU492
 1541 01c6 0AA8     		add	r0, sp, #40
 1542 01c8 4FF47A71 		mov	r1, #1000
 1543 01cc FFF7FEFF 		bl	osal_loop_timer_count_downms
 1544              	.LVL137:
 452:D:/fchai/work/i-cube/I-CUBE-HUAWEI/Middlewares/Third_Party/Huawei/iot_link/network/mqtt/paho_mqtt/paho/MQTTClient-C/src\MQTTClient.c ****             if(rc != MQTT_SUCCESS)
 1545              		.loc 1 452 13 view .LVU493
 452:D:/fchai/work/i-cube/I-CUBE-HUAWEI/Middlewares/Third_Party/Huawei/iot_link/network/mqtt/paho_mqtt/paho/MQTTClient-C/src\MQTTClient.c ****             if(rc != MQTT_SUCCESS)
 1546              		.loc 1 452 18 is_stmt 0 view .LVU494
 1547 01d0 0AAA     		add	r2, sp, #40
 1548 01d2 3146     		mov	r1, r6
 1549 01d4 2846     		mov	r0, r5
 1550 01d6 FFF7FEFF 		bl	sendPacket
 1551              	.LVL138:
 453:D:/fchai/work/i-cube/I-CUBE-HUAWEI/Middlewares/Third_Party/Huawei/iot_link/network/mqtt/paho_mqtt/paho/MQTTClient-C/src\MQTTClient.c ****                 rc = FAILURE; // there was a problem
 1552              		.loc 1 453 13 is_stmt 1 view .LVU495
 453:D:/fchai/work/i-cube/I-CUBE-HUAWEI/Middlewares/Third_Party/Huawei/iot_link/network/mqtt/paho_mqtt/paho/MQTTClient-C/src\MQTTClient.c ****                 rc = FAILURE; // there was a problem
 1553              		.loc 1 453 15 is_stmt 0 view .LVU496
 1554 01da 0028     		cmp	r0, #0
 1555 01dc CDD0     		beq	.L166
 1556 01de D1E7     		b	.L137
 1557              	.LVL139:
 1558              	.L123:
 453:D:/fchai/work/i-cube/I-CUBE-HUAWEI/Middlewares/Third_Party/Huawei/iot_link/network/mqtt/paho_mqtt/paho/MQTTClient-C/src\MQTTClient.c ****                 rc = FAILURE; // there was a problem
 1559              		.loc 1 453 15 view .LVU497
 1560              	.LBE127:
ARM GAS  T:\msys\tmp\ccsrUqql.s 			page 44


 464:D:/fchai/work/i-cube/I-CUBE-HUAWEI/Middlewares/Third_Party/Huawei/iot_link/network/mqtt/paho_mqtt/paho/MQTTClient-C/src\MQTTClient.c ****         break;
 1561              		.loc 1 464 9 is_stmt 1 view .LVU498
 464:D:/fchai/work/i-cube/I-CUBE-HUAWEI/Middlewares/Third_Party/Huawei/iot_link/network/mqtt/paho_mqtt/paho/MQTTClient-C/src\MQTTClient.c ****         break;
 1562              		.loc 1 464 29 is_stmt 0 view .LVU499
 1563 01e0 0023     		movs	r3, #0
 1564 01e2 2B77     		strb	r3, [r5, #28]
 1565 01e4 C9E7     		b	.L166
 1566              	.LVL140:
 1567              	.L121:
 1568              	.LBB128:
 1569              	.LBB118:
 149:D:/fchai/work/i-cube/I-CUBE-HUAWEI/Middlewares/Third_Party/Huawei/iot_link/network/mqtt/paho_mqtt/paho/MQTTClient-C/src\MQTTClient.c ****     rc = header.bits.type;
 1570              		.loc 1 149 5 is_stmt 1 view .LVU500
 150:D:/fchai/work/i-cube/I-CUBE-HUAWEI/Middlewares/Third_Party/Huawei/iot_link/network/mqtt/paho_mqtt/paho/MQTTClient-C/src\MQTTClient.c ****     if (c->keepAliveInterval > 0)
 1571              		.loc 1 150 5 view .LVU501
 151:D:/fchai/work/i-cube/I-CUBE-HUAWEI/Middlewares/Third_Party/Huawei/iot_link/network/mqtt/paho_mqtt/paho/MQTTClient-C/src\MQTTClient.c ****         TimerCountdown(&c->last_received, c->keepAliveInterval); // record the fact that we have su
 1572              		.loc 1 151 10 is_stmt 0 view .LVU502
 1573 01e6 D5E90531 		ldrd	r3, r1, [r5, #20]
 149:D:/fchai/work/i-cube/I-CUBE-HUAWEI/Middlewares/Third_Party/Huawei/iot_link/network/mqtt/paho_mqtt/paho/MQTTClient-C/src\MQTTClient.c ****     rc = header.bits.type;
 1574              		.loc 1 149 17 view .LVU503
 1575 01ea 1C78     		ldrb	r4, [r3]	@ zero_extendqisi2
 150:D:/fchai/work/i-cube/I-CUBE-HUAWEI/Middlewares/Third_Party/Huawei/iot_link/network/mqtt/paho_mqtt/paho/MQTTClient-C/src\MQTTClient.c ****     if (c->keepAliveInterval > 0)
 1576              		.loc 1 150 8 view .LVU504
 1577 01ec 2409     		lsrs	r4, r4, #4
 1578              	.LVL141:
 151:D:/fchai/work/i-cube/I-CUBE-HUAWEI/Middlewares/Third_Party/Huawei/iot_link/network/mqtt/paho_mqtt/paho/MQTTClient-C/src\MQTTClient.c ****         TimerCountdown(&c->last_received, c->keepAliveInterval); // record the fact that we have su
 1579              		.loc 1 151 5 is_stmt 1 view .LVU505
 151:D:/fchai/work/i-cube/I-CUBE-HUAWEI/Middlewares/Third_Party/Huawei/iot_link/network/mqtt/paho_mqtt/paho/MQTTClient-C/src\MQTTClient.c ****         TimerCountdown(&c->last_received, c->keepAliveInterval); // record the fact that we have su
 1580              		.loc 1 151 8 is_stmt 0 view .LVU506
 1581 01ee 0029     		cmp	r1, #0
 1582 01f0 3FF41BAF 		beq	.L115
 152:D:/fchai/work/i-cube/I-CUBE-HUAWEI/Middlewares/Third_Party/Huawei/iot_link/network/mqtt/paho_mqtt/paho/MQTTClient-C/src\MQTTClient.c **** exit:
 1583              		.loc 1 152 9 is_stmt 1 view .LVU507
 1584 01f4 05F1B000 		add	r0, r5, #176
 1585 01f8 FFF7FEFF 		bl	osal_loop_timer_count_down
 1586              	.LVL142:
 1587 01fc 15E7     		b	.L115
 1588              	.LVL143:
 1589              	.L168:
 152:D:/fchai/work/i-cube/I-CUBE-HUAWEI/Middlewares/Third_Party/Huawei/iot_link/network/mqtt/paho_mqtt/paho/MQTTClient-C/src\MQTTClient.c **** exit:
 1590              		.loc 1 152 9 is_stmt 0 view .LVU508
 1591              	.LBE118:
 1592              	.LBE128:
 1593              	.LBB129:
 422:D:/fchai/work/i-cube/I-CUBE-HUAWEI/Middlewares/Third_Party/Huawei/iot_link/network/mqtt/paho_mqtt/paho/MQTTClient-C/src\MQTTClient.c ****             else if (msg.qos == QOS2)
 1594              		.loc 1 422 17 is_stmt 1 view .LVU509
 422:D:/fchai/work/i-cube/I-CUBE-HUAWEI/Middlewares/Third_Party/Huawei/iot_link/network/mqtt/paho_mqtt/paho/MQTTClient-C/src\MQTTClient.c ****             else if (msg.qos == QOS2)
 1595              		.loc 1 422 23 is_stmt 0 view .LVU510
 1596 01fe BDF84430 		ldrh	r3, [sp, #68]
 1597 0202 0093     		str	r3, [sp]
 1598 0204 A968     		ldr	r1, [r5, #8]
 1599 0206 2869     		ldr	r0, [r5, #16]
 1600 0208 3B46     		mov	r3, r7
 1601 020a 0422     		movs	r2, #4
 1602 020c FFF7FEFF 		bl	MQTTSerialize_ack
 1603              	.LVL144:
 1604 0210 0646     		mov	r6, r0
ARM GAS  T:\msys\tmp\ccsrUqql.s 			page 45


 1605              	.LVL145:
 422:D:/fchai/work/i-cube/I-CUBE-HUAWEI/Middlewares/Third_Party/Huawei/iot_link/network/mqtt/paho_mqtt/paho/MQTTClient-C/src\MQTTClient.c ****             else if (msg.qos == QOS2)
 1606              		.loc 1 422 23 view .LVU511
 1607 0212 4DE7     		b	.L131
 1608              	.LBE129:
 1609              		.cfi_endproc
 1610              	.LFE16:
 1612              		.section	.text.MQTTYield,"ax",%progbits
 1613              		.align	1
 1614              		.p2align 2,,3
 1615              		.global	MQTTYield
 1616              		.syntax unified
 1617              		.thumb
 1618              		.thumb_func
 1619              		.fpu fpv4-sp-d16
 1621              	MQTTYield:
 1622              	.LVL146:
 1623              	.LFB17:
 481:D:/fchai/work/i-cube/I-CUBE-HUAWEI/Middlewares/Third_Party/Huawei/iot_link/network/mqtt/paho_mqtt/paho/MQTTClient-C/src\MQTTClient.c **** 
 482:D:/fchai/work/i-cube/I-CUBE-HUAWEI/Middlewares/Third_Party/Huawei/iot_link/network/mqtt/paho_mqtt/paho/MQTTClient-C/src\MQTTClient.c **** 
 483:D:/fchai/work/i-cube/I-CUBE-HUAWEI/Middlewares/Third_Party/Huawei/iot_link/network/mqtt/paho_mqtt/paho/MQTTClient-C/src\MQTTClient.c **** int MQTTYield(MQTTClient* c, int timeout_ms)
 484:D:/fchai/work/i-cube/I-CUBE-HUAWEI/Middlewares/Third_Party/Huawei/iot_link/network/mqtt/paho_mqtt/paho/MQTTClient-C/src\MQTTClient.c **** {
 1624              		.loc 1 484 1 is_stmt 1 view -0
 1625              		.cfi_startproc
 1626              		@ args = 0, pretend = 0, frame = 16
 1627              		@ frame_needed = 0, uses_anonymous_args = 0
 485:D:/fchai/work/i-cube/I-CUBE-HUAWEI/Middlewares/Third_Party/Huawei/iot_link/network/mqtt/paho_mqtt/paho/MQTTClient-C/src\MQTTClient.c ****     int rc = MQTT_SUCCESS;
 1628              		.loc 1 485 5 view .LVU513
 486:D:/fchai/work/i-cube/I-CUBE-HUAWEI/Middlewares/Third_Party/Huawei/iot_link/network/mqtt/paho_mqtt/paho/MQTTClient-C/src\MQTTClient.c ****     Timer timer;
 1629              		.loc 1 486 5 view .LVU514
 487:D:/fchai/work/i-cube/I-CUBE-HUAWEI/Middlewares/Third_Party/Huawei/iot_link/network/mqtt/paho_mqtt/paho/MQTTClient-C/src\MQTTClient.c **** 
 488:D:/fchai/work/i-cube/I-CUBE-HUAWEI/Middlewares/Third_Party/Huawei/iot_link/network/mqtt/paho_mqtt/paho/MQTTClient-C/src\MQTTClient.c ****     TimerInit(&timer);
 1630              		.loc 1 488 5 view .LVU515
 484:D:/fchai/work/i-cube/I-CUBE-HUAWEI/Middlewares/Third_Party/Huawei/iot_link/network/mqtt/paho_mqtt/paho/MQTTClient-C/src\MQTTClient.c ****     int rc = MQTT_SUCCESS;
 1631              		.loc 1 484 1 is_stmt 0 view .LVU516
 1632 0000 30B5     		push	{r4, r5, lr}
 1633              	.LCFI19:
 1634              		.cfi_def_cfa_offset 12
 1635              		.cfi_offset 4, -12
 1636              		.cfi_offset 5, -8
 1637              		.cfi_offset 14, -4
 1638 0002 85B0     		sub	sp, sp, #20
 1639              	.LCFI20:
 1640              		.cfi_def_cfa_offset 32
 484:D:/fchai/work/i-cube/I-CUBE-HUAWEI/Middlewares/Third_Party/Huawei/iot_link/network/mqtt/paho_mqtt/paho/MQTTClient-C/src\MQTTClient.c ****     int rc = MQTT_SUCCESS;
 1641              		.loc 1 484 1 view .LVU517
 1642 0004 0546     		mov	r5, r0
 1643              		.loc 1 488 5 view .LVU518
 1644 0006 02A8     		add	r0, sp, #8
 1645              	.LVL147:
 484:D:/fchai/work/i-cube/I-CUBE-HUAWEI/Middlewares/Third_Party/Huawei/iot_link/network/mqtt/paho_mqtt/paho/MQTTClient-C/src\MQTTClient.c ****     int rc = MQTT_SUCCESS;
 1646              		.loc 1 484 1 view .LVU519
 1647 0008 0191     		str	r1, [sp, #4]
 1648              		.loc 1 488 5 view .LVU520
 1649 000a FFF7FEFF 		bl	osal_loop_timer_init
 1650              	.LVL148:
 489:D:/fchai/work/i-cube/I-CUBE-HUAWEI/Middlewares/Third_Party/Huawei/iot_link/network/mqtt/paho_mqtt/paho/MQTTClient-C/src\MQTTClient.c ****     TimerCountdownMS(&timer, timeout_ms);
ARM GAS  T:\msys\tmp\ccsrUqql.s 			page 46


 1651              		.loc 1 489 5 is_stmt 1 view .LVU521
 1652 000e 0199     		ldr	r1, [sp, #4]
 1653 0010 02A8     		add	r0, sp, #8
 1654 0012 FFF7FEFF 		bl	osal_loop_timer_count_downms
 1655              	.LVL149:
 1656 0016 05E0     		b	.L173
 1657              	.LVL150:
 1658              	.L171:
 490:D:/fchai/work/i-cube/I-CUBE-HUAWEI/Middlewares/Third_Party/Huawei/iot_link/network/mqtt/paho_mqtt/paho/MQTTClient-C/src\MQTTClient.c **** 
 491:D:/fchai/work/i-cube/I-CUBE-HUAWEI/Middlewares/Third_Party/Huawei/iot_link/network/mqtt/paho_mqtt/paho/MQTTClient-C/src\MQTTClient.c ****     do
 492:D:/fchai/work/i-cube/I-CUBE-HUAWEI/Middlewares/Third_Party/Huawei/iot_link/network/mqtt/paho_mqtt/paho/MQTTClient-C/src\MQTTClient.c ****     {
 493:D:/fchai/work/i-cube/I-CUBE-HUAWEI/Middlewares/Third_Party/Huawei/iot_link/network/mqtt/paho_mqtt/paho/MQTTClient-C/src\MQTTClient.c **** #if defined(MQTT_TASK)
 494:D:/fchai/work/i-cube/I-CUBE-HUAWEI/Middlewares/Third_Party/Huawei/iot_link/network/mqtt/paho_mqtt/paho/MQTTClient-C/src\MQTTClient.c ****         (void)MutexLock(&c->mutex);
 495:D:/fchai/work/i-cube/I-CUBE-HUAWEI/Middlewares/Third_Party/Huawei/iot_link/network/mqtt/paho_mqtt/paho/MQTTClient-C/src\MQTTClient.c **** #endif
 496:D:/fchai/work/i-cube/I-CUBE-HUAWEI/Middlewares/Third_Party/Huawei/iot_link/network/mqtt/paho_mqtt/paho/MQTTClient-C/src\MQTTClient.c ****         if ( (rc = cycle(c, &timer) ) < 0)
 497:D:/fchai/work/i-cube/I-CUBE-HUAWEI/Middlewares/Third_Party/Huawei/iot_link/network/mqtt/paho_mqtt/paho/MQTTClient-C/src\MQTTClient.c ****         {
 498:D:/fchai/work/i-cube/I-CUBE-HUAWEI/Middlewares/Third_Party/Huawei/iot_link/network/mqtt/paho_mqtt/paho/MQTTClient-C/src\MQTTClient.c ****             rc = FAILURE;
 499:D:/fchai/work/i-cube/I-CUBE-HUAWEI/Middlewares/Third_Party/Huawei/iot_link/network/mqtt/paho_mqtt/paho/MQTTClient-C/src\MQTTClient.c **** #if defined(MQTT_TASK)
 500:D:/fchai/work/i-cube/I-CUBE-HUAWEI/Middlewares/Third_Party/Huawei/iot_link/network/mqtt/paho_mqtt/paho/MQTTClient-C/src\MQTTClient.c ****             MutexUnlock(&c->mutex);
 501:D:/fchai/work/i-cube/I-CUBE-HUAWEI/Middlewares/Third_Party/Huawei/iot_link/network/mqtt/paho_mqtt/paho/MQTTClient-C/src\MQTTClient.c **** #endif
 502:D:/fchai/work/i-cube/I-CUBE-HUAWEI/Middlewares/Third_Party/Huawei/iot_link/network/mqtt/paho_mqtt/paho/MQTTClient-C/src\MQTTClient.c ****             break;
 503:D:/fchai/work/i-cube/I-CUBE-HUAWEI/Middlewares/Third_Party/Huawei/iot_link/network/mqtt/paho_mqtt/paho/MQTTClient-C/src\MQTTClient.c ****         }
 504:D:/fchai/work/i-cube/I-CUBE-HUAWEI/Middlewares/Third_Party/Huawei/iot_link/network/mqtt/paho_mqtt/paho/MQTTClient-C/src\MQTTClient.c **** #if defined(MQTT_TASK)
 505:D:/fchai/work/i-cube/I-CUBE-HUAWEI/Middlewares/Third_Party/Huawei/iot_link/network/mqtt/paho_mqtt/paho/MQTTClient-C/src\MQTTClient.c ****         MutexUnlock(&c->mutex);
 1659              		.loc 1 505 9 is_stmt 0 view .LVU522
 1660 0018 FFF7FEFF 		bl	osal_mutex_unlock
 1661              	.LVL151:
 506:D:/fchai/work/i-cube/I-CUBE-HUAWEI/Middlewares/Third_Party/Huawei/iot_link/network/mqtt/paho_mqtt/paho/MQTTClient-C/src\MQTTClient.c **** #endif
 507:D:/fchai/work/i-cube/I-CUBE-HUAWEI/Middlewares/Third_Party/Huawei/iot_link/network/mqtt/paho_mqtt/paho/MQTTClient-C/src\MQTTClient.c ****     }
 508:D:/fchai/work/i-cube/I-CUBE-HUAWEI/Middlewares/Third_Party/Huawei/iot_link/network/mqtt/paho_mqtt/paho/MQTTClient-C/src\MQTTClient.c ****     while (!TimerIsExpired(&timer));
 1662              		.loc 1 508 11 is_stmt 1 view .LVU523
 1663              		.loc 1 508 13 is_stmt 0 view .LVU524
 1664 001c 02A8     		add	r0, sp, #8
 1665 001e FFF7FEFF 		bl	osal_loop_timer_expired
 1666              	.LVL152:
 1667              		.loc 1 508 5 view .LVU525
 1668 0022 78B9     		cbnz	r0, .L170
 1669              	.LVL153:
 1670              	.L173:
 491:D:/fchai/work/i-cube/I-CUBE-HUAWEI/Middlewares/Third_Party/Huawei/iot_link/network/mqtt/paho_mqtt/paho/MQTTClient-C/src\MQTTClient.c ****     {
 1671              		.loc 1 491 5 is_stmt 1 view .LVU526
 494:D:/fchai/work/i-cube/I-CUBE-HUAWEI/Middlewares/Third_Party/Huawei/iot_link/network/mqtt/paho_mqtt/paho/MQTTClient-C/src\MQTTClient.c **** #endif
 1672              		.loc 1 494 9 view .LVU527
 494:D:/fchai/work/i-cube/I-CUBE-HUAWEI/Middlewares/Third_Party/Huawei/iot_link/network/mqtt/paho_mqtt/paho/MQTTClient-C/src\MQTTClient.c **** #endif
 1673              		.loc 1 494 15 is_stmt 0 view .LVU528
 1674 0024 D5F8B800 		ldr	r0, [r5, #184]
 1675 0028 FFF7FEFF 		bl	osal_mutex_lock
 1676              	.LVL154:
 496:D:/fchai/work/i-cube/I-CUBE-HUAWEI/Middlewares/Third_Party/Huawei/iot_link/network/mqtt/paho_mqtt/paho/MQTTClient-C/src\MQTTClient.c ****         {
 1677              		.loc 1 496 9 is_stmt 1 view .LVU529
 496:D:/fchai/work/i-cube/I-CUBE-HUAWEI/Middlewares/Third_Party/Huawei/iot_link/network/mqtt/paho_mqtt/paho/MQTTClient-C/src\MQTTClient.c ****         {
 1678              		.loc 1 496 20 is_stmt 0 view .LVU530
 1679 002c 02A9     		add	r1, sp, #8
 1680 002e 2846     		mov	r0, r5
 1681 0030 FFF7FEFF 		bl	cycle
 1682              	.LVL155:
 505:D:/fchai/work/i-cube/I-CUBE-HUAWEI/Middlewares/Third_Party/Huawei/iot_link/network/mqtt/paho_mqtt/paho/MQTTClient-C/src\MQTTClient.c **** #endif
ARM GAS  T:\msys\tmp\ccsrUqql.s 			page 47


 1683              		.loc 1 505 9 is_stmt 1 view .LVU531
 496:D:/fchai/work/i-cube/I-CUBE-HUAWEI/Middlewares/Third_Party/Huawei/iot_link/network/mqtt/paho_mqtt/paho/MQTTClient-C/src\MQTTClient.c ****         {
 1684              		.loc 1 496 12 is_stmt 0 view .LVU532
 1685 0034 041E     		subs	r4, r0, #0
 500:D:/fchai/work/i-cube/I-CUBE-HUAWEI/Middlewares/Third_Party/Huawei/iot_link/network/mqtt/paho_mqtt/paho/MQTTClient-C/src\MQTTClient.c **** #endif
 1686              		.loc 1 500 13 view .LVU533
 1687 0036 D5F8B800 		ldr	r0, [r5, #184]
 1688              	.LVL156:
 496:D:/fchai/work/i-cube/I-CUBE-HUAWEI/Middlewares/Third_Party/Huawei/iot_link/network/mqtt/paho_mqtt/paho/MQTTClient-C/src\MQTTClient.c ****         {
 1689              		.loc 1 496 12 view .LVU534
 1690 003a EDDA     		bge	.L171
 498:D:/fchai/work/i-cube/I-CUBE-HUAWEI/Middlewares/Third_Party/Huawei/iot_link/network/mqtt/paho_mqtt/paho/MQTTClient-C/src\MQTTClient.c **** #if defined(MQTT_TASK)
 1691              		.loc 1 498 13 is_stmt 1 view .LVU535
 1692              	.LVL157:
 500:D:/fchai/work/i-cube/I-CUBE-HUAWEI/Middlewares/Third_Party/Huawei/iot_link/network/mqtt/paho_mqtt/paho/MQTTClient-C/src\MQTTClient.c **** #endif
 1693              		.loc 1 500 13 view .LVU536
 1694 003c FFF7FEFF 		bl	osal_mutex_unlock
 1695              	.LVL158:
 502:D:/fchai/work/i-cube/I-CUBE-HUAWEI/Middlewares/Third_Party/Huawei/iot_link/network/mqtt/paho_mqtt/paho/MQTTClient-C/src\MQTTClient.c ****         }
 1696              		.loc 1 502 13 view .LVU537
 498:D:/fchai/work/i-cube/I-CUBE-HUAWEI/Middlewares/Third_Party/Huawei/iot_link/network/mqtt/paho_mqtt/paho/MQTTClient-C/src\MQTTClient.c **** #if defined(MQTT_TASK)
 1697              		.loc 1 498 16 is_stmt 0 view .LVU538
 1698 0040 4FF0FF34 		mov	r4, #-1
 1699              	.LVL159:
 1700              	.L170:
 509:D:/fchai/work/i-cube/I-CUBE-HUAWEI/Middlewares/Third_Party/Huawei/iot_link/network/mqtt/paho_mqtt/paho/MQTTClient-C/src\MQTTClient.c **** 
 510:D:/fchai/work/i-cube/I-CUBE-HUAWEI/Middlewares/Third_Party/Huawei/iot_link/network/mqtt/paho_mqtt/paho/MQTTClient-C/src\MQTTClient.c ****     return rc;
 511:D:/fchai/work/i-cube/I-CUBE-HUAWEI/Middlewares/Third_Party/Huawei/iot_link/network/mqtt/paho_mqtt/paho/MQTTClient-C/src\MQTTClient.c **** }
 1701              		.loc 1 511 1 view .LVU539
 1702 0044 2046     		mov	r0, r4
 1703 0046 05B0     		add	sp, sp, #20
 1704              	.LCFI21:
 1705              		.cfi_def_cfa_offset 12
 1706              		@ sp needed
 1707 0048 30BD     		pop	{r4, r5, pc}
 1708              		.loc 1 511 1 view .LVU540
 1709              		.cfi_endproc
 1710              	.LFE17:
 1712 004a 00BF     		.section	.text.MQTTRun,"ax",%progbits
 1713              		.align	1
 1714              		.p2align 2,,3
 1715              		.global	MQTTRun
 1716              		.syntax unified
 1717              		.thumb
 1718              		.thumb_func
 1719              		.fpu fpv4-sp-d16
 1721              	MQTTRun:
 1722              	.LVL160:
 1723              	.LFB18:
 512:D:/fchai/work/i-cube/I-CUBE-HUAWEI/Middlewares/Third_Party/Huawei/iot_link/network/mqtt/paho_mqtt/paho/MQTTClient-C/src\MQTTClient.c **** 
 513:D:/fchai/work/i-cube/I-CUBE-HUAWEI/Middlewares/Third_Party/Huawei/iot_link/network/mqtt/paho_mqtt/paho/MQTTClient-C/src\MQTTClient.c **** 
 514:D:/fchai/work/i-cube/I-CUBE-HUAWEI/Middlewares/Third_Party/Huawei/iot_link/network/mqtt/paho_mqtt/paho/MQTTClient-C/src\MQTTClient.c **** void MQTTRun(void* parm)
 515:D:/fchai/work/i-cube/I-CUBE-HUAWEI/Middlewares/Third_Party/Huawei/iot_link/network/mqtt/paho_mqtt/paho/MQTTClient-C/src\MQTTClient.c **** {
 1724              		.loc 1 515 1 is_stmt 1 view -0
 1725              		.cfi_startproc
 1726              		@ args = 0, pretend = 0, frame = 8
 1727              		@ frame_needed = 0, uses_anonymous_args = 0
ARM GAS  T:\msys\tmp\ccsrUqql.s 			page 48


 516:D:/fchai/work/i-cube/I-CUBE-HUAWEI/Middlewares/Third_Party/Huawei/iot_link/network/mqtt/paho_mqtt/paho/MQTTClient-C/src\MQTTClient.c **** 	Timer timer;
 1728              		.loc 1 516 2 view .LVU542
 517:D:/fchai/work/i-cube/I-CUBE-HUAWEI/Middlewares/Third_Party/Huawei/iot_link/network/mqtt/paho_mqtt/paho/MQTTClient-C/src\MQTTClient.c **** 	MQTTClient* c = (MQTTClient*)parm;
 1729              		.loc 1 517 2 view .LVU543
 515:D:/fchai/work/i-cube/I-CUBE-HUAWEI/Middlewares/Third_Party/Huawei/iot_link/network/mqtt/paho_mqtt/paho/MQTTClient-C/src\MQTTClient.c **** 	Timer timer;
 1730              		.loc 1 515 1 is_stmt 0 view .LVU544
 1731 0000 10B5     		push	{r4, lr}
 1732              	.LCFI22:
 1733              		.cfi_def_cfa_offset 8
 1734              		.cfi_offset 4, -8
 1735              		.cfi_offset 14, -4
 1736 0002 82B0     		sub	sp, sp, #8
 1737              	.LCFI23:
 1738              		.cfi_def_cfa_offset 16
 515:D:/fchai/work/i-cube/I-CUBE-HUAWEI/Middlewares/Third_Party/Huawei/iot_link/network/mqtt/paho_mqtt/paho/MQTTClient-C/src\MQTTClient.c **** 	Timer timer;
 1739              		.loc 1 515 1 view .LVU545
 1740 0004 0446     		mov	r4, r0
 518:D:/fchai/work/i-cube/I-CUBE-HUAWEI/Middlewares/Third_Party/Huawei/iot_link/network/mqtt/paho_mqtt/paho/MQTTClient-C/src\MQTTClient.c **** 
 519:D:/fchai/work/i-cube/I-CUBE-HUAWEI/Middlewares/Third_Party/Huawei/iot_link/network/mqtt/paho_mqtt/paho/MQTTClient-C/src\MQTTClient.c **** 	TimerInit(&timer);
 1741              		.loc 1 519 2 view .LVU546
 1742 0006 6846     		mov	r0, sp
 1743              	.LVL161:
 1744              		.loc 1 519 2 is_stmt 1 view .LVU547
 1745 0008 FFF7FEFF 		bl	osal_loop_timer_init
 1746              	.LVL162:
 1747              	.L178:
 520:D:/fchai/work/i-cube/I-CUBE-HUAWEI/Middlewares/Third_Party/Huawei/iot_link/network/mqtt/paho_mqtt/paho/MQTTClient-C/src\MQTTClient.c **** 
 521:D:/fchai/work/i-cube/I-CUBE-HUAWEI/Middlewares/Third_Party/Huawei/iot_link/network/mqtt/paho_mqtt/paho/MQTTClient-C/src\MQTTClient.c **** 	while (1)
 1748              		.loc 1 521 2 view .LVU548
 522:D:/fchai/work/i-cube/I-CUBE-HUAWEI/Middlewares/Third_Party/Huawei/iot_link/network/mqtt/paho_mqtt/paho/MQTTClient-C/src\MQTTClient.c **** 	{
 523:D:/fchai/work/i-cube/I-CUBE-HUAWEI/Middlewares/Third_Party/Huawei/iot_link/network/mqtt/paho_mqtt/paho/MQTTClient-C/src\MQTTClient.c **** #if defined(MQTT_TASK)
 524:D:/fchai/work/i-cube/I-CUBE-HUAWEI/Middlewares/Third_Party/Huawei/iot_link/network/mqtt/paho_mqtt/paho/MQTTClient-C/src\MQTTClient.c **** 		MutexLock(&c->mutex);
 1749              		.loc 1 524 3 view .LVU549
 1750 000c D4F8B800 		ldr	r0, [r4, #184]
 1751 0010 FFF7FEFF 		bl	osal_mutex_lock
 1752              	.LVL163:
 525:D:/fchai/work/i-cube/I-CUBE-HUAWEI/Middlewares/Third_Party/Huawei/iot_link/network/mqtt/paho_mqtt/paho/MQTTClient-C/src\MQTTClient.c **** #endif
 526:D:/fchai/work/i-cube/I-CUBE-HUAWEI/Middlewares/Third_Party/Huawei/iot_link/network/mqtt/paho_mqtt/paho/MQTTClient-C/src\MQTTClient.c **** 		TimerCountdownMS(&timer, 500); /* Don't wait too long if no traffic is incoming */
 1753              		.loc 1 526 3 view .LVU550
 1754 0014 6846     		mov	r0, sp
 1755 0016 4FF4FA71 		mov	r1, #500
 1756 001a FFF7FEFF 		bl	osal_loop_timer_count_downms
 1757              	.LVL164:
 527:D:/fchai/work/i-cube/I-CUBE-HUAWEI/Middlewares/Third_Party/Huawei/iot_link/network/mqtt/paho_mqtt/paho/MQTTClient-C/src\MQTTClient.c **** 		cycle(c, &timer);
 1758              		.loc 1 527 3 view .LVU551
 1759 001e 6946     		mov	r1, sp
 1760 0020 2046     		mov	r0, r4
 1761 0022 FFF7FEFF 		bl	cycle
 1762              	.LVL165:
 528:D:/fchai/work/i-cube/I-CUBE-HUAWEI/Middlewares/Third_Party/Huawei/iot_link/network/mqtt/paho_mqtt/paho/MQTTClient-C/src\MQTTClient.c **** #if defined(MQTT_TASK)
 529:D:/fchai/work/i-cube/I-CUBE-HUAWEI/Middlewares/Third_Party/Huawei/iot_link/network/mqtt/paho_mqtt/paho/MQTTClient-C/src\MQTTClient.c **** 		MutexUnlock(&c->mutex);
 1763              		.loc 1 529 3 view .LVU552
 1764 0026 D4F8B800 		ldr	r0, [r4, #184]
 1765 002a FFF7FEFF 		bl	osal_mutex_unlock
 1766              	.LVL166:
 521:D:/fchai/work/i-cube/I-CUBE-HUAWEI/Middlewares/Third_Party/Huawei/iot_link/network/mqtt/paho_mqtt/paho/MQTTClient-C/src\MQTTClient.c **** 	{
 1767              		.loc 1 521 8 view .LVU553
ARM GAS  T:\msys\tmp\ccsrUqql.s 			page 49


 1768 002e EDE7     		b	.L178
 1769              		.cfi_endproc
 1770              	.LFE18:
 1772              		.section	.text.waitfor,"ax",%progbits
 1773              		.align	1
 1774              		.p2align 2,,3
 1775              		.global	waitfor
 1776              		.syntax unified
 1777              		.thumb
 1778              		.thumb_func
 1779              		.fpu fpv4-sp-d16
 1781              	waitfor:
 1782              	.LVL167:
 1783              	.LFB19:
 530:D:/fchai/work/i-cube/I-CUBE-HUAWEI/Middlewares/Third_Party/Huawei/iot_link/network/mqtt/paho_mqtt/paho/MQTTClient-C/src\MQTTClient.c **** #endif
 531:D:/fchai/work/i-cube/I-CUBE-HUAWEI/Middlewares/Third_Party/Huawei/iot_link/network/mqtt/paho_mqtt/paho/MQTTClient-C/src\MQTTClient.c **** 	}
 532:D:/fchai/work/i-cube/I-CUBE-HUAWEI/Middlewares/Third_Party/Huawei/iot_link/network/mqtt/paho_mqtt/paho/MQTTClient-C/src\MQTTClient.c **** }
 533:D:/fchai/work/i-cube/I-CUBE-HUAWEI/Middlewares/Third_Party/Huawei/iot_link/network/mqtt/paho_mqtt/paho/MQTTClient-C/src\MQTTClient.c **** 
 534:D:/fchai/work/i-cube/I-CUBE-HUAWEI/Middlewares/Third_Party/Huawei/iot_link/network/mqtt/paho_mqtt/paho/MQTTClient-C/src\MQTTClient.c **** 
 535:D:/fchai/work/i-cube/I-CUBE-HUAWEI/Middlewares/Third_Party/Huawei/iot_link/network/mqtt/paho_mqtt/paho/MQTTClient-C/src\MQTTClient.c **** //#if defined(MQTT_TASK)
 536:D:/fchai/work/i-cube/I-CUBE-HUAWEI/Middlewares/Third_Party/Huawei/iot_link/network/mqtt/paho_mqtt/paho/MQTTClient-C/src\MQTTClient.c **** //int MQTTStartTask(MQTTClient* client)
 537:D:/fchai/work/i-cube/I-CUBE-HUAWEI/Middlewares/Third_Party/Huawei/iot_link/network/mqtt/paho_mqtt/paho/MQTTClient-C/src\MQTTClient.c **** //{
 538:D:/fchai/work/i-cube/I-CUBE-HUAWEI/Middlewares/Third_Party/Huawei/iot_link/network/mqtt/paho_mqtt/paho/MQTTClient-C/src\MQTTClient.c **** //	return ThreadStart(&client->thread, &MQTTRun, client);
 539:D:/fchai/work/i-cube/I-CUBE-HUAWEI/Middlewares/Third_Party/Huawei/iot_link/network/mqtt/paho_mqtt/paho/MQTTClient-C/src\MQTTClient.c **** //}
 540:D:/fchai/work/i-cube/I-CUBE-HUAWEI/Middlewares/Third_Party/Huawei/iot_link/network/mqtt/paho_mqtt/paho/MQTTClient-C/src\MQTTClient.c **** //#endif
 541:D:/fchai/work/i-cube/I-CUBE-HUAWEI/Middlewares/Third_Party/Huawei/iot_link/network/mqtt/paho_mqtt/paho/MQTTClient-C/src\MQTTClient.c **** 
 542:D:/fchai/work/i-cube/I-CUBE-HUAWEI/Middlewares/Third_Party/Huawei/iot_link/network/mqtt/paho_mqtt/paho/MQTTClient-C/src\MQTTClient.c **** 
 543:D:/fchai/work/i-cube/I-CUBE-HUAWEI/Middlewares/Third_Party/Huawei/iot_link/network/mqtt/paho_mqtt/paho/MQTTClient-C/src\MQTTClient.c **** int waitfor(MQTTClient* c, int packet_type, Timer* timer)
 544:D:/fchai/work/i-cube/I-CUBE-HUAWEI/Middlewares/Third_Party/Huawei/iot_link/network/mqtt/paho_mqtt/paho/MQTTClient-C/src\MQTTClient.c **** {
 1784              		.loc 1 544 1 view -0
 1785              		.cfi_startproc
 1786              		@ args = 0, pretend = 0, frame = 0
 1787              		@ frame_needed = 0, uses_anonymous_args = 0
 545:D:/fchai/work/i-cube/I-CUBE-HUAWEI/Middlewares/Third_Party/Huawei/iot_link/network/mqtt/paho_mqtt/paho/MQTTClient-C/src\MQTTClient.c ****     int rc = FAILURE;
 1788              		.loc 1 545 5 view .LVU555
 544:D:/fchai/work/i-cube/I-CUBE-HUAWEI/Middlewares/Third_Party/Huawei/iot_link/network/mqtt/paho_mqtt/paho/MQTTClient-C/src\MQTTClient.c ****     int rc = FAILURE;
 1789              		.loc 1 544 1 is_stmt 0 view .LVU556
 1790 0000 F8B5     		push	{r3, r4, r5, r6, r7, lr}
 1791              	.LCFI24:
 1792              		.cfi_def_cfa_offset 24
 1793              		.cfi_offset 3, -24
 1794              		.cfi_offset 4, -20
 1795              		.cfi_offset 5, -16
 1796              		.cfi_offset 6, -12
 1797              		.cfi_offset 7, -8
 1798              		.cfi_offset 14, -4
 544:D:/fchai/work/i-cube/I-CUBE-HUAWEI/Middlewares/Third_Party/Huawei/iot_link/network/mqtt/paho_mqtt/paho/MQTTClient-C/src\MQTTClient.c ****     int rc = FAILURE;
 1799              		.loc 1 544 1 view .LVU557
 1800 0002 0646     		mov	r6, r0
 1801 0004 0F46     		mov	r7, r1
 1802 0006 1546     		mov	r5, r2
 1803              		.loc 1 545 9 view .LVU558
 1804 0008 4FF0FF34 		mov	r4, #-1
 1805 000c 06E0     		b	.L182
 1806              	.LVL168:
 1807              	.L186:
 546:D:/fchai/work/i-cube/I-CUBE-HUAWEI/Middlewares/Third_Party/Huawei/iot_link/network/mqtt/paho_mqtt/paho/MQTTClient-C/src\MQTTClient.c **** 
ARM GAS  T:\msys\tmp\ccsrUqql.s 			page 50


 547:D:/fchai/work/i-cube/I-CUBE-HUAWEI/Middlewares/Third_Party/Huawei/iot_link/network/mqtt/paho_mqtt/paho/MQTTClient-C/src\MQTTClient.c ****     do
 548:D:/fchai/work/i-cube/I-CUBE-HUAWEI/Middlewares/Third_Party/Huawei/iot_link/network/mqtt/paho_mqtt/paho/MQTTClient-C/src\MQTTClient.c ****     {
 549:D:/fchai/work/i-cube/I-CUBE-HUAWEI/Middlewares/Third_Party/Huawei/iot_link/network/mqtt/paho_mqtt/paho/MQTTClient-C/src\MQTTClient.c ****         if (TimerIsExpired(timer))
 550:D:/fchai/work/i-cube/I-CUBE-HUAWEI/Middlewares/Third_Party/Huawei/iot_link/network/mqtt/paho_mqtt/paho/MQTTClient-C/src\MQTTClient.c ****             break; // we timed out
 551:D:/fchai/work/i-cube/I-CUBE-HUAWEI/Middlewares/Third_Party/Huawei/iot_link/network/mqtt/paho_mqtt/paho/MQTTClient-C/src\MQTTClient.c ****         rc = cycle(c, timer);
 1808              		.loc 1 551 14 view .LVU559
 1809 000e FFF7FEFF 		bl	cycle
 1810              	.LVL169:
 552:D:/fchai/work/i-cube/I-CUBE-HUAWEI/Middlewares/Third_Party/Huawei/iot_link/network/mqtt/paho_mqtt/paho/MQTTClient-C/src\MQTTClient.c ****     }
 553:D:/fchai/work/i-cube/I-CUBE-HUAWEI/Middlewares/Third_Party/Huawei/iot_link/network/mqtt/paho_mqtt/paho/MQTTClient-C/src\MQTTClient.c ****     while (rc != packet_type && rc >= 0);
 1811              		.loc 1 553 5 view .LVU560
 1812 0012 B842     		cmp	r0, r7
 551:D:/fchai/work/i-cube/I-CUBE-HUAWEI/Middlewares/Third_Party/Huawei/iot_link/network/mqtt/paho_mqtt/paho/MQTTClient-C/src\MQTTClient.c ****     }
 1813              		.loc 1 551 14 view .LVU561
 1814 0014 0446     		mov	r4, r0
 1815              	.LVL170:
 1816              		.loc 1 553 11 is_stmt 1 view .LVU562
 1817              		.loc 1 553 5 is_stmt 0 view .LVU563
 1818 0016 09D0     		beq	.L180
 1819              		.loc 1 553 30 discriminator 1 view .LVU564
 1820 0018 0028     		cmp	r0, #0
 1821 001a 07DB     		blt	.L180
 1822              	.LVL171:
 1823              	.L182:
 547:D:/fchai/work/i-cube/I-CUBE-HUAWEI/Middlewares/Third_Party/Huawei/iot_link/network/mqtt/paho_mqtt/paho/MQTTClient-C/src\MQTTClient.c ****     {
 1824              		.loc 1 547 5 is_stmt 1 view .LVU565
 549:D:/fchai/work/i-cube/I-CUBE-HUAWEI/Middlewares/Third_Party/Huawei/iot_link/network/mqtt/paho_mqtt/paho/MQTTClient-C/src\MQTTClient.c ****             break; // we timed out
 1825              		.loc 1 549 9 view .LVU566
 549:D:/fchai/work/i-cube/I-CUBE-HUAWEI/Middlewares/Third_Party/Huawei/iot_link/network/mqtt/paho_mqtt/paho/MQTTClient-C/src\MQTTClient.c ****             break; // we timed out
 1826              		.loc 1 549 13 is_stmt 0 view .LVU567
 1827 001c 2846     		mov	r0, r5
 1828 001e FFF7FEFF 		bl	osal_loop_timer_expired
 1829              	.LVL172:
 551:D:/fchai/work/i-cube/I-CUBE-HUAWEI/Middlewares/Third_Party/Huawei/iot_link/network/mqtt/paho_mqtt/paho/MQTTClient-C/src\MQTTClient.c ****     }
 1830              		.loc 1 551 9 is_stmt 1 view .LVU568
 549:D:/fchai/work/i-cube/I-CUBE-HUAWEI/Middlewares/Third_Party/Huawei/iot_link/network/mqtt/paho_mqtt/paho/MQTTClient-C/src\MQTTClient.c ****             break; // we timed out
 1831              		.loc 1 549 13 is_stmt 0 view .LVU569
 1832 0022 0346     		mov	r3, r0
 551:D:/fchai/work/i-cube/I-CUBE-HUAWEI/Middlewares/Third_Party/Huawei/iot_link/network/mqtt/paho_mqtt/paho/MQTTClient-C/src\MQTTClient.c ****     }
 1833              		.loc 1 551 14 view .LVU570
 1834 0024 2946     		mov	r1, r5
 1835 0026 3046     		mov	r0, r6
 549:D:/fchai/work/i-cube/I-CUBE-HUAWEI/Middlewares/Third_Party/Huawei/iot_link/network/mqtt/paho_mqtt/paho/MQTTClient-C/src\MQTTClient.c ****             break; // we timed out
 1836              		.loc 1 549 12 view .LVU571
 1837 0028 002B     		cmp	r3, #0
 1838 002a F0D0     		beq	.L186
 1839              	.L180:
 554:D:/fchai/work/i-cube/I-CUBE-HUAWEI/Middlewares/Third_Party/Huawei/iot_link/network/mqtt/paho_mqtt/paho/MQTTClient-C/src\MQTTClient.c **** 
