ARM GAS  T:\msys\tmp\cc1cwqbR.s 			page 1


   1              		.cpu cortex-m4
   2              		.eabi_attribute 27, 1
   3              		.eabi_attribute 28, 1
   4              		.eabi_attribute 20, 1
   5              		.eabi_attribute 21, 1
   6              		.eabi_attribute 23, 3
   7              		.eabi_attribute 24, 1
   8              		.eabi_attribute 25, 1
   9              		.eabi_attribute 26, 1
  10              		.eabi_attribute 30, 2
  11              		.eabi_attribute 34, 1
  12              		.eabi_attribute 18, 4
  13              		.file	"crc16.c"
  14              		.text
  15              	.Ltext0:
  16              		.cfi_sections	.debug_frame
  17              		.section	.text.calc_crc16,"ax",%progbits
  18              		.align	1
  19              		.p2align 2,,3
  20              		.global	calc_crc16
  21              		.arch armv7e-m
  22              		.syntax unified
  23              		.thumb
  24              		.thumb_func
  25              		.fpu fpv4-sp-d16
  27              	calc_crc16:
  28              	.LVL0:
  29              	.LFB0:
  30              		.file 1 "D:/fchai/work/i-cube/I-CUBE-HUAWEI/Middlewares/Third_Party/Huawei/iot_link/crc/crc16.c"
   1:D:/fchai/work/i-cube/I-CUBE-HUAWEI/Middlewares/Third_Party/Huawei/iot_link/crc\crc16.c **** /*----------------------------------------------------------------------------
   2:D:/fchai/work/i-cube/I-CUBE-HUAWEI/Middlewares/Third_Party/Huawei/iot_link/crc\crc16.c ****  * Copyright (c) <2018>, <Huawei Technologies Co., Ltd>
   3:D:/fchai/work/i-cube/I-CUBE-HUAWEI/Middlewares/Third_Party/Huawei/iot_link/crc\crc16.c ****  * All rights reserved.
   4:D:/fchai/work/i-cube/I-CUBE-HUAWEI/Middlewares/Third_Party/Huawei/iot_link/crc\crc16.c ****  * Redistribution and use in source and binary forms, with or without modification,
   5:D:/fchai/work/i-cube/I-CUBE-HUAWEI/Middlewares/Third_Party/Huawei/iot_link/crc\crc16.c ****  * are permitted provided that the following conditions are met:
   6:D:/fchai/work/i-cube/I-CUBE-HUAWEI/Middlewares/Third_Party/Huawei/iot_link/crc\crc16.c ****  * 1. Redistributions of source code must retain the above copyright notice, this list of
   7:D:/fchai/work/i-cube/I-CUBE-HUAWEI/Middlewares/Third_Party/Huawei/iot_link/crc\crc16.c ****  * conditions and the following disclaimer.
   8:D:/fchai/work/i-cube/I-CUBE-HUAWEI/Middlewares/Third_Party/Huawei/iot_link/crc\crc16.c ****  * 2. Redistributions in binary form must reproduce the above copyright notice, this list
   9:D:/fchai/work/i-cube/I-CUBE-HUAWEI/Middlewares/Third_Party/Huawei/iot_link/crc\crc16.c ****  * of conditions and the following disclaimer in the documentation and/or other materials
  10:D:/fchai/work/i-cube/I-CUBE-HUAWEI/Middlewares/Third_Party/Huawei/iot_link/crc\crc16.c ****  * provided with the distribution.
  11:D:/fchai/work/i-cube/I-CUBE-HUAWEI/Middlewares/Third_Party/Huawei/iot_link/crc\crc16.c ****  * 3. Neither the name of the copyright holder nor the names of its contributors may be used
  12:D:/fchai/work/i-cube/I-CUBE-HUAWEI/Middlewares/Third_Party/Huawei/iot_link/crc\crc16.c ****  * to endorse or promote products derived from this software without specific prior written
  13:D:/fchai/work/i-cube/I-CUBE-HUAWEI/Middlewares/Third_Party/Huawei/iot_link/crc\crc16.c ****  * permission.
  14:D:/fchai/work/i-cube/I-CUBE-HUAWEI/Middlewares/Third_Party/Huawei/iot_link/crc\crc16.c ****  * THIS SOFTWARE IS PROVIDED BY THE COPYRIGHT HOLDERS AND CONTRIBUTORS
  15:D:/fchai/work/i-cube/I-CUBE-HUAWEI/Middlewares/Third_Party/Huawei/iot_link/crc\crc16.c ****  * "AS IS" AND ANY EXPRESS OR IMPLIED WARRANTIES, INCLUDING, BUT NOT LIMITED TO,
  16:D:/fchai/work/i-cube/I-CUBE-HUAWEI/Middlewares/Third_Party/Huawei/iot_link/crc\crc16.c ****  * THE IMPLIED WARRANTIES OF MERCHANTABILITY AND FITNESS FOR A PARTICULAR
  17:D:/fchai/work/i-cube/I-CUBE-HUAWEI/Middlewares/Third_Party/Huawei/iot_link/crc\crc16.c ****  * PURPOSE ARE DISCLAIMED. IN NO EVENT SHALL THE COPYRIGHT HOLDER OR
  18:D:/fchai/work/i-cube/I-CUBE-HUAWEI/Middlewares/Third_Party/Huawei/iot_link/crc\crc16.c ****  * CONTRIBUTORS BE LIABLE FOR ANY DIRECT, INDIRECT, INCIDENTAL, SPECIAL,
  19:D:/fchai/work/i-cube/I-CUBE-HUAWEI/Middlewares/Third_Party/Huawei/iot_link/crc\crc16.c ****  * EXEMPLARY, OR CONSEQUENTIAL DAMAGES (INCLUDING, BUT NOT LIMITED TO,
  20:D:/fchai/work/i-cube/I-CUBE-HUAWEI/Middlewares/Third_Party/Huawei/iot_link/crc\crc16.c ****  * PROCUREMENT OF SUBSTITUTE GOODS OR SERVICES; LOSS OF USE, DATA, OR PROFITS;
  21:D:/fchai/work/i-cube/I-CUBE-HUAWEI/Middlewares/Third_Party/Huawei/iot_link/crc\crc16.c ****  * OR BUSINESS INTERRUPTION) HOWEVER CAUSED AND ON ANY THEORY OF LIABILITY,
  22:D:/fchai/work/i-cube/I-CUBE-HUAWEI/Middlewares/Third_Party/Huawei/iot_link/crc\crc16.c ****  * WHETHER IN CONTRACT, STRICT LIABILITY, OR TORT (INCLUDING NEGLIGENCE OR
  23:D:/fchai/work/i-cube/I-CUBE-HUAWEI/Middlewares/Third_Party/Huawei/iot_link/crc\crc16.c ****  * OTHERWISE) ARISING IN ANY WAY OUT OF THE USE OF THIS SOFTWARE, EVEN IF
  24:D:/fchai/work/i-cube/I-CUBE-HUAWEI/Middlewares/Third_Party/Huawei/iot_link/crc\crc16.c ****  * ADVISED OF THE POSSIBILITY OF SUCH DAMAGE.
  25:D:/fchai/work/i-cube/I-CUBE-HUAWEI/Middlewares/Third_Party/Huawei/iot_link/crc\crc16.c ****  *---------------------------------------------------------------------------*/
  26:D:/fchai/work/i-cube/I-CUBE-HUAWEI/Middlewares/Third_Party/Huawei/iot_link/crc\crc16.c **** /*----------------------------------------------------------------------------
  27:D:/fchai/work/i-cube/I-CUBE-HUAWEI/Middlewares/Third_Party/Huawei/iot_link/crc\crc16.c ****  * Notice of Export Control Law
  28:D:/fchai/work/i-cube/I-CUBE-HUAWEI/Middlewares/Third_Party/Huawei/iot_link/crc\crc16.c ****  * ===============================================
ARM GAS  T:\msys\tmp\cc1cwqbR.s 			page 2


  29:D:/fchai/work/i-cube/I-CUBE-HUAWEI/Middlewares/Third_Party/Huawei/iot_link/crc\crc16.c ****  * Huawei LiteOS may be subject to applicable export control laws and regulations, which might
  30:D:/fchai/work/i-cube/I-CUBE-HUAWEI/Middlewares/Third_Party/Huawei/iot_link/crc\crc16.c ****  * include those applicable to Huawei LiteOS of U.S. and the country in which you are located.
  31:D:/fchai/work/i-cube/I-CUBE-HUAWEI/Middlewares/Third_Party/Huawei/iot_link/crc\crc16.c ****  * Import, export and usage of Huawei LiteOS in any manner by you shall be in compliance with such
  32:D:/fchai/work/i-cube/I-CUBE-HUAWEI/Middlewares/Third_Party/Huawei/iot_link/crc\crc16.c ****  * applicable export control laws and regulations.
  33:D:/fchai/work/i-cube/I-CUBE-HUAWEI/Middlewares/Third_Party/Huawei/iot_link/crc\crc16.c ****  *---------------------------------------------------------------------------*/
  34:D:/fchai/work/i-cube/I-CUBE-HUAWEI/Middlewares/Third_Party/Huawei/iot_link/crc\crc16.c **** /**
  35:D:/fchai/work/i-cube/I-CUBE-HUAWEI/Middlewares/Third_Party/Huawei/iot_link/crc\crc16.c ****  *  DATE                AUTHOR      INSTRUCTION
  36:D:/fchai/work/i-cube/I-CUBE-HUAWEI/Middlewares/Third_Party/Huawei/iot_link/crc\crc16.c ****  *  2019-05-30 15:20  zhangqianfu  The first version
  37:D:/fchai/work/i-cube/I-CUBE-HUAWEI/Middlewares/Third_Party/Huawei/iot_link/crc\crc16.c ****  *
  38:D:/fchai/work/i-cube/I-CUBE-HUAWEI/Middlewares/Third_Party/Huawei/iot_link/crc\crc16.c ****  */
  39:D:/fchai/work/i-cube/I-CUBE-HUAWEI/Middlewares/Third_Party/Huawei/iot_link/crc\crc16.c **** 
  40:D:/fchai/work/i-cube/I-CUBE-HUAWEI/Middlewares/Third_Party/Huawei/iot_link/crc\crc16.c **** #include <stdint.h>
  41:D:/fchai/work/i-cube/I-CUBE-HUAWEI/Middlewares/Third_Party/Huawei/iot_link/crc\crc16.c **** #include <stddef.h>
  42:D:/fchai/work/i-cube/I-CUBE-HUAWEI/Middlewares/Third_Party/Huawei/iot_link/crc\crc16.c **** 
  43:D:/fchai/work/i-cube/I-CUBE-HUAWEI/Middlewares/Third_Party/Huawei/iot_link/crc\crc16.c **** uint16_t crc16_ccitt_table[] = { 0x0000, 0x1021, 0x2042, 0x3063, 0x4084, 0x50a5, 0x60c6, 0x70e7, 0x
  44:D:/fchai/work/i-cube/I-CUBE-HUAWEI/Middlewares/Third_Party/Huawei/iot_link/crc\crc16.c ****                             0xb16b, 0xc18c, 0xd1ad, 0xe1ce, 0xf1ef, 0x1231, 0x0210, 0x3273, 0x2252,
  45:D:/fchai/work/i-cube/I-CUBE-HUAWEI/Middlewares/Third_Party/Huawei/iot_link/crc\crc16.c ****                             0xa35a, 0xd3bd, 0xc39c, 0xf3ff, 0xe3de, 0x2462, 0x3443, 0x0420, 0x1401,
  46:D:/fchai/work/i-cube/I-CUBE-HUAWEI/Middlewares/Third_Party/Huawei/iot_link/crc\crc16.c ****                             0x9509, 0xe5ee, 0xf5cf, 0xc5ac, 0xd58d, 0x3653, 0x2672, 0x1611, 0x0630,
  47:D:/fchai/work/i-cube/I-CUBE-HUAWEI/Middlewares/Third_Party/Huawei/iot_link/crc\crc16.c ****                             0x8738, 0xf7df, 0xe7fe, 0xd79d, 0xc7bc, 0x48c4, 0x58e5, 0x6886, 0x78a7,
  48:D:/fchai/work/i-cube/I-CUBE-HUAWEI/Middlewares/Third_Party/Huawei/iot_link/crc\crc16.c ****                             0xf9af, 0x8948, 0x9969, 0xa90a, 0xb92b, 0x5af5, 0x4ad4, 0x7ab7, 0x6a96,
  49:D:/fchai/work/i-cube/I-CUBE-HUAWEI/Middlewares/Third_Party/Huawei/iot_link/crc\crc16.c ****                             0xeb9e, 0x9b79, 0x8b58, 0xbb3b, 0xab1a, 0x6ca6, 0x7c87, 0x4ce4, 0x5cc5,
  50:D:/fchai/work/i-cube/I-CUBE-HUAWEI/Middlewares/Third_Party/Huawei/iot_link/crc\crc16.c ****                             0xddcd, 0xad2a, 0xbd0b, 0x8d68, 0x9d49, 0x7e97, 0x6eb6, 0x5ed5, 0x4ef4,
  51:D:/fchai/work/i-cube/I-CUBE-HUAWEI/Middlewares/Third_Party/Huawei/iot_link/crc\crc16.c ****                             0xcffc, 0xbf1b, 0xaf3a, 0x9f59, 0x8f78, 0x9188, 0x81a9, 0xb1ca, 0xa1eb,
  52:D:/fchai/work/i-cube/I-CUBE-HUAWEI/Middlewares/Third_Party/Huawei/iot_link/crc\crc16.c ****                             0x20e3, 0x5004, 0x4025, 0x7046, 0x6067, 0x83b9, 0x9398, 0xa3fb, 0xb3da,
  53:D:/fchai/work/i-cube/I-CUBE-HUAWEI/Middlewares/Third_Party/Huawei/iot_link/crc\crc16.c ****                             0x32d2, 0x4235, 0x5214, 0x6277, 0x7256, 0xb5ea, 0xa5cb, 0x95a8, 0x8589,
  54:D:/fchai/work/i-cube/I-CUBE-HUAWEI/Middlewares/Third_Party/Huawei/iot_link/crc\crc16.c ****                             0x0481, 0x7466, 0x6447, 0x5424, 0x4405, 0xa7db, 0xb7fa, 0x8799, 0x97b8,
  55:D:/fchai/work/i-cube/I-CUBE-HUAWEI/Middlewares/Third_Party/Huawei/iot_link/crc\crc16.c ****                             0x16b0, 0x6657, 0x7676, 0x4615, 0x5634, 0xd94c, 0xc96d, 0xf90e, 0xe92f,
  56:D:/fchai/work/i-cube/I-CUBE-HUAWEI/Middlewares/Third_Party/Huawei/iot_link/crc\crc16.c ****                             0x6827, 0x18c0, 0x08e1, 0x3882, 0x28a3, 0xcb7d, 0xdb5c, 0xeb3f, 0xfb1e,
  57:D:/fchai/work/i-cube/I-CUBE-HUAWEI/Middlewares/Third_Party/Huawei/iot_link/crc\crc16.c ****                             0x7a16, 0x0af1, 0x1ad0, 0x2ab3, 0x3a92, 0xfd2e, 0xed0f, 0xdd6c, 0xcd4d,
  58:D:/fchai/work/i-cube/I-CUBE-HUAWEI/Middlewares/Third_Party/Huawei/iot_link/crc\crc16.c ****                             0x4c45, 0x3ca2, 0x2c83, 0x1ce0, 0x0cc1, 0xef1f, 0xff3e, 0xcf5d, 0xdf7c,
  59:D:/fchai/work/i-cube/I-CUBE-HUAWEI/Middlewares/Third_Party/Huawei/iot_link/crc\crc16.c ****                             0x5e74, 0x2e93, 0x3eb2, 0x0ed1, 0x1ef0
  60:D:/fchai/work/i-cube/I-CUBE-HUAWEI/Middlewares/Third_Party/Huawei/iot_link/crc\crc16.c ****                           };
  61:D:/fchai/work/i-cube/I-CUBE-HUAWEI/Middlewares/Third_Party/Huawei/iot_link/crc\crc16.c **** 
  62:D:/fchai/work/i-cube/I-CUBE-HUAWEI/Middlewares/Third_Party/Huawei/iot_link/crc\crc16.c **** uint16_t calc_crc16(uint16_t reg_init, const unsigned char *massage, int len)
  63:D:/fchai/work/i-cube/I-CUBE-HUAWEI/Middlewares/Third_Party/Huawei/iot_link/crc\crc16.c **** {
  31              		.loc 1 63 1 view -0
  32              		.cfi_startproc
  33              		@ args = 0, pretend = 0, frame = 0
  34              		@ frame_needed = 0, uses_anonymous_args = 0
  35              		@ link register save eliminated.
  64:D:/fchai/work/i-cube/I-CUBE-HUAWEI/Middlewares/Third_Party/Huawei/iot_link/crc\crc16.c ****     uint16_t crc_reg = 0;
  36              		.loc 1 64 5 view .LVU1
  65:D:/fchai/work/i-cube/I-CUBE-HUAWEI/Middlewares/Third_Party/Huawei/iot_link/crc\crc16.c ****     int i = 0;
  37              		.loc 1 65 5 view .LVU2
  66:D:/fchai/work/i-cube/I-CUBE-HUAWEI/Middlewares/Third_Party/Huawei/iot_link/crc\crc16.c ****     crc_reg = reg_init;
  38              		.loc 1 66 5 view .LVU3
  67:D:/fchai/work/i-cube/I-CUBE-HUAWEI/Middlewares/Third_Party/Huawei/iot_link/crc\crc16.c **** 
  68:D:/fchai/work/i-cube/I-CUBE-HUAWEI/Middlewares/Third_Party/Huawei/iot_link/crc\crc16.c ****     for(i = 0; i < len; i++)
  39              		.loc 1 68 5 view .LVU4
  40              		.loc 1 68 16 view .LVU5
  41              		.loc 1 68 5 is_stmt 0 view .LVU6
  42 0000 002A     		cmp	r2, #0
  43              		.loc 1 68 5 view .LVU7
  44 0002 10DD     		ble	.L7
  63:D:/fchai/work/i-cube/I-CUBE-HUAWEI/Middlewares/Third_Party/Huawei/iot_link/crc\crc16.c ****     uint16_t crc_reg = 0;
  45              		.loc 1 63 1 view .LVU8
  46 0004 10B4     		push	{r4}
ARM GAS  T:\msys\tmp\cc1cwqbR.s 			page 3


  47              	.LCFI0:
  48              		.cfi_def_cfa_offset 4
  49              		.cfi_offset 4, -4
  50 0006 0139     		subs	r1, r1, #1
  51              	.LVL1:
  63:D:/fchai/work/i-cube/I-CUBE-HUAWEI/Middlewares/Third_Party/Huawei/iot_link/crc\crc16.c ****     uint16_t crc_reg = 0;
  52              		.loc 1 63 1 view .LVU9
  53 0008 074C     		ldr	r4, .L11
  54 000a 0A44     		add	r2, r2, r1
  55              	.LVL2:
  56              	.L3:
  69:D:/fchai/work/i-cube/I-CUBE-HUAWEI/Middlewares/Third_Party/Huawei/iot_link/crc\crc16.c ****     {
  70:D:/fchai/work/i-cube/I-CUBE-HUAWEI/Middlewares/Third_Party/Huawei/iot_link/crc\crc16.c ****         crc_reg = (crc_reg >> 8) ^ crc16_ccitt_table[(crc_reg ^ massage[i]) & 0xff];
  57              		.loc 1 70 9 is_stmt 1 discriminator 3 view .LVU10
  58              		.loc 1 70 72 is_stmt 0 discriminator 3 view .LVU11
  59 000c 11F8013F 		ldrb	r3, [r1, #1]!	@ zero_extendqisi2
  60              	.LVL3:
  61              		.loc 1 70 63 discriminator 3 view .LVU12
  62 0010 4340     		eors	r3, r3, r0
  63              		.loc 1 70 77 discriminator 3 view .LVU13
  64 0012 DBB2     		uxtb	r3, r3
  68:D:/fchai/work/i-cube/I-CUBE-HUAWEI/Middlewares/Third_Party/Huawei/iot_link/crc\crc16.c ****     {
  65              		.loc 1 68 5 discriminator 3 view .LVU14
  66 0014 8A42     		cmp	r2, r1
  67              		.loc 1 70 53 discriminator 3 view .LVU15
  68 0016 34F81330 		ldrh	r3, [r4, r3, lsl #1]
  69              		.loc 1 70 17 discriminator 3 view .LVU16
  70 001a 83EA1020 		eor	r0, r3, r0, lsr #8
  71              	.LVL4:
  68:D:/fchai/work/i-cube/I-CUBE-HUAWEI/Middlewares/Third_Party/Huawei/iot_link/crc\crc16.c ****     {
  72              		.loc 1 68 25 is_stmt 1 discriminator 3 view .LVU17
  68:D:/fchai/work/i-cube/I-CUBE-HUAWEI/Middlewares/Third_Party/Huawei/iot_link/crc\crc16.c ****     {
  73              		.loc 1 68 16 discriminator 3 view .LVU18
  68:D:/fchai/work/i-cube/I-CUBE-HUAWEI/Middlewares/Third_Party/Huawei/iot_link/crc\crc16.c ****     {
  74              		.loc 1 68 5 is_stmt 0 discriminator 3 view .LVU19
  75 001e F5D1     		bne	.L3
  71:D:/fchai/work/i-cube/I-CUBE-HUAWEI/Middlewares/Third_Party/Huawei/iot_link/crc\crc16.c ****     }
  72:D:/fchai/work/i-cube/I-CUBE-HUAWEI/Middlewares/Third_Party/Huawei/iot_link/crc\crc16.c ****     return crc_reg;
  76              		.loc 1 72 5 is_stmt 1 view .LVU20
  73:D:/fchai/work/i-cube/I-CUBE-HUAWEI/Middlewares/Third_Party/Huawei/iot_link/crc\crc16.c **** }
  77              		.loc 1 73 1 is_stmt 0 view .LVU21
  78 0020 5DF8044B 		ldr	r4, [sp], #4
  79              	.LCFI1:
  80              		.cfi_restore 4
  81              		.cfi_def_cfa_offset 0
  82 0024 7047     		bx	lr
  83              	.LVL5:
  84              	.L7:
  72:D:/fchai/work/i-cube/I-CUBE-HUAWEI/Middlewares/Third_Party/Huawei/iot_link/crc\crc16.c **** }
  85              		.loc 1 72 5 is_stmt 1 view .LVU22
  86              		.loc 1 73 1 is_stmt 0 view .LVU23
  87 0026 7047     		bx	lr
  88              	.L12:
  89              		.align	2
  90              	.L11:
  91 0028 00000000 		.word	.LANCHOR0
  92              		.cfi_endproc
ARM GAS  T:\msys\tmp\cc1cwqbR.s 			page 4


  93              	.LFE0:
  95              		.global	crc16_ccitt_table
  96              		.section	.data.crc16_ccitt_table,"aw"
  97              		.align	2
  98              		.set	.LANCHOR0,. + 0
 101              	crc16_ccitt_table:
 102 0000 0000     		.short	0
 103 0002 2110     		.short	4129
 104 0004 4220     		.short	8258
 105 0006 6330     		.short	12387
 106 0008 8440     		.short	16516
 107 000a A550     		.short	20645
 108 000c C660     		.short	24774
 109 000e E770     		.short	28903
 110 0010 0881     		.short	-32504
 111 0012 2991     		.short	-28375
 112 0014 4AA1     		.short	-24246
 113 0016 6BB1     		.short	-20117
 114 0018 8CC1     		.short	-15988
 115 001a ADD1     		.short	-11859
 116 001c CEE1     		.short	-7730
 117 001e EFF1     		.short	-3601
 118 0020 3112     		.short	4657
 119 0022 1002     		.short	528
 120 0024 7332     		.short	12915
 121 0026 5222     		.short	8786
 122 0028 B552     		.short	21173
 123 002a 9442     		.short	17044
 124 002c F772     		.short	29431
 125 002e D662     		.short	25302
 126 0030 3993     		.short	-27847
 127 0032 1883     		.short	-31976
 128 0034 7BB3     		.short	-19589
 129 0036 5AA3     		.short	-23718
 130 0038 BDD3     		.short	-11331
 131 003a 9CC3     		.short	-15460
 132 003c FFF3     		.short	-3073
 133 003e DEE3     		.short	-7202
 134 0040 6224     		.short	9314
 135 0042 4334     		.short	13379
 136 0044 2004     		.short	1056
 137 0046 0114     		.short	5121
 138 0048 E664     		.short	25830
 139 004a C774     		.short	29895
 140 004c A444     		.short	17572
 141 004e 8554     		.short	21637
 142 0050 6AA5     		.short	-23190
 143 0052 4BB5     		.short	-19125
 144 0054 2885     		.short	-31448
 145 0056 0995     		.short	-27383
 146 0058 EEE5     		.short	-6674
 147 005a CFF5     		.short	-2609
 148 005c ACC5     		.short	-14932
 149 005e 8DD5     		.short	-10867
 150 0060 5336     		.short	13907
 151 0062 7226     		.short	9842
 152 0064 1116     		.short	5649
ARM GAS  T:\msys\tmp\cc1cwqbR.s 			page 5


 153 0066 3006     		.short	1584
 154 0068 D776     		.short	30423
 155 006a F666     		.short	26358
 156 006c 9556     		.short	22165
 157 006e B446     		.short	18100
 158 0070 5BB7     		.short	-18597
 159 0072 7AA7     		.short	-22662
 160 0074 1997     		.short	-26855
 161 0076 3887     		.short	-30920
 162 0078 DFF7     		.short	-2081
 163 007a FEE7     		.short	-6146
 164 007c 9DD7     		.short	-10339
 165 007e BCC7     		.short	-14404
 166 0080 C448     		.short	18628
 167 0082 E558     		.short	22757
 168 0084 8668     		.short	26758
 169 0086 A778     		.short	30887
 170 0088 4008     		.short	2112
 171 008a 6118     		.short	6241
 172 008c 0228     		.short	10242
 173 008e 2338     		.short	14371
 174 0090 CCC9     		.short	-13876
 175 0092 EDD9     		.short	-9747
 176 0094 8EE9     		.short	-5746
 177 0096 AFF9     		.short	-1617
 178 0098 4889     		.short	-30392
 179 009a 6999     		.short	-26263
 180 009c 0AA9     		.short	-22262
 181 009e 2BB9     		.short	-18133
 182 00a0 F55A     		.short	23285
 183 00a2 D44A     		.short	19156
 184 00a4 B77A     		.short	31415
 185 00a6 966A     		.short	27286
 186 00a8 711A     		.short	6769
 187 00aa 500A     		.short	2640
 188 00ac 333A     		.short	14899
 189 00ae 122A     		.short	10770
 190 00b0 FDDB     		.short	-9219
 191 00b2 DCCB     		.short	-13348
 192 00b4 BFFB     		.short	-1089
 193 00b6 9EEB     		.short	-5218
 194 00b8 799B     		.short	-25735
 195 00ba 588B     		.short	-29864
 196 00bc 3BBB     		.short	-17605
 197 00be 1AAB     		.short	-21734
 198 00c0 A66C     		.short	27814
 199 00c2 877C     		.short	31879
 200 00c4 E44C     		.short	19684
 201 00c6 C55C     		.short	23749
 202 00c8 222C     		.short	11298
 203 00ca 033C     		.short	15363
 204 00cc 600C     		.short	3168
 205 00ce 411C     		.short	7233
 206 00d0 AEED     		.short	-4690
 207 00d2 8FFD     		.short	-625
 208 00d4 ECCD     		.short	-12820
 209 00d6 CDDD     		.short	-8755
ARM GAS  T:\msys\tmp\cc1cwqbR.s 			page 6


 210 00d8 2AAD     		.short	-21206
 211 00da 0BBD     		.short	-17141
 212 00dc 688D     		.short	-29336
 213 00de 499D     		.short	-25271
 214 00e0 977E     		.short	32407
 215 00e2 B66E     		.short	28342
 216 00e4 D55E     		.short	24277
 217 00e6 F44E     		.short	20212
 218 00e8 133E     		.short	15891
 219 00ea 322E     		.short	11826
 220 00ec 511E     		.short	7761
 221 00ee 700E     		.short	3696
 222 00f0 9FFF     		.short	-97
 223 00f2 BEEF     		.short	-4162
 224 00f4 DDDF     		.short	-8227
 225 00f6 FCCF     		.short	-12292
 226 00f8 1BBF     		.short	-16613
 227 00fa 3AAF     		.short	-20678
 228 00fc 599F     		.short	-24743
 229 00fe 788F     		.short	-28808
 230 0100 8891     		.short	-28280
 231 0102 A981     		.short	-32343
 232 0104 CAB1     		.short	-20022
 233 0106 EBA1     		.short	-24085
 234 0108 0CD1     		.short	-12020
 235 010a 2DC1     		.short	-16083
 236 010c 4EF1     		.short	-3762
 237 010e 6FE1     		.short	-7825
 238 0110 8010     		.short	4224
 239 0112 A100     		.short	161
 240 0114 C230     		.short	12482
 241 0116 E320     		.short	8419
 242 0118 0450     		.short	20484
 243 011a 2540     		.short	16421
 244 011c 4670     		.short	28742
 245 011e 6760     		.short	24679
 246 0120 B983     		.short	-31815
 247 0122 9893     		.short	-27752
 248 0124 FBA3     		.short	-23557
 249 0126 DAB3     		.short	-19494
 250 0128 3DC3     		.short	-15555
 251 012a 1CD3     		.short	-11492
 252 012c 7FE3     		.short	-7297
 253 012e 5EF3     		.short	-3234
 254 0130 B102     		.short	689
 255 0132 9012     		.short	4752
 256 0134 F322     		.short	8947
 257 0136 D232     		.short	13010
 258 0138 3542     		.short	16949
 259 013a 1452     		.short	21012
 260 013c 7762     		.short	25207
 261 013e 5672     		.short	29270
 262 0140 EAB5     		.short	-18966
 263 0142 CBA5     		.short	-23093
 264 0144 A895     		.short	-27224
 265 0146 8985     		.short	-31351
 266 0148 6EF5     		.short	-2706
ARM GAS  T:\msys\tmp\cc1cwqbR.s 			page 7


 267 014a 4FE5     		.short	-6833
 268 014c 2CD5     		.short	-10964
 269 014e 0DC5     		.short	-15091
 270 0150 E234     		.short	13538
 271 0152 C324     		.short	9411
 272 0154 A014     		.short	5280
 273 0156 8104     		.short	1153
 274 0158 6674     		.short	29798
 275 015a 4764     		.short	25671
 276 015c 2454     		.short	21540
 277 015e 0544     		.short	17413
 278 0160 DBA7     		.short	-22565
 279 0162 FAB7     		.short	-18438
 280 0164 9987     		.short	-30823
 281 0166 B897     		.short	-26696
 282 0168 5FE7     		.short	-6305
 283 016a 7EF7     		.short	-2178
 284 016c 1DC7     		.short	-14563
 285 016e 3CD7     		.short	-10436
 286 0170 D326     		.short	9939
 287 0172 F236     		.short	14066
 288 0174 9106     		.short	1681
 289 0176 B016     		.short	5808
 290 0178 5766     		.short	26199
 291 017a 7676     		.short	30326
 292 017c 1546     		.short	17941
 293 017e 3456     		.short	22068
 294 0180 4CD9     		.short	-9908
 295 0182 6DC9     		.short	-13971
 296 0184 0EF9     		.short	-1778
 297 0186 2FE9     		.short	-5841
 298 0188 C899     		.short	-26168
 299 018a E989     		.short	-30231
 300 018c 8AB9     		.short	-18038
 301 018e ABA9     		.short	-22101
 302 0190 4458     		.short	22596
 303 0192 6548     		.short	18533
 304 0194 0678     		.short	30726
 305 0196 2768     		.short	26663
 306 0198 C018     		.short	6336
 307 019a E108     		.short	2273
 308 019c 8238     		.short	14466
 309 019e A328     		.short	10403
 310 01a0 7DCB     		.short	-13443
 311 01a2 5CDB     		.short	-9380
 312 01a4 3FEB     		.short	-5313
 313 01a6 1EFB     		.short	-1250
 314 01a8 F98B     		.short	-29703
 315 01aa D89B     		.short	-25640
 316 01ac BBAB     		.short	-21573
 317 01ae 9ABB     		.short	-17510
 318 01b0 754A     		.short	19061
 319 01b2 545A     		.short	23124
 320 01b4 376A     		.short	27191
 321 01b6 167A     		.short	31254
 322 01b8 F10A     		.short	2801
 323 01ba D01A     		.short	6864
ARM GAS  T:\msys\tmp\cc1cwqbR.s 			page 8


 324 01bc B32A     		.short	10931
 325 01be 923A     		.short	14994
 326 01c0 2EFD     		.short	-722
 327 01c2 0FED     		.short	-4849
 328 01c4 6CDD     		.short	-8852
 329 01c6 4DCD     		.short	-12979
 330 01c8 AABD     		.short	-16982
 331 01ca 8BAD     		.short	-21109
 332 01cc E89D     		.short	-25112
 333 01ce C98D     		.short	-29239
 334 01d0 267C     		.short	31782
 335 01d2 076C     		.short	27655
 336 01d4 645C     		.short	23652
 337 01d6 454C     		.short	19525
 338 01d8 A23C     		.short	15522
 339 01da 832C     		.short	11395
 340 01dc E01C     		.short	7392
 341 01de C10C     		.short	3265
 342 01e0 1FEF     		.short	-4321
 343 01e2 3EFF     		.short	-194
 344 01e4 5DCF     		.short	-12451
 345 01e6 7CDF     		.short	-8324
 346 01e8 9BAF     		.short	-20581
 347 01ea BABF     		.short	-16454
 348 01ec D98F     		.short	-28711
 349 01ee F89F     		.short	-24584
 350 01f0 176E     		.short	28183
 351 01f2 367E     		.short	32310
 352 01f4 554E     		.short	20053
 353 01f6 745E     		.short	24180
 354 01f8 932E     		.short	11923
 355 01fa B23E     		.short	16050
 356 01fc D10E     		.short	3793
 357 01fe F01E     		.short	7920
 358              		.text
 359              	.Letext0:
 360              		.file 2 "t:\\msys\\3rd\\gcc-arm-none-eabi-9-2020-q2-update-win32\\arm-none-eabi\\include\\machine\
 361              		.file 3 "t:\\msys\\3rd\\gcc-arm-none-eabi-9-2020-q2-update-win32\\arm-none-eabi\\include\\sys\\_st
ARM GAS  T:\msys\tmp\cc1cwqbR.s 			page 9


DEFINED SYMBOLS
                            *ABS*:00000000 crc16.c
T:\msys\tmp\cc1cwqbR.s:18     .text.calc_crc16:00000000 $t
T:\msys\tmp\cc1cwqbR.s:27     .text.calc_crc16:00000000 calc_crc16
T:\msys\tmp\cc1cwqbR.s:91     .text.calc_crc16:00000028 $d
T:\msys\tmp\cc1cwqbR.s:101    .data.crc16_ccitt_table:00000000 crc16_ccitt_table
T:\msys\tmp\cc1cwqbR.s:97     .data.crc16_ccitt_table:00000000 $d

NO UNDEFINED SYMBOLS
