ARM GAS  T:\msys\tmp\cccQ2VxF.s 			page 1


   1              		.cpu cortex-m4
   2              		.eabi_attribute 27, 1
   3              		.eabi_attribute 28, 1
   4              		.eabi_attribute 20, 1
   5              		.eabi_attribute 21, 1
   6              		.eabi_attribute 23, 3
   7              		.eabi_attribute 24, 1
   8              		.eabi_attribute 25, 1
   9              		.eabi_attribute 26, 1
  10              		.eabi_attribute 30, 2
  11              		.eabi_attribute 34, 1
  12              		.eabi_attribute 18, 4
  13              		.file	"stm32l4xx_nucleo_bus.c"
  14              		.text
  15              	.Ltext0:
  16              		.cfi_sections	.debug_frame
  17              		.section	.text.BSP_I2C1_DeInit,"ax",%progbits
  18              		.align	1
  19              		.p2align 2,,3
  20              		.global	BSP_I2C1_DeInit
  21              		.arch armv7e-m
  22              		.syntax unified
  23              		.thumb
  24              		.thumb_func
  25              		.fpu fpv4-sp-d16
  27              	BSP_I2C1_DeInit:
  28              	.LFB124:
  29              		.file 1 "D:/fchai/work/i-cube/I-CUBE-HUAWEI/Projects/NUCLEO-L496ZG/Applications/Cloud/mqtt-ota/Src
   1:D:/fchai/work/i-cube/I-CUBE-HUAWEI/Projects/NUCLEO-L496ZG/Applications/Cloud/mqtt-ota/Src\stm32l4xx_nucleo_bus.c **** /**
   2:D:/fchai/work/i-cube/I-CUBE-HUAWEI/Projects/NUCLEO-L496ZG/Applications/Cloud/mqtt-ota/Src\stm32l4xx_nucleo_bus.c ****   ******************************************************************************
   3:D:/fchai/work/i-cube/I-CUBE-HUAWEI/Projects/NUCLEO-L496ZG/Applications/Cloud/mqtt-ota/Src\stm32l4xx_nucleo_bus.c ****   * @file           : stm32l4xx_nucleo_bus.c
   4:D:/fchai/work/i-cube/I-CUBE-HUAWEI/Projects/NUCLEO-L496ZG/Applications/Cloud/mqtt-ota/Src\stm32l4xx_nucleo_bus.c ****   * @brief          : source file for the BSP BUS IO driver
   5:D:/fchai/work/i-cube/I-CUBE-HUAWEI/Projects/NUCLEO-L496ZG/Applications/Cloud/mqtt-ota/Src\stm32l4xx_nucleo_bus.c ****   ******************************************************************************
   6:D:/fchai/work/i-cube/I-CUBE-HUAWEI/Projects/NUCLEO-L496ZG/Applications/Cloud/mqtt-ota/Src\stm32l4xx_nucleo_bus.c ****   * @attention
   7:D:/fchai/work/i-cube/I-CUBE-HUAWEI/Projects/NUCLEO-L496ZG/Applications/Cloud/mqtt-ota/Src\stm32l4xx_nucleo_bus.c ****   *
   8:D:/fchai/work/i-cube/I-CUBE-HUAWEI/Projects/NUCLEO-L496ZG/Applications/Cloud/mqtt-ota/Src\stm32l4xx_nucleo_bus.c ****   * <h2><center>&copy; Copyright (c) 2020 STMicroelectronics.
   9:D:/fchai/work/i-cube/I-CUBE-HUAWEI/Projects/NUCLEO-L496ZG/Applications/Cloud/mqtt-ota/Src\stm32l4xx_nucleo_bus.c ****   * All rights reserved.</center></h2>
  10:D:/fchai/work/i-cube/I-CUBE-HUAWEI/Projects/NUCLEO-L496ZG/Applications/Cloud/mqtt-ota/Src\stm32l4xx_nucleo_bus.c ****   *
  11:D:/fchai/work/i-cube/I-CUBE-HUAWEI/Projects/NUCLEO-L496ZG/Applications/Cloud/mqtt-ota/Src\stm32l4xx_nucleo_bus.c ****   * This software component is licensed by ST under Ultimate Liberty license
  12:D:/fchai/work/i-cube/I-CUBE-HUAWEI/Projects/NUCLEO-L496ZG/Applications/Cloud/mqtt-ota/Src\stm32l4xx_nucleo_bus.c ****   * SLA0044, the "License"; You may not use this file except in compliance with
  13:D:/fchai/work/i-cube/I-CUBE-HUAWEI/Projects/NUCLEO-L496ZG/Applications/Cloud/mqtt-ota/Src\stm32l4xx_nucleo_bus.c ****   * the License. You may obtain a copy of the License at:
  14:D:/fchai/work/i-cube/I-CUBE-HUAWEI/Projects/NUCLEO-L496ZG/Applications/Cloud/mqtt-ota/Src\stm32l4xx_nucleo_bus.c ****   *                             www.st.com/SLA0044
  15:D:/fchai/work/i-cube/I-CUBE-HUAWEI/Projects/NUCLEO-L496ZG/Applications/Cloud/mqtt-ota/Src\stm32l4xx_nucleo_bus.c ****   *
  16:D:/fchai/work/i-cube/I-CUBE-HUAWEI/Projects/NUCLEO-L496ZG/Applications/Cloud/mqtt-ota/Src\stm32l4xx_nucleo_bus.c ****   ******************************************************************************
  17:D:/fchai/work/i-cube/I-CUBE-HUAWEI/Projects/NUCLEO-L496ZG/Applications/Cloud/mqtt-ota/Src\stm32l4xx_nucleo_bus.c **** */
  18:D:/fchai/work/i-cube/I-CUBE-HUAWEI/Projects/NUCLEO-L496ZG/Applications/Cloud/mqtt-ota/Src\stm32l4xx_nucleo_bus.c **** 
  19:D:/fchai/work/i-cube/I-CUBE-HUAWEI/Projects/NUCLEO-L496ZG/Applications/Cloud/mqtt-ota/Src\stm32l4xx_nucleo_bus.c **** /* Includes ------------------------------------------------------------------*/
  20:D:/fchai/work/i-cube/I-CUBE-HUAWEI/Projects/NUCLEO-L496ZG/Applications/Cloud/mqtt-ota/Src\stm32l4xx_nucleo_bus.c **** #include "stm32l4xx_nucleo_bus.h"
  21:D:/fchai/work/i-cube/I-CUBE-HUAWEI/Projects/NUCLEO-L496ZG/Applications/Cloud/mqtt-ota/Src\stm32l4xx_nucleo_bus.c **** 
  22:D:/fchai/work/i-cube/I-CUBE-HUAWEI/Projects/NUCLEO-L496ZG/Applications/Cloud/mqtt-ota/Src\stm32l4xx_nucleo_bus.c **** __weak HAL_StatusTypeDef MX_I2C1_Init(I2C_HandleTypeDef* hi2c);								
  23:D:/fchai/work/i-cube/I-CUBE-HUAWEI/Projects/NUCLEO-L496ZG/Applications/Cloud/mqtt-ota/Src\stm32l4xx_nucleo_bus.c **** 
  24:D:/fchai/work/i-cube/I-CUBE-HUAWEI/Projects/NUCLEO-L496ZG/Applications/Cloud/mqtt-ota/Src\stm32l4xx_nucleo_bus.c **** /** @addtogroup BSP
  25:D:/fchai/work/i-cube/I-CUBE-HUAWEI/Projects/NUCLEO-L496ZG/Applications/Cloud/mqtt-ota/Src\stm32l4xx_nucleo_bus.c ****   * @{
  26:D:/fchai/work/i-cube/I-CUBE-HUAWEI/Projects/NUCLEO-L496ZG/Applications/Cloud/mqtt-ota/Src\stm32l4xx_nucleo_bus.c ****   */
  27:D:/fchai/work/i-cube/I-CUBE-HUAWEI/Projects/NUCLEO-L496ZG/Applications/Cloud/mqtt-ota/Src\stm32l4xx_nucleo_bus.c **** 
  28:D:/fchai/work/i-cube/I-CUBE-HUAWEI/Projects/NUCLEO-L496ZG/Applications/Cloud/mqtt-ota/Src\stm32l4xx_nucleo_bus.c **** /** @addtogroup STM32L4XX_NUCLEO
  29:D:/fchai/work/i-cube/I-CUBE-HUAWEI/Projects/NUCLEO-L496ZG/Applications/Cloud/mqtt-ota/Src\stm32l4xx_nucleo_bus.c ****   * @{
ARM GAS  T:\msys\tmp\cccQ2VxF.s 			page 2


  30:D:/fchai/work/i-cube/I-CUBE-HUAWEI/Projects/NUCLEO-L496ZG/Applications/Cloud/mqtt-ota/Src\stm32l4xx_nucleo_bus.c ****   */
  31:D:/fchai/work/i-cube/I-CUBE-HUAWEI/Projects/NUCLEO-L496ZG/Applications/Cloud/mqtt-ota/Src\stm32l4xx_nucleo_bus.c **** 
  32:D:/fchai/work/i-cube/I-CUBE-HUAWEI/Projects/NUCLEO-L496ZG/Applications/Cloud/mqtt-ota/Src\stm32l4xx_nucleo_bus.c **** /** @defgroup STM32L4XX_NUCLEO_BUS STM32L4XX_NUCLEO BUS
  33:D:/fchai/work/i-cube/I-CUBE-HUAWEI/Projects/NUCLEO-L496ZG/Applications/Cloud/mqtt-ota/Src\stm32l4xx_nucleo_bus.c ****   * @{
  34:D:/fchai/work/i-cube/I-CUBE-HUAWEI/Projects/NUCLEO-L496ZG/Applications/Cloud/mqtt-ota/Src\stm32l4xx_nucleo_bus.c ****   */
  35:D:/fchai/work/i-cube/I-CUBE-HUAWEI/Projects/NUCLEO-L496ZG/Applications/Cloud/mqtt-ota/Src\stm32l4xx_nucleo_bus.c ****   
  36:D:/fchai/work/i-cube/I-CUBE-HUAWEI/Projects/NUCLEO-L496ZG/Applications/Cloud/mqtt-ota/Src\stm32l4xx_nucleo_bus.c **** #define DIV_ROUND_CLOSEST(x, d)  (((x) + ((d) / 2U)) / (d))
  37:D:/fchai/work/i-cube/I-CUBE-HUAWEI/Projects/NUCLEO-L496ZG/Applications/Cloud/mqtt-ota/Src\stm32l4xx_nucleo_bus.c **** 
  38:D:/fchai/work/i-cube/I-CUBE-HUAWEI/Projects/NUCLEO-L496ZG/Applications/Cloud/mqtt-ota/Src\stm32l4xx_nucleo_bus.c **** #define I2C_ANALOG_FILTER_DELAY_MIN            50U     /* ns */
  39:D:/fchai/work/i-cube/I-CUBE-HUAWEI/Projects/NUCLEO-L496ZG/Applications/Cloud/mqtt-ota/Src\stm32l4xx_nucleo_bus.c **** #define I2C_ANALOG_FILTER_DELAY_MAX            260U    /* ns */
  40:D:/fchai/work/i-cube/I-CUBE-HUAWEI/Projects/NUCLEO-L496ZG/Applications/Cloud/mqtt-ota/Src\stm32l4xx_nucleo_bus.c **** #define I2C_ANALOG_FILTER_DELAY_DEFAULT        2U      /* ns */
  41:D:/fchai/work/i-cube/I-CUBE-HUAWEI/Projects/NUCLEO-L496ZG/Applications/Cloud/mqtt-ota/Src\stm32l4xx_nucleo_bus.c **** 
  42:D:/fchai/work/i-cube/I-CUBE-HUAWEI/Projects/NUCLEO-L496ZG/Applications/Cloud/mqtt-ota/Src\stm32l4xx_nucleo_bus.c **** #ifndef I2C_VALID_TIMING_NBR
  43:D:/fchai/work/i-cube/I-CUBE-HUAWEI/Projects/NUCLEO-L496ZG/Applications/Cloud/mqtt-ota/Src\stm32l4xx_nucleo_bus.c ****   #define I2C_VALID_TIMING_NBR                 128U
  44:D:/fchai/work/i-cube/I-CUBE-HUAWEI/Projects/NUCLEO-L496ZG/Applications/Cloud/mqtt-ota/Src\stm32l4xx_nucleo_bus.c **** #endif
  45:D:/fchai/work/i-cube/I-CUBE-HUAWEI/Projects/NUCLEO-L496ZG/Applications/Cloud/mqtt-ota/Src\stm32l4xx_nucleo_bus.c **** 
  46:D:/fchai/work/i-cube/I-CUBE-HUAWEI/Projects/NUCLEO-L496ZG/Applications/Cloud/mqtt-ota/Src\stm32l4xx_nucleo_bus.c **** #define I2C_SPEED_STANDARD                     0U    /* 100 kHz */
  47:D:/fchai/work/i-cube/I-CUBE-HUAWEI/Projects/NUCLEO-L496ZG/Applications/Cloud/mqtt-ota/Src\stm32l4xx_nucleo_bus.c **** #define I2C_SPEED_FAST                         1U    /* 400 kHz */
  48:D:/fchai/work/i-cube/I-CUBE-HUAWEI/Projects/NUCLEO-L496ZG/Applications/Cloud/mqtt-ota/Src\stm32l4xx_nucleo_bus.c **** #define I2C_SPEED_FAST_PLUS                    2U    /* 1 MHz */
  49:D:/fchai/work/i-cube/I-CUBE-HUAWEI/Projects/NUCLEO-L496ZG/Applications/Cloud/mqtt-ota/Src\stm32l4xx_nucleo_bus.c **** 
  50:D:/fchai/work/i-cube/I-CUBE-HUAWEI/Projects/NUCLEO-L496ZG/Applications/Cloud/mqtt-ota/Src\stm32l4xx_nucleo_bus.c **** #define I2C_PRESC_MAX                          16U
  51:D:/fchai/work/i-cube/I-CUBE-HUAWEI/Projects/NUCLEO-L496ZG/Applications/Cloud/mqtt-ota/Src\stm32l4xx_nucleo_bus.c **** #define I2C_SCLDEL_MAX                         16U
  52:D:/fchai/work/i-cube/I-CUBE-HUAWEI/Projects/NUCLEO-L496ZG/Applications/Cloud/mqtt-ota/Src\stm32l4xx_nucleo_bus.c **** #define I2C_SDADEL_MAX                         16U
  53:D:/fchai/work/i-cube/I-CUBE-HUAWEI/Projects/NUCLEO-L496ZG/Applications/Cloud/mqtt-ota/Src\stm32l4xx_nucleo_bus.c **** #define I2C_SCLH_MAX                           256U
  54:D:/fchai/work/i-cube/I-CUBE-HUAWEI/Projects/NUCLEO-L496ZG/Applications/Cloud/mqtt-ota/Src\stm32l4xx_nucleo_bus.c **** #define I2C_SCLL_MAX                           256U
  55:D:/fchai/work/i-cube/I-CUBE-HUAWEI/Projects/NUCLEO-L496ZG/Applications/Cloud/mqtt-ota/Src\stm32l4xx_nucleo_bus.c **** #define SEC2NSEC                               1000000000UL
  56:D:/fchai/work/i-cube/I-CUBE-HUAWEI/Projects/NUCLEO-L496ZG/Applications/Cloud/mqtt-ota/Src\stm32l4xx_nucleo_bus.c **** 
  57:D:/fchai/work/i-cube/I-CUBE-HUAWEI/Projects/NUCLEO-L496ZG/Applications/Cloud/mqtt-ota/Src\stm32l4xx_nucleo_bus.c **** #if (USE_CUBEMX_BSP_V2 == 1)
  58:D:/fchai/work/i-cube/I-CUBE-HUAWEI/Projects/NUCLEO-L496ZG/Applications/Cloud/mqtt-ota/Src\stm32l4xx_nucleo_bus.c **** /**
  59:D:/fchai/work/i-cube/I-CUBE-HUAWEI/Projects/NUCLEO-L496ZG/Applications/Cloud/mqtt-ota/Src\stm32l4xx_nucleo_bus.c ****   * @brief I2C_charac
  60:D:/fchai/work/i-cube/I-CUBE-HUAWEI/Projects/NUCLEO-L496ZG/Applications/Cloud/mqtt-ota/Src\stm32l4xx_nucleo_bus.c ****   *  freq: I2C bus speed (Hz)
  61:D:/fchai/work/i-cube/I-CUBE-HUAWEI/Projects/NUCLEO-L496ZG/Applications/Cloud/mqtt-ota/Src\stm32l4xx_nucleo_bus.c ****   *  freq_min: 80% of I2C bus speed (Hz)
  62:D:/fchai/work/i-cube/I-CUBE-HUAWEI/Projects/NUCLEO-L496ZG/Applications/Cloud/mqtt-ota/Src\stm32l4xx_nucleo_bus.c ****   *  freq_max: 100% of I2C bus speed (Hz)
  63:D:/fchai/work/i-cube/I-CUBE-HUAWEI/Projects/NUCLEO-L496ZG/Applications/Cloud/mqtt-ota/Src\stm32l4xx_nucleo_bus.c ****   *  fall_max: Max fall time of both SDA and SCL signals (ns)
  64:D:/fchai/work/i-cube/I-CUBE-HUAWEI/Projects/NUCLEO-L496ZG/Applications/Cloud/mqtt-ota/Src\stm32l4xx_nucleo_bus.c ****   *  rise_max: Max rise time of both SDA and SCL signals (ns)
  65:D:/fchai/work/i-cube/I-CUBE-HUAWEI/Projects/NUCLEO-L496ZG/Applications/Cloud/mqtt-ota/Src\stm32l4xx_nucleo_bus.c ****   *  hddat_min: Min data hold time (ns)
  66:D:/fchai/work/i-cube/I-CUBE-HUAWEI/Projects/NUCLEO-L496ZG/Applications/Cloud/mqtt-ota/Src\stm32l4xx_nucleo_bus.c ****   *  vddat_max: Max data valid time (ns)
  67:D:/fchai/work/i-cube/I-CUBE-HUAWEI/Projects/NUCLEO-L496ZG/Applications/Cloud/mqtt-ota/Src\stm32l4xx_nucleo_bus.c ****   *  sudat_min: Min data setup time (ns)
  68:D:/fchai/work/i-cube/I-CUBE-HUAWEI/Projects/NUCLEO-L496ZG/Applications/Cloud/mqtt-ota/Src\stm32l4xx_nucleo_bus.c ****   *  lscl_min: Min low period of the SCL clock (ns)
  69:D:/fchai/work/i-cube/I-CUBE-HUAWEI/Projects/NUCLEO-L496ZG/Applications/Cloud/mqtt-ota/Src\stm32l4xx_nucleo_bus.c ****   *  hscl_min: Min high period of the SCL clock (ns)
  70:D:/fchai/work/i-cube/I-CUBE-HUAWEI/Projects/NUCLEO-L496ZG/Applications/Cloud/mqtt-ota/Src\stm32l4xx_nucleo_bus.c ****   *  trise: Rise time (ns)
  71:D:/fchai/work/i-cube/I-CUBE-HUAWEI/Projects/NUCLEO-L496ZG/Applications/Cloud/mqtt-ota/Src\stm32l4xx_nucleo_bus.c ****   *  tfall: Fall time (ns)
  72:D:/fchai/work/i-cube/I-CUBE-HUAWEI/Projects/NUCLEO-L496ZG/Applications/Cloud/mqtt-ota/Src\stm32l4xx_nucleo_bus.c ****   *  dnf: Digital filter coefficient (0-16)
  73:D:/fchai/work/i-cube/I-CUBE-HUAWEI/Projects/NUCLEO-L496ZG/Applications/Cloud/mqtt-ota/Src\stm32l4xx_nucleo_bus.c ****   */
  74:D:/fchai/work/i-cube/I-CUBE-HUAWEI/Projects/NUCLEO-L496ZG/Applications/Cloud/mqtt-ota/Src\stm32l4xx_nucleo_bus.c **** typedef struct
  75:D:/fchai/work/i-cube/I-CUBE-HUAWEI/Projects/NUCLEO-L496ZG/Applications/Cloud/mqtt-ota/Src\stm32l4xx_nucleo_bus.c **** {
  76:D:/fchai/work/i-cube/I-CUBE-HUAWEI/Projects/NUCLEO-L496ZG/Applications/Cloud/mqtt-ota/Src\stm32l4xx_nucleo_bus.c ****   uint32_t freq;
  77:D:/fchai/work/i-cube/I-CUBE-HUAWEI/Projects/NUCLEO-L496ZG/Applications/Cloud/mqtt-ota/Src\stm32l4xx_nucleo_bus.c ****   uint32_t freq_min;
  78:D:/fchai/work/i-cube/I-CUBE-HUAWEI/Projects/NUCLEO-L496ZG/Applications/Cloud/mqtt-ota/Src\stm32l4xx_nucleo_bus.c ****   uint32_t freq_max;
  79:D:/fchai/work/i-cube/I-CUBE-HUAWEI/Projects/NUCLEO-L496ZG/Applications/Cloud/mqtt-ota/Src\stm32l4xx_nucleo_bus.c ****   uint32_t hddat_min;
  80:D:/fchai/work/i-cube/I-CUBE-HUAWEI/Projects/NUCLEO-L496ZG/Applications/Cloud/mqtt-ota/Src\stm32l4xx_nucleo_bus.c ****   uint32_t vddat_max;
  81:D:/fchai/work/i-cube/I-CUBE-HUAWEI/Projects/NUCLEO-L496ZG/Applications/Cloud/mqtt-ota/Src\stm32l4xx_nucleo_bus.c ****   uint32_t sudat_min;
  82:D:/fchai/work/i-cube/I-CUBE-HUAWEI/Projects/NUCLEO-L496ZG/Applications/Cloud/mqtt-ota/Src\stm32l4xx_nucleo_bus.c ****   uint32_t lscl_min;
  83:D:/fchai/work/i-cube/I-CUBE-HUAWEI/Projects/NUCLEO-L496ZG/Applications/Cloud/mqtt-ota/Src\stm32l4xx_nucleo_bus.c ****   uint32_t hscl_min;
  84:D:/fchai/work/i-cube/I-CUBE-HUAWEI/Projects/NUCLEO-L496ZG/Applications/Cloud/mqtt-ota/Src\stm32l4xx_nucleo_bus.c ****   uint32_t trise;
  85:D:/fchai/work/i-cube/I-CUBE-HUAWEI/Projects/NUCLEO-L496ZG/Applications/Cloud/mqtt-ota/Src\stm32l4xx_nucleo_bus.c ****   uint32_t tfall;
  86:D:/fchai/work/i-cube/I-CUBE-HUAWEI/Projects/NUCLEO-L496ZG/Applications/Cloud/mqtt-ota/Src\stm32l4xx_nucleo_bus.c ****   uint32_t dnf;
ARM GAS  T:\msys\tmp\cccQ2VxF.s 			page 3


  87:D:/fchai/work/i-cube/I-CUBE-HUAWEI/Projects/NUCLEO-L496ZG/Applications/Cloud/mqtt-ota/Src\stm32l4xx_nucleo_bus.c **** }I2C_Charac_t;
  88:D:/fchai/work/i-cube/I-CUBE-HUAWEI/Projects/NUCLEO-L496ZG/Applications/Cloud/mqtt-ota/Src\stm32l4xx_nucleo_bus.c **** 
  89:D:/fchai/work/i-cube/I-CUBE-HUAWEI/Projects/NUCLEO-L496ZG/Applications/Cloud/mqtt-ota/Src\stm32l4xx_nucleo_bus.c **** /**
  90:D:/fchai/work/i-cube/I-CUBE-HUAWEI/Projects/NUCLEO-L496ZG/Applications/Cloud/mqtt-ota/Src\stm32l4xx_nucleo_bus.c ****   * @brief I2C timings parameters
  91:D:/fchai/work/i-cube/I-CUBE-HUAWEI/Projects/NUCLEO-L496ZG/Applications/Cloud/mqtt-ota/Src\stm32l4xx_nucleo_bus.c ****   *  presc: Prescaler value
  92:D:/fchai/work/i-cube/I-CUBE-HUAWEI/Projects/NUCLEO-L496ZG/Applications/Cloud/mqtt-ota/Src\stm32l4xx_nucleo_bus.c ****   *  tscldel: Data setup time
  93:D:/fchai/work/i-cube/I-CUBE-HUAWEI/Projects/NUCLEO-L496ZG/Applications/Cloud/mqtt-ota/Src\stm32l4xx_nucleo_bus.c ****   *  tsdadel: Data hold time
  94:D:/fchai/work/i-cube/I-CUBE-HUAWEI/Projects/NUCLEO-L496ZG/Applications/Cloud/mqtt-ota/Src\stm32l4xx_nucleo_bus.c ****   *  sclh: SCL high period (master mode)
  95:D:/fchai/work/i-cube/I-CUBE-HUAWEI/Projects/NUCLEO-L496ZG/Applications/Cloud/mqtt-ota/Src\stm32l4xx_nucleo_bus.c ****   *  scll: SCL low period (master mode)
  96:D:/fchai/work/i-cube/I-CUBE-HUAWEI/Projects/NUCLEO-L496ZG/Applications/Cloud/mqtt-ota/Src\stm32l4xx_nucleo_bus.c ****   */
  97:D:/fchai/work/i-cube/I-CUBE-HUAWEI/Projects/NUCLEO-L496ZG/Applications/Cloud/mqtt-ota/Src\stm32l4xx_nucleo_bus.c **** typedef struct
  98:D:/fchai/work/i-cube/I-CUBE-HUAWEI/Projects/NUCLEO-L496ZG/Applications/Cloud/mqtt-ota/Src\stm32l4xx_nucleo_bus.c **** {
  99:D:/fchai/work/i-cube/I-CUBE-HUAWEI/Projects/NUCLEO-L496ZG/Applications/Cloud/mqtt-ota/Src\stm32l4xx_nucleo_bus.c ****   uint32_t presc;
 100:D:/fchai/work/i-cube/I-CUBE-HUAWEI/Projects/NUCLEO-L496ZG/Applications/Cloud/mqtt-ota/Src\stm32l4xx_nucleo_bus.c ****   uint32_t tscldel;
 101:D:/fchai/work/i-cube/I-CUBE-HUAWEI/Projects/NUCLEO-L496ZG/Applications/Cloud/mqtt-ota/Src\stm32l4xx_nucleo_bus.c ****   uint32_t tsdadel;
 102:D:/fchai/work/i-cube/I-CUBE-HUAWEI/Projects/NUCLEO-L496ZG/Applications/Cloud/mqtt-ota/Src\stm32l4xx_nucleo_bus.c ****   uint32_t sclh;
 103:D:/fchai/work/i-cube/I-CUBE-HUAWEI/Projects/NUCLEO-L496ZG/Applications/Cloud/mqtt-ota/Src\stm32l4xx_nucleo_bus.c ****   uint32_t scll;
 104:D:/fchai/work/i-cube/I-CUBE-HUAWEI/Projects/NUCLEO-L496ZG/Applications/Cloud/mqtt-ota/Src\stm32l4xx_nucleo_bus.c **** }I2C_Timings_t;
 105:D:/fchai/work/i-cube/I-CUBE-HUAWEI/Projects/NUCLEO-L496ZG/Applications/Cloud/mqtt-ota/Src\stm32l4xx_nucleo_bus.c **** 
 106:D:/fchai/work/i-cube/I-CUBE-HUAWEI/Projects/NUCLEO-L496ZG/Applications/Cloud/mqtt-ota/Src\stm32l4xx_nucleo_bus.c **** static const I2C_Charac_t I2C_Charac[] =
 107:D:/fchai/work/i-cube/I-CUBE-HUAWEI/Projects/NUCLEO-L496ZG/Applications/Cloud/mqtt-ota/Src\stm32l4xx_nucleo_bus.c **** {
 108:D:/fchai/work/i-cube/I-CUBE-HUAWEI/Projects/NUCLEO-L496ZG/Applications/Cloud/mqtt-ota/Src\stm32l4xx_nucleo_bus.c ****   [I2C_SPEED_STANDARD] =
 109:D:/fchai/work/i-cube/I-CUBE-HUAWEI/Projects/NUCLEO-L496ZG/Applications/Cloud/mqtt-ota/Src\stm32l4xx_nucleo_bus.c ****   {
 110:D:/fchai/work/i-cube/I-CUBE-HUAWEI/Projects/NUCLEO-L496ZG/Applications/Cloud/mqtt-ota/Src\stm32l4xx_nucleo_bus.c ****     .freq = 100000,
 111:D:/fchai/work/i-cube/I-CUBE-HUAWEI/Projects/NUCLEO-L496ZG/Applications/Cloud/mqtt-ota/Src\stm32l4xx_nucleo_bus.c ****     .freq_min = 80000,
 112:D:/fchai/work/i-cube/I-CUBE-HUAWEI/Projects/NUCLEO-L496ZG/Applications/Cloud/mqtt-ota/Src\stm32l4xx_nucleo_bus.c ****     .freq_max = 120000,
 113:D:/fchai/work/i-cube/I-CUBE-HUAWEI/Projects/NUCLEO-L496ZG/Applications/Cloud/mqtt-ota/Src\stm32l4xx_nucleo_bus.c ****     .hddat_min = 0,
 114:D:/fchai/work/i-cube/I-CUBE-HUAWEI/Projects/NUCLEO-L496ZG/Applications/Cloud/mqtt-ota/Src\stm32l4xx_nucleo_bus.c ****     .vddat_max = 3450,
 115:D:/fchai/work/i-cube/I-CUBE-HUAWEI/Projects/NUCLEO-L496ZG/Applications/Cloud/mqtt-ota/Src\stm32l4xx_nucleo_bus.c ****     .sudat_min = 250,
 116:D:/fchai/work/i-cube/I-CUBE-HUAWEI/Projects/NUCLEO-L496ZG/Applications/Cloud/mqtt-ota/Src\stm32l4xx_nucleo_bus.c ****     .lscl_min = 4700,
 117:D:/fchai/work/i-cube/I-CUBE-HUAWEI/Projects/NUCLEO-L496ZG/Applications/Cloud/mqtt-ota/Src\stm32l4xx_nucleo_bus.c ****     .hscl_min = 4000,
 118:D:/fchai/work/i-cube/I-CUBE-HUAWEI/Projects/NUCLEO-L496ZG/Applications/Cloud/mqtt-ota/Src\stm32l4xx_nucleo_bus.c ****     .trise = 400,
 119:D:/fchai/work/i-cube/I-CUBE-HUAWEI/Projects/NUCLEO-L496ZG/Applications/Cloud/mqtt-ota/Src\stm32l4xx_nucleo_bus.c ****     .tfall = 100,
 120:D:/fchai/work/i-cube/I-CUBE-HUAWEI/Projects/NUCLEO-L496ZG/Applications/Cloud/mqtt-ota/Src\stm32l4xx_nucleo_bus.c ****     .dnf = I2C_ANALOG_FILTER_DELAY_DEFAULT,
 121:D:/fchai/work/i-cube/I-CUBE-HUAWEI/Projects/NUCLEO-L496ZG/Applications/Cloud/mqtt-ota/Src\stm32l4xx_nucleo_bus.c ****   },
 122:D:/fchai/work/i-cube/I-CUBE-HUAWEI/Projects/NUCLEO-L496ZG/Applications/Cloud/mqtt-ota/Src\stm32l4xx_nucleo_bus.c ****   [I2C_SPEED_FAST] =
 123:D:/fchai/work/i-cube/I-CUBE-HUAWEI/Projects/NUCLEO-L496ZG/Applications/Cloud/mqtt-ota/Src\stm32l4xx_nucleo_bus.c ****   {
 124:D:/fchai/work/i-cube/I-CUBE-HUAWEI/Projects/NUCLEO-L496ZG/Applications/Cloud/mqtt-ota/Src\stm32l4xx_nucleo_bus.c ****     .freq = 400000,
 125:D:/fchai/work/i-cube/I-CUBE-HUAWEI/Projects/NUCLEO-L496ZG/Applications/Cloud/mqtt-ota/Src\stm32l4xx_nucleo_bus.c ****     .freq_min = 320000,
 126:D:/fchai/work/i-cube/I-CUBE-HUAWEI/Projects/NUCLEO-L496ZG/Applications/Cloud/mqtt-ota/Src\stm32l4xx_nucleo_bus.c ****     .freq_max = 480000,
 127:D:/fchai/work/i-cube/I-CUBE-HUAWEI/Projects/NUCLEO-L496ZG/Applications/Cloud/mqtt-ota/Src\stm32l4xx_nucleo_bus.c ****     .hddat_min = 0,
 128:D:/fchai/work/i-cube/I-CUBE-HUAWEI/Projects/NUCLEO-L496ZG/Applications/Cloud/mqtt-ota/Src\stm32l4xx_nucleo_bus.c ****     .vddat_max = 900,
 129:D:/fchai/work/i-cube/I-CUBE-HUAWEI/Projects/NUCLEO-L496ZG/Applications/Cloud/mqtt-ota/Src\stm32l4xx_nucleo_bus.c ****     .sudat_min = 100,
 130:D:/fchai/work/i-cube/I-CUBE-HUAWEI/Projects/NUCLEO-L496ZG/Applications/Cloud/mqtt-ota/Src\stm32l4xx_nucleo_bus.c ****     .lscl_min = 1300,
 131:D:/fchai/work/i-cube/I-CUBE-HUAWEI/Projects/NUCLEO-L496ZG/Applications/Cloud/mqtt-ota/Src\stm32l4xx_nucleo_bus.c ****     .hscl_min = 600,
 132:D:/fchai/work/i-cube/I-CUBE-HUAWEI/Projects/NUCLEO-L496ZG/Applications/Cloud/mqtt-ota/Src\stm32l4xx_nucleo_bus.c ****     .trise = 250,
 133:D:/fchai/work/i-cube/I-CUBE-HUAWEI/Projects/NUCLEO-L496ZG/Applications/Cloud/mqtt-ota/Src\stm32l4xx_nucleo_bus.c ****     .tfall = 100,
 134:D:/fchai/work/i-cube/I-CUBE-HUAWEI/Projects/NUCLEO-L496ZG/Applications/Cloud/mqtt-ota/Src\stm32l4xx_nucleo_bus.c ****     .dnf = I2C_ANALOG_FILTER_DELAY_DEFAULT,
 135:D:/fchai/work/i-cube/I-CUBE-HUAWEI/Projects/NUCLEO-L496ZG/Applications/Cloud/mqtt-ota/Src\stm32l4xx_nucleo_bus.c ****   },
 136:D:/fchai/work/i-cube/I-CUBE-HUAWEI/Projects/NUCLEO-L496ZG/Applications/Cloud/mqtt-ota/Src\stm32l4xx_nucleo_bus.c ****   [I2C_SPEED_FAST_PLUS] =
 137:D:/fchai/work/i-cube/I-CUBE-HUAWEI/Projects/NUCLEO-L496ZG/Applications/Cloud/mqtt-ota/Src\stm32l4xx_nucleo_bus.c ****   {
 138:D:/fchai/work/i-cube/I-CUBE-HUAWEI/Projects/NUCLEO-L496ZG/Applications/Cloud/mqtt-ota/Src\stm32l4xx_nucleo_bus.c ****     .freq = 1000000,
 139:D:/fchai/work/i-cube/I-CUBE-HUAWEI/Projects/NUCLEO-L496ZG/Applications/Cloud/mqtt-ota/Src\stm32l4xx_nucleo_bus.c ****     .freq_min = 800000,
 140:D:/fchai/work/i-cube/I-CUBE-HUAWEI/Projects/NUCLEO-L496ZG/Applications/Cloud/mqtt-ota/Src\stm32l4xx_nucleo_bus.c ****     .freq_max = 1200000,
 141:D:/fchai/work/i-cube/I-CUBE-HUAWEI/Projects/NUCLEO-L496ZG/Applications/Cloud/mqtt-ota/Src\stm32l4xx_nucleo_bus.c ****     .hddat_min = 0,
 142:D:/fchai/work/i-cube/I-CUBE-HUAWEI/Projects/NUCLEO-L496ZG/Applications/Cloud/mqtt-ota/Src\stm32l4xx_nucleo_bus.c ****     .vddat_max = 450,
 143:D:/fchai/work/i-cube/I-CUBE-HUAWEI/Projects/NUCLEO-L496ZG/Applications/Cloud/mqtt-ota/Src\stm32l4xx_nucleo_bus.c ****     .sudat_min = 50,
ARM GAS  T:\msys\tmp\cccQ2VxF.s 			page 4


 144:D:/fchai/work/i-cube/I-CUBE-HUAWEI/Projects/NUCLEO-L496ZG/Applications/Cloud/mqtt-ota/Src\stm32l4xx_nucleo_bus.c ****     .lscl_min = 500,
 145:D:/fchai/work/i-cube/I-CUBE-HUAWEI/Projects/NUCLEO-L496ZG/Applications/Cloud/mqtt-ota/Src\stm32l4xx_nucleo_bus.c ****     .hscl_min = 260,
 146:D:/fchai/work/i-cube/I-CUBE-HUAWEI/Projects/NUCLEO-L496ZG/Applications/Cloud/mqtt-ota/Src\stm32l4xx_nucleo_bus.c ****     .trise = 60,
 147:D:/fchai/work/i-cube/I-CUBE-HUAWEI/Projects/NUCLEO-L496ZG/Applications/Cloud/mqtt-ota/Src\stm32l4xx_nucleo_bus.c ****     .tfall = 100,
 148:D:/fchai/work/i-cube/I-CUBE-HUAWEI/Projects/NUCLEO-L496ZG/Applications/Cloud/mqtt-ota/Src\stm32l4xx_nucleo_bus.c ****     .dnf = I2C_ANALOG_FILTER_DELAY_DEFAULT,
 149:D:/fchai/work/i-cube/I-CUBE-HUAWEI/Projects/NUCLEO-L496ZG/Applications/Cloud/mqtt-ota/Src\stm32l4xx_nucleo_bus.c ****   },
 150:D:/fchai/work/i-cube/I-CUBE-HUAWEI/Projects/NUCLEO-L496ZG/Applications/Cloud/mqtt-ota/Src\stm32l4xx_nucleo_bus.c **** };
 151:D:/fchai/work/i-cube/I-CUBE-HUAWEI/Projects/NUCLEO-L496ZG/Applications/Cloud/mqtt-ota/Src\stm32l4xx_nucleo_bus.c **** static I2C_Timings_t valid_timing[I2C_VALID_TIMING_NBR];
 152:D:/fchai/work/i-cube/I-CUBE-HUAWEI/Projects/NUCLEO-L496ZG/Applications/Cloud/mqtt-ota/Src\stm32l4xx_nucleo_bus.c **** static uint32_t valid_timing_nbr = 0;
 153:D:/fchai/work/i-cube/I-CUBE-HUAWEI/Projects/NUCLEO-L496ZG/Applications/Cloud/mqtt-ota/Src\stm32l4xx_nucleo_bus.c **** #endif
 154:D:/fchai/work/i-cube/I-CUBE-HUAWEI/Projects/NUCLEO-L496ZG/Applications/Cloud/mqtt-ota/Src\stm32l4xx_nucleo_bus.c **** 
 155:D:/fchai/work/i-cube/I-CUBE-HUAWEI/Projects/NUCLEO-L496ZG/Applications/Cloud/mqtt-ota/Src\stm32l4xx_nucleo_bus.c **** /** @defgroup STM32L4XX_NUCLEO_BUS_Exported_Variables BUS Exported Variables
 156:D:/fchai/work/i-cube/I-CUBE-HUAWEI/Projects/NUCLEO-L496ZG/Applications/Cloud/mqtt-ota/Src\stm32l4xx_nucleo_bus.c ****   * @{
 157:D:/fchai/work/i-cube/I-CUBE-HUAWEI/Projects/NUCLEO-L496ZG/Applications/Cloud/mqtt-ota/Src\stm32l4xx_nucleo_bus.c ****   */
 158:D:/fchai/work/i-cube/I-CUBE-HUAWEI/Projects/NUCLEO-L496ZG/Applications/Cloud/mqtt-ota/Src\stm32l4xx_nucleo_bus.c **** 
 159:D:/fchai/work/i-cube/I-CUBE-HUAWEI/Projects/NUCLEO-L496ZG/Applications/Cloud/mqtt-ota/Src\stm32l4xx_nucleo_bus.c **** I2C_HandleTypeDef hi2c1;											
 160:D:/fchai/work/i-cube/I-CUBE-HUAWEI/Projects/NUCLEO-L496ZG/Applications/Cloud/mqtt-ota/Src\stm32l4xx_nucleo_bus.c **** /**
 161:D:/fchai/work/i-cube/I-CUBE-HUAWEI/Projects/NUCLEO-L496ZG/Applications/Cloud/mqtt-ota/Src\stm32l4xx_nucleo_bus.c ****   * @}
 162:D:/fchai/work/i-cube/I-CUBE-HUAWEI/Projects/NUCLEO-L496ZG/Applications/Cloud/mqtt-ota/Src\stm32l4xx_nucleo_bus.c ****   */
 163:D:/fchai/work/i-cube/I-CUBE-HUAWEI/Projects/NUCLEO-L496ZG/Applications/Cloud/mqtt-ota/Src\stm32l4xx_nucleo_bus.c **** 
 164:D:/fchai/work/i-cube/I-CUBE-HUAWEI/Projects/NUCLEO-L496ZG/Applications/Cloud/mqtt-ota/Src\stm32l4xx_nucleo_bus.c **** /** @defgroup STM32L4XX_NUCLEO_BUS_Private_Variables BUS Private Variables
 165:D:/fchai/work/i-cube/I-CUBE-HUAWEI/Projects/NUCLEO-L496ZG/Applications/Cloud/mqtt-ota/Src\stm32l4xx_nucleo_bus.c ****   * @{
 166:D:/fchai/work/i-cube/I-CUBE-HUAWEI/Projects/NUCLEO-L496ZG/Applications/Cloud/mqtt-ota/Src\stm32l4xx_nucleo_bus.c ****   */
 167:D:/fchai/work/i-cube/I-CUBE-HUAWEI/Projects/NUCLEO-L496ZG/Applications/Cloud/mqtt-ota/Src\stm32l4xx_nucleo_bus.c **** 
 168:D:/fchai/work/i-cube/I-CUBE-HUAWEI/Projects/NUCLEO-L496ZG/Applications/Cloud/mqtt-ota/Src\stm32l4xx_nucleo_bus.c **** #if (USE_HAL_I2C_REGISTER_CALLBACKS == 1U)
 169:D:/fchai/work/i-cube/I-CUBE-HUAWEI/Projects/NUCLEO-L496ZG/Applications/Cloud/mqtt-ota/Src\stm32l4xx_nucleo_bus.c **** static uint32_t IsI2C1MspCbValid = 0;										
 170:D:/fchai/work/i-cube/I-CUBE-HUAWEI/Projects/NUCLEO-L496ZG/Applications/Cloud/mqtt-ota/Src\stm32l4xx_nucleo_bus.c **** #endif /* USE_HAL_I2C_REGISTER_CALLBACKS */
 171:D:/fchai/work/i-cube/I-CUBE-HUAWEI/Projects/NUCLEO-L496ZG/Applications/Cloud/mqtt-ota/Src\stm32l4xx_nucleo_bus.c **** static uint32_t I2C1InitCounter = 0;	
 172:D:/fchai/work/i-cube/I-CUBE-HUAWEI/Projects/NUCLEO-L496ZG/Applications/Cloud/mqtt-ota/Src\stm32l4xx_nucleo_bus.c **** 
 173:D:/fchai/work/i-cube/I-CUBE-HUAWEI/Projects/NUCLEO-L496ZG/Applications/Cloud/mqtt-ota/Src\stm32l4xx_nucleo_bus.c **** /**
 174:D:/fchai/work/i-cube/I-CUBE-HUAWEI/Projects/NUCLEO-L496ZG/Applications/Cloud/mqtt-ota/Src\stm32l4xx_nucleo_bus.c ****   * @}
 175:D:/fchai/work/i-cube/I-CUBE-HUAWEI/Projects/NUCLEO-L496ZG/Applications/Cloud/mqtt-ota/Src\stm32l4xx_nucleo_bus.c ****   */
 176:D:/fchai/work/i-cube/I-CUBE-HUAWEI/Projects/NUCLEO-L496ZG/Applications/Cloud/mqtt-ota/Src\stm32l4xx_nucleo_bus.c **** 
 177:D:/fchai/work/i-cube/I-CUBE-HUAWEI/Projects/NUCLEO-L496ZG/Applications/Cloud/mqtt-ota/Src\stm32l4xx_nucleo_bus.c **** /** @defgroup STM32L4XX_NUCLEO_BUS_Private_FunctionPrototypes  BUS Private Function
 178:D:/fchai/work/i-cube/I-CUBE-HUAWEI/Projects/NUCLEO-L496ZG/Applications/Cloud/mqtt-ota/Src\stm32l4xx_nucleo_bus.c ****   * @{
 179:D:/fchai/work/i-cube/I-CUBE-HUAWEI/Projects/NUCLEO-L496ZG/Applications/Cloud/mqtt-ota/Src\stm32l4xx_nucleo_bus.c ****   */  
 180:D:/fchai/work/i-cube/I-CUBE-HUAWEI/Projects/NUCLEO-L496ZG/Applications/Cloud/mqtt-ota/Src\stm32l4xx_nucleo_bus.c **** 
 181:D:/fchai/work/i-cube/I-CUBE-HUAWEI/Projects/NUCLEO-L496ZG/Applications/Cloud/mqtt-ota/Src\stm32l4xx_nucleo_bus.c **** static void I2C1_MspInit(I2C_HandleTypeDef* hI2c); 
 182:D:/fchai/work/i-cube/I-CUBE-HUAWEI/Projects/NUCLEO-L496ZG/Applications/Cloud/mqtt-ota/Src\stm32l4xx_nucleo_bus.c **** static void I2C1_MspDeInit(I2C_HandleTypeDef* hI2c);
 183:D:/fchai/work/i-cube/I-CUBE-HUAWEI/Projects/NUCLEO-L496ZG/Applications/Cloud/mqtt-ota/Src\stm32l4xx_nucleo_bus.c **** #if (USE_CUBEMX_BSP_V2 == 1)
 184:D:/fchai/work/i-cube/I-CUBE-HUAWEI/Projects/NUCLEO-L496ZG/Applications/Cloud/mqtt-ota/Src\stm32l4xx_nucleo_bus.c **** static uint32_t I2C_GetTiming(uint32_t clock_src_hz, uint32_t i2cfreq_hz);
 185:D:/fchai/work/i-cube/I-CUBE-HUAWEI/Projects/NUCLEO-L496ZG/Applications/Cloud/mqtt-ota/Src\stm32l4xx_nucleo_bus.c **** static void Compute_PRESC_SCLDEL_SDADEL(uint32_t clock_src_freq, uint32_t I2C_Speed);
 186:D:/fchai/work/i-cube/I-CUBE-HUAWEI/Projects/NUCLEO-L496ZG/Applications/Cloud/mqtt-ota/Src\stm32l4xx_nucleo_bus.c **** static uint32_t Compute_SCLL_SCLH (uint32_t clock_src_freq, uint32_t I2C_speed);
 187:D:/fchai/work/i-cube/I-CUBE-HUAWEI/Projects/NUCLEO-L496ZG/Applications/Cloud/mqtt-ota/Src\stm32l4xx_nucleo_bus.c **** #endif
 188:D:/fchai/work/i-cube/I-CUBE-HUAWEI/Projects/NUCLEO-L496ZG/Applications/Cloud/mqtt-ota/Src\stm32l4xx_nucleo_bus.c **** 
 189:D:/fchai/work/i-cube/I-CUBE-HUAWEI/Projects/NUCLEO-L496ZG/Applications/Cloud/mqtt-ota/Src\stm32l4xx_nucleo_bus.c **** /**
 190:D:/fchai/work/i-cube/I-CUBE-HUAWEI/Projects/NUCLEO-L496ZG/Applications/Cloud/mqtt-ota/Src\stm32l4xx_nucleo_bus.c ****   * @}
 191:D:/fchai/work/i-cube/I-CUBE-HUAWEI/Projects/NUCLEO-L496ZG/Applications/Cloud/mqtt-ota/Src\stm32l4xx_nucleo_bus.c ****   */
 192:D:/fchai/work/i-cube/I-CUBE-HUAWEI/Projects/NUCLEO-L496ZG/Applications/Cloud/mqtt-ota/Src\stm32l4xx_nucleo_bus.c **** 
 193:D:/fchai/work/i-cube/I-CUBE-HUAWEI/Projects/NUCLEO-L496ZG/Applications/Cloud/mqtt-ota/Src\stm32l4xx_nucleo_bus.c **** /** @defgroup STM32L4XX_NUCLEO_LOW_LEVEL_Private_Functions STM32L4XX_NUCLEO LOW LEVEL Private Funct
 194:D:/fchai/work/i-cube/I-CUBE-HUAWEI/Projects/NUCLEO-L496ZG/Applications/Cloud/mqtt-ota/Src\stm32l4xx_nucleo_bus.c ****   * @{
 195:D:/fchai/work/i-cube/I-CUBE-HUAWEI/Projects/NUCLEO-L496ZG/Applications/Cloud/mqtt-ota/Src\stm32l4xx_nucleo_bus.c ****   */ 
 196:D:/fchai/work/i-cube/I-CUBE-HUAWEI/Projects/NUCLEO-L496ZG/Applications/Cloud/mqtt-ota/Src\stm32l4xx_nucleo_bus.c ****   
 197:D:/fchai/work/i-cube/I-CUBE-HUAWEI/Projects/NUCLEO-L496ZG/Applications/Cloud/mqtt-ota/Src\stm32l4xx_nucleo_bus.c **** /** @defgroup STM32L4XX_NUCLEO_BUS_Exported_Functions STM32L4XX_NUCLEO_BUS Exported Functions
 198:D:/fchai/work/i-cube/I-CUBE-HUAWEI/Projects/NUCLEO-L496ZG/Applications/Cloud/mqtt-ota/Src\stm32l4xx_nucleo_bus.c ****   * @{
 199:D:/fchai/work/i-cube/I-CUBE-HUAWEI/Projects/NUCLEO-L496ZG/Applications/Cloud/mqtt-ota/Src\stm32l4xx_nucleo_bus.c ****   */   
 200:D:/fchai/work/i-cube/I-CUBE-HUAWEI/Projects/NUCLEO-L496ZG/Applications/Cloud/mqtt-ota/Src\stm32l4xx_nucleo_bus.c **** 
ARM GAS  T:\msys\tmp\cccQ2VxF.s 			page 5


 201:D:/fchai/work/i-cube/I-CUBE-HUAWEI/Projects/NUCLEO-L496ZG/Applications/Cloud/mqtt-ota/Src\stm32l4xx_nucleo_bus.c **** /* BUS IO driver over I2C Peripheral */
 202:D:/fchai/work/i-cube/I-CUBE-HUAWEI/Projects/NUCLEO-L496ZG/Applications/Cloud/mqtt-ota/Src\stm32l4xx_nucleo_bus.c **** /*******************************************************************************
 203:D:/fchai/work/i-cube/I-CUBE-HUAWEI/Projects/NUCLEO-L496ZG/Applications/Cloud/mqtt-ota/Src\stm32l4xx_nucleo_bus.c ****                             BUS OPERATIONS OVER I2C
 204:D:/fchai/work/i-cube/I-CUBE-HUAWEI/Projects/NUCLEO-L496ZG/Applications/Cloud/mqtt-ota/Src\stm32l4xx_nucleo_bus.c **** *******************************************************************************/
 205:D:/fchai/work/i-cube/I-CUBE-HUAWEI/Projects/NUCLEO-L496ZG/Applications/Cloud/mqtt-ota/Src\stm32l4xx_nucleo_bus.c **** /**
 206:D:/fchai/work/i-cube/I-CUBE-HUAWEI/Projects/NUCLEO-L496ZG/Applications/Cloud/mqtt-ota/Src\stm32l4xx_nucleo_bus.c ****   * @brief  Initialize I2C HAL
 207:D:/fchai/work/i-cube/I-CUBE-HUAWEI/Projects/NUCLEO-L496ZG/Applications/Cloud/mqtt-ota/Src\stm32l4xx_nucleo_bus.c ****   * @retval BSP status
 208:D:/fchai/work/i-cube/I-CUBE-HUAWEI/Projects/NUCLEO-L496ZG/Applications/Cloud/mqtt-ota/Src\stm32l4xx_nucleo_bus.c ****   */
 209:D:/fchai/work/i-cube/I-CUBE-HUAWEI/Projects/NUCLEO-L496ZG/Applications/Cloud/mqtt-ota/Src\stm32l4xx_nucleo_bus.c **** int32_t BSP_I2C1_Init(void) 
 210:D:/fchai/work/i-cube/I-CUBE-HUAWEI/Projects/NUCLEO-L496ZG/Applications/Cloud/mqtt-ota/Src\stm32l4xx_nucleo_bus.c **** {
 211:D:/fchai/work/i-cube/I-CUBE-HUAWEI/Projects/NUCLEO-L496ZG/Applications/Cloud/mqtt-ota/Src\stm32l4xx_nucleo_bus.c **** 
 212:D:/fchai/work/i-cube/I-CUBE-HUAWEI/Projects/NUCLEO-L496ZG/Applications/Cloud/mqtt-ota/Src\stm32l4xx_nucleo_bus.c ****   int32_t ret = BSP_ERROR_NONE;
 213:D:/fchai/work/i-cube/I-CUBE-HUAWEI/Projects/NUCLEO-L496ZG/Applications/Cloud/mqtt-ota/Src\stm32l4xx_nucleo_bus.c ****   
 214:D:/fchai/work/i-cube/I-CUBE-HUAWEI/Projects/NUCLEO-L496ZG/Applications/Cloud/mqtt-ota/Src\stm32l4xx_nucleo_bus.c ****   hi2c1.Instance  = I2C1;
 215:D:/fchai/work/i-cube/I-CUBE-HUAWEI/Projects/NUCLEO-L496ZG/Applications/Cloud/mqtt-ota/Src\stm32l4xx_nucleo_bus.c **** 
 216:D:/fchai/work/i-cube/I-CUBE-HUAWEI/Projects/NUCLEO-L496ZG/Applications/Cloud/mqtt-ota/Src\stm32l4xx_nucleo_bus.c ****   if(I2C1InitCounter++ == 0)
 217:D:/fchai/work/i-cube/I-CUBE-HUAWEI/Projects/NUCLEO-L496ZG/Applications/Cloud/mqtt-ota/Src\stm32l4xx_nucleo_bus.c ****   {     
 218:D:/fchai/work/i-cube/I-CUBE-HUAWEI/Projects/NUCLEO-L496ZG/Applications/Cloud/mqtt-ota/Src\stm32l4xx_nucleo_bus.c ****     if (HAL_I2C_GetState(&hi2c1) == HAL_I2C_STATE_RESET)
 219:D:/fchai/work/i-cube/I-CUBE-HUAWEI/Projects/NUCLEO-L496ZG/Applications/Cloud/mqtt-ota/Src\stm32l4xx_nucleo_bus.c ****     {  
 220:D:/fchai/work/i-cube/I-CUBE-HUAWEI/Projects/NUCLEO-L496ZG/Applications/Cloud/mqtt-ota/Src\stm32l4xx_nucleo_bus.c ****     #if (USE_HAL_I2C_REGISTER_CALLBACKS == 0U)
 221:D:/fchai/work/i-cube/I-CUBE-HUAWEI/Projects/NUCLEO-L496ZG/Applications/Cloud/mqtt-ota/Src\stm32l4xx_nucleo_bus.c ****       /* Init the I2C Msp */
 222:D:/fchai/work/i-cube/I-CUBE-HUAWEI/Projects/NUCLEO-L496ZG/Applications/Cloud/mqtt-ota/Src\stm32l4xx_nucleo_bus.c ****       I2C1_MspInit(&hi2c1);
 223:D:/fchai/work/i-cube/I-CUBE-HUAWEI/Projects/NUCLEO-L496ZG/Applications/Cloud/mqtt-ota/Src\stm32l4xx_nucleo_bus.c ****     #else
 224:D:/fchai/work/i-cube/I-CUBE-HUAWEI/Projects/NUCLEO-L496ZG/Applications/Cloud/mqtt-ota/Src\stm32l4xx_nucleo_bus.c ****       if(IsI2C1MspCbValid == 0U)
 225:D:/fchai/work/i-cube/I-CUBE-HUAWEI/Projects/NUCLEO-L496ZG/Applications/Cloud/mqtt-ota/Src\stm32l4xx_nucleo_bus.c ****       {
 226:D:/fchai/work/i-cube/I-CUBE-HUAWEI/Projects/NUCLEO-L496ZG/Applications/Cloud/mqtt-ota/Src\stm32l4xx_nucleo_bus.c ****         if(BSP_I2C1_RegisterDefaultMspCallbacks() != BSP_ERROR_NONE)
 227:D:/fchai/work/i-cube/I-CUBE-HUAWEI/Projects/NUCLEO-L496ZG/Applications/Cloud/mqtt-ota/Src\stm32l4xx_nucleo_bus.c ****         {
 228:D:/fchai/work/i-cube/I-CUBE-HUAWEI/Projects/NUCLEO-L496ZG/Applications/Cloud/mqtt-ota/Src\stm32l4xx_nucleo_bus.c ****           return BSP_ERROR_MSP_FAILURE;
 229:D:/fchai/work/i-cube/I-CUBE-HUAWEI/Projects/NUCLEO-L496ZG/Applications/Cloud/mqtt-ota/Src\stm32l4xx_nucleo_bus.c ****         }
 230:D:/fchai/work/i-cube/I-CUBE-HUAWEI/Projects/NUCLEO-L496ZG/Applications/Cloud/mqtt-ota/Src\stm32l4xx_nucleo_bus.c ****       }
 231:D:/fchai/work/i-cube/I-CUBE-HUAWEI/Projects/NUCLEO-L496ZG/Applications/Cloud/mqtt-ota/Src\stm32l4xx_nucleo_bus.c ****     #endif
 232:D:/fchai/work/i-cube/I-CUBE-HUAWEI/Projects/NUCLEO-L496ZG/Applications/Cloud/mqtt-ota/Src\stm32l4xx_nucleo_bus.c ****       if(ret == BSP_ERROR_NONE)
 233:D:/fchai/work/i-cube/I-CUBE-HUAWEI/Projects/NUCLEO-L496ZG/Applications/Cloud/mqtt-ota/Src\stm32l4xx_nucleo_bus.c **** 	  {
 234:D:/fchai/work/i-cube/I-CUBE-HUAWEI/Projects/NUCLEO-L496ZG/Applications/Cloud/mqtt-ota/Src\stm32l4xx_nucleo_bus.c ****     	/* Init the I2C */
 235:D:/fchai/work/i-cube/I-CUBE-HUAWEI/Projects/NUCLEO-L496ZG/Applications/Cloud/mqtt-ota/Src\stm32l4xx_nucleo_bus.c ****     	if(MX_I2C1_Init(&hi2c1) != HAL_OK)
 236:D:/fchai/work/i-cube/I-CUBE-HUAWEI/Projects/NUCLEO-L496ZG/Applications/Cloud/mqtt-ota/Src\stm32l4xx_nucleo_bus.c ****     	{
 237:D:/fchai/work/i-cube/I-CUBE-HUAWEI/Projects/NUCLEO-L496ZG/Applications/Cloud/mqtt-ota/Src\stm32l4xx_nucleo_bus.c ****       	  ret = BSP_ERROR_BUS_FAILURE;
 238:D:/fchai/work/i-cube/I-CUBE-HUAWEI/Projects/NUCLEO-L496ZG/Applications/Cloud/mqtt-ota/Src\stm32l4xx_nucleo_bus.c ****     	}
 239:D:/fchai/work/i-cube/I-CUBE-HUAWEI/Projects/NUCLEO-L496ZG/Applications/Cloud/mqtt-ota/Src\stm32l4xx_nucleo_bus.c ****     	else if(HAL_I2CEx_ConfigAnalogFilter(&hi2c1, I2C_ANALOGFILTER_ENABLE) != HAL_OK) 
 240:D:/fchai/work/i-cube/I-CUBE-HUAWEI/Projects/NUCLEO-L496ZG/Applications/Cloud/mqtt-ota/Src\stm32l4xx_nucleo_bus.c ****     	{
 241:D:/fchai/work/i-cube/I-CUBE-HUAWEI/Projects/NUCLEO-L496ZG/Applications/Cloud/mqtt-ota/Src\stm32l4xx_nucleo_bus.c ****       	  ret = BSP_ERROR_BUS_FAILURE;    		
 242:D:/fchai/work/i-cube/I-CUBE-HUAWEI/Projects/NUCLEO-L496ZG/Applications/Cloud/mqtt-ota/Src\stm32l4xx_nucleo_bus.c ****     	}
 243:D:/fchai/work/i-cube/I-CUBE-HUAWEI/Projects/NUCLEO-L496ZG/Applications/Cloud/mqtt-ota/Src\stm32l4xx_nucleo_bus.c ****         else
 244:D:/fchai/work/i-cube/I-CUBE-HUAWEI/Projects/NUCLEO-L496ZG/Applications/Cloud/mqtt-ota/Src\stm32l4xx_nucleo_bus.c ****         {
 245:D:/fchai/work/i-cube/I-CUBE-HUAWEI/Projects/NUCLEO-L496ZG/Applications/Cloud/mqtt-ota/Src\stm32l4xx_nucleo_bus.c ****       	  ret = BSP_ERROR_NONE;
 246:D:/fchai/work/i-cube/I-CUBE-HUAWEI/Projects/NUCLEO-L496ZG/Applications/Cloud/mqtt-ota/Src\stm32l4xx_nucleo_bus.c ****         }
 247:D:/fchai/work/i-cube/I-CUBE-HUAWEI/Projects/NUCLEO-L496ZG/Applications/Cloud/mqtt-ota/Src\stm32l4xx_nucleo_bus.c ****       }	
 248:D:/fchai/work/i-cube/I-CUBE-HUAWEI/Projects/NUCLEO-L496ZG/Applications/Cloud/mqtt-ota/Src\stm32l4xx_nucleo_bus.c ****     }
 249:D:/fchai/work/i-cube/I-CUBE-HUAWEI/Projects/NUCLEO-L496ZG/Applications/Cloud/mqtt-ota/Src\stm32l4xx_nucleo_bus.c ****   }
 250:D:/fchai/work/i-cube/I-CUBE-HUAWEI/Projects/NUCLEO-L496ZG/Applications/Cloud/mqtt-ota/Src\stm32l4xx_nucleo_bus.c ****   return ret;
 251:D:/fchai/work/i-cube/I-CUBE-HUAWEI/Projects/NUCLEO-L496ZG/Applications/Cloud/mqtt-ota/Src\stm32l4xx_nucleo_bus.c **** }
 252:D:/fchai/work/i-cube/I-CUBE-HUAWEI/Projects/NUCLEO-L496ZG/Applications/Cloud/mqtt-ota/Src\stm32l4xx_nucleo_bus.c **** 
 253:D:/fchai/work/i-cube/I-CUBE-HUAWEI/Projects/NUCLEO-L496ZG/Applications/Cloud/mqtt-ota/Src\stm32l4xx_nucleo_bus.c **** /**
 254:D:/fchai/work/i-cube/I-CUBE-HUAWEI/Projects/NUCLEO-L496ZG/Applications/Cloud/mqtt-ota/Src\stm32l4xx_nucleo_bus.c ****   * @brief  DeInitialize I2C HAL.
 255:D:/fchai/work/i-cube/I-CUBE-HUAWEI/Projects/NUCLEO-L496ZG/Applications/Cloud/mqtt-ota/Src\stm32l4xx_nucleo_bus.c ****   * @retval BSP status
 256:D:/fchai/work/i-cube/I-CUBE-HUAWEI/Projects/NUCLEO-L496ZG/Applications/Cloud/mqtt-ota/Src\stm32l4xx_nucleo_bus.c ****   */
 257:D:/fchai/work/i-cube/I-CUBE-HUAWEI/Projects/NUCLEO-L496ZG/Applications/Cloud/mqtt-ota/Src\stm32l4xx_nucleo_bus.c **** int32_t BSP_I2C1_DeInit(void) 
ARM GAS  T:\msys\tmp\cccQ2VxF.s 			page 6


 258:D:/fchai/work/i-cube/I-CUBE-HUAWEI/Projects/NUCLEO-L496ZG/Applications/Cloud/mqtt-ota/Src\stm32l4xx_nucleo_bus.c **** {
  30              		.loc 1 258 1 view -0
  31              		.cfi_startproc
  32              		@ args = 0, pretend = 0, frame = 0
  33              		@ frame_needed = 0, uses_anonymous_args = 0
 259:D:/fchai/work/i-cube/I-CUBE-HUAWEI/Projects/NUCLEO-L496ZG/Applications/Cloud/mqtt-ota/Src\stm32l4xx_nucleo_bus.c ****   int32_t ret = BSP_ERROR_NONE;
  34              		.loc 1 259 3 view .LVU1
  35              	.LVL0:
 260:D:/fchai/work/i-cube/I-CUBE-HUAWEI/Projects/NUCLEO-L496ZG/Applications/Cloud/mqtt-ota/Src\stm32l4xx_nucleo_bus.c ****   
 261:D:/fchai/work/i-cube/I-CUBE-HUAWEI/Projects/NUCLEO-L496ZG/Applications/Cloud/mqtt-ota/Src\stm32l4xx_nucleo_bus.c ****   if (I2C1InitCounter > 0)
  36              		.loc 1 261 3 view .LVU2
  37              		.loc 1 261 23 is_stmt 0 view .LVU3
  38 0000 0D4A     		ldr	r2, .L11
 258:D:/fchai/work/i-cube/I-CUBE-HUAWEI/Projects/NUCLEO-L496ZG/Applications/Cloud/mqtt-ota/Src\stm32l4xx_nucleo_bus.c ****   int32_t ret = BSP_ERROR_NONE;
  39              		.loc 1 258 1 view .LVU4
  40 0002 08B5     		push	{r3, lr}
  41              	.LCFI0:
  42              		.cfi_def_cfa_offset 8
  43              		.cfi_offset 3, -8
  44              		.cfi_offset 14, -4
  45              		.loc 1 261 23 view .LVU5
  46 0004 1368     		ldr	r3, [r2]
  47              		.loc 1 261 6 view .LVU6
  48 0006 13B1     		cbz	r3, .L4
 262:D:/fchai/work/i-cube/I-CUBE-HUAWEI/Projects/NUCLEO-L496ZG/Applications/Cloud/mqtt-ota/Src\stm32l4xx_nucleo_bus.c ****   {       
 263:D:/fchai/work/i-cube/I-CUBE-HUAWEI/Projects/NUCLEO-L496ZG/Applications/Cloud/mqtt-ota/Src\stm32l4xx_nucleo_bus.c ****     if (--I2C1InitCounter == 0)
  49              		.loc 1 263 5 is_stmt 1 view .LVU7
  50              		.loc 1 263 9 is_stmt 0 view .LVU8
  51 0008 013B     		subs	r3, r3, #1
  52              		.loc 1 263 8 view .LVU9
  53 000a 1360     		str	r3, [r2]
  54 000c 0BB1     		cbz	r3, .L10
  55              	.L4:
 259:D:/fchai/work/i-cube/I-CUBE-HUAWEI/Projects/NUCLEO-L496ZG/Applications/Cloud/mqtt-ota/Src\stm32l4xx_nucleo_bus.c ****   
  56              		.loc 1 259 11 view .LVU10
  57 000e 0020     		movs	r0, #0
 264:D:/fchai/work/i-cube/I-CUBE-HUAWEI/Projects/NUCLEO-L496ZG/Applications/Cloud/mqtt-ota/Src\stm32l4xx_nucleo_bus.c ****     {    
 265:D:/fchai/work/i-cube/I-CUBE-HUAWEI/Projects/NUCLEO-L496ZG/Applications/Cloud/mqtt-ota/Src\stm32l4xx_nucleo_bus.c ****   #if (USE_HAL_I2C_REGISTER_CALLBACKS == 0U)
 266:D:/fchai/work/i-cube/I-CUBE-HUAWEI/Projects/NUCLEO-L496ZG/Applications/Cloud/mqtt-ota/Src\stm32l4xx_nucleo_bus.c ****       /* DeInit the I2C */ 
 267:D:/fchai/work/i-cube/I-CUBE-HUAWEI/Projects/NUCLEO-L496ZG/Applications/Cloud/mqtt-ota/Src\stm32l4xx_nucleo_bus.c ****       I2C1_MspDeInit(&hi2c1);
 268:D:/fchai/work/i-cube/I-CUBE-HUAWEI/Projects/NUCLEO-L496ZG/Applications/Cloud/mqtt-ota/Src\stm32l4xx_nucleo_bus.c ****   #endif  
 269:D:/fchai/work/i-cube/I-CUBE-HUAWEI/Projects/NUCLEO-L496ZG/Applications/Cloud/mqtt-ota/Src\stm32l4xx_nucleo_bus.c ****       /* DeInit the I2C */ 
 270:D:/fchai/work/i-cube/I-CUBE-HUAWEI/Projects/NUCLEO-L496ZG/Applications/Cloud/mqtt-ota/Src\stm32l4xx_nucleo_bus.c ****       if (HAL_I2C_DeInit(&hi2c1) != HAL_OK)
 271:D:/fchai/work/i-cube/I-CUBE-HUAWEI/Projects/NUCLEO-L496ZG/Applications/Cloud/mqtt-ota/Src\stm32l4xx_nucleo_bus.c ****       {
 272:D:/fchai/work/i-cube/I-CUBE-HUAWEI/Projects/NUCLEO-L496ZG/Applications/Cloud/mqtt-ota/Src\stm32l4xx_nucleo_bus.c ****         ret = BSP_ERROR_BUS_FAILURE;
 273:D:/fchai/work/i-cube/I-CUBE-HUAWEI/Projects/NUCLEO-L496ZG/Applications/Cloud/mqtt-ota/Src\stm32l4xx_nucleo_bus.c ****       }
 274:D:/fchai/work/i-cube/I-CUBE-HUAWEI/Projects/NUCLEO-L496ZG/Applications/Cloud/mqtt-ota/Src\stm32l4xx_nucleo_bus.c ****     }
 275:D:/fchai/work/i-cube/I-CUBE-HUAWEI/Projects/NUCLEO-L496ZG/Applications/Cloud/mqtt-ota/Src\stm32l4xx_nucleo_bus.c ****   }
 276:D:/fchai/work/i-cube/I-CUBE-HUAWEI/Projects/NUCLEO-L496ZG/Applications/Cloud/mqtt-ota/Src\stm32l4xx_nucleo_bus.c ****   return ret;
 277:D:/fchai/work/i-cube/I-CUBE-HUAWEI/Projects/NUCLEO-L496ZG/Applications/Cloud/mqtt-ota/Src\stm32l4xx_nucleo_bus.c **** }
  58              		.loc 1 277 1 view .LVU11
  59 0010 08BD     		pop	{r3, pc}
  60              	.L10:
 267:D:/fchai/work/i-cube/I-CUBE-HUAWEI/Projects/NUCLEO-L496ZG/Applications/Cloud/mqtt-ota/Src\stm32l4xx_nucleo_bus.c ****   #endif  
  61              		.loc 1 267 7 is_stmt 1 view .LVU12
  62              	.LBB6:
  63              	.LBI6:
ARM GAS  T:\msys\tmp\cccQ2VxF.s 			page 7


 278:D:/fchai/work/i-cube/I-CUBE-HUAWEI/Projects/NUCLEO-L496ZG/Applications/Cloud/mqtt-ota/Src\stm32l4xx_nucleo_bus.c **** 
 279:D:/fchai/work/i-cube/I-CUBE-HUAWEI/Projects/NUCLEO-L496ZG/Applications/Cloud/mqtt-ota/Src\stm32l4xx_nucleo_bus.c **** /**
 280:D:/fchai/work/i-cube/I-CUBE-HUAWEI/Projects/NUCLEO-L496ZG/Applications/Cloud/mqtt-ota/Src\stm32l4xx_nucleo_bus.c ****   * @brief  Check whether the I2C bus is ready.
 281:D:/fchai/work/i-cube/I-CUBE-HUAWEI/Projects/NUCLEO-L496ZG/Applications/Cloud/mqtt-ota/Src\stm32l4xx_nucleo_bus.c ****   * @param DevAddr : I2C device address
 282:D:/fchai/work/i-cube/I-CUBE-HUAWEI/Projects/NUCLEO-L496ZG/Applications/Cloud/mqtt-ota/Src\stm32l4xx_nucleo_bus.c ****   * @param Trials : Check trials number
 283:D:/fchai/work/i-cube/I-CUBE-HUAWEI/Projects/NUCLEO-L496ZG/Applications/Cloud/mqtt-ota/Src\stm32l4xx_nucleo_bus.c ****   *	@retval BSP status
 284:D:/fchai/work/i-cube/I-CUBE-HUAWEI/Projects/NUCLEO-L496ZG/Applications/Cloud/mqtt-ota/Src\stm32l4xx_nucleo_bus.c ****   */
 285:D:/fchai/work/i-cube/I-CUBE-HUAWEI/Projects/NUCLEO-L496ZG/Applications/Cloud/mqtt-ota/Src\stm32l4xx_nucleo_bus.c **** int32_t BSP_I2C1_IsReady(uint16_t DevAddr, uint32_t Trials) 
 286:D:/fchai/work/i-cube/I-CUBE-HUAWEI/Projects/NUCLEO-L496ZG/Applications/Cloud/mqtt-ota/Src\stm32l4xx_nucleo_bus.c **** {
 287:D:/fchai/work/i-cube/I-CUBE-HUAWEI/Projects/NUCLEO-L496ZG/Applications/Cloud/mqtt-ota/Src\stm32l4xx_nucleo_bus.c ****   int32_t ret = BSP_ERROR_NONE;
 288:D:/fchai/work/i-cube/I-CUBE-HUAWEI/Projects/NUCLEO-L496ZG/Applications/Cloud/mqtt-ota/Src\stm32l4xx_nucleo_bus.c ****   
 289:D:/fchai/work/i-cube/I-CUBE-HUAWEI/Projects/NUCLEO-L496ZG/Applications/Cloud/mqtt-ota/Src\stm32l4xx_nucleo_bus.c ****   if (HAL_I2C_IsDeviceReady(&hi2c1, DevAddr, Trials, BUS_I2C1_POLL_TIMEOUT) != HAL_OK)
 290:D:/fchai/work/i-cube/I-CUBE-HUAWEI/Projects/NUCLEO-L496ZG/Applications/Cloud/mqtt-ota/Src\stm32l4xx_nucleo_bus.c ****   {
 291:D:/fchai/work/i-cube/I-CUBE-HUAWEI/Projects/NUCLEO-L496ZG/Applications/Cloud/mqtt-ota/Src\stm32l4xx_nucleo_bus.c ****     ret = BSP_ERROR_BUSY;
 292:D:/fchai/work/i-cube/I-CUBE-HUAWEI/Projects/NUCLEO-L496ZG/Applications/Cloud/mqtt-ota/Src\stm32l4xx_nucleo_bus.c ****   } 
 293:D:/fchai/work/i-cube/I-CUBE-HUAWEI/Projects/NUCLEO-L496ZG/Applications/Cloud/mqtt-ota/Src\stm32l4xx_nucleo_bus.c ****   
 294:D:/fchai/work/i-cube/I-CUBE-HUAWEI/Projects/NUCLEO-L496ZG/Applications/Cloud/mqtt-ota/Src\stm32l4xx_nucleo_bus.c ****   return ret;
 295:D:/fchai/work/i-cube/I-CUBE-HUAWEI/Projects/NUCLEO-L496ZG/Applications/Cloud/mqtt-ota/Src\stm32l4xx_nucleo_bus.c **** }
 296:D:/fchai/work/i-cube/I-CUBE-HUAWEI/Projects/NUCLEO-L496ZG/Applications/Cloud/mqtt-ota/Src\stm32l4xx_nucleo_bus.c **** 
 297:D:/fchai/work/i-cube/I-CUBE-HUAWEI/Projects/NUCLEO-L496ZG/Applications/Cloud/mqtt-ota/Src\stm32l4xx_nucleo_bus.c **** /**
 298:D:/fchai/work/i-cube/I-CUBE-HUAWEI/Projects/NUCLEO-L496ZG/Applications/Cloud/mqtt-ota/Src\stm32l4xx_nucleo_bus.c ****   * @brief  Write a value in a register of the device through BUS.
 299:D:/fchai/work/i-cube/I-CUBE-HUAWEI/Projects/NUCLEO-L496ZG/Applications/Cloud/mqtt-ota/Src\stm32l4xx_nucleo_bus.c ****   * @param  DevAddr Device address on Bus.
 300:D:/fchai/work/i-cube/I-CUBE-HUAWEI/Projects/NUCLEO-L496ZG/Applications/Cloud/mqtt-ota/Src\stm32l4xx_nucleo_bus.c ****   * @param  Reg    The target register address to write
 301:D:/fchai/work/i-cube/I-CUBE-HUAWEI/Projects/NUCLEO-L496ZG/Applications/Cloud/mqtt-ota/Src\stm32l4xx_nucleo_bus.c ****   * @param  pData  Pointer to data buffer to write
 302:D:/fchai/work/i-cube/I-CUBE-HUAWEI/Projects/NUCLEO-L496ZG/Applications/Cloud/mqtt-ota/Src\stm32l4xx_nucleo_bus.c ****   * @param  Length Data Length
 303:D:/fchai/work/i-cube/I-CUBE-HUAWEI/Projects/NUCLEO-L496ZG/Applications/Cloud/mqtt-ota/Src\stm32l4xx_nucleo_bus.c ****   * @retval BSP status
 304:D:/fchai/work/i-cube/I-CUBE-HUAWEI/Projects/NUCLEO-L496ZG/Applications/Cloud/mqtt-ota/Src\stm32l4xx_nucleo_bus.c ****   */
 305:D:/fchai/work/i-cube/I-CUBE-HUAWEI/Projects/NUCLEO-L496ZG/Applications/Cloud/mqtt-ota/Src\stm32l4xx_nucleo_bus.c **** 
 306:D:/fchai/work/i-cube/I-CUBE-HUAWEI/Projects/NUCLEO-L496ZG/Applications/Cloud/mqtt-ota/Src\stm32l4xx_nucleo_bus.c **** int32_t BSP_I2C1_WriteReg(uint16_t DevAddr, uint16_t Reg, uint8_t *pData, uint16_t Length)
 307:D:/fchai/work/i-cube/I-CUBE-HUAWEI/Projects/NUCLEO-L496ZG/Applications/Cloud/mqtt-ota/Src\stm32l4xx_nucleo_bus.c **** {
 308:D:/fchai/work/i-cube/I-CUBE-HUAWEI/Projects/NUCLEO-L496ZG/Applications/Cloud/mqtt-ota/Src\stm32l4xx_nucleo_bus.c ****   int32_t ret = BSP_ERROR_NONE;  
 309:D:/fchai/work/i-cube/I-CUBE-HUAWEI/Projects/NUCLEO-L496ZG/Applications/Cloud/mqtt-ota/Src\stm32l4xx_nucleo_bus.c ****   
 310:D:/fchai/work/i-cube/I-CUBE-HUAWEI/Projects/NUCLEO-L496ZG/Applications/Cloud/mqtt-ota/Src\stm32l4xx_nucleo_bus.c ****   if (HAL_I2C_Mem_Write(&hi2c1, DevAddr,Reg, I2C_MEMADD_SIZE_8BIT,pData, Length, BUS_I2C1_POLL_TIME
 311:D:/fchai/work/i-cube/I-CUBE-HUAWEI/Projects/NUCLEO-L496ZG/Applications/Cloud/mqtt-ota/Src\stm32l4xx_nucleo_bus.c ****   {    
 312:D:/fchai/work/i-cube/I-CUBE-HUAWEI/Projects/NUCLEO-L496ZG/Applications/Cloud/mqtt-ota/Src\stm32l4xx_nucleo_bus.c ****     if (HAL_I2C_GetError(&hi2c1) == HAL_I2C_ERROR_AF)
 313:D:/fchai/work/i-cube/I-CUBE-HUAWEI/Projects/NUCLEO-L496ZG/Applications/Cloud/mqtt-ota/Src\stm32l4xx_nucleo_bus.c ****     {
 314:D:/fchai/work/i-cube/I-CUBE-HUAWEI/Projects/NUCLEO-L496ZG/Applications/Cloud/mqtt-ota/Src\stm32l4xx_nucleo_bus.c ****       ret = BSP_ERROR_BUS_ACKNOWLEDGE_FAILURE;
 315:D:/fchai/work/i-cube/I-CUBE-HUAWEI/Projects/NUCLEO-L496ZG/Applications/Cloud/mqtt-ota/Src\stm32l4xx_nucleo_bus.c ****     }
 316:D:/fchai/work/i-cube/I-CUBE-HUAWEI/Projects/NUCLEO-L496ZG/Applications/Cloud/mqtt-ota/Src\stm32l4xx_nucleo_bus.c ****     else
 317:D:/fchai/work/i-cube/I-CUBE-HUAWEI/Projects/NUCLEO-L496ZG/Applications/Cloud/mqtt-ota/Src\stm32l4xx_nucleo_bus.c ****     {
 318:D:/fchai/work/i-cube/I-CUBE-HUAWEI/Projects/NUCLEO-L496ZG/Applications/Cloud/mqtt-ota/Src\stm32l4xx_nucleo_bus.c ****       ret =  BSP_ERROR_PERIPH_FAILURE;
 319:D:/fchai/work/i-cube/I-CUBE-HUAWEI/Projects/NUCLEO-L496ZG/Applications/Cloud/mqtt-ota/Src\stm32l4xx_nucleo_bus.c ****     }
 320:D:/fchai/work/i-cube/I-CUBE-HUAWEI/Projects/NUCLEO-L496ZG/Applications/Cloud/mqtt-ota/Src\stm32l4xx_nucleo_bus.c ****   }
 321:D:/fchai/work/i-cube/I-CUBE-HUAWEI/Projects/NUCLEO-L496ZG/Applications/Cloud/mqtt-ota/Src\stm32l4xx_nucleo_bus.c ****   return ret;
 322:D:/fchai/work/i-cube/I-CUBE-HUAWEI/Projects/NUCLEO-L496ZG/Applications/Cloud/mqtt-ota/Src\stm32l4xx_nucleo_bus.c **** }
 323:D:/fchai/work/i-cube/I-CUBE-HUAWEI/Projects/NUCLEO-L496ZG/Applications/Cloud/mqtt-ota/Src\stm32l4xx_nucleo_bus.c **** 
 324:D:/fchai/work/i-cube/I-CUBE-HUAWEI/Projects/NUCLEO-L496ZG/Applications/Cloud/mqtt-ota/Src\stm32l4xx_nucleo_bus.c **** /**
 325:D:/fchai/work/i-cube/I-CUBE-HUAWEI/Projects/NUCLEO-L496ZG/Applications/Cloud/mqtt-ota/Src\stm32l4xx_nucleo_bus.c ****   * @brief  Read a register of the device through BUS
 326:D:/fchai/work/i-cube/I-CUBE-HUAWEI/Projects/NUCLEO-L496ZG/Applications/Cloud/mqtt-ota/Src\stm32l4xx_nucleo_bus.c ****   * @param  DevAddr Device address on Bus.
 327:D:/fchai/work/i-cube/I-CUBE-HUAWEI/Projects/NUCLEO-L496ZG/Applications/Cloud/mqtt-ota/Src\stm32l4xx_nucleo_bus.c ****   * @param  Reg    The target register address to read
 328:D:/fchai/work/i-cube/I-CUBE-HUAWEI/Projects/NUCLEO-L496ZG/Applications/Cloud/mqtt-ota/Src\stm32l4xx_nucleo_bus.c ****   * @param  pData  Pointer to data buffer to read
 329:D:/fchai/work/i-cube/I-CUBE-HUAWEI/Projects/NUCLEO-L496ZG/Applications/Cloud/mqtt-ota/Src\stm32l4xx_nucleo_bus.c ****   * @param  Length Data Length
 330:D:/fchai/work/i-cube/I-CUBE-HUAWEI/Projects/NUCLEO-L496ZG/Applications/Cloud/mqtt-ota/Src\stm32l4xx_nucleo_bus.c ****   * @retval BSP status
 331:D:/fchai/work/i-cube/I-CUBE-HUAWEI/Projects/NUCLEO-L496ZG/Applications/Cloud/mqtt-ota/Src\stm32l4xx_nucleo_bus.c ****   */
 332:D:/fchai/work/i-cube/I-CUBE-HUAWEI/Projects/NUCLEO-L496ZG/Applications/Cloud/mqtt-ota/Src\stm32l4xx_nucleo_bus.c **** int32_t  BSP_I2C1_ReadReg(uint16_t DevAddr, uint16_t Reg, uint8_t *pData, uint16_t Length) 
 333:D:/fchai/work/i-cube/I-CUBE-HUAWEI/Projects/NUCLEO-L496ZG/Applications/Cloud/mqtt-ota/Src\stm32l4xx_nucleo_bus.c **** {
 334:D:/fchai/work/i-cube/I-CUBE-HUAWEI/Projects/NUCLEO-L496ZG/Applications/Cloud/mqtt-ota/Src\stm32l4xx_nucleo_bus.c ****   int32_t ret = BSP_ERROR_NONE;
ARM GAS  T:\msys\tmp\cccQ2VxF.s 			page 8


 335:D:/fchai/work/i-cube/I-CUBE-HUAWEI/Projects/NUCLEO-L496ZG/Applications/Cloud/mqtt-ota/Src\stm32l4xx_nucleo_bus.c ****   
 336:D:/fchai/work/i-cube/I-CUBE-HUAWEI/Projects/NUCLEO-L496ZG/Applications/Cloud/mqtt-ota/Src\stm32l4xx_nucleo_bus.c ****   if (HAL_I2C_Mem_Read(&hi2c1, DevAddr, Reg, I2C_MEMADD_SIZE_8BIT, pData, Length, BUS_I2C1_POLL_TIM
 337:D:/fchai/work/i-cube/I-CUBE-HUAWEI/Projects/NUCLEO-L496ZG/Applications/Cloud/mqtt-ota/Src\stm32l4xx_nucleo_bus.c ****   { 
 338:D:/fchai/work/i-cube/I-CUBE-HUAWEI/Projects/NUCLEO-L496ZG/Applications/Cloud/mqtt-ota/Src\stm32l4xx_nucleo_bus.c ****     if (HAL_I2C_GetError(&hi2c1) == HAL_I2C_ERROR_AF)
 339:D:/fchai/work/i-cube/I-CUBE-HUAWEI/Projects/NUCLEO-L496ZG/Applications/Cloud/mqtt-ota/Src\stm32l4xx_nucleo_bus.c ****     {
 340:D:/fchai/work/i-cube/I-CUBE-HUAWEI/Projects/NUCLEO-L496ZG/Applications/Cloud/mqtt-ota/Src\stm32l4xx_nucleo_bus.c ****       ret = BSP_ERROR_BUS_ACKNOWLEDGE_FAILURE;
 341:D:/fchai/work/i-cube/I-CUBE-HUAWEI/Projects/NUCLEO-L496ZG/Applications/Cloud/mqtt-ota/Src\stm32l4xx_nucleo_bus.c ****     }
 342:D:/fchai/work/i-cube/I-CUBE-HUAWEI/Projects/NUCLEO-L496ZG/Applications/Cloud/mqtt-ota/Src\stm32l4xx_nucleo_bus.c ****     else
 343:D:/fchai/work/i-cube/I-CUBE-HUAWEI/Projects/NUCLEO-L496ZG/Applications/Cloud/mqtt-ota/Src\stm32l4xx_nucleo_bus.c ****     {
 344:D:/fchai/work/i-cube/I-CUBE-HUAWEI/Projects/NUCLEO-L496ZG/Applications/Cloud/mqtt-ota/Src\stm32l4xx_nucleo_bus.c ****       ret = BSP_ERROR_PERIPH_FAILURE;
 345:D:/fchai/work/i-cube/I-CUBE-HUAWEI/Projects/NUCLEO-L496ZG/Applications/Cloud/mqtt-ota/Src\stm32l4xx_nucleo_bus.c ****     }
 346:D:/fchai/work/i-cube/I-CUBE-HUAWEI/Projects/NUCLEO-L496ZG/Applications/Cloud/mqtt-ota/Src\stm32l4xx_nucleo_bus.c ****   }
 347:D:/fchai/work/i-cube/I-CUBE-HUAWEI/Projects/NUCLEO-L496ZG/Applications/Cloud/mqtt-ota/Src\stm32l4xx_nucleo_bus.c ****   return ret;
 348:D:/fchai/work/i-cube/I-CUBE-HUAWEI/Projects/NUCLEO-L496ZG/Applications/Cloud/mqtt-ota/Src\stm32l4xx_nucleo_bus.c **** }
 349:D:/fchai/work/i-cube/I-CUBE-HUAWEI/Projects/NUCLEO-L496ZG/Applications/Cloud/mqtt-ota/Src\stm32l4xx_nucleo_bus.c **** 
 350:D:/fchai/work/i-cube/I-CUBE-HUAWEI/Projects/NUCLEO-L496ZG/Applications/Cloud/mqtt-ota/Src\stm32l4xx_nucleo_bus.c **** /**
 351:D:/fchai/work/i-cube/I-CUBE-HUAWEI/Projects/NUCLEO-L496ZG/Applications/Cloud/mqtt-ota/Src\stm32l4xx_nucleo_bus.c **** 
 352:D:/fchai/work/i-cube/I-CUBE-HUAWEI/Projects/NUCLEO-L496ZG/Applications/Cloud/mqtt-ota/Src\stm32l4xx_nucleo_bus.c ****   * @brief  Write a value in a register of the device through BUS.
 353:D:/fchai/work/i-cube/I-CUBE-HUAWEI/Projects/NUCLEO-L496ZG/Applications/Cloud/mqtt-ota/Src\stm32l4xx_nucleo_bus.c ****   * @param  DevAddr Device address on Bus.
 354:D:/fchai/work/i-cube/I-CUBE-HUAWEI/Projects/NUCLEO-L496ZG/Applications/Cloud/mqtt-ota/Src\stm32l4xx_nucleo_bus.c ****   * @param  Reg    The target register address to write
 355:D:/fchai/work/i-cube/I-CUBE-HUAWEI/Projects/NUCLEO-L496ZG/Applications/Cloud/mqtt-ota/Src\stm32l4xx_nucleo_bus.c **** 
 356:D:/fchai/work/i-cube/I-CUBE-HUAWEI/Projects/NUCLEO-L496ZG/Applications/Cloud/mqtt-ota/Src\stm32l4xx_nucleo_bus.c ****   * @param  pData  Pointer to data buffer to write
 357:D:/fchai/work/i-cube/I-CUBE-HUAWEI/Projects/NUCLEO-L496ZG/Applications/Cloud/mqtt-ota/Src\stm32l4xx_nucleo_bus.c ****   * @param  Length Data Length
 358:D:/fchai/work/i-cube/I-CUBE-HUAWEI/Projects/NUCLEO-L496ZG/Applications/Cloud/mqtt-ota/Src\stm32l4xx_nucleo_bus.c ****   * @retval BSP statu
 359:D:/fchai/work/i-cube/I-CUBE-HUAWEI/Projects/NUCLEO-L496ZG/Applications/Cloud/mqtt-ota/Src\stm32l4xx_nucleo_bus.c ****   */
 360:D:/fchai/work/i-cube/I-CUBE-HUAWEI/Projects/NUCLEO-L496ZG/Applications/Cloud/mqtt-ota/Src\stm32l4xx_nucleo_bus.c **** int32_t BSP_I2C1_WriteReg16(uint16_t DevAddr, uint16_t Reg, uint8_t *pData, uint16_t Length) 
 361:D:/fchai/work/i-cube/I-CUBE-HUAWEI/Projects/NUCLEO-L496ZG/Applications/Cloud/mqtt-ota/Src\stm32l4xx_nucleo_bus.c **** {
 362:D:/fchai/work/i-cube/I-CUBE-HUAWEI/Projects/NUCLEO-L496ZG/Applications/Cloud/mqtt-ota/Src\stm32l4xx_nucleo_bus.c ****   int32_t ret = BSP_ERROR_NONE;
 363:D:/fchai/work/i-cube/I-CUBE-HUAWEI/Projects/NUCLEO-L496ZG/Applications/Cloud/mqtt-ota/Src\stm32l4xx_nucleo_bus.c ****   
 364:D:/fchai/work/i-cube/I-CUBE-HUAWEI/Projects/NUCLEO-L496ZG/Applications/Cloud/mqtt-ota/Src\stm32l4xx_nucleo_bus.c ****   
 365:D:/fchai/work/i-cube/I-CUBE-HUAWEI/Projects/NUCLEO-L496ZG/Applications/Cloud/mqtt-ota/Src\stm32l4xx_nucleo_bus.c ****   if (HAL_I2C_Mem_Write(&hi2c1, DevAddr, Reg, I2C_MEMADD_SIZE_16BIT, pData, Length, BUS_I2C1_POLL_T
 366:D:/fchai/work/i-cube/I-CUBE-HUAWEI/Projects/NUCLEO-L496ZG/Applications/Cloud/mqtt-ota/Src\stm32l4xx_nucleo_bus.c ****   {
 367:D:/fchai/work/i-cube/I-CUBE-HUAWEI/Projects/NUCLEO-L496ZG/Applications/Cloud/mqtt-ota/Src\stm32l4xx_nucleo_bus.c ****     if (HAL_I2C_GetError(&hi2c1) == HAL_I2C_ERROR_AF)    
 368:D:/fchai/work/i-cube/I-CUBE-HUAWEI/Projects/NUCLEO-L496ZG/Applications/Cloud/mqtt-ota/Src\stm32l4xx_nucleo_bus.c ****     {
 369:D:/fchai/work/i-cube/I-CUBE-HUAWEI/Projects/NUCLEO-L496ZG/Applications/Cloud/mqtt-ota/Src\stm32l4xx_nucleo_bus.c ****       ret = BSP_ERROR_BUS_ACKNOWLEDGE_FAILURE;
 370:D:/fchai/work/i-cube/I-CUBE-HUAWEI/Projects/NUCLEO-L496ZG/Applications/Cloud/mqtt-ota/Src\stm32l4xx_nucleo_bus.c ****     }
 371:D:/fchai/work/i-cube/I-CUBE-HUAWEI/Projects/NUCLEO-L496ZG/Applications/Cloud/mqtt-ota/Src\stm32l4xx_nucleo_bus.c ****     else
 372:D:/fchai/work/i-cube/I-CUBE-HUAWEI/Projects/NUCLEO-L496ZG/Applications/Cloud/mqtt-ota/Src\stm32l4xx_nucleo_bus.c ****     {
 373:D:/fchai/work/i-cube/I-CUBE-HUAWEI/Projects/NUCLEO-L496ZG/Applications/Cloud/mqtt-ota/Src\stm32l4xx_nucleo_bus.c ****       ret =  BSP_ERROR_PERIPH_FAILURE;
 374:D:/fchai/work/i-cube/I-CUBE-HUAWEI/Projects/NUCLEO-L496ZG/Applications/Cloud/mqtt-ota/Src\stm32l4xx_nucleo_bus.c ****     }
 375:D:/fchai/work/i-cube/I-CUBE-HUAWEI/Projects/NUCLEO-L496ZG/Applications/Cloud/mqtt-ota/Src\stm32l4xx_nucleo_bus.c ****   }
 376:D:/fchai/work/i-cube/I-CUBE-HUAWEI/Projects/NUCLEO-L496ZG/Applications/Cloud/mqtt-ota/Src\stm32l4xx_nucleo_bus.c ****   return ret;
 377:D:/fchai/work/i-cube/I-CUBE-HUAWEI/Projects/NUCLEO-L496ZG/Applications/Cloud/mqtt-ota/Src\stm32l4xx_nucleo_bus.c **** }
 378:D:/fchai/work/i-cube/I-CUBE-HUAWEI/Projects/NUCLEO-L496ZG/Applications/Cloud/mqtt-ota/Src\stm32l4xx_nucleo_bus.c **** 
 379:D:/fchai/work/i-cube/I-CUBE-HUAWEI/Projects/NUCLEO-L496ZG/Applications/Cloud/mqtt-ota/Src\stm32l4xx_nucleo_bus.c **** /**
 380:D:/fchai/work/i-cube/I-CUBE-HUAWEI/Projects/NUCLEO-L496ZG/Applications/Cloud/mqtt-ota/Src\stm32l4xx_nucleo_bus.c ****   * @brief  Read registers through a bus (16 bits)
 381:D:/fchai/work/i-cube/I-CUBE-HUAWEI/Projects/NUCLEO-L496ZG/Applications/Cloud/mqtt-ota/Src\stm32l4xx_nucleo_bus.c ****   * @param  DevAddr: Device address on BUS
 382:D:/fchai/work/i-cube/I-CUBE-HUAWEI/Projects/NUCLEO-L496ZG/Applications/Cloud/mqtt-ota/Src\stm32l4xx_nucleo_bus.c ****   * @param  Reg: The target register address to read
 383:D:/fchai/work/i-cube/I-CUBE-HUAWEI/Projects/NUCLEO-L496ZG/Applications/Cloud/mqtt-ota/Src\stm32l4xx_nucleo_bus.c ****   * @param  Length Data Length
 384:D:/fchai/work/i-cube/I-CUBE-HUAWEI/Projects/NUCLEO-L496ZG/Applications/Cloud/mqtt-ota/Src\stm32l4xx_nucleo_bus.c ****   * @retval BSP status
 385:D:/fchai/work/i-cube/I-CUBE-HUAWEI/Projects/NUCLEO-L496ZG/Applications/Cloud/mqtt-ota/Src\stm32l4xx_nucleo_bus.c ****   */
 386:D:/fchai/work/i-cube/I-CUBE-HUAWEI/Projects/NUCLEO-L496ZG/Applications/Cloud/mqtt-ota/Src\stm32l4xx_nucleo_bus.c **** int32_t  BSP_I2C1_ReadReg16(uint16_t DevAddr, uint16_t Reg, uint8_t *pData, uint16_t Length) 
 387:D:/fchai/work/i-cube/I-CUBE-HUAWEI/Projects/NUCLEO-L496ZG/Applications/Cloud/mqtt-ota/Src\stm32l4xx_nucleo_bus.c **** {
 388:D:/fchai/work/i-cube/I-CUBE-HUAWEI/Projects/NUCLEO-L496ZG/Applications/Cloud/mqtt-ota/Src\stm32l4xx_nucleo_bus.c ****   int32_t ret = BSP_ERROR_NONE;  
 389:D:/fchai/work/i-cube/I-CUBE-HUAWEI/Projects/NUCLEO-L496ZG/Applications/Cloud/mqtt-ota/Src\stm32l4xx_nucleo_bus.c ****  
 390:D:/fchai/work/i-cube/I-CUBE-HUAWEI/Projects/NUCLEO-L496ZG/Applications/Cloud/mqtt-ota/Src\stm32l4xx_nucleo_bus.c ****   if (HAL_I2C_Mem_Read(&hi2c1, DevAddr, Reg, I2C_MEMADD_SIZE_16BIT, pData, Length, BUS_I2C1_POLL_TI
 391:D:/fchai/work/i-cube/I-CUBE-HUAWEI/Projects/NUCLEO-L496ZG/Applications/Cloud/mqtt-ota/Src\stm32l4xx_nucleo_bus.c ****   {
ARM GAS  T:\msys\tmp\cccQ2VxF.s 			page 9


 392:D:/fchai/work/i-cube/I-CUBE-HUAWEI/Projects/NUCLEO-L496ZG/Applications/Cloud/mqtt-ota/Src\stm32l4xx_nucleo_bus.c ****     if (HAL_I2C_GetError(&hi2c1) != HAL_I2C_ERROR_AF)
 393:D:/fchai/work/i-cube/I-CUBE-HUAWEI/Projects/NUCLEO-L496ZG/Applications/Cloud/mqtt-ota/Src\stm32l4xx_nucleo_bus.c ****     {
 394:D:/fchai/work/i-cube/I-CUBE-HUAWEI/Projects/NUCLEO-L496ZG/Applications/Cloud/mqtt-ota/Src\stm32l4xx_nucleo_bus.c ****       ret =  BSP_ERROR_BUS_ACKNOWLEDGE_FAILURE;
 395:D:/fchai/work/i-cube/I-CUBE-HUAWEI/Projects/NUCLEO-L496ZG/Applications/Cloud/mqtt-ota/Src\stm32l4xx_nucleo_bus.c ****     }
 396:D:/fchai/work/i-cube/I-CUBE-HUAWEI/Projects/NUCLEO-L496ZG/Applications/Cloud/mqtt-ota/Src\stm32l4xx_nucleo_bus.c ****     else
 397:D:/fchai/work/i-cube/I-CUBE-HUAWEI/Projects/NUCLEO-L496ZG/Applications/Cloud/mqtt-ota/Src\stm32l4xx_nucleo_bus.c ****     {
 398:D:/fchai/work/i-cube/I-CUBE-HUAWEI/Projects/NUCLEO-L496ZG/Applications/Cloud/mqtt-ota/Src\stm32l4xx_nucleo_bus.c ****       ret =  BSP_ERROR_PERIPH_FAILURE;
 399:D:/fchai/work/i-cube/I-CUBE-HUAWEI/Projects/NUCLEO-L496ZG/Applications/Cloud/mqtt-ota/Src\stm32l4xx_nucleo_bus.c ****     }
 400:D:/fchai/work/i-cube/I-CUBE-HUAWEI/Projects/NUCLEO-L496ZG/Applications/Cloud/mqtt-ota/Src\stm32l4xx_nucleo_bus.c ****   }
 401:D:/fchai/work/i-cube/I-CUBE-HUAWEI/Projects/NUCLEO-L496ZG/Applications/Cloud/mqtt-ota/Src\stm32l4xx_nucleo_bus.c ****   return ret;
 402:D:/fchai/work/i-cube/I-CUBE-HUAWEI/Projects/NUCLEO-L496ZG/Applications/Cloud/mqtt-ota/Src\stm32l4xx_nucleo_bus.c **** }
 403:D:/fchai/work/i-cube/I-CUBE-HUAWEI/Projects/NUCLEO-L496ZG/Applications/Cloud/mqtt-ota/Src\stm32l4xx_nucleo_bus.c **** 
 404:D:/fchai/work/i-cube/I-CUBE-HUAWEI/Projects/NUCLEO-L496ZG/Applications/Cloud/mqtt-ota/Src\stm32l4xx_nucleo_bus.c **** /**
 405:D:/fchai/work/i-cube/I-CUBE-HUAWEI/Projects/NUCLEO-L496ZG/Applications/Cloud/mqtt-ota/Src\stm32l4xx_nucleo_bus.c ****   * @brief  Send an amount width data through bus (Simplex)
 406:D:/fchai/work/i-cube/I-CUBE-HUAWEI/Projects/NUCLEO-L496ZG/Applications/Cloud/mqtt-ota/Src\stm32l4xx_nucleo_bus.c ****   * @param  DevAddr: Device address on Bus.
 407:D:/fchai/work/i-cube/I-CUBE-HUAWEI/Projects/NUCLEO-L496ZG/Applications/Cloud/mqtt-ota/Src\stm32l4xx_nucleo_bus.c ****   * @param  pData: Data pointer
 408:D:/fchai/work/i-cube/I-CUBE-HUAWEI/Projects/NUCLEO-L496ZG/Applications/Cloud/mqtt-ota/Src\stm32l4xx_nucleo_bus.c ****   * @param  Length: Data length
 409:D:/fchai/work/i-cube/I-CUBE-HUAWEI/Projects/NUCLEO-L496ZG/Applications/Cloud/mqtt-ota/Src\stm32l4xx_nucleo_bus.c ****   * @retval BSP status
 410:D:/fchai/work/i-cube/I-CUBE-HUAWEI/Projects/NUCLEO-L496ZG/Applications/Cloud/mqtt-ota/Src\stm32l4xx_nucleo_bus.c ****   */
 411:D:/fchai/work/i-cube/I-CUBE-HUAWEI/Projects/NUCLEO-L496ZG/Applications/Cloud/mqtt-ota/Src\stm32l4xx_nucleo_bus.c **** int32_t BSP_I2C1_Send(uint16_t DevAddr, uint8_t *pData, uint16_t Length) {
 412:D:/fchai/work/i-cube/I-CUBE-HUAWEI/Projects/NUCLEO-L496ZG/Applications/Cloud/mqtt-ota/Src\stm32l4xx_nucleo_bus.c ****   int32_t ret = BSP_ERROR_NONE;	  
 413:D:/fchai/work/i-cube/I-CUBE-HUAWEI/Projects/NUCLEO-L496ZG/Applications/Cloud/mqtt-ota/Src\stm32l4xx_nucleo_bus.c ****   
 414:D:/fchai/work/i-cube/I-CUBE-HUAWEI/Projects/NUCLEO-L496ZG/Applications/Cloud/mqtt-ota/Src\stm32l4xx_nucleo_bus.c ****   if (HAL_I2C_Master_Transmit(&hi2c1, DevAddr, pData, Length, BUS_I2C1_POLL_TIMEOUT) != HAL_OK)
 415:D:/fchai/work/i-cube/I-CUBE-HUAWEI/Projects/NUCLEO-L496ZG/Applications/Cloud/mqtt-ota/Src\stm32l4xx_nucleo_bus.c ****   {
 416:D:/fchai/work/i-cube/I-CUBE-HUAWEI/Projects/NUCLEO-L496ZG/Applications/Cloud/mqtt-ota/Src\stm32l4xx_nucleo_bus.c ****     if (HAL_I2C_GetError(&hi2c1) != HAL_I2C_ERROR_AF)
 417:D:/fchai/work/i-cube/I-CUBE-HUAWEI/Projects/NUCLEO-L496ZG/Applications/Cloud/mqtt-ota/Src\stm32l4xx_nucleo_bus.c ****     {
 418:D:/fchai/work/i-cube/I-CUBE-HUAWEI/Projects/NUCLEO-L496ZG/Applications/Cloud/mqtt-ota/Src\stm32l4xx_nucleo_bus.c ****       ret = BSP_ERROR_BUS_ACKNOWLEDGE_FAILURE;
 419:D:/fchai/work/i-cube/I-CUBE-HUAWEI/Projects/NUCLEO-L496ZG/Applications/Cloud/mqtt-ota/Src\stm32l4xx_nucleo_bus.c ****     }
 420:D:/fchai/work/i-cube/I-CUBE-HUAWEI/Projects/NUCLEO-L496ZG/Applications/Cloud/mqtt-ota/Src\stm32l4xx_nucleo_bus.c ****     else
 421:D:/fchai/work/i-cube/I-CUBE-HUAWEI/Projects/NUCLEO-L496ZG/Applications/Cloud/mqtt-ota/Src\stm32l4xx_nucleo_bus.c ****     {
 422:D:/fchai/work/i-cube/I-CUBE-HUAWEI/Projects/NUCLEO-L496ZG/Applications/Cloud/mqtt-ota/Src\stm32l4xx_nucleo_bus.c ****       ret =  BSP_ERROR_PERIPH_FAILURE;
 423:D:/fchai/work/i-cube/I-CUBE-HUAWEI/Projects/NUCLEO-L496ZG/Applications/Cloud/mqtt-ota/Src\stm32l4xx_nucleo_bus.c ****     }
 424:D:/fchai/work/i-cube/I-CUBE-HUAWEI/Projects/NUCLEO-L496ZG/Applications/Cloud/mqtt-ota/Src\stm32l4xx_nucleo_bus.c ****   }
 425:D:/fchai/work/i-cube/I-CUBE-HUAWEI/Projects/NUCLEO-L496ZG/Applications/Cloud/mqtt-ota/Src\stm32l4xx_nucleo_bus.c **** 
 426:D:/fchai/work/i-cube/I-CUBE-HUAWEI/Projects/NUCLEO-L496ZG/Applications/Cloud/mqtt-ota/Src\stm32l4xx_nucleo_bus.c ****   return ret;
 427:D:/fchai/work/i-cube/I-CUBE-HUAWEI/Projects/NUCLEO-L496ZG/Applications/Cloud/mqtt-ota/Src\stm32l4xx_nucleo_bus.c **** }
 428:D:/fchai/work/i-cube/I-CUBE-HUAWEI/Projects/NUCLEO-L496ZG/Applications/Cloud/mqtt-ota/Src\stm32l4xx_nucleo_bus.c **** 
 429:D:/fchai/work/i-cube/I-CUBE-HUAWEI/Projects/NUCLEO-L496ZG/Applications/Cloud/mqtt-ota/Src\stm32l4xx_nucleo_bus.c **** /**
 430:D:/fchai/work/i-cube/I-CUBE-HUAWEI/Projects/NUCLEO-L496ZG/Applications/Cloud/mqtt-ota/Src\stm32l4xx_nucleo_bus.c ****   * @brief  Receive an amount of data through a bus (Simplex)
 431:D:/fchai/work/i-cube/I-CUBE-HUAWEI/Projects/NUCLEO-L496ZG/Applications/Cloud/mqtt-ota/Src\stm32l4xx_nucleo_bus.c ****   * @param  DevAddr: Device address on Bus.
 432:D:/fchai/work/i-cube/I-CUBE-HUAWEI/Projects/NUCLEO-L496ZG/Applications/Cloud/mqtt-ota/Src\stm32l4xx_nucleo_bus.c ****   * @param  pData: Data pointer
 433:D:/fchai/work/i-cube/I-CUBE-HUAWEI/Projects/NUCLEO-L496ZG/Applications/Cloud/mqtt-ota/Src\stm32l4xx_nucleo_bus.c ****   * @param  Length: Data length
 434:D:/fchai/work/i-cube/I-CUBE-HUAWEI/Projects/NUCLEO-L496ZG/Applications/Cloud/mqtt-ota/Src\stm32l4xx_nucleo_bus.c ****   * @retval BSP status
 435:D:/fchai/work/i-cube/I-CUBE-HUAWEI/Projects/NUCLEO-L496ZG/Applications/Cloud/mqtt-ota/Src\stm32l4xx_nucleo_bus.c ****   */
 436:D:/fchai/work/i-cube/I-CUBE-HUAWEI/Projects/NUCLEO-L496ZG/Applications/Cloud/mqtt-ota/Src\stm32l4xx_nucleo_bus.c **** int32_t BSP_I2C1_Recv(uint16_t DevAddr, uint8_t *pData, uint16_t Length) {	
 437:D:/fchai/work/i-cube/I-CUBE-HUAWEI/Projects/NUCLEO-L496ZG/Applications/Cloud/mqtt-ota/Src\stm32l4xx_nucleo_bus.c ****   int32_t ret = BSP_ERROR_NONE;
 438:D:/fchai/work/i-cube/I-CUBE-HUAWEI/Projects/NUCLEO-L496ZG/Applications/Cloud/mqtt-ota/Src\stm32l4xx_nucleo_bus.c ****   
 439:D:/fchai/work/i-cube/I-CUBE-HUAWEI/Projects/NUCLEO-L496ZG/Applications/Cloud/mqtt-ota/Src\stm32l4xx_nucleo_bus.c ****   if (HAL_I2C_Master_Receive(&hi2c1, DevAddr, pData, Length, BUS_I2C1_POLL_TIMEOUT) != HAL_OK)
 440:D:/fchai/work/i-cube/I-CUBE-HUAWEI/Projects/NUCLEO-L496ZG/Applications/Cloud/mqtt-ota/Src\stm32l4xx_nucleo_bus.c ****   {
 441:D:/fchai/work/i-cube/I-CUBE-HUAWEI/Projects/NUCLEO-L496ZG/Applications/Cloud/mqtt-ota/Src\stm32l4xx_nucleo_bus.c ****     if (HAL_I2C_GetError(&hi2c1) != HAL_I2C_ERROR_AF)
 442:D:/fchai/work/i-cube/I-CUBE-HUAWEI/Projects/NUCLEO-L496ZG/Applications/Cloud/mqtt-ota/Src\stm32l4xx_nucleo_bus.c ****     {
 443:D:/fchai/work/i-cube/I-CUBE-HUAWEI/Projects/NUCLEO-L496ZG/Applications/Cloud/mqtt-ota/Src\stm32l4xx_nucleo_bus.c ****       ret = BSP_ERROR_BUS_ACKNOWLEDGE_FAILURE;
 444:D:/fchai/work/i-cube/I-CUBE-HUAWEI/Projects/NUCLEO-L496ZG/Applications/Cloud/mqtt-ota/Src\stm32l4xx_nucleo_bus.c ****     }
 445:D:/fchai/work/i-cube/I-CUBE-HUAWEI/Projects/NUCLEO-L496ZG/Applications/Cloud/mqtt-ota/Src\stm32l4xx_nucleo_bus.c ****     else
 446:D:/fchai/work/i-cube/I-CUBE-HUAWEI/Projects/NUCLEO-L496ZG/Applications/Cloud/mqtt-ota/Src\stm32l4xx_nucleo_bus.c ****     {
 447:D:/fchai/work/i-cube/I-CUBE-HUAWEI/Projects/NUCLEO-L496ZG/Applications/Cloud/mqtt-ota/Src\stm32l4xx_nucleo_bus.c ****       ret =  BSP_ERROR_PERIPH_FAILURE;
 448:D:/fchai/work/i-cube/I-CUBE-HUAWEI/Projects/NUCLEO-L496ZG/Applications/Cloud/mqtt-ota/Src\stm32l4xx_nucleo_bus.c ****     }
ARM GAS  T:\msys\tmp\cccQ2VxF.s 			page 10


 449:D:/fchai/work/i-cube/I-CUBE-HUAWEI/Projects/NUCLEO-L496ZG/Applications/Cloud/mqtt-ota/Src\stm32l4xx_nucleo_bus.c ****   }
 450:D:/fchai/work/i-cube/I-CUBE-HUAWEI/Projects/NUCLEO-L496ZG/Applications/Cloud/mqtt-ota/Src\stm32l4xx_nucleo_bus.c ****   return ret;
 451:D:/fchai/work/i-cube/I-CUBE-HUAWEI/Projects/NUCLEO-L496ZG/Applications/Cloud/mqtt-ota/Src\stm32l4xx_nucleo_bus.c **** }
 452:D:/fchai/work/i-cube/I-CUBE-HUAWEI/Projects/NUCLEO-L496ZG/Applications/Cloud/mqtt-ota/Src\stm32l4xx_nucleo_bus.c **** 
 453:D:/fchai/work/i-cube/I-CUBE-HUAWEI/Projects/NUCLEO-L496ZG/Applications/Cloud/mqtt-ota/Src\stm32l4xx_nucleo_bus.c **** #if (USE_HAL_I2C_REGISTER_CALLBACKS == 1U)  
 454:D:/fchai/work/i-cube/I-CUBE-HUAWEI/Projects/NUCLEO-L496ZG/Applications/Cloud/mqtt-ota/Src\stm32l4xx_nucleo_bus.c **** /**
 455:D:/fchai/work/i-cube/I-CUBE-HUAWEI/Projects/NUCLEO-L496ZG/Applications/Cloud/mqtt-ota/Src\stm32l4xx_nucleo_bus.c ****   * @brief Register Default BSP I2C1 Bus Msp Callbacks
 456:D:/fchai/work/i-cube/I-CUBE-HUAWEI/Projects/NUCLEO-L496ZG/Applications/Cloud/mqtt-ota/Src\stm32l4xx_nucleo_bus.c ****   * @retval BSP status
 457:D:/fchai/work/i-cube/I-CUBE-HUAWEI/Projects/NUCLEO-L496ZG/Applications/Cloud/mqtt-ota/Src\stm32l4xx_nucleo_bus.c ****   */
 458:D:/fchai/work/i-cube/I-CUBE-HUAWEI/Projects/NUCLEO-L496ZG/Applications/Cloud/mqtt-ota/Src\stm32l4xx_nucleo_bus.c **** int32_t BSP_I2C1_RegisterDefaultMspCallbacks (void)
 459:D:/fchai/work/i-cube/I-CUBE-HUAWEI/Projects/NUCLEO-L496ZG/Applications/Cloud/mqtt-ota/Src\stm32l4xx_nucleo_bus.c **** {
 460:D:/fchai/work/i-cube/I-CUBE-HUAWEI/Projects/NUCLEO-L496ZG/Applications/Cloud/mqtt-ota/Src\stm32l4xx_nucleo_bus.c **** 
 461:D:/fchai/work/i-cube/I-CUBE-HUAWEI/Projects/NUCLEO-L496ZG/Applications/Cloud/mqtt-ota/Src\stm32l4xx_nucleo_bus.c ****   __HAL_I2C_RESET_HANDLE_STATE(&hi2c1);
 462:D:/fchai/work/i-cube/I-CUBE-HUAWEI/Projects/NUCLEO-L496ZG/Applications/Cloud/mqtt-ota/Src\stm32l4xx_nucleo_bus.c ****   
 463:D:/fchai/work/i-cube/I-CUBE-HUAWEI/Projects/NUCLEO-L496ZG/Applications/Cloud/mqtt-ota/Src\stm32l4xx_nucleo_bus.c ****   /* Register MspInit Callback */
 464:D:/fchai/work/i-cube/I-CUBE-HUAWEI/Projects/NUCLEO-L496ZG/Applications/Cloud/mqtt-ota/Src\stm32l4xx_nucleo_bus.c ****   if (HAL_I2C_RegisterCallback(&hi2c1, HAL_I2C_MSPINIT_CB_ID, I2C1_MspInit)  != HAL_OK)
 465:D:/fchai/work/i-cube/I-CUBE-HUAWEI/Projects/NUCLEO-L496ZG/Applications/Cloud/mqtt-ota/Src\stm32l4xx_nucleo_bus.c ****   {
 466:D:/fchai/work/i-cube/I-CUBE-HUAWEI/Projects/NUCLEO-L496ZG/Applications/Cloud/mqtt-ota/Src\stm32l4xx_nucleo_bus.c ****     return BSP_ERROR_PERIPH_FAILURE;
 467:D:/fchai/work/i-cube/I-CUBE-HUAWEI/Projects/NUCLEO-L496ZG/Applications/Cloud/mqtt-ota/Src\stm32l4xx_nucleo_bus.c ****   }
 468:D:/fchai/work/i-cube/I-CUBE-HUAWEI/Projects/NUCLEO-L496ZG/Applications/Cloud/mqtt-ota/Src\stm32l4xx_nucleo_bus.c ****   
 469:D:/fchai/work/i-cube/I-CUBE-HUAWEI/Projects/NUCLEO-L496ZG/Applications/Cloud/mqtt-ota/Src\stm32l4xx_nucleo_bus.c ****   /* Register MspDeInit Callback */
 470:D:/fchai/work/i-cube/I-CUBE-HUAWEI/Projects/NUCLEO-L496ZG/Applications/Cloud/mqtt-ota/Src\stm32l4xx_nucleo_bus.c ****   if (HAL_I2C_RegisterCallback(&hi2c1, HAL_I2C_MSPDEINIT_CB_ID, I2C1_MspDeInit) != HAL_OK)
 471:D:/fchai/work/i-cube/I-CUBE-HUAWEI/Projects/NUCLEO-L496ZG/Applications/Cloud/mqtt-ota/Src\stm32l4xx_nucleo_bus.c ****   {
 472:D:/fchai/work/i-cube/I-CUBE-HUAWEI/Projects/NUCLEO-L496ZG/Applications/Cloud/mqtt-ota/Src\stm32l4xx_nucleo_bus.c ****     return BSP_ERROR_PERIPH_FAILURE;
 473:D:/fchai/work/i-cube/I-CUBE-HUAWEI/Projects/NUCLEO-L496ZG/Applications/Cloud/mqtt-ota/Src\stm32l4xx_nucleo_bus.c ****   }
 474:D:/fchai/work/i-cube/I-CUBE-HUAWEI/Projects/NUCLEO-L496ZG/Applications/Cloud/mqtt-ota/Src\stm32l4xx_nucleo_bus.c ****   IsI2C1MspCbValid = 1;
 475:D:/fchai/work/i-cube/I-CUBE-HUAWEI/Projects/NUCLEO-L496ZG/Applications/Cloud/mqtt-ota/Src\stm32l4xx_nucleo_bus.c ****   
 476:D:/fchai/work/i-cube/I-CUBE-HUAWEI/Projects/NUCLEO-L496ZG/Applications/Cloud/mqtt-ota/Src\stm32l4xx_nucleo_bus.c ****   return BSP_ERROR_NONE;  
 477:D:/fchai/work/i-cube/I-CUBE-HUAWEI/Projects/NUCLEO-L496ZG/Applications/Cloud/mqtt-ota/Src\stm32l4xx_nucleo_bus.c **** }
 478:D:/fchai/work/i-cube/I-CUBE-HUAWEI/Projects/NUCLEO-L496ZG/Applications/Cloud/mqtt-ota/Src\stm32l4xx_nucleo_bus.c **** 
 479:D:/fchai/work/i-cube/I-CUBE-HUAWEI/Projects/NUCLEO-L496ZG/Applications/Cloud/mqtt-ota/Src\stm32l4xx_nucleo_bus.c **** /**
 480:D:/fchai/work/i-cube/I-CUBE-HUAWEI/Projects/NUCLEO-L496ZG/Applications/Cloud/mqtt-ota/Src\stm32l4xx_nucleo_bus.c ****   * @brief BSP I2C1 Bus Msp Callback registering
 481:D:/fchai/work/i-cube/I-CUBE-HUAWEI/Projects/NUCLEO-L496ZG/Applications/Cloud/mqtt-ota/Src\stm32l4xx_nucleo_bus.c ****   * @param Callbacks     pointer to I2C1 MspInit/MspDeInit callback functions
 482:D:/fchai/work/i-cube/I-CUBE-HUAWEI/Projects/NUCLEO-L496ZG/Applications/Cloud/mqtt-ota/Src\stm32l4xx_nucleo_bus.c ****   * @retval BSP status
 483:D:/fchai/work/i-cube/I-CUBE-HUAWEI/Projects/NUCLEO-L496ZG/Applications/Cloud/mqtt-ota/Src\stm32l4xx_nucleo_bus.c ****   */
 484:D:/fchai/work/i-cube/I-CUBE-HUAWEI/Projects/NUCLEO-L496ZG/Applications/Cloud/mqtt-ota/Src\stm32l4xx_nucleo_bus.c **** int32_t BSP_I2C1_RegisterMspCallbacks (BSP_I2C_Cb_t *Callbacks)
 485:D:/fchai/work/i-cube/I-CUBE-HUAWEI/Projects/NUCLEO-L496ZG/Applications/Cloud/mqtt-ota/Src\stm32l4xx_nucleo_bus.c **** {
 486:D:/fchai/work/i-cube/I-CUBE-HUAWEI/Projects/NUCLEO-L496ZG/Applications/Cloud/mqtt-ota/Src\stm32l4xx_nucleo_bus.c ****   /* Prevent unused argument(s) compilation warning */
 487:D:/fchai/work/i-cube/I-CUBE-HUAWEI/Projects/NUCLEO-L496ZG/Applications/Cloud/mqtt-ota/Src\stm32l4xx_nucleo_bus.c ****   __HAL_I2C_RESET_HANDLE_STATE(&hi2c1);  
 488:D:/fchai/work/i-cube/I-CUBE-HUAWEI/Projects/NUCLEO-L496ZG/Applications/Cloud/mqtt-ota/Src\stm32l4xx_nucleo_bus.c ****  
 489:D:/fchai/work/i-cube/I-CUBE-HUAWEI/Projects/NUCLEO-L496ZG/Applications/Cloud/mqtt-ota/Src\stm32l4xx_nucleo_bus.c ****    /* Register MspInit Callback */
 490:D:/fchai/work/i-cube/I-CUBE-HUAWEI/Projects/NUCLEO-L496ZG/Applications/Cloud/mqtt-ota/Src\stm32l4xx_nucleo_bus.c ****   if (HAL_I2C_RegisterCallback(&hi2c1, HAL_I2C_MSPINIT_CB_ID, Callbacks->pMspInitCb)  != HAL_OK)
 491:D:/fchai/work/i-cube/I-CUBE-HUAWEI/Projects/NUCLEO-L496ZG/Applications/Cloud/mqtt-ota/Src\stm32l4xx_nucleo_bus.c ****   {
 492:D:/fchai/work/i-cube/I-CUBE-HUAWEI/Projects/NUCLEO-L496ZG/Applications/Cloud/mqtt-ota/Src\stm32l4xx_nucleo_bus.c ****     return BSP_ERROR_PERIPH_FAILURE;
 493:D:/fchai/work/i-cube/I-CUBE-HUAWEI/Projects/NUCLEO-L496ZG/Applications/Cloud/mqtt-ota/Src\stm32l4xx_nucleo_bus.c ****   }
 494:D:/fchai/work/i-cube/I-CUBE-HUAWEI/Projects/NUCLEO-L496ZG/Applications/Cloud/mqtt-ota/Src\stm32l4xx_nucleo_bus.c ****   
 495:D:/fchai/work/i-cube/I-CUBE-HUAWEI/Projects/NUCLEO-L496ZG/Applications/Cloud/mqtt-ota/Src\stm32l4xx_nucleo_bus.c ****   /* Register MspDeInit Callback */
 496:D:/fchai/work/i-cube/I-CUBE-HUAWEI/Projects/NUCLEO-L496ZG/Applications/Cloud/mqtt-ota/Src\stm32l4xx_nucleo_bus.c ****   if (HAL_I2C_RegisterCallback(&hi2c1, HAL_I2C_MSPDEINIT_CB_ID, Callbacks->pMspDeInitCb) != HAL_OK)
 497:D:/fchai/work/i-cube/I-CUBE-HUAWEI/Projects/NUCLEO-L496ZG/Applications/Cloud/mqtt-ota/Src\stm32l4xx_nucleo_bus.c ****   {
 498:D:/fchai/work/i-cube/I-CUBE-HUAWEI/Projects/NUCLEO-L496ZG/Applications/Cloud/mqtt-ota/Src\stm32l4xx_nucleo_bus.c ****     return BSP_ERROR_PERIPH_FAILURE;
 499:D:/fchai/work/i-cube/I-CUBE-HUAWEI/Projects/NUCLEO-L496ZG/Applications/Cloud/mqtt-ota/Src\stm32l4xx_nucleo_bus.c ****   }
 500:D:/fchai/work/i-cube/I-CUBE-HUAWEI/Projects/NUCLEO-L496ZG/Applications/Cloud/mqtt-ota/Src\stm32l4xx_nucleo_bus.c ****   
 501:D:/fchai/work/i-cube/I-CUBE-HUAWEI/Projects/NUCLEO-L496ZG/Applications/Cloud/mqtt-ota/Src\stm32l4xx_nucleo_bus.c ****   IsI2C1MspCbValid = 1;
 502:D:/fchai/work/i-cube/I-CUBE-HUAWEI/Projects/NUCLEO-L496ZG/Applications/Cloud/mqtt-ota/Src\stm32l4xx_nucleo_bus.c ****   
 503:D:/fchai/work/i-cube/I-CUBE-HUAWEI/Projects/NUCLEO-L496ZG/Applications/Cloud/mqtt-ota/Src\stm32l4xx_nucleo_bus.c ****   return BSP_ERROR_NONE;  
 504:D:/fchai/work/i-cube/I-CUBE-HUAWEI/Projects/NUCLEO-L496ZG/Applications/Cloud/mqtt-ota/Src\stm32l4xx_nucleo_bus.c **** }
 505:D:/fchai/work/i-cube/I-CUBE-HUAWEI/Projects/NUCLEO-L496ZG/Applications/Cloud/mqtt-ota/Src\stm32l4xx_nucleo_bus.c **** #endif /* USE_HAL_I2C_REGISTER_CALLBACKS */
ARM GAS  T:\msys\tmp\cccQ2VxF.s 			page 11


 506:D:/fchai/work/i-cube/I-CUBE-HUAWEI/Projects/NUCLEO-L496ZG/Applications/Cloud/mqtt-ota/Src\stm32l4xx_nucleo_bus.c **** 
 507:D:/fchai/work/i-cube/I-CUBE-HUAWEI/Projects/NUCLEO-L496ZG/Applications/Cloud/mqtt-ota/Src\stm32l4xx_nucleo_bus.c **** /**
 508:D:/fchai/work/i-cube/I-CUBE-HUAWEI/Projects/NUCLEO-L496ZG/Applications/Cloud/mqtt-ota/Src\stm32l4xx_nucleo_bus.c ****   * @brief  Return system tick in ms
 509:D:/fchai/work/i-cube/I-CUBE-HUAWEI/Projects/NUCLEO-L496ZG/Applications/Cloud/mqtt-ota/Src\stm32l4xx_nucleo_bus.c ****   * @retval Current HAL time base time stamp
 510:D:/fchai/work/i-cube/I-CUBE-HUAWEI/Projects/NUCLEO-L496ZG/Applications/Cloud/mqtt-ota/Src\stm32l4xx_nucleo_bus.c ****   */
 511:D:/fchai/work/i-cube/I-CUBE-HUAWEI/Projects/NUCLEO-L496ZG/Applications/Cloud/mqtt-ota/Src\stm32l4xx_nucleo_bus.c **** int32_t BSP_GetTick(void) {
 512:D:/fchai/work/i-cube/I-CUBE-HUAWEI/Projects/NUCLEO-L496ZG/Applications/Cloud/mqtt-ota/Src\stm32l4xx_nucleo_bus.c ****   return HAL_GetTick();
 513:D:/fchai/work/i-cube/I-CUBE-HUAWEI/Projects/NUCLEO-L496ZG/Applications/Cloud/mqtt-ota/Src\stm32l4xx_nucleo_bus.c **** }
 514:D:/fchai/work/i-cube/I-CUBE-HUAWEI/Projects/NUCLEO-L496ZG/Applications/Cloud/mqtt-ota/Src\stm32l4xx_nucleo_bus.c **** 
 515:D:/fchai/work/i-cube/I-CUBE-HUAWEI/Projects/NUCLEO-L496ZG/Applications/Cloud/mqtt-ota/Src\stm32l4xx_nucleo_bus.c **** /* I2C1 init function */ 
 516:D:/fchai/work/i-cube/I-CUBE-HUAWEI/Projects/NUCLEO-L496ZG/Applications/Cloud/mqtt-ota/Src\stm32l4xx_nucleo_bus.c **** 
 517:D:/fchai/work/i-cube/I-CUBE-HUAWEI/Projects/NUCLEO-L496ZG/Applications/Cloud/mqtt-ota/Src\stm32l4xx_nucleo_bus.c **** __weak HAL_StatusTypeDef MX_I2C1_Init(I2C_HandleTypeDef* hi2c)
 518:D:/fchai/work/i-cube/I-CUBE-HUAWEI/Projects/NUCLEO-L496ZG/Applications/Cloud/mqtt-ota/Src\stm32l4xx_nucleo_bus.c **** {
 519:D:/fchai/work/i-cube/I-CUBE-HUAWEI/Projects/NUCLEO-L496ZG/Applications/Cloud/mqtt-ota/Src\stm32l4xx_nucleo_bus.c ****   HAL_StatusTypeDef ret = HAL_OK;
 520:D:/fchai/work/i-cube/I-CUBE-HUAWEI/Projects/NUCLEO-L496ZG/Applications/Cloud/mqtt-ota/Src\stm32l4xx_nucleo_bus.c ****   hi2c->Instance = I2C1;
 521:D:/fchai/work/i-cube/I-CUBE-HUAWEI/Projects/NUCLEO-L496ZG/Applications/Cloud/mqtt-ota/Src\stm32l4xx_nucleo_bus.c ****   hi2c->Init.Timing = 0x00505B89;
 522:D:/fchai/work/i-cube/I-CUBE-HUAWEI/Projects/NUCLEO-L496ZG/Applications/Cloud/mqtt-ota/Src\stm32l4xx_nucleo_bus.c ****   hi2c->Init.OwnAddress1 = 0;
 523:D:/fchai/work/i-cube/I-CUBE-HUAWEI/Projects/NUCLEO-L496ZG/Applications/Cloud/mqtt-ota/Src\stm32l4xx_nucleo_bus.c ****   hi2c->Init.AddressingMode = I2C_ADDRESSINGMODE_7BIT;
 524:D:/fchai/work/i-cube/I-CUBE-HUAWEI/Projects/NUCLEO-L496ZG/Applications/Cloud/mqtt-ota/Src\stm32l4xx_nucleo_bus.c ****   hi2c->Init.DualAddressMode = I2C_DUALADDRESS_DISABLE;
 525:D:/fchai/work/i-cube/I-CUBE-HUAWEI/Projects/NUCLEO-L496ZG/Applications/Cloud/mqtt-ota/Src\stm32l4xx_nucleo_bus.c ****   hi2c->Init.OwnAddress2 = 0;
 526:D:/fchai/work/i-cube/I-CUBE-HUAWEI/Projects/NUCLEO-L496ZG/Applications/Cloud/mqtt-ota/Src\stm32l4xx_nucleo_bus.c ****   hi2c->Init.OwnAddress2Masks = I2C_OA2_NOMASK;
 527:D:/fchai/work/i-cube/I-CUBE-HUAWEI/Projects/NUCLEO-L496ZG/Applications/Cloud/mqtt-ota/Src\stm32l4xx_nucleo_bus.c ****   hi2c->Init.GeneralCallMode = I2C_GENERALCALL_DISABLE;
 528:D:/fchai/work/i-cube/I-CUBE-HUAWEI/Projects/NUCLEO-L496ZG/Applications/Cloud/mqtt-ota/Src\stm32l4xx_nucleo_bus.c ****   hi2c->Init.NoStretchMode = I2C_NOSTRETCH_DISABLE;
 529:D:/fchai/work/i-cube/I-CUBE-HUAWEI/Projects/NUCLEO-L496ZG/Applications/Cloud/mqtt-ota/Src\stm32l4xx_nucleo_bus.c ****   if (HAL_I2C_Init(hi2c) != HAL_OK)
 530:D:/fchai/work/i-cube/I-CUBE-HUAWEI/Projects/NUCLEO-L496ZG/Applications/Cloud/mqtt-ota/Src\stm32l4xx_nucleo_bus.c ****   {
 531:D:/fchai/work/i-cube/I-CUBE-HUAWEI/Projects/NUCLEO-L496ZG/Applications/Cloud/mqtt-ota/Src\stm32l4xx_nucleo_bus.c ****     ret = HAL_ERROR;
 532:D:/fchai/work/i-cube/I-CUBE-HUAWEI/Projects/NUCLEO-L496ZG/Applications/Cloud/mqtt-ota/Src\stm32l4xx_nucleo_bus.c ****   }
 533:D:/fchai/work/i-cube/I-CUBE-HUAWEI/Projects/NUCLEO-L496ZG/Applications/Cloud/mqtt-ota/Src\stm32l4xx_nucleo_bus.c **** 
 534:D:/fchai/work/i-cube/I-CUBE-HUAWEI/Projects/NUCLEO-L496ZG/Applications/Cloud/mqtt-ota/Src\stm32l4xx_nucleo_bus.c ****   if (HAL_I2CEx_ConfigAnalogFilter(hi2c, I2C_ANALOGFILTER_ENABLE) != HAL_OK)
 535:D:/fchai/work/i-cube/I-CUBE-HUAWEI/Projects/NUCLEO-L496ZG/Applications/Cloud/mqtt-ota/Src\stm32l4xx_nucleo_bus.c ****   {
 536:D:/fchai/work/i-cube/I-CUBE-HUAWEI/Projects/NUCLEO-L496ZG/Applications/Cloud/mqtt-ota/Src\stm32l4xx_nucleo_bus.c ****     ret = HAL_ERROR;
 537:D:/fchai/work/i-cube/I-CUBE-HUAWEI/Projects/NUCLEO-L496ZG/Applications/Cloud/mqtt-ota/Src\stm32l4xx_nucleo_bus.c ****   }
 538:D:/fchai/work/i-cube/I-CUBE-HUAWEI/Projects/NUCLEO-L496ZG/Applications/Cloud/mqtt-ota/Src\stm32l4xx_nucleo_bus.c **** 
 539:D:/fchai/work/i-cube/I-CUBE-HUAWEI/Projects/NUCLEO-L496ZG/Applications/Cloud/mqtt-ota/Src\stm32l4xx_nucleo_bus.c ****   if (HAL_I2CEx_ConfigDigitalFilter(hi2c, 0) != HAL_OK)
 540:D:/fchai/work/i-cube/I-CUBE-HUAWEI/Projects/NUCLEO-L496ZG/Applications/Cloud/mqtt-ota/Src\stm32l4xx_nucleo_bus.c ****   {
 541:D:/fchai/work/i-cube/I-CUBE-HUAWEI/Projects/NUCLEO-L496ZG/Applications/Cloud/mqtt-ota/Src\stm32l4xx_nucleo_bus.c ****     ret = HAL_ERROR;
 542:D:/fchai/work/i-cube/I-CUBE-HUAWEI/Projects/NUCLEO-L496ZG/Applications/Cloud/mqtt-ota/Src\stm32l4xx_nucleo_bus.c ****   }
 543:D:/fchai/work/i-cube/I-CUBE-HUAWEI/Projects/NUCLEO-L496ZG/Applications/Cloud/mqtt-ota/Src\stm32l4xx_nucleo_bus.c **** 
 544:D:/fchai/work/i-cube/I-CUBE-HUAWEI/Projects/NUCLEO-L496ZG/Applications/Cloud/mqtt-ota/Src\stm32l4xx_nucleo_bus.c ****   return ret;
 545:D:/fchai/work/i-cube/I-CUBE-HUAWEI/Projects/NUCLEO-L496ZG/Applications/Cloud/mqtt-ota/Src\stm32l4xx_nucleo_bus.c **** }
 546:D:/fchai/work/i-cube/I-CUBE-HUAWEI/Projects/NUCLEO-L496ZG/Applications/Cloud/mqtt-ota/Src\stm32l4xx_nucleo_bus.c **** 
 547:D:/fchai/work/i-cube/I-CUBE-HUAWEI/Projects/NUCLEO-L496ZG/Applications/Cloud/mqtt-ota/Src\stm32l4xx_nucleo_bus.c **** static void I2C1_MspInit(I2C_HandleTypeDef* i2cHandle)
 548:D:/fchai/work/i-cube/I-CUBE-HUAWEI/Projects/NUCLEO-L496ZG/Applications/Cloud/mqtt-ota/Src\stm32l4xx_nucleo_bus.c **** {
 549:D:/fchai/work/i-cube/I-CUBE-HUAWEI/Projects/NUCLEO-L496ZG/Applications/Cloud/mqtt-ota/Src\stm32l4xx_nucleo_bus.c ****   GPIO_InitTypeDef GPIO_InitStruct;
 550:D:/fchai/work/i-cube/I-CUBE-HUAWEI/Projects/NUCLEO-L496ZG/Applications/Cloud/mqtt-ota/Src\stm32l4xx_nucleo_bus.c ****   /* USER CODE BEGIN I2C1_MspInit 0 */
 551:D:/fchai/work/i-cube/I-CUBE-HUAWEI/Projects/NUCLEO-L496ZG/Applications/Cloud/mqtt-ota/Src\stm32l4xx_nucleo_bus.c **** 
 552:D:/fchai/work/i-cube/I-CUBE-HUAWEI/Projects/NUCLEO-L496ZG/Applications/Cloud/mqtt-ota/Src\stm32l4xx_nucleo_bus.c ****   /* USER CODE END I2C1_MspInit 0 */
 553:D:/fchai/work/i-cube/I-CUBE-HUAWEI/Projects/NUCLEO-L496ZG/Applications/Cloud/mqtt-ota/Src\stm32l4xx_nucleo_bus.c ****   
 554:D:/fchai/work/i-cube/I-CUBE-HUAWEI/Projects/NUCLEO-L496ZG/Applications/Cloud/mqtt-ota/Src\stm32l4xx_nucleo_bus.c ****     __HAL_RCC_GPIOB_CLK_ENABLE();
 555:D:/fchai/work/i-cube/I-CUBE-HUAWEI/Projects/NUCLEO-L496ZG/Applications/Cloud/mqtt-ota/Src\stm32l4xx_nucleo_bus.c ****     /**I2C1 GPIO Configuration    
 556:D:/fchai/work/i-cube/I-CUBE-HUAWEI/Projects/NUCLEO-L496ZG/Applications/Cloud/mqtt-ota/Src\stm32l4xx_nucleo_bus.c ****     PB8     ------> I2C1_SCL
 557:D:/fchai/work/i-cube/I-CUBE-HUAWEI/Projects/NUCLEO-L496ZG/Applications/Cloud/mqtt-ota/Src\stm32l4xx_nucleo_bus.c ****     PB9     ------> I2C1_SDA 
 558:D:/fchai/work/i-cube/I-CUBE-HUAWEI/Projects/NUCLEO-L496ZG/Applications/Cloud/mqtt-ota/Src\stm32l4xx_nucleo_bus.c ****     */
 559:D:/fchai/work/i-cube/I-CUBE-HUAWEI/Projects/NUCLEO-L496ZG/Applications/Cloud/mqtt-ota/Src\stm32l4xx_nucleo_bus.c ****     GPIO_InitStruct.Pin = GPIO_PIN_8|GPIO_PIN_9;
 560:D:/fchai/work/i-cube/I-CUBE-HUAWEI/Projects/NUCLEO-L496ZG/Applications/Cloud/mqtt-ota/Src\stm32l4xx_nucleo_bus.c ****     GPIO_InitStruct.Mode = GPIO_MODE_AF_OD;
 561:D:/fchai/work/i-cube/I-CUBE-HUAWEI/Projects/NUCLEO-L496ZG/Applications/Cloud/mqtt-ota/Src\stm32l4xx_nucleo_bus.c ****     GPIO_InitStruct.Pull = GPIO_PULLUP;
 562:D:/fchai/work/i-cube/I-CUBE-HUAWEI/Projects/NUCLEO-L496ZG/Applications/Cloud/mqtt-ota/Src\stm32l4xx_nucleo_bus.c ****     GPIO_InitStruct.Speed = GPIO_SPEED_FREQ_VERY_HIGH;
ARM GAS  T:\msys\tmp\cccQ2VxF.s 			page 12


 563:D:/fchai/work/i-cube/I-CUBE-HUAWEI/Projects/NUCLEO-L496ZG/Applications/Cloud/mqtt-ota/Src\stm32l4xx_nucleo_bus.c ****     GPIO_InitStruct.Alternate = GPIO_AF4_I2C1;
 564:D:/fchai/work/i-cube/I-CUBE-HUAWEI/Projects/NUCLEO-L496ZG/Applications/Cloud/mqtt-ota/Src\stm32l4xx_nucleo_bus.c ****     HAL_GPIO_Init(GPIOB, &GPIO_InitStruct);
 565:D:/fchai/work/i-cube/I-CUBE-HUAWEI/Projects/NUCLEO-L496ZG/Applications/Cloud/mqtt-ota/Src\stm32l4xx_nucleo_bus.c **** 
 566:D:/fchai/work/i-cube/I-CUBE-HUAWEI/Projects/NUCLEO-L496ZG/Applications/Cloud/mqtt-ota/Src\stm32l4xx_nucleo_bus.c ****     /* Peripheral clock enable */
 567:D:/fchai/work/i-cube/I-CUBE-HUAWEI/Projects/NUCLEO-L496ZG/Applications/Cloud/mqtt-ota/Src\stm32l4xx_nucleo_bus.c ****     __HAL_RCC_I2C1_CLK_ENABLE();
 568:D:/fchai/work/i-cube/I-CUBE-HUAWEI/Projects/NUCLEO-L496ZG/Applications/Cloud/mqtt-ota/Src\stm32l4xx_nucleo_bus.c ****   /* USER CODE BEGIN I2C1_MspInit 1 */
 569:D:/fchai/work/i-cube/I-CUBE-HUAWEI/Projects/NUCLEO-L496ZG/Applications/Cloud/mqtt-ota/Src\stm32l4xx_nucleo_bus.c **** 
 570:D:/fchai/work/i-cube/I-CUBE-HUAWEI/Projects/NUCLEO-L496ZG/Applications/Cloud/mqtt-ota/Src\stm32l4xx_nucleo_bus.c ****   /* USER CODE END I2C1_MspInit 1 */
 571:D:/fchai/work/i-cube/I-CUBE-HUAWEI/Projects/NUCLEO-L496ZG/Applications/Cloud/mqtt-ota/Src\stm32l4xx_nucleo_bus.c **** }
 572:D:/fchai/work/i-cube/I-CUBE-HUAWEI/Projects/NUCLEO-L496ZG/Applications/Cloud/mqtt-ota/Src\stm32l4xx_nucleo_bus.c **** 
 573:D:/fchai/work/i-cube/I-CUBE-HUAWEI/Projects/NUCLEO-L496ZG/Applications/Cloud/mqtt-ota/Src\stm32l4xx_nucleo_bus.c **** static void I2C1_MspDeInit(I2C_HandleTypeDef* i2cHandle)
  64              		.loc 1 573 13 view .LVU13
  65              	.LVL1:
  66              	.LBB7:
 574:D:/fchai/work/i-cube/I-CUBE-HUAWEI/Projects/NUCLEO-L496ZG/Applications/Cloud/mqtt-ota/Src\stm32l4xx_nucleo_bus.c **** {
 575:D:/fchai/work/i-cube/I-CUBE-HUAWEI/Projects/NUCLEO-L496ZG/Applications/Cloud/mqtt-ota/Src\stm32l4xx_nucleo_bus.c ****   /* USER CODE BEGIN I2C1_MspDeInit 0 */
 576:D:/fchai/work/i-cube/I-CUBE-HUAWEI/Projects/NUCLEO-L496ZG/Applications/Cloud/mqtt-ota/Src\stm32l4xx_nucleo_bus.c **** 
 577:D:/fchai/work/i-cube/I-CUBE-HUAWEI/Projects/NUCLEO-L496ZG/Applications/Cloud/mqtt-ota/Src\stm32l4xx_nucleo_bus.c ****   /* USER CODE END I2C1_MspDeInit 0 */
 578:D:/fchai/work/i-cube/I-CUBE-HUAWEI/Projects/NUCLEO-L496ZG/Applications/Cloud/mqtt-ota/Src\stm32l4xx_nucleo_bus.c ****     /* Peripheral clock disable */
 579:D:/fchai/work/i-cube/I-CUBE-HUAWEI/Projects/NUCLEO-L496ZG/Applications/Cloud/mqtt-ota/Src\stm32l4xx_nucleo_bus.c ****     __HAL_RCC_I2C1_CLK_DISABLE();
  67              		.loc 1 579 5 view .LVU14
  68 0012 0A4A     		ldr	r2, .L11+4
 580:D:/fchai/work/i-cube/I-CUBE-HUAWEI/Projects/NUCLEO-L496ZG/Applications/Cloud/mqtt-ota/Src\stm32l4xx_nucleo_bus.c ****   
 581:D:/fchai/work/i-cube/I-CUBE-HUAWEI/Projects/NUCLEO-L496ZG/Applications/Cloud/mqtt-ota/Src\stm32l4xx_nucleo_bus.c ****     /**I2C1 GPIO Configuration    
 582:D:/fchai/work/i-cube/I-CUBE-HUAWEI/Projects/NUCLEO-L496ZG/Applications/Cloud/mqtt-ota/Src\stm32l4xx_nucleo_bus.c ****     PB8     ------> I2C1_SCL
 583:D:/fchai/work/i-cube/I-CUBE-HUAWEI/Projects/NUCLEO-L496ZG/Applications/Cloud/mqtt-ota/Src\stm32l4xx_nucleo_bus.c ****     PB9     ------> I2C1_SDA 
 584:D:/fchai/work/i-cube/I-CUBE-HUAWEI/Projects/NUCLEO-L496ZG/Applications/Cloud/mqtt-ota/Src\stm32l4xx_nucleo_bus.c ****     */
 585:D:/fchai/work/i-cube/I-CUBE-HUAWEI/Projects/NUCLEO-L496ZG/Applications/Cloud/mqtt-ota/Src\stm32l4xx_nucleo_bus.c ****     HAL_GPIO_DeInit(GPIOB, GPIO_PIN_8|GPIO_PIN_9);
  69              		.loc 1 585 5 is_stmt 0 view .LVU15
  70 0014 0A48     		ldr	r0, .L11+8
 579:D:/fchai/work/i-cube/I-CUBE-HUAWEI/Projects/NUCLEO-L496ZG/Applications/Cloud/mqtt-ota/Src\stm32l4xx_nucleo_bus.c ****   
  71              		.loc 1 579 5 view .LVU16
  72 0016 936D     		ldr	r3, [r2, #88]
  73 0018 23F40013 		bic	r3, r3, #2097152
  74 001c 9365     		str	r3, [r2, #88]
  75              		.loc 1 585 5 is_stmt 1 view .LVU17
  76 001e 4FF44071 		mov	r1, #768
  77 0022 FFF7FEFF 		bl	HAL_GPIO_DeInit
  78              	.LVL2:
  79              	.LBE7:
  80              	.LBE6:
 270:D:/fchai/work/i-cube/I-CUBE-HUAWEI/Projects/NUCLEO-L496ZG/Applications/Cloud/mqtt-ota/Src\stm32l4xx_nucleo_bus.c ****       {
  81              		.loc 1 270 7 view .LVU18
 270:D:/fchai/work/i-cube/I-CUBE-HUAWEI/Projects/NUCLEO-L496ZG/Applications/Cloud/mqtt-ota/Src\stm32l4xx_nucleo_bus.c ****       {
  82              		.loc 1 270 11 is_stmt 0 view .LVU19
  83 0026 0748     		ldr	r0, .L11+12
  84 0028 FFF7FEFF 		bl	HAL_I2C_DeInit
  85              	.LVL3:
 270:D:/fchai/work/i-cube/I-CUBE-HUAWEI/Projects/NUCLEO-L496ZG/Applications/Cloud/mqtt-ota/Src\stm32l4xx_nucleo_bus.c ****       {
  86              		.loc 1 270 10 view .LVU20
  87 002c 0028     		cmp	r0, #0
  88 002e EED0     		beq	.L4
 272:D:/fchai/work/i-cube/I-CUBE-HUAWEI/Projects/NUCLEO-L496ZG/Applications/Cloud/mqtt-ota/Src\stm32l4xx_nucleo_bus.c ****       }
  89              		.loc 1 272 13 view .LVU21
  90 0030 6FF00700 		mvn	r0, #7
  91              	.LVL4:
 276:D:/fchai/work/i-cube/I-CUBE-HUAWEI/Projects/NUCLEO-L496ZG/Applications/Cloud/mqtt-ota/Src\stm32l4xx_nucleo_bus.c **** }
ARM GAS  T:\msys\tmp\cccQ2VxF.s 			page 13


  92              		.loc 1 276 3 is_stmt 1 view .LVU22
 277:D:/fchai/work/i-cube/I-CUBE-HUAWEI/Projects/NUCLEO-L496ZG/Applications/Cloud/mqtt-ota/Src\stm32l4xx_nucleo_bus.c **** 
  93              		.loc 1 277 1 is_stmt 0 view .LVU23
  94 0034 08BD     		pop	{r3, pc}
  95              	.L12:
  96 0036 00BF     		.align	2
  97              	.L11:
  98 0038 00000000 		.word	.LANCHOR0
  99 003c 00100240 		.word	1073876992
 100 0040 00040048 		.word	1207960576
 101 0044 00000000 		.word	hi2c1
 102              		.cfi_endproc
 103              	.LFE124:
 105              		.section	.text.BSP_I2C1_IsReady,"ax",%progbits
 106              		.align	1
 107              		.p2align 2,,3
 108              		.global	BSP_I2C1_IsReady
 109              		.syntax unified
 110              		.thumb
 111              		.thumb_func
 112              		.fpu fpv4-sp-d16
 114              	BSP_I2C1_IsReady:
 115              	.LVL5:
 116              	.LFB125:
 286:D:/fchai/work/i-cube/I-CUBE-HUAWEI/Projects/NUCLEO-L496ZG/Applications/Cloud/mqtt-ota/Src\stm32l4xx_nucleo_bus.c ****   int32_t ret = BSP_ERROR_NONE;
 117              		.loc 1 286 1 is_stmt 1 view -0
 118              		.cfi_startproc
 119              		@ args = 0, pretend = 0, frame = 0
 120              		@ frame_needed = 0, uses_anonymous_args = 0
 287:D:/fchai/work/i-cube/I-CUBE-HUAWEI/Projects/NUCLEO-L496ZG/Applications/Cloud/mqtt-ota/Src\stm32l4xx_nucleo_bus.c ****   
 121              		.loc 1 287 3 view .LVU25
 289:D:/fchai/work/i-cube/I-CUBE-HUAWEI/Projects/NUCLEO-L496ZG/Applications/Cloud/mqtt-ota/Src\stm32l4xx_nucleo_bus.c ****   {
 122              		.loc 1 289 3 view .LVU26
 286:D:/fchai/work/i-cube/I-CUBE-HUAWEI/Projects/NUCLEO-L496ZG/Applications/Cloud/mqtt-ota/Src\stm32l4xx_nucleo_bus.c ****   int32_t ret = BSP_ERROR_NONE;
 123              		.loc 1 286 1 is_stmt 0 view .LVU27
 124 0000 08B5     		push	{r3, lr}
 125              	.LCFI1:
 126              		.cfi_def_cfa_offset 8
 127              		.cfi_offset 3, -8
 128              		.cfi_offset 14, -4
 286:D:/fchai/work/i-cube/I-CUBE-HUAWEI/Projects/NUCLEO-L496ZG/Applications/Cloud/mqtt-ota/Src\stm32l4xx_nucleo_bus.c ****   int32_t ret = BSP_ERROR_NONE;
 129              		.loc 1 286 1 view .LVU28
 130 0002 0A46     		mov	r2, r1
 289:D:/fchai/work/i-cube/I-CUBE-HUAWEI/Projects/NUCLEO-L496ZG/Applications/Cloud/mqtt-ota/Src\stm32l4xx_nucleo_bus.c ****   {
 131              		.loc 1 289 7 view .LVU29
 132 0004 4FF48053 		mov	r3, #4096
 133 0008 0146     		mov	r1, r0
 134              	.LVL6:
 289:D:/fchai/work/i-cube/I-CUBE-HUAWEI/Projects/NUCLEO-L496ZG/Applications/Cloud/mqtt-ota/Src\stm32l4xx_nucleo_bus.c ****   {
 135              		.loc 1 289 7 view .LVU30
 136 000a 0448     		ldr	r0, .L17
 137              	.LVL7:
 289:D:/fchai/work/i-cube/I-CUBE-HUAWEI/Projects/NUCLEO-L496ZG/Applications/Cloud/mqtt-ota/Src\stm32l4xx_nucleo_bus.c ****   {
 138              		.loc 1 289 7 view .LVU31
 139 000c FFF7FEFF 		bl	HAL_I2C_IsDeviceReady
 140              	.LVL8:
 289:D:/fchai/work/i-cube/I-CUBE-HUAWEI/Projects/NUCLEO-L496ZG/Applications/Cloud/mqtt-ota/Src\stm32l4xx_nucleo_bus.c ****   {
ARM GAS  T:\msys\tmp\cccQ2VxF.s 			page 14


 141              		.loc 1 289 6 view .LVU32
 142 0010 0028     		cmp	r0, #0
 295:D:/fchai/work/i-cube/I-CUBE-HUAWEI/Projects/NUCLEO-L496ZG/Applications/Cloud/mqtt-ota/Src\stm32l4xx_nucleo_bus.c **** 
 143              		.loc 1 295 1 view .LVU33
 144 0012 14BF     		ite	ne
 145 0014 6FF00200 		mvnne	r0, #2
 146 0018 0020     		moveq	r0, #0
 147 001a 08BD     		pop	{r3, pc}
 148              	.L18:
 149              		.align	2
 150              	.L17:
 151 001c 00000000 		.word	hi2c1
 152              		.cfi_endproc
 153              	.LFE125:
 155              		.section	.text.BSP_I2C1_WriteReg,"ax",%progbits
 156              		.align	1
 157              		.p2align 2,,3
 158              		.global	BSP_I2C1_WriteReg
 159              		.syntax unified
 160              		.thumb
 161              		.thumb_func
 162              		.fpu fpv4-sp-d16
 164              	BSP_I2C1_WriteReg:
 165              	.LVL9:
 166              	.LFB126:
 307:D:/fchai/work/i-cube/I-CUBE-HUAWEI/Projects/NUCLEO-L496ZG/Applications/Cloud/mqtt-ota/Src\stm32l4xx_nucleo_bus.c ****   int32_t ret = BSP_ERROR_NONE;  
 167              		.loc 1 307 1 is_stmt 1 view -0
 168              		.cfi_startproc
 169              		@ args = 0, pretend = 0, frame = 0
 170              		@ frame_needed = 0, uses_anonymous_args = 0
 308:D:/fchai/work/i-cube/I-CUBE-HUAWEI/Projects/NUCLEO-L496ZG/Applications/Cloud/mqtt-ota/Src\stm32l4xx_nucleo_bus.c ****   
 171              		.loc 1 308 3 view .LVU35
 310:D:/fchai/work/i-cube/I-CUBE-HUAWEI/Projects/NUCLEO-L496ZG/Applications/Cloud/mqtt-ota/Src\stm32l4xx_nucleo_bus.c ****   {    
 172              		.loc 1 310 3 view .LVU36
 307:D:/fchai/work/i-cube/I-CUBE-HUAWEI/Projects/NUCLEO-L496ZG/Applications/Cloud/mqtt-ota/Src\stm32l4xx_nucleo_bus.c ****   int32_t ret = BSP_ERROR_NONE;  
 173              		.loc 1 307 1 is_stmt 0 view .LVU37
 174 0000 30B5     		push	{r4, r5, lr}
 175              	.LCFI2:
 176              		.cfi_def_cfa_offset 12
 177              		.cfi_offset 4, -12
 178              		.cfi_offset 5, -8
 179              		.cfi_offset 14, -4
 180 0002 85B0     		sub	sp, sp, #20
 181              	.LCFI3:
 182              		.cfi_def_cfa_offset 32
 307:D:/fchai/work/i-cube/I-CUBE-HUAWEI/Projects/NUCLEO-L496ZG/Applications/Cloud/mqtt-ota/Src\stm32l4xx_nucleo_bus.c ****   int32_t ret = BSP_ERROR_NONE;  
 183              		.loc 1 307 1 view .LVU38
 184 0004 0D46     		mov	r5, r1
 310:D:/fchai/work/i-cube/I-CUBE-HUAWEI/Projects/NUCLEO-L496ZG/Applications/Cloud/mqtt-ota/Src\stm32l4xx_nucleo_bus.c ****   {    
 185              		.loc 1 310 7 view .LVU39
 186 0006 4FF48054 		mov	r4, #4096
 187 000a CDE90134 		strd	r3, r4, [sp, #4]
 188 000e 0146     		mov	r1, r0
 189              	.LVL10:
 310:D:/fchai/work/i-cube/I-CUBE-HUAWEI/Projects/NUCLEO-L496ZG/Applications/Cloud/mqtt-ota/Src\stm32l4xx_nucleo_bus.c ****   {    
 190              		.loc 1 310 7 view .LVU40
 191 0010 0092     		str	r2, [sp]
ARM GAS  T:\msys\tmp\cccQ2VxF.s 			page 15


 192 0012 0948     		ldr	r0, .L25
 193              	.LVL11:
 310:D:/fchai/work/i-cube/I-CUBE-HUAWEI/Projects/NUCLEO-L496ZG/Applications/Cloud/mqtt-ota/Src\stm32l4xx_nucleo_bus.c ****   {    
 194              		.loc 1 310 7 view .LVU41
 195 0014 2A46     		mov	r2, r5
 196              	.LVL12:
 310:D:/fchai/work/i-cube/I-CUBE-HUAWEI/Projects/NUCLEO-L496ZG/Applications/Cloud/mqtt-ota/Src\stm32l4xx_nucleo_bus.c ****   {    
 197              		.loc 1 310 7 view .LVU42
 198 0016 0123     		movs	r3, #1
 199              	.LVL13:
 310:D:/fchai/work/i-cube/I-CUBE-HUAWEI/Projects/NUCLEO-L496ZG/Applications/Cloud/mqtt-ota/Src\stm32l4xx_nucleo_bus.c ****   {    
 200              		.loc 1 310 7 view .LVU43
 201 0018 FFF7FEFF 		bl	HAL_I2C_Mem_Write
 202              	.LVL14:
 310:D:/fchai/work/i-cube/I-CUBE-HUAWEI/Projects/NUCLEO-L496ZG/Applications/Cloud/mqtt-ota/Src\stm32l4xx_nucleo_bus.c ****   {    
 203              		.loc 1 310 6 view .LVU44
 204 001c 08B9     		cbnz	r0, .L24
 322:D:/fchai/work/i-cube/I-CUBE-HUAWEI/Projects/NUCLEO-L496ZG/Applications/Cloud/mqtt-ota/Src\stm32l4xx_nucleo_bus.c **** 
 205              		.loc 1 322 1 view .LVU45
 206 001e 05B0     		add	sp, sp, #20
 207              	.LCFI4:
 208              		.cfi_remember_state
 209              		.cfi_def_cfa_offset 12
 210              		@ sp needed
 211 0020 30BD     		pop	{r4, r5, pc}
 212              	.L24:
 213              	.LCFI5:
 214              		.cfi_restore_state
 312:D:/fchai/work/i-cube/I-CUBE-HUAWEI/Projects/NUCLEO-L496ZG/Applications/Cloud/mqtt-ota/Src\stm32l4xx_nucleo_bus.c ****     {
 215              		.loc 1 312 5 is_stmt 1 view .LVU46
 312:D:/fchai/work/i-cube/I-CUBE-HUAWEI/Projects/NUCLEO-L496ZG/Applications/Cloud/mqtt-ota/Src\stm32l4xx_nucleo_bus.c ****     {
 216              		.loc 1 312 9 is_stmt 0 view .LVU47
 217 0022 0548     		ldr	r0, .L25
 218 0024 FFF7FEFF 		bl	HAL_I2C_GetError
 219              	.LVL15:
 318:D:/fchai/work/i-cube/I-CUBE-HUAWEI/Projects/NUCLEO-L496ZG/Applications/Cloud/mqtt-ota/Src\stm32l4xx_nucleo_bus.c ****     }
 220              		.loc 1 318 11 view .LVU48
 221 0028 0428     		cmp	r0, #4
 222 002a 0CBF     		ite	eq
 223 002c 6FF06500 		mvneq	r0, #101
 224 0030 6FF00300 		mvnne	r0, #3
 322:D:/fchai/work/i-cube/I-CUBE-HUAWEI/Projects/NUCLEO-L496ZG/Applications/Cloud/mqtt-ota/Src\stm32l4xx_nucleo_bus.c **** 
 225              		.loc 1 322 1 view .LVU49
 226 0034 05B0     		add	sp, sp, #20
 227              	.LCFI6:
 228              		.cfi_def_cfa_offset 12
 229              		@ sp needed
 230 0036 30BD     		pop	{r4, r5, pc}
 231              	.L26:
 232              		.align	2
 233              	.L25:
 234 0038 00000000 		.word	hi2c1
 235              		.cfi_endproc
 236              	.LFE126:
 238              		.section	.text.BSP_I2C1_ReadReg,"ax",%progbits
 239              		.align	1
 240              		.p2align 2,,3
ARM GAS  T:\msys\tmp\cccQ2VxF.s 			page 16


 241              		.global	BSP_I2C1_ReadReg
 242              		.syntax unified
 243              		.thumb
 244              		.thumb_func
 245              		.fpu fpv4-sp-d16
 247              	BSP_I2C1_ReadReg:
 248              	.LVL16:
 249              	.LFB127:
 333:D:/fchai/work/i-cube/I-CUBE-HUAWEI/Projects/NUCLEO-L496ZG/Applications/Cloud/mqtt-ota/Src\stm32l4xx_nucleo_bus.c ****   int32_t ret = BSP_ERROR_NONE;
 250              		.loc 1 333 1 is_stmt 1 view -0
 251              		.cfi_startproc
 252              		@ args = 0, pretend = 0, frame = 0
 253              		@ frame_needed = 0, uses_anonymous_args = 0
 334:D:/fchai/work/i-cube/I-CUBE-HUAWEI/Projects/NUCLEO-L496ZG/Applications/Cloud/mqtt-ota/Src\stm32l4xx_nucleo_bus.c ****   
 254              		.loc 1 334 3 view .LVU51
 336:D:/fchai/work/i-cube/I-CUBE-HUAWEI/Projects/NUCLEO-L496ZG/Applications/Cloud/mqtt-ota/Src\stm32l4xx_nucleo_bus.c ****   { 
 255              		.loc 1 336 3 view .LVU52
 333:D:/fchai/work/i-cube/I-CUBE-HUAWEI/Projects/NUCLEO-L496ZG/Applications/Cloud/mqtt-ota/Src\stm32l4xx_nucleo_bus.c ****   int32_t ret = BSP_ERROR_NONE;
 256              		.loc 1 333 1 is_stmt 0 view .LVU53
 257 0000 30B5     		push	{r4, r5, lr}
 258              	.LCFI7:
 259              		.cfi_def_cfa_offset 12
 260              		.cfi_offset 4, -12
 261              		.cfi_offset 5, -8
 262              		.cfi_offset 14, -4
 263 0002 85B0     		sub	sp, sp, #20
 264              	.LCFI8:
 265              		.cfi_def_cfa_offset 32
 333:D:/fchai/work/i-cube/I-CUBE-HUAWEI/Projects/NUCLEO-L496ZG/Applications/Cloud/mqtt-ota/Src\stm32l4xx_nucleo_bus.c ****   int32_t ret = BSP_ERROR_NONE;
 266              		.loc 1 333 1 view .LVU54
 267 0004 0D46     		mov	r5, r1
 336:D:/fchai/work/i-cube/I-CUBE-HUAWEI/Projects/NUCLEO-L496ZG/Applications/Cloud/mqtt-ota/Src\stm32l4xx_nucleo_bus.c ****   { 
 268              		.loc 1 336 7 view .LVU55
 269 0006 4FF48054 		mov	r4, #4096
 270 000a CDE90134 		strd	r3, r4, [sp, #4]
 271 000e 0146     		mov	r1, r0
 272              	.LVL17:
 336:D:/fchai/work/i-cube/I-CUBE-HUAWEI/Projects/NUCLEO-L496ZG/Applications/Cloud/mqtt-ota/Src\stm32l4xx_nucleo_bus.c ****   { 
 273              		.loc 1 336 7 view .LVU56
 274 0010 0092     		str	r2, [sp]
 275 0012 0948     		ldr	r0, .L33
 276              	.LVL18:
 336:D:/fchai/work/i-cube/I-CUBE-HUAWEI/Projects/NUCLEO-L496ZG/Applications/Cloud/mqtt-ota/Src\stm32l4xx_nucleo_bus.c ****   { 
 277              		.loc 1 336 7 view .LVU57
 278 0014 2A46     		mov	r2, r5
 279              	.LVL19:
 336:D:/fchai/work/i-cube/I-CUBE-HUAWEI/Projects/NUCLEO-L496ZG/Applications/Cloud/mqtt-ota/Src\stm32l4xx_nucleo_bus.c ****   { 
 280              		.loc 1 336 7 view .LVU58
 281 0016 0123     		movs	r3, #1
 282              	.LVL20:
 336:D:/fchai/work/i-cube/I-CUBE-HUAWEI/Projects/NUCLEO-L496ZG/Applications/Cloud/mqtt-ota/Src\stm32l4xx_nucleo_bus.c ****   { 
 283              		.loc 1 336 7 view .LVU59
 284 0018 FFF7FEFF 		bl	HAL_I2C_Mem_Read
 285              	.LVL21:
 336:D:/fchai/work/i-cube/I-CUBE-HUAWEI/Projects/NUCLEO-L496ZG/Applications/Cloud/mqtt-ota/Src\stm32l4xx_nucleo_bus.c ****   { 
 286              		.loc 1 336 6 view .LVU60
 287 001c 08B9     		cbnz	r0, .L32
ARM GAS  T:\msys\tmp\cccQ2VxF.s 			page 17


 348:D:/fchai/work/i-cube/I-CUBE-HUAWEI/Projects/NUCLEO-L496ZG/Applications/Cloud/mqtt-ota/Src\stm32l4xx_nucleo_bus.c **** 
 288              		.loc 1 348 1 view .LVU61
 289 001e 05B0     		add	sp, sp, #20
 290              	.LCFI9:
 291              		.cfi_remember_state
 292              		.cfi_def_cfa_offset 12
 293              		@ sp needed
 294 0020 30BD     		pop	{r4, r5, pc}
 295              	.L32:
 296              	.LCFI10:
 297              		.cfi_restore_state
 338:D:/fchai/work/i-cube/I-CUBE-HUAWEI/Projects/NUCLEO-L496ZG/Applications/Cloud/mqtt-ota/Src\stm32l4xx_nucleo_bus.c ****     {
 298              		.loc 1 338 5 is_stmt 1 view .LVU62
 338:D:/fchai/work/i-cube/I-CUBE-HUAWEI/Projects/NUCLEO-L496ZG/Applications/Cloud/mqtt-ota/Src\stm32l4xx_nucleo_bus.c ****     {
 299              		.loc 1 338 9 is_stmt 0 view .LVU63
 300 0022 0548     		ldr	r0, .L33
 301 0024 FFF7FEFF 		bl	HAL_I2C_GetError
 302              	.LVL22:
 344:D:/fchai/work/i-cube/I-CUBE-HUAWEI/Projects/NUCLEO-L496ZG/Applications/Cloud/mqtt-ota/Src\stm32l4xx_nucleo_bus.c ****     }
 303              		.loc 1 344 11 view .LVU64
 304 0028 0428     		cmp	r0, #4
 305 002a 0CBF     		ite	eq
 306 002c 6FF06500 		mvneq	r0, #101
 307 0030 6FF00300 		mvnne	r0, #3
 348:D:/fchai/work/i-cube/I-CUBE-HUAWEI/Projects/NUCLEO-L496ZG/Applications/Cloud/mqtt-ota/Src\stm32l4xx_nucleo_bus.c **** 
 308              		.loc 1 348 1 view .LVU65
 309 0034 05B0     		add	sp, sp, #20
 310              	.LCFI11:
 311              		.cfi_def_cfa_offset 12
 312              		@ sp needed
 313 0036 30BD     		pop	{r4, r5, pc}
 314              	.L34:
 315              		.align	2
 316              	.L33:
 317 0038 00000000 		.word	hi2c1
 318              		.cfi_endproc
 319              	.LFE127:
 321              		.section	.text.BSP_I2C1_WriteReg16,"ax",%progbits
 322              		.align	1
 323              		.p2align 2,,3
 324              		.global	BSP_I2C1_WriteReg16
 325              		.syntax unified
 326              		.thumb
 327              		.thumb_func
 328              		.fpu fpv4-sp-d16
 330              	BSP_I2C1_WriteReg16:
 331              	.LVL23:
 332              	.LFB128:
 361:D:/fchai/work/i-cube/I-CUBE-HUAWEI/Projects/NUCLEO-L496ZG/Applications/Cloud/mqtt-ota/Src\stm32l4xx_nucleo_bus.c ****   int32_t ret = BSP_ERROR_NONE;
 333              		.loc 1 361 1 is_stmt 1 view -0
 334              		.cfi_startproc
 335              		@ args = 0, pretend = 0, frame = 0
 336              		@ frame_needed = 0, uses_anonymous_args = 0
 362:D:/fchai/work/i-cube/I-CUBE-HUAWEI/Projects/NUCLEO-L496ZG/Applications/Cloud/mqtt-ota/Src\stm32l4xx_nucleo_bus.c ****   
 337              		.loc 1 362 3 view .LVU67
 365:D:/fchai/work/i-cube/I-CUBE-HUAWEI/Projects/NUCLEO-L496ZG/Applications/Cloud/mqtt-ota/Src\stm32l4xx_nucleo_bus.c ****   {
 338              		.loc 1 365 3 view .LVU68
ARM GAS  T:\msys\tmp\cccQ2VxF.s 			page 18


 361:D:/fchai/work/i-cube/I-CUBE-HUAWEI/Projects/NUCLEO-L496ZG/Applications/Cloud/mqtt-ota/Src\stm32l4xx_nucleo_bus.c ****   int32_t ret = BSP_ERROR_NONE;
 339              		.loc 1 361 1 is_stmt 0 view .LVU69
 340 0000 30B5     		push	{r4, r5, lr}
 341              	.LCFI12:
 342              		.cfi_def_cfa_offset 12
 343              		.cfi_offset 4, -12
 344              		.cfi_offset 5, -8
 345              		.cfi_offset 14, -4
 346 0002 85B0     		sub	sp, sp, #20
 347              	.LCFI13:
 348              		.cfi_def_cfa_offset 32
 361:D:/fchai/work/i-cube/I-CUBE-HUAWEI/Projects/NUCLEO-L496ZG/Applications/Cloud/mqtt-ota/Src\stm32l4xx_nucleo_bus.c ****   int32_t ret = BSP_ERROR_NONE;
 349              		.loc 1 361 1 view .LVU70
 350 0004 0D46     		mov	r5, r1
 365:D:/fchai/work/i-cube/I-CUBE-HUAWEI/Projects/NUCLEO-L496ZG/Applications/Cloud/mqtt-ota/Src\stm32l4xx_nucleo_bus.c ****   {
 351              		.loc 1 365 7 view .LVU71
 352 0006 4FF48054 		mov	r4, #4096
 353 000a CDE90134 		strd	r3, r4, [sp, #4]
 354 000e 0146     		mov	r1, r0
 355              	.LVL24:
 365:D:/fchai/work/i-cube/I-CUBE-HUAWEI/Projects/NUCLEO-L496ZG/Applications/Cloud/mqtt-ota/Src\stm32l4xx_nucleo_bus.c ****   {
 356              		.loc 1 365 7 view .LVU72
 357 0010 0092     		str	r2, [sp]
 358 0012 0948     		ldr	r0, .L41
 359              	.LVL25:
 365:D:/fchai/work/i-cube/I-CUBE-HUAWEI/Projects/NUCLEO-L496ZG/Applications/Cloud/mqtt-ota/Src\stm32l4xx_nucleo_bus.c ****   {
 360              		.loc 1 365 7 view .LVU73
 361 0014 2A46     		mov	r2, r5
 362              	.LVL26:
 365:D:/fchai/work/i-cube/I-CUBE-HUAWEI/Projects/NUCLEO-L496ZG/Applications/Cloud/mqtt-ota/Src\stm32l4xx_nucleo_bus.c ****   {
 363              		.loc 1 365 7 view .LVU74
 364 0016 0223     		movs	r3, #2
 365              	.LVL27:
 365:D:/fchai/work/i-cube/I-CUBE-HUAWEI/Projects/NUCLEO-L496ZG/Applications/Cloud/mqtt-ota/Src\stm32l4xx_nucleo_bus.c ****   {
 366              		.loc 1 365 7 view .LVU75
 367 0018 FFF7FEFF 		bl	HAL_I2C_Mem_Write
 368              	.LVL28:
 365:D:/fchai/work/i-cube/I-CUBE-HUAWEI/Projects/NUCLEO-L496ZG/Applications/Cloud/mqtt-ota/Src\stm32l4xx_nucleo_bus.c ****   {
 369              		.loc 1 365 6 view .LVU76
 370 001c 08B9     		cbnz	r0, .L40
 377:D:/fchai/work/i-cube/I-CUBE-HUAWEI/Projects/NUCLEO-L496ZG/Applications/Cloud/mqtt-ota/Src\stm32l4xx_nucleo_bus.c **** 
 371              		.loc 1 377 1 view .LVU77
 372 001e 05B0     		add	sp, sp, #20
 373              	.LCFI14:
 374              		.cfi_remember_state
 375              		.cfi_def_cfa_offset 12
 376              		@ sp needed
 377 0020 30BD     		pop	{r4, r5, pc}
 378              	.L40:
 379              	.LCFI15:
 380              		.cfi_restore_state
 367:D:/fchai/work/i-cube/I-CUBE-HUAWEI/Projects/NUCLEO-L496ZG/Applications/Cloud/mqtt-ota/Src\stm32l4xx_nucleo_bus.c ****     {
 381              		.loc 1 367 5 is_stmt 1 view .LVU78
 367:D:/fchai/work/i-cube/I-CUBE-HUAWEI/Projects/NUCLEO-L496ZG/Applications/Cloud/mqtt-ota/Src\stm32l4xx_nucleo_bus.c ****     {
 382              		.loc 1 367 9 is_stmt 0 view .LVU79
 383 0022 0548     		ldr	r0, .L41
 384 0024 FFF7FEFF 		bl	HAL_I2C_GetError
ARM GAS  T:\msys\tmp\cccQ2VxF.s 			page 19


 385              	.LVL29:
 373:D:/fchai/work/i-cube/I-CUBE-HUAWEI/Projects/NUCLEO-L496ZG/Applications/Cloud/mqtt-ota/Src\stm32l4xx_nucleo_bus.c ****     }
 386              		.loc 1 373 11 view .LVU80
 387 0028 0428     		cmp	r0, #4
 388 002a 0CBF     		ite	eq
 389 002c 6FF06500 		mvneq	r0, #101
 390 0030 6FF00300 		mvnne	r0, #3
 377:D:/fchai/work/i-cube/I-CUBE-HUAWEI/Projects/NUCLEO-L496ZG/Applications/Cloud/mqtt-ota/Src\stm32l4xx_nucleo_bus.c **** 
 391              		.loc 1 377 1 view .LVU81
 392 0034 05B0     		add	sp, sp, #20
 393              	.LCFI16:
 394              		.cfi_def_cfa_offset 12
 395              		@ sp needed
 396 0036 30BD     		pop	{r4, r5, pc}
 397              	.L42:
 398              		.align	2
 399              	.L41:
 400 0038 00000000 		.word	hi2c1
 401              		.cfi_endproc
 402              	.LFE128:
 404              		.section	.text.BSP_I2C1_ReadReg16,"ax",%progbits
 405              		.align	1
 406              		.p2align 2,,3
 407              		.global	BSP_I2C1_ReadReg16
 408              		.syntax unified
 409              		.thumb
 410              		.thumb_func
 411              		.fpu fpv4-sp-d16
 413              	BSP_I2C1_ReadReg16:
 414              	.LVL30:
 415              	.LFB129:
 387:D:/fchai/work/i-cube/I-CUBE-HUAWEI/Projects/NUCLEO-L496ZG/Applications/Cloud/mqtt-ota/Src\stm32l4xx_nucleo_bus.c ****   int32_t ret = BSP_ERROR_NONE;  
 416              		.loc 1 387 1 is_stmt 1 view -0
 417              		.cfi_startproc
 418              		@ args = 0, pretend = 0, frame = 0
 419              		@ frame_needed = 0, uses_anonymous_args = 0
 388:D:/fchai/work/i-cube/I-CUBE-HUAWEI/Projects/NUCLEO-L496ZG/Applications/Cloud/mqtt-ota/Src\stm32l4xx_nucleo_bus.c ****  
 420              		.loc 1 388 3 view .LVU83
 390:D:/fchai/work/i-cube/I-CUBE-HUAWEI/Projects/NUCLEO-L496ZG/Applications/Cloud/mqtt-ota/Src\stm32l4xx_nucleo_bus.c ****   {
 421              		.loc 1 390 3 view .LVU84
 387:D:/fchai/work/i-cube/I-CUBE-HUAWEI/Projects/NUCLEO-L496ZG/Applications/Cloud/mqtt-ota/Src\stm32l4xx_nucleo_bus.c ****   int32_t ret = BSP_ERROR_NONE;  
 422              		.loc 1 387 1 is_stmt 0 view .LVU85
 423 0000 30B5     		push	{r4, r5, lr}
 424              	.LCFI17:
 425              		.cfi_def_cfa_offset 12
 426              		.cfi_offset 4, -12
 427              		.cfi_offset 5, -8
 428              		.cfi_offset 14, -4
 429 0002 85B0     		sub	sp, sp, #20
 430              	.LCFI18:
 431              		.cfi_def_cfa_offset 32
 387:D:/fchai/work/i-cube/I-CUBE-HUAWEI/Projects/NUCLEO-L496ZG/Applications/Cloud/mqtt-ota/Src\stm32l4xx_nucleo_bus.c ****   int32_t ret = BSP_ERROR_NONE;  
 432              		.loc 1 387 1 view .LVU86
 433 0004 0D46     		mov	r5, r1
 390:D:/fchai/work/i-cube/I-CUBE-HUAWEI/Projects/NUCLEO-L496ZG/Applications/Cloud/mqtt-ota/Src\stm32l4xx_nucleo_bus.c ****   {
 434              		.loc 1 390 7 view .LVU87
 435 0006 4FF48054 		mov	r4, #4096
ARM GAS  T:\msys\tmp\cccQ2VxF.s 			page 20


 436 000a CDE90134 		strd	r3, r4, [sp, #4]
 437 000e 0146     		mov	r1, r0
 438              	.LVL31:
 390:D:/fchai/work/i-cube/I-CUBE-HUAWEI/Projects/NUCLEO-L496ZG/Applications/Cloud/mqtt-ota/Src\stm32l4xx_nucleo_bus.c ****   {
 439              		.loc 1 390 7 view .LVU88
 440 0010 0092     		str	r2, [sp]
 441 0012 0948     		ldr	r0, .L49
 442              	.LVL32:
 390:D:/fchai/work/i-cube/I-CUBE-HUAWEI/Projects/NUCLEO-L496ZG/Applications/Cloud/mqtt-ota/Src\stm32l4xx_nucleo_bus.c ****   {
 443              		.loc 1 390 7 view .LVU89
 444 0014 2A46     		mov	r2, r5
 445              	.LVL33:
 390:D:/fchai/work/i-cube/I-CUBE-HUAWEI/Projects/NUCLEO-L496ZG/Applications/Cloud/mqtt-ota/Src\stm32l4xx_nucleo_bus.c ****   {
 446              		.loc 1 390 7 view .LVU90
 447 0016 0223     		movs	r3, #2
 448              	.LVL34:
 390:D:/fchai/work/i-cube/I-CUBE-HUAWEI/Projects/NUCLEO-L496ZG/Applications/Cloud/mqtt-ota/Src\stm32l4xx_nucleo_bus.c ****   {
 449              		.loc 1 390 7 view .LVU91
 450 0018 FFF7FEFF 		bl	HAL_I2C_Mem_Read
 451              	.LVL35:
 390:D:/fchai/work/i-cube/I-CUBE-HUAWEI/Projects/NUCLEO-L496ZG/Applications/Cloud/mqtt-ota/Src\stm32l4xx_nucleo_bus.c ****   {
 452              		.loc 1 390 6 view .LVU92
 453 001c 08B9     		cbnz	r0, .L48
 402:D:/fchai/work/i-cube/I-CUBE-HUAWEI/Projects/NUCLEO-L496ZG/Applications/Cloud/mqtt-ota/Src\stm32l4xx_nucleo_bus.c **** 
 454              		.loc 1 402 1 view .LVU93
 455 001e 05B0     		add	sp, sp, #20
 456              	.LCFI19:
 457              		.cfi_remember_state
 458              		.cfi_def_cfa_offset 12
 459              		@ sp needed
 460 0020 30BD     		pop	{r4, r5, pc}
 461              	.L48:
 462              	.LCFI20:
 463              		.cfi_restore_state
 392:D:/fchai/work/i-cube/I-CUBE-HUAWEI/Projects/NUCLEO-L496ZG/Applications/Cloud/mqtt-ota/Src\stm32l4xx_nucleo_bus.c ****     {
 464              		.loc 1 392 5 is_stmt 1 view .LVU94
 392:D:/fchai/work/i-cube/I-CUBE-HUAWEI/Projects/NUCLEO-L496ZG/Applications/Cloud/mqtt-ota/Src\stm32l4xx_nucleo_bus.c ****     {
 465              		.loc 1 392 9 is_stmt 0 view .LVU95
 466 0022 0548     		ldr	r0, .L49
 467 0024 FFF7FEFF 		bl	HAL_I2C_GetError
 468              	.LVL36:
 398:D:/fchai/work/i-cube/I-CUBE-HUAWEI/Projects/NUCLEO-L496ZG/Applications/Cloud/mqtt-ota/Src\stm32l4xx_nucleo_bus.c ****     }
 469              		.loc 1 398 11 view .LVU96
 470 0028 0428     		cmp	r0, #4
 471 002a 14BF     		ite	ne
 472 002c 6FF06500 		mvnne	r0, #101
 473 0030 6FF00300 		mvneq	r0, #3
 402:D:/fchai/work/i-cube/I-CUBE-HUAWEI/Projects/NUCLEO-L496ZG/Applications/Cloud/mqtt-ota/Src\stm32l4xx_nucleo_bus.c **** 
 474              		.loc 1 402 1 view .LVU97
 475 0034 05B0     		add	sp, sp, #20
 476              	.LCFI21:
 477              		.cfi_def_cfa_offset 12
 478              		@ sp needed
 479 0036 30BD     		pop	{r4, r5, pc}
 480              	.L50:
 481              		.align	2
 482              	.L49:
ARM GAS  T:\msys\tmp\cccQ2VxF.s 			page 21


 483 0038 00000000 		.word	hi2c1
 484              		.cfi_endproc
 485              	.LFE129:
 487              		.section	.text.BSP_I2C1_Send,"ax",%progbits
 488              		.align	1
 489              		.p2align 2,,3
 490              		.global	BSP_I2C1_Send
 491              		.syntax unified
 492              		.thumb
 493              		.thumb_func
 494              		.fpu fpv4-sp-d16
 496              	BSP_I2C1_Send:
 497              	.LVL37:
 498              	.LFB130:
 411:D:/fchai/work/i-cube/I-CUBE-HUAWEI/Projects/NUCLEO-L496ZG/Applications/Cloud/mqtt-ota/Src\stm32l4xx_nucleo_bus.c ****   int32_t ret = BSP_ERROR_NONE;	  
 499              		.loc 1 411 74 is_stmt 1 view -0
 500              		.cfi_startproc
 501              		@ args = 0, pretend = 0, frame = 0
 502              		@ frame_needed = 0, uses_anonymous_args = 0
 412:D:/fchai/work/i-cube/I-CUBE-HUAWEI/Projects/NUCLEO-L496ZG/Applications/Cloud/mqtt-ota/Src\stm32l4xx_nucleo_bus.c ****   
 503              		.loc 1 412 3 view .LVU99
 414:D:/fchai/work/i-cube/I-CUBE-HUAWEI/Projects/NUCLEO-L496ZG/Applications/Cloud/mqtt-ota/Src\stm32l4xx_nucleo_bus.c ****   {
 504              		.loc 1 414 3 view .LVU100
 411:D:/fchai/work/i-cube/I-CUBE-HUAWEI/Projects/NUCLEO-L496ZG/Applications/Cloud/mqtt-ota/Src\stm32l4xx_nucleo_bus.c ****   int32_t ret = BSP_ERROR_NONE;	  
 505              		.loc 1 411 74 is_stmt 0 view .LVU101
 506 0000 30B5     		push	{r4, r5, lr}
 507              	.LCFI22:
 508              		.cfi_def_cfa_offset 12
 509              		.cfi_offset 4, -12
 510              		.cfi_offset 5, -8
 511              		.cfi_offset 14, -4
 512 0002 83B0     		sub	sp, sp, #12
 513              	.LCFI23:
 514              		.cfi_def_cfa_offset 24
 411:D:/fchai/work/i-cube/I-CUBE-HUAWEI/Projects/NUCLEO-L496ZG/Applications/Cloud/mqtt-ota/Src\stm32l4xx_nucleo_bus.c ****   int32_t ret = BSP_ERROR_NONE;	  
 515              		.loc 1 411 74 view .LVU102
 516 0004 0D46     		mov	r5, r1
 414:D:/fchai/work/i-cube/I-CUBE-HUAWEI/Projects/NUCLEO-L496ZG/Applications/Cloud/mqtt-ota/Src\stm32l4xx_nucleo_bus.c ****   {
 517              		.loc 1 414 7 view .LVU103
 518 0006 4FF48054 		mov	r4, #4096
 411:D:/fchai/work/i-cube/I-CUBE-HUAWEI/Projects/NUCLEO-L496ZG/Applications/Cloud/mqtt-ota/Src\stm32l4xx_nucleo_bus.c ****   int32_t ret = BSP_ERROR_NONE;	  
 519              		.loc 1 411 74 view .LVU104
 520 000a 1346     		mov	r3, r2
 414:D:/fchai/work/i-cube/I-CUBE-HUAWEI/Projects/NUCLEO-L496ZG/Applications/Cloud/mqtt-ota/Src\stm32l4xx_nucleo_bus.c ****   {
 521              		.loc 1 414 7 view .LVU105
 522 000c 0146     		mov	r1, r0
 523              	.LVL38:
 414:D:/fchai/work/i-cube/I-CUBE-HUAWEI/Projects/NUCLEO-L496ZG/Applications/Cloud/mqtt-ota/Src\stm32l4xx_nucleo_bus.c ****   {
 524              		.loc 1 414 7 view .LVU106
 525 000e 2A46     		mov	r2, r5
 526              	.LVL39:
 414:D:/fchai/work/i-cube/I-CUBE-HUAWEI/Projects/NUCLEO-L496ZG/Applications/Cloud/mqtt-ota/Src\stm32l4xx_nucleo_bus.c ****   {
 527              		.loc 1 414 7 view .LVU107
 528 0010 0848     		ldr	r0, .L57
 529              	.LVL40:
 414:D:/fchai/work/i-cube/I-CUBE-HUAWEI/Projects/NUCLEO-L496ZG/Applications/Cloud/mqtt-ota/Src\stm32l4xx_nucleo_bus.c ****   {
 530              		.loc 1 414 7 view .LVU108
ARM GAS  T:\msys\tmp\cccQ2VxF.s 			page 22


 531 0012 0094     		str	r4, [sp]
 532 0014 FFF7FEFF 		bl	HAL_I2C_Master_Transmit
 533              	.LVL41:
 414:D:/fchai/work/i-cube/I-CUBE-HUAWEI/Projects/NUCLEO-L496ZG/Applications/Cloud/mqtt-ota/Src\stm32l4xx_nucleo_bus.c ****   {
 534              		.loc 1 414 6 view .LVU109
 535 0018 08B9     		cbnz	r0, .L56
 427:D:/fchai/work/i-cube/I-CUBE-HUAWEI/Projects/NUCLEO-L496ZG/Applications/Cloud/mqtt-ota/Src\stm32l4xx_nucleo_bus.c **** 
 536              		.loc 1 427 1 view .LVU110
 537 001a 03B0     		add	sp, sp, #12
 538              	.LCFI24:
 539              		.cfi_remember_state
 540              		.cfi_def_cfa_offset 12
 541              		@ sp needed
 542 001c 30BD     		pop	{r4, r5, pc}
 543              	.LVL42:
 544              	.L56:
 545              	.LCFI25:
 546              		.cfi_restore_state
 416:D:/fchai/work/i-cube/I-CUBE-HUAWEI/Projects/NUCLEO-L496ZG/Applications/Cloud/mqtt-ota/Src\stm32l4xx_nucleo_bus.c ****     {
 547              		.loc 1 416 5 is_stmt 1 view .LVU111
 416:D:/fchai/work/i-cube/I-CUBE-HUAWEI/Projects/NUCLEO-L496ZG/Applications/Cloud/mqtt-ota/Src\stm32l4xx_nucleo_bus.c ****     {
 548              		.loc 1 416 9 is_stmt 0 view .LVU112
 549 001e 0548     		ldr	r0, .L57
 550 0020 FFF7FEFF 		bl	HAL_I2C_GetError
 551              	.LVL43:
 422:D:/fchai/work/i-cube/I-CUBE-HUAWEI/Projects/NUCLEO-L496ZG/Applications/Cloud/mqtt-ota/Src\stm32l4xx_nucleo_bus.c ****     }
 552              		.loc 1 422 11 view .LVU113
 553 0024 0428     		cmp	r0, #4
 554 0026 14BF     		ite	ne
 555 0028 6FF06500 		mvnne	r0, #101
 556 002c 6FF00300 		mvneq	r0, #3
 427:D:/fchai/work/i-cube/I-CUBE-HUAWEI/Projects/NUCLEO-L496ZG/Applications/Cloud/mqtt-ota/Src\stm32l4xx_nucleo_bus.c **** 
 557              		.loc 1 427 1 view .LVU114
 558 0030 03B0     		add	sp, sp, #12
 559              	.LCFI26:
 560              		.cfi_def_cfa_offset 12
 561              		@ sp needed
 562 0032 30BD     		pop	{r4, r5, pc}
 563              	.LVL44:
 564              	.L58:
 427:D:/fchai/work/i-cube/I-CUBE-HUAWEI/Projects/NUCLEO-L496ZG/Applications/Cloud/mqtt-ota/Src\stm32l4xx_nucleo_bus.c **** 
 565              		.loc 1 427 1 view .LVU115
 566              		.align	2
 567              	.L57:
 568 0034 00000000 		.word	hi2c1
 569              		.cfi_endproc
 570              	.LFE130:
 572              		.section	.text.BSP_I2C1_Recv,"ax",%progbits
 573              		.align	1
 574              		.p2align 2,,3
 575              		.global	BSP_I2C1_Recv
 576              		.syntax unified
 577              		.thumb
 578              		.thumb_func
 579              		.fpu fpv4-sp-d16
 581              	BSP_I2C1_Recv:
 582              	.LVL45:
ARM GAS  T:\msys\tmp\cccQ2VxF.s 			page 23


 583              	.LFB131:
 436:D:/fchai/work/i-cube/I-CUBE-HUAWEI/Projects/NUCLEO-L496ZG/Applications/Cloud/mqtt-ota/Src\stm32l4xx_nucleo_bus.c ****   int32_t ret = BSP_ERROR_NONE;
 584              		.loc 1 436 74 is_stmt 1 view -0
 585              		.cfi_startproc
 586              		@ args = 0, pretend = 0, frame = 0
 587              		@ frame_needed = 0, uses_anonymous_args = 0
 437:D:/fchai/work/i-cube/I-CUBE-HUAWEI/Projects/NUCLEO-L496ZG/Applications/Cloud/mqtt-ota/Src\stm32l4xx_nucleo_bus.c ****   
 588              		.loc 1 437 3 view .LVU117
 439:D:/fchai/work/i-cube/I-CUBE-HUAWEI/Projects/NUCLEO-L496ZG/Applications/Cloud/mqtt-ota/Src\stm32l4xx_nucleo_bus.c ****   {
 589              		.loc 1 439 3 view .LVU118
 436:D:/fchai/work/i-cube/I-CUBE-HUAWEI/Projects/NUCLEO-L496ZG/Applications/Cloud/mqtt-ota/Src\stm32l4xx_nucleo_bus.c ****   int32_t ret = BSP_ERROR_NONE;
 590              		.loc 1 436 74 is_stmt 0 view .LVU119
 591 0000 30B5     		push	{r4, r5, lr}
 592              	.LCFI27:
 593              		.cfi_def_cfa_offset 12
 594              		.cfi_offset 4, -12
 595              		.cfi_offset 5, -8
 596              		.cfi_offset 14, -4
 597 0002 83B0     		sub	sp, sp, #12
 598              	.LCFI28:
 599              		.cfi_def_cfa_offset 24
 436:D:/fchai/work/i-cube/I-CUBE-HUAWEI/Projects/NUCLEO-L496ZG/Applications/Cloud/mqtt-ota/Src\stm32l4xx_nucleo_bus.c ****   int32_t ret = BSP_ERROR_NONE;
 600              		.loc 1 436 74 view .LVU120
 601 0004 0D46     		mov	r5, r1
 439:D:/fchai/work/i-cube/I-CUBE-HUAWEI/Projects/NUCLEO-L496ZG/Applications/Cloud/mqtt-ota/Src\stm32l4xx_nucleo_bus.c ****   {
 602              		.loc 1 439 7 view .LVU121
 603 0006 4FF48054 		mov	r4, #4096
 436:D:/fchai/work/i-cube/I-CUBE-HUAWEI/Projects/NUCLEO-L496ZG/Applications/Cloud/mqtt-ota/Src\stm32l4xx_nucleo_bus.c ****   int32_t ret = BSP_ERROR_NONE;
 604              		.loc 1 436 74 view .LVU122
 605 000a 1346     		mov	r3, r2
 439:D:/fchai/work/i-cube/I-CUBE-HUAWEI/Projects/NUCLEO-L496ZG/Applications/Cloud/mqtt-ota/Src\stm32l4xx_nucleo_bus.c ****   {
 606              		.loc 1 439 7 view .LVU123
 607 000c 0146     		mov	r1, r0
 608              	.LVL46:
 439:D:/fchai/work/i-cube/I-CUBE-HUAWEI/Projects/NUCLEO-L496ZG/Applications/Cloud/mqtt-ota/Src\stm32l4xx_nucleo_bus.c ****   {
 609              		.loc 1 439 7 view .LVU124
 610 000e 2A46     		mov	r2, r5
 611              	.LVL47:
 439:D:/fchai/work/i-cube/I-CUBE-HUAWEI/Projects/NUCLEO-L496ZG/Applications/Cloud/mqtt-ota/Src\stm32l4xx_nucleo_bus.c ****   {
 612              		.loc 1 439 7 view .LVU125
 613 0010 0848     		ldr	r0, .L65
 614              	.LVL48:
 439:D:/fchai/work/i-cube/I-CUBE-HUAWEI/Projects/NUCLEO-L496ZG/Applications/Cloud/mqtt-ota/Src\stm32l4xx_nucleo_bus.c ****   {
 615              		.loc 1 439 7 view .LVU126
 616 0012 0094     		str	r4, [sp]
 617 0014 FFF7FEFF 		bl	HAL_I2C_Master_Receive
 618              	.LVL49:
 439:D:/fchai/work/i-cube/I-CUBE-HUAWEI/Projects/NUCLEO-L496ZG/Applications/Cloud/mqtt-ota/Src\stm32l4xx_nucleo_bus.c ****   {
 619              		.loc 1 439 6 view .LVU127
 620 0018 08B9     		cbnz	r0, .L64
 451:D:/fchai/work/i-cube/I-CUBE-HUAWEI/Projects/NUCLEO-L496ZG/Applications/Cloud/mqtt-ota/Src\stm32l4xx_nucleo_bus.c **** 
 621              		.loc 1 451 1 view .LVU128
 622 001a 03B0     		add	sp, sp, #12
 623              	.LCFI29:
 624              		.cfi_remember_state
 625              		.cfi_def_cfa_offset 12
 626              		@ sp needed
ARM GAS  T:\msys\tmp\cccQ2VxF.s 			page 24


 627 001c 30BD     		pop	{r4, r5, pc}
 628              	.LVL50:
 629              	.L64:
 630              	.LCFI30:
 631              		.cfi_restore_state
 441:D:/fchai/work/i-cube/I-CUBE-HUAWEI/Projects/NUCLEO-L496ZG/Applications/Cloud/mqtt-ota/Src\stm32l4xx_nucleo_bus.c ****     {
 632              		.loc 1 441 5 is_stmt 1 view .LVU129
 441:D:/fchai/work/i-cube/I-CUBE-HUAWEI/Projects/NUCLEO-L496ZG/Applications/Cloud/mqtt-ota/Src\stm32l4xx_nucleo_bus.c ****     {
 633              		.loc 1 441 9 is_stmt 0 view .LVU130
 634 001e 0548     		ldr	r0, .L65
 635 0020 FFF7FEFF 		bl	HAL_I2C_GetError
 636              	.LVL51:
 447:D:/fchai/work/i-cube/I-CUBE-HUAWEI/Projects/NUCLEO-L496ZG/Applications/Cloud/mqtt-ota/Src\stm32l4xx_nucleo_bus.c ****     }
 637              		.loc 1 447 11 view .LVU131
 638 0024 0428     		cmp	r0, #4
 639 0026 14BF     		ite	ne
 640 0028 6FF06500 		mvnne	r0, #101
 641 002c 6FF00300 		mvneq	r0, #3
 451:D:/fchai/work/i-cube/I-CUBE-HUAWEI/Projects/NUCLEO-L496ZG/Applications/Cloud/mqtt-ota/Src\stm32l4xx_nucleo_bus.c **** 
 642              		.loc 1 451 1 view .LVU132
 643 0030 03B0     		add	sp, sp, #12
 644              	.LCFI31:
 645              		.cfi_def_cfa_offset 12
 646              		@ sp needed
 647 0032 30BD     		pop	{r4, r5, pc}
 648              	.LVL52:
 649              	.L66:
 451:D:/fchai/work/i-cube/I-CUBE-HUAWEI/Projects/NUCLEO-L496ZG/Applications/Cloud/mqtt-ota/Src\stm32l4xx_nucleo_bus.c **** 
 650              		.loc 1 451 1 view .LVU133
 651              		.align	2
 652              	.L65:
 653 0034 00000000 		.word	hi2c1
 654              		.cfi_endproc
 655              	.LFE131:
 657              		.section	.text.BSP_GetTick,"ax",%progbits
 658              		.align	1
 659              		.p2align 2,,3
 660              		.global	BSP_GetTick
 661              		.syntax unified
 662              		.thumb
 663              		.thumb_func
 664              		.fpu fpv4-sp-d16
 666              	BSP_GetTick:
 667              	.LFB132:
 511:D:/fchai/work/i-cube/I-CUBE-HUAWEI/Projects/NUCLEO-L496ZG/Applications/Cloud/mqtt-ota/Src\stm32l4xx_nucleo_bus.c ****   return HAL_GetTick();
 668              		.loc 1 511 27 is_stmt 1 view -0
 669              		.cfi_startproc
 670              		@ args = 0, pretend = 0, frame = 0
 671              		@ frame_needed = 0, uses_anonymous_args = 0
 672              		@ link register save eliminated.
 512:D:/fchai/work/i-cube/I-CUBE-HUAWEI/Projects/NUCLEO-L496ZG/Applications/Cloud/mqtt-ota/Src\stm32l4xx_nucleo_bus.c **** }
 673              		.loc 1 512 3 view .LVU135
 512:D:/fchai/work/i-cube/I-CUBE-HUAWEI/Projects/NUCLEO-L496ZG/Applications/Cloud/mqtt-ota/Src\stm32l4xx_nucleo_bus.c **** }
 674              		.loc 1 512 10 is_stmt 0 view .LVU136
 675 0000 FFF7FEBF 		b	HAL_GetTick
 676              	.LVL53:
 677              		.cfi_endproc
ARM GAS  T:\msys\tmp\cccQ2VxF.s 			page 25


 678              	.LFE132:
 680              		.section	.text.MX_I2C1_Init,"ax",%progbits
 681              		.align	1
 682              		.p2align 2,,3
 683              		.weak	MX_I2C1_Init
 684              		.syntax unified
 685              		.thumb
 686              		.thumb_func
 687              		.fpu fpv4-sp-d16
 689              	MX_I2C1_Init:
 690              	.LVL54:
 691              	.LFB133:
 518:D:/fchai/work/i-cube/I-CUBE-HUAWEI/Projects/NUCLEO-L496ZG/Applications/Cloud/mqtt-ota/Src\stm32l4xx_nucleo_bus.c ****   HAL_StatusTypeDef ret = HAL_OK;
 692              		.loc 1 518 1 is_stmt 1 view -0
 693              		.cfi_startproc
 694              		@ args = 0, pretend = 0, frame = 0
 695              		@ frame_needed = 0, uses_anonymous_args = 0
 519:D:/fchai/work/i-cube/I-CUBE-HUAWEI/Projects/NUCLEO-L496ZG/Applications/Cloud/mqtt-ota/Src\stm32l4xx_nucleo_bus.c ****   hi2c->Instance = I2C1;
 696              		.loc 1 519 3 view .LVU138
 520:D:/fchai/work/i-cube/I-CUBE-HUAWEI/Projects/NUCLEO-L496ZG/Applications/Cloud/mqtt-ota/Src\stm32l4xx_nucleo_bus.c ****   hi2c->Init.Timing = 0x00505B89;
 697              		.loc 1 520 3 view .LVU139
 520:D:/fchai/work/i-cube/I-CUBE-HUAWEI/Projects/NUCLEO-L496ZG/Applications/Cloud/mqtt-ota/Src\stm32l4xx_nucleo_bus.c ****   hi2c->Init.Timing = 0x00505B89;
 698              		.loc 1 520 18 is_stmt 0 view .LVU140
 699 0000 114B     		ldr	r3, .L73
 521:D:/fchai/work/i-cube/I-CUBE-HUAWEI/Projects/NUCLEO-L496ZG/Applications/Cloud/mqtt-ota/Src\stm32l4xx_nucleo_bus.c ****   hi2c->Init.OwnAddress1 = 0;
 700              		.loc 1 521 21 view .LVU141
 701 0002 124A     		ldr	r2, .L73+4
 518:D:/fchai/work/i-cube/I-CUBE-HUAWEI/Projects/NUCLEO-L496ZG/Applications/Cloud/mqtt-ota/Src\stm32l4xx_nucleo_bus.c ****   HAL_StatusTypeDef ret = HAL_OK;
 702              		.loc 1 518 1 view .LVU142
 703 0004 70B5     		push	{r4, r5, r6, lr}
 704              	.LCFI32:
 705              		.cfi_def_cfa_offset 16
 706              		.cfi_offset 4, -16
 707              		.cfi_offset 5, -12
 708              		.cfi_offset 6, -8
 709              		.cfi_offset 14, -4
 522:D:/fchai/work/i-cube/I-CUBE-HUAWEI/Projects/NUCLEO-L496ZG/Applications/Cloud/mqtt-ota/Src\stm32l4xx_nucleo_bus.c ****   hi2c->Init.AddressingMode = I2C_ADDRESSINGMODE_7BIT;
 710              		.loc 1 522 26 view .LVU143
 711 0006 0026     		movs	r6, #0
 520:D:/fchai/work/i-cube/I-CUBE-HUAWEI/Projects/NUCLEO-L496ZG/Applications/Cloud/mqtt-ota/Src\stm32l4xx_nucleo_bus.c ****   hi2c->Init.Timing = 0x00505B89;
 712              		.loc 1 520 18 view .LVU144
 713 0008 0360     		str	r3, [r0]
 521:D:/fchai/work/i-cube/I-CUBE-HUAWEI/Projects/NUCLEO-L496ZG/Applications/Cloud/mqtt-ota/Src\stm32l4xx_nucleo_bus.c ****   hi2c->Init.OwnAddress1 = 0;
 714              		.loc 1 521 3 is_stmt 1 view .LVU145
 523:D:/fchai/work/i-cube/I-CUBE-HUAWEI/Projects/NUCLEO-L496ZG/Applications/Cloud/mqtt-ota/Src\stm32l4xx_nucleo_bus.c ****   hi2c->Init.DualAddressMode = I2C_DUALADDRESS_DISABLE;
 715              		.loc 1 523 29 is_stmt 0 view .LVU146
 716 000a 0123     		movs	r3, #1
 522:D:/fchai/work/i-cube/I-CUBE-HUAWEI/Projects/NUCLEO-L496ZG/Applications/Cloud/mqtt-ota/Src\stm32l4xx_nucleo_bus.c ****   hi2c->Init.AddressingMode = I2C_ADDRESSINGMODE_7BIT;
 717              		.loc 1 522 26 view .LVU147
 718 000c C0E90263 		strd	r6, r3, [r0, #8]
 521:D:/fchai/work/i-cube/I-CUBE-HUAWEI/Projects/NUCLEO-L496ZG/Applications/Cloud/mqtt-ota/Src\stm32l4xx_nucleo_bus.c ****   hi2c->Init.OwnAddress1 = 0;
 719              		.loc 1 521 21 view .LVU148
 720 0010 4260     		str	r2, [r0, #4]
 522:D:/fchai/work/i-cube/I-CUBE-HUAWEI/Projects/NUCLEO-L496ZG/Applications/Cloud/mqtt-ota/Src\stm32l4xx_nucleo_bus.c ****   hi2c->Init.AddressingMode = I2C_ADDRESSINGMODE_7BIT;
 721              		.loc 1 522 3 is_stmt 1 view .LVU149
 523:D:/fchai/work/i-cube/I-CUBE-HUAWEI/Projects/NUCLEO-L496ZG/Applications/Cloud/mqtt-ota/Src\stm32l4xx_nucleo_bus.c ****   hi2c->Init.DualAddressMode = I2C_DUALADDRESS_DISABLE;
 722              		.loc 1 523 3 view .LVU150
ARM GAS  T:\msys\tmp\cccQ2VxF.s 			page 26


 524:D:/fchai/work/i-cube/I-CUBE-HUAWEI/Projects/NUCLEO-L496ZG/Applications/Cloud/mqtt-ota/Src\stm32l4xx_nucleo_bus.c ****   hi2c->Init.OwnAddress2 = 0;
 723              		.loc 1 524 3 view .LVU151
 525:D:/fchai/work/i-cube/I-CUBE-HUAWEI/Projects/NUCLEO-L496ZG/Applications/Cloud/mqtt-ota/Src\stm32l4xx_nucleo_bus.c ****   hi2c->Init.OwnAddress2Masks = I2C_OA2_NOMASK;
 724              		.loc 1 525 26 is_stmt 0 view .LVU152
 725 0012 C0E90466 		strd	r6, r6, [r0, #16]
 526:D:/fchai/work/i-cube/I-CUBE-HUAWEI/Projects/NUCLEO-L496ZG/Applications/Cloud/mqtt-ota/Src\stm32l4xx_nucleo_bus.c ****   hi2c->Init.GeneralCallMode = I2C_GENERALCALL_DISABLE;
 726              		.loc 1 526 3 is_stmt 1 view .LVU153
 527:D:/fchai/work/i-cube/I-CUBE-HUAWEI/Projects/NUCLEO-L496ZG/Applications/Cloud/mqtt-ota/Src\stm32l4xx_nucleo_bus.c ****   hi2c->Init.NoStretchMode = I2C_NOSTRETCH_DISABLE;
 727              		.loc 1 527 30 is_stmt 0 view .LVU154
 728 0016 C0E90666 		strd	r6, r6, [r0, #24]
 528:D:/fchai/work/i-cube/I-CUBE-HUAWEI/Projects/NUCLEO-L496ZG/Applications/Cloud/mqtt-ota/Src\stm32l4xx_nucleo_bus.c ****   if (HAL_I2C_Init(hi2c) != HAL_OK)
 729              		.loc 1 528 3 is_stmt 1 view .LVU155
 528:D:/fchai/work/i-cube/I-CUBE-HUAWEI/Projects/NUCLEO-L496ZG/Applications/Cloud/mqtt-ota/Src\stm32l4xx_nucleo_bus.c ****   if (HAL_I2C_Init(hi2c) != HAL_OK)
 730              		.loc 1 528 28 is_stmt 0 view .LVU156
 731 001a 0662     		str	r6, [r0, #32]
 529:D:/fchai/work/i-cube/I-CUBE-HUAWEI/Projects/NUCLEO-L496ZG/Applications/Cloud/mqtt-ota/Src\stm32l4xx_nucleo_bus.c ****   {
 732              		.loc 1 529 3 is_stmt 1 view .LVU157
 518:D:/fchai/work/i-cube/I-CUBE-HUAWEI/Projects/NUCLEO-L496ZG/Applications/Cloud/mqtt-ota/Src\stm32l4xx_nucleo_bus.c ****   HAL_StatusTypeDef ret = HAL_OK;
 733              		.loc 1 518 1 is_stmt 0 view .LVU158
 734 001c 0446     		mov	r4, r0
 529:D:/fchai/work/i-cube/I-CUBE-HUAWEI/Projects/NUCLEO-L496ZG/Applications/Cloud/mqtt-ota/Src\stm32l4xx_nucleo_bus.c ****   {
 735              		.loc 1 529 7 view .LVU159
 736 001e FFF7FEFF 		bl	HAL_I2C_Init
 737              	.LVL55:
 534:D:/fchai/work/i-cube/I-CUBE-HUAWEI/Projects/NUCLEO-L496ZG/Applications/Cloud/mqtt-ota/Src\stm32l4xx_nucleo_bus.c ****   {
 738              		.loc 1 534 7 view .LVU160
 739 0022 3146     		mov	r1, r6
 529:D:/fchai/work/i-cube/I-CUBE-HUAWEI/Projects/NUCLEO-L496ZG/Applications/Cloud/mqtt-ota/Src\stm32l4xx_nucleo_bus.c ****   {
 740              		.loc 1 529 7 view .LVU161
 741 0024 0546     		mov	r5, r0
 534:D:/fchai/work/i-cube/I-CUBE-HUAWEI/Projects/NUCLEO-L496ZG/Applications/Cloud/mqtt-ota/Src\stm32l4xx_nucleo_bus.c ****   {
 742              		.loc 1 534 7 view .LVU162
 743 0026 2046     		mov	r0, r4
 744              	.LVL56:
 534:D:/fchai/work/i-cube/I-CUBE-HUAWEI/Projects/NUCLEO-L496ZG/Applications/Cloud/mqtt-ota/Src\stm32l4xx_nucleo_bus.c ****   {
 745              		.loc 1 534 3 is_stmt 1 view .LVU163
 534:D:/fchai/work/i-cube/I-CUBE-HUAWEI/Projects/NUCLEO-L496ZG/Applications/Cloud/mqtt-ota/Src\stm32l4xx_nucleo_bus.c ****   {
 746              		.loc 1 534 7 is_stmt 0 view .LVU164
 747 0028 FFF7FEFF 		bl	HAL_I2CEx_ConfigAnalogFilter
 748              	.LVL57:
 534:D:/fchai/work/i-cube/I-CUBE-HUAWEI/Projects/NUCLEO-L496ZG/Applications/Cloud/mqtt-ota/Src\stm32l4xx_nucleo_bus.c ****   {
 749              		.loc 1 534 6 view .LVU165
 750 002c 0543     		orrs	r5, r5, r0
 751              	.LVL58:
 534:D:/fchai/work/i-cube/I-CUBE-HUAWEI/Projects/NUCLEO-L496ZG/Applications/Cloud/mqtt-ota/Src\stm32l4xx_nucleo_bus.c ****   {
 752              		.loc 1 534 6 view .LVU166
 753 002e EDB2     		uxtb	r5, r5
 536:D:/fchai/work/i-cube/I-CUBE-HUAWEI/Projects/NUCLEO-L496ZG/Applications/Cloud/mqtt-ota/Src\stm32l4xx_nucleo_bus.c ****   }
 754              		.loc 1 536 9 view .LVU167
 755 0030 AD1B     		subs	r5, r5, r6
 539:D:/fchai/work/i-cube/I-CUBE-HUAWEI/Projects/NUCLEO-L496ZG/Applications/Cloud/mqtt-ota/Src\stm32l4xx_nucleo_bus.c ****   {
 756              		.loc 1 539 7 view .LVU168
 757 0032 2046     		mov	r0, r4
 758 0034 3146     		mov	r1, r6
 536:D:/fchai/work/i-cube/I-CUBE-HUAWEI/Projects/NUCLEO-L496ZG/Applications/Cloud/mqtt-ota/Src\stm32l4xx_nucleo_bus.c ****   }
 759              		.loc 1 536 9 view .LVU169
 760 0036 18BF     		it	ne
ARM GAS  T:\msys\tmp\cccQ2VxF.s 			page 27


 761 0038 0125     		movne	r5, #1
 762              	.LVL59:
 539:D:/fchai/work/i-cube/I-CUBE-HUAWEI/Projects/NUCLEO-L496ZG/Applications/Cloud/mqtt-ota/Src\stm32l4xx_nucleo_bus.c ****   {
 763              		.loc 1 539 3 is_stmt 1 view .LVU170
 539:D:/fchai/work/i-cube/I-CUBE-HUAWEI/Projects/NUCLEO-L496ZG/Applications/Cloud/mqtt-ota/Src\stm32l4xx_nucleo_bus.c ****   {
 764              		.loc 1 539 7 is_stmt 0 view .LVU171
 765 003a FFF7FEFF 		bl	HAL_I2CEx_ConfigDigitalFilter
 766              	.LVL60:
 539:D:/fchai/work/i-cube/I-CUBE-HUAWEI/Projects/NUCLEO-L496ZG/Applications/Cloud/mqtt-ota/Src\stm32l4xx_nucleo_bus.c ****   {
 767              		.loc 1 539 6 view .LVU172
 768 003e B042     		cmp	r0, r6
 769              	.LVL61:
 544:D:/fchai/work/i-cube/I-CUBE-HUAWEI/Projects/NUCLEO-L496ZG/Applications/Cloud/mqtt-ota/Src\stm32l4xx_nucleo_bus.c **** }
 770              		.loc 1 544 3 is_stmt 1 view .LVU173
 545:D:/fchai/work/i-cube/I-CUBE-HUAWEI/Projects/NUCLEO-L496ZG/Applications/Cloud/mqtt-ota/Src\stm32l4xx_nucleo_bus.c **** 
 771              		.loc 1 545 1 is_stmt 0 view .LVU174
 772 0040 0CBF     		ite	eq
 773 0042 2846     		moveq	r0, r5
 774 0044 0120     		movne	r0, #1
 775 0046 70BD     		pop	{r4, r5, r6, pc}
 776              	.LVL62:
 777              	.L74:
 545:D:/fchai/work/i-cube/I-CUBE-HUAWEI/Projects/NUCLEO-L496ZG/Applications/Cloud/mqtt-ota/Src\stm32l4xx_nucleo_bus.c **** 
 778              		.loc 1 545 1 view .LVU175
 779              		.align	2
 780              	.L73:
 781 0048 00540040 		.word	1073763328
 782 004c 895B5000 		.word	5266313
 783              		.cfi_endproc
 784              	.LFE133:
 786              		.section	.text.BSP_I2C1_Init,"ax",%progbits
 787              		.align	1
 788              		.p2align 2,,3
 789              		.global	BSP_I2C1_Init
 790              		.syntax unified
 791              		.thumb
 792              		.thumb_func
 793              		.fpu fpv4-sp-d16
 795              	BSP_I2C1_Init:
 796              	.LFB123:
 210:D:/fchai/work/i-cube/I-CUBE-HUAWEI/Projects/NUCLEO-L496ZG/Applications/Cloud/mqtt-ota/Src\stm32l4xx_nucleo_bus.c **** 
 797              		.loc 1 210 1 is_stmt 1 view -0
 798              		.cfi_startproc
 799              		@ args = 0, pretend = 0, frame = 32
 800              		@ frame_needed = 0, uses_anonymous_args = 0
 212:D:/fchai/work/i-cube/I-CUBE-HUAWEI/Projects/NUCLEO-L496ZG/Applications/Cloud/mqtt-ota/Src\stm32l4xx_nucleo_bus.c ****   
 801              		.loc 1 212 3 view .LVU177
 802              	.LVL63:
 214:D:/fchai/work/i-cube/I-CUBE-HUAWEI/Projects/NUCLEO-L496ZG/Applications/Cloud/mqtt-ota/Src\stm32l4xx_nucleo_bus.c **** 
 803              		.loc 1 214 3 view .LVU178
 210:D:/fchai/work/i-cube/I-CUBE-HUAWEI/Projects/NUCLEO-L496ZG/Applications/Cloud/mqtt-ota/Src\stm32l4xx_nucleo_bus.c **** 
 804              		.loc 1 210 1 is_stmt 0 view .LVU179
 805 0000 70B5     		push	{r4, r5, r6, lr}
 806              	.LCFI33:
 807              		.cfi_def_cfa_offset 16
 808              		.cfi_offset 4, -16
 809              		.cfi_offset 5, -12
ARM GAS  T:\msys\tmp\cccQ2VxF.s 			page 28


 810              		.cfi_offset 6, -8
 811              		.cfi_offset 14, -4
 216:D:/fchai/work/i-cube/I-CUBE-HUAWEI/Projects/NUCLEO-L496ZG/Applications/Cloud/mqtt-ota/Src\stm32l4xx_nucleo_bus.c ****   {     
 812              		.loc 1 216 21 view .LVU180
 813 0002 204A     		ldr	r2, .L82
 214:D:/fchai/work/i-cube/I-CUBE-HUAWEI/Projects/NUCLEO-L496ZG/Applications/Cloud/mqtt-ota/Src\stm32l4xx_nucleo_bus.c **** 
 814              		.loc 1 214 19 view .LVU181
 815 0004 204C     		ldr	r4, .L82+4
 216:D:/fchai/work/i-cube/I-CUBE-HUAWEI/Projects/NUCLEO-L496ZG/Applications/Cloud/mqtt-ota/Src\stm32l4xx_nucleo_bus.c ****   {     
 816              		.loc 1 216 21 view .LVU182
 817 0006 1368     		ldr	r3, [r2]
 214:D:/fchai/work/i-cube/I-CUBE-HUAWEI/Projects/NUCLEO-L496ZG/Applications/Cloud/mqtt-ota/Src\stm32l4xx_nucleo_bus.c **** 
 818              		.loc 1 214 19 view .LVU183
 819 0008 2049     		ldr	r1, .L82+8
 820 000a 2160     		str	r1, [r4]
 216:D:/fchai/work/i-cube/I-CUBE-HUAWEI/Projects/NUCLEO-L496ZG/Applications/Cloud/mqtt-ota/Src\stm32l4xx_nucleo_bus.c ****   {     
 821              		.loc 1 216 3 is_stmt 1 view .LVU184
 216:D:/fchai/work/i-cube/I-CUBE-HUAWEI/Projects/NUCLEO-L496ZG/Applications/Cloud/mqtt-ota/Src\stm32l4xx_nucleo_bus.c ****   {     
 822              		.loc 1 216 21 is_stmt 0 view .LVU185
 823 000c 591C     		adds	r1, r3, #1
 210:D:/fchai/work/i-cube/I-CUBE-HUAWEI/Projects/NUCLEO-L496ZG/Applications/Cloud/mqtt-ota/Src\stm32l4xx_nucleo_bus.c **** 
 824              		.loc 1 210 1 view .LVU186
 825 000e 88B0     		sub	sp, sp, #32
 826              	.LCFI34:
 827              		.cfi_def_cfa_offset 48
 216:D:/fchai/work/i-cube/I-CUBE-HUAWEI/Projects/NUCLEO-L496ZG/Applications/Cloud/mqtt-ota/Src\stm32l4xx_nucleo_bus.c ****   {     
 828              		.loc 1 216 21 view .LVU187
 829 0010 1160     		str	r1, [r2]
 216:D:/fchai/work/i-cube/I-CUBE-HUAWEI/Projects/NUCLEO-L496ZG/Applications/Cloud/mqtt-ota/Src\stm32l4xx_nucleo_bus.c ****   {     
 830              		.loc 1 216 5 view .LVU188
 831 0012 13B1     		cbz	r3, .L81
 832              	.L76:
 245:D:/fchai/work/i-cube/I-CUBE-HUAWEI/Projects/NUCLEO-L496ZG/Applications/Cloud/mqtt-ota/Src\stm32l4xx_nucleo_bus.c ****         }
 833              		.loc 1 245 10 is_stmt 1 view .LVU189
 245:D:/fchai/work/i-cube/I-CUBE-HUAWEI/Projects/NUCLEO-L496ZG/Applications/Cloud/mqtt-ota/Src\stm32l4xx_nucleo_bus.c ****         }
 834              		.loc 1 245 14 is_stmt 0 view .LVU190
 835 0014 0020     		movs	r0, #0
 250:D:/fchai/work/i-cube/I-CUBE-HUAWEI/Projects/NUCLEO-L496ZG/Applications/Cloud/mqtt-ota/Src\stm32l4xx_nucleo_bus.c **** }
 836              		.loc 1 250 3 is_stmt 1 view .LVU191
 837              	.L75:
 251:D:/fchai/work/i-cube/I-CUBE-HUAWEI/Projects/NUCLEO-L496ZG/Applications/Cloud/mqtt-ota/Src\stm32l4xx_nucleo_bus.c **** 
 838              		.loc 1 251 1 is_stmt 0 view .LVU192
 839 0016 08B0     		add	sp, sp, #32
 840              	.LCFI35:
 841              		.cfi_remember_state
 842              		.cfi_def_cfa_offset 16
 843              		@ sp needed
 844 0018 70BD     		pop	{r4, r5, r6, pc}
 845              	.L81:
 846              	.LCFI36:
 847              		.cfi_restore_state
 218:D:/fchai/work/i-cube/I-CUBE-HUAWEI/Projects/NUCLEO-L496ZG/Applications/Cloud/mqtt-ota/Src\stm32l4xx_nucleo_bus.c ****     {  
 848              		.loc 1 218 5 is_stmt 1 view .LVU193
 218:D:/fchai/work/i-cube/I-CUBE-HUAWEI/Projects/NUCLEO-L496ZG/Applications/Cloud/mqtt-ota/Src\stm32l4xx_nucleo_bus.c ****     {  
 849              		.loc 1 218 9 is_stmt 0 view .LVU194
 850 001a 2046     		mov	r0, r4
 851 001c FFF7FEFF 		bl	HAL_I2C_GetState
ARM GAS  T:\msys\tmp\cccQ2VxF.s 			page 29


 852              	.LVL64:
 218:D:/fchai/work/i-cube/I-CUBE-HUAWEI/Projects/NUCLEO-L496ZG/Applications/Cloud/mqtt-ota/Src\stm32l4xx_nucleo_bus.c ****     {  
 853              		.loc 1 218 8 view .LVU195
 854 0020 0028     		cmp	r0, #0
 855 0022 F7D1     		bne	.L76
 222:D:/fchai/work/i-cube/I-CUBE-HUAWEI/Projects/NUCLEO-L496ZG/Applications/Cloud/mqtt-ota/Src\stm32l4xx_nucleo_bus.c ****     #else
 856              		.loc 1 222 7 is_stmt 1 view .LVU196
 857              	.LBB12:
 858              	.LBI12:
 547:D:/fchai/work/i-cube/I-CUBE-HUAWEI/Projects/NUCLEO-L496ZG/Applications/Cloud/mqtt-ota/Src\stm32l4xx_nucleo_bus.c **** {
 859              		.loc 1 547 13 view .LVU197
 860              	.LVL65:
 861              	.LBB13:
 549:D:/fchai/work/i-cube/I-CUBE-HUAWEI/Projects/NUCLEO-L496ZG/Applications/Cloud/mqtt-ota/Src\stm32l4xx_nucleo_bus.c ****   /* USER CODE BEGIN I2C1_MspInit 0 */
 862              		.loc 1 549 3 view .LVU198
 554:D:/fchai/work/i-cube/I-CUBE-HUAWEI/Projects/NUCLEO-L496ZG/Applications/Cloud/mqtt-ota/Src\stm32l4xx_nucleo_bus.c ****     /**I2C1 GPIO Configuration    
 863              		.loc 1 554 5 view .LVU199
 864              	.LBB14:
 554:D:/fchai/work/i-cube/I-CUBE-HUAWEI/Projects/NUCLEO-L496ZG/Applications/Cloud/mqtt-ota/Src\stm32l4xx_nucleo_bus.c ****     /**I2C1 GPIO Configuration    
 865              		.loc 1 554 5 view .LVU200
 554:D:/fchai/work/i-cube/I-CUBE-HUAWEI/Projects/NUCLEO-L496ZG/Applications/Cloud/mqtt-ota/Src\stm32l4xx_nucleo_bus.c ****     /**I2C1 GPIO Configuration    
 866              		.loc 1 554 5 view .LVU201
 867 0024 1A4D     		ldr	r5, .L82+12
 868              	.LBE14:
 564:D:/fchai/work/i-cube/I-CUBE-HUAWEI/Projects/NUCLEO-L496ZG/Applications/Cloud/mqtt-ota/Src\stm32l4xx_nucleo_bus.c **** 
 869              		.loc 1 564 5 is_stmt 0 view .LVU202
 870 0026 1B48     		ldr	r0, .L82+16
 871              	.LBB15:
 554:D:/fchai/work/i-cube/I-CUBE-HUAWEI/Projects/NUCLEO-L496ZG/Applications/Cloud/mqtt-ota/Src\stm32l4xx_nucleo_bus.c ****     /**I2C1 GPIO Configuration    
 872              		.loc 1 554 5 view .LVU203
 873 0028 EB6C     		ldr	r3, [r5, #76]
 874 002a 43F00203 		orr	r3, r3, #2
 875 002e EB64     		str	r3, [r5, #76]
 554:D:/fchai/work/i-cube/I-CUBE-HUAWEI/Projects/NUCLEO-L496ZG/Applications/Cloud/mqtt-ota/Src\stm32l4xx_nucleo_bus.c ****     /**I2C1 GPIO Configuration    
 876              		.loc 1 554 5 is_stmt 1 view .LVU204
 877 0030 EB6C     		ldr	r3, [r5, #76]
 878 0032 03F00203 		and	r3, r3, #2
 879 0036 0193     		str	r3, [sp, #4]
 554:D:/fchai/work/i-cube/I-CUBE-HUAWEI/Projects/NUCLEO-L496ZG/Applications/Cloud/mqtt-ota/Src\stm32l4xx_nucleo_bus.c ****     /**I2C1 GPIO Configuration    
 880              		.loc 1 554 5 view .LVU205
 881              	.LBE15:
 559:D:/fchai/work/i-cube/I-CUBE-HUAWEI/Projects/NUCLEO-L496ZG/Applications/Cloud/mqtt-ota/Src\stm32l4xx_nucleo_bus.c ****     GPIO_InitStruct.Mode = GPIO_MODE_AF_OD;
 882              		.loc 1 559 25 is_stmt 0 view .LVU206
 883 0038 4FF44072 		mov	r2, #768
 560:D:/fchai/work/i-cube/I-CUBE-HUAWEI/Projects/NUCLEO-L496ZG/Applications/Cloud/mqtt-ota/Src\stm32l4xx_nucleo_bus.c ****     GPIO_InitStruct.Pull = GPIO_PULLUP;
 884              		.loc 1 560 26 view .LVU207
 885 003c 1223     		movs	r3, #18
 561:D:/fchai/work/i-cube/I-CUBE-HUAWEI/Projects/NUCLEO-L496ZG/Applications/Cloud/mqtt-ota/Src\stm32l4xx_nucleo_bus.c ****     GPIO_InitStruct.Speed = GPIO_SPEED_FREQ_VERY_HIGH;
 886              		.loc 1 561 26 view .LVU208
 887 003e 0121     		movs	r1, #1
 559:D:/fchai/work/i-cube/I-CUBE-HUAWEI/Projects/NUCLEO-L496ZG/Applications/Cloud/mqtt-ota/Src\stm32l4xx_nucleo_bus.c ****     GPIO_InitStruct.Mode = GPIO_MODE_AF_OD;
 888              		.loc 1 559 25 view .LVU209
 889 0040 0392     		str	r2, [sp, #12]
 560:D:/fchai/work/i-cube/I-CUBE-HUAWEI/Projects/NUCLEO-L496ZG/Applications/Cloud/mqtt-ota/Src\stm32l4xx_nucleo_bus.c ****     GPIO_InitStruct.Pull = GPIO_PULLUP;
 890              		.loc 1 560 26 view .LVU210
 891 0042 0493     		str	r3, [sp, #16]
 562:D:/fchai/work/i-cube/I-CUBE-HUAWEI/Projects/NUCLEO-L496ZG/Applications/Cloud/mqtt-ota/Src\stm32l4xx_nucleo_bus.c ****     GPIO_InitStruct.Alternate = GPIO_AF4_I2C1;
ARM GAS  T:\msys\tmp\cccQ2VxF.s 			page 30


 892              		.loc 1 562 27 view .LVU211
 893 0044 0322     		movs	r2, #3
 563:D:/fchai/work/i-cube/I-CUBE-HUAWEI/Projects/NUCLEO-L496ZG/Applications/Cloud/mqtt-ota/Src\stm32l4xx_nucleo_bus.c ****     HAL_GPIO_Init(GPIOB, &GPIO_InitStruct);
 894              		.loc 1 563 31 view .LVU212
 895 0046 0423     		movs	r3, #4
 561:D:/fchai/work/i-cube/I-CUBE-HUAWEI/Projects/NUCLEO-L496ZG/Applications/Cloud/mqtt-ota/Src\stm32l4xx_nucleo_bus.c ****     GPIO_InitStruct.Speed = GPIO_SPEED_FREQ_VERY_HIGH;
 896              		.loc 1 561 26 view .LVU213
 897 0048 0591     		str	r1, [sp, #20]
 564:D:/fchai/work/i-cube/I-CUBE-HUAWEI/Projects/NUCLEO-L496ZG/Applications/Cloud/mqtt-ota/Src\stm32l4xx_nucleo_bus.c **** 
 898              		.loc 1 564 5 view .LVU214
 899 004a 03A9     		add	r1, sp, #12
 563:D:/fchai/work/i-cube/I-CUBE-HUAWEI/Projects/NUCLEO-L496ZG/Applications/Cloud/mqtt-ota/Src\stm32l4xx_nucleo_bus.c ****     HAL_GPIO_Init(GPIOB, &GPIO_InitStruct);
 900              		.loc 1 563 31 view .LVU215
 901 004c CDE90623 		strd	r2, r3, [sp, #24]
 902              	.LBB16:
 554:D:/fchai/work/i-cube/I-CUBE-HUAWEI/Projects/NUCLEO-L496ZG/Applications/Cloud/mqtt-ota/Src\stm32l4xx_nucleo_bus.c ****     /**I2C1 GPIO Configuration    
 903              		.loc 1 554 5 view .LVU216
 904 0050 019E     		ldr	r6, [sp, #4]
 905              	.LBE16:
 554:D:/fchai/work/i-cube/I-CUBE-HUAWEI/Projects/NUCLEO-L496ZG/Applications/Cloud/mqtt-ota/Src\stm32l4xx_nucleo_bus.c ****     /**I2C1 GPIO Configuration    
 906              		.loc 1 554 5 is_stmt 1 view .LVU217
 559:D:/fchai/work/i-cube/I-CUBE-HUAWEI/Projects/NUCLEO-L496ZG/Applications/Cloud/mqtt-ota/Src\stm32l4xx_nucleo_bus.c ****     GPIO_InitStruct.Mode = GPIO_MODE_AF_OD;
 907              		.loc 1 559 5 view .LVU218
 560:D:/fchai/work/i-cube/I-CUBE-HUAWEI/Projects/NUCLEO-L496ZG/Applications/Cloud/mqtt-ota/Src\stm32l4xx_nucleo_bus.c ****     GPIO_InitStruct.Pull = GPIO_PULLUP;
 908              		.loc 1 560 5 view .LVU219
 561:D:/fchai/work/i-cube/I-CUBE-HUAWEI/Projects/NUCLEO-L496ZG/Applications/Cloud/mqtt-ota/Src\stm32l4xx_nucleo_bus.c ****     GPIO_InitStruct.Speed = GPIO_SPEED_FREQ_VERY_HIGH;
 909              		.loc 1 561 5 view .LVU220
 562:D:/fchai/work/i-cube/I-CUBE-HUAWEI/Projects/NUCLEO-L496ZG/Applications/Cloud/mqtt-ota/Src\stm32l4xx_nucleo_bus.c ****     GPIO_InitStruct.Alternate = GPIO_AF4_I2C1;
 910              		.loc 1 562 5 view .LVU221
 564:D:/fchai/work/i-cube/I-CUBE-HUAWEI/Projects/NUCLEO-L496ZG/Applications/Cloud/mqtt-ota/Src\stm32l4xx_nucleo_bus.c **** 
 911              		.loc 1 564 5 view .LVU222
 912 0052 FFF7FEFF 		bl	HAL_GPIO_Init
 913              	.LVL66:
 567:D:/fchai/work/i-cube/I-CUBE-HUAWEI/Projects/NUCLEO-L496ZG/Applications/Cloud/mqtt-ota/Src\stm32l4xx_nucleo_bus.c ****   /* USER CODE BEGIN I2C1_MspInit 1 */
 914              		.loc 1 567 5 view .LVU223
 915              	.LBB17:
 567:D:/fchai/work/i-cube/I-CUBE-HUAWEI/Projects/NUCLEO-L496ZG/Applications/Cloud/mqtt-ota/Src\stm32l4xx_nucleo_bus.c ****   /* USER CODE BEGIN I2C1_MspInit 1 */
 916              		.loc 1 567 5 view .LVU224
 567:D:/fchai/work/i-cube/I-CUBE-HUAWEI/Projects/NUCLEO-L496ZG/Applications/Cloud/mqtt-ota/Src\stm32l4xx_nucleo_bus.c ****   /* USER CODE BEGIN I2C1_MspInit 1 */
 917              		.loc 1 567 5 view .LVU225
 918 0056 AB6D     		ldr	r3, [r5, #88]
 919 0058 43F40013 		orr	r3, r3, #2097152
 920 005c AB65     		str	r3, [r5, #88]
 567:D:/fchai/work/i-cube/I-CUBE-HUAWEI/Projects/NUCLEO-L496ZG/Applications/Cloud/mqtt-ota/Src\stm32l4xx_nucleo_bus.c ****   /* USER CODE BEGIN I2C1_MspInit 1 */
 921              		.loc 1 567 5 view .LVU226
 922 005e AB6D     		ldr	r3, [r5, #88]
 923 0060 03F40013 		and	r3, r3, #2097152
 924 0064 0293     		str	r3, [sp, #8]
 567:D:/fchai/work/i-cube/I-CUBE-HUAWEI/Projects/NUCLEO-L496ZG/Applications/Cloud/mqtt-ota/Src\stm32l4xx_nucleo_bus.c ****   /* USER CODE BEGIN I2C1_MspInit 1 */
 925              		.loc 1 567 5 view .LVU227
 926              	.LBE17:
 927              	.LBE13:
 928              	.LBE12:
 235:D:/fchai/work/i-cube/I-CUBE-HUAWEI/Projects/NUCLEO-L496ZG/Applications/Cloud/mqtt-ota/Src\stm32l4xx_nucleo_bus.c ****     	{
 929              		.loc 1 235 9 is_stmt 0 view .LVU228
 930 0066 2046     		mov	r0, r4
 931              	.LBB20:
ARM GAS  T:\msys\tmp\cccQ2VxF.s 			page 31


 932              	.LBB19:
 933              	.LBB18:
 567:D:/fchai/work/i-cube/I-CUBE-HUAWEI/Projects/NUCLEO-L496ZG/Applications/Cloud/mqtt-ota/Src\stm32l4xx_nucleo_bus.c ****   /* USER CODE BEGIN I2C1_MspInit 1 */
 934              		.loc 1 567 5 view .LVU229
 935 0068 029B     		ldr	r3, [sp, #8]
 936              	.LBE18:
 567:D:/fchai/work/i-cube/I-CUBE-HUAWEI/Projects/NUCLEO-L496ZG/Applications/Cloud/mqtt-ota/Src\stm32l4xx_nucleo_bus.c ****   /* USER CODE BEGIN I2C1_MspInit 1 */
 937              		.loc 1 567 5 is_stmt 1 view .LVU230
 938              	.LBE19:
 939              	.LBE20:
 232:D:/fchai/work/i-cube/I-CUBE-HUAWEI/Projects/NUCLEO-L496ZG/Applications/Cloud/mqtt-ota/Src\stm32l4xx_nucleo_bus.c **** 	  {
 940              		.loc 1 232 7 view .LVU231
 235:D:/fchai/work/i-cube/I-CUBE-HUAWEI/Projects/NUCLEO-L496ZG/Applications/Cloud/mqtt-ota/Src\stm32l4xx_nucleo_bus.c ****     	{
 941              		.loc 1 235 6 view .LVU232
 235:D:/fchai/work/i-cube/I-CUBE-HUAWEI/Projects/NUCLEO-L496ZG/Applications/Cloud/mqtt-ota/Src\stm32l4xx_nucleo_bus.c ****     	{
 942              		.loc 1 235 9 is_stmt 0 view .LVU233
 943 006a FFF7FEFF 		bl	MX_I2C1_Init
 944              	.LVL67:
 235:D:/fchai/work/i-cube/I-CUBE-HUAWEI/Projects/NUCLEO-L496ZG/Applications/Cloud/mqtt-ota/Src\stm32l4xx_nucleo_bus.c ****     	{
 945              		.loc 1 235 8 view .LVU234
 946 006e 0146     		mov	r1, r0
 947 0070 20B9     		cbnz	r0, .L79
 239:D:/fchai/work/i-cube/I-CUBE-HUAWEI/Projects/NUCLEO-L496ZG/Applications/Cloud/mqtt-ota/Src\stm32l4xx_nucleo_bus.c ****     	{
 948              		.loc 1 239 11 is_stmt 1 view .LVU235
 239:D:/fchai/work/i-cube/I-CUBE-HUAWEI/Projects/NUCLEO-L496ZG/Applications/Cloud/mqtt-ota/Src\stm32l4xx_nucleo_bus.c ****     	{
 949              		.loc 1 239 14 is_stmt 0 view .LVU236
 950 0072 2046     		mov	r0, r4
 951 0074 FFF7FEFF 		bl	HAL_I2CEx_ConfigAnalogFilter
 952              	.LVL68:
 239:D:/fchai/work/i-cube/I-CUBE-HUAWEI/Projects/NUCLEO-L496ZG/Applications/Cloud/mqtt-ota/Src\stm32l4xx_nucleo_bus.c ****     	{
 953              		.loc 1 239 13 view .LVU237
 954 0078 0028     		cmp	r0, #0
 955 007a CBD0     		beq	.L76
 956              	.L79:
 237:D:/fchai/work/i-cube/I-CUBE-HUAWEI/Projects/NUCLEO-L496ZG/Applications/Cloud/mqtt-ota/Src\stm32l4xx_nucleo_bus.c ****     	}
 957              		.loc 1 237 14 view .LVU238
 958 007c 6FF00700 		mvn	r0, #7
 959 0080 C9E7     		b	.L75
 960              	.L83:
 961 0082 00BF     		.align	2
 962              	.L82:
 963 0084 00000000 		.word	.LANCHOR0
 964 0088 00000000 		.word	hi2c1
 965 008c 00540040 		.word	1073763328
 966 0090 00100240 		.word	1073876992
 967 0094 00040048 		.word	1207960576
 968              		.cfi_endproc
 969              	.LFE123:
 971              		.comm	hi2c1,76,4
 972              		.section	.bss.I2C1InitCounter,"aw",%nobits
 973              		.align	2
 974              		.set	.LANCHOR0,. + 0
 977              	I2C1InitCounter:
 978 0000 00000000 		.space	4
 979              		.text
 980              	.Letext0:
 981              		.file 2 "t:\\msys\\3rd\\gcc-arm-none-eabi-9-2020-q2-update-win32\\arm-none-eabi\\include\\machine\
ARM GAS  T:\msys\tmp\cccQ2VxF.s 			page 32


 982              		.file 3 "t:\\msys\\3rd\\gcc-arm-none-eabi-9-2020-q2-update-win32\\arm-none-eabi\\include\\sys\\_st
 983              		.file 4 "D:/fchai/work/i-cube/I-CUBE-HUAWEI/Middlewares/Third_Party/Huawei/iot_link/os/liteos/arch
 984              		.file 5 "D:/fchai/work/i-cube/I-CUBE-HUAWEI/Drivers/CMSIS/Device/ST/STM32L4xx/Include/system_stm32
 985              		.file 6 "D:/fchai/work/i-cube/I-CUBE-HUAWEI/Drivers/CMSIS/Device/ST/STM32L4xx/Include/stm32l496xx.
 986              		.file 7 "D:/fchai/work/i-cube/I-CUBE-HUAWEI/Drivers/STM32L4xx_HAL_Driver/Inc/stm32l4xx_hal_def.h"
 987              		.file 8 "D:/fchai/work/i-cube/I-CUBE-HUAWEI/Drivers/STM32L4xx_HAL_Driver/Inc/stm32l4xx_hal_gpio.h"
 988              		.file 9 "D:/fchai/work/i-cube/I-CUBE-HUAWEI/Drivers/STM32L4xx_HAL_Driver/Inc/stm32l4xx_hal_dma.h"
 989              		.file 10 "D:/fchai/work/i-cube/I-CUBE-HUAWEI/Drivers/STM32L4xx_HAL_Driver/Inc/stm32l4xx_hal_flash.
 990              		.file 11 "D:/fchai/work/i-cube/I-CUBE-HUAWEI/Drivers/STM32L4xx_HAL_Driver/Inc/stm32l4xx_hal_i2c.h"
 991              		.file 12 "D:/fchai/work/i-cube/I-CUBE-HUAWEI/Drivers/STM32L4xx_HAL_Driver/Inc/stm32l4xx_hal.h"
 992              		.file 13 "D:/fchai/work/i-cube/I-CUBE-HUAWEI/Projects/NUCLEO-L496ZG/Applications/Cloud/mqtt-ota/In
 993              		.file 14 "D:/fchai/work/i-cube/I-CUBE-HUAWEI/Drivers/STM32L4xx_HAL_Driver/Inc/stm32l4xx_hal_i2c_ex
ARM GAS  T:\msys\tmp\cccQ2VxF.s 			page 33

