ARM GAS  T:\msys\tmp\cceHdWEg.s 			page 1


   1              		.cpu cortex-m4
   2              		.eabi_attribute 27, 1
   3              		.eabi_attribute 28, 1
   4              		.eabi_attribute 20, 1
   5              		.eabi_attribute 21, 1
   6              		.eabi_attribute 23, 3
   7              		.eabi_attribute 24, 1
   8              		.eabi_attribute 25, 1
   9              		.eabi_attribute 26, 1
  10              		.eabi_attribute 30, 2
  11              		.eabi_attribute 34, 1
  12              		.eabi_attribute 18, 4
  13              		.file	"stm32l4xx_hal_msp.c"
  14              		.text
  15              	.Ltext0:
  16              		.cfi_sections	.debug_frame
  17              		.section	.text.HAL_MspInit,"ax",%progbits
  18              		.align	1
  19              		.p2align 2,,3
  20              		.global	HAL_MspInit
  21              		.arch armv7e-m
  22              		.syntax unified
  23              		.thumb
  24              		.thumb_func
  25              		.fpu fpv4-sp-d16
  27              	HAL_MspInit:
  28              	.LFB123:
  29              		.file 1 "D:/fchai/work/i-cube/I-CUBE-HUAWEI/Projects/NUCLEO-L496ZG/Applications/Cloud/mqtt-ota/Src
   1:D:/fchai/work/i-cube/I-CUBE-HUAWEI/Projects/NUCLEO-L496ZG/Applications/Cloud/mqtt-ota/Src\stm32l4xx_hal_msp.c **** /* USER CODE BEGIN Header */
   2:D:/fchai/work/i-cube/I-CUBE-HUAWEI/Projects/NUCLEO-L496ZG/Applications/Cloud/mqtt-ota/Src\stm32l4xx_hal_msp.c **** /**
   3:D:/fchai/work/i-cube/I-CUBE-HUAWEI/Projects/NUCLEO-L496ZG/Applications/Cloud/mqtt-ota/Src\stm32l4xx_hal_msp.c ****   ******************************************************************************
   4:D:/fchai/work/i-cube/I-CUBE-HUAWEI/Projects/NUCLEO-L496ZG/Applications/Cloud/mqtt-ota/Src\stm32l4xx_hal_msp.c ****   * File Name          : stm32l4xx_hal_msp.c
   5:D:/fchai/work/i-cube/I-CUBE-HUAWEI/Projects/NUCLEO-L496ZG/Applications/Cloud/mqtt-ota/Src\stm32l4xx_hal_msp.c ****   * Description        : This file provides code for the MSP Initialization 
   6:D:/fchai/work/i-cube/I-CUBE-HUAWEI/Projects/NUCLEO-L496ZG/Applications/Cloud/mqtt-ota/Src\stm32l4xx_hal_msp.c ****   *                      and de-Initialization codes.
   7:D:/fchai/work/i-cube/I-CUBE-HUAWEI/Projects/NUCLEO-L496ZG/Applications/Cloud/mqtt-ota/Src\stm32l4xx_hal_msp.c ****   ******************************************************************************
   8:D:/fchai/work/i-cube/I-CUBE-HUAWEI/Projects/NUCLEO-L496ZG/Applications/Cloud/mqtt-ota/Src\stm32l4xx_hal_msp.c ****   * @attention
   9:D:/fchai/work/i-cube/I-CUBE-HUAWEI/Projects/NUCLEO-L496ZG/Applications/Cloud/mqtt-ota/Src\stm32l4xx_hal_msp.c ****   *
  10:D:/fchai/work/i-cube/I-CUBE-HUAWEI/Projects/NUCLEO-L496ZG/Applications/Cloud/mqtt-ota/Src\stm32l4xx_hal_msp.c ****   * <h2><center>&copy; Copyright (c) 2020 STMicroelectronics.
  11:D:/fchai/work/i-cube/I-CUBE-HUAWEI/Projects/NUCLEO-L496ZG/Applications/Cloud/mqtt-ota/Src\stm32l4xx_hal_msp.c ****   * All rights reserved.</center></h2>
  12:D:/fchai/work/i-cube/I-CUBE-HUAWEI/Projects/NUCLEO-L496ZG/Applications/Cloud/mqtt-ota/Src\stm32l4xx_hal_msp.c ****   *
  13:D:/fchai/work/i-cube/I-CUBE-HUAWEI/Projects/NUCLEO-L496ZG/Applications/Cloud/mqtt-ota/Src\stm32l4xx_hal_msp.c ****   * This software component is licensed by ST under Ultimate Liberty license
  14:D:/fchai/work/i-cube/I-CUBE-HUAWEI/Projects/NUCLEO-L496ZG/Applications/Cloud/mqtt-ota/Src\stm32l4xx_hal_msp.c ****   * SLA0044, the "License"; You may not use this file except in compliance with
  15:D:/fchai/work/i-cube/I-CUBE-HUAWEI/Projects/NUCLEO-L496ZG/Applications/Cloud/mqtt-ota/Src\stm32l4xx_hal_msp.c ****   * the License. You may obtain a copy of the License at:
  16:D:/fchai/work/i-cube/I-CUBE-HUAWEI/Projects/NUCLEO-L496ZG/Applications/Cloud/mqtt-ota/Src\stm32l4xx_hal_msp.c ****   *                             www.st.com/SLA0044
  17:D:/fchai/work/i-cube/I-CUBE-HUAWEI/Projects/NUCLEO-L496ZG/Applications/Cloud/mqtt-ota/Src\stm32l4xx_hal_msp.c ****   *
  18:D:/fchai/work/i-cube/I-CUBE-HUAWEI/Projects/NUCLEO-L496ZG/Applications/Cloud/mqtt-ota/Src\stm32l4xx_hal_msp.c ****   ******************************************************************************
  19:D:/fchai/work/i-cube/I-CUBE-HUAWEI/Projects/NUCLEO-L496ZG/Applications/Cloud/mqtt-ota/Src\stm32l4xx_hal_msp.c ****   */
  20:D:/fchai/work/i-cube/I-CUBE-HUAWEI/Projects/NUCLEO-L496ZG/Applications/Cloud/mqtt-ota/Src\stm32l4xx_hal_msp.c **** /* USER CODE END Header */
  21:D:/fchai/work/i-cube/I-CUBE-HUAWEI/Projects/NUCLEO-L496ZG/Applications/Cloud/mqtt-ota/Src\stm32l4xx_hal_msp.c **** 
  22:D:/fchai/work/i-cube/I-CUBE-HUAWEI/Projects/NUCLEO-L496ZG/Applications/Cloud/mqtt-ota/Src\stm32l4xx_hal_msp.c **** /* Includes ------------------------------------------------------------------*/
  23:D:/fchai/work/i-cube/I-CUBE-HUAWEI/Projects/NUCLEO-L496ZG/Applications/Cloud/mqtt-ota/Src\stm32l4xx_hal_msp.c **** #include "main.h"
  24:D:/fchai/work/i-cube/I-CUBE-HUAWEI/Projects/NUCLEO-L496ZG/Applications/Cloud/mqtt-ota/Src\stm32l4xx_hal_msp.c **** /* USER CODE BEGIN Includes */
  25:D:/fchai/work/i-cube/I-CUBE-HUAWEI/Projects/NUCLEO-L496ZG/Applications/Cloud/mqtt-ota/Src\stm32l4xx_hal_msp.c **** 
  26:D:/fchai/work/i-cube/I-CUBE-HUAWEI/Projects/NUCLEO-L496ZG/Applications/Cloud/mqtt-ota/Src\stm32l4xx_hal_msp.c **** /* USER CODE END Includes */
  27:D:/fchai/work/i-cube/I-CUBE-HUAWEI/Projects/NUCLEO-L496ZG/Applications/Cloud/mqtt-ota/Src\stm32l4xx_hal_msp.c **** 
  28:D:/fchai/work/i-cube/I-CUBE-HUAWEI/Projects/NUCLEO-L496ZG/Applications/Cloud/mqtt-ota/Src\stm32l4xx_hal_msp.c **** /* Private typedef -----------------------------------------------------------*/
  29:D:/fchai/work/i-cube/I-CUBE-HUAWEI/Projects/NUCLEO-L496ZG/Applications/Cloud/mqtt-ota/Src\stm32l4xx_hal_msp.c **** /* USER CODE BEGIN TD */
ARM GAS  T:\msys\tmp\cceHdWEg.s 			page 2


  30:D:/fchai/work/i-cube/I-CUBE-HUAWEI/Projects/NUCLEO-L496ZG/Applications/Cloud/mqtt-ota/Src\stm32l4xx_hal_msp.c **** 
  31:D:/fchai/work/i-cube/I-CUBE-HUAWEI/Projects/NUCLEO-L496ZG/Applications/Cloud/mqtt-ota/Src\stm32l4xx_hal_msp.c **** /* USER CODE END TD */
  32:D:/fchai/work/i-cube/I-CUBE-HUAWEI/Projects/NUCLEO-L496ZG/Applications/Cloud/mqtt-ota/Src\stm32l4xx_hal_msp.c **** 
  33:D:/fchai/work/i-cube/I-CUBE-HUAWEI/Projects/NUCLEO-L496ZG/Applications/Cloud/mqtt-ota/Src\stm32l4xx_hal_msp.c **** /* Private define ------------------------------------------------------------*/
  34:D:/fchai/work/i-cube/I-CUBE-HUAWEI/Projects/NUCLEO-L496ZG/Applications/Cloud/mqtt-ota/Src\stm32l4xx_hal_msp.c **** /* USER CODE BEGIN Define */
  35:D:/fchai/work/i-cube/I-CUBE-HUAWEI/Projects/NUCLEO-L496ZG/Applications/Cloud/mqtt-ota/Src\stm32l4xx_hal_msp.c ****  
  36:D:/fchai/work/i-cube/I-CUBE-HUAWEI/Projects/NUCLEO-L496ZG/Applications/Cloud/mqtt-ota/Src\stm32l4xx_hal_msp.c **** /* USER CODE END Define */
  37:D:/fchai/work/i-cube/I-CUBE-HUAWEI/Projects/NUCLEO-L496ZG/Applications/Cloud/mqtt-ota/Src\stm32l4xx_hal_msp.c **** 
  38:D:/fchai/work/i-cube/I-CUBE-HUAWEI/Projects/NUCLEO-L496ZG/Applications/Cloud/mqtt-ota/Src\stm32l4xx_hal_msp.c **** /* Private macro -------------------------------------------------------------*/
  39:D:/fchai/work/i-cube/I-CUBE-HUAWEI/Projects/NUCLEO-L496ZG/Applications/Cloud/mqtt-ota/Src\stm32l4xx_hal_msp.c **** /* USER CODE BEGIN Macro */
  40:D:/fchai/work/i-cube/I-CUBE-HUAWEI/Projects/NUCLEO-L496ZG/Applications/Cloud/mqtt-ota/Src\stm32l4xx_hal_msp.c **** 
  41:D:/fchai/work/i-cube/I-CUBE-HUAWEI/Projects/NUCLEO-L496ZG/Applications/Cloud/mqtt-ota/Src\stm32l4xx_hal_msp.c **** /* USER CODE END Macro */
  42:D:/fchai/work/i-cube/I-CUBE-HUAWEI/Projects/NUCLEO-L496ZG/Applications/Cloud/mqtt-ota/Src\stm32l4xx_hal_msp.c **** 
  43:D:/fchai/work/i-cube/I-CUBE-HUAWEI/Projects/NUCLEO-L496ZG/Applications/Cloud/mqtt-ota/Src\stm32l4xx_hal_msp.c **** /* Private variables ---------------------------------------------------------*/
  44:D:/fchai/work/i-cube/I-CUBE-HUAWEI/Projects/NUCLEO-L496ZG/Applications/Cloud/mqtt-ota/Src\stm32l4xx_hal_msp.c **** /* USER CODE BEGIN PV */
  45:D:/fchai/work/i-cube/I-CUBE-HUAWEI/Projects/NUCLEO-L496ZG/Applications/Cloud/mqtt-ota/Src\stm32l4xx_hal_msp.c **** 
  46:D:/fchai/work/i-cube/I-CUBE-HUAWEI/Projects/NUCLEO-L496ZG/Applications/Cloud/mqtt-ota/Src\stm32l4xx_hal_msp.c **** /* USER CODE END PV */
  47:D:/fchai/work/i-cube/I-CUBE-HUAWEI/Projects/NUCLEO-L496ZG/Applications/Cloud/mqtt-ota/Src\stm32l4xx_hal_msp.c **** 
  48:D:/fchai/work/i-cube/I-CUBE-HUAWEI/Projects/NUCLEO-L496ZG/Applications/Cloud/mqtt-ota/Src\stm32l4xx_hal_msp.c **** /* Private function prototypes -----------------------------------------------*/
  49:D:/fchai/work/i-cube/I-CUBE-HUAWEI/Projects/NUCLEO-L496ZG/Applications/Cloud/mqtt-ota/Src\stm32l4xx_hal_msp.c **** /* USER CODE BEGIN PFP */
  50:D:/fchai/work/i-cube/I-CUBE-HUAWEI/Projects/NUCLEO-L496ZG/Applications/Cloud/mqtt-ota/Src\stm32l4xx_hal_msp.c **** 
  51:D:/fchai/work/i-cube/I-CUBE-HUAWEI/Projects/NUCLEO-L496ZG/Applications/Cloud/mqtt-ota/Src\stm32l4xx_hal_msp.c **** /* USER CODE END PFP */
  52:D:/fchai/work/i-cube/I-CUBE-HUAWEI/Projects/NUCLEO-L496ZG/Applications/Cloud/mqtt-ota/Src\stm32l4xx_hal_msp.c **** 
  53:D:/fchai/work/i-cube/I-CUBE-HUAWEI/Projects/NUCLEO-L496ZG/Applications/Cloud/mqtt-ota/Src\stm32l4xx_hal_msp.c **** /* External functions --------------------------------------------------------*/
  54:D:/fchai/work/i-cube/I-CUBE-HUAWEI/Projects/NUCLEO-L496ZG/Applications/Cloud/mqtt-ota/Src\stm32l4xx_hal_msp.c **** /* USER CODE BEGIN ExternalFunctions */
  55:D:/fchai/work/i-cube/I-CUBE-HUAWEI/Projects/NUCLEO-L496ZG/Applications/Cloud/mqtt-ota/Src\stm32l4xx_hal_msp.c **** 
  56:D:/fchai/work/i-cube/I-CUBE-HUAWEI/Projects/NUCLEO-L496ZG/Applications/Cloud/mqtt-ota/Src\stm32l4xx_hal_msp.c **** /* USER CODE END ExternalFunctions */
  57:D:/fchai/work/i-cube/I-CUBE-HUAWEI/Projects/NUCLEO-L496ZG/Applications/Cloud/mqtt-ota/Src\stm32l4xx_hal_msp.c **** 
  58:D:/fchai/work/i-cube/I-CUBE-HUAWEI/Projects/NUCLEO-L496ZG/Applications/Cloud/mqtt-ota/Src\stm32l4xx_hal_msp.c **** /* USER CODE BEGIN 0 */
  59:D:/fchai/work/i-cube/I-CUBE-HUAWEI/Projects/NUCLEO-L496ZG/Applications/Cloud/mqtt-ota/Src\stm32l4xx_hal_msp.c **** 
  60:D:/fchai/work/i-cube/I-CUBE-HUAWEI/Projects/NUCLEO-L496ZG/Applications/Cloud/mqtt-ota/Src\stm32l4xx_hal_msp.c **** /* USER CODE END 0 */
  61:D:/fchai/work/i-cube/I-CUBE-HUAWEI/Projects/NUCLEO-L496ZG/Applications/Cloud/mqtt-ota/Src\stm32l4xx_hal_msp.c **** /**
  62:D:/fchai/work/i-cube/I-CUBE-HUAWEI/Projects/NUCLEO-L496ZG/Applications/Cloud/mqtt-ota/Src\stm32l4xx_hal_msp.c ****   * Initializes the Global MSP.
  63:D:/fchai/work/i-cube/I-CUBE-HUAWEI/Projects/NUCLEO-L496ZG/Applications/Cloud/mqtt-ota/Src\stm32l4xx_hal_msp.c ****   */
  64:D:/fchai/work/i-cube/I-CUBE-HUAWEI/Projects/NUCLEO-L496ZG/Applications/Cloud/mqtt-ota/Src\stm32l4xx_hal_msp.c **** void HAL_MspInit(void)
  65:D:/fchai/work/i-cube/I-CUBE-HUAWEI/Projects/NUCLEO-L496ZG/Applications/Cloud/mqtt-ota/Src\stm32l4xx_hal_msp.c **** {
  30              		.loc 1 65 1 view -0
  31              		.cfi_startproc
  32              		@ args = 0, pretend = 0, frame = 8
  33              		@ frame_needed = 0, uses_anonymous_args = 0
  34              		@ link register save eliminated.
  66:D:/fchai/work/i-cube/I-CUBE-HUAWEI/Projects/NUCLEO-L496ZG/Applications/Cloud/mqtt-ota/Src\stm32l4xx_hal_msp.c ****   /* USER CODE BEGIN MspInit 0 */
  67:D:/fchai/work/i-cube/I-CUBE-HUAWEI/Projects/NUCLEO-L496ZG/Applications/Cloud/mqtt-ota/Src\stm32l4xx_hal_msp.c **** 
  68:D:/fchai/work/i-cube/I-CUBE-HUAWEI/Projects/NUCLEO-L496ZG/Applications/Cloud/mqtt-ota/Src\stm32l4xx_hal_msp.c ****   /* USER CODE END MspInit 0 */
  69:D:/fchai/work/i-cube/I-CUBE-HUAWEI/Projects/NUCLEO-L496ZG/Applications/Cloud/mqtt-ota/Src\stm32l4xx_hal_msp.c **** 
  70:D:/fchai/work/i-cube/I-CUBE-HUAWEI/Projects/NUCLEO-L496ZG/Applications/Cloud/mqtt-ota/Src\stm32l4xx_hal_msp.c ****   __HAL_RCC_SYSCFG_CLK_ENABLE();
  35              		.loc 1 70 3 view .LVU1
  36              	.LBB2:
  37              		.loc 1 70 3 view .LVU2
  38              		.loc 1 70 3 view .LVU3
  39 0000 0A4B     		ldr	r3, .L4
  40 0002 1A6E     		ldr	r2, [r3, #96]
  41 0004 42F00102 		orr	r2, r2, #1
  42 0008 1A66     		str	r2, [r3, #96]
  43              		.loc 1 70 3 view .LVU4
  44 000a 1A6E     		ldr	r2, [r3, #96]
  45              	.LBE2:
ARM GAS  T:\msys\tmp\cceHdWEg.s 			page 3


  65:D:/fchai/work/i-cube/I-CUBE-HUAWEI/Projects/NUCLEO-L496ZG/Applications/Cloud/mqtt-ota/Src\stm32l4xx_hal_msp.c ****   /* USER CODE BEGIN MspInit 0 */
  46              		.loc 1 65 1 is_stmt 0 view .LVU5
  47 000c 82B0     		sub	sp, sp, #8
  48              	.LCFI0:
  49              		.cfi_def_cfa_offset 8
  50              	.LBB3:
  51              		.loc 1 70 3 view .LVU6
  52 000e 02F00102 		and	r2, r2, #1
  53 0012 0092     		str	r2, [sp]
  54              		.loc 1 70 3 is_stmt 1 view .LVU7
  55 0014 009A     		ldr	r2, [sp]
  56              	.LBE3:
  57              		.loc 1 70 3 view .LVU8
  71:D:/fchai/work/i-cube/I-CUBE-HUAWEI/Projects/NUCLEO-L496ZG/Applications/Cloud/mqtt-ota/Src\stm32l4xx_hal_msp.c ****   __HAL_RCC_PWR_CLK_ENABLE();
  58              		.loc 1 71 3 view .LVU9
  59              	.LBB4:
  60              		.loc 1 71 3 view .LVU10
  61              		.loc 1 71 3 view .LVU11
  62 0016 9A6D     		ldr	r2, [r3, #88]
  63 0018 42F08052 		orr	r2, r2, #268435456
  64 001c 9A65     		str	r2, [r3, #88]
  65              		.loc 1 71 3 view .LVU12
  66 001e 9B6D     		ldr	r3, [r3, #88]
  67 0020 03F08053 		and	r3, r3, #268435456
  68 0024 0193     		str	r3, [sp, #4]
  69              		.loc 1 71 3 view .LVU13
  70 0026 019B     		ldr	r3, [sp, #4]
  71              	.LBE4:
  72              		.loc 1 71 3 view .LVU14
  72:D:/fchai/work/i-cube/I-CUBE-HUAWEI/Projects/NUCLEO-L496ZG/Applications/Cloud/mqtt-ota/Src\stm32l4xx_hal_msp.c **** 
  73:D:/fchai/work/i-cube/I-CUBE-HUAWEI/Projects/NUCLEO-L496ZG/Applications/Cloud/mqtt-ota/Src\stm32l4xx_hal_msp.c ****   /* System interrupt init*/
  74:D:/fchai/work/i-cube/I-CUBE-HUAWEI/Projects/NUCLEO-L496ZG/Applications/Cloud/mqtt-ota/Src\stm32l4xx_hal_msp.c **** 
  75:D:/fchai/work/i-cube/I-CUBE-HUAWEI/Projects/NUCLEO-L496ZG/Applications/Cloud/mqtt-ota/Src\stm32l4xx_hal_msp.c ****   /* USER CODE BEGIN MspInit 1 */
  76:D:/fchai/work/i-cube/I-CUBE-HUAWEI/Projects/NUCLEO-L496ZG/Applications/Cloud/mqtt-ota/Src\stm32l4xx_hal_msp.c **** 
  77:D:/fchai/work/i-cube/I-CUBE-HUAWEI/Projects/NUCLEO-L496ZG/Applications/Cloud/mqtt-ota/Src\stm32l4xx_hal_msp.c ****   /* USER CODE END MspInit 1 */
  78:D:/fchai/work/i-cube/I-CUBE-HUAWEI/Projects/NUCLEO-L496ZG/Applications/Cloud/mqtt-ota/Src\stm32l4xx_hal_msp.c **** }
  73              		.loc 1 78 1 is_stmt 0 view .LVU15
  74 0028 02B0     		add	sp, sp, #8
  75              	.LCFI1:
  76              		.cfi_def_cfa_offset 0
  77              		@ sp needed
  78 002a 7047     		bx	lr
  79              	.L5:
  80              		.align	2
  81              	.L4:
  82 002c 00100240 		.word	1073876992
  83              		.cfi_endproc
  84              	.LFE123:
  86              		.section	.text.HAL_UART_MspInit,"ax",%progbits
  87              		.align	1
  88              		.p2align 2,,3
  89              		.global	HAL_UART_MspInit
  90              		.syntax unified
  91              		.thumb
  92              		.thumb_func
  93              		.fpu fpv4-sp-d16
  95              	HAL_UART_MspInit:
ARM GAS  T:\msys\tmp\cceHdWEg.s 			page 4


  96              	.LVL0:
  97              	.LFB124:
  79:D:/fchai/work/i-cube/I-CUBE-HUAWEI/Projects/NUCLEO-L496ZG/Applications/Cloud/mqtt-ota/Src\stm32l4xx_hal_msp.c **** 
  80:D:/fchai/work/i-cube/I-CUBE-HUAWEI/Projects/NUCLEO-L496ZG/Applications/Cloud/mqtt-ota/Src\stm32l4xx_hal_msp.c **** /**
  81:D:/fchai/work/i-cube/I-CUBE-HUAWEI/Projects/NUCLEO-L496ZG/Applications/Cloud/mqtt-ota/Src\stm32l4xx_hal_msp.c **** * @brief UART MSP Initialization
  82:D:/fchai/work/i-cube/I-CUBE-HUAWEI/Projects/NUCLEO-L496ZG/Applications/Cloud/mqtt-ota/Src\stm32l4xx_hal_msp.c **** * This function configures the hardware resources used in this example
  83:D:/fchai/work/i-cube/I-CUBE-HUAWEI/Projects/NUCLEO-L496ZG/Applications/Cloud/mqtt-ota/Src\stm32l4xx_hal_msp.c **** * @param huart: UART handle pointer
  84:D:/fchai/work/i-cube/I-CUBE-HUAWEI/Projects/NUCLEO-L496ZG/Applications/Cloud/mqtt-ota/Src\stm32l4xx_hal_msp.c **** * @retval None
  85:D:/fchai/work/i-cube/I-CUBE-HUAWEI/Projects/NUCLEO-L496ZG/Applications/Cloud/mqtt-ota/Src\stm32l4xx_hal_msp.c **** */
  86:D:/fchai/work/i-cube/I-CUBE-HUAWEI/Projects/NUCLEO-L496ZG/Applications/Cloud/mqtt-ota/Src\stm32l4xx_hal_msp.c **** void HAL_UART_MspInit(UART_HandleTypeDef* huart)
  87:D:/fchai/work/i-cube/I-CUBE-HUAWEI/Projects/NUCLEO-L496ZG/Applications/Cloud/mqtt-ota/Src\stm32l4xx_hal_msp.c **** {
  98              		.loc 1 87 1 is_stmt 1 view -0
  99              		.cfi_startproc
 100              		@ args = 0, pretend = 0, frame = 40
 101              		@ frame_needed = 0, uses_anonymous_args = 0
  88:D:/fchai/work/i-cube/I-CUBE-HUAWEI/Projects/NUCLEO-L496ZG/Applications/Cloud/mqtt-ota/Src\stm32l4xx_hal_msp.c ****   GPIO_InitTypeDef GPIO_InitStruct = {0};
 102              		.loc 1 88 3 view .LVU17
  87:D:/fchai/work/i-cube/I-CUBE-HUAWEI/Projects/NUCLEO-L496ZG/Applications/Cloud/mqtt-ota/Src\stm32l4xx_hal_msp.c ****   GPIO_InitTypeDef GPIO_InitStruct = {0};
 103              		.loc 1 87 1 is_stmt 0 view .LVU18
 104 0000 70B5     		push	{r4, r5, r6, lr}
 105              	.LCFI2:
 106              		.cfi_def_cfa_offset 16
 107              		.cfi_offset 4, -16
 108              		.cfi_offset 5, -12
 109              		.cfi_offset 6, -8
 110              		.cfi_offset 14, -4
  89:D:/fchai/work/i-cube/I-CUBE-HUAWEI/Projects/NUCLEO-L496ZG/Applications/Cloud/mqtt-ota/Src\stm32l4xx_hal_msp.c ****   if(huart->Instance==LPUART1)
 111              		.loc 1 89 11 view .LVU19
 112 0002 0368     		ldr	r3, [r0]
 113              		.loc 1 89 5 view .LVU20
 114 0004 2F4A     		ldr	r2, .L12
  87:D:/fchai/work/i-cube/I-CUBE-HUAWEI/Projects/NUCLEO-L496ZG/Applications/Cloud/mqtt-ota/Src\stm32l4xx_hal_msp.c ****   GPIO_InitTypeDef GPIO_InitStruct = {0};
 115              		.loc 1 87 1 view .LVU21
 116 0006 8AB0     		sub	sp, sp, #40
 117              	.LCFI3:
 118              		.cfi_def_cfa_offset 56
  88:D:/fchai/work/i-cube/I-CUBE-HUAWEI/Projects/NUCLEO-L496ZG/Applications/Cloud/mqtt-ota/Src\stm32l4xx_hal_msp.c ****   GPIO_InitTypeDef GPIO_InitStruct = {0};
 119              		.loc 1 88 20 view .LVU22
 120 0008 0024     		movs	r4, #0
 121              		.loc 1 89 5 view .LVU23
 122 000a 9342     		cmp	r3, r2
  88:D:/fchai/work/i-cube/I-CUBE-HUAWEI/Projects/NUCLEO-L496ZG/Applications/Cloud/mqtt-ota/Src\stm32l4xx_hal_msp.c ****   GPIO_InitTypeDef GPIO_InitStruct = {0};
 123              		.loc 1 88 20 view .LVU24
 124 000c CDE90544 		strd	r4, r4, [sp, #20]
 125 0010 CDE90744 		strd	r4, r4, [sp, #28]
 126 0014 0994     		str	r4, [sp, #36]
 127              		.loc 1 89 3 is_stmt 1 view .LVU25
 128              		.loc 1 89 5 is_stmt 0 view .LVU26
 129 0016 04D0     		beq	.L10
  90:D:/fchai/work/i-cube/I-CUBE-HUAWEI/Projects/NUCLEO-L496ZG/Applications/Cloud/mqtt-ota/Src\stm32l4xx_hal_msp.c ****   {
  91:D:/fchai/work/i-cube/I-CUBE-HUAWEI/Projects/NUCLEO-L496ZG/Applications/Cloud/mqtt-ota/Src\stm32l4xx_hal_msp.c ****   /* USER CODE BEGIN LPUART1_MspInit 0 */
  92:D:/fchai/work/i-cube/I-CUBE-HUAWEI/Projects/NUCLEO-L496ZG/Applications/Cloud/mqtt-ota/Src\stm32l4xx_hal_msp.c **** 
  93:D:/fchai/work/i-cube/I-CUBE-HUAWEI/Projects/NUCLEO-L496ZG/Applications/Cloud/mqtt-ota/Src\stm32l4xx_hal_msp.c ****   /* USER CODE END LPUART1_MspInit 0 */
  94:D:/fchai/work/i-cube/I-CUBE-HUAWEI/Projects/NUCLEO-L496ZG/Applications/Cloud/mqtt-ota/Src\stm32l4xx_hal_msp.c ****     /* Peripheral clock enable */
  95:D:/fchai/work/i-cube/I-CUBE-HUAWEI/Projects/NUCLEO-L496ZG/Applications/Cloud/mqtt-ota/Src\stm32l4xx_hal_msp.c ****     __HAL_RCC_LPUART1_CLK_ENABLE();
  96:D:/fchai/work/i-cube/I-CUBE-HUAWEI/Projects/NUCLEO-L496ZG/Applications/Cloud/mqtt-ota/Src\stm32l4xx_hal_msp.c ****   
  97:D:/fchai/work/i-cube/I-CUBE-HUAWEI/Projects/NUCLEO-L496ZG/Applications/Cloud/mqtt-ota/Src\stm32l4xx_hal_msp.c ****     __HAL_RCC_GPIOG_CLK_ENABLE();
ARM GAS  T:\msys\tmp\cceHdWEg.s 			page 5


  98:D:/fchai/work/i-cube/I-CUBE-HUAWEI/Projects/NUCLEO-L496ZG/Applications/Cloud/mqtt-ota/Src\stm32l4xx_hal_msp.c ****     HAL_PWREx_EnableVddIO2();
  99:D:/fchai/work/i-cube/I-CUBE-HUAWEI/Projects/NUCLEO-L496ZG/Applications/Cloud/mqtt-ota/Src\stm32l4xx_hal_msp.c ****     /**LPUART1 GPIO Configuration    
 100:D:/fchai/work/i-cube/I-CUBE-HUAWEI/Projects/NUCLEO-L496ZG/Applications/Cloud/mqtt-ota/Src\stm32l4xx_hal_msp.c ****     PG7     ------> LPUART1_TX
 101:D:/fchai/work/i-cube/I-CUBE-HUAWEI/Projects/NUCLEO-L496ZG/Applications/Cloud/mqtt-ota/Src\stm32l4xx_hal_msp.c ****     PG8     ------> LPUART1_RX 
 102:D:/fchai/work/i-cube/I-CUBE-HUAWEI/Projects/NUCLEO-L496ZG/Applications/Cloud/mqtt-ota/Src\stm32l4xx_hal_msp.c ****     */
 103:D:/fchai/work/i-cube/I-CUBE-HUAWEI/Projects/NUCLEO-L496ZG/Applications/Cloud/mqtt-ota/Src\stm32l4xx_hal_msp.c ****     GPIO_InitStruct.Pin = STLK_RX_Pin|STLK_TX_Pin;
 104:D:/fchai/work/i-cube/I-CUBE-HUAWEI/Projects/NUCLEO-L496ZG/Applications/Cloud/mqtt-ota/Src\stm32l4xx_hal_msp.c ****     GPIO_InitStruct.Mode = GPIO_MODE_AF_PP;
 105:D:/fchai/work/i-cube/I-CUBE-HUAWEI/Projects/NUCLEO-L496ZG/Applications/Cloud/mqtt-ota/Src\stm32l4xx_hal_msp.c ****     GPIO_InitStruct.Pull = GPIO_NOPULL;
 106:D:/fchai/work/i-cube/I-CUBE-HUAWEI/Projects/NUCLEO-L496ZG/Applications/Cloud/mqtt-ota/Src\stm32l4xx_hal_msp.c ****     GPIO_InitStruct.Speed = GPIO_SPEED_FREQ_VERY_HIGH;
 107:D:/fchai/work/i-cube/I-CUBE-HUAWEI/Projects/NUCLEO-L496ZG/Applications/Cloud/mqtt-ota/Src\stm32l4xx_hal_msp.c ****     GPIO_InitStruct.Alternate = GPIO_AF8_LPUART1;
 108:D:/fchai/work/i-cube/I-CUBE-HUAWEI/Projects/NUCLEO-L496ZG/Applications/Cloud/mqtt-ota/Src\stm32l4xx_hal_msp.c ****     HAL_GPIO_Init(GPIOG, &GPIO_InitStruct);
 109:D:/fchai/work/i-cube/I-CUBE-HUAWEI/Projects/NUCLEO-L496ZG/Applications/Cloud/mqtt-ota/Src\stm32l4xx_hal_msp.c **** 
 110:D:/fchai/work/i-cube/I-CUBE-HUAWEI/Projects/NUCLEO-L496ZG/Applications/Cloud/mqtt-ota/Src\stm32l4xx_hal_msp.c ****     /* LPUART1 interrupt Init */
 111:D:/fchai/work/i-cube/I-CUBE-HUAWEI/Projects/NUCLEO-L496ZG/Applications/Cloud/mqtt-ota/Src\stm32l4xx_hal_msp.c ****     HAL_NVIC_SetPriority(LPUART1_IRQn, 0, 0);
 112:D:/fchai/work/i-cube/I-CUBE-HUAWEI/Projects/NUCLEO-L496ZG/Applications/Cloud/mqtt-ota/Src\stm32l4xx_hal_msp.c ****     HAL_NVIC_EnableIRQ(LPUART1_IRQn);
 113:D:/fchai/work/i-cube/I-CUBE-HUAWEI/Projects/NUCLEO-L496ZG/Applications/Cloud/mqtt-ota/Src\stm32l4xx_hal_msp.c ****   /* USER CODE BEGIN LPUART1_MspInit 1 */
 114:D:/fchai/work/i-cube/I-CUBE-HUAWEI/Projects/NUCLEO-L496ZG/Applications/Cloud/mqtt-ota/Src\stm32l4xx_hal_msp.c **** 
 115:D:/fchai/work/i-cube/I-CUBE-HUAWEI/Projects/NUCLEO-L496ZG/Applications/Cloud/mqtt-ota/Src\stm32l4xx_hal_msp.c ****   /* USER CODE END LPUART1_MspInit 1 */
 116:D:/fchai/work/i-cube/I-CUBE-HUAWEI/Projects/NUCLEO-L496ZG/Applications/Cloud/mqtt-ota/Src\stm32l4xx_hal_msp.c ****   }
 117:D:/fchai/work/i-cube/I-CUBE-HUAWEI/Projects/NUCLEO-L496ZG/Applications/Cloud/mqtt-ota/Src\stm32l4xx_hal_msp.c ****   else if(huart->Instance==USART3)
 130              		.loc 1 117 8 is_stmt 1 view .LVU27
 131              		.loc 1 117 10 is_stmt 0 view .LVU28
 132 0018 2B4A     		ldr	r2, .L12+4
 133 001a 9342     		cmp	r3, r2
 134 001c 2ED0     		beq	.L11
 118:D:/fchai/work/i-cube/I-CUBE-HUAWEI/Projects/NUCLEO-L496ZG/Applications/Cloud/mqtt-ota/Src\stm32l4xx_hal_msp.c ****   {
 119:D:/fchai/work/i-cube/I-CUBE-HUAWEI/Projects/NUCLEO-L496ZG/Applications/Cloud/mqtt-ota/Src\stm32l4xx_hal_msp.c ****   /* USER CODE BEGIN USART3_MspInit 0 */
 120:D:/fchai/work/i-cube/I-CUBE-HUAWEI/Projects/NUCLEO-L496ZG/Applications/Cloud/mqtt-ota/Src\stm32l4xx_hal_msp.c **** 
 121:D:/fchai/work/i-cube/I-CUBE-HUAWEI/Projects/NUCLEO-L496ZG/Applications/Cloud/mqtt-ota/Src\stm32l4xx_hal_msp.c ****   /* USER CODE END USART3_MspInit 0 */
 122:D:/fchai/work/i-cube/I-CUBE-HUAWEI/Projects/NUCLEO-L496ZG/Applications/Cloud/mqtt-ota/Src\stm32l4xx_hal_msp.c ****     /* Peripheral clock enable */
 123:D:/fchai/work/i-cube/I-CUBE-HUAWEI/Projects/NUCLEO-L496ZG/Applications/Cloud/mqtt-ota/Src\stm32l4xx_hal_msp.c ****     __HAL_RCC_USART3_CLK_ENABLE();
 124:D:/fchai/work/i-cube/I-CUBE-HUAWEI/Projects/NUCLEO-L496ZG/Applications/Cloud/mqtt-ota/Src\stm32l4xx_hal_msp.c ****   
 125:D:/fchai/work/i-cube/I-CUBE-HUAWEI/Projects/NUCLEO-L496ZG/Applications/Cloud/mqtt-ota/Src\stm32l4xx_hal_msp.c ****     __HAL_RCC_GPIOD_CLK_ENABLE();
 126:D:/fchai/work/i-cube/I-CUBE-HUAWEI/Projects/NUCLEO-L496ZG/Applications/Cloud/mqtt-ota/Src\stm32l4xx_hal_msp.c ****     /**USART3 GPIO Configuration    
 127:D:/fchai/work/i-cube/I-CUBE-HUAWEI/Projects/NUCLEO-L496ZG/Applications/Cloud/mqtt-ota/Src\stm32l4xx_hal_msp.c ****     PD8     ------> USART3_TX
 128:D:/fchai/work/i-cube/I-CUBE-HUAWEI/Projects/NUCLEO-L496ZG/Applications/Cloud/mqtt-ota/Src\stm32l4xx_hal_msp.c ****     PD9     ------> USART3_RX 
 129:D:/fchai/work/i-cube/I-CUBE-HUAWEI/Projects/NUCLEO-L496ZG/Applications/Cloud/mqtt-ota/Src\stm32l4xx_hal_msp.c ****     */
 130:D:/fchai/work/i-cube/I-CUBE-HUAWEI/Projects/NUCLEO-L496ZG/Applications/Cloud/mqtt-ota/Src\stm32l4xx_hal_msp.c ****     GPIO_InitStruct.Pin = GPIO_PIN_8|GPIO_PIN_9;
 131:D:/fchai/work/i-cube/I-CUBE-HUAWEI/Projects/NUCLEO-L496ZG/Applications/Cloud/mqtt-ota/Src\stm32l4xx_hal_msp.c ****     GPIO_InitStruct.Mode = GPIO_MODE_AF_PP;
 132:D:/fchai/work/i-cube/I-CUBE-HUAWEI/Projects/NUCLEO-L496ZG/Applications/Cloud/mqtt-ota/Src\stm32l4xx_hal_msp.c ****     GPIO_InitStruct.Pull = GPIO_NOPULL;
 133:D:/fchai/work/i-cube/I-CUBE-HUAWEI/Projects/NUCLEO-L496ZG/Applications/Cloud/mqtt-ota/Src\stm32l4xx_hal_msp.c ****     GPIO_InitStruct.Speed = GPIO_SPEED_FREQ_VERY_HIGH;
 134:D:/fchai/work/i-cube/I-CUBE-HUAWEI/Projects/NUCLEO-L496ZG/Applications/Cloud/mqtt-ota/Src\stm32l4xx_hal_msp.c ****     GPIO_InitStruct.Alternate = GPIO_AF7_USART3;
 135:D:/fchai/work/i-cube/I-CUBE-HUAWEI/Projects/NUCLEO-L496ZG/Applications/Cloud/mqtt-ota/Src\stm32l4xx_hal_msp.c ****     HAL_GPIO_Init(GPIOD, &GPIO_InitStruct);
 136:D:/fchai/work/i-cube/I-CUBE-HUAWEI/Projects/NUCLEO-L496ZG/Applications/Cloud/mqtt-ota/Src\stm32l4xx_hal_msp.c **** 
 137:D:/fchai/work/i-cube/I-CUBE-HUAWEI/Projects/NUCLEO-L496ZG/Applications/Cloud/mqtt-ota/Src\stm32l4xx_hal_msp.c ****   /* USER CODE BEGIN USART3_MspInit 1 */
 138:D:/fchai/work/i-cube/I-CUBE-HUAWEI/Projects/NUCLEO-L496ZG/Applications/Cloud/mqtt-ota/Src\stm32l4xx_hal_msp.c **** 
 139:D:/fchai/work/i-cube/I-CUBE-HUAWEI/Projects/NUCLEO-L496ZG/Applications/Cloud/mqtt-ota/Src\stm32l4xx_hal_msp.c ****   /* USER CODE END USART3_MspInit 1 */
 140:D:/fchai/work/i-cube/I-CUBE-HUAWEI/Projects/NUCLEO-L496ZG/Applications/Cloud/mqtt-ota/Src\stm32l4xx_hal_msp.c ****   }
 141:D:/fchai/work/i-cube/I-CUBE-HUAWEI/Projects/NUCLEO-L496ZG/Applications/Cloud/mqtt-ota/Src\stm32l4xx_hal_msp.c **** 
 142:D:/fchai/work/i-cube/I-CUBE-HUAWEI/Projects/NUCLEO-L496ZG/Applications/Cloud/mqtt-ota/Src\stm32l4xx_hal_msp.c **** }
 135              		.loc 1 142 1 view .LVU29
 136 001e 0AB0     		add	sp, sp, #40
 137              	.LCFI4:
 138              		.cfi_remember_state
 139              		.cfi_def_cfa_offset 16
 140              		@ sp needed
 141 0020 70BD     		pop	{r4, r5, r6, pc}
ARM GAS  T:\msys\tmp\cceHdWEg.s 			page 6


 142              	.L10:
 143              	.LCFI5:
 144              		.cfi_restore_state
  95:D:/fchai/work/i-cube/I-CUBE-HUAWEI/Projects/NUCLEO-L496ZG/Applications/Cloud/mqtt-ota/Src\stm32l4xx_hal_msp.c ****   
 145              		.loc 1 95 5 is_stmt 1 view .LVU30
 146              	.LBB5:
  95:D:/fchai/work/i-cube/I-CUBE-HUAWEI/Projects/NUCLEO-L496ZG/Applications/Cloud/mqtt-ota/Src\stm32l4xx_hal_msp.c ****   
 147              		.loc 1 95 5 view .LVU31
  95:D:/fchai/work/i-cube/I-CUBE-HUAWEI/Projects/NUCLEO-L496ZG/Applications/Cloud/mqtt-ota/Src\stm32l4xx_hal_msp.c ****   
 148              		.loc 1 95 5 view .LVU32
 149 0022 2A4B     		ldr	r3, .L12+8
 150 0024 DA6D     		ldr	r2, [r3, #92]
 151 0026 42F00102 		orr	r2, r2, #1
 152 002a DA65     		str	r2, [r3, #92]
  95:D:/fchai/work/i-cube/I-CUBE-HUAWEI/Projects/NUCLEO-L496ZG/Applications/Cloud/mqtt-ota/Src\stm32l4xx_hal_msp.c ****   
 153              		.loc 1 95 5 view .LVU33
 154 002c DA6D     		ldr	r2, [r3, #92]
 155 002e 02F00102 		and	r2, r2, #1
 156 0032 0192     		str	r2, [sp, #4]
  95:D:/fchai/work/i-cube/I-CUBE-HUAWEI/Projects/NUCLEO-L496ZG/Applications/Cloud/mqtt-ota/Src\stm32l4xx_hal_msp.c ****   
 157              		.loc 1 95 5 view .LVU34
 158 0034 019A     		ldr	r2, [sp, #4]
 159              	.LBE5:
  95:D:/fchai/work/i-cube/I-CUBE-HUAWEI/Projects/NUCLEO-L496ZG/Applications/Cloud/mqtt-ota/Src\stm32l4xx_hal_msp.c ****   
 160              		.loc 1 95 5 view .LVU35
  97:D:/fchai/work/i-cube/I-CUBE-HUAWEI/Projects/NUCLEO-L496ZG/Applications/Cloud/mqtt-ota/Src\stm32l4xx_hal_msp.c ****     HAL_PWREx_EnableVddIO2();
 161              		.loc 1 97 5 view .LVU36
 162              	.LBB6:
  97:D:/fchai/work/i-cube/I-CUBE-HUAWEI/Projects/NUCLEO-L496ZG/Applications/Cloud/mqtt-ota/Src\stm32l4xx_hal_msp.c ****     HAL_PWREx_EnableVddIO2();
 163              		.loc 1 97 5 view .LVU37
  97:D:/fchai/work/i-cube/I-CUBE-HUAWEI/Projects/NUCLEO-L496ZG/Applications/Cloud/mqtt-ota/Src\stm32l4xx_hal_msp.c ****     HAL_PWREx_EnableVddIO2();
 164              		.loc 1 97 5 view .LVU38
 165 0036 DA6C     		ldr	r2, [r3, #76]
 166 0038 42F04002 		orr	r2, r2, #64
 167 003c DA64     		str	r2, [r3, #76]
  97:D:/fchai/work/i-cube/I-CUBE-HUAWEI/Projects/NUCLEO-L496ZG/Applications/Cloud/mqtt-ota/Src\stm32l4xx_hal_msp.c ****     HAL_PWREx_EnableVddIO2();
 168              		.loc 1 97 5 view .LVU39
 169 003e DB6C     		ldr	r3, [r3, #76]
 170 0040 03F04003 		and	r3, r3, #64
 171 0044 0293     		str	r3, [sp, #8]
  97:D:/fchai/work/i-cube/I-CUBE-HUAWEI/Projects/NUCLEO-L496ZG/Applications/Cloud/mqtt-ota/Src\stm32l4xx_hal_msp.c ****     HAL_PWREx_EnableVddIO2();
 172              		.loc 1 97 5 view .LVU40
 173 0046 029B     		ldr	r3, [sp, #8]
 174              	.LBE6:
  97:D:/fchai/work/i-cube/I-CUBE-HUAWEI/Projects/NUCLEO-L496ZG/Applications/Cloud/mqtt-ota/Src\stm32l4xx_hal_msp.c ****     HAL_PWREx_EnableVddIO2();
 175              		.loc 1 97 5 view .LVU41
  98:D:/fchai/work/i-cube/I-CUBE-HUAWEI/Projects/NUCLEO-L496ZG/Applications/Cloud/mqtt-ota/Src\stm32l4xx_hal_msp.c ****     /**LPUART1 GPIO Configuration    
 176              		.loc 1 98 5 view .LVU42
 177 0048 FFF7FEFF 		bl	HAL_PWREx_EnableVddIO2
 178              	.LVL1:
 103:D:/fchai/work/i-cube/I-CUBE-HUAWEI/Projects/NUCLEO-L496ZG/Applications/Cloud/mqtt-ota/Src\stm32l4xx_hal_msp.c ****     GPIO_InitStruct.Mode = GPIO_MODE_AF_PP;
 179              		.loc 1 103 5 view .LVU43
 103:D:/fchai/work/i-cube/I-CUBE-HUAWEI/Projects/NUCLEO-L496ZG/Applications/Cloud/mqtt-ota/Src\stm32l4xx_hal_msp.c ****     GPIO_InitStruct.Mode = GPIO_MODE_AF_PP;
 180              		.loc 1 103 25 is_stmt 0 view .LVU44
 181 004c 4FF4C070 		mov	r0, #384
 107:D:/fchai/work/i-cube/I-CUBE-HUAWEI/Projects/NUCLEO-L496ZG/Applications/Cloud/mqtt-ota/Src\stm32l4xx_hal_msp.c ****     HAL_GPIO_Init(GPIOG, &GPIO_InitStruct);
 182              		.loc 1 107 31 view .LVU45
ARM GAS  T:\msys\tmp\cceHdWEg.s 			page 7


 183 0050 0823     		movs	r3, #8
 108:D:/fchai/work/i-cube/I-CUBE-HUAWEI/Projects/NUCLEO-L496ZG/Applications/Cloud/mqtt-ota/Src\stm32l4xx_hal_msp.c **** 
 184              		.loc 1 108 5 view .LVU46
 185 0052 05A9     		add	r1, sp, #20
 106:D:/fchai/work/i-cube/I-CUBE-HUAWEI/Projects/NUCLEO-L496ZG/Applications/Cloud/mqtt-ota/Src\stm32l4xx_hal_msp.c ****     GPIO_InitStruct.Alternate = GPIO_AF8_LPUART1;
 186              		.loc 1 106 27 view .LVU47
 187 0054 0322     		movs	r2, #3
 103:D:/fchai/work/i-cube/I-CUBE-HUAWEI/Projects/NUCLEO-L496ZG/Applications/Cloud/mqtt-ota/Src\stm32l4xx_hal_msp.c ****     GPIO_InitStruct.Mode = GPIO_MODE_AF_PP;
 188              		.loc 1 103 25 view .LVU48
 189 0056 0590     		str	r0, [sp, #20]
 104:D:/fchai/work/i-cube/I-CUBE-HUAWEI/Projects/NUCLEO-L496ZG/Applications/Cloud/mqtt-ota/Src\stm32l4xx_hal_msp.c ****     GPIO_InitStruct.Pull = GPIO_NOPULL;
 190              		.loc 1 104 5 is_stmt 1 view .LVU49
 104:D:/fchai/work/i-cube/I-CUBE-HUAWEI/Projects/NUCLEO-L496ZG/Applications/Cloud/mqtt-ota/Src\stm32l4xx_hal_msp.c ****     GPIO_InitStruct.Pull = GPIO_NOPULL;
 191              		.loc 1 104 26 is_stmt 0 view .LVU50
 192 0058 0225     		movs	r5, #2
 108:D:/fchai/work/i-cube/I-CUBE-HUAWEI/Projects/NUCLEO-L496ZG/Applications/Cloud/mqtt-ota/Src\stm32l4xx_hal_msp.c **** 
 193              		.loc 1 108 5 view .LVU51
 194 005a 1D48     		ldr	r0, .L12+12
 105:D:/fchai/work/i-cube/I-CUBE-HUAWEI/Projects/NUCLEO-L496ZG/Applications/Cloud/mqtt-ota/Src\stm32l4xx_hal_msp.c ****     GPIO_InitStruct.Speed = GPIO_SPEED_FREQ_VERY_HIGH;
 195              		.loc 1 105 26 view .LVU52
 196 005c 0794     		str	r4, [sp, #28]
 107:D:/fchai/work/i-cube/I-CUBE-HUAWEI/Projects/NUCLEO-L496ZG/Applications/Cloud/mqtt-ota/Src\stm32l4xx_hal_msp.c ****     HAL_GPIO_Init(GPIOG, &GPIO_InitStruct);
 197              		.loc 1 107 31 view .LVU53
 198 005e CDE90823 		strd	r2, r3, [sp, #32]
 104:D:/fchai/work/i-cube/I-CUBE-HUAWEI/Projects/NUCLEO-L496ZG/Applications/Cloud/mqtt-ota/Src\stm32l4xx_hal_msp.c ****     GPIO_InitStruct.Pull = GPIO_NOPULL;
 199              		.loc 1 104 26 view .LVU54
 200 0062 0695     		str	r5, [sp, #24]
 105:D:/fchai/work/i-cube/I-CUBE-HUAWEI/Projects/NUCLEO-L496ZG/Applications/Cloud/mqtt-ota/Src\stm32l4xx_hal_msp.c ****     GPIO_InitStruct.Speed = GPIO_SPEED_FREQ_VERY_HIGH;
 201              		.loc 1 105 5 is_stmt 1 view .LVU55
 106:D:/fchai/work/i-cube/I-CUBE-HUAWEI/Projects/NUCLEO-L496ZG/Applications/Cloud/mqtt-ota/Src\stm32l4xx_hal_msp.c ****     GPIO_InitStruct.Alternate = GPIO_AF8_LPUART1;
 202              		.loc 1 106 5 view .LVU56
 108:D:/fchai/work/i-cube/I-CUBE-HUAWEI/Projects/NUCLEO-L496ZG/Applications/Cloud/mqtt-ota/Src\stm32l4xx_hal_msp.c **** 
 203              		.loc 1 108 5 view .LVU57
 204 0064 FFF7FEFF 		bl	HAL_GPIO_Init
 205              	.LVL2:
 111:D:/fchai/work/i-cube/I-CUBE-HUAWEI/Projects/NUCLEO-L496ZG/Applications/Cloud/mqtt-ota/Src\stm32l4xx_hal_msp.c ****     HAL_NVIC_EnableIRQ(LPUART1_IRQn);
 206              		.loc 1 111 5 view .LVU58
 207 0068 2246     		mov	r2, r4
 208 006a 2146     		mov	r1, r4
 209 006c 4620     		movs	r0, #70
 210 006e FFF7FEFF 		bl	HAL_NVIC_SetPriority
 211              	.LVL3:
 112:D:/fchai/work/i-cube/I-CUBE-HUAWEI/Projects/NUCLEO-L496ZG/Applications/Cloud/mqtt-ota/Src\stm32l4xx_hal_msp.c ****   /* USER CODE BEGIN LPUART1_MspInit 1 */
 212              		.loc 1 112 5 view .LVU59
 213 0072 4620     		movs	r0, #70
 214 0074 FFF7FEFF 		bl	HAL_NVIC_EnableIRQ
 215              	.LVL4:
 216              		.loc 1 142 1 is_stmt 0 view .LVU60
 217 0078 0AB0     		add	sp, sp, #40
 218              	.LCFI6:
 219              		.cfi_remember_state
 220              		.cfi_def_cfa_offset 16
 221              		@ sp needed
 222 007a 70BD     		pop	{r4, r5, r6, pc}
 223              	.LVL5:
 224              	.L11:
 225              	.LCFI7:
ARM GAS  T:\msys\tmp\cceHdWEg.s 			page 8


 226              		.cfi_restore_state
 123:D:/fchai/work/i-cube/I-CUBE-HUAWEI/Projects/NUCLEO-L496ZG/Applications/Cloud/mqtt-ota/Src\stm32l4xx_hal_msp.c ****   
 227              		.loc 1 123 5 is_stmt 1 view .LVU61
 228              	.LBB7:
 123:D:/fchai/work/i-cube/I-CUBE-HUAWEI/Projects/NUCLEO-L496ZG/Applications/Cloud/mqtt-ota/Src\stm32l4xx_hal_msp.c ****   
 229              		.loc 1 123 5 view .LVU62
 123:D:/fchai/work/i-cube/I-CUBE-HUAWEI/Projects/NUCLEO-L496ZG/Applications/Cloud/mqtt-ota/Src\stm32l4xx_hal_msp.c ****   
 230              		.loc 1 123 5 view .LVU63
 231 007c 134B     		ldr	r3, .L12+8
 232              	.LBE7:
 135:D:/fchai/work/i-cube/I-CUBE-HUAWEI/Projects/NUCLEO-L496ZG/Applications/Cloud/mqtt-ota/Src\stm32l4xx_hal_msp.c **** 
 233              		.loc 1 135 5 is_stmt 0 view .LVU64
 234 007e 1548     		ldr	r0, .L12+16
 235              	.LVL6:
 236              	.LBB8:
 123:D:/fchai/work/i-cube/I-CUBE-HUAWEI/Projects/NUCLEO-L496ZG/Applications/Cloud/mqtt-ota/Src\stm32l4xx_hal_msp.c ****   
 237              		.loc 1 123 5 view .LVU65
 238 0080 9A6D     		ldr	r2, [r3, #88]
 239 0082 42F48022 		orr	r2, r2, #262144
 240 0086 9A65     		str	r2, [r3, #88]
 123:D:/fchai/work/i-cube/I-CUBE-HUAWEI/Projects/NUCLEO-L496ZG/Applications/Cloud/mqtt-ota/Src\stm32l4xx_hal_msp.c ****   
 241              		.loc 1 123 5 is_stmt 1 view .LVU66
 242 0088 9A6D     		ldr	r2, [r3, #88]
 243 008a 02F48022 		and	r2, r2, #262144
 244 008e 0392     		str	r2, [sp, #12]
 123:D:/fchai/work/i-cube/I-CUBE-HUAWEI/Projects/NUCLEO-L496ZG/Applications/Cloud/mqtt-ota/Src\stm32l4xx_hal_msp.c ****   
 245              		.loc 1 123 5 view .LVU67
 246 0090 039A     		ldr	r2, [sp, #12]
 247              	.LBE8:
 123:D:/fchai/work/i-cube/I-CUBE-HUAWEI/Projects/NUCLEO-L496ZG/Applications/Cloud/mqtt-ota/Src\stm32l4xx_hal_msp.c ****   
 248              		.loc 1 123 5 view .LVU68
 125:D:/fchai/work/i-cube/I-CUBE-HUAWEI/Projects/NUCLEO-L496ZG/Applications/Cloud/mqtt-ota/Src\stm32l4xx_hal_msp.c ****     /**USART3 GPIO Configuration    
 249              		.loc 1 125 5 view .LVU69
 250              	.LBB9:
 125:D:/fchai/work/i-cube/I-CUBE-HUAWEI/Projects/NUCLEO-L496ZG/Applications/Cloud/mqtt-ota/Src\stm32l4xx_hal_msp.c ****     /**USART3 GPIO Configuration    
 251              		.loc 1 125 5 view .LVU70
 125:D:/fchai/work/i-cube/I-CUBE-HUAWEI/Projects/NUCLEO-L496ZG/Applications/Cloud/mqtt-ota/Src\stm32l4xx_hal_msp.c ****     /**USART3 GPIO Configuration    
 252              		.loc 1 125 5 view .LVU71
 253 0092 DA6C     		ldr	r2, [r3, #76]
 254 0094 42F00802 		orr	r2, r2, #8
 255 0098 DA64     		str	r2, [r3, #76]
 125:D:/fchai/work/i-cube/I-CUBE-HUAWEI/Projects/NUCLEO-L496ZG/Applications/Cloud/mqtt-ota/Src\stm32l4xx_hal_msp.c ****     /**USART3 GPIO Configuration    
 256              		.loc 1 125 5 view .LVU72
 257 009a DB6C     		ldr	r3, [r3, #76]
 258              	.LBE9:
 132:D:/fchai/work/i-cube/I-CUBE-HUAWEI/Projects/NUCLEO-L496ZG/Applications/Cloud/mqtt-ota/Src\stm32l4xx_hal_msp.c ****     GPIO_InitStruct.Speed = GPIO_SPEED_FREQ_VERY_HIGH;
 259              		.loc 1 132 26 is_stmt 0 view .LVU73
 260 009c 0794     		str	r4, [sp, #28]
 261              	.LBB10:
 125:D:/fchai/work/i-cube/I-CUBE-HUAWEI/Projects/NUCLEO-L496ZG/Applications/Cloud/mqtt-ota/Src\stm32l4xx_hal_msp.c ****     /**USART3 GPIO Configuration    
 262              		.loc 1 125 5 view .LVU74
 263 009e 03F00803 		and	r3, r3, #8
 264 00a2 0493     		str	r3, [sp, #16]
 125:D:/fchai/work/i-cube/I-CUBE-HUAWEI/Projects/NUCLEO-L496ZG/Applications/Cloud/mqtt-ota/Src\stm32l4xx_hal_msp.c ****     /**USART3 GPIO Configuration    
 265              		.loc 1 125 5 is_stmt 1 view .LVU75
 266              	.LBE10:
 133:D:/fchai/work/i-cube/I-CUBE-HUAWEI/Projects/NUCLEO-L496ZG/Applications/Cloud/mqtt-ota/Src\stm32l4xx_hal_msp.c ****     GPIO_InitStruct.Alternate = GPIO_AF7_USART3;
ARM GAS  T:\msys\tmp\cceHdWEg.s 			page 9


 267              		.loc 1 133 27 is_stmt 0 view .LVU76
 268 00a4 0322     		movs	r2, #3
 134:D:/fchai/work/i-cube/I-CUBE-HUAWEI/Projects/NUCLEO-L496ZG/Applications/Cloud/mqtt-ota/Src\stm32l4xx_hal_msp.c ****     HAL_GPIO_Init(GPIOD, &GPIO_InitStruct);
 269              		.loc 1 134 31 view .LVU77
 270 00a6 0723     		movs	r3, #7
 135:D:/fchai/work/i-cube/I-CUBE-HUAWEI/Projects/NUCLEO-L496ZG/Applications/Cloud/mqtt-ota/Src\stm32l4xx_hal_msp.c **** 
 271              		.loc 1 135 5 view .LVU78
 272 00a8 05A9     		add	r1, sp, #20
 130:D:/fchai/work/i-cube/I-CUBE-HUAWEI/Projects/NUCLEO-L496ZG/Applications/Cloud/mqtt-ota/Src\stm32l4xx_hal_msp.c ****     GPIO_InitStruct.Mode = GPIO_MODE_AF_PP;
 273              		.loc 1 130 25 view .LVU79
 274 00aa 4FF44075 		mov	r5, #768
 131:D:/fchai/work/i-cube/I-CUBE-HUAWEI/Projects/NUCLEO-L496ZG/Applications/Cloud/mqtt-ota/Src\stm32l4xx_hal_msp.c ****     GPIO_InitStruct.Pull = GPIO_NOPULL;
 275              		.loc 1 131 26 view .LVU80
 276 00ae 0224     		movs	r4, #2
 277 00b0 CDE90554 		strd	r5, r4, [sp, #20]
 134:D:/fchai/work/i-cube/I-CUBE-HUAWEI/Projects/NUCLEO-L496ZG/Applications/Cloud/mqtt-ota/Src\stm32l4xx_hal_msp.c ****     HAL_GPIO_Init(GPIOD, &GPIO_InitStruct);
 278              		.loc 1 134 31 view .LVU81
 279 00b4 CDE90823 		strd	r2, r3, [sp, #32]
 280              	.LBB11:
 125:D:/fchai/work/i-cube/I-CUBE-HUAWEI/Projects/NUCLEO-L496ZG/Applications/Cloud/mqtt-ota/Src\stm32l4xx_hal_msp.c ****     /**USART3 GPIO Configuration    
 281              		.loc 1 125 5 view .LVU82
 282 00b8 049E     		ldr	r6, [sp, #16]
 283              	.LBE11:
 125:D:/fchai/work/i-cube/I-CUBE-HUAWEI/Projects/NUCLEO-L496ZG/Applications/Cloud/mqtt-ota/Src\stm32l4xx_hal_msp.c ****     /**USART3 GPIO Configuration    
 284              		.loc 1 125 5 is_stmt 1 view .LVU83
 130:D:/fchai/work/i-cube/I-CUBE-HUAWEI/Projects/NUCLEO-L496ZG/Applications/Cloud/mqtt-ota/Src\stm32l4xx_hal_msp.c ****     GPIO_InitStruct.Mode = GPIO_MODE_AF_PP;
 285              		.loc 1 130 5 view .LVU84
 132:D:/fchai/work/i-cube/I-CUBE-HUAWEI/Projects/NUCLEO-L496ZG/Applications/Cloud/mqtt-ota/Src\stm32l4xx_hal_msp.c ****     GPIO_InitStruct.Speed = GPIO_SPEED_FREQ_VERY_HIGH;
 286              		.loc 1 132 5 view .LVU85
 133:D:/fchai/work/i-cube/I-CUBE-HUAWEI/Projects/NUCLEO-L496ZG/Applications/Cloud/mqtt-ota/Src\stm32l4xx_hal_msp.c ****     GPIO_InitStruct.Alternate = GPIO_AF7_USART3;
 287              		.loc 1 133 5 view .LVU86
 135:D:/fchai/work/i-cube/I-CUBE-HUAWEI/Projects/NUCLEO-L496ZG/Applications/Cloud/mqtt-ota/Src\stm32l4xx_hal_msp.c **** 
 288              		.loc 1 135 5 view .LVU87
 289 00ba FFF7FEFF 		bl	HAL_GPIO_Init
 290              	.LVL7:
 291              		.loc 1 142 1 is_stmt 0 view .LVU88
 292 00be 0AB0     		add	sp, sp, #40
 293              	.LCFI8:
 294              		.cfi_def_cfa_offset 16
 295              		@ sp needed
 296 00c0 70BD     		pop	{r4, r5, r6, pc}
 297              	.L13:
 298 00c2 00BF     		.align	2
 299              	.L12:
 300 00c4 00800040 		.word	1073774592
 301 00c8 00480040 		.word	1073760256
 302 00cc 00100240 		.word	1073876992
 303 00d0 00180048 		.word	1207965696
 304 00d4 000C0048 		.word	1207962624
 305              		.cfi_endproc
 306              	.LFE124:
 308              		.section	.text.HAL_UART_MspDeInit,"ax",%progbits
 309              		.align	1
 310              		.p2align 2,,3
 311              		.global	HAL_UART_MspDeInit
 312              		.syntax unified
 313              		.thumb
ARM GAS  T:\msys\tmp\cceHdWEg.s 			page 10


 314              		.thumb_func
 315              		.fpu fpv4-sp-d16
 317              	HAL_UART_MspDeInit:
 318              	.LVL8:
 319              	.LFB125:
 143:D:/fchai/work/i-cube/I-CUBE-HUAWEI/Projects/NUCLEO-L496ZG/Applications/Cloud/mqtt-ota/Src\stm32l4xx_hal_msp.c **** 
 144:D:/fchai/work/i-cube/I-CUBE-HUAWEI/Projects/NUCLEO-L496ZG/Applications/Cloud/mqtt-ota/Src\stm32l4xx_hal_msp.c **** /**
 145:D:/fchai/work/i-cube/I-CUBE-HUAWEI/Projects/NUCLEO-L496ZG/Applications/Cloud/mqtt-ota/Src\stm32l4xx_hal_msp.c **** * @brief UART MSP De-Initialization
 146:D:/fchai/work/i-cube/I-CUBE-HUAWEI/Projects/NUCLEO-L496ZG/Applications/Cloud/mqtt-ota/Src\stm32l4xx_hal_msp.c **** * This function freeze the hardware resources used in this example
 147:D:/fchai/work/i-cube/I-CUBE-HUAWEI/Projects/NUCLEO-L496ZG/Applications/Cloud/mqtt-ota/Src\stm32l4xx_hal_msp.c **** * @param huart: UART handle pointer
 148:D:/fchai/work/i-cube/I-CUBE-HUAWEI/Projects/NUCLEO-L496ZG/Applications/Cloud/mqtt-ota/Src\stm32l4xx_hal_msp.c **** * @retval None
 149:D:/fchai/work/i-cube/I-CUBE-HUAWEI/Projects/NUCLEO-L496ZG/Applications/Cloud/mqtt-ota/Src\stm32l4xx_hal_msp.c **** */
 150:D:/fchai/work/i-cube/I-CUBE-HUAWEI/Projects/NUCLEO-L496ZG/Applications/Cloud/mqtt-ota/Src\stm32l4xx_hal_msp.c **** void HAL_UART_MspDeInit(UART_HandleTypeDef* huart)
 151:D:/fchai/work/i-cube/I-CUBE-HUAWEI/Projects/NUCLEO-L496ZG/Applications/Cloud/mqtt-ota/Src\stm32l4xx_hal_msp.c **** {
 320              		.loc 1 151 1 is_stmt 1 view -0
 321              		.cfi_startproc
 322              		@ args = 0, pretend = 0, frame = 0
 323              		@ frame_needed = 0, uses_anonymous_args = 0
 152:D:/fchai/work/i-cube/I-CUBE-HUAWEI/Projects/NUCLEO-L496ZG/Applications/Cloud/mqtt-ota/Src\stm32l4xx_hal_msp.c ****   if(huart->Instance==LPUART1)
 324              		.loc 1 152 3 view .LVU90
 151:D:/fchai/work/i-cube/I-CUBE-HUAWEI/Projects/NUCLEO-L496ZG/Applications/Cloud/mqtt-ota/Src\stm32l4xx_hal_msp.c ****   if(huart->Instance==LPUART1)
 325              		.loc 1 151 1 is_stmt 0 view .LVU91
 326 0000 08B5     		push	{r3, lr}
 327              	.LCFI9:
 328              		.cfi_def_cfa_offset 8
 329              		.cfi_offset 3, -8
 330              		.cfi_offset 14, -4
 331              		.loc 1 152 5 view .LVU92
 332 0002 124A     		ldr	r2, .L20
 333              		.loc 1 152 11 view .LVU93
 334 0004 0368     		ldr	r3, [r0]
 335              		.loc 1 152 5 view .LVU94
 336 0006 9342     		cmp	r3, r2
 337 0008 03D0     		beq	.L18
 153:D:/fchai/work/i-cube/I-CUBE-HUAWEI/Projects/NUCLEO-L496ZG/Applications/Cloud/mqtt-ota/Src\stm32l4xx_hal_msp.c ****   {
 154:D:/fchai/work/i-cube/I-CUBE-HUAWEI/Projects/NUCLEO-L496ZG/Applications/Cloud/mqtt-ota/Src\stm32l4xx_hal_msp.c ****   /* USER CODE BEGIN LPUART1_MspDeInit 0 */
 155:D:/fchai/work/i-cube/I-CUBE-HUAWEI/Projects/NUCLEO-L496ZG/Applications/Cloud/mqtt-ota/Src\stm32l4xx_hal_msp.c **** 
 156:D:/fchai/work/i-cube/I-CUBE-HUAWEI/Projects/NUCLEO-L496ZG/Applications/Cloud/mqtt-ota/Src\stm32l4xx_hal_msp.c ****   /* USER CODE END LPUART1_MspDeInit 0 */
 157:D:/fchai/work/i-cube/I-CUBE-HUAWEI/Projects/NUCLEO-L496ZG/Applications/Cloud/mqtt-ota/Src\stm32l4xx_hal_msp.c ****     /* Peripheral clock disable */
 158:D:/fchai/work/i-cube/I-CUBE-HUAWEI/Projects/NUCLEO-L496ZG/Applications/Cloud/mqtt-ota/Src\stm32l4xx_hal_msp.c ****     __HAL_RCC_LPUART1_CLK_DISABLE();
 159:D:/fchai/work/i-cube/I-CUBE-HUAWEI/Projects/NUCLEO-L496ZG/Applications/Cloud/mqtt-ota/Src\stm32l4xx_hal_msp.c ****   
 160:D:/fchai/work/i-cube/I-CUBE-HUAWEI/Projects/NUCLEO-L496ZG/Applications/Cloud/mqtt-ota/Src\stm32l4xx_hal_msp.c ****     /**LPUART1 GPIO Configuration    
 161:D:/fchai/work/i-cube/I-CUBE-HUAWEI/Projects/NUCLEO-L496ZG/Applications/Cloud/mqtt-ota/Src\stm32l4xx_hal_msp.c ****     PG7     ------> LPUART1_TX
 162:D:/fchai/work/i-cube/I-CUBE-HUAWEI/Projects/NUCLEO-L496ZG/Applications/Cloud/mqtt-ota/Src\stm32l4xx_hal_msp.c ****     PG8     ------> LPUART1_RX 
 163:D:/fchai/work/i-cube/I-CUBE-HUAWEI/Projects/NUCLEO-L496ZG/Applications/Cloud/mqtt-ota/Src\stm32l4xx_hal_msp.c ****     */
 164:D:/fchai/work/i-cube/I-CUBE-HUAWEI/Projects/NUCLEO-L496ZG/Applications/Cloud/mqtt-ota/Src\stm32l4xx_hal_msp.c ****     HAL_GPIO_DeInit(GPIOG, STLK_RX_Pin|STLK_TX_Pin);
 165:D:/fchai/work/i-cube/I-CUBE-HUAWEI/Projects/NUCLEO-L496ZG/Applications/Cloud/mqtt-ota/Src\stm32l4xx_hal_msp.c **** 
 166:D:/fchai/work/i-cube/I-CUBE-HUAWEI/Projects/NUCLEO-L496ZG/Applications/Cloud/mqtt-ota/Src\stm32l4xx_hal_msp.c ****     /* LPUART1 interrupt DeInit */
 167:D:/fchai/work/i-cube/I-CUBE-HUAWEI/Projects/NUCLEO-L496ZG/Applications/Cloud/mqtt-ota/Src\stm32l4xx_hal_msp.c ****     HAL_NVIC_DisableIRQ(LPUART1_IRQn);
 168:D:/fchai/work/i-cube/I-CUBE-HUAWEI/Projects/NUCLEO-L496ZG/Applications/Cloud/mqtt-ota/Src\stm32l4xx_hal_msp.c ****   /* USER CODE BEGIN LPUART1_MspDeInit 1 */
 169:D:/fchai/work/i-cube/I-CUBE-HUAWEI/Projects/NUCLEO-L496ZG/Applications/Cloud/mqtt-ota/Src\stm32l4xx_hal_msp.c **** 
 170:D:/fchai/work/i-cube/I-CUBE-HUAWEI/Projects/NUCLEO-L496ZG/Applications/Cloud/mqtt-ota/Src\stm32l4xx_hal_msp.c ****   /* USER CODE END LPUART1_MspDeInit 1 */
 171:D:/fchai/work/i-cube/I-CUBE-HUAWEI/Projects/NUCLEO-L496ZG/Applications/Cloud/mqtt-ota/Src\stm32l4xx_hal_msp.c ****   }
 172:D:/fchai/work/i-cube/I-CUBE-HUAWEI/Projects/NUCLEO-L496ZG/Applications/Cloud/mqtt-ota/Src\stm32l4xx_hal_msp.c ****   else if(huart->Instance==USART3)
 338              		.loc 1 172 8 is_stmt 1 view .LVU95
 339              		.loc 1 172 10 is_stmt 0 view .LVU96
 340 000a 114A     		ldr	r2, .L20+4
ARM GAS  T:\msys\tmp\cceHdWEg.s 			page 11


 341 000c 9342     		cmp	r3, r2
 342 000e 10D0     		beq	.L19
 173:D:/fchai/work/i-cube/I-CUBE-HUAWEI/Projects/NUCLEO-L496ZG/Applications/Cloud/mqtt-ota/Src\stm32l4xx_hal_msp.c ****   {
 174:D:/fchai/work/i-cube/I-CUBE-HUAWEI/Projects/NUCLEO-L496ZG/Applications/Cloud/mqtt-ota/Src\stm32l4xx_hal_msp.c ****   /* USER CODE BEGIN USART3_MspDeInit 0 */
 175:D:/fchai/work/i-cube/I-CUBE-HUAWEI/Projects/NUCLEO-L496ZG/Applications/Cloud/mqtt-ota/Src\stm32l4xx_hal_msp.c **** 
 176:D:/fchai/work/i-cube/I-CUBE-HUAWEI/Projects/NUCLEO-L496ZG/Applications/Cloud/mqtt-ota/Src\stm32l4xx_hal_msp.c ****   /* USER CODE END USART3_MspDeInit 0 */
 177:D:/fchai/work/i-cube/I-CUBE-HUAWEI/Projects/NUCLEO-L496ZG/Applications/Cloud/mqtt-ota/Src\stm32l4xx_hal_msp.c ****     /* Peripheral clock disable */
 178:D:/fchai/work/i-cube/I-CUBE-HUAWEI/Projects/NUCLEO-L496ZG/Applications/Cloud/mqtt-ota/Src\stm32l4xx_hal_msp.c ****     __HAL_RCC_USART3_CLK_DISABLE();
 179:D:/fchai/work/i-cube/I-CUBE-HUAWEI/Projects/NUCLEO-L496ZG/Applications/Cloud/mqtt-ota/Src\stm32l4xx_hal_msp.c ****   
 180:D:/fchai/work/i-cube/I-CUBE-HUAWEI/Projects/NUCLEO-L496ZG/Applications/Cloud/mqtt-ota/Src\stm32l4xx_hal_msp.c ****     /**USART3 GPIO Configuration    
 181:D:/fchai/work/i-cube/I-CUBE-HUAWEI/Projects/NUCLEO-L496ZG/Applications/Cloud/mqtt-ota/Src\stm32l4xx_hal_msp.c ****     PD8     ------> USART3_TX
 182:D:/fchai/work/i-cube/I-CUBE-HUAWEI/Projects/NUCLEO-L496ZG/Applications/Cloud/mqtt-ota/Src\stm32l4xx_hal_msp.c ****     PD9     ------> USART3_RX 
 183:D:/fchai/work/i-cube/I-CUBE-HUAWEI/Projects/NUCLEO-L496ZG/Applications/Cloud/mqtt-ota/Src\stm32l4xx_hal_msp.c ****     */
 184:D:/fchai/work/i-cube/I-CUBE-HUAWEI/Projects/NUCLEO-L496ZG/Applications/Cloud/mqtt-ota/Src\stm32l4xx_hal_msp.c ****     HAL_GPIO_DeInit(GPIOD, GPIO_PIN_8|GPIO_PIN_9);
 185:D:/fchai/work/i-cube/I-CUBE-HUAWEI/Projects/NUCLEO-L496ZG/Applications/Cloud/mqtt-ota/Src\stm32l4xx_hal_msp.c **** 
 186:D:/fchai/work/i-cube/I-CUBE-HUAWEI/Projects/NUCLEO-L496ZG/Applications/Cloud/mqtt-ota/Src\stm32l4xx_hal_msp.c ****   /* USER CODE BEGIN USART3_MspDeInit 1 */
 187:D:/fchai/work/i-cube/I-CUBE-HUAWEI/Projects/NUCLEO-L496ZG/Applications/Cloud/mqtt-ota/Src\stm32l4xx_hal_msp.c **** 
 188:D:/fchai/work/i-cube/I-CUBE-HUAWEI/Projects/NUCLEO-L496ZG/Applications/Cloud/mqtt-ota/Src\stm32l4xx_hal_msp.c ****   /* USER CODE END USART3_MspDeInit 1 */
 189:D:/fchai/work/i-cube/I-CUBE-HUAWEI/Projects/NUCLEO-L496ZG/Applications/Cloud/mqtt-ota/Src\stm32l4xx_hal_msp.c ****   }
 190:D:/fchai/work/i-cube/I-CUBE-HUAWEI/Projects/NUCLEO-L496ZG/Applications/Cloud/mqtt-ota/Src\stm32l4xx_hal_msp.c **** 
 191:D:/fchai/work/i-cube/I-CUBE-HUAWEI/Projects/NUCLEO-L496ZG/Applications/Cloud/mqtt-ota/Src\stm32l4xx_hal_msp.c **** }
 343              		.loc 1 191 1 view .LVU97
 344 0010 08BD     		pop	{r3, pc}
 345              	.L18:
 158:D:/fchai/work/i-cube/I-CUBE-HUAWEI/Projects/NUCLEO-L496ZG/Applications/Cloud/mqtt-ota/Src\stm32l4xx_hal_msp.c ****   
 346              		.loc 1 158 5 is_stmt 1 view .LVU98
 347 0012 02F5C832 		add	r2, r2, #102400
 164:D:/fchai/work/i-cube/I-CUBE-HUAWEI/Projects/NUCLEO-L496ZG/Applications/Cloud/mqtt-ota/Src\stm32l4xx_hal_msp.c **** 
 348              		.loc 1 164 5 is_stmt 0 view .LVU99
 349 0016 0F48     		ldr	r0, .L20+8
 350              	.LVL9:
 158:D:/fchai/work/i-cube/I-CUBE-HUAWEI/Projects/NUCLEO-L496ZG/Applications/Cloud/mqtt-ota/Src\stm32l4xx_hal_msp.c ****   
 351              		.loc 1 158 5 view .LVU100
 352 0018 D36D     		ldr	r3, [r2, #92]
 353 001a 23F00103 		bic	r3, r3, #1
 354 001e D365     		str	r3, [r2, #92]
 164:D:/fchai/work/i-cube/I-CUBE-HUAWEI/Projects/NUCLEO-L496ZG/Applications/Cloud/mqtt-ota/Src\stm32l4xx_hal_msp.c **** 
 355              		.loc 1 164 5 is_stmt 1 view .LVU101
 356 0020 4FF4C071 		mov	r1, #384
 357 0024 FFF7FEFF 		bl	HAL_GPIO_DeInit
 358              	.LVL10:
 167:D:/fchai/work/i-cube/I-CUBE-HUAWEI/Projects/NUCLEO-L496ZG/Applications/Cloud/mqtt-ota/Src\stm32l4xx_hal_msp.c ****   /* USER CODE BEGIN LPUART1_MspDeInit 1 */
 359              		.loc 1 167 5 view .LVU102
 360              		.loc 1 191 1 is_stmt 0 view .LVU103
 361 0028 BDE80840 		pop	{r3, lr}
 362              	.LCFI10:
 363              		.cfi_remember_state
 364              		.cfi_restore 14
 365              		.cfi_restore 3
 366              		.cfi_def_cfa_offset 0
 167:D:/fchai/work/i-cube/I-CUBE-HUAWEI/Projects/NUCLEO-L496ZG/Applications/Cloud/mqtt-ota/Src\stm32l4xx_hal_msp.c ****   /* USER CODE BEGIN LPUART1_MspDeInit 1 */
 367              		.loc 1 167 5 view .LVU104
 368 002c 4620     		movs	r0, #70
 369 002e FFF7FEBF 		b	HAL_NVIC_DisableIRQ
 370              	.LVL11:
 371              	.L19:
 372              	.LCFI11:
ARM GAS  T:\msys\tmp\cceHdWEg.s 			page 12


 373              		.cfi_restore_state
 178:D:/fchai/work/i-cube/I-CUBE-HUAWEI/Projects/NUCLEO-L496ZG/Applications/Cloud/mqtt-ota/Src\stm32l4xx_hal_msp.c ****   
 374              		.loc 1 178 5 is_stmt 1 view .LVU105
 375 0032 02F5E432 		add	r2, r2, #116736
 184:D:/fchai/work/i-cube/I-CUBE-HUAWEI/Projects/NUCLEO-L496ZG/Applications/Cloud/mqtt-ota/Src\stm32l4xx_hal_msp.c **** 
 376              		.loc 1 184 5 is_stmt 0 view .LVU106
 377 0036 0848     		ldr	r0, .L20+12
 378              	.LVL12:
 178:D:/fchai/work/i-cube/I-CUBE-HUAWEI/Projects/NUCLEO-L496ZG/Applications/Cloud/mqtt-ota/Src\stm32l4xx_hal_msp.c ****   
 379              		.loc 1 178 5 view .LVU107
 380 0038 936D     		ldr	r3, [r2, #88]
 381 003a 23F48023 		bic	r3, r3, #262144
 382 003e 9365     		str	r3, [r2, #88]
 184:D:/fchai/work/i-cube/I-CUBE-HUAWEI/Projects/NUCLEO-L496ZG/Applications/Cloud/mqtt-ota/Src\stm32l4xx_hal_msp.c **** 
 383              		.loc 1 184 5 is_stmt 1 view .LVU108
 384 0040 4FF44071 		mov	r1, #768
 385              		.loc 1 191 1 is_stmt 0 view .LVU109
 386 0044 BDE80840 		pop	{r3, lr}
 387              	.LCFI12:
 388              		.cfi_restore 14
 389              		.cfi_restore 3
 390              		.cfi_def_cfa_offset 0
 184:D:/fchai/work/i-cube/I-CUBE-HUAWEI/Projects/NUCLEO-L496ZG/Applications/Cloud/mqtt-ota/Src\stm32l4xx_hal_msp.c **** 
 391              		.loc 1 184 5 view .LVU110
 392 0048 FFF7FEBF 		b	HAL_GPIO_DeInit
 393              	.LVL13:
 394              	.L21:
 395              		.align	2
 396              	.L20:
 397 004c 00800040 		.word	1073774592
 398 0050 00480040 		.word	1073760256
 399 0054 00180048 		.word	1207965696
 400 0058 000C0048 		.word	1207962624
 401              		.cfi_endproc
 402              	.LFE125:
 404              		.text
 405              	.Letext0:
 406              		.file 2 "t:\\msys\\3rd\\gcc-arm-none-eabi-9-2020-q2-update-win32\\arm-none-eabi\\include\\machine\
 407              		.file 3 "t:\\msys\\3rd\\gcc-arm-none-eabi-9-2020-q2-update-win32\\arm-none-eabi\\include\\sys\\_st
 408              		.file 4 "D:/fchai/work/i-cube/I-CUBE-HUAWEI/Middlewares/Third_Party/Huawei/iot_link/os/liteos/arch
 409              		.file 5 "D:/fchai/work/i-cube/I-CUBE-HUAWEI/Drivers/CMSIS/Device/ST/STM32L4xx/Include/system_stm32
 410              		.file 6 "D:/fchai/work/i-cube/I-CUBE-HUAWEI/Drivers/CMSIS/Device/ST/STM32L4xx/Include/stm32l496xx.
 411              		.file 7 "D:/fchai/work/i-cube/I-CUBE-HUAWEI/Drivers/STM32L4xx_HAL_Driver/Inc/stm32l4xx_hal_def.h"
 412              		.file 8 "D:/fchai/work/i-cube/I-CUBE-HUAWEI/Drivers/STM32L4xx_HAL_Driver/Inc/stm32l4xx_hal_gpio.h"
 413              		.file 9 "D:/fchai/work/i-cube/I-CUBE-HUAWEI/Drivers/STM32L4xx_HAL_Driver/Inc/stm32l4xx_hal_dma.h"
 414              		.file 10 "D:/fchai/work/i-cube/I-CUBE-HUAWEI/Drivers/STM32L4xx_HAL_Driver/Inc/stm32l4xx_hal_flash.
 415              		.file 11 "D:/fchai/work/i-cube/I-CUBE-HUAWEI/Drivers/STM32L4xx_HAL_Driver/Inc/stm32l4xx_hal_uart.h
 416              		.file 12 "D:/fchai/work/i-cube/I-CUBE-HUAWEI/Drivers/STM32L4xx_HAL_Driver/Inc/stm32l4xx_hal.h"
 417              		.file 13 "D:/fchai/work/i-cube/I-CUBE-HUAWEI/Drivers/STM32L4xx_HAL_Driver/Inc/stm32l4xx_hal_cortex
 418              		.file 14 "D:/fchai/work/i-cube/I-CUBE-HUAWEI/Drivers/STM32L4xx_HAL_Driver/Inc/stm32l4xx_hal_pwr_ex
ARM GAS  T:\msys\tmp\cceHdWEg.s 			page 13

