ARM GAS  T:\msys\tmp\cc0peJlj.s 			page 1


   1              		.cpu cortex-m4
   2              		.eabi_attribute 27, 1
   3              		.eabi_attribute 28, 1
   4              		.eabi_attribute 20, 1
   5              		.eabi_attribute 21, 1
   6              		.eabi_attribute 23, 3
   7              		.eabi_attribute 24, 1
   8              		.eabi_attribute 25, 1
   9              		.eabi_attribute 26, 1
  10              		.eabi_attribute 30, 2
  11              		.eabi_attribute 34, 1
  12              		.eabi_attribute 18, 4
  13              		.file	"system_stm32l4xx.c"
  14              		.text
  15              	.Ltext0:
  16              		.cfi_sections	.debug_frame
  17              		.section	.text.SystemInit,"ax",%progbits
  18              		.align	1
  19              		.p2align 2,,3
  20              		.global	SystemInit
  21              		.arch armv7e-m
  22              		.syntax unified
  23              		.thumb
  24              		.thumb_func
  25              		.fpu fpv4-sp-d16
  27              	SystemInit:
  28              	.LFB123:
  29              		.file 1 "D:/fchai/work/i-cube/I-CUBE-HUAWEI/Projects/NUCLEO-L496ZG/Applications/Cloud/mqtt-ota/Src
   1:D:/fchai/work/i-cube/I-CUBE-HUAWEI/Projects/NUCLEO-L496ZG/Applications/Cloud/mqtt-ota/Src\system_stm32l4xx.c **** /**
   2:D:/fchai/work/i-cube/I-CUBE-HUAWEI/Projects/NUCLEO-L496ZG/Applications/Cloud/mqtt-ota/Src\system_stm32l4xx.c ****   ******************************************************************************
   3:D:/fchai/work/i-cube/I-CUBE-HUAWEI/Projects/NUCLEO-L496ZG/Applications/Cloud/mqtt-ota/Src\system_stm32l4xx.c ****   * @file    system_stm32l4xx.c
   4:D:/fchai/work/i-cube/I-CUBE-HUAWEI/Projects/NUCLEO-L496ZG/Applications/Cloud/mqtt-ota/Src\system_stm32l4xx.c ****   * @author  MCD Application Team
   5:D:/fchai/work/i-cube/I-CUBE-HUAWEI/Projects/NUCLEO-L496ZG/Applications/Cloud/mqtt-ota/Src\system_stm32l4xx.c ****   * @brief   CMSIS Cortex-M4 Device Peripheral Access Layer System Source File
   6:D:/fchai/work/i-cube/I-CUBE-HUAWEI/Projects/NUCLEO-L496ZG/Applications/Cloud/mqtt-ota/Src\system_stm32l4xx.c ****   *
   7:D:/fchai/work/i-cube/I-CUBE-HUAWEI/Projects/NUCLEO-L496ZG/Applications/Cloud/mqtt-ota/Src\system_stm32l4xx.c ****   *   This file provides two functions and one global variable to be called from
   8:D:/fchai/work/i-cube/I-CUBE-HUAWEI/Projects/NUCLEO-L496ZG/Applications/Cloud/mqtt-ota/Src\system_stm32l4xx.c ****   *   user application:
   9:D:/fchai/work/i-cube/I-CUBE-HUAWEI/Projects/NUCLEO-L496ZG/Applications/Cloud/mqtt-ota/Src\system_stm32l4xx.c ****   *      - SystemInit(): This function is called at startup just after reset and
  10:D:/fchai/work/i-cube/I-CUBE-HUAWEI/Projects/NUCLEO-L496ZG/Applications/Cloud/mqtt-ota/Src\system_stm32l4xx.c ****   *                      before branch to main program. This call is made inside
  11:D:/fchai/work/i-cube/I-CUBE-HUAWEI/Projects/NUCLEO-L496ZG/Applications/Cloud/mqtt-ota/Src\system_stm32l4xx.c ****   *                      the "startup_stm32l4xx.s" file.
  12:D:/fchai/work/i-cube/I-CUBE-HUAWEI/Projects/NUCLEO-L496ZG/Applications/Cloud/mqtt-ota/Src\system_stm32l4xx.c ****   *
  13:D:/fchai/work/i-cube/I-CUBE-HUAWEI/Projects/NUCLEO-L496ZG/Applications/Cloud/mqtt-ota/Src\system_stm32l4xx.c ****   *      - SystemCoreClock variable: Contains the core clock (HCLK), it can be used
  14:D:/fchai/work/i-cube/I-CUBE-HUAWEI/Projects/NUCLEO-L496ZG/Applications/Cloud/mqtt-ota/Src\system_stm32l4xx.c ****   *                                  by the user application to setup the SysTick
  15:D:/fchai/work/i-cube/I-CUBE-HUAWEI/Projects/NUCLEO-L496ZG/Applications/Cloud/mqtt-ota/Src\system_stm32l4xx.c ****   *                                  timer or configure other parameters.
  16:D:/fchai/work/i-cube/I-CUBE-HUAWEI/Projects/NUCLEO-L496ZG/Applications/Cloud/mqtt-ota/Src\system_stm32l4xx.c ****   *
  17:D:/fchai/work/i-cube/I-CUBE-HUAWEI/Projects/NUCLEO-L496ZG/Applications/Cloud/mqtt-ota/Src\system_stm32l4xx.c ****   *      - SystemCoreClockUpdate(): Updates the variable SystemCoreClock and must
  18:D:/fchai/work/i-cube/I-CUBE-HUAWEI/Projects/NUCLEO-L496ZG/Applications/Cloud/mqtt-ota/Src\system_stm32l4xx.c ****   *                                 be called whenever the core clock is changed
  19:D:/fchai/work/i-cube/I-CUBE-HUAWEI/Projects/NUCLEO-L496ZG/Applications/Cloud/mqtt-ota/Src\system_stm32l4xx.c ****   *                                 during program execution.
  20:D:/fchai/work/i-cube/I-CUBE-HUAWEI/Projects/NUCLEO-L496ZG/Applications/Cloud/mqtt-ota/Src\system_stm32l4xx.c ****   *
  21:D:/fchai/work/i-cube/I-CUBE-HUAWEI/Projects/NUCLEO-L496ZG/Applications/Cloud/mqtt-ota/Src\system_stm32l4xx.c ****   *   After each device reset the MSI (4 MHz) is used as system clock source.
  22:D:/fchai/work/i-cube/I-CUBE-HUAWEI/Projects/NUCLEO-L496ZG/Applications/Cloud/mqtt-ota/Src\system_stm32l4xx.c ****   *   Then SystemInit() function is called, in "startup_stm32l4xx.s" file, to
  23:D:/fchai/work/i-cube/I-CUBE-HUAWEI/Projects/NUCLEO-L496ZG/Applications/Cloud/mqtt-ota/Src\system_stm32l4xx.c ****   *   configure the system clock before to branch to main program.
  24:D:/fchai/work/i-cube/I-CUBE-HUAWEI/Projects/NUCLEO-L496ZG/Applications/Cloud/mqtt-ota/Src\system_stm32l4xx.c ****   *
  25:D:/fchai/work/i-cube/I-CUBE-HUAWEI/Projects/NUCLEO-L496ZG/Applications/Cloud/mqtt-ota/Src\system_stm32l4xx.c ****   *   This file configures the system clock as follows:
  26:D:/fchai/work/i-cube/I-CUBE-HUAWEI/Projects/NUCLEO-L496ZG/Applications/Cloud/mqtt-ota/Src\system_stm32l4xx.c ****   *=============================================================================
  27:D:/fchai/work/i-cube/I-CUBE-HUAWEI/Projects/NUCLEO-L496ZG/Applications/Cloud/mqtt-ota/Src\system_stm32l4xx.c ****   *-----------------------------------------------------------------------------
  28:D:/fchai/work/i-cube/I-CUBE-HUAWEI/Projects/NUCLEO-L496ZG/Applications/Cloud/mqtt-ota/Src\system_stm32l4xx.c ****   *        System Clock source                    | MSI
  29:D:/fchai/work/i-cube/I-CUBE-HUAWEI/Projects/NUCLEO-L496ZG/Applications/Cloud/mqtt-ota/Src\system_stm32l4xx.c ****   *-----------------------------------------------------------------------------
ARM GAS  T:\msys\tmp\cc0peJlj.s 			page 2


  30:D:/fchai/work/i-cube/I-CUBE-HUAWEI/Projects/NUCLEO-L496ZG/Applications/Cloud/mqtt-ota/Src\system_stm32l4xx.c ****   *        SYSCLK(Hz)                             | 4000000
  31:D:/fchai/work/i-cube/I-CUBE-HUAWEI/Projects/NUCLEO-L496ZG/Applications/Cloud/mqtt-ota/Src\system_stm32l4xx.c ****   *-----------------------------------------------------------------------------
  32:D:/fchai/work/i-cube/I-CUBE-HUAWEI/Projects/NUCLEO-L496ZG/Applications/Cloud/mqtt-ota/Src\system_stm32l4xx.c ****   *        HCLK(Hz)                               | 4000000
  33:D:/fchai/work/i-cube/I-CUBE-HUAWEI/Projects/NUCLEO-L496ZG/Applications/Cloud/mqtt-ota/Src\system_stm32l4xx.c ****   *-----------------------------------------------------------------------------
  34:D:/fchai/work/i-cube/I-CUBE-HUAWEI/Projects/NUCLEO-L496ZG/Applications/Cloud/mqtt-ota/Src\system_stm32l4xx.c ****   *        AHB Prescaler                          | 1
  35:D:/fchai/work/i-cube/I-CUBE-HUAWEI/Projects/NUCLEO-L496ZG/Applications/Cloud/mqtt-ota/Src\system_stm32l4xx.c ****   *-----------------------------------------------------------------------------
  36:D:/fchai/work/i-cube/I-CUBE-HUAWEI/Projects/NUCLEO-L496ZG/Applications/Cloud/mqtt-ota/Src\system_stm32l4xx.c ****   *        APB1 Prescaler                         | 1
  37:D:/fchai/work/i-cube/I-CUBE-HUAWEI/Projects/NUCLEO-L496ZG/Applications/Cloud/mqtt-ota/Src\system_stm32l4xx.c ****   *-----------------------------------------------------------------------------
  38:D:/fchai/work/i-cube/I-CUBE-HUAWEI/Projects/NUCLEO-L496ZG/Applications/Cloud/mqtt-ota/Src\system_stm32l4xx.c ****   *        APB2 Prescaler                         | 1
  39:D:/fchai/work/i-cube/I-CUBE-HUAWEI/Projects/NUCLEO-L496ZG/Applications/Cloud/mqtt-ota/Src\system_stm32l4xx.c ****   *-----------------------------------------------------------------------------
  40:D:/fchai/work/i-cube/I-CUBE-HUAWEI/Projects/NUCLEO-L496ZG/Applications/Cloud/mqtt-ota/Src\system_stm32l4xx.c ****   *        PLL_M                                  | 1
  41:D:/fchai/work/i-cube/I-CUBE-HUAWEI/Projects/NUCLEO-L496ZG/Applications/Cloud/mqtt-ota/Src\system_stm32l4xx.c ****   *-----------------------------------------------------------------------------
  42:D:/fchai/work/i-cube/I-CUBE-HUAWEI/Projects/NUCLEO-L496ZG/Applications/Cloud/mqtt-ota/Src\system_stm32l4xx.c ****   *        PLL_N                                  | 8
  43:D:/fchai/work/i-cube/I-CUBE-HUAWEI/Projects/NUCLEO-L496ZG/Applications/Cloud/mqtt-ota/Src\system_stm32l4xx.c ****   *-----------------------------------------------------------------------------
  44:D:/fchai/work/i-cube/I-CUBE-HUAWEI/Projects/NUCLEO-L496ZG/Applications/Cloud/mqtt-ota/Src\system_stm32l4xx.c ****   *        PLL_P                                  | 7
  45:D:/fchai/work/i-cube/I-CUBE-HUAWEI/Projects/NUCLEO-L496ZG/Applications/Cloud/mqtt-ota/Src\system_stm32l4xx.c ****   *-----------------------------------------------------------------------------
  46:D:/fchai/work/i-cube/I-CUBE-HUAWEI/Projects/NUCLEO-L496ZG/Applications/Cloud/mqtt-ota/Src\system_stm32l4xx.c ****   *        PLL_Q                                  | 2
  47:D:/fchai/work/i-cube/I-CUBE-HUAWEI/Projects/NUCLEO-L496ZG/Applications/Cloud/mqtt-ota/Src\system_stm32l4xx.c ****   *-----------------------------------------------------------------------------
  48:D:/fchai/work/i-cube/I-CUBE-HUAWEI/Projects/NUCLEO-L496ZG/Applications/Cloud/mqtt-ota/Src\system_stm32l4xx.c ****   *        PLL_R                                  | 2
  49:D:/fchai/work/i-cube/I-CUBE-HUAWEI/Projects/NUCLEO-L496ZG/Applications/Cloud/mqtt-ota/Src\system_stm32l4xx.c ****   *-----------------------------------------------------------------------------
  50:D:/fchai/work/i-cube/I-CUBE-HUAWEI/Projects/NUCLEO-L496ZG/Applications/Cloud/mqtt-ota/Src\system_stm32l4xx.c ****   *        PLLSAI1_P                              | NA
  51:D:/fchai/work/i-cube/I-CUBE-HUAWEI/Projects/NUCLEO-L496ZG/Applications/Cloud/mqtt-ota/Src\system_stm32l4xx.c ****   *-----------------------------------------------------------------------------
  52:D:/fchai/work/i-cube/I-CUBE-HUAWEI/Projects/NUCLEO-L496ZG/Applications/Cloud/mqtt-ota/Src\system_stm32l4xx.c ****   *        PLLSAI1_Q                              | NA
  53:D:/fchai/work/i-cube/I-CUBE-HUAWEI/Projects/NUCLEO-L496ZG/Applications/Cloud/mqtt-ota/Src\system_stm32l4xx.c ****   *-----------------------------------------------------------------------------
  54:D:/fchai/work/i-cube/I-CUBE-HUAWEI/Projects/NUCLEO-L496ZG/Applications/Cloud/mqtt-ota/Src\system_stm32l4xx.c ****   *        PLLSAI1_R                              | NA
  55:D:/fchai/work/i-cube/I-CUBE-HUAWEI/Projects/NUCLEO-L496ZG/Applications/Cloud/mqtt-ota/Src\system_stm32l4xx.c ****   *-----------------------------------------------------------------------------
  56:D:/fchai/work/i-cube/I-CUBE-HUAWEI/Projects/NUCLEO-L496ZG/Applications/Cloud/mqtt-ota/Src\system_stm32l4xx.c ****   *        PLLSAI2_P                              | NA
  57:D:/fchai/work/i-cube/I-CUBE-HUAWEI/Projects/NUCLEO-L496ZG/Applications/Cloud/mqtt-ota/Src\system_stm32l4xx.c ****   *-----------------------------------------------------------------------------
  58:D:/fchai/work/i-cube/I-CUBE-HUAWEI/Projects/NUCLEO-L496ZG/Applications/Cloud/mqtt-ota/Src\system_stm32l4xx.c ****   *        PLLSAI2_Q                              | NA
  59:D:/fchai/work/i-cube/I-CUBE-HUAWEI/Projects/NUCLEO-L496ZG/Applications/Cloud/mqtt-ota/Src\system_stm32l4xx.c ****   *-----------------------------------------------------------------------------
  60:D:/fchai/work/i-cube/I-CUBE-HUAWEI/Projects/NUCLEO-L496ZG/Applications/Cloud/mqtt-ota/Src\system_stm32l4xx.c ****   *        PLLSAI2_R                              | NA
  61:D:/fchai/work/i-cube/I-CUBE-HUAWEI/Projects/NUCLEO-L496ZG/Applications/Cloud/mqtt-ota/Src\system_stm32l4xx.c ****   *-----------------------------------------------------------------------------
  62:D:/fchai/work/i-cube/I-CUBE-HUAWEI/Projects/NUCLEO-L496ZG/Applications/Cloud/mqtt-ota/Src\system_stm32l4xx.c ****   *        Require 48MHz for USB OTG FS,          | Disabled
  63:D:/fchai/work/i-cube/I-CUBE-HUAWEI/Projects/NUCLEO-L496ZG/Applications/Cloud/mqtt-ota/Src\system_stm32l4xx.c ****   *        SDIO and RNG clock                     |
  64:D:/fchai/work/i-cube/I-CUBE-HUAWEI/Projects/NUCLEO-L496ZG/Applications/Cloud/mqtt-ota/Src\system_stm32l4xx.c ****   *-----------------------------------------------------------------------------
  65:D:/fchai/work/i-cube/I-CUBE-HUAWEI/Projects/NUCLEO-L496ZG/Applications/Cloud/mqtt-ota/Src\system_stm32l4xx.c ****   *=============================================================================
  66:D:/fchai/work/i-cube/I-CUBE-HUAWEI/Projects/NUCLEO-L496ZG/Applications/Cloud/mqtt-ota/Src\system_stm32l4xx.c ****   ******************************************************************************
  67:D:/fchai/work/i-cube/I-CUBE-HUAWEI/Projects/NUCLEO-L496ZG/Applications/Cloud/mqtt-ota/Src\system_stm32l4xx.c ****   * @attention
  68:D:/fchai/work/i-cube/I-CUBE-HUAWEI/Projects/NUCLEO-L496ZG/Applications/Cloud/mqtt-ota/Src\system_stm32l4xx.c ****   *
  69:D:/fchai/work/i-cube/I-CUBE-HUAWEI/Projects/NUCLEO-L496ZG/Applications/Cloud/mqtt-ota/Src\system_stm32l4xx.c ****   * <h2><center>&copy; Copyright (c) 2017 STMicroelectronics.
  70:D:/fchai/work/i-cube/I-CUBE-HUAWEI/Projects/NUCLEO-L496ZG/Applications/Cloud/mqtt-ota/Src\system_stm32l4xx.c ****   * All rights reserved.</center></h2>
  71:D:/fchai/work/i-cube/I-CUBE-HUAWEI/Projects/NUCLEO-L496ZG/Applications/Cloud/mqtt-ota/Src\system_stm32l4xx.c ****   *
  72:D:/fchai/work/i-cube/I-CUBE-HUAWEI/Projects/NUCLEO-L496ZG/Applications/Cloud/mqtt-ota/Src\system_stm32l4xx.c ****   * This software component is licensed by ST under BSD 3-Clause license,
  73:D:/fchai/work/i-cube/I-CUBE-HUAWEI/Projects/NUCLEO-L496ZG/Applications/Cloud/mqtt-ota/Src\system_stm32l4xx.c ****   * the "License"; You may not use this file except in compliance with the
  74:D:/fchai/work/i-cube/I-CUBE-HUAWEI/Projects/NUCLEO-L496ZG/Applications/Cloud/mqtt-ota/Src\system_stm32l4xx.c ****   * License. You may obtain a copy of the License at:
  75:D:/fchai/work/i-cube/I-CUBE-HUAWEI/Projects/NUCLEO-L496ZG/Applications/Cloud/mqtt-ota/Src\system_stm32l4xx.c ****   *                        opensource.org/licenses/BSD-3-Clause
  76:D:/fchai/work/i-cube/I-CUBE-HUAWEI/Projects/NUCLEO-L496ZG/Applications/Cloud/mqtt-ota/Src\system_stm32l4xx.c ****   *
  77:D:/fchai/work/i-cube/I-CUBE-HUAWEI/Projects/NUCLEO-L496ZG/Applications/Cloud/mqtt-ota/Src\system_stm32l4xx.c ****   ******************************************************************************
  78:D:/fchai/work/i-cube/I-CUBE-HUAWEI/Projects/NUCLEO-L496ZG/Applications/Cloud/mqtt-ota/Src\system_stm32l4xx.c ****   */
  79:D:/fchai/work/i-cube/I-CUBE-HUAWEI/Projects/NUCLEO-L496ZG/Applications/Cloud/mqtt-ota/Src\system_stm32l4xx.c **** 
  80:D:/fchai/work/i-cube/I-CUBE-HUAWEI/Projects/NUCLEO-L496ZG/Applications/Cloud/mqtt-ota/Src\system_stm32l4xx.c **** /** @addtogroup CMSIS
  81:D:/fchai/work/i-cube/I-CUBE-HUAWEI/Projects/NUCLEO-L496ZG/Applications/Cloud/mqtt-ota/Src\system_stm32l4xx.c ****   * @{
  82:D:/fchai/work/i-cube/I-CUBE-HUAWEI/Projects/NUCLEO-L496ZG/Applications/Cloud/mqtt-ota/Src\system_stm32l4xx.c ****   */
  83:D:/fchai/work/i-cube/I-CUBE-HUAWEI/Projects/NUCLEO-L496ZG/Applications/Cloud/mqtt-ota/Src\system_stm32l4xx.c **** 
  84:D:/fchai/work/i-cube/I-CUBE-HUAWEI/Projects/NUCLEO-L496ZG/Applications/Cloud/mqtt-ota/Src\system_stm32l4xx.c **** /** @addtogroup stm32l4xx_system
  85:D:/fchai/work/i-cube/I-CUBE-HUAWEI/Projects/NUCLEO-L496ZG/Applications/Cloud/mqtt-ota/Src\system_stm32l4xx.c ****   * @{
  86:D:/fchai/work/i-cube/I-CUBE-HUAWEI/Projects/NUCLEO-L496ZG/Applications/Cloud/mqtt-ota/Src\system_stm32l4xx.c ****   */
ARM GAS  T:\msys\tmp\cc0peJlj.s 			page 3


  87:D:/fchai/work/i-cube/I-CUBE-HUAWEI/Projects/NUCLEO-L496ZG/Applications/Cloud/mqtt-ota/Src\system_stm32l4xx.c **** 
  88:D:/fchai/work/i-cube/I-CUBE-HUAWEI/Projects/NUCLEO-L496ZG/Applications/Cloud/mqtt-ota/Src\system_stm32l4xx.c **** /** @addtogroup STM32L4xx_System_Private_Includes
  89:D:/fchai/work/i-cube/I-CUBE-HUAWEI/Projects/NUCLEO-L496ZG/Applications/Cloud/mqtt-ota/Src\system_stm32l4xx.c ****   * @{
  90:D:/fchai/work/i-cube/I-CUBE-HUAWEI/Projects/NUCLEO-L496ZG/Applications/Cloud/mqtt-ota/Src\system_stm32l4xx.c ****   */
  91:D:/fchai/work/i-cube/I-CUBE-HUAWEI/Projects/NUCLEO-L496ZG/Applications/Cloud/mqtt-ota/Src\system_stm32l4xx.c **** 
  92:D:/fchai/work/i-cube/I-CUBE-HUAWEI/Projects/NUCLEO-L496ZG/Applications/Cloud/mqtt-ota/Src\system_stm32l4xx.c **** #include "stm32l4xx.h"
  93:D:/fchai/work/i-cube/I-CUBE-HUAWEI/Projects/NUCLEO-L496ZG/Applications/Cloud/mqtt-ota/Src\system_stm32l4xx.c **** 
  94:D:/fchai/work/i-cube/I-CUBE-HUAWEI/Projects/NUCLEO-L496ZG/Applications/Cloud/mqtt-ota/Src\system_stm32l4xx.c **** #if !defined  (HSE_VALUE)
  95:D:/fchai/work/i-cube/I-CUBE-HUAWEI/Projects/NUCLEO-L496ZG/Applications/Cloud/mqtt-ota/Src\system_stm32l4xx.c ****   #define HSE_VALUE    8000000U  /*!< Value of the External oscillator in Hz */
  96:D:/fchai/work/i-cube/I-CUBE-HUAWEI/Projects/NUCLEO-L496ZG/Applications/Cloud/mqtt-ota/Src\system_stm32l4xx.c **** #endif /* HSE_VALUE */
  97:D:/fchai/work/i-cube/I-CUBE-HUAWEI/Projects/NUCLEO-L496ZG/Applications/Cloud/mqtt-ota/Src\system_stm32l4xx.c **** 
  98:D:/fchai/work/i-cube/I-CUBE-HUAWEI/Projects/NUCLEO-L496ZG/Applications/Cloud/mqtt-ota/Src\system_stm32l4xx.c **** #if !defined  (MSI_VALUE)
  99:D:/fchai/work/i-cube/I-CUBE-HUAWEI/Projects/NUCLEO-L496ZG/Applications/Cloud/mqtt-ota/Src\system_stm32l4xx.c ****   #define MSI_VALUE    4000000U  /*!< Value of the Internal oscillator in Hz*/
 100:D:/fchai/work/i-cube/I-CUBE-HUAWEI/Projects/NUCLEO-L496ZG/Applications/Cloud/mqtt-ota/Src\system_stm32l4xx.c **** #endif /* MSI_VALUE */
 101:D:/fchai/work/i-cube/I-CUBE-HUAWEI/Projects/NUCLEO-L496ZG/Applications/Cloud/mqtt-ota/Src\system_stm32l4xx.c **** 
 102:D:/fchai/work/i-cube/I-CUBE-HUAWEI/Projects/NUCLEO-L496ZG/Applications/Cloud/mqtt-ota/Src\system_stm32l4xx.c **** #if !defined  (HSI_VALUE)
 103:D:/fchai/work/i-cube/I-CUBE-HUAWEI/Projects/NUCLEO-L496ZG/Applications/Cloud/mqtt-ota/Src\system_stm32l4xx.c ****   #define HSI_VALUE    16000000U /*!< Value of the Internal oscillator in Hz*/
 104:D:/fchai/work/i-cube/I-CUBE-HUAWEI/Projects/NUCLEO-L496ZG/Applications/Cloud/mqtt-ota/Src\system_stm32l4xx.c **** #endif /* HSI_VALUE */
 105:D:/fchai/work/i-cube/I-CUBE-HUAWEI/Projects/NUCLEO-L496ZG/Applications/Cloud/mqtt-ota/Src\system_stm32l4xx.c **** 
 106:D:/fchai/work/i-cube/I-CUBE-HUAWEI/Projects/NUCLEO-L496ZG/Applications/Cloud/mqtt-ota/Src\system_stm32l4xx.c **** /**
 107:D:/fchai/work/i-cube/I-CUBE-HUAWEI/Projects/NUCLEO-L496ZG/Applications/Cloud/mqtt-ota/Src\system_stm32l4xx.c ****   * @}
 108:D:/fchai/work/i-cube/I-CUBE-HUAWEI/Projects/NUCLEO-L496ZG/Applications/Cloud/mqtt-ota/Src\system_stm32l4xx.c ****   */
 109:D:/fchai/work/i-cube/I-CUBE-HUAWEI/Projects/NUCLEO-L496ZG/Applications/Cloud/mqtt-ota/Src\system_stm32l4xx.c **** 
 110:D:/fchai/work/i-cube/I-CUBE-HUAWEI/Projects/NUCLEO-L496ZG/Applications/Cloud/mqtt-ota/Src\system_stm32l4xx.c **** /** @addtogroup STM32L4xx_System_Private_TypesDefinitions
 111:D:/fchai/work/i-cube/I-CUBE-HUAWEI/Projects/NUCLEO-L496ZG/Applications/Cloud/mqtt-ota/Src\system_stm32l4xx.c ****   * @{
 112:D:/fchai/work/i-cube/I-CUBE-HUAWEI/Projects/NUCLEO-L496ZG/Applications/Cloud/mqtt-ota/Src\system_stm32l4xx.c ****   */
 113:D:/fchai/work/i-cube/I-CUBE-HUAWEI/Projects/NUCLEO-L496ZG/Applications/Cloud/mqtt-ota/Src\system_stm32l4xx.c **** 
 114:D:/fchai/work/i-cube/I-CUBE-HUAWEI/Projects/NUCLEO-L496ZG/Applications/Cloud/mqtt-ota/Src\system_stm32l4xx.c **** /**
 115:D:/fchai/work/i-cube/I-CUBE-HUAWEI/Projects/NUCLEO-L496ZG/Applications/Cloud/mqtt-ota/Src\system_stm32l4xx.c ****   * @}
 116:D:/fchai/work/i-cube/I-CUBE-HUAWEI/Projects/NUCLEO-L496ZG/Applications/Cloud/mqtt-ota/Src\system_stm32l4xx.c ****   */
 117:D:/fchai/work/i-cube/I-CUBE-HUAWEI/Projects/NUCLEO-L496ZG/Applications/Cloud/mqtt-ota/Src\system_stm32l4xx.c **** 
 118:D:/fchai/work/i-cube/I-CUBE-HUAWEI/Projects/NUCLEO-L496ZG/Applications/Cloud/mqtt-ota/Src\system_stm32l4xx.c **** /** @addtogroup STM32L4xx_System_Private_Defines
 119:D:/fchai/work/i-cube/I-CUBE-HUAWEI/Projects/NUCLEO-L496ZG/Applications/Cloud/mqtt-ota/Src\system_stm32l4xx.c ****   * @{
 120:D:/fchai/work/i-cube/I-CUBE-HUAWEI/Projects/NUCLEO-L496ZG/Applications/Cloud/mqtt-ota/Src\system_stm32l4xx.c ****   */
 121:D:/fchai/work/i-cube/I-CUBE-HUAWEI/Projects/NUCLEO-L496ZG/Applications/Cloud/mqtt-ota/Src\system_stm32l4xx.c **** 
 122:D:/fchai/work/i-cube/I-CUBE-HUAWEI/Projects/NUCLEO-L496ZG/Applications/Cloud/mqtt-ota/Src\system_stm32l4xx.c **** /************************* Miscellaneous Configuration ************************/
 123:D:/fchai/work/i-cube/I-CUBE-HUAWEI/Projects/NUCLEO-L496ZG/Applications/Cloud/mqtt-ota/Src\system_stm32l4xx.c **** /*!< Uncomment the following line if you need to relocate your vector Table in
 124:D:/fchai/work/i-cube/I-CUBE-HUAWEI/Projects/NUCLEO-L496ZG/Applications/Cloud/mqtt-ota/Src\system_stm32l4xx.c ****      Internal SRAM. */
 125:D:/fchai/work/i-cube/I-CUBE-HUAWEI/Projects/NUCLEO-L496ZG/Applications/Cloud/mqtt-ota/Src\system_stm32l4xx.c **** /* #define VECT_TAB_SRAM */
 126:D:/fchai/work/i-cube/I-CUBE-HUAWEI/Projects/NUCLEO-L496ZG/Applications/Cloud/mqtt-ota/Src\system_stm32l4xx.c **** #define VECT_TAB_OFFSET  0x00 /*!< Vector Table base offset field.
 127:D:/fchai/work/i-cube/I-CUBE-HUAWEI/Projects/NUCLEO-L496ZG/Applications/Cloud/mqtt-ota/Src\system_stm32l4xx.c ****                                    This value must be a multiple of 0x200. */
 128:D:/fchai/work/i-cube/I-CUBE-HUAWEI/Projects/NUCLEO-L496ZG/Applications/Cloud/mqtt-ota/Src\system_stm32l4xx.c **** /******************************************************************************/
 129:D:/fchai/work/i-cube/I-CUBE-HUAWEI/Projects/NUCLEO-L496ZG/Applications/Cloud/mqtt-ota/Src\system_stm32l4xx.c **** /**
 130:D:/fchai/work/i-cube/I-CUBE-HUAWEI/Projects/NUCLEO-L496ZG/Applications/Cloud/mqtt-ota/Src\system_stm32l4xx.c ****   * @}
 131:D:/fchai/work/i-cube/I-CUBE-HUAWEI/Projects/NUCLEO-L496ZG/Applications/Cloud/mqtt-ota/Src\system_stm32l4xx.c ****   */
 132:D:/fchai/work/i-cube/I-CUBE-HUAWEI/Projects/NUCLEO-L496ZG/Applications/Cloud/mqtt-ota/Src\system_stm32l4xx.c **** 
 133:D:/fchai/work/i-cube/I-CUBE-HUAWEI/Projects/NUCLEO-L496ZG/Applications/Cloud/mqtt-ota/Src\system_stm32l4xx.c **** /** @addtogroup STM32L4xx_System_Private_Macros
 134:D:/fchai/work/i-cube/I-CUBE-HUAWEI/Projects/NUCLEO-L496ZG/Applications/Cloud/mqtt-ota/Src\system_stm32l4xx.c ****   * @{
 135:D:/fchai/work/i-cube/I-CUBE-HUAWEI/Projects/NUCLEO-L496ZG/Applications/Cloud/mqtt-ota/Src\system_stm32l4xx.c ****   */
 136:D:/fchai/work/i-cube/I-CUBE-HUAWEI/Projects/NUCLEO-L496ZG/Applications/Cloud/mqtt-ota/Src\system_stm32l4xx.c **** 
 137:D:/fchai/work/i-cube/I-CUBE-HUAWEI/Projects/NUCLEO-L496ZG/Applications/Cloud/mqtt-ota/Src\system_stm32l4xx.c **** /**
 138:D:/fchai/work/i-cube/I-CUBE-HUAWEI/Projects/NUCLEO-L496ZG/Applications/Cloud/mqtt-ota/Src\system_stm32l4xx.c ****   * @}
 139:D:/fchai/work/i-cube/I-CUBE-HUAWEI/Projects/NUCLEO-L496ZG/Applications/Cloud/mqtt-ota/Src\system_stm32l4xx.c ****   */
 140:D:/fchai/work/i-cube/I-CUBE-HUAWEI/Projects/NUCLEO-L496ZG/Applications/Cloud/mqtt-ota/Src\system_stm32l4xx.c **** 
 141:D:/fchai/work/i-cube/I-CUBE-HUAWEI/Projects/NUCLEO-L496ZG/Applications/Cloud/mqtt-ota/Src\system_stm32l4xx.c **** /** @addtogroup STM32L4xx_System_Private_Variables
 142:D:/fchai/work/i-cube/I-CUBE-HUAWEI/Projects/NUCLEO-L496ZG/Applications/Cloud/mqtt-ota/Src\system_stm32l4xx.c ****   * @{
 143:D:/fchai/work/i-cube/I-CUBE-HUAWEI/Projects/NUCLEO-L496ZG/Applications/Cloud/mqtt-ota/Src\system_stm32l4xx.c ****   */
ARM GAS  T:\msys\tmp\cc0peJlj.s 			page 4


 144:D:/fchai/work/i-cube/I-CUBE-HUAWEI/Projects/NUCLEO-L496ZG/Applications/Cloud/mqtt-ota/Src\system_stm32l4xx.c ****   /* The SystemCoreClock variable is updated in three ways:
 145:D:/fchai/work/i-cube/I-CUBE-HUAWEI/Projects/NUCLEO-L496ZG/Applications/Cloud/mqtt-ota/Src\system_stm32l4xx.c ****       1) by calling CMSIS function SystemCoreClockUpdate()
 146:D:/fchai/work/i-cube/I-CUBE-HUAWEI/Projects/NUCLEO-L496ZG/Applications/Cloud/mqtt-ota/Src\system_stm32l4xx.c ****       2) by calling HAL API function HAL_RCC_GetHCLKFreq()
 147:D:/fchai/work/i-cube/I-CUBE-HUAWEI/Projects/NUCLEO-L496ZG/Applications/Cloud/mqtt-ota/Src\system_stm32l4xx.c ****       3) each time HAL_RCC_ClockConfig() is called to configure the system clock frequency
 148:D:/fchai/work/i-cube/I-CUBE-HUAWEI/Projects/NUCLEO-L496ZG/Applications/Cloud/mqtt-ota/Src\system_stm32l4xx.c ****          Note: If you use this function to configure the system clock; then there
 149:D:/fchai/work/i-cube/I-CUBE-HUAWEI/Projects/NUCLEO-L496ZG/Applications/Cloud/mqtt-ota/Src\system_stm32l4xx.c ****                is no need to call the 2 first functions listed above, since SystemCoreClock
 150:D:/fchai/work/i-cube/I-CUBE-HUAWEI/Projects/NUCLEO-L496ZG/Applications/Cloud/mqtt-ota/Src\system_stm32l4xx.c ****                variable is updated automatically.
 151:D:/fchai/work/i-cube/I-CUBE-HUAWEI/Projects/NUCLEO-L496ZG/Applications/Cloud/mqtt-ota/Src\system_stm32l4xx.c ****   */
 152:D:/fchai/work/i-cube/I-CUBE-HUAWEI/Projects/NUCLEO-L496ZG/Applications/Cloud/mqtt-ota/Src\system_stm32l4xx.c ****   uint32_t SystemCoreClock = 4000000U;
 153:D:/fchai/work/i-cube/I-CUBE-HUAWEI/Projects/NUCLEO-L496ZG/Applications/Cloud/mqtt-ota/Src\system_stm32l4xx.c **** 
 154:D:/fchai/work/i-cube/I-CUBE-HUAWEI/Projects/NUCLEO-L496ZG/Applications/Cloud/mqtt-ota/Src\system_stm32l4xx.c ****   const uint8_t  AHBPrescTable[16] = {0U, 0U, 0U, 0U, 0U, 0U, 0U, 0U, 1U, 2U, 3U, 4U, 6U, 7U, 8U, 9
 155:D:/fchai/work/i-cube/I-CUBE-HUAWEI/Projects/NUCLEO-L496ZG/Applications/Cloud/mqtt-ota/Src\system_stm32l4xx.c ****   const uint8_t  APBPrescTable[8] =  {0U, 0U, 0U, 0U, 1U, 2U, 3U, 4U};
 156:D:/fchai/work/i-cube/I-CUBE-HUAWEI/Projects/NUCLEO-L496ZG/Applications/Cloud/mqtt-ota/Src\system_stm32l4xx.c ****   const uint32_t MSIRangeTable[12] = {100000U,   200000U,   400000U,   800000U,  1000000U,  2000000
 157:D:/fchai/work/i-cube/I-CUBE-HUAWEI/Projects/NUCLEO-L496ZG/Applications/Cloud/mqtt-ota/Src\system_stm32l4xx.c ****                                       4000000U, 8000000U, 16000000U, 24000000U, 32000000U, 48000000
 158:D:/fchai/work/i-cube/I-CUBE-HUAWEI/Projects/NUCLEO-L496ZG/Applications/Cloud/mqtt-ota/Src\system_stm32l4xx.c **** /**
 159:D:/fchai/work/i-cube/I-CUBE-HUAWEI/Projects/NUCLEO-L496ZG/Applications/Cloud/mqtt-ota/Src\system_stm32l4xx.c ****   * @}
 160:D:/fchai/work/i-cube/I-CUBE-HUAWEI/Projects/NUCLEO-L496ZG/Applications/Cloud/mqtt-ota/Src\system_stm32l4xx.c ****   */
 161:D:/fchai/work/i-cube/I-CUBE-HUAWEI/Projects/NUCLEO-L496ZG/Applications/Cloud/mqtt-ota/Src\system_stm32l4xx.c **** 
 162:D:/fchai/work/i-cube/I-CUBE-HUAWEI/Projects/NUCLEO-L496ZG/Applications/Cloud/mqtt-ota/Src\system_stm32l4xx.c **** /** @addtogroup STM32L4xx_System_Private_FunctionPrototypes
 163:D:/fchai/work/i-cube/I-CUBE-HUAWEI/Projects/NUCLEO-L496ZG/Applications/Cloud/mqtt-ota/Src\system_stm32l4xx.c ****   * @{
 164:D:/fchai/work/i-cube/I-CUBE-HUAWEI/Projects/NUCLEO-L496ZG/Applications/Cloud/mqtt-ota/Src\system_stm32l4xx.c ****   */
 165:D:/fchai/work/i-cube/I-CUBE-HUAWEI/Projects/NUCLEO-L496ZG/Applications/Cloud/mqtt-ota/Src\system_stm32l4xx.c **** 
 166:D:/fchai/work/i-cube/I-CUBE-HUAWEI/Projects/NUCLEO-L496ZG/Applications/Cloud/mqtt-ota/Src\system_stm32l4xx.c **** /**
 167:D:/fchai/work/i-cube/I-CUBE-HUAWEI/Projects/NUCLEO-L496ZG/Applications/Cloud/mqtt-ota/Src\system_stm32l4xx.c ****   * @}
 168:D:/fchai/work/i-cube/I-CUBE-HUAWEI/Projects/NUCLEO-L496ZG/Applications/Cloud/mqtt-ota/Src\system_stm32l4xx.c ****   */
 169:D:/fchai/work/i-cube/I-CUBE-HUAWEI/Projects/NUCLEO-L496ZG/Applications/Cloud/mqtt-ota/Src\system_stm32l4xx.c **** 
 170:D:/fchai/work/i-cube/I-CUBE-HUAWEI/Projects/NUCLEO-L496ZG/Applications/Cloud/mqtt-ota/Src\system_stm32l4xx.c **** /** @addtogroup STM32L4xx_System_Private_Functions
 171:D:/fchai/work/i-cube/I-CUBE-HUAWEI/Projects/NUCLEO-L496ZG/Applications/Cloud/mqtt-ota/Src\system_stm32l4xx.c ****   * @{
 172:D:/fchai/work/i-cube/I-CUBE-HUAWEI/Projects/NUCLEO-L496ZG/Applications/Cloud/mqtt-ota/Src\system_stm32l4xx.c ****   */
 173:D:/fchai/work/i-cube/I-CUBE-HUAWEI/Projects/NUCLEO-L496ZG/Applications/Cloud/mqtt-ota/Src\system_stm32l4xx.c **** 
 174:D:/fchai/work/i-cube/I-CUBE-HUAWEI/Projects/NUCLEO-L496ZG/Applications/Cloud/mqtt-ota/Src\system_stm32l4xx.c **** /**
 175:D:/fchai/work/i-cube/I-CUBE-HUAWEI/Projects/NUCLEO-L496ZG/Applications/Cloud/mqtt-ota/Src\system_stm32l4xx.c ****   * @brief  Setup the microcontroller system.
 176:D:/fchai/work/i-cube/I-CUBE-HUAWEI/Projects/NUCLEO-L496ZG/Applications/Cloud/mqtt-ota/Src\system_stm32l4xx.c ****   * @param  None
 177:D:/fchai/work/i-cube/I-CUBE-HUAWEI/Projects/NUCLEO-L496ZG/Applications/Cloud/mqtt-ota/Src\system_stm32l4xx.c ****   * @retval None
 178:D:/fchai/work/i-cube/I-CUBE-HUAWEI/Projects/NUCLEO-L496ZG/Applications/Cloud/mqtt-ota/Src\system_stm32l4xx.c ****   */
 179:D:/fchai/work/i-cube/I-CUBE-HUAWEI/Projects/NUCLEO-L496ZG/Applications/Cloud/mqtt-ota/Src\system_stm32l4xx.c **** 
 180:D:/fchai/work/i-cube/I-CUBE-HUAWEI/Projects/NUCLEO-L496ZG/Applications/Cloud/mqtt-ota/Src\system_stm32l4xx.c **** void SystemInit(void)
 181:D:/fchai/work/i-cube/I-CUBE-HUAWEI/Projects/NUCLEO-L496ZG/Applications/Cloud/mqtt-ota/Src\system_stm32l4xx.c **** {
  30              		.loc 1 181 1 view -0
  31              		.cfi_startproc
  32              		@ args = 0, pretend = 0, frame = 0
  33              		@ frame_needed = 0, uses_anonymous_args = 0
  34              		@ link register save eliminated.
 182:D:/fchai/work/i-cube/I-CUBE-HUAWEI/Projects/NUCLEO-L496ZG/Applications/Cloud/mqtt-ota/Src\system_stm32l4xx.c ****   /* FPU settings ------------------------------------------------------------*/
 183:D:/fchai/work/i-cube/I-CUBE-HUAWEI/Projects/NUCLEO-L496ZG/Applications/Cloud/mqtt-ota/Src\system_stm32l4xx.c ****   #if (__FPU_PRESENT == 1) && (__FPU_USED == 1)
 184:D:/fchai/work/i-cube/I-CUBE-HUAWEI/Projects/NUCLEO-L496ZG/Applications/Cloud/mqtt-ota/Src\system_stm32l4xx.c ****     SCB->CPACR |= ((3UL << 10*2)|(3UL << 11*2));  /* set CP10 and CP11 Full Access */
  35              		.loc 1 184 5 view .LVU1
  36              		.loc 1 184 16 is_stmt 0 view .LVU2
  37 0000 1149     		ldr	r1, .L4
 185:D:/fchai/work/i-cube/I-CUBE-HUAWEI/Projects/NUCLEO-L496ZG/Applications/Cloud/mqtt-ota/Src\system_stm32l4xx.c ****   #endif
 186:D:/fchai/work/i-cube/I-CUBE-HUAWEI/Projects/NUCLEO-L496ZG/Applications/Cloud/mqtt-ota/Src\system_stm32l4xx.c **** 
 187:D:/fchai/work/i-cube/I-CUBE-HUAWEI/Projects/NUCLEO-L496ZG/Applications/Cloud/mqtt-ota/Src\system_stm32l4xx.c ****   /* Reset the RCC clock configuration to the default reset state ------------*/
 188:D:/fchai/work/i-cube/I-CUBE-HUAWEI/Projects/NUCLEO-L496ZG/Applications/Cloud/mqtt-ota/Src\system_stm32l4xx.c ****   /* Set MSION bit */
 189:D:/fchai/work/i-cube/I-CUBE-HUAWEI/Projects/NUCLEO-L496ZG/Applications/Cloud/mqtt-ota/Src\system_stm32l4xx.c ****   RCC->CR |= RCC_CR_MSION;
  38              		.loc 1 189 11 view .LVU3
  39 0002 124B     		ldr	r3, .L4+4
 184:D:/fchai/work/i-cube/I-CUBE-HUAWEI/Projects/NUCLEO-L496ZG/Applications/Cloud/mqtt-ota/Src\system_stm32l4xx.c ****   #endif
ARM GAS  T:\msys\tmp\cc0peJlj.s 			page 5


  40              		.loc 1 184 16 view .LVU4
  41 0004 D1F88820 		ldr	r2, [r1, #136]
  42 0008 42F47002 		orr	r2, r2, #15728640
 181:D:/fchai/work/i-cube/I-CUBE-HUAWEI/Projects/NUCLEO-L496ZG/Applications/Cloud/mqtt-ota/Src\system_stm32l4xx.c ****   /* FPU settings ------------------------------------------------------------*/
  43              		.loc 1 181 1 view .LVU5
  44 000c 10B4     		push	{r4}
  45              	.LCFI0:
  46              		.cfi_def_cfa_offset 4
  47              		.cfi_offset 4, -4
 184:D:/fchai/work/i-cube/I-CUBE-HUAWEI/Projects/NUCLEO-L496ZG/Applications/Cloud/mqtt-ota/Src\system_stm32l4xx.c ****   #endif
  48              		.loc 1 184 16 view .LVU6
  49 000e C1F88820 		str	r2, [r1, #136]
  50              		.loc 1 189 3 is_stmt 1 view .LVU7
  51              		.loc 1 189 11 is_stmt 0 view .LVU8
  52 0012 1A68     		ldr	r2, [r3]
 190:D:/fchai/work/i-cube/I-CUBE-HUAWEI/Projects/NUCLEO-L496ZG/Applications/Cloud/mqtt-ota/Src\system_stm32l4xx.c **** 
 191:D:/fchai/work/i-cube/I-CUBE-HUAWEI/Projects/NUCLEO-L496ZG/Applications/Cloud/mqtt-ota/Src\system_stm32l4xx.c ****   /* Reset CFGR register */
 192:D:/fchai/work/i-cube/I-CUBE-HUAWEI/Projects/NUCLEO-L496ZG/Applications/Cloud/mqtt-ota/Src\system_stm32l4xx.c ****   RCC->CFGR = 0x00000000U;
  53              		.loc 1 192 13 view .LVU9
  54 0014 0020     		movs	r0, #0
 189:D:/fchai/work/i-cube/I-CUBE-HUAWEI/Projects/NUCLEO-L496ZG/Applications/Cloud/mqtt-ota/Src\system_stm32l4xx.c **** 
  55              		.loc 1 189 11 view .LVU10
  56 0016 42F00102 		orr	r2, r2, #1
  57 001a 1A60     		str	r2, [r3]
  58              		.loc 1 192 3 is_stmt 1 view .LVU11
  59              		.loc 1 192 13 is_stmt 0 view .LVU12
  60 001c 9860     		str	r0, [r3, #8]
 193:D:/fchai/work/i-cube/I-CUBE-HUAWEI/Projects/NUCLEO-L496ZG/Applications/Cloud/mqtt-ota/Src\system_stm32l4xx.c **** 
 194:D:/fchai/work/i-cube/I-CUBE-HUAWEI/Projects/NUCLEO-L496ZG/Applications/Cloud/mqtt-ota/Src\system_stm32l4xx.c ****   /* Reset HSEON, CSSON , HSION, and PLLON bits */
 195:D:/fchai/work/i-cube/I-CUBE-HUAWEI/Projects/NUCLEO-L496ZG/Applications/Cloud/mqtt-ota/Src\system_stm32l4xx.c ****   RCC->CR &= 0xEAF6FFFFU;
  61              		.loc 1 195 3 is_stmt 1 view .LVU13
  62              		.loc 1 195 11 is_stmt 0 view .LVU14
  63 001e 1A68     		ldr	r2, [r3]
  64 0020 22F0A852 		bic	r2, r2, #352321536
  65 0024 22F41022 		bic	r2, r2, #589824
 196:D:/fchai/work/i-cube/I-CUBE-HUAWEI/Projects/NUCLEO-L496ZG/Applications/Cloud/mqtt-ota/Src\system_stm32l4xx.c **** 
 197:D:/fchai/work/i-cube/I-CUBE-HUAWEI/Projects/NUCLEO-L496ZG/Applications/Cloud/mqtt-ota/Src\system_stm32l4xx.c ****   /* Reset PLLCFGR register */
 198:D:/fchai/work/i-cube/I-CUBE-HUAWEI/Projects/NUCLEO-L496ZG/Applications/Cloud/mqtt-ota/Src\system_stm32l4xx.c ****   RCC->PLLCFGR = 0x00001000U;
  66              		.loc 1 198 16 view .LVU15
  67 0028 4FF48054 		mov	r4, #4096
 195:D:/fchai/work/i-cube/I-CUBE-HUAWEI/Projects/NUCLEO-L496ZG/Applications/Cloud/mqtt-ota/Src\system_stm32l4xx.c **** 
  68              		.loc 1 195 11 view .LVU16
  69 002c 1A60     		str	r2, [r3]
  70              		.loc 1 198 3 is_stmt 1 view .LVU17
  71              		.loc 1 198 16 is_stmt 0 view .LVU18
  72 002e DC60     		str	r4, [r3, #12]
 199:D:/fchai/work/i-cube/I-CUBE-HUAWEI/Projects/NUCLEO-L496ZG/Applications/Cloud/mqtt-ota/Src\system_stm32l4xx.c **** 
 200:D:/fchai/work/i-cube/I-CUBE-HUAWEI/Projects/NUCLEO-L496ZG/Applications/Cloud/mqtt-ota/Src\system_stm32l4xx.c ****   /* Reset HSEBYP bit */
 201:D:/fchai/work/i-cube/I-CUBE-HUAWEI/Projects/NUCLEO-L496ZG/Applications/Cloud/mqtt-ota/Src\system_stm32l4xx.c ****   RCC->CR &= 0xFFFBFFFFU;
  73              		.loc 1 201 3 is_stmt 1 view .LVU19
  74              		.loc 1 201 11 is_stmt 0 view .LVU20
  75 0030 1A68     		ldr	r2, [r3]
 202:D:/fchai/work/i-cube/I-CUBE-HUAWEI/Projects/NUCLEO-L496ZG/Applications/Cloud/mqtt-ota/Src\system_stm32l4xx.c **** 
 203:D:/fchai/work/i-cube/I-CUBE-HUAWEI/Projects/NUCLEO-L496ZG/Applications/Cloud/mqtt-ota/Src\system_stm32l4xx.c ****   /* Disable all interrupts */
 204:D:/fchai/work/i-cube/I-CUBE-HUAWEI/Projects/NUCLEO-L496ZG/Applications/Cloud/mqtt-ota/Src\system_stm32l4xx.c ****   RCC->CIER = 0x00000000U;
 205:D:/fchai/work/i-cube/I-CUBE-HUAWEI/Projects/NUCLEO-L496ZG/Applications/Cloud/mqtt-ota/Src\system_stm32l4xx.c **** 
 206:D:/fchai/work/i-cube/I-CUBE-HUAWEI/Projects/NUCLEO-L496ZG/Applications/Cloud/mqtt-ota/Src\system_stm32l4xx.c ****   /* Configure the Vector Table location add offset address ------------------*/
ARM GAS  T:\msys\tmp\cc0peJlj.s 			page 6


 207:D:/fchai/work/i-cube/I-CUBE-HUAWEI/Projects/NUCLEO-L496ZG/Applications/Cloud/mqtt-ota/Src\system_stm32l4xx.c **** #ifdef VECT_TAB_SRAM
 208:D:/fchai/work/i-cube/I-CUBE-HUAWEI/Projects/NUCLEO-L496ZG/Applications/Cloud/mqtt-ota/Src\system_stm32l4xx.c ****   SCB->VTOR = SRAM_BASE | VECT_TAB_OFFSET; /* Vector Table Relocation in Internal SRAM */
 209:D:/fchai/work/i-cube/I-CUBE-HUAWEI/Projects/NUCLEO-L496ZG/Applications/Cloud/mqtt-ota/Src\system_stm32l4xx.c **** #else
 210:D:/fchai/work/i-cube/I-CUBE-HUAWEI/Projects/NUCLEO-L496ZG/Applications/Cloud/mqtt-ota/Src\system_stm32l4xx.c ****   SCB->VTOR = FLASH_BASE | VECT_TAB_OFFSET; /* Vector Table Relocation in Internal FLASH */
  76              		.loc 1 210 13 view .LVU21
  77 0032 4FF00064 		mov	r4, #134217728
 201:D:/fchai/work/i-cube/I-CUBE-HUAWEI/Projects/NUCLEO-L496ZG/Applications/Cloud/mqtt-ota/Src\system_stm32l4xx.c **** 
  78              		.loc 1 201 11 view .LVU22
  79 0036 22F48022 		bic	r2, r2, #262144
  80 003a 1A60     		str	r2, [r3]
 204:D:/fchai/work/i-cube/I-CUBE-HUAWEI/Projects/NUCLEO-L496ZG/Applications/Cloud/mqtt-ota/Src\system_stm32l4xx.c **** 
  81              		.loc 1 204 3 is_stmt 1 view .LVU23
 204:D:/fchai/work/i-cube/I-CUBE-HUAWEI/Projects/NUCLEO-L496ZG/Applications/Cloud/mqtt-ota/Src\system_stm32l4xx.c **** 
  82              		.loc 1 204 13 is_stmt 0 view .LVU24
  83 003c 9861     		str	r0, [r3, #24]
  84              		.loc 1 210 3 is_stmt 1 view .LVU25
  85              		.loc 1 210 13 is_stmt 0 view .LVU26
  86 003e 8C60     		str	r4, [r1, #8]
 211:D:/fchai/work/i-cube/I-CUBE-HUAWEI/Projects/NUCLEO-L496ZG/Applications/Cloud/mqtt-ota/Src\system_stm32l4xx.c **** #endif
 212:D:/fchai/work/i-cube/I-CUBE-HUAWEI/Projects/NUCLEO-L496ZG/Applications/Cloud/mqtt-ota/Src\system_stm32l4xx.c **** }
  87              		.loc 1 212 1 view .LVU27
  88 0040 5DF8044B 		ldr	r4, [sp], #4
  89              	.LCFI1:
  90              		.cfi_restore 4
  91              		.cfi_def_cfa_offset 0
  92 0044 7047     		bx	lr
  93              	.L5:
  94 0046 00BF     		.align	2
  95              	.L4:
  96 0048 00ED00E0 		.word	-536810240
  97 004c 00100240 		.word	1073876992
  98              		.cfi_endproc
  99              	.LFE123:
 101              		.section	.text.SystemCoreClockUpdate,"ax",%progbits
 102              		.align	1
 103              		.p2align 2,,3
 104              		.global	SystemCoreClockUpdate
 105              		.syntax unified
 106              		.thumb
 107              		.thumb_func
 108              		.fpu fpv4-sp-d16
 110              	SystemCoreClockUpdate:
 111              	.LFB124:
 213:D:/fchai/work/i-cube/I-CUBE-HUAWEI/Projects/NUCLEO-L496ZG/Applications/Cloud/mqtt-ota/Src\system_stm32l4xx.c **** 
 214:D:/fchai/work/i-cube/I-CUBE-HUAWEI/Projects/NUCLEO-L496ZG/Applications/Cloud/mqtt-ota/Src\system_stm32l4xx.c **** /**
 215:D:/fchai/work/i-cube/I-CUBE-HUAWEI/Projects/NUCLEO-L496ZG/Applications/Cloud/mqtt-ota/Src\system_stm32l4xx.c ****   * @brief  Update SystemCoreClock variable according to Clock Register Values.
 216:D:/fchai/work/i-cube/I-CUBE-HUAWEI/Projects/NUCLEO-L496ZG/Applications/Cloud/mqtt-ota/Src\system_stm32l4xx.c ****   *         The SystemCoreClock variable contains the core clock (HCLK), it can
 217:D:/fchai/work/i-cube/I-CUBE-HUAWEI/Projects/NUCLEO-L496ZG/Applications/Cloud/mqtt-ota/Src\system_stm32l4xx.c ****   *         be used by the user application to setup the SysTick timer or configure
 218:D:/fchai/work/i-cube/I-CUBE-HUAWEI/Projects/NUCLEO-L496ZG/Applications/Cloud/mqtt-ota/Src\system_stm32l4xx.c ****   *         other parameters.
 219:D:/fchai/work/i-cube/I-CUBE-HUAWEI/Projects/NUCLEO-L496ZG/Applications/Cloud/mqtt-ota/Src\system_stm32l4xx.c ****   *
 220:D:/fchai/work/i-cube/I-CUBE-HUAWEI/Projects/NUCLEO-L496ZG/Applications/Cloud/mqtt-ota/Src\system_stm32l4xx.c ****   * @note   Each time the core clock (HCLK) changes, this function must be called
 221:D:/fchai/work/i-cube/I-CUBE-HUAWEI/Projects/NUCLEO-L496ZG/Applications/Cloud/mqtt-ota/Src\system_stm32l4xx.c ****   *         to update SystemCoreClock variable value. Otherwise, any configuration
 222:D:/fchai/work/i-cube/I-CUBE-HUAWEI/Projects/NUCLEO-L496ZG/Applications/Cloud/mqtt-ota/Src\system_stm32l4xx.c ****   *         based on this variable will be incorrect.
 223:D:/fchai/work/i-cube/I-CUBE-HUAWEI/Projects/NUCLEO-L496ZG/Applications/Cloud/mqtt-ota/Src\system_stm32l4xx.c ****   *
 224:D:/fchai/work/i-cube/I-CUBE-HUAWEI/Projects/NUCLEO-L496ZG/Applications/Cloud/mqtt-ota/Src\system_stm32l4xx.c ****   * @note   - The system frequency computed by this function is not the real
 225:D:/fchai/work/i-cube/I-CUBE-HUAWEI/Projects/NUCLEO-L496ZG/Applications/Cloud/mqtt-ota/Src\system_stm32l4xx.c ****   *           frequency in the chip. It is calculated based on the predefined
 226:D:/fchai/work/i-cube/I-CUBE-HUAWEI/Projects/NUCLEO-L496ZG/Applications/Cloud/mqtt-ota/Src\system_stm32l4xx.c ****   *           constant and the selected clock source:
ARM GAS  T:\msys\tmp\cc0peJlj.s 			page 7


 227:D:/fchai/work/i-cube/I-CUBE-HUAWEI/Projects/NUCLEO-L496ZG/Applications/Cloud/mqtt-ota/Src\system_stm32l4xx.c ****   *
 228:D:/fchai/work/i-cube/I-CUBE-HUAWEI/Projects/NUCLEO-L496ZG/Applications/Cloud/mqtt-ota/Src\system_stm32l4xx.c ****   *           - If SYSCLK source is MSI, SystemCoreClock will contain the MSI_VALUE(*)
 229:D:/fchai/work/i-cube/I-CUBE-HUAWEI/Projects/NUCLEO-L496ZG/Applications/Cloud/mqtt-ota/Src\system_stm32l4xx.c ****   *
 230:D:/fchai/work/i-cube/I-CUBE-HUAWEI/Projects/NUCLEO-L496ZG/Applications/Cloud/mqtt-ota/Src\system_stm32l4xx.c ****   *           - If SYSCLK source is HSI, SystemCoreClock will contain the HSI_VALUE(**)
 231:D:/fchai/work/i-cube/I-CUBE-HUAWEI/Projects/NUCLEO-L496ZG/Applications/Cloud/mqtt-ota/Src\system_stm32l4xx.c ****   *
 232:D:/fchai/work/i-cube/I-CUBE-HUAWEI/Projects/NUCLEO-L496ZG/Applications/Cloud/mqtt-ota/Src\system_stm32l4xx.c ****   *           - If SYSCLK source is HSE, SystemCoreClock will contain the HSE_VALUE(***)
 233:D:/fchai/work/i-cube/I-CUBE-HUAWEI/Projects/NUCLEO-L496ZG/Applications/Cloud/mqtt-ota/Src\system_stm32l4xx.c ****   *
 234:D:/fchai/work/i-cube/I-CUBE-HUAWEI/Projects/NUCLEO-L496ZG/Applications/Cloud/mqtt-ota/Src\system_stm32l4xx.c ****   *           - If SYSCLK source is PLL, SystemCoreClock will contain the HSE_VALUE(***)
 235:D:/fchai/work/i-cube/I-CUBE-HUAWEI/Projects/NUCLEO-L496ZG/Applications/Cloud/mqtt-ota/Src\system_stm32l4xx.c ****   *             or HSI_VALUE(*) or MSI_VALUE(*) multiplied/divided by the PLL factors.
 236:D:/fchai/work/i-cube/I-CUBE-HUAWEI/Projects/NUCLEO-L496ZG/Applications/Cloud/mqtt-ota/Src\system_stm32l4xx.c ****   *
 237:D:/fchai/work/i-cube/I-CUBE-HUAWEI/Projects/NUCLEO-L496ZG/Applications/Cloud/mqtt-ota/Src\system_stm32l4xx.c ****   *         (*) MSI_VALUE is a constant defined in stm32l4xx_hal.h file (default value
 238:D:/fchai/work/i-cube/I-CUBE-HUAWEI/Projects/NUCLEO-L496ZG/Applications/Cloud/mqtt-ota/Src\system_stm32l4xx.c ****   *             4 MHz) but the real value may vary depending on the variations
 239:D:/fchai/work/i-cube/I-CUBE-HUAWEI/Projects/NUCLEO-L496ZG/Applications/Cloud/mqtt-ota/Src\system_stm32l4xx.c ****   *             in voltage and temperature.
 240:D:/fchai/work/i-cube/I-CUBE-HUAWEI/Projects/NUCLEO-L496ZG/Applications/Cloud/mqtt-ota/Src\system_stm32l4xx.c ****   *
 241:D:/fchai/work/i-cube/I-CUBE-HUAWEI/Projects/NUCLEO-L496ZG/Applications/Cloud/mqtt-ota/Src\system_stm32l4xx.c ****   *         (**) HSI_VALUE is a constant defined in stm32l4xx_hal.h file (default value
 242:D:/fchai/work/i-cube/I-CUBE-HUAWEI/Projects/NUCLEO-L496ZG/Applications/Cloud/mqtt-ota/Src\system_stm32l4xx.c ****   *              16 MHz) but the real value may vary depending on the variations
 243:D:/fchai/work/i-cube/I-CUBE-HUAWEI/Projects/NUCLEO-L496ZG/Applications/Cloud/mqtt-ota/Src\system_stm32l4xx.c ****   *              in voltage and temperature.
 244:D:/fchai/work/i-cube/I-CUBE-HUAWEI/Projects/NUCLEO-L496ZG/Applications/Cloud/mqtt-ota/Src\system_stm32l4xx.c ****   *
 245:D:/fchai/work/i-cube/I-CUBE-HUAWEI/Projects/NUCLEO-L496ZG/Applications/Cloud/mqtt-ota/Src\system_stm32l4xx.c ****   *         (***) HSE_VALUE is a constant defined in stm32l4xx_hal.h file (default value
 246:D:/fchai/work/i-cube/I-CUBE-HUAWEI/Projects/NUCLEO-L496ZG/Applications/Cloud/mqtt-ota/Src\system_stm32l4xx.c ****   *              8 MHz), user has to ensure that HSE_VALUE is same as the real
 247:D:/fchai/work/i-cube/I-CUBE-HUAWEI/Projects/NUCLEO-L496ZG/Applications/Cloud/mqtt-ota/Src\system_stm32l4xx.c ****   *              frequency of the crystal used. Otherwise, this function may
 248:D:/fchai/work/i-cube/I-CUBE-HUAWEI/Projects/NUCLEO-L496ZG/Applications/Cloud/mqtt-ota/Src\system_stm32l4xx.c ****   *              have wrong result.
 249:D:/fchai/work/i-cube/I-CUBE-HUAWEI/Projects/NUCLEO-L496ZG/Applications/Cloud/mqtt-ota/Src\system_stm32l4xx.c ****   *
 250:D:/fchai/work/i-cube/I-CUBE-HUAWEI/Projects/NUCLEO-L496ZG/Applications/Cloud/mqtt-ota/Src\system_stm32l4xx.c ****   *         - The result of this function could be not correct when using fractional
 251:D:/fchai/work/i-cube/I-CUBE-HUAWEI/Projects/NUCLEO-L496ZG/Applications/Cloud/mqtt-ota/Src\system_stm32l4xx.c ****   *           value for HSE crystal.
 252:D:/fchai/work/i-cube/I-CUBE-HUAWEI/Projects/NUCLEO-L496ZG/Applications/Cloud/mqtt-ota/Src\system_stm32l4xx.c ****   *
 253:D:/fchai/work/i-cube/I-CUBE-HUAWEI/Projects/NUCLEO-L496ZG/Applications/Cloud/mqtt-ota/Src\system_stm32l4xx.c ****   * @param  None
 254:D:/fchai/work/i-cube/I-CUBE-HUAWEI/Projects/NUCLEO-L496ZG/Applications/Cloud/mqtt-ota/Src\system_stm32l4xx.c ****   * @retval None
 255:D:/fchai/work/i-cube/I-CUBE-HUAWEI/Projects/NUCLEO-L496ZG/Applications/Cloud/mqtt-ota/Src\system_stm32l4xx.c ****   */
 256:D:/fchai/work/i-cube/I-CUBE-HUAWEI/Projects/NUCLEO-L496ZG/Applications/Cloud/mqtt-ota/Src\system_stm32l4xx.c **** void SystemCoreClockUpdate(void)
 257:D:/fchai/work/i-cube/I-CUBE-HUAWEI/Projects/NUCLEO-L496ZG/Applications/Cloud/mqtt-ota/Src\system_stm32l4xx.c **** {
 112              		.loc 1 257 1 is_stmt 1 view -0
 113              		.cfi_startproc
 114              		@ args = 0, pretend = 0, frame = 0
 115              		@ frame_needed = 0, uses_anonymous_args = 0
 116              		@ link register save eliminated.
 258:D:/fchai/work/i-cube/I-CUBE-HUAWEI/Projects/NUCLEO-L496ZG/Applications/Cloud/mqtt-ota/Src\system_stm32l4xx.c ****   uint32_t tmp = 0U, msirange = 0U, pllvco = 0U, pllr = 2U, pllsource = 0U, pllm = 2U;
 117              		.loc 1 258 3 view .LVU29
 118              	.LVL0:
 259:D:/fchai/work/i-cube/I-CUBE-HUAWEI/Projects/NUCLEO-L496ZG/Applications/Cloud/mqtt-ota/Src\system_stm32l4xx.c **** 
 260:D:/fchai/work/i-cube/I-CUBE-HUAWEI/Projects/NUCLEO-L496ZG/Applications/Cloud/mqtt-ota/Src\system_stm32l4xx.c ****   /* Get MSI Range frequency--------------------------------------------------*/
 261:D:/fchai/work/i-cube/I-CUBE-HUAWEI/Projects/NUCLEO-L496ZG/Applications/Cloud/mqtt-ota/Src\system_stm32l4xx.c ****   if((RCC->CR & RCC_CR_MSIRGSEL) == RESET)
 119              		.loc 1 261 3 view .LVU30
 262:D:/fchai/work/i-cube/I-CUBE-HUAWEI/Projects/NUCLEO-L496ZG/Applications/Cloud/mqtt-ota/Src\system_stm32l4xx.c ****   { /* MSISRANGE from RCC_CSR applies */
 263:D:/fchai/work/i-cube/I-CUBE-HUAWEI/Projects/NUCLEO-L496ZG/Applications/Cloud/mqtt-ota/Src\system_stm32l4xx.c ****     msirange = (RCC->CSR & RCC_CSR_MSISRANGE) >> 8U;
 120              		.loc 1 263 5 view .LVU31
 261:D:/fchai/work/i-cube/I-CUBE-HUAWEI/Projects/NUCLEO-L496ZG/Applications/Cloud/mqtt-ota/Src\system_stm32l4xx.c ****   { /* MSISRANGE from RCC_CSR applies */
 121              		.loc 1 261 10 is_stmt 0 view .LVU32
 122 0000 254B     		ldr	r3, .L18
 264:D:/fchai/work/i-cube/I-CUBE-HUAWEI/Projects/NUCLEO-L496ZG/Applications/Cloud/mqtt-ota/Src\system_stm32l4xx.c ****   }
 265:D:/fchai/work/i-cube/I-CUBE-HUAWEI/Projects/NUCLEO-L496ZG/Applications/Cloud/mqtt-ota/Src\system_stm32l4xx.c ****   else
 266:D:/fchai/work/i-cube/I-CUBE-HUAWEI/Projects/NUCLEO-L496ZG/Applications/Cloud/mqtt-ota/Src\system_stm32l4xx.c ****   { /* MSIRANGE from RCC_CR applies */
 267:D:/fchai/work/i-cube/I-CUBE-HUAWEI/Projects/NUCLEO-L496ZG/Applications/Cloud/mqtt-ota/Src\system_stm32l4xx.c ****     msirange = (RCC->CR & RCC_CR_MSIRANGE) >> 4U;
 268:D:/fchai/work/i-cube/I-CUBE-HUAWEI/Projects/NUCLEO-L496ZG/Applications/Cloud/mqtt-ota/Src\system_stm32l4xx.c ****   }
 269:D:/fchai/work/i-cube/I-CUBE-HUAWEI/Projects/NUCLEO-L496ZG/Applications/Cloud/mqtt-ota/Src\system_stm32l4xx.c ****   /*MSI frequency range in HZ*/
 270:D:/fchai/work/i-cube/I-CUBE-HUAWEI/Projects/NUCLEO-L496ZG/Applications/Cloud/mqtt-ota/Src\system_stm32l4xx.c ****   msirange = MSIRangeTable[msirange];
 271:D:/fchai/work/i-cube/I-CUBE-HUAWEI/Projects/NUCLEO-L496ZG/Applications/Cloud/mqtt-ota/Src\system_stm32l4xx.c **** 
ARM GAS  T:\msys\tmp\cc0peJlj.s 			page 8


 272:D:/fchai/work/i-cube/I-CUBE-HUAWEI/Projects/NUCLEO-L496ZG/Applications/Cloud/mqtt-ota/Src\system_stm32l4xx.c ****   /* Get SYSCLK source -------------------------------------------------------*/
 273:D:/fchai/work/i-cube/I-CUBE-HUAWEI/Projects/NUCLEO-L496ZG/Applications/Cloud/mqtt-ota/Src\system_stm32l4xx.c ****   switch (RCC->CFGR & RCC_CFGR_SWS)
 123              		.loc 1 273 14 view .LVU33
 124 0002 2549     		ldr	r1, .L18
 261:D:/fchai/work/i-cube/I-CUBE-HUAWEI/Projects/NUCLEO-L496ZG/Applications/Cloud/mqtt-ota/Src\system_stm32l4xx.c ****   { /* MSISRANGE from RCC_CSR applies */
 125              		.loc 1 261 10 view .LVU34
 126 0004 1A68     		ldr	r2, [r3]
 270:D:/fchai/work/i-cube/I-CUBE-HUAWEI/Projects/NUCLEO-L496ZG/Applications/Cloud/mqtt-ota/Src\system_stm32l4xx.c **** 
 127              		.loc 1 270 12 view .LVU35
 128 0006 2548     		ldr	r0, .L18+4
 261:D:/fchai/work/i-cube/I-CUBE-HUAWEI/Projects/NUCLEO-L496ZG/Applications/Cloud/mqtt-ota/Src\system_stm32l4xx.c ****   { /* MSISRANGE from RCC_CSR applies */
 129              		.loc 1 261 5 view .LVU36
 130 0008 1207     		lsls	r2, r2, #28
 263:D:/fchai/work/i-cube/I-CUBE-HUAWEI/Projects/NUCLEO-L496ZG/Applications/Cloud/mqtt-ota/Src\system_stm32l4xx.c ****   }
 131              		.loc 1 263 20 view .LVU37
 132 000a 54BF     		ite	pl
 133 000c D3F89430 		ldrpl	r3, [r3, #148]
 267:D:/fchai/work/i-cube/I-CUBE-HUAWEI/Projects/NUCLEO-L496ZG/Applications/Cloud/mqtt-ota/Src\system_stm32l4xx.c ****   }
 134              		.loc 1 267 20 view .LVU38
 135 0010 1B68     		ldrmi	r3, [r3]
 136              		.loc 1 273 14 view .LVU39
 137 0012 8A68     		ldr	r2, [r1, #8]
 263:D:/fchai/work/i-cube/I-CUBE-HUAWEI/Projects/NUCLEO-L496ZG/Applications/Cloud/mqtt-ota/Src\system_stm32l4xx.c ****   }
 138              		.loc 1 263 14 view .LVU40
 139 0014 54BF     		ite	pl
 140 0016 C3F30323 		ubfxpl	r3, r3, #8, #4
 141              	.LVL1:
 267:D:/fchai/work/i-cube/I-CUBE-HUAWEI/Projects/NUCLEO-L496ZG/Applications/Cloud/mqtt-ota/Src\system_stm32l4xx.c ****   }
 142              		.loc 1 267 5 is_stmt 1 view .LVU41
 267:D:/fchai/work/i-cube/I-CUBE-HUAWEI/Projects/NUCLEO-L496ZG/Applications/Cloud/mqtt-ota/Src\system_stm32l4xx.c ****   }
 143              		.loc 1 267 14 is_stmt 0 view .LVU42
 144 001a C3F30313 		ubfxmi	r3, r3, #4, #4
 145              	.LVL2:
 270:D:/fchai/work/i-cube/I-CUBE-HUAWEI/Projects/NUCLEO-L496ZG/Applications/Cloud/mqtt-ota/Src\system_stm32l4xx.c **** 
 146              		.loc 1 270 3 is_stmt 1 view .LVU43
 147              		.loc 1 273 21 is_stmt 0 view .LVU44
 148 001e 02F00C02 		and	r2, r2, #12
 149              		.loc 1 273 3 view .LVU45
 150 0022 082A     		cmp	r2, #8
 270:D:/fchai/work/i-cube/I-CUBE-HUAWEI/Projects/NUCLEO-L496ZG/Applications/Cloud/mqtt-ota/Src\system_stm32l4xx.c **** 
 151              		.loc 1 270 12 view .LVU46
 152 0024 50F82330 		ldr	r3, [r0, r3, lsl #2]
 153              	.LVL3:
 154              		.loc 1 273 3 is_stmt 1 view .LVU47
 155 0028 0FD0     		beq	.L15
 156 002a 0C2A     		cmp	r2, #12
 157 002c 0FD0     		beq	.L10
 158 002e 1C49     		ldr	r1, .L18+8
 159 0030 042A     		cmp	r2, #4
 160 0032 08BF     		it	eq
 161 0034 0B46     		moveq	r3, r1
 162              	.LVL4:
 163              	.L9:
 274:D:/fchai/work/i-cube/I-CUBE-HUAWEI/Projects/NUCLEO-L496ZG/Applications/Cloud/mqtt-ota/Src\system_stm32l4xx.c ****   {
 275:D:/fchai/work/i-cube/I-CUBE-HUAWEI/Projects/NUCLEO-L496ZG/Applications/Cloud/mqtt-ota/Src\system_stm32l4xx.c ****     case 0x00:  /* MSI used as system clock source */
 276:D:/fchai/work/i-cube/I-CUBE-HUAWEI/Projects/NUCLEO-L496ZG/Applications/Cloud/mqtt-ota/Src\system_stm32l4xx.c ****       SystemCoreClock = msirange;
 277:D:/fchai/work/i-cube/I-CUBE-HUAWEI/Projects/NUCLEO-L496ZG/Applications/Cloud/mqtt-ota/Src\system_stm32l4xx.c ****       break;
ARM GAS  T:\msys\tmp\cc0peJlj.s 			page 9


 278:D:/fchai/work/i-cube/I-CUBE-HUAWEI/Projects/NUCLEO-L496ZG/Applications/Cloud/mqtt-ota/Src\system_stm32l4xx.c **** 
 279:D:/fchai/work/i-cube/I-CUBE-HUAWEI/Projects/NUCLEO-L496ZG/Applications/Cloud/mqtt-ota/Src\system_stm32l4xx.c ****     case 0x04:  /* HSI used as system clock source */
 280:D:/fchai/work/i-cube/I-CUBE-HUAWEI/Projects/NUCLEO-L496ZG/Applications/Cloud/mqtt-ota/Src\system_stm32l4xx.c ****       SystemCoreClock = HSI_VALUE;
 281:D:/fchai/work/i-cube/I-CUBE-HUAWEI/Projects/NUCLEO-L496ZG/Applications/Cloud/mqtt-ota/Src\system_stm32l4xx.c ****       break;
 282:D:/fchai/work/i-cube/I-CUBE-HUAWEI/Projects/NUCLEO-L496ZG/Applications/Cloud/mqtt-ota/Src\system_stm32l4xx.c **** 
 283:D:/fchai/work/i-cube/I-CUBE-HUAWEI/Projects/NUCLEO-L496ZG/Applications/Cloud/mqtt-ota/Src\system_stm32l4xx.c ****     case 0x08:  /* HSE used as system clock source */
 284:D:/fchai/work/i-cube/I-CUBE-HUAWEI/Projects/NUCLEO-L496ZG/Applications/Cloud/mqtt-ota/Src\system_stm32l4xx.c ****       SystemCoreClock = HSE_VALUE;
 285:D:/fchai/work/i-cube/I-CUBE-HUAWEI/Projects/NUCLEO-L496ZG/Applications/Cloud/mqtt-ota/Src\system_stm32l4xx.c ****       break;
 286:D:/fchai/work/i-cube/I-CUBE-HUAWEI/Projects/NUCLEO-L496ZG/Applications/Cloud/mqtt-ota/Src\system_stm32l4xx.c **** 
 287:D:/fchai/work/i-cube/I-CUBE-HUAWEI/Projects/NUCLEO-L496ZG/Applications/Cloud/mqtt-ota/Src\system_stm32l4xx.c ****     case 0x0C:  /* PLL used as system clock  source */
 288:D:/fchai/work/i-cube/I-CUBE-HUAWEI/Projects/NUCLEO-L496ZG/Applications/Cloud/mqtt-ota/Src\system_stm32l4xx.c ****       /* PLL_VCO = (HSE_VALUE or HSI_VALUE or MSI_VALUE/ PLLM) * PLLN
 289:D:/fchai/work/i-cube/I-CUBE-HUAWEI/Projects/NUCLEO-L496ZG/Applications/Cloud/mqtt-ota/Src\system_stm32l4xx.c ****          SYSCLK = PLL_VCO / PLLR
 290:D:/fchai/work/i-cube/I-CUBE-HUAWEI/Projects/NUCLEO-L496ZG/Applications/Cloud/mqtt-ota/Src\system_stm32l4xx.c ****          */
 291:D:/fchai/work/i-cube/I-CUBE-HUAWEI/Projects/NUCLEO-L496ZG/Applications/Cloud/mqtt-ota/Src\system_stm32l4xx.c ****       pllsource = (RCC->PLLCFGR & RCC_PLLCFGR_PLLSRC);
 292:D:/fchai/work/i-cube/I-CUBE-HUAWEI/Projects/NUCLEO-L496ZG/Applications/Cloud/mqtt-ota/Src\system_stm32l4xx.c ****       pllm = ((RCC->PLLCFGR & RCC_PLLCFGR_PLLM) >> 4U) + 1U ;
 293:D:/fchai/work/i-cube/I-CUBE-HUAWEI/Projects/NUCLEO-L496ZG/Applications/Cloud/mqtt-ota/Src\system_stm32l4xx.c **** 
 294:D:/fchai/work/i-cube/I-CUBE-HUAWEI/Projects/NUCLEO-L496ZG/Applications/Cloud/mqtt-ota/Src\system_stm32l4xx.c ****       switch (pllsource)
 295:D:/fchai/work/i-cube/I-CUBE-HUAWEI/Projects/NUCLEO-L496ZG/Applications/Cloud/mqtt-ota/Src\system_stm32l4xx.c ****       {
 296:D:/fchai/work/i-cube/I-CUBE-HUAWEI/Projects/NUCLEO-L496ZG/Applications/Cloud/mqtt-ota/Src\system_stm32l4xx.c ****         case 0x02:  /* HSI used as PLL clock source */
 297:D:/fchai/work/i-cube/I-CUBE-HUAWEI/Projects/NUCLEO-L496ZG/Applications/Cloud/mqtt-ota/Src\system_stm32l4xx.c ****           pllvco = (HSI_VALUE / pllm);
 298:D:/fchai/work/i-cube/I-CUBE-HUAWEI/Projects/NUCLEO-L496ZG/Applications/Cloud/mqtt-ota/Src\system_stm32l4xx.c ****           break;
 299:D:/fchai/work/i-cube/I-CUBE-HUAWEI/Projects/NUCLEO-L496ZG/Applications/Cloud/mqtt-ota/Src\system_stm32l4xx.c **** 
 300:D:/fchai/work/i-cube/I-CUBE-HUAWEI/Projects/NUCLEO-L496ZG/Applications/Cloud/mqtt-ota/Src\system_stm32l4xx.c ****         case 0x03:  /* HSE used as PLL clock source */
 301:D:/fchai/work/i-cube/I-CUBE-HUAWEI/Projects/NUCLEO-L496ZG/Applications/Cloud/mqtt-ota/Src\system_stm32l4xx.c ****           pllvco = (HSE_VALUE / pllm);
 302:D:/fchai/work/i-cube/I-CUBE-HUAWEI/Projects/NUCLEO-L496ZG/Applications/Cloud/mqtt-ota/Src\system_stm32l4xx.c ****           break;
 303:D:/fchai/work/i-cube/I-CUBE-HUAWEI/Projects/NUCLEO-L496ZG/Applications/Cloud/mqtt-ota/Src\system_stm32l4xx.c **** 
 304:D:/fchai/work/i-cube/I-CUBE-HUAWEI/Projects/NUCLEO-L496ZG/Applications/Cloud/mqtt-ota/Src\system_stm32l4xx.c ****         default:    /* MSI used as PLL clock source */
 305:D:/fchai/work/i-cube/I-CUBE-HUAWEI/Projects/NUCLEO-L496ZG/Applications/Cloud/mqtt-ota/Src\system_stm32l4xx.c ****           pllvco = (msirange / pllm);
 306:D:/fchai/work/i-cube/I-CUBE-HUAWEI/Projects/NUCLEO-L496ZG/Applications/Cloud/mqtt-ota/Src\system_stm32l4xx.c ****           break;
 307:D:/fchai/work/i-cube/I-CUBE-HUAWEI/Projects/NUCLEO-L496ZG/Applications/Cloud/mqtt-ota/Src\system_stm32l4xx.c ****       }
 308:D:/fchai/work/i-cube/I-CUBE-HUAWEI/Projects/NUCLEO-L496ZG/Applications/Cloud/mqtt-ota/Src\system_stm32l4xx.c ****       pllvco = pllvco * ((RCC->PLLCFGR & RCC_PLLCFGR_PLLN) >> 8U);
 309:D:/fchai/work/i-cube/I-CUBE-HUAWEI/Projects/NUCLEO-L496ZG/Applications/Cloud/mqtt-ota/Src\system_stm32l4xx.c ****       pllr = (((RCC->PLLCFGR & RCC_PLLCFGR_PLLR) >> 25U) + 1U) * 2U;
 310:D:/fchai/work/i-cube/I-CUBE-HUAWEI/Projects/NUCLEO-L496ZG/Applications/Cloud/mqtt-ota/Src\system_stm32l4xx.c ****       SystemCoreClock = pllvco/pllr;
 311:D:/fchai/work/i-cube/I-CUBE-HUAWEI/Projects/NUCLEO-L496ZG/Applications/Cloud/mqtt-ota/Src\system_stm32l4xx.c ****       break;
 312:D:/fchai/work/i-cube/I-CUBE-HUAWEI/Projects/NUCLEO-L496ZG/Applications/Cloud/mqtt-ota/Src\system_stm32l4xx.c **** 
 313:D:/fchai/work/i-cube/I-CUBE-HUAWEI/Projects/NUCLEO-L496ZG/Applications/Cloud/mqtt-ota/Src\system_stm32l4xx.c ****     default:
 314:D:/fchai/work/i-cube/I-CUBE-HUAWEI/Projects/NUCLEO-L496ZG/Applications/Cloud/mqtt-ota/Src\system_stm32l4xx.c ****       SystemCoreClock = msirange;
 315:D:/fchai/work/i-cube/I-CUBE-HUAWEI/Projects/NUCLEO-L496ZG/Applications/Cloud/mqtt-ota/Src\system_stm32l4xx.c ****       break;
 316:D:/fchai/work/i-cube/I-CUBE-HUAWEI/Projects/NUCLEO-L496ZG/Applications/Cloud/mqtt-ota/Src\system_stm32l4xx.c ****   }
 317:D:/fchai/work/i-cube/I-CUBE-HUAWEI/Projects/NUCLEO-L496ZG/Applications/Cloud/mqtt-ota/Src\system_stm32l4xx.c ****   /* Compute HCLK clock frequency --------------------------------------------*/
 318:D:/fchai/work/i-cube/I-CUBE-HUAWEI/Projects/NUCLEO-L496ZG/Applications/Cloud/mqtt-ota/Src\system_stm32l4xx.c ****   /* Get HCLK prescaler */
 319:D:/fchai/work/i-cube/I-CUBE-HUAWEI/Projects/NUCLEO-L496ZG/Applications/Cloud/mqtt-ota/Src\system_stm32l4xx.c ****   tmp = AHBPrescTable[((RCC->CFGR & RCC_CFGR_HPRE) >> 4U)];
 164              		.loc 1 319 3 view .LVU48
 165              		.loc 1 319 28 is_stmt 0 view .LVU49
 166 0036 184A     		ldr	r2, .L18
 167              		.loc 1 319 22 view .LVU50
 168 0038 1A48     		ldr	r0, .L18+12
 169              		.loc 1 319 28 view .LVU51
 170 003a 9268     		ldr	r2, [r2, #8]
 171              	.LVL5:
 320:D:/fchai/work/i-cube/I-CUBE-HUAWEI/Projects/NUCLEO-L496ZG/Applications/Cloud/mqtt-ota/Src\system_stm32l4xx.c ****   /* HCLK clock frequency */
 321:D:/fchai/work/i-cube/I-CUBE-HUAWEI/Projects/NUCLEO-L496ZG/Applications/Cloud/mqtt-ota/Src\system_stm32l4xx.c ****   SystemCoreClock >>= tmp;
 172              		.loc 1 321 3 is_stmt 1 view .LVU52
 173              		.loc 1 321 19 is_stmt 0 view .LVU53
 174 003c 1A49     		ldr	r1, .L18+16
 319:D:/fchai/work/i-cube/I-CUBE-HUAWEI/Projects/NUCLEO-L496ZG/Applications/Cloud/mqtt-ota/Src\system_stm32l4xx.c ****   /* HCLK clock frequency */
 175              		.loc 1 319 52 view .LVU54
ARM GAS  T:\msys\tmp\cc0peJlj.s 			page 10


 176 003e C2F30312 		ubfx	r2, r2, #4, #4
 177              	.LVL6:
 319:D:/fchai/work/i-cube/I-CUBE-HUAWEI/Projects/NUCLEO-L496ZG/Applications/Cloud/mqtt-ota/Src\system_stm32l4xx.c ****   /* HCLK clock frequency */
 178              		.loc 1 319 7 view .LVU55
 179 0042 825C     		ldrb	r2, [r0, r2]	@ zero_extendqisi2
 180              		.loc 1 321 19 view .LVU56
 181 0044 D340     		lsrs	r3, r3, r2
 182 0046 0B60     		str	r3, [r1]
 322:D:/fchai/work/i-cube/I-CUBE-HUAWEI/Projects/NUCLEO-L496ZG/Applications/Cloud/mqtt-ota/Src\system_stm32l4xx.c **** }
 183              		.loc 1 322 1 view .LVU57
 184 0048 7047     		bx	lr
 185              	.LVL7:
 186              	.L15:
 273:D:/fchai/work/i-cube/I-CUBE-HUAWEI/Projects/NUCLEO-L496ZG/Applications/Cloud/mqtt-ota/Src\system_stm32l4xx.c ****   {
 187              		.loc 1 273 3 view .LVU58
 188 004a 184B     		ldr	r3, .L18+20
 189              	.LVL8:
 273:D:/fchai/work/i-cube/I-CUBE-HUAWEI/Projects/NUCLEO-L496ZG/Applications/Cloud/mqtt-ota/Src\system_stm32l4xx.c ****   {
 190              		.loc 1 273 3 view .LVU59
 191 004c F3E7     		b	.L9
 192              	.LVL9:
 193              	.L10:
 291:D:/fchai/work/i-cube/I-CUBE-HUAWEI/Projects/NUCLEO-L496ZG/Applications/Cloud/mqtt-ota/Src\system_stm32l4xx.c ****       pllm = ((RCC->PLLCFGR & RCC_PLLCFGR_PLLM) >> 4U) + 1U ;
 194              		.loc 1 291 7 is_stmt 1 view .LVU60
 291:D:/fchai/work/i-cube/I-CUBE-HUAWEI/Projects/NUCLEO-L496ZG/Applications/Cloud/mqtt-ota/Src\system_stm32l4xx.c ****       pllm = ((RCC->PLLCFGR & RCC_PLLCFGR_PLLM) >> 4U) + 1U ;
 195              		.loc 1 291 23 is_stmt 0 view .LVU61
 196 004e C868     		ldr	r0, [r1, #12]
 292:D:/fchai/work/i-cube/I-CUBE-HUAWEI/Projects/NUCLEO-L496ZG/Applications/Cloud/mqtt-ota/Src\system_stm32l4xx.c **** 
 197              		.loc 1 292 19 view .LVU62
 198 0050 CA68     		ldr	r2, [r1, #12]
 291:D:/fchai/work/i-cube/I-CUBE-HUAWEI/Projects/NUCLEO-L496ZG/Applications/Cloud/mqtt-ota/Src\system_stm32l4xx.c ****       pllm = ((RCC->PLLCFGR & RCC_PLLCFGR_PLLM) >> 4U) + 1U ;
 199              		.loc 1 291 17 view .LVU63
 200 0052 00F00301 		and	r1, r0, #3
 201              	.LVL10:
 292:D:/fchai/work/i-cube/I-CUBE-HUAWEI/Projects/NUCLEO-L496ZG/Applications/Cloud/mqtt-ota/Src\system_stm32l4xx.c **** 
 202              		.loc 1 292 7 is_stmt 1 view .LVU64
 292:D:/fchai/work/i-cube/I-CUBE-HUAWEI/Projects/NUCLEO-L496ZG/Applications/Cloud/mqtt-ota/Src\system_stm32l4xx.c **** 
 203              		.loc 1 292 49 is_stmt 0 view .LVU65
 204 0056 C2F30212 		ubfx	r2, r2, #4, #3
 205 005a 0229     		cmp	r1, #2
 292:D:/fchai/work/i-cube/I-CUBE-HUAWEI/Projects/NUCLEO-L496ZG/Applications/Cloud/mqtt-ota/Src\system_stm32l4xx.c **** 
 206              		.loc 1 292 12 view .LVU66
 207 005c 02F10102 		add	r2, r2, #1
 208              	.LVL11:
 294:D:/fchai/work/i-cube/I-CUBE-HUAWEI/Projects/NUCLEO-L496ZG/Applications/Cloud/mqtt-ota/Src\system_stm32l4xx.c ****       {
 209              		.loc 1 294 7 is_stmt 1 view .LVU67
 210 0060 15D0     		beq	.L11
 211 0062 0329     		cmp	r1, #3
 212 0064 10D1     		bne	.L17
 301:D:/fchai/work/i-cube/I-CUBE-HUAWEI/Projects/NUCLEO-L496ZG/Applications/Cloud/mqtt-ota/Src\system_stm32l4xx.c ****           break;
 213              		.loc 1 301 11 view .LVU68
 301:D:/fchai/work/i-cube/I-CUBE-HUAWEI/Projects/NUCLEO-L496ZG/Applications/Cloud/mqtt-ota/Src\system_stm32l4xx.c ****           break;
 214              		.loc 1 301 18 is_stmt 0 view .LVU69
 215 0066 114B     		ldr	r3, .L18+20
 216              	.LVL12:
 301:D:/fchai/work/i-cube/I-CUBE-HUAWEI/Projects/NUCLEO-L496ZG/Applications/Cloud/mqtt-ota/Src\system_stm32l4xx.c ****           break;
 217              		.loc 1 301 18 view .LVU70
ARM GAS  T:\msys\tmp\cc0peJlj.s 			page 11


 218 0068 B3FBF2F3 		udiv	r3, r3, r2
 219              	.LVL13:
 302:D:/fchai/work/i-cube/I-CUBE-HUAWEI/Projects/NUCLEO-L496ZG/Applications/Cloud/mqtt-ota/Src\system_stm32l4xx.c **** 
 220              		.loc 1 302 11 is_stmt 1 view .LVU71
 221              	.L14:
 308:D:/fchai/work/i-cube/I-CUBE-HUAWEI/Projects/NUCLEO-L496ZG/Applications/Cloud/mqtt-ota/Src\system_stm32l4xx.c ****       pllr = (((RCC->PLLCFGR & RCC_PLLCFGR_PLLR) >> 25U) + 1U) * 2U;
 222              		.loc 1 308 7 view .LVU72
 308:D:/fchai/work/i-cube/I-CUBE-HUAWEI/Projects/NUCLEO-L496ZG/Applications/Cloud/mqtt-ota/Src\system_stm32l4xx.c ****       pllr = (((RCC->PLLCFGR & RCC_PLLCFGR_PLLR) >> 25U) + 1U) * 2U;
 223              		.loc 1 308 30 is_stmt 0 view .LVU73
 224 006c 0A4A     		ldr	r2, .L18
 225              	.LVL14:
 308:D:/fchai/work/i-cube/I-CUBE-HUAWEI/Projects/NUCLEO-L496ZG/Applications/Cloud/mqtt-ota/Src\system_stm32l4xx.c ****       pllr = (((RCC->PLLCFGR & RCC_PLLCFGR_PLLR) >> 25U) + 1U) * 2U;
 226              		.loc 1 308 30 view .LVU74
 227 006e D168     		ldr	r1, [r2, #12]
 228              	.LVL15:
 309:D:/fchai/work/i-cube/I-CUBE-HUAWEI/Projects/NUCLEO-L496ZG/Applications/Cloud/mqtt-ota/Src\system_stm32l4xx.c ****       SystemCoreClock = pllvco/pllr;
 229              		.loc 1 309 7 is_stmt 1 view .LVU75
 309:D:/fchai/work/i-cube/I-CUBE-HUAWEI/Projects/NUCLEO-L496ZG/Applications/Cloud/mqtt-ota/Src\system_stm32l4xx.c ****       SystemCoreClock = pllvco/pllr;
 230              		.loc 1 309 20 is_stmt 0 view .LVU76
 231 0070 D268     		ldr	r2, [r2, #12]
 232              	.LVL16:
 310:D:/fchai/work/i-cube/I-CUBE-HUAWEI/Projects/NUCLEO-L496ZG/Applications/Cloud/mqtt-ota/Src\system_stm32l4xx.c ****       break;
 233              		.loc 1 310 7 is_stmt 1 view .LVU77
 309:D:/fchai/work/i-cube/I-CUBE-HUAWEI/Projects/NUCLEO-L496ZG/Applications/Cloud/mqtt-ota/Src\system_stm32l4xx.c ****       SystemCoreClock = pllvco/pllr;
 234              		.loc 1 309 50 is_stmt 0 view .LVU78
 235 0072 C2F34162 		ubfx	r2, r2, #25, #2
 236              	.LVL17:
 309:D:/fchai/work/i-cube/I-CUBE-HUAWEI/Projects/NUCLEO-L496ZG/Applications/Cloud/mqtt-ota/Src\system_stm32l4xx.c ****       SystemCoreClock = pllvco/pllr;
 237              		.loc 1 309 58 view .LVU79
 238 0076 0132     		adds	r2, r2, #1
 308:D:/fchai/work/i-cube/I-CUBE-HUAWEI/Projects/NUCLEO-L496ZG/Applications/Cloud/mqtt-ota/Src\system_stm32l4xx.c ****       pllr = (((RCC->PLLCFGR & RCC_PLLCFGR_PLLR) >> 25U) + 1U) * 2U;
 239              		.loc 1 308 60 view .LVU80
 240 0078 C1F30621 		ubfx	r1, r1, #8, #7
 241              	.LVL18:
 309:D:/fchai/work/i-cube/I-CUBE-HUAWEI/Projects/NUCLEO-L496ZG/Applications/Cloud/mqtt-ota/Src\system_stm32l4xx.c ****       SystemCoreClock = pllvco/pllr;
 242              		.loc 1 309 12 view .LVU81
 243 007c 5200     		lsls	r2, r2, #1
 308:D:/fchai/work/i-cube/I-CUBE-HUAWEI/Projects/NUCLEO-L496ZG/Applications/Cloud/mqtt-ota/Src\system_stm32l4xx.c ****       pllr = (((RCC->PLLCFGR & RCC_PLLCFGR_PLLR) >> 25U) + 1U) * 2U;
 244              		.loc 1 308 14 view .LVU82
 245 007e 03FB01F3 		mul	r3, r3, r1
 310:D:/fchai/work/i-cube/I-CUBE-HUAWEI/Projects/NUCLEO-L496ZG/Applications/Cloud/mqtt-ota/Src\system_stm32l4xx.c ****       break;
 246              		.loc 1 310 31 view .LVU83
 247 0082 B3FBF2F3 		udiv	r3, r3, r2
 311:D:/fchai/work/i-cube/I-CUBE-HUAWEI/Projects/NUCLEO-L496ZG/Applications/Cloud/mqtt-ota/Src\system_stm32l4xx.c **** 
 248              		.loc 1 311 7 is_stmt 1 view .LVU84
 249 0086 D6E7     		b	.L9
 250              	.LVL19:
 251              	.L17:
 305:D:/fchai/work/i-cube/I-CUBE-HUAWEI/Projects/NUCLEO-L496ZG/Applications/Cloud/mqtt-ota/Src\system_stm32l4xx.c ****           break;
 252              		.loc 1 305 11 view .LVU85
 305:D:/fchai/work/i-cube/I-CUBE-HUAWEI/Projects/NUCLEO-L496ZG/Applications/Cloud/mqtt-ota/Src\system_stm32l4xx.c ****           break;
 253              		.loc 1 305 18 is_stmt 0 view .LVU86
 254 0088 B3FBF2F3 		udiv	r3, r3, r2
 255              	.LVL20:
 306:D:/fchai/work/i-cube/I-CUBE-HUAWEI/Projects/NUCLEO-L496ZG/Applications/Cloud/mqtt-ota/Src\system_stm32l4xx.c ****       }
 256              		.loc 1 306 11 is_stmt 1 view .LVU87
 257 008c EEE7     		b	.L14
ARM GAS  T:\msys\tmp\cc0peJlj.s 			page 12


 258              	.LVL21:
 259              	.L11:
 297:D:/fchai/work/i-cube/I-CUBE-HUAWEI/Projects/NUCLEO-L496ZG/Applications/Cloud/mqtt-ota/Src\system_stm32l4xx.c ****           break;
 260              		.loc 1 297 11 view .LVU88
 297:D:/fchai/work/i-cube/I-CUBE-HUAWEI/Projects/NUCLEO-L496ZG/Applications/Cloud/mqtt-ota/Src\system_stm32l4xx.c ****           break;
 261              		.loc 1 297 18 is_stmt 0 view .LVU89
 262 008e 044B     		ldr	r3, .L18+8
 263              	.LVL22:
 297:D:/fchai/work/i-cube/I-CUBE-HUAWEI/Projects/NUCLEO-L496ZG/Applications/Cloud/mqtt-ota/Src\system_stm32l4xx.c ****           break;
 264              		.loc 1 297 18 view .LVU90
 265 0090 B3FBF2F3 		udiv	r3, r3, r2
 266              	.LVL23:
 298:D:/fchai/work/i-cube/I-CUBE-HUAWEI/Projects/NUCLEO-L496ZG/Applications/Cloud/mqtt-ota/Src\system_stm32l4xx.c **** 
 267              		.loc 1 298 11 is_stmt 1 view .LVU91
 268 0094 EAE7     		b	.L14
 269              	.L19:
 270 0096 00BF     		.align	2
 271              	.L18:
 272 0098 00100240 		.word	1073876992
 273 009c 00000000 		.word	.LANCHOR0
 274 00a0 0024F400 		.word	16000000
 275 00a4 00000000 		.word	.LANCHOR2
 276 00a8 00000000 		.word	.LANCHOR1
 277 00ac 00127A00 		.word	8000000
 278              		.cfi_endproc
 279              	.LFE124:
 281              		.global	MSIRangeTable
 282              		.global	APBPrescTable
 283              		.global	AHBPrescTable
 284              		.global	SystemCoreClock
 285              		.section	.data.SystemCoreClock,"aw"
 286              		.align	2
 287              		.set	.LANCHOR1,. + 0
 290              	SystemCoreClock:
 291 0000 00093D00 		.word	4000000
 292              		.section	.rodata.AHBPrescTable,"a"
 293              		.align	2
 294              		.set	.LANCHOR2,. + 0
 297              	AHBPrescTable:
 298 0000 00000000 		.ascii	"\000\000\000\000\000\000\000\000\001\002\003\004\006"
 298      00000000 
 298      01020304 
 298      06
 299 000d 070809   		.ascii	"\007\010\011"
 300              		.section	.rodata.APBPrescTable,"a"
 301              		.align	2
 304              	APBPrescTable:
 305 0000 00000000 		.ascii	"\000\000\000\000\001\002\003\004"
 305      01020304 
 306              		.section	.rodata.MSIRangeTable,"a"
 307              		.align	2
 308              		.set	.LANCHOR0,. + 0
 311              	MSIRangeTable:
 312 0000 A0860100 		.word	100000
 313 0004 400D0300 		.word	200000
 314 0008 801A0600 		.word	400000
 315 000c 00350C00 		.word	800000
ARM GAS  T:\msys\tmp\cc0peJlj.s 			page 13


 316 0010 40420F00 		.word	1000000
 317 0014 80841E00 		.word	2000000
 318 0018 00093D00 		.word	4000000
 319 001c 00127A00 		.word	8000000
 320 0020 0024F400 		.word	16000000
 321 0024 00366E01 		.word	24000000
 322 0028 0048E801 		.word	32000000
 323 002c 006CDC02 		.word	48000000
 324              		.text
 325              	.Letext0:
 326              		.file 2 "t:\\msys\\3rd\\gcc-arm-none-eabi-9-2020-q2-update-win32\\arm-none-eabi\\include\\machine\
 327              		.file 3 "t:\\msys\\3rd\\gcc-arm-none-eabi-9-2020-q2-update-win32\\arm-none-eabi\\include\\sys\\_st
 328              		.file 4 "D:/fchai/work/i-cube/I-CUBE-HUAWEI/Middlewares/Third_Party/Huawei/iot_link/os/liteos/arch
 329              		.file 5 "D:/fchai/work/i-cube/I-CUBE-HUAWEI/Drivers/CMSIS/Device/ST/STM32L4xx/Include/system_stm32
 330              		.file 6 "D:/fchai/work/i-cube/I-CUBE-HUAWEI/Drivers/CMSIS/Device/ST/STM32L4xx/Include/stm32l496xx.
 331              		.file 7 "D:/fchai/work/i-cube/I-CUBE-HUAWEI/Drivers/CMSIS/Device/ST/STM32L4xx/Include/stm32l4xx.h"
 332              		.file 8 "D:/fchai/work/i-cube/I-CUBE-HUAWEI/Drivers/STM32L4xx_HAL_Driver/Inc/stm32l4xx_hal_def.h"
 333              		.file 9 "D:/fchai/work/i-cube/I-CUBE-HUAWEI/Drivers/STM32L4xx_HAL_Driver/Inc/stm32l4xx_hal_flash.h
 334              		.file 10 "D:/fchai/work/i-cube/I-CUBE-HUAWEI/Drivers/STM32L4xx_HAL_Driver/Inc/stm32l4xx_hal.h"
ARM GAS  T:\msys\tmp\cc0peJlj.s 			page 14


DEFINED SYMBOLS
                            *ABS*:00000000 system_stm32l4xx.c
T:\msys\tmp\cc0peJlj.s:18     .text.SystemInit:00000000 $t
T:\msys\tmp\cc0peJlj.s:27     .text.SystemInit:00000000 SystemInit
T:\msys\tmp\cc0peJlj.s:96     .text.SystemInit:00000048 $d
T:\msys\tmp\cc0peJlj.s:102    .text.SystemCoreClockUpdate:00000000 $t
T:\msys\tmp\cc0peJlj.s:110    .text.SystemCoreClockUpdate:00000000 SystemCoreClockUpdate
T:\msys\tmp\cc0peJlj.s:272    .text.SystemCoreClockUpdate:00000098 $d
T:\msys\tmp\cc0peJlj.s:311    .rodata.MSIRangeTable:00000000 MSIRangeTable
T:\msys\tmp\cc0peJlj.s:304    .rodata.APBPrescTable:00000000 APBPrescTable
T:\msys\tmp\cc0peJlj.s:297    .rodata.AHBPrescTable:00000000 AHBPrescTable
T:\msys\tmp\cc0peJlj.s:290    .data.SystemCoreClock:00000000 SystemCoreClock
T:\msys\tmp\cc0peJlj.s:286    .data.SystemCoreClock:00000000 $d
T:\msys\tmp\cc0peJlj.s:293    .rodata.AHBPrescTable:00000000 $d
T:\msys\tmp\cc0peJlj.s:301    .rodata.APBPrescTable:00000000 $d
T:\msys\tmp\cc0peJlj.s:307    .rodata.MSIRangeTable:00000000 $d

NO UNDEFINED SYMBOLS
