ARM GAS  T:\msys\tmp\cc5gVzTt.s 			page 1


   1              		.cpu cortex-m4
   2              		.eabi_attribute 27, 1
   3              		.eabi_attribute 28, 1
   4              		.eabi_attribute 20, 1
   5              		.eabi_attribute 21, 1
   6              		.eabi_attribute 23, 3
   7              		.eabi_attribute 24, 1
   8              		.eabi_attribute 25, 1
   9              		.eabi_attribute 26, 1
  10              		.eabi_attribute 30, 2
  11              		.eabi_attribute 34, 1
  12              		.eabi_attribute 18, 4
  13              		.file	"uart_at.c"
  14              		.text
  15              	.Ltext0:
  16              		.cfi_sections	.debug_frame
  17              		.section	.text.atio_irq,"ax",%progbits
  18              		.align	1
  19              		.p2align 2,,3
  20              		.arch armv7e-m
  21              		.syntax unified
  22              		.thumb
  23              		.thumb_func
  24              		.fpu fpv4-sp-d16
  26              	atio_irq:
  27              	.LFB133:
  28              		.file 1 "D:/fchai/work/i-cube/I-CUBE-HUAWEI/Middlewares/Third_Party/Huawei/targets/NUCLEO-L496ZG/s
   1:D:/fchai/work/i-cube/I-CUBE-HUAWEI/Middlewares/Third_Party/Huawei/targets/NUCLEO-L496ZG/src\uart_at.c **** /*----------------------------------------------------------------------------
   2:D:/fchai/work/i-cube/I-CUBE-HUAWEI/Middlewares/Third_Party/Huawei/targets/NUCLEO-L496ZG/src\uart_at.c ****  * Copyright (c) <2016-2018>, <Huawei Technologies Co., Ltd>
   3:D:/fchai/work/i-cube/I-CUBE-HUAWEI/Middlewares/Third_Party/Huawei/targets/NUCLEO-L496ZG/src\uart_at.c ****  * All rights reserved.
   4:D:/fchai/work/i-cube/I-CUBE-HUAWEI/Middlewares/Third_Party/Huawei/targets/NUCLEO-L496ZG/src\uart_at.c ****  * Redistribution and use in source and binary forms, with or without modification,
   5:D:/fchai/work/i-cube/I-CUBE-HUAWEI/Middlewares/Third_Party/Huawei/targets/NUCLEO-L496ZG/src\uart_at.c ****  * are permitted provided that the following conditions are met:
   6:D:/fchai/work/i-cube/I-CUBE-HUAWEI/Middlewares/Third_Party/Huawei/targets/NUCLEO-L496ZG/src\uart_at.c ****  * 1. Redistributions of source code must retain the above copyright notice, this list of
   7:D:/fchai/work/i-cube/I-CUBE-HUAWEI/Middlewares/Third_Party/Huawei/targets/NUCLEO-L496ZG/src\uart_at.c ****  * conditions and the following disclaimer.
   8:D:/fchai/work/i-cube/I-CUBE-HUAWEI/Middlewares/Third_Party/Huawei/targets/NUCLEO-L496ZG/src\uart_at.c ****  * 2. Redistributions in binary form must reproduce the above copyright notice, this list
   9:D:/fchai/work/i-cube/I-CUBE-HUAWEI/Middlewares/Third_Party/Huawei/targets/NUCLEO-L496ZG/src\uart_at.c ****  * of conditions and the following disclaimer in the documentation and/or other materials
  10:D:/fchai/work/i-cube/I-CUBE-HUAWEI/Middlewares/Third_Party/Huawei/targets/NUCLEO-L496ZG/src\uart_at.c ****  * provided with the distribution.
  11:D:/fchai/work/i-cube/I-CUBE-HUAWEI/Middlewares/Third_Party/Huawei/targets/NUCLEO-L496ZG/src\uart_at.c ****  * 3. Neither the name of the copyright holder nor the names of its contributors may be used
  12:D:/fchai/work/i-cube/I-CUBE-HUAWEI/Middlewares/Third_Party/Huawei/targets/NUCLEO-L496ZG/src\uart_at.c ****  * to endorse or promote products derived from this software without specific prior written
  13:D:/fchai/work/i-cube/I-CUBE-HUAWEI/Middlewares/Third_Party/Huawei/targets/NUCLEO-L496ZG/src\uart_at.c ****  * permission.
  14:D:/fchai/work/i-cube/I-CUBE-HUAWEI/Middlewares/Third_Party/Huawei/targets/NUCLEO-L496ZG/src\uart_at.c ****  * THIS SOFTWARE IS PROVIDED BY THE COPYRIGHT HOLDERS AND CONTRIBUTORS
  15:D:/fchai/work/i-cube/I-CUBE-HUAWEI/Middlewares/Third_Party/Huawei/targets/NUCLEO-L496ZG/src\uart_at.c ****  * "AS IS" AND ANY EXPRESS OR IMPLIED WARRANTIES, INCLUDING, BUT NOT LIMITED TO,
  16:D:/fchai/work/i-cube/I-CUBE-HUAWEI/Middlewares/Third_Party/Huawei/targets/NUCLEO-L496ZG/src\uart_at.c ****  * THE IMPLIED WARRANTIES OF MERCHANTABILITY AND FITNESS FOR A PARTICULAR
  17:D:/fchai/work/i-cube/I-CUBE-HUAWEI/Middlewares/Third_Party/Huawei/targets/NUCLEO-L496ZG/src\uart_at.c ****  * PURPOSE ARE DISCLAIMED. IN NO EVENT SHALL THE COPYRIGHT HOLDER OR
  18:D:/fchai/work/i-cube/I-CUBE-HUAWEI/Middlewares/Third_Party/Huawei/targets/NUCLEO-L496ZG/src\uart_at.c ****  * CONTRIBUTORS BE LIABLE FOR ANY DIRECT, INDIRECT, INCIDENTAL, SPECIAL,
  19:D:/fchai/work/i-cube/I-CUBE-HUAWEI/Middlewares/Third_Party/Huawei/targets/NUCLEO-L496ZG/src\uart_at.c ****  * EXEMPLARY, OR CONSEQUENTIAL DAMAGES (INCLUDING, BUT NOT LIMITED TO,
  20:D:/fchai/work/i-cube/I-CUBE-HUAWEI/Middlewares/Third_Party/Huawei/targets/NUCLEO-L496ZG/src\uart_at.c ****  * PROCUREMENT OF SUBSTITUTE GOODS OR SERVICES; LOSS OF USE, DATA, OR PROFITS;
  21:D:/fchai/work/i-cube/I-CUBE-HUAWEI/Middlewares/Third_Party/Huawei/targets/NUCLEO-L496ZG/src\uart_at.c ****  * OR BUSINESS INTERRUPTION) HOWEVER CAUSED AND ON ANY THEORY OF LIABILITY,
  22:D:/fchai/work/i-cube/I-CUBE-HUAWEI/Middlewares/Third_Party/Huawei/targets/NUCLEO-L496ZG/src\uart_at.c ****  * WHETHER IN CONTRACT, STRICT LIABILITY, OR TORT (INCLUDING NEGLIGENCE OR
  23:D:/fchai/work/i-cube/I-CUBE-HUAWEI/Middlewares/Third_Party/Huawei/targets/NUCLEO-L496ZG/src\uart_at.c ****  * OTHERWISE) ARISING IN ANY WAY OUT OF THE USE OF THIS SOFTWARE, EVEN IF
  24:D:/fchai/work/i-cube/I-CUBE-HUAWEI/Middlewares/Third_Party/Huawei/targets/NUCLEO-L496ZG/src\uart_at.c ****  * ADVISED OF THE POSSIBILITY OF SUCH DAMAGE.
  25:D:/fchai/work/i-cube/I-CUBE-HUAWEI/Middlewares/Third_Party/Huawei/targets/NUCLEO-L496ZG/src\uart_at.c ****  *---------------------------------------------------------------------------*/
  26:D:/fchai/work/i-cube/I-CUBE-HUAWEI/Middlewares/Third_Party/Huawei/targets/NUCLEO-L496ZG/src\uart_at.c **** /*----------------------------------------------------------------------------
  27:D:/fchai/work/i-cube/I-CUBE-HUAWEI/Middlewares/Third_Party/Huawei/targets/NUCLEO-L496ZG/src\uart_at.c ****  * Notice of Export Control Law
  28:D:/fchai/work/i-cube/I-CUBE-HUAWEI/Middlewares/Third_Party/Huawei/targets/NUCLEO-L496ZG/src\uart_at.c ****  * ===============================================
  29:D:/fchai/work/i-cube/I-CUBE-HUAWEI/Middlewares/Third_Party/Huawei/targets/NUCLEO-L496ZG/src\uart_at.c ****  * Huawei LiteOS may be subject to applicable export control laws and regulations, which might
  30:D:/fchai/work/i-cube/I-CUBE-HUAWEI/Middlewares/Third_Party/Huawei/targets/NUCLEO-L496ZG/src\uart_at.c ****  * include those applicable to Huawei LiteOS of U.S. and the country in which you are located.
ARM GAS  T:\msys\tmp\cc5gVzTt.s 			page 2


  31:D:/fchai/work/i-cube/I-CUBE-HUAWEI/Middlewares/Third_Party/Huawei/targets/NUCLEO-L496ZG/src\uart_at.c ****  * Import, export and usage of Huawei LiteOS in any manner by you shall be in compliance with such
  32:D:/fchai/work/i-cube/I-CUBE-HUAWEI/Middlewares/Third_Party/Huawei/targets/NUCLEO-L496ZG/src\uart_at.c ****  * applicable export control laws and regulations.
  33:D:/fchai/work/i-cube/I-CUBE-HUAWEI/Middlewares/Third_Party/Huawei/targets/NUCLEO-L496ZG/src\uart_at.c ****  *---------------------------------------------------------------------------*/
  34:D:/fchai/work/i-cube/I-CUBE-HUAWEI/Middlewares/Third_Party/Huawei/targets/NUCLEO-L496ZG/src\uart_at.c **** 
  35:D:/fchai/work/i-cube/I-CUBE-HUAWEI/Middlewares/Third_Party/Huawei/targets/NUCLEO-L496ZG/src\uart_at.c **** #include "stm32l4xx_hal.h"
  36:D:/fchai/work/i-cube/I-CUBE-HUAWEI/Middlewares/Third_Party/Huawei/targets/NUCLEO-L496ZG/src\uart_at.c **** 
  37:D:/fchai/work/i-cube/I-CUBE-HUAWEI/Middlewares/Third_Party/Huawei/targets/NUCLEO-L496ZG/src\uart_at.c **** #include <main.h>
  38:D:/fchai/work/i-cube/I-CUBE-HUAWEI/Middlewares/Third_Party/Huawei/targets/NUCLEO-L496ZG/src\uart_at.c **** 
  39:D:/fchai/work/i-cube/I-CUBE-HUAWEI/Middlewares/Third_Party/Huawei/targets/NUCLEO-L496ZG/src\uart_at.c **** //#include "usart.h"
  40:D:/fchai/work/i-cube/I-CUBE-HUAWEI/Middlewares/Third_Party/Huawei/targets/NUCLEO-L496ZG/src\uart_at.c **** #include "stm32l4xx.h"
  41:D:/fchai/work/i-cube/I-CUBE-HUAWEI/Middlewares/Third_Party/Huawei/targets/NUCLEO-L496ZG/src\uart_at.c **** #include <stdint.h>
  42:D:/fchai/work/i-cube/I-CUBE-HUAWEI/Middlewares/Third_Party/Huawei/targets/NUCLEO-L496ZG/src\uart_at.c **** #include <stddef.h>
  43:D:/fchai/work/i-cube/I-CUBE-HUAWEI/Middlewares/Third_Party/Huawei/targets/NUCLEO-L496ZG/src\uart_at.c **** #include <osal.h>
  44:D:/fchai/work/i-cube/I-CUBE-HUAWEI/Middlewares/Third_Party/Huawei/targets/NUCLEO-L496ZG/src\uart_at.c **** #include <link_misc.h>
  45:D:/fchai/work/i-cube/I-CUBE-HUAWEI/Middlewares/Third_Party/Huawei/targets/NUCLEO-L496ZG/src\uart_at.c **** #include <driver.h>
  46:D:/fchai/work/i-cube/I-CUBE-HUAWEI/Middlewares/Third_Party/Huawei/targets/NUCLEO-L496ZG/src\uart_at.c **** #include "sys/fcntl.h"
  47:D:/fchai/work/i-cube/I-CUBE-HUAWEI/Middlewares/Third_Party/Huawei/targets/NUCLEO-L496ZG/src\uart_at.c **** #include <iot_link_config.h>
  48:D:/fchai/work/i-cube/I-CUBE-HUAWEI/Middlewares/Third_Party/Huawei/targets/NUCLEO-L496ZG/src\uart_at.c **** #include <los_hwi.h>
  49:D:/fchai/work/i-cube/I-CUBE-HUAWEI/Middlewares/Third_Party/Huawei/targets/NUCLEO-L496ZG/src\uart_at.c **** 
  50:D:/fchai/work/i-cube/I-CUBE-HUAWEI/Middlewares/Third_Party/Huawei/targets/NUCLEO-L496ZG/src\uart_at.c **** static USART_TypeDef*     s_pUSART = USART3;
  51:D:/fchai/work/i-cube/I-CUBE-HUAWEI/Middlewares/Third_Party/Huawei/targets/NUCLEO-L496ZG/src\uart_at.c **** static uint32_t           s_uwIRQn = USART3_IRQn;
  52:D:/fchai/work/i-cube/I-CUBE-HUAWEI/Middlewares/Third_Party/Huawei/targets/NUCLEO-L496ZG/src\uart_at.c **** 
  53:D:/fchai/work/i-cube/I-CUBE-HUAWEI/Middlewares/Third_Party/Huawei/targets/NUCLEO-L496ZG/src\uart_at.c **** #ifndef CONFIG_UARTAT_RCVMAX
  54:D:/fchai/work/i-cube/I-CUBE-HUAWEI/Middlewares/Third_Party/Huawei/targets/NUCLEO-L496ZG/src\uart_at.c **** #define CONFIG_UARTAT_RCVMAX     1024  //cache a frame
  55:D:/fchai/work/i-cube/I-CUBE-HUAWEI/Middlewares/Third_Party/Huawei/targets/NUCLEO-L496ZG/src\uart_at.c **** #endif
  56:D:/fchai/work/i-cube/I-CUBE-HUAWEI/Middlewares/Third_Party/Huawei/targets/NUCLEO-L496ZG/src\uart_at.c **** 
  57:D:/fchai/work/i-cube/I-CUBE-HUAWEI/Middlewares/Third_Party/Huawei/targets/NUCLEO-L496ZG/src\uart_at.c **** #ifndef CONFIG_UARTAT_BAUDRATE
  58:D:/fchai/work/i-cube/I-CUBE-HUAWEI/Middlewares/Third_Party/Huawei/targets/NUCLEO-L496ZG/src\uart_at.c **** #define CONFIG_UARTAT_BAUDRATE    115200
  59:D:/fchai/work/i-cube/I-CUBE-HUAWEI/Middlewares/Third_Party/Huawei/targets/NUCLEO-L496ZG/src\uart_at.c **** #endif
  60:D:/fchai/work/i-cube/I-CUBE-HUAWEI/Middlewares/Third_Party/Huawei/targets/NUCLEO-L496ZG/src\uart_at.c **** 
  61:D:/fchai/work/i-cube/I-CUBE-HUAWEI/Middlewares/Third_Party/Huawei/targets/NUCLEO-L496ZG/src\uart_at.c **** 
  62:D:/fchai/work/i-cube/I-CUBE-HUAWEI/Middlewares/Third_Party/Huawei/targets/NUCLEO-L496ZG/src\uart_at.c **** #ifndef CONFIG_UARTAT_DEVNAME
  63:D:/fchai/work/i-cube/I-CUBE-HUAWEI/Middlewares/Third_Party/Huawei/targets/NUCLEO-L496ZG/src\uart_at.c **** #define CONFIG_UARTAT_DEVNAME    "atdev"
  64:D:/fchai/work/i-cube/I-CUBE-HUAWEI/Middlewares/Third_Party/Huawei/targets/NUCLEO-L496ZG/src\uart_at.c **** #endif
  65:D:/fchai/work/i-cube/I-CUBE-HUAWEI/Middlewares/Third_Party/Huawei/targets/NUCLEO-L496ZG/src\uart_at.c **** 
  66:D:/fchai/work/i-cube/I-CUBE-HUAWEI/Middlewares/Third_Party/Huawei/targets/NUCLEO-L496ZG/src\uart_at.c **** #define CN_RCVMEM_LEN  CONFIG_UARTAT_RCVMAX
  67:D:/fchai/work/i-cube/I-CUBE-HUAWEI/Middlewares/Third_Party/Huawei/targets/NUCLEO-L496ZG/src\uart_at.c **** 
  68:D:/fchai/work/i-cube/I-CUBE-HUAWEI/Middlewares/Third_Party/Huawei/targets/NUCLEO-L496ZG/src\uart_at.c **** extern UART_HandleTypeDef huart3;
  69:D:/fchai/work/i-cube/I-CUBE-HUAWEI/Middlewares/Third_Party/Huawei/targets/NUCLEO-L496ZG/src\uart_at.c **** 
  70:D:/fchai/work/i-cube/I-CUBE-HUAWEI/Middlewares/Third_Party/Huawei/targets/NUCLEO-L496ZG/src\uart_at.c **** UART_HandleTypeDef * uart_at = &huart3;
  71:D:/fchai/work/i-cube/I-CUBE-HUAWEI/Middlewares/Third_Party/Huawei/targets/NUCLEO-L496ZG/src\uart_at.c **** 
  72:D:/fchai/work/i-cube/I-CUBE-HUAWEI/Middlewares/Third_Party/Huawei/targets/NUCLEO-L496ZG/src\uart_at.c **** struct atio_cb
  73:D:/fchai/work/i-cube/I-CUBE-HUAWEI/Middlewares/Third_Party/Huawei/targets/NUCLEO-L496ZG/src\uart_at.c **** {
  74:D:/fchai/work/i-cube/I-CUBE-HUAWEI/Middlewares/Third_Party/Huawei/targets/NUCLEO-L496ZG/src\uart_at.c ****     unsigned short        w_next;    //the next position to be write
  75:D:/fchai/work/i-cube/I-CUBE-HUAWEI/Middlewares/Third_Party/Huawei/targets/NUCLEO-L496ZG/src\uart_at.c ****     osal_semp_t           rcvsync;   //if a frame has been written to the ring, then active it
  76:D:/fchai/work/i-cube/I-CUBE-HUAWEI/Middlewares/Third_Party/Huawei/targets/NUCLEO-L496ZG/src\uart_at.c ****     osal_mutex_t          wlock;
  77:D:/fchai/work/i-cube/I-CUBE-HUAWEI/Middlewares/Third_Party/Huawei/targets/NUCLEO-L496ZG/src\uart_at.c ****     tag_ring_buffer_t     rcvring;
  78:D:/fchai/work/i-cube/I-CUBE-HUAWEI/Middlewares/Third_Party/Huawei/targets/NUCLEO-L496ZG/src\uart_at.c ****     unsigned char         rcvbuf[CONFIG_UARTAT_RCVMAX];
  79:D:/fchai/work/i-cube/I-CUBE-HUAWEI/Middlewares/Third_Party/Huawei/targets/NUCLEO-L496ZG/src\uart_at.c ****     unsigned char         rcvringmem[CN_RCVMEM_LEN];
  80:D:/fchai/work/i-cube/I-CUBE-HUAWEI/Middlewares/Third_Party/Huawei/targets/NUCLEO-L496ZG/src\uart_at.c **** 
  81:D:/fchai/work/i-cube/I-CUBE-HUAWEI/Middlewares/Third_Party/Huawei/targets/NUCLEO-L496ZG/src\uart_at.c ****     //for the debug here
  82:D:/fchai/work/i-cube/I-CUBE-HUAWEI/Middlewares/Third_Party/Huawei/targets/NUCLEO-L496ZG/src\uart_at.c ****     unsigned int          rframeover; //how many times the frame has been over the max length
  83:D:/fchai/work/i-cube/I-CUBE-HUAWEI/Middlewares/Third_Party/Huawei/targets/NUCLEO-L496ZG/src\uart_at.c ****     unsigned int          rframedrop; //how many frame has been droped for memmory
  84:D:/fchai/work/i-cube/I-CUBE-HUAWEI/Middlewares/Third_Party/Huawei/targets/NUCLEO-L496ZG/src\uart_at.c ****     unsigned int          sndlen;     //how many bytes has been sent
  85:D:/fchai/work/i-cube/I-CUBE-HUAWEI/Middlewares/Third_Party/Huawei/targets/NUCLEO-L496ZG/src\uart_at.c ****     unsigned int          rcvlen;     //how many bytes has been received
  86:D:/fchai/work/i-cube/I-CUBE-HUAWEI/Middlewares/Third_Party/Huawei/targets/NUCLEO-L496ZG/src\uart_at.c ****     unsigned int          sndframe;   //how many frame has been sent
  87:D:/fchai/work/i-cube/I-CUBE-HUAWEI/Middlewares/Third_Party/Huawei/targets/NUCLEO-L496ZG/src\uart_at.c ****     unsigned int          rcvframe;   //how many frame has been received
ARM GAS  T:\msys\tmp\cc5gVzTt.s 			page 3


  88:D:/fchai/work/i-cube/I-CUBE-HUAWEI/Middlewares/Third_Party/Huawei/targets/NUCLEO-L496ZG/src\uart_at.c ****     unsigned int          rcvringrst; //how many times the receive ring has been reset
  89:D:/fchai/work/i-cube/I-CUBE-HUAWEI/Middlewares/Third_Party/Huawei/targets/NUCLEO-L496ZG/src\uart_at.c **** };
  90:D:/fchai/work/i-cube/I-CUBE-HUAWEI/Middlewares/Third_Party/Huawei/targets/NUCLEO-L496ZG/src\uart_at.c **** static struct atio_cb   g_atio_cb;
  91:D:/fchai/work/i-cube/I-CUBE-HUAWEI/Middlewares/Third_Party/Huawei/targets/NUCLEO-L496ZG/src\uart_at.c **** 
  92:D:/fchai/work/i-cube/I-CUBE-HUAWEI/Middlewares/Third_Party/Huawei/targets/NUCLEO-L496ZG/src\uart_at.c **** 
  93:D:/fchai/work/i-cube/I-CUBE-HUAWEI/Middlewares/Third_Party/Huawei/targets/NUCLEO-L496ZG/src\uart_at.c **** /*******************************************************************************
  94:D:/fchai/work/i-cube/I-CUBE-HUAWEI/Middlewares/Third_Party/Huawei/targets/NUCLEO-L496ZG/src\uart_at.c **** function     :use this function to deal the uart interrupt
  95:D:/fchai/work/i-cube/I-CUBE-HUAWEI/Middlewares/Third_Party/Huawei/targets/NUCLEO-L496ZG/src\uart_at.c **** parameters   :
  96:D:/fchai/work/i-cube/I-CUBE-HUAWEI/Middlewares/Third_Party/Huawei/targets/NUCLEO-L496ZG/src\uart_at.c **** instruction  :we cached the data in the temp buffer,when the idle interrupt reached,
  97:D:/fchai/work/i-cube/I-CUBE-HUAWEI/Middlewares/Third_Party/Huawei/targets/NUCLEO-L496ZG/src\uart_at.c ****               then we write the data and the length to the ring if the ring has enough
  98:D:/fchai/work/i-cube/I-CUBE-HUAWEI/Middlewares/Third_Party/Huawei/targets/NUCLEO-L496ZG/src\uart_at.c ****               space
  99:D:/fchai/work/i-cube/I-CUBE-HUAWEI/Middlewares/Third_Party/Huawei/targets/NUCLEO-L496ZG/src\uart_at.c **** *******************************************************************************/
 100:D:/fchai/work/i-cube/I-CUBE-HUAWEI/Middlewares/Third_Party/Huawei/targets/NUCLEO-L496ZG/src\uart_at.c **** static void atio_irq(void)
 101:D:/fchai/work/i-cube/I-CUBE-HUAWEI/Middlewares/Third_Party/Huawei/targets/NUCLEO-L496ZG/src\uart_at.c **** {
  29              		.loc 1 101 1 view -0
  30              		.cfi_startproc
  31              		@ args = 0, pretend = 0, frame = 8
  32              		@ frame_needed = 0, uses_anonymous_args = 0
 102:D:/fchai/work/i-cube/I-CUBE-HUAWEI/Middlewares/Third_Party/Huawei/targets/NUCLEO-L496ZG/src\uart_at.c ****     unsigned char  value;
  33              		.loc 1 102 5 view .LVU1
 103:D:/fchai/work/i-cube/I-CUBE-HUAWEI/Middlewares/Third_Party/Huawei/targets/NUCLEO-L496ZG/src\uart_at.c ****     unsigned short ringspace;
  34              		.loc 1 103 5 view .LVU2
 104:D:/fchai/work/i-cube/I-CUBE-HUAWEI/Middlewares/Third_Party/Huawei/targets/NUCLEO-L496ZG/src\uart_at.c ****     if(__HAL_UART_GET_FLAG(uart_at, UART_FLAG_RXNE) != RESET)
  35              		.loc 1 104 5 view .LVU3
  36              		.loc 1 104 8 is_stmt 0 view .LVU4
  37 0000 2F4B     		ldr	r3, .L11
  38 0002 1B68     		ldr	r3, [r3]
 101:D:/fchai/work/i-cube/I-CUBE-HUAWEI/Middlewares/Third_Party/Huawei/targets/NUCLEO-L496ZG/src\uart_at.c ****     unsigned char  value;
  39              		.loc 1 101 1 view .LVU5
  40 0004 30B5     		push	{r4, r5, lr}
  41              	.LCFI0:
  42              		.cfi_def_cfa_offset 12
  43              		.cfi_offset 4, -12
  44              		.cfi_offset 5, -8
  45              		.cfi_offset 14, -4
  46              		.loc 1 104 8 view .LVU6
  47 0006 1B68     		ldr	r3, [r3]
  48 0008 DA69     		ldr	r2, [r3, #28]
  49              		.loc 1 104 7 view .LVU7
  50 000a 9106     		lsls	r1, r2, #26
 101:D:/fchai/work/i-cube/I-CUBE-HUAWEI/Middlewares/Third_Party/Huawei/targets/NUCLEO-L496ZG/src\uart_at.c ****     unsigned char  value;
  51              		.loc 1 101 1 view .LVU8
  52 000c 83B0     		sub	sp, sp, #12
  53              	.LCFI1:
  54              		.cfi_def_cfa_offset 24
  55              		.loc 1 104 7 view .LVU9
  56 000e 12D5     		bpl	.L2
 105:D:/fchai/work/i-cube/I-CUBE-HUAWEI/Middlewares/Third_Party/Huawei/targets/NUCLEO-L496ZG/src\uart_at.c ****     {
 106:D:/fchai/work/i-cube/I-CUBE-HUAWEI/Middlewares/Third_Party/Huawei/targets/NUCLEO-L496ZG/src\uart_at.c ****        value = (uint8_t)(uart_at->Instance->RDR & 0x00FF);
  57              		.loc 1 106 8 is_stmt 1 view .LVU10
  58              		.loc 1 106 43 is_stmt 0 view .LVU11
  59 0010 998C     		ldrh	r1, [r3, #36]
 107:D:/fchai/work/i-cube/I-CUBE-HUAWEI/Middlewares/Third_Party/Huawei/targets/NUCLEO-L496ZG/src\uart_at.c ****        g_atio_cb.rcvlen++;
  60              		.loc 1 107 24 view .LVU12
  61 0012 2C4A     		ldr	r2, .L11+4
  62 0014 45F22804 		movw	r4, #20520
 108:D:/fchai/work/i-cube/I-CUBE-HUAWEI/Middlewares/Third_Party/Huawei/targets/NUCLEO-L496ZG/src\uart_at.c ****        if(g_atio_cb.w_next < CONFIG_UARTAT_RCVMAX)
ARM GAS  T:\msys\tmp\cc5gVzTt.s 			page 4


  63              		.loc 1 108 20 view .LVU13
  64 0018 1388     		ldrh	r3, [r2]
 106:D:/fchai/work/i-cube/I-CUBE-HUAWEI/Middlewares/Third_Party/Huawei/targets/NUCLEO-L496ZG/src\uart_at.c ****        g_atio_cb.rcvlen++;
  65              		.loc 1 106 43 view .LVU14
  66 001a 88B2     		uxth	r0, r1
  67              	.LVL0:
 107:D:/fchai/work/i-cube/I-CUBE-HUAWEI/Middlewares/Third_Party/Huawei/targets/NUCLEO-L496ZG/src\uart_at.c ****        g_atio_cb.rcvlen++;
  68              		.loc 1 107 8 is_stmt 1 view .LVU15
 107:D:/fchai/work/i-cube/I-CUBE-HUAWEI/Middlewares/Third_Party/Huawei/targets/NUCLEO-L496ZG/src\uart_at.c ****        g_atio_cb.rcvlen++;
  69              		.loc 1 107 24 is_stmt 0 view .LVU16
  70 001c 1159     		ldr	r1, [r2, r4]
  71              		.loc 1 108 10 view .LVU17
  72 001e B3F5205F 		cmp	r3, #10240
 107:D:/fchai/work/i-cube/I-CUBE-HUAWEI/Middlewares/Third_Party/Huawei/targets/NUCLEO-L496ZG/src\uart_at.c ****        g_atio_cb.rcvlen++;
  73              		.loc 1 107 24 view .LVU18
  74 0022 01F10101 		add	r1, r1, #1
  75 0026 1151     		str	r1, [r2, r4]
  76              		.loc 1 108 8 is_stmt 1 view .LVU19
  77              		.loc 1 108 10 is_stmt 0 view .LVU20
  78 0028 12D2     		bcs	.L3
 109:D:/fchai/work/i-cube/I-CUBE-HUAWEI/Middlewares/Third_Party/Huawei/targets/NUCLEO-L496ZG/src\uart_at.c ****        {
 110:D:/fchai/work/i-cube/I-CUBE-HUAWEI/Middlewares/Third_Party/Huawei/targets/NUCLEO-L496ZG/src\uart_at.c ****            g_atio_cb.rcvbuf[g_atio_cb.w_next] = value;
  79              		.loc 1 110 12 is_stmt 1 view .LVU21
  80              		.loc 1 110 47 is_stmt 0 view .LVU22
  81 002a D118     		adds	r1, r2, r3
 111:D:/fchai/work/i-cube/I-CUBE-HUAWEI/Middlewares/Third_Party/Huawei/targets/NUCLEO-L496ZG/src\uart_at.c ****            g_atio_cb.w_next++;
  82              		.loc 1 111 28 view .LVU23
  83 002c 0133     		adds	r3, r3, #1
 106:D:/fchai/work/i-cube/I-CUBE-HUAWEI/Middlewares/Third_Party/Huawei/targets/NUCLEO-L496ZG/src\uart_at.c ****        g_atio_cb.rcvlen++;
  84              		.loc 1 106 14 view .LVU24
  85 002e 0877     		strb	r0, [r1, #28]
  86              		.loc 1 111 12 is_stmt 1 view .LVU25
  87              		.loc 1 111 28 is_stmt 0 view .LVU26
  88 0030 1380     		strh	r3, [r2]	@ movhi
 112:D:/fchai/work/i-cube/I-CUBE-HUAWEI/Middlewares/Third_Party/Huawei/targets/NUCLEO-L496ZG/src\uart_at.c ****        }
 113:D:/fchai/work/i-cube/I-CUBE-HUAWEI/Middlewares/Third_Party/Huawei/targets/NUCLEO-L496ZG/src\uart_at.c ****        else
 114:D:/fchai/work/i-cube/I-CUBE-HUAWEI/Middlewares/Third_Party/Huawei/targets/NUCLEO-L496ZG/src\uart_at.c ****        {
 115:D:/fchai/work/i-cube/I-CUBE-HUAWEI/Middlewares/Third_Party/Huawei/targets/NUCLEO-L496ZG/src\uart_at.c ****             g_atio_cb.rframeover++;
 116:D:/fchai/work/i-cube/I-CUBE-HUAWEI/Middlewares/Third_Party/Huawei/targets/NUCLEO-L496ZG/src\uart_at.c ****        }
 117:D:/fchai/work/i-cube/I-CUBE-HUAWEI/Middlewares/Third_Party/Huawei/targets/NUCLEO-L496ZG/src\uart_at.c ****     }
 118:D:/fchai/work/i-cube/I-CUBE-HUAWEI/Middlewares/Third_Party/Huawei/targets/NUCLEO-L496ZG/src\uart_at.c ****     else if (__HAL_UART_GET_FLAG(uart_at,UART_FLAG_IDLE) != RESET)
 119:D:/fchai/work/i-cube/I-CUBE-HUAWEI/Middlewares/Third_Party/Huawei/targets/NUCLEO-L496ZG/src\uart_at.c ****     {
 120:D:/fchai/work/i-cube/I-CUBE-HUAWEI/Middlewares/Third_Party/Huawei/targets/NUCLEO-L496ZG/src\uart_at.c ****         __HAL_UART_CLEAR_IDLEFLAG(uart_at);
 121:D:/fchai/work/i-cube/I-CUBE-HUAWEI/Middlewares/Third_Party/Huawei/targets/NUCLEO-L496ZG/src\uart_at.c ****         ringspace = CN_RCVMEM_LEN - ring_buffer_datalen(&g_atio_cb.rcvring);
 122:D:/fchai/work/i-cube/I-CUBE-HUAWEI/Middlewares/Third_Party/Huawei/targets/NUCLEO-L496ZG/src\uart_at.c ****         if(ringspace < g_atio_cb.w_next)  //not enough mem
 123:D:/fchai/work/i-cube/I-CUBE-HUAWEI/Middlewares/Third_Party/Huawei/targets/NUCLEO-L496ZG/src\uart_at.c ****         {
 124:D:/fchai/work/i-cube/I-CUBE-HUAWEI/Middlewares/Third_Party/Huawei/targets/NUCLEO-L496ZG/src\uart_at.c ****             g_atio_cb.rframedrop++;
 125:D:/fchai/work/i-cube/I-CUBE-HUAWEI/Middlewares/Third_Party/Huawei/targets/NUCLEO-L496ZG/src\uart_at.c ****         }
 126:D:/fchai/work/i-cube/I-CUBE-HUAWEI/Middlewares/Third_Party/Huawei/targets/NUCLEO-L496ZG/src\uart_at.c ****         else
 127:D:/fchai/work/i-cube/I-CUBE-HUAWEI/Middlewares/Third_Party/Huawei/targets/NUCLEO-L496ZG/src\uart_at.c ****         {
 128:D:/fchai/work/i-cube/I-CUBE-HUAWEI/Middlewares/Third_Party/Huawei/targets/NUCLEO-L496ZG/src\uart_at.c ****             //write data to the ring buffer:len+data format
 129:D:/fchai/work/i-cube/I-CUBE-HUAWEI/Middlewares/Third_Party/Huawei/targets/NUCLEO-L496ZG/src\uart_at.c ****             ringspace = g_atio_cb.w_next;
 130:D:/fchai/work/i-cube/I-CUBE-HUAWEI/Middlewares/Third_Party/Huawei/targets/NUCLEO-L496ZG/src\uart_at.c ****             ring_buffer_write(&g_atio_cb.rcvring,(unsigned char *)&ringspace,sizeof(ringspace));
 131:D:/fchai/work/i-cube/I-CUBE-HUAWEI/Middlewares/Third_Party/Huawei/targets/NUCLEO-L496ZG/src\uart_at.c ****             ring_buffer_write(&g_atio_cb.rcvring,g_atio_cb.rcvbuf,ringspace);
 132:D:/fchai/work/i-cube/I-CUBE-HUAWEI/Middlewares/Third_Party/Huawei/targets/NUCLEO-L496ZG/src\uart_at.c ****             (void) osal_semp_post(g_atio_cb.rcvsync);
 133:D:/fchai/work/i-cube/I-CUBE-HUAWEI/Middlewares/Third_Party/Huawei/targets/NUCLEO-L496ZG/src\uart_at.c ****             g_atio_cb.rcvframe++;
 134:D:/fchai/work/i-cube/I-CUBE-HUAWEI/Middlewares/Third_Party/Huawei/targets/NUCLEO-L496ZG/src\uart_at.c ****         }
ARM GAS  T:\msys\tmp\cc5gVzTt.s 			page 5


 135:D:/fchai/work/i-cube/I-CUBE-HUAWEI/Middlewares/Third_Party/Huawei/targets/NUCLEO-L496ZG/src\uart_at.c ****         g_atio_cb.w_next=0; //write from the head
 136:D:/fchai/work/i-cube/I-CUBE-HUAWEI/Middlewares/Third_Party/Huawei/targets/NUCLEO-L496ZG/src\uart_at.c ****     }
 137:D:/fchai/work/i-cube/I-CUBE-HUAWEI/Middlewares/Third_Party/Huawei/targets/NUCLEO-L496ZG/src\uart_at.c ****     else ///< clear the flags
 138:D:/fchai/work/i-cube/I-CUBE-HUAWEI/Middlewares/Third_Party/Huawei/targets/NUCLEO-L496ZG/src\uart_at.c ****     {
 139:D:/fchai/work/i-cube/I-CUBE-HUAWEI/Middlewares/Third_Party/Huawei/targets/NUCLEO-L496ZG/src\uart_at.c ****         __HAL_UART_CLEAR_PEFLAG(uart_at);
 140:D:/fchai/work/i-cube/I-CUBE-HUAWEI/Middlewares/Third_Party/Huawei/targets/NUCLEO-L496ZG/src\uart_at.c ****         __HAL_UART_CLEAR_FEFLAG(uart_at);
 141:D:/fchai/work/i-cube/I-CUBE-HUAWEI/Middlewares/Third_Party/Huawei/targets/NUCLEO-L496ZG/src\uart_at.c ****         __HAL_UART_CLEAR_NEFLAG(uart_at);
 142:D:/fchai/work/i-cube/I-CUBE-HUAWEI/Middlewares/Third_Party/Huawei/targets/NUCLEO-L496ZG/src\uart_at.c ****         __HAL_UART_CLEAR_OREFLAG(uart_at);
 143:D:/fchai/work/i-cube/I-CUBE-HUAWEI/Middlewares/Third_Party/Huawei/targets/NUCLEO-L496ZG/src\uart_at.c ****     }
 144:D:/fchai/work/i-cube/I-CUBE-HUAWEI/Middlewares/Third_Party/Huawei/targets/NUCLEO-L496ZG/src\uart_at.c **** 
 145:D:/fchai/work/i-cube/I-CUBE-HUAWEI/Middlewares/Third_Party/Huawei/targets/NUCLEO-L496ZG/src\uart_at.c **** 
 146:D:/fchai/work/i-cube/I-CUBE-HUAWEI/Middlewares/Third_Party/Huawei/targets/NUCLEO-L496ZG/src\uart_at.c **** }
  89              		.loc 1 146 1 view .LVU27
  90 0032 03B0     		add	sp, sp, #12
  91              	.LCFI2:
  92              		.cfi_remember_state
  93              		.cfi_def_cfa_offset 12
  94              		@ sp needed
  95 0034 30BD     		pop	{r4, r5, pc}
  96              	.LVL1:
  97              	.L2:
  98              	.LCFI3:
  99              		.cfi_restore_state
 118:D:/fchai/work/i-cube/I-CUBE-HUAWEI/Middlewares/Third_Party/Huawei/targets/NUCLEO-L496ZG/src\uart_at.c ****     {
 100              		.loc 1 118 10 is_stmt 1 view .LVU28
 118:D:/fchai/work/i-cube/I-CUBE-HUAWEI/Middlewares/Third_Party/Huawei/targets/NUCLEO-L496ZG/src\uart_at.c ****     {
 101              		.loc 1 118 14 is_stmt 0 view .LVU29
 102 0036 DA69     		ldr	r2, [r3, #28]
 118:D:/fchai/work/i-cube/I-CUBE-HUAWEI/Middlewares/Third_Party/Huawei/targets/NUCLEO-L496ZG/src\uart_at.c ****     {
 103              		.loc 1 118 13 view .LVU30
 104 0038 D206     		lsls	r2, r2, #27
 105 003a 10D4     		bmi	.L10
 139:D:/fchai/work/i-cube/I-CUBE-HUAWEI/Middlewares/Third_Party/Huawei/targets/NUCLEO-L496ZG/src\uart_at.c ****         __HAL_UART_CLEAR_FEFLAG(uart_at);
 106              		.loc 1 139 9 is_stmt 1 view .LVU31
 107 003c 0124     		movs	r4, #1
 140:D:/fchai/work/i-cube/I-CUBE-HUAWEI/Middlewares/Third_Party/Huawei/targets/NUCLEO-L496ZG/src\uart_at.c ****         __HAL_UART_CLEAR_NEFLAG(uart_at);
 108              		.loc 1 140 9 is_stmt 0 view .LVU32
 109 003e 0220     		movs	r0, #2
 141:D:/fchai/work/i-cube/I-CUBE-HUAWEI/Middlewares/Third_Party/Huawei/targets/NUCLEO-L496ZG/src\uart_at.c ****         __HAL_UART_CLEAR_OREFLAG(uart_at);
 110              		.loc 1 141 9 view .LVU33
 111 0040 0421     		movs	r1, #4
 142:D:/fchai/work/i-cube/I-CUBE-HUAWEI/Middlewares/Third_Party/Huawei/targets/NUCLEO-L496ZG/src\uart_at.c ****     }
 112              		.loc 1 142 9 view .LVU34
 113 0042 0822     		movs	r2, #8
 139:D:/fchai/work/i-cube/I-CUBE-HUAWEI/Middlewares/Third_Party/Huawei/targets/NUCLEO-L496ZG/src\uart_at.c ****         __HAL_UART_CLEAR_FEFLAG(uart_at);
 114              		.loc 1 139 9 view .LVU35
 115 0044 1C62     		str	r4, [r3, #32]
 140:D:/fchai/work/i-cube/I-CUBE-HUAWEI/Middlewares/Third_Party/Huawei/targets/NUCLEO-L496ZG/src\uart_at.c ****         __HAL_UART_CLEAR_NEFLAG(uart_at);
 116              		.loc 1 140 9 is_stmt 1 view .LVU36
 117 0046 1862     		str	r0, [r3, #32]
 141:D:/fchai/work/i-cube/I-CUBE-HUAWEI/Middlewares/Third_Party/Huawei/targets/NUCLEO-L496ZG/src\uart_at.c ****         __HAL_UART_CLEAR_OREFLAG(uart_at);
 118              		.loc 1 141 9 view .LVU37
 119 0048 1962     		str	r1, [r3, #32]
 142:D:/fchai/work/i-cube/I-CUBE-HUAWEI/Middlewares/Third_Party/Huawei/targets/NUCLEO-L496ZG/src\uart_at.c ****     }
 120              		.loc 1 142 9 view .LVU38
 121 004a 1A62     		str	r2, [r3, #32]
 122              		.loc 1 146 1 is_stmt 0 view .LVU39
ARM GAS  T:\msys\tmp\cc5gVzTt.s 			page 6


 123 004c 03B0     		add	sp, sp, #12
 124              	.LCFI4:
 125              		.cfi_remember_state
 126              		.cfi_def_cfa_offset 12
 127              		@ sp needed
 128 004e 30BD     		pop	{r4, r5, pc}
 129              	.LVL2:
 130              	.L3:
 131              	.LCFI5:
 132              		.cfi_restore_state
 115:D:/fchai/work/i-cube/I-CUBE-HUAWEI/Middlewares/Third_Party/Huawei/targets/NUCLEO-L496ZG/src\uart_at.c ****        }
 133              		.loc 1 115 13 is_stmt 1 view .LVU40
 115:D:/fchai/work/i-cube/I-CUBE-HUAWEI/Middlewares/Third_Party/Huawei/targets/NUCLEO-L496ZG/src\uart_at.c ****        }
 134              		.loc 1 115 33 is_stmt 0 view .LVU41
 135 0050 45F21C01 		movw	r1, #20508
 136 0054 5358     		ldr	r3, [r2, r1]
 137 0056 0133     		adds	r3, r3, #1
 138 0058 5350     		str	r3, [r2, r1]
 139              		.loc 1 146 1 view .LVU42
 140 005a 03B0     		add	sp, sp, #12
 141              	.LCFI6:
 142              		.cfi_remember_state
 143              		.cfi_def_cfa_offset 12
 144              		@ sp needed
 145 005c 30BD     		pop	{r4, r5, pc}
 146              	.LVL3:
 147              	.L10:
 148              	.LCFI7:
 149              		.cfi_restore_state
 120:D:/fchai/work/i-cube/I-CUBE-HUAWEI/Middlewares/Third_Party/Huawei/targets/NUCLEO-L496ZG/src\uart_at.c ****         ringspace = CN_RCVMEM_LEN - ring_buffer_datalen(&g_atio_cb.rcvring);
 150              		.loc 1 120 9 is_stmt 1 view .LVU43
 121:D:/fchai/work/i-cube/I-CUBE-HUAWEI/Middlewares/Third_Party/Huawei/targets/NUCLEO-L496ZG/src\uart_at.c ****         if(ringspace < g_atio_cb.w_next)  //not enough mem
 151              		.loc 1 121 37 is_stmt 0 view .LVU44
 152 005e 1A4C     		ldr	r4, .L11+8
 120:D:/fchai/work/i-cube/I-CUBE-HUAWEI/Middlewares/Third_Party/Huawei/targets/NUCLEO-L496ZG/src\uart_at.c ****         ringspace = CN_RCVMEM_LEN - ring_buffer_datalen(&g_atio_cb.rcvring);
 153              		.loc 1 120 9 view .LVU45
 154 0060 1022     		movs	r2, #16
 155 0062 1A62     		str	r2, [r3, #32]
 121:D:/fchai/work/i-cube/I-CUBE-HUAWEI/Middlewares/Third_Party/Huawei/targets/NUCLEO-L496ZG/src\uart_at.c ****         if(ringspace < g_atio_cb.w_next)  //not enough mem
 156              		.loc 1 121 9 is_stmt 1 view .LVU46
 121:D:/fchai/work/i-cube/I-CUBE-HUAWEI/Middlewares/Third_Party/Huawei/targets/NUCLEO-L496ZG/src\uart_at.c ****         if(ringspace < g_atio_cb.w_next)  //not enough mem
 157              		.loc 1 121 37 is_stmt 0 view .LVU47
 158 0064 2046     		mov	r0, r4
 159 0066 FFF7FEFF 		bl	ring_buffer_datalen
 160              	.LVL4:
 122:D:/fchai/work/i-cube/I-CUBE-HUAWEI/Middlewares/Third_Party/Huawei/targets/NUCLEO-L496ZG/src\uart_at.c ****         {
 161              		.loc 1 122 9 is_stmt 1 view .LVU48
 122:D:/fchai/work/i-cube/I-CUBE-HUAWEI/Middlewares/Third_Party/Huawei/targets/NUCLEO-L496ZG/src\uart_at.c ****         {
 162              		.loc 1 122 33 is_stmt 0 view .LVU49
 163 006a 34F80C3C 		ldrh	r3, [r4, #-12]
 121:D:/fchai/work/i-cube/I-CUBE-HUAWEI/Middlewares/Third_Party/Huawei/targets/NUCLEO-L496ZG/src\uart_at.c ****         if(ringspace < g_atio_cb.w_next)  //not enough mem
 164              		.loc 1 121 35 view .LVU50
 165 006e C0F52050 		rsb	r0, r0, #10240
 122:D:/fchai/work/i-cube/I-CUBE-HUAWEI/Middlewares/Third_Party/Huawei/targets/NUCLEO-L496ZG/src\uart_at.c ****         {
 166              		.loc 1 122 11 view .LVU51
 167 0072 80B2     		uxth	r0, r0
 168 0074 9842     		cmp	r0, r3
ARM GAS  T:\msys\tmp\cc5gVzTt.s 			page 7


 122:D:/fchai/work/i-cube/I-CUBE-HUAWEI/Middlewares/Third_Party/Huawei/targets/NUCLEO-L496ZG/src\uart_at.c ****         {
 169              		.loc 1 122 33 view .LVU52
 170 0076 A4F10C05 		sub	r5, r4, #12
 122:D:/fchai/work/i-cube/I-CUBE-HUAWEI/Middlewares/Third_Party/Huawei/targets/NUCLEO-L496ZG/src\uart_at.c ****         {
 171              		.loc 1 122 11 view .LVU53
 172 007a 08D2     		bcs	.L6
 124:D:/fchai/work/i-cube/I-CUBE-HUAWEI/Middlewares/Third_Party/Huawei/targets/NUCLEO-L496ZG/src\uart_at.c ****         }
 173              		.loc 1 124 13 is_stmt 1 view .LVU54
 124:D:/fchai/work/i-cube/I-CUBE-HUAWEI/Middlewares/Third_Party/Huawei/targets/NUCLEO-L496ZG/src\uart_at.c ****         }
 174              		.loc 1 124 33 is_stmt 0 view .LVU55
 175 007c 45F22002 		movw	r2, #20512
 176 0080 AB58     		ldr	r3, [r5, r2]
 177 0082 0133     		adds	r3, r3, #1
 178 0084 AB50     		str	r3, [r5, r2]
 179              	.L7:
 135:D:/fchai/work/i-cube/I-CUBE-HUAWEI/Middlewares/Third_Party/Huawei/targets/NUCLEO-L496ZG/src\uart_at.c ****     }
 180              		.loc 1 135 9 is_stmt 1 view .LVU56
 135:D:/fchai/work/i-cube/I-CUBE-HUAWEI/Middlewares/Third_Party/Huawei/targets/NUCLEO-L496ZG/src\uart_at.c ****     }
 181              		.loc 1 135 25 is_stmt 0 view .LVU57
 182 0086 0023     		movs	r3, #0
 183 0088 2B80     		strh	r3, [r5]	@ movhi
 184              		.loc 1 146 1 view .LVU58
 185 008a 03B0     		add	sp, sp, #12
 186              	.LCFI8:
 187              		.cfi_remember_state
 188              		.cfi_def_cfa_offset 12
 189              		@ sp needed
 190 008c 30BD     		pop	{r4, r5, pc}
 191              	.L6:
 192              	.LCFI9:
 193              		.cfi_restore_state
 129:D:/fchai/work/i-cube/I-CUBE-HUAWEI/Middlewares/Third_Party/Huawei/targets/NUCLEO-L496ZG/src\uart_at.c ****             ring_buffer_write(&g_atio_cb.rcvring,(unsigned char *)&ringspace,sizeof(ringspace));
 194              		.loc 1 129 13 is_stmt 1 view .LVU59
 130:D:/fchai/work/i-cube/I-CUBE-HUAWEI/Middlewares/Third_Party/Huawei/targets/NUCLEO-L496ZG/src\uart_at.c ****             ring_buffer_write(&g_atio_cb.rcvring,g_atio_cb.rcvbuf,ringspace);
 195              		.loc 1 130 13 is_stmt 0 view .LVU60
 196 008e 0222     		movs	r2, #2
 197 0090 0DF10601 		add	r1, sp, #6
 198 0094 2046     		mov	r0, r4
 129:D:/fchai/work/i-cube/I-CUBE-HUAWEI/Middlewares/Third_Party/Huawei/targets/NUCLEO-L496ZG/src\uart_at.c ****             ring_buffer_write(&g_atio_cb.rcvring,(unsigned char *)&ringspace,sizeof(ringspace));
 199              		.loc 1 129 23 view .LVU61
 200 0096 ADF80630 		strh	r3, [sp, #6]	@ movhi
 130:D:/fchai/work/i-cube/I-CUBE-HUAWEI/Middlewares/Third_Party/Huawei/targets/NUCLEO-L496ZG/src\uart_at.c ****             ring_buffer_write(&g_atio_cb.rcvring,g_atio_cb.rcvbuf,ringspace);
 201              		.loc 1 130 13 is_stmt 1 view .LVU62
 202 009a FFF7FEFF 		bl	ring_buffer_write
 203              	.LVL5:
 131:D:/fchai/work/i-cube/I-CUBE-HUAWEI/Middlewares/Third_Party/Huawei/targets/NUCLEO-L496ZG/src\uart_at.c ****             (void) osal_semp_post(g_atio_cb.rcvsync);
 204              		.loc 1 131 13 view .LVU63
 205 009e BDF80620 		ldrh	r2, [sp, #6]
 206 00a2 05F11C01 		add	r1, r5, #28
 207 00a6 2046     		mov	r0, r4
 208 00a8 FFF7FEFF 		bl	ring_buffer_write
 209              	.LVL6:
 132:D:/fchai/work/i-cube/I-CUBE-HUAWEI/Middlewares/Third_Party/Huawei/targets/NUCLEO-L496ZG/src\uart_at.c ****             g_atio_cb.rcvframe++;
 210              		.loc 1 132 13 view .LVU64
 132:D:/fchai/work/i-cube/I-CUBE-HUAWEI/Middlewares/Third_Party/Huawei/targets/NUCLEO-L496ZG/src\uart_at.c ****             g_atio_cb.rcvframe++;
 211              		.loc 1 132 20 is_stmt 0 view .LVU65
 212 00ac 6868     		ldr	r0, [r5, #4]
ARM GAS  T:\msys\tmp\cc5gVzTt.s 			page 8


 213 00ae FFF7FEFF 		bl	osal_semp_post
 214              	.LVL7:
 133:D:/fchai/work/i-cube/I-CUBE-HUAWEI/Middlewares/Third_Party/Huawei/targets/NUCLEO-L496ZG/src\uart_at.c ****         }
 215              		.loc 1 133 13 is_stmt 1 view .LVU66
 133:D:/fchai/work/i-cube/I-CUBE-HUAWEI/Middlewares/Third_Party/Huawei/targets/NUCLEO-L496ZG/src\uart_at.c ****         }
 216              		.loc 1 133 31 is_stmt 0 view .LVU67
 217 00b2 45F23002 		movw	r2, #20528
 218 00b6 AB58     		ldr	r3, [r5, r2]
 219 00b8 0133     		adds	r3, r3, #1
 220 00ba AB50     		str	r3, [r5, r2]
 221 00bc E3E7     		b	.L7
 222              	.L12:
 223 00be 00BF     		.align	2
 224              	.L11:
 225 00c0 00000000 		.word	.LANCHOR0
 226 00c4 00000000 		.word	g_atio_cb
 227 00c8 0C000000 		.word	g_atio_cb+12
 228              		.cfi_endproc
 229              	.LFE133:
 231              		.section	.text.uart_at_deinit,"ax",%progbits
 232              		.align	1
 233              		.p2align 2,,3
 234              		.global	uart_at_deinit
 235              		.syntax unified
 236              		.thumb
 237              		.thumb_func
 238              		.fpu fpv4-sp-d16
 240              	uart_at_deinit:
 241              	.LVL8:
 242              	.LFB135:
 147:D:/fchai/work/i-cube/I-CUBE-HUAWEI/Middlewares/Third_Party/Huawei/targets/NUCLEO-L496ZG/src\uart_at.c **** 
 148:D:/fchai/work/i-cube/I-CUBE-HUAWEI/Middlewares/Third_Party/Huawei/targets/NUCLEO-L496ZG/src\uart_at.c **** /*******************************************************************************
 149:D:/fchai/work/i-cube/I-CUBE-HUAWEI/Middlewares/Third_Party/Huawei/targets/NUCLEO-L496ZG/src\uart_at.c **** function     :use this function to initialize the uart
 150:D:/fchai/work/i-cube/I-CUBE-HUAWEI/Middlewares/Third_Party/Huawei/targets/NUCLEO-L496ZG/src\uart_at.c **** parameters   :
 151:D:/fchai/work/i-cube/I-CUBE-HUAWEI/Middlewares/Third_Party/Huawei/targets/NUCLEO-L496ZG/src\uart_at.c **** instruction  :
 152:D:/fchai/work/i-cube/I-CUBE-HUAWEI/Middlewares/Third_Party/Huawei/targets/NUCLEO-L496ZG/src\uart_at.c **** *******************************************************************************/
 153:D:/fchai/work/i-cube/I-CUBE-HUAWEI/Middlewares/Third_Party/Huawei/targets/NUCLEO-L496ZG/src\uart_at.c **** bool_t uart_at_init(void *pri)
 154:D:/fchai/work/i-cube/I-CUBE-HUAWEI/Middlewares/Third_Party/Huawei/targets/NUCLEO-L496ZG/src\uart_at.c **** {
 155:D:/fchai/work/i-cube/I-CUBE-HUAWEI/Middlewares/Third_Party/Huawei/targets/NUCLEO-L496ZG/src\uart_at.c ****     //initialize the at controller
 156:D:/fchai/work/i-cube/I-CUBE-HUAWEI/Middlewares/Third_Party/Huawei/targets/NUCLEO-L496ZG/src\uart_at.c ****     (void) memset(&g_atio_cb,0,sizeof(g_atio_cb));
 157:D:/fchai/work/i-cube/I-CUBE-HUAWEI/Middlewares/Third_Party/Huawei/targets/NUCLEO-L496ZG/src\uart_at.c ****     if(false == osal_semp_create(&g_atio_cb.rcvsync,CN_RCVMEM_LEN,0))
 158:D:/fchai/work/i-cube/I-CUBE-HUAWEI/Middlewares/Third_Party/Huawei/targets/NUCLEO-L496ZG/src\uart_at.c ****     {
 159:D:/fchai/work/i-cube/I-CUBE-HUAWEI/Middlewares/Third_Party/Huawei/targets/NUCLEO-L496ZG/src\uart_at.c ****         printf("%s:semp create error\n\r",__FUNCTION__);
 160:D:/fchai/work/i-cube/I-CUBE-HUAWEI/Middlewares/Third_Party/Huawei/targets/NUCLEO-L496ZG/src\uart_at.c ****         goto EXIT_SEMP;
 161:D:/fchai/work/i-cube/I-CUBE-HUAWEI/Middlewares/Third_Party/Huawei/targets/NUCLEO-L496ZG/src\uart_at.c ****     }
 162:D:/fchai/work/i-cube/I-CUBE-HUAWEI/Middlewares/Third_Party/Huawei/targets/NUCLEO-L496ZG/src\uart_at.c **** 
 163:D:/fchai/work/i-cube/I-CUBE-HUAWEI/Middlewares/Third_Party/Huawei/targets/NUCLEO-L496ZG/src\uart_at.c ****     if(false == osal_mutex_create(&g_atio_cb.wlock))
 164:D:/fchai/work/i-cube/I-CUBE-HUAWEI/Middlewares/Third_Party/Huawei/targets/NUCLEO-L496ZG/src\uart_at.c ****     {
 165:D:/fchai/work/i-cube/I-CUBE-HUAWEI/Middlewares/Third_Party/Huawei/targets/NUCLEO-L496ZG/src\uart_at.c ****         printf("%s:mutex create error\n\r",__FUNCTION__);
 166:D:/fchai/work/i-cube/I-CUBE-HUAWEI/Middlewares/Third_Party/Huawei/targets/NUCLEO-L496ZG/src\uart_at.c ****         goto EXIT_MUTEX;
 167:D:/fchai/work/i-cube/I-CUBE-HUAWEI/Middlewares/Third_Party/Huawei/targets/NUCLEO-L496ZG/src\uart_at.c ****     }
 168:D:/fchai/work/i-cube/I-CUBE-HUAWEI/Middlewares/Third_Party/Huawei/targets/NUCLEO-L496ZG/src\uart_at.c **** 
 169:D:/fchai/work/i-cube/I-CUBE-HUAWEI/Middlewares/Third_Party/Huawei/targets/NUCLEO-L496ZG/src\uart_at.c ****     ring_buffer_init(&g_atio_cb.rcvring,g_atio_cb.rcvringmem,CN_RCVMEM_LEN,0,0);
 170:D:/fchai/work/i-cube/I-CUBE-HUAWEI/Middlewares/Third_Party/Huawei/targets/NUCLEO-L496ZG/src\uart_at.c **** 
 171:D:/fchai/work/i-cube/I-CUBE-HUAWEI/Middlewares/Third_Party/Huawei/targets/NUCLEO-L496ZG/src\uart_at.c ****     uart_at->Instance = s_pUSART;
 172:D:/fchai/work/i-cube/I-CUBE-HUAWEI/Middlewares/Third_Party/Huawei/targets/NUCLEO-L496ZG/src\uart_at.c ****     uart_at->Init.BaudRate = CONFIG_UARTAT_BAUDRATE;
 173:D:/fchai/work/i-cube/I-CUBE-HUAWEI/Middlewares/Third_Party/Huawei/targets/NUCLEO-L496ZG/src\uart_at.c ****     uart_at->Init.WordLength = UART_WORDLENGTH_8B;
ARM GAS  T:\msys\tmp\cc5gVzTt.s 			page 9


 174:D:/fchai/work/i-cube/I-CUBE-HUAWEI/Middlewares/Third_Party/Huawei/targets/NUCLEO-L496ZG/src\uart_at.c ****     uart_at->Init.StopBits = UART_STOPBITS_1;
 175:D:/fchai/work/i-cube/I-CUBE-HUAWEI/Middlewares/Third_Party/Huawei/targets/NUCLEO-L496ZG/src\uart_at.c ****     uart_at->Init.Parity = UART_PARITY_NONE;
 176:D:/fchai/work/i-cube/I-CUBE-HUAWEI/Middlewares/Third_Party/Huawei/targets/NUCLEO-L496ZG/src\uart_at.c ****     uart_at->Init.HwFlowCtl = UART_HWCONTROL_NONE;
 177:D:/fchai/work/i-cube/I-CUBE-HUAWEI/Middlewares/Third_Party/Huawei/targets/NUCLEO-L496ZG/src\uart_at.c ****     uart_at->Init.Mode = UART_MODE_TX_RX;
 178:D:/fchai/work/i-cube/I-CUBE-HUAWEI/Middlewares/Third_Party/Huawei/targets/NUCLEO-L496ZG/src\uart_at.c ****     uart_at->Init.OverSampling = UART_OVERSAMPLING_16;
 179:D:/fchai/work/i-cube/I-CUBE-HUAWEI/Middlewares/Third_Party/Huawei/targets/NUCLEO-L496ZG/src\uart_at.c ****     if(HAL_UART_Init(uart_at) != HAL_OK)
 180:D:/fchai/work/i-cube/I-CUBE-HUAWEI/Middlewares/Third_Party/Huawei/targets/NUCLEO-L496ZG/src\uart_at.c ****     {
 181:D:/fchai/work/i-cube/I-CUBE-HUAWEI/Middlewares/Third_Party/Huawei/targets/NUCLEO-L496ZG/src\uart_at.c ****         printf("%s:HAL_UART_Init fail\n\r",__FUNCTION__);
 182:D:/fchai/work/i-cube/I-CUBE-HUAWEI/Middlewares/Third_Party/Huawei/targets/NUCLEO-L496ZG/src\uart_at.c ****         goto EXIT_SEMP;
 183:D:/fchai/work/i-cube/I-CUBE-HUAWEI/Middlewares/Third_Party/Huawei/targets/NUCLEO-L496ZG/src\uart_at.c ****     }
 184:D:/fchai/work/i-cube/I-CUBE-HUAWEI/Middlewares/Third_Party/Huawei/targets/NUCLEO-L496ZG/src\uart_at.c ****     __HAL_UART_CLEAR_FLAG(uart_at,UART_FLAG_TC);
 185:D:/fchai/work/i-cube/I-CUBE-HUAWEI/Middlewares/Third_Party/Huawei/targets/NUCLEO-L496ZG/src\uart_at.c ****     LOS_HwiCreate(s_uwIRQn, 3, 0, atio_irq, 0);
 186:D:/fchai/work/i-cube/I-CUBE-HUAWEI/Middlewares/Third_Party/Huawei/targets/NUCLEO-L496ZG/src\uart_at.c ****     __HAL_UART_ENABLE_IT(uart_at, UART_IT_IDLE);
 187:D:/fchai/work/i-cube/I-CUBE-HUAWEI/Middlewares/Third_Party/Huawei/targets/NUCLEO-L496ZG/src\uart_at.c ****     __HAL_UART_ENABLE_IT(uart_at, UART_IT_RXNE);
 188:D:/fchai/work/i-cube/I-CUBE-HUAWEI/Middlewares/Third_Party/Huawei/targets/NUCLEO-L496ZG/src\uart_at.c ****     return true;
 189:D:/fchai/work/i-cube/I-CUBE-HUAWEI/Middlewares/Third_Party/Huawei/targets/NUCLEO-L496ZG/src\uart_at.c **** 
 190:D:/fchai/work/i-cube/I-CUBE-HUAWEI/Middlewares/Third_Party/Huawei/targets/NUCLEO-L496ZG/src\uart_at.c **** EXIT_MUTEX:
 191:D:/fchai/work/i-cube/I-CUBE-HUAWEI/Middlewares/Third_Party/Huawei/targets/NUCLEO-L496ZG/src\uart_at.c ****     osal_semp_del(g_atio_cb.rcvsync);
 192:D:/fchai/work/i-cube/I-CUBE-HUAWEI/Middlewares/Third_Party/Huawei/targets/NUCLEO-L496ZG/src\uart_at.c ****     g_atio_cb.rcvsync = cn_semp_invalid;
 193:D:/fchai/work/i-cube/I-CUBE-HUAWEI/Middlewares/Third_Party/Huawei/targets/NUCLEO-L496ZG/src\uart_at.c **** EXIT_SEMP:
 194:D:/fchai/work/i-cube/I-CUBE-HUAWEI/Middlewares/Third_Party/Huawei/targets/NUCLEO-L496ZG/src\uart_at.c ****     return false;
 195:D:/fchai/work/i-cube/I-CUBE-HUAWEI/Middlewares/Third_Party/Huawei/targets/NUCLEO-L496ZG/src\uart_at.c **** }
 196:D:/fchai/work/i-cube/I-CUBE-HUAWEI/Middlewares/Third_Party/Huawei/targets/NUCLEO-L496ZG/src\uart_at.c **** 
 197:D:/fchai/work/i-cube/I-CUBE-HUAWEI/Middlewares/Third_Party/Huawei/targets/NUCLEO-L496ZG/src\uart_at.c **** void uart_at_deinit(void *pri)
 198:D:/fchai/work/i-cube/I-CUBE-HUAWEI/Middlewares/Third_Party/Huawei/targets/NUCLEO-L496ZG/src\uart_at.c **** {
 243              		.loc 1 198 1 is_stmt 1 view -0
 244              		.cfi_startproc
 245              		@ args = 0, pretend = 0, frame = 0
 246              		@ frame_needed = 0, uses_anonymous_args = 0
 199:D:/fchai/work/i-cube/I-CUBE-HUAWEI/Middlewares/Third_Party/Huawei/targets/NUCLEO-L496ZG/src\uart_at.c ****     __HAL_UART_DISABLE(uart_at);
 247              		.loc 1 199 5 view .LVU69
 198:D:/fchai/work/i-cube/I-CUBE-HUAWEI/Middlewares/Third_Party/Huawei/targets/NUCLEO-L496ZG/src\uart_at.c ****     __HAL_UART_DISABLE(uart_at);
 248              		.loc 1 198 1 is_stmt 0 view .LVU70
 249 0000 38B5     		push	{r3, r4, r5, lr}
 250              	.LCFI10:
 251              		.cfi_def_cfa_offset 16
 252              		.cfi_offset 3, -16
 253              		.cfi_offset 4, -12
 254              		.cfi_offset 5, -8
 255              		.cfi_offset 14, -4
 256              		.loc 1 199 5 view .LVU71
 257 0002 0D4B     		ldr	r3, .L15
 200:D:/fchai/work/i-cube/I-CUBE-HUAWEI/Middlewares/Third_Party/Huawei/targets/NUCLEO-L496ZG/src\uart_at.c ****     __HAL_UART_DISABLE_IT(uart_at, UART_IT_IDLE);
 201:D:/fchai/work/i-cube/I-CUBE-HUAWEI/Middlewares/Third_Party/Huawei/targets/NUCLEO-L496ZG/src\uart_at.c ****     __HAL_UART_DISABLE_IT(uart_at, UART_IT_RXNE);
 202:D:/fchai/work/i-cube/I-CUBE-HUAWEI/Middlewares/Third_Party/Huawei/targets/NUCLEO-L496ZG/src\uart_at.c **** 
 203:D:/fchai/work/i-cube/I-CUBE-HUAWEI/Middlewares/Third_Party/Huawei/targets/NUCLEO-L496ZG/src\uart_at.c ****     osal_mutex_del(g_atio_cb.wlock);
 258              		.loc 1 203 5 view .LVU72
 259 0004 0D4C     		ldr	r4, .L15+4
 199:D:/fchai/work/i-cube/I-CUBE-HUAWEI/Middlewares/Third_Party/Huawei/targets/NUCLEO-L496ZG/src\uart_at.c ****     __HAL_UART_DISABLE_IT(uart_at, UART_IT_IDLE);
 260              		.loc 1 199 5 view .LVU73
 261 0006 1B68     		ldr	r3, [r3]
 262              		.loc 1 203 5 view .LVU74
 263 0008 A068     		ldr	r0, [r4, #8]
 264              	.LVL9:
 199:D:/fchai/work/i-cube/I-CUBE-HUAWEI/Middlewares/Third_Party/Huawei/targets/NUCLEO-L496ZG/src\uart_at.c ****     __HAL_UART_DISABLE_IT(uart_at, UART_IT_IDLE);
 265              		.loc 1 199 5 view .LVU75
 266 000a 1B68     		ldr	r3, [r3]
ARM GAS  T:\msys\tmp\cc5gVzTt.s 			page 10


 267 000c 1A68     		ldr	r2, [r3]
 268 000e 22F00102 		bic	r2, r2, #1
 269 0012 1A60     		str	r2, [r3]
 200:D:/fchai/work/i-cube/I-CUBE-HUAWEI/Middlewares/Third_Party/Huawei/targets/NUCLEO-L496ZG/src\uart_at.c ****     __HAL_UART_DISABLE_IT(uart_at, UART_IT_IDLE);
 270              		.loc 1 200 5 is_stmt 1 view .LVU76
 271 0014 1A68     		ldr	r2, [r3]
 272 0016 22F01002 		bic	r2, r2, #16
 273 001a 1A60     		str	r2, [r3]
 201:D:/fchai/work/i-cube/I-CUBE-HUAWEI/Middlewares/Third_Party/Huawei/targets/NUCLEO-L496ZG/src\uart_at.c **** 
 274              		.loc 1 201 5 view .LVU77
 275 001c 1A68     		ldr	r2, [r3]
 276 001e 22F02002 		bic	r2, r2, #32
 277 0022 1A60     		str	r2, [r3]
 278              		.loc 1 203 5 view .LVU78
 279 0024 FFF7FEFF 		bl	osal_mutex_del
 280              	.LVL10:
 204:D:/fchai/work/i-cube/I-CUBE-HUAWEI/Middlewares/Third_Party/Huawei/targets/NUCLEO-L496ZG/src\uart_at.c ****     g_atio_cb.wlock = cn_mutex_invalid;
 281              		.loc 1 204 5 view .LVU79
 282              		.loc 1 204 21 is_stmt 0 view .LVU80
 283 0028 4FF0FF35 		mov	r5, #-1
 205:D:/fchai/work/i-cube/I-CUBE-HUAWEI/Middlewares/Third_Party/Huawei/targets/NUCLEO-L496ZG/src\uart_at.c **** 
 206:D:/fchai/work/i-cube/I-CUBE-HUAWEI/Middlewares/Third_Party/Huawei/targets/NUCLEO-L496ZG/src\uart_at.c ****     osal_semp_del(g_atio_cb.rcvsync);
 284              		.loc 1 206 5 view .LVU81
 285 002c 6068     		ldr	r0, [r4, #4]
 204:D:/fchai/work/i-cube/I-CUBE-HUAWEI/Middlewares/Third_Party/Huawei/targets/NUCLEO-L496ZG/src\uart_at.c ****     g_atio_cb.wlock = cn_mutex_invalid;
 286              		.loc 1 204 21 view .LVU82
 287 002e A560     		str	r5, [r4, #8]
 288              		.loc 1 206 5 is_stmt 1 view .LVU83
 289 0030 FFF7FEFF 		bl	osal_semp_del
 290              	.LVL11:
 207:D:/fchai/work/i-cube/I-CUBE-HUAWEI/Middlewares/Third_Party/Huawei/targets/NUCLEO-L496ZG/src\uart_at.c ****     g_atio_cb.rcvsync = cn_semp_invalid;
 291              		.loc 1 207 5 view .LVU84
 292              		.loc 1 207 23 is_stmt 0 view .LVU85
 293 0034 6560     		str	r5, [r4, #4]
 208:D:/fchai/work/i-cube/I-CUBE-HUAWEI/Middlewares/Third_Party/Huawei/targets/NUCLEO-L496ZG/src\uart_at.c **** }
 294              		.loc 1 208 1 view .LVU86
 295 0036 38BD     		pop	{r3, r4, r5, pc}
 296              	.L16:
 297              		.align	2
 298              	.L15:
 299 0038 00000000 		.word	.LANCHOR0
 300 003c 00000000 		.word	g_atio_cb
 301              		.cfi_endproc
 302              	.LFE135:
 304              		.section	.text.__at_write,"ax",%progbits
 305              		.align	1
 306              		.p2align 2,,3
 307              		.syntax unified
 308              		.thumb
 309              		.thumb_func
 310              		.fpu fpv4-sp-d16
 312              	__at_write:
 313              	.LVL12:
 314              	.LFB139:
 209:D:/fchai/work/i-cube/I-CUBE-HUAWEI/Middlewares/Third_Party/Huawei/targets/NUCLEO-L496ZG/src\uart_at.c **** 
 210:D:/fchai/work/i-cube/I-CUBE-HUAWEI/Middlewares/Third_Party/Huawei/targets/NUCLEO-L496ZG/src\uart_at.c **** /*******************************************************************************
 211:D:/fchai/work/i-cube/I-CUBE-HUAWEI/Middlewares/Third_Party/Huawei/targets/NUCLEO-L496ZG/src\uart_at.c **** function     :use this function to send a frame to the uart
ARM GAS  T:\msys\tmp\cc5gVzTt.s 			page 11


 212:D:/fchai/work/i-cube/I-CUBE-HUAWEI/Middlewares/Third_Party/Huawei/targets/NUCLEO-L496ZG/src\uart_at.c **** parameters   :
 213:D:/fchai/work/i-cube/I-CUBE-HUAWEI/Middlewares/Third_Party/Huawei/targets/NUCLEO-L496ZG/src\uart_at.c **** instruction  :
 214:D:/fchai/work/i-cube/I-CUBE-HUAWEI/Middlewares/Third_Party/Huawei/targets/NUCLEO-L496ZG/src\uart_at.c **** *******************************************************************************/
 215:D:/fchai/work/i-cube/I-CUBE-HUAWEI/Middlewares/Third_Party/Huawei/targets/NUCLEO-L496ZG/src\uart_at.c **** static ssize_t uart_at_send(const char  *buf, size_t len,uint32_t timeout)
 216:D:/fchai/work/i-cube/I-CUBE-HUAWEI/Middlewares/Third_Party/Huawei/targets/NUCLEO-L496ZG/src\uart_at.c **** {
 217:D:/fchai/work/i-cube/I-CUBE-HUAWEI/Middlewares/Third_Party/Huawei/targets/NUCLEO-L496ZG/src\uart_at.c ****     int ret = -1;
 218:D:/fchai/work/i-cube/I-CUBE-HUAWEI/Middlewares/Third_Party/Huawei/targets/NUCLEO-L496ZG/src\uart_at.c ****     if(osal_mutex_lock(g_atio_cb.wlock))
 219:D:/fchai/work/i-cube/I-CUBE-HUAWEI/Middlewares/Third_Party/Huawei/targets/NUCLEO-L496ZG/src\uart_at.c ****     {
 220:D:/fchai/work/i-cube/I-CUBE-HUAWEI/Middlewares/Third_Party/Huawei/targets/NUCLEO-L496ZG/src\uart_at.c ****         HAL_UART_Transmit(uart_at,(unsigned char *)buf,len,timeout);
 221:D:/fchai/work/i-cube/I-CUBE-HUAWEI/Middlewares/Third_Party/Huawei/targets/NUCLEO-L496ZG/src\uart_at.c ****         g_atio_cb.sndlen += len;
 222:D:/fchai/work/i-cube/I-CUBE-HUAWEI/Middlewares/Third_Party/Huawei/targets/NUCLEO-L496ZG/src\uart_at.c ****         g_atio_cb.sndframe ++;
 223:D:/fchai/work/i-cube/I-CUBE-HUAWEI/Middlewares/Third_Party/Huawei/targets/NUCLEO-L496ZG/src\uart_at.c **** 
 224:D:/fchai/work/i-cube/I-CUBE-HUAWEI/Middlewares/Third_Party/Huawei/targets/NUCLEO-L496ZG/src\uart_at.c ****         ret = len;
 225:D:/fchai/work/i-cube/I-CUBE-HUAWEI/Middlewares/Third_Party/Huawei/targets/NUCLEO-L496ZG/src\uart_at.c **** 
 226:D:/fchai/work/i-cube/I-CUBE-HUAWEI/Middlewares/Third_Party/Huawei/targets/NUCLEO-L496ZG/src\uart_at.c ****         osal_mutex_unlock(g_atio_cb.wlock);
 227:D:/fchai/work/i-cube/I-CUBE-HUAWEI/Middlewares/Third_Party/Huawei/targets/NUCLEO-L496ZG/src\uart_at.c ****     }
 228:D:/fchai/work/i-cube/I-CUBE-HUAWEI/Middlewares/Third_Party/Huawei/targets/NUCLEO-L496ZG/src\uart_at.c ****     return ret;
 229:D:/fchai/work/i-cube/I-CUBE-HUAWEI/Middlewares/Third_Party/Huawei/targets/NUCLEO-L496ZG/src\uart_at.c **** }
 230:D:/fchai/work/i-cube/I-CUBE-HUAWEI/Middlewares/Third_Party/Huawei/targets/NUCLEO-L496ZG/src\uart_at.c **** /*******************************************************************************
 231:D:/fchai/work/i-cube/I-CUBE-HUAWEI/Middlewares/Third_Party/Huawei/targets/NUCLEO-L496ZG/src\uart_at.c **** function     :use this function to read a frame from the uart
 232:D:/fchai/work/i-cube/I-CUBE-HUAWEI/Middlewares/Third_Party/Huawei/targets/NUCLEO-L496ZG/src\uart_at.c **** parameters   :
 233:D:/fchai/work/i-cube/I-CUBE-HUAWEI/Middlewares/Third_Party/Huawei/targets/NUCLEO-L496ZG/src\uart_at.c **** instruction  :
 234:D:/fchai/work/i-cube/I-CUBE-HUAWEI/Middlewares/Third_Party/Huawei/targets/NUCLEO-L496ZG/src\uart_at.c **** *******************************************************************************/
 235:D:/fchai/work/i-cube/I-CUBE-HUAWEI/Middlewares/Third_Party/Huawei/targets/NUCLEO-L496ZG/src\uart_at.c **** static ssize_t uart_at_receive(void *buf,size_t len,uint32_t timeout)
 236:D:/fchai/work/i-cube/I-CUBE-HUAWEI/Middlewares/Third_Party/Huawei/targets/NUCLEO-L496ZG/src\uart_at.c **** {
 237:D:/fchai/work/i-cube/I-CUBE-HUAWEI/Middlewares/Third_Party/Huawei/targets/NUCLEO-L496ZG/src\uart_at.c ****     unsigned short cpylen;
 238:D:/fchai/work/i-cube/I-CUBE-HUAWEI/Middlewares/Third_Party/Huawei/targets/NUCLEO-L496ZG/src\uart_at.c ****     unsigned short framelen;
 239:D:/fchai/work/i-cube/I-CUBE-HUAWEI/Middlewares/Third_Party/Huawei/targets/NUCLEO-L496ZG/src\uart_at.c ****     unsigned short readlen;
 240:D:/fchai/work/i-cube/I-CUBE-HUAWEI/Middlewares/Third_Party/Huawei/targets/NUCLEO-L496ZG/src\uart_at.c ****     int32_t ret = 0;
 241:D:/fchai/work/i-cube/I-CUBE-HUAWEI/Middlewares/Third_Party/Huawei/targets/NUCLEO-L496ZG/src\uart_at.c ****     unsigned int lock;
 242:D:/fchai/work/i-cube/I-CUBE-HUAWEI/Middlewares/Third_Party/Huawei/targets/NUCLEO-L496ZG/src\uart_at.c ****     if(osal_semp_pend(g_atio_cb.rcvsync,timeout))
 243:D:/fchai/work/i-cube/I-CUBE-HUAWEI/Middlewares/Third_Party/Huawei/targets/NUCLEO-L496ZG/src\uart_at.c ****     {
 244:D:/fchai/work/i-cube/I-CUBE-HUAWEI/Middlewares/Third_Party/Huawei/targets/NUCLEO-L496ZG/src\uart_at.c ****         lock = LOS_IntLock();
 245:D:/fchai/work/i-cube/I-CUBE-HUAWEI/Middlewares/Third_Party/Huawei/targets/NUCLEO-L496ZG/src\uart_at.c ****         readlen = sizeof(framelen);
 246:D:/fchai/work/i-cube/I-CUBE-HUAWEI/Middlewares/Third_Party/Huawei/targets/NUCLEO-L496ZG/src\uart_at.c ****         cpylen = ring_buffer_read(&g_atio_cb.rcvring,(unsigned char *)&framelen,readlen);
 247:D:/fchai/work/i-cube/I-CUBE-HUAWEI/Middlewares/Third_Party/Huawei/targets/NUCLEO-L496ZG/src\uart_at.c ****         if(cpylen != readlen)
 248:D:/fchai/work/i-cube/I-CUBE-HUAWEI/Middlewares/Third_Party/Huawei/targets/NUCLEO-L496ZG/src\uart_at.c ****         {
 249:D:/fchai/work/i-cube/I-CUBE-HUAWEI/Middlewares/Third_Party/Huawei/targets/NUCLEO-L496ZG/src\uart_at.c ****             ring_buffer_reset(&g_atio_cb.rcvring);  //bad ring format here
 250:D:/fchai/work/i-cube/I-CUBE-HUAWEI/Middlewares/Third_Party/Huawei/targets/NUCLEO-L496ZG/src\uart_at.c ****             g_atio_cb.rcvringrst++;
 251:D:/fchai/work/i-cube/I-CUBE-HUAWEI/Middlewares/Third_Party/Huawei/targets/NUCLEO-L496ZG/src\uart_at.c ****         }
 252:D:/fchai/work/i-cube/I-CUBE-HUAWEI/Middlewares/Third_Party/Huawei/targets/NUCLEO-L496ZG/src\uart_at.c ****         else
 253:D:/fchai/work/i-cube/I-CUBE-HUAWEI/Middlewares/Third_Party/Huawei/targets/NUCLEO-L496ZG/src\uart_at.c ****         {
 254:D:/fchai/work/i-cube/I-CUBE-HUAWEI/Middlewares/Third_Party/Huawei/targets/NUCLEO-L496ZG/src\uart_at.c ****             if(framelen > len)
 255:D:/fchai/work/i-cube/I-CUBE-HUAWEI/Middlewares/Third_Party/Huawei/targets/NUCLEO-L496ZG/src\uart_at.c ****             {
 256:D:/fchai/work/i-cube/I-CUBE-HUAWEI/Middlewares/Third_Party/Huawei/targets/NUCLEO-L496ZG/src\uart_at.c ****                 ring_buffer_reset(&g_atio_cb.rcvring);  //bad ring format here
 257:D:/fchai/work/i-cube/I-CUBE-HUAWEI/Middlewares/Third_Party/Huawei/targets/NUCLEO-L496ZG/src\uart_at.c ****                 g_atio_cb.rcvringrst++;
 258:D:/fchai/work/i-cube/I-CUBE-HUAWEI/Middlewares/Third_Party/Huawei/targets/NUCLEO-L496ZG/src\uart_at.c ****             }
 259:D:/fchai/work/i-cube/I-CUBE-HUAWEI/Middlewares/Third_Party/Huawei/targets/NUCLEO-L496ZG/src\uart_at.c ****             else
 260:D:/fchai/work/i-cube/I-CUBE-HUAWEI/Middlewares/Third_Party/Huawei/targets/NUCLEO-L496ZG/src\uart_at.c ****             {
 261:D:/fchai/work/i-cube/I-CUBE-HUAWEI/Middlewares/Third_Party/Huawei/targets/NUCLEO-L496ZG/src\uart_at.c ****                 readlen = framelen;
 262:D:/fchai/work/i-cube/I-CUBE-HUAWEI/Middlewares/Third_Party/Huawei/targets/NUCLEO-L496ZG/src\uart_at.c ****                 cpylen = ring_buffer_read(&g_atio_cb.rcvring,(unsigned char *)buf,readlen);
 263:D:/fchai/work/i-cube/I-CUBE-HUAWEI/Middlewares/Third_Party/Huawei/targets/NUCLEO-L496ZG/src\uart_at.c ****                 if(cpylen != framelen)
 264:D:/fchai/work/i-cube/I-CUBE-HUAWEI/Middlewares/Third_Party/Huawei/targets/NUCLEO-L496ZG/src\uart_at.c ****                 {
 265:D:/fchai/work/i-cube/I-CUBE-HUAWEI/Middlewares/Third_Party/Huawei/targets/NUCLEO-L496ZG/src\uart_at.c ****                     ring_buffer_reset(&g_atio_cb.rcvring);  //bad ring format here
 266:D:/fchai/work/i-cube/I-CUBE-HUAWEI/Middlewares/Third_Party/Huawei/targets/NUCLEO-L496ZG/src\uart_at.c ****                     g_atio_cb.rcvringrst++;
 267:D:/fchai/work/i-cube/I-CUBE-HUAWEI/Middlewares/Third_Party/Huawei/targets/NUCLEO-L496ZG/src\uart_at.c ****                 }
 268:D:/fchai/work/i-cube/I-CUBE-HUAWEI/Middlewares/Third_Party/Huawei/targets/NUCLEO-L496ZG/src\uart_at.c ****                 else
ARM GAS  T:\msys\tmp\cc5gVzTt.s 			page 12


 269:D:/fchai/work/i-cube/I-CUBE-HUAWEI/Middlewares/Third_Party/Huawei/targets/NUCLEO-L496ZG/src\uart_at.c ****                 {
 270:D:/fchai/work/i-cube/I-CUBE-HUAWEI/Middlewares/Third_Party/Huawei/targets/NUCLEO-L496ZG/src\uart_at.c ****                     ret = cpylen;
 271:D:/fchai/work/i-cube/I-CUBE-HUAWEI/Middlewares/Third_Party/Huawei/targets/NUCLEO-L496ZG/src\uart_at.c ****                 }
 272:D:/fchai/work/i-cube/I-CUBE-HUAWEI/Middlewares/Third_Party/Huawei/targets/NUCLEO-L496ZG/src\uart_at.c ****             }
 273:D:/fchai/work/i-cube/I-CUBE-HUAWEI/Middlewares/Third_Party/Huawei/targets/NUCLEO-L496ZG/src\uart_at.c ****         }
 274:D:/fchai/work/i-cube/I-CUBE-HUAWEI/Middlewares/Third_Party/Huawei/targets/NUCLEO-L496ZG/src\uart_at.c ****         LOS_IntRestore(lock);
 275:D:/fchai/work/i-cube/I-CUBE-HUAWEI/Middlewares/Third_Party/Huawei/targets/NUCLEO-L496ZG/src\uart_at.c ****     }
 276:D:/fchai/work/i-cube/I-CUBE-HUAWEI/Middlewares/Third_Party/Huawei/targets/NUCLEO-L496ZG/src\uart_at.c ****     return ret;
 277:D:/fchai/work/i-cube/I-CUBE-HUAWEI/Middlewares/Third_Party/Huawei/targets/NUCLEO-L496ZG/src\uart_at.c **** }
 278:D:/fchai/work/i-cube/I-CUBE-HUAWEI/Middlewares/Third_Party/Huawei/targets/NUCLEO-L496ZG/src\uart_at.c **** 
 279:D:/fchai/work/i-cube/I-CUBE-HUAWEI/Middlewares/Third_Party/Huawei/targets/NUCLEO-L496ZG/src\uart_at.c **** //make it as the at device here
 280:D:/fchai/work/i-cube/I-CUBE-HUAWEI/Middlewares/Third_Party/Huawei/targets/NUCLEO-L496ZG/src\uart_at.c **** static ssize_t  __at_read  (void *pri,size_t offset,void *buf,size_t len, uint32_t timeout)
 281:D:/fchai/work/i-cube/I-CUBE-HUAWEI/Middlewares/Third_Party/Huawei/targets/NUCLEO-L496ZG/src\uart_at.c **** {
 282:D:/fchai/work/i-cube/I-CUBE-HUAWEI/Middlewares/Third_Party/Huawei/targets/NUCLEO-L496ZG/src\uart_at.c ****     return uart_at_receive(buf,len, timeout);
 283:D:/fchai/work/i-cube/I-CUBE-HUAWEI/Middlewares/Third_Party/Huawei/targets/NUCLEO-L496ZG/src\uart_at.c **** 
 284:D:/fchai/work/i-cube/I-CUBE-HUAWEI/Middlewares/Third_Party/Huawei/targets/NUCLEO-L496ZG/src\uart_at.c **** }
 285:D:/fchai/work/i-cube/I-CUBE-HUAWEI/Middlewares/Third_Party/Huawei/targets/NUCLEO-L496ZG/src\uart_at.c **** static ssize_t  __at_write (void *pri, size_t offset,const void *buf,size_t len,uint32_t timeout)
 286:D:/fchai/work/i-cube/I-CUBE-HUAWEI/Middlewares/Third_Party/Huawei/targets/NUCLEO-L496ZG/src\uart_at.c **** {
 315              		.loc 1 286 1 is_stmt 1 view -0
 316              		.cfi_startproc
 317              		@ args = 4, pretend = 0, frame = 0
 318              		@ frame_needed = 0, uses_anonymous_args = 0
 319              		.loc 1 286 1 is_stmt 0 view .LVU88
 320 0000 70B5     		push	{r4, r5, r6, lr}
 321              	.LCFI11:
 322              		.cfi_def_cfa_offset 16
 323              		.cfi_offset 4, -16
 324              		.cfi_offset 5, -12
 325              		.cfi_offset 6, -8
 326              		.cfi_offset 14, -4
 327              	.LBB4:
 328              	.LBB5:
 218:D:/fchai/work/i-cube/I-CUBE-HUAWEI/Middlewares/Third_Party/Huawei/targets/NUCLEO-L496ZG/src\uart_at.c ****     {
 329              		.loc 1 218 8 view .LVU89
 330 0002 104D     		ldr	r5, .L21
 331 0004 A868     		ldr	r0, [r5, #8]
 332              	.LVL13:
 218:D:/fchai/work/i-cube/I-CUBE-HUAWEI/Middlewares/Third_Party/Huawei/targets/NUCLEO-L496ZG/src\uart_at.c ****     {
 333              		.loc 1 218 8 view .LVU90
 334              	.LBE5:
 335              	.LBE4:
 336              		.loc 1 286 1 view .LVU91
 337 0006 1646     		mov	r6, r2
 287:D:/fchai/work/i-cube/I-CUBE-HUAWEI/Middlewares/Third_Party/Huawei/targets/NUCLEO-L496ZG/src\uart_at.c ****     return uart_at_send(buf, len, timeout);
 338              		.loc 1 287 5 is_stmt 1 view .LVU92
 339              	.LVL14:
 340              	.LBB9:
 341              	.LBI4:
 215:D:/fchai/work/i-cube/I-CUBE-HUAWEI/Middlewares/Third_Party/Huawei/targets/NUCLEO-L496ZG/src\uart_at.c **** {
 342              		.loc 1 215 16 view .LVU93
 343              	.LBB6:
 217:D:/fchai/work/i-cube/I-CUBE-HUAWEI/Middlewares/Third_Party/Huawei/targets/NUCLEO-L496ZG/src\uart_at.c ****     if(osal_mutex_lock(g_atio_cb.wlock))
 344              		.loc 1 217 5 view .LVU94
 218:D:/fchai/work/i-cube/I-CUBE-HUAWEI/Middlewares/Third_Party/Huawei/targets/NUCLEO-L496ZG/src\uart_at.c ****     {
 345              		.loc 1 218 5 view .LVU95
 346              	.LBE6:
 347              	.LBE9:
ARM GAS  T:\msys\tmp\cc5gVzTt.s 			page 13


 286:D:/fchai/work/i-cube/I-CUBE-HUAWEI/Middlewares/Third_Party/Huawei/targets/NUCLEO-L496ZG/src\uart_at.c ****     return uart_at_send(buf, len, timeout);
 348              		.loc 1 286 1 is_stmt 0 view .LVU96
 349 0008 1C46     		mov	r4, r3
 350              	.LBB10:
 351              	.LBB7:
 218:D:/fchai/work/i-cube/I-CUBE-HUAWEI/Middlewares/Third_Party/Huawei/targets/NUCLEO-L496ZG/src\uart_at.c ****     {
 352              		.loc 1 218 8 view .LVU97
 353 000a FFF7FEFF 		bl	osal_mutex_lock
 354              	.LVL15:
 218:D:/fchai/work/i-cube/I-CUBE-HUAWEI/Middlewares/Third_Party/Huawei/targets/NUCLEO-L496ZG/src\uart_at.c ****     {
 355              		.loc 1 218 7 view .LVU98
 356 000e A8B1     		cbz	r0, .L19
 220:D:/fchai/work/i-cube/I-CUBE-HUAWEI/Middlewares/Third_Party/Huawei/targets/NUCLEO-L496ZG/src\uart_at.c ****         g_atio_cb.sndlen += len;
 357              		.loc 1 220 9 is_stmt 1 view .LVU99
 358 0010 0D4B     		ldr	r3, .L21+4
 359 0012 3146     		mov	r1, r6
 360 0014 1868     		ldr	r0, [r3]
 361 0016 049B     		ldr	r3, [sp, #16]
 362 0018 A2B2     		uxth	r2, r4
 363 001a FFF7FEFF 		bl	HAL_UART_Transmit
 364              	.LVL16:
 221:D:/fchai/work/i-cube/I-CUBE-HUAWEI/Middlewares/Third_Party/Huawei/targets/NUCLEO-L496ZG/src\uart_at.c ****         g_atio_cb.sndframe ++;
 365              		.loc 1 221 9 view .LVU100
 221:D:/fchai/work/i-cube/I-CUBE-HUAWEI/Middlewares/Third_Party/Huawei/targets/NUCLEO-L496ZG/src\uart_at.c ****         g_atio_cb.sndframe ++;
 366              		.loc 1 221 26 is_stmt 0 view .LVU101
 367 001e 45F22406 		movw	r6, #20516
 368              	.LVL17:
 222:D:/fchai/work/i-cube/I-CUBE-HUAWEI/Middlewares/Third_Party/Huawei/targets/NUCLEO-L496ZG/src\uart_at.c **** 
 369              		.loc 1 222 28 view .LVU102
 370 0022 45F22C01 		movw	r1, #20524
 221:D:/fchai/work/i-cube/I-CUBE-HUAWEI/Middlewares/Third_Party/Huawei/targets/NUCLEO-L496ZG/src\uart_at.c ****         g_atio_cb.sndframe ++;
 371              		.loc 1 221 26 view .LVU103
 372 0026 AA59     		ldr	r2, [r5, r6]
 222:D:/fchai/work/i-cube/I-CUBE-HUAWEI/Middlewares/Third_Party/Huawei/targets/NUCLEO-L496ZG/src\uart_at.c **** 
 373              		.loc 1 222 28 view .LVU104
 374 0028 6B58     		ldr	r3, [r5, r1]
 226:D:/fchai/work/i-cube/I-CUBE-HUAWEI/Middlewares/Third_Party/Huawei/targets/NUCLEO-L496ZG/src\uart_at.c ****     }
 375              		.loc 1 226 9 view .LVU105
 376 002a A868     		ldr	r0, [r5, #8]
 221:D:/fchai/work/i-cube/I-CUBE-HUAWEI/Middlewares/Third_Party/Huawei/targets/NUCLEO-L496ZG/src\uart_at.c ****         g_atio_cb.sndframe ++;
 377              		.loc 1 221 26 view .LVU106
 378 002c 2244     		add	r2, r2, r4
 222:D:/fchai/work/i-cube/I-CUBE-HUAWEI/Middlewares/Third_Party/Huawei/targets/NUCLEO-L496ZG/src\uart_at.c **** 
 379              		.loc 1 222 28 view .LVU107
 380 002e 0133     		adds	r3, r3, #1
 221:D:/fchai/work/i-cube/I-CUBE-HUAWEI/Middlewares/Third_Party/Huawei/targets/NUCLEO-L496ZG/src\uart_at.c ****         g_atio_cb.sndframe ++;
 381              		.loc 1 221 26 view .LVU108
 382 0030 AA51     		str	r2, [r5, r6]
 222:D:/fchai/work/i-cube/I-CUBE-HUAWEI/Middlewares/Third_Party/Huawei/targets/NUCLEO-L496ZG/src\uart_at.c **** 
 383              		.loc 1 222 9 is_stmt 1 view .LVU109
 222:D:/fchai/work/i-cube/I-CUBE-HUAWEI/Middlewares/Third_Party/Huawei/targets/NUCLEO-L496ZG/src\uart_at.c **** 
 384              		.loc 1 222 28 is_stmt 0 view .LVU110
 385 0032 6B50     		str	r3, [r5, r1]
 224:D:/fchai/work/i-cube/I-CUBE-HUAWEI/Middlewares/Third_Party/Huawei/targets/NUCLEO-L496ZG/src\uart_at.c **** 
 386              		.loc 1 224 9 is_stmt 1 view .LVU111
 387              	.LVL18:
 226:D:/fchai/work/i-cube/I-CUBE-HUAWEI/Middlewares/Third_Party/Huawei/targets/NUCLEO-L496ZG/src\uart_at.c ****     }
ARM GAS  T:\msys\tmp\cc5gVzTt.s 			page 14


 388              		.loc 1 226 9 view .LVU112
 389 0034 FFF7FEFF 		bl	osal_mutex_unlock
 390              	.LVL19:
 391              	.L17:
 226:D:/fchai/work/i-cube/I-CUBE-HUAWEI/Middlewares/Third_Party/Huawei/targets/NUCLEO-L496ZG/src\uart_at.c ****     }
 392              		.loc 1 226 9 is_stmt 0 view .LVU113
 393              	.LBE7:
 394              	.LBE10:
 288:D:/fchai/work/i-cube/I-CUBE-HUAWEI/Middlewares/Third_Party/Huawei/targets/NUCLEO-L496ZG/src\uart_at.c **** }
 395              		.loc 1 288 1 view .LVU114
 396 0038 2046     		mov	r0, r4
 397 003a 70BD     		pop	{r4, r5, r6, pc}
 398              	.LVL20:
 399              	.L19:
 400              	.LBB11:
 401              	.LBB8:
 217:D:/fchai/work/i-cube/I-CUBE-HUAWEI/Middlewares/Third_Party/Huawei/targets/NUCLEO-L496ZG/src\uart_at.c ****     if(osal_mutex_lock(g_atio_cb.wlock))
 402              		.loc 1 217 9 view .LVU115
 403 003c 4FF0FF34 		mov	r4, #-1
 404              	.LVL21:
 228:D:/fchai/work/i-cube/I-CUBE-HUAWEI/Middlewares/Third_Party/Huawei/targets/NUCLEO-L496ZG/src\uart_at.c **** }
 405              		.loc 1 228 5 is_stmt 1 view .LVU116
 228:D:/fchai/work/i-cube/I-CUBE-HUAWEI/Middlewares/Third_Party/Huawei/targets/NUCLEO-L496ZG/src\uart_at.c **** }
 406              		.loc 1 228 5 is_stmt 0 view .LVU117
 407              	.LBE8:
 408              	.LBE11:
 287:D:/fchai/work/i-cube/I-CUBE-HUAWEI/Middlewares/Third_Party/Huawei/targets/NUCLEO-L496ZG/src\uart_at.c **** }
 409              		.loc 1 287 12 view .LVU118
 410 0040 FAE7     		b	.L17
 411              	.L22:
 412 0042 00BF     		.align	2
 413              	.L21:
 414 0044 00000000 		.word	g_atio_cb
 415 0048 00000000 		.word	.LANCHOR0
 416              		.cfi_endproc
 417              	.LFE139:
 419              		.section	.text.__at_read,"ax",%progbits
 420              		.align	1
 421              		.p2align 2,,3
 422              		.syntax unified
 423              		.thumb
 424              		.thumb_func
 425              		.fpu fpv4-sp-d16
 427              	__at_read:
 428              	.LVL22:
 429              	.LFB138:
 281:D:/fchai/work/i-cube/I-CUBE-HUAWEI/Middlewares/Third_Party/Huawei/targets/NUCLEO-L496ZG/src\uart_at.c ****     return uart_at_receive(buf,len, timeout);
 430              		.loc 1 281 1 is_stmt 1 view -0
 431              		.cfi_startproc
 432              		@ args = 4, pretend = 0, frame = 8
 433              		@ frame_needed = 0, uses_anonymous_args = 0
 282:D:/fchai/work/i-cube/I-CUBE-HUAWEI/Middlewares/Third_Party/Huawei/targets/NUCLEO-L496ZG/src\uart_at.c **** 
 434              		.loc 1 282 5 view .LVU120
 281:D:/fchai/work/i-cube/I-CUBE-HUAWEI/Middlewares/Third_Party/Huawei/targets/NUCLEO-L496ZG/src\uart_at.c ****     return uart_at_receive(buf,len, timeout);
 435              		.loc 1 281 1 is_stmt 0 view .LVU121
 436 0000 2DE9F041 		push	{r4, r5, r6, r7, r8, lr}
 437              	.LCFI12:
ARM GAS  T:\msys\tmp\cc5gVzTt.s 			page 15


 438              		.cfi_def_cfa_offset 24
 439              		.cfi_offset 4, -24
 440              		.cfi_offset 5, -20
 441              		.cfi_offset 6, -16
 442              		.cfi_offset 7, -12
 443              		.cfi_offset 8, -8
 444              		.cfi_offset 14, -4
 445              	.LBB14:
 446              	.LBB15:
 242:D:/fchai/work/i-cube/I-CUBE-HUAWEI/Middlewares/Third_Party/Huawei/targets/NUCLEO-L496ZG/src\uart_at.c ****     {
 447              		.loc 1 242 8 view .LVU122
 448 0004 1E4E     		ldr	r6, .L37
 449              	.LBE15:
 450              	.LBE14:
 281:D:/fchai/work/i-cube/I-CUBE-HUAWEI/Middlewares/Third_Party/Huawei/targets/NUCLEO-L496ZG/src\uart_at.c ****     return uart_at_receive(buf,len, timeout);
 451              		.loc 1 281 1 view .LVU123
 452 0006 82B0     		sub	sp, sp, #8
 453              	.LCFI13:
 454              		.cfi_def_cfa_offset 32
 455              	.LBB20:
 456              	.LBB16:
 242:D:/fchai/work/i-cube/I-CUBE-HUAWEI/Middlewares/Third_Party/Huawei/targets/NUCLEO-L496ZG/src\uart_at.c ****     {
 457              		.loc 1 242 8 view .LVU124
 458 0008 7068     		ldr	r0, [r6, #4]
 459              	.LVL23:
 242:D:/fchai/work/i-cube/I-CUBE-HUAWEI/Middlewares/Third_Party/Huawei/targets/NUCLEO-L496ZG/src\uart_at.c ****     {
 460              		.loc 1 242 8 view .LVU125
 461 000a 0899     		ldr	r1, [sp, #32]
 462              	.LVL24:
 242:D:/fchai/work/i-cube/I-CUBE-HUAWEI/Middlewares/Third_Party/Huawei/targets/NUCLEO-L496ZG/src\uart_at.c ****     {
 463              		.loc 1 242 8 view .LVU126
 464              	.LBE16:
 465              	.LBE20:
 281:D:/fchai/work/i-cube/I-CUBE-HUAWEI/Middlewares/Third_Party/Huawei/targets/NUCLEO-L496ZG/src\uart_at.c ****     return uart_at_receive(buf,len, timeout);
 466              		.loc 1 281 1 view .LVU127
 467 000c 1746     		mov	r7, r2
 468              	.LVL25:
 281:D:/fchai/work/i-cube/I-CUBE-HUAWEI/Middlewares/Third_Party/Huawei/targets/NUCLEO-L496ZG/src\uart_at.c ****     return uart_at_receive(buf,len, timeout);
 469              		.loc 1 281 1 view .LVU128
 470 000e 1D46     		mov	r5, r3
 471              	.LVL26:
 472              	.LBB21:
 473              	.LBI14:
 235:D:/fchai/work/i-cube/I-CUBE-HUAWEI/Middlewares/Third_Party/Huawei/targets/NUCLEO-L496ZG/src\uart_at.c **** {
 474              		.loc 1 235 16 is_stmt 1 view .LVU129
 475              	.LBB17:
 237:D:/fchai/work/i-cube/I-CUBE-HUAWEI/Middlewares/Third_Party/Huawei/targets/NUCLEO-L496ZG/src\uart_at.c ****     unsigned short framelen;
 476              		.loc 1 237 5 view .LVU130
 238:D:/fchai/work/i-cube/I-CUBE-HUAWEI/Middlewares/Third_Party/Huawei/targets/NUCLEO-L496ZG/src\uart_at.c ****     unsigned short readlen;
 477              		.loc 1 238 5 view .LVU131
 239:D:/fchai/work/i-cube/I-CUBE-HUAWEI/Middlewares/Third_Party/Huawei/targets/NUCLEO-L496ZG/src\uart_at.c ****     int32_t ret = 0;
 478              		.loc 1 239 5 view .LVU132
 240:D:/fchai/work/i-cube/I-CUBE-HUAWEI/Middlewares/Third_Party/Huawei/targets/NUCLEO-L496ZG/src\uart_at.c ****     unsigned int lock;
 479              		.loc 1 240 5 view .LVU133
 241:D:/fchai/work/i-cube/I-CUBE-HUAWEI/Middlewares/Third_Party/Huawei/targets/NUCLEO-L496ZG/src\uart_at.c ****     if(osal_semp_pend(g_atio_cb.rcvsync,timeout))
 480              		.loc 1 241 5 view .LVU134
 242:D:/fchai/work/i-cube/I-CUBE-HUAWEI/Middlewares/Third_Party/Huawei/targets/NUCLEO-L496ZG/src\uart_at.c ****     {
ARM GAS  T:\msys\tmp\cc5gVzTt.s 			page 16


 481              		.loc 1 242 5 view .LVU135
 242:D:/fchai/work/i-cube/I-CUBE-HUAWEI/Middlewares/Third_Party/Huawei/targets/NUCLEO-L496ZG/src\uart_at.c ****     {
 482              		.loc 1 242 8 is_stmt 0 view .LVU136
 483 0010 FFF7FEFF 		bl	osal_semp_pend
 484              	.LVL27:
 242:D:/fchai/work/i-cube/I-CUBE-HUAWEI/Middlewares/Third_Party/Huawei/targets/NUCLEO-L496ZG/src\uart_at.c ****     {
 485              		.loc 1 242 7 view .LVU137
 486 0014 20B9     		cbnz	r0, .L35
 487 0016 0446     		mov	r4, r0
 488              	.LBE17:
 489              	.LBE21:
 284:D:/fchai/work/i-cube/I-CUBE-HUAWEI/Middlewares/Third_Party/Huawei/targets/NUCLEO-L496ZG/src\uart_at.c **** static ssize_t  __at_write (void *pri, size_t offset,const void *buf,size_t len,uint32_t timeout)
 490              		.loc 1 284 1 view .LVU138
 491 0018 2046     		mov	r0, r4
 492 001a 02B0     		add	sp, sp, #8
 493              	.LCFI14:
 494              		.cfi_remember_state
 495              		.cfi_def_cfa_offset 24
 496              		@ sp needed
 497 001c BDE8F081 		pop	{r4, r5, r6, r7, r8, pc}
 498              	.LVL28:
 499              	.L35:
 500              	.LCFI15:
 501              		.cfi_restore_state
 502              	.LBB22:
 503              	.LBB18:
 244:D:/fchai/work/i-cube/I-CUBE-HUAWEI/Middlewares/Third_Party/Huawei/targets/NUCLEO-L496ZG/src\uart_at.c ****         readlen = sizeof(framelen);
 504              		.loc 1 244 9 is_stmt 1 view .LVU139
 244:D:/fchai/work/i-cube/I-CUBE-HUAWEI/Middlewares/Third_Party/Huawei/targets/NUCLEO-L496ZG/src\uart_at.c ****         readlen = sizeof(framelen);
 505              		.loc 1 244 16 is_stmt 0 view .LVU140
 506 0020 FFF7FEFF 		bl	LOS_IntLock
 507              	.LVL29:
 246:D:/fchai/work/i-cube/I-CUBE-HUAWEI/Middlewares/Third_Party/Huawei/targets/NUCLEO-L496ZG/src\uart_at.c ****         if(cpylen != readlen)
 508              		.loc 1 246 18 view .LVU141
 509 0024 0222     		movs	r2, #2
 244:D:/fchai/work/i-cube/I-CUBE-HUAWEI/Middlewares/Third_Party/Huawei/targets/NUCLEO-L496ZG/src\uart_at.c ****         readlen = sizeof(framelen);
 510              		.loc 1 244 16 view .LVU142
 511 0026 8046     		mov	r8, r0
 246:D:/fchai/work/i-cube/I-CUBE-HUAWEI/Middlewares/Third_Party/Huawei/targets/NUCLEO-L496ZG/src\uart_at.c ****         if(cpylen != readlen)
 512              		.loc 1 246 18 view .LVU143
 513 0028 0DF10601 		add	r1, sp, #6
 514 002c 06F10C00 		add	r0, r6, #12
 515              	.LVL30:
 245:D:/fchai/work/i-cube/I-CUBE-HUAWEI/Middlewares/Third_Party/Huawei/targets/NUCLEO-L496ZG/src\uart_at.c ****         cpylen = ring_buffer_read(&g_atio_cb.rcvring,(unsigned char *)&framelen,readlen);
 516              		.loc 1 245 9 is_stmt 1 view .LVU144
 246:D:/fchai/work/i-cube/I-CUBE-HUAWEI/Middlewares/Third_Party/Huawei/targets/NUCLEO-L496ZG/src\uart_at.c ****         if(cpylen != readlen)
 517              		.loc 1 246 9 view .LVU145
 246:D:/fchai/work/i-cube/I-CUBE-HUAWEI/Middlewares/Third_Party/Huawei/targets/NUCLEO-L496ZG/src\uart_at.c ****         if(cpylen != readlen)
 518              		.loc 1 246 18 is_stmt 0 view .LVU146
 519 0030 FFF7FEFF 		bl	ring_buffer_read
 520              	.LVL31:
 247:D:/fchai/work/i-cube/I-CUBE-HUAWEI/Middlewares/Third_Party/Huawei/targets/NUCLEO-L496ZG/src\uart_at.c ****         {
 521              		.loc 1 247 9 is_stmt 1 view .LVU147
 247:D:/fchai/work/i-cube/I-CUBE-HUAWEI/Middlewares/Third_Party/Huawei/targets/NUCLEO-L496ZG/src\uart_at.c ****         {
 522              		.loc 1 247 11 is_stmt 0 view .LVU148
 523 0034 80B2     		uxth	r0, r0
 247:D:/fchai/work/i-cube/I-CUBE-HUAWEI/Middlewares/Third_Party/Huawei/targets/NUCLEO-L496ZG/src\uart_at.c ****         {
ARM GAS  T:\msys\tmp\cc5gVzTt.s 			page 17


 524              		.loc 1 247 11 view .LVU149
 525 0036 0228     		cmp	r0, #2
 526 0038 0FD1     		bne	.L27
 254:D:/fchai/work/i-cube/I-CUBE-HUAWEI/Middlewares/Third_Party/Huawei/targets/NUCLEO-L496ZG/src\uart_at.c ****             {
 527              		.loc 1 254 13 is_stmt 1 view .LVU150
 254:D:/fchai/work/i-cube/I-CUBE-HUAWEI/Middlewares/Third_Party/Huawei/targets/NUCLEO-L496ZG/src\uart_at.c ****             {
 528              		.loc 1 254 25 is_stmt 0 view .LVU151
 529 003a BDF80620 		ldrh	r2, [sp, #6]
 254:D:/fchai/work/i-cube/I-CUBE-HUAWEI/Middlewares/Third_Party/Huawei/targets/NUCLEO-L496ZG/src\uart_at.c ****             {
 530              		.loc 1 254 15 view .LVU152
 531 003e 9542     		cmp	r5, r2
 532 0040 0BD3     		bcc	.L27
 261:D:/fchai/work/i-cube/I-CUBE-HUAWEI/Middlewares/Third_Party/Huawei/targets/NUCLEO-L496ZG/src\uart_at.c ****                 cpylen = ring_buffer_read(&g_atio_cb.rcvring,(unsigned char *)buf,readlen);
 533              		.loc 1 261 17 is_stmt 1 view .LVU153
 534              	.LVL32:
 262:D:/fchai/work/i-cube/I-CUBE-HUAWEI/Middlewares/Third_Party/Huawei/targets/NUCLEO-L496ZG/src\uart_at.c ****                 if(cpylen != framelen)
 535              		.loc 1 262 17 view .LVU154
 262:D:/fchai/work/i-cube/I-CUBE-HUAWEI/Middlewares/Third_Party/Huawei/targets/NUCLEO-L496ZG/src\uart_at.c ****                 if(cpylen != framelen)
 536              		.loc 1 262 26 is_stmt 0 view .LVU155
 537 0042 3946     		mov	r1, r7
 538 0044 06F10C00 		add	r0, r6, #12
 539              	.LVL33:
 262:D:/fchai/work/i-cube/I-CUBE-HUAWEI/Middlewares/Third_Party/Huawei/targets/NUCLEO-L496ZG/src\uart_at.c ****                 if(cpylen != framelen)
 540              		.loc 1 262 26 view .LVU156
 541 0048 FFF7FEFF 		bl	ring_buffer_read
 542              	.LVL34:
 263:D:/fchai/work/i-cube/I-CUBE-HUAWEI/Middlewares/Third_Party/Huawei/targets/NUCLEO-L496ZG/src\uart_at.c ****                 {
 543              		.loc 1 263 17 is_stmt 1 view .LVU157
 263:D:/fchai/work/i-cube/I-CUBE-HUAWEI/Middlewares/Third_Party/Huawei/targets/NUCLEO-L496ZG/src\uart_at.c ****                 {
 544              		.loc 1 263 19 is_stmt 0 view .LVU158
 545 004c BDF80620 		ldrh	r2, [sp, #6]
 546 0050 83B2     		uxth	r3, r0
 547 0052 9A42     		cmp	r2, r3
 548 0054 11D1     		bne	.L36
 270:D:/fchai/work/i-cube/I-CUBE-HUAWEI/Middlewares/Third_Party/Huawei/targets/NUCLEO-L496ZG/src\uart_at.c ****                 }
 549              		.loc 1 270 21 is_stmt 1 view .LVU159
 550 0056 84B2     		uxth	r4, r0
 551              	.LVL35:
 270:D:/fchai/work/i-cube/I-CUBE-HUAWEI/Middlewares/Third_Party/Huawei/targets/NUCLEO-L496ZG/src\uart_at.c ****                 }
 552              		.loc 1 270 21 is_stmt 0 view .LVU160
 553 0058 08E0     		b	.L26
 554              	.LVL36:
 555              	.L27:
 249:D:/fchai/work/i-cube/I-CUBE-HUAWEI/Middlewares/Third_Party/Huawei/targets/NUCLEO-L496ZG/src\uart_at.c ****             g_atio_cb.rcvringrst++;
 556              		.loc 1 249 13 is_stmt 1 view .LVU161
 557 005a 0A48     		ldr	r0, .L37+4
 558              	.LVL37:
 559              	.L34:
 265:D:/fchai/work/i-cube/I-CUBE-HUAWEI/Middlewares/Third_Party/Huawei/targets/NUCLEO-L496ZG/src\uart_at.c ****                     g_atio_cb.rcvringrst++;
 560              		.loc 1 265 21 is_stmt 0 view .LVU162
 561 005c FFF7FEFF 		bl	ring_buffer_reset
 562              	.LVL38:
 266:D:/fchai/work/i-cube/I-CUBE-HUAWEI/Middlewares/Third_Party/Huawei/targets/NUCLEO-L496ZG/src\uart_at.c ****                 }
 563              		.loc 1 266 21 is_stmt 1 view .LVU163
 266:D:/fchai/work/i-cube/I-CUBE-HUAWEI/Middlewares/Third_Party/Huawei/targets/NUCLEO-L496ZG/src\uart_at.c ****                 }
 564              		.loc 1 266 41 is_stmt 0 view .LVU164
 565 0060 45F23402 		movw	r2, #20532
ARM GAS  T:\msys\tmp\cc5gVzTt.s 			page 18


 240:D:/fchai/work/i-cube/I-CUBE-HUAWEI/Middlewares/Third_Party/Huawei/targets/NUCLEO-L496ZG/src\uart_at.c ****     unsigned int lock;
 566              		.loc 1 240 13 view .LVU165
 567 0064 0024     		movs	r4, #0
 266:D:/fchai/work/i-cube/I-CUBE-HUAWEI/Middlewares/Third_Party/Huawei/targets/NUCLEO-L496ZG/src\uart_at.c ****                 }
 568              		.loc 1 266 41 view .LVU166
 569 0066 B358     		ldr	r3, [r6, r2]
 570 0068 0133     		adds	r3, r3, #1
 571 006a B350     		str	r3, [r6, r2]
 572              	.LVL39:
 573              	.L26:
 274:D:/fchai/work/i-cube/I-CUBE-HUAWEI/Middlewares/Third_Party/Huawei/targets/NUCLEO-L496ZG/src\uart_at.c ****     }
 574              		.loc 1 274 9 is_stmt 1 view .LVU167
 575 006c 4046     		mov	r0, r8
 576 006e FFF7FEFF 		bl	LOS_IntRestore
 577              	.LVL40:
 276:D:/fchai/work/i-cube/I-CUBE-HUAWEI/Middlewares/Third_Party/Huawei/targets/NUCLEO-L496ZG/src\uart_at.c **** }
 578              		.loc 1 276 5 view .LVU168
 276:D:/fchai/work/i-cube/I-CUBE-HUAWEI/Middlewares/Third_Party/Huawei/targets/NUCLEO-L496ZG/src\uart_at.c **** }
 579              		.loc 1 276 5 is_stmt 0 view .LVU169
 580              	.LBE18:
 581              	.LBE22:
 284:D:/fchai/work/i-cube/I-CUBE-HUAWEI/Middlewares/Third_Party/Huawei/targets/NUCLEO-L496ZG/src\uart_at.c **** static ssize_t  __at_write (void *pri, size_t offset,const void *buf,size_t len,uint32_t timeout)
 582              		.loc 1 284 1 view .LVU170
 583 0072 2046     		mov	r0, r4
 584 0074 02B0     		add	sp, sp, #8
 585              	.LCFI16:
 586              		.cfi_remember_state
 587              		.cfi_def_cfa_offset 24
 588              		@ sp needed
 589 0076 BDE8F081 		pop	{r4, r5, r6, r7, r8, pc}
 590              	.LVL41:
 591              	.L36:
 592              	.LCFI17:
 593              		.cfi_restore_state
 594              	.LBB23:
 595              	.LBB19:
 265:D:/fchai/work/i-cube/I-CUBE-HUAWEI/Middlewares/Third_Party/Huawei/targets/NUCLEO-L496ZG/src\uart_at.c ****                     g_atio_cb.rcvringrst++;
 596              		.loc 1 265 21 is_stmt 1 view .LVU171
 597 007a 06F10C00 		add	r0, r6, #12
 598              	.LVL42:
 265:D:/fchai/work/i-cube/I-CUBE-HUAWEI/Middlewares/Third_Party/Huawei/targets/NUCLEO-L496ZG/src\uart_at.c ****                     g_atio_cb.rcvringrst++;
 599              		.loc 1 265 21 is_stmt 0 view .LVU172
 600 007e EDE7     		b	.L34
 601              	.L38:
 602              		.align	2
 603              	.L37:
 604 0080 00000000 		.word	g_atio_cb
 605 0084 0C000000 		.word	g_atio_cb+12
 606              	.LBE19:
 607              	.LBE23:
 608              		.cfi_endproc
 609              	.LFE138:
 611              		.section	.rodata.uart_at_init.str1.4,"aMS",%progbits,1
 612              		.align	2
 613              	.LC0:
 614 0000 25733A73 		.ascii	"%s:semp create error\012\015\000"
 614      656D7020 
ARM GAS  T:\msys\tmp\cc5gVzTt.s 			page 19


 614      63726561 
 614      74652065 
 614      72726F72 
 615 0017 00       		.align	2
 616              	.LC1:
 617 0018 25733A6D 		.ascii	"%s:mutex create error\012\015\000"
 617      75746578 
 617      20637265 
 617      61746520 
 617      6572726F 
 618              		.align	2
 619              	.LC2:
 620 0030 25733A48 		.ascii	"%s:HAL_UART_Init fail\012\015\000"
 620      414C5F55 
 620      4152545F 
 620      496E6974 
 620      20666169 
 621              		.section	.text.uart_at_init,"ax",%progbits
 622              		.align	1
 623              		.p2align 2,,3
 624              		.global	uart_at_init
 625              		.syntax unified
 626              		.thumb
 627              		.thumb_func
 628              		.fpu fpv4-sp-d16
 630              	uart_at_init:
 631              	.LVL43:
 632              	.LFB134:
 154:D:/fchai/work/i-cube/I-CUBE-HUAWEI/Middlewares/Third_Party/Huawei/targets/NUCLEO-L496ZG/src\uart_at.c ****     //initialize the at controller
 633              		.loc 1 154 1 is_stmt 1 view -0
 634              		.cfi_startproc
 635              		@ args = 0, pretend = 0, frame = 0
 636              		@ frame_needed = 0, uses_anonymous_args = 0
 156:D:/fchai/work/i-cube/I-CUBE-HUAWEI/Middlewares/Third_Party/Huawei/targets/NUCLEO-L496ZG/src\uart_at.c ****     if(false == osal_semp_create(&g_atio_cb.rcvsync,CN_RCVMEM_LEN,0))
 637              		.loc 1 156 5 view .LVU174
 154:D:/fchai/work/i-cube/I-CUBE-HUAWEI/Middlewares/Third_Party/Huawei/targets/NUCLEO-L496ZG/src\uart_at.c ****     //initialize the at controller
 638              		.loc 1 154 1 is_stmt 0 view .LVU175
 639 0000 70B5     		push	{r4, r5, r6, lr}
 640              	.LCFI18:
 641              		.cfi_def_cfa_offset 16
 642              		.cfi_offset 4, -16
 643              		.cfi_offset 5, -12
 644              		.cfi_offset 6, -8
 645              		.cfi_offset 14, -4
 156:D:/fchai/work/i-cube/I-CUBE-HUAWEI/Middlewares/Third_Party/Huawei/targets/NUCLEO-L496ZG/src\uart_at.c ****     if(false == osal_semp_create(&g_atio_cb.rcvsync,CN_RCVMEM_LEN,0))
 646              		.loc 1 156 12 view .LVU176
 647 0002 344D     		ldr	r5, .L48
 154:D:/fchai/work/i-cube/I-CUBE-HUAWEI/Middlewares/Third_Party/Huawei/targets/NUCLEO-L496ZG/src\uart_at.c ****     //initialize the at controller
 648              		.loc 1 154 1 view .LVU177
 649 0004 82B0     		sub	sp, sp, #8
 650              	.LCFI19:
 651              		.cfi_def_cfa_offset 24
 156:D:/fchai/work/i-cube/I-CUBE-HUAWEI/Middlewares/Third_Party/Huawei/targets/NUCLEO-L496ZG/src\uart_at.c ****     if(false == osal_semp_create(&g_atio_cb.rcvsync,CN_RCVMEM_LEN,0))
 652              		.loc 1 156 12 view .LVU178
 653 0006 45F23802 		movw	r2, #20536
 654 000a 0021     		movs	r1, #0
 655 000c 2846     		mov	r0, r5
ARM GAS  T:\msys\tmp\cc5gVzTt.s 			page 20


 656              	.LVL44:
 156:D:/fchai/work/i-cube/I-CUBE-HUAWEI/Middlewares/Third_Party/Huawei/targets/NUCLEO-L496ZG/src\uart_at.c ****     if(false == osal_semp_create(&g_atio_cb.rcvsync,CN_RCVMEM_LEN,0))
 657              		.loc 1 156 12 view .LVU179
 658 000e FFF7FEFF 		bl	memset
 659              	.LVL45:
 157:D:/fchai/work/i-cube/I-CUBE-HUAWEI/Middlewares/Third_Party/Huawei/targets/NUCLEO-L496ZG/src\uart_at.c ****     {
 660              		.loc 1 157 5 is_stmt 1 view .LVU180
 157:D:/fchai/work/i-cube/I-CUBE-HUAWEI/Middlewares/Third_Party/Huawei/targets/NUCLEO-L496ZG/src\uart_at.c ****     {
 661              		.loc 1 157 17 is_stmt 0 view .LVU181
 662 0012 281D     		adds	r0, r5, #4
 663 0014 0022     		movs	r2, #0
 664 0016 4FF42051 		mov	r1, #10240
 665 001a FFF7FEFF 		bl	osal_semp_create
 666              	.LVL46:
 157:D:/fchai/work/i-cube/I-CUBE-HUAWEI/Middlewares/Third_Party/Huawei/targets/NUCLEO-L496ZG/src\uart_at.c ****     {
 667              		.loc 1 157 7 view .LVU182
 668 001e 0028     		cmp	r0, #0
 669 0020 48D0     		beq	.L45
 163:D:/fchai/work/i-cube/I-CUBE-HUAWEI/Middlewares/Third_Party/Huawei/targets/NUCLEO-L496ZG/src\uart_at.c ****     {
 670              		.loc 1 163 5 is_stmt 1 view .LVU183
 163:D:/fchai/work/i-cube/I-CUBE-HUAWEI/Middlewares/Third_Party/Huawei/targets/NUCLEO-L496ZG/src\uart_at.c ****     {
 671              		.loc 1 163 17 is_stmt 0 view .LVU184
 672 0022 05F10800 		add	r0, r5, #8
 673 0026 FFF7FEFF 		bl	osal_mutex_create
 674              	.LVL47:
 163:D:/fchai/work/i-cube/I-CUBE-HUAWEI/Middlewares/Third_Party/Huawei/targets/NUCLEO-L496ZG/src\uart_at.c ****     {
 675              		.loc 1 163 7 view .LVU185
 676 002a 0446     		mov	r4, r0
 677 002c 0028     		cmp	r0, #0
 678 002e 34D0     		beq	.L46
 679              	.LBB26:
 680              	.LBI26:
 153:D:/fchai/work/i-cube/I-CUBE-HUAWEI/Middlewares/Third_Party/Huawei/targets/NUCLEO-L496ZG/src\uart_at.c **** {
 681              		.loc 1 153 8 is_stmt 1 view .LVU186
 682              	.LVL48:
 683              	.LBB27:
 169:D:/fchai/work/i-cube/I-CUBE-HUAWEI/Middlewares/Third_Party/Huawei/targets/NUCLEO-L496ZG/src\uart_at.c **** 
 684              		.loc 1 169 5 view .LVU187
 685 0030 0024     		movs	r4, #0
 171:D:/fchai/work/i-cube/I-CUBE-HUAWEI/Middlewares/Third_Party/Huawei/targets/NUCLEO-L496ZG/src\uart_at.c ****     uart_at->Init.BaudRate = CONFIG_UARTAT_BAUDRATE;
 686              		.loc 1 171 12 is_stmt 0 view .LVU188
 687 0032 294E     		ldr	r6, .L48+4
 169:D:/fchai/work/i-cube/I-CUBE-HUAWEI/Middlewares/Third_Party/Huawei/targets/NUCLEO-L496ZG/src\uart_at.c **** 
 688              		.loc 1 169 5 view .LVU189
 689 0034 2949     		ldr	r1, .L48+8
 690 0036 0094     		str	r4, [sp]
 691 0038 2346     		mov	r3, r4
 692 003a 4FF42052 		mov	r2, #10240
 693 003e 05F10C00 		add	r0, r5, #12
 694 0042 FFF7FEFF 		bl	ring_buffer_init
 695              	.LVL49:
 171:D:/fchai/work/i-cube/I-CUBE-HUAWEI/Middlewares/Third_Party/Huawei/targets/NUCLEO-L496ZG/src\uart_at.c ****     uart_at->Init.BaudRate = CONFIG_UARTAT_BAUDRATE;
 696              		.loc 1 171 5 is_stmt 1 view .LVU190
 171:D:/fchai/work/i-cube/I-CUBE-HUAWEI/Middlewares/Third_Party/Huawei/targets/NUCLEO-L496ZG/src\uart_at.c ****     uart_at->Init.BaudRate = CONFIG_UARTAT_BAUDRATE;
 697              		.loc 1 171 12 is_stmt 0 view .LVU191
 698 0046 3068     		ldr	r0, [r6]
 171:D:/fchai/work/i-cube/I-CUBE-HUAWEI/Middlewares/Third_Party/Huawei/targets/NUCLEO-L496ZG/src\uart_at.c ****     uart_at->Init.BaudRate = CONFIG_UARTAT_BAUDRATE;
ARM GAS  T:\msys\tmp\cc5gVzTt.s 			page 21


 699              		.loc 1 171 23 view .LVU192
 700 0048 2549     		ldr	r1, .L48+12
 173:D:/fchai/work/i-cube/I-CUBE-HUAWEI/Middlewares/Third_Party/Huawei/targets/NUCLEO-L496ZG/src\uart_at.c ****     uart_at->Init.StopBits = UART_STOPBITS_1;
 701              		.loc 1 173 30 view .LVU193
 702 004a 8460     		str	r4, [r0, #8]
 172:D:/fchai/work/i-cube/I-CUBE-HUAWEI/Middlewares/Third_Party/Huawei/targets/NUCLEO-L496ZG/src\uart_at.c ****     uart_at->Init.WordLength = UART_WORDLENGTH_8B;
 703              		.loc 1 172 28 view .LVU194
 704 004c 4FF4E132 		mov	r2, #115200
 177:D:/fchai/work/i-cube/I-CUBE-HUAWEI/Middlewares/Third_Party/Huawei/targets/NUCLEO-L496ZG/src\uart_at.c ****     uart_at->Init.OverSampling = UART_OVERSAMPLING_16;
 705              		.loc 1 177 24 view .LVU195
 706 0050 0C23     		movs	r3, #12
 175:D:/fchai/work/i-cube/I-CUBE-HUAWEI/Middlewares/Third_Party/Huawei/targets/NUCLEO-L496ZG/src\uart_at.c ****     uart_at->Init.HwFlowCtl = UART_HWCONTROL_NONE;
 707              		.loc 1 175 26 view .LVU196
 708 0052 C0E90344 		strd	r4, r4, [r0, #12]
 178:D:/fchai/work/i-cube/I-CUBE-HUAWEI/Middlewares/Third_Party/Huawei/targets/NUCLEO-L496ZG/src\uart_at.c ****     if(HAL_UART_Init(uart_at) != HAL_OK)
 709              		.loc 1 178 32 view .LVU197
 710 0056 C0E90644 		strd	r4, r4, [r0, #24]
 172:D:/fchai/work/i-cube/I-CUBE-HUAWEI/Middlewares/Third_Party/Huawei/targets/NUCLEO-L496ZG/src\uart_at.c ****     uart_at->Init.WordLength = UART_WORDLENGTH_8B;
 711              		.loc 1 172 28 view .LVU198
 712 005a C0E90012 		strd	r1, r2, [r0]
 173:D:/fchai/work/i-cube/I-CUBE-HUAWEI/Middlewares/Third_Party/Huawei/targets/NUCLEO-L496ZG/src\uart_at.c ****     uart_at->Init.StopBits = UART_STOPBITS_1;
 713              		.loc 1 173 5 is_stmt 1 view .LVU199
 174:D:/fchai/work/i-cube/I-CUBE-HUAWEI/Middlewares/Third_Party/Huawei/targets/NUCLEO-L496ZG/src\uart_at.c ****     uart_at->Init.Parity = UART_PARITY_NONE;
 714              		.loc 1 174 5 view .LVU200
 175:D:/fchai/work/i-cube/I-CUBE-HUAWEI/Middlewares/Third_Party/Huawei/targets/NUCLEO-L496ZG/src\uart_at.c ****     uart_at->Init.HwFlowCtl = UART_HWCONTROL_NONE;
 715              		.loc 1 175 5 view .LVU201
 176:D:/fchai/work/i-cube/I-CUBE-HUAWEI/Middlewares/Third_Party/Huawei/targets/NUCLEO-L496ZG/src\uart_at.c ****     uart_at->Init.Mode = UART_MODE_TX_RX;
 716              		.loc 1 176 5 view .LVU202
 177:D:/fchai/work/i-cube/I-CUBE-HUAWEI/Middlewares/Third_Party/Huawei/targets/NUCLEO-L496ZG/src\uart_at.c ****     uart_at->Init.OverSampling = UART_OVERSAMPLING_16;
 717              		.loc 1 177 5 view .LVU203
 177:D:/fchai/work/i-cube/I-CUBE-HUAWEI/Middlewares/Third_Party/Huawei/targets/NUCLEO-L496ZG/src\uart_at.c ****     uart_at->Init.OverSampling = UART_OVERSAMPLING_16;
 718              		.loc 1 177 24 is_stmt 0 view .LVU204
 719 005e 4361     		str	r3, [r0, #20]
 178:D:/fchai/work/i-cube/I-CUBE-HUAWEI/Middlewares/Third_Party/Huawei/targets/NUCLEO-L496ZG/src\uart_at.c ****     if(HAL_UART_Init(uart_at) != HAL_OK)
 720              		.loc 1 178 5 is_stmt 1 view .LVU205
 179:D:/fchai/work/i-cube/I-CUBE-HUAWEI/Middlewares/Third_Party/Huawei/targets/NUCLEO-L496ZG/src\uart_at.c ****     {
 721              		.loc 1 179 5 view .LVU206
 179:D:/fchai/work/i-cube/I-CUBE-HUAWEI/Middlewares/Third_Party/Huawei/targets/NUCLEO-L496ZG/src\uart_at.c ****     {
 722              		.loc 1 179 8 is_stmt 0 view .LVU207
 723 0060 FFF7FEFF 		bl	HAL_UART_Init
 724              	.LVL50:
 179:D:/fchai/work/i-cube/I-CUBE-HUAWEI/Middlewares/Third_Party/Huawei/targets/NUCLEO-L496ZG/src\uart_at.c ****     {
 725              		.loc 1 179 7 view .LVU208
 726 0064 0028     		cmp	r0, #0
 727 0066 2DD1     		bne	.L47
 184:D:/fchai/work/i-cube/I-CUBE-HUAWEI/Middlewares/Third_Party/Huawei/targets/NUCLEO-L496ZG/src\uart_at.c ****     LOS_HwiCreate(s_uwIRQn, 3, 0, atio_irq, 0);
 728              		.loc 1 184 5 is_stmt 1 view .LVU209
 729 0068 3268     		ldr	r2, [r6]
 185:D:/fchai/work/i-cube/I-CUBE-HUAWEI/Middlewares/Third_Party/Huawei/targets/NUCLEO-L496ZG/src\uart_at.c ****     __HAL_UART_ENABLE_IT(uart_at, UART_IT_IDLE);
 730              		.loc 1 185 5 is_stmt 0 view .LVU210
 731 006a 1E4B     		ldr	r3, .L48+16
 184:D:/fchai/work/i-cube/I-CUBE-HUAWEI/Middlewares/Third_Party/Huawei/targets/NUCLEO-L496ZG/src\uart_at.c ****     LOS_HwiCreate(s_uwIRQn, 3, 0, atio_irq, 0);
 732              		.loc 1 184 5 view .LVU211
 733 006c 1268     		ldr	r2, [r2]
 734 006e 4021     		movs	r1, #64
 735 0070 1162     		str	r1, [r2, #32]
 185:D:/fchai/work/i-cube/I-CUBE-HUAWEI/Middlewares/Third_Party/Huawei/targets/NUCLEO-L496ZG/src\uart_at.c ****     __HAL_UART_ENABLE_IT(uart_at, UART_IT_IDLE);
ARM GAS  T:\msys\tmp\cc5gVzTt.s 			page 22


 736              		.loc 1 185 5 is_stmt 1 view .LVU212
 737 0072 0246     		mov	r2, r0
 738 0074 0090     		str	r0, [sp]
 739 0076 0321     		movs	r1, #3
 740 0078 2720     		movs	r0, #39
 741 007a FFF7FEFF 		bl	LOS_HwiCreate
 742              	.LVL51:
 186:D:/fchai/work/i-cube/I-CUBE-HUAWEI/Middlewares/Third_Party/Huawei/targets/NUCLEO-L496ZG/src\uart_at.c ****     __HAL_UART_ENABLE_IT(uart_at, UART_IT_RXNE);
 743              		.loc 1 186 5 view .LVU213
 744 007e 3368     		ldr	r3, [r6]
 745 0080 1B68     		ldr	r3, [r3]
 746 0082 1A68     		ldr	r2, [r3]
 747 0084 42F01002 		orr	r2, r2, #16
 748 0088 1A60     		str	r2, [r3]
 187:D:/fchai/work/i-cube/I-CUBE-HUAWEI/Middlewares/Third_Party/Huawei/targets/NUCLEO-L496ZG/src\uart_at.c ****     return true;
 749              		.loc 1 187 5 view .LVU214
 750 008a 1A68     		ldr	r2, [r3]
 188:D:/fchai/work/i-cube/I-CUBE-HUAWEI/Middlewares/Third_Party/Huawei/targets/NUCLEO-L496ZG/src\uart_at.c **** 
 751              		.loc 1 188 12 is_stmt 0 view .LVU215
 752 008c 0124     		movs	r4, #1
 187:D:/fchai/work/i-cube/I-CUBE-HUAWEI/Middlewares/Third_Party/Huawei/targets/NUCLEO-L496ZG/src\uart_at.c ****     return true;
 753              		.loc 1 187 5 view .LVU216
 754 008e 42F02002 		orr	r2, r2, #32
 755              	.LBE27:
 756              	.LBE26:
 195:D:/fchai/work/i-cube/I-CUBE-HUAWEI/Middlewares/Third_Party/Huawei/targets/NUCLEO-L496ZG/src\uart_at.c **** 
 757              		.loc 1 195 1 view .LVU217
 758 0092 2046     		mov	r0, r4
 759              	.LBB30:
 760              	.LBB28:
 187:D:/fchai/work/i-cube/I-CUBE-HUAWEI/Middlewares/Third_Party/Huawei/targets/NUCLEO-L496ZG/src\uart_at.c ****     return true;
 761              		.loc 1 187 5 view .LVU218
 762 0094 1A60     		str	r2, [r3]
 188:D:/fchai/work/i-cube/I-CUBE-HUAWEI/Middlewares/Third_Party/Huawei/targets/NUCLEO-L496ZG/src\uart_at.c **** 
 763              		.loc 1 188 5 is_stmt 1 view .LVU219
 764              	.LVL52:
 188:D:/fchai/work/i-cube/I-CUBE-HUAWEI/Middlewares/Third_Party/Huawei/targets/NUCLEO-L496ZG/src\uart_at.c **** 
 765              		.loc 1 188 5 is_stmt 0 view .LVU220
 766              	.LBE28:
 767              	.LBE30:
 195:D:/fchai/work/i-cube/I-CUBE-HUAWEI/Middlewares/Third_Party/Huawei/targets/NUCLEO-L496ZG/src\uart_at.c **** 
 768              		.loc 1 195 1 view .LVU221
 769 0096 02B0     		add	sp, sp, #8
 770              	.LCFI20:
 771              		.cfi_remember_state
 772              		.cfi_def_cfa_offset 16
 773              		@ sp needed
 774 0098 70BD     		pop	{r4, r5, r6, pc}
 775              	.L46:
 776              	.LCFI21:
 777              		.cfi_restore_state
 165:D:/fchai/work/i-cube/I-CUBE-HUAWEI/Middlewares/Third_Party/Huawei/targets/NUCLEO-L496ZG/src\uart_at.c ****         goto EXIT_MUTEX;
 778              		.loc 1 165 9 is_stmt 1 view .LVU222
 779 009a 1349     		ldr	r1, .L48+20
 780 009c 1348     		ldr	r0, .L48+24
 781 009e FFF7FEFF 		bl	printf
 782              	.LVL53:
ARM GAS  T:\msys\tmp\cc5gVzTt.s 			page 23


 166:D:/fchai/work/i-cube/I-CUBE-HUAWEI/Middlewares/Third_Party/Huawei/targets/NUCLEO-L496ZG/src\uart_at.c ****     }
 783              		.loc 1 166 9 view .LVU223
 784              	.LDL1:
 191:D:/fchai/work/i-cube/I-CUBE-HUAWEI/Middlewares/Third_Party/Huawei/targets/NUCLEO-L496ZG/src\uart_at.c ****     g_atio_cb.rcvsync = cn_semp_invalid;
 785              		.loc 1 191 5 view .LVU224
 786 00a2 6868     		ldr	r0, [r5, #4]
 787 00a4 FFF7FEFF 		bl	osal_semp_del
 788              	.LVL54:
 192:D:/fchai/work/i-cube/I-CUBE-HUAWEI/Middlewares/Third_Party/Huawei/targets/NUCLEO-L496ZG/src\uart_at.c **** EXIT_SEMP:
 789              		.loc 1 192 5 view .LVU225
 192:D:/fchai/work/i-cube/I-CUBE-HUAWEI/Middlewares/Third_Party/Huawei/targets/NUCLEO-L496ZG/src\uart_at.c **** EXIT_SEMP:
 790              		.loc 1 192 23 is_stmt 0 view .LVU226
 791 00a8 4FF0FF33 		mov	r3, #-1
 195:D:/fchai/work/i-cube/I-CUBE-HUAWEI/Middlewares/Third_Party/Huawei/targets/NUCLEO-L496ZG/src\uart_at.c **** 
 792              		.loc 1 195 1 view .LVU227
 793 00ac 2046     		mov	r0, r4
 192:D:/fchai/work/i-cube/I-CUBE-HUAWEI/Middlewares/Third_Party/Huawei/targets/NUCLEO-L496ZG/src\uart_at.c **** EXIT_SEMP:
 794              		.loc 1 192 23 view .LVU228
 795 00ae 6B60     		str	r3, [r5, #4]
 195:D:/fchai/work/i-cube/I-CUBE-HUAWEI/Middlewares/Third_Party/Huawei/targets/NUCLEO-L496ZG/src\uart_at.c **** 
 796              		.loc 1 195 1 view .LVU229
 797 00b0 02B0     		add	sp, sp, #8
 798              	.LCFI22:
 799              		.cfi_remember_state
 800              		.cfi_def_cfa_offset 16
 801              		@ sp needed
 802 00b2 70BD     		pop	{r4, r5, r6, pc}
 803              	.L45:
 804              	.LCFI23:
 805              		.cfi_restore_state
 806 00b4 0446     		mov	r4, r0
 159:D:/fchai/work/i-cube/I-CUBE-HUAWEI/Middlewares/Third_Party/Huawei/targets/NUCLEO-L496ZG/src\uart_at.c ****         goto EXIT_SEMP;
 807              		.loc 1 159 9 is_stmt 1 view .LVU230
 808 00b6 0C49     		ldr	r1, .L48+20
 809 00b8 0D48     		ldr	r0, .L48+28
 810 00ba FFF7FEFF 		bl	printf
 811              	.LVL55:
 160:D:/fchai/work/i-cube/I-CUBE-HUAWEI/Middlewares/Third_Party/Huawei/targets/NUCLEO-L496ZG/src\uart_at.c ****     }
 812              		.loc 1 160 9 view .LVU231
 195:D:/fchai/work/i-cube/I-CUBE-HUAWEI/Middlewares/Third_Party/Huawei/targets/NUCLEO-L496ZG/src\uart_at.c **** 
 813              		.loc 1 195 1 is_stmt 0 view .LVU232
 814 00be 2046     		mov	r0, r4
 815 00c0 02B0     		add	sp, sp, #8
 816              	.LCFI24:
 817              		.cfi_remember_state
 818              		.cfi_def_cfa_offset 16
 819              		@ sp needed
 820 00c2 70BD     		pop	{r4, r5, r6, pc}
 821              	.LVL56:
 822              	.L47:
 823              	.LCFI25:
 824              		.cfi_restore_state
 825              	.LBB31:
 826              	.LBB29:
 181:D:/fchai/work/i-cube/I-CUBE-HUAWEI/Middlewares/Third_Party/Huawei/targets/NUCLEO-L496ZG/src\uart_at.c ****         goto EXIT_SEMP;
 827              		.loc 1 181 9 is_stmt 1 view .LVU233
 828 00c4 0849     		ldr	r1, .L48+20
ARM GAS  T:\msys\tmp\cc5gVzTt.s 			page 24


 829 00c6 0B48     		ldr	r0, .L48+32
 830 00c8 FFF7FEFF 		bl	printf
 831              	.LVL57:
 182:D:/fchai/work/i-cube/I-CUBE-HUAWEI/Middlewares/Third_Party/Huawei/targets/NUCLEO-L496ZG/src\uart_at.c ****     }
 832              		.loc 1 182 9 view .LVU234
 833              	.LBE29:
 834              	.LBE31:
 195:D:/fchai/work/i-cube/I-CUBE-HUAWEI/Middlewares/Third_Party/Huawei/targets/NUCLEO-L496ZG/src\uart_at.c **** 
 835              		.loc 1 195 1 is_stmt 0 view .LVU235
 836 00cc 2046     		mov	r0, r4
 837 00ce 02B0     		add	sp, sp, #8
 838              	.LCFI26:
 839              		.cfi_def_cfa_offset 16
 840              		@ sp needed
 841 00d0 70BD     		pop	{r4, r5, r6, pc}
 842              	.L49:
 843 00d2 00BF     		.align	2
 844              	.L48:
 845 00d4 00000000 		.word	g_atio_cb
 846 00d8 00000000 		.word	.LANCHOR0
 847 00dc 1C280000 		.word	g_atio_cb+10268
 848 00e0 00480040 		.word	1073760256
 849 00e4 00000000 		.word	atio_irq
 850 00e8 00000000 		.word	.LANCHOR1
 851 00ec 18000000 		.word	.LC1
 852 00f0 00000000 		.word	.LC0
 853 00f4 30000000 		.word	.LC2
 854              		.cfi_endproc
 855              	.LFE134:
 857              		.section	.rodata.atdevice_enable.str1.4,"aMS",%progbits,1
 858              		.align	2
 859              	.LC3:
 860 0000 746F6767 		.ascii	"toggle module\012\015\000"
 860      6C65206D 
 860      6F64756C 
 860      650A0D00 
 861              		.section	.text.atdevice_enable,"ax",%progbits
 862              		.align	1
 863              		.p2align 2,,3
 864              		.global	atdevice_enable
 865              		.syntax unified
 866              		.thumb
 867              		.thumb_func
 868              		.fpu fpv4-sp-d16
 870              	atdevice_enable:
 871              	.LFB140:
 289:D:/fchai/work/i-cube/I-CUBE-HUAWEI/Middlewares/Third_Party/Huawei/targets/NUCLEO-L496ZG/src\uart_at.c **** 
 290:D:/fchai/work/i-cube/I-CUBE-HUAWEI/Middlewares/Third_Party/Huawei/targets/NUCLEO-L496ZG/src\uart_at.c **** void atdevice_enable (void)
 291:D:/fchai/work/i-cube/I-CUBE-HUAWEI/Middlewares/Third_Party/Huawei/targets/NUCLEO-L496ZG/src\uart_at.c **** {
 872              		.loc 1 291 1 is_stmt 1 view -0
 873              		.cfi_startproc
 874              		@ args = 0, pretend = 0, frame = 0
 875              		@ frame_needed = 0, uses_anonymous_args = 0
 292:D:/fchai/work/i-cube/I-CUBE-HUAWEI/Middlewares/Third_Party/Huawei/targets/NUCLEO-L496ZG/src\uart_at.c ****     printf ("toggle module\n\r");
 876              		.loc 1 292 5 view .LVU237
 291:D:/fchai/work/i-cube/I-CUBE-HUAWEI/Middlewares/Third_Party/Huawei/targets/NUCLEO-L496ZG/src\uart_at.c ****     printf ("toggle module\n\r");
 877              		.loc 1 291 1 is_stmt 0 view .LVU238
ARM GAS  T:\msys\tmp\cc5gVzTt.s 			page 25


 878 0000 08B5     		push	{r3, lr}
 879              	.LCFI27:
 880              		.cfi_def_cfa_offset 8
 881              		.cfi_offset 3, -8
 882              		.cfi_offset 14, -4
 883              		.loc 1 292 5 view .LVU239
 884 0002 0F48     		ldr	r0, .L52
 885 0004 FFF7FEFF 		bl	printf
 886              	.LVL58:
 293:D:/fchai/work/i-cube/I-CUBE-HUAWEI/Middlewares/Third_Party/Huawei/targets/NUCLEO-L496ZG/src\uart_at.c ****     HAL_GPIO_WritePin(MODULE_POWER_ON_GPIO_Port, MODULE_POWER_ON_Pin, GPIO_PIN_RESET);
 887              		.loc 1 293 5 is_stmt 1 view .LVU240
 888 0008 0022     		movs	r2, #0
 889 000a 0821     		movs	r1, #8
 890 000c 4FF09040 		mov	r0, #1207959552
 891 0010 FFF7FEFF 		bl	HAL_GPIO_WritePin
 892              	.LVL59:
 294:D:/fchai/work/i-cube/I-CUBE-HUAWEI/Middlewares/Third_Party/Huawei/targets/NUCLEO-L496ZG/src\uart_at.c ****     osal_task_sleep(1);
 893              		.loc 1 294 5 view .LVU241
 894 0014 0120     		movs	r0, #1
 895 0016 FFF7FEFF 		bl	osal_task_sleep
 896              	.LVL60:
 295:D:/fchai/work/i-cube/I-CUBE-HUAWEI/Middlewares/Third_Party/Huawei/targets/NUCLEO-L496ZG/src\uart_at.c ****     HAL_GPIO_WritePin(MODULE_POWER_ON_GPIO_Port, MODULE_POWER_ON_Pin, GPIO_PIN_SET);
 897              		.loc 1 295 5 view .LVU242
 898 001a 0122     		movs	r2, #1
 899 001c 0821     		movs	r1, #8
 900 001e 4FF09040 		mov	r0, #1207959552
 901 0022 FFF7FEFF 		bl	HAL_GPIO_WritePin
 902              	.LVL61:
 296:D:/fchai/work/i-cube/I-CUBE-HUAWEI/Middlewares/Third_Party/Huawei/targets/NUCLEO-L496ZG/src\uart_at.c ****     osal_task_sleep(3000);
 903              		.loc 1 296 5 view .LVU243
 904 0026 40F6B830 		movw	r0, #3000
 905 002a FFF7FEFF 		bl	osal_task_sleep
 906              	.LVL62:
 297:D:/fchai/work/i-cube/I-CUBE-HUAWEI/Middlewares/Third_Party/Huawei/targets/NUCLEO-L496ZG/src\uart_at.c ****     HAL_GPIO_WritePin(MODULE_POWER_ON_GPIO_Port, MODULE_POWER_ON_Pin, GPIO_PIN_RESET);
 907              		.loc 1 297 5 view .LVU244
 298:D:/fchai/work/i-cube/I-CUBE-HUAWEI/Middlewares/Third_Party/Huawei/targets/NUCLEO-L496ZG/src\uart_at.c **** }
 908              		.loc 1 298 1 is_stmt 0 view .LVU245
 909 002e BDE80840 		pop	{r3, lr}
 910              	.LCFI28:
 911              		.cfi_restore 14
 912              		.cfi_restore 3
 913              		.cfi_def_cfa_offset 0
 297:D:/fchai/work/i-cube/I-CUBE-HUAWEI/Middlewares/Third_Party/Huawei/targets/NUCLEO-L496ZG/src\uart_at.c ****     HAL_GPIO_WritePin(MODULE_POWER_ON_GPIO_Port, MODULE_POWER_ON_Pin, GPIO_PIN_RESET);
 914              		.loc 1 297 5 view .LVU246
 915 0032 0022     		movs	r2, #0
 916 0034 0821     		movs	r1, #8
 917 0036 4FF09040 		mov	r0, #1207959552
 918 003a FFF7FEBF 		b	HAL_GPIO_WritePin
 919              	.LVL63:
 920              	.L53:
 921 003e 00BF     		.align	2
 922              	.L52:
 923 0040 00000000 		.word	.LC3
 924              		.cfi_endproc
 925              	.LFE140:
 927              		.section	.rodata.str1.4,"aMS",%progbits,1
 928              		.align	2
ARM GAS  T:\msys\tmp\cc5gVzTt.s 			page 26


 929              	.LC4:
 930 0000 61746465 		.ascii	"atdev\000"
 930      7600
 931              		.global	uart_at
 932              		.section	.bss.g_atio_cb,"aw",%nobits
 933              		.align	2
 936              	g_atio_cb:
 937 0000 00000000 		.space	20536
 937      00000000 
 937      00000000 
 937      00000000 
 937      00000000 
 938              		.section	.data.uart_at,"aw"
 939              		.align	2
 940              		.set	.LANCHOR0,. + 0
 943              	uart_at:
 944 0000 00000000 		.word	huart3
 945              		.section	.rodata.__FUNCTION__.10243,"a"
 946              		.align	2
 947              		.set	.LANCHOR1,. + 0
 950              	__FUNCTION__.10243:
 951 0000 75617274 		.ascii	"uart_at_init\000"
 951      5F61745F 
 951      696E6974 
 951      00
 952              		.section	.rodata.s_at_op,"a"
 953              		.align	2
 956              	s_at_op:
 957 0000 00000000 		.space	4
 958 0004 00000000 		.word	__at_read
 959 0008 00000000 		.word	__at_write
 960 000c 00000000 		.space	12
 960      00000000 
 960      00000000 
 961 0018 00000000 		.word	uart_at_init
 962 001c 00000000 		.word	uart_at_deinit
 963              		.section	osdriv,"a"
 964              		.align	2
 967              	uart_at_driv:
 968 0000 00000000 		.word	.LC4
 969 0004 00000000 		.word	s_at_op
 970 0008 00000000 		.word	0
 971 000c 02000000 		.word	2
 972              		.text
 973              	.Letext0:
 974              		.file 2 "t:\\msys\\3rd\\gcc-arm-none-eabi-9-2020-q2-update-win32\\arm-none-eabi\\include\\machine\
 975              		.file 3 "t:\\msys\\3rd\\gcc-arm-none-eabi-9-2020-q2-update-win32\\arm-none-eabi\\include\\sys\\_st
 976              		.file 4 "D:/fchai/work/i-cube/I-CUBE-HUAWEI/Middlewares/Third_Party/Huawei/iot_link/os/liteos/arch
 977              		.file 5 "D:/fchai/work/i-cube/I-CUBE-HUAWEI/Drivers/CMSIS/Device/ST/STM32L4xx/Include/system_stm32
 978              		.file 6 "D:/fchai/work/i-cube/I-CUBE-HUAWEI/Drivers/CMSIS/Device/ST/STM32L4xx/Include/stm32l496xx.
 979              		.file 7 "D:/fchai/work/i-cube/I-CUBE-HUAWEI/Drivers/CMSIS/Device/ST/STM32L4xx/Include/stm32l4xx.h"
 980              		.file 8 "t:\\msys\\3rd\\gcc-arm-none-eabi-9-2020-q2-update-win32\\lib\\gcc\\arm-none-eabi\\9.3.1\\
 981              		.file 9 "D:/fchai/work/i-cube/I-CUBE-HUAWEI/Drivers/STM32L4xx_HAL_Driver/Inc/stm32l4xx_hal_def.h"
 982              		.file 10 "D:/fchai/work/i-cube/I-CUBE-HUAWEI/Drivers/STM32L4xx_HAL_Driver/Inc/stm32l4xx_hal_gpio.h
 983              		.file 11 "D:/fchai/work/i-cube/I-CUBE-HUAWEI/Drivers/STM32L4xx_HAL_Driver/Inc/stm32l4xx_hal_dma.h"
 984              		.file 12 "D:/fchai/work/i-cube/I-CUBE-HUAWEI/Drivers/STM32L4xx_HAL_Driver/Inc/stm32l4xx_hal_flash.
 985              		.file 13 "D:/fchai/work/i-cube/I-CUBE-HUAWEI/Drivers/STM32L4xx_HAL_Driver/Inc/stm32l4xx_hal_uart.h
ARM GAS  T:\msys\tmp\cc5gVzTt.s 			page 27


 986              		.file 14 "D:/fchai/work/i-cube/I-CUBE-HUAWEI/Drivers/STM32L4xx_HAL_Driver/Inc/stm32l4xx_hal.h"
 987              		.file 15 "t:\\msys\\3rd\\gcc-arm-none-eabi-9-2020-q2-update-win32\\arm-none-eabi\\include\\sys\\_t
 988              		.file 16 "t:\\msys\\3rd\\gcc-arm-none-eabi-9-2020-q2-update-win32\\arm-none-eabi\\include\\sys\\re
 989              		.file 17 "t:\\msys\\3rd\\gcc-arm-none-eabi-9-2020-q2-update-win32\\arm-none-eabi\\include\\sys\\lo
 990              		.file 18 "t:\\msys\\3rd\\gcc-arm-none-eabi-9-2020-q2-update-win32\\arm-none-eabi\\include\\sys\\ty
 991              		.file 19 "D:/fchai/work/i-cube/I-CUBE-HUAWEI/Middlewares/Third_Party/Huawei/iot_link/link_misc/lin
 992              		.file 20 "D:/fchai/work/i-cube/I-CUBE-HUAWEI/Middlewares/Third_Party/Huawei/iot_link/os/osal/osal_
 993              		.file 21 "D:/fchai/work/i-cube/I-CUBE-HUAWEI/Middlewares/Third_Party/Huawei/iot_link/driver/driver
 994              		.file 22 "t:\\msys\\3rd\\gcc-arm-none-eabi-9-2020-q2-update-win32\\arm-none-eabi\\include\\time.h"
 995              		.file 23 "D:/fchai/work/i-cube/I-CUBE-HUAWEI/Middlewares/Third_Party/Huawei/iot_link/os/liteos/inc
 996              		.file 24 "D:/fchai/work/i-cube/I-CUBE-HUAWEI/Middlewares/Third_Party/Huawei/iot_link/os/liteos/inc
 997              		.file 25 "D:/fchai/work/i-cube/I-CUBE-HUAWEI/Middlewares/Third_Party/Huawei/iot_link/os/liteos/inc
 998              		.file 26 "D:/fchai/work/i-cube/I-CUBE-HUAWEI/Middlewares/Third_Party/Huawei/iot_link/os/liteos/arc
 999              		.file 27 "t:\\msys\\3rd\\gcc-arm-none-eabi-9-2020-q2-update-win32\\arm-none-eabi\\include\\stdio.h
 1000              		.file 28 "D:/fchai/work/i-cube/I-CUBE-HUAWEI/Middlewares/Third_Party/Huawei/iot_link/os/osal/osal.
 1001              		.file 29 "<built-in>"
ARM GAS  T:\msys\tmp\cc5gVzTt.s 			page 28

