ARM GAS  T:\msys\tmp\ccwessdu.s 			page 1


   1              		.cpu cortex-m4
   2              		.eabi_attribute 27, 1
   3              		.eabi_attribute 28, 1
   4              		.eabi_attribute 20, 1
   5              		.eabi_attribute 21, 1
   6              		.eabi_attribute 23, 3
   7              		.eabi_attribute 24, 1
   8              		.eabi_attribute 25, 1
   9              		.eabi_attribute 26, 1
  10              		.eabi_attribute 30, 2
  11              		.eabi_attribute 34, 1
  12              		.eabi_attribute 18, 4
  13              		.file	"aes.c"
  14              		.text
  15              	.Ltext0:
  16              		.cfi_sections	.debug_frame
  17              		.section	.text.mbedtls_aes_init,"ax",%progbits
  18              		.align	1
  19              		.p2align 2,,3
  20              		.global	mbedtls_aes_init
  21              		.arch armv7e-m
  22              		.syntax unified
  23              		.thumb
  24              		.thumb_func
  25              		.fpu fpv4-sp-d16
  27              	mbedtls_aes_init:
  28              	.LVL0:
  29              	.LFB3:
  30              		.file 1 "D:/fchai/work/i-cube/I-CUBE-HUAWEI/Middlewares/Third_Party/Huawei/iot_link/network/dtls/m
   1:D:/fchai/work/i-cube/I-CUBE-HUAWEI/Middlewares/Third_Party/Huawei/iot_link/network/dtls/mbedtls/mbedtls-2.16.2/library\aes.c **** /*
   2:D:/fchai/work/i-cube/I-CUBE-HUAWEI/Middlewares/Third_Party/Huawei/iot_link/network/dtls/mbedtls/mbedtls-2.16.2/library\aes.c ****  *  FIPS-197 compliant AES implementation
   3:D:/fchai/work/i-cube/I-CUBE-HUAWEI/Middlewares/Third_Party/Huawei/iot_link/network/dtls/mbedtls/mbedtls-2.16.2/library\aes.c ****  *
   4:D:/fchai/work/i-cube/I-CUBE-HUAWEI/Middlewares/Third_Party/Huawei/iot_link/network/dtls/mbedtls/mbedtls-2.16.2/library\aes.c ****  *  Copyright (C) 2006-2015, ARM Limited, All Rights Reserved
   5:D:/fchai/work/i-cube/I-CUBE-HUAWEI/Middlewares/Third_Party/Huawei/iot_link/network/dtls/mbedtls/mbedtls-2.16.2/library\aes.c ****  *  SPDX-License-Identifier: Apache-2.0
   6:D:/fchai/work/i-cube/I-CUBE-HUAWEI/Middlewares/Third_Party/Huawei/iot_link/network/dtls/mbedtls/mbedtls-2.16.2/library\aes.c ****  *
   7:D:/fchai/work/i-cube/I-CUBE-HUAWEI/Middlewares/Third_Party/Huawei/iot_link/network/dtls/mbedtls/mbedtls-2.16.2/library\aes.c ****  *  Licensed under the Apache License, Version 2.0 (the "License"); you may
   8:D:/fchai/work/i-cube/I-CUBE-HUAWEI/Middlewares/Third_Party/Huawei/iot_link/network/dtls/mbedtls/mbedtls-2.16.2/library\aes.c ****  *  not use this file except in compliance with the License.
   9:D:/fchai/work/i-cube/I-CUBE-HUAWEI/Middlewares/Third_Party/Huawei/iot_link/network/dtls/mbedtls/mbedtls-2.16.2/library\aes.c ****  *  You may obtain a copy of the License at
  10:D:/fchai/work/i-cube/I-CUBE-HUAWEI/Middlewares/Third_Party/Huawei/iot_link/network/dtls/mbedtls/mbedtls-2.16.2/library\aes.c ****  *
  11:D:/fchai/work/i-cube/I-CUBE-HUAWEI/Middlewares/Third_Party/Huawei/iot_link/network/dtls/mbedtls/mbedtls-2.16.2/library\aes.c ****  *  http://www.apache.org/licenses/LICENSE-2.0
  12:D:/fchai/work/i-cube/I-CUBE-HUAWEI/Middlewares/Third_Party/Huawei/iot_link/network/dtls/mbedtls/mbedtls-2.16.2/library\aes.c ****  *
  13:D:/fchai/work/i-cube/I-CUBE-HUAWEI/Middlewares/Third_Party/Huawei/iot_link/network/dtls/mbedtls/mbedtls-2.16.2/library\aes.c ****  *  Unless required by applicable law or agreed to in writing, software
  14:D:/fchai/work/i-cube/I-CUBE-HUAWEI/Middlewares/Third_Party/Huawei/iot_link/network/dtls/mbedtls/mbedtls-2.16.2/library\aes.c ****  *  distributed under the License is distributed on an "AS IS" BASIS, WITHOUT
  15:D:/fchai/work/i-cube/I-CUBE-HUAWEI/Middlewares/Third_Party/Huawei/iot_link/network/dtls/mbedtls/mbedtls-2.16.2/library\aes.c ****  *  WARRANTIES OR CONDITIONS OF ANY KIND, either express or implied.
  16:D:/fchai/work/i-cube/I-CUBE-HUAWEI/Middlewares/Third_Party/Huawei/iot_link/network/dtls/mbedtls/mbedtls-2.16.2/library\aes.c ****  *  See the License for the specific language governing permissions and
  17:D:/fchai/work/i-cube/I-CUBE-HUAWEI/Middlewares/Third_Party/Huawei/iot_link/network/dtls/mbedtls/mbedtls-2.16.2/library\aes.c ****  *  limitations under the License.
  18:D:/fchai/work/i-cube/I-CUBE-HUAWEI/Middlewares/Third_Party/Huawei/iot_link/network/dtls/mbedtls/mbedtls-2.16.2/library\aes.c ****  *
  19:D:/fchai/work/i-cube/I-CUBE-HUAWEI/Middlewares/Third_Party/Huawei/iot_link/network/dtls/mbedtls/mbedtls-2.16.2/library\aes.c ****  *  This file is part of mbed TLS (https://tls.mbed.org)
  20:D:/fchai/work/i-cube/I-CUBE-HUAWEI/Middlewares/Third_Party/Huawei/iot_link/network/dtls/mbedtls/mbedtls-2.16.2/library\aes.c ****  */
  21:D:/fchai/work/i-cube/I-CUBE-HUAWEI/Middlewares/Third_Party/Huawei/iot_link/network/dtls/mbedtls/mbedtls-2.16.2/library\aes.c **** /*
  22:D:/fchai/work/i-cube/I-CUBE-HUAWEI/Middlewares/Third_Party/Huawei/iot_link/network/dtls/mbedtls/mbedtls-2.16.2/library\aes.c ****  *  The AES block cipher was designed by Vincent Rijmen and Joan Daemen.
  23:D:/fchai/work/i-cube/I-CUBE-HUAWEI/Middlewares/Third_Party/Huawei/iot_link/network/dtls/mbedtls/mbedtls-2.16.2/library\aes.c ****  *
  24:D:/fchai/work/i-cube/I-CUBE-HUAWEI/Middlewares/Third_Party/Huawei/iot_link/network/dtls/mbedtls/mbedtls-2.16.2/library\aes.c ****  *  http://csrc.nist.gov/encryption/aes/rijndael/Rijndael.pdf
  25:D:/fchai/work/i-cube/I-CUBE-HUAWEI/Middlewares/Third_Party/Huawei/iot_link/network/dtls/mbedtls/mbedtls-2.16.2/library\aes.c ****  *  http://csrc.nist.gov/publications/fips/fips197/fips-197.pdf
  26:D:/fchai/work/i-cube/I-CUBE-HUAWEI/Middlewares/Third_Party/Huawei/iot_link/network/dtls/mbedtls/mbedtls-2.16.2/library\aes.c ****  */
  27:D:/fchai/work/i-cube/I-CUBE-HUAWEI/Middlewares/Third_Party/Huawei/iot_link/network/dtls/mbedtls/mbedtls-2.16.2/library\aes.c **** 
  28:D:/fchai/work/i-cube/I-CUBE-HUAWEI/Middlewares/Third_Party/Huawei/iot_link/network/dtls/mbedtls/mbedtls-2.16.2/library\aes.c **** #if !defined(MBEDTLS_CONFIG_FILE)
ARM GAS  T:\msys\tmp\ccwessdu.s 			page 2


  29:D:/fchai/work/i-cube/I-CUBE-HUAWEI/Middlewares/Third_Party/Huawei/iot_link/network/dtls/mbedtls/mbedtls-2.16.2/library\aes.c **** #include "mbedtls/config.h"
  30:D:/fchai/work/i-cube/I-CUBE-HUAWEI/Middlewares/Third_Party/Huawei/iot_link/network/dtls/mbedtls/mbedtls-2.16.2/library\aes.c **** #else
  31:D:/fchai/work/i-cube/I-CUBE-HUAWEI/Middlewares/Third_Party/Huawei/iot_link/network/dtls/mbedtls/mbedtls-2.16.2/library\aes.c **** #include MBEDTLS_CONFIG_FILE
  32:D:/fchai/work/i-cube/I-CUBE-HUAWEI/Middlewares/Third_Party/Huawei/iot_link/network/dtls/mbedtls/mbedtls-2.16.2/library\aes.c **** #endif
  33:D:/fchai/work/i-cube/I-CUBE-HUAWEI/Middlewares/Third_Party/Huawei/iot_link/network/dtls/mbedtls/mbedtls-2.16.2/library\aes.c **** 
  34:D:/fchai/work/i-cube/I-CUBE-HUAWEI/Middlewares/Third_Party/Huawei/iot_link/network/dtls/mbedtls/mbedtls-2.16.2/library\aes.c **** #if defined(MBEDTLS_AES_C)
  35:D:/fchai/work/i-cube/I-CUBE-HUAWEI/Middlewares/Third_Party/Huawei/iot_link/network/dtls/mbedtls/mbedtls-2.16.2/library\aes.c **** 
  36:D:/fchai/work/i-cube/I-CUBE-HUAWEI/Middlewares/Third_Party/Huawei/iot_link/network/dtls/mbedtls/mbedtls-2.16.2/library\aes.c **** #include <string.h>
  37:D:/fchai/work/i-cube/I-CUBE-HUAWEI/Middlewares/Third_Party/Huawei/iot_link/network/dtls/mbedtls/mbedtls-2.16.2/library\aes.c **** 
  38:D:/fchai/work/i-cube/I-CUBE-HUAWEI/Middlewares/Third_Party/Huawei/iot_link/network/dtls/mbedtls/mbedtls-2.16.2/library\aes.c **** #include "mbedtls/aes.h"
  39:D:/fchai/work/i-cube/I-CUBE-HUAWEI/Middlewares/Third_Party/Huawei/iot_link/network/dtls/mbedtls/mbedtls-2.16.2/library\aes.c **** #include "mbedtls/platform.h"
  40:D:/fchai/work/i-cube/I-CUBE-HUAWEI/Middlewares/Third_Party/Huawei/iot_link/network/dtls/mbedtls/mbedtls-2.16.2/library\aes.c **** #include "mbedtls/platform_util.h"
  41:D:/fchai/work/i-cube/I-CUBE-HUAWEI/Middlewares/Third_Party/Huawei/iot_link/network/dtls/mbedtls/mbedtls-2.16.2/library\aes.c **** #if defined(MBEDTLS_PADLOCK_C)
  42:D:/fchai/work/i-cube/I-CUBE-HUAWEI/Middlewares/Third_Party/Huawei/iot_link/network/dtls/mbedtls/mbedtls-2.16.2/library\aes.c **** #include "mbedtls/padlock.h"
  43:D:/fchai/work/i-cube/I-CUBE-HUAWEI/Middlewares/Third_Party/Huawei/iot_link/network/dtls/mbedtls/mbedtls-2.16.2/library\aes.c **** #endif
  44:D:/fchai/work/i-cube/I-CUBE-HUAWEI/Middlewares/Third_Party/Huawei/iot_link/network/dtls/mbedtls/mbedtls-2.16.2/library\aes.c **** #if defined(MBEDTLS_AESNI_C)
  45:D:/fchai/work/i-cube/I-CUBE-HUAWEI/Middlewares/Third_Party/Huawei/iot_link/network/dtls/mbedtls/mbedtls-2.16.2/library\aes.c **** #include "mbedtls/aesni.h"
  46:D:/fchai/work/i-cube/I-CUBE-HUAWEI/Middlewares/Third_Party/Huawei/iot_link/network/dtls/mbedtls/mbedtls-2.16.2/library\aes.c **** #endif
  47:D:/fchai/work/i-cube/I-CUBE-HUAWEI/Middlewares/Third_Party/Huawei/iot_link/network/dtls/mbedtls/mbedtls-2.16.2/library\aes.c **** 
  48:D:/fchai/work/i-cube/I-CUBE-HUAWEI/Middlewares/Third_Party/Huawei/iot_link/network/dtls/mbedtls/mbedtls-2.16.2/library\aes.c **** #if defined(MBEDTLS_SELF_TEST)
  49:D:/fchai/work/i-cube/I-CUBE-HUAWEI/Middlewares/Third_Party/Huawei/iot_link/network/dtls/mbedtls/mbedtls-2.16.2/library\aes.c **** #if defined(MBEDTLS_PLATFORM_C)
  50:D:/fchai/work/i-cube/I-CUBE-HUAWEI/Middlewares/Third_Party/Huawei/iot_link/network/dtls/mbedtls/mbedtls-2.16.2/library\aes.c **** #include "mbedtls/platform.h"
  51:D:/fchai/work/i-cube/I-CUBE-HUAWEI/Middlewares/Third_Party/Huawei/iot_link/network/dtls/mbedtls/mbedtls-2.16.2/library\aes.c **** #else
  52:D:/fchai/work/i-cube/I-CUBE-HUAWEI/Middlewares/Third_Party/Huawei/iot_link/network/dtls/mbedtls/mbedtls-2.16.2/library\aes.c **** #include <stdio.h>
  53:D:/fchai/work/i-cube/I-CUBE-HUAWEI/Middlewares/Third_Party/Huawei/iot_link/network/dtls/mbedtls/mbedtls-2.16.2/library\aes.c **** #define mbedtls_printf printf
  54:D:/fchai/work/i-cube/I-CUBE-HUAWEI/Middlewares/Third_Party/Huawei/iot_link/network/dtls/mbedtls/mbedtls-2.16.2/library\aes.c **** #endif /* MBEDTLS_PLATFORM_C */
  55:D:/fchai/work/i-cube/I-CUBE-HUAWEI/Middlewares/Third_Party/Huawei/iot_link/network/dtls/mbedtls/mbedtls-2.16.2/library\aes.c **** #endif /* MBEDTLS_SELF_TEST */
  56:D:/fchai/work/i-cube/I-CUBE-HUAWEI/Middlewares/Third_Party/Huawei/iot_link/network/dtls/mbedtls/mbedtls-2.16.2/library\aes.c **** 
  57:D:/fchai/work/i-cube/I-CUBE-HUAWEI/Middlewares/Third_Party/Huawei/iot_link/network/dtls/mbedtls/mbedtls-2.16.2/library\aes.c **** #if !defined(MBEDTLS_AES_ALT)
  58:D:/fchai/work/i-cube/I-CUBE-HUAWEI/Middlewares/Third_Party/Huawei/iot_link/network/dtls/mbedtls/mbedtls-2.16.2/library\aes.c **** 
  59:D:/fchai/work/i-cube/I-CUBE-HUAWEI/Middlewares/Third_Party/Huawei/iot_link/network/dtls/mbedtls/mbedtls-2.16.2/library\aes.c **** /* Parameter validation macros based on platform_util.h */
  60:D:/fchai/work/i-cube/I-CUBE-HUAWEI/Middlewares/Third_Party/Huawei/iot_link/network/dtls/mbedtls/mbedtls-2.16.2/library\aes.c **** #define AES_VALIDATE_RET( cond )    \
  61:D:/fchai/work/i-cube/I-CUBE-HUAWEI/Middlewares/Third_Party/Huawei/iot_link/network/dtls/mbedtls/mbedtls-2.16.2/library\aes.c ****     MBEDTLS_INTERNAL_VALIDATE_RET( cond, MBEDTLS_ERR_AES_BAD_INPUT_DATA )
  62:D:/fchai/work/i-cube/I-CUBE-HUAWEI/Middlewares/Third_Party/Huawei/iot_link/network/dtls/mbedtls/mbedtls-2.16.2/library\aes.c **** #define AES_VALIDATE( cond )        \
  63:D:/fchai/work/i-cube/I-CUBE-HUAWEI/Middlewares/Third_Party/Huawei/iot_link/network/dtls/mbedtls/mbedtls-2.16.2/library\aes.c ****     MBEDTLS_INTERNAL_VALIDATE( cond )
  64:D:/fchai/work/i-cube/I-CUBE-HUAWEI/Middlewares/Third_Party/Huawei/iot_link/network/dtls/mbedtls/mbedtls-2.16.2/library\aes.c **** 
  65:D:/fchai/work/i-cube/I-CUBE-HUAWEI/Middlewares/Third_Party/Huawei/iot_link/network/dtls/mbedtls/mbedtls-2.16.2/library\aes.c **** /*
  66:D:/fchai/work/i-cube/I-CUBE-HUAWEI/Middlewares/Third_Party/Huawei/iot_link/network/dtls/mbedtls/mbedtls-2.16.2/library\aes.c ****  * 32-bit integer manipulation macros (little endian)
  67:D:/fchai/work/i-cube/I-CUBE-HUAWEI/Middlewares/Third_Party/Huawei/iot_link/network/dtls/mbedtls/mbedtls-2.16.2/library\aes.c ****  */
  68:D:/fchai/work/i-cube/I-CUBE-HUAWEI/Middlewares/Third_Party/Huawei/iot_link/network/dtls/mbedtls/mbedtls-2.16.2/library\aes.c **** #ifndef GET_UINT32_LE
  69:D:/fchai/work/i-cube/I-CUBE-HUAWEI/Middlewares/Third_Party/Huawei/iot_link/network/dtls/mbedtls/mbedtls-2.16.2/library\aes.c **** #define GET_UINT32_LE(n,b,i)                            \
  70:D:/fchai/work/i-cube/I-CUBE-HUAWEI/Middlewares/Third_Party/Huawei/iot_link/network/dtls/mbedtls/mbedtls-2.16.2/library\aes.c **** {                                                       \
  71:D:/fchai/work/i-cube/I-CUBE-HUAWEI/Middlewares/Third_Party/Huawei/iot_link/network/dtls/mbedtls/mbedtls-2.16.2/library\aes.c ****     (n) = ( (uint32_t) (b)[(i)    ]       )             \
  72:D:/fchai/work/i-cube/I-CUBE-HUAWEI/Middlewares/Third_Party/Huawei/iot_link/network/dtls/mbedtls/mbedtls-2.16.2/library\aes.c ****         | ( (uint32_t) (b)[(i) + 1] <<  8 )             \
  73:D:/fchai/work/i-cube/I-CUBE-HUAWEI/Middlewares/Third_Party/Huawei/iot_link/network/dtls/mbedtls/mbedtls-2.16.2/library\aes.c ****         | ( (uint32_t) (b)[(i) + 2] << 16 )             \
  74:D:/fchai/work/i-cube/I-CUBE-HUAWEI/Middlewares/Third_Party/Huawei/iot_link/network/dtls/mbedtls/mbedtls-2.16.2/library\aes.c ****         | ( (uint32_t) (b)[(i) + 3] << 24 );            \
  75:D:/fchai/work/i-cube/I-CUBE-HUAWEI/Middlewares/Third_Party/Huawei/iot_link/network/dtls/mbedtls/mbedtls-2.16.2/library\aes.c **** }
  76:D:/fchai/work/i-cube/I-CUBE-HUAWEI/Middlewares/Third_Party/Huawei/iot_link/network/dtls/mbedtls/mbedtls-2.16.2/library\aes.c **** #endif
  77:D:/fchai/work/i-cube/I-CUBE-HUAWEI/Middlewares/Third_Party/Huawei/iot_link/network/dtls/mbedtls/mbedtls-2.16.2/library\aes.c **** 
  78:D:/fchai/work/i-cube/I-CUBE-HUAWEI/Middlewares/Third_Party/Huawei/iot_link/network/dtls/mbedtls/mbedtls-2.16.2/library\aes.c **** #ifndef PUT_UINT32_LE
  79:D:/fchai/work/i-cube/I-CUBE-HUAWEI/Middlewares/Third_Party/Huawei/iot_link/network/dtls/mbedtls/mbedtls-2.16.2/library\aes.c **** #define PUT_UINT32_LE(n,b,i)                                    \
  80:D:/fchai/work/i-cube/I-CUBE-HUAWEI/Middlewares/Third_Party/Huawei/iot_link/network/dtls/mbedtls/mbedtls-2.16.2/library\aes.c **** {                                                               \
  81:D:/fchai/work/i-cube/I-CUBE-HUAWEI/Middlewares/Third_Party/Huawei/iot_link/network/dtls/mbedtls/mbedtls-2.16.2/library\aes.c ****     (b)[(i)    ] = (unsigned char) ( ( (n)       ) & 0xFF );    \
  82:D:/fchai/work/i-cube/I-CUBE-HUAWEI/Middlewares/Third_Party/Huawei/iot_link/network/dtls/mbedtls/mbedtls-2.16.2/library\aes.c ****     (b)[(i) + 1] = (unsigned char) ( ( (n) >>  8 ) & 0xFF );    \
  83:D:/fchai/work/i-cube/I-CUBE-HUAWEI/Middlewares/Third_Party/Huawei/iot_link/network/dtls/mbedtls/mbedtls-2.16.2/library\aes.c ****     (b)[(i) + 2] = (unsigned char) ( ( (n) >> 16 ) & 0xFF );    \
  84:D:/fchai/work/i-cube/I-CUBE-HUAWEI/Middlewares/Third_Party/Huawei/iot_link/network/dtls/mbedtls/mbedtls-2.16.2/library\aes.c ****     (b)[(i) + 3] = (unsigned char) ( ( (n) >> 24 ) & 0xFF );    \
  85:D:/fchai/work/i-cube/I-CUBE-HUAWEI/Middlewares/Third_Party/Huawei/iot_link/network/dtls/mbedtls/mbedtls-2.16.2/library\aes.c **** }
ARM GAS  T:\msys\tmp\ccwessdu.s 			page 3


  86:D:/fchai/work/i-cube/I-CUBE-HUAWEI/Middlewares/Third_Party/Huawei/iot_link/network/dtls/mbedtls/mbedtls-2.16.2/library\aes.c **** #endif
  87:D:/fchai/work/i-cube/I-CUBE-HUAWEI/Middlewares/Third_Party/Huawei/iot_link/network/dtls/mbedtls/mbedtls-2.16.2/library\aes.c **** 
  88:D:/fchai/work/i-cube/I-CUBE-HUAWEI/Middlewares/Third_Party/Huawei/iot_link/network/dtls/mbedtls/mbedtls-2.16.2/library\aes.c **** #if defined(MBEDTLS_PADLOCK_C) &&                      \
  89:D:/fchai/work/i-cube/I-CUBE-HUAWEI/Middlewares/Third_Party/Huawei/iot_link/network/dtls/mbedtls/mbedtls-2.16.2/library\aes.c ****     ( defined(MBEDTLS_HAVE_X86) || defined(MBEDTLS_PADLOCK_ALIGN16) )
  90:D:/fchai/work/i-cube/I-CUBE-HUAWEI/Middlewares/Third_Party/Huawei/iot_link/network/dtls/mbedtls/mbedtls-2.16.2/library\aes.c **** static int aes_padlock_ace = -1;
  91:D:/fchai/work/i-cube/I-CUBE-HUAWEI/Middlewares/Third_Party/Huawei/iot_link/network/dtls/mbedtls/mbedtls-2.16.2/library\aes.c **** #endif
  92:D:/fchai/work/i-cube/I-CUBE-HUAWEI/Middlewares/Third_Party/Huawei/iot_link/network/dtls/mbedtls/mbedtls-2.16.2/library\aes.c **** 
  93:D:/fchai/work/i-cube/I-CUBE-HUAWEI/Middlewares/Third_Party/Huawei/iot_link/network/dtls/mbedtls/mbedtls-2.16.2/library\aes.c **** #if defined(MBEDTLS_AES_ROM_TABLES)
  94:D:/fchai/work/i-cube/I-CUBE-HUAWEI/Middlewares/Third_Party/Huawei/iot_link/network/dtls/mbedtls/mbedtls-2.16.2/library\aes.c **** /*
  95:D:/fchai/work/i-cube/I-CUBE-HUAWEI/Middlewares/Third_Party/Huawei/iot_link/network/dtls/mbedtls/mbedtls-2.16.2/library\aes.c ****  * Forward S-box
  96:D:/fchai/work/i-cube/I-CUBE-HUAWEI/Middlewares/Third_Party/Huawei/iot_link/network/dtls/mbedtls/mbedtls-2.16.2/library\aes.c ****  */
  97:D:/fchai/work/i-cube/I-CUBE-HUAWEI/Middlewares/Third_Party/Huawei/iot_link/network/dtls/mbedtls/mbedtls-2.16.2/library\aes.c **** static const unsigned char FSb[256] =
  98:D:/fchai/work/i-cube/I-CUBE-HUAWEI/Middlewares/Third_Party/Huawei/iot_link/network/dtls/mbedtls/mbedtls-2.16.2/library\aes.c **** {
  99:D:/fchai/work/i-cube/I-CUBE-HUAWEI/Middlewares/Third_Party/Huawei/iot_link/network/dtls/mbedtls/mbedtls-2.16.2/library\aes.c ****     0x63, 0x7C, 0x77, 0x7B, 0xF2, 0x6B, 0x6F, 0xC5,
 100:D:/fchai/work/i-cube/I-CUBE-HUAWEI/Middlewares/Third_Party/Huawei/iot_link/network/dtls/mbedtls/mbedtls-2.16.2/library\aes.c ****     0x30, 0x01, 0x67, 0x2B, 0xFE, 0xD7, 0xAB, 0x76,
 101:D:/fchai/work/i-cube/I-CUBE-HUAWEI/Middlewares/Third_Party/Huawei/iot_link/network/dtls/mbedtls/mbedtls-2.16.2/library\aes.c ****     0xCA, 0x82, 0xC9, 0x7D, 0xFA, 0x59, 0x47, 0xF0,
 102:D:/fchai/work/i-cube/I-CUBE-HUAWEI/Middlewares/Third_Party/Huawei/iot_link/network/dtls/mbedtls/mbedtls-2.16.2/library\aes.c ****     0xAD, 0xD4, 0xA2, 0xAF, 0x9C, 0xA4, 0x72, 0xC0,
 103:D:/fchai/work/i-cube/I-CUBE-HUAWEI/Middlewares/Third_Party/Huawei/iot_link/network/dtls/mbedtls/mbedtls-2.16.2/library\aes.c ****     0xB7, 0xFD, 0x93, 0x26, 0x36, 0x3F, 0xF7, 0xCC,
 104:D:/fchai/work/i-cube/I-CUBE-HUAWEI/Middlewares/Third_Party/Huawei/iot_link/network/dtls/mbedtls/mbedtls-2.16.2/library\aes.c ****     0x34, 0xA5, 0xE5, 0xF1, 0x71, 0xD8, 0x31, 0x15,
 105:D:/fchai/work/i-cube/I-CUBE-HUAWEI/Middlewares/Third_Party/Huawei/iot_link/network/dtls/mbedtls/mbedtls-2.16.2/library\aes.c ****     0x04, 0xC7, 0x23, 0xC3, 0x18, 0x96, 0x05, 0x9A,
 106:D:/fchai/work/i-cube/I-CUBE-HUAWEI/Middlewares/Third_Party/Huawei/iot_link/network/dtls/mbedtls/mbedtls-2.16.2/library\aes.c ****     0x07, 0x12, 0x80, 0xE2, 0xEB, 0x27, 0xB2, 0x75,
 107:D:/fchai/work/i-cube/I-CUBE-HUAWEI/Middlewares/Third_Party/Huawei/iot_link/network/dtls/mbedtls/mbedtls-2.16.2/library\aes.c ****     0x09, 0x83, 0x2C, 0x1A, 0x1B, 0x6E, 0x5A, 0xA0,
 108:D:/fchai/work/i-cube/I-CUBE-HUAWEI/Middlewares/Third_Party/Huawei/iot_link/network/dtls/mbedtls/mbedtls-2.16.2/library\aes.c ****     0x52, 0x3B, 0xD6, 0xB3, 0x29, 0xE3, 0x2F, 0x84,
 109:D:/fchai/work/i-cube/I-CUBE-HUAWEI/Middlewares/Third_Party/Huawei/iot_link/network/dtls/mbedtls/mbedtls-2.16.2/library\aes.c ****     0x53, 0xD1, 0x00, 0xED, 0x20, 0xFC, 0xB1, 0x5B,
 110:D:/fchai/work/i-cube/I-CUBE-HUAWEI/Middlewares/Third_Party/Huawei/iot_link/network/dtls/mbedtls/mbedtls-2.16.2/library\aes.c ****     0x6A, 0xCB, 0xBE, 0x39, 0x4A, 0x4C, 0x58, 0xCF,
 111:D:/fchai/work/i-cube/I-CUBE-HUAWEI/Middlewares/Third_Party/Huawei/iot_link/network/dtls/mbedtls/mbedtls-2.16.2/library\aes.c ****     0xD0, 0xEF, 0xAA, 0xFB, 0x43, 0x4D, 0x33, 0x85,
 112:D:/fchai/work/i-cube/I-CUBE-HUAWEI/Middlewares/Third_Party/Huawei/iot_link/network/dtls/mbedtls/mbedtls-2.16.2/library\aes.c ****     0x45, 0xF9, 0x02, 0x7F, 0x50, 0x3C, 0x9F, 0xA8,
 113:D:/fchai/work/i-cube/I-CUBE-HUAWEI/Middlewares/Third_Party/Huawei/iot_link/network/dtls/mbedtls/mbedtls-2.16.2/library\aes.c ****     0x51, 0xA3, 0x40, 0x8F, 0x92, 0x9D, 0x38, 0xF5,
 114:D:/fchai/work/i-cube/I-CUBE-HUAWEI/Middlewares/Third_Party/Huawei/iot_link/network/dtls/mbedtls/mbedtls-2.16.2/library\aes.c ****     0xBC, 0xB6, 0xDA, 0x21, 0x10, 0xFF, 0xF3, 0xD2,
 115:D:/fchai/work/i-cube/I-CUBE-HUAWEI/Middlewares/Third_Party/Huawei/iot_link/network/dtls/mbedtls/mbedtls-2.16.2/library\aes.c ****     0xCD, 0x0C, 0x13, 0xEC, 0x5F, 0x97, 0x44, 0x17,
 116:D:/fchai/work/i-cube/I-CUBE-HUAWEI/Middlewares/Third_Party/Huawei/iot_link/network/dtls/mbedtls/mbedtls-2.16.2/library\aes.c ****     0xC4, 0xA7, 0x7E, 0x3D, 0x64, 0x5D, 0x19, 0x73,
 117:D:/fchai/work/i-cube/I-CUBE-HUAWEI/Middlewares/Third_Party/Huawei/iot_link/network/dtls/mbedtls/mbedtls-2.16.2/library\aes.c ****     0x60, 0x81, 0x4F, 0xDC, 0x22, 0x2A, 0x90, 0x88,
 118:D:/fchai/work/i-cube/I-CUBE-HUAWEI/Middlewares/Third_Party/Huawei/iot_link/network/dtls/mbedtls/mbedtls-2.16.2/library\aes.c ****     0x46, 0xEE, 0xB8, 0x14, 0xDE, 0x5E, 0x0B, 0xDB,
 119:D:/fchai/work/i-cube/I-CUBE-HUAWEI/Middlewares/Third_Party/Huawei/iot_link/network/dtls/mbedtls/mbedtls-2.16.2/library\aes.c ****     0xE0, 0x32, 0x3A, 0x0A, 0x49, 0x06, 0x24, 0x5C,
 120:D:/fchai/work/i-cube/I-CUBE-HUAWEI/Middlewares/Third_Party/Huawei/iot_link/network/dtls/mbedtls/mbedtls-2.16.2/library\aes.c ****     0xC2, 0xD3, 0xAC, 0x62, 0x91, 0x95, 0xE4, 0x79,
 121:D:/fchai/work/i-cube/I-CUBE-HUAWEI/Middlewares/Third_Party/Huawei/iot_link/network/dtls/mbedtls/mbedtls-2.16.2/library\aes.c ****     0xE7, 0xC8, 0x37, 0x6D, 0x8D, 0xD5, 0x4E, 0xA9,
 122:D:/fchai/work/i-cube/I-CUBE-HUAWEI/Middlewares/Third_Party/Huawei/iot_link/network/dtls/mbedtls/mbedtls-2.16.2/library\aes.c ****     0x6C, 0x56, 0xF4, 0xEA, 0x65, 0x7A, 0xAE, 0x08,
 123:D:/fchai/work/i-cube/I-CUBE-HUAWEI/Middlewares/Third_Party/Huawei/iot_link/network/dtls/mbedtls/mbedtls-2.16.2/library\aes.c ****     0xBA, 0x78, 0x25, 0x2E, 0x1C, 0xA6, 0xB4, 0xC6,
 124:D:/fchai/work/i-cube/I-CUBE-HUAWEI/Middlewares/Third_Party/Huawei/iot_link/network/dtls/mbedtls/mbedtls-2.16.2/library\aes.c ****     0xE8, 0xDD, 0x74, 0x1F, 0x4B, 0xBD, 0x8B, 0x8A,
 125:D:/fchai/work/i-cube/I-CUBE-HUAWEI/Middlewares/Third_Party/Huawei/iot_link/network/dtls/mbedtls/mbedtls-2.16.2/library\aes.c ****     0x70, 0x3E, 0xB5, 0x66, 0x48, 0x03, 0xF6, 0x0E,
 126:D:/fchai/work/i-cube/I-CUBE-HUAWEI/Middlewares/Third_Party/Huawei/iot_link/network/dtls/mbedtls/mbedtls-2.16.2/library\aes.c ****     0x61, 0x35, 0x57, 0xB9, 0x86, 0xC1, 0x1D, 0x9E,
 127:D:/fchai/work/i-cube/I-CUBE-HUAWEI/Middlewares/Third_Party/Huawei/iot_link/network/dtls/mbedtls/mbedtls-2.16.2/library\aes.c ****     0xE1, 0xF8, 0x98, 0x11, 0x69, 0xD9, 0x8E, 0x94,
 128:D:/fchai/work/i-cube/I-CUBE-HUAWEI/Middlewares/Third_Party/Huawei/iot_link/network/dtls/mbedtls/mbedtls-2.16.2/library\aes.c ****     0x9B, 0x1E, 0x87, 0xE9, 0xCE, 0x55, 0x28, 0xDF,
 129:D:/fchai/work/i-cube/I-CUBE-HUAWEI/Middlewares/Third_Party/Huawei/iot_link/network/dtls/mbedtls/mbedtls-2.16.2/library\aes.c ****     0x8C, 0xA1, 0x89, 0x0D, 0xBF, 0xE6, 0x42, 0x68,
 130:D:/fchai/work/i-cube/I-CUBE-HUAWEI/Middlewares/Third_Party/Huawei/iot_link/network/dtls/mbedtls/mbedtls-2.16.2/library\aes.c ****     0x41, 0x99, 0x2D, 0x0F, 0xB0, 0x54, 0xBB, 0x16
 131:D:/fchai/work/i-cube/I-CUBE-HUAWEI/Middlewares/Third_Party/Huawei/iot_link/network/dtls/mbedtls/mbedtls-2.16.2/library\aes.c **** };
 132:D:/fchai/work/i-cube/I-CUBE-HUAWEI/Middlewares/Third_Party/Huawei/iot_link/network/dtls/mbedtls/mbedtls-2.16.2/library\aes.c **** 
 133:D:/fchai/work/i-cube/I-CUBE-HUAWEI/Middlewares/Third_Party/Huawei/iot_link/network/dtls/mbedtls/mbedtls-2.16.2/library\aes.c **** /*
 134:D:/fchai/work/i-cube/I-CUBE-HUAWEI/Middlewares/Third_Party/Huawei/iot_link/network/dtls/mbedtls/mbedtls-2.16.2/library\aes.c ****  * Forward tables
 135:D:/fchai/work/i-cube/I-CUBE-HUAWEI/Middlewares/Third_Party/Huawei/iot_link/network/dtls/mbedtls/mbedtls-2.16.2/library\aes.c ****  */
 136:D:/fchai/work/i-cube/I-CUBE-HUAWEI/Middlewares/Third_Party/Huawei/iot_link/network/dtls/mbedtls/mbedtls-2.16.2/library\aes.c **** #define FT \
 137:D:/fchai/work/i-cube/I-CUBE-HUAWEI/Middlewares/Third_Party/Huawei/iot_link/network/dtls/mbedtls/mbedtls-2.16.2/library\aes.c **** \
 138:D:/fchai/work/i-cube/I-CUBE-HUAWEI/Middlewares/Third_Party/Huawei/iot_link/network/dtls/mbedtls/mbedtls-2.16.2/library\aes.c ****     V(A5,63,63,C6), V(84,7C,7C,F8), V(99,77,77,EE), V(8D,7B,7B,F6), \
 139:D:/fchai/work/i-cube/I-CUBE-HUAWEI/Middlewares/Third_Party/Huawei/iot_link/network/dtls/mbedtls/mbedtls-2.16.2/library\aes.c ****     V(0D,F2,F2,FF), V(BD,6B,6B,D6), V(B1,6F,6F,DE), V(54,C5,C5,91), \
 140:D:/fchai/work/i-cube/I-CUBE-HUAWEI/Middlewares/Third_Party/Huawei/iot_link/network/dtls/mbedtls/mbedtls-2.16.2/library\aes.c ****     V(50,30,30,60), V(03,01,01,02), V(A9,67,67,CE), V(7D,2B,2B,56), \
 141:D:/fchai/work/i-cube/I-CUBE-HUAWEI/Middlewares/Third_Party/Huawei/iot_link/network/dtls/mbedtls/mbedtls-2.16.2/library\aes.c ****     V(19,FE,FE,E7), V(62,D7,D7,B5), V(E6,AB,AB,4D), V(9A,76,76,EC), \
 142:D:/fchai/work/i-cube/I-CUBE-HUAWEI/Middlewares/Third_Party/Huawei/iot_link/network/dtls/mbedtls/mbedtls-2.16.2/library\aes.c ****     V(45,CA,CA,8F), V(9D,82,82,1F), V(40,C9,C9,89), V(87,7D,7D,FA), \
ARM GAS  T:\msys\tmp\ccwessdu.s 			page 4


 143:D:/fchai/work/i-cube/I-CUBE-HUAWEI/Middlewares/Third_Party/Huawei/iot_link/network/dtls/mbedtls/mbedtls-2.16.2/library\aes.c ****     V(15,FA,FA,EF), V(EB,59,59,B2), V(C9,47,47,8E), V(0B,F0,F0,FB), \
 144:D:/fchai/work/i-cube/I-CUBE-HUAWEI/Middlewares/Third_Party/Huawei/iot_link/network/dtls/mbedtls/mbedtls-2.16.2/library\aes.c ****     V(EC,AD,AD,41), V(67,D4,D4,B3), V(FD,A2,A2,5F), V(EA,AF,AF,45), \
 145:D:/fchai/work/i-cube/I-CUBE-HUAWEI/Middlewares/Third_Party/Huawei/iot_link/network/dtls/mbedtls/mbedtls-2.16.2/library\aes.c ****     V(BF,9C,9C,23), V(F7,A4,A4,53), V(96,72,72,E4), V(5B,C0,C0,9B), \
 146:D:/fchai/work/i-cube/I-CUBE-HUAWEI/Middlewares/Third_Party/Huawei/iot_link/network/dtls/mbedtls/mbedtls-2.16.2/library\aes.c ****     V(C2,B7,B7,75), V(1C,FD,FD,E1), V(AE,93,93,3D), V(6A,26,26,4C), \
 147:D:/fchai/work/i-cube/I-CUBE-HUAWEI/Middlewares/Third_Party/Huawei/iot_link/network/dtls/mbedtls/mbedtls-2.16.2/library\aes.c ****     V(5A,36,36,6C), V(41,3F,3F,7E), V(02,F7,F7,F5), V(4F,CC,CC,83), \
 148:D:/fchai/work/i-cube/I-CUBE-HUAWEI/Middlewares/Third_Party/Huawei/iot_link/network/dtls/mbedtls/mbedtls-2.16.2/library\aes.c ****     V(5C,34,34,68), V(F4,A5,A5,51), V(34,E5,E5,D1), V(08,F1,F1,F9), \
 149:D:/fchai/work/i-cube/I-CUBE-HUAWEI/Middlewares/Third_Party/Huawei/iot_link/network/dtls/mbedtls/mbedtls-2.16.2/library\aes.c ****     V(93,71,71,E2), V(73,D8,D8,AB), V(53,31,31,62), V(3F,15,15,2A), \
 150:D:/fchai/work/i-cube/I-CUBE-HUAWEI/Middlewares/Third_Party/Huawei/iot_link/network/dtls/mbedtls/mbedtls-2.16.2/library\aes.c ****     V(0C,04,04,08), V(52,C7,C7,95), V(65,23,23,46), V(5E,C3,C3,9D), \
 151:D:/fchai/work/i-cube/I-CUBE-HUAWEI/Middlewares/Third_Party/Huawei/iot_link/network/dtls/mbedtls/mbedtls-2.16.2/library\aes.c ****     V(28,18,18,30), V(A1,96,96,37), V(0F,05,05,0A), V(B5,9A,9A,2F), \
 152:D:/fchai/work/i-cube/I-CUBE-HUAWEI/Middlewares/Third_Party/Huawei/iot_link/network/dtls/mbedtls/mbedtls-2.16.2/library\aes.c ****     V(09,07,07,0E), V(36,12,12,24), V(9B,80,80,1B), V(3D,E2,E2,DF), \
 153:D:/fchai/work/i-cube/I-CUBE-HUAWEI/Middlewares/Third_Party/Huawei/iot_link/network/dtls/mbedtls/mbedtls-2.16.2/library\aes.c ****     V(26,EB,EB,CD), V(69,27,27,4E), V(CD,B2,B2,7F), V(9F,75,75,EA), \
 154:D:/fchai/work/i-cube/I-CUBE-HUAWEI/Middlewares/Third_Party/Huawei/iot_link/network/dtls/mbedtls/mbedtls-2.16.2/library\aes.c ****     V(1B,09,09,12), V(9E,83,83,1D), V(74,2C,2C,58), V(2E,1A,1A,34), \
 155:D:/fchai/work/i-cube/I-CUBE-HUAWEI/Middlewares/Third_Party/Huawei/iot_link/network/dtls/mbedtls/mbedtls-2.16.2/library\aes.c ****     V(2D,1B,1B,36), V(B2,6E,6E,DC), V(EE,5A,5A,B4), V(FB,A0,A0,5B), \
 156:D:/fchai/work/i-cube/I-CUBE-HUAWEI/Middlewares/Third_Party/Huawei/iot_link/network/dtls/mbedtls/mbedtls-2.16.2/library\aes.c ****     V(F6,52,52,A4), V(4D,3B,3B,76), V(61,D6,D6,B7), V(CE,B3,B3,7D), \
 157:D:/fchai/work/i-cube/I-CUBE-HUAWEI/Middlewares/Third_Party/Huawei/iot_link/network/dtls/mbedtls/mbedtls-2.16.2/library\aes.c ****     V(7B,29,29,52), V(3E,E3,E3,DD), V(71,2F,2F,5E), V(97,84,84,13), \
 158:D:/fchai/work/i-cube/I-CUBE-HUAWEI/Middlewares/Third_Party/Huawei/iot_link/network/dtls/mbedtls/mbedtls-2.16.2/library\aes.c ****     V(F5,53,53,A6), V(68,D1,D1,B9), V(00,00,00,00), V(2C,ED,ED,C1), \
 159:D:/fchai/work/i-cube/I-CUBE-HUAWEI/Middlewares/Third_Party/Huawei/iot_link/network/dtls/mbedtls/mbedtls-2.16.2/library\aes.c ****     V(60,20,20,40), V(1F,FC,FC,E3), V(C8,B1,B1,79), V(ED,5B,5B,B6), \
 160:D:/fchai/work/i-cube/I-CUBE-HUAWEI/Middlewares/Third_Party/Huawei/iot_link/network/dtls/mbedtls/mbedtls-2.16.2/library\aes.c ****     V(BE,6A,6A,D4), V(46,CB,CB,8D), V(D9,BE,BE,67), V(4B,39,39,72), \
 161:D:/fchai/work/i-cube/I-CUBE-HUAWEI/Middlewares/Third_Party/Huawei/iot_link/network/dtls/mbedtls/mbedtls-2.16.2/library\aes.c ****     V(DE,4A,4A,94), V(D4,4C,4C,98), V(E8,58,58,B0), V(4A,CF,CF,85), \
 162:D:/fchai/work/i-cube/I-CUBE-HUAWEI/Middlewares/Third_Party/Huawei/iot_link/network/dtls/mbedtls/mbedtls-2.16.2/library\aes.c ****     V(6B,D0,D0,BB), V(2A,EF,EF,C5), V(E5,AA,AA,4F), V(16,FB,FB,ED), \
 163:D:/fchai/work/i-cube/I-CUBE-HUAWEI/Middlewares/Third_Party/Huawei/iot_link/network/dtls/mbedtls/mbedtls-2.16.2/library\aes.c ****     V(C5,43,43,86), V(D7,4D,4D,9A), V(55,33,33,66), V(94,85,85,11), \
 164:D:/fchai/work/i-cube/I-CUBE-HUAWEI/Middlewares/Third_Party/Huawei/iot_link/network/dtls/mbedtls/mbedtls-2.16.2/library\aes.c ****     V(CF,45,45,8A), V(10,F9,F9,E9), V(06,02,02,04), V(81,7F,7F,FE), \
 165:D:/fchai/work/i-cube/I-CUBE-HUAWEI/Middlewares/Third_Party/Huawei/iot_link/network/dtls/mbedtls/mbedtls-2.16.2/library\aes.c ****     V(F0,50,50,A0), V(44,3C,3C,78), V(BA,9F,9F,25), V(E3,A8,A8,4B), \
 166:D:/fchai/work/i-cube/I-CUBE-HUAWEI/Middlewares/Third_Party/Huawei/iot_link/network/dtls/mbedtls/mbedtls-2.16.2/library\aes.c ****     V(F3,51,51,A2), V(FE,A3,A3,5D), V(C0,40,40,80), V(8A,8F,8F,05), \
 167:D:/fchai/work/i-cube/I-CUBE-HUAWEI/Middlewares/Third_Party/Huawei/iot_link/network/dtls/mbedtls/mbedtls-2.16.2/library\aes.c ****     V(AD,92,92,3F), V(BC,9D,9D,21), V(48,38,38,70), V(04,F5,F5,F1), \
 168:D:/fchai/work/i-cube/I-CUBE-HUAWEI/Middlewares/Third_Party/Huawei/iot_link/network/dtls/mbedtls/mbedtls-2.16.2/library\aes.c ****     V(DF,BC,BC,63), V(C1,B6,B6,77), V(75,DA,DA,AF), V(63,21,21,42), \
 169:D:/fchai/work/i-cube/I-CUBE-HUAWEI/Middlewares/Third_Party/Huawei/iot_link/network/dtls/mbedtls/mbedtls-2.16.2/library\aes.c ****     V(30,10,10,20), V(1A,FF,FF,E5), V(0E,F3,F3,FD), V(6D,D2,D2,BF), \
 170:D:/fchai/work/i-cube/I-CUBE-HUAWEI/Middlewares/Third_Party/Huawei/iot_link/network/dtls/mbedtls/mbedtls-2.16.2/library\aes.c ****     V(4C,CD,CD,81), V(14,0C,0C,18), V(35,13,13,26), V(2F,EC,EC,C3), \
 171:D:/fchai/work/i-cube/I-CUBE-HUAWEI/Middlewares/Third_Party/Huawei/iot_link/network/dtls/mbedtls/mbedtls-2.16.2/library\aes.c ****     V(E1,5F,5F,BE), V(A2,97,97,35), V(CC,44,44,88), V(39,17,17,2E), \
 172:D:/fchai/work/i-cube/I-CUBE-HUAWEI/Middlewares/Third_Party/Huawei/iot_link/network/dtls/mbedtls/mbedtls-2.16.2/library\aes.c ****     V(57,C4,C4,93), V(F2,A7,A7,55), V(82,7E,7E,FC), V(47,3D,3D,7A), \
 173:D:/fchai/work/i-cube/I-CUBE-HUAWEI/Middlewares/Third_Party/Huawei/iot_link/network/dtls/mbedtls/mbedtls-2.16.2/library\aes.c ****     V(AC,64,64,C8), V(E7,5D,5D,BA), V(2B,19,19,32), V(95,73,73,E6), \
 174:D:/fchai/work/i-cube/I-CUBE-HUAWEI/Middlewares/Third_Party/Huawei/iot_link/network/dtls/mbedtls/mbedtls-2.16.2/library\aes.c ****     V(A0,60,60,C0), V(98,81,81,19), V(D1,4F,4F,9E), V(7F,DC,DC,A3), \
 175:D:/fchai/work/i-cube/I-CUBE-HUAWEI/Middlewares/Third_Party/Huawei/iot_link/network/dtls/mbedtls/mbedtls-2.16.2/library\aes.c ****     V(66,22,22,44), V(7E,2A,2A,54), V(AB,90,90,3B), V(83,88,88,0B), \
 176:D:/fchai/work/i-cube/I-CUBE-HUAWEI/Middlewares/Third_Party/Huawei/iot_link/network/dtls/mbedtls/mbedtls-2.16.2/library\aes.c ****     V(CA,46,46,8C), V(29,EE,EE,C7), V(D3,B8,B8,6B), V(3C,14,14,28), \
 177:D:/fchai/work/i-cube/I-CUBE-HUAWEI/Middlewares/Third_Party/Huawei/iot_link/network/dtls/mbedtls/mbedtls-2.16.2/library\aes.c ****     V(79,DE,DE,A7), V(E2,5E,5E,BC), V(1D,0B,0B,16), V(76,DB,DB,AD), \
 178:D:/fchai/work/i-cube/I-CUBE-HUAWEI/Middlewares/Third_Party/Huawei/iot_link/network/dtls/mbedtls/mbedtls-2.16.2/library\aes.c ****     V(3B,E0,E0,DB), V(56,32,32,64), V(4E,3A,3A,74), V(1E,0A,0A,14), \
 179:D:/fchai/work/i-cube/I-CUBE-HUAWEI/Middlewares/Third_Party/Huawei/iot_link/network/dtls/mbedtls/mbedtls-2.16.2/library\aes.c ****     V(DB,49,49,92), V(0A,06,06,0C), V(6C,24,24,48), V(E4,5C,5C,B8), \
 180:D:/fchai/work/i-cube/I-CUBE-HUAWEI/Middlewares/Third_Party/Huawei/iot_link/network/dtls/mbedtls/mbedtls-2.16.2/library\aes.c ****     V(5D,C2,C2,9F), V(6E,D3,D3,BD), V(EF,AC,AC,43), V(A6,62,62,C4), \
 181:D:/fchai/work/i-cube/I-CUBE-HUAWEI/Middlewares/Third_Party/Huawei/iot_link/network/dtls/mbedtls/mbedtls-2.16.2/library\aes.c ****     V(A8,91,91,39), V(A4,95,95,31), V(37,E4,E4,D3), V(8B,79,79,F2), \
 182:D:/fchai/work/i-cube/I-CUBE-HUAWEI/Middlewares/Third_Party/Huawei/iot_link/network/dtls/mbedtls/mbedtls-2.16.2/library\aes.c ****     V(32,E7,E7,D5), V(43,C8,C8,8B), V(59,37,37,6E), V(B7,6D,6D,DA), \
 183:D:/fchai/work/i-cube/I-CUBE-HUAWEI/Middlewares/Third_Party/Huawei/iot_link/network/dtls/mbedtls/mbedtls-2.16.2/library\aes.c ****     V(8C,8D,8D,01), V(64,D5,D5,B1), V(D2,4E,4E,9C), V(E0,A9,A9,49), \
 184:D:/fchai/work/i-cube/I-CUBE-HUAWEI/Middlewares/Third_Party/Huawei/iot_link/network/dtls/mbedtls/mbedtls-2.16.2/library\aes.c ****     V(B4,6C,6C,D8), V(FA,56,56,AC), V(07,F4,F4,F3), V(25,EA,EA,CF), \
 185:D:/fchai/work/i-cube/I-CUBE-HUAWEI/Middlewares/Third_Party/Huawei/iot_link/network/dtls/mbedtls/mbedtls-2.16.2/library\aes.c ****     V(AF,65,65,CA), V(8E,7A,7A,F4), V(E9,AE,AE,47), V(18,08,08,10), \
 186:D:/fchai/work/i-cube/I-CUBE-HUAWEI/Middlewares/Third_Party/Huawei/iot_link/network/dtls/mbedtls/mbedtls-2.16.2/library\aes.c ****     V(D5,BA,BA,6F), V(88,78,78,F0), V(6F,25,25,4A), V(72,2E,2E,5C), \
 187:D:/fchai/work/i-cube/I-CUBE-HUAWEI/Middlewares/Third_Party/Huawei/iot_link/network/dtls/mbedtls/mbedtls-2.16.2/library\aes.c ****     V(24,1C,1C,38), V(F1,A6,A6,57), V(C7,B4,B4,73), V(51,C6,C6,97), \
 188:D:/fchai/work/i-cube/I-CUBE-HUAWEI/Middlewares/Third_Party/Huawei/iot_link/network/dtls/mbedtls/mbedtls-2.16.2/library\aes.c ****     V(23,E8,E8,CB), V(7C,DD,DD,A1), V(9C,74,74,E8), V(21,1F,1F,3E), \
 189:D:/fchai/work/i-cube/I-CUBE-HUAWEI/Middlewares/Third_Party/Huawei/iot_link/network/dtls/mbedtls/mbedtls-2.16.2/library\aes.c ****     V(DD,4B,4B,96), V(DC,BD,BD,61), V(86,8B,8B,0D), V(85,8A,8A,0F), \
 190:D:/fchai/work/i-cube/I-CUBE-HUAWEI/Middlewares/Third_Party/Huawei/iot_link/network/dtls/mbedtls/mbedtls-2.16.2/library\aes.c ****     V(90,70,70,E0), V(42,3E,3E,7C), V(C4,B5,B5,71), V(AA,66,66,CC), \
 191:D:/fchai/work/i-cube/I-CUBE-HUAWEI/Middlewares/Third_Party/Huawei/iot_link/network/dtls/mbedtls/mbedtls-2.16.2/library\aes.c ****     V(D8,48,48,90), V(05,03,03,06), V(01,F6,F6,F7), V(12,0E,0E,1C), \
 192:D:/fchai/work/i-cube/I-CUBE-HUAWEI/Middlewares/Third_Party/Huawei/iot_link/network/dtls/mbedtls/mbedtls-2.16.2/library\aes.c ****     V(A3,61,61,C2), V(5F,35,35,6A), V(F9,57,57,AE), V(D0,B9,B9,69), \
 193:D:/fchai/work/i-cube/I-CUBE-HUAWEI/Middlewares/Third_Party/Huawei/iot_link/network/dtls/mbedtls/mbedtls-2.16.2/library\aes.c ****     V(91,86,86,17), V(58,C1,C1,99), V(27,1D,1D,3A), V(B9,9E,9E,27), \
 194:D:/fchai/work/i-cube/I-CUBE-HUAWEI/Middlewares/Third_Party/Huawei/iot_link/network/dtls/mbedtls/mbedtls-2.16.2/library\aes.c ****     V(38,E1,E1,D9), V(13,F8,F8,EB), V(B3,98,98,2B), V(33,11,11,22), \
 195:D:/fchai/work/i-cube/I-CUBE-HUAWEI/Middlewares/Third_Party/Huawei/iot_link/network/dtls/mbedtls/mbedtls-2.16.2/library\aes.c ****     V(BB,69,69,D2), V(70,D9,D9,A9), V(89,8E,8E,07), V(A7,94,94,33), \
 196:D:/fchai/work/i-cube/I-CUBE-HUAWEI/Middlewares/Third_Party/Huawei/iot_link/network/dtls/mbedtls/mbedtls-2.16.2/library\aes.c ****     V(B6,9B,9B,2D), V(22,1E,1E,3C), V(92,87,87,15), V(20,E9,E9,C9), \
 197:D:/fchai/work/i-cube/I-CUBE-HUAWEI/Middlewares/Third_Party/Huawei/iot_link/network/dtls/mbedtls/mbedtls-2.16.2/library\aes.c ****     V(49,CE,CE,87), V(FF,55,55,AA), V(78,28,28,50), V(7A,DF,DF,A5), \
 198:D:/fchai/work/i-cube/I-CUBE-HUAWEI/Middlewares/Third_Party/Huawei/iot_link/network/dtls/mbedtls/mbedtls-2.16.2/library\aes.c ****     V(8F,8C,8C,03), V(F8,A1,A1,59), V(80,89,89,09), V(17,0D,0D,1A), \
 199:D:/fchai/work/i-cube/I-CUBE-HUAWEI/Middlewares/Third_Party/Huawei/iot_link/network/dtls/mbedtls/mbedtls-2.16.2/library\aes.c ****     V(DA,BF,BF,65), V(31,E6,E6,D7), V(C6,42,42,84), V(B8,68,68,D0), \
ARM GAS  T:\msys\tmp\ccwessdu.s 			page 5


 200:D:/fchai/work/i-cube/I-CUBE-HUAWEI/Middlewares/Third_Party/Huawei/iot_link/network/dtls/mbedtls/mbedtls-2.16.2/library\aes.c ****     V(C3,41,41,82), V(B0,99,99,29), V(77,2D,2D,5A), V(11,0F,0F,1E), \
 201:D:/fchai/work/i-cube/I-CUBE-HUAWEI/Middlewares/Third_Party/Huawei/iot_link/network/dtls/mbedtls/mbedtls-2.16.2/library\aes.c ****     V(CB,B0,B0,7B), V(FC,54,54,A8), V(D6,BB,BB,6D), V(3A,16,16,2C)
 202:D:/fchai/work/i-cube/I-CUBE-HUAWEI/Middlewares/Third_Party/Huawei/iot_link/network/dtls/mbedtls/mbedtls-2.16.2/library\aes.c **** 
 203:D:/fchai/work/i-cube/I-CUBE-HUAWEI/Middlewares/Third_Party/Huawei/iot_link/network/dtls/mbedtls/mbedtls-2.16.2/library\aes.c **** #define V(a,b,c,d) 0x##a##b##c##d
 204:D:/fchai/work/i-cube/I-CUBE-HUAWEI/Middlewares/Third_Party/Huawei/iot_link/network/dtls/mbedtls/mbedtls-2.16.2/library\aes.c **** static const uint32_t FT0[256] = { FT };
 205:D:/fchai/work/i-cube/I-CUBE-HUAWEI/Middlewares/Third_Party/Huawei/iot_link/network/dtls/mbedtls/mbedtls-2.16.2/library\aes.c **** #undef V
 206:D:/fchai/work/i-cube/I-CUBE-HUAWEI/Middlewares/Third_Party/Huawei/iot_link/network/dtls/mbedtls/mbedtls-2.16.2/library\aes.c **** 
 207:D:/fchai/work/i-cube/I-CUBE-HUAWEI/Middlewares/Third_Party/Huawei/iot_link/network/dtls/mbedtls/mbedtls-2.16.2/library\aes.c **** #if !defined(MBEDTLS_AES_FEWER_TABLES)
 208:D:/fchai/work/i-cube/I-CUBE-HUAWEI/Middlewares/Third_Party/Huawei/iot_link/network/dtls/mbedtls/mbedtls-2.16.2/library\aes.c **** 
 209:D:/fchai/work/i-cube/I-CUBE-HUAWEI/Middlewares/Third_Party/Huawei/iot_link/network/dtls/mbedtls/mbedtls-2.16.2/library\aes.c **** #define V(a,b,c,d) 0x##b##c##d##a
 210:D:/fchai/work/i-cube/I-CUBE-HUAWEI/Middlewares/Third_Party/Huawei/iot_link/network/dtls/mbedtls/mbedtls-2.16.2/library\aes.c **** static const uint32_t FT1[256] = { FT };
 211:D:/fchai/work/i-cube/I-CUBE-HUAWEI/Middlewares/Third_Party/Huawei/iot_link/network/dtls/mbedtls/mbedtls-2.16.2/library\aes.c **** #undef V
 212:D:/fchai/work/i-cube/I-CUBE-HUAWEI/Middlewares/Third_Party/Huawei/iot_link/network/dtls/mbedtls/mbedtls-2.16.2/library\aes.c **** 
 213:D:/fchai/work/i-cube/I-CUBE-HUAWEI/Middlewares/Third_Party/Huawei/iot_link/network/dtls/mbedtls/mbedtls-2.16.2/library\aes.c **** #define V(a,b,c,d) 0x##c##d##a##b
 214:D:/fchai/work/i-cube/I-CUBE-HUAWEI/Middlewares/Third_Party/Huawei/iot_link/network/dtls/mbedtls/mbedtls-2.16.2/library\aes.c **** static const uint32_t FT2[256] = { FT };
 215:D:/fchai/work/i-cube/I-CUBE-HUAWEI/Middlewares/Third_Party/Huawei/iot_link/network/dtls/mbedtls/mbedtls-2.16.2/library\aes.c **** #undef V
 216:D:/fchai/work/i-cube/I-CUBE-HUAWEI/Middlewares/Third_Party/Huawei/iot_link/network/dtls/mbedtls/mbedtls-2.16.2/library\aes.c **** 
 217:D:/fchai/work/i-cube/I-CUBE-HUAWEI/Middlewares/Third_Party/Huawei/iot_link/network/dtls/mbedtls/mbedtls-2.16.2/library\aes.c **** #define V(a,b,c,d) 0x##d##a##b##c
 218:D:/fchai/work/i-cube/I-CUBE-HUAWEI/Middlewares/Third_Party/Huawei/iot_link/network/dtls/mbedtls/mbedtls-2.16.2/library\aes.c **** static const uint32_t FT3[256] = { FT };
 219:D:/fchai/work/i-cube/I-CUBE-HUAWEI/Middlewares/Third_Party/Huawei/iot_link/network/dtls/mbedtls/mbedtls-2.16.2/library\aes.c **** #undef V
 220:D:/fchai/work/i-cube/I-CUBE-HUAWEI/Middlewares/Third_Party/Huawei/iot_link/network/dtls/mbedtls/mbedtls-2.16.2/library\aes.c **** 
 221:D:/fchai/work/i-cube/I-CUBE-HUAWEI/Middlewares/Third_Party/Huawei/iot_link/network/dtls/mbedtls/mbedtls-2.16.2/library\aes.c **** #endif /* !MBEDTLS_AES_FEWER_TABLES */
 222:D:/fchai/work/i-cube/I-CUBE-HUAWEI/Middlewares/Third_Party/Huawei/iot_link/network/dtls/mbedtls/mbedtls-2.16.2/library\aes.c **** 
 223:D:/fchai/work/i-cube/I-CUBE-HUAWEI/Middlewares/Third_Party/Huawei/iot_link/network/dtls/mbedtls/mbedtls-2.16.2/library\aes.c **** #undef FT
 224:D:/fchai/work/i-cube/I-CUBE-HUAWEI/Middlewares/Third_Party/Huawei/iot_link/network/dtls/mbedtls/mbedtls-2.16.2/library\aes.c **** 
 225:D:/fchai/work/i-cube/I-CUBE-HUAWEI/Middlewares/Third_Party/Huawei/iot_link/network/dtls/mbedtls/mbedtls-2.16.2/library\aes.c **** /*
 226:D:/fchai/work/i-cube/I-CUBE-HUAWEI/Middlewares/Third_Party/Huawei/iot_link/network/dtls/mbedtls/mbedtls-2.16.2/library\aes.c ****  * Reverse S-box
 227:D:/fchai/work/i-cube/I-CUBE-HUAWEI/Middlewares/Third_Party/Huawei/iot_link/network/dtls/mbedtls/mbedtls-2.16.2/library\aes.c ****  */
 228:D:/fchai/work/i-cube/I-CUBE-HUAWEI/Middlewares/Third_Party/Huawei/iot_link/network/dtls/mbedtls/mbedtls-2.16.2/library\aes.c **** static const unsigned char RSb[256] =
 229:D:/fchai/work/i-cube/I-CUBE-HUAWEI/Middlewares/Third_Party/Huawei/iot_link/network/dtls/mbedtls/mbedtls-2.16.2/library\aes.c **** {
 230:D:/fchai/work/i-cube/I-CUBE-HUAWEI/Middlewares/Third_Party/Huawei/iot_link/network/dtls/mbedtls/mbedtls-2.16.2/library\aes.c ****     0x52, 0x09, 0x6A, 0xD5, 0x30, 0x36, 0xA5, 0x38,
 231:D:/fchai/work/i-cube/I-CUBE-HUAWEI/Middlewares/Third_Party/Huawei/iot_link/network/dtls/mbedtls/mbedtls-2.16.2/library\aes.c ****     0xBF, 0x40, 0xA3, 0x9E, 0x81, 0xF3, 0xD7, 0xFB,
 232:D:/fchai/work/i-cube/I-CUBE-HUAWEI/Middlewares/Third_Party/Huawei/iot_link/network/dtls/mbedtls/mbedtls-2.16.2/library\aes.c ****     0x7C, 0xE3, 0x39, 0x82, 0x9B, 0x2F, 0xFF, 0x87,
 233:D:/fchai/work/i-cube/I-CUBE-HUAWEI/Middlewares/Third_Party/Huawei/iot_link/network/dtls/mbedtls/mbedtls-2.16.2/library\aes.c ****     0x34, 0x8E, 0x43, 0x44, 0xC4, 0xDE, 0xE9, 0xCB,
 234:D:/fchai/work/i-cube/I-CUBE-HUAWEI/Middlewares/Third_Party/Huawei/iot_link/network/dtls/mbedtls/mbedtls-2.16.2/library\aes.c ****     0x54, 0x7B, 0x94, 0x32, 0xA6, 0xC2, 0x23, 0x3D,
 235:D:/fchai/work/i-cube/I-CUBE-HUAWEI/Middlewares/Third_Party/Huawei/iot_link/network/dtls/mbedtls/mbedtls-2.16.2/library\aes.c ****     0xEE, 0x4C, 0x95, 0x0B, 0x42, 0xFA, 0xC3, 0x4E,
 236:D:/fchai/work/i-cube/I-CUBE-HUAWEI/Middlewares/Third_Party/Huawei/iot_link/network/dtls/mbedtls/mbedtls-2.16.2/library\aes.c ****     0x08, 0x2E, 0xA1, 0x66, 0x28, 0xD9, 0x24, 0xB2,
 237:D:/fchai/work/i-cube/I-CUBE-HUAWEI/Middlewares/Third_Party/Huawei/iot_link/network/dtls/mbedtls/mbedtls-2.16.2/library\aes.c ****     0x76, 0x5B, 0xA2, 0x49, 0x6D, 0x8B, 0xD1, 0x25,
 238:D:/fchai/work/i-cube/I-CUBE-HUAWEI/Middlewares/Third_Party/Huawei/iot_link/network/dtls/mbedtls/mbedtls-2.16.2/library\aes.c ****     0x72, 0xF8, 0xF6, 0x64, 0x86, 0x68, 0x98, 0x16,
 239:D:/fchai/work/i-cube/I-CUBE-HUAWEI/Middlewares/Third_Party/Huawei/iot_link/network/dtls/mbedtls/mbedtls-2.16.2/library\aes.c ****     0xD4, 0xA4, 0x5C, 0xCC, 0x5D, 0x65, 0xB6, 0x92,
 240:D:/fchai/work/i-cube/I-CUBE-HUAWEI/Middlewares/Third_Party/Huawei/iot_link/network/dtls/mbedtls/mbedtls-2.16.2/library\aes.c ****     0x6C, 0x70, 0x48, 0x50, 0xFD, 0xED, 0xB9, 0xDA,
 241:D:/fchai/work/i-cube/I-CUBE-HUAWEI/Middlewares/Third_Party/Huawei/iot_link/network/dtls/mbedtls/mbedtls-2.16.2/library\aes.c ****     0x5E, 0x15, 0x46, 0x57, 0xA7, 0x8D, 0x9D, 0x84,
 242:D:/fchai/work/i-cube/I-CUBE-HUAWEI/Middlewares/Third_Party/Huawei/iot_link/network/dtls/mbedtls/mbedtls-2.16.2/library\aes.c ****     0x90, 0xD8, 0xAB, 0x00, 0x8C, 0xBC, 0xD3, 0x0A,
 243:D:/fchai/work/i-cube/I-CUBE-HUAWEI/Middlewares/Third_Party/Huawei/iot_link/network/dtls/mbedtls/mbedtls-2.16.2/library\aes.c ****     0xF7, 0xE4, 0x58, 0x05, 0xB8, 0xB3, 0x45, 0x06,
 244:D:/fchai/work/i-cube/I-CUBE-HUAWEI/Middlewares/Third_Party/Huawei/iot_link/network/dtls/mbedtls/mbedtls-2.16.2/library\aes.c ****     0xD0, 0x2C, 0x1E, 0x8F, 0xCA, 0x3F, 0x0F, 0x02,
 245:D:/fchai/work/i-cube/I-CUBE-HUAWEI/Middlewares/Third_Party/Huawei/iot_link/network/dtls/mbedtls/mbedtls-2.16.2/library\aes.c ****     0xC1, 0xAF, 0xBD, 0x03, 0x01, 0x13, 0x8A, 0x6B,
 246:D:/fchai/work/i-cube/I-CUBE-HUAWEI/Middlewares/Third_Party/Huawei/iot_link/network/dtls/mbedtls/mbedtls-2.16.2/library\aes.c ****     0x3A, 0x91, 0x11, 0x41, 0x4F, 0x67, 0xDC, 0xEA,
 247:D:/fchai/work/i-cube/I-CUBE-HUAWEI/Middlewares/Third_Party/Huawei/iot_link/network/dtls/mbedtls/mbedtls-2.16.2/library\aes.c ****     0x97, 0xF2, 0xCF, 0xCE, 0xF0, 0xB4, 0xE6, 0x73,
 248:D:/fchai/work/i-cube/I-CUBE-HUAWEI/Middlewares/Third_Party/Huawei/iot_link/network/dtls/mbedtls/mbedtls-2.16.2/library\aes.c ****     0x96, 0xAC, 0x74, 0x22, 0xE7, 0xAD, 0x35, 0x85,
 249:D:/fchai/work/i-cube/I-CUBE-HUAWEI/Middlewares/Third_Party/Huawei/iot_link/network/dtls/mbedtls/mbedtls-2.16.2/library\aes.c ****     0xE2, 0xF9, 0x37, 0xE8, 0x1C, 0x75, 0xDF, 0x6E,
 250:D:/fchai/work/i-cube/I-CUBE-HUAWEI/Middlewares/Third_Party/Huawei/iot_link/network/dtls/mbedtls/mbedtls-2.16.2/library\aes.c ****     0x47, 0xF1, 0x1A, 0x71, 0x1D, 0x29, 0xC5, 0x89,
 251:D:/fchai/work/i-cube/I-CUBE-HUAWEI/Middlewares/Third_Party/Huawei/iot_link/network/dtls/mbedtls/mbedtls-2.16.2/library\aes.c ****     0x6F, 0xB7, 0x62, 0x0E, 0xAA, 0x18, 0xBE, 0x1B,
 252:D:/fchai/work/i-cube/I-CUBE-HUAWEI/Middlewares/Third_Party/Huawei/iot_link/network/dtls/mbedtls/mbedtls-2.16.2/library\aes.c ****     0xFC, 0x56, 0x3E, 0x4B, 0xC6, 0xD2, 0x79, 0x20,
 253:D:/fchai/work/i-cube/I-CUBE-HUAWEI/Middlewares/Third_Party/Huawei/iot_link/network/dtls/mbedtls/mbedtls-2.16.2/library\aes.c ****     0x9A, 0xDB, 0xC0, 0xFE, 0x78, 0xCD, 0x5A, 0xF4,
 254:D:/fchai/work/i-cube/I-CUBE-HUAWEI/Middlewares/Third_Party/Huawei/iot_link/network/dtls/mbedtls/mbedtls-2.16.2/library\aes.c ****     0x1F, 0xDD, 0xA8, 0x33, 0x88, 0x07, 0xC7, 0x31,
 255:D:/fchai/work/i-cube/I-CUBE-HUAWEI/Middlewares/Third_Party/Huawei/iot_link/network/dtls/mbedtls/mbedtls-2.16.2/library\aes.c ****     0xB1, 0x12, 0x10, 0x59, 0x27, 0x80, 0xEC, 0x5F,
 256:D:/fchai/work/i-cube/I-CUBE-HUAWEI/Middlewares/Third_Party/Huawei/iot_link/network/dtls/mbedtls/mbedtls-2.16.2/library\aes.c ****     0x60, 0x51, 0x7F, 0xA9, 0x19, 0xB5, 0x4A, 0x0D,
ARM GAS  T:\msys\tmp\ccwessdu.s 			page 6


 257:D:/fchai/work/i-cube/I-CUBE-HUAWEI/Middlewares/Third_Party/Huawei/iot_link/network/dtls/mbedtls/mbedtls-2.16.2/library\aes.c ****     0x2D, 0xE5, 0x7A, 0x9F, 0x93, 0xC9, 0x9C, 0xEF,
 258:D:/fchai/work/i-cube/I-CUBE-HUAWEI/Middlewares/Third_Party/Huawei/iot_link/network/dtls/mbedtls/mbedtls-2.16.2/library\aes.c ****     0xA0, 0xE0, 0x3B, 0x4D, 0xAE, 0x2A, 0xF5, 0xB0,
 259:D:/fchai/work/i-cube/I-CUBE-HUAWEI/Middlewares/Third_Party/Huawei/iot_link/network/dtls/mbedtls/mbedtls-2.16.2/library\aes.c ****     0xC8, 0xEB, 0xBB, 0x3C, 0x83, 0x53, 0x99, 0x61,
 260:D:/fchai/work/i-cube/I-CUBE-HUAWEI/Middlewares/Third_Party/Huawei/iot_link/network/dtls/mbedtls/mbedtls-2.16.2/library\aes.c ****     0x17, 0x2B, 0x04, 0x7E, 0xBA, 0x77, 0xD6, 0x26,
 261:D:/fchai/work/i-cube/I-CUBE-HUAWEI/Middlewares/Third_Party/Huawei/iot_link/network/dtls/mbedtls/mbedtls-2.16.2/library\aes.c ****     0xE1, 0x69, 0x14, 0x63, 0x55, 0x21, 0x0C, 0x7D
 262:D:/fchai/work/i-cube/I-CUBE-HUAWEI/Middlewares/Third_Party/Huawei/iot_link/network/dtls/mbedtls/mbedtls-2.16.2/library\aes.c **** };
 263:D:/fchai/work/i-cube/I-CUBE-HUAWEI/Middlewares/Third_Party/Huawei/iot_link/network/dtls/mbedtls/mbedtls-2.16.2/library\aes.c **** 
 264:D:/fchai/work/i-cube/I-CUBE-HUAWEI/Middlewares/Third_Party/Huawei/iot_link/network/dtls/mbedtls/mbedtls-2.16.2/library\aes.c **** /*
 265:D:/fchai/work/i-cube/I-CUBE-HUAWEI/Middlewares/Third_Party/Huawei/iot_link/network/dtls/mbedtls/mbedtls-2.16.2/library\aes.c ****  * Reverse tables
 266:D:/fchai/work/i-cube/I-CUBE-HUAWEI/Middlewares/Third_Party/Huawei/iot_link/network/dtls/mbedtls/mbedtls-2.16.2/library\aes.c ****  */
 267:D:/fchai/work/i-cube/I-CUBE-HUAWEI/Middlewares/Third_Party/Huawei/iot_link/network/dtls/mbedtls/mbedtls-2.16.2/library\aes.c **** #define RT \
 268:D:/fchai/work/i-cube/I-CUBE-HUAWEI/Middlewares/Third_Party/Huawei/iot_link/network/dtls/mbedtls/mbedtls-2.16.2/library\aes.c **** \
 269:D:/fchai/work/i-cube/I-CUBE-HUAWEI/Middlewares/Third_Party/Huawei/iot_link/network/dtls/mbedtls/mbedtls-2.16.2/library\aes.c ****     V(50,A7,F4,51), V(53,65,41,7E), V(C3,A4,17,1A), V(96,5E,27,3A), \
 270:D:/fchai/work/i-cube/I-CUBE-HUAWEI/Middlewares/Third_Party/Huawei/iot_link/network/dtls/mbedtls/mbedtls-2.16.2/library\aes.c ****     V(CB,6B,AB,3B), V(F1,45,9D,1F), V(AB,58,FA,AC), V(93,03,E3,4B), \
 271:D:/fchai/work/i-cube/I-CUBE-HUAWEI/Middlewares/Third_Party/Huawei/iot_link/network/dtls/mbedtls/mbedtls-2.16.2/library\aes.c ****     V(55,FA,30,20), V(F6,6D,76,AD), V(91,76,CC,88), V(25,4C,02,F5), \
 272:D:/fchai/work/i-cube/I-CUBE-HUAWEI/Middlewares/Third_Party/Huawei/iot_link/network/dtls/mbedtls/mbedtls-2.16.2/library\aes.c ****     V(FC,D7,E5,4F), V(D7,CB,2A,C5), V(80,44,35,26), V(8F,A3,62,B5), \
 273:D:/fchai/work/i-cube/I-CUBE-HUAWEI/Middlewares/Third_Party/Huawei/iot_link/network/dtls/mbedtls/mbedtls-2.16.2/library\aes.c ****     V(49,5A,B1,DE), V(67,1B,BA,25), V(98,0E,EA,45), V(E1,C0,FE,5D), \
 274:D:/fchai/work/i-cube/I-CUBE-HUAWEI/Middlewares/Third_Party/Huawei/iot_link/network/dtls/mbedtls/mbedtls-2.16.2/library\aes.c ****     V(02,75,2F,C3), V(12,F0,4C,81), V(A3,97,46,8D), V(C6,F9,D3,6B), \
 275:D:/fchai/work/i-cube/I-CUBE-HUAWEI/Middlewares/Third_Party/Huawei/iot_link/network/dtls/mbedtls/mbedtls-2.16.2/library\aes.c ****     V(E7,5F,8F,03), V(95,9C,92,15), V(EB,7A,6D,BF), V(DA,59,52,95), \
 276:D:/fchai/work/i-cube/I-CUBE-HUAWEI/Middlewares/Third_Party/Huawei/iot_link/network/dtls/mbedtls/mbedtls-2.16.2/library\aes.c ****     V(2D,83,BE,D4), V(D3,21,74,58), V(29,69,E0,49), V(44,C8,C9,8E), \
 277:D:/fchai/work/i-cube/I-CUBE-HUAWEI/Middlewares/Third_Party/Huawei/iot_link/network/dtls/mbedtls/mbedtls-2.16.2/library\aes.c ****     V(6A,89,C2,75), V(78,79,8E,F4), V(6B,3E,58,99), V(DD,71,B9,27), \
 278:D:/fchai/work/i-cube/I-CUBE-HUAWEI/Middlewares/Third_Party/Huawei/iot_link/network/dtls/mbedtls/mbedtls-2.16.2/library\aes.c ****     V(B6,4F,E1,BE), V(17,AD,88,F0), V(66,AC,20,C9), V(B4,3A,CE,7D), \
 279:D:/fchai/work/i-cube/I-CUBE-HUAWEI/Middlewares/Third_Party/Huawei/iot_link/network/dtls/mbedtls/mbedtls-2.16.2/library\aes.c ****     V(18,4A,DF,63), V(82,31,1A,E5), V(60,33,51,97), V(45,7F,53,62), \
 280:D:/fchai/work/i-cube/I-CUBE-HUAWEI/Middlewares/Third_Party/Huawei/iot_link/network/dtls/mbedtls/mbedtls-2.16.2/library\aes.c ****     V(E0,77,64,B1), V(84,AE,6B,BB), V(1C,A0,81,FE), V(94,2B,08,F9), \
 281:D:/fchai/work/i-cube/I-CUBE-HUAWEI/Middlewares/Third_Party/Huawei/iot_link/network/dtls/mbedtls/mbedtls-2.16.2/library\aes.c ****     V(58,68,48,70), V(19,FD,45,8F), V(87,6C,DE,94), V(B7,F8,7B,52), \
 282:D:/fchai/work/i-cube/I-CUBE-HUAWEI/Middlewares/Third_Party/Huawei/iot_link/network/dtls/mbedtls/mbedtls-2.16.2/library\aes.c ****     V(23,D3,73,AB), V(E2,02,4B,72), V(57,8F,1F,E3), V(2A,AB,55,66), \
 283:D:/fchai/work/i-cube/I-CUBE-HUAWEI/Middlewares/Third_Party/Huawei/iot_link/network/dtls/mbedtls/mbedtls-2.16.2/library\aes.c ****     V(07,28,EB,B2), V(03,C2,B5,2F), V(9A,7B,C5,86), V(A5,08,37,D3), \
 284:D:/fchai/work/i-cube/I-CUBE-HUAWEI/Middlewares/Third_Party/Huawei/iot_link/network/dtls/mbedtls/mbedtls-2.16.2/library\aes.c ****     V(F2,87,28,30), V(B2,A5,BF,23), V(BA,6A,03,02), V(5C,82,16,ED), \
 285:D:/fchai/work/i-cube/I-CUBE-HUAWEI/Middlewares/Third_Party/Huawei/iot_link/network/dtls/mbedtls/mbedtls-2.16.2/library\aes.c ****     V(2B,1C,CF,8A), V(92,B4,79,A7), V(F0,F2,07,F3), V(A1,E2,69,4E), \
 286:D:/fchai/work/i-cube/I-CUBE-HUAWEI/Middlewares/Third_Party/Huawei/iot_link/network/dtls/mbedtls/mbedtls-2.16.2/library\aes.c ****     V(CD,F4,DA,65), V(D5,BE,05,06), V(1F,62,34,D1), V(8A,FE,A6,C4), \
 287:D:/fchai/work/i-cube/I-CUBE-HUAWEI/Middlewares/Third_Party/Huawei/iot_link/network/dtls/mbedtls/mbedtls-2.16.2/library\aes.c ****     V(9D,53,2E,34), V(A0,55,F3,A2), V(32,E1,8A,05), V(75,EB,F6,A4), \
 288:D:/fchai/work/i-cube/I-CUBE-HUAWEI/Middlewares/Third_Party/Huawei/iot_link/network/dtls/mbedtls/mbedtls-2.16.2/library\aes.c ****     V(39,EC,83,0B), V(AA,EF,60,40), V(06,9F,71,5E), V(51,10,6E,BD), \
 289:D:/fchai/work/i-cube/I-CUBE-HUAWEI/Middlewares/Third_Party/Huawei/iot_link/network/dtls/mbedtls/mbedtls-2.16.2/library\aes.c ****     V(F9,8A,21,3E), V(3D,06,DD,96), V(AE,05,3E,DD), V(46,BD,E6,4D), \
 290:D:/fchai/work/i-cube/I-CUBE-HUAWEI/Middlewares/Third_Party/Huawei/iot_link/network/dtls/mbedtls/mbedtls-2.16.2/library\aes.c ****     V(B5,8D,54,91), V(05,5D,C4,71), V(6F,D4,06,04), V(FF,15,50,60), \
 291:D:/fchai/work/i-cube/I-CUBE-HUAWEI/Middlewares/Third_Party/Huawei/iot_link/network/dtls/mbedtls/mbedtls-2.16.2/library\aes.c ****     V(24,FB,98,19), V(97,E9,BD,D6), V(CC,43,40,89), V(77,9E,D9,67), \
 292:D:/fchai/work/i-cube/I-CUBE-HUAWEI/Middlewares/Third_Party/Huawei/iot_link/network/dtls/mbedtls/mbedtls-2.16.2/library\aes.c ****     V(BD,42,E8,B0), V(88,8B,89,07), V(38,5B,19,E7), V(DB,EE,C8,79), \
 293:D:/fchai/work/i-cube/I-CUBE-HUAWEI/Middlewares/Third_Party/Huawei/iot_link/network/dtls/mbedtls/mbedtls-2.16.2/library\aes.c ****     V(47,0A,7C,A1), V(E9,0F,42,7C), V(C9,1E,84,F8), V(00,00,00,00), \
 294:D:/fchai/work/i-cube/I-CUBE-HUAWEI/Middlewares/Third_Party/Huawei/iot_link/network/dtls/mbedtls/mbedtls-2.16.2/library\aes.c ****     V(83,86,80,09), V(48,ED,2B,32), V(AC,70,11,1E), V(4E,72,5A,6C), \
 295:D:/fchai/work/i-cube/I-CUBE-HUAWEI/Middlewares/Third_Party/Huawei/iot_link/network/dtls/mbedtls/mbedtls-2.16.2/library\aes.c ****     V(FB,FF,0E,FD), V(56,38,85,0F), V(1E,D5,AE,3D), V(27,39,2D,36), \
 296:D:/fchai/work/i-cube/I-CUBE-HUAWEI/Middlewares/Third_Party/Huawei/iot_link/network/dtls/mbedtls/mbedtls-2.16.2/library\aes.c ****     V(64,D9,0F,0A), V(21,A6,5C,68), V(D1,54,5B,9B), V(3A,2E,36,24), \
 297:D:/fchai/work/i-cube/I-CUBE-HUAWEI/Middlewares/Third_Party/Huawei/iot_link/network/dtls/mbedtls/mbedtls-2.16.2/library\aes.c ****     V(B1,67,0A,0C), V(0F,E7,57,93), V(D2,96,EE,B4), V(9E,91,9B,1B), \
 298:D:/fchai/work/i-cube/I-CUBE-HUAWEI/Middlewares/Third_Party/Huawei/iot_link/network/dtls/mbedtls/mbedtls-2.16.2/library\aes.c ****     V(4F,C5,C0,80), V(A2,20,DC,61), V(69,4B,77,5A), V(16,1A,12,1C), \
 299:D:/fchai/work/i-cube/I-CUBE-HUAWEI/Middlewares/Third_Party/Huawei/iot_link/network/dtls/mbedtls/mbedtls-2.16.2/library\aes.c ****     V(0A,BA,93,E2), V(E5,2A,A0,C0), V(43,E0,22,3C), V(1D,17,1B,12), \
 300:D:/fchai/work/i-cube/I-CUBE-HUAWEI/Middlewares/Third_Party/Huawei/iot_link/network/dtls/mbedtls/mbedtls-2.16.2/library\aes.c ****     V(0B,0D,09,0E), V(AD,C7,8B,F2), V(B9,A8,B6,2D), V(C8,A9,1E,14), \
 301:D:/fchai/work/i-cube/I-CUBE-HUAWEI/Middlewares/Third_Party/Huawei/iot_link/network/dtls/mbedtls/mbedtls-2.16.2/library\aes.c ****     V(85,19,F1,57), V(4C,07,75,AF), V(BB,DD,99,EE), V(FD,60,7F,A3), \
 302:D:/fchai/work/i-cube/I-CUBE-HUAWEI/Middlewares/Third_Party/Huawei/iot_link/network/dtls/mbedtls/mbedtls-2.16.2/library\aes.c ****     V(9F,26,01,F7), V(BC,F5,72,5C), V(C5,3B,66,44), V(34,7E,FB,5B), \
 303:D:/fchai/work/i-cube/I-CUBE-HUAWEI/Middlewares/Third_Party/Huawei/iot_link/network/dtls/mbedtls/mbedtls-2.16.2/library\aes.c ****     V(76,29,43,8B), V(DC,C6,23,CB), V(68,FC,ED,B6), V(63,F1,E4,B8), \
 304:D:/fchai/work/i-cube/I-CUBE-HUAWEI/Middlewares/Third_Party/Huawei/iot_link/network/dtls/mbedtls/mbedtls-2.16.2/library\aes.c ****     V(CA,DC,31,D7), V(10,85,63,42), V(40,22,97,13), V(20,11,C6,84), \
 305:D:/fchai/work/i-cube/I-CUBE-HUAWEI/Middlewares/Third_Party/Huawei/iot_link/network/dtls/mbedtls/mbedtls-2.16.2/library\aes.c ****     V(7D,24,4A,85), V(F8,3D,BB,D2), V(11,32,F9,AE), V(6D,A1,29,C7), \
 306:D:/fchai/work/i-cube/I-CUBE-HUAWEI/Middlewares/Third_Party/Huawei/iot_link/network/dtls/mbedtls/mbedtls-2.16.2/library\aes.c ****     V(4B,2F,9E,1D), V(F3,30,B2,DC), V(EC,52,86,0D), V(D0,E3,C1,77), \
 307:D:/fchai/work/i-cube/I-CUBE-HUAWEI/Middlewares/Third_Party/Huawei/iot_link/network/dtls/mbedtls/mbedtls-2.16.2/library\aes.c ****     V(6C,16,B3,2B), V(99,B9,70,A9), V(FA,48,94,11), V(22,64,E9,47), \
 308:D:/fchai/work/i-cube/I-CUBE-HUAWEI/Middlewares/Third_Party/Huawei/iot_link/network/dtls/mbedtls/mbedtls-2.16.2/library\aes.c ****     V(C4,8C,FC,A8), V(1A,3F,F0,A0), V(D8,2C,7D,56), V(EF,90,33,22), \
 309:D:/fchai/work/i-cube/I-CUBE-HUAWEI/Middlewares/Third_Party/Huawei/iot_link/network/dtls/mbedtls/mbedtls-2.16.2/library\aes.c ****     V(C7,4E,49,87), V(C1,D1,38,D9), V(FE,A2,CA,8C), V(36,0B,D4,98), \
 310:D:/fchai/work/i-cube/I-CUBE-HUAWEI/Middlewares/Third_Party/Huawei/iot_link/network/dtls/mbedtls/mbedtls-2.16.2/library\aes.c ****     V(CF,81,F5,A6), V(28,DE,7A,A5), V(26,8E,B7,DA), V(A4,BF,AD,3F), \
 311:D:/fchai/work/i-cube/I-CUBE-HUAWEI/Middlewares/Third_Party/Huawei/iot_link/network/dtls/mbedtls/mbedtls-2.16.2/library\aes.c ****     V(E4,9D,3A,2C), V(0D,92,78,50), V(9B,CC,5F,6A), V(62,46,7E,54), \
 312:D:/fchai/work/i-cube/I-CUBE-HUAWEI/Middlewares/Third_Party/Huawei/iot_link/network/dtls/mbedtls/mbedtls-2.16.2/library\aes.c ****     V(C2,13,8D,F6), V(E8,B8,D8,90), V(5E,F7,39,2E), V(F5,AF,C3,82), \
 313:D:/fchai/work/i-cube/I-CUBE-HUAWEI/Middlewares/Third_Party/Huawei/iot_link/network/dtls/mbedtls/mbedtls-2.16.2/library\aes.c ****     V(BE,80,5D,9F), V(7C,93,D0,69), V(A9,2D,D5,6F), V(B3,12,25,CF), \
ARM GAS  T:\msys\tmp\ccwessdu.s 			page 7


 314:D:/fchai/work/i-cube/I-CUBE-HUAWEI/Middlewares/Third_Party/Huawei/iot_link/network/dtls/mbedtls/mbedtls-2.16.2/library\aes.c ****     V(3B,99,AC,C8), V(A7,7D,18,10), V(6E,63,9C,E8), V(7B,BB,3B,DB), \
 315:D:/fchai/work/i-cube/I-CUBE-HUAWEI/Middlewares/Third_Party/Huawei/iot_link/network/dtls/mbedtls/mbedtls-2.16.2/library\aes.c ****     V(09,78,26,CD), V(F4,18,59,6E), V(01,B7,9A,EC), V(A8,9A,4F,83), \
 316:D:/fchai/work/i-cube/I-CUBE-HUAWEI/Middlewares/Third_Party/Huawei/iot_link/network/dtls/mbedtls/mbedtls-2.16.2/library\aes.c ****     V(65,6E,95,E6), V(7E,E6,FF,AA), V(08,CF,BC,21), V(E6,E8,15,EF), \
 317:D:/fchai/work/i-cube/I-CUBE-HUAWEI/Middlewares/Third_Party/Huawei/iot_link/network/dtls/mbedtls/mbedtls-2.16.2/library\aes.c ****     V(D9,9B,E7,BA), V(CE,36,6F,4A), V(D4,09,9F,EA), V(D6,7C,B0,29), \
 318:D:/fchai/work/i-cube/I-CUBE-HUAWEI/Middlewares/Third_Party/Huawei/iot_link/network/dtls/mbedtls/mbedtls-2.16.2/library\aes.c ****     V(AF,B2,A4,31), V(31,23,3F,2A), V(30,94,A5,C6), V(C0,66,A2,35), \
 319:D:/fchai/work/i-cube/I-CUBE-HUAWEI/Middlewares/Third_Party/Huawei/iot_link/network/dtls/mbedtls/mbedtls-2.16.2/library\aes.c ****     V(37,BC,4E,74), V(A6,CA,82,FC), V(B0,D0,90,E0), V(15,D8,A7,33), \
 320:D:/fchai/work/i-cube/I-CUBE-HUAWEI/Middlewares/Third_Party/Huawei/iot_link/network/dtls/mbedtls/mbedtls-2.16.2/library\aes.c ****     V(4A,98,04,F1), V(F7,DA,EC,41), V(0E,50,CD,7F), V(2F,F6,91,17), \
 321:D:/fchai/work/i-cube/I-CUBE-HUAWEI/Middlewares/Third_Party/Huawei/iot_link/network/dtls/mbedtls/mbedtls-2.16.2/library\aes.c ****     V(8D,D6,4D,76), V(4D,B0,EF,43), V(54,4D,AA,CC), V(DF,04,96,E4), \
 322:D:/fchai/work/i-cube/I-CUBE-HUAWEI/Middlewares/Third_Party/Huawei/iot_link/network/dtls/mbedtls/mbedtls-2.16.2/library\aes.c ****     V(E3,B5,D1,9E), V(1B,88,6A,4C), V(B8,1F,2C,C1), V(7F,51,65,46), \
 323:D:/fchai/work/i-cube/I-CUBE-HUAWEI/Middlewares/Third_Party/Huawei/iot_link/network/dtls/mbedtls/mbedtls-2.16.2/library\aes.c ****     V(04,EA,5E,9D), V(5D,35,8C,01), V(73,74,87,FA), V(2E,41,0B,FB), \
 324:D:/fchai/work/i-cube/I-CUBE-HUAWEI/Middlewares/Third_Party/Huawei/iot_link/network/dtls/mbedtls/mbedtls-2.16.2/library\aes.c ****     V(5A,1D,67,B3), V(52,D2,DB,92), V(33,56,10,E9), V(13,47,D6,6D), \
 325:D:/fchai/work/i-cube/I-CUBE-HUAWEI/Middlewares/Third_Party/Huawei/iot_link/network/dtls/mbedtls/mbedtls-2.16.2/library\aes.c ****     V(8C,61,D7,9A), V(7A,0C,A1,37), V(8E,14,F8,59), V(89,3C,13,EB), \
 326:D:/fchai/work/i-cube/I-CUBE-HUAWEI/Middlewares/Third_Party/Huawei/iot_link/network/dtls/mbedtls/mbedtls-2.16.2/library\aes.c ****     V(EE,27,A9,CE), V(35,C9,61,B7), V(ED,E5,1C,E1), V(3C,B1,47,7A), \
 327:D:/fchai/work/i-cube/I-CUBE-HUAWEI/Middlewares/Third_Party/Huawei/iot_link/network/dtls/mbedtls/mbedtls-2.16.2/library\aes.c ****     V(59,DF,D2,9C), V(3F,73,F2,55), V(79,CE,14,18), V(BF,37,C7,73), \
 328:D:/fchai/work/i-cube/I-CUBE-HUAWEI/Middlewares/Third_Party/Huawei/iot_link/network/dtls/mbedtls/mbedtls-2.16.2/library\aes.c ****     V(EA,CD,F7,53), V(5B,AA,FD,5F), V(14,6F,3D,DF), V(86,DB,44,78), \
 329:D:/fchai/work/i-cube/I-CUBE-HUAWEI/Middlewares/Third_Party/Huawei/iot_link/network/dtls/mbedtls/mbedtls-2.16.2/library\aes.c ****     V(81,F3,AF,CA), V(3E,C4,68,B9), V(2C,34,24,38), V(5F,40,A3,C2), \
 330:D:/fchai/work/i-cube/I-CUBE-HUAWEI/Middlewares/Third_Party/Huawei/iot_link/network/dtls/mbedtls/mbedtls-2.16.2/library\aes.c ****     V(72,C3,1D,16), V(0C,25,E2,BC), V(8B,49,3C,28), V(41,95,0D,FF), \
 331:D:/fchai/work/i-cube/I-CUBE-HUAWEI/Middlewares/Third_Party/Huawei/iot_link/network/dtls/mbedtls/mbedtls-2.16.2/library\aes.c ****     V(71,01,A8,39), V(DE,B3,0C,08), V(9C,E4,B4,D8), V(90,C1,56,64), \
 332:D:/fchai/work/i-cube/I-CUBE-HUAWEI/Middlewares/Third_Party/Huawei/iot_link/network/dtls/mbedtls/mbedtls-2.16.2/library\aes.c ****     V(61,84,CB,7B), V(70,B6,32,D5), V(74,5C,6C,48), V(42,57,B8,D0)
 333:D:/fchai/work/i-cube/I-CUBE-HUAWEI/Middlewares/Third_Party/Huawei/iot_link/network/dtls/mbedtls/mbedtls-2.16.2/library\aes.c **** 
 334:D:/fchai/work/i-cube/I-CUBE-HUAWEI/Middlewares/Third_Party/Huawei/iot_link/network/dtls/mbedtls/mbedtls-2.16.2/library\aes.c **** #define V(a,b,c,d) 0x##a##b##c##d
 335:D:/fchai/work/i-cube/I-CUBE-HUAWEI/Middlewares/Third_Party/Huawei/iot_link/network/dtls/mbedtls/mbedtls-2.16.2/library\aes.c **** static const uint32_t RT0[256] = { RT };
 336:D:/fchai/work/i-cube/I-CUBE-HUAWEI/Middlewares/Third_Party/Huawei/iot_link/network/dtls/mbedtls/mbedtls-2.16.2/library\aes.c **** #undef V
 337:D:/fchai/work/i-cube/I-CUBE-HUAWEI/Middlewares/Third_Party/Huawei/iot_link/network/dtls/mbedtls/mbedtls-2.16.2/library\aes.c **** 
 338:D:/fchai/work/i-cube/I-CUBE-HUAWEI/Middlewares/Third_Party/Huawei/iot_link/network/dtls/mbedtls/mbedtls-2.16.2/library\aes.c **** #if !defined(MBEDTLS_AES_FEWER_TABLES)
 339:D:/fchai/work/i-cube/I-CUBE-HUAWEI/Middlewares/Third_Party/Huawei/iot_link/network/dtls/mbedtls/mbedtls-2.16.2/library\aes.c **** 
 340:D:/fchai/work/i-cube/I-CUBE-HUAWEI/Middlewares/Third_Party/Huawei/iot_link/network/dtls/mbedtls/mbedtls-2.16.2/library\aes.c **** #define V(a,b,c,d) 0x##b##c##d##a
 341:D:/fchai/work/i-cube/I-CUBE-HUAWEI/Middlewares/Third_Party/Huawei/iot_link/network/dtls/mbedtls/mbedtls-2.16.2/library\aes.c **** static const uint32_t RT1[256] = { RT };
 342:D:/fchai/work/i-cube/I-CUBE-HUAWEI/Middlewares/Third_Party/Huawei/iot_link/network/dtls/mbedtls/mbedtls-2.16.2/library\aes.c **** #undef V
 343:D:/fchai/work/i-cube/I-CUBE-HUAWEI/Middlewares/Third_Party/Huawei/iot_link/network/dtls/mbedtls/mbedtls-2.16.2/library\aes.c **** 
 344:D:/fchai/work/i-cube/I-CUBE-HUAWEI/Middlewares/Third_Party/Huawei/iot_link/network/dtls/mbedtls/mbedtls-2.16.2/library\aes.c **** #define V(a,b,c,d) 0x##c##d##a##b
 345:D:/fchai/work/i-cube/I-CUBE-HUAWEI/Middlewares/Third_Party/Huawei/iot_link/network/dtls/mbedtls/mbedtls-2.16.2/library\aes.c **** static const uint32_t RT2[256] = { RT };
 346:D:/fchai/work/i-cube/I-CUBE-HUAWEI/Middlewares/Third_Party/Huawei/iot_link/network/dtls/mbedtls/mbedtls-2.16.2/library\aes.c **** #undef V
 347:D:/fchai/work/i-cube/I-CUBE-HUAWEI/Middlewares/Third_Party/Huawei/iot_link/network/dtls/mbedtls/mbedtls-2.16.2/library\aes.c **** 
 348:D:/fchai/work/i-cube/I-CUBE-HUAWEI/Middlewares/Third_Party/Huawei/iot_link/network/dtls/mbedtls/mbedtls-2.16.2/library\aes.c **** #define V(a,b,c,d) 0x##d##a##b##c
 349:D:/fchai/work/i-cube/I-CUBE-HUAWEI/Middlewares/Third_Party/Huawei/iot_link/network/dtls/mbedtls/mbedtls-2.16.2/library\aes.c **** static const uint32_t RT3[256] = { RT };
 350:D:/fchai/work/i-cube/I-CUBE-HUAWEI/Middlewares/Third_Party/Huawei/iot_link/network/dtls/mbedtls/mbedtls-2.16.2/library\aes.c **** #undef V
 351:D:/fchai/work/i-cube/I-CUBE-HUAWEI/Middlewares/Third_Party/Huawei/iot_link/network/dtls/mbedtls/mbedtls-2.16.2/library\aes.c **** 
 352:D:/fchai/work/i-cube/I-CUBE-HUAWEI/Middlewares/Third_Party/Huawei/iot_link/network/dtls/mbedtls/mbedtls-2.16.2/library\aes.c **** #endif /* !MBEDTLS_AES_FEWER_TABLES */
 353:D:/fchai/work/i-cube/I-CUBE-HUAWEI/Middlewares/Third_Party/Huawei/iot_link/network/dtls/mbedtls/mbedtls-2.16.2/library\aes.c **** 
 354:D:/fchai/work/i-cube/I-CUBE-HUAWEI/Middlewares/Third_Party/Huawei/iot_link/network/dtls/mbedtls/mbedtls-2.16.2/library\aes.c **** #undef RT
 355:D:/fchai/work/i-cube/I-CUBE-HUAWEI/Middlewares/Third_Party/Huawei/iot_link/network/dtls/mbedtls/mbedtls-2.16.2/library\aes.c **** 
 356:D:/fchai/work/i-cube/I-CUBE-HUAWEI/Middlewares/Third_Party/Huawei/iot_link/network/dtls/mbedtls/mbedtls-2.16.2/library\aes.c **** /*
 357:D:/fchai/work/i-cube/I-CUBE-HUAWEI/Middlewares/Third_Party/Huawei/iot_link/network/dtls/mbedtls/mbedtls-2.16.2/library\aes.c ****  * Round constants
 358:D:/fchai/work/i-cube/I-CUBE-HUAWEI/Middlewares/Third_Party/Huawei/iot_link/network/dtls/mbedtls/mbedtls-2.16.2/library\aes.c ****  */
 359:D:/fchai/work/i-cube/I-CUBE-HUAWEI/Middlewares/Third_Party/Huawei/iot_link/network/dtls/mbedtls/mbedtls-2.16.2/library\aes.c **** static const uint32_t RCON[10] =
 360:D:/fchai/work/i-cube/I-CUBE-HUAWEI/Middlewares/Third_Party/Huawei/iot_link/network/dtls/mbedtls/mbedtls-2.16.2/library\aes.c **** {
 361:D:/fchai/work/i-cube/I-CUBE-HUAWEI/Middlewares/Third_Party/Huawei/iot_link/network/dtls/mbedtls/mbedtls-2.16.2/library\aes.c ****     0x00000001, 0x00000002, 0x00000004, 0x00000008,
 362:D:/fchai/work/i-cube/I-CUBE-HUAWEI/Middlewares/Third_Party/Huawei/iot_link/network/dtls/mbedtls/mbedtls-2.16.2/library\aes.c ****     0x00000010, 0x00000020, 0x00000040, 0x00000080,
 363:D:/fchai/work/i-cube/I-CUBE-HUAWEI/Middlewares/Third_Party/Huawei/iot_link/network/dtls/mbedtls/mbedtls-2.16.2/library\aes.c ****     0x0000001B, 0x00000036
 364:D:/fchai/work/i-cube/I-CUBE-HUAWEI/Middlewares/Third_Party/Huawei/iot_link/network/dtls/mbedtls/mbedtls-2.16.2/library\aes.c **** };
 365:D:/fchai/work/i-cube/I-CUBE-HUAWEI/Middlewares/Third_Party/Huawei/iot_link/network/dtls/mbedtls/mbedtls-2.16.2/library\aes.c **** 
 366:D:/fchai/work/i-cube/I-CUBE-HUAWEI/Middlewares/Third_Party/Huawei/iot_link/network/dtls/mbedtls/mbedtls-2.16.2/library\aes.c **** #else /* MBEDTLS_AES_ROM_TABLES */
 367:D:/fchai/work/i-cube/I-CUBE-HUAWEI/Middlewares/Third_Party/Huawei/iot_link/network/dtls/mbedtls/mbedtls-2.16.2/library\aes.c **** 
 368:D:/fchai/work/i-cube/I-CUBE-HUAWEI/Middlewares/Third_Party/Huawei/iot_link/network/dtls/mbedtls/mbedtls-2.16.2/library\aes.c **** /*
 369:D:/fchai/work/i-cube/I-CUBE-HUAWEI/Middlewares/Third_Party/Huawei/iot_link/network/dtls/mbedtls/mbedtls-2.16.2/library\aes.c ****  * Forward S-box & tables
 370:D:/fchai/work/i-cube/I-CUBE-HUAWEI/Middlewares/Third_Party/Huawei/iot_link/network/dtls/mbedtls/mbedtls-2.16.2/library\aes.c ****  */
ARM GAS  T:\msys\tmp\ccwessdu.s 			page 8


 371:D:/fchai/work/i-cube/I-CUBE-HUAWEI/Middlewares/Third_Party/Huawei/iot_link/network/dtls/mbedtls/mbedtls-2.16.2/library\aes.c **** static unsigned char FSb[256];
 372:D:/fchai/work/i-cube/I-CUBE-HUAWEI/Middlewares/Third_Party/Huawei/iot_link/network/dtls/mbedtls/mbedtls-2.16.2/library\aes.c **** static uint32_t FT0[256];
 373:D:/fchai/work/i-cube/I-CUBE-HUAWEI/Middlewares/Third_Party/Huawei/iot_link/network/dtls/mbedtls/mbedtls-2.16.2/library\aes.c **** #if !defined(MBEDTLS_AES_FEWER_TABLES)
 374:D:/fchai/work/i-cube/I-CUBE-HUAWEI/Middlewares/Third_Party/Huawei/iot_link/network/dtls/mbedtls/mbedtls-2.16.2/library\aes.c **** static uint32_t FT1[256];
 375:D:/fchai/work/i-cube/I-CUBE-HUAWEI/Middlewares/Third_Party/Huawei/iot_link/network/dtls/mbedtls/mbedtls-2.16.2/library\aes.c **** static uint32_t FT2[256];
 376:D:/fchai/work/i-cube/I-CUBE-HUAWEI/Middlewares/Third_Party/Huawei/iot_link/network/dtls/mbedtls/mbedtls-2.16.2/library\aes.c **** static uint32_t FT3[256];
 377:D:/fchai/work/i-cube/I-CUBE-HUAWEI/Middlewares/Third_Party/Huawei/iot_link/network/dtls/mbedtls/mbedtls-2.16.2/library\aes.c **** #endif /* !MBEDTLS_AES_FEWER_TABLES */
 378:D:/fchai/work/i-cube/I-CUBE-HUAWEI/Middlewares/Third_Party/Huawei/iot_link/network/dtls/mbedtls/mbedtls-2.16.2/library\aes.c **** 
 379:D:/fchai/work/i-cube/I-CUBE-HUAWEI/Middlewares/Third_Party/Huawei/iot_link/network/dtls/mbedtls/mbedtls-2.16.2/library\aes.c **** /*
 380:D:/fchai/work/i-cube/I-CUBE-HUAWEI/Middlewares/Third_Party/Huawei/iot_link/network/dtls/mbedtls/mbedtls-2.16.2/library\aes.c ****  * Reverse S-box & tables
 381:D:/fchai/work/i-cube/I-CUBE-HUAWEI/Middlewares/Third_Party/Huawei/iot_link/network/dtls/mbedtls/mbedtls-2.16.2/library\aes.c ****  */
 382:D:/fchai/work/i-cube/I-CUBE-HUAWEI/Middlewares/Third_Party/Huawei/iot_link/network/dtls/mbedtls/mbedtls-2.16.2/library\aes.c **** static unsigned char RSb[256];
 383:D:/fchai/work/i-cube/I-CUBE-HUAWEI/Middlewares/Third_Party/Huawei/iot_link/network/dtls/mbedtls/mbedtls-2.16.2/library\aes.c **** static uint32_t RT0[256];
 384:D:/fchai/work/i-cube/I-CUBE-HUAWEI/Middlewares/Third_Party/Huawei/iot_link/network/dtls/mbedtls/mbedtls-2.16.2/library\aes.c **** #if !defined(MBEDTLS_AES_FEWER_TABLES)
 385:D:/fchai/work/i-cube/I-CUBE-HUAWEI/Middlewares/Third_Party/Huawei/iot_link/network/dtls/mbedtls/mbedtls-2.16.2/library\aes.c **** static uint32_t RT1[256];
 386:D:/fchai/work/i-cube/I-CUBE-HUAWEI/Middlewares/Third_Party/Huawei/iot_link/network/dtls/mbedtls/mbedtls-2.16.2/library\aes.c **** static uint32_t RT2[256];
 387:D:/fchai/work/i-cube/I-CUBE-HUAWEI/Middlewares/Third_Party/Huawei/iot_link/network/dtls/mbedtls/mbedtls-2.16.2/library\aes.c **** static uint32_t RT3[256];
 388:D:/fchai/work/i-cube/I-CUBE-HUAWEI/Middlewares/Third_Party/Huawei/iot_link/network/dtls/mbedtls/mbedtls-2.16.2/library\aes.c **** #endif /* !MBEDTLS_AES_FEWER_TABLES */
 389:D:/fchai/work/i-cube/I-CUBE-HUAWEI/Middlewares/Third_Party/Huawei/iot_link/network/dtls/mbedtls/mbedtls-2.16.2/library\aes.c **** 
 390:D:/fchai/work/i-cube/I-CUBE-HUAWEI/Middlewares/Third_Party/Huawei/iot_link/network/dtls/mbedtls/mbedtls-2.16.2/library\aes.c **** /*
 391:D:/fchai/work/i-cube/I-CUBE-HUAWEI/Middlewares/Third_Party/Huawei/iot_link/network/dtls/mbedtls/mbedtls-2.16.2/library\aes.c ****  * Round constants
 392:D:/fchai/work/i-cube/I-CUBE-HUAWEI/Middlewares/Third_Party/Huawei/iot_link/network/dtls/mbedtls/mbedtls-2.16.2/library\aes.c ****  */
 393:D:/fchai/work/i-cube/I-CUBE-HUAWEI/Middlewares/Third_Party/Huawei/iot_link/network/dtls/mbedtls/mbedtls-2.16.2/library\aes.c **** static uint32_t RCON[10];
 394:D:/fchai/work/i-cube/I-CUBE-HUAWEI/Middlewares/Third_Party/Huawei/iot_link/network/dtls/mbedtls/mbedtls-2.16.2/library\aes.c **** 
 395:D:/fchai/work/i-cube/I-CUBE-HUAWEI/Middlewares/Third_Party/Huawei/iot_link/network/dtls/mbedtls/mbedtls-2.16.2/library\aes.c **** /*
 396:D:/fchai/work/i-cube/I-CUBE-HUAWEI/Middlewares/Third_Party/Huawei/iot_link/network/dtls/mbedtls/mbedtls-2.16.2/library\aes.c ****  * Tables generation code
 397:D:/fchai/work/i-cube/I-CUBE-HUAWEI/Middlewares/Third_Party/Huawei/iot_link/network/dtls/mbedtls/mbedtls-2.16.2/library\aes.c ****  */
 398:D:/fchai/work/i-cube/I-CUBE-HUAWEI/Middlewares/Third_Party/Huawei/iot_link/network/dtls/mbedtls/mbedtls-2.16.2/library\aes.c **** #define ROTL8(x) ( ( (x) << 8 ) & 0xFFFFFFFF ) | ( (x) >> 24 )
 399:D:/fchai/work/i-cube/I-CUBE-HUAWEI/Middlewares/Third_Party/Huawei/iot_link/network/dtls/mbedtls/mbedtls-2.16.2/library\aes.c **** #define XTIME(x) ( ( (x) << 1 ) ^ ( ( (x) & 0x80 ) ? 0x1B : 0x00 ) )
 400:D:/fchai/work/i-cube/I-CUBE-HUAWEI/Middlewares/Third_Party/Huawei/iot_link/network/dtls/mbedtls/mbedtls-2.16.2/library\aes.c **** #define MUL(x,y) ( ( (x) && (y) ) ? pow[(log[(x)]+log[(y)]) % 255] : 0 )
 401:D:/fchai/work/i-cube/I-CUBE-HUAWEI/Middlewares/Third_Party/Huawei/iot_link/network/dtls/mbedtls/mbedtls-2.16.2/library\aes.c **** 
 402:D:/fchai/work/i-cube/I-CUBE-HUAWEI/Middlewares/Third_Party/Huawei/iot_link/network/dtls/mbedtls/mbedtls-2.16.2/library\aes.c **** static int aes_init_done = 0;
 403:D:/fchai/work/i-cube/I-CUBE-HUAWEI/Middlewares/Third_Party/Huawei/iot_link/network/dtls/mbedtls/mbedtls-2.16.2/library\aes.c **** 
 404:D:/fchai/work/i-cube/I-CUBE-HUAWEI/Middlewares/Third_Party/Huawei/iot_link/network/dtls/mbedtls/mbedtls-2.16.2/library\aes.c **** static void aes_gen_tables( void )
 405:D:/fchai/work/i-cube/I-CUBE-HUAWEI/Middlewares/Third_Party/Huawei/iot_link/network/dtls/mbedtls/mbedtls-2.16.2/library\aes.c **** {
 406:D:/fchai/work/i-cube/I-CUBE-HUAWEI/Middlewares/Third_Party/Huawei/iot_link/network/dtls/mbedtls/mbedtls-2.16.2/library\aes.c ****     int i, x, y, z;
 407:D:/fchai/work/i-cube/I-CUBE-HUAWEI/Middlewares/Third_Party/Huawei/iot_link/network/dtls/mbedtls/mbedtls-2.16.2/library\aes.c ****     int pow[256];
 408:D:/fchai/work/i-cube/I-CUBE-HUAWEI/Middlewares/Third_Party/Huawei/iot_link/network/dtls/mbedtls/mbedtls-2.16.2/library\aes.c ****     int log[256];
 409:D:/fchai/work/i-cube/I-CUBE-HUAWEI/Middlewares/Third_Party/Huawei/iot_link/network/dtls/mbedtls/mbedtls-2.16.2/library\aes.c **** 
 410:D:/fchai/work/i-cube/I-CUBE-HUAWEI/Middlewares/Third_Party/Huawei/iot_link/network/dtls/mbedtls/mbedtls-2.16.2/library\aes.c ****     /*
 411:D:/fchai/work/i-cube/I-CUBE-HUAWEI/Middlewares/Third_Party/Huawei/iot_link/network/dtls/mbedtls/mbedtls-2.16.2/library\aes.c ****      * compute pow and log tables over GF(2^8)
 412:D:/fchai/work/i-cube/I-CUBE-HUAWEI/Middlewares/Third_Party/Huawei/iot_link/network/dtls/mbedtls/mbedtls-2.16.2/library\aes.c ****      */
 413:D:/fchai/work/i-cube/I-CUBE-HUAWEI/Middlewares/Third_Party/Huawei/iot_link/network/dtls/mbedtls/mbedtls-2.16.2/library\aes.c ****     for( i = 0, x = 1; i < 256; i++ )
 414:D:/fchai/work/i-cube/I-CUBE-HUAWEI/Middlewares/Third_Party/Huawei/iot_link/network/dtls/mbedtls/mbedtls-2.16.2/library\aes.c ****     {
 415:D:/fchai/work/i-cube/I-CUBE-HUAWEI/Middlewares/Third_Party/Huawei/iot_link/network/dtls/mbedtls/mbedtls-2.16.2/library\aes.c ****         pow[i] = x;
 416:D:/fchai/work/i-cube/I-CUBE-HUAWEI/Middlewares/Third_Party/Huawei/iot_link/network/dtls/mbedtls/mbedtls-2.16.2/library\aes.c ****         log[x] = i;
 417:D:/fchai/work/i-cube/I-CUBE-HUAWEI/Middlewares/Third_Party/Huawei/iot_link/network/dtls/mbedtls/mbedtls-2.16.2/library\aes.c ****         x = ( x ^ XTIME( x ) ) & 0xFF;
 418:D:/fchai/work/i-cube/I-CUBE-HUAWEI/Middlewares/Third_Party/Huawei/iot_link/network/dtls/mbedtls/mbedtls-2.16.2/library\aes.c ****     }
 419:D:/fchai/work/i-cube/I-CUBE-HUAWEI/Middlewares/Third_Party/Huawei/iot_link/network/dtls/mbedtls/mbedtls-2.16.2/library\aes.c **** 
 420:D:/fchai/work/i-cube/I-CUBE-HUAWEI/Middlewares/Third_Party/Huawei/iot_link/network/dtls/mbedtls/mbedtls-2.16.2/library\aes.c ****     /*
 421:D:/fchai/work/i-cube/I-CUBE-HUAWEI/Middlewares/Third_Party/Huawei/iot_link/network/dtls/mbedtls/mbedtls-2.16.2/library\aes.c ****      * calculate the round constants
 422:D:/fchai/work/i-cube/I-CUBE-HUAWEI/Middlewares/Third_Party/Huawei/iot_link/network/dtls/mbedtls/mbedtls-2.16.2/library\aes.c ****      */
 423:D:/fchai/work/i-cube/I-CUBE-HUAWEI/Middlewares/Third_Party/Huawei/iot_link/network/dtls/mbedtls/mbedtls-2.16.2/library\aes.c ****     for( i = 0, x = 1; i < 10; i++ )
 424:D:/fchai/work/i-cube/I-CUBE-HUAWEI/Middlewares/Third_Party/Huawei/iot_link/network/dtls/mbedtls/mbedtls-2.16.2/library\aes.c ****     {
 425:D:/fchai/work/i-cube/I-CUBE-HUAWEI/Middlewares/Third_Party/Huawei/iot_link/network/dtls/mbedtls/mbedtls-2.16.2/library\aes.c ****         RCON[i] = (uint32_t) x;
 426:D:/fchai/work/i-cube/I-CUBE-HUAWEI/Middlewares/Third_Party/Huawei/iot_link/network/dtls/mbedtls/mbedtls-2.16.2/library\aes.c ****         x = XTIME( x ) & 0xFF;
 427:D:/fchai/work/i-cube/I-CUBE-HUAWEI/Middlewares/Third_Party/Huawei/iot_link/network/dtls/mbedtls/mbedtls-2.16.2/library\aes.c ****     }
ARM GAS  T:\msys\tmp\ccwessdu.s 			page 9


 428:D:/fchai/work/i-cube/I-CUBE-HUAWEI/Middlewares/Third_Party/Huawei/iot_link/network/dtls/mbedtls/mbedtls-2.16.2/library\aes.c **** 
 429:D:/fchai/work/i-cube/I-CUBE-HUAWEI/Middlewares/Third_Party/Huawei/iot_link/network/dtls/mbedtls/mbedtls-2.16.2/library\aes.c ****     /*
 430:D:/fchai/work/i-cube/I-CUBE-HUAWEI/Middlewares/Third_Party/Huawei/iot_link/network/dtls/mbedtls/mbedtls-2.16.2/library\aes.c ****      * generate the forward and reverse S-boxes
 431:D:/fchai/work/i-cube/I-CUBE-HUAWEI/Middlewares/Third_Party/Huawei/iot_link/network/dtls/mbedtls/mbedtls-2.16.2/library\aes.c ****      */
 432:D:/fchai/work/i-cube/I-CUBE-HUAWEI/Middlewares/Third_Party/Huawei/iot_link/network/dtls/mbedtls/mbedtls-2.16.2/library\aes.c ****     FSb[0x00] = 0x63;
 433:D:/fchai/work/i-cube/I-CUBE-HUAWEI/Middlewares/Third_Party/Huawei/iot_link/network/dtls/mbedtls/mbedtls-2.16.2/library\aes.c ****     RSb[0x63] = 0x00;
 434:D:/fchai/work/i-cube/I-CUBE-HUAWEI/Middlewares/Third_Party/Huawei/iot_link/network/dtls/mbedtls/mbedtls-2.16.2/library\aes.c **** 
 435:D:/fchai/work/i-cube/I-CUBE-HUAWEI/Middlewares/Third_Party/Huawei/iot_link/network/dtls/mbedtls/mbedtls-2.16.2/library\aes.c ****     for( i = 1; i < 256; i++ )
 436:D:/fchai/work/i-cube/I-CUBE-HUAWEI/Middlewares/Third_Party/Huawei/iot_link/network/dtls/mbedtls/mbedtls-2.16.2/library\aes.c ****     {
 437:D:/fchai/work/i-cube/I-CUBE-HUAWEI/Middlewares/Third_Party/Huawei/iot_link/network/dtls/mbedtls/mbedtls-2.16.2/library\aes.c ****         x = pow[255 - log[i]];
 438:D:/fchai/work/i-cube/I-CUBE-HUAWEI/Middlewares/Third_Party/Huawei/iot_link/network/dtls/mbedtls/mbedtls-2.16.2/library\aes.c **** 
 439:D:/fchai/work/i-cube/I-CUBE-HUAWEI/Middlewares/Third_Party/Huawei/iot_link/network/dtls/mbedtls/mbedtls-2.16.2/library\aes.c ****         y  = x; y = ( ( y << 1 ) | ( y >> 7 ) ) & 0xFF;
 440:D:/fchai/work/i-cube/I-CUBE-HUAWEI/Middlewares/Third_Party/Huawei/iot_link/network/dtls/mbedtls/mbedtls-2.16.2/library\aes.c ****         x ^= y; y = ( ( y << 1 ) | ( y >> 7 ) ) & 0xFF;
 441:D:/fchai/work/i-cube/I-CUBE-HUAWEI/Middlewares/Third_Party/Huawei/iot_link/network/dtls/mbedtls/mbedtls-2.16.2/library\aes.c ****         x ^= y; y = ( ( y << 1 ) | ( y >> 7 ) ) & 0xFF;
 442:D:/fchai/work/i-cube/I-CUBE-HUAWEI/Middlewares/Third_Party/Huawei/iot_link/network/dtls/mbedtls/mbedtls-2.16.2/library\aes.c ****         x ^= y; y = ( ( y << 1 ) | ( y >> 7 ) ) & 0xFF;
 443:D:/fchai/work/i-cube/I-CUBE-HUAWEI/Middlewares/Third_Party/Huawei/iot_link/network/dtls/mbedtls/mbedtls-2.16.2/library\aes.c ****         x ^= y ^ 0x63;
 444:D:/fchai/work/i-cube/I-CUBE-HUAWEI/Middlewares/Third_Party/Huawei/iot_link/network/dtls/mbedtls/mbedtls-2.16.2/library\aes.c **** 
 445:D:/fchai/work/i-cube/I-CUBE-HUAWEI/Middlewares/Third_Party/Huawei/iot_link/network/dtls/mbedtls/mbedtls-2.16.2/library\aes.c ****         FSb[i] = (unsigned char) x;
 446:D:/fchai/work/i-cube/I-CUBE-HUAWEI/Middlewares/Third_Party/Huawei/iot_link/network/dtls/mbedtls/mbedtls-2.16.2/library\aes.c ****         RSb[x] = (unsigned char) i;
 447:D:/fchai/work/i-cube/I-CUBE-HUAWEI/Middlewares/Third_Party/Huawei/iot_link/network/dtls/mbedtls/mbedtls-2.16.2/library\aes.c ****     }
 448:D:/fchai/work/i-cube/I-CUBE-HUAWEI/Middlewares/Third_Party/Huawei/iot_link/network/dtls/mbedtls/mbedtls-2.16.2/library\aes.c **** 
 449:D:/fchai/work/i-cube/I-CUBE-HUAWEI/Middlewares/Third_Party/Huawei/iot_link/network/dtls/mbedtls/mbedtls-2.16.2/library\aes.c ****     /*
 450:D:/fchai/work/i-cube/I-CUBE-HUAWEI/Middlewares/Third_Party/Huawei/iot_link/network/dtls/mbedtls/mbedtls-2.16.2/library\aes.c ****      * generate the forward and reverse tables
 451:D:/fchai/work/i-cube/I-CUBE-HUAWEI/Middlewares/Third_Party/Huawei/iot_link/network/dtls/mbedtls/mbedtls-2.16.2/library\aes.c ****      */
 452:D:/fchai/work/i-cube/I-CUBE-HUAWEI/Middlewares/Third_Party/Huawei/iot_link/network/dtls/mbedtls/mbedtls-2.16.2/library\aes.c ****     for( i = 0; i < 256; i++ )
 453:D:/fchai/work/i-cube/I-CUBE-HUAWEI/Middlewares/Third_Party/Huawei/iot_link/network/dtls/mbedtls/mbedtls-2.16.2/library\aes.c ****     {
 454:D:/fchai/work/i-cube/I-CUBE-HUAWEI/Middlewares/Third_Party/Huawei/iot_link/network/dtls/mbedtls/mbedtls-2.16.2/library\aes.c ****         x = FSb[i];
 455:D:/fchai/work/i-cube/I-CUBE-HUAWEI/Middlewares/Third_Party/Huawei/iot_link/network/dtls/mbedtls/mbedtls-2.16.2/library\aes.c ****         y = XTIME( x ) & 0xFF;
 456:D:/fchai/work/i-cube/I-CUBE-HUAWEI/Middlewares/Third_Party/Huawei/iot_link/network/dtls/mbedtls/mbedtls-2.16.2/library\aes.c ****         z =  ( y ^ x ) & 0xFF;
 457:D:/fchai/work/i-cube/I-CUBE-HUAWEI/Middlewares/Third_Party/Huawei/iot_link/network/dtls/mbedtls/mbedtls-2.16.2/library\aes.c **** 
 458:D:/fchai/work/i-cube/I-CUBE-HUAWEI/Middlewares/Third_Party/Huawei/iot_link/network/dtls/mbedtls/mbedtls-2.16.2/library\aes.c ****         FT0[i] = ( (uint32_t) y       ) ^
 459:D:/fchai/work/i-cube/I-CUBE-HUAWEI/Middlewares/Third_Party/Huawei/iot_link/network/dtls/mbedtls/mbedtls-2.16.2/library\aes.c ****                  ( (uint32_t) x <<  8 ) ^
 460:D:/fchai/work/i-cube/I-CUBE-HUAWEI/Middlewares/Third_Party/Huawei/iot_link/network/dtls/mbedtls/mbedtls-2.16.2/library\aes.c ****                  ( (uint32_t) x << 16 ) ^
 461:D:/fchai/work/i-cube/I-CUBE-HUAWEI/Middlewares/Third_Party/Huawei/iot_link/network/dtls/mbedtls/mbedtls-2.16.2/library\aes.c ****                  ( (uint32_t) z << 24 );
 462:D:/fchai/work/i-cube/I-CUBE-HUAWEI/Middlewares/Third_Party/Huawei/iot_link/network/dtls/mbedtls/mbedtls-2.16.2/library\aes.c **** 
 463:D:/fchai/work/i-cube/I-CUBE-HUAWEI/Middlewares/Third_Party/Huawei/iot_link/network/dtls/mbedtls/mbedtls-2.16.2/library\aes.c **** #if !defined(MBEDTLS_AES_FEWER_TABLES)
 464:D:/fchai/work/i-cube/I-CUBE-HUAWEI/Middlewares/Third_Party/Huawei/iot_link/network/dtls/mbedtls/mbedtls-2.16.2/library\aes.c ****         FT1[i] = ROTL8( FT0[i] );
 465:D:/fchai/work/i-cube/I-CUBE-HUAWEI/Middlewares/Third_Party/Huawei/iot_link/network/dtls/mbedtls/mbedtls-2.16.2/library\aes.c ****         FT2[i] = ROTL8( FT1[i] );
 466:D:/fchai/work/i-cube/I-CUBE-HUAWEI/Middlewares/Third_Party/Huawei/iot_link/network/dtls/mbedtls/mbedtls-2.16.2/library\aes.c ****         FT3[i] = ROTL8( FT2[i] );
 467:D:/fchai/work/i-cube/I-CUBE-HUAWEI/Middlewares/Third_Party/Huawei/iot_link/network/dtls/mbedtls/mbedtls-2.16.2/library\aes.c **** #endif /* !MBEDTLS_AES_FEWER_TABLES */
 468:D:/fchai/work/i-cube/I-CUBE-HUAWEI/Middlewares/Third_Party/Huawei/iot_link/network/dtls/mbedtls/mbedtls-2.16.2/library\aes.c **** 
 469:D:/fchai/work/i-cube/I-CUBE-HUAWEI/Middlewares/Third_Party/Huawei/iot_link/network/dtls/mbedtls/mbedtls-2.16.2/library\aes.c ****         x = RSb[i];
 470:D:/fchai/work/i-cube/I-CUBE-HUAWEI/Middlewares/Third_Party/Huawei/iot_link/network/dtls/mbedtls/mbedtls-2.16.2/library\aes.c **** 
 471:D:/fchai/work/i-cube/I-CUBE-HUAWEI/Middlewares/Third_Party/Huawei/iot_link/network/dtls/mbedtls/mbedtls-2.16.2/library\aes.c ****         RT0[i] = ( (uint32_t) MUL( 0x0E, x )       ) ^
 472:D:/fchai/work/i-cube/I-CUBE-HUAWEI/Middlewares/Third_Party/Huawei/iot_link/network/dtls/mbedtls/mbedtls-2.16.2/library\aes.c ****                  ( (uint32_t) MUL( 0x09, x ) <<  8 ) ^
 473:D:/fchai/work/i-cube/I-CUBE-HUAWEI/Middlewares/Third_Party/Huawei/iot_link/network/dtls/mbedtls/mbedtls-2.16.2/library\aes.c ****                  ( (uint32_t) MUL( 0x0D, x ) << 16 ) ^
 474:D:/fchai/work/i-cube/I-CUBE-HUAWEI/Middlewares/Third_Party/Huawei/iot_link/network/dtls/mbedtls/mbedtls-2.16.2/library\aes.c ****                  ( (uint32_t) MUL( 0x0B, x ) << 24 );
 475:D:/fchai/work/i-cube/I-CUBE-HUAWEI/Middlewares/Third_Party/Huawei/iot_link/network/dtls/mbedtls/mbedtls-2.16.2/library\aes.c **** 
 476:D:/fchai/work/i-cube/I-CUBE-HUAWEI/Middlewares/Third_Party/Huawei/iot_link/network/dtls/mbedtls/mbedtls-2.16.2/library\aes.c **** #if !defined(MBEDTLS_AES_FEWER_TABLES)
 477:D:/fchai/work/i-cube/I-CUBE-HUAWEI/Middlewares/Third_Party/Huawei/iot_link/network/dtls/mbedtls/mbedtls-2.16.2/library\aes.c ****         RT1[i] = ROTL8( RT0[i] );
 478:D:/fchai/work/i-cube/I-CUBE-HUAWEI/Middlewares/Third_Party/Huawei/iot_link/network/dtls/mbedtls/mbedtls-2.16.2/library\aes.c ****         RT2[i] = ROTL8( RT1[i] );
 479:D:/fchai/work/i-cube/I-CUBE-HUAWEI/Middlewares/Third_Party/Huawei/iot_link/network/dtls/mbedtls/mbedtls-2.16.2/library\aes.c ****         RT3[i] = ROTL8( RT2[i] );
 480:D:/fchai/work/i-cube/I-CUBE-HUAWEI/Middlewares/Third_Party/Huawei/iot_link/network/dtls/mbedtls/mbedtls-2.16.2/library\aes.c **** #endif /* !MBEDTLS_AES_FEWER_TABLES */
 481:D:/fchai/work/i-cube/I-CUBE-HUAWEI/Middlewares/Third_Party/Huawei/iot_link/network/dtls/mbedtls/mbedtls-2.16.2/library\aes.c ****     }
 482:D:/fchai/work/i-cube/I-CUBE-HUAWEI/Middlewares/Third_Party/Huawei/iot_link/network/dtls/mbedtls/mbedtls-2.16.2/library\aes.c **** }
 483:D:/fchai/work/i-cube/I-CUBE-HUAWEI/Middlewares/Third_Party/Huawei/iot_link/network/dtls/mbedtls/mbedtls-2.16.2/library\aes.c **** 
 484:D:/fchai/work/i-cube/I-CUBE-HUAWEI/Middlewares/Third_Party/Huawei/iot_link/network/dtls/mbedtls/mbedtls-2.16.2/library\aes.c **** #undef ROTL8
ARM GAS  T:\msys\tmp\ccwessdu.s 			page 10


 485:D:/fchai/work/i-cube/I-CUBE-HUAWEI/Middlewares/Third_Party/Huawei/iot_link/network/dtls/mbedtls/mbedtls-2.16.2/library\aes.c **** 
 486:D:/fchai/work/i-cube/I-CUBE-HUAWEI/Middlewares/Third_Party/Huawei/iot_link/network/dtls/mbedtls/mbedtls-2.16.2/library\aes.c **** #endif /* MBEDTLS_AES_ROM_TABLES */
 487:D:/fchai/work/i-cube/I-CUBE-HUAWEI/Middlewares/Third_Party/Huawei/iot_link/network/dtls/mbedtls/mbedtls-2.16.2/library\aes.c **** 
 488:D:/fchai/work/i-cube/I-CUBE-HUAWEI/Middlewares/Third_Party/Huawei/iot_link/network/dtls/mbedtls/mbedtls-2.16.2/library\aes.c **** #if defined(MBEDTLS_AES_FEWER_TABLES)
 489:D:/fchai/work/i-cube/I-CUBE-HUAWEI/Middlewares/Third_Party/Huawei/iot_link/network/dtls/mbedtls/mbedtls-2.16.2/library\aes.c **** 
 490:D:/fchai/work/i-cube/I-CUBE-HUAWEI/Middlewares/Third_Party/Huawei/iot_link/network/dtls/mbedtls/mbedtls-2.16.2/library\aes.c **** #define ROTL8(x)  ( (uint32_t)( ( x ) <<  8 ) + (uint32_t)( ( x ) >> 24 ) )
 491:D:/fchai/work/i-cube/I-CUBE-HUAWEI/Middlewares/Third_Party/Huawei/iot_link/network/dtls/mbedtls/mbedtls-2.16.2/library\aes.c **** #define ROTL16(x) ( (uint32_t)( ( x ) << 16 ) + (uint32_t)( ( x ) >> 16 ) )
 492:D:/fchai/work/i-cube/I-CUBE-HUAWEI/Middlewares/Third_Party/Huawei/iot_link/network/dtls/mbedtls/mbedtls-2.16.2/library\aes.c **** #define ROTL24(x) ( (uint32_t)( ( x ) << 24 ) + (uint32_t)( ( x ) >>  8 ) )
 493:D:/fchai/work/i-cube/I-CUBE-HUAWEI/Middlewares/Third_Party/Huawei/iot_link/network/dtls/mbedtls/mbedtls-2.16.2/library\aes.c **** 
 494:D:/fchai/work/i-cube/I-CUBE-HUAWEI/Middlewares/Third_Party/Huawei/iot_link/network/dtls/mbedtls/mbedtls-2.16.2/library\aes.c **** #define AES_RT0(idx) RT0[idx]
 495:D:/fchai/work/i-cube/I-CUBE-HUAWEI/Middlewares/Third_Party/Huawei/iot_link/network/dtls/mbedtls/mbedtls-2.16.2/library\aes.c **** #define AES_RT1(idx) ROTL8(  RT0[idx] )
 496:D:/fchai/work/i-cube/I-CUBE-HUAWEI/Middlewares/Third_Party/Huawei/iot_link/network/dtls/mbedtls/mbedtls-2.16.2/library\aes.c **** #define AES_RT2(idx) ROTL16( RT0[idx] )
 497:D:/fchai/work/i-cube/I-CUBE-HUAWEI/Middlewares/Third_Party/Huawei/iot_link/network/dtls/mbedtls/mbedtls-2.16.2/library\aes.c **** #define AES_RT3(idx) ROTL24( RT0[idx] )
 498:D:/fchai/work/i-cube/I-CUBE-HUAWEI/Middlewares/Third_Party/Huawei/iot_link/network/dtls/mbedtls/mbedtls-2.16.2/library\aes.c **** 
 499:D:/fchai/work/i-cube/I-CUBE-HUAWEI/Middlewares/Third_Party/Huawei/iot_link/network/dtls/mbedtls/mbedtls-2.16.2/library\aes.c **** #define AES_FT0(idx) FT0[idx]
 500:D:/fchai/work/i-cube/I-CUBE-HUAWEI/Middlewares/Third_Party/Huawei/iot_link/network/dtls/mbedtls/mbedtls-2.16.2/library\aes.c **** #define AES_FT1(idx) ROTL8(  FT0[idx] )
 501:D:/fchai/work/i-cube/I-CUBE-HUAWEI/Middlewares/Third_Party/Huawei/iot_link/network/dtls/mbedtls/mbedtls-2.16.2/library\aes.c **** #define AES_FT2(idx) ROTL16( FT0[idx] )
 502:D:/fchai/work/i-cube/I-CUBE-HUAWEI/Middlewares/Third_Party/Huawei/iot_link/network/dtls/mbedtls/mbedtls-2.16.2/library\aes.c **** #define AES_FT3(idx) ROTL24( FT0[idx] )
 503:D:/fchai/work/i-cube/I-CUBE-HUAWEI/Middlewares/Third_Party/Huawei/iot_link/network/dtls/mbedtls/mbedtls-2.16.2/library\aes.c **** 
 504:D:/fchai/work/i-cube/I-CUBE-HUAWEI/Middlewares/Third_Party/Huawei/iot_link/network/dtls/mbedtls/mbedtls-2.16.2/library\aes.c **** #else /* MBEDTLS_AES_FEWER_TABLES */
 505:D:/fchai/work/i-cube/I-CUBE-HUAWEI/Middlewares/Third_Party/Huawei/iot_link/network/dtls/mbedtls/mbedtls-2.16.2/library\aes.c **** 
 506:D:/fchai/work/i-cube/I-CUBE-HUAWEI/Middlewares/Third_Party/Huawei/iot_link/network/dtls/mbedtls/mbedtls-2.16.2/library\aes.c **** #define AES_RT0(idx) RT0[idx]
 507:D:/fchai/work/i-cube/I-CUBE-HUAWEI/Middlewares/Third_Party/Huawei/iot_link/network/dtls/mbedtls/mbedtls-2.16.2/library\aes.c **** #define AES_RT1(idx) RT1[idx]
 508:D:/fchai/work/i-cube/I-CUBE-HUAWEI/Middlewares/Third_Party/Huawei/iot_link/network/dtls/mbedtls/mbedtls-2.16.2/library\aes.c **** #define AES_RT2(idx) RT2[idx]
 509:D:/fchai/work/i-cube/I-CUBE-HUAWEI/Middlewares/Third_Party/Huawei/iot_link/network/dtls/mbedtls/mbedtls-2.16.2/library\aes.c **** #define AES_RT3(idx) RT3[idx]
 510:D:/fchai/work/i-cube/I-CUBE-HUAWEI/Middlewares/Third_Party/Huawei/iot_link/network/dtls/mbedtls/mbedtls-2.16.2/library\aes.c **** 
 511:D:/fchai/work/i-cube/I-CUBE-HUAWEI/Middlewares/Third_Party/Huawei/iot_link/network/dtls/mbedtls/mbedtls-2.16.2/library\aes.c **** #define AES_FT0(idx) FT0[idx]
 512:D:/fchai/work/i-cube/I-CUBE-HUAWEI/Middlewares/Third_Party/Huawei/iot_link/network/dtls/mbedtls/mbedtls-2.16.2/library\aes.c **** #define AES_FT1(idx) FT1[idx]
 513:D:/fchai/work/i-cube/I-CUBE-HUAWEI/Middlewares/Third_Party/Huawei/iot_link/network/dtls/mbedtls/mbedtls-2.16.2/library\aes.c **** #define AES_FT2(idx) FT2[idx]
 514:D:/fchai/work/i-cube/I-CUBE-HUAWEI/Middlewares/Third_Party/Huawei/iot_link/network/dtls/mbedtls/mbedtls-2.16.2/library\aes.c **** #define AES_FT3(idx) FT3[idx]
 515:D:/fchai/work/i-cube/I-CUBE-HUAWEI/Middlewares/Third_Party/Huawei/iot_link/network/dtls/mbedtls/mbedtls-2.16.2/library\aes.c **** 
 516:D:/fchai/work/i-cube/I-CUBE-HUAWEI/Middlewares/Third_Party/Huawei/iot_link/network/dtls/mbedtls/mbedtls-2.16.2/library\aes.c **** #endif /* MBEDTLS_AES_FEWER_TABLES */
 517:D:/fchai/work/i-cube/I-CUBE-HUAWEI/Middlewares/Third_Party/Huawei/iot_link/network/dtls/mbedtls/mbedtls-2.16.2/library\aes.c **** 
 518:D:/fchai/work/i-cube/I-CUBE-HUAWEI/Middlewares/Third_Party/Huawei/iot_link/network/dtls/mbedtls/mbedtls-2.16.2/library\aes.c **** void mbedtls_aes_init( mbedtls_aes_context *ctx )
 519:D:/fchai/work/i-cube/I-CUBE-HUAWEI/Middlewares/Third_Party/Huawei/iot_link/network/dtls/mbedtls/mbedtls-2.16.2/library\aes.c **** {
  31              		.loc 1 519 1 view -0
  32              		.cfi_startproc
  33              		@ args = 0, pretend = 0, frame = 0
  34              		@ frame_needed = 0, uses_anonymous_args = 0
  35              		@ link register save eliminated.
 520:D:/fchai/work/i-cube/I-CUBE-HUAWEI/Middlewares/Third_Party/Huawei/iot_link/network/dtls/mbedtls/mbedtls-2.16.2/library\aes.c ****     AES_VALIDATE( ctx != NULL );
  36              		.loc 1 520 5 view .LVU1
  37              		.loc 1 520 5 view .LVU2
  38              		.loc 1 520 5 view .LVU3
 521:D:/fchai/work/i-cube/I-CUBE-HUAWEI/Middlewares/Third_Party/Huawei/iot_link/network/dtls/mbedtls/mbedtls-2.16.2/library\aes.c **** 
 522:D:/fchai/work/i-cube/I-CUBE-HUAWEI/Middlewares/Third_Party/Huawei/iot_link/network/dtls/mbedtls/mbedtls-2.16.2/library\aes.c ****     memset( ctx, 0, sizeof( mbedtls_aes_context ) );
  39              		.loc 1 522 5 view .LVU4
  40 0000 4FF48C72 		mov	r2, #280
  41 0004 0021     		movs	r1, #0
  42 0006 FFF7FEBF 		b	memset
  43              	.LVL1:
  44              		.loc 1 522 5 is_stmt 0 view .LVU5
  45              		.cfi_endproc
  46              	.LFE3:
  48 000a 00BF     		.section	.text.mbedtls_aes_free,"ax",%progbits
  49              		.align	1
  50              		.p2align 2,,3
ARM GAS  T:\msys\tmp\ccwessdu.s 			page 11


  51              		.global	mbedtls_aes_free
  52              		.syntax unified
  53              		.thumb
  54              		.thumb_func
  55              		.fpu fpv4-sp-d16
  57              	mbedtls_aes_free:
  58              	.LVL2:
  59              	.LFB4:
 523:D:/fchai/work/i-cube/I-CUBE-HUAWEI/Middlewares/Third_Party/Huawei/iot_link/network/dtls/mbedtls/mbedtls-2.16.2/library\aes.c **** }
 524:D:/fchai/work/i-cube/I-CUBE-HUAWEI/Middlewares/Third_Party/Huawei/iot_link/network/dtls/mbedtls/mbedtls-2.16.2/library\aes.c **** 
 525:D:/fchai/work/i-cube/I-CUBE-HUAWEI/Middlewares/Third_Party/Huawei/iot_link/network/dtls/mbedtls/mbedtls-2.16.2/library\aes.c **** void mbedtls_aes_free( mbedtls_aes_context *ctx )
 526:D:/fchai/work/i-cube/I-CUBE-HUAWEI/Middlewares/Third_Party/Huawei/iot_link/network/dtls/mbedtls/mbedtls-2.16.2/library\aes.c **** {
  60              		.loc 1 526 1 is_stmt 1 view -0
  61              		.cfi_startproc
  62              		@ args = 0, pretend = 0, frame = 0
  63              		@ frame_needed = 0, uses_anonymous_args = 0
  64              		@ link register save eliminated.
 527:D:/fchai/work/i-cube/I-CUBE-HUAWEI/Middlewares/Third_Party/Huawei/iot_link/network/dtls/mbedtls/mbedtls-2.16.2/library\aes.c ****     if( ctx == NULL )
  65              		.loc 1 527 5 view .LVU7
  66              		.loc 1 527 7 is_stmt 0 view .LVU8
  67 0000 18B1     		cbz	r0, .L3
 528:D:/fchai/work/i-cube/I-CUBE-HUAWEI/Middlewares/Third_Party/Huawei/iot_link/network/dtls/mbedtls/mbedtls-2.16.2/library\aes.c ****         return;
 529:D:/fchai/work/i-cube/I-CUBE-HUAWEI/Middlewares/Third_Party/Huawei/iot_link/network/dtls/mbedtls/mbedtls-2.16.2/library\aes.c **** 
 530:D:/fchai/work/i-cube/I-CUBE-HUAWEI/Middlewares/Third_Party/Huawei/iot_link/network/dtls/mbedtls/mbedtls-2.16.2/library\aes.c ****     mbedtls_platform_zeroize( ctx, sizeof( mbedtls_aes_context ) );
  68              		.loc 1 530 5 is_stmt 1 view .LVU9
  69 0002 4FF48C71 		mov	r1, #280
  70 0006 FFF7FEBF 		b	mbedtls_platform_zeroize
  71              	.LVL3:
  72              	.L3:
 531:D:/fchai/work/i-cube/I-CUBE-HUAWEI/Middlewares/Third_Party/Huawei/iot_link/network/dtls/mbedtls/mbedtls-2.16.2/library\aes.c **** }
  73              		.loc 1 531 1 is_stmt 0 view .LVU10
  74 000a 7047     		bx	lr
  75              		.cfi_endproc
  76              	.LFE4:
  78              		.section	.text.mbedtls_aes_setkey_enc,"ax",%progbits
  79              		.align	1
  80              		.p2align 2,,3
  81              		.global	mbedtls_aes_setkey_enc
  82              		.syntax unified
  83              		.thumb
  84              		.thumb_func
  85              		.fpu fpv4-sp-d16
  87              	mbedtls_aes_setkey_enc:
  88              	.LVL4:
  89              	.LFB5:
 532:D:/fchai/work/i-cube/I-CUBE-HUAWEI/Middlewares/Third_Party/Huawei/iot_link/network/dtls/mbedtls/mbedtls-2.16.2/library\aes.c **** 
 533:D:/fchai/work/i-cube/I-CUBE-HUAWEI/Middlewares/Third_Party/Huawei/iot_link/network/dtls/mbedtls/mbedtls-2.16.2/library\aes.c **** #if defined(MBEDTLS_CIPHER_MODE_XTS)
 534:D:/fchai/work/i-cube/I-CUBE-HUAWEI/Middlewares/Third_Party/Huawei/iot_link/network/dtls/mbedtls/mbedtls-2.16.2/library\aes.c **** void mbedtls_aes_xts_init( mbedtls_aes_xts_context *ctx )
 535:D:/fchai/work/i-cube/I-CUBE-HUAWEI/Middlewares/Third_Party/Huawei/iot_link/network/dtls/mbedtls/mbedtls-2.16.2/library\aes.c **** {
 536:D:/fchai/work/i-cube/I-CUBE-HUAWEI/Middlewares/Third_Party/Huawei/iot_link/network/dtls/mbedtls/mbedtls-2.16.2/library\aes.c ****     AES_VALIDATE( ctx != NULL );
 537:D:/fchai/work/i-cube/I-CUBE-HUAWEI/Middlewares/Third_Party/Huawei/iot_link/network/dtls/mbedtls/mbedtls-2.16.2/library\aes.c **** 
 538:D:/fchai/work/i-cube/I-CUBE-HUAWEI/Middlewares/Third_Party/Huawei/iot_link/network/dtls/mbedtls/mbedtls-2.16.2/library\aes.c ****     mbedtls_aes_init( &ctx->crypt );
 539:D:/fchai/work/i-cube/I-CUBE-HUAWEI/Middlewares/Third_Party/Huawei/iot_link/network/dtls/mbedtls/mbedtls-2.16.2/library\aes.c ****     mbedtls_aes_init( &ctx->tweak );
 540:D:/fchai/work/i-cube/I-CUBE-HUAWEI/Middlewares/Third_Party/Huawei/iot_link/network/dtls/mbedtls/mbedtls-2.16.2/library\aes.c **** }
 541:D:/fchai/work/i-cube/I-CUBE-HUAWEI/Middlewares/Third_Party/Huawei/iot_link/network/dtls/mbedtls/mbedtls-2.16.2/library\aes.c **** 
 542:D:/fchai/work/i-cube/I-CUBE-HUAWEI/Middlewares/Third_Party/Huawei/iot_link/network/dtls/mbedtls/mbedtls-2.16.2/library\aes.c **** void mbedtls_aes_xts_free( mbedtls_aes_xts_context *ctx )
 543:D:/fchai/work/i-cube/I-CUBE-HUAWEI/Middlewares/Third_Party/Huawei/iot_link/network/dtls/mbedtls/mbedtls-2.16.2/library\aes.c **** {
ARM GAS  T:\msys\tmp\ccwessdu.s 			page 12


 544:D:/fchai/work/i-cube/I-CUBE-HUAWEI/Middlewares/Third_Party/Huawei/iot_link/network/dtls/mbedtls/mbedtls-2.16.2/library\aes.c ****     if( ctx == NULL )
 545:D:/fchai/work/i-cube/I-CUBE-HUAWEI/Middlewares/Third_Party/Huawei/iot_link/network/dtls/mbedtls/mbedtls-2.16.2/library\aes.c ****         return;
 546:D:/fchai/work/i-cube/I-CUBE-HUAWEI/Middlewares/Third_Party/Huawei/iot_link/network/dtls/mbedtls/mbedtls-2.16.2/library\aes.c **** 
 547:D:/fchai/work/i-cube/I-CUBE-HUAWEI/Middlewares/Third_Party/Huawei/iot_link/network/dtls/mbedtls/mbedtls-2.16.2/library\aes.c ****     mbedtls_aes_free( &ctx->crypt );
 548:D:/fchai/work/i-cube/I-CUBE-HUAWEI/Middlewares/Third_Party/Huawei/iot_link/network/dtls/mbedtls/mbedtls-2.16.2/library\aes.c ****     mbedtls_aes_free( &ctx->tweak );
 549:D:/fchai/work/i-cube/I-CUBE-HUAWEI/Middlewares/Third_Party/Huawei/iot_link/network/dtls/mbedtls/mbedtls-2.16.2/library\aes.c **** }
 550:D:/fchai/work/i-cube/I-CUBE-HUAWEI/Middlewares/Third_Party/Huawei/iot_link/network/dtls/mbedtls/mbedtls-2.16.2/library\aes.c **** #endif /* MBEDTLS_CIPHER_MODE_XTS */
 551:D:/fchai/work/i-cube/I-CUBE-HUAWEI/Middlewares/Third_Party/Huawei/iot_link/network/dtls/mbedtls/mbedtls-2.16.2/library\aes.c **** 
 552:D:/fchai/work/i-cube/I-CUBE-HUAWEI/Middlewares/Third_Party/Huawei/iot_link/network/dtls/mbedtls/mbedtls-2.16.2/library\aes.c **** /*
 553:D:/fchai/work/i-cube/I-CUBE-HUAWEI/Middlewares/Third_Party/Huawei/iot_link/network/dtls/mbedtls/mbedtls-2.16.2/library\aes.c ****  * AES key schedule (encryption)
 554:D:/fchai/work/i-cube/I-CUBE-HUAWEI/Middlewares/Third_Party/Huawei/iot_link/network/dtls/mbedtls/mbedtls-2.16.2/library\aes.c ****  */
 555:D:/fchai/work/i-cube/I-CUBE-HUAWEI/Middlewares/Third_Party/Huawei/iot_link/network/dtls/mbedtls/mbedtls-2.16.2/library\aes.c **** #if !defined(MBEDTLS_AES_SETKEY_ENC_ALT)
 556:D:/fchai/work/i-cube/I-CUBE-HUAWEI/Middlewares/Third_Party/Huawei/iot_link/network/dtls/mbedtls/mbedtls-2.16.2/library\aes.c **** int mbedtls_aes_setkey_enc( mbedtls_aes_context *ctx, const unsigned char *key,
 557:D:/fchai/work/i-cube/I-CUBE-HUAWEI/Middlewares/Third_Party/Huawei/iot_link/network/dtls/mbedtls/mbedtls-2.16.2/library\aes.c ****                     unsigned int keybits )
 558:D:/fchai/work/i-cube/I-CUBE-HUAWEI/Middlewares/Third_Party/Huawei/iot_link/network/dtls/mbedtls/mbedtls-2.16.2/library\aes.c **** {
  90              		.loc 1 558 1 is_stmt 1 view -0
  91              		.cfi_startproc
  92              		@ args = 0, pretend = 0, frame = 0
  93              		@ frame_needed = 0, uses_anonymous_args = 0
 559:D:/fchai/work/i-cube/I-CUBE-HUAWEI/Middlewares/Third_Party/Huawei/iot_link/network/dtls/mbedtls/mbedtls-2.16.2/library\aes.c ****     unsigned int i;
  94              		.loc 1 559 5 view .LVU12
 560:D:/fchai/work/i-cube/I-CUBE-HUAWEI/Middlewares/Third_Party/Huawei/iot_link/network/dtls/mbedtls/mbedtls-2.16.2/library\aes.c ****     uint32_t *RK;
  95              		.loc 1 560 5 view .LVU13
 561:D:/fchai/work/i-cube/I-CUBE-HUAWEI/Middlewares/Third_Party/Huawei/iot_link/network/dtls/mbedtls/mbedtls-2.16.2/library\aes.c **** 
 562:D:/fchai/work/i-cube/I-CUBE-HUAWEI/Middlewares/Third_Party/Huawei/iot_link/network/dtls/mbedtls/mbedtls-2.16.2/library\aes.c ****     AES_VALIDATE_RET( ctx != NULL );
  96              		.loc 1 562 5 view .LVU14
  97              		.loc 1 562 5 view .LVU15
  98              		.loc 1 562 5 view .LVU16
 563:D:/fchai/work/i-cube/I-CUBE-HUAWEI/Middlewares/Third_Party/Huawei/iot_link/network/dtls/mbedtls/mbedtls-2.16.2/library\aes.c ****     AES_VALIDATE_RET( key != NULL );
  99              		.loc 1 563 5 view .LVU17
 100              		.loc 1 563 5 view .LVU18
 101              		.loc 1 563 5 view .LVU19
 564:D:/fchai/work/i-cube/I-CUBE-HUAWEI/Middlewares/Third_Party/Huawei/iot_link/network/dtls/mbedtls/mbedtls-2.16.2/library\aes.c **** 
 565:D:/fchai/work/i-cube/I-CUBE-HUAWEI/Middlewares/Third_Party/Huawei/iot_link/network/dtls/mbedtls/mbedtls-2.16.2/library\aes.c ****     switch( keybits )
 102              		.loc 1 565 5 view .LVU20
 103 0000 C02A     		cmp	r2, #192
 104 0002 07D0     		beq	.L6
 105 0004 B2F5807F 		cmp	r2, #256
 106 0008 33D0     		beq	.L7
 107 000a 802A     		cmp	r2, #128
 108 000c 2DD0     		beq	.L28
 109 000e 6FF01F00 		mvn	r0, #31
 110              	.LVL5:
 566:D:/fchai/work/i-cube/I-CUBE-HUAWEI/Middlewares/Third_Party/Huawei/iot_link/network/dtls/mbedtls/mbedtls-2.16.2/library\aes.c ****     {
 567:D:/fchai/work/i-cube/I-CUBE-HUAWEI/Middlewares/Third_Party/Huawei/iot_link/network/dtls/mbedtls/mbedtls-2.16.2/library\aes.c ****         case 128: ctx->nr = 10; break;
 568:D:/fchai/work/i-cube/I-CUBE-HUAWEI/Middlewares/Third_Party/Huawei/iot_link/network/dtls/mbedtls/mbedtls-2.16.2/library\aes.c ****         case 192: ctx->nr = 12; break;
 569:D:/fchai/work/i-cube/I-CUBE-HUAWEI/Middlewares/Third_Party/Huawei/iot_link/network/dtls/mbedtls/mbedtls-2.16.2/library\aes.c ****         case 256: ctx->nr = 14; break;
 570:D:/fchai/work/i-cube/I-CUBE-HUAWEI/Middlewares/Third_Party/Huawei/iot_link/network/dtls/mbedtls/mbedtls-2.16.2/library\aes.c ****         default : return( MBEDTLS_ERR_AES_INVALID_KEY_LENGTH );
 571:D:/fchai/work/i-cube/I-CUBE-HUAWEI/Middlewares/Third_Party/Huawei/iot_link/network/dtls/mbedtls/mbedtls-2.16.2/library\aes.c ****     }
 572:D:/fchai/work/i-cube/I-CUBE-HUAWEI/Middlewares/Third_Party/Huawei/iot_link/network/dtls/mbedtls/mbedtls-2.16.2/library\aes.c **** 
 573:D:/fchai/work/i-cube/I-CUBE-HUAWEI/Middlewares/Third_Party/Huawei/iot_link/network/dtls/mbedtls/mbedtls-2.16.2/library\aes.c **** #if !defined(MBEDTLS_AES_ROM_TABLES)
 574:D:/fchai/work/i-cube/I-CUBE-HUAWEI/Middlewares/Third_Party/Huawei/iot_link/network/dtls/mbedtls/mbedtls-2.16.2/library\aes.c ****     if( aes_init_done == 0 )
 575:D:/fchai/work/i-cube/I-CUBE-HUAWEI/Middlewares/Third_Party/Huawei/iot_link/network/dtls/mbedtls/mbedtls-2.16.2/library\aes.c ****     {
 576:D:/fchai/work/i-cube/I-CUBE-HUAWEI/Middlewares/Third_Party/Huawei/iot_link/network/dtls/mbedtls/mbedtls-2.16.2/library\aes.c ****         aes_gen_tables();
 577:D:/fchai/work/i-cube/I-CUBE-HUAWEI/Middlewares/Third_Party/Huawei/iot_link/network/dtls/mbedtls/mbedtls-2.16.2/library\aes.c ****         aes_init_done = 1;
 578:D:/fchai/work/i-cube/I-CUBE-HUAWEI/Middlewares/Third_Party/Huawei/iot_link/network/dtls/mbedtls/mbedtls-2.16.2/library\aes.c ****     }
 579:D:/fchai/work/i-cube/I-CUBE-HUAWEI/Middlewares/Third_Party/Huawei/iot_link/network/dtls/mbedtls/mbedtls-2.16.2/library\aes.c **** #endif
ARM GAS  T:\msys\tmp\ccwessdu.s 			page 13


 580:D:/fchai/work/i-cube/I-CUBE-HUAWEI/Middlewares/Third_Party/Huawei/iot_link/network/dtls/mbedtls/mbedtls-2.16.2/library\aes.c **** 
 581:D:/fchai/work/i-cube/I-CUBE-HUAWEI/Middlewares/Third_Party/Huawei/iot_link/network/dtls/mbedtls/mbedtls-2.16.2/library\aes.c **** #if defined(MBEDTLS_PADLOCK_C) && defined(MBEDTLS_PADLOCK_ALIGN16)
 582:D:/fchai/work/i-cube/I-CUBE-HUAWEI/Middlewares/Third_Party/Huawei/iot_link/network/dtls/mbedtls/mbedtls-2.16.2/library\aes.c ****     if( aes_padlock_ace == -1 )
 583:D:/fchai/work/i-cube/I-CUBE-HUAWEI/Middlewares/Third_Party/Huawei/iot_link/network/dtls/mbedtls/mbedtls-2.16.2/library\aes.c ****         aes_padlock_ace = mbedtls_padlock_has_support( MBEDTLS_PADLOCK_ACE );
 584:D:/fchai/work/i-cube/I-CUBE-HUAWEI/Middlewares/Third_Party/Huawei/iot_link/network/dtls/mbedtls/mbedtls-2.16.2/library\aes.c **** 
 585:D:/fchai/work/i-cube/I-CUBE-HUAWEI/Middlewares/Third_Party/Huawei/iot_link/network/dtls/mbedtls/mbedtls-2.16.2/library\aes.c ****     if( aes_padlock_ace )
 586:D:/fchai/work/i-cube/I-CUBE-HUAWEI/Middlewares/Third_Party/Huawei/iot_link/network/dtls/mbedtls/mbedtls-2.16.2/library\aes.c ****         ctx->rk = RK = MBEDTLS_PADLOCK_ALIGN16( ctx->buf );
 587:D:/fchai/work/i-cube/I-CUBE-HUAWEI/Middlewares/Third_Party/Huawei/iot_link/network/dtls/mbedtls/mbedtls-2.16.2/library\aes.c ****     else
 588:D:/fchai/work/i-cube/I-CUBE-HUAWEI/Middlewares/Third_Party/Huawei/iot_link/network/dtls/mbedtls/mbedtls-2.16.2/library\aes.c **** #endif
 589:D:/fchai/work/i-cube/I-CUBE-HUAWEI/Middlewares/Third_Party/Huawei/iot_link/network/dtls/mbedtls/mbedtls-2.16.2/library\aes.c ****     ctx->rk = RK = ctx->buf;
 590:D:/fchai/work/i-cube/I-CUBE-HUAWEI/Middlewares/Third_Party/Huawei/iot_link/network/dtls/mbedtls/mbedtls-2.16.2/library\aes.c **** 
 591:D:/fchai/work/i-cube/I-CUBE-HUAWEI/Middlewares/Third_Party/Huawei/iot_link/network/dtls/mbedtls/mbedtls-2.16.2/library\aes.c **** #if defined(MBEDTLS_AESNI_C) && defined(MBEDTLS_HAVE_X86_64)
 592:D:/fchai/work/i-cube/I-CUBE-HUAWEI/Middlewares/Third_Party/Huawei/iot_link/network/dtls/mbedtls/mbedtls-2.16.2/library\aes.c ****     if( mbedtls_aesni_has_support( MBEDTLS_AESNI_AES ) )
 593:D:/fchai/work/i-cube/I-CUBE-HUAWEI/Middlewares/Third_Party/Huawei/iot_link/network/dtls/mbedtls/mbedtls-2.16.2/library\aes.c ****         return( mbedtls_aesni_setkey_enc( (unsigned char *) ctx->rk, key, keybits ) );
 594:D:/fchai/work/i-cube/I-CUBE-HUAWEI/Middlewares/Third_Party/Huawei/iot_link/network/dtls/mbedtls/mbedtls-2.16.2/library\aes.c **** #endif
 595:D:/fchai/work/i-cube/I-CUBE-HUAWEI/Middlewares/Third_Party/Huawei/iot_link/network/dtls/mbedtls/mbedtls-2.16.2/library\aes.c **** 
 596:D:/fchai/work/i-cube/I-CUBE-HUAWEI/Middlewares/Third_Party/Huawei/iot_link/network/dtls/mbedtls/mbedtls-2.16.2/library\aes.c ****     for( i = 0; i < ( keybits >> 5 ); i++ )
 597:D:/fchai/work/i-cube/I-CUBE-HUAWEI/Middlewares/Third_Party/Huawei/iot_link/network/dtls/mbedtls/mbedtls-2.16.2/library\aes.c ****     {
 598:D:/fchai/work/i-cube/I-CUBE-HUAWEI/Middlewares/Third_Party/Huawei/iot_link/network/dtls/mbedtls/mbedtls-2.16.2/library\aes.c ****         GET_UINT32_LE( RK[i], key, i << 2 );
 599:D:/fchai/work/i-cube/I-CUBE-HUAWEI/Middlewares/Third_Party/Huawei/iot_link/network/dtls/mbedtls/mbedtls-2.16.2/library\aes.c ****     }
 600:D:/fchai/work/i-cube/I-CUBE-HUAWEI/Middlewares/Third_Party/Huawei/iot_link/network/dtls/mbedtls/mbedtls-2.16.2/library\aes.c **** 
 601:D:/fchai/work/i-cube/I-CUBE-HUAWEI/Middlewares/Third_Party/Huawei/iot_link/network/dtls/mbedtls/mbedtls-2.16.2/library\aes.c ****     switch( ctx->nr )
 602:D:/fchai/work/i-cube/I-CUBE-HUAWEI/Middlewares/Third_Party/Huawei/iot_link/network/dtls/mbedtls/mbedtls-2.16.2/library\aes.c ****     {
 603:D:/fchai/work/i-cube/I-CUBE-HUAWEI/Middlewares/Third_Party/Huawei/iot_link/network/dtls/mbedtls/mbedtls-2.16.2/library\aes.c ****         case 10:
 604:D:/fchai/work/i-cube/I-CUBE-HUAWEI/Middlewares/Third_Party/Huawei/iot_link/network/dtls/mbedtls/mbedtls-2.16.2/library\aes.c **** 
 605:D:/fchai/work/i-cube/I-CUBE-HUAWEI/Middlewares/Third_Party/Huawei/iot_link/network/dtls/mbedtls/mbedtls-2.16.2/library\aes.c ****             for( i = 0; i < 10; i++, RK += 4 )
 606:D:/fchai/work/i-cube/I-CUBE-HUAWEI/Middlewares/Third_Party/Huawei/iot_link/network/dtls/mbedtls/mbedtls-2.16.2/library\aes.c ****             {
 607:D:/fchai/work/i-cube/I-CUBE-HUAWEI/Middlewares/Third_Party/Huawei/iot_link/network/dtls/mbedtls/mbedtls-2.16.2/library\aes.c ****                 RK[4]  = RK[0] ^ RCON[i] ^
 608:D:/fchai/work/i-cube/I-CUBE-HUAWEI/Middlewares/Third_Party/Huawei/iot_link/network/dtls/mbedtls/mbedtls-2.16.2/library\aes.c ****                 ( (uint32_t) FSb[ ( RK[3] >>  8 ) & 0xFF ]       ) ^
 609:D:/fchai/work/i-cube/I-CUBE-HUAWEI/Middlewares/Third_Party/Huawei/iot_link/network/dtls/mbedtls/mbedtls-2.16.2/library\aes.c ****                 ( (uint32_t) FSb[ ( RK[3] >> 16 ) & 0xFF ] <<  8 ) ^
 610:D:/fchai/work/i-cube/I-CUBE-HUAWEI/Middlewares/Third_Party/Huawei/iot_link/network/dtls/mbedtls/mbedtls-2.16.2/library\aes.c ****                 ( (uint32_t) FSb[ ( RK[3] >> 24 ) & 0xFF ] << 16 ) ^
 611:D:/fchai/work/i-cube/I-CUBE-HUAWEI/Middlewares/Third_Party/Huawei/iot_link/network/dtls/mbedtls/mbedtls-2.16.2/library\aes.c ****                 ( (uint32_t) FSb[ ( RK[3]       ) & 0xFF ] << 24 );
 612:D:/fchai/work/i-cube/I-CUBE-HUAWEI/Middlewares/Third_Party/Huawei/iot_link/network/dtls/mbedtls/mbedtls-2.16.2/library\aes.c **** 
 613:D:/fchai/work/i-cube/I-CUBE-HUAWEI/Middlewares/Third_Party/Huawei/iot_link/network/dtls/mbedtls/mbedtls-2.16.2/library\aes.c ****                 RK[5]  = RK[1] ^ RK[4];
 614:D:/fchai/work/i-cube/I-CUBE-HUAWEI/Middlewares/Third_Party/Huawei/iot_link/network/dtls/mbedtls/mbedtls-2.16.2/library\aes.c ****                 RK[6]  = RK[2] ^ RK[5];
 615:D:/fchai/work/i-cube/I-CUBE-HUAWEI/Middlewares/Third_Party/Huawei/iot_link/network/dtls/mbedtls/mbedtls-2.16.2/library\aes.c ****                 RK[7]  = RK[3] ^ RK[6];
 616:D:/fchai/work/i-cube/I-CUBE-HUAWEI/Middlewares/Third_Party/Huawei/iot_link/network/dtls/mbedtls/mbedtls-2.16.2/library\aes.c ****             }
 617:D:/fchai/work/i-cube/I-CUBE-HUAWEI/Middlewares/Third_Party/Huawei/iot_link/network/dtls/mbedtls/mbedtls-2.16.2/library\aes.c ****             break;
 618:D:/fchai/work/i-cube/I-CUBE-HUAWEI/Middlewares/Third_Party/Huawei/iot_link/network/dtls/mbedtls/mbedtls-2.16.2/library\aes.c **** 
 619:D:/fchai/work/i-cube/I-CUBE-HUAWEI/Middlewares/Third_Party/Huawei/iot_link/network/dtls/mbedtls/mbedtls-2.16.2/library\aes.c ****         case 12:
 620:D:/fchai/work/i-cube/I-CUBE-HUAWEI/Middlewares/Third_Party/Huawei/iot_link/network/dtls/mbedtls/mbedtls-2.16.2/library\aes.c **** 
 621:D:/fchai/work/i-cube/I-CUBE-HUAWEI/Middlewares/Third_Party/Huawei/iot_link/network/dtls/mbedtls/mbedtls-2.16.2/library\aes.c ****             for( i = 0; i < 8; i++, RK += 6 )
 622:D:/fchai/work/i-cube/I-CUBE-HUAWEI/Middlewares/Third_Party/Huawei/iot_link/network/dtls/mbedtls/mbedtls-2.16.2/library\aes.c ****             {
 623:D:/fchai/work/i-cube/I-CUBE-HUAWEI/Middlewares/Third_Party/Huawei/iot_link/network/dtls/mbedtls/mbedtls-2.16.2/library\aes.c ****                 RK[6]  = RK[0] ^ RCON[i] ^
 624:D:/fchai/work/i-cube/I-CUBE-HUAWEI/Middlewares/Third_Party/Huawei/iot_link/network/dtls/mbedtls/mbedtls-2.16.2/library\aes.c ****                 ( (uint32_t) FSb[ ( RK[5] >>  8 ) & 0xFF ]       ) ^
 625:D:/fchai/work/i-cube/I-CUBE-HUAWEI/Middlewares/Third_Party/Huawei/iot_link/network/dtls/mbedtls/mbedtls-2.16.2/library\aes.c ****                 ( (uint32_t) FSb[ ( RK[5] >> 16 ) & 0xFF ] <<  8 ) ^
 626:D:/fchai/work/i-cube/I-CUBE-HUAWEI/Middlewares/Third_Party/Huawei/iot_link/network/dtls/mbedtls/mbedtls-2.16.2/library\aes.c ****                 ( (uint32_t) FSb[ ( RK[5] >> 24 ) & 0xFF ] << 16 ) ^
 627:D:/fchai/work/i-cube/I-CUBE-HUAWEI/Middlewares/Third_Party/Huawei/iot_link/network/dtls/mbedtls/mbedtls-2.16.2/library\aes.c ****                 ( (uint32_t) FSb[ ( RK[5]       ) & 0xFF ] << 24 );
 628:D:/fchai/work/i-cube/I-CUBE-HUAWEI/Middlewares/Third_Party/Huawei/iot_link/network/dtls/mbedtls/mbedtls-2.16.2/library\aes.c **** 
 629:D:/fchai/work/i-cube/I-CUBE-HUAWEI/Middlewares/Third_Party/Huawei/iot_link/network/dtls/mbedtls/mbedtls-2.16.2/library\aes.c ****                 RK[7]  = RK[1] ^ RK[6];
 630:D:/fchai/work/i-cube/I-CUBE-HUAWEI/Middlewares/Third_Party/Huawei/iot_link/network/dtls/mbedtls/mbedtls-2.16.2/library\aes.c ****                 RK[8]  = RK[2] ^ RK[7];
 631:D:/fchai/work/i-cube/I-CUBE-HUAWEI/Middlewares/Third_Party/Huawei/iot_link/network/dtls/mbedtls/mbedtls-2.16.2/library\aes.c ****                 RK[9]  = RK[3] ^ RK[8];
 632:D:/fchai/work/i-cube/I-CUBE-HUAWEI/Middlewares/Third_Party/Huawei/iot_link/network/dtls/mbedtls/mbedtls-2.16.2/library\aes.c ****                 RK[10] = RK[4] ^ RK[9];
 633:D:/fchai/work/i-cube/I-CUBE-HUAWEI/Middlewares/Third_Party/Huawei/iot_link/network/dtls/mbedtls/mbedtls-2.16.2/library\aes.c ****                 RK[11] = RK[5] ^ RK[10];
 634:D:/fchai/work/i-cube/I-CUBE-HUAWEI/Middlewares/Third_Party/Huawei/iot_link/network/dtls/mbedtls/mbedtls-2.16.2/library\aes.c ****             }
 635:D:/fchai/work/i-cube/I-CUBE-HUAWEI/Middlewares/Third_Party/Huawei/iot_link/network/dtls/mbedtls/mbedtls-2.16.2/library\aes.c ****             break;
 636:D:/fchai/work/i-cube/I-CUBE-HUAWEI/Middlewares/Third_Party/Huawei/iot_link/network/dtls/mbedtls/mbedtls-2.16.2/library\aes.c **** 
ARM GAS  T:\msys\tmp\ccwessdu.s 			page 14


 637:D:/fchai/work/i-cube/I-CUBE-HUAWEI/Middlewares/Third_Party/Huawei/iot_link/network/dtls/mbedtls/mbedtls-2.16.2/library\aes.c ****         case 14:
 638:D:/fchai/work/i-cube/I-CUBE-HUAWEI/Middlewares/Third_Party/Huawei/iot_link/network/dtls/mbedtls/mbedtls-2.16.2/library\aes.c **** 
 639:D:/fchai/work/i-cube/I-CUBE-HUAWEI/Middlewares/Third_Party/Huawei/iot_link/network/dtls/mbedtls/mbedtls-2.16.2/library\aes.c ****             for( i = 0; i < 7; i++, RK += 8 )
 640:D:/fchai/work/i-cube/I-CUBE-HUAWEI/Middlewares/Third_Party/Huawei/iot_link/network/dtls/mbedtls/mbedtls-2.16.2/library\aes.c ****             {
 641:D:/fchai/work/i-cube/I-CUBE-HUAWEI/Middlewares/Third_Party/Huawei/iot_link/network/dtls/mbedtls/mbedtls-2.16.2/library\aes.c ****                 RK[8]  = RK[0] ^ RCON[i] ^
 642:D:/fchai/work/i-cube/I-CUBE-HUAWEI/Middlewares/Third_Party/Huawei/iot_link/network/dtls/mbedtls/mbedtls-2.16.2/library\aes.c ****                 ( (uint32_t) FSb[ ( RK[7] >>  8 ) & 0xFF ]       ) ^
 643:D:/fchai/work/i-cube/I-CUBE-HUAWEI/Middlewares/Third_Party/Huawei/iot_link/network/dtls/mbedtls/mbedtls-2.16.2/library\aes.c ****                 ( (uint32_t) FSb[ ( RK[7] >> 16 ) & 0xFF ] <<  8 ) ^
 644:D:/fchai/work/i-cube/I-CUBE-HUAWEI/Middlewares/Third_Party/Huawei/iot_link/network/dtls/mbedtls/mbedtls-2.16.2/library\aes.c ****                 ( (uint32_t) FSb[ ( RK[7] >> 24 ) & 0xFF ] << 16 ) ^
 645:D:/fchai/work/i-cube/I-CUBE-HUAWEI/Middlewares/Third_Party/Huawei/iot_link/network/dtls/mbedtls/mbedtls-2.16.2/library\aes.c ****                 ( (uint32_t) FSb[ ( RK[7]       ) & 0xFF ] << 24 );
 646:D:/fchai/work/i-cube/I-CUBE-HUAWEI/Middlewares/Third_Party/Huawei/iot_link/network/dtls/mbedtls/mbedtls-2.16.2/library\aes.c **** 
 647:D:/fchai/work/i-cube/I-CUBE-HUAWEI/Middlewares/Third_Party/Huawei/iot_link/network/dtls/mbedtls/mbedtls-2.16.2/library\aes.c ****                 RK[9]  = RK[1] ^ RK[8];
 648:D:/fchai/work/i-cube/I-CUBE-HUAWEI/Middlewares/Third_Party/Huawei/iot_link/network/dtls/mbedtls/mbedtls-2.16.2/library\aes.c ****                 RK[10] = RK[2] ^ RK[9];
 649:D:/fchai/work/i-cube/I-CUBE-HUAWEI/Middlewares/Third_Party/Huawei/iot_link/network/dtls/mbedtls/mbedtls-2.16.2/library\aes.c ****                 RK[11] = RK[3] ^ RK[10];
 650:D:/fchai/work/i-cube/I-CUBE-HUAWEI/Middlewares/Third_Party/Huawei/iot_link/network/dtls/mbedtls/mbedtls-2.16.2/library\aes.c **** 
 651:D:/fchai/work/i-cube/I-CUBE-HUAWEI/Middlewares/Third_Party/Huawei/iot_link/network/dtls/mbedtls/mbedtls-2.16.2/library\aes.c ****                 RK[12] = RK[4] ^
 652:D:/fchai/work/i-cube/I-CUBE-HUAWEI/Middlewares/Third_Party/Huawei/iot_link/network/dtls/mbedtls/mbedtls-2.16.2/library\aes.c ****                 ( (uint32_t) FSb[ ( RK[11]       ) & 0xFF ]       ) ^
 653:D:/fchai/work/i-cube/I-CUBE-HUAWEI/Middlewares/Third_Party/Huawei/iot_link/network/dtls/mbedtls/mbedtls-2.16.2/library\aes.c ****                 ( (uint32_t) FSb[ ( RK[11] >>  8 ) & 0xFF ] <<  8 ) ^
 654:D:/fchai/work/i-cube/I-CUBE-HUAWEI/Middlewares/Third_Party/Huawei/iot_link/network/dtls/mbedtls/mbedtls-2.16.2/library\aes.c ****                 ( (uint32_t) FSb[ ( RK[11] >> 16 ) & 0xFF ] << 16 ) ^
 655:D:/fchai/work/i-cube/I-CUBE-HUAWEI/Middlewares/Third_Party/Huawei/iot_link/network/dtls/mbedtls/mbedtls-2.16.2/library\aes.c ****                 ( (uint32_t) FSb[ ( RK[11] >> 24 ) & 0xFF ] << 24 );
 656:D:/fchai/work/i-cube/I-CUBE-HUAWEI/Middlewares/Third_Party/Huawei/iot_link/network/dtls/mbedtls/mbedtls-2.16.2/library\aes.c **** 
 657:D:/fchai/work/i-cube/I-CUBE-HUAWEI/Middlewares/Third_Party/Huawei/iot_link/network/dtls/mbedtls/mbedtls-2.16.2/library\aes.c ****                 RK[13] = RK[5] ^ RK[12];
 658:D:/fchai/work/i-cube/I-CUBE-HUAWEI/Middlewares/Third_Party/Huawei/iot_link/network/dtls/mbedtls/mbedtls-2.16.2/library\aes.c ****                 RK[14] = RK[6] ^ RK[13];
 659:D:/fchai/work/i-cube/I-CUBE-HUAWEI/Middlewares/Third_Party/Huawei/iot_link/network/dtls/mbedtls/mbedtls-2.16.2/library\aes.c ****                 RK[15] = RK[7] ^ RK[14];
 660:D:/fchai/work/i-cube/I-CUBE-HUAWEI/Middlewares/Third_Party/Huawei/iot_link/network/dtls/mbedtls/mbedtls-2.16.2/library\aes.c ****             }
 661:D:/fchai/work/i-cube/I-CUBE-HUAWEI/Middlewares/Third_Party/Huawei/iot_link/network/dtls/mbedtls/mbedtls-2.16.2/library\aes.c ****             break;
 662:D:/fchai/work/i-cube/I-CUBE-HUAWEI/Middlewares/Third_Party/Huawei/iot_link/network/dtls/mbedtls/mbedtls-2.16.2/library\aes.c ****     }
 663:D:/fchai/work/i-cube/I-CUBE-HUAWEI/Middlewares/Third_Party/Huawei/iot_link/network/dtls/mbedtls/mbedtls-2.16.2/library\aes.c **** 
 664:D:/fchai/work/i-cube/I-CUBE-HUAWEI/Middlewares/Third_Party/Huawei/iot_link/network/dtls/mbedtls/mbedtls-2.16.2/library\aes.c ****     return( 0 );
 665:D:/fchai/work/i-cube/I-CUBE-HUAWEI/Middlewares/Third_Party/Huawei/iot_link/network/dtls/mbedtls/mbedtls-2.16.2/library\aes.c **** }
 111              		.loc 1 665 1 is_stmt 0 view .LVU21
 112 0012 7047     		bx	lr
 113              	.LVL6:
 114              	.L6:
 568:D:/fchai/work/i-cube/I-CUBE-HUAWEI/Middlewares/Third_Party/Huawei/iot_link/network/dtls/mbedtls/mbedtls-2.16.2/library\aes.c ****         case 256: ctx->nr = 14; break;
 115              		.loc 1 568 19 is_stmt 1 view .LVU22
 568:D:/fchai/work/i-cube/I-CUBE-HUAWEI/Middlewares/Third_Party/Huawei/iot_link/network/dtls/mbedtls/mbedtls-2.16.2/library\aes.c ****         case 256: ctx->nr = 14; break;
 116              		.loc 1 568 27 is_stmt 0 view .LVU23
 117 0014 0C23     		movs	r3, #12
 118 0016 0360     		str	r3, [r0]
 568:D:/fchai/work/i-cube/I-CUBE-HUAWEI/Middlewares/Third_Party/Huawei/iot_link/network/dtls/mbedtls/mbedtls-2.16.2/library\aes.c ****         case 256: ctx->nr = 14; break;
 119              		.loc 1 568 33 is_stmt 1 view .LVU24
 568:D:/fchai/work/i-cube/I-CUBE-HUAWEI/Middlewares/Third_Party/Huawei/iot_link/network/dtls/mbedtls/mbedtls-2.16.2/library\aes.c ****         case 256: ctx->nr = 14; break;
 120              		.loc 1 568 9 is_stmt 0 view .LVU25
 121 0018 9C46     		mov	ip, r3
 122              	.L9:
 589:D:/fchai/work/i-cube/I-CUBE-HUAWEI/Middlewares/Third_Party/Huawei/iot_link/network/dtls/mbedtls/mbedtls-2.16.2/library\aes.c **** 
 123              		.loc 1 589 5 is_stmt 1 view .LVU26
 124              	.LVL7:
 558:D:/fchai/work/i-cube/I-CUBE-HUAWEI/Middlewares/Third_Party/Huawei/iot_link/network/dtls/mbedtls/mbedtls-2.16.2/library\aes.c ****     unsigned int i;
 125              		.loc 1 558 1 is_stmt 0 view .LVU27
 126 001a 2DE9F041 		push	{r4, r5, r6, r7, r8, lr}
 127              	.LCFI0:
 128              		.cfi_def_cfa_offset 24
 129              		.cfi_offset 4, -24
 130              		.cfi_offset 5, -20
 131              		.cfi_offset 6, -16
 132              		.cfi_offset 7, -12
ARM GAS  T:\msys\tmp\ccwessdu.s 			page 15


 133              		.cfi_offset 8, -8
 134              		.cfi_offset 14, -4
 589:D:/fchai/work/i-cube/I-CUBE-HUAWEI/Middlewares/Third_Party/Huawei/iot_link/network/dtls/mbedtls/mbedtls-2.16.2/library\aes.c **** 
 135              		.loc 1 589 13 view .LVU28
 136 001e 0746     		mov	r7, r0
 589:D:/fchai/work/i-cube/I-CUBE-HUAWEI/Middlewares/Third_Party/Huawei/iot_link/network/dtls/mbedtls/mbedtls-2.16.2/library\aes.c **** 
 137              		.loc 1 589 18 view .LVU29
 138 0020 00F10803 		add	r3, r0, #8
 139              	.LVL8:
 589:D:/fchai/work/i-cube/I-CUBE-HUAWEI/Middlewares/Third_Party/Huawei/iot_link/network/dtls/mbedtls/mbedtls-2.16.2/library\aes.c **** 
 140              		.loc 1 589 13 view .LVU30
 141 0024 47F8043F 		str	r3, [r7, #4]!
 596:D:/fchai/work/i-cube/I-CUBE-HUAWEI/Middlewares/Third_Party/Huawei/iot_link/network/dtls/mbedtls/mbedtls-2.16.2/library\aes.c ****     {
 142              		.loc 1 596 5 is_stmt 1 view .LVU31
 143              	.LVL9:
 596:D:/fchai/work/i-cube/I-CUBE-HUAWEI/Middlewares/Third_Party/Huawei/iot_link/network/dtls/mbedtls/mbedtls-2.16.2/library\aes.c ****     {
 144              		.loc 1 596 17 view .LVU32
 596:D:/fchai/work/i-cube/I-CUBE-HUAWEI/Middlewares/Third_Party/Huawei/iot_link/network/dtls/mbedtls/mbedtls-2.16.2/library\aes.c ****     {
 145              		.loc 1 596 31 is_stmt 0 view .LVU33
 146 0028 4FEA521E 		lsr	lr, r2, #5
 147 002c 0022     		movs	r2, #0
 148              	.LVL10:
 149              	.L10:
 598:D:/fchai/work/i-cube/I-CUBE-HUAWEI/Middlewares/Third_Party/Huawei/iot_link/network/dtls/mbedtls/mbedtls-2.16.2/library\aes.c ****     }
 150              		.loc 1 598 9 is_stmt 1 discriminator 3 view .LVU34
 151 002e 8B78     		ldrb	r3, [r1, #2]	@ zero_extendqisi2
 152 0030 4E78     		ldrb	r6, [r1, #1]	@ zero_extendqisi2
 153 0032 0D78     		ldrb	r5, [r1]	@ zero_extendqisi2
 154 0034 CC78     		ldrb	r4, [r1, #3]	@ zero_extendqisi2
 155 0036 1B04     		lsls	r3, r3, #16
 156 0038 43EA0623 		orr	r3, r3, r6, lsl #8
 157 003c 2B43     		orrs	r3, r3, r5
 596:D:/fchai/work/i-cube/I-CUBE-HUAWEI/Middlewares/Third_Party/Huawei/iot_link/network/dtls/mbedtls/mbedtls-2.16.2/library\aes.c ****     {
 158              		.loc 1 596 40 is_stmt 0 discriminator 3 view .LVU35
 159 003e 0132     		adds	r2, r2, #1
 160              	.LVL11:
 598:D:/fchai/work/i-cube/I-CUBE-HUAWEI/Middlewares/Third_Party/Huawei/iot_link/network/dtls/mbedtls/mbedtls-2.16.2/library\aes.c ****     }
 161              		.loc 1 598 9 discriminator 3 view .LVU36
 162 0040 43EA0463 		orr	r3, r3, r4, lsl #24
 596:D:/fchai/work/i-cube/I-CUBE-HUAWEI/Middlewares/Third_Party/Huawei/iot_link/network/dtls/mbedtls/mbedtls-2.16.2/library\aes.c ****     {
 163              		.loc 1 596 5 discriminator 3 view .LVU37
 164 0044 7245     		cmp	r2, lr
 598:D:/fchai/work/i-cube/I-CUBE-HUAWEI/Middlewares/Third_Party/Huawei/iot_link/network/dtls/mbedtls/mbedtls-2.16.2/library\aes.c ****     }
 165              		.loc 1 598 9 discriminator 3 view .LVU38
 166 0046 47F8043F 		str	r3, [r7, #4]!
 598:D:/fchai/work/i-cube/I-CUBE-HUAWEI/Middlewares/Third_Party/Huawei/iot_link/network/dtls/mbedtls/mbedtls-2.16.2/library\aes.c ****     }
 167              		.loc 1 598 44 is_stmt 1 discriminator 3 view .LVU39
 596:D:/fchai/work/i-cube/I-CUBE-HUAWEI/Middlewares/Third_Party/Huawei/iot_link/network/dtls/mbedtls/mbedtls-2.16.2/library\aes.c ****     {
 168              		.loc 1 596 39 discriminator 3 view .LVU40
 169              	.LVL12:
 596:D:/fchai/work/i-cube/I-CUBE-HUAWEI/Middlewares/Third_Party/Huawei/iot_link/network/dtls/mbedtls/mbedtls-2.16.2/library\aes.c ****     {
 170              		.loc 1 596 17 discriminator 3 view .LVU41
 171 004a 01F10401 		add	r1, r1, #4
 596:D:/fchai/work/i-cube/I-CUBE-HUAWEI/Middlewares/Third_Party/Huawei/iot_link/network/dtls/mbedtls/mbedtls-2.16.2/library\aes.c ****     {
 172              		.loc 1 596 5 is_stmt 0 discriminator 3 view .LVU42
 173 004e EED3     		bcc	.L10
 601:D:/fchai/work/i-cube/I-CUBE-HUAWEI/Middlewares/Third_Party/Huawei/iot_link/network/dtls/mbedtls/mbedtls-2.16.2/library\aes.c ****     {
ARM GAS  T:\msys\tmp\ccwessdu.s 			page 16


 174              		.loc 1 601 5 is_stmt 1 view .LVU43
 175 0050 BCF10C0F 		cmp	ip, #12
 176 0054 11D0     		beq	.L11
 177 0056 BCF10E0F 		cmp	ip, #14
 178 005a 42D0     		beq	.L12
 179 005c BCF10A0F 		cmp	ip, #10
 180 0060 00F09080 		beq	.L13
 664:D:/fchai/work/i-cube/I-CUBE-HUAWEI/Middlewares/Third_Party/Huawei/iot_link/network/dtls/mbedtls/mbedtls-2.16.2/library\aes.c **** }
 181              		.loc 1 664 11 is_stmt 0 view .LVU44
 182 0064 0020     		movs	r0, #0
 183              	.LVL13:
 184              		.loc 1 665 1 view .LVU45
 185 0066 BDE8F081 		pop	{r4, r5, r6, r7, r8, pc}
 186              	.LVL14:
 187              	.L28:
 188              	.LCFI1:
 189              		.cfi_def_cfa_offset 0
 190              		.cfi_restore 4
 191              		.cfi_restore 5
 192              		.cfi_restore 6
 193              		.cfi_restore 7
 194              		.cfi_restore 8
 195              		.cfi_restore 14
 567:D:/fchai/work/i-cube/I-CUBE-HUAWEI/Middlewares/Third_Party/Huawei/iot_link/network/dtls/mbedtls/mbedtls-2.16.2/library\aes.c ****         case 192: ctx->nr = 12; break;
 196              		.loc 1 567 19 is_stmt 1 view .LVU46
 567:D:/fchai/work/i-cube/I-CUBE-HUAWEI/Middlewares/Third_Party/Huawei/iot_link/network/dtls/mbedtls/mbedtls-2.16.2/library\aes.c ****         case 192: ctx->nr = 12; break;
 197              		.loc 1 567 27 is_stmt 0 view .LVU47
 198 006a 0A23     		movs	r3, #10
 199 006c 0360     		str	r3, [r0]
 567:D:/fchai/work/i-cube/I-CUBE-HUAWEI/Middlewares/Third_Party/Huawei/iot_link/network/dtls/mbedtls/mbedtls-2.16.2/library\aes.c ****         case 192: ctx->nr = 12; break;
 200              		.loc 1 567 33 is_stmt 1 view .LVU48
 567:D:/fchai/work/i-cube/I-CUBE-HUAWEI/Middlewares/Third_Party/Huawei/iot_link/network/dtls/mbedtls/mbedtls-2.16.2/library\aes.c ****         case 192: ctx->nr = 12; break;
 201              		.loc 1 567 9 is_stmt 0 view .LVU49
 202 006e 9C46     		mov	ip, r3
 203 0070 D3E7     		b	.L9
 204              	.L7:
 569:D:/fchai/work/i-cube/I-CUBE-HUAWEI/Middlewares/Third_Party/Huawei/iot_link/network/dtls/mbedtls/mbedtls-2.16.2/library\aes.c ****         default : return( MBEDTLS_ERR_AES_INVALID_KEY_LENGTH );
 205              		.loc 1 569 19 is_stmt 1 view .LVU50
 569:D:/fchai/work/i-cube/I-CUBE-HUAWEI/Middlewares/Third_Party/Huawei/iot_link/network/dtls/mbedtls/mbedtls-2.16.2/library\aes.c ****         default : return( MBEDTLS_ERR_AES_INVALID_KEY_LENGTH );
 206              		.loc 1 569 27 is_stmt 0 view .LVU51
 207 0072 0E23     		movs	r3, #14
 208 0074 0360     		str	r3, [r0]
 569:D:/fchai/work/i-cube/I-CUBE-HUAWEI/Middlewares/Third_Party/Huawei/iot_link/network/dtls/mbedtls/mbedtls-2.16.2/library\aes.c ****         default : return( MBEDTLS_ERR_AES_INVALID_KEY_LENGTH );
 209              		.loc 1 569 33 is_stmt 1 view .LVU52
 569:D:/fchai/work/i-cube/I-CUBE-HUAWEI/Middlewares/Third_Party/Huawei/iot_link/network/dtls/mbedtls/mbedtls-2.16.2/library\aes.c ****         default : return( MBEDTLS_ERR_AES_INVALID_KEY_LENGTH );
 210              		.loc 1 569 9 is_stmt 0 view .LVU53
 211 0076 9C46     		mov	ip, r3
 212 0078 CFE7     		b	.L9
 213              	.LVL15:
 214              	.L11:
 215              	.LCFI2:
 216              		.cfi_def_cfa_offset 24
 217              		.cfi_offset 4, -24
 218              		.cfi_offset 5, -20
 219              		.cfi_offset 6, -16
 220              		.cfi_offset 7, -12
 221              		.cfi_offset 8, -8
ARM GAS  T:\msys\tmp\ccwessdu.s 			page 17


 222              		.cfi_offset 14, -4
 569:D:/fchai/work/i-cube/I-CUBE-HUAWEI/Middlewares/Third_Party/Huawei/iot_link/network/dtls/mbedtls/mbedtls-2.16.2/library\aes.c ****         default : return( MBEDTLS_ERR_AES_INVALID_KEY_LENGTH );
 223              		.loc 1 569 9 view .LVU54
 224 007a 5A4E     		ldr	r6, .L31
 225 007c 5A4A     		ldr	r2, .L31+4
 226              	.LVL16:
 569:D:/fchai/work/i-cube/I-CUBE-HUAWEI/Middlewares/Third_Party/Huawei/iot_link/network/dtls/mbedtls/mbedtls-2.16.2/library\aes.c ****         default : return( MBEDTLS_ERR_AES_INVALID_KEY_LENGTH );
 227              		.loc 1 569 9 view .LVU55
 228 007e 06F11C07 		add	r7, r6, #28
 601:D:/fchai/work/i-cube/I-CUBE-HUAWEI/Middlewares/Third_Party/Huawei/iot_link/network/dtls/mbedtls/mbedtls-2.16.2/library\aes.c ****     {
 229              		.loc 1 601 5 view .LVU56
 230 0082 4FF0010C 		mov	ip, #1
 231 0086 01E0     		b	.L15
 232              	.LVL17:
 233              	.L29:
 601:D:/fchai/work/i-cube/I-CUBE-HUAWEI/Middlewares/Third_Party/Huawei/iot_link/network/dtls/mbedtls/mbedtls-2.16.2/library\aes.c ****     {
 234              		.loc 1 601 5 view .LVU57
 235 0088 56F804CB 		ldr	ip, [r6], #4
 236              	.LVL18:
 237              	.L15:
 623:D:/fchai/work/i-cube/I-CUBE-HUAWEI/Middlewares/Third_Party/Huawei/iot_link/network/dtls/mbedtls/mbedtls-2.16.2/library\aes.c ****                 ( (uint32_t) FSb[ ( RK[5] >>  8 ) & 0xFF ]       ) ^
 238              		.loc 1 623 17 is_stmt 1 discriminator 3 view .LVU58
 624:D:/fchai/work/i-cube/I-CUBE-HUAWEI/Middlewares/Third_Party/Huawei/iot_link/network/dtls/mbedtls/mbedtls-2.16.2/library\aes.c ****                 ( (uint32_t) FSb[ ( RK[5] >> 16 ) & 0xFF ] <<  8 ) ^
 239              		.loc 1 624 39 is_stmt 0 discriminator 3 view .LVU59
 240 008c C169     		ldr	r1, [r0, #28]
 626:D:/fchai/work/i-cube/I-CUBE-HUAWEI/Middlewares/Third_Party/Huawei/iot_link/network/dtls/mbedtls/mbedtls-2.16.2/library\aes.c ****                 ( (uint32_t) FSb[ ( RK[5]       ) & 0xFF ] << 24 );
 241              		.loc 1 626 68 discriminator 3 view .LVU60
 242 008e 8468     		ldr	r4, [r0, #8]
 624:D:/fchai/work/i-cube/I-CUBE-HUAWEI/Middlewares/Third_Party/Huawei/iot_link/network/dtls/mbedtls/mbedtls-2.16.2/library\aes.c ****                 ( (uint32_t) FSb[ ( RK[5] >> 16 ) & 0xFF ] <<  8 ) ^
 243              		.loc 1 624 51 discriminator 3 view .LVU61
 244 0090 C1F30723 		ubfx	r3, r1, #8, #8
 626:D:/fchai/work/i-cube/I-CUBE-HUAWEI/Middlewares/Third_Party/Huawei/iot_link/network/dtls/mbedtls/mbedtls-2.16.2/library\aes.c ****                 ( (uint32_t) FSb[ ( RK[5]       ) & 0xFF ] << 24 );
 245              		.loc 1 626 43 discriminator 3 view .LVU62
 246 0094 0D0E     		lsrs	r5, r1, #24
 624:D:/fchai/work/i-cube/I-CUBE-HUAWEI/Middlewares/Third_Party/Huawei/iot_link/network/dtls/mbedtls/mbedtls-2.16.2/library\aes.c ****                 ( (uint32_t) FSb[ ( RK[5] >> 16 ) & 0xFF ] <<  8 ) ^
 247              		.loc 1 624 19 discriminator 3 view .LVU63
 248 0096 D35C     		ldrb	r3, [r2, r3]	@ zero_extendqisi2
 626:D:/fchai/work/i-cube/I-CUBE-HUAWEI/Middlewares/Third_Party/Huawei/iot_link/network/dtls/mbedtls/mbedtls-2.16.2/library\aes.c ****                 ( (uint32_t) FSb[ ( RK[5]       ) & 0xFF ] << 24 );
 249              		.loc 1 626 19 discriminator 3 view .LVU64
 250 0098 555D     		ldrb	r5, [r2, r5]	@ zero_extendqisi2
 626:D:/fchai/work/i-cube/I-CUBE-HUAWEI/Middlewares/Third_Party/Huawei/iot_link/network/dtls/mbedtls/mbedtls-2.16.2/library\aes.c ****                 ( (uint32_t) FSb[ ( RK[5]       ) & 0xFF ] << 24 );
 251              		.loc 1 626 68 discriminator 3 view .LVU65
 252 009a 43EA0543 		orr	r3, r3, r5, lsl #16
 627:D:/fchai/work/i-cube/I-CUBE-HUAWEI/Middlewares/Third_Party/Huawei/iot_link/network/dtls/mbedtls/mbedtls-2.16.2/library\aes.c **** 
 253              		.loc 1 627 51 discriminator 3 view .LVU66
 254 009e CDB2     		uxtb	r5, r1
 626:D:/fchai/work/i-cube/I-CUBE-HUAWEI/Middlewares/Third_Party/Huawei/iot_link/network/dtls/mbedtls/mbedtls-2.16.2/library\aes.c ****                 ( (uint32_t) FSb[ ( RK[5]       ) & 0xFF ] << 24 );
 255              		.loc 1 626 68 discriminator 3 view .LVU67
 256 00a0 6340     		eors	r3, r3, r4
 625:D:/fchai/work/i-cube/I-CUBE-HUAWEI/Middlewares/Third_Party/Huawei/iot_link/network/dtls/mbedtls/mbedtls-2.16.2/library\aes.c ****                 ( (uint32_t) FSb[ ( RK[5] >> 24 ) & 0xFF ] << 16 ) ^
 257              		.loc 1 625 51 discriminator 3 view .LVU68
 258 00a2 C1F30744 		ubfx	r4, r1, #16, #8
 627:D:/fchai/work/i-cube/I-CUBE-HUAWEI/Middlewares/Third_Party/Huawei/iot_link/network/dtls/mbedtls/mbedtls-2.16.2/library\aes.c **** 
 259              		.loc 1 627 19 discriminator 3 view .LVU69
 260 00a6 555D     		ldrb	r5, [r2, r5]	@ zero_extendqisi2
 625:D:/fchai/work/i-cube/I-CUBE-HUAWEI/Middlewares/Third_Party/Huawei/iot_link/network/dtls/mbedtls/mbedtls-2.16.2/library\aes.c ****                 ( (uint32_t) FSb[ ( RK[5] >> 24 ) & 0xFF ] << 16 ) ^
 261              		.loc 1 625 19 discriminator 3 view .LVU70
ARM GAS  T:\msys\tmp\ccwessdu.s 			page 18


 262 00a8 145D     		ldrb	r4, [r2, r4]	@ zero_extendqisi2
 626:D:/fchai/work/i-cube/I-CUBE-HUAWEI/Middlewares/Third_Party/Huawei/iot_link/network/dtls/mbedtls/mbedtls-2.16.2/library\aes.c ****                 ( (uint32_t) FSb[ ( RK[5]       ) & 0xFF ] << 24 );
 263              		.loc 1 626 68 discriminator 3 view .LVU71
 264 00aa 83EA0563 		eor	r3, r3, r5, lsl #24
 265 00ae 83EA0423 		eor	r3, r3, r4, lsl #8
 630:D:/fchai/work/i-cube/I-CUBE-HUAWEI/Middlewares/Third_Party/Huawei/iot_link/network/dtls/mbedtls/mbedtls-2.16.2/library\aes.c ****                 RK[9]  = RK[3] ^ RK[8];
 266              		.loc 1 630 32 discriminator 3 view .LVU72
 267 00b2 D0E90354 		ldrd	r5, r4, [r0, #12]
 626:D:/fchai/work/i-cube/I-CUBE-HUAWEI/Middlewares/Third_Party/Huawei/iot_link/network/dtls/mbedtls/mbedtls-2.16.2/library\aes.c ****                 ( (uint32_t) FSb[ ( RK[5]       ) & 0xFF ] << 24 );
 268              		.loc 1 626 68 discriminator 3 view .LVU73
 269 00b6 83EA0C03 		eor	r3, r3, ip
 629:D:/fchai/work/i-cube/I-CUBE-HUAWEI/Middlewares/Third_Party/Huawei/iot_link/network/dtls/mbedtls/mbedtls-2.16.2/library\aes.c ****                 RK[8]  = RK[2] ^ RK[7];
 270              		.loc 1 629 32 discriminator 3 view .LVU74
 271 00ba 5D40     		eors	r5, r5, r3
 630:D:/fchai/work/i-cube/I-CUBE-HUAWEI/Middlewares/Third_Party/Huawei/iot_link/network/dtls/mbedtls/mbedtls-2.16.2/library\aes.c ****                 RK[9]  = RK[3] ^ RK[8];
 272              		.loc 1 630 32 discriminator 3 view .LVU75
 273 00bc 6C40     		eors	r4, r4, r5
 629:D:/fchai/work/i-cube/I-CUBE-HUAWEI/Middlewares/Third_Party/Huawei/iot_link/network/dtls/mbedtls/mbedtls-2.16.2/library\aes.c ****                 RK[8]  = RK[2] ^ RK[7];
 274              		.loc 1 629 24 discriminator 3 view .LVU76
 275 00be 4562     		str	r5, [r0, #36]
 631:D:/fchai/work/i-cube/I-CUBE-HUAWEI/Middlewares/Third_Party/Huawei/iot_link/network/dtls/mbedtls/mbedtls-2.16.2/library\aes.c ****                 RK[10] = RK[4] ^ RK[9];
 276              		.loc 1 631 32 discriminator 3 view .LVU77
 277 00c0 4569     		ldr	r5, [r0, #20]
 623:D:/fchai/work/i-cube/I-CUBE-HUAWEI/Middlewares/Third_Party/Huawei/iot_link/network/dtls/mbedtls/mbedtls-2.16.2/library\aes.c ****                 ( (uint32_t) FSb[ ( RK[5] >>  8 ) & 0xFF ]       ) ^
 278              		.loc 1 623 24 discriminator 3 view .LVU78
 279 00c2 0362     		str	r3, [r0, #32]
 629:D:/fchai/work/i-cube/I-CUBE-HUAWEI/Middlewares/Third_Party/Huawei/iot_link/network/dtls/mbedtls/mbedtls-2.16.2/library\aes.c ****                 RK[8]  = RK[2] ^ RK[7];
 280              		.loc 1 629 17 is_stmt 1 discriminator 3 view .LVU79
 630:D:/fchai/work/i-cube/I-CUBE-HUAWEI/Middlewares/Third_Party/Huawei/iot_link/network/dtls/mbedtls/mbedtls-2.16.2/library\aes.c ****                 RK[9]  = RK[3] ^ RK[8];
 281              		.loc 1 630 17 discriminator 3 view .LVU80
 632:D:/fchai/work/i-cube/I-CUBE-HUAWEI/Middlewares/Third_Party/Huawei/iot_link/network/dtls/mbedtls/mbedtls-2.16.2/library\aes.c ****                 RK[11] = RK[5] ^ RK[10];
 282              		.loc 1 632 32 is_stmt 0 discriminator 3 view .LVU81
 283 00c4 8369     		ldr	r3, [r0, #24]
 631:D:/fchai/work/i-cube/I-CUBE-HUAWEI/Middlewares/Third_Party/Huawei/iot_link/network/dtls/mbedtls/mbedtls-2.16.2/library\aes.c ****                 RK[10] = RK[4] ^ RK[9];
 284              		.loc 1 631 32 discriminator 3 view .LVU82
 285 00c6 6540     		eors	r5, r5, r4
 632:D:/fchai/work/i-cube/I-CUBE-HUAWEI/Middlewares/Third_Party/Huawei/iot_link/network/dtls/mbedtls/mbedtls-2.16.2/library\aes.c ****                 RK[11] = RK[5] ^ RK[10];
 286              		.loc 1 632 32 discriminator 3 view .LVU83
 287 00c8 6B40     		eors	r3, r3, r5
 633:D:/fchai/work/i-cube/I-CUBE-HUAWEI/Middlewares/Third_Party/Huawei/iot_link/network/dtls/mbedtls/mbedtls-2.16.2/library\aes.c ****             }
 288              		.loc 1 633 32 discriminator 3 view .LVU84
 289 00ca 5940     		eors	r1, r1, r3
 621:D:/fchai/work/i-cube/I-CUBE-HUAWEI/Middlewares/Third_Party/Huawei/iot_link/network/dtls/mbedtls/mbedtls-2.16.2/library\aes.c ****             {
 290              		.loc 1 621 13 discriminator 3 view .LVU85
 291 00cc B742     		cmp	r7, r6
 631:D:/fchai/work/i-cube/I-CUBE-HUAWEI/Middlewares/Third_Party/Huawei/iot_link/network/dtls/mbedtls/mbedtls-2.16.2/library\aes.c ****                 RK[10] = RK[4] ^ RK[9];
 292              		.loc 1 631 24 discriminator 3 view .LVU86
 293 00ce C0E90A45 		strd	r4, r5, [r0, #40]
 632:D:/fchai/work/i-cube/I-CUBE-HUAWEI/Middlewares/Third_Party/Huawei/iot_link/network/dtls/mbedtls/mbedtls-2.16.2/library\aes.c ****                 RK[11] = RK[5] ^ RK[10];
 294              		.loc 1 632 17 is_stmt 1 discriminator 3 view .LVU87
 632:D:/fchai/work/i-cube/I-CUBE-HUAWEI/Middlewares/Third_Party/Huawei/iot_link/network/dtls/mbedtls/mbedtls-2.16.2/library\aes.c ****                 RK[11] = RK[5] ^ RK[10];
 295              		.loc 1 632 24 is_stmt 0 discriminator 3 view .LVU88
 296 00d2 C0E90C31 		strd	r3, r1, [r0, #48]
 633:D:/fchai/work/i-cube/I-CUBE-HUAWEI/Middlewares/Third_Party/Huawei/iot_link/network/dtls/mbedtls/mbedtls-2.16.2/library\aes.c ****             }
 297              		.loc 1 633 17 is_stmt 1 discriminator 3 view .LVU89
 621:D:/fchai/work/i-cube/I-CUBE-HUAWEI/Middlewares/Third_Party/Huawei/iot_link/network/dtls/mbedtls/mbedtls-2.16.2/library\aes.c ****             {
 298              		.loc 1 621 32 discriminator 3 view .LVU90
ARM GAS  T:\msys\tmp\ccwessdu.s 			page 19


 299              	.LVL19:
 621:D:/fchai/work/i-cube/I-CUBE-HUAWEI/Middlewares/Third_Party/Huawei/iot_link/network/dtls/mbedtls/mbedtls-2.16.2/library\aes.c ****             {
 300              		.loc 1 621 25 discriminator 3 view .LVU91
 301 00d6 00F11800 		add	r0, r0, #24
 302              	.LVL20:
 621:D:/fchai/work/i-cube/I-CUBE-HUAWEI/Middlewares/Third_Party/Huawei/iot_link/network/dtls/mbedtls/mbedtls-2.16.2/library\aes.c ****             {
 303              		.loc 1 621 13 is_stmt 0 discriminator 3 view .LVU92
 304 00da D5D1     		bne	.L29
 664:D:/fchai/work/i-cube/I-CUBE-HUAWEI/Middlewares/Third_Party/Huawei/iot_link/network/dtls/mbedtls/mbedtls-2.16.2/library\aes.c **** }
 305              		.loc 1 664 11 view .LVU93
 306 00dc 0020     		movs	r0, #0
 307              	.LVL21:
 308              		.loc 1 665 1 view .LVU94
 309 00de BDE8F081 		pop	{r4, r5, r6, r7, r8, pc}
 310              	.LVL22:
 311              	.L12:
 312              		.loc 1 665 1 view .LVU95
 313 00e2 404D     		ldr	r5, .L31
 314 00e4 404A     		ldr	r2, .L31+4
 315              	.LVL23:
 316              		.loc 1 665 1 view .LVU96
 317 00e6 05F11808 		add	r8, r5, #24
 601:D:/fchai/work/i-cube/I-CUBE-HUAWEI/Middlewares/Third_Party/Huawei/iot_link/network/dtls/mbedtls/mbedtls-2.16.2/library\aes.c ****     {
 318              		.loc 1 601 5 view .LVU97
 319 00ea 4FF0010C 		mov	ip, #1
 320 00ee 01E0     		b	.L14
 321              	.LVL24:
 322              	.L30:
 601:D:/fchai/work/i-cube/I-CUBE-HUAWEI/Middlewares/Third_Party/Huawei/iot_link/network/dtls/mbedtls/mbedtls-2.16.2/library\aes.c ****     {
 323              		.loc 1 601 5 view .LVU98
 324 00f0 55F804CB 		ldr	ip, [r5], #4
 325              	.LVL25:
 326              	.L14:
 641:D:/fchai/work/i-cube/I-CUBE-HUAWEI/Middlewares/Third_Party/Huawei/iot_link/network/dtls/mbedtls/mbedtls-2.16.2/library\aes.c ****                 ( (uint32_t) FSb[ ( RK[7] >>  8 ) & 0xFF ]       ) ^
 327              		.loc 1 641 17 is_stmt 1 discriminator 3 view .LVU99
 642:D:/fchai/work/i-cube/I-CUBE-HUAWEI/Middlewares/Third_Party/Huawei/iot_link/network/dtls/mbedtls/mbedtls-2.16.2/library\aes.c ****                 ( (uint32_t) FSb[ ( RK[7] >> 16 ) & 0xFF ] <<  8 ) ^
 328              		.loc 1 642 39 is_stmt 0 discriminator 3 view .LVU100
 329 00f4 416A     		ldr	r1, [r0, #36]
 644:D:/fchai/work/i-cube/I-CUBE-HUAWEI/Middlewares/Third_Party/Huawei/iot_link/network/dtls/mbedtls/mbedtls-2.16.2/library\aes.c ****                 ( (uint32_t) FSb[ ( RK[7]       ) & 0xFF ] << 24 );
 330              		.loc 1 644 68 discriminator 3 view .LVU101
 331 00f6 8468     		ldr	r4, [r0, #8]
 654:D:/fchai/work/i-cube/I-CUBE-HUAWEI/Middlewares/Third_Party/Huawei/iot_link/network/dtls/mbedtls/mbedtls-2.16.2/library\aes.c ****                 ( (uint32_t) FSb[ ( RK[11] >> 24 ) & 0xFF ] << 24 );
 332              		.loc 1 654 69 discriminator 3 view .LVU102
 333 00f8 8769     		ldr	r7, [r0, #24]
 642:D:/fchai/work/i-cube/I-CUBE-HUAWEI/Middlewares/Third_Party/Huawei/iot_link/network/dtls/mbedtls/mbedtls-2.16.2/library\aes.c ****                 ( (uint32_t) FSb[ ( RK[7] >> 16 ) & 0xFF ] <<  8 ) ^
 334              		.loc 1 642 51 discriminator 3 view .LVU103
 335 00fa C1F30723 		ubfx	r3, r1, #8, #8
 644:D:/fchai/work/i-cube/I-CUBE-HUAWEI/Middlewares/Third_Party/Huawei/iot_link/network/dtls/mbedtls/mbedtls-2.16.2/library\aes.c ****                 ( (uint32_t) FSb[ ( RK[7]       ) & 0xFF ] << 24 );
 336              		.loc 1 644 43 discriminator 3 view .LVU104
 337 00fe 0E0E     		lsrs	r6, r1, #24
 642:D:/fchai/work/i-cube/I-CUBE-HUAWEI/Middlewares/Third_Party/Huawei/iot_link/network/dtls/mbedtls/mbedtls-2.16.2/library\aes.c ****                 ( (uint32_t) FSb[ ( RK[7] >> 16 ) & 0xFF ] <<  8 ) ^
 338              		.loc 1 642 19 discriminator 3 view .LVU105
 339 0100 D35C     		ldrb	r3, [r2, r3]	@ zero_extendqisi2
 644:D:/fchai/work/i-cube/I-CUBE-HUAWEI/Middlewares/Third_Party/Huawei/iot_link/network/dtls/mbedtls/mbedtls-2.16.2/library\aes.c ****                 ( (uint32_t) FSb[ ( RK[7]       ) & 0xFF ] << 24 );
 340              		.loc 1 644 19 discriminator 3 view .LVU106
 341 0102 965D     		ldrb	r6, [r2, r6]	@ zero_extendqisi2
 644:D:/fchai/work/i-cube/I-CUBE-HUAWEI/Middlewares/Third_Party/Huawei/iot_link/network/dtls/mbedtls/mbedtls-2.16.2/library\aes.c ****                 ( (uint32_t) FSb[ ( RK[7]       ) & 0xFF ] << 24 );
ARM GAS  T:\msys\tmp\ccwessdu.s 			page 20


 342              		.loc 1 644 68 discriminator 3 view .LVU107
 343 0104 43EA0643 		orr	r3, r3, r6, lsl #16
 645:D:/fchai/work/i-cube/I-CUBE-HUAWEI/Middlewares/Third_Party/Huawei/iot_link/network/dtls/mbedtls/mbedtls-2.16.2/library\aes.c **** 
 344              		.loc 1 645 51 discriminator 3 view .LVU108
 345 0108 CEB2     		uxtb	r6, r1
 644:D:/fchai/work/i-cube/I-CUBE-HUAWEI/Middlewares/Third_Party/Huawei/iot_link/network/dtls/mbedtls/mbedtls-2.16.2/library\aes.c ****                 ( (uint32_t) FSb[ ( RK[7]       ) & 0xFF ] << 24 );
 346              		.loc 1 644 68 discriminator 3 view .LVU109
 347 010a 6340     		eors	r3, r3, r4
 643:D:/fchai/work/i-cube/I-CUBE-HUAWEI/Middlewares/Third_Party/Huawei/iot_link/network/dtls/mbedtls/mbedtls-2.16.2/library\aes.c ****                 ( (uint32_t) FSb[ ( RK[7] >> 24 ) & 0xFF ] << 16 ) ^
 348              		.loc 1 643 51 discriminator 3 view .LVU110
 349 010c C1F30744 		ubfx	r4, r1, #16, #8
 645:D:/fchai/work/i-cube/I-CUBE-HUAWEI/Middlewares/Third_Party/Huawei/iot_link/network/dtls/mbedtls/mbedtls-2.16.2/library\aes.c **** 
 350              		.loc 1 645 19 discriminator 3 view .LVU111
 351 0110 965D     		ldrb	r6, [r2, r6]	@ zero_extendqisi2
 643:D:/fchai/work/i-cube/I-CUBE-HUAWEI/Middlewares/Third_Party/Huawei/iot_link/network/dtls/mbedtls/mbedtls-2.16.2/library\aes.c ****                 ( (uint32_t) FSb[ ( RK[7] >> 24 ) & 0xFF ] << 16 ) ^
 352              		.loc 1 643 19 discriminator 3 view .LVU112
 353 0112 145D     		ldrb	r4, [r2, r4]	@ zero_extendqisi2
 644:D:/fchai/work/i-cube/I-CUBE-HUAWEI/Middlewares/Third_Party/Huawei/iot_link/network/dtls/mbedtls/mbedtls-2.16.2/library\aes.c ****                 ( (uint32_t) FSb[ ( RK[7]       ) & 0xFF ] << 24 );
 354              		.loc 1 644 68 discriminator 3 view .LVU113
 355 0114 83EA0663 		eor	r3, r3, r6, lsl #24
 356 0118 83EA0423 		eor	r3, r3, r4, lsl #8
 648:D:/fchai/work/i-cube/I-CUBE-HUAWEI/Middlewares/Third_Party/Huawei/iot_link/network/dtls/mbedtls/mbedtls-2.16.2/library\aes.c ****                 RK[11] = RK[3] ^ RK[10];
 357              		.loc 1 648 32 discriminator 3 view .LVU114
 358 011c D0E90346 		ldrd	r4, r6, [r0, #12]
 644:D:/fchai/work/i-cube/I-CUBE-HUAWEI/Middlewares/Third_Party/Huawei/iot_link/network/dtls/mbedtls/mbedtls-2.16.2/library\aes.c ****                 ( (uint32_t) FSb[ ( RK[7]       ) & 0xFF ] << 24 );
 359              		.loc 1 644 68 discriminator 3 view .LVU115
 360 0120 83EA0C03 		eor	r3, r3, ip
 647:D:/fchai/work/i-cube/I-CUBE-HUAWEI/Middlewares/Third_Party/Huawei/iot_link/network/dtls/mbedtls/mbedtls-2.16.2/library\aes.c ****                 RK[10] = RK[2] ^ RK[9];
 361              		.loc 1 647 32 discriminator 3 view .LVU116
 362 0124 83EA040C 		eor	ip, r3, r4
 649:D:/fchai/work/i-cube/I-CUBE-HUAWEI/Middlewares/Third_Party/Huawei/iot_link/network/dtls/mbedtls/mbedtls-2.16.2/library\aes.c **** 
 363              		.loc 1 649 32 discriminator 3 view .LVU117
 364 0128 4469     		ldr	r4, [r0, #20]
 641:D:/fchai/work/i-cube/I-CUBE-HUAWEI/Middlewares/Third_Party/Huawei/iot_link/network/dtls/mbedtls/mbedtls-2.16.2/library\aes.c ****                 ( (uint32_t) FSb[ ( RK[7] >>  8 ) & 0xFF ]       ) ^
 365              		.loc 1 641 24 discriminator 3 view .LVU118
 366 012a 8362     		str	r3, [r0, #40]
 647:D:/fchai/work/i-cube/I-CUBE-HUAWEI/Middlewares/Third_Party/Huawei/iot_link/network/dtls/mbedtls/mbedtls-2.16.2/library\aes.c ****                 RK[10] = RK[2] ^ RK[9];
 367              		.loc 1 647 17 is_stmt 1 discriminator 3 view .LVU119
 648:D:/fchai/work/i-cube/I-CUBE-HUAWEI/Middlewares/Third_Party/Huawei/iot_link/network/dtls/mbedtls/mbedtls-2.16.2/library\aes.c ****                 RK[11] = RK[3] ^ RK[10];
 368              		.loc 1 648 32 is_stmt 0 discriminator 3 view .LVU120
 369 012c 8CEA0606 		eor	r6, ip, r6
 649:D:/fchai/work/i-cube/I-CUBE-HUAWEI/Middlewares/Third_Party/Huawei/iot_link/network/dtls/mbedtls/mbedtls-2.16.2/library\aes.c **** 
 370              		.loc 1 649 32 discriminator 3 view .LVU121
 371 0130 7440     		eors	r4, r4, r6
 652:D:/fchai/work/i-cube/I-CUBE-HUAWEI/Middlewares/Third_Party/Huawei/iot_link/network/dtls/mbedtls/mbedtls-2.16.2/library\aes.c ****                 ( (uint32_t) FSb[ ( RK[11] >>  8 ) & 0xFF ] <<  8 ) ^
 372              		.loc 1 652 52 discriminator 3 view .LVU122
 373 0132 E3B2     		uxtb	r3, r4
 655:D:/fchai/work/i-cube/I-CUBE-HUAWEI/Middlewares/Third_Party/Huawei/iot_link/network/dtls/mbedtls/mbedtls-2.16.2/library\aes.c **** 
 374              		.loc 1 655 44 discriminator 3 view .LVU123
 375 0134 4FEA146E 		lsr	lr, r4, #24
 647:D:/fchai/work/i-cube/I-CUBE-HUAWEI/Middlewares/Third_Party/Huawei/iot_link/network/dtls/mbedtls/mbedtls-2.16.2/library\aes.c ****                 RK[10] = RK[2] ^ RK[9];
 376              		.loc 1 647 24 discriminator 3 view .LVU124
 377 0138 C0F82CC0 		str	ip, [r0, #44]
 648:D:/fchai/work/i-cube/I-CUBE-HUAWEI/Middlewares/Third_Party/Huawei/iot_link/network/dtls/mbedtls/mbedtls-2.16.2/library\aes.c ****                 RK[11] = RK[3] ^ RK[10];
 378              		.loc 1 648 17 is_stmt 1 discriminator 3 view .LVU125
 652:D:/fchai/work/i-cube/I-CUBE-HUAWEI/Middlewares/Third_Party/Huawei/iot_link/network/dtls/mbedtls/mbedtls-2.16.2/library\aes.c ****                 ( (uint32_t) FSb[ ( RK[11] >>  8 ) & 0xFF ] <<  8 ) ^
 379              		.loc 1 652 19 is_stmt 0 discriminator 3 view .LVU126
ARM GAS  T:\msys\tmp\ccwessdu.s 			page 21


 380 013c D35C     		ldrb	r3, [r2, r3]	@ zero_extendqisi2
 655:D:/fchai/work/i-cube/I-CUBE-HUAWEI/Middlewares/Third_Party/Huawei/iot_link/network/dtls/mbedtls/mbedtls-2.16.2/library\aes.c **** 
 381              		.loc 1 655 19 discriminator 3 view .LVU127
 382 013e 12F80EE0 		ldrb	lr, [r2, lr]	@ zero_extendqisi2
 648:D:/fchai/work/i-cube/I-CUBE-HUAWEI/Middlewares/Third_Party/Huawei/iot_link/network/dtls/mbedtls/mbedtls-2.16.2/library\aes.c ****                 RK[11] = RK[3] ^ RK[10];
 383              		.loc 1 648 24 discriminator 3 view .LVU128
 384 0142 0663     		str	r6, [r0, #48]
 649:D:/fchai/work/i-cube/I-CUBE-HUAWEI/Middlewares/Third_Party/Huawei/iot_link/network/dtls/mbedtls/mbedtls-2.16.2/library\aes.c **** 
 385              		.loc 1 649 17 is_stmt 1 discriminator 3 view .LVU129
 653:D:/fchai/work/i-cube/I-CUBE-HUAWEI/Middlewares/Third_Party/Huawei/iot_link/network/dtls/mbedtls/mbedtls-2.16.2/library\aes.c ****                 ( (uint32_t) FSb[ ( RK[11] >> 16 ) & 0xFF ] << 16 ) ^
 386              		.loc 1 653 52 is_stmt 0 discriminator 3 view .LVU130
 387 0144 C4F3072C 		ubfx	ip, r4, #8, #8
 654:D:/fchai/work/i-cube/I-CUBE-HUAWEI/Middlewares/Third_Party/Huawei/iot_link/network/dtls/mbedtls/mbedtls-2.16.2/library\aes.c ****                 ( (uint32_t) FSb[ ( RK[11] >> 24 ) & 0xFF ] << 24 );
 388              		.loc 1 654 52 discriminator 3 view .LVU131
 389 0148 C4F30746 		ubfx	r6, r4, #16, #8
 653:D:/fchai/work/i-cube/I-CUBE-HUAWEI/Middlewares/Third_Party/Huawei/iot_link/network/dtls/mbedtls/mbedtls-2.16.2/library\aes.c ****                 ( (uint32_t) FSb[ ( RK[11] >> 16 ) & 0xFF ] << 16 ) ^
 390              		.loc 1 653 19 discriminator 3 view .LVU132
 391 014c 12F80CC0 		ldrb	ip, [r2, ip]	@ zero_extendqisi2
 649:D:/fchai/work/i-cube/I-CUBE-HUAWEI/Middlewares/Third_Party/Huawei/iot_link/network/dtls/mbedtls/mbedtls-2.16.2/library\aes.c **** 
 392              		.loc 1 649 24 discriminator 3 view .LVU133
 393 0150 4463     		str	r4, [r0, #52]
 651:D:/fchai/work/i-cube/I-CUBE-HUAWEI/Middlewares/Third_Party/Huawei/iot_link/network/dtls/mbedtls/mbedtls-2.16.2/library\aes.c ****                 ( (uint32_t) FSb[ ( RK[11]       ) & 0xFF ]       ) ^
 394              		.loc 1 651 17 is_stmt 1 discriminator 3 view .LVU134
 654:D:/fchai/work/i-cube/I-CUBE-HUAWEI/Middlewares/Third_Party/Huawei/iot_link/network/dtls/mbedtls/mbedtls-2.16.2/library\aes.c ****                 ( (uint32_t) FSb[ ( RK[11] >> 24 ) & 0xFF ] << 24 );
 395              		.loc 1 654 69 is_stmt 0 discriminator 3 view .LVU135
 396 0152 7B40     		eors	r3, r3, r7
 397 0154 83EA0E63 		eor	r3, r3, lr, lsl #24
 398 0158 83EA0C23 		eor	r3, r3, ip, lsl #8
 654:D:/fchai/work/i-cube/I-CUBE-HUAWEI/Middlewares/Third_Party/Huawei/iot_link/network/dtls/mbedtls/mbedtls-2.16.2/library\aes.c ****                 ( (uint32_t) FSb[ ( RK[11] >> 24 ) & 0xFF ] << 24 );
 399              		.loc 1 654 19 discriminator 3 view .LVU136
 400 015c 12F806C0 		ldrb	ip, [r2, r6]	@ zero_extendqisi2
 657:D:/fchai/work/i-cube/I-CUBE-HUAWEI/Middlewares/Third_Party/Huawei/iot_link/network/dtls/mbedtls/mbedtls-2.16.2/library\aes.c ****                 RK[14] = RK[6] ^ RK[13];
 401              		.loc 1 657 32 discriminator 3 view .LVU137
 402 0160 C669     		ldr	r6, [r0, #28]
 658:D:/fchai/work/i-cube/I-CUBE-HUAWEI/Middlewares/Third_Party/Huawei/iot_link/network/dtls/mbedtls/mbedtls-2.16.2/library\aes.c ****                 RK[15] = RK[7] ^ RK[14];
 403              		.loc 1 658 32 discriminator 3 view .LVU138
 404 0162 046A     		ldr	r4, [r0, #32]
 654:D:/fchai/work/i-cube/I-CUBE-HUAWEI/Middlewares/Third_Party/Huawei/iot_link/network/dtls/mbedtls/mbedtls-2.16.2/library\aes.c ****                 ( (uint32_t) FSb[ ( RK[11] >> 24 ) & 0xFF ] << 24 );
 405              		.loc 1 654 69 discriminator 3 view .LVU139
 406 0164 83EA0C43 		eor	r3, r3, ip, lsl #16
 651:D:/fchai/work/i-cube/I-CUBE-HUAWEI/Middlewares/Third_Party/Huawei/iot_link/network/dtls/mbedtls/mbedtls-2.16.2/library\aes.c ****                 ( (uint32_t) FSb[ ( RK[11]       ) & 0xFF ]       ) ^
 407              		.loc 1 651 24 discriminator 3 view .LVU140
 408 0168 8363     		str	r3, [r0, #56]
 657:D:/fchai/work/i-cube/I-CUBE-HUAWEI/Middlewares/Third_Party/Huawei/iot_link/network/dtls/mbedtls/mbedtls-2.16.2/library\aes.c ****                 RK[14] = RK[6] ^ RK[13];
 409              		.loc 1 657 17 is_stmt 1 discriminator 3 view .LVU141
 657:D:/fchai/work/i-cube/I-CUBE-HUAWEI/Middlewares/Third_Party/Huawei/iot_link/network/dtls/mbedtls/mbedtls-2.16.2/library\aes.c ****                 RK[14] = RK[6] ^ RK[13];
 410              		.loc 1 657 32 is_stmt 0 discriminator 3 view .LVU142
 411 016a 7340     		eors	r3, r3, r6
 658:D:/fchai/work/i-cube/I-CUBE-HUAWEI/Middlewares/Third_Party/Huawei/iot_link/network/dtls/mbedtls/mbedtls-2.16.2/library\aes.c ****                 RK[15] = RK[7] ^ RK[14];
 412              		.loc 1 658 32 discriminator 3 view .LVU143
 413 016c 5C40     		eors	r4, r4, r3
 659:D:/fchai/work/i-cube/I-CUBE-HUAWEI/Middlewares/Third_Party/Huawei/iot_link/network/dtls/mbedtls/mbedtls-2.16.2/library\aes.c ****             }
 414              		.loc 1 659 32 discriminator 3 view .LVU144
 415 016e 6140     		eors	r1, r1, r4
 639:D:/fchai/work/i-cube/I-CUBE-HUAWEI/Middlewares/Third_Party/Huawei/iot_link/network/dtls/mbedtls/mbedtls-2.16.2/library\aes.c ****             {
 416              		.loc 1 639 13 discriminator 3 view .LVU145
 417 0170 A845     		cmp	r8, r5
ARM GAS  T:\msys\tmp\ccwessdu.s 			page 22


 658:D:/fchai/work/i-cube/I-CUBE-HUAWEI/Middlewares/Third_Party/Huawei/iot_link/network/dtls/mbedtls/mbedtls-2.16.2/library\aes.c ****                 RK[15] = RK[7] ^ RK[14];
 418              		.loc 1 658 24 discriminator 3 view .LVU146
 419 0172 C0E91041 		strd	r4, r1, [r0, #64]
 657:D:/fchai/work/i-cube/I-CUBE-HUAWEI/Middlewares/Third_Party/Huawei/iot_link/network/dtls/mbedtls/mbedtls-2.16.2/library\aes.c ****                 RK[14] = RK[6] ^ RK[13];
 420              		.loc 1 657 24 discriminator 3 view .LVU147
 421 0176 C363     		str	r3, [r0, #60]
 658:D:/fchai/work/i-cube/I-CUBE-HUAWEI/Middlewares/Third_Party/Huawei/iot_link/network/dtls/mbedtls/mbedtls-2.16.2/library\aes.c ****                 RK[15] = RK[7] ^ RK[14];
 422              		.loc 1 658 17 is_stmt 1 discriminator 3 view .LVU148
 659:D:/fchai/work/i-cube/I-CUBE-HUAWEI/Middlewares/Third_Party/Huawei/iot_link/network/dtls/mbedtls/mbedtls-2.16.2/library\aes.c ****             }
 423              		.loc 1 659 17 discriminator 3 view .LVU149
 639:D:/fchai/work/i-cube/I-CUBE-HUAWEI/Middlewares/Third_Party/Huawei/iot_link/network/dtls/mbedtls/mbedtls-2.16.2/library\aes.c ****             {
 424              		.loc 1 639 32 discriminator 3 view .LVU150
 425              	.LVL26:
 639:D:/fchai/work/i-cube/I-CUBE-HUAWEI/Middlewares/Third_Party/Huawei/iot_link/network/dtls/mbedtls/mbedtls-2.16.2/library\aes.c ****             {
 426              		.loc 1 639 25 discriminator 3 view .LVU151
 427 0178 00F12000 		add	r0, r0, #32
 428              	.LVL27:
 639:D:/fchai/work/i-cube/I-CUBE-HUAWEI/Middlewares/Third_Party/Huawei/iot_link/network/dtls/mbedtls/mbedtls-2.16.2/library\aes.c ****             {
 429              		.loc 1 639 13 is_stmt 0 discriminator 3 view .LVU152
 430 017c B8D1     		bne	.L30
 664:D:/fchai/work/i-cube/I-CUBE-HUAWEI/Middlewares/Third_Party/Huawei/iot_link/network/dtls/mbedtls/mbedtls-2.16.2/library\aes.c **** }
 431              		.loc 1 664 11 view .LVU153
 432 017e 0020     		movs	r0, #0
 433              	.LVL28:
 434              		.loc 1 665 1 view .LVU154
 435 0180 BDE8F081 		pop	{r4, r5, r6, r7, r8, pc}
 436              	.LVL29:
 437              	.L13:
 438              		.loc 1 665 1 view .LVU155
 439 0184 194E     		ldr	r6, .L31+8
 440 0186 184A     		ldr	r2, .L31+4
 441              	.LVL30:
 442              		.loc 1 665 1 view .LVU156
 443 0188 06F12407 		add	r7, r6, #36
 601:D:/fchai/work/i-cube/I-CUBE-HUAWEI/Middlewares/Third_Party/Huawei/iot_link/network/dtls/mbedtls/mbedtls-2.16.2/library\aes.c ****     {
 444              		.loc 1 601 5 view .LVU157
 445 018c 0121     		movs	r1, #1
 446 018e 01E0     		b	.L17
 447              	.LVL31:
 448              	.L16:
 601:D:/fchai/work/i-cube/I-CUBE-HUAWEI/Middlewares/Third_Party/Huawei/iot_link/network/dtls/mbedtls/mbedtls-2.16.2/library\aes.c ****     {
 449              		.loc 1 601 5 view .LVU158
 450 0190 56F8041F 		ldr	r1, [r6, #4]!
 451              	.LVL32:
 452              	.L17:
 607:D:/fchai/work/i-cube/I-CUBE-HUAWEI/Middlewares/Third_Party/Huawei/iot_link/network/dtls/mbedtls/mbedtls-2.16.2/library\aes.c ****                 ( (uint32_t) FSb[ ( RK[3] >>  8 ) & 0xFF ]       ) ^
 453              		.loc 1 607 17 is_stmt 1 discriminator 3 view .LVU159
 608:D:/fchai/work/i-cube/I-CUBE-HUAWEI/Middlewares/Third_Party/Huawei/iot_link/network/dtls/mbedtls/mbedtls-2.16.2/library\aes.c ****                 ( (uint32_t) FSb[ ( RK[3] >> 16 ) & 0xFF ] <<  8 ) ^
 454              		.loc 1 608 39 is_stmt 0 discriminator 3 view .LVU160
 455 0194 4469     		ldr	r4, [r0, #20]
 610:D:/fchai/work/i-cube/I-CUBE-HUAWEI/Middlewares/Third_Party/Huawei/iot_link/network/dtls/mbedtls/mbedtls-2.16.2/library\aes.c ****                 ( (uint32_t) FSb[ ( RK[3]       ) & 0xFF ] << 24 );
 456              		.loc 1 610 68 discriminator 3 view .LVU161
 457 0196 8568     		ldr	r5, [r0, #8]
 608:D:/fchai/work/i-cube/I-CUBE-HUAWEI/Middlewares/Third_Party/Huawei/iot_link/network/dtls/mbedtls/mbedtls-2.16.2/library\aes.c ****                 ( (uint32_t) FSb[ ( RK[3] >> 16 ) & 0xFF ] <<  8 ) ^
 458              		.loc 1 608 51 discriminator 3 view .LVU162
 459 0198 C4F30723 		ubfx	r3, r4, #8, #8
 610:D:/fchai/work/i-cube/I-CUBE-HUAWEI/Middlewares/Third_Party/Huawei/iot_link/network/dtls/mbedtls/mbedtls-2.16.2/library\aes.c ****                 ( (uint32_t) FSb[ ( RK[3]       ) & 0xFF ] << 24 );
ARM GAS  T:\msys\tmp\ccwessdu.s 			page 23


 460              		.loc 1 610 43 discriminator 3 view .LVU163
 461 019c 4FEA146E 		lsr	lr, r4, #24
 608:D:/fchai/work/i-cube/I-CUBE-HUAWEI/Middlewares/Third_Party/Huawei/iot_link/network/dtls/mbedtls/mbedtls-2.16.2/library\aes.c ****                 ( (uint32_t) FSb[ ( RK[3] >> 16 ) & 0xFF ] <<  8 ) ^
 462              		.loc 1 608 19 discriminator 3 view .LVU164
 463 01a0 D35C     		ldrb	r3, [r2, r3]	@ zero_extendqisi2
 610:D:/fchai/work/i-cube/I-CUBE-HUAWEI/Middlewares/Third_Party/Huawei/iot_link/network/dtls/mbedtls/mbedtls-2.16.2/library\aes.c ****                 ( (uint32_t) FSb[ ( RK[3]       ) & 0xFF ] << 24 );
 464              		.loc 1 610 19 discriminator 3 view .LVU165
 465 01a2 12F80EE0 		ldrb	lr, [r2, lr]	@ zero_extendqisi2
 610:D:/fchai/work/i-cube/I-CUBE-HUAWEI/Middlewares/Third_Party/Huawei/iot_link/network/dtls/mbedtls/mbedtls-2.16.2/library\aes.c ****                 ( (uint32_t) FSb[ ( RK[3]       ) & 0xFF ] << 24 );
 466              		.loc 1 610 68 discriminator 3 view .LVU166
 467 01a6 43EA0E43 		orr	r3, r3, lr, lsl #16
 611:D:/fchai/work/i-cube/I-CUBE-HUAWEI/Middlewares/Third_Party/Huawei/iot_link/network/dtls/mbedtls/mbedtls-2.16.2/library\aes.c **** 
 468              		.loc 1 611 51 discriminator 3 view .LVU167
 469 01aa 5FFA84FE 		uxtb	lr, r4
 610:D:/fchai/work/i-cube/I-CUBE-HUAWEI/Middlewares/Third_Party/Huawei/iot_link/network/dtls/mbedtls/mbedtls-2.16.2/library\aes.c ****                 ( (uint32_t) FSb[ ( RK[3]       ) & 0xFF ] << 24 );
 470              		.loc 1 610 68 discriminator 3 view .LVU168
 471 01ae 6B40     		eors	r3, r3, r5
 609:D:/fchai/work/i-cube/I-CUBE-HUAWEI/Middlewares/Third_Party/Huawei/iot_link/network/dtls/mbedtls/mbedtls-2.16.2/library\aes.c ****                 ( (uint32_t) FSb[ ( RK[3] >> 24 ) & 0xFF ] << 16 ) ^
 472              		.loc 1 609 51 discriminator 3 view .LVU169
 473 01b0 C4F30745 		ubfx	r5, r4, #16, #8
 611:D:/fchai/work/i-cube/I-CUBE-HUAWEI/Middlewares/Third_Party/Huawei/iot_link/network/dtls/mbedtls/mbedtls-2.16.2/library\aes.c **** 
 474              		.loc 1 611 19 discriminator 3 view .LVU170
 475 01b4 12F80EE0 		ldrb	lr, [r2, lr]	@ zero_extendqisi2
 609:D:/fchai/work/i-cube/I-CUBE-HUAWEI/Middlewares/Third_Party/Huawei/iot_link/network/dtls/mbedtls/mbedtls-2.16.2/library\aes.c ****                 ( (uint32_t) FSb[ ( RK[3] >> 24 ) & 0xFF ] << 16 ) ^
 476              		.loc 1 609 19 discriminator 3 view .LVU171
 477 01b8 555D     		ldrb	r5, [r2, r5]	@ zero_extendqisi2
 610:D:/fchai/work/i-cube/I-CUBE-HUAWEI/Middlewares/Third_Party/Huawei/iot_link/network/dtls/mbedtls/mbedtls-2.16.2/library\aes.c ****                 ( (uint32_t) FSb[ ( RK[3]       ) & 0xFF ] << 24 );
 478              		.loc 1 610 68 discriminator 3 view .LVU172
 479 01ba 83EA0E63 		eor	r3, r3, lr, lsl #24
 480 01be 83EA0523 		eor	r3, r3, r5, lsl #8
 481 01c2 4B40     		eors	r3, r3, r1
 613:D:/fchai/work/i-cube/I-CUBE-HUAWEI/Middlewares/Third_Party/Huawei/iot_link/network/dtls/mbedtls/mbedtls-2.16.2/library\aes.c ****                 RK[6]  = RK[2] ^ RK[5];
 482              		.loc 1 613 32 discriminator 3 view .LVU173
 483 01c4 C168     		ldr	r1, [r0, #12]
 614:D:/fchai/work/i-cube/I-CUBE-HUAWEI/Middlewares/Third_Party/Huawei/iot_link/network/dtls/mbedtls/mbedtls-2.16.2/library\aes.c ****                 RK[7]  = RK[3] ^ RK[6];
 484              		.loc 1 614 32 discriminator 3 view .LVU174
 485 01c6 0569     		ldr	r5, [r0, #16]
 607:D:/fchai/work/i-cube/I-CUBE-HUAWEI/Middlewares/Third_Party/Huawei/iot_link/network/dtls/mbedtls/mbedtls-2.16.2/library\aes.c ****                 ( (uint32_t) FSb[ ( RK[3] >>  8 ) & 0xFF ]       ) ^
 486              		.loc 1 607 24 discriminator 3 view .LVU175
 487 01c8 8361     		str	r3, [r0, #24]
 613:D:/fchai/work/i-cube/I-CUBE-HUAWEI/Middlewares/Third_Party/Huawei/iot_link/network/dtls/mbedtls/mbedtls-2.16.2/library\aes.c ****                 RK[6]  = RK[2] ^ RK[5];
 488              		.loc 1 613 17 is_stmt 1 discriminator 3 view .LVU176
 613:D:/fchai/work/i-cube/I-CUBE-HUAWEI/Middlewares/Third_Party/Huawei/iot_link/network/dtls/mbedtls/mbedtls-2.16.2/library\aes.c ****                 RK[6]  = RK[2] ^ RK[5];
 489              		.loc 1 613 32 is_stmt 0 discriminator 3 view .LVU177
 490 01ca 4B40     		eors	r3, r3, r1
 614:D:/fchai/work/i-cube/I-CUBE-HUAWEI/Middlewares/Third_Party/Huawei/iot_link/network/dtls/mbedtls/mbedtls-2.16.2/library\aes.c ****                 RK[7]  = RK[3] ^ RK[6];
 491              		.loc 1 614 32 discriminator 3 view .LVU178
 492 01cc 5D40     		eors	r5, r5, r3
 615:D:/fchai/work/i-cube/I-CUBE-HUAWEI/Middlewares/Third_Party/Huawei/iot_link/network/dtls/mbedtls/mbedtls-2.16.2/library\aes.c ****             }
 493              		.loc 1 615 32 discriminator 3 view .LVU179
 494 01ce 6C40     		eors	r4, r4, r5
 605:D:/fchai/work/i-cube/I-CUBE-HUAWEI/Middlewares/Third_Party/Huawei/iot_link/network/dtls/mbedtls/mbedtls-2.16.2/library\aes.c ****             {
 495              		.loc 1 605 13 discriminator 3 view .LVU180
 496 01d0 B742     		cmp	r7, r6
 614:D:/fchai/work/i-cube/I-CUBE-HUAWEI/Middlewares/Third_Party/Huawei/iot_link/network/dtls/mbedtls/mbedtls-2.16.2/library\aes.c ****                 RK[7]  = RK[3] ^ RK[6];
 497              		.loc 1 614 24 discriminator 3 view .LVU181
 498 01d2 C0E90854 		strd	r5, r4, [r0, #32]
ARM GAS  T:\msys\tmp\ccwessdu.s 			page 24


 613:D:/fchai/work/i-cube/I-CUBE-HUAWEI/Middlewares/Third_Party/Huawei/iot_link/network/dtls/mbedtls/mbedtls-2.16.2/library\aes.c ****                 RK[6]  = RK[2] ^ RK[5];
 499              		.loc 1 613 24 discriminator 3 view .LVU182
 500 01d6 C361     		str	r3, [r0, #28]
 614:D:/fchai/work/i-cube/I-CUBE-HUAWEI/Middlewares/Third_Party/Huawei/iot_link/network/dtls/mbedtls/mbedtls-2.16.2/library\aes.c ****                 RK[7]  = RK[3] ^ RK[6];
 501              		.loc 1 614 17 is_stmt 1 discriminator 3 view .LVU183
 615:D:/fchai/work/i-cube/I-CUBE-HUAWEI/Middlewares/Third_Party/Huawei/iot_link/network/dtls/mbedtls/mbedtls-2.16.2/library\aes.c ****             }
 502              		.loc 1 615 17 discriminator 3 view .LVU184
 605:D:/fchai/work/i-cube/I-CUBE-HUAWEI/Middlewares/Third_Party/Huawei/iot_link/network/dtls/mbedtls/mbedtls-2.16.2/library\aes.c ****             {
 503              		.loc 1 605 33 discriminator 3 view .LVU185
 504              	.LVL33:
 605:D:/fchai/work/i-cube/I-CUBE-HUAWEI/Middlewares/Third_Party/Huawei/iot_link/network/dtls/mbedtls/mbedtls-2.16.2/library\aes.c ****             {
 505              		.loc 1 605 25 discriminator 3 view .LVU186
 506 01d8 00F11000 		add	r0, r0, #16
 507              	.LVL34:
 605:D:/fchai/work/i-cube/I-CUBE-HUAWEI/Middlewares/Third_Party/Huawei/iot_link/network/dtls/mbedtls/mbedtls-2.16.2/library\aes.c ****             {
 508              		.loc 1 605 13 is_stmt 0 discriminator 3 view .LVU187
 509 01dc D8D1     		bne	.L16
 664:D:/fchai/work/i-cube/I-CUBE-HUAWEI/Middlewares/Third_Party/Huawei/iot_link/network/dtls/mbedtls/mbedtls-2.16.2/library\aes.c **** }
 510              		.loc 1 664 11 view .LVU188
 511 01de 0020     		movs	r0, #0
 512              	.LVL35:
 513              		.loc 1 665 1 view .LVU189
 514 01e0 BDE8F081 		pop	{r4, r5, r6, r7, r8, pc}
 515              	.L32:
 516              		.align	2
 517              	.L31:
 518 01e4 04000000 		.word	.LANCHOR0+4
 519 01e8 00000000 		.word	.LANCHOR1
 520 01ec 00000000 		.word	.LANCHOR0
 521              		.cfi_endproc
 522              	.LFE5:
 524              		.section	.text.mbedtls_aes_setkey_dec,"ax",%progbits
 525              		.align	1
 526              		.p2align 2,,3
 527              		.global	mbedtls_aes_setkey_dec
 528              		.syntax unified
 529              		.thumb
 530              		.thumb_func
 531              		.fpu fpv4-sp-d16
 533              	mbedtls_aes_setkey_dec:
 534              	.LVL36:
 535              	.LFB6:
 666:D:/fchai/work/i-cube/I-CUBE-HUAWEI/Middlewares/Third_Party/Huawei/iot_link/network/dtls/mbedtls/mbedtls-2.16.2/library\aes.c **** #endif /* !MBEDTLS_AES_SETKEY_ENC_ALT */
 667:D:/fchai/work/i-cube/I-CUBE-HUAWEI/Middlewares/Third_Party/Huawei/iot_link/network/dtls/mbedtls/mbedtls-2.16.2/library\aes.c **** 
 668:D:/fchai/work/i-cube/I-CUBE-HUAWEI/Middlewares/Third_Party/Huawei/iot_link/network/dtls/mbedtls/mbedtls-2.16.2/library\aes.c **** /*
 669:D:/fchai/work/i-cube/I-CUBE-HUAWEI/Middlewares/Third_Party/Huawei/iot_link/network/dtls/mbedtls/mbedtls-2.16.2/library\aes.c ****  * AES key schedule (decryption)
 670:D:/fchai/work/i-cube/I-CUBE-HUAWEI/Middlewares/Third_Party/Huawei/iot_link/network/dtls/mbedtls/mbedtls-2.16.2/library\aes.c ****  */
 671:D:/fchai/work/i-cube/I-CUBE-HUAWEI/Middlewares/Third_Party/Huawei/iot_link/network/dtls/mbedtls/mbedtls-2.16.2/library\aes.c **** #if !defined(MBEDTLS_AES_SETKEY_DEC_ALT)
 672:D:/fchai/work/i-cube/I-CUBE-HUAWEI/Middlewares/Third_Party/Huawei/iot_link/network/dtls/mbedtls/mbedtls-2.16.2/library\aes.c **** int mbedtls_aes_setkey_dec( mbedtls_aes_context *ctx, const unsigned char *key,
 673:D:/fchai/work/i-cube/I-CUBE-HUAWEI/Middlewares/Third_Party/Huawei/iot_link/network/dtls/mbedtls/mbedtls-2.16.2/library\aes.c ****                     unsigned int keybits )
 674:D:/fchai/work/i-cube/I-CUBE-HUAWEI/Middlewares/Third_Party/Huawei/iot_link/network/dtls/mbedtls/mbedtls-2.16.2/library\aes.c **** {
 536              		.loc 1 674 1 is_stmt 1 view -0
 537              		.cfi_startproc
 538              		@ args = 0, pretend = 0, frame = 304
 539              		@ frame_needed = 0, uses_anonymous_args = 0
 675:D:/fchai/work/i-cube/I-CUBE-HUAWEI/Middlewares/Third_Party/Huawei/iot_link/network/dtls/mbedtls/mbedtls-2.16.2/library\aes.c ****     int i, j, ret;
 540              		.loc 1 675 5 view .LVU191
ARM GAS  T:\msys\tmp\ccwessdu.s 			page 25


 676:D:/fchai/work/i-cube/I-CUBE-HUAWEI/Middlewares/Third_Party/Huawei/iot_link/network/dtls/mbedtls/mbedtls-2.16.2/library\aes.c ****     mbedtls_aes_context cty;
 541              		.loc 1 676 5 view .LVU192
 677:D:/fchai/work/i-cube/I-CUBE-HUAWEI/Middlewares/Third_Party/Huawei/iot_link/network/dtls/mbedtls/mbedtls-2.16.2/library\aes.c ****     uint32_t *RK;
 542              		.loc 1 677 5 view .LVU193
 678:D:/fchai/work/i-cube/I-CUBE-HUAWEI/Middlewares/Third_Party/Huawei/iot_link/network/dtls/mbedtls/mbedtls-2.16.2/library\aes.c ****     uint32_t *SK;
 543              		.loc 1 678 5 view .LVU194
 679:D:/fchai/work/i-cube/I-CUBE-HUAWEI/Middlewares/Third_Party/Huawei/iot_link/network/dtls/mbedtls/mbedtls-2.16.2/library\aes.c **** 
 680:D:/fchai/work/i-cube/I-CUBE-HUAWEI/Middlewares/Third_Party/Huawei/iot_link/network/dtls/mbedtls/mbedtls-2.16.2/library\aes.c ****     AES_VALIDATE_RET( ctx != NULL );
 544              		.loc 1 680 5 view .LVU195
 545              		.loc 1 680 5 view .LVU196
 546              		.loc 1 680 5 view .LVU197
 681:D:/fchai/work/i-cube/I-CUBE-HUAWEI/Middlewares/Third_Party/Huawei/iot_link/network/dtls/mbedtls/mbedtls-2.16.2/library\aes.c ****     AES_VALIDATE_RET( key != NULL );
 547              		.loc 1 681 5 view .LVU198
 548              		.loc 1 681 5 view .LVU199
 549              		.loc 1 681 5 view .LVU200
 682:D:/fchai/work/i-cube/I-CUBE-HUAWEI/Middlewares/Third_Party/Huawei/iot_link/network/dtls/mbedtls/mbedtls-2.16.2/library\aes.c **** 
 683:D:/fchai/work/i-cube/I-CUBE-HUAWEI/Middlewares/Third_Party/Huawei/iot_link/network/dtls/mbedtls/mbedtls-2.16.2/library\aes.c ****     mbedtls_aes_init( &cty );
 550              		.loc 1 683 5 view .LVU201
 674:D:/fchai/work/i-cube/I-CUBE-HUAWEI/Middlewares/Third_Party/Huawei/iot_link/network/dtls/mbedtls/mbedtls-2.16.2/library\aes.c ****     int i, j, ret;
 551              		.loc 1 674 1 is_stmt 0 view .LVU202
 552 0000 2DE9F04F 		push	{r4, r5, r6, r7, r8, r9, r10, fp, lr}
 553              	.LCFI3:
 554              		.cfi_def_cfa_offset 36
 555              		.cfi_offset 4, -36
 556              		.cfi_offset 5, -32
 557              		.cfi_offset 6, -28
 558              		.cfi_offset 7, -24
 559              		.cfi_offset 8, -20
 560              		.cfi_offset 9, -16
 561              		.cfi_offset 10, -12
 562              		.cfi_offset 11, -8
 563              		.cfi_offset 14, -4
 564 0004 CDB0     		sub	sp, sp, #308
 565              	.LCFI4:
 566              		.cfi_def_cfa_offset 344
 567              	.LVL37:
 568              	.LBB6:
 569              	.LBI6:
 518:D:/fchai/work/i-cube/I-CUBE-HUAWEI/Middlewares/Third_Party/Huawei/iot_link/network/dtls/mbedtls/mbedtls-2.16.2/library\aes.c **** {
 570              		.loc 1 518 6 is_stmt 1 view .LVU203
 571              	.LBB7:
 520:D:/fchai/work/i-cube/I-CUBE-HUAWEI/Middlewares/Third_Party/Huawei/iot_link/network/dtls/mbedtls/mbedtls-2.16.2/library\aes.c **** 
 572              		.loc 1 520 5 view .LVU204
 520:D:/fchai/work/i-cube/I-CUBE-HUAWEI/Middlewares/Third_Party/Huawei/iot_link/network/dtls/mbedtls/mbedtls-2.16.2/library\aes.c **** 
 573              		.loc 1 520 5 view .LVU205
 520:D:/fchai/work/i-cube/I-CUBE-HUAWEI/Middlewares/Third_Party/Huawei/iot_link/network/dtls/mbedtls/mbedtls-2.16.2/library\aes.c **** 
 574              		.loc 1 520 5 view .LVU206
 522:D:/fchai/work/i-cube/I-CUBE-HUAWEI/Middlewares/Third_Party/Huawei/iot_link/network/dtls/mbedtls/mbedtls-2.16.2/library\aes.c **** }
 575              		.loc 1 522 5 view .LVU207
 576              	.LBE7:
 577              	.LBE6:
 674:D:/fchai/work/i-cube/I-CUBE-HUAWEI/Middlewares/Third_Party/Huawei/iot_link/network/dtls/mbedtls/mbedtls-2.16.2/library\aes.c ****     int i, j, ret;
 578              		.loc 1 674 1 is_stmt 0 view .LVU208
 579 0006 0746     		mov	r7, r0
 580 0008 0C46     		mov	r4, r1
 581 000a 1546     		mov	r5, r2
 582              	.LBB9:
ARM GAS  T:\msys\tmp\ccwessdu.s 			page 26


 583              	.LBB8:
 522:D:/fchai/work/i-cube/I-CUBE-HUAWEI/Middlewares/Third_Party/Huawei/iot_link/network/dtls/mbedtls/mbedtls-2.16.2/library\aes.c **** }
 584              		.loc 1 522 5 view .LVU209
 585 000c 0021     		movs	r1, #0
 586              	.LVL38:
 522:D:/fchai/work/i-cube/I-CUBE-HUAWEI/Middlewares/Third_Party/Huawei/iot_link/network/dtls/mbedtls/mbedtls-2.16.2/library\aes.c **** }
 587              		.loc 1 522 5 view .LVU210
 588 000e 4FF48C72 		mov	r2, #280
 589              	.LVL39:
 522:D:/fchai/work/i-cube/I-CUBE-HUAWEI/Middlewares/Third_Party/Huawei/iot_link/network/dtls/mbedtls/mbedtls-2.16.2/library\aes.c **** }
 590              		.loc 1 522 5 view .LVU211
 591 0012 06A8     		add	r0, sp, #24
 592              	.LVL40:
 522:D:/fchai/work/i-cube/I-CUBE-HUAWEI/Middlewares/Third_Party/Huawei/iot_link/network/dtls/mbedtls/mbedtls-2.16.2/library\aes.c **** }
 593              		.loc 1 522 5 view .LVU212
 594 0014 FFF7FEFF 		bl	memset
 595              	.LVL41:
 522:D:/fchai/work/i-cube/I-CUBE-HUAWEI/Middlewares/Third_Party/Huawei/iot_link/network/dtls/mbedtls/mbedtls-2.16.2/library\aes.c **** }
 596              		.loc 1 522 5 view .LVU213
 597              	.LBE8:
 598              	.LBE9:
 684:D:/fchai/work/i-cube/I-CUBE-HUAWEI/Middlewares/Third_Party/Huawei/iot_link/network/dtls/mbedtls/mbedtls-2.16.2/library\aes.c **** 
 685:D:/fchai/work/i-cube/I-CUBE-HUAWEI/Middlewares/Third_Party/Huawei/iot_link/network/dtls/mbedtls/mbedtls-2.16.2/library\aes.c **** #if defined(MBEDTLS_PADLOCK_C) && defined(MBEDTLS_PADLOCK_ALIGN16)
 686:D:/fchai/work/i-cube/I-CUBE-HUAWEI/Middlewares/Third_Party/Huawei/iot_link/network/dtls/mbedtls/mbedtls-2.16.2/library\aes.c ****     if( aes_padlock_ace == -1 )
 687:D:/fchai/work/i-cube/I-CUBE-HUAWEI/Middlewares/Third_Party/Huawei/iot_link/network/dtls/mbedtls/mbedtls-2.16.2/library\aes.c ****         aes_padlock_ace = mbedtls_padlock_has_support( MBEDTLS_PADLOCK_ACE );
 688:D:/fchai/work/i-cube/I-CUBE-HUAWEI/Middlewares/Third_Party/Huawei/iot_link/network/dtls/mbedtls/mbedtls-2.16.2/library\aes.c **** 
 689:D:/fchai/work/i-cube/I-CUBE-HUAWEI/Middlewares/Third_Party/Huawei/iot_link/network/dtls/mbedtls/mbedtls-2.16.2/library\aes.c ****     if( aes_padlock_ace )
 690:D:/fchai/work/i-cube/I-CUBE-HUAWEI/Middlewares/Third_Party/Huawei/iot_link/network/dtls/mbedtls/mbedtls-2.16.2/library\aes.c ****         ctx->rk = RK = MBEDTLS_PADLOCK_ALIGN16( ctx->buf );
 691:D:/fchai/work/i-cube/I-CUBE-HUAWEI/Middlewares/Third_Party/Huawei/iot_link/network/dtls/mbedtls/mbedtls-2.16.2/library\aes.c ****     else
 692:D:/fchai/work/i-cube/I-CUBE-HUAWEI/Middlewares/Third_Party/Huawei/iot_link/network/dtls/mbedtls/mbedtls-2.16.2/library\aes.c **** #endif
 693:D:/fchai/work/i-cube/I-CUBE-HUAWEI/Middlewares/Third_Party/Huawei/iot_link/network/dtls/mbedtls/mbedtls-2.16.2/library\aes.c ****     ctx->rk = RK = ctx->buf;
 599              		.loc 1 693 5 is_stmt 1 view .LVU214
 600              		.loc 1 693 18 is_stmt 0 view .LVU215
 601 0018 07F10803 		add	r3, r7, #8
 602              	.LVL42:
 694:D:/fchai/work/i-cube/I-CUBE-HUAWEI/Middlewares/Third_Party/Huawei/iot_link/network/dtls/mbedtls/mbedtls-2.16.2/library\aes.c **** 
 695:D:/fchai/work/i-cube/I-CUBE-HUAWEI/Middlewares/Third_Party/Huawei/iot_link/network/dtls/mbedtls/mbedtls-2.16.2/library\aes.c ****     /* Also checks keybits */
 696:D:/fchai/work/i-cube/I-CUBE-HUAWEI/Middlewares/Third_Party/Huawei/iot_link/network/dtls/mbedtls/mbedtls-2.16.2/library\aes.c ****     if( ( ret = mbedtls_aes_setkey_enc( &cty, key, keybits ) ) != 0 )
 603              		.loc 1 696 17 view .LVU216
 604 001c 2A46     		mov	r2, r5
 605 001e 2146     		mov	r1, r4
 693:D:/fchai/work/i-cube/I-CUBE-HUAWEI/Middlewares/Third_Party/Huawei/iot_link/network/dtls/mbedtls/mbedtls-2.16.2/library\aes.c **** 
 606              		.loc 1 693 13 view .LVU217
 607 0020 7B60     		str	r3, [r7, #4]
 608              		.loc 1 696 5 is_stmt 1 view .LVU218
 609              		.loc 1 696 17 is_stmt 0 view .LVU219
 610 0022 06A8     		add	r0, sp, #24
 611 0024 FFF7FEFF 		bl	mbedtls_aes_setkey_enc
 612              	.LVL43:
 613              		.loc 1 696 7 view .LVU220
 614 0028 0390     		str	r0, [sp, #12]
 615 002a 0028     		cmp	r0, #0
 616 002c 60D1     		bne	.L34
 697:D:/fchai/work/i-cube/I-CUBE-HUAWEI/Middlewares/Third_Party/Huawei/iot_link/network/dtls/mbedtls/mbedtls-2.16.2/library\aes.c ****         goto exit;
 698:D:/fchai/work/i-cube/I-CUBE-HUAWEI/Middlewares/Third_Party/Huawei/iot_link/network/dtls/mbedtls/mbedtls-2.16.2/library\aes.c **** 
 699:D:/fchai/work/i-cube/I-CUBE-HUAWEI/Middlewares/Third_Party/Huawei/iot_link/network/dtls/mbedtls/mbedtls-2.16.2/library\aes.c ****     ctx->nr = cty.nr;
 617              		.loc 1 699 5 is_stmt 1 view .LVU221
ARM GAS  T:\msys\tmp\ccwessdu.s 			page 27


 618              		.loc 1 699 18 is_stmt 0 view .LVU222
 619 002e 0698     		ldr	r0, [sp, #24]
 620              	.LVL44:
 700:D:/fchai/work/i-cube/I-CUBE-HUAWEI/Middlewares/Third_Party/Huawei/iot_link/network/dtls/mbedtls/mbedtls-2.16.2/library\aes.c **** 
 701:D:/fchai/work/i-cube/I-CUBE-HUAWEI/Middlewares/Third_Party/Huawei/iot_link/network/dtls/mbedtls/mbedtls-2.16.2/library\aes.c **** #if defined(MBEDTLS_AESNI_C) && defined(MBEDTLS_HAVE_X86_64)
 702:D:/fchai/work/i-cube/I-CUBE-HUAWEI/Middlewares/Third_Party/Huawei/iot_link/network/dtls/mbedtls/mbedtls-2.16.2/library\aes.c ****     if( mbedtls_aesni_has_support( MBEDTLS_AESNI_AES ) )
 703:D:/fchai/work/i-cube/I-CUBE-HUAWEI/Middlewares/Third_Party/Huawei/iot_link/network/dtls/mbedtls/mbedtls-2.16.2/library\aes.c ****     {
 704:D:/fchai/work/i-cube/I-CUBE-HUAWEI/Middlewares/Third_Party/Huawei/iot_link/network/dtls/mbedtls/mbedtls-2.16.2/library\aes.c ****         mbedtls_aesni_inverse_key( (unsigned char *) ctx->rk,
 705:D:/fchai/work/i-cube/I-CUBE-HUAWEI/Middlewares/Third_Party/Huawei/iot_link/network/dtls/mbedtls/mbedtls-2.16.2/library\aes.c ****                            (const unsigned char *) cty.rk, ctx->nr );
 706:D:/fchai/work/i-cube/I-CUBE-HUAWEI/Middlewares/Third_Party/Huawei/iot_link/network/dtls/mbedtls/mbedtls-2.16.2/library\aes.c ****         goto exit;
 707:D:/fchai/work/i-cube/I-CUBE-HUAWEI/Middlewares/Third_Party/Huawei/iot_link/network/dtls/mbedtls/mbedtls-2.16.2/library\aes.c ****     }
 708:D:/fchai/work/i-cube/I-CUBE-HUAWEI/Middlewares/Third_Party/Huawei/iot_link/network/dtls/mbedtls/mbedtls-2.16.2/library\aes.c **** #endif
 709:D:/fchai/work/i-cube/I-CUBE-HUAWEI/Middlewares/Third_Party/Huawei/iot_link/network/dtls/mbedtls/mbedtls-2.16.2/library\aes.c **** 
 710:D:/fchai/work/i-cube/I-CUBE-HUAWEI/Middlewares/Third_Party/Huawei/iot_link/network/dtls/mbedtls/mbedtls-2.16.2/library\aes.c ****     SK = cty.rk + cty.nr * 4;
 621              		.loc 1 710 8 view .LVU223
 622 0030 079A     		ldr	r2, [sp, #28]
 699:D:/fchai/work/i-cube/I-CUBE-HUAWEI/Middlewares/Third_Party/Huawei/iot_link/network/dtls/mbedtls/mbedtls-2.16.2/library\aes.c **** 
 623              		.loc 1 699 18 view .LVU224
 624 0032 0490     		str	r0, [sp, #16]
 625              		.loc 1 710 17 view .LVU225
 626 0034 0101     		lsls	r1, r0, #4
 627              		.loc 1 710 8 view .LVU226
 628 0036 02EB0013 		add	r3, r2, r0, lsl #4
 711:D:/fchai/work/i-cube/I-CUBE-HUAWEI/Middlewares/Third_Party/Huawei/iot_link/network/dtls/mbedtls/mbedtls-2.16.2/library\aes.c **** 
 712:D:/fchai/work/i-cube/I-CUBE-HUAWEI/Middlewares/Third_Party/Huawei/iot_link/network/dtls/mbedtls/mbedtls-2.16.2/library\aes.c ****     *RK++ = *SK++;
 629              		.loc 1 712 13 view .LVU227
 630 003a 5258     		ldr	r2, [r2, r1]
 631              		.loc 1 712 11 view .LVU228
 632 003c BA60     		str	r2, [r7, #8]
 713:D:/fchai/work/i-cube/I-CUBE-HUAWEI/Middlewares/Third_Party/Huawei/iot_link/network/dtls/mbedtls/mbedtls-2.16.2/library\aes.c ****     *RK++ = *SK++;
 633              		.loc 1 713 13 view .LVU229
 634 003e 5A68     		ldr	r2, [r3, #4]
 635              		.loc 1 713 11 view .LVU230
 636 0040 FA60     		str	r2, [r7, #12]
 714:D:/fchai/work/i-cube/I-CUBE-HUAWEI/Middlewares/Third_Party/Huawei/iot_link/network/dtls/mbedtls/mbedtls-2.16.2/library\aes.c ****     *RK++ = *SK++;
 637              		.loc 1 714 13 view .LVU231
 638 0042 9A68     		ldr	r2, [r3, #8]
 639              		.loc 1 714 11 view .LVU232
 640 0044 3A61     		str	r2, [r7, #16]
 715:D:/fchai/work/i-cube/I-CUBE-HUAWEI/Middlewares/Third_Party/Huawei/iot_link/network/dtls/mbedtls/mbedtls-2.16.2/library\aes.c ****     *RK++ = *SK++;
 641              		.loc 1 715 13 view .LVU233
 642 0046 DA68     		ldr	r2, [r3, #12]
 643              		.loc 1 715 11 view .LVU234
 644 0048 7A61     		str	r2, [r7, #20]
 716:D:/fchai/work/i-cube/I-CUBE-HUAWEI/Middlewares/Third_Party/Huawei/iot_link/network/dtls/mbedtls/mbedtls-2.16.2/library\aes.c **** 
 717:D:/fchai/work/i-cube/I-CUBE-HUAWEI/Middlewares/Third_Party/Huawei/iot_link/network/dtls/mbedtls/mbedtls-2.16.2/library\aes.c ****     for( i = ctx->nr - 1, SK -= 8; i > 0; i--, SK -= 8 )
 645              		.loc 1 717 12 view .LVU235
 646 004a 421E     		subs	r2, r0, #1
 647              		.loc 1 717 30 view .LVU236
 648 004c 103B     		subs	r3, r3, #16
 715:D:/fchai/work/i-cube/I-CUBE-HUAWEI/Middlewares/Third_Party/Huawei/iot_link/network/dtls/mbedtls/mbedtls-2.16.2/library\aes.c ****     *RK++ = *SK++;
 649              		.loc 1 715 8 view .LVU237
 650 004e 07F11801 		add	r1, r7, #24
 651              		.loc 1 717 5 view .LVU238
 652 0052 002A     		cmp	r2, #0
 699:D:/fchai/work/i-cube/I-CUBE-HUAWEI/Middlewares/Third_Party/Huawei/iot_link/network/dtls/mbedtls/mbedtls-2.16.2/library\aes.c **** 
 653              		.loc 1 699 13 view .LVU239
ARM GAS  T:\msys\tmp\ccwessdu.s 			page 28


 654 0054 3860     		str	r0, [r7]
 710:D:/fchai/work/i-cube/I-CUBE-HUAWEI/Middlewares/Third_Party/Huawei/iot_link/network/dtls/mbedtls/mbedtls-2.16.2/library\aes.c **** 
 655              		.loc 1 710 5 is_stmt 1 view .LVU240
 712:D:/fchai/work/i-cube/I-CUBE-HUAWEI/Middlewares/Third_Party/Huawei/iot_link/network/dtls/mbedtls/mbedtls-2.16.2/library\aes.c ****     *RK++ = *SK++;
 656              		.loc 1 712 5 view .LVU241
 657              	.LVL45:
 713:D:/fchai/work/i-cube/I-CUBE-HUAWEI/Middlewares/Third_Party/Huawei/iot_link/network/dtls/mbedtls/mbedtls-2.16.2/library\aes.c ****     *RK++ = *SK++;
 658              		.loc 1 713 5 view .LVU242
 714:D:/fchai/work/i-cube/I-CUBE-HUAWEI/Middlewares/Third_Party/Huawei/iot_link/network/dtls/mbedtls/mbedtls-2.16.2/library\aes.c ****     *RK++ = *SK++;
 659              		.loc 1 714 5 view .LVU243
 715:D:/fchai/work/i-cube/I-CUBE-HUAWEI/Middlewares/Third_Party/Huawei/iot_link/network/dtls/mbedtls/mbedtls-2.16.2/library\aes.c **** 
 660              		.loc 1 715 5 view .LVU244
 661              		.loc 1 717 12 is_stmt 0 view .LVU245
 662 0056 0592     		str	r2, [sp, #20]
 663              		.loc 1 717 30 view .LVU246
 664 0058 0293     		str	r3, [sp, #8]
 665              		.loc 1 717 12 view .LVU247
 666 005a 9246     		mov	r10, r2
 715:D:/fchai/work/i-cube/I-CUBE-HUAWEI/Middlewares/Third_Party/Huawei/iot_link/network/dtls/mbedtls/mbedtls-2.16.2/library\aes.c **** 
 667              		.loc 1 715 8 view .LVU248
 668 005c 0191     		str	r1, [sp, #4]
 669              	.LVL46:
 670              		.loc 1 717 5 is_stmt 1 view .LVU249
 671              		.loc 1 717 36 view .LVU250
 672              		.loc 1 717 5 is_stmt 0 view .LVU251
 673 005e 3DDD     		ble	.L35
 674 0060 DFF8A490 		ldr	r9, .L41+4
 675 0064 2749     		ldr	r1, .L41
 676              	.LVL47:
 677              		.loc 1 717 5 view .LVU252
 678 0066 DFF8A480 		ldr	r8, .L41+8
 679 006a DFF8A4E0 		ldr	lr, .L41+12
 680 006e DFF8A4C0 		ldr	ip, .L41+16
 681 0072 2837     		adds	r7, r7, #40
 682              	.LVL48:
 683              		.loc 1 717 30 view .LVU253
 684 0074 9B46     		mov	fp, r3
 685              	.LVL49:
 686              	.L37:
 687              		.loc 1 717 30 view .LVU254
 688 0076 A7F11002 		sub	r2, r7, #16
 689              	.LVL50:
 690              		.loc 1 717 30 view .LVU255
 691 007a ABF10400 		sub	r0, fp, #4
 692              	.LVL51:
 693              	.L36:
 718:D:/fchai/work/i-cube/I-CUBE-HUAWEI/Middlewares/Third_Party/Huawei/iot_link/network/dtls/mbedtls/mbedtls-2.16.2/library\aes.c ****     {
 719:D:/fchai/work/i-cube/I-CUBE-HUAWEI/Middlewares/Third_Party/Huawei/iot_link/network/dtls/mbedtls/mbedtls-2.16.2/library\aes.c ****         for( j = 0; j < 4; j++, SK++ )
 720:D:/fchai/work/i-cube/I-CUBE-HUAWEI/Middlewares/Third_Party/Huawei/iot_link/network/dtls/mbedtls/mbedtls-2.16.2/library\aes.c ****         {
 721:D:/fchai/work/i-cube/I-CUBE-HUAWEI/Middlewares/Third_Party/Huawei/iot_link/network/dtls/mbedtls/mbedtls-2.16.2/library\aes.c ****             *RK++ = AES_RT0( FSb[ ( *SK       ) & 0xFF ] ) ^
 694              		.loc 1 721 13 is_stmt 1 discriminator 3 view .LVU256
 695              		.loc 1 721 21 is_stmt 0 discriminator 3 view .LVU257
 696 007e 50F8044F 		ldr	r4, [r0, #4]!
 697              	.LVL52:
 698              		.loc 1 721 21 discriminator 3 view .LVU258
 699 0082 E6B2     		uxtb	r6, r4
 722:D:/fchai/work/i-cube/I-CUBE-HUAWEI/Middlewares/Third_Party/Huawei/iot_link/network/dtls/mbedtls/mbedtls-2.16.2/library\aes.c ****                     AES_RT1( FSb[ ( *SK >>  8 ) & 0xFF ] ) ^
ARM GAS  T:\msys\tmp\ccwessdu.s 			page 29


 723:D:/fchai/work/i-cube/I-CUBE-HUAWEI/Middlewares/Third_Party/Huawei/iot_link/network/dtls/mbedtls/mbedtls-2.16.2/library\aes.c ****                     AES_RT2( FSb[ ( *SK >> 16 ) & 0xFF ] ) ^
 724:D:/fchai/work/i-cube/I-CUBE-HUAWEI/Middlewares/Third_Party/Huawei/iot_link/network/dtls/mbedtls/mbedtls-2.16.2/library\aes.c ****                     AES_RT3( FSb[ ( *SK >> 24 ) & 0xFF ] );
 700              		.loc 1 724 21 discriminator 3 view .LVU259
 701 0084 230E     		lsrs	r3, r4, #24
 722:D:/fchai/work/i-cube/I-CUBE-HUAWEI/Middlewares/Third_Party/Huawei/iot_link/network/dtls/mbedtls/mbedtls-2.16.2/library\aes.c ****                     AES_RT1( FSb[ ( *SK >>  8 ) & 0xFF ] ) ^
 702              		.loc 1 722 21 discriminator 3 view .LVU260
 703 0086 C4F30725 		ubfx	r5, r4, #8, #8
 721:D:/fchai/work/i-cube/I-CUBE-HUAWEI/Middlewares/Third_Party/Huawei/iot_link/network/dtls/mbedtls/mbedtls-2.16.2/library\aes.c ****                     AES_RT1( FSb[ ( *SK >>  8 ) & 0xFF ] ) ^
 704              		.loc 1 721 21 discriminator 3 view .LVU261
 705 008a 8E5D     		ldrb	r6, [r1, r6]	@ zero_extendqisi2
 706              		.loc 1 724 21 discriminator 3 view .LVU262
 707 008c CB5C     		ldrb	r3, [r1, r3]	@ zero_extendqisi2
 722:D:/fchai/work/i-cube/I-CUBE-HUAWEI/Middlewares/Third_Party/Huawei/iot_link/network/dtls/mbedtls/mbedtls-2.16.2/library\aes.c ****                     AES_RT1( FSb[ ( *SK >>  8 ) & 0xFF ] ) ^
 708              		.loc 1 722 21 discriminator 3 view .LVU263
 709 008e 4D5D     		ldrb	r5, [r1, r5]	@ zero_extendqisi2
 723:D:/fchai/work/i-cube/I-CUBE-HUAWEI/Middlewares/Third_Party/Huawei/iot_link/network/dtls/mbedtls/mbedtls-2.16.2/library\aes.c ****                     AES_RT3( FSb[ ( *SK >> 24 ) & 0xFF ] );
 710              		.loc 1 723 60 discriminator 3 view .LVU264
 711 0090 59F82660 		ldr	r6, [r9, r6, lsl #2]
 712 0094 58F82330 		ldr	r3, [r8, r3, lsl #2]
 713 0098 5EF82550 		ldr	r5, [lr, r5, lsl #2]
 723:D:/fchai/work/i-cube/I-CUBE-HUAWEI/Middlewares/Third_Party/Huawei/iot_link/network/dtls/mbedtls/mbedtls-2.16.2/library\aes.c ****                     AES_RT3( FSb[ ( *SK >> 24 ) & 0xFF ] );
 714              		.loc 1 723 21 discriminator 3 view .LVU265
 715 009c C4F30744 		ubfx	r4, r4, #16, #8
 723:D:/fchai/work/i-cube/I-CUBE-HUAWEI/Middlewares/Third_Party/Huawei/iot_link/network/dtls/mbedtls/mbedtls-2.16.2/library\aes.c ****                     AES_RT3( FSb[ ( *SK >> 24 ) & 0xFF ] );
 716              		.loc 1 723 60 discriminator 3 view .LVU266
 717 00a0 7340     		eors	r3, r3, r6
 723:D:/fchai/work/i-cube/I-CUBE-HUAWEI/Middlewares/Third_Party/Huawei/iot_link/network/dtls/mbedtls/mbedtls-2.16.2/library\aes.c ****                     AES_RT3( FSb[ ( *SK >> 24 ) & 0xFF ] );
 718              		.loc 1 723 21 discriminator 3 view .LVU267
 719 00a2 0C5D     		ldrb	r4, [r1, r4]	@ zero_extendqisi2
 723:D:/fchai/work/i-cube/I-CUBE-HUAWEI/Middlewares/Third_Party/Huawei/iot_link/network/dtls/mbedtls/mbedtls-2.16.2/library\aes.c ****                     AES_RT3( FSb[ ( *SK >> 24 ) & 0xFF ] );
 720              		.loc 1 723 60 discriminator 3 view .LVU268
 721 00a4 5CF82440 		ldr	r4, [ip, r4, lsl #2]
 722 00a8 6B40     		eors	r3, r3, r5
 723 00aa 6340     		eors	r3, r3, r4
 721:D:/fchai/work/i-cube/I-CUBE-HUAWEI/Middlewares/Third_Party/Huawei/iot_link/network/dtls/mbedtls/mbedtls-2.16.2/library\aes.c ****                     AES_RT1( FSb[ ( *SK >>  8 ) & 0xFF ] ) ^
 724              		.loc 1 721 19 discriminator 3 view .LVU269
 725 00ac 42F8043B 		str	r3, [r2], #4
 726              	.LVL53:
 719:D:/fchai/work/i-cube/I-CUBE-HUAWEI/Middlewares/Third_Party/Huawei/iot_link/network/dtls/mbedtls/mbedtls-2.16.2/library\aes.c ****         {
 727              		.loc 1 719 28 is_stmt 1 discriminator 3 view .LVU270
 719:D:/fchai/work/i-cube/I-CUBE-HUAWEI/Middlewares/Third_Party/Huawei/iot_link/network/dtls/mbedtls/mbedtls-2.16.2/library\aes.c ****         {
 728              		.loc 1 719 21 discriminator 3 view .LVU271
 719:D:/fchai/work/i-cube/I-CUBE-HUAWEI/Middlewares/Third_Party/Huawei/iot_link/network/dtls/mbedtls/mbedtls-2.16.2/library\aes.c ****         {
 729              		.loc 1 719 9 is_stmt 0 discriminator 3 view .LVU272
 730 00b0 BA42     		cmp	r2, r7
 731 00b2 E4D1     		bne	.L36
 717:D:/fchai/work/i-cube/I-CUBE-HUAWEI/Middlewares/Third_Party/Huawei/iot_link/network/dtls/mbedtls/mbedtls-2.16.2/library\aes.c ****     {
 732              		.loc 1 717 43 is_stmt 1 discriminator 2 view .LVU273
 733              	.LVL54:
 717:D:/fchai/work/i-cube/I-CUBE-HUAWEI/Middlewares/Third_Party/Huawei/iot_link/network/dtls/mbedtls/mbedtls-2.16.2/library\aes.c ****     {
 734              		.loc 1 717 5 is_stmt 0 discriminator 2 view .LVU274
 735 00b4 BAF1010A 		subs	r10, r10, #1
 736              	.LVL55:
 717:D:/fchai/work/i-cube/I-CUBE-HUAWEI/Middlewares/Third_Party/Huawei/iot_link/network/dtls/mbedtls/mbedtls-2.16.2/library\aes.c ****     {
 737              		.loc 1 717 5 discriminator 2 view .LVU275
 738 00b8 ABF1100B 		sub	fp, fp, #16
 739              	.LVL56:
ARM GAS  T:\msys\tmp\ccwessdu.s 			page 30


 717:D:/fchai/work/i-cube/I-CUBE-HUAWEI/Middlewares/Third_Party/Huawei/iot_link/network/dtls/mbedtls/mbedtls-2.16.2/library\aes.c ****     {
 740              		.loc 1 717 36 is_stmt 1 discriminator 2 view .LVU276
 741 00bc 02F11007 		add	r7, r2, #16
 717:D:/fchai/work/i-cube/I-CUBE-HUAWEI/Middlewares/Third_Party/Huawei/iot_link/network/dtls/mbedtls/mbedtls-2.16.2/library\aes.c ****     {
 742              		.loc 1 717 5 is_stmt 0 discriminator 2 view .LVU277
 743 00c0 D9D1     		bne	.L37
 744 00c2 049B     		ldr	r3, [sp, #16]
 745 00c4 029A     		ldr	r2, [sp, #8]
 746              	.LVL57:
 717:D:/fchai/work/i-cube/I-CUBE-HUAWEI/Middlewares/Third_Party/Huawei/iot_link/network/dtls/mbedtls/mbedtls-2.16.2/library\aes.c ****     {
 747              		.loc 1 717 5 discriminator 2 view .LVU278
 748 00c6 C3EB0373 		rsb	r3, r3, r3, lsl #28
 749 00ca 02EB0313 		add	r3, r2, r3, lsl #4
 750 00ce 1033     		adds	r3, r3, #16
 751 00d0 059A     		ldr	r2, [sp, #20]
 752 00d2 0293     		str	r3, [sp, #8]
 753 00d4 019B     		ldr	r3, [sp, #4]
 754 00d6 03EB0213 		add	r3, r3, r2, lsl #4
 755 00da 0193     		str	r3, [sp, #4]
 756              	.LVL58:
 757              	.L35:
 725:D:/fchai/work/i-cube/I-CUBE-HUAWEI/Middlewares/Third_Party/Huawei/iot_link/network/dtls/mbedtls/mbedtls-2.16.2/library\aes.c ****         }
 726:D:/fchai/work/i-cube/I-CUBE-HUAWEI/Middlewares/Third_Party/Huawei/iot_link/network/dtls/mbedtls/mbedtls-2.16.2/library\aes.c ****     }
 727:D:/fchai/work/i-cube/I-CUBE-HUAWEI/Middlewares/Third_Party/Huawei/iot_link/network/dtls/mbedtls/mbedtls-2.16.2/library\aes.c **** 
 728:D:/fchai/work/i-cube/I-CUBE-HUAWEI/Middlewares/Third_Party/Huawei/iot_link/network/dtls/mbedtls/mbedtls-2.16.2/library\aes.c ****     *RK++ = *SK++;
 758              		.loc 1 728 5 is_stmt 1 view .LVU279
 759              		.loc 1 728 13 is_stmt 0 view .LVU280
 760 00dc 029A     		ldr	r2, [sp, #8]
 761              		.loc 1 728 11 view .LVU281
 762 00de 0199     		ldr	r1, [sp, #4]
 763              		.loc 1 728 13 view .LVU282
 764 00e0 1368     		ldr	r3, [r2]
 765              		.loc 1 728 11 view .LVU283
 766 00e2 0B60     		str	r3, [r1]
 729:D:/fchai/work/i-cube/I-CUBE-HUAWEI/Middlewares/Third_Party/Huawei/iot_link/network/dtls/mbedtls/mbedtls-2.16.2/library\aes.c ****     *RK++ = *SK++;
 767              		.loc 1 729 5 is_stmt 1 view .LVU284
 768              	.LVL59:
 769              		.loc 1 729 13 is_stmt 0 view .LVU285
 770 00e4 5368     		ldr	r3, [r2, #4]
 771              		.loc 1 729 11 view .LVU286
 772 00e6 4B60     		str	r3, [r1, #4]
 730:D:/fchai/work/i-cube/I-CUBE-HUAWEI/Middlewares/Third_Party/Huawei/iot_link/network/dtls/mbedtls/mbedtls-2.16.2/library\aes.c ****     *RK++ = *SK++;
 773              		.loc 1 730 5 is_stmt 1 view .LVU287
 774              	.LVL60:
 775              		.loc 1 730 13 is_stmt 0 view .LVU288
 776 00e8 9368     		ldr	r3, [r2, #8]
 777              		.loc 1 730 11 view .LVU289
 778 00ea 8B60     		str	r3, [r1, #8]
 731:D:/fchai/work/i-cube/I-CUBE-HUAWEI/Middlewares/Third_Party/Huawei/iot_link/network/dtls/mbedtls/mbedtls-2.16.2/library\aes.c ****     *RK++ = *SK++;
 779              		.loc 1 731 5 is_stmt 1 view .LVU290
 780              	.LVL61:
 781              		.loc 1 731 13 is_stmt 0 view .LVU291
 782 00ec D368     		ldr	r3, [r2, #12]
 783              		.loc 1 731 11 view .LVU292
 784 00ee CB60     		str	r3, [r1, #12]
 785              	.LVL62:
 786              	.L34:
ARM GAS  T:\msys\tmp\ccwessdu.s 			page 31


 732:D:/fchai/work/i-cube/I-CUBE-HUAWEI/Middlewares/Third_Party/Huawei/iot_link/network/dtls/mbedtls/mbedtls-2.16.2/library\aes.c **** 
 733:D:/fchai/work/i-cube/I-CUBE-HUAWEI/Middlewares/Third_Party/Huawei/iot_link/network/dtls/mbedtls/mbedtls-2.16.2/library\aes.c **** exit:
 734:D:/fchai/work/i-cube/I-CUBE-HUAWEI/Middlewares/Third_Party/Huawei/iot_link/network/dtls/mbedtls/mbedtls-2.16.2/library\aes.c ****     mbedtls_aes_free( &cty );
 787              		.loc 1 734 5 is_stmt 1 view .LVU293
 788              	.LBB10:
 789              	.LBI10:
 525:D:/fchai/work/i-cube/I-CUBE-HUAWEI/Middlewares/Third_Party/Huawei/iot_link/network/dtls/mbedtls/mbedtls-2.16.2/library\aes.c **** {
 790              		.loc 1 525 6 view .LVU294
 791              	.LBB11:
 527:D:/fchai/work/i-cube/I-CUBE-HUAWEI/Middlewares/Third_Party/Huawei/iot_link/network/dtls/mbedtls/mbedtls-2.16.2/library\aes.c ****         return;
 792              		.loc 1 527 5 view .LVU295
 530:D:/fchai/work/i-cube/I-CUBE-HUAWEI/Middlewares/Third_Party/Huawei/iot_link/network/dtls/mbedtls/mbedtls-2.16.2/library\aes.c **** }
 793              		.loc 1 530 5 view .LVU296
 794 00f0 06A8     		add	r0, sp, #24
 795              	.LVL63:
 530:D:/fchai/work/i-cube/I-CUBE-HUAWEI/Middlewares/Third_Party/Huawei/iot_link/network/dtls/mbedtls/mbedtls-2.16.2/library\aes.c **** }
 796              		.loc 1 530 5 is_stmt 0 view .LVU297
 797 00f2 4FF48C71 		mov	r1, #280
 798 00f6 FFF7FEFF 		bl	mbedtls_platform_zeroize
 799              	.LVL64:
 530:D:/fchai/work/i-cube/I-CUBE-HUAWEI/Middlewares/Third_Party/Huawei/iot_link/network/dtls/mbedtls/mbedtls-2.16.2/library\aes.c **** }
 800              		.loc 1 530 5 view .LVU298
 801              	.LBE11:
 802              	.LBE10:
 735:D:/fchai/work/i-cube/I-CUBE-HUAWEI/Middlewares/Third_Party/Huawei/iot_link/network/dtls/mbedtls/mbedtls-2.16.2/library\aes.c **** 
 736:D:/fchai/work/i-cube/I-CUBE-HUAWEI/Middlewares/Third_Party/Huawei/iot_link/network/dtls/mbedtls/mbedtls-2.16.2/library\aes.c ****     return( ret );
 803              		.loc 1 736 5 is_stmt 1 view .LVU299
 737:D:/fchai/work/i-cube/I-CUBE-HUAWEI/Middlewares/Third_Party/Huawei/iot_link/network/dtls/mbedtls/mbedtls-2.16.2/library\aes.c **** }
 804              		.loc 1 737 1 is_stmt 0 view .LVU300
 805 00fa 0398     		ldr	r0, [sp, #12]
 806 00fc 4DB0     		add	sp, sp, #308
 807              	.LCFI5:
 808              		.cfi_def_cfa_offset 36
 809              		@ sp needed
 810 00fe BDE8F08F 		pop	{r4, r5, r6, r7, r8, r9, r10, fp, pc}
 811              	.LVL65:
 812              	.L42:
 813              		.loc 1 737 1 view .LVU301
 814 0102 00BF     		.align	2
 815              	.L41:
 816 0104 00000000 		.word	.LANCHOR1
 817 0108 00000000 		.word	.LANCHOR2
 818 010c 00000000 		.word	.LANCHOR3
 819 0110 00000000 		.word	.LANCHOR4
 820 0114 00000000 		.word	.LANCHOR5
 821              		.cfi_endproc
 822              	.LFE6:
 824              		.section	.text.mbedtls_internal_aes_encrypt,"ax",%progbits
 825              		.align	1
 826              		.p2align 2,,3
 827              		.global	mbedtls_internal_aes_encrypt
 828              		.syntax unified
 829              		.thumb
 830              		.thumb_func
 831              		.fpu fpv4-sp-d16
 833              	mbedtls_internal_aes_encrypt:
 834              	.LVL66:
ARM GAS  T:\msys\tmp\ccwessdu.s 			page 32


 835              	.LFB7:
 738:D:/fchai/work/i-cube/I-CUBE-HUAWEI/Middlewares/Third_Party/Huawei/iot_link/network/dtls/mbedtls/mbedtls-2.16.2/library\aes.c **** 
 739:D:/fchai/work/i-cube/I-CUBE-HUAWEI/Middlewares/Third_Party/Huawei/iot_link/network/dtls/mbedtls/mbedtls-2.16.2/library\aes.c **** #if defined(MBEDTLS_CIPHER_MODE_XTS)
 740:D:/fchai/work/i-cube/I-CUBE-HUAWEI/Middlewares/Third_Party/Huawei/iot_link/network/dtls/mbedtls/mbedtls-2.16.2/library\aes.c **** static int mbedtls_aes_xts_decode_keys( const unsigned char *key,
 741:D:/fchai/work/i-cube/I-CUBE-HUAWEI/Middlewares/Third_Party/Huawei/iot_link/network/dtls/mbedtls/mbedtls-2.16.2/library\aes.c ****                                         unsigned int keybits,
 742:D:/fchai/work/i-cube/I-CUBE-HUAWEI/Middlewares/Third_Party/Huawei/iot_link/network/dtls/mbedtls/mbedtls-2.16.2/library\aes.c ****                                         const unsigned char **key1,
 743:D:/fchai/work/i-cube/I-CUBE-HUAWEI/Middlewares/Third_Party/Huawei/iot_link/network/dtls/mbedtls/mbedtls-2.16.2/library\aes.c ****                                         unsigned int *key1bits,
 744:D:/fchai/work/i-cube/I-CUBE-HUAWEI/Middlewares/Third_Party/Huawei/iot_link/network/dtls/mbedtls/mbedtls-2.16.2/library\aes.c ****                                         const unsigned char **key2,
 745:D:/fchai/work/i-cube/I-CUBE-HUAWEI/Middlewares/Third_Party/Huawei/iot_link/network/dtls/mbedtls/mbedtls-2.16.2/library\aes.c ****                                         unsigned int *key2bits )
 746:D:/fchai/work/i-cube/I-CUBE-HUAWEI/Middlewares/Third_Party/Huawei/iot_link/network/dtls/mbedtls/mbedtls-2.16.2/library\aes.c **** {
 747:D:/fchai/work/i-cube/I-CUBE-HUAWEI/Middlewares/Third_Party/Huawei/iot_link/network/dtls/mbedtls/mbedtls-2.16.2/library\aes.c ****     const unsigned int half_keybits = keybits / 2;
 748:D:/fchai/work/i-cube/I-CUBE-HUAWEI/Middlewares/Third_Party/Huawei/iot_link/network/dtls/mbedtls/mbedtls-2.16.2/library\aes.c ****     const unsigned int half_keybytes = half_keybits / 8;
 749:D:/fchai/work/i-cube/I-CUBE-HUAWEI/Middlewares/Third_Party/Huawei/iot_link/network/dtls/mbedtls/mbedtls-2.16.2/library\aes.c **** 
 750:D:/fchai/work/i-cube/I-CUBE-HUAWEI/Middlewares/Third_Party/Huawei/iot_link/network/dtls/mbedtls/mbedtls-2.16.2/library\aes.c ****     switch( keybits )
 751:D:/fchai/work/i-cube/I-CUBE-HUAWEI/Middlewares/Third_Party/Huawei/iot_link/network/dtls/mbedtls/mbedtls-2.16.2/library\aes.c ****     {
 752:D:/fchai/work/i-cube/I-CUBE-HUAWEI/Middlewares/Third_Party/Huawei/iot_link/network/dtls/mbedtls/mbedtls-2.16.2/library\aes.c ****         case 256: break;
 753:D:/fchai/work/i-cube/I-CUBE-HUAWEI/Middlewares/Third_Party/Huawei/iot_link/network/dtls/mbedtls/mbedtls-2.16.2/library\aes.c ****         case 512: break;
 754:D:/fchai/work/i-cube/I-CUBE-HUAWEI/Middlewares/Third_Party/Huawei/iot_link/network/dtls/mbedtls/mbedtls-2.16.2/library\aes.c ****         default : return( MBEDTLS_ERR_AES_INVALID_KEY_LENGTH );
 755:D:/fchai/work/i-cube/I-CUBE-HUAWEI/Middlewares/Third_Party/Huawei/iot_link/network/dtls/mbedtls/mbedtls-2.16.2/library\aes.c ****     }
 756:D:/fchai/work/i-cube/I-CUBE-HUAWEI/Middlewares/Third_Party/Huawei/iot_link/network/dtls/mbedtls/mbedtls-2.16.2/library\aes.c **** 
 757:D:/fchai/work/i-cube/I-CUBE-HUAWEI/Middlewares/Third_Party/Huawei/iot_link/network/dtls/mbedtls/mbedtls-2.16.2/library\aes.c ****     *key1bits = half_keybits;
 758:D:/fchai/work/i-cube/I-CUBE-HUAWEI/Middlewares/Third_Party/Huawei/iot_link/network/dtls/mbedtls/mbedtls-2.16.2/library\aes.c ****     *key2bits = half_keybits;
 759:D:/fchai/work/i-cube/I-CUBE-HUAWEI/Middlewares/Third_Party/Huawei/iot_link/network/dtls/mbedtls/mbedtls-2.16.2/library\aes.c ****     *key1 = &key[0];
 760:D:/fchai/work/i-cube/I-CUBE-HUAWEI/Middlewares/Third_Party/Huawei/iot_link/network/dtls/mbedtls/mbedtls-2.16.2/library\aes.c ****     *key2 = &key[half_keybytes];
 761:D:/fchai/work/i-cube/I-CUBE-HUAWEI/Middlewares/Third_Party/Huawei/iot_link/network/dtls/mbedtls/mbedtls-2.16.2/library\aes.c **** 
 762:D:/fchai/work/i-cube/I-CUBE-HUAWEI/Middlewares/Third_Party/Huawei/iot_link/network/dtls/mbedtls/mbedtls-2.16.2/library\aes.c ****     return 0;
 763:D:/fchai/work/i-cube/I-CUBE-HUAWEI/Middlewares/Third_Party/Huawei/iot_link/network/dtls/mbedtls/mbedtls-2.16.2/library\aes.c **** }
 764:D:/fchai/work/i-cube/I-CUBE-HUAWEI/Middlewares/Third_Party/Huawei/iot_link/network/dtls/mbedtls/mbedtls-2.16.2/library\aes.c **** 
 765:D:/fchai/work/i-cube/I-CUBE-HUAWEI/Middlewares/Third_Party/Huawei/iot_link/network/dtls/mbedtls/mbedtls-2.16.2/library\aes.c **** int mbedtls_aes_xts_setkey_enc( mbedtls_aes_xts_context *ctx,
 766:D:/fchai/work/i-cube/I-CUBE-HUAWEI/Middlewares/Third_Party/Huawei/iot_link/network/dtls/mbedtls/mbedtls-2.16.2/library\aes.c ****                                 const unsigned char *key,
 767:D:/fchai/work/i-cube/I-CUBE-HUAWEI/Middlewares/Third_Party/Huawei/iot_link/network/dtls/mbedtls/mbedtls-2.16.2/library\aes.c ****                                 unsigned int keybits)
 768:D:/fchai/work/i-cube/I-CUBE-HUAWEI/Middlewares/Third_Party/Huawei/iot_link/network/dtls/mbedtls/mbedtls-2.16.2/library\aes.c **** {
 769:D:/fchai/work/i-cube/I-CUBE-HUAWEI/Middlewares/Third_Party/Huawei/iot_link/network/dtls/mbedtls/mbedtls-2.16.2/library\aes.c ****     int ret;
 770:D:/fchai/work/i-cube/I-CUBE-HUAWEI/Middlewares/Third_Party/Huawei/iot_link/network/dtls/mbedtls/mbedtls-2.16.2/library\aes.c ****     const unsigned char *key1, *key2;
 771:D:/fchai/work/i-cube/I-CUBE-HUAWEI/Middlewares/Third_Party/Huawei/iot_link/network/dtls/mbedtls/mbedtls-2.16.2/library\aes.c ****     unsigned int key1bits, key2bits;
 772:D:/fchai/work/i-cube/I-CUBE-HUAWEI/Middlewares/Third_Party/Huawei/iot_link/network/dtls/mbedtls/mbedtls-2.16.2/library\aes.c **** 
 773:D:/fchai/work/i-cube/I-CUBE-HUAWEI/Middlewares/Third_Party/Huawei/iot_link/network/dtls/mbedtls/mbedtls-2.16.2/library\aes.c ****     AES_VALIDATE_RET( ctx != NULL );
 774:D:/fchai/work/i-cube/I-CUBE-HUAWEI/Middlewares/Third_Party/Huawei/iot_link/network/dtls/mbedtls/mbedtls-2.16.2/library\aes.c ****     AES_VALIDATE_RET( key != NULL );
 775:D:/fchai/work/i-cube/I-CUBE-HUAWEI/Middlewares/Third_Party/Huawei/iot_link/network/dtls/mbedtls/mbedtls-2.16.2/library\aes.c **** 
 776:D:/fchai/work/i-cube/I-CUBE-HUAWEI/Middlewares/Third_Party/Huawei/iot_link/network/dtls/mbedtls/mbedtls-2.16.2/library\aes.c ****     ret = mbedtls_aes_xts_decode_keys( key, keybits, &key1, &key1bits,
 777:D:/fchai/work/i-cube/I-CUBE-HUAWEI/Middlewares/Third_Party/Huawei/iot_link/network/dtls/mbedtls/mbedtls-2.16.2/library\aes.c ****                                        &key2, &key2bits );
 778:D:/fchai/work/i-cube/I-CUBE-HUAWEI/Middlewares/Third_Party/Huawei/iot_link/network/dtls/mbedtls/mbedtls-2.16.2/library\aes.c ****     if( ret != 0 )
 779:D:/fchai/work/i-cube/I-CUBE-HUAWEI/Middlewares/Third_Party/Huawei/iot_link/network/dtls/mbedtls/mbedtls-2.16.2/library\aes.c ****         return( ret );
 780:D:/fchai/work/i-cube/I-CUBE-HUAWEI/Middlewares/Third_Party/Huawei/iot_link/network/dtls/mbedtls/mbedtls-2.16.2/library\aes.c **** 
 781:D:/fchai/work/i-cube/I-CUBE-HUAWEI/Middlewares/Third_Party/Huawei/iot_link/network/dtls/mbedtls/mbedtls-2.16.2/library\aes.c ****     /* Set the tweak key. Always set tweak key for the encryption mode. */
 782:D:/fchai/work/i-cube/I-CUBE-HUAWEI/Middlewares/Third_Party/Huawei/iot_link/network/dtls/mbedtls/mbedtls-2.16.2/library\aes.c ****     ret = mbedtls_aes_setkey_enc( &ctx->tweak, key2, key2bits );
 783:D:/fchai/work/i-cube/I-CUBE-HUAWEI/Middlewares/Third_Party/Huawei/iot_link/network/dtls/mbedtls/mbedtls-2.16.2/library\aes.c ****     if( ret != 0 )
 784:D:/fchai/work/i-cube/I-CUBE-HUAWEI/Middlewares/Third_Party/Huawei/iot_link/network/dtls/mbedtls/mbedtls-2.16.2/library\aes.c ****         return( ret );
 785:D:/fchai/work/i-cube/I-CUBE-HUAWEI/Middlewares/Third_Party/Huawei/iot_link/network/dtls/mbedtls/mbedtls-2.16.2/library\aes.c **** 
 786:D:/fchai/work/i-cube/I-CUBE-HUAWEI/Middlewares/Third_Party/Huawei/iot_link/network/dtls/mbedtls/mbedtls-2.16.2/library\aes.c ****     /* Set crypt key for encryption. */
 787:D:/fchai/work/i-cube/I-CUBE-HUAWEI/Middlewares/Third_Party/Huawei/iot_link/network/dtls/mbedtls/mbedtls-2.16.2/library\aes.c ****     return mbedtls_aes_setkey_enc( &ctx->crypt, key1, key1bits );
 788:D:/fchai/work/i-cube/I-CUBE-HUAWEI/Middlewares/Third_Party/Huawei/iot_link/network/dtls/mbedtls/mbedtls-2.16.2/library\aes.c **** }
 789:D:/fchai/work/i-cube/I-CUBE-HUAWEI/Middlewares/Third_Party/Huawei/iot_link/network/dtls/mbedtls/mbedtls-2.16.2/library\aes.c **** 
 790:D:/fchai/work/i-cube/I-CUBE-HUAWEI/Middlewares/Third_Party/Huawei/iot_link/network/dtls/mbedtls/mbedtls-2.16.2/library\aes.c **** int mbedtls_aes_xts_setkey_dec( mbedtls_aes_xts_context *ctx,
 791:D:/fchai/work/i-cube/I-CUBE-HUAWEI/Middlewares/Third_Party/Huawei/iot_link/network/dtls/mbedtls/mbedtls-2.16.2/library\aes.c ****                                 const unsigned char *key,
 792:D:/fchai/work/i-cube/I-CUBE-HUAWEI/Middlewares/Third_Party/Huawei/iot_link/network/dtls/mbedtls/mbedtls-2.16.2/library\aes.c ****                                 unsigned int keybits)
 793:D:/fchai/work/i-cube/I-CUBE-HUAWEI/Middlewares/Third_Party/Huawei/iot_link/network/dtls/mbedtls/mbedtls-2.16.2/library\aes.c **** {
ARM GAS  T:\msys\tmp\ccwessdu.s 			page 33


 794:D:/fchai/work/i-cube/I-CUBE-HUAWEI/Middlewares/Third_Party/Huawei/iot_link/network/dtls/mbedtls/mbedtls-2.16.2/library\aes.c ****     int ret;
 795:D:/fchai/work/i-cube/I-CUBE-HUAWEI/Middlewares/Third_Party/Huawei/iot_link/network/dtls/mbedtls/mbedtls-2.16.2/library\aes.c ****     const unsigned char *key1, *key2;
 796:D:/fchai/work/i-cube/I-CUBE-HUAWEI/Middlewares/Third_Party/Huawei/iot_link/network/dtls/mbedtls/mbedtls-2.16.2/library\aes.c ****     unsigned int key1bits, key2bits;
 797:D:/fchai/work/i-cube/I-CUBE-HUAWEI/Middlewares/Third_Party/Huawei/iot_link/network/dtls/mbedtls/mbedtls-2.16.2/library\aes.c **** 
 798:D:/fchai/work/i-cube/I-CUBE-HUAWEI/Middlewares/Third_Party/Huawei/iot_link/network/dtls/mbedtls/mbedtls-2.16.2/library\aes.c ****     AES_VALIDATE_RET( ctx != NULL );
 799:D:/fchai/work/i-cube/I-CUBE-HUAWEI/Middlewares/Third_Party/Huawei/iot_link/network/dtls/mbedtls/mbedtls-2.16.2/library\aes.c ****     AES_VALIDATE_RET( key != NULL );
 800:D:/fchai/work/i-cube/I-CUBE-HUAWEI/Middlewares/Third_Party/Huawei/iot_link/network/dtls/mbedtls/mbedtls-2.16.2/library\aes.c **** 
 801:D:/fchai/work/i-cube/I-CUBE-HUAWEI/Middlewares/Third_Party/Huawei/iot_link/network/dtls/mbedtls/mbedtls-2.16.2/library\aes.c ****     ret = mbedtls_aes_xts_decode_keys( key, keybits, &key1, &key1bits,
 802:D:/fchai/work/i-cube/I-CUBE-HUAWEI/Middlewares/Third_Party/Huawei/iot_link/network/dtls/mbedtls/mbedtls-2.16.2/library\aes.c ****                                        &key2, &key2bits );
 803:D:/fchai/work/i-cube/I-CUBE-HUAWEI/Middlewares/Third_Party/Huawei/iot_link/network/dtls/mbedtls/mbedtls-2.16.2/library\aes.c ****     if( ret != 0 )
 804:D:/fchai/work/i-cube/I-CUBE-HUAWEI/Middlewares/Third_Party/Huawei/iot_link/network/dtls/mbedtls/mbedtls-2.16.2/library\aes.c ****         return( ret );
 805:D:/fchai/work/i-cube/I-CUBE-HUAWEI/Middlewares/Third_Party/Huawei/iot_link/network/dtls/mbedtls/mbedtls-2.16.2/library\aes.c **** 
 806:D:/fchai/work/i-cube/I-CUBE-HUAWEI/Middlewares/Third_Party/Huawei/iot_link/network/dtls/mbedtls/mbedtls-2.16.2/library\aes.c ****     /* Set the tweak key. Always set tweak key for encryption. */
 807:D:/fchai/work/i-cube/I-CUBE-HUAWEI/Middlewares/Third_Party/Huawei/iot_link/network/dtls/mbedtls/mbedtls-2.16.2/library\aes.c ****     ret = mbedtls_aes_setkey_enc( &ctx->tweak, key2, key2bits );
 808:D:/fchai/work/i-cube/I-CUBE-HUAWEI/Middlewares/Third_Party/Huawei/iot_link/network/dtls/mbedtls/mbedtls-2.16.2/library\aes.c ****     if( ret != 0 )
 809:D:/fchai/work/i-cube/I-CUBE-HUAWEI/Middlewares/Third_Party/Huawei/iot_link/network/dtls/mbedtls/mbedtls-2.16.2/library\aes.c ****         return( ret );
 810:D:/fchai/work/i-cube/I-CUBE-HUAWEI/Middlewares/Third_Party/Huawei/iot_link/network/dtls/mbedtls/mbedtls-2.16.2/library\aes.c **** 
 811:D:/fchai/work/i-cube/I-CUBE-HUAWEI/Middlewares/Third_Party/Huawei/iot_link/network/dtls/mbedtls/mbedtls-2.16.2/library\aes.c ****     /* Set crypt key for decryption. */
 812:D:/fchai/work/i-cube/I-CUBE-HUAWEI/Middlewares/Third_Party/Huawei/iot_link/network/dtls/mbedtls/mbedtls-2.16.2/library\aes.c ****     return mbedtls_aes_setkey_dec( &ctx->crypt, key1, key1bits );
 813:D:/fchai/work/i-cube/I-CUBE-HUAWEI/Middlewares/Third_Party/Huawei/iot_link/network/dtls/mbedtls/mbedtls-2.16.2/library\aes.c **** }
 814:D:/fchai/work/i-cube/I-CUBE-HUAWEI/Middlewares/Third_Party/Huawei/iot_link/network/dtls/mbedtls/mbedtls-2.16.2/library\aes.c **** #endif /* MBEDTLS_CIPHER_MODE_XTS */
 815:D:/fchai/work/i-cube/I-CUBE-HUAWEI/Middlewares/Third_Party/Huawei/iot_link/network/dtls/mbedtls/mbedtls-2.16.2/library\aes.c **** 
 816:D:/fchai/work/i-cube/I-CUBE-HUAWEI/Middlewares/Third_Party/Huawei/iot_link/network/dtls/mbedtls/mbedtls-2.16.2/library\aes.c **** #endif /* !MBEDTLS_AES_SETKEY_DEC_ALT */
 817:D:/fchai/work/i-cube/I-CUBE-HUAWEI/Middlewares/Third_Party/Huawei/iot_link/network/dtls/mbedtls/mbedtls-2.16.2/library\aes.c **** 
 818:D:/fchai/work/i-cube/I-CUBE-HUAWEI/Middlewares/Third_Party/Huawei/iot_link/network/dtls/mbedtls/mbedtls-2.16.2/library\aes.c **** #define AES_FROUND(X0,X1,X2,X3,Y0,Y1,Y2,Y3)                     \
 819:D:/fchai/work/i-cube/I-CUBE-HUAWEI/Middlewares/Third_Party/Huawei/iot_link/network/dtls/mbedtls/mbedtls-2.16.2/library\aes.c ****     do                                                          \
 820:D:/fchai/work/i-cube/I-CUBE-HUAWEI/Middlewares/Third_Party/Huawei/iot_link/network/dtls/mbedtls/mbedtls-2.16.2/library\aes.c ****     {                                                           \
 821:D:/fchai/work/i-cube/I-CUBE-HUAWEI/Middlewares/Third_Party/Huawei/iot_link/network/dtls/mbedtls/mbedtls-2.16.2/library\aes.c ****         (X0) = *RK++ ^ AES_FT0( ( (Y0)       ) & 0xFF ) ^       \
 822:D:/fchai/work/i-cube/I-CUBE-HUAWEI/Middlewares/Third_Party/Huawei/iot_link/network/dtls/mbedtls/mbedtls-2.16.2/library\aes.c ****                        AES_FT1( ( (Y1) >>  8 ) & 0xFF ) ^       \
 823:D:/fchai/work/i-cube/I-CUBE-HUAWEI/Middlewares/Third_Party/Huawei/iot_link/network/dtls/mbedtls/mbedtls-2.16.2/library\aes.c ****                        AES_FT2( ( (Y2) >> 16 ) & 0xFF ) ^       \
 824:D:/fchai/work/i-cube/I-CUBE-HUAWEI/Middlewares/Third_Party/Huawei/iot_link/network/dtls/mbedtls/mbedtls-2.16.2/library\aes.c ****                        AES_FT3( ( (Y3) >> 24 ) & 0xFF );        \
 825:D:/fchai/work/i-cube/I-CUBE-HUAWEI/Middlewares/Third_Party/Huawei/iot_link/network/dtls/mbedtls/mbedtls-2.16.2/library\aes.c ****                                                                 \
 826:D:/fchai/work/i-cube/I-CUBE-HUAWEI/Middlewares/Third_Party/Huawei/iot_link/network/dtls/mbedtls/mbedtls-2.16.2/library\aes.c ****         (X1) = *RK++ ^ AES_FT0( ( (Y1)       ) & 0xFF ) ^       \
 827:D:/fchai/work/i-cube/I-CUBE-HUAWEI/Middlewares/Third_Party/Huawei/iot_link/network/dtls/mbedtls/mbedtls-2.16.2/library\aes.c ****                        AES_FT1( ( (Y2) >>  8 ) & 0xFF ) ^       \
 828:D:/fchai/work/i-cube/I-CUBE-HUAWEI/Middlewares/Third_Party/Huawei/iot_link/network/dtls/mbedtls/mbedtls-2.16.2/library\aes.c ****                        AES_FT2( ( (Y3) >> 16 ) & 0xFF ) ^       \
 829:D:/fchai/work/i-cube/I-CUBE-HUAWEI/Middlewares/Third_Party/Huawei/iot_link/network/dtls/mbedtls/mbedtls-2.16.2/library\aes.c ****                        AES_FT3( ( (Y0) >> 24 ) & 0xFF );        \
 830:D:/fchai/work/i-cube/I-CUBE-HUAWEI/Middlewares/Third_Party/Huawei/iot_link/network/dtls/mbedtls/mbedtls-2.16.2/library\aes.c ****                                                                 \
 831:D:/fchai/work/i-cube/I-CUBE-HUAWEI/Middlewares/Third_Party/Huawei/iot_link/network/dtls/mbedtls/mbedtls-2.16.2/library\aes.c ****         (X2) = *RK++ ^ AES_FT0( ( (Y2)       ) & 0xFF ) ^       \
 832:D:/fchai/work/i-cube/I-CUBE-HUAWEI/Middlewares/Third_Party/Huawei/iot_link/network/dtls/mbedtls/mbedtls-2.16.2/library\aes.c ****                        AES_FT1( ( (Y3) >>  8 ) & 0xFF ) ^       \
 833:D:/fchai/work/i-cube/I-CUBE-HUAWEI/Middlewares/Third_Party/Huawei/iot_link/network/dtls/mbedtls/mbedtls-2.16.2/library\aes.c ****                        AES_FT2( ( (Y0) >> 16 ) & 0xFF ) ^       \
 834:D:/fchai/work/i-cube/I-CUBE-HUAWEI/Middlewares/Third_Party/Huawei/iot_link/network/dtls/mbedtls/mbedtls-2.16.2/library\aes.c ****                        AES_FT3( ( (Y1) >> 24 ) & 0xFF );        \
 835:D:/fchai/work/i-cube/I-CUBE-HUAWEI/Middlewares/Third_Party/Huawei/iot_link/network/dtls/mbedtls/mbedtls-2.16.2/library\aes.c ****                                                                 \
 836:D:/fchai/work/i-cube/I-CUBE-HUAWEI/Middlewares/Third_Party/Huawei/iot_link/network/dtls/mbedtls/mbedtls-2.16.2/library\aes.c ****         (X3) = *RK++ ^ AES_FT0( ( (Y3)       ) & 0xFF ) ^       \
 837:D:/fchai/work/i-cube/I-CUBE-HUAWEI/Middlewares/Third_Party/Huawei/iot_link/network/dtls/mbedtls/mbedtls-2.16.2/library\aes.c ****                        AES_FT1( ( (Y0) >>  8 ) & 0xFF ) ^       \
 838:D:/fchai/work/i-cube/I-CUBE-HUAWEI/Middlewares/Third_Party/Huawei/iot_link/network/dtls/mbedtls/mbedtls-2.16.2/library\aes.c ****                        AES_FT2( ( (Y1) >> 16 ) & 0xFF ) ^       \
 839:D:/fchai/work/i-cube/I-CUBE-HUAWEI/Middlewares/Third_Party/Huawei/iot_link/network/dtls/mbedtls/mbedtls-2.16.2/library\aes.c ****                        AES_FT3( ( (Y2) >> 24 ) & 0xFF );        \
 840:D:/fchai/work/i-cube/I-CUBE-HUAWEI/Middlewares/Third_Party/Huawei/iot_link/network/dtls/mbedtls/mbedtls-2.16.2/library\aes.c ****     } while( 0 )
 841:D:/fchai/work/i-cube/I-CUBE-HUAWEI/Middlewares/Third_Party/Huawei/iot_link/network/dtls/mbedtls/mbedtls-2.16.2/library\aes.c **** 
 842:D:/fchai/work/i-cube/I-CUBE-HUAWEI/Middlewares/Third_Party/Huawei/iot_link/network/dtls/mbedtls/mbedtls-2.16.2/library\aes.c **** #define AES_RROUND(X0,X1,X2,X3,Y0,Y1,Y2,Y3)                 \
 843:D:/fchai/work/i-cube/I-CUBE-HUAWEI/Middlewares/Third_Party/Huawei/iot_link/network/dtls/mbedtls/mbedtls-2.16.2/library\aes.c ****     do                                                      \
 844:D:/fchai/work/i-cube/I-CUBE-HUAWEI/Middlewares/Third_Party/Huawei/iot_link/network/dtls/mbedtls/mbedtls-2.16.2/library\aes.c ****     {                                                       \
 845:D:/fchai/work/i-cube/I-CUBE-HUAWEI/Middlewares/Third_Party/Huawei/iot_link/network/dtls/mbedtls/mbedtls-2.16.2/library\aes.c ****         (X0) = *RK++ ^ AES_RT0( ( (Y0)       ) & 0xFF ) ^   \
 846:D:/fchai/work/i-cube/I-CUBE-HUAWEI/Middlewares/Third_Party/Huawei/iot_link/network/dtls/mbedtls/mbedtls-2.16.2/library\aes.c ****                        AES_RT1( ( (Y3) >>  8 ) & 0xFF ) ^   \
 847:D:/fchai/work/i-cube/I-CUBE-HUAWEI/Middlewares/Third_Party/Huawei/iot_link/network/dtls/mbedtls/mbedtls-2.16.2/library\aes.c ****                        AES_RT2( ( (Y2) >> 16 ) & 0xFF ) ^   \
 848:D:/fchai/work/i-cube/I-CUBE-HUAWEI/Middlewares/Third_Party/Huawei/iot_link/network/dtls/mbedtls/mbedtls-2.16.2/library\aes.c ****                        AES_RT3( ( (Y1) >> 24 ) & 0xFF );    \
 849:D:/fchai/work/i-cube/I-CUBE-HUAWEI/Middlewares/Third_Party/Huawei/iot_link/network/dtls/mbedtls/mbedtls-2.16.2/library\aes.c ****                                                             \
 850:D:/fchai/work/i-cube/I-CUBE-HUAWEI/Middlewares/Third_Party/Huawei/iot_link/network/dtls/mbedtls/mbedtls-2.16.2/library\aes.c ****         (X1) = *RK++ ^ AES_RT0( ( (Y1)       ) & 0xFF ) ^   \
ARM GAS  T:\msys\tmp\ccwessdu.s 			page 34


 851:D:/fchai/work/i-cube/I-CUBE-HUAWEI/Middlewares/Third_Party/Huawei/iot_link/network/dtls/mbedtls/mbedtls-2.16.2/library\aes.c ****                        AES_RT1( ( (Y0) >>  8 ) & 0xFF ) ^   \
 852:D:/fchai/work/i-cube/I-CUBE-HUAWEI/Middlewares/Third_Party/Huawei/iot_link/network/dtls/mbedtls/mbedtls-2.16.2/library\aes.c ****                        AES_RT2( ( (Y3) >> 16 ) & 0xFF ) ^   \
 853:D:/fchai/work/i-cube/I-CUBE-HUAWEI/Middlewares/Third_Party/Huawei/iot_link/network/dtls/mbedtls/mbedtls-2.16.2/library\aes.c ****                        AES_RT3( ( (Y2) >> 24 ) & 0xFF );    \
 854:D:/fchai/work/i-cube/I-CUBE-HUAWEI/Middlewares/Third_Party/Huawei/iot_link/network/dtls/mbedtls/mbedtls-2.16.2/library\aes.c ****                                                             \
 855:D:/fchai/work/i-cube/I-CUBE-HUAWEI/Middlewares/Third_Party/Huawei/iot_link/network/dtls/mbedtls/mbedtls-2.16.2/library\aes.c ****         (X2) = *RK++ ^ AES_RT0( ( (Y2)       ) & 0xFF ) ^   \
 856:D:/fchai/work/i-cube/I-CUBE-HUAWEI/Middlewares/Third_Party/Huawei/iot_link/network/dtls/mbedtls/mbedtls-2.16.2/library\aes.c ****                        AES_RT1( ( (Y1) >>  8 ) & 0xFF ) ^   \
 857:D:/fchai/work/i-cube/I-CUBE-HUAWEI/Middlewares/Third_Party/Huawei/iot_link/network/dtls/mbedtls/mbedtls-2.16.2/library\aes.c ****                        AES_RT2( ( (Y0) >> 16 ) & 0xFF ) ^   \
 858:D:/fchai/work/i-cube/I-CUBE-HUAWEI/Middlewares/Third_Party/Huawei/iot_link/network/dtls/mbedtls/mbedtls-2.16.2/library\aes.c ****                        AES_RT3( ( (Y3) >> 24 ) & 0xFF );    \
 859:D:/fchai/work/i-cube/I-CUBE-HUAWEI/Middlewares/Third_Party/Huawei/iot_link/network/dtls/mbedtls/mbedtls-2.16.2/library\aes.c ****                                                             \
 860:D:/fchai/work/i-cube/I-CUBE-HUAWEI/Middlewares/Third_Party/Huawei/iot_link/network/dtls/mbedtls/mbedtls-2.16.2/library\aes.c ****         (X3) = *RK++ ^ AES_RT0( ( (Y3)       ) & 0xFF ) ^   \
 861:D:/fchai/work/i-cube/I-CUBE-HUAWEI/Middlewares/Third_Party/Huawei/iot_link/network/dtls/mbedtls/mbedtls-2.16.2/library\aes.c ****                        AES_RT1( ( (Y2) >>  8 ) & 0xFF ) ^   \
 862:D:/fchai/work/i-cube/I-CUBE-HUAWEI/Middlewares/Third_Party/Huawei/iot_link/network/dtls/mbedtls/mbedtls-2.16.2/library\aes.c ****                        AES_RT2( ( (Y1) >> 16 ) & 0xFF ) ^   \
 863:D:/fchai/work/i-cube/I-CUBE-HUAWEI/Middlewares/Third_Party/Huawei/iot_link/network/dtls/mbedtls/mbedtls-2.16.2/library\aes.c ****                        AES_RT3( ( (Y0) >> 24 ) & 0xFF );    \
 864:D:/fchai/work/i-cube/I-CUBE-HUAWEI/Middlewares/Third_Party/Huawei/iot_link/network/dtls/mbedtls/mbedtls-2.16.2/library\aes.c ****     } while( 0 )
 865:D:/fchai/work/i-cube/I-CUBE-HUAWEI/Middlewares/Third_Party/Huawei/iot_link/network/dtls/mbedtls/mbedtls-2.16.2/library\aes.c **** 
 866:D:/fchai/work/i-cube/I-CUBE-HUAWEI/Middlewares/Third_Party/Huawei/iot_link/network/dtls/mbedtls/mbedtls-2.16.2/library\aes.c **** /*
 867:D:/fchai/work/i-cube/I-CUBE-HUAWEI/Middlewares/Third_Party/Huawei/iot_link/network/dtls/mbedtls/mbedtls-2.16.2/library\aes.c ****  * AES-ECB block encryption
 868:D:/fchai/work/i-cube/I-CUBE-HUAWEI/Middlewares/Third_Party/Huawei/iot_link/network/dtls/mbedtls/mbedtls-2.16.2/library\aes.c ****  */
 869:D:/fchai/work/i-cube/I-CUBE-HUAWEI/Middlewares/Third_Party/Huawei/iot_link/network/dtls/mbedtls/mbedtls-2.16.2/library\aes.c **** #if !defined(MBEDTLS_AES_ENCRYPT_ALT)
 870:D:/fchai/work/i-cube/I-CUBE-HUAWEI/Middlewares/Third_Party/Huawei/iot_link/network/dtls/mbedtls/mbedtls-2.16.2/library\aes.c **** int mbedtls_internal_aes_encrypt( mbedtls_aes_context *ctx,
 871:D:/fchai/work/i-cube/I-CUBE-HUAWEI/Middlewares/Third_Party/Huawei/iot_link/network/dtls/mbedtls/mbedtls-2.16.2/library\aes.c ****                                   const unsigned char input[16],
 872:D:/fchai/work/i-cube/I-CUBE-HUAWEI/Middlewares/Third_Party/Huawei/iot_link/network/dtls/mbedtls/mbedtls-2.16.2/library\aes.c ****                                   unsigned char output[16] )
 873:D:/fchai/work/i-cube/I-CUBE-HUAWEI/Middlewares/Third_Party/Huawei/iot_link/network/dtls/mbedtls/mbedtls-2.16.2/library\aes.c **** {
 836              		.loc 1 873 1 is_stmt 1 view -0
 837              		.cfi_startproc
 838              		@ args = 0, pretend = 0, frame = 48
 839              		@ frame_needed = 0, uses_anonymous_args = 0
 874:D:/fchai/work/i-cube/I-CUBE-HUAWEI/Middlewares/Third_Party/Huawei/iot_link/network/dtls/mbedtls/mbedtls-2.16.2/library\aes.c ****     int i;
 840              		.loc 1 874 5 view .LVU303
 875:D:/fchai/work/i-cube/I-CUBE-HUAWEI/Middlewares/Third_Party/Huawei/iot_link/network/dtls/mbedtls/mbedtls-2.16.2/library\aes.c ****     uint32_t *RK, X0, X1, X2, X3, Y0, Y1, Y2, Y3;
 841              		.loc 1 875 5 view .LVU304
 876:D:/fchai/work/i-cube/I-CUBE-HUAWEI/Middlewares/Third_Party/Huawei/iot_link/network/dtls/mbedtls/mbedtls-2.16.2/library\aes.c **** 
 877:D:/fchai/work/i-cube/I-CUBE-HUAWEI/Middlewares/Third_Party/Huawei/iot_link/network/dtls/mbedtls/mbedtls-2.16.2/library\aes.c ****     RK = ctx->rk;
 842              		.loc 1 877 5 view .LVU305
 873:D:/fchai/work/i-cube/I-CUBE-HUAWEI/Middlewares/Third_Party/Huawei/iot_link/network/dtls/mbedtls/mbedtls-2.16.2/library\aes.c ****     int i;
 843              		.loc 1 873 1 is_stmt 0 view .LVU306
 844 0000 2DE9F04F 		push	{r4, r5, r6, r7, r8, r9, r10, fp, lr}
 845              	.LCFI6:
 846              		.cfi_def_cfa_offset 36
 847              		.cfi_offset 4, -36
 848              		.cfi_offset 5, -32
 849              		.cfi_offset 6, -28
 850              		.cfi_offset 7, -24
 851              		.cfi_offset 8, -20
 852              		.cfi_offset 9, -16
 853              		.cfi_offset 10, -12
 854              		.cfi_offset 11, -8
 855              		.cfi_offset 14, -4
 856              		.loc 1 877 8 view .LVU307
 857 0004 D0E90076 		ldrd	r7, r6, [r0]
 858              	.LVL67:
 878:D:/fchai/work/i-cube/I-CUBE-HUAWEI/Middlewares/Third_Party/Huawei/iot_link/network/dtls/mbedtls/mbedtls-2.16.2/library\aes.c **** 
 879:D:/fchai/work/i-cube/I-CUBE-HUAWEI/Middlewares/Third_Party/Huawei/iot_link/network/dtls/mbedtls/mbedtls-2.16.2/library\aes.c ****     GET_UINT32_LE( X0, input,  0 ); X0 ^= *RK++;
 859              		.loc 1 879 5 is_stmt 1 view .LVU308
 880:D:/fchai/work/i-cube/I-CUBE-HUAWEI/Middlewares/Third_Party/Huawei/iot_link/network/dtls/mbedtls/mbedtls-2.16.2/library\aes.c ****     GET_UINT32_LE( X1, input,  4 ); X1 ^= *RK++;
 881:D:/fchai/work/i-cube/I-CUBE-HUAWEI/Middlewares/Third_Party/Huawei/iot_link/network/dtls/mbedtls/mbedtls-2.16.2/library\aes.c ****     GET_UINT32_LE( X2, input,  8 ); X2 ^= *RK++;
 860              		.loc 1 881 5 is_stmt 0 view .LVU309
ARM GAS  T:\msys\tmp\ccwessdu.s 			page 35


 861 0008 8D68     		ldr	r5, [r1, #8]	@ unaligned
 862              		.loc 1 881 40 view .LVU310
 863 000a B368     		ldr	r3, [r6, #8]
 879:D:/fchai/work/i-cube/I-CUBE-HUAWEI/Middlewares/Third_Party/Huawei/iot_link/network/dtls/mbedtls/mbedtls-2.16.2/library\aes.c ****     GET_UINT32_LE( X1, input,  4 ); X1 ^= *RK++;
 864              		.loc 1 879 5 view .LVU311
 865 000c D1F800E0 		ldr	lr, [r1]	@ unaligned
 866              	.LVL68:
 879:D:/fchai/work/i-cube/I-CUBE-HUAWEI/Middlewares/Third_Party/Huawei/iot_link/network/dtls/mbedtls/mbedtls-2.16.2/library\aes.c ****     GET_UINT32_LE( X1, input,  4 ); X1 ^= *RK++;
 867              		.loc 1 879 35 is_stmt 1 view .LVU312
 879:D:/fchai/work/i-cube/I-CUBE-HUAWEI/Middlewares/Third_Party/Huawei/iot_link/network/dtls/mbedtls/mbedtls-2.16.2/library\aes.c ****     GET_UINT32_LE( X1, input,  4 ); X1 ^= *RK++;
 868              		.loc 1 879 37 view .LVU313
 880:D:/fchai/work/i-cube/I-CUBE-HUAWEI/Middlewares/Third_Party/Huawei/iot_link/network/dtls/mbedtls/mbedtls-2.16.2/library\aes.c ****     GET_UINT32_LE( X1, input,  4 ); X1 ^= *RK++;
 869              		.loc 1 880 5 is_stmt 0 view .LVU314
 870 0010 D1F804C0 		ldr	ip, [r1, #4]	@ unaligned
 882:D:/fchai/work/i-cube/I-CUBE-HUAWEI/Middlewares/Third_Party/Huawei/iot_link/network/dtls/mbedtls/mbedtls-2.16.2/library\aes.c ****     GET_UINT32_LE( X3, input, 12 ); X3 ^= *RK++;
 871              		.loc 1 882 5 view .LVU315
 872 0014 CC68     		ldr	r4, [r1, #12]	@ unaligned
 880:D:/fchai/work/i-cube/I-CUBE-HUAWEI/Middlewares/Third_Party/Huawei/iot_link/network/dtls/mbedtls/mbedtls-2.16.2/library\aes.c ****     GET_UINT32_LE( X1, input,  4 ); X1 ^= *RK++;
 873              		.loc 1 880 40 view .LVU316
 874 0016 7068     		ldr	r0, [r6, #4]
 875              	.LVL69:
 880:D:/fchai/work/i-cube/I-CUBE-HUAWEI/Middlewares/Third_Party/Huawei/iot_link/network/dtls/mbedtls/mbedtls-2.16.2/library\aes.c ****     GET_UINT32_LE( X1, input,  4 ); X1 ^= *RK++;
 876              		.loc 1 880 40 view .LVU317
 877 0018 DFF86CB3 		ldr	fp, .L50+16
 873:D:/fchai/work/i-cube/I-CUBE-HUAWEI/Middlewares/Third_Party/Huawei/iot_link/network/dtls/mbedtls/mbedtls-2.16.2/library\aes.c ****     int i;
 878              		.loc 1 873 1 view .LVU318
 879 001c 8DB0     		sub	sp, sp, #52
 880              	.LCFI7:
 881              		.cfi_def_cfa_offset 88
 881:D:/fchai/work/i-cube/I-CUBE-HUAWEI/Middlewares/Third_Party/Huawei/iot_link/network/dtls/mbedtls/mbedtls-2.16.2/library\aes.c ****     GET_UINT32_LE( X3, input, 12 ); X3 ^= *RK++;
 882              		.loc 1 881 40 view .LVU319
 883 001e 6B40     		eors	r3, r3, r5
 883:D:/fchai/work/i-cube/I-CUBE-HUAWEI/Middlewares/Third_Party/Huawei/iot_link/network/dtls/mbedtls/mbedtls-2.16.2/library\aes.c **** 
 884:D:/fchai/work/i-cube/I-CUBE-HUAWEI/Middlewares/Third_Party/Huawei/iot_link/network/dtls/mbedtls/mbedtls-2.16.2/library\aes.c ****     for( i = ( ctx->nr >> 1 ) - 1; i > 0; i-- )
 884              		.loc 1 884 24 view .LVU320
 885 0020 7910     		asrs	r1, r7, #1
 886              	.LVL70:
 881:D:/fchai/work/i-cube/I-CUBE-HUAWEI/Middlewares/Third_Party/Huawei/iot_link/network/dtls/mbedtls/mbedtls-2.16.2/library\aes.c ****     GET_UINT32_LE( X3, input, 12 ); X3 ^= *RK++;
 887              		.loc 1 881 40 view .LVU321
 888 0022 0593     		str	r3, [sp, #20]
 882:D:/fchai/work/i-cube/I-CUBE-HUAWEI/Middlewares/Third_Party/Huawei/iot_link/network/dtls/mbedtls/mbedtls-2.16.2/library\aes.c **** 
 889              		.loc 1 882 46 view .LVU322
 890 0024 06F11003 		add	r3, r6, #16
 891              		.loc 1 884 12 view .LVU323
 892 0028 4F1E     		subs	r7, r1, #1
 882:D:/fchai/work/i-cube/I-CUBE-HUAWEI/Middlewares/Third_Party/Huawei/iot_link/network/dtls/mbedtls/mbedtls-2.16.2/library\aes.c **** 
 893              		.loc 1 882 46 view .LVU324
 894 002a 0993     		str	r3, [sp, #36]
 895 002c D24B     		ldr	r3, .L50
 882:D:/fchai/work/i-cube/I-CUBE-HUAWEI/Middlewares/Third_Party/Huawei/iot_link/network/dtls/mbedtls/mbedtls-2.16.2/library\aes.c **** 
 896              		.loc 1 882 40 view .LVU325
 897 002e F168     		ldr	r1, [r6, #12]
 898 0030 0293     		str	r3, [sp, #8]
 873:D:/fchai/work/i-cube/I-CUBE-HUAWEI/Middlewares/Third_Party/Huawei/iot_link/network/dtls/mbedtls/mbedtls-2.16.2/library\aes.c ****     int i;
 899              		.loc 1 873 1 view .LVU326
 900 0032 CDE90A27 		strd	r2, r7, [sp, #40]
 901 0036 D14B     		ldr	r3, .L50+4
ARM GAS  T:\msys\tmp\ccwessdu.s 			page 36


 879:D:/fchai/work/i-cube/I-CUBE-HUAWEI/Middlewares/Third_Party/Huawei/iot_link/network/dtls/mbedtls/mbedtls-2.16.2/library\aes.c ****     GET_UINT32_LE( X1, input,  4 ); X1 ^= *RK++;
 902              		.loc 1 879 40 view .LVU327
 903 0038 3268     		ldr	r2, [r6]
 904              	.LVL71:
 879:D:/fchai/work/i-cube/I-CUBE-HUAWEI/Middlewares/Third_Party/Huawei/iot_link/network/dtls/mbedtls/mbedtls-2.16.2/library\aes.c ****     GET_UINT32_LE( X1, input,  4 ); X1 ^= *RK++;
 905              		.loc 1 879 40 view .LVU328
 906 003a 0493     		str	r3, [sp, #16]
 907              		.loc 1 884 5 view .LVU329
 908 003c 002F     		cmp	r7, #0
 909 003e D04B     		ldr	r3, .L50+8
 910              		.loc 1 884 12 view .LVU330
 911 0040 0697     		str	r7, [sp, #24]
 879:D:/fchai/work/i-cube/I-CUBE-HUAWEI/Middlewares/Third_Party/Huawei/iot_link/network/dtls/mbedtls/mbedtls-2.16.2/library\aes.c ****     GET_UINT32_LE( X1, input,  4 ); X1 ^= *RK++;
 912              		.loc 1 879 40 view .LVU331
 913 0042 8EEA0202 		eor	r2, lr, r2
 914              	.LVL72:
 880:D:/fchai/work/i-cube/I-CUBE-HUAWEI/Middlewares/Third_Party/Huawei/iot_link/network/dtls/mbedtls/mbedtls-2.16.2/library\aes.c ****     GET_UINT32_LE( X2, input,  8 ); X2 ^= *RK++;
 915              		.loc 1 880 5 is_stmt 1 view .LVU332
 880:D:/fchai/work/i-cube/I-CUBE-HUAWEI/Middlewares/Third_Party/Huawei/iot_link/network/dtls/mbedtls/mbedtls-2.16.2/library\aes.c ****     GET_UINT32_LE( X2, input,  8 ); X2 ^= *RK++;
 916              		.loc 1 880 35 view .LVU333
 880:D:/fchai/work/i-cube/I-CUBE-HUAWEI/Middlewares/Third_Party/Huawei/iot_link/network/dtls/mbedtls/mbedtls-2.16.2/library\aes.c ****     GET_UINT32_LE( X2, input,  8 ); X2 ^= *RK++;
 917              		.loc 1 880 37 view .LVU334
 880:D:/fchai/work/i-cube/I-CUBE-HUAWEI/Middlewares/Third_Party/Huawei/iot_link/network/dtls/mbedtls/mbedtls-2.16.2/library\aes.c ****     GET_UINT32_LE( X2, input,  8 ); X2 ^= *RK++;
 918              		.loc 1 880 40 is_stmt 0 view .LVU335
 919 0046 8CEA000C 		eor	ip, ip, r0
 920              	.LVL73:
 881:D:/fchai/work/i-cube/I-CUBE-HUAWEI/Middlewares/Third_Party/Huawei/iot_link/network/dtls/mbedtls/mbedtls-2.16.2/library\aes.c ****     GET_UINT32_LE( X3, input, 12 ); X3 ^= *RK++;
 921              		.loc 1 881 5 is_stmt 1 view .LVU336
 881:D:/fchai/work/i-cube/I-CUBE-HUAWEI/Middlewares/Third_Party/Huawei/iot_link/network/dtls/mbedtls/mbedtls-2.16.2/library\aes.c ****     GET_UINT32_LE( X3, input, 12 ); X3 ^= *RK++;
 922              		.loc 1 881 35 view .LVU337
 881:D:/fchai/work/i-cube/I-CUBE-HUAWEI/Middlewares/Third_Party/Huawei/iot_link/network/dtls/mbedtls/mbedtls-2.16.2/library\aes.c ****     GET_UINT32_LE( X3, input, 12 ); X3 ^= *RK++;
 923              		.loc 1 881 37 view .LVU338
 882:D:/fchai/work/i-cube/I-CUBE-HUAWEI/Middlewares/Third_Party/Huawei/iot_link/network/dtls/mbedtls/mbedtls-2.16.2/library\aes.c **** 
 924              		.loc 1 882 5 view .LVU339
 882:D:/fchai/work/i-cube/I-CUBE-HUAWEI/Middlewares/Third_Party/Huawei/iot_link/network/dtls/mbedtls/mbedtls-2.16.2/library\aes.c **** 
 925              		.loc 1 882 35 view .LVU340
 882:D:/fchai/work/i-cube/I-CUBE-HUAWEI/Middlewares/Third_Party/Huawei/iot_link/network/dtls/mbedtls/mbedtls-2.16.2/library\aes.c **** 
 926              		.loc 1 882 37 view .LVU341
 882:D:/fchai/work/i-cube/I-CUBE-HUAWEI/Middlewares/Third_Party/Huawei/iot_link/network/dtls/mbedtls/mbedtls-2.16.2/library\aes.c **** 
 927              		.loc 1 882 40 is_stmt 0 view .LVU342
 928 004a 84EA010A 		eor	r10, r4, r1
 929              	.LVL74:
 930              		.loc 1 884 5 is_stmt 1 view .LVU343
 931              		.loc 1 884 36 view .LVU344
 932 004e 0393     		str	r3, [sp, #12]
 933              		.loc 1 884 5 is_stmt 0 view .LVU345
 934 0050 40F3EB80 		ble	.L44
 935 0054 3036     		adds	r6, r6, #48
 936 0056 0196     		str	r6, [sp, #4]
 937              	.LVL75:
 938              	.L45:
 885:D:/fchai/work/i-cube/I-CUBE-HUAWEI/Middlewares/Third_Party/Huawei/iot_link/network/dtls/mbedtls/mbedtls-2.16.2/library\aes.c ****     {
 886:D:/fchai/work/i-cube/I-CUBE-HUAWEI/Middlewares/Third_Party/Huawei/iot_link/network/dtls/mbedtls/mbedtls-2.16.2/library\aes.c ****         AES_FROUND( Y0, Y1, Y2, Y3, X0, X1, X2, X3 );
 939              		.loc 1 886 9 is_stmt 1 discriminator 3 view .LVU346
 940              		.loc 1 886 9 discriminator 3 view .LVU347
 941              		.loc 1 886 9 is_stmt 0 discriminator 3 view .LVU348
 942 0058 DDF81490 		ldr	r9, [sp, #20]
ARM GAS  T:\msys\tmp\ccwessdu.s 			page 37


 943 005c 029E     		ldr	r6, [sp, #8]
 944 005e 019B     		ldr	r3, [sp, #4]
 945 0060 5FFA8AF5 		uxtb	r5, r10
 946 0064 5FFA8CF4 		uxtb	r4, ip
 947 0068 D7B2     		uxtb	r7, r2
 948 006a 5FFA89F1 		uxtb	r1, r9
 949 006e 56F82580 		ldr	r8, [r6, r5, lsl #2]
 950 0072 56F82770 		ldr	r7, [r6, r7, lsl #2]
 951 0076 56F82450 		ldr	r5, [r6, r4, lsl #2]
 952 007a 56F82110 		ldr	r1, [r6, r1, lsl #2]
 953 007e 049E     		ldr	r6, [sp, #16]
 954 0080 53F8144C 		ldr	r4, [r3, #-20]
 955 0084 4FEA1A60 		lsr	r0, r10, #24
 956 0088 88EA0408 		eor	r8, r8, r4
 957 008c 56F820E0 		ldr	lr, [r6, r0, lsl #2]
 958 0090 53F81C0C 		ldr	r0, [r3, #-28]
 959 0094 53F8203C 		ldr	r3, [r3, #-32]
 960 0098 6840     		eors	r0, r0, r5
 961 009a 4FEA1C65 		lsr	r5, ip, #24
 962 009e 4C46     		mov	r4, r9
 963 00a0 240E     		lsrs	r4, r4, #24
 964 00a2 56F82590 		ldr	r9, [r6, r5, lsl #2]
 965 00a6 019D     		ldr	r5, [sp, #4]
 966 00a8 56F82440 		ldr	r4, [r6, r4, lsl #2]
 967 00ac 55F8185C 		ldr	r5, [r5, #-24]
 968 00b0 88EA0404 		eor	r4, r8, r4
 969 00b4 6940     		eors	r1, r1, r5
 970 00b6 C2F30728 		ubfx	r8, r2, #8, #8
 971 00ba 150E     		lsrs	r5, r2, #24
 972 00bc C2F30742 		ubfx	r2, r2, #16, #8
 973              	.LVL76:
 974              		.loc 1 886 9 discriminator 3 view .LVU349
 975 00c0 5F40     		eors	r7, r7, r3
 976 00c2 5BF82220 		ldr	r2, [fp, r2, lsl #2]
 977 00c6 039B     		ldr	r3, [sp, #12]
 978 00c8 0792     		str	r2, [sp, #28]
 979 00ca 87EA0E07 		eor	r7, r7, lr
 980 00ce 059A     		ldr	r2, [sp, #20]
 981 00d0 53F82880 		ldr	r8, [r3, r8, lsl #2]
 982 00d4 56F82550 		ldr	r5, [r6, r5, lsl #2]
 983 00d8 CCF3072E 		ubfx	lr, ip, #8, #8
 984 00dc 1E46     		mov	r6, r3
 985 00de 53F82EE0 		ldr	lr, [r3, lr, lsl #2]
 986 00e2 81EA0901 		eor	r1, r1, r9
 987 00e6 C2F30743 		ubfx	r3, r2, #16, #8
 988 00ea CAF30729 		ubfx	r9, r10, #8, #8
 989 00ee 5BF82330 		ldr	r3, [fp, r3, lsl #2]
 990 00f2 56F82990 		ldr	r9, [r6, r9, lsl #2]
 991 00f6 4540     		eors	r5, r5, r0
 992 00f8 CCF3074C 		ubfx	ip, ip, #16, #8
 993              	.LVL77:
 994              		.loc 1 886 9 discriminator 3 view .LVU350
 995 00fc C2F30720 		ubfx	r0, r2, #8, #8
 996 0100 87EA0E07 		eor	r7, r7, lr
 997 0104 079A     		ldr	r2, [sp, #28]
 998 0106 5BF82CC0 		ldr	ip, [fp, ip, lsl #2]
 999 010a 56F82000 		ldr	r0, [r6, r0, lsl #2]
ARM GAS  T:\msys\tmp\ccwessdu.s 			page 38


 1000 010e 81EA0901 		eor	r1, r1, r9
 1001 0112 87EA0306 		eor	r6, r7, r3
 1002              	.LVL78:
 1003              		.loc 1 886 9 is_stmt 1 discriminator 3 view .LVU351
 1004              		.loc 1 886 9 is_stmt 0 discriminator 3 view .LVU352
 1005 0116 CAF3074A 		ubfx	r10, r10, #16, #8
 1006              	.LVL79:
 1007              		.loc 1 886 9 discriminator 3 view .LVU353
 1008 011a 4A40     		eors	r2, r2, r1
 1009 011c 84EA0804 		eor	r4, r4, r8
 887:D:/fchai/work/i-cube/I-CUBE-HUAWEI/Middlewares/Third_Party/Huawei/iot_link/network/dtls/mbedtls/mbedtls-2.16.2/library\aes.c ****         AES_FROUND( X0, X1, X2, X3, Y0, Y1, Y2, Y3 );
 1010              		.loc 1 887 9 discriminator 3 view .LVU354
 1011 0120 0596     		str	r6, [sp, #20]
 1012              	.LVL80:
 1013              		.loc 1 887 9 discriminator 3 view .LVU355
 1014 0122 5FFA86F8 		uxtb	r8, r6
 1015 0126 310E     		lsrs	r1, r6, #24
 1016 0128 029E     		ldr	r6, [sp, #8]
 1017              	.LVL81:
 886:D:/fchai/work/i-cube/I-CUBE-HUAWEI/Middlewares/Third_Party/Huawei/iot_link/network/dtls/mbedtls/mbedtls-2.16.2/library\aes.c ****         AES_FROUND( X0, X1, X2, X3, Y0, Y1, Y2, Y3 );
 1018              		.loc 1 886 9 discriminator 3 view .LVU356
 1019 012a 5BF82AA0 		ldr	r10, [fp, r10, lsl #2]
 1020              		.loc 1 887 9 discriminator 3 view .LVU357
 1021 012e 56F82880 		ldr	r8, [r6, r8, lsl #2]
 1022 0132 049E     		ldr	r6, [sp, #16]
 1023 0134 039F     		ldr	r7, [sp, #12]
 886:D:/fchai/work/i-cube/I-CUBE-HUAWEI/Middlewares/Third_Party/Huawei/iot_link/network/dtls/mbedtls/mbedtls-2.16.2/library\aes.c ****         AES_FROUND( X0, X1, X2, X3, Y0, Y1, Y2, Y3 );
 1024              		.loc 1 886 9 discriminator 3 view .LVU358
 1025 0136 84EA0C04 		eor	r4, r4, ip
 1026 013a 6840     		eors	r0, r0, r5
 1027              		.loc 1 887 9 discriminator 3 view .LVU359
 1028 013c 4FEA146C 		lsr	ip, r4, #24
 886:D:/fchai/work/i-cube/I-CUBE-HUAWEI/Middlewares/Third_Party/Huawei/iot_link/network/dtls/mbedtls/mbedtls-2.16.2/library\aes.c ****         AES_FROUND( X0, X1, X2, X3, Y0, Y1, Y2, Y3 );
 1029              		.loc 1 886 9 discriminator 3 view .LVU360
 1030 0140 80EA0A00 		eor	r0, r0, r10
 1031              	.LVL82:
 886:D:/fchai/work/i-cube/I-CUBE-HUAWEI/Middlewares/Third_Party/Huawei/iot_link/network/dtls/mbedtls/mbedtls-2.16.2/library\aes.c ****         AES_FROUND( X0, X1, X2, X3, Y0, Y1, Y2, Y3 );
 1032              		.loc 1 886 9 is_stmt 1 discriminator 3 view .LVU361
 886:D:/fchai/work/i-cube/I-CUBE-HUAWEI/Middlewares/Third_Party/Huawei/iot_link/network/dtls/mbedtls/mbedtls-2.16.2/library\aes.c ****         AES_FROUND( X0, X1, X2, X3, Y0, Y1, Y2, Y3 );
 1033              		.loc 1 886 9 discriminator 3 view .LVU362
 886:D:/fchai/work/i-cube/I-CUBE-HUAWEI/Middlewares/Third_Party/Huawei/iot_link/network/dtls/mbedtls/mbedtls-2.16.2/library\aes.c ****         AES_FROUND( X0, X1, X2, X3, Y0, Y1, Y2, Y3 );
 1034              		.loc 1 886 9 discriminator 3 view .LVU363
 1035              		.loc 1 887 9 discriminator 3 view .LVU364
 1036              		.loc 1 887 9 discriminator 3 view .LVU365
 1037              		.loc 1 887 9 is_stmt 0 discriminator 3 view .LVU366
 1038 0144 56F82CC0 		ldr	ip, [r6, ip, lsl #2]
 1039 0148 029E     		ldr	r6, [sp, #8]
 1040 014a C5B2     		uxtb	r5, r0
 1041 014c C2F30749 		ubfx	r9, r2, #16, #8
 1042 0150 C0F30723 		ubfx	r3, r0, #8, #8
 1043 0154 56F82550 		ldr	r5, [r6, r5, lsl #2]
 1044 0158 049E     		ldr	r6, [sp, #16]
 1045 015a 57F82330 		ldr	r3, [r7, r3, lsl #2]
 1046 015e 5BF82970 		ldr	r7, [fp, r9, lsl #2]
 1047 0162 56F82110 		ldr	r1, [r6, r1, lsl #2]
 1048 0166 0797     		str	r7, [sp, #28]
 1049 0168 C2F3072E 		ubfx	lr, r2, #8, #8
ARM GAS  T:\msys\tmp\ccwessdu.s 			page 39


 1050 016c 039F     		ldr	r7, [sp, #12]
 1051 016e 57F82E70 		ldr	r7, [r7, lr, lsl #2]
 1052 0172 0897     		str	r7, [sp, #32]
 1053 0174 85EA010E 		eor	lr, r5, r1
 1054 0178 0299     		ldr	r1, [sp, #8]
 1055 017a 019F     		ldr	r7, [sp, #4]
 1056 017c D5B2     		uxtb	r5, r2
 1057 017e 88EA0C08 		eor	r8, r8, ip
 1058 0182 51F82550 		ldr	r5, [r1, r5, lsl #2]
 1059 0186 0199     		ldr	r1, [sp, #4]
 1060 0188 C4F3074C 		ubfx	ip, r4, #16, #8
 1061 018c 51F8101C 		ldr	r1, [r1, #-16]
 1062 0190 5BF82CA0 		ldr	r10, [fp, ip, lsl #2]
 1063 0194 4FEA106C 		lsr	ip, r0, #24
 1064 0198 88EA0108 		eor	r8, r8, r1
 1065 019c 56F82C10 		ldr	r1, [r6, ip, lsl #2]
 1066 01a0 85EA0109 		eor	r9, r5, r1
 1067 01a4 57F80C1C 		ldr	r1, [r7, #-12]
 1068 01a8 E5B2     		uxtb	r5, r4
 1069 01aa 8EEA010E 		eor	lr, lr, r1
 1070 01ae 120E     		lsrs	r2, r2, #24
 1071              	.LVL83:
 1072              		.loc 1 887 9 discriminator 3 view .LVU367
 1073 01b0 0299     		ldr	r1, [sp, #8]
 1074 01b2 56F82220 		ldr	r2, [r6, r2, lsl #2]
 1075 01b6 51F82510 		ldr	r1, [r1, r5, lsl #2]
 1076 01ba 019E     		ldr	r6, [sp, #4]
 1077 01bc 039D     		ldr	r5, [sp, #12]
 1078 01be 88EA0308 		eor	r8, r8, r3
 1079 01c2 5140     		eors	r1, r1, r2
 1080 01c4 57F8083C 		ldr	r3, [r7, #-8]
 1081 01c8 059A     		ldr	r2, [sp, #20]
 1082 01ca 89EA0309 		eor	r9, r9, r3
 1083 01ce C2F30747 		ubfx	r7, r2, #16, #8
 1084 01d2 C2F30723 		ubfx	r3, r2, #8, #8
 1085 01d6 C0F30740 		ubfx	r0, r0, #16, #8
 1086              	.LVL84:
 1087              		.loc 1 887 9 discriminator 3 view .LVU368
 1088 01da C4F30724 		ubfx	r4, r4, #8, #8
 1089              	.LVL85:
 1090              		.loc 1 887 9 discriminator 3 view .LVU369
 1091 01de 55F82320 		ldr	r2, [r5, r3, lsl #2]
 1092 01e2 55F82440 		ldr	r4, [r5, r4, lsl #2]
 1093 01e6 5BF82000 		ldr	r0, [fp, r0, lsl #2]
 1094 01ea 5BF82770 		ldr	r7, [fp, r7, lsl #2]
 1095 01ee 56F8045C 		ldr	r5, [r6, #-4]
 1096 01f2 089B     		ldr	r3, [sp, #32]
 1097 01f4 8EEA030E 		eor	lr, lr, r3
 1098 01f8 89EA0403 		eor	r3, r9, r4
 1099 01fc 7B40     		eors	r3, r3, r7
 1100 01fe 4D40     		eors	r5, r5, r1
 1101 0200 0593     		str	r3, [sp, #20]
 1102              	.LVL86:
 884:D:/fchai/work/i-cube/I-CUBE-HUAWEI/Middlewares/Third_Party/Huawei/iot_link/network/dtls/mbedtls/mbedtls-2.16.2/library\aes.c ****     {
 1103              		.loc 1 884 5 discriminator 3 view .LVU370
 1104 0202 069B     		ldr	r3, [sp, #24]
 1105              		.loc 1 887 9 discriminator 3 view .LVU371
ARM GAS  T:\msys\tmp\ccwessdu.s 			page 40


 1106 0204 5540     		eors	r5, r5, r2
 1107 0206 079A     		ldr	r2, [sp, #28]
 1108 0208 2036     		adds	r6, r6, #32
 884:D:/fchai/work/i-cube/I-CUBE-HUAWEI/Middlewares/Third_Party/Huawei/iot_link/network/dtls/mbedtls/mbedtls-2.16.2/library\aes.c ****     {
 1109              		.loc 1 884 5 discriminator 3 view .LVU372
 1110 020a 013B     		subs	r3, r3, #1
 1111              		.loc 1 887 9 discriminator 3 view .LVU373
 1112 020c 8EEA0A0C 		eor	ip, lr, r10
 1113 0210 88EA0202 		eor	r2, r8, r2
 1114              	.LVL87:
 1115              		.loc 1 887 9 is_stmt 1 discriminator 3 view .LVU374
 1116              		.loc 1 887 9 discriminator 3 view .LVU375
 1117              		.loc 1 887 9 discriminator 3 view .LVU376
 1118              		.loc 1 887 9 is_stmt 0 discriminator 3 view .LVU377
 1119 0214 85EA000A 		eor	r10, r5, r0
 1120              	.LVL88:
 1121              		.loc 1 887 9 is_stmt 1 discriminator 3 view .LVU378
 884:D:/fchai/work/i-cube/I-CUBE-HUAWEI/Middlewares/Third_Party/Huawei/iot_link/network/dtls/mbedtls/mbedtls-2.16.2/library\aes.c ****     {
 1122              		.loc 1 884 43 discriminator 3 view .LVU379
 884:D:/fchai/work/i-cube/I-CUBE-HUAWEI/Middlewares/Third_Party/Huawei/iot_link/network/dtls/mbedtls/mbedtls-2.16.2/library\aes.c ****     {
 1123              		.loc 1 884 36 discriminator 3 view .LVU380
 1124 0218 0196     		str	r6, [sp, #4]
 884:D:/fchai/work/i-cube/I-CUBE-HUAWEI/Middlewares/Third_Party/Huawei/iot_link/network/dtls/mbedtls/mbedtls-2.16.2/library\aes.c ****     {
 1125              		.loc 1 884 5 is_stmt 0 discriminator 3 view .LVU381
 1126 021a 0693     		str	r3, [sp, #24]
 1127 021c 7FF41CAF 		bne	.L45
 1128 0220 099B     		ldr	r3, [sp, #36]
 1129              	.LVL89:
 884:D:/fchai/work/i-cube/I-CUBE-HUAWEI/Middlewares/Third_Party/Huawei/iot_link/network/dtls/mbedtls/mbedtls-2.16.2/library\aes.c ****     {
 1130              		.loc 1 884 5 discriminator 3 view .LVU382
 1131 0222 0B99     		ldr	r1, [sp, #44]
 1132 0224 03EB4113 		add	r3, r3, r1, lsl #5
 1133 0228 0993     		str	r3, [sp, #36]
 1134              	.L44:
 888:D:/fchai/work/i-cube/I-CUBE-HUAWEI/Middlewares/Third_Party/Huawei/iot_link/network/dtls/mbedtls/mbedtls-2.16.2/library\aes.c ****     }
 889:D:/fchai/work/i-cube/I-CUBE-HUAWEI/Middlewares/Third_Party/Huawei/iot_link/network/dtls/mbedtls/mbedtls-2.16.2/library\aes.c **** 
 890:D:/fchai/work/i-cube/I-CUBE-HUAWEI/Middlewares/Third_Party/Huawei/iot_link/network/dtls/mbedtls/mbedtls-2.16.2/library\aes.c ****     AES_FROUND( Y0, Y1, Y2, Y3, X0, X1, X2, X3 );
 1135              		.loc 1 890 5 is_stmt 1 view .LVU383
 1136              		.loc 1 890 5 view .LVU384
 1137              	.LVL90:
 1138              		.loc 1 890 5 is_stmt 0 view .LVU385
 1139 022a 029C     		ldr	r4, [sp, #8]
 1140 022c 059B     		ldr	r3, [sp, #20]
 1141 022e D7B2     		uxtb	r7, r2
 1142 0230 4FEA1A65 		lsr	r5, r10, #24
 1143 0234 54F82770 		ldr	r7, [r4, r7, lsl #2]
 1144 0238 049C     		ldr	r4, [sp, #16]
 1145 023a 5FFA8AF6 		uxtb	r6, r10
 1146 023e 54F82550 		ldr	r5, [r4, r5, lsl #2]
 1147 0242 029C     		ldr	r4, [sp, #8]
 1148 0244 190E     		lsrs	r1, r3, #24
 1149 0246 54F826E0 		ldr	lr, [r4, r6, lsl #2]
 1150 024a 049E     		ldr	r6, [sp, #16]
 1151 024c 5FFA8CF0 		uxtb	r0, ip
 1152 0250 56F82110 		ldr	r1, [r6, r1, lsl #2]
 1153 0254 54F82000 		ldr	r0, [r4, r0, lsl #2]
 1154 0258 2646     		mov	r6, r4
ARM GAS  T:\msys\tmp\ccwessdu.s 			page 41


 1155 025a 4FEA1C68 		lsr	r8, ip, #24
 1156 025e 049C     		ldr	r4, [sp, #16]
 1157 0260 54F82880 		ldr	r8, [r4, r8, lsl #2]
 1158 0264 099C     		ldr	r4, [sp, #36]
 1159 0266 87EA0509 		eor	r9, r7, r5
 1160 026a 2368     		ldr	r3, [r4]
 1161 026c 049F     		ldr	r7, [sp, #16]
 1162 026e 0193     		str	r3, [sp, #4]
 1163 0270 140E     		lsrs	r4, r2, #24
 1164 0272 CCF30725 		ubfx	r5, ip, #8, #8
 1165 0276 57F82440 		ldr	r4, [r7, r4, lsl #2]
 1166 027a 039F     		ldr	r7, [sp, #12]
 1167 027c 57F82530 		ldr	r3, [r7, r5, lsl #2]
 1168 0280 0293     		str	r3, [sp, #8]
 1169 0282 059B     		ldr	r3, [sp, #20]
 1170 0284 CCF3074C 		ubfx	ip, ip, #16, #8
 1171              	.LVL91:
 1172              		.loc 1 890 5 view .LVU386
 1173 0288 DDB2     		uxtb	r5, r3
 1174 028a 8EEA0101 		eor	r1, lr, r1
 1175 028e 80EA040E 		eor	lr, r0, r4
 1176 0292 C2F30720 		ubfx	r0, r2, #8, #8
 1177 0296 C2F30742 		ubfx	r2, r2, #16, #8
 1178              	.LVL92:
 1179              		.loc 1 890 5 view .LVU387
 1180 029a 56F82550 		ldr	r5, [r6, r5, lsl #2]
 1181 029e 5BF82C60 		ldr	r6, [fp, ip, lsl #2]
 1182 02a2 57F82000 		ldr	r0, [r7, r0, lsl #2]
 1183 02a6 0496     		str	r6, [sp, #16]
 1184 02a8 3E46     		mov	r6, r7
 1185 02aa 5BF82270 		ldr	r7, [fp, r2, lsl #2]
 1186 02ae 099A     		ldr	r2, [sp, #36]
 1187 02b0 85EA0808 		eor	r8, r5, r8
 1188 02b4 D468     		ldr	r4, [r2, #12]
 1189 02b6 C3F30745 		ubfx	r5, r3, #16, #8
 1190 02ba C3F30722 		ubfx	r2, r3, #8, #8
 1191 02be CAF3072C 		ubfx	ip, r10, #8, #8
 1192 02c2 56F82230 		ldr	r3, [r6, r2, lsl #2]
 1193 02c6 5BF82520 		ldr	r2, [fp, r5, lsl #2]
 1194 02ca 099D     		ldr	r5, [sp, #36]
 1195 02cc 6D68     		ldr	r5, [r5, #4]
 1196 02ce 0395     		str	r5, [sp, #12]
 1197 02d0 6140     		eors	r1, r1, r4
 1198 02d2 019D     		ldr	r5, [sp, #4]
 1199 02d4 CAF30744 		ubfx	r4, r10, #16, #8
 1200 02d8 89EA0505 		eor	r5, r9, r5
 1201 02dc 56F82C90 		ldr	r9, [r6, ip, lsl #2]
 1202 02e0 5BF824C0 		ldr	ip, [fp, r4, lsl #2]
 1203 02e4 099C     		ldr	r4, [sp, #36]
 1204 02e6 A468     		ldr	r4, [r4, #8]
 1205 02e8 2646     		mov	r6, r4
 1206 02ea 88EA0608 		eor	r8, r8, r6
 1207 02ee 039C     		ldr	r4, [sp, #12]
 1208 02f0 029E     		ldr	r6, [sp, #8]
 1209 02f2 8EEA040A 		eor	r10, lr, r4
 1210              	.LVL93:
 1211              		.loc 1 890 5 view .LVU388
ARM GAS  T:\msys\tmp\ccwessdu.s 			page 42


 1212 02f6 7540     		eors	r5, r5, r6
 1213 02f8 88EA0908 		eor	r8, r8, r9
 1214 02fc 049E     		ldr	r6, [sp, #16]
 891:D:/fchai/work/i-cube/I-CUBE-HUAWEI/Middlewares/Third_Party/Huawei/iot_link/network/dtls/mbedtls/mbedtls-2.16.2/library\aes.c **** 
 892:D:/fchai/work/i-cube/I-CUBE-HUAWEI/Middlewares/Third_Party/Huawei/iot_link/network/dtls/mbedtls/mbedtls-2.16.2/library\aes.c ****     X0 = *RK++ ^ \
 893:D:/fchai/work/i-cube/I-CUBE-HUAWEI/Middlewares/Third_Party/Huawei/iot_link/network/dtls/mbedtls/mbedtls-2.16.2/library\aes.c ****             ( (uint32_t) FSb[ ( Y0       ) & 0xFF ]       ) ^
 1215              		.loc 1 893 15 view .LVU389
 1216 02fe 214C     		ldr	r4, .L50+12
 890:D:/fchai/work/i-cube/I-CUBE-HUAWEI/Middlewares/Third_Party/Huawei/iot_link/network/dtls/mbedtls/mbedtls-2.16.2/library\aes.c **** 
 1217              		.loc 1 890 5 view .LVU390
 1218 0300 4140     		eors	r1, r1, r0
 1219 0302 8AEA0303 		eor	r3, r10, r3
 1220 0306 85EA0200 		eor	r0, r5, r2
 1221              	.LVL94:
 890:D:/fchai/work/i-cube/I-CUBE-HUAWEI/Middlewares/Third_Party/Huawei/iot_link/network/dtls/mbedtls/mbedtls-2.16.2/library\aes.c **** 
 1222              		.loc 1 890 5 is_stmt 1 view .LVU391
 890:D:/fchai/work/i-cube/I-CUBE-HUAWEI/Middlewares/Third_Party/Huawei/iot_link/network/dtls/mbedtls/mbedtls-2.16.2/library\aes.c **** 
 1223              		.loc 1 890 5 is_stmt 0 view .LVU392
 1224 030a 88EA0702 		eor	r2, r8, r7
 1225 030e 83EA0C03 		eor	r3, r3, ip
 1226              	.LVL95:
 890:D:/fchai/work/i-cube/I-CUBE-HUAWEI/Middlewares/Third_Party/Huawei/iot_link/network/dtls/mbedtls/mbedtls-2.16.2/library\aes.c **** 
 1227              		.loc 1 890 5 is_stmt 1 view .LVU393
 890:D:/fchai/work/i-cube/I-CUBE-HUAWEI/Middlewares/Third_Party/Huawei/iot_link/network/dtls/mbedtls/mbedtls-2.16.2/library\aes.c **** 
 1228              		.loc 1 890 5 view .LVU394
 1229              		.loc 1 893 44 is_stmt 0 view .LVU395
 1230 0312 5FFA80FB 		uxtb	fp, r0
 894:D:/fchai/work/i-cube/I-CUBE-HUAWEI/Middlewares/Third_Party/Huawei/iot_link/network/dtls/mbedtls/mbedtls-2.16.2/library\aes.c ****             ( (uint32_t) FSb[ ( Y1 >>  8 ) & 0xFF ] <<  8 ) ^
 895:D:/fchai/work/i-cube/I-CUBE-HUAWEI/Middlewares/Third_Party/Huawei/iot_link/network/dtls/mbedtls/mbedtls-2.16.2/library\aes.c ****             ( (uint32_t) FSb[ ( Y2 >> 16 ) & 0xFF ] << 16 ) ^
 896:D:/fchai/work/i-cube/I-CUBE-HUAWEI/Middlewares/Third_Party/Huawei/iot_link/network/dtls/mbedtls/mbedtls-2.16.2/library\aes.c ****             ( (uint32_t) FSb[ ( Y3 >> 24 ) & 0xFF ] << 24 );
 897:D:/fchai/work/i-cube/I-CUBE-HUAWEI/Middlewares/Third_Party/Huawei/iot_link/network/dtls/mbedtls/mbedtls-2.16.2/library\aes.c **** 
 898:D:/fchai/work/i-cube/I-CUBE-HUAWEI/Middlewares/Third_Party/Huawei/iot_link/network/dtls/mbedtls/mbedtls-2.16.2/library\aes.c ****     X1 = *RK++ ^ \
 899:D:/fchai/work/i-cube/I-CUBE-HUAWEI/Middlewares/Third_Party/Huawei/iot_link/network/dtls/mbedtls/mbedtls-2.16.2/library\aes.c ****             ( (uint32_t) FSb[ ( Y1       ) & 0xFF ]       ) ^
 900:D:/fchai/work/i-cube/I-CUBE-HUAWEI/Middlewares/Third_Party/Huawei/iot_link/network/dtls/mbedtls/mbedtls-2.16.2/library\aes.c ****             ( (uint32_t) FSb[ ( Y2 >>  8 ) & 0xFF ] <<  8 ) ^
 901:D:/fchai/work/i-cube/I-CUBE-HUAWEI/Middlewares/Third_Party/Huawei/iot_link/network/dtls/mbedtls/mbedtls-2.16.2/library\aes.c ****             ( (uint32_t) FSb[ ( Y3 >> 16 ) & 0xFF ] << 16 ) ^
 902:D:/fchai/work/i-cube/I-CUBE-HUAWEI/Middlewares/Third_Party/Huawei/iot_link/network/dtls/mbedtls/mbedtls-2.16.2/library\aes.c ****             ( (uint32_t) FSb[ ( Y0 >> 24 ) & 0xFF ] << 24 );
 1231              		.loc 1 902 36 view .LVU396
 1232 0316 0190     		str	r0, [sp, #4]
 895:D:/fchai/work/i-cube/I-CUBE-HUAWEI/Middlewares/Third_Party/Huawei/iot_link/network/dtls/mbedtls/mbedtls-2.16.2/library\aes.c ****             ( (uint32_t) FSb[ ( Y3 >> 24 ) & 0xFF ] << 24 );
 1233              		.loc 1 895 44 view .LVU397
 1234 0318 C2F30748 		ubfx	r8, r2, #16, #8
 1235              		.loc 1 902 36 view .LVU398
 1236 031c 4FEA106C 		lsr	ip, r0, #24
 900:D:/fchai/work/i-cube/I-CUBE-HUAWEI/Middlewares/Third_Party/Huawei/iot_link/network/dtls/mbedtls/mbedtls-2.16.2/library\aes.c ****             ( (uint32_t) FSb[ ( Y3 >> 16 ) & 0xFF ] << 16 ) ^
 1237              		.loc 1 900 44 view .LVU399
 1238 0320 C2F30727 		ubfx	r7, r2, #8, #8
 903:D:/fchai/work/i-cube/I-CUBE-HUAWEI/Middlewares/Third_Party/Huawei/iot_link/network/dtls/mbedtls/mbedtls-2.16.2/library\aes.c **** 
 904:D:/fchai/work/i-cube/I-CUBE-HUAWEI/Middlewares/Third_Party/Huawei/iot_link/network/dtls/mbedtls/mbedtls-2.16.2/library\aes.c ****     X2 = *RK++ ^ \
 905:D:/fchai/work/i-cube/I-CUBE-HUAWEI/Middlewares/Third_Party/Huawei/iot_link/network/dtls/mbedtls/mbedtls-2.16.2/library\aes.c ****             ( (uint32_t) FSb[ ( Y2       ) & 0xFF ]       ) ^
 1239              		.loc 1 905 44 view .LVU400
 1240 0324 D0B2     		uxtb	r0, r2
 1241              	.LVL96:
 906:D:/fchai/work/i-cube/I-CUBE-HUAWEI/Middlewares/Third_Party/Huawei/iot_link/network/dtls/mbedtls/mbedtls-2.16.2/library\aes.c ****             ( (uint32_t) FSb[ ( Y3 >>  8 ) & 0xFF ] <<  8 ) ^
 907:D:/fchai/work/i-cube/I-CUBE-HUAWEI/Middlewares/Third_Party/Huawei/iot_link/network/dtls/mbedtls/mbedtls-2.16.2/library\aes.c ****             ( (uint32_t) FSb[ ( Y0 >> 16 ) & 0xFF ] << 16 ) ^
 908:D:/fchai/work/i-cube/I-CUBE-HUAWEI/Middlewares/Third_Party/Huawei/iot_link/network/dtls/mbedtls/mbedtls-2.16.2/library\aes.c ****             ( (uint32_t) FSb[ ( Y1 >> 24 ) & 0xFF ] << 24 );
 909:D:/fchai/work/i-cube/I-CUBE-HUAWEI/Middlewares/Third_Party/Huawei/iot_link/network/dtls/mbedtls/mbedtls-2.16.2/library\aes.c **** 
 910:D:/fchai/work/i-cube/I-CUBE-HUAWEI/Middlewares/Third_Party/Huawei/iot_link/network/dtls/mbedtls/mbedtls-2.16.2/library\aes.c ****     X3 = *RK++ ^ \
ARM GAS  T:\msys\tmp\ccwessdu.s 			page 43


 911:D:/fchai/work/i-cube/I-CUBE-HUAWEI/Middlewares/Third_Party/Huawei/iot_link/network/dtls/mbedtls/mbedtls-2.16.2/library\aes.c ****             ( (uint32_t) FSb[ ( Y3       ) & 0xFF ]       ) ^
 912:D:/fchai/work/i-cube/I-CUBE-HUAWEI/Middlewares/Third_Party/Huawei/iot_link/network/dtls/mbedtls/mbedtls-2.16.2/library\aes.c ****             ( (uint32_t) FSb[ ( Y0 >>  8 ) & 0xFF ] <<  8 ) ^
 913:D:/fchai/work/i-cube/I-CUBE-HUAWEI/Middlewares/Third_Party/Huawei/iot_link/network/dtls/mbedtls/mbedtls-2.16.2/library\aes.c ****             ( (uint32_t) FSb[ ( Y1 >> 16 ) & 0xFF ] << 16 ) ^
 914:D:/fchai/work/i-cube/I-CUBE-HUAWEI/Middlewares/Third_Party/Huawei/iot_link/network/dtls/mbedtls/mbedtls-2.16.2/library\aes.c ****             ( (uint32_t) FSb[ ( Y2 >> 24 ) & 0xFF ] << 24 );
 1242              		.loc 1 914 36 view .LVU401
 1243 0326 120E     		lsrs	r2, r2, #24
 1244              	.LVL97:
 890:D:/fchai/work/i-cube/I-CUBE-HUAWEI/Middlewares/Third_Party/Huawei/iot_link/network/dtls/mbedtls/mbedtls-2.16.2/library\aes.c **** 
 1245              		.loc 1 890 5 view .LVU402
 1246 0328 7140     		eors	r1, r1, r6
 1247              	.LVL98:
 890:D:/fchai/work/i-cube/I-CUBE-HUAWEI/Middlewares/Third_Party/Huawei/iot_link/network/dtls/mbedtls/mbedtls-2.16.2/library\aes.c **** 
 1248              		.loc 1 890 5 is_stmt 1 view .LVU403
 892:D:/fchai/work/i-cube/I-CUBE-HUAWEI/Middlewares/Third_Party/Huawei/iot_link/network/dtls/mbedtls/mbedtls-2.16.2/library\aes.c ****             ( (uint32_t) FSb[ ( Y0       ) & 0xFF ]       ) ^
 1249              		.loc 1 892 5 view .LVU404
 1250              		.loc 1 914 36 is_stmt 0 view .LVU405
 1251 032a 0792     		str	r2, [sp, #28]
 908:D:/fchai/work/i-cube/I-CUBE-HUAWEI/Middlewares/Third_Party/Huawei/iot_link/network/dtls/mbedtls/mbedtls-2.16.2/library\aes.c **** 
 1252              		.loc 1 908 36 view .LVU406
 1253 032c 1A0E     		lsrs	r2, r3, #24
 1254 032e 0692     		str	r2, [sp, #24]
 1255              	.LVL99:
 894:D:/fchai/work/i-cube/I-CUBE-HUAWEI/Middlewares/Third_Party/Huawei/iot_link/network/dtls/mbedtls/mbedtls-2.16.2/library\aes.c ****             ( (uint32_t) FSb[ ( Y2 >> 16 ) & 0xFF ] << 16 ) ^
 1256              		.loc 1 894 44 view .LVU407
 1257 0330 C3F30729 		ubfx	r9, r3, #8, #8
 893:D:/fchai/work/i-cube/I-CUBE-HUAWEI/Middlewares/Third_Party/Huawei/iot_link/network/dtls/mbedtls/mbedtls-2.16.2/library\aes.c ****             ( (uint32_t) FSb[ ( Y1 >>  8 ) & 0xFF ] <<  8 ) ^
 1258              		.loc 1 893 15 view .LVU408
 1259 0334 14F80B20 		ldrb	r2, [r4, fp]	@ zero_extendqisi2
 896:D:/fchai/work/i-cube/I-CUBE-HUAWEI/Middlewares/Third_Party/Huawei/iot_link/network/dtls/mbedtls/mbedtls-2.16.2/library\aes.c **** 
 1260              		.loc 1 896 15 view .LVU409
 1261 0338 124C     		ldr	r4, .L50+12
 892:D:/fchai/work/i-cube/I-CUBE-HUAWEI/Middlewares/Third_Party/Huawei/iot_link/network/dtls/mbedtls/mbedtls-2.16.2/library\aes.c ****             ( (uint32_t) FSb[ ( Y0       ) & 0xFF ]       ) ^
 1262              		.loc 1 892 8 view .LVU410
 1263 033a 099E     		ldr	r6, [sp, #36]
 896:D:/fchai/work/i-cube/I-CUBE-HUAWEI/Middlewares/Third_Party/Huawei/iot_link/network/dtls/mbedtls/mbedtls-2.16.2/library\aes.c **** 
 1264              		.loc 1 896 36 view .LVU411
 1265 033c 4FEA116A 		lsr	r10, r1, #24
 899:D:/fchai/work/i-cube/I-CUBE-HUAWEI/Middlewares/Third_Party/Huawei/iot_link/network/dtls/mbedtls/mbedtls-2.16.2/library\aes.c ****             ( (uint32_t) FSb[ ( Y2 >>  8 ) & 0xFF ] <<  8 ) ^
 1266              		.loc 1 899 44 view .LVU412
 1267 0340 5FFA83FE 		uxtb	lr, r3
 896:D:/fchai/work/i-cube/I-CUBE-HUAWEI/Middlewares/Third_Party/Huawei/iot_link/network/dtls/mbedtls/mbedtls-2.16.2/library\aes.c **** 
 1268              		.loc 1 896 15 view .LVU413
 1269 0344 14F80AA0 		ldrb	r10, [r4, r10]	@ zero_extendqisi2
 894:D:/fchai/work/i-cube/I-CUBE-HUAWEI/Middlewares/Third_Party/Huawei/iot_link/network/dtls/mbedtls/mbedtls-2.16.2/library\aes.c ****             ( (uint32_t) FSb[ ( Y2 >> 16 ) & 0xFF ] << 16 ) ^
 1270              		.loc 1 894 15 view .LVU414
 1271 0348 14F80940 		ldrb	r4, [r4, r9]	@ zero_extendqisi2
 1272 034c 0294     		str	r4, [sp, #8]
 895:D:/fchai/work/i-cube/I-CUBE-HUAWEI/Middlewares/Third_Party/Huawei/iot_link/network/dtls/mbedtls/mbedtls-2.16.2/library\aes.c ****             ( (uint32_t) FSb[ ( Y3 >> 24 ) & 0xFF ] << 24 );
 1273              		.loc 1 895 15 view .LVU415
 1274 034e 0D4C     		ldr	r4, .L50+12
 892:D:/fchai/work/i-cube/I-CUBE-HUAWEI/Middlewares/Third_Party/Huawei/iot_link/network/dtls/mbedtls/mbedtls-2.16.2/library\aes.c ****             ( (uint32_t) FSb[ ( Y0       ) & 0xFF ]       ) ^
 1275              		.loc 1 892 8 view .LVU416
 1276 0350 3669     		ldr	r6, [r6, #16]
 895:D:/fchai/work/i-cube/I-CUBE-HUAWEI/Middlewares/Third_Party/Huawei/iot_link/network/dtls/mbedtls/mbedtls-2.16.2/library\aes.c ****             ( (uint32_t) FSb[ ( Y3 >> 24 ) & 0xFF ] << 24 );
 1277              		.loc 1 895 15 view .LVU417
 1278 0352 14F80880 		ldrb	r8, [r4, r8]	@ zero_extendqisi2
 899:D:/fchai/work/i-cube/I-CUBE-HUAWEI/Middlewares/Third_Party/Huawei/iot_link/network/dtls/mbedtls/mbedtls-2.16.2/library\aes.c ****             ( (uint32_t) FSb[ ( Y2 >>  8 ) & 0xFF ] <<  8 ) ^
ARM GAS  T:\msys\tmp\ccwessdu.s 			page 44


 1279              		.loc 1 899 15 view .LVU418
 1280 0356 0B4C     		ldr	r4, .L50+12
 895:D:/fchai/work/i-cube/I-CUBE-HUAWEI/Middlewares/Third_Party/Huawei/iot_link/network/dtls/mbedtls/mbedtls-2.16.2/library\aes.c ****             ( (uint32_t) FSb[ ( Y3 >> 24 ) & 0xFF ] << 24 );
 1281              		.loc 1 895 15 view .LVU419
 1282 0358 CDF80C80 		str	r8, [sp, #12]
 899:D:/fchai/work/i-cube/I-CUBE-HUAWEI/Middlewares/Third_Party/Huawei/iot_link/network/dtls/mbedtls/mbedtls-2.16.2/library\aes.c ****             ( (uint32_t) FSb[ ( Y2 >>  8 ) & 0xFF ] <<  8 ) ^
 1283              		.loc 1 899 15 view .LVU420
 1284 035c 14F80EE0 		ldrb	lr, [r4, lr]	@ zero_extendqisi2
 902:D:/fchai/work/i-cube/I-CUBE-HUAWEI/Middlewares/Third_Party/Huawei/iot_link/network/dtls/mbedtls/mbedtls-2.16.2/library\aes.c **** 
 1285              		.loc 1 902 15 view .LVU421
 1286 0360 14F80CC0 		ldrb	ip, [r4, ip]	@ zero_extendqisi2
 900:D:/fchai/work/i-cube/I-CUBE-HUAWEI/Middlewares/Third_Party/Huawei/iot_link/network/dtls/mbedtls/mbedtls-2.16.2/library\aes.c ****             ( (uint32_t) FSb[ ( Y3 >> 16 ) & 0xFF ] << 16 ) ^
 1287              		.loc 1 900 15 view .LVU422
 1288 0364 074C     		ldr	r4, .L50+12
 902:D:/fchai/work/i-cube/I-CUBE-HUAWEI/Middlewares/Third_Party/Huawei/iot_link/network/dtls/mbedtls/mbedtls-2.16.2/library\aes.c **** 
 1289              		.loc 1 902 15 view .LVU423
 1290 0366 CDF810C0 		str	ip, [sp, #16]
 901:D:/fchai/work/i-cube/I-CUBE-HUAWEI/Middlewares/Third_Party/Huawei/iot_link/network/dtls/mbedtls/mbedtls-2.16.2/library\aes.c ****             ( (uint32_t) FSb[ ( Y0 >> 24 ) & 0xFF ] << 24 );
 1291              		.loc 1 901 44 view .LVU424
 1292 036a C1F30745 		ubfx	r5, r1, #16, #8
 900:D:/fchai/work/i-cube/I-CUBE-HUAWEI/Middlewares/Third_Party/Huawei/iot_link/network/dtls/mbedtls/mbedtls-2.16.2/library\aes.c ****             ( (uint32_t) FSb[ ( Y3 >> 16 ) & 0xFF ] << 16 ) ^
 1293              		.loc 1 900 15 view .LVU425
 1294 036e E75D     		ldrb	r7, [r4, r7]	@ zero_extendqisi2
 901:D:/fchai/work/i-cube/I-CUBE-HUAWEI/Middlewares/Third_Party/Huawei/iot_link/network/dtls/mbedtls/mbedtls-2.16.2/library\aes.c ****             ( (uint32_t) FSb[ ( Y0 >> 24 ) & 0xFF ] << 24 );
 1295              		.loc 1 901 15 view .LVU426
 1296 0370 14F805B0 		ldrb	fp, [r4, r5]	@ zero_extendqisi2
 1297 0374 0AE0     		b	.L51
 1298              	.L52:
 1299 0376 00BF     		.align	2
 1300              	.L50:
 1301 0378 00000000 		.word	.LANCHOR6
 1302 037c 00000000 		.word	.LANCHOR7
 1303 0380 00000000 		.word	.LANCHOR8
 1304 0384 00000000 		.word	.LANCHOR1
 1305 0388 00000000 		.word	.LANCHOR9
 1306              	.L51:
 905:D:/fchai/work/i-cube/I-CUBE-HUAWEI/Middlewares/Third_Party/Huawei/iot_link/network/dtls/mbedtls/mbedtls-2.16.2/library\aes.c ****             ( (uint32_t) FSb[ ( Y3 >>  8 ) & 0xFF ] <<  8 ) ^
 1307              		.loc 1 905 15 view .LVU427
 1308 038c 255C     		ldrb	r5, [r4, r0]	@ zero_extendqisi2
 898:D:/fchai/work/i-cube/I-CUBE-HUAWEI/Middlewares/Third_Party/Huawei/iot_link/network/dtls/mbedtls/mbedtls-2.16.2/library\aes.c ****             ( (uint32_t) FSb[ ( Y1       ) & 0xFF ]       ) ^
 1309              		.loc 1 898 8 view .LVU428
 1310 038e 099C     		ldr	r4, [sp, #36]
 900:D:/fchai/work/i-cube/I-CUBE-HUAWEI/Middlewares/Third_Party/Huawei/iot_link/network/dtls/mbedtls/mbedtls-2.16.2/library\aes.c ****             ( (uint32_t) FSb[ ( Y3 >> 16 ) & 0xFF ] << 16 ) ^
 1311              		.loc 1 900 15 view .LVU429
 1312 0390 0597     		str	r7, [sp, #20]
 1313              	.LVL100:
 898:D:/fchai/work/i-cube/I-CUBE-HUAWEI/Middlewares/Third_Party/Huawei/iot_link/network/dtls/mbedtls/mbedtls-2.16.2/library\aes.c ****             ( (uint32_t) FSb[ ( Y1       ) & 0xFF ]       ) ^
 1314              		.loc 1 898 8 view .LVU430
 1315 0392 6069     		ldr	r0, [r4, #20]
 892:D:/fchai/work/i-cube/I-CUBE-HUAWEI/Middlewares/Third_Party/Huawei/iot_link/network/dtls/mbedtls/mbedtls-2.16.2/library\aes.c ****             ( (uint32_t) FSb[ ( Y0       ) & 0xFF ]       ) ^
 1316              		.loc 1 892 8 view .LVU431
 1317 0394 7240     		eors	r2, r2, r6
 908:D:/fchai/work/i-cube/I-CUBE-HUAWEI/Middlewares/Third_Party/Huawei/iot_link/network/dtls/mbedtls/mbedtls-2.16.2/library\aes.c **** 
 1318              		.loc 1 908 15 view .LVU432
 1319 0396 069E     		ldr	r6, [sp, #24]
 892:D:/fchai/work/i-cube/I-CUBE-HUAWEI/Middlewares/Third_Party/Huawei/iot_link/network/dtls/mbedtls/mbedtls-2.16.2/library\aes.c ****             ( (uint32_t) FSb[ ( Y0       ) & 0xFF ]       ) ^
 1320              		.loc 1 892 8 view .LVU433
ARM GAS  T:\msys\tmp\ccwessdu.s 			page 45


 1321 0398 82EA0A6A 		eor	r10, r2, r10, lsl #24
 911:D:/fchai/work/i-cube/I-CUBE-HUAWEI/Middlewares/Third_Party/Huawei/iot_link/network/dtls/mbedtls/mbedtls-2.16.2/library\aes.c ****             ( (uint32_t) FSb[ ( Y0 >>  8 ) & 0xFF ] <<  8 ) ^
 1322              		.loc 1 911 44 view .LVU434
 1323 039c CFB2     		uxtb	r7, r1
 904:D:/fchai/work/i-cube/I-CUBE-HUAWEI/Middlewares/Third_Party/Huawei/iot_link/network/dtls/mbedtls/mbedtls-2.16.2/library\aes.c ****             ( (uint32_t) FSb[ ( Y2       ) & 0xFF ]       ) ^
 1324              		.loc 1 904 8 view .LVU435
 1325 039e A269     		ldr	r2, [r4, #24]
 898:D:/fchai/work/i-cube/I-CUBE-HUAWEI/Middlewares/Third_Party/Huawei/iot_link/network/dtls/mbedtls/mbedtls-2.16.2/library\aes.c ****             ( (uint32_t) FSb[ ( Y1       ) & 0xFF ]       ) ^
 1326              		.loc 1 898 8 view .LVU436
 1327 03a0 8EEA0000 		eor	r0, lr, r0
 908:D:/fchai/work/i-cube/I-CUBE-HUAWEI/Middlewares/Third_Party/Huawei/iot_link/network/dtls/mbedtls/mbedtls-2.16.2/library\aes.c **** 
 1328              		.loc 1 908 15 view .LVU437
 1329 03a4 B446     		mov	ip, r6
 910:D:/fchai/work/i-cube/I-CUBE-HUAWEI/Middlewares/Third_Party/Huawei/iot_link/network/dtls/mbedtls/mbedtls-2.16.2/library\aes.c ****             ( (uint32_t) FSb[ ( Y3       ) & 0xFF ]       ) ^
 1330              		.loc 1 910 8 view .LVU438
 1331 03a6 D4F81CE0 		ldr	lr, [r4, #28]
 908:D:/fchai/work/i-cube/I-CUBE-HUAWEI/Middlewares/Third_Party/Huawei/iot_link/network/dtls/mbedtls/mbedtls-2.16.2/library\aes.c **** 
 1332              		.loc 1 908 15 view .LVU439
 1333 03aa 354E     		ldr	r6, .L53
 911:D:/fchai/work/i-cube/I-CUBE-HUAWEI/Middlewares/Third_Party/Huawei/iot_link/network/dtls/mbedtls/mbedtls-2.16.2/library\aes.c ****             ( (uint32_t) FSb[ ( Y0 >>  8 ) & 0xFF ] <<  8 ) ^
 1334              		.loc 1 911 15 view .LVU440
 1335 03ac 344C     		ldr	r4, .L53
 908:D:/fchai/work/i-cube/I-CUBE-HUAWEI/Middlewares/Third_Party/Huawei/iot_link/network/dtls/mbedtls/mbedtls-2.16.2/library\aes.c **** 
 1336              		.loc 1 908 15 view .LVU441
 1337 03ae 16F80CC0 		ldrb	ip, [r6, ip]	@ zero_extendqisi2
 911:D:/fchai/work/i-cube/I-CUBE-HUAWEI/Middlewares/Third_Party/Huawei/iot_link/network/dtls/mbedtls/mbedtls-2.16.2/library\aes.c ****             ( (uint32_t) FSb[ ( Y0 >>  8 ) & 0xFF ] <<  8 ) ^
 1338              		.loc 1 911 15 view .LVU442
 1339 03b2 E75D     		ldrb	r7, [r4, r7]	@ zero_extendqisi2
 1340              		.loc 1 914 15 view .LVU443
 1341 03b4 079E     		ldr	r6, [sp, #28]
 913:D:/fchai/work/i-cube/I-CUBE-HUAWEI/Middlewares/Third_Party/Huawei/iot_link/network/dtls/mbedtls/mbedtls-2.16.2/library\aes.c ****             ( (uint32_t) FSb[ ( Y2 >> 24 ) & 0xFF ] << 24 );
 1342              		.loc 1 913 44 view .LVU444
 1343 03b6 C3F30743 		ubfx	r3, r3, #16, #8
 1344              	.LVL101:
 906:D:/fchai/work/i-cube/I-CUBE-HUAWEI/Middlewares/Third_Party/Huawei/iot_link/network/dtls/mbedtls/mbedtls-2.16.2/library\aes.c ****             ( (uint32_t) FSb[ ( Y0 >> 16 ) & 0xFF ] << 16 ) ^
 1345              		.loc 1 906 44 view .LVU445
 1346 03ba C1F30721 		ubfx	r1, r1, #8, #8
 1347              	.LVL102:
 904:D:/fchai/work/i-cube/I-CUBE-HUAWEI/Middlewares/Third_Party/Huawei/iot_link/network/dtls/mbedtls/mbedtls-2.16.2/library\aes.c ****             ( (uint32_t) FSb[ ( Y2       ) & 0xFF ]       ) ^
 1348              		.loc 1 904 8 view .LVU446
 1349 03be 5540     		eors	r5, r5, r2
 912:D:/fchai/work/i-cube/I-CUBE-HUAWEI/Middlewares/Third_Party/Huawei/iot_link/network/dtls/mbedtls/mbedtls-2.16.2/library\aes.c ****             ( (uint32_t) FSb[ ( Y1 >> 16 ) & 0xFF ] << 16 ) ^
 1350              		.loc 1 912 44 view .LVU447
 1351 03c0 019A     		ldr	r2, [sp, #4]
 906:D:/fchai/work/i-cube/I-CUBE-HUAWEI/Middlewares/Third_Party/Huawei/iot_link/network/dtls/mbedtls/mbedtls-2.16.2/library\aes.c ****             ( (uint32_t) FSb[ ( Y0 >> 16 ) & 0xFF ] << 16 ) ^
 1352              		.loc 1 906 15 view .LVU448
 1353 03c2 14F80190 		ldrb	r9, [r4, r1]	@ zero_extendqisi2
 913:D:/fchai/work/i-cube/I-CUBE-HUAWEI/Middlewares/Third_Party/Huawei/iot_link/network/dtls/mbedtls/mbedtls-2.16.2/library\aes.c ****             ( (uint32_t) FSb[ ( Y2 >> 24 ) & 0xFF ] << 24 );
 1354              		.loc 1 913 15 view .LVU449
 1355 03c6 E15C     		ldrb	r1, [r4, r3]	@ zero_extendqisi2
 1356              		.loc 1 914 15 view .LVU450
 1357 03c8 B046     		mov	r8, r6
 912:D:/fchai/work/i-cube/I-CUBE-HUAWEI/Middlewares/Third_Party/Huawei/iot_link/network/dtls/mbedtls/mbedtls-2.16.2/library\aes.c ****             ( (uint32_t) FSb[ ( Y1 >> 16 ) & 0xFF ] << 16 ) ^
 1358              		.loc 1 912 44 view .LVU451
 1359 03ca C2F30723 		ubfx	r3, r2, #8, #8
 1360              		.loc 1 914 15 view .LVU452
 1361 03ce 2646     		mov	r6, r4
ARM GAS  T:\msys\tmp\ccwessdu.s 			page 46


 1362 03d0 14F80880 		ldrb	r8, [r4, r8]	@ zero_extendqisi2
 912:D:/fchai/work/i-cube/I-CUBE-HUAWEI/Middlewares/Third_Party/Huawei/iot_link/network/dtls/mbedtls/mbedtls-2.16.2/library\aes.c ****             ( (uint32_t) FSb[ ( Y1 >> 16 ) & 0xFF ] << 16 ) ^
 1363              		.loc 1 912 15 view .LVU453
 1364 03d4 F35C     		ldrb	r3, [r6, r3]	@ zero_extendqisi2
 910:D:/fchai/work/i-cube/I-CUBE-HUAWEI/Middlewares/Third_Party/Huawei/iot_link/network/dtls/mbedtls/mbedtls-2.16.2/library\aes.c ****             ( (uint32_t) FSb[ ( Y3       ) & 0xFF ]       ) ^
 1365              		.loc 1 910 8 view .LVU454
 1366 03d6 87EA0E07 		eor	r7, r7, lr
 1367 03da 87EA0867 		eor	r7, r7, r8, lsl #24
 907:D:/fchai/work/i-cube/I-CUBE-HUAWEI/Middlewares/Third_Party/Huawei/iot_link/network/dtls/mbedtls/mbedtls-2.16.2/library\aes.c ****             ( (uint32_t) FSb[ ( Y1 >> 24 ) & 0xFF ] << 24 );
 1368              		.loc 1 907 44 view .LVU455
 1369 03de C2F30744 		ubfx	r4, r2, #16, #8
 910:D:/fchai/work/i-cube/I-CUBE-HUAWEI/Middlewares/Third_Party/Huawei/iot_link/network/dtls/mbedtls/mbedtls-2.16.2/library\aes.c ****             ( (uint32_t) FSb[ ( Y3       ) & 0xFF ]       ) ^
 1370              		.loc 1 910 8 view .LVU456
 1371 03e2 87EA0323 		eor	r3, r7, r3, lsl #8
 1372 03e6 83EA0143 		eor	r3, r3, r1, lsl #16
 898:D:/fchai/work/i-cube/I-CUBE-HUAWEI/Middlewares/Third_Party/Huawei/iot_link/network/dtls/mbedtls/mbedtls-2.16.2/library\aes.c ****             ( (uint32_t) FSb[ ( Y1       ) & 0xFF ]       ) ^
 1373              		.loc 1 898 8 view .LVU457
 1374 03ea 049A     		ldr	r2, [sp, #16]
 907:D:/fchai/work/i-cube/I-CUBE-HUAWEI/Middlewares/Third_Party/Huawei/iot_link/network/dtls/mbedtls/mbedtls-2.16.2/library\aes.c ****             ( (uint32_t) FSb[ ( Y1 >> 24 ) & 0xFF ] << 24 );
 1375              		.loc 1 907 15 view .LVU458
 1376 03ec 345D     		ldrb	r4, [r6, r4]	@ zero_extendqisi2
 898:D:/fchai/work/i-cube/I-CUBE-HUAWEI/Middlewares/Third_Party/Huawei/iot_link/network/dtls/mbedtls/mbedtls-2.16.2/library\aes.c ****             ( (uint32_t) FSb[ ( Y1       ) & 0xFF ]       ) ^
 1377              		.loc 1 898 8 view .LVU459
 1378 03ee 059E     		ldr	r6, [sp, #20]
 915:D:/fchai/work/i-cube/I-CUBE-HUAWEI/Middlewares/Third_Party/Huawei/iot_link/network/dtls/mbedtls/mbedtls-2.16.2/library\aes.c **** 
 916:D:/fchai/work/i-cube/I-CUBE-HUAWEI/Middlewares/Third_Party/Huawei/iot_link/network/dtls/mbedtls/mbedtls-2.16.2/library\aes.c ****     PUT_UINT32_LE( X0, output,  0 );
 917:D:/fchai/work/i-cube/I-CUBE-HUAWEI/Middlewares/Third_Party/Huawei/iot_link/network/dtls/mbedtls/mbedtls-2.16.2/library\aes.c ****     PUT_UINT32_LE( X1, output,  4 );
 918:D:/fchai/work/i-cube/I-CUBE-HUAWEI/Middlewares/Third_Party/Huawei/iot_link/network/dtls/mbedtls/mbedtls-2.16.2/library\aes.c ****     PUT_UINT32_LE( X2, output,  8 );
 919:D:/fchai/work/i-cube/I-CUBE-HUAWEI/Middlewares/Third_Party/Huawei/iot_link/network/dtls/mbedtls/mbedtls-2.16.2/library\aes.c ****     PUT_UINT32_LE( X3, output, 12 );
 1379              		.loc 1 919 5 view .LVU460
 1380 03f0 190A     		lsrs	r1, r3, #8
 1381 03f2 0191     		str	r1, [sp, #4]
 1382              	.LVL103:
 898:D:/fchai/work/i-cube/I-CUBE-HUAWEI/Middlewares/Third_Party/Huawei/iot_link/network/dtls/mbedtls/mbedtls-2.16.2/library\aes.c ****             ( (uint32_t) FSb[ ( Y1       ) & 0xFF ]       ) ^
 1383              		.loc 1 898 8 view .LVU461
 1384 03f4 80EA0260 		eor	r0, r0, r2, lsl #24
 1385              		.loc 1 919 5 view .LVU462
 1386 03f8 190C     		lsrs	r1, r3, #16
 892:D:/fchai/work/i-cube/I-CUBE-HUAWEI/Middlewares/Third_Party/Huawei/iot_link/network/dtls/mbedtls/mbedtls-2.16.2/library\aes.c ****             ( (uint32_t) FSb[ ( Y0       ) & 0xFF ]       ) ^
 1387              		.loc 1 892 8 view .LVU463
 1388 03fa 029A     		ldr	r2, [sp, #8]
 1389              		.loc 1 919 5 view .LVU464
 1390 03fc 0291     		str	r1, [sp, #8]
 904:D:/fchai/work/i-cube/I-CUBE-HUAWEI/Middlewares/Third_Party/Huawei/iot_link/network/dtls/mbedtls/mbedtls-2.16.2/library\aes.c ****             ( (uint32_t) FSb[ ( Y2       ) & 0xFF ]       ) ^
 1391              		.loc 1 904 8 view .LVU465
 1392 03fe 85EA0C65 		eor	r5, r5, ip, lsl #24
 1393              		.loc 1 919 5 view .LVU466
 1394 0402 190E     		lsrs	r1, r3, #24
 898:D:/fchai/work/i-cube/I-CUBE-HUAWEI/Middlewares/Third_Party/Huawei/iot_link/network/dtls/mbedtls/mbedtls-2.16.2/library\aes.c ****             ( (uint32_t) FSb[ ( Y1       ) & 0xFF ]       ) ^
 1395              		.loc 1 898 8 view .LVU467
 1396 0404 80EA0620 		eor	r0, r0, r6, lsl #8
 892:D:/fchai/work/i-cube/I-CUBE-HUAWEI/Middlewares/Third_Party/Huawei/iot_link/network/dtls/mbedtls/mbedtls-2.16.2/library\aes.c ****             ( (uint32_t) FSb[ ( Y0       ) & 0xFF ]       ) ^
 1397              		.loc 1 892 8 view .LVU468
 1398 0408 039E     		ldr	r6, [sp, #12]
 1399              		.loc 1 919 5 view .LVU469
 1400 040a 0391     		str	r1, [sp, #12]
 904:D:/fchai/work/i-cube/I-CUBE-HUAWEI/Middlewares/Third_Party/Huawei/iot_link/network/dtls/mbedtls/mbedtls-2.16.2/library\aes.c ****             ( (uint32_t) FSb[ ( Y2       ) & 0xFF ]       ) ^
ARM GAS  T:\msys\tmp\ccwessdu.s 			page 47


 1401              		.loc 1 904 8 view .LVU470
 1402 040c 85EA0925 		eor	r5, r5, r9, lsl #8
 916:D:/fchai/work/i-cube/I-CUBE-HUAWEI/Middlewares/Third_Party/Huawei/iot_link/network/dtls/mbedtls/mbedtls-2.16.2/library\aes.c ****     PUT_UINT32_LE( X1, output,  4 );
 1403              		.loc 1 916 5 view .LVU471
 1404 0410 0A99     		ldr	r1, [sp, #40]
 892:D:/fchai/work/i-cube/I-CUBE-HUAWEI/Middlewares/Third_Party/Huawei/iot_link/network/dtls/mbedtls/mbedtls-2.16.2/library\aes.c ****             ( (uint32_t) FSb[ ( Y0       ) & 0xFF ]       ) ^
 1405              		.loc 1 892 8 view .LVU472
 1406 0412 8AEA0222 		eor	r2, r10, r2, lsl #8
 1407 0416 82EA0642 		eor	r2, r2, r6, lsl #16
 1408              	.LVL104:
 898:D:/fchai/work/i-cube/I-CUBE-HUAWEI/Middlewares/Third_Party/Huawei/iot_link/network/dtls/mbedtls/mbedtls-2.16.2/library\aes.c ****             ( (uint32_t) FSb[ ( Y1       ) & 0xFF ]       ) ^
 1409              		.loc 1 898 5 is_stmt 1 view .LVU473
 898:D:/fchai/work/i-cube/I-CUBE-HUAWEI/Middlewares/Third_Party/Huawei/iot_link/network/dtls/mbedtls/mbedtls-2.16.2/library\aes.c ****             ( (uint32_t) FSb[ ( Y1       ) & 0xFF ]       ) ^
 1410              		.loc 1 898 8 is_stmt 0 view .LVU474
 1411 041a 80EA0B40 		eor	r0, r0, fp, lsl #16
 1412              	.LVL105:
 904:D:/fchai/work/i-cube/I-CUBE-HUAWEI/Middlewares/Third_Party/Huawei/iot_link/network/dtls/mbedtls/mbedtls-2.16.2/library\aes.c ****             ( (uint32_t) FSb[ ( Y2       ) & 0xFF ]       ) ^
 1413              		.loc 1 904 5 is_stmt 1 view .LVU475
 904:D:/fchai/work/i-cube/I-CUBE-HUAWEI/Middlewares/Third_Party/Huawei/iot_link/network/dtls/mbedtls/mbedtls-2.16.2/library\aes.c ****             ( (uint32_t) FSb[ ( Y2       ) & 0xFF ]       ) ^
 1414              		.loc 1 904 8 is_stmt 0 view .LVU476
 1415 041e 85EA0444 		eor	r4, r5, r4, lsl #16
 1416              	.LVL106:
 910:D:/fchai/work/i-cube/I-CUBE-HUAWEI/Middlewares/Third_Party/Huawei/iot_link/network/dtls/mbedtls/mbedtls-2.16.2/library\aes.c ****             ( (uint32_t) FSb[ ( Y3       ) & 0xFF ]       ) ^
 1417              		.loc 1 910 5 is_stmt 1 view .LVU477
 916:D:/fchai/work/i-cube/I-CUBE-HUAWEI/Middlewares/Third_Party/Huawei/iot_link/network/dtls/mbedtls/mbedtls-2.16.2/library\aes.c ****     PUT_UINT32_LE( X1, output,  4 );
 1418              		.loc 1 916 5 view .LVU478
 1419 0422 0A70     		strb	r2, [r1]
 916:D:/fchai/work/i-cube/I-CUBE-HUAWEI/Middlewares/Third_Party/Huawei/iot_link/network/dtls/mbedtls/mbedtls-2.16.2/library\aes.c ****     PUT_UINT32_LE( X1, output,  4 );
 1420              		.loc 1 916 5 view .LVU479
 1421 0424 4FEA122B 		lsr	fp, r2, #8
 1422 0428 4FEA124A 		lsr	r10, r2, #16
 1423 042c 4FEA1269 		lsr	r9, r2, #24
 917:D:/fchai/work/i-cube/I-CUBE-HUAWEI/Middlewares/Third_Party/Huawei/iot_link/network/dtls/mbedtls/mbedtls-2.16.2/library\aes.c ****     PUT_UINT32_LE( X2, output,  8 );
 1424              		.loc 1 917 5 is_stmt 0 view .LVU480
 1425 0430 4FEA1028 		lsr	r8, r0, #8
 1426 0434 0A46     		mov	r2, r1
 1427              	.LVL107:
 917:D:/fchai/work/i-cube/I-CUBE-HUAWEI/Middlewares/Third_Party/Huawei/iot_link/network/dtls/mbedtls/mbedtls-2.16.2/library\aes.c ****     PUT_UINT32_LE( X2, output,  8 );
 1428              		.loc 1 917 5 view .LVU481
 1429 0436 4FEA104E 		lsr	lr, r0, #16
 1430 043a 4FEA106C 		lsr	ip, r0, #24
 918:D:/fchai/work/i-cube/I-CUBE-HUAWEI/Middlewares/Third_Party/Huawei/iot_link/network/dtls/mbedtls/mbedtls-2.16.2/library\aes.c ****     PUT_UINT32_LE( X3, output, 12 );
 1431              		.loc 1 918 5 view .LVU482
 1432 043e 270A     		lsrs	r7, r4, #8
 1433 0440 260C     		lsrs	r6, r4, #16
 918:D:/fchai/work/i-cube/I-CUBE-HUAWEI/Middlewares/Third_Party/Huawei/iot_link/network/dtls/mbedtls/mbedtls-2.16.2/library\aes.c ****     PUT_UINT32_LE( X3, output, 12 );
 1434              		.loc 1 918 5 view .LVU483
 1435 0442 250E     		lsrs	r5, r4, #24
 917:D:/fchai/work/i-cube/I-CUBE-HUAWEI/Middlewares/Third_Party/Huawei/iot_link/network/dtls/mbedtls/mbedtls-2.16.2/library\aes.c ****     PUT_UINT32_LE( X2, output,  8 );
 1436              		.loc 1 917 5 view .LVU484
 1437 0444 0871     		strb	r0, [r1, #4]
 918:D:/fchai/work/i-cube/I-CUBE-HUAWEI/Middlewares/Third_Party/Huawei/iot_link/network/dtls/mbedtls/mbedtls-2.16.2/library\aes.c ****     PUT_UINT32_LE( X3, output, 12 );
 1438              		.loc 1 918 5 view .LVU485
 1439 0446 0C72     		strb	r4, [r1, #8]
 1440              		.loc 1 919 5 view .LVU486
 1441 0448 0B73     		strb	r3, [r1, #12]
 916:D:/fchai/work/i-cube/I-CUBE-HUAWEI/Middlewares/Third_Party/Huawei/iot_link/network/dtls/mbedtls/mbedtls-2.16.2/library\aes.c ****     PUT_UINT32_LE( X1, output,  4 );
ARM GAS  T:\msys\tmp\ccwessdu.s 			page 48


 1442              		.loc 1 916 5 view .LVU487
 1443 044a 81F801B0 		strb	fp, [r1, #1]
 916:D:/fchai/work/i-cube/I-CUBE-HUAWEI/Middlewares/Third_Party/Huawei/iot_link/network/dtls/mbedtls/mbedtls-2.16.2/library\aes.c ****     PUT_UINT32_LE( X1, output,  4 );
 1444              		.loc 1 916 5 is_stmt 1 view .LVU488
 1445 044e 81F802A0 		strb	r10, [r1, #2]
 916:D:/fchai/work/i-cube/I-CUBE-HUAWEI/Middlewares/Third_Party/Huawei/iot_link/network/dtls/mbedtls/mbedtls-2.16.2/library\aes.c ****     PUT_UINT32_LE( X1, output,  4 );
 1446              		.loc 1 916 5 view .LVU489
 1447 0452 81F80390 		strb	r9, [r1, #3]
 916:D:/fchai/work/i-cube/I-CUBE-HUAWEI/Middlewares/Third_Party/Huawei/iot_link/network/dtls/mbedtls/mbedtls-2.16.2/library\aes.c ****     PUT_UINT32_LE( X1, output,  4 );
 1448              		.loc 1 916 36 view .LVU490
 917:D:/fchai/work/i-cube/I-CUBE-HUAWEI/Middlewares/Third_Party/Huawei/iot_link/network/dtls/mbedtls/mbedtls-2.16.2/library\aes.c ****     PUT_UINT32_LE( X2, output,  8 );
 1449              		.loc 1 917 5 view .LVU491
 917:D:/fchai/work/i-cube/I-CUBE-HUAWEI/Middlewares/Third_Party/Huawei/iot_link/network/dtls/mbedtls/mbedtls-2.16.2/library\aes.c ****     PUT_UINT32_LE( X2, output,  8 );
 1450              		.loc 1 917 5 view .LVU492
 1451 0456 81F80580 		strb	r8, [r1, #5]
 917:D:/fchai/work/i-cube/I-CUBE-HUAWEI/Middlewares/Third_Party/Huawei/iot_link/network/dtls/mbedtls/mbedtls-2.16.2/library\aes.c ****     PUT_UINT32_LE( X2, output,  8 );
 1452              		.loc 1 917 5 view .LVU493
 1453 045a 81F806E0 		strb	lr, [r1, #6]
 917:D:/fchai/work/i-cube/I-CUBE-HUAWEI/Middlewares/Third_Party/Huawei/iot_link/network/dtls/mbedtls/mbedtls-2.16.2/library\aes.c ****     PUT_UINT32_LE( X2, output,  8 );
 1454              		.loc 1 917 5 view .LVU494
 1455 045e 81F807C0 		strb	ip, [r1, #7]
 917:D:/fchai/work/i-cube/I-CUBE-HUAWEI/Middlewares/Third_Party/Huawei/iot_link/network/dtls/mbedtls/mbedtls-2.16.2/library\aes.c ****     PUT_UINT32_LE( X2, output,  8 );
 1456              		.loc 1 917 36 view .LVU495
 918:D:/fchai/work/i-cube/I-CUBE-HUAWEI/Middlewares/Third_Party/Huawei/iot_link/network/dtls/mbedtls/mbedtls-2.16.2/library\aes.c ****     PUT_UINT32_LE( X3, output, 12 );
 1457              		.loc 1 918 5 view .LVU496
 918:D:/fchai/work/i-cube/I-CUBE-HUAWEI/Middlewares/Third_Party/Huawei/iot_link/network/dtls/mbedtls/mbedtls-2.16.2/library\aes.c ****     PUT_UINT32_LE( X3, output, 12 );
 1458              		.loc 1 918 5 view .LVU497
 1459 0462 4F72     		strb	r7, [r1, #9]
 918:D:/fchai/work/i-cube/I-CUBE-HUAWEI/Middlewares/Third_Party/Huawei/iot_link/network/dtls/mbedtls/mbedtls-2.16.2/library\aes.c ****     PUT_UINT32_LE( X3, output, 12 );
 1460              		.loc 1 918 5 view .LVU498
 1461 0464 8E72     		strb	r6, [r1, #10]
 918:D:/fchai/work/i-cube/I-CUBE-HUAWEI/Middlewares/Third_Party/Huawei/iot_link/network/dtls/mbedtls/mbedtls-2.16.2/library\aes.c ****     PUT_UINT32_LE( X3, output, 12 );
 1462              		.loc 1 918 5 view .LVU499
 1463 0466 CD72     		strb	r5, [r1, #11]
 918:D:/fchai/work/i-cube/I-CUBE-HUAWEI/Middlewares/Third_Party/Huawei/iot_link/network/dtls/mbedtls/mbedtls-2.16.2/library\aes.c ****     PUT_UINT32_LE( X3, output, 12 );
 1464              		.loc 1 918 36 view .LVU500
 1465              		.loc 1 919 5 view .LVU501
 1466              		.loc 1 919 5 view .LVU502
 916:D:/fchai/work/i-cube/I-CUBE-HUAWEI/Middlewares/Third_Party/Huawei/iot_link/network/dtls/mbedtls/mbedtls-2.16.2/library\aes.c ****     PUT_UINT32_LE( X1, output,  4 );
 1467              		.loc 1 916 5 is_stmt 0 view .LVU503
 1468 0468 0B46     		mov	r3, r1
 1469              	.LVL108:
 1470              		.loc 1 919 5 view .LVU504
 1471 046a 0199     		ldr	r1, [sp, #4]
 1472 046c 5173     		strb	r1, [r2, #13]
 1473              		.loc 1 919 5 is_stmt 1 view .LVU505
 1474 046e 0299     		ldr	r1, [sp, #8]
 1475 0470 9173     		strb	r1, [r2, #14]
 1476              		.loc 1 919 5 view .LVU506
 1477 0472 039A     		ldr	r2, [sp, #12]
 1478 0474 DA73     		strb	r2, [r3, #15]
 1479              		.loc 1 919 36 view .LVU507
 920:D:/fchai/work/i-cube/I-CUBE-HUAWEI/Middlewares/Third_Party/Huawei/iot_link/network/dtls/mbedtls/mbedtls-2.16.2/library\aes.c **** 
 921:D:/fchai/work/i-cube/I-CUBE-HUAWEI/Middlewares/Third_Party/Huawei/iot_link/network/dtls/mbedtls/mbedtls-2.16.2/library\aes.c ****     return( 0 );
 1480              		.loc 1 921 5 view .LVU508
 922:D:/fchai/work/i-cube/I-CUBE-HUAWEI/Middlewares/Third_Party/Huawei/iot_link/network/dtls/mbedtls/mbedtls-2.16.2/library\aes.c **** }
 1481              		.loc 1 922 1 is_stmt 0 view .LVU509
ARM GAS  T:\msys\tmp\ccwessdu.s 			page 49


 1482 0476 0020     		movs	r0, #0
 1483              	.LVL109:
 1484              		.loc 1 922 1 view .LVU510
 1485 0478 0DB0     		add	sp, sp, #52
 1486              	.LCFI8:
 1487              		.cfi_def_cfa_offset 36
 1488              		@ sp needed
 1489 047a BDE8F08F 		pop	{r4, r5, r6, r7, r8, r9, r10, fp, pc}
 1490              	.LVL110:
 1491              	.L54:
 1492              		.loc 1 922 1 view .LVU511
 1493 047e 00BF     		.align	2
 1494              	.L53:
 1495 0480 00000000 		.word	.LANCHOR1
 1496              		.cfi_endproc
 1497              	.LFE7:
 1499              		.section	.text.mbedtls_aes_encrypt,"ax",%progbits
 1500              		.align	1
 1501              		.p2align 2,,3
 1502              		.global	mbedtls_aes_encrypt
 1503              		.syntax unified
 1504              		.thumb
 1505              		.thumb_func
 1506              		.fpu fpv4-sp-d16
 1508              	mbedtls_aes_encrypt:
 1509              	.LVL111:
 1510              	.LFB8:
 923:D:/fchai/work/i-cube/I-CUBE-HUAWEI/Middlewares/Third_Party/Huawei/iot_link/network/dtls/mbedtls/mbedtls-2.16.2/library\aes.c **** #endif /* !MBEDTLS_AES_ENCRYPT_ALT */
 924:D:/fchai/work/i-cube/I-CUBE-HUAWEI/Middlewares/Third_Party/Huawei/iot_link/network/dtls/mbedtls/mbedtls-2.16.2/library\aes.c **** 
 925:D:/fchai/work/i-cube/I-CUBE-HUAWEI/Middlewares/Third_Party/Huawei/iot_link/network/dtls/mbedtls/mbedtls-2.16.2/library\aes.c **** #if !defined(MBEDTLS_DEPRECATED_REMOVED)
 926:D:/fchai/work/i-cube/I-CUBE-HUAWEI/Middlewares/Third_Party/Huawei/iot_link/network/dtls/mbedtls/mbedtls-2.16.2/library\aes.c **** void mbedtls_aes_encrypt( mbedtls_aes_context *ctx,
 927:D:/fchai/work/i-cube/I-CUBE-HUAWEI/Middlewares/Third_Party/Huawei/iot_link/network/dtls/mbedtls/mbedtls-2.16.2/library\aes.c ****                           const unsigned char input[16],
 928:D:/fchai/work/i-cube/I-CUBE-HUAWEI/Middlewares/Third_Party/Huawei/iot_link/network/dtls/mbedtls/mbedtls-2.16.2/library\aes.c ****                           unsigned char output[16] )
 929:D:/fchai/work/i-cube/I-CUBE-HUAWEI/Middlewares/Third_Party/Huawei/iot_link/network/dtls/mbedtls/mbedtls-2.16.2/library\aes.c **** {
 1511              		.loc 1 929 1 is_stmt 1 view -0
 1512              		.cfi_startproc
 1513              		@ args = 0, pretend = 0, frame = 0
 1514              		@ frame_needed = 0, uses_anonymous_args = 0
 1515              		@ link register save eliminated.
 930:D:/fchai/work/i-cube/I-CUBE-HUAWEI/Middlewares/Third_Party/Huawei/iot_link/network/dtls/mbedtls/mbedtls-2.16.2/library\aes.c ****     mbedtls_internal_aes_encrypt( ctx, input, output );
 1516              		.loc 1 930 5 view .LVU513
 1517 0000 FFF7FEBF 		b	mbedtls_internal_aes_encrypt
 1518              	.LVL112:
 1519              		.loc 1 930 5 is_stmt 0 view .LVU514
 1520              		.cfi_endproc
 1521              	.LFE8:
 1523              		.section	.text.mbedtls_internal_aes_decrypt,"ax",%progbits
 1524              		.align	1
 1525              		.p2align 2,,3
 1526              		.global	mbedtls_internal_aes_decrypt
 1527              		.syntax unified
 1528              		.thumb
 1529              		.thumb_func
 1530              		.fpu fpv4-sp-d16
 1532              	mbedtls_internal_aes_decrypt:
 1533              	.LVL113:
 1534              	.LFB9:
ARM GAS  T:\msys\tmp\ccwessdu.s 			page 50


 931:D:/fchai/work/i-cube/I-CUBE-HUAWEI/Middlewares/Third_Party/Huawei/iot_link/network/dtls/mbedtls/mbedtls-2.16.2/library\aes.c **** }
 932:D:/fchai/work/i-cube/I-CUBE-HUAWEI/Middlewares/Third_Party/Huawei/iot_link/network/dtls/mbedtls/mbedtls-2.16.2/library\aes.c **** #endif /* !MBEDTLS_DEPRECATED_REMOVED */
 933:D:/fchai/work/i-cube/I-CUBE-HUAWEI/Middlewares/Third_Party/Huawei/iot_link/network/dtls/mbedtls/mbedtls-2.16.2/library\aes.c **** 
 934:D:/fchai/work/i-cube/I-CUBE-HUAWEI/Middlewares/Third_Party/Huawei/iot_link/network/dtls/mbedtls/mbedtls-2.16.2/library\aes.c **** /*
 935:D:/fchai/work/i-cube/I-CUBE-HUAWEI/Middlewares/Third_Party/Huawei/iot_link/network/dtls/mbedtls/mbedtls-2.16.2/library\aes.c ****  * AES-ECB block decryption
 936:D:/fchai/work/i-cube/I-CUBE-HUAWEI/Middlewares/Third_Party/Huawei/iot_link/network/dtls/mbedtls/mbedtls-2.16.2/library\aes.c ****  */
 937:D:/fchai/work/i-cube/I-CUBE-HUAWEI/Middlewares/Third_Party/Huawei/iot_link/network/dtls/mbedtls/mbedtls-2.16.2/library\aes.c **** #if !defined(MBEDTLS_AES_DECRYPT_ALT)
 938:D:/fchai/work/i-cube/I-CUBE-HUAWEI/Middlewares/Third_Party/Huawei/iot_link/network/dtls/mbedtls/mbedtls-2.16.2/library\aes.c **** int mbedtls_internal_aes_decrypt( mbedtls_aes_context *ctx,
 939:D:/fchai/work/i-cube/I-CUBE-HUAWEI/Middlewares/Third_Party/Huawei/iot_link/network/dtls/mbedtls/mbedtls-2.16.2/library\aes.c ****                                   const unsigned char input[16],
 940:D:/fchai/work/i-cube/I-CUBE-HUAWEI/Middlewares/Third_Party/Huawei/iot_link/network/dtls/mbedtls/mbedtls-2.16.2/library\aes.c ****                                   unsigned char output[16] )
 941:D:/fchai/work/i-cube/I-CUBE-HUAWEI/Middlewares/Third_Party/Huawei/iot_link/network/dtls/mbedtls/mbedtls-2.16.2/library\aes.c **** {
 1535              		.loc 1 941 1 is_stmt 1 view -0
 1536              		.cfi_startproc
 1537              		@ args = 0, pretend = 0, frame = 48
 1538              		@ frame_needed = 0, uses_anonymous_args = 0
 942:D:/fchai/work/i-cube/I-CUBE-HUAWEI/Middlewares/Third_Party/Huawei/iot_link/network/dtls/mbedtls/mbedtls-2.16.2/library\aes.c ****     int i;
 1539              		.loc 1 942 5 view .LVU516
 943:D:/fchai/work/i-cube/I-CUBE-HUAWEI/Middlewares/Third_Party/Huawei/iot_link/network/dtls/mbedtls/mbedtls-2.16.2/library\aes.c ****     uint32_t *RK, X0, X1, X2, X3, Y0, Y1, Y2, Y3;
 1540              		.loc 1 943 5 view .LVU517
 944:D:/fchai/work/i-cube/I-CUBE-HUAWEI/Middlewares/Third_Party/Huawei/iot_link/network/dtls/mbedtls/mbedtls-2.16.2/library\aes.c **** 
 945:D:/fchai/work/i-cube/I-CUBE-HUAWEI/Middlewares/Third_Party/Huawei/iot_link/network/dtls/mbedtls/mbedtls-2.16.2/library\aes.c ****     RK = ctx->rk;
 1541              		.loc 1 945 5 view .LVU518
 941:D:/fchai/work/i-cube/I-CUBE-HUAWEI/Middlewares/Third_Party/Huawei/iot_link/network/dtls/mbedtls/mbedtls-2.16.2/library\aes.c ****     int i;
 1542              		.loc 1 941 1 is_stmt 0 view .LVU519
 1543 0000 2DE9F04F 		push	{r4, r5, r6, r7, r8, r9, r10, fp, lr}
 1544              	.LCFI9:
 1545              		.cfi_def_cfa_offset 36
 1546              		.cfi_offset 4, -36
 1547              		.cfi_offset 5, -32
 1548              		.cfi_offset 6, -28
 1549              		.cfi_offset 7, -24
 1550              		.cfi_offset 8, -20
 1551              		.cfi_offset 9, -16
 1552              		.cfi_offset 10, -12
 1553              		.cfi_offset 11, -8
 1554              		.cfi_offset 14, -4
 1555              		.loc 1 945 8 view .LVU520
 1556 0004 D0E90035 		ldrd	r3, r5, [r0]
 1557              	.LVL114:
 946:D:/fchai/work/i-cube/I-CUBE-HUAWEI/Middlewares/Third_Party/Huawei/iot_link/network/dtls/mbedtls/mbedtls-2.16.2/library\aes.c **** 
 947:D:/fchai/work/i-cube/I-CUBE-HUAWEI/Middlewares/Third_Party/Huawei/iot_link/network/dtls/mbedtls/mbedtls-2.16.2/library\aes.c ****     GET_UINT32_LE( X0, input,  0 ); X0 ^= *RK++;
 1558              		.loc 1 947 5 is_stmt 1 view .LVU521
 1559 0008 D1F80080 		ldr	r8, [r1]	@ unaligned
 1560              	.LVL115:
 1561              		.loc 1 947 35 view .LVU522
 1562              		.loc 1 947 37 view .LVU523
 948:D:/fchai/work/i-cube/I-CUBE-HUAWEI/Middlewares/Third_Party/Huawei/iot_link/network/dtls/mbedtls/mbedtls-2.16.2/library\aes.c ****     GET_UINT32_LE( X1, input,  4 ); X1 ^= *RK++;
 1563              		.loc 1 948 5 is_stmt 0 view .LVU524
 1564 000c D1F804E0 		ldr	lr, [r1, #4]	@ unaligned
 949:D:/fchai/work/i-cube/I-CUBE-HUAWEI/Middlewares/Third_Party/Huawei/iot_link/network/dtls/mbedtls/mbedtls-2.16.2/library\aes.c ****     GET_UINT32_LE( X2, input,  8 ); X2 ^= *RK++;
 1565              		.loc 1 949 5 view .LVU525
 1566 0010 8E68     		ldr	r6, [r1, #8]	@ unaligned
 950:D:/fchai/work/i-cube/I-CUBE-HUAWEI/Middlewares/Third_Party/Huawei/iot_link/network/dtls/mbedtls/mbedtls-2.16.2/library\aes.c ****     GET_UINT32_LE( X3, input, 12 ); X3 ^= *RK++;
 1567              		.loc 1 950 5 view .LVU526
 1568 0012 C968     		ldr	r1, [r1, #12]	@ unaligned
 1569              	.LVL116:
 949:D:/fchai/work/i-cube/I-CUBE-HUAWEI/Middlewares/Third_Party/Huawei/iot_link/network/dtls/mbedtls/mbedtls-2.16.2/library\aes.c ****     GET_UINT32_LE( X2, input,  8 ); X2 ^= *RK++;
ARM GAS  T:\msys\tmp\ccwessdu.s 			page 51


 1570              		.loc 1 949 40 view .LVU527
 1571 0014 AC68     		ldr	r4, [r5, #8]
 948:D:/fchai/work/i-cube/I-CUBE-HUAWEI/Middlewares/Third_Party/Huawei/iot_link/network/dtls/mbedtls/mbedtls-2.16.2/library\aes.c ****     GET_UINT32_LE( X1, input,  4 ); X1 ^= *RK++;
 1572              		.loc 1 948 40 view .LVU528
 1573 0016 6F68     		ldr	r7, [r5, #4]
 951:D:/fchai/work/i-cube/I-CUBE-HUAWEI/Middlewares/Third_Party/Huawei/iot_link/network/dtls/mbedtls/mbedtls-2.16.2/library\aes.c **** 
 952:D:/fchai/work/i-cube/I-CUBE-HUAWEI/Middlewares/Third_Party/Huawei/iot_link/network/dtls/mbedtls/mbedtls-2.16.2/library\aes.c ****     for( i = ( ctx->nr >> 1 ) - 1; i > 0; i-- )
 1574              		.loc 1 952 24 view .LVU529
 1575 0018 5810     		asrs	r0, r3, #1
 1576              	.LVL117:
 947:D:/fchai/work/i-cube/I-CUBE-HUAWEI/Middlewares/Third_Party/Huawei/iot_link/network/dtls/mbedtls/mbedtls-2.16.2/library\aes.c ****     GET_UINT32_LE( X1, input,  4 ); X1 ^= *RK++;
 1577              		.loc 1 947 40 view .LVU530
 1578 001a 2B68     		ldr	r3, [r5]
 941:D:/fchai/work/i-cube/I-CUBE-HUAWEI/Middlewares/Third_Party/Huawei/iot_link/network/dtls/mbedtls/mbedtls-2.16.2/library\aes.c ****     int i;
 1579              		.loc 1 941 1 view .LVU531
 1580 001c 8DB0     		sub	sp, sp, #52
 1581              	.LCFI10:
 1582              		.cfi_def_cfa_offset 88
 1583              		.loc 1 952 12 view .LVU532
 1584 001e 0138     		subs	r0, r0, #1
 941:D:/fchai/work/i-cube/I-CUBE-HUAWEI/Middlewares/Third_Party/Huawei/iot_link/network/dtls/mbedtls/mbedtls-2.16.2/library\aes.c ****     int i;
 1585              		.loc 1 941 1 view .LVU533
 1586 0020 CDE90A20 		strd	r2, r0, [sp, #40]
 947:D:/fchai/work/i-cube/I-CUBE-HUAWEI/Middlewares/Third_Party/Huawei/iot_link/network/dtls/mbedtls/mbedtls-2.16.2/library\aes.c ****     GET_UINT32_LE( X1, input,  4 ); X1 ^= *RK++;
 1587              		.loc 1 947 40 view .LVU534
 1588 0024 88EA0302 		eor	r2, r8, r3
 1589              	.LVL118:
 948:D:/fchai/work/i-cube/I-CUBE-HUAWEI/Middlewares/Third_Party/Huawei/iot_link/network/dtls/mbedtls/mbedtls-2.16.2/library\aes.c ****     GET_UINT32_LE( X2, input,  8 ); X2 ^= *RK++;
 1590              		.loc 1 948 5 is_stmt 1 view .LVU535
 948:D:/fchai/work/i-cube/I-CUBE-HUAWEI/Middlewares/Third_Party/Huawei/iot_link/network/dtls/mbedtls/mbedtls-2.16.2/library\aes.c ****     GET_UINT32_LE( X2, input,  8 ); X2 ^= *RK++;
 1591              		.loc 1 948 35 view .LVU536
 948:D:/fchai/work/i-cube/I-CUBE-HUAWEI/Middlewares/Third_Party/Huawei/iot_link/network/dtls/mbedtls/mbedtls-2.16.2/library\aes.c ****     GET_UINT32_LE( X2, input,  8 ); X2 ^= *RK++;
 1592              		.loc 1 948 37 view .LVU537
 950:D:/fchai/work/i-cube/I-CUBE-HUAWEI/Middlewares/Third_Party/Huawei/iot_link/network/dtls/mbedtls/mbedtls-2.16.2/library\aes.c **** 
 1593              		.loc 1 950 40 is_stmt 0 view .LVU538
 1594 0028 EB68     		ldr	r3, [r5, #12]
 1595              		.loc 1 952 12 view .LVU539
 1596 002a 0490     		str	r0, [sp, #16]
 950:D:/fchai/work/i-cube/I-CUBE-HUAWEI/Middlewares/Third_Party/Huawei/iot_link/network/dtls/mbedtls/mbedtls-2.16.2/library\aes.c **** 
 1597              		.loc 1 950 40 view .LVU540
 1598 002c 81EA0308 		eor	r8, r1, r3
 950:D:/fchai/work/i-cube/I-CUBE-HUAWEI/Middlewares/Third_Party/Huawei/iot_link/network/dtls/mbedtls/mbedtls-2.16.2/library\aes.c **** 
 1599              		.loc 1 950 46 view .LVU541
 1600 0030 05F11003 		add	r3, r5, #16
 949:D:/fchai/work/i-cube/I-CUBE-HUAWEI/Middlewares/Third_Party/Huawei/iot_link/network/dtls/mbedtls/mbedtls-2.16.2/library\aes.c ****     GET_UINT32_LE( X3, input, 12 ); X3 ^= *RK++;
 1601              		.loc 1 949 40 view .LVU542
 1602 0034 7440     		eors	r4, r4, r6
 950:D:/fchai/work/i-cube/I-CUBE-HUAWEI/Middlewares/Third_Party/Huawei/iot_link/network/dtls/mbedtls/mbedtls-2.16.2/library\aes.c **** 
 1603              		.loc 1 950 46 view .LVU543
 1604 0036 0893     		str	r3, [sp, #32]
 1605              		.loc 1 952 5 view .LVU544
 1606 0038 0028     		cmp	r0, #0
 1607 003a D04B     		ldr	r3, .L64
 949:D:/fchai/work/i-cube/I-CUBE-HUAWEI/Middlewares/Third_Party/Huawei/iot_link/network/dtls/mbedtls/mbedtls-2.16.2/library\aes.c ****     GET_UINT32_LE( X3, input, 12 ); X3 ^= *RK++;
 1608              		.loc 1 949 40 view .LVU545
 1609 003c 0594     		str	r4, [sp, #20]
 948:D:/fchai/work/i-cube/I-CUBE-HUAWEI/Middlewares/Third_Party/Huawei/iot_link/network/dtls/mbedtls/mbedtls-2.16.2/library\aes.c ****     GET_UINT32_LE( X2, input,  8 ); X2 ^= *RK++;
ARM GAS  T:\msys\tmp\ccwessdu.s 			page 52


 1610              		.loc 1 948 40 view .LVU546
 1611 003e 8EEA0709 		eor	r9, lr, r7
 1612              	.LVL119:
 949:D:/fchai/work/i-cube/I-CUBE-HUAWEI/Middlewares/Third_Party/Huawei/iot_link/network/dtls/mbedtls/mbedtls-2.16.2/library\aes.c ****     GET_UINT32_LE( X3, input, 12 ); X3 ^= *RK++;
 1613              		.loc 1 949 5 is_stmt 1 view .LVU547
 949:D:/fchai/work/i-cube/I-CUBE-HUAWEI/Middlewares/Third_Party/Huawei/iot_link/network/dtls/mbedtls/mbedtls-2.16.2/library\aes.c ****     GET_UINT32_LE( X3, input, 12 ); X3 ^= *RK++;
 1614              		.loc 1 949 35 view .LVU548
 949:D:/fchai/work/i-cube/I-CUBE-HUAWEI/Middlewares/Third_Party/Huawei/iot_link/network/dtls/mbedtls/mbedtls-2.16.2/library\aes.c ****     GET_UINT32_LE( X3, input, 12 ); X3 ^= *RK++;
 1615              		.loc 1 949 37 view .LVU549
 950:D:/fchai/work/i-cube/I-CUBE-HUAWEI/Middlewares/Third_Party/Huawei/iot_link/network/dtls/mbedtls/mbedtls-2.16.2/library\aes.c **** 
 1616              		.loc 1 950 5 view .LVU550
 950:D:/fchai/work/i-cube/I-CUBE-HUAWEI/Middlewares/Third_Party/Huawei/iot_link/network/dtls/mbedtls/mbedtls-2.16.2/library\aes.c **** 
 1617              		.loc 1 950 35 view .LVU551
 950:D:/fchai/work/i-cube/I-CUBE-HUAWEI/Middlewares/Third_Party/Huawei/iot_link/network/dtls/mbedtls/mbedtls-2.16.2/library\aes.c **** 
 1618              		.loc 1 950 37 view .LVU552
 1619              		.loc 1 952 5 view .LVU553
 1620              		.loc 1 952 36 view .LVU554
 1621 0042 0993     		str	r3, [sp, #36]
 1622              		.loc 1 952 5 is_stmt 0 view .LVU555
 1623 0044 40F32082 		ble	.L63
 1624 0048 CD49     		ldr	r1, .L64+4
 1625 004a 0291     		str	r1, [sp, #8]
 1626 004c 3035     		adds	r5, r5, #48
 1627 004e CD49     		ldr	r1, .L64+8
 1628 0050 DFF838B3 		ldr	fp, .L64+16
 1629 0054 059E     		ldr	r6, [sp, #20]
 1630 0056 0391     		str	r1, [sp, #12]
 1631 0058 0195     		str	r5, [sp, #4]
 1632 005a 4146     		mov	r1, r8
 1633 005c 9A46     		mov	r10, r3
 1634              	.LVL120:
 1635              	.L58:
 953:D:/fchai/work/i-cube/I-CUBE-HUAWEI/Middlewares/Third_Party/Huawei/iot_link/network/dtls/mbedtls/mbedtls-2.16.2/library\aes.c ****     {
 954:D:/fchai/work/i-cube/I-CUBE-HUAWEI/Middlewares/Third_Party/Huawei/iot_link/network/dtls/mbedtls/mbedtls-2.16.2/library\aes.c ****         AES_RROUND( Y0, Y1, Y2, Y3, X0, X1, X2, X3 );
 1636              		.loc 1 954 9 is_stmt 1 discriminator 3 view .LVU556
 1637              		.loc 1 954 9 discriminator 3 view .LVU557
 1638              		.loc 1 954 9 is_stmt 0 discriminator 3 view .LVU558
 1639 005e 5FFA89F7 		uxtb	r7, r9
 1640 0062 CCB2     		uxtb	r4, r1
 1641 0064 019D     		ldr	r5, [sp, #4]
 1642 0066 5AF82780 		ldr	r8, [r10, r7, lsl #2]
 1643 006a 5AF82470 		ldr	r7, [r10, r4, lsl #2]
 1644 006e 029C     		ldr	r4, [sp, #8]
 1645 0070 4FEA1960 		lsr	r0, r9, #24
 1646 0074 5FFA82FC 		uxtb	ip, r2
 1647 0078 54F820E0 		ldr	lr, [r4, r0, lsl #2]
 1648 007c 55F8140C 		ldr	r0, [r5, #-20]
 1649 0080 55F81C4C 		ldr	r4, [r5, #-28]
 1650 0084 5AF82CC0 		ldr	ip, [r10, ip, lsl #2]
 1651 0088 55F8205C 		ldr	r5, [r5, #-32]
 1652 008c 7840     		eors	r0, r0, r7
 1653 008e 88EA0408 		eor	r8, r8, r4
 1654 0092 0790     		str	r0, [sp, #28]
 1655 0094 0F0E     		lsrs	r7, r1, #24
 1656 0096 0298     		ldr	r0, [sp, #8]
 1657 0098 340E     		lsrs	r4, r6, #24
 1658 009a F3B2     		uxtb	r3, r6
ARM GAS  T:\msys\tmp\ccwessdu.s 			page 53


 1659 009c 50F82440 		ldr	r4, [r0, r4, lsl #2]
 1660 00a0 50F82700 		ldr	r0, [r0, r7, lsl #2]
 1661 00a4 0690     		str	r0, [sp, #24]
 1662 00a6 0198     		ldr	r0, [sp, #4]
 1663 00a8 5AF82330 		ldr	r3, [r10, r3, lsl #2]
 1664 00ac 50F8187C 		ldr	r7, [r0, #-24]
 1665 00b0 8CEA050C 		eor	ip, ip, r5
 1666 00b4 7B40     		eors	r3, r3, r7
 1667 00b6 029D     		ldr	r5, [sp, #8]
 1668 00b8 170E     		lsrs	r7, r2, #24
 1669 00ba 8CEA0E0C 		eor	ip, ip, lr
 1670 00be 55F82770 		ldr	r7, [r5, r7, lsl #2]
 1671 00c2 039D     		ldr	r5, [sp, #12]
 1672 00c4 C1F3072E 		ubfx	lr, r1, #8, #8
 1673 00c8 88EA0404 		eor	r4, r8, r4
 1674 00cc 55F82E00 		ldr	r0, [r5, lr, lsl #2]
 1675 00d0 0590     		str	r0, [sp, #20]
 1676 00d2 0798     		ldr	r0, [sp, #28]
 1677 00d4 7840     		eors	r0, r0, r7
 1678 00d6 069F     		ldr	r7, [sp, #24]
 1679 00d8 C2F30728 		ubfx	r8, r2, #8, #8
 1680 00dc 7B40     		eors	r3, r3, r7
 1681 00de C9F3072E 		ubfx	lr, r9, #8, #8
 1682 00e2 C6F30727 		ubfx	r7, r6, #8, #8
 1683 00e6 C1F30741 		ubfx	r1, r1, #16, #8
 1684              	.LVL121:
 1685              		.loc 1 954 9 discriminator 3 view .LVU559
 1686 00ea C2F30742 		ubfx	r2, r2, #16, #8
 1687              	.LVL122:
 1688              		.loc 1 954 9 discriminator 3 view .LVU560
 1689 00ee C6F30746 		ubfx	r6, r6, #16, #8
 1690              	.LVL123:
 1691              		.loc 1 954 9 discriminator 3 view .LVU561
 1692 00f2 C9F30749 		ubfx	r9, r9, #16, #8
 1693              	.LVL124:
 1694              		.loc 1 954 9 discriminator 3 view .LVU562
 1695 00f6 55F82880 		ldr	r8, [r5, r8, lsl #2]
 1696 00fa 55F82770 		ldr	r7, [r5, r7, lsl #2]
 1697 00fe 55F82EE0 		ldr	lr, [r5, lr, lsl #2]
 1698 0102 5BF82110 		ldr	r1, [fp, r1, lsl #2]
 1699 0106 5BF82660 		ldr	r6, [fp, r6, lsl #2]
 1700 010a 5BF82990 		ldr	r9, [fp, r9, lsl #2]
 1701 010e 5BF82220 		ldr	r2, [fp, r2, lsl #2]
 1702 0112 0693     		str	r3, [sp, #24]
 1703 0114 059B     		ldr	r3, [sp, #20]
 955:D:/fchai/work/i-cube/I-CUBE-HUAWEI/Middlewares/Third_Party/Huawei/iot_link/network/dtls/mbedtls/mbedtls-2.16.2/library\aes.c ****         AES_RROUND( X0, X1, X2, X3, Y0, Y1, Y2, Y3 );
 1704              		.loc 1 955 9 discriminator 3 view .LVU563
 1705 0116 029D     		ldr	r5, [sp, #8]
 954:D:/fchai/work/i-cube/I-CUBE-HUAWEI/Middlewares/Third_Party/Huawei/iot_link/network/dtls/mbedtls/mbedtls-2.16.2/library\aes.c ****         AES_RROUND( X0, X1, X2, X3, Y0, Y1, Y2, Y3 );
 1706              		.loc 1 954 9 discriminator 3 view .LVU564
 1707 0118 8CEA030C 		eor	ip, ip, r3
 1708 011c 84EA0804 		eor	r4, r4, r8
 1709 0120 069B     		ldr	r3, [sp, #24]
 1710 0122 4C40     		eors	r4, r4, r1
 1711 0124 83EA0E03 		eor	r3, r3, lr
 1712 0128 7840     		eors	r0, r0, r7
 1713              		.loc 1 955 9 discriminator 3 view .LVU565
ARM GAS  T:\msys\tmp\ccwessdu.s 			page 54


 1714 012a 270E     		lsrs	r7, r4, #24
 954:D:/fchai/work/i-cube/I-CUBE-HUAWEI/Middlewares/Third_Party/Huawei/iot_link/network/dtls/mbedtls/mbedtls-2.16.2/library\aes.c ****         AES_RROUND( X0, X1, X2, X3, Y0, Y1, Y2, Y3 );
 1715              		.loc 1 954 9 discriminator 3 view .LVU566
 1716 012c 80EA0900 		eor	r0, r0, r9
 1717 0130 5A40     		eors	r2, r2, r3
 1718 0132 8CEA060C 		eor	ip, ip, r6
 1719              	.LVL125:
 954:D:/fchai/work/i-cube/I-CUBE-HUAWEI/Middlewares/Third_Party/Huawei/iot_link/network/dtls/mbedtls/mbedtls-2.16.2/library\aes.c ****         AES_RROUND( X0, X1, X2, X3, Y0, Y1, Y2, Y3 );
 1720              		.loc 1 954 9 is_stmt 1 discriminator 3 view .LVU567
 954:D:/fchai/work/i-cube/I-CUBE-HUAWEI/Middlewares/Third_Party/Huawei/iot_link/network/dtls/mbedtls/mbedtls-2.16.2/library\aes.c ****         AES_RROUND( X0, X1, X2, X3, Y0, Y1, Y2, Y3 );
 1721              		.loc 1 954 9 discriminator 3 view .LVU568
 954:D:/fchai/work/i-cube/I-CUBE-HUAWEI/Middlewares/Third_Party/Huawei/iot_link/network/dtls/mbedtls/mbedtls-2.16.2/library\aes.c ****         AES_RROUND( X0, X1, X2, X3, Y0, Y1, Y2, Y3 );
 1722              		.loc 1 954 9 discriminator 3 view .LVU569
 954:D:/fchai/work/i-cube/I-CUBE-HUAWEI/Middlewares/Third_Party/Huawei/iot_link/network/dtls/mbedtls/mbedtls-2.16.2/library\aes.c ****         AES_RROUND( X0, X1, X2, X3, Y0, Y1, Y2, Y3 );
 1723              		.loc 1 954 9 discriminator 3 view .LVU570
 1724              		.loc 1 955 9 discriminator 3 view .LVU571
 1725              		.loc 1 955 9 discriminator 3 view .LVU572
 1726              		.loc 1 955 9 is_stmt 0 discriminator 3 view .LVU573
 1727 0136 55F82770 		ldr	r7, [r5, r7, lsl #2]
 1728 013a 039D     		ldr	r5, [sp, #12]
 1729 013c C2F30749 		ubfx	r9, r2, #16, #8
 1730 0140 C0F30726 		ubfx	r6, r0, #8, #8
 1731 0144 5FFA8CFE 		uxtb	lr, ip
 1732 0148 55F82660 		ldr	r6, [r5, r6, lsl #2]
 1733 014c 5BF82950 		ldr	r5, [fp, r9, lsl #2]
 1734 0150 5AF82EE0 		ldr	lr, [r10, lr, lsl #2]
 1735 0154 0595     		str	r5, [sp, #20]
 1736 0156 E1B2     		uxtb	r1, r4
 1737 0158 029D     		ldr	r5, [sp, #8]
 1738 015a 5AF82110 		ldr	r1, [r10, r1, lsl #2]
 1739 015e 130E     		lsrs	r3, r2, #24
 1740 0160 8EEA070E 		eor	lr, lr, r7
 1741 0164 55F82330 		ldr	r3, [r5, r3, lsl #2]
 1742 0168 039D     		ldr	r5, [sp, #12]
 1743 016a C0F30747 		ubfx	r7, r0, #16, #8
 1744 016e 4B40     		eors	r3, r3, r1
 1745 0170 5BF82710 		ldr	r1, [fp, r7, lsl #2]
 1746 0174 0791     		str	r1, [sp, #28]
 1747 0176 D1B2     		uxtb	r1, r2
 1748 0178 CCF30728 		ubfx	r8, ip, #8, #8
 1749 017c 5AF82170 		ldr	r7, [r10, r1, lsl #2]
 1750 0180 0199     		ldr	r1, [sp, #4]
 1751 0182 55F82850 		ldr	r5, [r5, r8, lsl #2]
 1752 0186 51F8101C 		ldr	r1, [r1, #-16]
 1753 018a 0695     		str	r5, [sp, #24]
 1754 018c 8EEA010E 		eor	lr, lr, r1
 1755 0190 029D     		ldr	r5, [sp, #8]
 1756 0192 010E     		lsrs	r1, r0, #24
 1757 0194 C0B2     		uxtb	r0, r0
 1758              	.LVL126:
 1759              		.loc 1 955 9 discriminator 3 view .LVU574
 1760 0196 55F82110 		ldr	r1, [r5, r1, lsl #2]
 1761 019a 019D     		ldr	r5, [sp, #4]
 1762 019c 87EA0108 		eor	r8, r7, r1
 1763 01a0 55F80C7C 		ldr	r7, [r5, #-12]
 1764 01a4 4FEA1C61 		lsr	r1, ip, #24
 1765 01a8 83EA0709 		eor	r9, r3, r7
ARM GAS  T:\msys\tmp\ccwessdu.s 			page 55


 1766 01ac 55F8087C 		ldr	r7, [r5, #-8]
 1767 01b0 029D     		ldr	r5, [sp, #8]
 1768 01b2 5AF82030 		ldr	r3, [r10, r0, lsl #2]
 1769 01b6 55F82110 		ldr	r1, [r5, r1, lsl #2]
 1770 01ba 039D     		ldr	r5, [sp, #12]
 1771 01bc 4B40     		eors	r3, r3, r1
 1772 01be C2F30722 		ubfx	r2, r2, #8, #8
 1773              	.LVL127:
 1774              		.loc 1 955 9 discriminator 3 view .LVU575
 1775 01c2 C4F30721 		ubfx	r1, r4, #8, #8
 1776 01c6 CCF3074C 		ubfx	ip, ip, #16, #8
 1777              	.LVL128:
 1778              		.loc 1 955 9 discriminator 3 view .LVU576
 1779 01ca C4F30744 		ubfx	r4, r4, #16, #8
 1780              	.LVL129:
 1781              		.loc 1 955 9 discriminator 3 view .LVU577
 1782 01ce 55F82220 		ldr	r2, [r5, r2, lsl #2]
 1783 01d2 5BF82C00 		ldr	r0, [fp, ip, lsl #2]
 1784 01d6 8EEA060E 		eor	lr, lr, r6
 1785 01da 88EA0708 		eor	r8, r8, r7
 1786 01de 55F82160 		ldr	r6, [r5, r1, lsl #2]
 1787 01e2 5BF82470 		ldr	r7, [fp, r4, lsl #2]
 1788 01e6 0199     		ldr	r1, [sp, #4]
 1789 01e8 059D     		ldr	r5, [sp, #20]
 1790 01ea 51F8044C 		ldr	r4, [r1, #-4]
 1791 01ee 83EA0401 		eor	r1, r3, r4
 1792 01f2 069B     		ldr	r3, [sp, #24]
 1793 01f4 89EA0309 		eor	r9, r9, r3
 1794 01f8 079B     		ldr	r3, [sp, #28]
 1795 01fa 5140     		eors	r1, r1, r2
 1796 01fc 89EA0309 		eor	r9, r9, r3
 1797 0200 8EEA0502 		eor	r2, lr, r5
 1798              	.LVL130:
 1799              		.loc 1 955 9 is_stmt 1 discriminator 3 view .LVU578
 1800              		.loc 1 955 9 discriminator 3 view .LVU579
 952:D:/fchai/work/i-cube/I-CUBE-HUAWEI/Middlewares/Third_Party/Huawei/iot_link/network/dtls/mbedtls/mbedtls-2.16.2/library\aes.c ****     {
 1801              		.loc 1 952 5 is_stmt 0 discriminator 3 view .LVU580
 1802 0204 049B     		ldr	r3, [sp, #16]
 1803 0206 019D     		ldr	r5, [sp, #4]
 1804              		.loc 1 955 9 discriminator 3 view .LVU581
 1805 0208 88EA0608 		eor	r8, r8, r6
 1806 020c 2035     		adds	r5, r5, #32
 952:D:/fchai/work/i-cube/I-CUBE-HUAWEI/Middlewares/Third_Party/Huawei/iot_link/network/dtls/mbedtls/mbedtls-2.16.2/library\aes.c ****     {
 1807              		.loc 1 952 5 discriminator 3 view .LVU582
 1808 020e 013B     		subs	r3, r3, #1
 1809              		.loc 1 955 9 discriminator 3 view .LVU583
 1810 0210 88EA0006 		eor	r6, r8, r0
 1811              	.LVL131:
 1812              		.loc 1 955 9 is_stmt 1 discriminator 3 view .LVU584
 1813              		.loc 1 955 9 is_stmt 0 discriminator 3 view .LVU585
 1814 0214 81EA0701 		eor	r1, r1, r7
 1815              	.LVL132:
 1816              		.loc 1 955 9 is_stmt 1 discriminator 3 view .LVU586
 952:D:/fchai/work/i-cube/I-CUBE-HUAWEI/Middlewares/Third_Party/Huawei/iot_link/network/dtls/mbedtls/mbedtls-2.16.2/library\aes.c ****     {
 1817              		.loc 1 952 43 discriminator 3 view .LVU587
 952:D:/fchai/work/i-cube/I-CUBE-HUAWEI/Middlewares/Third_Party/Huawei/iot_link/network/dtls/mbedtls/mbedtls-2.16.2/library\aes.c ****     {
 1818              		.loc 1 952 36 discriminator 3 view .LVU588
ARM GAS  T:\msys\tmp\ccwessdu.s 			page 56


 1819 0218 0195     		str	r5, [sp, #4]
 1820              	.LVL133:
 952:D:/fchai/work/i-cube/I-CUBE-HUAWEI/Middlewares/Third_Party/Huawei/iot_link/network/dtls/mbedtls/mbedtls-2.16.2/library\aes.c ****     {
 1821              		.loc 1 952 5 is_stmt 0 discriminator 3 view .LVU589
 1822 021a 0493     		str	r3, [sp, #16]
 1823 021c 7FF41FAF 		bne	.L58
 1824 0220 089B     		ldr	r3, [sp, #32]
 1825              	.LVL134:
 952:D:/fchai/work/i-cube/I-CUBE-HUAWEI/Middlewares/Third_Party/Huawei/iot_link/network/dtls/mbedtls/mbedtls-2.16.2/library\aes.c ****     {
 1826              		.loc 1 952 5 discriminator 3 view .LVU590
 1827 0222 0596     		str	r6, [sp, #20]
 1828 0224 8846     		mov	r8, r1
 1829 0226 0B99     		ldr	r1, [sp, #44]
 1830              	.LVL135:
 952:D:/fchai/work/i-cube/I-CUBE-HUAWEI/Middlewares/Third_Party/Huawei/iot_link/network/dtls/mbedtls/mbedtls-2.16.2/library\aes.c ****     {
 1831              		.loc 1 952 5 discriminator 3 view .LVU591
 1832 0228 03EB4113 		add	r3, r3, r1, lsl #5
 1833 022c 0893     		str	r3, [sp, #32]
 1834              	.LVL136:
 1835              	.L57:
 956:D:/fchai/work/i-cube/I-CUBE-HUAWEI/Middlewares/Third_Party/Huawei/iot_link/network/dtls/mbedtls/mbedtls-2.16.2/library\aes.c ****     }
 957:D:/fchai/work/i-cube/I-CUBE-HUAWEI/Middlewares/Third_Party/Huawei/iot_link/network/dtls/mbedtls/mbedtls-2.16.2/library\aes.c **** 
 958:D:/fchai/work/i-cube/I-CUBE-HUAWEI/Middlewares/Third_Party/Huawei/iot_link/network/dtls/mbedtls/mbedtls-2.16.2/library\aes.c ****     AES_RROUND( Y0, Y1, Y2, Y3, X0, X1, X2, X3 );
 1836              		.loc 1 958 5 is_stmt 1 view .LVU592
 1837              		.loc 1 958 5 view .LVU593
 1838              		.loc 1 958 5 is_stmt 0 view .LVU594
 1839 022e 029E     		ldr	r6, [sp, #8]
 1840 0230 0999     		ldr	r1, [sp, #36]
 1841 0232 059B     		ldr	r3, [sp, #20]
 1842 0234 4FEA1860 		lsr	r0, r8, #24
 1843 0238 5FFA82FC 		uxtb	ip, r2
 1844 023c 4FEA1967 		lsr	r7, r9, #24
 1845 0240 56F820A0 		ldr	r10, [r6, r0, lsl #2]
 1846 0244 0898     		ldr	r0, [sp, #32]
 1847 0246 56F82770 		ldr	r7, [r6, r7, lsl #2]
 1848 024a 51F82CC0 		ldr	ip, [r1, ip, lsl #2]
 1849 024e 0999     		ldr	r1, [sp, #36]
 1850 0250 0068     		ldr	r0, [r0]
 1851 0252 0190     		str	r0, [sp, #4]
 1852 0254 5FFA89F5 		uxtb	r5, r9
 1853 0258 5FFA88F4 		uxtb	r4, r8
 1854 025c 1B0E     		lsrs	r3, r3, #24
 1855 025e 51F825E0 		ldr	lr, [r1, r5, lsl #2]
 1856 0262 51F82440 		ldr	r4, [r1, r4, lsl #2]
 1857 0266 0399     		ldr	r1, [sp, #12]
 1858 0268 56F82330 		ldr	r3, [r6, r3, lsl #2]
 959:D:/fchai/work/i-cube/I-CUBE-HUAWEI/Middlewares/Third_Party/Huawei/iot_link/network/dtls/mbedtls/mbedtls-2.16.2/library\aes.c **** 
 960:D:/fchai/work/i-cube/I-CUBE-HUAWEI/Middlewares/Third_Party/Huawei/iot_link/network/dtls/mbedtls/mbedtls-2.16.2/library\aes.c ****     X0 = *RK++ ^ \
 961:D:/fchai/work/i-cube/I-CUBE-HUAWEI/Middlewares/Third_Party/Huawei/iot_link/network/dtls/mbedtls/mbedtls-2.16.2/library\aes.c ****             ( (uint32_t) RSb[ ( Y0       ) & 0xFF ]       ) ^
 1859              		.loc 1 961 29 view .LVU595
 1860 026c 464D     		ldr	r5, .L64+12
 958:D:/fchai/work/i-cube/I-CUBE-HUAWEI/Middlewares/Third_Party/Huawei/iot_link/network/dtls/mbedtls/mbedtls-2.16.2/library\aes.c **** 
 1861              		.loc 1 958 5 view .LVU596
 1862 026e 8CEA070C 		eor	ip, ip, r7
 1863 0272 100E     		lsrs	r0, r2, #24
 1864 0274 C8F30727 		ubfx	r7, r8, #8, #8
 1865 0278 56F82000 		ldr	r0, [r6, r0, lsl #2]
ARM GAS  T:\msys\tmp\ccwessdu.s 			page 57


 1866 027c 51F82710 		ldr	r1, [r1, r7, lsl #2]
 1867 0280 099E     		ldr	r6, [sp, #36]
 1868 0282 9DF81470 		ldrb	r7, [sp, #20]	@ zero_extendqisi2
 1869 0286 0291     		str	r1, [sp, #8]
 1870 0288 8EEA030E 		eor	lr, lr, r3
 1871 028c C2F30723 		ubfx	r3, r2, #8, #8
 1872 0290 C2F30742 		ubfx	r2, r2, #16, #8
 1873              	.LVL137:
 958:D:/fchai/work/i-cube/I-CUBE-HUAWEI/Middlewares/Third_Party/Huawei/iot_link/network/dtls/mbedtls/mbedtls-2.16.2/library\aes.c **** 
 1874              		.loc 1 958 5 view .LVU597
 1875 0294 56F82770 		ldr	r7, [r6, r7, lsl #2]
 1876 0298 039E     		ldr	r6, [sp, #12]
 1877 029a 5BF82220 		ldr	r2, [fp, r2, lsl #2]
 1878 029e 0692     		str	r2, [sp, #24]
 1879 02a0 C8F30741 		ubfx	r1, r8, #16, #8
 1880 02a4 089A     		ldr	r2, [sp, #32]
 1881 02a6 5BF82180 		ldr	r8, [fp, r1, lsl #2]
 1882              	.LVL138:
 958:D:/fchai/work/i-cube/I-CUBE-HUAWEI/Middlewares/Third_Party/Huawei/iot_link/network/dtls/mbedtls/mbedtls-2.16.2/library\aes.c **** 
 1883              		.loc 1 958 5 view .LVU598
 1884 02aa 56F82310 		ldr	r1, [r6, r3, lsl #2]
 1885 02ae 87EA0A03 		eor	r3, r7, r10
 1886 02b2 0493     		str	r3, [sp, #16]
 1887              	.LVL139:
 958:D:/fchai/work/i-cube/I-CUBE-HUAWEI/Middlewares/Third_Party/Huawei/iot_link/network/dtls/mbedtls/mbedtls-2.16.2/library\aes.c **** 
 1888              		.loc 1 958 5 view .LVU599
 1889 02b4 059B     		ldr	r3, [sp, #20]
 1890 02b6 6040     		eors	r0, r0, r4
 1891 02b8 5468     		ldr	r4, [r2, #4]
 1892 02ba 0394     		str	r4, [sp, #12]
 1893 02bc C3F30722 		ubfx	r2, r3, #8, #8
 1894 02c0 C3F30744 		ubfx	r4, r3, #16, #8
 1895 02c4 56F82220 		ldr	r2, [r6, r2, lsl #2]
 1896 02c8 5BF82440 		ldr	r4, [fp, r4, lsl #2]
 1897 02cc 3346     		mov	r3, r6
 1898 02ce 089E     		ldr	r6, [sp, #32]
 1899 02d0 F768     		ldr	r7, [r6, #12]
 1900 02d2 0597     		str	r7, [sp, #20]
 1901              	.LVL140:
 958:D:/fchai/work/i-cube/I-CUBE-HUAWEI/Middlewares/Third_Party/Huawei/iot_link/network/dtls/mbedtls/mbedtls-2.16.2/library\aes.c **** 
 1902              		.loc 1 958 5 view .LVU600
 1903 02d4 019F     		ldr	r7, [sp, #4]
 1904 02d6 039E     		ldr	r6, [sp, #12]
 1905 02d8 8CEA0707 		eor	r7, ip, r7
 1906 02dc C9F3072C 		ubfx	ip, r9, #8, #8
 1907 02e0 8EEA060E 		eor	lr, lr, r6
 1908 02e4 53F82CA0 		ldr	r10, [r3, ip, lsl #2]
 1909 02e8 089B     		ldr	r3, [sp, #32]
 1910 02ea 9B68     		ldr	r3, [r3, #8]
 1911 02ec 0193     		str	r3, [sp, #4]
 1912 02ee 059B     		ldr	r3, [sp, #20]
 1913 02f0 5840     		eors	r0, r0, r3
 1914 02f2 049B     		ldr	r3, [sp, #16]
 1915 02f4 C9F30746 		ubfx	r6, r9, #16, #8
 1916 02f8 9C46     		mov	ip, r3
 1917 02fa 019B     		ldr	r3, [sp, #4]
 1918 02fc 5BF82660 		ldr	r6, [fp, r6, lsl #2]
ARM GAS  T:\msys\tmp\ccwessdu.s 			page 58


 1919 0300 8CEA0309 		eor	r9, ip, r3
 1920              	.LVL141:
 958:D:/fchai/work/i-cube/I-CUBE-HUAWEI/Middlewares/Third_Party/Huawei/iot_link/network/dtls/mbedtls/mbedtls-2.16.2/library\aes.c **** 
 1921              		.loc 1 958 5 view .LVU601
 1922 0304 029B     		ldr	r3, [sp, #8]
 1923 0306 4240     		eors	r2, r2, r0
 1924 0308 7240     		eors	r2, r2, r6
 1925 030a 5F40     		eors	r7, r7, r3
 1926 030c 069B     		ldr	r3, [sp, #24]
 1927 030e 89EA0A09 		eor	r9, r9, r10
 962:D:/fchai/work/i-cube/I-CUBE-HUAWEI/Middlewares/Third_Party/Huawei/iot_link/network/dtls/mbedtls/mbedtls-2.16.2/library\aes.c ****             ( (uint32_t) RSb[ ( Y3 >>  8 ) & 0xFF ] <<  8 ) ^
 963:D:/fchai/work/i-cube/I-CUBE-HUAWEI/Middlewares/Third_Party/Huawei/iot_link/network/dtls/mbedtls/mbedtls-2.16.2/library\aes.c ****             ( (uint32_t) RSb[ ( Y2 >> 16 ) & 0xFF ] << 16 ) ^
 964:D:/fchai/work/i-cube/I-CUBE-HUAWEI/Middlewares/Third_Party/Huawei/iot_link/network/dtls/mbedtls/mbedtls-2.16.2/library\aes.c ****             ( (uint32_t) RSb[ ( Y1 >> 24 ) & 0xFF ] << 24 );
 965:D:/fchai/work/i-cube/I-CUBE-HUAWEI/Middlewares/Third_Party/Huawei/iot_link/network/dtls/mbedtls/mbedtls-2.16.2/library\aes.c **** 
 966:D:/fchai/work/i-cube/I-CUBE-HUAWEI/Middlewares/Third_Party/Huawei/iot_link/network/dtls/mbedtls/mbedtls-2.16.2/library\aes.c ****     X1 = *RK++ ^ \
 967:D:/fchai/work/i-cube/I-CUBE-HUAWEI/Middlewares/Third_Party/Huawei/iot_link/network/dtls/mbedtls/mbedtls-2.16.2/library\aes.c ****             ( (uint32_t) RSb[ ( Y1       ) & 0xFF ]       ) ^
 968:D:/fchai/work/i-cube/I-CUBE-HUAWEI/Middlewares/Third_Party/Huawei/iot_link/network/dtls/mbedtls/mbedtls-2.16.2/library\aes.c ****             ( (uint32_t) RSb[ ( Y0 >>  8 ) & 0xFF ] <<  8 ) ^
 969:D:/fchai/work/i-cube/I-CUBE-HUAWEI/Middlewares/Third_Party/Huawei/iot_link/network/dtls/mbedtls/mbedtls-2.16.2/library\aes.c ****             ( (uint32_t) RSb[ ( Y3 >> 16 ) & 0xFF ] << 16 ) ^
 1928              		.loc 1 969 44 view .LVU602
 1929 0312 C2F30746 		ubfx	r6, r2, #16, #8
 958:D:/fchai/work/i-cube/I-CUBE-HUAWEI/Middlewares/Third_Party/Huawei/iot_link/network/dtls/mbedtls/mbedtls-2.16.2/library\aes.c **** 
 1930              		.loc 1 958 5 view .LVU603
 1931 0316 87EA0400 		eor	r0, r7, r4
 1932              	.LVL142:
 958:D:/fchai/work/i-cube/I-CUBE-HUAWEI/Middlewares/Third_Party/Huawei/iot_link/network/dtls/mbedtls/mbedtls-2.16.2/library\aes.c **** 
 1933              		.loc 1 958 5 is_stmt 1 view .LVU604
 958:D:/fchai/work/i-cube/I-CUBE-HUAWEI/Middlewares/Third_Party/Huawei/iot_link/network/dtls/mbedtls/mbedtls-2.16.2/library\aes.c **** 
 1934              		.loc 1 958 5 is_stmt 0 view .LVU605
 1935 031a 89EA0303 		eor	r3, r9, r3
 1936              		.loc 1 969 44 view .LVU606
 1937 031e 0596     		str	r6, [sp, #20]
 958:D:/fchai/work/i-cube/I-CUBE-HUAWEI/Middlewares/Third_Party/Huawei/iot_link/network/dtls/mbedtls/mbedtls-2.16.2/library\aes.c **** 
 1938              		.loc 1 958 5 view .LVU607
 1939 0320 8EEA0101 		eor	r1, lr, r1
 970:D:/fchai/work/i-cube/I-CUBE-HUAWEI/Middlewares/Third_Party/Huawei/iot_link/network/dtls/mbedtls/mbedtls-2.16.2/library\aes.c ****             ( (uint32_t) RSb[ ( Y2 >> 24 ) & 0xFF ] << 24 );
 971:D:/fchai/work/i-cube/I-CUBE-HUAWEI/Middlewares/Third_Party/Huawei/iot_link/network/dtls/mbedtls/mbedtls-2.16.2/library\aes.c **** 
 972:D:/fchai/work/i-cube/I-CUBE-HUAWEI/Middlewares/Third_Party/Huawei/iot_link/network/dtls/mbedtls/mbedtls-2.16.2/library\aes.c ****     X2 = *RK++ ^ \
 973:D:/fchai/work/i-cube/I-CUBE-HUAWEI/Middlewares/Third_Party/Huawei/iot_link/network/dtls/mbedtls/mbedtls-2.16.2/library\aes.c ****             ( (uint32_t) RSb[ ( Y2       ) & 0xFF ]       ) ^
 974:D:/fchai/work/i-cube/I-CUBE-HUAWEI/Middlewares/Third_Party/Huawei/iot_link/network/dtls/mbedtls/mbedtls-2.16.2/library\aes.c ****             ( (uint32_t) RSb[ ( Y1 >>  8 ) & 0xFF ] <<  8 ) ^
 975:D:/fchai/work/i-cube/I-CUBE-HUAWEI/Middlewares/Third_Party/Huawei/iot_link/network/dtls/mbedtls/mbedtls-2.16.2/library\aes.c ****             ( (uint32_t) RSb[ ( Y0 >> 16 ) & 0xFF ] << 16 ) ^
 976:D:/fchai/work/i-cube/I-CUBE-HUAWEI/Middlewares/Third_Party/Huawei/iot_link/network/dtls/mbedtls/mbedtls-2.16.2/library\aes.c ****             ( (uint32_t) RSb[ ( Y3 >> 24 ) & 0xFF ] << 24 );
 1940              		.loc 1 976 36 view .LVU608
 1941 0324 160E     		lsrs	r6, r2, #24
 962:D:/fchai/work/i-cube/I-CUBE-HUAWEI/Middlewares/Third_Party/Huawei/iot_link/network/dtls/mbedtls/mbedtls-2.16.2/library\aes.c ****             ( (uint32_t) RSb[ ( Y3 >>  8 ) & 0xFF ] <<  8 ) ^
 1942              		.loc 1 962 44 view .LVU609
 1943 0326 C2F30729 		ubfx	r9, r2, #8, #8
 977:D:/fchai/work/i-cube/I-CUBE-HUAWEI/Middlewares/Third_Party/Huawei/iot_link/network/dtls/mbedtls/mbedtls-2.16.2/library\aes.c **** 
 978:D:/fchai/work/i-cube/I-CUBE-HUAWEI/Middlewares/Third_Party/Huawei/iot_link/network/dtls/mbedtls/mbedtls-2.16.2/library\aes.c ****     X3 = *RK++ ^ \
 979:D:/fchai/work/i-cube/I-CUBE-HUAWEI/Middlewares/Third_Party/Huawei/iot_link/network/dtls/mbedtls/mbedtls-2.16.2/library\aes.c ****             ( (uint32_t) RSb[ ( Y3       ) & 0xFF ]       ) ^
 1944              		.loc 1 979 44 view .LVU610
 1945 032a D2B2     		uxtb	r2, r2
 958:D:/fchai/work/i-cube/I-CUBE-HUAWEI/Middlewares/Third_Party/Huawei/iot_link/network/dtls/mbedtls/mbedtls-2.16.2/library\aes.c **** 
 1946              		.loc 1 958 5 view .LVU611
 1947 032c 81EA0801 		eor	r1, r1, r8
 1948              	.LVL143:
 958:D:/fchai/work/i-cube/I-CUBE-HUAWEI/Middlewares/Third_Party/Huawei/iot_link/network/dtls/mbedtls/mbedtls-2.16.2/library\aes.c **** 
 1949              		.loc 1 958 5 is_stmt 1 view .LVU612
ARM GAS  T:\msys\tmp\ccwessdu.s 			page 59


 958:D:/fchai/work/i-cube/I-CUBE-HUAWEI/Middlewares/Third_Party/Huawei/iot_link/network/dtls/mbedtls/mbedtls-2.16.2/library\aes.c **** 
 1950              		.loc 1 958 5 view .LVU613
 958:D:/fchai/work/i-cube/I-CUBE-HUAWEI/Middlewares/Third_Party/Huawei/iot_link/network/dtls/mbedtls/mbedtls-2.16.2/library\aes.c **** 
 1951              		.loc 1 958 5 view .LVU614
 960:D:/fchai/work/i-cube/I-CUBE-HUAWEI/Middlewares/Third_Party/Huawei/iot_link/network/dtls/mbedtls/mbedtls-2.16.2/library\aes.c ****             ( (uint32_t) RSb[ ( Y0       ) & 0xFF ]       ) ^
 1952              		.loc 1 960 5 view .LVU615
 1953              		.loc 1 979 44 is_stmt 0 view .LVU616
 1954 0330 0792     		str	r2, [sp, #28]
 961:D:/fchai/work/i-cube/I-CUBE-HUAWEI/Middlewares/Third_Party/Huawei/iot_link/network/dtls/mbedtls/mbedtls-2.16.2/library\aes.c ****             ( (uint32_t) RSb[ ( Y3 >>  8 ) & 0xFF ] <<  8 ) ^
 1955              		.loc 1 961 44 view .LVU617
 1956 0332 5FFA80FB 		uxtb	fp, r0
 960:D:/fchai/work/i-cube/I-CUBE-HUAWEI/Middlewares/Third_Party/Huawei/iot_link/network/dtls/mbedtls/mbedtls-2.16.2/library\aes.c ****             ( (uint32_t) RSb[ ( Y0       ) & 0xFF ]       ) ^
 1957              		.loc 1 960 8 view .LVU618
 1958 0336 089A     		ldr	r2, [sp, #32]
 976:D:/fchai/work/i-cube/I-CUBE-HUAWEI/Middlewares/Third_Party/Huawei/iot_link/network/dtls/mbedtls/mbedtls-2.16.2/library\aes.c **** 
 1959              		.loc 1 976 36 view .LVU619
 1960 0338 0696     		str	r6, [sp, #24]
 963:D:/fchai/work/i-cube/I-CUBE-HUAWEI/Middlewares/Third_Party/Huawei/iot_link/network/dtls/mbedtls/mbedtls-2.16.2/library\aes.c ****             ( (uint32_t) RSb[ ( Y1 >> 24 ) & 0xFF ] << 24 );
 1961              		.loc 1 963 44 view .LVU620
 1962 033a C3F30748 		ubfx	r8, r3, #16, #8
 970:D:/fchai/work/i-cube/I-CUBE-HUAWEI/Middlewares/Third_Party/Huawei/iot_link/network/dtls/mbedtls/mbedtls-2.16.2/library\aes.c **** 
 1963              		.loc 1 970 36 view .LVU621
 1964 033e 4FEA136C 		lsr	ip, r3, #24
 968:D:/fchai/work/i-cube/I-CUBE-HUAWEI/Middlewares/Third_Party/Huawei/iot_link/network/dtls/mbedtls/mbedtls-2.16.2/library\aes.c ****             ( (uint32_t) RSb[ ( Y3 >> 16 ) & 0xFF ] << 16 ) ^
 1965              		.loc 1 968 44 view .LVU622
 1966 0342 C0F30727 		ubfx	r7, r0, #8, #8
 969:D:/fchai/work/i-cube/I-CUBE-HUAWEI/Middlewares/Third_Party/Huawei/iot_link/network/dtls/mbedtls/mbedtls-2.16.2/library\aes.c ****             ( (uint32_t) RSb[ ( Y2 >> 24 ) & 0xFF ] << 24 );
 1967              		.loc 1 969 15 view .LVU623
 1968 0346 059E     		ldr	r6, [sp, #20]
 961:D:/fchai/work/i-cube/I-CUBE-HUAWEI/Middlewares/Third_Party/Huawei/iot_link/network/dtls/mbedtls/mbedtls-2.16.2/library\aes.c ****             ( (uint32_t) RSb[ ( Y3 >>  8 ) & 0xFF ] <<  8 ) ^
 1969              		.loc 1 961 15 view .LVU624
 1970 0348 15F80BB0 		ldrb	fp, [r5, fp]	@ zero_extendqisi2
 962:D:/fchai/work/i-cube/I-CUBE-HUAWEI/Middlewares/Third_Party/Huawei/iot_link/network/dtls/mbedtls/mbedtls-2.16.2/library\aes.c ****             ( (uint32_t) RSb[ ( Y2 >> 16 ) & 0xFF ] << 16 ) ^
 1971              		.loc 1 962 15 view .LVU625
 1972 034c 15F80990 		ldrb	r9, [r5, r9]	@ zero_extendqisi2
 963:D:/fchai/work/i-cube/I-CUBE-HUAWEI/Middlewares/Third_Party/Huawei/iot_link/network/dtls/mbedtls/mbedtls-2.16.2/library\aes.c ****             ( (uint32_t) RSb[ ( Y1 >> 24 ) & 0xFF ] << 24 );
 1973              		.loc 1 963 15 view .LVU626
 1974 0350 15F80880 		ldrb	r8, [r5, r8]	@ zero_extendqisi2
 968:D:/fchai/work/i-cube/I-CUBE-HUAWEI/Middlewares/Third_Party/Huawei/iot_link/network/dtls/mbedtls/mbedtls-2.16.2/library\aes.c ****             ( (uint32_t) RSb[ ( Y3 >> 16 ) & 0xFF ] << 16 ) ^
 1975              		.loc 1 968 15 view .LVU627
 1976 0354 EF5D     		ldrb	r7, [r5, r7]	@ zero_extendqisi2
 970:D:/fchai/work/i-cube/I-CUBE-HUAWEI/Middlewares/Third_Party/Huawei/iot_link/network/dtls/mbedtls/mbedtls-2.16.2/library\aes.c **** 
 1977              		.loc 1 970 15 view .LVU628
 1978 0356 15F80CC0 		ldrb	ip, [r5, ip]	@ zero_extendqisi2
 960:D:/fchai/work/i-cube/I-CUBE-HUAWEI/Middlewares/Third_Party/Huawei/iot_link/network/dtls/mbedtls/mbedtls-2.16.2/library\aes.c ****             ( (uint32_t) RSb[ ( Y0       ) & 0xFF ]       ) ^
 1979              		.loc 1 960 8 view .LVU629
 1980 035a 1269     		ldr	r2, [r2, #16]
 962:D:/fchai/work/i-cube/I-CUBE-HUAWEI/Middlewares/Third_Party/Huawei/iot_link/network/dtls/mbedtls/mbedtls-2.16.2/library\aes.c ****             ( (uint32_t) RSb[ ( Y2 >> 16 ) & 0xFF ] << 16 ) ^
 1981              		.loc 1 962 15 view .LVU630
 1982 035c CDF80490 		str	r9, [sp, #4]
 973:D:/fchai/work/i-cube/I-CUBE-HUAWEI/Middlewares/Third_Party/Huawei/iot_link/network/dtls/mbedtls/mbedtls-2.16.2/library\aes.c ****             ( (uint32_t) RSb[ ( Y1 >>  8 ) & 0xFF ] <<  8 ) ^
 1983              		.loc 1 973 44 view .LVU631
 1984 0360 DCB2     		uxtb	r4, r3
 964:D:/fchai/work/i-cube/I-CUBE-HUAWEI/Middlewares/Third_Party/Huawei/iot_link/network/dtls/mbedtls/mbedtls-2.16.2/library\aes.c **** 
 1985              		.loc 1 964 36 view .LVU632
 1986 0362 4FEA116A 		lsr	r10, r1, #24
 967:D:/fchai/work/i-cube/I-CUBE-HUAWEI/Middlewares/Third_Party/Huawei/iot_link/network/dtls/mbedtls/mbedtls-2.16.2/library\aes.c ****             ( (uint32_t) RSb[ ( Y0 >>  8 ) & 0xFF ] <<  8 ) ^
ARM GAS  T:\msys\tmp\ccwessdu.s 			page 60


 1987              		.loc 1 967 44 view .LVU633
 1988 0366 5FFA81FE 		uxtb	lr, r1
 964:D:/fchai/work/i-cube/I-CUBE-HUAWEI/Middlewares/Third_Party/Huawei/iot_link/network/dtls/mbedtls/mbedtls-2.16.2/library\aes.c **** 
 1989              		.loc 1 964 15 view .LVU634
 1990 036a 15F80AA0 		ldrb	r10, [r5, r10]	@ zero_extendqisi2
 967:D:/fchai/work/i-cube/I-CUBE-HUAWEI/Middlewares/Third_Party/Huawei/iot_link/network/dtls/mbedtls/mbedtls-2.16.2/library\aes.c ****             ( (uint32_t) RSb[ ( Y0 >>  8 ) & 0xFF ] <<  8 ) ^
 1991              		.loc 1 967 15 view .LVU635
 1992 036e 15F80EE0 		ldrb	lr, [r5, lr]	@ zero_extendqisi2
 963:D:/fchai/work/i-cube/I-CUBE-HUAWEI/Middlewares/Third_Party/Huawei/iot_link/network/dtls/mbedtls/mbedtls-2.16.2/library\aes.c ****             ( (uint32_t) RSb[ ( Y1 >> 24 ) & 0xFF ] << 24 );
 1993              		.loc 1 963 15 view .LVU636
 1994 0372 CDF80880 		str	r8, [sp, #8]
 968:D:/fchai/work/i-cube/I-CUBE-HUAWEI/Middlewares/Third_Party/Huawei/iot_link/network/dtls/mbedtls/mbedtls-2.16.2/library\aes.c ****             ( (uint32_t) RSb[ ( Y3 >> 16 ) & 0xFF ] << 16 ) ^
 1995              		.loc 1 968 15 view .LVU637
 1996 0376 0497     		str	r7, [sp, #16]
 1997 0378 0AE0     		b	.L65
 1998              	.L66:
 1999 037a 00BF     		.align	2
 2000              	.L64:
 2001 037c 00000000 		.word	.LANCHOR2
 2002 0380 00000000 		.word	.LANCHOR3
 2003 0384 00000000 		.word	.LANCHOR4
 2004 0388 00000000 		.word	.LANCHOR10
 2005 038c 00000000 		.word	.LANCHOR5
 2006              	.L65:
 970:D:/fchai/work/i-cube/I-CUBE-HUAWEI/Middlewares/Third_Party/Huawei/iot_link/network/dtls/mbedtls/mbedtls-2.16.2/library\aes.c **** 
 2007              		.loc 1 970 15 view .LVU638
 2008 0390 CDF80CC0 		str	ip, [sp, #12]
 969:D:/fchai/work/i-cube/I-CUBE-HUAWEI/Middlewares/Third_Party/Huawei/iot_link/network/dtls/mbedtls/mbedtls-2.16.2/library\aes.c ****             ( (uint32_t) RSb[ ( Y2 >> 24 ) & 0xFF ] << 24 );
 2009              		.loc 1 969 15 view .LVU639
 2010 0394 15F806C0 		ldrb	ip, [r5, r6]	@ zero_extendqisi2
 973:D:/fchai/work/i-cube/I-CUBE-HUAWEI/Middlewares/Third_Party/Huawei/iot_link/network/dtls/mbedtls/mbedtls-2.16.2/library\aes.c ****             ( (uint32_t) RSb[ ( Y1 >>  8 ) & 0xFF ] <<  8 ) ^
 2011              		.loc 1 973 15 view .LVU640
 2012 0398 2F5D     		ldrb	r7, [r5, r4]	@ zero_extendqisi2
 966:D:/fchai/work/i-cube/I-CUBE-HUAWEI/Middlewares/Third_Party/Huawei/iot_link/network/dtls/mbedtls/mbedtls-2.16.2/library\aes.c ****             ( (uint32_t) RSb[ ( Y1       ) & 0xFF ]       ) ^
 2013              		.loc 1 966 8 view .LVU641
 2014 039a 089C     		ldr	r4, [sp, #32]
 976:D:/fchai/work/i-cube/I-CUBE-HUAWEI/Middlewares/Third_Party/Huawei/iot_link/network/dtls/mbedtls/mbedtls-2.16.2/library\aes.c **** 
 2015              		.loc 1 976 15 view .LVU642
 2016 039c 069E     		ldr	r6, [sp, #24]
 969:D:/fchai/work/i-cube/I-CUBE-HUAWEI/Middlewares/Third_Party/Huawei/iot_link/network/dtls/mbedtls/mbedtls-2.16.2/library\aes.c ****             ( (uint32_t) RSb[ ( Y2 >> 24 ) & 0xFF ] << 24 );
 2017              		.loc 1 969 15 view .LVU643
 2018 039e CDF814C0 		str	ip, [sp, #20]
 960:D:/fchai/work/i-cube/I-CUBE-HUAWEI/Middlewares/Third_Party/Huawei/iot_link/network/dtls/mbedtls/mbedtls-2.16.2/library\aes.c ****             ( (uint32_t) RSb[ ( Y0       ) & 0xFF ]       ) ^
 2019              		.loc 1 960 8 view .LVU644
 2020 03a2 8BEA0202 		eor	r2, fp, r2
 2021 03a6 82EA0A6A 		eor	r10, r2, r10, lsl #24
 972:D:/fchai/work/i-cube/I-CUBE-HUAWEI/Middlewares/Third_Party/Huawei/iot_link/network/dtls/mbedtls/mbedtls-2.16.2/library\aes.c ****             ( (uint32_t) RSb[ ( Y2       ) & 0xFF ]       ) ^
 2022              		.loc 1 972 8 view .LVU645
 2023 03aa D4E9052B 		ldrd	r2, fp, [r4, #20]
 976:D:/fchai/work/i-cube/I-CUBE-HUAWEI/Middlewares/Third_Party/Huawei/iot_link/network/dtls/mbedtls/mbedtls-2.16.2/library\aes.c **** 
 2024              		.loc 1 976 15 view .LVU646
 2025 03ae 15F80680 		ldrb	r8, [r5, r6]	@ zero_extendqisi2
 2026              		.loc 1 979 15 view .LVU647
 2027 03b2 079E     		ldr	r6, [sp, #28]
 978:D:/fchai/work/i-cube/I-CUBE-HUAWEI/Middlewares/Third_Party/Huawei/iot_link/network/dtls/mbedtls/mbedtls-2.16.2/library\aes.c ****             ( (uint32_t) RSb[ ( Y3       ) & 0xFF ]       ) ^
 2028              		.loc 1 978 8 view .LVU648
 2029 03b4 E469     		ldr	r4, [r4, #28]
ARM GAS  T:\msys\tmp\ccwessdu.s 			page 61


 2030              		.loc 1 979 15 view .LVU649
 2031 03b6 15F80690 		ldrb	r9, [r5, r6]	@ zero_extendqisi2
 980:D:/fchai/work/i-cube/I-CUBE-HUAWEI/Middlewares/Third_Party/Huawei/iot_link/network/dtls/mbedtls/mbedtls-2.16.2/library\aes.c ****             ( (uint32_t) RSb[ ( Y2 >>  8 ) & 0xFF ] <<  8 ) ^
 981:D:/fchai/work/i-cube/I-CUBE-HUAWEI/Middlewares/Third_Party/Huawei/iot_link/network/dtls/mbedtls/mbedtls-2.16.2/library\aes.c ****             ( (uint32_t) RSb[ ( Y1 >> 16 ) & 0xFF ] << 16 ) ^
 982:D:/fchai/work/i-cube/I-CUBE-HUAWEI/Middlewares/Third_Party/Huawei/iot_link/network/dtls/mbedtls/mbedtls-2.16.2/library\aes.c ****             ( (uint32_t) RSb[ ( Y0 >> 24 ) & 0xFF ] << 24 );
 2032              		.loc 1 982 36 view .LVU650
 2033 03ba 4FEA106C 		lsr	ip, r0, #24
 966:D:/fchai/work/i-cube/I-CUBE-HUAWEI/Middlewares/Third_Party/Huawei/iot_link/network/dtls/mbedtls/mbedtls-2.16.2/library\aes.c ****             ( (uint32_t) RSb[ ( Y1       ) & 0xFF ]       ) ^
 2034              		.loc 1 966 8 view .LVU651
 2035 03be 8EEA020E 		eor	lr, lr, r2
 980:D:/fchai/work/i-cube/I-CUBE-HUAWEI/Middlewares/Third_Party/Huawei/iot_link/network/dtls/mbedtls/mbedtls-2.16.2/library\aes.c ****             ( (uint32_t) RSb[ ( Y2 >>  8 ) & 0xFF ] <<  8 ) ^
 2036              		.loc 1 980 44 view .LVU652
 2037 03c2 C3F30723 		ubfx	r3, r3, #8, #8
 2038              	.LVL144:
 974:D:/fchai/work/i-cube/I-CUBE-HUAWEI/Middlewares/Third_Party/Huawei/iot_link/network/dtls/mbedtls/mbedtls-2.16.2/library\aes.c ****             ( (uint32_t) RSb[ ( Y0 >> 16 ) & 0xFF ] << 16 ) ^
 2039              		.loc 1 974 44 view .LVU653
 2040 03c6 C1F30722 		ubfx	r2, r1, #8, #8
 975:D:/fchai/work/i-cube/I-CUBE-HUAWEI/Middlewares/Third_Party/Huawei/iot_link/network/dtls/mbedtls/mbedtls-2.16.2/library\aes.c ****             ( (uint32_t) RSb[ ( Y3 >> 24 ) & 0xFF ] << 24 );
 2041              		.loc 1 975 44 view .LVU654
 2042 03ca C0F30740 		ubfx	r0, r0, #16, #8
 2043              	.LVL145:
 981:D:/fchai/work/i-cube/I-CUBE-HUAWEI/Middlewares/Third_Party/Huawei/iot_link/network/dtls/mbedtls/mbedtls-2.16.2/library\aes.c ****             ( (uint32_t) RSb[ ( Y0 >> 24 ) & 0xFF ] << 24 );
 2044              		.loc 1 981 44 view .LVU655
 2045 03ce C1F30741 		ubfx	r1, r1, #16, #8
 2046              	.LVL146:
 2047              		.loc 1 982 15 view .LVU656
 2048 03d2 15F80CC0 		ldrb	ip, [r5, ip]	@ zero_extendqisi2
 981:D:/fchai/work/i-cube/I-CUBE-HUAWEI/Middlewares/Third_Party/Huawei/iot_link/network/dtls/mbedtls/mbedtls-2.16.2/library\aes.c ****             ( (uint32_t) RSb[ ( Y0 >> 24 ) & 0xFF ] << 24 );
 2049              		.loc 1 981 15 view .LVU657
 2050 03d6 695C     		ldrb	r1, [r5, r1]	@ zero_extendqisi2
 980:D:/fchai/work/i-cube/I-CUBE-HUAWEI/Middlewares/Third_Party/Huawei/iot_link/network/dtls/mbedtls/mbedtls-2.16.2/library\aes.c ****             ( (uint32_t) RSb[ ( Y1 >> 16 ) & 0xFF ] << 16 ) ^
 2051              		.loc 1 980 15 view .LVU658
 2052 03d8 EB5C     		ldrb	r3, [r5, r3]	@ zero_extendqisi2
 975:D:/fchai/work/i-cube/I-CUBE-HUAWEI/Middlewares/Third_Party/Huawei/iot_link/network/dtls/mbedtls/mbedtls-2.16.2/library\aes.c ****             ( (uint32_t) RSb[ ( Y3 >> 24 ) & 0xFF ] << 24 );
 2053              		.loc 1 975 15 view .LVU659
 2054 03da 285C     		ldrb	r0, [r5, r0]	@ zero_extendqisi2
 972:D:/fchai/work/i-cube/I-CUBE-HUAWEI/Middlewares/Third_Party/Huawei/iot_link/network/dtls/mbedtls/mbedtls-2.16.2/library\aes.c ****             ( (uint32_t) RSb[ ( Y2       ) & 0xFF ]       ) ^
 2055              		.loc 1 972 8 view .LVU660
 2056 03dc 8BEA0706 		eor	r6, fp, r7
 974:D:/fchai/work/i-cube/I-CUBE-HUAWEI/Middlewares/Third_Party/Huawei/iot_link/network/dtls/mbedtls/mbedtls-2.16.2/library\aes.c ****             ( (uint32_t) RSb[ ( Y0 >> 16 ) & 0xFF ] << 16 ) ^
 2057              		.loc 1 974 15 view .LVU661
 2058 03e0 15F802B0 		ldrb	fp, [r5, r2]	@ zero_extendqisi2
 966:D:/fchai/work/i-cube/I-CUBE-HUAWEI/Middlewares/Third_Party/Huawei/iot_link/network/dtls/mbedtls/mbedtls-2.16.2/library\aes.c ****             ( (uint32_t) RSb[ ( Y1       ) & 0xFF ]       ) ^
 2059              		.loc 1 966 8 view .LVU662
 2060 03e4 039D     		ldr	r5, [sp, #12]
 2061 03e6 049F     		ldr	r7, [sp, #16]
 960:D:/fchai/work/i-cube/I-CUBE-HUAWEI/Middlewares/Third_Party/Huawei/iot_link/network/dtls/mbedtls/mbedtls-2.16.2/library\aes.c ****             ( (uint32_t) RSb[ ( Y0       ) & 0xFF ]       ) ^
 2062              		.loc 1 960 8 view .LVU663
 2063 03e8 019A     		ldr	r2, [sp, #4]
 966:D:/fchai/work/i-cube/I-CUBE-HUAWEI/Middlewares/Third_Party/Huawei/iot_link/network/dtls/mbedtls/mbedtls-2.16.2/library\aes.c ****             ( (uint32_t) RSb[ ( Y1       ) & 0xFF ]       ) ^
 2064              		.loc 1 966 8 view .LVU664
 2065 03ea 8EEA056E 		eor	lr, lr, r5, lsl #24
 978:D:/fchai/work/i-cube/I-CUBE-HUAWEI/Middlewares/Third_Party/Huawei/iot_link/network/dtls/mbedtls/mbedtls-2.16.2/library\aes.c ****             ( (uint32_t) RSb[ ( Y3       ) & 0xFF ]       ) ^
 2066              		.loc 1 978 8 view .LVU665
 2067 03ee 89EA0404 		eor	r4, r9, r4
 966:D:/fchai/work/i-cube/I-CUBE-HUAWEI/Middlewares/Third_Party/Huawei/iot_link/network/dtls/mbedtls/mbedtls-2.16.2/library\aes.c ****             ( (uint32_t) RSb[ ( Y1       ) & 0xFF ]       ) ^
 2068              		.loc 1 966 8 view .LVU666
ARM GAS  T:\msys\tmp\ccwessdu.s 			page 62


 2069 03f2 8EEA072E 		eor	lr, lr, r7, lsl #8
 2070 03f6 059F     		ldr	r7, [sp, #20]
 978:D:/fchai/work/i-cube/I-CUBE-HUAWEI/Middlewares/Third_Party/Huawei/iot_link/network/dtls/mbedtls/mbedtls-2.16.2/library\aes.c ****             ( (uint32_t) RSb[ ( Y3       ) & 0xFF ]       ) ^
 2071              		.loc 1 978 8 view .LVU667
 2072 03f8 84EA0C64 		eor	r4, r4, ip, lsl #24
 966:D:/fchai/work/i-cube/I-CUBE-HUAWEI/Middlewares/Third_Party/Huawei/iot_link/network/dtls/mbedtls/mbedtls-2.16.2/library\aes.c ****             ( (uint32_t) RSb[ ( Y1       ) & 0xFF ]       ) ^
 2073              		.loc 1 966 8 view .LVU668
 2074 03fc 8EEA074E 		eor	lr, lr, r7, lsl #16
 978:D:/fchai/work/i-cube/I-CUBE-HUAWEI/Middlewares/Third_Party/Huawei/iot_link/network/dtls/mbedtls/mbedtls-2.16.2/library\aes.c ****             ( (uint32_t) RSb[ ( Y3       ) & 0xFF ]       ) ^
 2075              		.loc 1 978 8 view .LVU669
 2076 0400 84EA0323 		eor	r3, r4, r3, lsl #8
 2077 0404 83EA0143 		eor	r3, r3, r1, lsl #16
 983:D:/fchai/work/i-cube/I-CUBE-HUAWEI/Middlewares/Third_Party/Huawei/iot_link/network/dtls/mbedtls/mbedtls-2.16.2/library\aes.c **** 
 984:D:/fchai/work/i-cube/I-CUBE-HUAWEI/Middlewares/Third_Party/Huawei/iot_link/network/dtls/mbedtls/mbedtls-2.16.2/library\aes.c ****     PUT_UINT32_LE( X0, output,  0 );
 985:D:/fchai/work/i-cube/I-CUBE-HUAWEI/Middlewares/Third_Party/Huawei/iot_link/network/dtls/mbedtls/mbedtls-2.16.2/library\aes.c ****     PUT_UINT32_LE( X1, output,  4 );
 2078              		.loc 1 985 5 view .LVU670
 2079 0408 4FEA1E41 		lsr	r1, lr, #16
 2080 040c 0191     		str	r1, [sp, #4]
 986:D:/fchai/work/i-cube/I-CUBE-HUAWEI/Middlewares/Third_Party/Huawei/iot_link/network/dtls/mbedtls/mbedtls-2.16.2/library\aes.c ****     PUT_UINT32_LE( X2, output,  8 );
 987:D:/fchai/work/i-cube/I-CUBE-HUAWEI/Middlewares/Third_Party/Huawei/iot_link/network/dtls/mbedtls/mbedtls-2.16.2/library\aes.c ****     PUT_UINT32_LE( X3, output, 12 );
 2081              		.loc 1 987 5 view .LVU671
 2082 040e 190C     		lsrs	r1, r3, #16
 960:D:/fchai/work/i-cube/I-CUBE-HUAWEI/Middlewares/Third_Party/Huawei/iot_link/network/dtls/mbedtls/mbedtls-2.16.2/library\aes.c ****             ( (uint32_t) RSb[ ( Y0       ) & 0xFF ]       ) ^
 2083              		.loc 1 960 8 view .LVU672
 2084 0410 8AEA022A 		eor	r10, r10, r2, lsl #8
 2085 0414 029A     		ldr	r2, [sp, #8]
 2086              		.loc 1 987 5 view .LVU673
 2087 0416 0291     		str	r1, [sp, #8]
 2088 0418 190E     		lsrs	r1, r3, #24
 2089 041a 0391     		str	r1, [sp, #12]
 972:D:/fchai/work/i-cube/I-CUBE-HUAWEI/Middlewares/Third_Party/Huawei/iot_link/network/dtls/mbedtls/mbedtls-2.16.2/library\aes.c ****             ( (uint32_t) RSb[ ( Y2       ) & 0xFF ]       ) ^
 2090              		.loc 1 972 8 view .LVU674
 2091 041c 86EA0866 		eor	r6, r6, r8, lsl #24
 984:D:/fchai/work/i-cube/I-CUBE-HUAWEI/Middlewares/Third_Party/Huawei/iot_link/network/dtls/mbedtls/mbedtls-2.16.2/library\aes.c ****     PUT_UINT32_LE( X1, output,  4 );
 2092              		.loc 1 984 5 view .LVU675
 2093 0420 0A99     		ldr	r1, [sp, #40]
 960:D:/fchai/work/i-cube/I-CUBE-HUAWEI/Middlewares/Third_Party/Huawei/iot_link/network/dtls/mbedtls/mbedtls-2.16.2/library\aes.c ****             ( (uint32_t) RSb[ ( Y0       ) & 0xFF ]       ) ^
 2094              		.loc 1 960 8 view .LVU676
 2095 0422 8AEA0242 		eor	r2, r10, r2, lsl #16
 2096              	.LVL147:
 966:D:/fchai/work/i-cube/I-CUBE-HUAWEI/Middlewares/Third_Party/Huawei/iot_link/network/dtls/mbedtls/mbedtls-2.16.2/library\aes.c ****             ( (uint32_t) RSb[ ( Y1       ) & 0xFF ]       ) ^
 2097              		.loc 1 966 5 is_stmt 1 view .LVU677
 972:D:/fchai/work/i-cube/I-CUBE-HUAWEI/Middlewares/Third_Party/Huawei/iot_link/network/dtls/mbedtls/mbedtls-2.16.2/library\aes.c ****             ( (uint32_t) RSb[ ( Y2       ) & 0xFF ]       ) ^
 2098              		.loc 1 972 5 view .LVU678
 972:D:/fchai/work/i-cube/I-CUBE-HUAWEI/Middlewares/Third_Party/Huawei/iot_link/network/dtls/mbedtls/mbedtls-2.16.2/library\aes.c ****             ( (uint32_t) RSb[ ( Y2       ) & 0xFF ]       ) ^
 2099              		.loc 1 972 8 is_stmt 0 view .LVU679
 2100 0426 86EA0B26 		eor	r6, r6, fp, lsl #8
 2101 042a 86EA0040 		eor	r0, r6, r0, lsl #16
 2102              	.LVL148:
 978:D:/fchai/work/i-cube/I-CUBE-HUAWEI/Middlewares/Third_Party/Huawei/iot_link/network/dtls/mbedtls/mbedtls-2.16.2/library\aes.c ****             ( (uint32_t) RSb[ ( Y3       ) & 0xFF ]       ) ^
 2103              		.loc 1 978 5 is_stmt 1 view .LVU680
 984:D:/fchai/work/i-cube/I-CUBE-HUAWEI/Middlewares/Third_Party/Huawei/iot_link/network/dtls/mbedtls/mbedtls-2.16.2/library\aes.c ****     PUT_UINT32_LE( X1, output,  4 );
 2104              		.loc 1 984 5 view .LVU681
 2105 042e 4FEA122B 		lsr	fp, r2, #8
 2106 0432 4FEA124A 		lsr	r10, r2, #16
 2107 0436 4FEA1269 		lsr	r9, r2, #24
 2108 043a 0A70     		strb	r2, [r1]
ARM GAS  T:\msys\tmp\ccwessdu.s 			page 63


 984:D:/fchai/work/i-cube/I-CUBE-HUAWEI/Middlewares/Third_Party/Huawei/iot_link/network/dtls/mbedtls/mbedtls-2.16.2/library\aes.c ****     PUT_UINT32_LE( X1, output,  4 );
 2109              		.loc 1 984 5 view .LVU682
 985:D:/fchai/work/i-cube/I-CUBE-HUAWEI/Middlewares/Third_Party/Huawei/iot_link/network/dtls/mbedtls/mbedtls-2.16.2/library\aes.c ****     PUT_UINT32_LE( X2, output,  8 );
 2110              		.loc 1 985 5 is_stmt 0 view .LVU683
 2111 043c 4FEA1E28 		lsr	r8, lr, #8
 2112 0440 0A46     		mov	r2, r1
 2113              	.LVL149:
 2114              		.loc 1 987 5 view .LVU684
 2115 0442 1C0A     		lsrs	r4, r3, #8
 985:D:/fchai/work/i-cube/I-CUBE-HUAWEI/Middlewares/Third_Party/Huawei/iot_link/network/dtls/mbedtls/mbedtls-2.16.2/library\aes.c ****     PUT_UINT32_LE( X2, output,  8 );
 2116              		.loc 1 985 5 view .LVU685
 2117 0444 81F804E0 		strb	lr, [r1, #4]
 986:D:/fchai/work/i-cube/I-CUBE-HUAWEI/Middlewares/Third_Party/Huawei/iot_link/network/dtls/mbedtls/mbedtls-2.16.2/library\aes.c ****     PUT_UINT32_LE( X3, output, 12 );
 2118              		.loc 1 986 5 view .LVU686
 2119 0448 0872     		strb	r0, [r1, #8]
 2120              		.loc 1 987 5 view .LVU687
 2121 044a 0B73     		strb	r3, [r1, #12]
 984:D:/fchai/work/i-cube/I-CUBE-HUAWEI/Middlewares/Third_Party/Huawei/iot_link/network/dtls/mbedtls/mbedtls-2.16.2/library\aes.c ****     PUT_UINT32_LE( X1, output,  4 );
 2122              		.loc 1 984 5 view .LVU688
 2123 044c 81F801B0 		strb	fp, [r1, #1]
 984:D:/fchai/work/i-cube/I-CUBE-HUAWEI/Middlewares/Third_Party/Huawei/iot_link/network/dtls/mbedtls/mbedtls-2.16.2/library\aes.c ****     PUT_UINT32_LE( X1, output,  4 );
 2124              		.loc 1 984 5 is_stmt 1 view .LVU689
 2125 0450 0B46     		mov	r3, r1
 2126              	.LVL150:
 984:D:/fchai/work/i-cube/I-CUBE-HUAWEI/Middlewares/Third_Party/Huawei/iot_link/network/dtls/mbedtls/mbedtls-2.16.2/library\aes.c ****     PUT_UINT32_LE( X1, output,  4 );
 2127              		.loc 1 984 5 is_stmt 0 view .LVU690
 2128 0452 81F802A0 		strb	r10, [r1, #2]
 984:D:/fchai/work/i-cube/I-CUBE-HUAWEI/Middlewares/Third_Party/Huawei/iot_link/network/dtls/mbedtls/mbedtls-2.16.2/library\aes.c ****     PUT_UINT32_LE( X1, output,  4 );
 2129              		.loc 1 984 5 is_stmt 1 view .LVU691
 2130 0456 81F80390 		strb	r9, [r1, #3]
 984:D:/fchai/work/i-cube/I-CUBE-HUAWEI/Middlewares/Third_Party/Huawei/iot_link/network/dtls/mbedtls/mbedtls-2.16.2/library\aes.c ****     PUT_UINT32_LE( X1, output,  4 );
 2131              		.loc 1 984 36 view .LVU692
 985:D:/fchai/work/i-cube/I-CUBE-HUAWEI/Middlewares/Third_Party/Huawei/iot_link/network/dtls/mbedtls/mbedtls-2.16.2/library\aes.c ****     PUT_UINT32_LE( X2, output,  8 );
 2132              		.loc 1 985 5 view .LVU693
 985:D:/fchai/work/i-cube/I-CUBE-HUAWEI/Middlewares/Third_Party/Huawei/iot_link/network/dtls/mbedtls/mbedtls-2.16.2/library\aes.c ****     PUT_UINT32_LE( X2, output,  8 );
 2133              		.loc 1 985 5 view .LVU694
 2134 045a 81F80580 		strb	r8, [r1, #5]
 985:D:/fchai/work/i-cube/I-CUBE-HUAWEI/Middlewares/Third_Party/Huawei/iot_link/network/dtls/mbedtls/mbedtls-2.16.2/library\aes.c ****     PUT_UINT32_LE( X2, output,  8 );
 2135              		.loc 1 985 5 view .LVU695
 2136 045e 0199     		ldr	r1, [sp, #4]
 2137 0460 9171     		strb	r1, [r2, #6]
 985:D:/fchai/work/i-cube/I-CUBE-HUAWEI/Middlewares/Third_Party/Huawei/iot_link/network/dtls/mbedtls/mbedtls-2.16.2/library\aes.c ****     PUT_UINT32_LE( X2, output,  8 );
 2138              		.loc 1 985 5 view .LVU696
 986:D:/fchai/work/i-cube/I-CUBE-HUAWEI/Middlewares/Third_Party/Huawei/iot_link/network/dtls/mbedtls/mbedtls-2.16.2/library\aes.c ****     PUT_UINT32_LE( X3, output, 12 );
 2139              		.loc 1 986 5 is_stmt 0 view .LVU697
 2140 0462 070A     		lsrs	r7, r0, #8
 2141 0464 060C     		lsrs	r6, r0, #16
 2142 0466 050E     		lsrs	r5, r0, #24
 2143              		.loc 1 987 5 view .LVU698
 2144 0468 0299     		ldr	r1, [sp, #8]
 986:D:/fchai/work/i-cube/I-CUBE-HUAWEI/Middlewares/Third_Party/Huawei/iot_link/network/dtls/mbedtls/mbedtls-2.16.2/library\aes.c ****     PUT_UINT32_LE( X3, output, 12 );
 2145              		.loc 1 986 5 view .LVU699
 2146 046a 5772     		strb	r7, [r2, #9]
 985:D:/fchai/work/i-cube/I-CUBE-HUAWEI/Middlewares/Third_Party/Huawei/iot_link/network/dtls/mbedtls/mbedtls-2.16.2/library\aes.c ****     PUT_UINT32_LE( X2, output,  8 );
 2147              		.loc 1 985 5 view .LVU700
 2148 046c 4FEA1E6C 		lsr	ip, lr, #24
 2149 0470 82F807C0 		strb	ip, [r2, #7]
ARM GAS  T:\msys\tmp\ccwessdu.s 			page 64


 985:D:/fchai/work/i-cube/I-CUBE-HUAWEI/Middlewares/Third_Party/Huawei/iot_link/network/dtls/mbedtls/mbedtls-2.16.2/library\aes.c ****     PUT_UINT32_LE( X2, output,  8 );
 2150              		.loc 1 985 36 is_stmt 1 view .LVU701
 986:D:/fchai/work/i-cube/I-CUBE-HUAWEI/Middlewares/Third_Party/Huawei/iot_link/network/dtls/mbedtls/mbedtls-2.16.2/library\aes.c ****     PUT_UINT32_LE( X3, output, 12 );
 2151              		.loc 1 986 5 view .LVU702
 986:D:/fchai/work/i-cube/I-CUBE-HUAWEI/Middlewares/Third_Party/Huawei/iot_link/network/dtls/mbedtls/mbedtls-2.16.2/library\aes.c ****     PUT_UINT32_LE( X3, output, 12 );
 2152              		.loc 1 986 5 view .LVU703
 986:D:/fchai/work/i-cube/I-CUBE-HUAWEI/Middlewares/Third_Party/Huawei/iot_link/network/dtls/mbedtls/mbedtls-2.16.2/library\aes.c ****     PUT_UINT32_LE( X3, output, 12 );
 2153              		.loc 1 986 5 view .LVU704
 2154 0474 9672     		strb	r6, [r2, #10]
 986:D:/fchai/work/i-cube/I-CUBE-HUAWEI/Middlewares/Third_Party/Huawei/iot_link/network/dtls/mbedtls/mbedtls-2.16.2/library\aes.c ****     PUT_UINT32_LE( X3, output, 12 );
 2155              		.loc 1 986 5 view .LVU705
 2156 0476 D572     		strb	r5, [r2, #11]
 986:D:/fchai/work/i-cube/I-CUBE-HUAWEI/Middlewares/Third_Party/Huawei/iot_link/network/dtls/mbedtls/mbedtls-2.16.2/library\aes.c ****     PUT_UINT32_LE( X3, output, 12 );
 2157              		.loc 1 986 36 view .LVU706
 2158              		.loc 1 987 5 view .LVU707
 2159              		.loc 1 987 5 view .LVU708
 2160 0478 5473     		strb	r4, [r2, #13]
 2161              		.loc 1 987 5 view .LVU709
 2162 047a 9173     		strb	r1, [r2, #14]
 2163              		.loc 1 987 5 view .LVU710
 2164 047c 039A     		ldr	r2, [sp, #12]
 2165 047e DA73     		strb	r2, [r3, #15]
 2166              		.loc 1 987 36 view .LVU711
 988:D:/fchai/work/i-cube/I-CUBE-HUAWEI/Middlewares/Third_Party/Huawei/iot_link/network/dtls/mbedtls/mbedtls-2.16.2/library\aes.c **** 
 989:D:/fchai/work/i-cube/I-CUBE-HUAWEI/Middlewares/Third_Party/Huawei/iot_link/network/dtls/mbedtls/mbedtls-2.16.2/library\aes.c ****     return( 0 );
 2167              		.loc 1 989 5 view .LVU712
 990:D:/fchai/work/i-cube/I-CUBE-HUAWEI/Middlewares/Third_Party/Huawei/iot_link/network/dtls/mbedtls/mbedtls-2.16.2/library\aes.c **** }
 2168              		.loc 1 990 1 is_stmt 0 view .LVU713
 2169 0480 0020     		movs	r0, #0
 2170              	.LVL151:
 2171              		.loc 1 990 1 view .LVU714
 2172 0482 0DB0     		add	sp, sp, #52
 2173              	.LCFI11:
 2174              		.cfi_remember_state
 2175              		.cfi_def_cfa_offset 36
 2176              		@ sp needed
 2177 0484 BDE8F08F 		pop	{r4, r5, r6, r7, r8, r9, r10, fp, pc}
 2178              	.LVL152:
 2179              	.L63:
 2180              	.LCFI12:
 2181              		.cfi_restore_state
 2182              		.loc 1 990 1 view .LVU715
 2183 0488 034B     		ldr	r3, .L67
 2184 048a 0293     		str	r3, [sp, #8]
 2185 048c 034B     		ldr	r3, .L67+4
 2186 048e DFF810B0 		ldr	fp, .L67+8
 2187 0492 0393     		str	r3, [sp, #12]
 2188 0494 CBE6     		b	.L57
 2189              	.L68:
 2190 0496 00BF     		.align	2
 2191              	.L67:
 2192 0498 00000000 		.word	.LANCHOR3
 2193 049c 00000000 		.word	.LANCHOR4
 2194 04a0 00000000 		.word	.LANCHOR5
 2195              		.cfi_endproc
 2196              	.LFE9:
 2198              		.section	.text.mbedtls_aes_decrypt,"ax",%progbits
ARM GAS  T:\msys\tmp\ccwessdu.s 			page 65


 2199              		.align	1
 2200              		.p2align 2,,3
 2201              		.global	mbedtls_aes_decrypt
 2202              		.syntax unified
 2203              		.thumb
 2204              		.thumb_func
 2205              		.fpu fpv4-sp-d16
 2207              	mbedtls_aes_decrypt:
 2208              	.LVL153:
 2209              	.LFB10:
 991:D:/fchai/work/i-cube/I-CUBE-HUAWEI/Middlewares/Third_Party/Huawei/iot_link/network/dtls/mbedtls/mbedtls-2.16.2/library\aes.c **** #endif /* !MBEDTLS_AES_DECRYPT_ALT */
 992:D:/fchai/work/i-cube/I-CUBE-HUAWEI/Middlewares/Third_Party/Huawei/iot_link/network/dtls/mbedtls/mbedtls-2.16.2/library\aes.c **** 
 993:D:/fchai/work/i-cube/I-CUBE-HUAWEI/Middlewares/Third_Party/Huawei/iot_link/network/dtls/mbedtls/mbedtls-2.16.2/library\aes.c **** #if !defined(MBEDTLS_DEPRECATED_REMOVED)
 994:D:/fchai/work/i-cube/I-CUBE-HUAWEI/Middlewares/Third_Party/Huawei/iot_link/network/dtls/mbedtls/mbedtls-2.16.2/library\aes.c **** void mbedtls_aes_decrypt( mbedtls_aes_context *ctx,
 995:D:/fchai/work/i-cube/I-CUBE-HUAWEI/Middlewares/Third_Party/Huawei/iot_link/network/dtls/mbedtls/mbedtls-2.16.2/library\aes.c ****                           const unsigned char input[16],
 996:D:/fchai/work/i-cube/I-CUBE-HUAWEI/Middlewares/Third_Party/Huawei/iot_link/network/dtls/mbedtls/mbedtls-2.16.2/library\aes.c ****                           unsigned char output[16] )
 997:D:/fchai/work/i-cube/I-CUBE-HUAWEI/Middlewares/Third_Party/Huawei/iot_link/network/dtls/mbedtls/mbedtls-2.16.2/library\aes.c **** {
 2210              		.loc 1 997 1 is_stmt 1 view -0
 2211              		.cfi_startproc
 2212              		@ args = 0, pretend = 0, frame = 0
 2213              		@ frame_needed = 0, uses_anonymous_args = 0
 2214              		@ link register save eliminated.
 998:D:/fchai/work/i-cube/I-CUBE-HUAWEI/Middlewares/Third_Party/Huawei/iot_link/network/dtls/mbedtls/mbedtls-2.16.2/library\aes.c ****     mbedtls_internal_aes_decrypt( ctx, input, output );
 2215              		.loc 1 998 5 view .LVU717
 2216 0000 FFF7FEBF 		b	mbedtls_internal_aes_decrypt
 2217              	.LVL154:
 2218              		.loc 1 998 5 is_stmt 0 view .LVU718
 2219              		.cfi_endproc
 2220              	.LFE10:
 2222              		.section	.text.mbedtls_aes_crypt_ecb,"ax",%progbits
 2223              		.align	1
 2224              		.p2align 2,,3
 2225              		.global	mbedtls_aes_crypt_ecb
 2226              		.syntax unified
 2227              		.thumb
 2228              		.thumb_func
 2229              		.fpu fpv4-sp-d16
 2231              	mbedtls_aes_crypt_ecb:
 2232              	.LVL155:
 2233              	.LFB11:
 999:D:/fchai/work/i-cube/I-CUBE-HUAWEI/Middlewares/Third_Party/Huawei/iot_link/network/dtls/mbedtls/mbedtls-2.16.2/library\aes.c **** }
1000:D:/fchai/work/i-cube/I-CUBE-HUAWEI/Middlewares/Third_Party/Huawei/iot_link/network/dtls/mbedtls/mbedtls-2.16.2/library\aes.c **** #endif /* !MBEDTLS_DEPRECATED_REMOVED */
1001:D:/fchai/work/i-cube/I-CUBE-HUAWEI/Middlewares/Third_Party/Huawei/iot_link/network/dtls/mbedtls/mbedtls-2.16.2/library\aes.c **** 
1002:D:/fchai/work/i-cube/I-CUBE-HUAWEI/Middlewares/Third_Party/Huawei/iot_link/network/dtls/mbedtls/mbedtls-2.16.2/library\aes.c **** /*
1003:D:/fchai/work/i-cube/I-CUBE-HUAWEI/Middlewares/Third_Party/Huawei/iot_link/network/dtls/mbedtls/mbedtls-2.16.2/library\aes.c ****  * AES-ECB block encryption/decryption
1004:D:/fchai/work/i-cube/I-CUBE-HUAWEI/Middlewares/Third_Party/Huawei/iot_link/network/dtls/mbedtls/mbedtls-2.16.2/library\aes.c ****  */
1005:D:/fchai/work/i-cube/I-CUBE-HUAWEI/Middlewares/Third_Party/Huawei/iot_link/network/dtls/mbedtls/mbedtls-2.16.2/library\aes.c **** int mbedtls_aes_crypt_ecb( mbedtls_aes_context *ctx,
1006:D:/fchai/work/i-cube/I-CUBE-HUAWEI/Middlewares/Third_Party/Huawei/iot_link/network/dtls/mbedtls/mbedtls-2.16.2/library\aes.c ****                            int mode,
1007:D:/fchai/work/i-cube/I-CUBE-HUAWEI/Middlewares/Third_Party/Huawei/iot_link/network/dtls/mbedtls/mbedtls-2.16.2/library\aes.c ****                            const unsigned char input[16],
1008:D:/fchai/work/i-cube/I-CUBE-HUAWEI/Middlewares/Third_Party/Huawei/iot_link/network/dtls/mbedtls/mbedtls-2.16.2/library\aes.c ****                            unsigned char output[16] )
1009:D:/fchai/work/i-cube/I-CUBE-HUAWEI/Middlewares/Third_Party/Huawei/iot_link/network/dtls/mbedtls/mbedtls-2.16.2/library\aes.c **** {
 2234              		.loc 1 1009 1 is_stmt 1 view -0
 2235              		.cfi_startproc
 2236              		@ args = 0, pretend = 0, frame = 0
 2237              		@ frame_needed = 0, uses_anonymous_args = 0
 2238              		@ link register save eliminated.
1010:D:/fchai/work/i-cube/I-CUBE-HUAWEI/Middlewares/Third_Party/Huawei/iot_link/network/dtls/mbedtls/mbedtls-2.16.2/library\aes.c ****     AES_VALIDATE_RET( ctx != NULL );
ARM GAS  T:\msys\tmp\ccwessdu.s 			page 66


 2239              		.loc 1 1010 5 view .LVU720
 2240              		.loc 1 1010 5 view .LVU721
 2241              		.loc 1 1010 5 view .LVU722
1011:D:/fchai/work/i-cube/I-CUBE-HUAWEI/Middlewares/Third_Party/Huawei/iot_link/network/dtls/mbedtls/mbedtls-2.16.2/library\aes.c ****     AES_VALIDATE_RET( input != NULL );
 2242              		.loc 1 1011 5 view .LVU723
 2243              		.loc 1 1011 5 view .LVU724
 2244              		.loc 1 1011 5 view .LVU725
1012:D:/fchai/work/i-cube/I-CUBE-HUAWEI/Middlewares/Third_Party/Huawei/iot_link/network/dtls/mbedtls/mbedtls-2.16.2/library\aes.c ****     AES_VALIDATE_RET( output != NULL );
 2245              		.loc 1 1012 5 view .LVU726
 2246              		.loc 1 1012 5 view .LVU727
 2247              		.loc 1 1012 5 view .LVU728
1013:D:/fchai/work/i-cube/I-CUBE-HUAWEI/Middlewares/Third_Party/Huawei/iot_link/network/dtls/mbedtls/mbedtls-2.16.2/library\aes.c ****     AES_VALIDATE_RET( mode == MBEDTLS_AES_ENCRYPT ||
 2248              		.loc 1 1013 5 view .LVU729
 2249              		.loc 1 1013 5 view .LVU730
 2250              		.loc 1 1013 5 view .LVU731
1014:D:/fchai/work/i-cube/I-CUBE-HUAWEI/Middlewares/Third_Party/Huawei/iot_link/network/dtls/mbedtls/mbedtls-2.16.2/library\aes.c ****                       mode == MBEDTLS_AES_DECRYPT );
1015:D:/fchai/work/i-cube/I-CUBE-HUAWEI/Middlewares/Third_Party/Huawei/iot_link/network/dtls/mbedtls/mbedtls-2.16.2/library\aes.c **** 
1016:D:/fchai/work/i-cube/I-CUBE-HUAWEI/Middlewares/Third_Party/Huawei/iot_link/network/dtls/mbedtls/mbedtls-2.16.2/library\aes.c **** #if defined(MBEDTLS_AESNI_C) && defined(MBEDTLS_HAVE_X86_64)
1017:D:/fchai/work/i-cube/I-CUBE-HUAWEI/Middlewares/Third_Party/Huawei/iot_link/network/dtls/mbedtls/mbedtls-2.16.2/library\aes.c ****     if( mbedtls_aesni_has_support( MBEDTLS_AESNI_AES ) )
1018:D:/fchai/work/i-cube/I-CUBE-HUAWEI/Middlewares/Third_Party/Huawei/iot_link/network/dtls/mbedtls/mbedtls-2.16.2/library\aes.c ****         return( mbedtls_aesni_crypt_ecb( ctx, mode, input, output ) );
1019:D:/fchai/work/i-cube/I-CUBE-HUAWEI/Middlewares/Third_Party/Huawei/iot_link/network/dtls/mbedtls/mbedtls-2.16.2/library\aes.c **** #endif
1020:D:/fchai/work/i-cube/I-CUBE-HUAWEI/Middlewares/Third_Party/Huawei/iot_link/network/dtls/mbedtls/mbedtls-2.16.2/library\aes.c **** 
1021:D:/fchai/work/i-cube/I-CUBE-HUAWEI/Middlewares/Third_Party/Huawei/iot_link/network/dtls/mbedtls/mbedtls-2.16.2/library\aes.c **** #if defined(MBEDTLS_PADLOCK_C) && defined(MBEDTLS_HAVE_X86)
1022:D:/fchai/work/i-cube/I-CUBE-HUAWEI/Middlewares/Third_Party/Huawei/iot_link/network/dtls/mbedtls/mbedtls-2.16.2/library\aes.c ****     if( aes_padlock_ace )
1023:D:/fchai/work/i-cube/I-CUBE-HUAWEI/Middlewares/Third_Party/Huawei/iot_link/network/dtls/mbedtls/mbedtls-2.16.2/library\aes.c ****     {
1024:D:/fchai/work/i-cube/I-CUBE-HUAWEI/Middlewares/Third_Party/Huawei/iot_link/network/dtls/mbedtls/mbedtls-2.16.2/library\aes.c ****         if( mbedtls_padlock_xcryptecb( ctx, mode, input, output ) == 0 )
1025:D:/fchai/work/i-cube/I-CUBE-HUAWEI/Middlewares/Third_Party/Huawei/iot_link/network/dtls/mbedtls/mbedtls-2.16.2/library\aes.c ****             return( 0 );
1026:D:/fchai/work/i-cube/I-CUBE-HUAWEI/Middlewares/Third_Party/Huawei/iot_link/network/dtls/mbedtls/mbedtls-2.16.2/library\aes.c **** 
1027:D:/fchai/work/i-cube/I-CUBE-HUAWEI/Middlewares/Third_Party/Huawei/iot_link/network/dtls/mbedtls/mbedtls-2.16.2/library\aes.c ****         // If padlock data misaligned, we just fall back to
1028:D:/fchai/work/i-cube/I-CUBE-HUAWEI/Middlewares/Third_Party/Huawei/iot_link/network/dtls/mbedtls/mbedtls-2.16.2/library\aes.c ****         // unaccelerated mode
1029:D:/fchai/work/i-cube/I-CUBE-HUAWEI/Middlewares/Third_Party/Huawei/iot_link/network/dtls/mbedtls/mbedtls-2.16.2/library\aes.c ****         //
1030:D:/fchai/work/i-cube/I-CUBE-HUAWEI/Middlewares/Third_Party/Huawei/iot_link/network/dtls/mbedtls/mbedtls-2.16.2/library\aes.c ****     }
1031:D:/fchai/work/i-cube/I-CUBE-HUAWEI/Middlewares/Third_Party/Huawei/iot_link/network/dtls/mbedtls/mbedtls-2.16.2/library\aes.c **** #endif
1032:D:/fchai/work/i-cube/I-CUBE-HUAWEI/Middlewares/Third_Party/Huawei/iot_link/network/dtls/mbedtls/mbedtls-2.16.2/library\aes.c **** 
1033:D:/fchai/work/i-cube/I-CUBE-HUAWEI/Middlewares/Third_Party/Huawei/iot_link/network/dtls/mbedtls/mbedtls-2.16.2/library\aes.c ****     if( mode == MBEDTLS_AES_ENCRYPT )
 2251              		.loc 1 1033 5 view .LVU732
1009:D:/fchai/work/i-cube/I-CUBE-HUAWEI/Middlewares/Third_Party/Huawei/iot_link/network/dtls/mbedtls/mbedtls-2.16.2/library\aes.c ****     AES_VALIDATE_RET( ctx != NULL );
 2252              		.loc 1 1009 1 is_stmt 0 view .LVU733
 2253 0000 10B4     		push	{r4}
 2254              	.LCFI13:
 2255              		.cfi_def_cfa_offset 4
 2256              		.cfi_offset 4, -4
1009:D:/fchai/work/i-cube/I-CUBE-HUAWEI/Middlewares/Third_Party/Huawei/iot_link/network/dtls/mbedtls/mbedtls-2.16.2/library\aes.c ****     AES_VALIDATE_RET( ctx != NULL );
 2257              		.loc 1 1009 1 view .LVU734
 2258 0002 0C46     		mov	r4, r1
 2259              		.loc 1 1033 7 view .LVU735
 2260 0004 012C     		cmp	r4, #1
1009:D:/fchai/work/i-cube/I-CUBE-HUAWEI/Middlewares/Third_Party/Huawei/iot_link/network/dtls/mbedtls/mbedtls-2.16.2/library\aes.c ****     AES_VALIDATE_RET( ctx != NULL );
 2261              		.loc 1 1009 1 view .LVU736
 2262 0006 1146     		mov	r1, r2
 2263              	.LVL156:
1009:D:/fchai/work/i-cube/I-CUBE-HUAWEI/Middlewares/Third_Party/Huawei/iot_link/network/dtls/mbedtls/mbedtls-2.16.2/library\aes.c ****     AES_VALIDATE_RET( ctx != NULL );
 2264              		.loc 1 1009 1 view .LVU737
 2265 0008 1A46     		mov	r2, r3
 2266              	.LVL157:
 2267              		.loc 1 1033 7 view .LVU738
 2268 000a 03D0     		beq	.L73
ARM GAS  T:\msys\tmp\ccwessdu.s 			page 67


1034:D:/fchai/work/i-cube/I-CUBE-HUAWEI/Middlewares/Third_Party/Huawei/iot_link/network/dtls/mbedtls/mbedtls-2.16.2/library\aes.c ****         return( mbedtls_internal_aes_encrypt( ctx, input, output ) );
1035:D:/fchai/work/i-cube/I-CUBE-HUAWEI/Middlewares/Third_Party/Huawei/iot_link/network/dtls/mbedtls/mbedtls-2.16.2/library\aes.c ****     else
1036:D:/fchai/work/i-cube/I-CUBE-HUAWEI/Middlewares/Third_Party/Huawei/iot_link/network/dtls/mbedtls/mbedtls-2.16.2/library\aes.c ****         return( mbedtls_internal_aes_decrypt( ctx, input, output ) );
 2269              		.loc 1 1036 9 is_stmt 1 view .LVU739
1037:D:/fchai/work/i-cube/I-CUBE-HUAWEI/Middlewares/Third_Party/Huawei/iot_link/network/dtls/mbedtls/mbedtls-2.16.2/library\aes.c **** }
 2270              		.loc 1 1037 1 is_stmt 0 view .LVU740
 2271 000c 5DF8044B 		ldr	r4, [sp], #4
 2272              	.LCFI14:
 2273              		.cfi_remember_state
 2274              		.cfi_restore 4
 2275              		.cfi_def_cfa_offset 0
 2276              	.LVL158:
1036:D:/fchai/work/i-cube/I-CUBE-HUAWEI/Middlewares/Third_Party/Huawei/iot_link/network/dtls/mbedtls/mbedtls-2.16.2/library\aes.c **** }
 2277              		.loc 1 1036 17 view .LVU741
 2278 0010 FFF7FEBF 		b	mbedtls_internal_aes_decrypt
 2279              	.LVL159:
 2280              	.L73:
 2281              	.LCFI15:
 2282              		.cfi_restore_state
1034:D:/fchai/work/i-cube/I-CUBE-HUAWEI/Middlewares/Third_Party/Huawei/iot_link/network/dtls/mbedtls/mbedtls-2.16.2/library\aes.c ****         return( mbedtls_internal_aes_encrypt( ctx, input, output ) );
 2283              		.loc 1 1034 9 is_stmt 1 view .LVU742
 2284              		.loc 1 1037 1 is_stmt 0 view .LVU743
 2285 0014 5DF8044B 		ldr	r4, [sp], #4
 2286              	.LCFI16:
 2287              		.cfi_restore 4
 2288              		.cfi_def_cfa_offset 0
 2289              	.LVL160:
1034:D:/fchai/work/i-cube/I-CUBE-HUAWEI/Middlewares/Third_Party/Huawei/iot_link/network/dtls/mbedtls/mbedtls-2.16.2/library\aes.c ****         return( mbedtls_internal_aes_encrypt( ctx, input, output ) );
 2290              		.loc 1 1034 17 view .LVU744
 2291 0018 FFF7FEBF 		b	mbedtls_internal_aes_encrypt
 2292              	.LVL161:
1034:D:/fchai/work/i-cube/I-CUBE-HUAWEI/Middlewares/Third_Party/Huawei/iot_link/network/dtls/mbedtls/mbedtls-2.16.2/library\aes.c ****         return( mbedtls_internal_aes_encrypt( ctx, input, output ) );
 2293              		.loc 1 1034 17 view .LVU745
 2294              		.cfi_endproc
 2295              	.LFE11:
 2297              		.section	.text.mbedtls_aes_crypt_cbc,"ax",%progbits
 2298              		.align	1
 2299              		.p2align 2,,3
 2300              		.global	mbedtls_aes_crypt_cbc
 2301              		.syntax unified
 2302              		.thumb
 2303              		.thumb_func
 2304              		.fpu fpv4-sp-d16
 2306              	mbedtls_aes_crypt_cbc:
 2307              	.LVL162:
 2308              	.LFB12:
1038:D:/fchai/work/i-cube/I-CUBE-HUAWEI/Middlewares/Third_Party/Huawei/iot_link/network/dtls/mbedtls/mbedtls-2.16.2/library\aes.c **** 
1039:D:/fchai/work/i-cube/I-CUBE-HUAWEI/Middlewares/Third_Party/Huawei/iot_link/network/dtls/mbedtls/mbedtls-2.16.2/library\aes.c **** #if defined(MBEDTLS_CIPHER_MODE_CBC)
1040:D:/fchai/work/i-cube/I-CUBE-HUAWEI/Middlewares/Third_Party/Huawei/iot_link/network/dtls/mbedtls/mbedtls-2.16.2/library\aes.c **** /*
1041:D:/fchai/work/i-cube/I-CUBE-HUAWEI/Middlewares/Third_Party/Huawei/iot_link/network/dtls/mbedtls/mbedtls-2.16.2/library\aes.c ****  * AES-CBC buffer encryption/decryption
1042:D:/fchai/work/i-cube/I-CUBE-HUAWEI/Middlewares/Third_Party/Huawei/iot_link/network/dtls/mbedtls/mbedtls-2.16.2/library\aes.c ****  */
1043:D:/fchai/work/i-cube/I-CUBE-HUAWEI/Middlewares/Third_Party/Huawei/iot_link/network/dtls/mbedtls/mbedtls-2.16.2/library\aes.c **** int mbedtls_aes_crypt_cbc( mbedtls_aes_context *ctx,
1044:D:/fchai/work/i-cube/I-CUBE-HUAWEI/Middlewares/Third_Party/Huawei/iot_link/network/dtls/mbedtls/mbedtls-2.16.2/library\aes.c ****                     int mode,
1045:D:/fchai/work/i-cube/I-CUBE-HUAWEI/Middlewares/Third_Party/Huawei/iot_link/network/dtls/mbedtls/mbedtls-2.16.2/library\aes.c ****                     size_t length,
1046:D:/fchai/work/i-cube/I-CUBE-HUAWEI/Middlewares/Third_Party/Huawei/iot_link/network/dtls/mbedtls/mbedtls-2.16.2/library\aes.c ****                     unsigned char iv[16],
1047:D:/fchai/work/i-cube/I-CUBE-HUAWEI/Middlewares/Third_Party/Huawei/iot_link/network/dtls/mbedtls/mbedtls-2.16.2/library\aes.c ****                     const unsigned char *input,
1048:D:/fchai/work/i-cube/I-CUBE-HUAWEI/Middlewares/Third_Party/Huawei/iot_link/network/dtls/mbedtls/mbedtls-2.16.2/library\aes.c ****                     unsigned char *output )
ARM GAS  T:\msys\tmp\ccwessdu.s 			page 68


1049:D:/fchai/work/i-cube/I-CUBE-HUAWEI/Middlewares/Third_Party/Huawei/iot_link/network/dtls/mbedtls/mbedtls-2.16.2/library\aes.c **** {
 2309              		.loc 1 1049 1 is_stmt 1 view -0
 2310              		.cfi_startproc
 2311              		@ args = 8, pretend = 0, frame = 16
 2312              		@ frame_needed = 0, uses_anonymous_args = 0
 2313              		.loc 1 1049 1 is_stmt 0 view .LVU747
 2314 0000 2DE9F04F 		push	{r4, r5, r6, r7, r8, r9, r10, fp, lr}
 2315              	.LCFI17:
 2316              		.cfi_def_cfa_offset 36
 2317              		.cfi_offset 4, -36
 2318              		.cfi_offset 5, -32
 2319              		.cfi_offset 6, -28
 2320              		.cfi_offset 7, -24
 2321              		.cfi_offset 8, -20
 2322              		.cfi_offset 9, -16
 2323              		.cfi_offset 10, -12
 2324              		.cfi_offset 11, -8
 2325              		.cfi_offset 14, -4
 2326 0004 85B0     		sub	sp, sp, #20
 2327              	.LCFI18:
 2328              		.cfi_def_cfa_offset 56
1050:D:/fchai/work/i-cube/I-CUBE-HUAWEI/Middlewares/Third_Party/Huawei/iot_link/network/dtls/mbedtls/mbedtls-2.16.2/library\aes.c ****     int i;
 2329              		.loc 1 1050 5 is_stmt 1 view .LVU748
1051:D:/fchai/work/i-cube/I-CUBE-HUAWEI/Middlewares/Third_Party/Huawei/iot_link/network/dtls/mbedtls/mbedtls-2.16.2/library\aes.c ****     unsigned char temp[16];
 2330              		.loc 1 1051 5 view .LVU749
1052:D:/fchai/work/i-cube/I-CUBE-HUAWEI/Middlewares/Third_Party/Huawei/iot_link/network/dtls/mbedtls/mbedtls-2.16.2/library\aes.c **** 
1053:D:/fchai/work/i-cube/I-CUBE-HUAWEI/Middlewares/Third_Party/Huawei/iot_link/network/dtls/mbedtls/mbedtls-2.16.2/library\aes.c ****     AES_VALIDATE_RET( ctx != NULL );
 2331              		.loc 1 1053 5 view .LVU750
 2332              		.loc 1 1053 5 view .LVU751
 2333              		.loc 1 1053 5 view .LVU752
1054:D:/fchai/work/i-cube/I-CUBE-HUAWEI/Middlewares/Third_Party/Huawei/iot_link/network/dtls/mbedtls/mbedtls-2.16.2/library\aes.c ****     AES_VALIDATE_RET( mode == MBEDTLS_AES_ENCRYPT ||
 2334              		.loc 1 1054 5 view .LVU753
 2335              		.loc 1 1054 5 view .LVU754
 2336              		.loc 1 1054 5 view .LVU755
1055:D:/fchai/work/i-cube/I-CUBE-HUAWEI/Middlewares/Third_Party/Huawei/iot_link/network/dtls/mbedtls/mbedtls-2.16.2/library\aes.c ****                       mode == MBEDTLS_AES_DECRYPT );
1056:D:/fchai/work/i-cube/I-CUBE-HUAWEI/Middlewares/Third_Party/Huawei/iot_link/network/dtls/mbedtls/mbedtls-2.16.2/library\aes.c ****     AES_VALIDATE_RET( iv != NULL );
 2337              		.loc 1 1056 5 view .LVU756
 2338              		.loc 1 1056 5 view .LVU757
 2339              		.loc 1 1056 5 view .LVU758
1057:D:/fchai/work/i-cube/I-CUBE-HUAWEI/Middlewares/Third_Party/Huawei/iot_link/network/dtls/mbedtls/mbedtls-2.16.2/library\aes.c ****     AES_VALIDATE_RET( input != NULL );
 2340              		.loc 1 1057 5 view .LVU759
 2341              		.loc 1 1057 5 view .LVU760
 2342              		.loc 1 1057 5 view .LVU761
1058:D:/fchai/work/i-cube/I-CUBE-HUAWEI/Middlewares/Third_Party/Huawei/iot_link/network/dtls/mbedtls/mbedtls-2.16.2/library\aes.c ****     AES_VALIDATE_RET( output != NULL );
 2343              		.loc 1 1058 5 view .LVU762
 2344              		.loc 1 1058 5 view .LVU763
 2345              		.loc 1 1058 5 view .LVU764
1059:D:/fchai/work/i-cube/I-CUBE-HUAWEI/Middlewares/Third_Party/Huawei/iot_link/network/dtls/mbedtls/mbedtls-2.16.2/library\aes.c **** 
1060:D:/fchai/work/i-cube/I-CUBE-HUAWEI/Middlewares/Third_Party/Huawei/iot_link/network/dtls/mbedtls/mbedtls-2.16.2/library\aes.c ****     if( length % 16 )
 2346              		.loc 1 1060 5 view .LVU765
 2347              		.loc 1 1060 7 is_stmt 0 view .LVU766
 2348 0006 1407     		lsls	r4, r2, #28
1049:D:/fchai/work/i-cube/I-CUBE-HUAWEI/Middlewares/Third_Party/Huawei/iot_link/network/dtls/mbedtls/mbedtls-2.16.2/library\aes.c ****     int i;
 2349              		.loc 1 1049 1 view .LVU767
 2350 0008 DDF83CA0 		ldr	r10, [sp, #60]
 2351              		.loc 1 1060 7 view .LVU768
 2352 000c 69D1     		bne	.L83
ARM GAS  T:\msys\tmp\ccwessdu.s 			page 69


1061:D:/fchai/work/i-cube/I-CUBE-HUAWEI/Middlewares/Third_Party/Huawei/iot_link/network/dtls/mbedtls/mbedtls-2.16.2/library\aes.c ****         return( MBEDTLS_ERR_AES_INVALID_INPUT_LENGTH );
1062:D:/fchai/work/i-cube/I-CUBE-HUAWEI/Middlewares/Third_Party/Huawei/iot_link/network/dtls/mbedtls/mbedtls-2.16.2/library\aes.c **** 
1063:D:/fchai/work/i-cube/I-CUBE-HUAWEI/Middlewares/Third_Party/Huawei/iot_link/network/dtls/mbedtls/mbedtls-2.16.2/library\aes.c **** #if defined(MBEDTLS_PADLOCK_C) && defined(MBEDTLS_HAVE_X86)
1064:D:/fchai/work/i-cube/I-CUBE-HUAWEI/Middlewares/Third_Party/Huawei/iot_link/network/dtls/mbedtls/mbedtls-2.16.2/library\aes.c ****     if( aes_padlock_ace )
1065:D:/fchai/work/i-cube/I-CUBE-HUAWEI/Middlewares/Third_Party/Huawei/iot_link/network/dtls/mbedtls/mbedtls-2.16.2/library\aes.c ****     {
1066:D:/fchai/work/i-cube/I-CUBE-HUAWEI/Middlewares/Third_Party/Huawei/iot_link/network/dtls/mbedtls/mbedtls-2.16.2/library\aes.c ****         if( mbedtls_padlock_xcryptcbc( ctx, mode, length, iv, input, output ) == 0 )
1067:D:/fchai/work/i-cube/I-CUBE-HUAWEI/Middlewares/Third_Party/Huawei/iot_link/network/dtls/mbedtls/mbedtls-2.16.2/library\aes.c ****             return( 0 );
1068:D:/fchai/work/i-cube/I-CUBE-HUAWEI/Middlewares/Third_Party/Huawei/iot_link/network/dtls/mbedtls/mbedtls-2.16.2/library\aes.c **** 
1069:D:/fchai/work/i-cube/I-CUBE-HUAWEI/Middlewares/Third_Party/Huawei/iot_link/network/dtls/mbedtls/mbedtls-2.16.2/library\aes.c ****         // If padlock data misaligned, we just fall back to
1070:D:/fchai/work/i-cube/I-CUBE-HUAWEI/Middlewares/Third_Party/Huawei/iot_link/network/dtls/mbedtls/mbedtls-2.16.2/library\aes.c ****         // unaccelerated mode
1071:D:/fchai/work/i-cube/I-CUBE-HUAWEI/Middlewares/Third_Party/Huawei/iot_link/network/dtls/mbedtls/mbedtls-2.16.2/library\aes.c ****         //
1072:D:/fchai/work/i-cube/I-CUBE-HUAWEI/Middlewares/Third_Party/Huawei/iot_link/network/dtls/mbedtls/mbedtls-2.16.2/library\aes.c ****     }
1073:D:/fchai/work/i-cube/I-CUBE-HUAWEI/Middlewares/Third_Party/Huawei/iot_link/network/dtls/mbedtls/mbedtls-2.16.2/library\aes.c **** #endif
1074:D:/fchai/work/i-cube/I-CUBE-HUAWEI/Middlewares/Third_Party/Huawei/iot_link/network/dtls/mbedtls/mbedtls-2.16.2/library\aes.c **** 
1075:D:/fchai/work/i-cube/I-CUBE-HUAWEI/Middlewares/Third_Party/Huawei/iot_link/network/dtls/mbedtls/mbedtls-2.16.2/library\aes.c ****     if( mode == MBEDTLS_AES_DECRYPT )
 2353              		.loc 1 1075 5 is_stmt 1 view .LVU769
 2354 000e 0646     		mov	r6, r0
 2355 0010 8B46     		mov	fp, r1
 2356 0012 1D46     		mov	r5, r3
 2357              		.loc 1 1075 7 is_stmt 0 view .LVU770
 2358 0014 A9BB     		cbnz	r1, .L92
 2359              	.LVL163:
1076:D:/fchai/work/i-cube/I-CUBE-HUAWEI/Middlewares/Third_Party/Huawei/iot_link/network/dtls/mbedtls/mbedtls-2.16.2/library\aes.c ****     {
1077:D:/fchai/work/i-cube/I-CUBE-HUAWEI/Middlewares/Third_Party/Huawei/iot_link/network/dtls/mbedtls/mbedtls-2.16.2/library\aes.c ****         while( length > 0 )
 2360              		.loc 1 1077 14 is_stmt 1 view .LVU771
 2361 0016 82B3     		cbz	r2, .L78
 2362 0018 DDF83880 		ldr	r8, [sp, #56]
 2363 001c 0AF10F0A 		add	r10, r10, #15
 2364              	.LVL164:
 2365              		.loc 1 1077 14 is_stmt 0 view .LVU772
 2366 0020 08EB0209 		add	r9, r8, r2
 2367 0024 5F1E     		subs	r7, r3, #1
 2368              	.LVL165:
 2369              	.L80:
1078:D:/fchai/work/i-cube/I-CUBE-HUAWEI/Middlewares/Third_Party/Huawei/iot_link/network/dtls/mbedtls/mbedtls-2.16.2/library\aes.c ****         {
1079:D:/fchai/work/i-cube/I-CUBE-HUAWEI/Middlewares/Third_Party/Huawei/iot_link/network/dtls/mbedtls/mbedtls-2.16.2/library\aes.c ****             memcpy( temp, input, 16 );
 2370              		.loc 1 1079 13 is_stmt 1 view .LVU773
 2371 0026 D8F80000 		ldr	r0, [r8]	@ unaligned
 2372 002a D8F80410 		ldr	r1, [r8, #4]	@ unaligned
 2373 002e D8F80820 		ldr	r2, [r8, #8]	@ unaligned
 2374 0032 D8F80C30 		ldr	r3, [r8, #12]	@ unaligned
 2375 0036 EC46     		mov	ip, sp
 2376 0038 ACE80F00 		stmia	ip!, {r0, r1, r2, r3}
1080:D:/fchai/work/i-cube/I-CUBE-HUAWEI/Middlewares/Third_Party/Huawei/iot_link/network/dtls/mbedtls/mbedtls-2.16.2/library\aes.c ****             mbedtls_aes_crypt_ecb( ctx, mode, input, output );
 2377              		.loc 1 1080 13 view .LVU774
 2378              	.LVL166:
 2379              	.LBB14:
 2380              	.LBI14:
1005:D:/fchai/work/i-cube/I-CUBE-HUAWEI/Middlewares/Third_Party/Huawei/iot_link/network/dtls/mbedtls/mbedtls-2.16.2/library\aes.c ****                            int mode,
 2381              		.loc 1 1005 5 view .LVU775
 2382              	.LBB15:
1010:D:/fchai/work/i-cube/I-CUBE-HUAWEI/Middlewares/Third_Party/Huawei/iot_link/network/dtls/mbedtls/mbedtls-2.16.2/library\aes.c ****     AES_VALIDATE_RET( input != NULL );
 2383              		.loc 1 1010 5 view .LVU776
1010:D:/fchai/work/i-cube/I-CUBE-HUAWEI/Middlewares/Third_Party/Huawei/iot_link/network/dtls/mbedtls/mbedtls-2.16.2/library\aes.c ****     AES_VALIDATE_RET( input != NULL );
 2384              		.loc 1 1010 5 view .LVU777
1010:D:/fchai/work/i-cube/I-CUBE-HUAWEI/Middlewares/Third_Party/Huawei/iot_link/network/dtls/mbedtls/mbedtls-2.16.2/library\aes.c ****     AES_VALIDATE_RET( input != NULL );
 2385              		.loc 1 1010 5 view .LVU778
ARM GAS  T:\msys\tmp\ccwessdu.s 			page 70


1011:D:/fchai/work/i-cube/I-CUBE-HUAWEI/Middlewares/Third_Party/Huawei/iot_link/network/dtls/mbedtls/mbedtls-2.16.2/library\aes.c ****     AES_VALIDATE_RET( output != NULL );
 2386              		.loc 1 1011 5 view .LVU779
1011:D:/fchai/work/i-cube/I-CUBE-HUAWEI/Middlewares/Third_Party/Huawei/iot_link/network/dtls/mbedtls/mbedtls-2.16.2/library\aes.c ****     AES_VALIDATE_RET( output != NULL );
 2387              		.loc 1 1011 5 view .LVU780
1011:D:/fchai/work/i-cube/I-CUBE-HUAWEI/Middlewares/Third_Party/Huawei/iot_link/network/dtls/mbedtls/mbedtls-2.16.2/library\aes.c ****     AES_VALIDATE_RET( output != NULL );
 2388              		.loc 1 1011 5 view .LVU781
1012:D:/fchai/work/i-cube/I-CUBE-HUAWEI/Middlewares/Third_Party/Huawei/iot_link/network/dtls/mbedtls/mbedtls-2.16.2/library\aes.c ****     AES_VALIDATE_RET( mode == MBEDTLS_AES_ENCRYPT ||
 2389              		.loc 1 1012 5 view .LVU782
1012:D:/fchai/work/i-cube/I-CUBE-HUAWEI/Middlewares/Third_Party/Huawei/iot_link/network/dtls/mbedtls/mbedtls-2.16.2/library\aes.c ****     AES_VALIDATE_RET( mode == MBEDTLS_AES_ENCRYPT ||
 2390              		.loc 1 1012 5 view .LVU783
1012:D:/fchai/work/i-cube/I-CUBE-HUAWEI/Middlewares/Third_Party/Huawei/iot_link/network/dtls/mbedtls/mbedtls-2.16.2/library\aes.c ****     AES_VALIDATE_RET( mode == MBEDTLS_AES_ENCRYPT ||
 2391              		.loc 1 1012 5 view .LVU784
1013:D:/fchai/work/i-cube/I-CUBE-HUAWEI/Middlewares/Third_Party/Huawei/iot_link/network/dtls/mbedtls/mbedtls-2.16.2/library\aes.c ****                       mode == MBEDTLS_AES_DECRYPT );
 2392              		.loc 1 1013 5 view .LVU785
1013:D:/fchai/work/i-cube/I-CUBE-HUAWEI/Middlewares/Third_Party/Huawei/iot_link/network/dtls/mbedtls/mbedtls-2.16.2/library\aes.c ****                       mode == MBEDTLS_AES_DECRYPT );
 2393              		.loc 1 1013 5 view .LVU786
1013:D:/fchai/work/i-cube/I-CUBE-HUAWEI/Middlewares/Third_Party/Huawei/iot_link/network/dtls/mbedtls/mbedtls-2.16.2/library\aes.c ****                       mode == MBEDTLS_AES_DECRYPT );
 2394              		.loc 1 1013 5 view .LVU787
1033:D:/fchai/work/i-cube/I-CUBE-HUAWEI/Middlewares/Third_Party/Huawei/iot_link/network/dtls/mbedtls/mbedtls-2.16.2/library\aes.c ****         return( mbedtls_internal_aes_encrypt( ctx, input, output ) );
 2395              		.loc 1 1033 5 view .LVU788
1036:D:/fchai/work/i-cube/I-CUBE-HUAWEI/Middlewares/Third_Party/Huawei/iot_link/network/dtls/mbedtls/mbedtls-2.16.2/library\aes.c **** }
 2396              		.loc 1 1036 9 view .LVU789
1036:D:/fchai/work/i-cube/I-CUBE-HUAWEI/Middlewares/Third_Party/Huawei/iot_link/network/dtls/mbedtls/mbedtls-2.16.2/library\aes.c **** }
 2397              		.loc 1 1036 17 is_stmt 0 view .LVU790
 2398 003c AAF10F02 		sub	r2, r10, #15
 2399              	.LVL167:
1036:D:/fchai/work/i-cube/I-CUBE-HUAWEI/Middlewares/Third_Party/Huawei/iot_link/network/dtls/mbedtls/mbedtls-2.16.2/library\aes.c **** }
 2400              		.loc 1 1036 17 view .LVU791
 2401 0040 4146     		mov	r1, r8
 2402 0042 3046     		mov	r0, r6
 2403 0044 FFF7FEFF 		bl	mbedtls_internal_aes_decrypt
 2404              	.LVL168:
1036:D:/fchai/work/i-cube/I-CUBE-HUAWEI/Middlewares/Third_Party/Huawei/iot_link/network/dtls/mbedtls/mbedtls-2.16.2/library\aes.c **** }
 2405              		.loc 1 1036 17 view .LVU792
 2406              	.LBE15:
 2407              	.LBE14:
1081:D:/fchai/work/i-cube/I-CUBE-HUAWEI/Middlewares/Third_Party/Huawei/iot_link/network/dtls/mbedtls/mbedtls-2.16.2/library\aes.c **** 
1082:D:/fchai/work/i-cube/I-CUBE-HUAWEI/Middlewares/Third_Party/Huawei/iot_link/network/dtls/mbedtls/mbedtls-2.16.2/library\aes.c ****             for( i = 0; i < 16; i++ )
 2408              		.loc 1 1082 25 is_stmt 1 view .LVU793
 2409 0048 AAF11002 		sub	r2, r10, #16
 2410 004c 3B46     		mov	r3, r7
 2411              	.LVL169:
 2412              	.L79:
1083:D:/fchai/work/i-cube/I-CUBE-HUAWEI/Middlewares/Third_Party/Huawei/iot_link/network/dtls/mbedtls/mbedtls-2.16.2/library\aes.c ****                 output[i] = (unsigned char)( output[i] ^ iv[i] );
 2413              		.loc 1 1083 17 discriminator 3 view .LVU794
 2414              		.loc 1 1083 29 is_stmt 0 discriminator 3 view .LVU795
 2415 004e 12F8011F 		ldrb	r1, [r2, #1]!	@ zero_extendqisi2
 2416              	.LVL170:
 2417              		.loc 1 1083 29 discriminator 3 view .LVU796
 2418 0052 13F8010F 		ldrb	r0, [r3, #1]!	@ zero_extendqisi2
1082:D:/fchai/work/i-cube/I-CUBE-HUAWEI/Middlewares/Third_Party/Huawei/iot_link/network/dtls/mbedtls/mbedtls-2.16.2/library\aes.c ****                 output[i] = (unsigned char)( output[i] ^ iv[i] );
 2419              		.loc 1 1082 13 discriminator 3 view .LVU797
 2420 0056 9245     		cmp	r10, r2
 2421              		.loc 1 1083 29 discriminator 3 view .LVU798
 2422 0058 81EA0001 		eor	r1, r1, r0
 2423              		.loc 1 1083 27 discriminator 3 view .LVU799
 2424 005c 1170     		strb	r1, [r2]
ARM GAS  T:\msys\tmp\ccwessdu.s 			page 71


1082:D:/fchai/work/i-cube/I-CUBE-HUAWEI/Middlewares/Third_Party/Huawei/iot_link/network/dtls/mbedtls/mbedtls-2.16.2/library\aes.c ****                 output[i] = (unsigned char)( output[i] ^ iv[i] );
 2425              		.loc 1 1082 33 is_stmt 1 discriminator 3 view .LVU800
 2426              	.LVL171:
1082:D:/fchai/work/i-cube/I-CUBE-HUAWEI/Middlewares/Third_Party/Huawei/iot_link/network/dtls/mbedtls/mbedtls-2.16.2/library\aes.c ****                 output[i] = (unsigned char)( output[i] ^ iv[i] );
 2427              		.loc 1 1082 25 discriminator 3 view .LVU801
1082:D:/fchai/work/i-cube/I-CUBE-HUAWEI/Middlewares/Third_Party/Huawei/iot_link/network/dtls/mbedtls/mbedtls-2.16.2/library\aes.c ****                 output[i] = (unsigned char)( output[i] ^ iv[i] );
 2428              		.loc 1 1082 13 is_stmt 0 discriminator 3 view .LVU802
 2429 005e F6D1     		bne	.L79
1084:D:/fchai/work/i-cube/I-CUBE-HUAWEI/Middlewares/Third_Party/Huawei/iot_link/network/dtls/mbedtls/mbedtls-2.16.2/library\aes.c **** 
1085:D:/fchai/work/i-cube/I-CUBE-HUAWEI/Middlewares/Third_Party/Huawei/iot_link/network/dtls/mbedtls/mbedtls-2.16.2/library\aes.c ****             memcpy( iv, temp, 16 );
 2430              		.loc 1 1085 13 is_stmt 1 view .LVU803
 2431 0060 EC46     		mov	ip, sp
 2432 0062 BCE80F00 		ldmia	ip!, {r0, r1, r2, r3}
 2433              	.LVL172:
1086:D:/fchai/work/i-cube/I-CUBE-HUAWEI/Middlewares/Third_Party/Huawei/iot_link/network/dtls/mbedtls/mbedtls-2.16.2/library\aes.c **** 
1087:D:/fchai/work/i-cube/I-CUBE-HUAWEI/Middlewares/Third_Party/Huawei/iot_link/network/dtls/mbedtls/mbedtls-2.16.2/library\aes.c ****             input  += 16;
 2434              		.loc 1 1087 20 is_stmt 0 view .LVU804
 2435 0066 08F11008 		add	r8, r8, #16
 2436              	.LVL173:
1077:D:/fchai/work/i-cube/I-CUBE-HUAWEI/Middlewares/Third_Party/Huawei/iot_link/network/dtls/mbedtls/mbedtls-2.16.2/library\aes.c ****         {
 2437              		.loc 1 1077 14 view .LVU805
 2438 006a C845     		cmp	r8, r9
 2439 006c 0AF1100A 		add	r10, r10, #16
 2440              	.LVL174:
1085:D:/fchai/work/i-cube/I-CUBE-HUAWEI/Middlewares/Third_Party/Huawei/iot_link/network/dtls/mbedtls/mbedtls-2.16.2/library\aes.c **** 
 2441              		.loc 1 1085 13 view .LVU806
 2442 0070 2860     		str	r0, [r5]	@ unaligned
 2443 0072 6960     		str	r1, [r5, #4]	@ unaligned
 2444 0074 AA60     		str	r2, [r5, #8]	@ unaligned
 2445 0076 EB60     		str	r3, [r5, #12]	@ unaligned
 2446              		.loc 1 1087 13 is_stmt 1 view .LVU807
 2447              	.LVL175:
1088:D:/fchai/work/i-cube/I-CUBE-HUAWEI/Middlewares/Third_Party/Huawei/iot_link/network/dtls/mbedtls/mbedtls-2.16.2/library\aes.c ****             output += 16;
 2448              		.loc 1 1088 13 view .LVU808
1089:D:/fchai/work/i-cube/I-CUBE-HUAWEI/Middlewares/Third_Party/Huawei/iot_link/network/dtls/mbedtls/mbedtls-2.16.2/library\aes.c ****             length -= 16;
 2449              		.loc 1 1089 13 view .LVU809
1077:D:/fchai/work/i-cube/I-CUBE-HUAWEI/Middlewares/Third_Party/Huawei/iot_link/network/dtls/mbedtls/mbedtls-2.16.2/library\aes.c ****         {
 2450              		.loc 1 1077 14 view .LVU810
 2451 0078 D5D1     		bne	.L80
 2452              	.LVL176:
 2453              	.L78:
1090:D:/fchai/work/i-cube/I-CUBE-HUAWEI/Middlewares/Third_Party/Huawei/iot_link/network/dtls/mbedtls/mbedtls-2.16.2/library\aes.c ****         }
1091:D:/fchai/work/i-cube/I-CUBE-HUAWEI/Middlewares/Third_Party/Huawei/iot_link/network/dtls/mbedtls/mbedtls-2.16.2/library\aes.c ****     }
1092:D:/fchai/work/i-cube/I-CUBE-HUAWEI/Middlewares/Third_Party/Huawei/iot_link/network/dtls/mbedtls/mbedtls-2.16.2/library\aes.c ****     else
1093:D:/fchai/work/i-cube/I-CUBE-HUAWEI/Middlewares/Third_Party/Huawei/iot_link/network/dtls/mbedtls/mbedtls-2.16.2/library\aes.c ****     {
1094:D:/fchai/work/i-cube/I-CUBE-HUAWEI/Middlewares/Third_Party/Huawei/iot_link/network/dtls/mbedtls/mbedtls-2.16.2/library\aes.c ****         while( length > 0 )
1095:D:/fchai/work/i-cube/I-CUBE-HUAWEI/Middlewares/Third_Party/Huawei/iot_link/network/dtls/mbedtls/mbedtls-2.16.2/library\aes.c ****         {
1096:D:/fchai/work/i-cube/I-CUBE-HUAWEI/Middlewares/Third_Party/Huawei/iot_link/network/dtls/mbedtls/mbedtls-2.16.2/library\aes.c ****             for( i = 0; i < 16; i++ )
1097:D:/fchai/work/i-cube/I-CUBE-HUAWEI/Middlewares/Third_Party/Huawei/iot_link/network/dtls/mbedtls/mbedtls-2.16.2/library\aes.c ****                 output[i] = (unsigned char)( input[i] ^ iv[i] );
1098:D:/fchai/work/i-cube/I-CUBE-HUAWEI/Middlewares/Third_Party/Huawei/iot_link/network/dtls/mbedtls/mbedtls-2.16.2/library\aes.c **** 
1099:D:/fchai/work/i-cube/I-CUBE-HUAWEI/Middlewares/Third_Party/Huawei/iot_link/network/dtls/mbedtls/mbedtls-2.16.2/library\aes.c ****             mbedtls_aes_crypt_ecb( ctx, mode, output, output );
1100:D:/fchai/work/i-cube/I-CUBE-HUAWEI/Middlewares/Third_Party/Huawei/iot_link/network/dtls/mbedtls/mbedtls-2.16.2/library\aes.c ****             memcpy( iv, output, 16 );
1101:D:/fchai/work/i-cube/I-CUBE-HUAWEI/Middlewares/Third_Party/Huawei/iot_link/network/dtls/mbedtls/mbedtls-2.16.2/library\aes.c **** 
1102:D:/fchai/work/i-cube/I-CUBE-HUAWEI/Middlewares/Third_Party/Huawei/iot_link/network/dtls/mbedtls/mbedtls-2.16.2/library\aes.c ****             input  += 16;
1103:D:/fchai/work/i-cube/I-CUBE-HUAWEI/Middlewares/Third_Party/Huawei/iot_link/network/dtls/mbedtls/mbedtls-2.16.2/library\aes.c ****             output += 16;
1104:D:/fchai/work/i-cube/I-CUBE-HUAWEI/Middlewares/Third_Party/Huawei/iot_link/network/dtls/mbedtls/mbedtls-2.16.2/library\aes.c ****             length -= 16;
1105:D:/fchai/work/i-cube/I-CUBE-HUAWEI/Middlewares/Third_Party/Huawei/iot_link/network/dtls/mbedtls/mbedtls-2.16.2/library\aes.c ****         }
ARM GAS  T:\msys\tmp\ccwessdu.s 			page 72


1106:D:/fchai/work/i-cube/I-CUBE-HUAWEI/Middlewares/Third_Party/Huawei/iot_link/network/dtls/mbedtls/mbedtls-2.16.2/library\aes.c ****     }
1107:D:/fchai/work/i-cube/I-CUBE-HUAWEI/Middlewares/Third_Party/Huawei/iot_link/network/dtls/mbedtls/mbedtls-2.16.2/library\aes.c **** 
1108:D:/fchai/work/i-cube/I-CUBE-HUAWEI/Middlewares/Third_Party/Huawei/iot_link/network/dtls/mbedtls/mbedtls-2.16.2/library\aes.c ****     return( 0 );
 2454              		.loc 1 1108 11 is_stmt 0 view .LVU811
 2455 007a 0020     		movs	r0, #0
 2456              	.LVL177:
 2457              	.L74:
1109:D:/fchai/work/i-cube/I-CUBE-HUAWEI/Middlewares/Third_Party/Huawei/iot_link/network/dtls/mbedtls/mbedtls-2.16.2/library\aes.c **** }
 2458              		.loc 1 1109 1 view .LVU812
 2459 007c 05B0     		add	sp, sp, #20
 2460              	.LCFI19:
 2461              		.cfi_remember_state
 2462              		.cfi_def_cfa_offset 36
 2463              		@ sp needed
 2464 007e BDE8F08F 		pop	{r4, r5, r6, r7, r8, r9, r10, fp, pc}
 2465              	.LVL178:
 2466              	.L92:
 2467              	.LCFI20:
 2468              		.cfi_restore_state
1094:D:/fchai/work/i-cube/I-CUBE-HUAWEI/Middlewares/Third_Party/Huawei/iot_link/network/dtls/mbedtls/mbedtls-2.16.2/library\aes.c ****         {
 2469              		.loc 1 1094 14 is_stmt 1 view .LVU813
 2470 0082 002A     		cmp	r2, #0
 2471 0084 F9D0     		beq	.L78
 2472 0086 0E9B     		ldr	r3, [sp, #56]
 2473              	.LVL179:
1094:D:/fchai/work/i-cube/I-CUBE-HUAWEI/Middlewares/Third_Party/Huawei/iot_link/network/dtls/mbedtls/mbedtls-2.16.2/library\aes.c ****         {
 2474              		.loc 1 1094 14 is_stmt 0 view .LVU814
 2475 0088 03F10F08 		add	r8, r3, #15
 2476 008c 02EB0809 		add	r9, r2, r8
 2477 0090 6F1E     		subs	r7, r5, #1
 2478              	.LVL180:
 2479              	.L82:
1094:D:/fchai/work/i-cube/I-CUBE-HUAWEI/Middlewares/Third_Party/Huawei/iot_link/network/dtls/mbedtls/mbedtls-2.16.2/library\aes.c ****         {
 2480              		.loc 1 1094 14 view .LVU815
 2481 0092 A8F11003 		sub	r3, r8, #16
 2482 0096 3946     		mov	r1, r7
 2483 0098 0AF1FF32 		add	r2, r10, #-1
 2484              	.L81:
 2485              	.LVL181:
1097:D:/fchai/work/i-cube/I-CUBE-HUAWEI/Middlewares/Third_Party/Huawei/iot_link/network/dtls/mbedtls/mbedtls-2.16.2/library\aes.c **** 
 2486              		.loc 1 1097 17 is_stmt 1 discriminator 3 view .LVU816
1097:D:/fchai/work/i-cube/I-CUBE-HUAWEI/Middlewares/Third_Party/Huawei/iot_link/network/dtls/mbedtls/mbedtls-2.16.2/library\aes.c **** 
 2487              		.loc 1 1097 29 is_stmt 0 discriminator 3 view .LVU817
 2488 009c 13F8014F 		ldrb	r4, [r3, #1]!	@ zero_extendqisi2
 2489              	.LVL182:
1097:D:/fchai/work/i-cube/I-CUBE-HUAWEI/Middlewares/Third_Party/Huawei/iot_link/network/dtls/mbedtls/mbedtls-2.16.2/library\aes.c **** 
 2490              		.loc 1 1097 29 discriminator 3 view .LVU818
 2491 00a0 11F8010F 		ldrb	r0, [r1, #1]!	@ zero_extendqisi2
1096:D:/fchai/work/i-cube/I-CUBE-HUAWEI/Middlewares/Third_Party/Huawei/iot_link/network/dtls/mbedtls/mbedtls-2.16.2/library\aes.c ****                 output[i] = (unsigned char)( input[i] ^ iv[i] );
 2492              		.loc 1 1096 13 discriminator 3 view .LVU819
 2493 00a4 4345     		cmp	r3, r8
1097:D:/fchai/work/i-cube/I-CUBE-HUAWEI/Middlewares/Third_Party/Huawei/iot_link/network/dtls/mbedtls/mbedtls-2.16.2/library\aes.c **** 
 2494              		.loc 1 1097 29 discriminator 3 view .LVU820
 2495 00a6 84EA0004 		eor	r4, r4, r0
1097:D:/fchai/work/i-cube/I-CUBE-HUAWEI/Middlewares/Third_Party/Huawei/iot_link/network/dtls/mbedtls/mbedtls-2.16.2/library\aes.c **** 
 2496              		.loc 1 1097 27 discriminator 3 view .LVU821
 2497 00aa 02F8014F 		strb	r4, [r2, #1]!
ARM GAS  T:\msys\tmp\ccwessdu.s 			page 73


1096:D:/fchai/work/i-cube/I-CUBE-HUAWEI/Middlewares/Third_Party/Huawei/iot_link/network/dtls/mbedtls/mbedtls-2.16.2/library\aes.c ****                 output[i] = (unsigned char)( input[i] ^ iv[i] );
 2498              		.loc 1 1096 33 is_stmt 1 discriminator 3 view .LVU822
 2499              	.LVL183:
1096:D:/fchai/work/i-cube/I-CUBE-HUAWEI/Middlewares/Third_Party/Huawei/iot_link/network/dtls/mbedtls/mbedtls-2.16.2/library\aes.c ****                 output[i] = (unsigned char)( input[i] ^ iv[i] );
 2500              		.loc 1 1096 25 discriminator 3 view .LVU823
1096:D:/fchai/work/i-cube/I-CUBE-HUAWEI/Middlewares/Third_Party/Huawei/iot_link/network/dtls/mbedtls/mbedtls-2.16.2/library\aes.c ****                 output[i] = (unsigned char)( input[i] ^ iv[i] );
 2501              		.loc 1 1096 13 is_stmt 0 discriminator 3 view .LVU824
 2502 00ae F5D1     		bne	.L81
1099:D:/fchai/work/i-cube/I-CUBE-HUAWEI/Middlewares/Third_Party/Huawei/iot_link/network/dtls/mbedtls/mbedtls-2.16.2/library\aes.c ****             memcpy( iv, output, 16 );
 2503              		.loc 1 1099 13 is_stmt 1 view .LVU825
 2504 00b0 5346     		mov	r3, r10
 2505              	.LVL184:
1099:D:/fchai/work/i-cube/I-CUBE-HUAWEI/Middlewares/Third_Party/Huawei/iot_link/network/dtls/mbedtls/mbedtls-2.16.2/library\aes.c ****             memcpy( iv, output, 16 );
 2506              		.loc 1 1099 13 is_stmt 0 view .LVU826
 2507 00b2 5246     		mov	r2, r10
 2508 00b4 5946     		mov	r1, fp
 2509 00b6 3046     		mov	r0, r6
 2510 00b8 08F11008 		add	r8, r8, #16
 2511              	.LVL185:
1099:D:/fchai/work/i-cube/I-CUBE-HUAWEI/Middlewares/Third_Party/Huawei/iot_link/network/dtls/mbedtls/mbedtls-2.16.2/library\aes.c ****             memcpy( iv, output, 16 );
 2512              		.loc 1 1099 13 view .LVU827
 2513 00bc FFF7FEFF 		bl	mbedtls_aes_crypt_ecb
 2514              	.LVL186:
1100:D:/fchai/work/i-cube/I-CUBE-HUAWEI/Middlewares/Third_Party/Huawei/iot_link/network/dtls/mbedtls/mbedtls-2.16.2/library\aes.c **** 
 2515              		.loc 1 1100 13 is_stmt 1 view .LVU828
 2516 00c0 DAF80010 		ldr	r1, [r10]	@ unaligned
 2517 00c4 DAF80420 		ldr	r2, [r10, #4]	@ unaligned
 2518 00c8 DAF80830 		ldr	r3, [r10, #8]	@ unaligned
 2519 00cc DAF80C00 		ldr	r0, [r10, #12]	@ unaligned
 2520 00d0 E860     		str	r0, [r5, #12]	@ unaligned
1102:D:/fchai/work/i-cube/I-CUBE-HUAWEI/Middlewares/Third_Party/Huawei/iot_link/network/dtls/mbedtls/mbedtls-2.16.2/library\aes.c ****             output += 16;
 2521              		.loc 1 1102 13 view .LVU829
 2522              	.LVL187:
1103:D:/fchai/work/i-cube/I-CUBE-HUAWEI/Middlewares/Third_Party/Huawei/iot_link/network/dtls/mbedtls/mbedtls-2.16.2/library\aes.c ****             length -= 16;
 2523              		.loc 1 1103 13 view .LVU830
1094:D:/fchai/work/i-cube/I-CUBE-HUAWEI/Middlewares/Third_Party/Huawei/iot_link/network/dtls/mbedtls/mbedtls-2.16.2/library\aes.c ****         {
 2524              		.loc 1 1094 14 is_stmt 0 view .LVU831
 2525 00d2 C145     		cmp	r9, r8
1100:D:/fchai/work/i-cube/I-CUBE-HUAWEI/Middlewares/Third_Party/Huawei/iot_link/network/dtls/mbedtls/mbedtls-2.16.2/library\aes.c **** 
 2526              		.loc 1 1100 13 view .LVU832
 2527 00d4 2960     		str	r1, [r5]	@ unaligned
 2528 00d6 6A60     		str	r2, [r5, #4]	@ unaligned
 2529 00d8 AB60     		str	r3, [r5, #8]	@ unaligned
1103:D:/fchai/work/i-cube/I-CUBE-HUAWEI/Middlewares/Third_Party/Huawei/iot_link/network/dtls/mbedtls/mbedtls-2.16.2/library\aes.c ****             length -= 16;
 2530              		.loc 1 1103 20 view .LVU833
 2531 00da 0AF1100A 		add	r10, r10, #16
 2532              	.LVL188:
1104:D:/fchai/work/i-cube/I-CUBE-HUAWEI/Middlewares/Third_Party/Huawei/iot_link/network/dtls/mbedtls/mbedtls-2.16.2/library\aes.c ****         }
 2533              		.loc 1 1104 13 is_stmt 1 view .LVU834
1094:D:/fchai/work/i-cube/I-CUBE-HUAWEI/Middlewares/Third_Party/Huawei/iot_link/network/dtls/mbedtls/mbedtls-2.16.2/library\aes.c ****         {
 2534              		.loc 1 1094 14 view .LVU835
 2535 00de D8D1     		bne	.L82
 2536 00e0 CBE7     		b	.L78
 2537              	.LVL189:
 2538              	.L83:
1061:D:/fchai/work/i-cube/I-CUBE-HUAWEI/Middlewares/Third_Party/Huawei/iot_link/network/dtls/mbedtls/mbedtls-2.16.2/library\aes.c **** 
 2539              		.loc 1 1061 15 is_stmt 0 view .LVU836
ARM GAS  T:\msys\tmp\ccwessdu.s 			page 74


 2540 00e2 6FF02100 		mvn	r0, #33
 2541              	.LVL190:
1061:D:/fchai/work/i-cube/I-CUBE-HUAWEI/Middlewares/Third_Party/Huawei/iot_link/network/dtls/mbedtls/mbedtls-2.16.2/library\aes.c **** 
 2542              		.loc 1 1061 15 view .LVU837
 2543 00e6 C9E7     		b	.L74
 2544              		.cfi_endproc
 2545              	.LFE12:
 2547              		.section	.rodata.FSb,"a"
 2548              		.align	2
 2549              		.set	.LANCHOR1,. + 0
 2552              	FSb:
 2553 0000 637C777B 		.ascii	"c|w{\362ko\3050\001g+\376\327\253v\312\202\311}\372"
 2553      F26B6FC5 
 2553      3001672B 
 2553      FED7AB76 
 2553      CA82C97D 
 2554 0015 5947F0AD 		.ascii	"YG\360\255\324\242\257\234\244r\300\267\375\223&6?\367"
 2554      D4A2AF9C 
 2554      A472C0B7 
 2554      FD932636 
 2554      3FF7
 2555 0027 CC34A5E5 		.ascii	"\3144\245\345\361q\3301\025\004\307#\303\030\226\005"
 2555      F171D831 
 2555      1504C723 
 2555      C3189605 
 2556 0037 9A071280 		.ascii	"\232\007\022\200\342\353'\262u\011\203,\032\033nZ\240"
 2556      E2EB27B2 
 2556      7509832C 
 2556      1A1B6E5A 
 2556      A0
 2557 0048 523BD6B3 		.ascii	"R;\326\263)\343/\204S\321\000\355 \374\261[j\313\276"
 2557      29E32F84 
 2557      53D100ED 
 2557      20FCB15B 
 2557      6ACBBE
 2558 005b 394A4C58 		.ascii	"9JLX\317\320\357\252\373CM3\205E\371\002\177P<\237\250"
 2558      CFD0EFAA 
 2558      FB434D33 
 2558      8545F902 
 2558      7F503C9F 
 2559 0070 51A3408F 		.ascii	"Q\243@\217\222\2358\365\274\266\332!\020\377\363\322"
 2559      929D38F5 
 2559      BCB6DA21 
 2559      10FFF3D2 
 2560 0080 CD0C13EC 		.ascii	"\315\014\023\354_\227D\027\304\247~=d]\031s`\201O\334"
 2560      5F974417 
 2560      C4A77E3D 
 2560      645D1973 
 2560      60814FDC 
 2561 0094 222A9088 		.ascii	"\"*\220\210F\356\270\024\336^\013\333\3402:\012I\006"
 2561      46EEB814 
 2561      DE5E0BDB 
 2561      E0323A0A 
 2561      4906
 2562 00a6 245CC2D3 		.ascii	"$\\\302\323\254b\221\225\344y\347\3107m\215\325N\251"
 2562      AC629195 
 2562      E479E7C8 
ARM GAS  T:\msys\tmp\ccwessdu.s 			page 75


 2562      376D8DD5 
 2562      4EA9
 2563 00b8 6C56F4EA 		.ascii	"lV\364\352ez\256\010\272x%.\034\246\264\306\350\335"
 2563      657AAE08 
 2563      BA78252E 
 2563      1CA6B4C6 
 2563      E8DD
 2564 00ca 741F4BBD 		.ascii	"t\037K\275\213\212p>\265fH\003\366\016a5W\271\206\301"
 2564      8B8A703E 
 2564      B5664803 
 2564      F60E6135 
 2564      57B986C1 
 2565 00de 1D9EE1F8 		.ascii	"\035\236\341\370\230\021i\331\216\224\233\036\207\351"
 2565      981169D9 
 2565      8E949B1E 
 2565      87E9
 2566 00ec CE5528DF 		.ascii	"\316U(\337\214\241\211\015\277\346BhA\231-\017\260T"
 2566      8CA1890D 
 2566      BFE64268 
 2566      41992D0F 
 2566      B054
 2567 00fe BB16     		.ascii	"\273\026"
 2568              		.section	.rodata.FT0,"a"
 2569              		.align	2
 2570              		.set	.LANCHOR6,. + 0
 2573              	FT0:
 2574 0000 C66363A5 		.word	-1520213050
 2575 0004 F87C7C84 		.word	-2072216328
 2576 0008 EE777799 		.word	-1720223762
 2577 000c F67B7B8D 		.word	-1921287178
 2578 0010 FFF2F20D 		.word	234025727
 2579 0014 D66B6BBD 		.word	-1117033514
 2580 0018 DE6F6FB1 		.word	-1318096930
 2581 001c 91C5C554 		.word	1422247313
 2582 0020 60303050 		.word	1345335392
 2583 0024 02010103 		.word	50397442
 2584 0028 CE6767A9 		.word	-1452841010
 2585 002c 562B2B7D 		.word	2099981142
 2586 0030 E7FEFE19 		.word	436141799
 2587 0034 B5D7D762 		.word	1658312629
 2588 0038 4DABABE6 		.word	-424957107
 2589 003c EC76769A 		.word	-1703512340
 2590 0040 8FCACA45 		.word	1170918031
 2591 0044 1F82829D 		.word	-1652391393
 2592 0048 89C9C940 		.word	1086966153
 2593 004c FA7D7D87 		.word	-2021818886
 2594 0050 EFFAFA15 		.word	368769775
 2595 0054 B25959EB 		.word	-346465870
 2596 0058 8E4747C9 		.word	-918075506
 2597 005c FBF0F00B 		.word	200339707
 2598 0060 41ADADEC 		.word	-324162239
 2599 0064 B3D4D467 		.word	1742001331
 2600 0068 5FA2A2FD 		.word	-39673249
 2601 006c 45AFAFEA 		.word	-357585083
 2602 0070 239C9CBF 		.word	-1080255453
 2603 0074 53A4A4F7 		.word	-140204973
 2604 0078 E4727296 		.word	-1770884380
ARM GAS  T:\msys\tmp\ccwessdu.s 			page 76


 2605 007c 9BC0C05B 		.word	1539358875
 2606 0080 75B7B7C2 		.word	-1028147339
 2607 0084 E1FDFD1C 		.word	486407649
 2608 0088 3D9393AE 		.word	-1366060227
 2609 008c 4C26266A 		.word	1780885068
 2610 0090 6C36365A 		.word	1513502316
 2611 0094 7E3F3F41 		.word	1094664062
 2612 0098 F5F7F702 		.word	49805301
 2613 009c 83CCCC4F 		.word	1338821763
 2614 00a0 6834345C 		.word	1546925160
 2615 00a4 51A5A5F4 		.word	-190470831
 2616 00a8 D1E5E534 		.word	887481809
 2617 00ac F9F1F108 		.word	150073849
 2618 00b0 E2717193 		.word	-1821281822
 2619 00b4 ABD8D873 		.word	1943591083
 2620 00b8 62313153 		.word	1395732834
 2621 00bc 2A15153F 		.word	1058346282
 2622 00c0 0804040C 		.word	201589768
 2623 00c4 95C7C752 		.word	1388824469
 2624 00c8 46232365 		.word	1696801606
 2625 00cc 9DC3C35E 		.word	1589887901
 2626 00d0 30181828 		.word	672667696
 2627 00d4 379696A1 		.word	-1583966665
 2628 00d8 0A05050F 		.word	251987210
 2629 00dc 2F9A9AB5 		.word	-1248159185
 2630 00e0 0E070709 		.word	151455502
 2631 00e4 24121236 		.word	907153956
 2632 00e8 1B80809B 		.word	-1686077413
 2633 00ec DFE2E23D 		.word	1038279391
 2634 00f0 CDEBEB26 		.word	652995533
 2635 00f4 4E272769 		.word	1764173646
 2636 00f8 7FB2B2CD 		.word	-843926913
 2637 00fc EA75759F 		.word	-1619692054
 2638 0100 1209091B 		.word	453576978
 2639 0104 1D83839E 		.word	-1635548387
 2640 0108 582C2C74 		.word	1949051992
 2641 010c 341A1A2E 		.word	773462580
 2642 0110 361B1B2D 		.word	756751158
 2643 0114 DC6E6EB2 		.word	-1301385508
 2644 0118 B45A5AEE 		.word	-296068428
 2645 011c 5BA0A0FB 		.word	-73359269
 2646 0120 A45252F6 		.word	-162377052
 2647 0124 763B3B4D 		.word	1295727478
 2648 0128 B7D6D661 		.word	1641469623
 2649 012c 7DB3B3CE 		.word	-827083907
 2650 0130 5229297B 		.word	2066295122
 2651 0134 DDE3E33E 		.word	1055122397
 2652 0138 5E2F2F71 		.word	1898917726
 2653 013c 13848497 		.word	-1752923117
 2654 0140 A65353F5 		.word	-179088474
 2655 0144 B9D1D168 		.word	1758581177
 2656 0148 00000000 		.word	0
 2657 014c C1EDED2C 		.word	753790401
 2658 0150 40202060 		.word	1612718144
 2659 0154 E3FCFC1F 		.word	536673507
 2660 0158 79B1B1C8 		.word	-927878791
 2661 015c B65B5BED 		.word	-312779850
ARM GAS  T:\msys\tmp\ccwessdu.s 			page 77


 2662 0160 D46A6ABE 		.word	-1100322092
 2663 0164 8DCBCB46 		.word	1187761037
 2664 0168 67BEBED9 		.word	-641810841
 2665 016c 7239394B 		.word	1262041458
 2666 0170 944A4ADE 		.word	-565556588
 2667 0174 984C4CD4 		.word	-733197160
 2668 0178 B05858E8 		.word	-396863312
 2669 017c 85CFCF4A 		.word	1255133061
 2670 0180 BBD0D06B 		.word	1808847035
 2671 0184 C5EFEF2A 		.word	720367557
 2672 0188 4FAAAAE5 		.word	-441800113
 2673 018c EDFBFB16 		.word	385612781
 2674 0190 864343C5 		.word	-985447546
 2675 0194 9A4D4DD7 		.word	-682799718
 2676 0198 66333355 		.word	1429418854
 2677 019c 11858594 		.word	-1803188975
 2678 01a0 8A4545CF 		.word	-817543798
 2679 01a4 E9F9F910 		.word	284817897
 2680 01a8 04020206 		.word	100794884
 2681 01ac FE7F7F81 		.word	-2122350594
 2682 01b0 A05050F0 		.word	-263171936
 2683 01b4 783C3C44 		.word	1144798328
 2684 01b8 259F9FBA 		.word	-1163944155
 2685 01bc 4BA8A8E3 		.word	-475486133
 2686 01c0 A25151F3 		.word	-212774494
 2687 01c4 5DA3A3FE 		.word	-22830243
 2688 01c8 804040C0 		.word	-1069531008
 2689 01cc 058F8F8A 		.word	-1970303227
 2690 01d0 3F9292AD 		.word	-1382903233
 2691 01d4 219D9DBC 		.word	-1130521311
 2692 01d8 70383848 		.word	1211644016
 2693 01dc F1F5F504 		.word	83228145
 2694 01e0 63BCBCDF 		.word	-541279133
 2695 01e4 77B6B6C1 		.word	-1044990345
 2696 01e8 AFDADA75 		.word	1977277103
 2697 01ec 42212163 		.word	1663115586
 2698 01f0 20101030 		.word	806359072
 2699 01f4 E5FFFF1A 		.word	452984805
 2700 01f8 FDF3F30E 		.word	250868733
 2701 01fc BFD2D26D 		.word	1842533055
 2702 0200 81CDCD4C 		.word	1288555905
 2703 0204 180C0C14 		.word	336333848
 2704 0208 26131335 		.word	890442534
 2705 020c C3ECEC2F 		.word	804056259
 2706 0210 BE5F5FE1 		.word	-513843266
 2707 0214 359797A2 		.word	-1567123659
 2708 0218 884444CC 		.word	-867941240
 2709 021c 2E171739 		.word	957814574
 2710 0220 93C4C457 		.word	1472513171
 2711 0224 55A7A7F2 		.word	-223893675
 2712 0228 FC7E7E82 		.word	-2105639172
 2713 022c 7A3D3D47 		.word	1195195770
 2714 0230 C86464AC 		.word	-1402706744
 2715 0234 BA5D5DE7 		.word	-413311558
 2716 0238 3219192B 		.word	723065138
 2717 023c E6737395 		.word	-1787595802
 2718 0240 C06060A0 		.word	-1604296512
ARM GAS  T:\msys\tmp\ccwessdu.s 			page 78


 2719 0244 19818198 		.word	-1736343271
 2720 0248 9E4F4FD1 		.word	-783331426
 2721 024c A3DCDC7F 		.word	2145180835
 2722 0250 44222266 		.word	1713513028
 2723 0254 542A2A7E 		.word	2116692564
 2724 0258 3B9090AB 		.word	-1416589253
 2725 025c 0B888883 		.word	-2088204277
 2726 0260 8C4646CA 		.word	-901364084
 2727 0264 C7EEEE29 		.word	703524551
 2728 0268 6BB8B8D3 		.word	-742868885
 2729 026c 2814143C 		.word	1007948840
 2730 0270 A7DEDE79 		.word	2044649127
 2731 0274 BC5E5EE2 		.word	-497131844
 2732 0278 160B0B1D 		.word	487262998
 2733 027c ADDBDB76 		.word	1994120109
 2734 0280 DBE0E03B 		.word	1004593371
 2735 0284 64323256 		.word	1446130276
 2736 0288 743A3A4E 		.word	1312438900
 2737 028c 140A0A1E 		.word	503974420
 2738 0290 924949DB 		.word	-615954030
 2739 0294 0C06060A 		.word	168166924
 2740 0298 4824246C 		.word	1814307912
 2741 029c B85C5CE4 		.word	-463709000
 2742 02a0 9FC2C25D 		.word	1573044895
 2743 02a4 BDD3D36E 		.word	1859376061
 2744 02a8 43ACACEF 		.word	-273896381
 2745 02ac C46262A6 		.word	-1503501628
 2746 02b0 399191A8 		.word	-1466855111
 2747 02b4 319595A4 		.word	-1533700815
 2748 02b8 D3E4E437 		.word	937747667
 2749 02bc F279798B 		.word	-1954973198
 2750 02c0 D5E7E732 		.word	854058965
 2751 02c4 8BC8C843 		.word	1137232011
 2752 02c8 6E373759 		.word	1496790894
 2753 02cc DA6D6DB7 		.word	-1217565222
 2754 02d0 018D8D8C 		.word	-1936880383
 2755 02d4 B1D5D564 		.word	1691735473
 2756 02d8 9C4E4ED2 		.word	-766620004
 2757 02dc 49A9A9E0 		.word	-525751991
 2758 02e0 D86C6CB4 		.word	-1267962664
 2759 02e4 AC5656FA 		.word	-95005012
 2760 02e8 F3F4F407 		.word	133494003
 2761 02ec CFEAEA25 		.word	636152527
 2762 02f0 CA6565AF 		.word	-1352309302
 2763 02f4 F47A7A8E 		.word	-1904575756
 2764 02f8 47AEAEE9 		.word	-374428089
 2765 02fc 10080818 		.word	403179536
 2766 0300 6FBABAD5 		.word	-709182865
 2767 0304 F0787888 		.word	-2005370640
 2768 0308 4A25256F 		.word	1864705354
 2769 030c 5C2E2E72 		.word	1915629148
 2770 0310 381C1C24 		.word	605822008
 2771 0314 57A6A6F1 		.word	-240736681
 2772 0318 73B4B4C7 		.word	-944458637
 2773 031c 97C6C651 		.word	1371981463
 2774 0320 CBE8E823 		.word	602466507
 2775 0324 A1DDDD7C 		.word	2094914977
ARM GAS  T:\msys\tmp\ccwessdu.s 			page 79


 2776 0328 E874749C 		.word	-1670089496
 2777 032c 3E1F1F21 		.word	555687742
 2778 0330 964B4BDD 		.word	-582268010
 2779 0334 61BDBDDC 		.word	-591544991
 2780 0338 0D8B8B86 		.word	-2037675251
 2781 033c 0F8A8A85 		.word	-2054518257
 2782 0340 E0707090 		.word	-1871679264
 2783 0344 7C3E3E42 		.word	1111375484
 2784 0348 71B5B5C4 		.word	-994724495
 2785 034c CC6666AA 		.word	-1436129588
 2786 0350 904848D8 		.word	-666351472
 2787 0354 06030305 		.word	84083462
 2788 0358 F7F6F601 		.word	32962295
 2789 035c 1C0E0E12 		.word	302911004
 2790 0360 C26161A3 		.word	-1553899070
 2791 0364 6A35355F 		.word	1597322602
 2792 0368 AE5757F9 		.word	-111716434
 2793 036c 69B9B9D0 		.word	-793134743
 2794 0370 17868691 		.word	-1853454825
 2795 0374 99C1C158 		.word	1489093017
 2796 0378 3A1D1D27 		.word	656219450
 2797 037c 279E9EB9 		.word	-1180787161
 2798 0380 D9E1E138 		.word	954327513
 2799 0384 EBF8F813 		.word	335083755
 2800 0388 2B9898B3 		.word	-1281845205
 2801 038c 22111133 		.word	856756514
 2802 0390 D26969BB 		.word	-1150719534
 2803 0394 A9D9D970 		.word	1893325225
 2804 0398 078E8E89 		.word	-1987146233
 2805 039c 339494A7 		.word	-1483434957
 2806 03a0 2D9B9BB6 		.word	-1231316179
 2807 03a4 3C1E1E22 		.word	572399164
 2808 03a8 15878792 		.word	-1836611819
 2809 03ac C9E9E920 		.word	552200649
 2810 03b0 87CECE49 		.word	1238290055
 2811 03b4 AA5555FF 		.word	-11184726
 2812 03b8 50282878 		.word	2015897680
 2813 03bc A5DFDF7A 		.word	2061492133
 2814 03c0 038C8C8F 		.word	-1886614525
 2815 03c4 59A1A1F8 		.word	-123625127
 2816 03c8 09898980 		.word	-2138470135
 2817 03cc 1A0D0D17 		.word	386731290
 2818 03d0 65BFBFDA 		.word	-624967835
 2819 03d4 D7E6E631 		.word	837215959
 2820 03d8 844242C6 		.word	-968736124
 2821 03dc D06868B8 		.word	-1201116976
 2822 03e0 824141C3 		.word	-1019133566
 2823 03e4 299999B0 		.word	-1332111063
 2824 03e8 5A2D2D77 		.word	1999449434
 2825 03ec 1E0F0F11 		.word	286199582
 2826 03f0 7BB0B0CB 		.word	-877612933
 2827 03f4 A85454FC 		.word	-61582168
 2828 03f8 6DBBBBD6 		.word	-692339859
 2829 03fc 2C16163A 		.word	974525996
 2830              		.section	.rodata.FT1,"a"
 2831              		.align	2
 2832              		.set	.LANCHOR8,. + 0
ARM GAS  T:\msys\tmp\ccwessdu.s 			page 80


 2835              	FT1:
 2836 0000 A5C66363 		.word	1667483301
 2837 0004 84F87C7C 		.word	2088564868
 2838 0008 99EE7777 		.word	2004348569
 2839 000c 8DF67B7B 		.word	2071721613
 2840 0010 0DFFF2F2 		.word	-218956019
 2841 0014 BDD66B6B 		.word	1802229437
 2842 0018 B1DE6F6F 		.word	1869602481
 2843 001c 5491C5C5 		.word	-976907948
 2844 0020 50603030 		.word	808476752
 2845 0024 03020101 		.word	16843267
 2846 0028 A9CE6767 		.word	1734856361
 2847 002c 7D562B2B 		.word	724260477
 2848 0030 19E7FEFE 		.word	-16849127
 2849 0034 62B5D7D7 		.word	-673729182
 2850 0038 E64DABAB 		.word	-1414836762
 2851 003c 9AEC7676 		.word	1987505306
 2852 0040 458FCACA 		.word	-892694715
 2853 0044 9D1F8282 		.word	-2105401443
 2854 0048 4089C9C9 		.word	-909539008
 2855 004c 87FA7D7D 		.word	2105408135
 2856 0050 15EFFAFA 		.word	-84218091
 2857 0054 EBB25959 		.word	1499050731
 2858 0058 C98E4747 		.word	1195871945
 2859 005c 0BFBF0F0 		.word	-252642549
 2860 0060 EC41ADAD 		.word	-1381154324
 2861 0064 67B3D4D4 		.word	-724257945
 2862 0068 FD5FA2A2 		.word	-1566416899
 2863 006c EA45AFAF 		.word	-1347467798
 2864 0070 BF239C9C 		.word	-1667488833
 2865 0074 F753A4A4 		.word	-1532734473
 2866 0078 96E47272 		.word	1920132246
 2867 007c 5B9BC0C0 		.word	-1061119141
 2868 0080 C275B7B7 		.word	-1212713534
 2869 0084 1CE1FDFD 		.word	-33693412
 2870 0088 AE3D9393 		.word	-1819066962
 2871 008c 6A4C2626 		.word	640044138
 2872 0090 5A6C3636 		.word	909536346
 2873 0094 417E3F3F 		.word	1061125697
 2874 0098 02F5F7F7 		.word	-134744830
 2875 009c 4F83CCCC 		.word	-859012273
 2876 00a0 5C683434 		.word	875849820
 2877 00a4 F451A5A5 		.word	-1515892236
 2878 00a8 34D1E5E5 		.word	-437923532
 2879 00ac 08F9F1F1 		.word	-235800312
 2880 00b0 93E27171 		.word	1903288979
 2881 00b4 73ABD8D8 		.word	-656888973
 2882 00b8 53623131 		.word	825320019
 2883 00bc 3F2A1515 		.word	353708607
 2884 00c0 0C080404 		.word	67373068
 2885 00c4 5295C7C7 		.word	-943221422
 2886 00c8 65462323 		.word	589514341
 2887 00cc 5E9DC3C3 		.word	-1010590370
 2888 00d0 28301818 		.word	404238376
 2889 00d4 A1379696 		.word	-1768540255
 2890 00d8 0F0A0505 		.word	84216335
 2891 00dc B52F9A9A 		.word	-1701171275
ARM GAS  T:\msys\tmp\ccwessdu.s 			page 81


 2892 00e0 090E0707 		.word	117902857
 2893 00e4 36241212 		.word	303178806
 2894 00e8 9B1B8080 		.word	-2139087973
 2895 00ec 3DDFE2E2 		.word	-488448195
 2896 00f0 26CDEBEB 		.word	-336868058
 2897 00f4 694E2727 		.word	656887401
 2898 00f8 CD7FB2B2 		.word	-1296924723
 2899 00fc 9FEA7575 		.word	1970662047
 2900 0100 1B120909 		.word	151589403
 2901 0104 9E1D8383 		.word	-2088559202
 2902 0108 74582C2C 		.word	741103732
 2903 010c 2E341A1A 		.word	437924910
 2904 0110 2D361B1B 		.word	454768173
 2905 0114 B2DC6E6E 		.word	1852759218
 2906 0118 EEB45A5A 		.word	1515893998
 2907 011c FB5BA0A0 		.word	-1600103429
 2908 0120 F6A45252 		.word	1381147894
 2909 0124 4D763B3B 		.word	993752653
 2910 0128 61B7D6D6 		.word	-690571423
 2911 012c CE7DB3B3 		.word	-1280082482
 2912 0130 7B522929 		.word	690573947
 2913 0134 3EDDE3E3 		.word	-471605954
 2914 0138 715E2F2F 		.word	791633521
 2915 013c 97138484 		.word	-2071719017
 2916 0140 F5A65353 		.word	1397991157
 2917 0144 68B9D1D1 		.word	-774784664
 2918 0148 00000000 		.word	0
 2919 014c 2CC1EDED 		.word	-303185620
 2920 0150 60402020 		.word	538984544
 2921 0154 1FE3FCFC 		.word	-50535649
 2922 0158 C879B1B1 		.word	-1313769016
 2923 015c EDB65B5B 		.word	1532737261
 2924 0160 BED46A6A 		.word	1785386174
 2925 0164 468DCBCB 		.word	-875852474
 2926 0168 D967BEBE 		.word	-1094817831
 2927 016c 4B723939 		.word	960066123
 2928 0170 DE944A4A 		.word	1246401758
 2929 0174 D4984C4C 		.word	1280088276
 2930 0178 E8B05858 		.word	1482207464
 2931 017c 4A85CFCF 		.word	-808483510
 2932 0180 6BBBD0D0 		.word	-791626901
 2933 0184 2AC5EFEF 		.word	-269499094
 2934 0188 E54FAAAA 		.word	-1431679003
 2935 018c 16EDFBFB 		.word	-67375850
 2936 0190 C5864343 		.word	1128498885
 2937 0194 D79A4D4D 		.word	1296931543
 2938 0198 55663333 		.word	859006549
 2939 019c 94118585 		.word	-2054876780
 2940 01a0 CF8A4545 		.word	1162185423
 2941 01a4 10E9F9F9 		.word	-101062384
 2942 01a8 06040202 		.word	33686534
 2943 01ac 81FE7F7F 		.word	2139094657
 2944 01b0 F0A05050 		.word	1347461360
 2945 01b4 44783C3C 		.word	1010595908
 2946 01b8 BA259F9F 		.word	-1616960070
 2947 01bc E34BA8A8 		.word	-1465365533
 2948 01c0 F3A25151 		.word	1364304627
ARM GAS  T:\msys\tmp\ccwessdu.s 			page 82


 2949 01c4 FE5DA3A3 		.word	-1549574658
 2950 01c8 C0804040 		.word	1077969088
 2951 01cc 8A058F8F 		.word	-1886452342
 2952 01d0 AD3F9292 		.word	-1835909203
 2953 01d4 BC219D9D 		.word	-1650646596
 2954 01d8 48703838 		.word	943222856
 2955 01dc 04F1F5F5 		.word	-168431356
 2956 01e0 DF63BCBC 		.word	-1128504353
 2957 01e4 C177B6B6 		.word	-1229555775
 2958 01e8 75AFDADA 		.word	-623202443
 2959 01ec 63422121 		.word	555827811
 2960 01f0 30201010 		.word	269492272
 2961 01f4 1AE5FFFF 		.word	-6886
 2962 01f8 0EFDF3F3 		.word	-202113778
 2963 01fc 6DBFD2D2 		.word	-757940371
 2964 0200 4C81CDCD 		.word	-842170036
 2965 0204 14180C0C 		.word	202119188
 2966 0208 35261313 		.word	320022069
 2967 020c 2FC3ECEC 		.word	-320027857
 2968 0210 E1BE5F5F 		.word	1600110305
 2969 0214 A2359797 		.word	-1751698014
 2970 0218 CC884444 		.word	1145342156
 2971 021c 392E1717 		.word	387395129
 2972 0220 5793C4C4 		.word	-993750185
 2973 0224 F255A7A7 		.word	-1482205710
 2974 0228 82FC7E7E 		.word	2122251394
 2975 022c 477A3D3D 		.word	1027439175
 2976 0230 ACC86464 		.word	1684326572
 2977 0234 E7BA5D5D 		.word	1566423783
 2978 0238 2B321919 		.word	421081643
 2979 023c 95E67373 		.word	1936975509
 2980 0240 A0C06060 		.word	1616953504
 2981 0244 98198181 		.word	-2122245736
 2982 0248 D19E4F4F 		.word	1330618065
 2983 024c 7FA3DCDC 		.word	-589520001
 2984 0250 66442222 		.word	572671078
 2985 0254 7E542A2A 		.word	707417214
 2986 0258 AB3B9090 		.word	-1869595733
 2987 025c 830B8888 		.word	-2004350077
 2988 0260 CA8C4646 		.word	1179028682
 2989 0264 29C7EEEE 		.word	-286341335
 2990 0268 D36BB8B8 		.word	-1195873325
 2991 026c 3C281414 		.word	336865340
 2992 0270 79A7DEDE 		.word	-555833479
 2993 0274 E2BC5E5E 		.word	1583267042
 2994 0278 1D160B0B 		.word	185275933
 2995 027c 76ADDBDB 		.word	-606360202
 2996 0280 3BDBE0E0 		.word	-522134725
 2997 0284 56643232 		.word	842163286
 2998 0288 4E743A3A 		.word	976909390
 2999 028c 1E140A0A 		.word	168432670
 3000 0290 DB924949 		.word	1229558491
 3001 0294 0A0C0606 		.word	101059594
 3002 0298 6C482424 		.word	606357612
 3003 029c E4B85C5C 		.word	1549580516
 3004 02a0 5D9FC2C2 		.word	-1027432611
 3005 02a4 6EBDD3D3 		.word	-741098130
ARM GAS  T:\msys\tmp\ccwessdu.s 			page 83


 3006 02a8 EF43ACAC 		.word	-1397996561
 3007 02ac A6C46262 		.word	1650640038
 3008 02b0 A8399191 		.word	-1852753496
 3009 02b4 A4319595 		.word	-1785384540
 3010 02b8 37D3E4E4 		.word	-454765769
 3011 02bc 8BF27979 		.word	2038035083
 3012 02c0 32D5E7E7 		.word	-404237006
 3013 02c4 438BC8C8 		.word	-926381245
 3014 02c8 596E3737 		.word	926379609
 3015 02cc B7DA6D6D 		.word	1835915959
 3016 02d0 8C018D8D 		.word	-1920138868
 3017 02d4 64B1D5D5 		.word	-707415708
 3018 02d8 D29C4E4E 		.word	1313774802
 3019 02dc E049A9A9 		.word	-1448523296
 3020 02e0 B4D86C6C 		.word	1819072692
 3021 02e4 FAAC5656 		.word	1448520954
 3022 02e8 07F3F4F4 		.word	-185273593
 3023 02ec 25CFEAEA 		.word	-353710299
 3024 02f0 AFCA6565 		.word	1701169839
 3025 02f4 8EF47A7A 		.word	2054878350
 3026 02f8 E947AEAE 		.word	-1364310039
 3027 02fc 18100808 		.word	134746136
 3028 0300 D56FBABA 		.word	-1162186795
 3029 0304 88F07878 		.word	2021191816
 3030 0308 6F4A2525 		.word	623200879
 3031 030c 725C2E2E 		.word	774790258
 3032 0310 24381C1C 		.word	471611428
 3033 0314 F157A6A6 		.word	-1499047951
 3034 0318 C773B4B4 		.word	-1263242297
 3035 031c 5197C6C6 		.word	-960063663
 3036 0320 23CBE8E8 		.word	-387396829
 3037 0324 7CA1DDDD 		.word	-572677764
 3038 0328 9CE87474 		.word	1953818780
 3039 032c 213E1F1F 		.word	522141217
 3040 0330 DD964B4B 		.word	1263245021
 3041 0334 DC61BDBD 		.word	-1111662116
 3042 0338 860D8B8B 		.word	-1953821306
 3043 033c 850F8A8A 		.word	-1970663547
 3044 0340 90E07070 		.word	1886445712
 3045 0344 427C3E3E 		.word	1044282434
 3046 0348 C471B5B5 		.word	-1246400060
 3047 034c AACC6666 		.word	1718013098
 3048 0350 D8904848 		.word	1212715224
 3049 0354 05060303 		.word	50529797
 3050 0358 01F7F6F6 		.word	-151587071
 3051 035c 121C0E0E 		.word	235805714
 3052 0360 A3C26161 		.word	1633796771
 3053 0364 5F6A3535 		.word	892693087
 3054 0368 F9AE5757 		.word	1465364217
 3055 036c D069B9B9 		.word	-1179031088
 3056 0370 91178686 		.word	-2038032495
 3057 0374 5899C1C1 		.word	-1044276904
 3058 0378 273A1D1D 		.word	488454695
 3059 037c B9279E9E 		.word	-1633802311
 3060 0380 38D9E1E1 		.word	-505292488
 3061 0384 13EBF8F8 		.word	-117904621
 3062 0388 B32B9898 		.word	-1734857805
ARM GAS  T:\msys\tmp\ccwessdu.s 			page 84


 3063 038c 33221111 		.word	286335539
 3064 0390 BBD26969 		.word	1768542907
 3065 0394 70A9D9D9 		.word	-640046736
 3066 0398 89078E8E 		.word	-1903294583
 3067 039c A7339494 		.word	-1802226777
 3068 03a0 B62D9B9B 		.word	-1684329034
 3069 03a4 223C1E1E 		.word	505297954
 3070 03a8 92158787 		.word	-2021190254
 3071 03ac 20C9E9E9 		.word	-370554592
 3072 03b0 4987CECE 		.word	-825325751
 3073 03b4 FFAA5555 		.word	1431677695
 3074 03b8 78502828 		.word	673730680
 3075 03bc 7AA5DFDF 		.word	-538991238
 3076 03c0 8F038C8C 		.word	-1936981105
 3077 03c4 F859A1A1 		.word	-1583261192
 3078 03c8 80098989 		.word	-1987507840
 3079 03cc 171A0D0D 		.word	218962455
 3080 03d0 DA65BFBF 		.word	-1077975590
 3081 03d4 31D7E6E6 		.word	-421079247
 3082 03d8 C6844242 		.word	1111655622
 3083 03dc B8D06868 		.word	1751699640
 3084 03e0 C3824141 		.word	1094812355
 3085 03e4 B0299999 		.word	-1718015568
 3086 03e8 775A2D2D 		.word	757946999
 3087 03ec 111E0F0F 		.word	252648977
 3088 03f0 CB7BB0B0 		.word	-1330611253
 3089 03f4 FCA85454 		.word	1414834428
 3090 03f8 D66DBBBB 		.word	-1145344554
 3091 03fc 3A2C1616 		.word	370551866
 3092              		.section	.rodata.FT2,"a"
 3093              		.align	2
 3094              		.set	.LANCHOR9,. + 0
 3097              	FT2:
 3098 0000 63A5C663 		.word	1673962851
 3099 0004 7C84F87C 		.word	2096661628
 3100 0008 7799EE77 		.word	2012125559
 3101 000c 7B8DF67B 		.word	2079755643
 3102 0010 F20DFFF2 		.word	-218165774
 3103 0014 6BBDD66B 		.word	1809235307
 3104 0018 6FB1DE6F 		.word	1876865391
 3105 001c C55491C5 		.word	-980331323
 3106 0020 30506030 		.word	811618352
 3107 0024 01030201 		.word	16909057
 3108 0028 67A9CE67 		.word	1741597031
 3109 002c 2B7D562B 		.word	727088427
 3110 0030 FE19E7FE 		.word	-18408962
 3111 0034 D762B5D7 		.word	-675978537
 3112 0038 ABE64DAB 		.word	-1420958037
 3113 003c 769AEC76 		.word	1995217526
 3114 0040 CA458FCA 		.word	-896580150
 3115 0044 829D1F82 		.word	-2111857278
 3116 0048 C94089C9 		.word	-913751863
 3117 004c 7D87FA7D 		.word	2113570685
 3118 0050 FA15EFFA 		.word	-84994566
 3119 0054 59EBB259 		.word	1504897881
 3120 0058 47C98E47 		.word	1200539975
 3121 005c F00BFBF0 		.word	-251982864
ARM GAS  T:\msys\tmp\ccwessdu.s 			page 85


 3122 0060 ADEC41AD 		.word	-1388188499
 3123 0064 D467B3D4 		.word	-726439980
 3124 0068 A2FD5FA2 		.word	-1570767454
 3125 006c AFEA45AF 		.word	-1354372433
 3126 0070 9CBF239C 		.word	-1675378788
 3127 0074 A4F753A4 		.word	-1538000988
 3128 0078 7296E472 		.word	1927583346
 3129 007c C05B9BC0 		.word	-1063560256
 3130 0080 B7C275B7 		.word	-1217019209
 3131 0084 FD1CE1FD 		.word	-35578627
 3132 0088 93AE3D93 		.word	-1824674157
 3133 008c 266A4C26 		.word	642542118
 3134 0090 365A6C36 		.word	913070646
 3135 0094 3F417E3F 		.word	1065238847
 3136 0098 F702F5F7 		.word	-134937865
 3137 009c CC4F83CC 		.word	-863809588
 3138 00a0 345C6834 		.word	879254580
 3139 00a4 A5F451A5 		.word	-1521355611
 3140 00a8 E534D1E5 		.word	-439274267
 3141 00ac F108F9F1 		.word	-235337487
 3142 00b0 7193E271 		.word	1910674289
 3143 00b4 D873ABD8 		.word	-659852328
 3144 00b8 31536231 		.word	828527409
 3145 00bc 153F2A15 		.word	355090197
 3146 00c0 040C0804 		.word	67636228
 3147 00c4 C75295C7 		.word	-946515257
 3148 00c8 23654623 		.word	591815971
 3149 00cc C35E9DC3 		.word	-1013096765
 3150 00d0 18283018 		.word	405809176
 3151 00d4 96A13796 		.word	-1774739050
 3152 00d8 050F0A05 		.word	84545285
 3153 00dc 9AB52F9A 		.word	-1708149350
 3154 00e0 07090E07 		.word	118360327
 3155 00e4 12362412 		.word	304363026
 3156 00e8 809B1B80 		.word	-2145674368
 3157 00ec E23DDFE2 		.word	-488686110
 3158 00f0 EB26CDEB 		.word	-338876693
 3159 00f4 27694E27 		.word	659450151
 3160 00f8 B2CD7FB2 		.word	-1300247118
 3161 00fc 759FEA75 		.word	1978310517
 3162 0100 091B1209 		.word	152181513
 3163 0104 839E1D83 		.word	-2095210877
 3164 0108 2C74582C 		.word	743994412
 3165 010c 1A2E341A 		.word	439627290
 3166 0110 1B2D361B 		.word	456535323
 3167 0114 6EB2DC6E 		.word	1859957358
 3168 0118 5AEEB45A 		.word	1521806938
 3169 011c A0FB5BA0 		.word	-1604584544
 3170 0120 52F6A452 		.word	1386542674
 3171 0124 3B4D763B 		.word	997608763
 3172 0128 D661B7D6 		.word	-692624938
 3173 012c B3CE7DB3 		.word	-1283600717
 3174 0130 297B5229 		.word	693271337
 3175 0134 E33EDDE3 		.word	-472039709
 3176 0138 2F715E2F 		.word	794718511
 3177 013c 84971384 		.word	-2079090812
 3178 0140 53F5A653 		.word	1403450707
ARM GAS  T:\msys\tmp\ccwessdu.s 			page 86


 3179 0144 D168B9D1 		.word	-776378159
 3180 0148 00000000 		.word	0
 3181 014c ED2CC1ED 		.word	-306107155
 3182 0150 20604020 		.word	541089824
 3183 0154 FC1FE3FC 		.word	-52224004
 3184 0158 B1C879B1 		.word	-1317418831
 3185 015c 5BEDB65B 		.word	1538714971
 3186 0160 6ABED46A 		.word	1792327274
 3187 0164 CB468DCB 		.word	-879933749
 3188 0168 BED967BE 		.word	-1100490306
 3189 016c 394B7239 		.word	963791673
 3190 0170 4ADE944A 		.word	1251270218
 3191 0174 4CD4984C 		.word	1285084236
 3192 0178 58E8B058 		.word	1487988824
 3193 017c CF4A85CF 		.word	-813348145
 3194 0180 D06BBBD0 		.word	-793023536
 3195 0184 EF2AC5EF 		.word	-272291089
 3196 0188 AAE54FAA 		.word	-1437604438
 3197 018c FB16EDFB 		.word	-68348165
 3198 0190 43C58643 		.word	1132905795
 3199 0194 4DD79A4D 		.word	1301993293
 3200 0198 33556633 		.word	862344499
 3201 019c 85941185 		.word	-2062445435
 3202 01a0 45CF8A45 		.word	1166724933
 3203 01a4 F910E9F9 		.word	-102166279
 3204 01a8 02060402 		.word	33818114
 3205 01ac 7F81FE7F 		.word	2147385727
 3206 01b0 50F0A050 		.word	1352724560
 3207 01b4 3C44783C 		.word	1014514748
 3208 01b8 9FBA259F 		.word	-1624917345
 3209 01bc A8E34BA8 		.word	-1471421528
 3210 01c0 51F3A251 		.word	1369633617
 3211 01c4 A3FE5DA3 		.word	-1554121053
 3212 01c8 40C08040 		.word	1082179648
 3213 01cc 8F8A058F 		.word	-1895462257
 3214 01d0 92AD3F92 		.word	-1841320558
 3215 01d4 9DBC219D 		.word	-1658733411
 3216 01d8 38487038 		.word	946882616
 3217 01dc F504F1F5 		.word	-168753931
 3218 01e0 BCDF63BC 		.word	-1134305348
 3219 01e4 B6C177B6 		.word	-1233665610
 3220 01e8 DA75AFDA 		.word	-626035238
 3221 01ec 21634221 		.word	557998881
 3222 01f0 10302010 		.word	270544912
 3223 01f4 FF1AE5FF 		.word	-1762561
 3224 01f8 F30EFDF3 		.word	-201519373
 3225 01fc D26DBFD2 		.word	-759206446
 3226 0200 CD4C81CD 		.word	-847164211
 3227 0204 0C14180C 		.word	202904588
 3228 0208 13352613 		.word	321271059
 3229 020c EC2FC3EC 		.word	-322752532
 3230 0210 5FE1BE5F 		.word	1606345055
 3231 0214 97A23597 		.word	-1758092649
 3232 0218 44CC8844 		.word	1149815876
 3233 021c 17392E17 		.word	388905239
 3234 0220 C45793C4 		.word	-996976700
 3235 0224 A7F255A7 		.word	-1487539545
ARM GAS  T:\msys\tmp\ccwessdu.s 			page 87


 3236 0228 7E82FC7E 		.word	2130477694
 3237 022c 3D477A3D 		.word	1031423805
 3238 0230 64ACC864 		.word	1690872932
 3239 0234 5DE7BA5D 		.word	1572530013
 3240 0238 192B3219 		.word	422718233
 3241 023c 7395E673 		.word	1944491379
 3242 0240 60A0C060 		.word	1623236704
 3243 0244 81981981 		.word	-2129028991
 3244 0248 4FD19E4F 		.word	1335808335
 3245 024c DC7FA3DC 		.word	-593264676
 3246 0250 22664422 		.word	574907938
 3247 0254 2A7E542A 		.word	710180394
 3248 0258 90AB3B90 		.word	-1875137648
 3249 025c 88830B88 		.word	-2012511352
 3250 0260 46CA8C46 		.word	1183631942
 3251 0264 EE29C7EE 		.word	-288937490
 3252 0268 B8D36BB8 		.word	-1200893000
 3253 026c 143C2814 		.word	338181140
 3254 0270 DE79A7DE 		.word	-559449634
 3255 0274 5EE2BC5E 		.word	1589437022
 3256 0278 0B1D160B 		.word	185998603
 3257 027c DB76ADDB 		.word	-609388837
 3258 0280 E03BDBE0 		.word	-522503200
 3259 0284 32566432 		.word	845436466
 3260 0288 3A4E743A 		.word	980700730
 3261 028c 0A1E140A 		.word	169090570
 3262 0290 49DB9249 		.word	1234361161
 3263 0294 060A0C06 		.word	101452294
 3264 0298 246C4824 		.word	608726052
 3265 029c 5CE4B85C 		.word	1555620956
 3266 02a0 C25D9FC2 		.word	-1029743166
 3267 02a4 D36EBDD3 		.word	-742560045
 3268 02a8 ACEF43AC 		.word	-1404833876
 3269 02ac 62A6C462 		.word	1657054818
 3270 02b0 91A83991 		.word	-1858492271
 3271 02b4 95A43195 		.word	-1791908715
 3272 02b8 E437D3E4 		.word	-455919644
 3273 02bc 798BF279 		.word	2045938553
 3274 02c0 E732D5E7 		.word	-405458201
 3275 02c4 C8438BC8 		.word	-930397240
 3276 02c8 37596E37 		.word	929978679
 3277 02cc 6DB7DA6D 		.word	1843050349
 3278 02d0 8D8C018D 		.word	-1929278323
 3279 02d4 D564B1D5 		.word	-709794603
 3280 02d8 4ED29C4E 		.word	1318900302
 3281 02dc A9E049A9 		.word	-1454776151
 3282 02e0 6CB4D86C 		.word	1826141292
 3283 02e4 56FAAC56 		.word	1454176854
 3284 02e8 F407F3F4 		.word	-185399308
 3285 02ec EA25CFEA 		.word	-355523094
 3286 02f0 65AFCA65 		.word	1707781989
 3287 02f4 7A8EF47A 		.word	2062847610
 3288 02f8 AEE947AE 		.word	-1371018834
 3289 02fc 08181008 		.word	135272456
 3290 0300 BAD56FBA 		.word	-1167075910
 3291 0304 7888F078 		.word	2029029496
 3292 0308 256F4A25 		.word	625635109
ARM GAS  T:\msys\tmp\ccwessdu.s 			page 88


 3293 030c 2E725C2E 		.word	777810478
 3294 0310 1C24381C 		.word	473441308
 3295 0314 A6F157A6 		.word	-1504185946
 3296 0318 B4C773B4 		.word	-1267480652
 3297 031c C65197C6 		.word	-963161658
 3298 0320 E823CBE8 		.word	-389340184
 3299 0324 DD7CA1DD 		.word	-576619299
 3300 0328 749CE874 		.word	1961401460
 3301 032c 1F213E1F 		.word	524165407
 3302 0330 4BDD964B 		.word	1268178251
 3303 0334 BDDC61BD 		.word	-1117659971
 3304 0338 8B860D8B 		.word	-1962047861
 3305 033c 8A850F8A 		.word	-1978694262
 3306 0340 7090E070 		.word	1893765232
 3307 0344 3E427C3E 		.word	1048330814
 3308 0348 B5C471B5 		.word	-1250835275
 3309 034c 66AACC66 		.word	1724688998
 3310 0350 48D89048 		.word	1217452104
 3311 0354 03050603 		.word	50726147
 3312 0358 F601F7F6 		.word	-151584266
 3313 035c 0E121C0E 		.word	236720654
 3314 0360 61A3C261 		.word	1640145761
 3315 0364 355F6A35 		.word	896163637
 3316 0368 57F9AE57 		.word	1471084887
 3317 036c B9D069B9 		.word	-1184247623
 3318 0370 86911786 		.word	-2045275770
 3319 0374 C15899C1 		.word	-1046914879
 3320 0378 1D273A1D 		.word	490350365
 3321 037c 9EB9279E 		.word	-1641563746
 3322 0380 E138D9E1 		.word	-505857823
 3323 0384 F813EBF8 		.word	-118811656
 3324 0388 98B32B98 		.word	-1741966440
 3325 038c 11332211 		.word	287453969
 3326 0390 69BBD269 		.word	1775418217
 3327 0394 D970A9D9 		.word	-643206951
 3328 0398 8E89078E 		.word	-1912108658
 3329 039c 94A73394 		.word	-1808554092
 3330 03a0 9BB62D9B 		.word	-1691502949
 3331 03a4 1E223C1E 		.word	507257374
 3332 03a8 87921587 		.word	-2028629369
 3333 03ac E920C9E9 		.word	-372694807
 3334 03b0 CE4987CE 		.word	-829994546
 3335 03b4 55FFAA55 		.word	1437269845
 3336 03b8 28785028 		.word	676362280
 3337 03bc DF7AA5DF 		.word	-542803233
 3338 03c0 8C8F038C 		.word	-1945923700
 3339 03c4 A1F859A1 		.word	-1587939167
 3340 03c8 89800989 		.word	-1995865975
 3341 03cc 0D171A0D 		.word	219813645
 3342 03d0 BFDA65BF 		.word	-1083843905
 3343 03d4 E631D7E6 		.word	-422104602
 3344 03d8 42C68442 		.word	1115997762
 3345 03dc 68B8D068 		.word	1758509160
 3346 03e0 41C38241 		.word	1099088705
 3347 03e4 99B02999 		.word	-1725321063
 3348 03e8 2D775A2D 		.word	760903469
 3349 03ec 0F111E0F 		.word	253628687
ARM GAS  T:\msys\tmp\ccwessdu.s 			page 89


 3350 03f0 B0CB7BB0 		.word	-1334064208
 3351 03f4 54FCA854 		.word	1420360788
 3352 03f8 BBD66DBB 		.word	-1150429509
 3353 03fc 163A2C16 		.word	371997206
 3354              		.section	.rodata.FT3,"a"
 3355              		.align	2
 3356              		.set	.LANCHOR7,. + 0
 3359              	FT3:
 3360 0000 6363A5C6 		.word	-962239645
 3361 0004 7C7C84F8 		.word	-125535108
 3362 0008 777799EE 		.word	-291932297
 3363 000c 7B7B8DF6 		.word	-158499973
 3364 0010 F2F20DFF 		.word	-15863054
 3365 0014 6B6BBDD6 		.word	-692229269
 3366 0018 6F6FB1DE 		.word	-558796945
 3367 001c C5C55491 		.word	-1856715323
 3368 0020 30305060 		.word	1615867952
 3369 0024 01010302 		.word	33751297
 3370 0028 6767A9CE 		.word	-827758745
 3371 002c 2B2B7D56 		.word	1451043627
 3372 0030 FEFE19E7 		.word	-417726722
 3373 0034 D7D762B5 		.word	-1251813417
 3374 0038 ABABE64D 		.word	1306962859
 3375 003c 76769AEC 		.word	-325421450
 3376 0040 CACA458F 		.word	-1891251510
 3377 0044 82829D1F 		.word	530416258
 3378 0048 C9C94089 		.word	-1992242743
 3379 004c 7D7D87FA 		.word	-91783811
 3380 0050 FAFA15EF 		.word	-283772166
 3381 0054 5959EBB2 		.word	-1293199015
 3382 0058 4747C98E 		.word	-1899411641
 3383 005c F0F00BFB 		.word	-83103504
 3384 0060 ADADEC41 		.word	1106029997
 3385 0064 D4D467B3 		.word	-1285040940
 3386 0068 A2A2FD5F 		.word	1610457762
 3387 006c AFAFEA45 		.word	1173008303
 3388 0070 9C9CBF23 		.word	599760028
 3389 0074 A4A4F753 		.word	1408738468
 3390 0078 727296E4 		.word	-459902350
 3391 007c C0C05B9B 		.word	-1688485696
 3392 0080 B7B7C275 		.word	1975695287
 3393 0084 FDFD1CE1 		.word	-518193667
 3394 0088 9393AE3D 		.word	1034851219
 3395 008c 26266A4C 		.word	1282024998
 3396 0090 36365A6C 		.word	1817851446
 3397 0094 3F3F417E 		.word	2118205247
 3398 0098 F7F702F5 		.word	-184354825
 3399 009c CCCC4F83 		.word	-2091922228
 3400 00a0 34345C68 		.word	1750873140
 3401 00a4 A5A5F451 		.word	1374987685
 3402 00a8 E5E534D1 		.word	-785062427
 3403 00ac F1F108F9 		.word	-116854287
 3404 00b0 717193E2 		.word	-493653647
 3405 00b4 D8D873AB 		.word	-1418471208
 3406 00b8 31315362 		.word	1649619249
 3407 00bc 15153F2A 		.word	708777237
 3408 00c0 04040C08 		.word	135005188
ARM GAS  T:\msys\tmp\ccwessdu.s 			page 90


 3409 00c4 C7C75295 		.word	-1789737017
 3410 00c8 23236546 		.word	1181033251
 3411 00cc C3C35E9D 		.word	-1654733885
 3412 00d0 18182830 		.word	807933976
 3413 00d4 9696A137 		.word	933336726
 3414 00d8 05050F0A 		.word	168756485
 3415 00dc 9A9AB52F 		.word	800430746
 3416 00e0 0707090E 		.word	235472647
 3417 00e4 12123624 		.word	607523346
 3418 00e8 80809B1B 		.word	463175808
 3419 00ec E2E23DDF 		.word	-549592350
 3420 00f0 EBEB26CD 		.word	-853087253
 3421 00f4 2727694E 		.word	1315514151
 3422 00f8 B2B2CD7F 		.word	2144187058
 3423 00fc 75759FEA 		.word	-358648459
 3424 0100 09091B12 		.word	303761673
 3425 0104 83839E1D 		.word	496927619
 3426 0108 2C2C7458 		.word	1484008492
 3427 010c 1A1A2E34 		.word	875436570
 3428 0110 1B1B2D36 		.word	908925723
 3429 0114 6E6EB2DC 		.word	-592286098
 3430 0118 5A5AEEB4 		.word	-1259447718
 3431 011c A0A0FB5B 		.word	1543217312
 3432 0120 5252F6A4 		.word	-1527360942
 3433 0124 3B3B4D76 		.word	1984772923
 3434 0128 D6D661B7 		.word	-1218324778
 3435 012c B3B3CE7D 		.word	2110698419
 3436 0130 29297B52 		.word	1383803177
 3437 0134 E3E33EDD 		.word	-583080989
 3438 0138 2F2F715E 		.word	1584475951
 3439 013c 84849713 		.word	328696964
 3440 0140 5353F5A6 		.word	-1493871789
 3441 0144 D1D168B9 		.word	-1184312879
 3442 0148 00000000 		.word	0
 3443 014c EDED2CC1 		.word	-1054020115
 3444 0150 20206040 		.word	1080041504
 3445 0154 FCFC1FE3 		.word	-484442884
 3446 0158 B1B1C879 		.word	2043195825
 3447 015c 5B5BEDB6 		.word	-1225958565
 3448 0160 6A6ABED4 		.word	-725718422
 3449 0164 CBCB468D 		.word	-1924740149
 3450 0168 BEBED967 		.word	1742323390
 3451 016c 39394B72 		.word	1917532473
 3452 0170 4A4ADE94 		.word	-1797371318
 3453 0174 4C4CD498 		.word	-1730917300
 3454 0178 5858E8B0 		.word	-1326950312
 3455 017c CFCF4A85 		.word	-2058694705
 3456 0180 D0D06BBB 		.word	-1150562096
 3457 0184 EFEF2AC5 		.word	-987041809
 3458 0188 AAAAE54F 		.word	1340451498
 3459 018c FBFB16ED 		.word	-317260805
 3460 0190 4343C586 		.word	-2033892541
 3461 0194 4D4DD79A 		.word	-1697166003
 3462 0198 33335566 		.word	1716859699
 3463 019c 85859411 		.word	294946181
 3464 01a0 4545CF8A 		.word	-1966127803
 3465 01a4 F9F910E9 		.word	-384763399
ARM GAS  T:\msys\tmp\ccwessdu.s 			page 91


 3466 01a8 02020604 		.word	67502594
 3467 01ac 7F7F81FE 		.word	-25067649
 3468 01b0 5050F0A0 		.word	-1594863536
 3469 01b4 3C3C4478 		.word	2017737788
 3470 01b8 9F9FBA25 		.word	632987551
 3471 01bc A8A8E34B 		.word	1273211048
 3472 01c0 5151F3A2 		.word	-1561112239
 3473 01c4 A3A3FE5D 		.word	1576969123
 3474 01c8 4040C080 		.word	-2134884288
 3475 01cc 8F8F8A05 		.word	92966799
 3476 01d0 9292AD3F 		.word	1068339858
 3477 01d4 9D9DBC21 		.word	566009245
 3478 01d8 38384870 		.word	1883781176
 3479 01dc F5F504F1 		.word	-251333131
 3480 01e0 BCBCDF63 		.word	1675607228
 3481 01e4 B6B6C177 		.word	2009183926
 3482 01e8 DADA75AF 		.word	-1351230758
 3483 01ec 21216342 		.word	1113792801
 3484 01f0 10103020 		.word	540020752
 3485 01f4 FFFF1AE5 		.word	-451215361
 3486 01f8 F3F30EFD 		.word	-49351693
 3487 01fc D2D26DBF 		.word	-1083321646
 3488 0200 CDCD4C81 		.word	-2125673011
 3489 0204 0C0C1418 		.word	403966988
 3490 0208 13133526 		.word	641012499
 3491 020c ECEC2FC3 		.word	-1020269332
 3492 0210 5F5FE1BE 		.word	-1092526241
 3493 0214 9797A235 		.word	899848087
 3494 0218 4444CC88 		.word	-1999879100
 3495 021c 1717392E 		.word	775493399
 3496 0220 C4C45793 		.word	-1822964540
 3497 0224 A7A7F255 		.word	1441965991
 3498 0228 7E7E82FC 		.word	-58556802
 3499 022c 3D3D477A 		.word	2051489085
 3500 0230 6464ACC8 		.word	-928226204
 3501 0234 5D5DE7BA 		.word	-1159242403
 3502 0238 19192B32 		.word	841685273
 3503 023c 737395E6 		.word	-426413197
 3504 0240 6060A0C0 		.word	-1063231392
 3505 0244 81819819 		.word	429425025
 3506 0248 4F4FD19E 		.word	-1630449841
 3507 024c DCDC7FA3 		.word	-1551901476
 3508 0250 22226644 		.word	1147544098
 3509 0254 2A2A7E54 		.word	1417554474
 3510 0258 9090AB3B 		.word	1001099408
 3511 025c 8888830B 		.word	193169544
 3512 0260 4646CA8C 		.word	-1932900794
 3513 0264 EEEE29C7 		.word	-953553170
 3514 0268 B8B8D36B 		.word	1809037496
 3515 026c 14143C28 		.word	675025940
 3516 0270 DEDE79A7 		.word	-1485185314
 3517 0274 5E5EE2BC 		.word	-1126015394
 3518 0278 0B0B1D16 		.word	371002123
 3519 027c DBDB76AD 		.word	-1384719397
 3520 0280 E0E03BDB 		.word	-616832800
 3521 0284 32325664 		.word	1683370546
 3522 0288 3A3A4E74 		.word	1951283770
ARM GAS  T:\msys\tmp\ccwessdu.s 			page 92


 3523 028c 0A0A1E14 		.word	337512970
 3524 0290 4949DB92 		.word	-1831122615
 3525 0294 06060A0C 		.word	201983494
 3526 0298 24246C48 		.word	1215046692
 3527 029c 5C5CE4B8 		.word	-1192993700
 3528 02a0 C2C25D9F 		.word	-1621245246
 3529 02a4 D3D36EBD 		.word	-1116810285
 3530 02a8 ACACEF43 		.word	1139780780
 3531 02ac 6262A6C4 		.word	-995728798
 3532 02b0 9191A839 		.word	967348625
 3533 02b4 9595A431 		.word	832869781
 3534 02b8 E4E437D3 		.word	-751311644
 3535 02bc 79798BF2 		.word	-225740423
 3536 02c0 E7E732D5 		.word	-718084121
 3537 02c4 C8C8438B 		.word	-1958491960
 3538 02c8 3737596E 		.word	1851340599
 3539 02cc 6D6DB7DA 		.word	-625513107
 3540 02d0 8D8D8C01 		.word	25988493
 3541 02d4 D5D564B1 		.word	-1318791723
 3542 02d8 4E4ED29C 		.word	-1663938994
 3543 02dc A9A9E049 		.word	1239460265
 3544 02e0 6C6CB4D8 		.word	-659264404
 3545 02e4 5656FAAC 		.word	-1392880042
 3546 02e8 F4F407F3 		.word	-217582348
 3547 02ec EAEA25CF 		.word	-819598614
 3548 02f0 6565AFCA 		.word	-894474907
 3549 02f4 7A7A8EF4 		.word	-191989126
 3550 02f8 AEAEE947 		.word	1206496942
 3551 02fc 08081810 		.word	270010376
 3552 0300 BABAD56F 		.word	1876277946
 3553 0304 787888F0 		.word	-259491720
 3554 0308 25256F4A 		.word	1248797989
 3555 030c 2E2E725C 		.word	1550986798
 3556 0310 1C1C2438 		.word	941890588
 3557 0314 A6A6F157 		.word	1475454630
 3558 0318 B4B4C773 		.word	1942467764
 3559 031c C6C65197 		.word	-1756248378
 3560 0320 E8E823CB 		.word	-886839064
 3561 0324 DDDD7CA1 		.word	-1585652259
 3562 0328 74749CE8 		.word	-392399756
 3563 032c 1F1F213E 		.word	1042358047
 3564 0330 4B4BDD96 		.word	-1763882165
 3565 0334 BDBDDC61 		.word	1641856445
 3566 0338 8B8B860D 		.word	226921355
 3567 033c 8A8A850F 		.word	260409994
 3568 0340 707090E0 		.word	-527404944
 3569 0344 3E3E427C 		.word	2084716094
 3570 0348 B5B5C471 		.word	1908716981
 3571 034c 6666AACC 		.word	-861247898
 3572 0350 4848D890 		.word	-1864873912
 3573 0354 03030506 		.word	100991747
 3574 0358 F6F601F7 		.word	-150866186
 3575 035c 0E0E121C 		.word	470945294
 3576 0360 6161A3C2 		.word	-1029480095
 3577 0364 35355F6A 		.word	1784624437
 3578 0368 5757F9AE 		.word	-1359390889
 3579 036c B9B9D069 		.word	1775286713
ARM GAS  T:\msys\tmp\ccwessdu.s 			page 93


 3580 0370 86869117 		.word	395413126
 3581 0374 C1C15899 		.word	-1722236479
 3582 0378 1D1D273A 		.word	975641885
 3583 037c 9E9EB927 		.word	666476190
 3584 0380 E1E138D9 		.word	-650583583
 3585 0384 F8F813EB 		.word	-351012616
 3586 0388 9898B32B 		.word	733190296
 3587 038c 11113322 		.word	573772049
 3588 0390 6969BBD2 		.word	-759469719
 3589 0394 D9D970A9 		.word	-1452221991
 3590 0398 8E8E8907 		.word	126455438
 3591 039c 9494A733 		.word	866620564
 3592 03a0 9B9BB62D 		.word	766942107
 3593 03a4 1E1E223C 		.word	1008868894
 3594 03a8 87879215 		.word	361924487
 3595 03ac E9E920C9 		.word	-920589847
 3596 03b0 CECE4987 		.word	-2025206066
 3597 03b4 5555FFAA 		.word	-1426107051
 3598 03b8 28287850 		.word	1350051880
 3599 03bc DFDF7AA5 		.word	-1518673953
 3600 03c0 8C8C8F03 		.word	59739276
 3601 03c4 A1A1F859 		.word	1509466529
 3602 03c8 89898009 		.word	159418761
 3603 03cc 0D0D171A 		.word	437718285
 3604 03d0 BFBFDA65 		.word	1708834751
 3605 03d4 E6E631D7 		.word	-684595482
 3606 03d8 4242C684 		.word	-2067381694
 3607 03dc 6868B8D0 		.word	-793221016
 3608 03e0 4141C382 		.word	-2101132991
 3609 03e4 9999B029 		.word	699439513
 3610 03e8 2D2D775A 		.word	1517759789
 3611 03ec 0F0F111E 		.word	504434447
 3612 03f0 B0B0CB7B 		.word	2076946608
 3613 03f4 5454FCA8 		.word	-1459858348
 3614 03f8 BBBBD66D 		.word	1842789307
 3615 03fc 16163A2C 		.word	742004246
 3616              		.section	.rodata.RCON,"a"
 3617              		.align	2
 3618              		.set	.LANCHOR0,. + 0
 3621              	RCON:
 3622 0000 01000000 		.word	1
 3623 0004 02000000 		.word	2
 3624 0008 04000000 		.word	4
 3625 000c 08000000 		.word	8
 3626 0010 10000000 		.word	16
 3627 0014 20000000 		.word	32
 3628 0018 40000000 		.word	64
 3629 001c 80000000 		.word	128
 3630 0020 1B000000 		.word	27
 3631 0024 36000000 		.word	54
 3632              		.section	.rodata.RSb,"a"
 3633              		.align	2
 3634              		.set	.LANCHOR10,. + 0
 3637              	RSb:
 3638 0000 52096AD5 		.ascii	"R\011j\32506\2458\277@\243\236\201\363\327\373|\343"
 3638      3036A538 
 3638      BF40A39E 
ARM GAS  T:\msys\tmp\ccwessdu.s 			page 94


 3638      81F3D7FB 
 3638      7CE3
 3639 0012 39829B2F 		.ascii	"9\202\233/\377\2074\216CD\304\336\351\313T{\2242\246"
 3639      FF87348E 
 3639      4344C4DE 
 3639      E9CB547B 
 3639      9432A6
 3640 0025 C2233DEE 		.ascii	"\302#=\356L\225\013B\372\303N\010.\241f(\331$\262v["
 3640      4C950B42 
 3640      FAC34E08 
 3640      2EA16628 
 3640      D924B276 
 3641 003a A2496D8B 		.ascii	"\242Im\213\321%r\370\366d\206h\230\026\324\244\\\314"
 3641      D12572F8 
 3641      F6648668 
 3641      9816D4A4 
 3641      5CCC
 3642 004c 5D65B692 		.ascii	"]e\266\222lpHP\375\355\271\332^\025FW\247\215\235\204"
 3642      6C704850 
 3642      FDEDB9DA 
 3642      5E154657 
 3642      A78D9D84 
 3643 0060 90D8AB00 		.ascii	"\220\330\253\000\214\274\323\012\367\344X\005\270\263"
 3643      8CBCD30A 
 3643      F7E45805 
 3643      B8B3
 3644 006e 4506D02C 		.ascii	"E\006\320,\036\217\312?\017\002\301\257\275\003\001"
 3644      1E8FCA3F 
 3644      0F02C1AF 
 3644      BD0301
 3645 007d 138A6B3A 		.ascii	"\023\212k:\221\021AOg\334\352\227\362\317\316\360\264"
 3645      9111414F 
 3645      67DCEA97 
 3645      F2CFCEF0 
 3645      B4
 3646 008e E67396AC 		.ascii	"\346s\226\254t\"\347\2555\205\342\3717\350\034u\337"
 3646      7422E7AD 
 3646      3585E2F9 
 3646      37E81C75 
 3646      DF
 3647 009f 6E47F11A 		.ascii	"nG\361\032q\035)\305\211o\267b\016\252\030\276\033\374"
 3647      711D29C5 
 3647      896FB762 
 3647      0EAA18BE 
 3647      1BFC
 3648 00b1 563E4BC6 		.ascii	"V>K\306\322y \232\333\300\376x\315Z\364\037\335\250"
 3648      D279209A 
 3648      DBC0FE78 
 3648      CD5AF41F 
 3648      DDA8
 3649 00c3 338807C7 		.ascii	"3\210\007\3071\261\022\020Y'\200\354_`Q\177\251\031"
 3649      31B11210 
 3649      592780EC 
 3649      5F60517F 
 3649      A919
 3650 00d5 B54A0D2D 		.ascii	"\265J\015-\345z\237\223\311\234\357\240\340;M\256*\365"
 3650      E57A9F93 
ARM GAS  T:\msys\tmp\ccwessdu.s 			page 95


 3650      C99CEFA0 
 3650      E03B4DAE 
 3650      2AF5
 3651 00e7 B0C8EBBB 		.ascii	"\260\310\353\273<\203S\231a\027+\004~\272w\326&\341"
 3651      3C835399 
 3651      61172B04 
 3651      7EBA77D6 
 3651      26E1
 3652 00f9 69146355 		.ascii	"i\024cU!\014}"
 3652      210C7D
 3653              		.section	.rodata.RT0,"a"
 3654              		.align	2
 3655              		.set	.LANCHOR2,. + 0
 3658              	RT0:
 3659 0000 51F4A750 		.word	1353184337
 3660 0004 7E416553 		.word	1399144830
 3661 0008 1A17A4C3 		.word	-1012656358
 3662 000c 3A275E96 		.word	-1772214470
 3663 0010 3BAB6BCB 		.word	-882136261
 3664 0014 1F9D45F1 		.word	-247096033
 3665 0018 ACFA58AB 		.word	-1420232020
 3666 001c 4BE30393 		.word	-1828461749
 3667 0020 2030FA55 		.word	1442459680
 3668 0024 AD766DF6 		.word	-160598355
 3669 0028 88CC7691 		.word	-1854485368
 3670 002c F5024C25 		.word	625738485
 3671 0030 4FE5D7FC 		.word	-52959921
 3672 0034 C52ACBD7 		.word	-674551099
 3673 0038 26354480 		.word	-2143013594
 3674 003c B562A38F 		.word	-1885117771
 3675 0040 DEB15A49 		.word	1230680542
 3676 0044 25BA1B67 		.word	1729870373
 3677 0048 45EA0E98 		.word	-1743852987
 3678 004c 5DFEC0E1 		.word	-507445667
 3679 0050 C32F7502 		.word	41234371
 3680 0054 814CF012 		.word	317738113
 3681 0058 8D4697A3 		.word	-1550367091
 3682 005c 6BD3F9C6 		.word	-956705941
 3683 0060 038F5FE7 		.word	-413167869
 3684 0064 15929C95 		.word	-1784901099
 3685 0068 BF6D7AEB 		.word	-344298049
 3686 006c 955259DA 		.word	-631680363
 3687 0070 D4BE832D 		.word	763608788
 3688 0074 587421D3 		.word	-752782248
 3689 0078 49E06929 		.word	694804553
 3690 007c 8EC9C844 		.word	1154009486
 3691 0080 75C2896A 		.word	1787413109
 3692 0084 F48E7978 		.word	2021232372
 3693 0088 99583E6B 		.word	1799248025
 3694 008c 27B971DD 		.word	-579749593
 3695 0090 BEE14FB6 		.word	-1236278850
 3696 0094 F088AD17 		.word	397248752
 3697 0098 C920AC66 		.word	1722556617
 3698 009c 7DCE3AB4 		.word	-1271214467
 3699 00a0 63DF4A18 		.word	407560035
 3700 00a4 E51A3182 		.word	-2110711067
 3701 00a8 97513360 		.word	1613975959
ARM GAS  T:\msys\tmp\ccwessdu.s 			page 96


 3702 00ac 62537F45 		.word	1165972322
 3703 00b0 B16477E0 		.word	-529046351
 3704 00b4 BB6BAE84 		.word	-2068943941
 3705 00b8 FE81A01C 		.word	480281086
 3706 00bc F9082B94 		.word	-1809118983
 3707 00c0 70486858 		.word	1483229296
 3708 00c4 8F45FD19 		.word	436028815
 3709 00c8 94DE6C87 		.word	-2022908268
 3710 00cc 527BF8B7 		.word	-1208452270
 3711 00d0 AB73D323 		.word	601060267
 3712 00d4 724B02E2 		.word	-503166094
 3713 00d8 E31F8F57 		.word	1468997603
 3714 00dc 6655AB2A 		.word	715871590
 3715 00e0 B2EB2807 		.word	120122290
 3716 00e4 2FB5C203 		.word	63092015
 3717 00e8 86C57B9A 		.word	-1703164538
 3718 00ec D33708A5 		.word	-1526188077
 3719 00f0 302887F2 		.word	-226023376
 3720 00f4 23BFA5B2 		.word	-1297760477
 3721 00f8 02036ABA 		.word	-1167457534
 3722 00fc ED16825C 		.word	1552029421
 3723 0100 8ACF1C2B 		.word	723308426
 3724 0104 A779B492 		.word	-1833666137
 3725 0108 F307F2F0 		.word	-252573709
 3726 010c 4E69E2A1 		.word	-1578997426
 3727 0110 65DAF4CD 		.word	-839591323
 3728 0114 0605BED5 		.word	-708967162
 3729 0118 D134621F 		.word	526529745
 3730 011c C4A6FE8A 		.word	-1963022652
 3731 0120 342E539D 		.word	-1655493068
 3732 0124 A2F355A0 		.word	-1604979806
 3733 0128 058AE132 		.word	853641733
 3734 012c A4F6EB75 		.word	1978398372
 3735 0130 0B83EC39 		.word	971801355
 3736 0134 4060EFAA 		.word	-1427152832
 3737 0138 5E719F06 		.word	111112542
 3738 013c BD6E1051 		.word	1360031421
 3739 0140 3E218AF9 		.word	-108388034
 3740 0144 96DD063D 		.word	1023860118
 3741 0148 DD3E05AE 		.word	-1375387939
 3742 014c 4DE6BD46 		.word	1186850381
 3743 0150 91548DB5 		.word	-1249028975
 3744 0154 71C45D05 		.word	90031217
 3745 0158 0406D46F 		.word	1876166148
 3746 015c 605015FF 		.word	-15380384
 3747 0160 1998FB24 		.word	620468249
 3748 0164 D6BDE997 		.word	-1746289194
 3749 0168 894043CC 		.word	-868007799
 3750 016c 67D99E77 		.word	2006899047
 3751 0170 B0E842BD 		.word	-1119688528
 3752 0174 07898B88 		.word	-2004121337
 3753 0178 E7195B38 		.word	945494503
 3754 017c 79C8EEDB 		.word	-605108103
 3755 0180 A17C0A47 		.word	1191869601
 3756 0184 7C420FE9 		.word	-384875908
 3757 0188 F8841EC9 		.word	-920746760
 3758 018c 00000000 		.word	0
ARM GAS  T:\msys\tmp\ccwessdu.s 			page 97


 3759 0190 09808683 		.word	-2088337399
 3760 0194 322BED48 		.word	1223502642
 3761 0198 1E1170AC 		.word	-1401941730
 3762 019c 6C5A724E 		.word	1316117100
 3763 01a0 FD0EFFFB 		.word	-67170563
 3764 01a4 0F853856 		.word	1446544655
 3765 01a8 3DAED51E 		.word	517320253
 3766 01ac 362D3927 		.word	658058550
 3767 01b0 0A0FD964 		.word	1691946762
 3768 01b4 685CA621 		.word	564550760
 3769 01b8 9B5B54D1 		.word	-783000677
 3770 01bc 24362E3A 		.word	976107044
 3771 01c0 0C0A67B1 		.word	-1318647284
 3772 01c4 9357E70F 		.word	266819475
 3773 01c8 B4EE96D2 		.word	-761860428
 3774 01cc 1B9B919E 		.word	-1634624741
 3775 01d0 80C0C54F 		.word	1338359936
 3776 01d4 61DC20A2 		.word	-1574904735
 3777 01d8 5A774B69 		.word	1766553434
 3778 01dc 1C121A16 		.word	370807324
 3779 01e0 E293BA0A 		.word	179999714
 3780 01e4 C0A02AE5 		.word	-450191168
 3781 01e8 3C22E043 		.word	1138762300
 3782 01ec 121B171D 		.word	488053522
 3783 01f0 0E090D0B 		.word	185403662
 3784 01f4 F28BC7AD 		.word	-1379431438
 3785 01f8 2DB6A8B9 		.word	-1180125651
 3786 01fc 141EA9C8 		.word	-928440812
 3787 0200 57F11985 		.word	-2061897385
 3788 0204 AF75074C 		.word	1275557295
 3789 0208 EE99DDBB 		.word	-1143105042
 3790 020c A37F60FD 		.word	-44007517
 3791 0210 F701269F 		.word	-1624899081
 3792 0214 5C72F5BC 		.word	-1124765092
 3793 0218 44663BC5 		.word	-985962940
 3794 021c 5BFB7E34 		.word	880737115
 3795 0220 8B432976 		.word	1982415755
 3796 0224 CB23C6DC 		.word	-590994485
 3797 0228 B6EDFC68 		.word	1761406390
 3798 022c B8E4F163 		.word	1676797112
 3799 0230 D731DCCA 		.word	-891538985
 3800 0234 42638510 		.word	277177154
 3801 0238 13972240 		.word	1076008723
 3802 023c 84C61120 		.word	538035844
 3803 0240 854A247D 		.word	2099530373
 3804 0244 D2BB3DF8 		.word	-130171950
 3805 0248 AEF93211 		.word	288553390
 3806 024c C729A16D 		.word	1839278535
 3807 0250 1D9E2F4B 		.word	1261411869
 3808 0254 DCB230F3 		.word	-214912292
 3809 0258 0D8652EC 		.word	-330136051
 3810 025c 77C1E3D0 		.word	-790380169
 3811 0260 2BB3166C 		.word	1813426987
 3812 0264 A970B999 		.word	-1715900247
 3813 0268 119448FA 		.word	-95906799
 3814 026c 47E96422 		.word	577038663
 3815 0270 A8FC8CC4 		.word	-997393240
ARM GAS  T:\msys\tmp\ccwessdu.s 			page 98


 3816 0274 A0F03F1A 		.word	440397984
 3817 0278 567D2CD8 		.word	-668172970
 3818 027c 223390EF 		.word	-275762398
 3819 0280 87494EC7 		.word	-951170681
 3820 0284 D938D1C1 		.word	-1043253031
 3821 0288 8CCAA2FE 		.word	-22885748
 3822 028c 98D40B36 		.word	906744984
 3823 0290 A6F581CF 		.word	-813566554
 3824 0294 A57ADE28 		.word	685669029
 3825 0298 DAB78E26 		.word	646887386
 3826 029c 3FADBFA4 		.word	-1530942145
 3827 02a0 2C3A9DE4 		.word	-459458004
 3828 02a4 5078920D 		.word	227702864
 3829 02a8 6A5FCC9B 		.word	-1681105046
 3830 02ac 547E4662 		.word	1648787028
 3831 02b0 F68D13C2 		.word	-1038905866
 3832 02b4 90D8B8E8 		.word	-390539120
 3833 02b8 2E39F75E 		.word	1593260334
 3834 02bc 82C3AFF5 		.word	-173030526
 3835 02c0 9F5D80BE 		.word	-1098883681
 3836 02c4 69D0937C 		.word	2090061929
 3837 02c8 6FD52DA9 		.word	-1456614033
 3838 02cc CF2512B3 		.word	-1290656305
 3839 02d0 C8AC993B 		.word	999926984
 3840 02d4 10187DA7 		.word	-1484974064
 3841 02d8 E89C636E 		.word	1852021992
 3842 02dc DB3BBB7B 		.word	2075868123
 3843 02e0 CD267809 		.word	158869197
 3844 02e4 6E5918F4 		.word	-199730834
 3845 02e8 EC9AB701 		.word	28809964
 3846 02ec 834F9AA8 		.word	-1466282109
 3847 02f0 E6956E65 		.word	1701746150
 3848 02f4 AAFFE67E 		.word	2129067946
 3849 02f8 21BCCF08 		.word	147831841
 3850 02fc EF15E8E6 		.word	-420997649
 3851 0300 BAE79BD9 		.word	-644094022
 3852 0304 4A6F36CE 		.word	-835293366
 3853 0308 EA9F09D4 		.word	-737566742
 3854 030c 29B07CD6 		.word	-696471511
 3855 0310 31A4B2AF 		.word	-1347247055
 3856 0314 2A3F2331 		.word	824393514
 3857 0318 C6A59430 		.word	815048134
 3858 031c 35A266C0 		.word	-1067015627
 3859 0320 744EBC37 		.word	935087732
 3860 0324 FC82CAA6 		.word	-1496677636
 3861 0328 E090D0B0 		.word	-1328508704
 3862 032c 33A7D815 		.word	366520115
 3863 0330 F104984A 		.word	1251476721
 3864 0334 41ECDAF7 		.word	-136647615
 3865 0338 7FCD500E 		.word	240176511
 3866 033c 1791F62F 		.word	804688151
 3867 0340 764DD68D 		.word	-1915335306
 3868 0344 43EFB04D 		.word	1303441219
 3869 0348 CCAA4D54 		.word	1414376140
 3870 034c E49604DF 		.word	-553347356
 3871 0350 9ED1B5E3 		.word	-474623586
 3872 0354 4C6A881B 		.word	461924940
ARM GAS  T:\msys\tmp\ccwessdu.s 			page 99


 3873 0358 C12C1FB8 		.word	-1205916479
 3874 035c 4665517F 		.word	2136040774
 3875 0360 9D5EEA04 		.word	82468509
 3876 0364 018C355D 		.word	1563790337
 3877 0368 FA877473 		.word	1937016826
 3878 036c FB0B412E 		.word	776014843
 3879 0370 B3671D5A 		.word	1511876531
 3880 0374 92DBD252 		.word	1389550482
 3881 0378 E9105633 		.word	861278441
 3882 037c 6DD64713 		.word	323475053
 3883 0380 9AD7618C 		.word	-1939744870
 3884 0384 37A10C7A 		.word	2047648055
 3885 0388 59F8148E 		.word	-1911228327
 3886 038c EB133C89 		.word	-1992551445
 3887 0390 CEA927EE 		.word	-299390514
 3888 0394 B761C935 		.word	902390199
 3889 0398 E11CE5ED 		.word	-303751967
 3890 039c 7A47B13C 		.word	1018251130
 3891 03a0 9CD2DF59 		.word	1507840668
 3892 03a4 55F2733F 		.word	1064563285
 3893 03a8 1814CE79 		.word	2043548696
 3894 03ac 73C737BF 		.word	-1086863501
 3895 03b0 53F7CDEA 		.word	-355600557
 3896 03b4 5FFDAA5B 		.word	1537932639
 3897 03b8 DF3D6F14 		.word	342834655
 3898 03bc 7844DB86 		.word	-2032450440
 3899 03c0 CAAFF381 		.word	-2114736182
 3900 03c4 B968C43E 		.word	1053059257
 3901 03c8 3824342C 		.word	741614648
 3902 03cc C2A3405F 		.word	1598071746
 3903 03d0 161DC372 		.word	1925389590
 3904 03d4 BCE2250C 		.word	203809468
 3905 03d8 283C498B 		.word	-1958134744
 3906 03dc FF0D9541 		.word	1100287487
 3907 03e0 39A80171 		.word	1895934009
 3908 03e4 080CB3DE 		.word	-558691320
 3909 03e8 D8B4E49C 		.word	-1662733096
 3910 03ec 6456C190 		.word	-1866377628
 3911 03f0 7BCB8461 		.word	1636092795
 3912 03f4 D532B670 		.word	1890988757
 3913 03f8 486C5C74 		.word	1952214088
 3914 03fc D0B85742 		.word	1113045200
 3915              		.section	.rodata.RT1,"a"
 3916              		.align	2
 3917              		.set	.LANCHOR4,. + 0
 3920              	RT1:
 3921 0000 5051F4A7 		.word	-1477160624
 3922 0004 537E4165 		.word	1698790995
 3923 0008 C31A17A4 		.word	-1541989693
 3924 000c 963A275E 		.word	1579629206
 3925 0010 CB3BAB6B 		.word	1806384075
 3926 0014 F11F9D45 		.word	1167925233
 3927 0018 ABACFA58 		.word	1492823211
 3928 001c 934BE303 		.word	65227667
 3929 0020 552030FA 		.word	-97509291
 3930 0024 F6AD766D 		.word	1836494326
 3931 0028 9188CC76 		.word	1993115793
ARM GAS  T:\msys\tmp\ccwessdu.s 			page 100


 3932 002c 25F5024C 		.word	1275262245
 3933 0030 FC4FE5D7 		.word	-672837636
 3934 0034 D7C52ACB 		.word	-886389289
 3935 0038 80263544 		.word	1144333952
 3936 003c 8FB562A3 		.word	-1553812081
 3937 0040 49DEB15A 		.word	1521606217
 3938 0044 6725BA1B 		.word	465184103
 3939 0048 9845EA0E 		.word	250234264
 3940 004c E15DFEC0 		.word	-1057071647
 3941 0050 02C32F75 		.word	1966064386
 3942 0054 12814CF0 		.word	-263421678
 3943 0058 A38D4697 		.word	-1756983901
 3944 005c C66BD3F9 		.word	-103584826
 3945 0060 E7038F5F 		.word	1603208167
 3946 0064 9515929C 		.word	-1668147819
 3947 0068 EBBF6D7A 		.word	2054012907
 3948 006c DA955259 		.word	1498584538
 3949 0070 2DD4BE83 		.word	-2084645843
 3950 0074 D3587421 		.word	561273043
 3951 0078 2949E069 		.word	1776306473
 3952 007c 448EC9C8 		.word	-926314940
 3953 0080 6A75C289 		.word	-1983744662
 3954 0084 78F48E79 		.word	2039411832
 3955 0088 6B99583E 		.word	1045993835
 3956 008c DD27B971 		.word	1907959773
 3957 0090 B6BEE14F 		.word	1340194486
 3958 0094 17F088AD 		.word	-1383534569
 3959 0098 66C920AC 		.word	-1407137434
 3960 009c B47DCE3A 		.word	986611124
 3961 00a0 1863DF4A 		.word	1256153880
 3962 00a4 82E51A31 		.word	823846274
 3963 00a8 60975133 		.word	860985184
 3964 00ac 4562537F 		.word	2136171077
 3965 00b0 E0B16477 		.word	2003087840
 3966 00b4 84BB6BAE 		.word	-1368671356
 3967 00b8 1CFE81A0 		.word	-1602093540
 3968 00bc 94F9082B 		.word	722008468
 3969 00c0 58704868 		.word	1749577816
 3970 00c4 198F45FD 		.word	-45773031
 3971 00c8 8794DE6C 		.word	1826526343
 3972 00cc B7527BF8 		.word	-126135625
 3973 00d0 23AB73D3 		.word	-747394269
 3974 00d4 E2724B02 		.word	38499042
 3975 00d8 57E31F8F 		.word	-1893735593
 3976 00dc 2A6655AB 		.word	-1420466646
 3977 00e0 07B2EB28 		.word	686535175
 3978 00e4 032FB5C2 		.word	-1028313341
 3979 00e8 9A86C57B 		.word	2076542618
 3980 00ec A5D33708 		.word	137876389
 3981 00f0 F2302887 		.word	-2027409166
 3982 00f4 B223BFA5 		.word	-1514200142
 3983 00f8 BA02036A 		.word	1778582202
 3984 00fc 5CED1682 		.word	-2112426660
 3985 0100 2B8ACF1C 		.word	483363371
 3986 0104 92A779B4 		.word	-1267095662
 3987 0108 F0F307F2 		.word	-234359824
 3988 010c A14E69E2 		.word	-496415071
ARM GAS  T:\msys\tmp\ccwessdu.s 			page 101


 3989 0110 CD65DAF4 		.word	-187013683
 3990 0114 D50605BE 		.word	-1106966827
 3991 0118 1FD13462 		.word	1647628575
 3992 011c 8AC4A6FE 		.word	-22625142
 3993 0120 9D342E53 		.word	1395537053
 3994 0124 A0A2F355 		.word	1442030240
 3995 0128 32058AE1 		.word	-511048398
 3996 012c 75A4F6EB 		.word	-336157579
 3997 0130 390B83EC 		.word	-326956231
 3998 0134 AA4060EF 		.word	-278904662
 3999 0138 065E719F 		.word	-1619960314
 4000 013c 51BD6E10 		.word	275692881
 4001 0140 F93E218A 		.word	-1977532679
 4002 0144 3D96DD06 		.word	115185213
 4003 0148 AEDD3E05 		.word	88006062
 4004 014c 464DE6BD 		.word	-1108980410
 4005 0150 B591548D 		.word	-1923837515
 4006 0154 0571C45D 		.word	1573155077
 4007 0158 6F0406D4 		.word	-737803153
 4008 015c FF605015 		.word	357589247
 4009 0160 241998FB 		.word	-73918172
 4010 0164 97D6BDE9 		.word	-373434729
 4011 0168 CC894043 		.word	1128303052
 4012 016c 7767D99E 		.word	-1629919369
 4013 0170 BDB0E842 		.word	1122545853
 4014 0174 8807898B 		.word	-1953953912
 4015 0178 38E7195B 		.word	1528424248
 4016 017c DB79C8EE 		.word	-288851493
 4017 0180 47A17C0A 		.word	175939911
 4018 0184 E97C420F 		.word	256015593
 4019 0188 C9F8841E 		.word	512030921
 4020 018c 00000000 		.word	0
 4021 0190 83098086 		.word	-2038429309
 4022 0194 48322BED 		.word	-315936184
 4023 0198 AC1E1170 		.word	1880170156
 4024 019c 4E6C5A72 		.word	1918528590
 4025 01a0 FBFD0EFF 		.word	-15794693
 4026 01a4 560F8538 		.word	948244310
 4027 01a8 1E3DAED5 		.word	-710001378
 4028 01ac 27362D39 		.word	959264295
 4029 01b0 640A0FD9 		.word	-653325724
 4030 01b4 21685CA6 		.word	-1503893471
 4031 01b8 D19B5B54 		.word	1415289809
 4032 01bc 3A24362E 		.word	775300154
 4033 01c0 B10C0A67 		.word	1728711857
 4034 01c4 0F9357E7 		.word	-413691121
 4035 01c8 D2B4EE96 		.word	-1762741038
 4036 01cc 9E1B9B91 		.word	-1852105826
 4037 01d0 4F80C0C5 		.word	-977239985
 4038 01d4 A261DC20 		.word	551313826
 4039 01d8 695A774B 		.word	1266113129
 4040 01dc 161C121A 		.word	437394454
 4041 01e0 0AE293BA 		.word	-1164713462
 4042 01e4 E5C0A02A 		.word	715178213
 4043 01e8 433C22E0 		.word	-534627261
 4044 01ec 1D121B17 		.word	387650077
 4045 01f0 0B0E090D 		.word	218697227
ARM GAS  T:\msys\tmp\ccwessdu.s 			page 102


 4046 01f4 ADF28BC7 		.word	-947129683
 4047 01f8 B92DB6A8 		.word	-1464455751
 4048 01fc C8141EA9 		.word	-1457646392
 4049 0200 8557F119 		.word	435246981
 4050 0204 4CAF7507 		.word	125153100
 4051 0208 BBEE99DD 		.word	-577114437
 4052 020c FDA37F60 		.word	1618977789
 4053 0210 9FF70126 		.word	637663135
 4054 0214 BC5C72F5 		.word	-177054532
 4055 0218 C544663B 		.word	996558021
 4056 021c 345BFB7E 		.word	2130402100
 4057 0220 768B4329 		.word	692292470
 4058 0224 DCCB23C6 		.word	-970732580
 4059 0228 68B6EDFC 		.word	-51530136
 4060 022c 63B8E4F1 		.word	-236668829
 4061 0230 CAD731DC 		.word	-600713270
 4062 0234 10426385 		.word	-2057092592
 4063 0238 40139722 		.word	580326208
 4064 023c 2084C611 		.word	298222624
 4065 0240 7D854A24 		.word	608863613
 4066 0244 F8D2BB3D 		.word	1035719416
 4067 0248 11AEF932 		.word	855223825
 4068 024c 6DC729A1 		.word	-1591097491
 4069 0250 4B1D9E2F 		.word	798891339
 4070 0254 F3DCB230 		.word	817028339
 4071 0258 EC0D8652 		.word	1384517100
 4072 025c D077C1E3 		.word	-473860144
 4073 0260 6C2BB316 		.word	380840812
 4074 0264 99A970B9 		.word	-1183798887
 4075 0268 FA119448 		.word	1217663482
 4076 026c 2247E964 		.word	1693009698
 4077 0270 C4A8FC8C 		.word	-1929598780
 4078 0274 1AA0F03F 		.word	1072734234
 4079 0278 D8567D2C 		.word	746411736
 4080 027c EF223390 		.word	-1875696913
 4081 0280 C787494E 		.word	1313441735
 4082 0284 C1D938D1 		.word	-784803391
 4083 0288 FE8CCAA2 		.word	-1563783938
 4084 028c 3698D40B 		.word	198481974
 4085 0290 CFA6F581 		.word	-2114607409
 4086 0294 28A57ADE 		.word	-562387672
 4087 0298 26DAB78E 		.word	-1900553690
 4088 029c A43FADBF 		.word	-1079165020
 4089 02a0 E42C3A9D 		.word	-1657131804
 4090 02a4 0D507892 		.word	-1837608947
 4091 02a8 9B6A5FCC 		.word	-866162021
 4092 02ac 62547E46 		.word	1182684258
 4093 02b0 C2F68D13 		.word	328070850
 4094 02b4 E890D8B8 		.word	-1193766680
 4095 02b8 5E2E39F7 		.word	-147247522
 4096 02bc F582C3AF 		.word	-1346141451
 4097 02c0 BE9F5D80 		.word	-2141347906
 4098 02c4 7C69D093 		.word	-1815058052
 4099 02c8 A96FD52D 		.word	768962473
 4100 02cc B3CF2512 		.word	304467891
 4101 02d0 3BC8AC99 		.word	-1716729797
 4102 02d4 A710187D 		.word	2098729127
ARM GAS  T:\msys\tmp\ccwessdu.s 			page 103


 4103 02d8 6EE89C63 		.word	1671227502
 4104 02dc 7BDB3BBB 		.word	-1153705093
 4105 02e0 09CD2678 		.word	2015808777
 4106 02e4 F46E5918 		.word	408514292
 4107 02e8 01EC9AB7 		.word	-1214583807
 4108 02ec A8834F9A 		.word	-1706064984
 4109 02f0 65E6956E 		.word	1855317605
 4110 02f4 7EAAFFE6 		.word	-419452290
 4111 02f8 0821BCCF 		.word	-809754360
 4112 02fc E6EF15E8 		.word	-401215514
 4113 0300 D9BAE79B 		.word	-1679312167
 4114 0304 CE4A6F36 		.word	913263310
 4115 0308 D4EA9F09 		.word	161475284
 4116 030c D629B07C 		.word	2091919830
 4117 0310 AF31A4B2 		.word	-1297862225
 4118 0314 312A3F23 		.word	591342129
 4119 0318 30C6A594 		.word	-1801075152
 4120 031c C035A266 		.word	1721906624
 4121 0320 37744EBC 		.word	-1135709129
 4122 0324 A6FC82CA 		.word	-897385306
 4123 0328 B0E090D0 		.word	-795811664
 4124 032c 1533A7D8 		.word	-660131051
 4125 0330 4AF10498 		.word	-1744506550
 4126 0334 F741ECDA 		.word	-622050825
 4127 0338 0E7FCD50 		.word	1355644686
 4128 033c 2F1791F6 		.word	-158263505
 4129 0340 8D764DD6 		.word	-699566451
 4130 0344 4D43EFB0 		.word	-1326496947
 4131 0348 54CCAA4D 		.word	1303039060
 4132 034c DFE49604 		.word	76997855
 4133 0350 E39ED1B5 		.word	-1244553501
 4134 0354 1B4C6A88 		.word	-2006299621
 4135 0358 B8C12C1F 		.word	523026872
 4136 035c 7F466551 		.word	1365591679
 4137 0360 049D5EEA 		.word	-362898172
 4138 0364 5D018C35 		.word	898367837
 4139 0368 73FA8774 		.word	1955068531
 4140 036c 2EFB0B41 		.word	1091304238
 4141 0370 5AB3671D 		.word	493335386
 4142 0374 5292DBD2 		.word	-757362094
 4143 0378 33E91056 		.word	1443948851
 4144 037c 136DD647 		.word	1205234963
 4145 0380 8C9AD761 		.word	1641519756
 4146 0384 7A37A10C 		.word	211892090
 4147 0388 8E59F814 		.word	351820174
 4148 038c 89EB133C 		.word	1007938441
 4149 0390 EECEA927 		.word	665439982
 4150 0394 35B761C9 		.word	-916342987
 4151 0398 EDE11CE5 		.word	-451091987
 4152 039c 3C7A47B1 		.word	-1320715716
 4153 03a0 599CD2DF 		.word	-539845543
 4154 03a4 3F55F273 		.word	1945261375
 4155 03a8 791814CE 		.word	-837543815
 4156 03ac BF73C737 		.word	935818175
 4157 03b0 EA53F7CD 		.word	-839429142
 4158 03b4 5B5FFDAA 		.word	-1426235557
 4159 03b8 14DF3D6F 		.word	1866325780
ARM GAS  T:\msys\tmp\ccwessdu.s 			page 104


 4160 03bc 867844DB 		.word	-616269690
 4161 03c0 81CAAFF3 		.word	-206583167
 4162 03c4 3EB968C4 		.word	-999769794
 4163 03c8 2C382434 		.word	874788908
 4164 03cc 5FC2A340 		.word	1084473951
 4165 03d0 72161DC3 		.word	-1021503886
 4166 03d4 0CBCE225 		.word	635616268
 4167 03d8 8B283C49 		.word	1228679307
 4168 03dc 41FF0D95 		.word	-1794244799
 4169 03e0 7139A801 		.word	27801969
 4170 03e4 DE080CB3 		.word	-1291056930
 4171 03e8 9CD8B4E4 		.word	-457910116
 4172 03ec 906456C1 		.word	-1051302768
 4173 03f0 617BCB84 		.word	-2067039391
 4174 03f4 70D532B6 		.word	-1238182544
 4175 03f8 74486C5C 		.word	1550600308
 4176 03fc 42D0B857 		.word	1471729730
 4177              		.section	.rodata.RT2,"a"
 4178              		.align	2
 4179              		.set	.LANCHOR5,. + 0
 4182              	RT2:
 4183 0000 A75051F4 		.word	-195997529
 4184 0004 65537E41 		.word	1098797925
 4185 0008 A4C31A17 		.word	387629988
 4186 000c 5E963A27 		.word	658151006
 4187 0010 6BCB3BAB 		.word	-1422144661
 4188 0014 45F11F9D 		.word	-1658851003
 4189 0018 58ABACFA 		.word	-89347240
 4190 001c 03934BE3 		.word	-481586429
 4191 0020 FA552030 		.word	807425530
 4192 0024 6DF6AD76 		.word	1991112301
 4193 0028 769188CC 		.word	-863465098
 4194 002c 4C25F502 		.word	49620300
 4195 0030 D7FC4FE5 		.word	-447742761
 4196 0034 CBD7C52A 		.word	717608907
 4197 0038 44802635 		.word	891715652
 4198 003c A38FB562 		.word	1656065955
 4199 0040 5A49DEB1 		.word	-1310832294
 4200 0044 1B6725BA 		.word	-1171953893
 4201 0048 0E9845EA 		.word	-364537842
 4202 004c C0E15DFE 		.word	-27401792
 4203 0050 7502C32F 		.word	801309301
 4204 0054 F012814C 		.word	1283527408
 4205 0058 97A38D46 		.word	1183687575
 4206 005c F9C66BD3 		.word	-747911431
 4207 0060 5FE7038F 		.word	-1895569569
 4208 0064 9C951592 		.word	-1844079204
 4209 0068 7AEBBF6D 		.word	1841294202
 4210 006c 59DA9552 		.word	1385552473
 4211 0070 832DD4BE 		.word	-1093390973
 4212 0074 21D35874 		.word	1951978273
 4213 0078 692949E0 		.word	-532076183
 4214 007c C8448EC9 		.word	-913423160
 4215 0080 896A75C2 		.word	-1032492407
 4216 0084 7978F48E 		.word	-1896580999
 4217 0088 3E6B9958 		.word	1486449470
 4218 008c 71DD27B9 		.word	-1188569743
ARM GAS  T:\msys\tmp\ccwessdu.s 			page 105


 4219 0090 4FB6BEE1 		.word	-507595185
 4220 0094 AD17F088 		.word	-1997531219
 4221 0098 AC66C920 		.word	550069932
 4222 009c 3AB47DCE 		.word	-830622662
 4223 00a0 4A1863DF 		.word	-547153846
 4224 00a4 3182E51A 		.word	451248689
 4225 00a8 33609751 		.word	1368875059
 4226 00ac 7F456253 		.word	1398949247
 4227 00b0 77E0B164 		.word	1689378935
 4228 00b4 AE84BB6B 		.word	1807451310
 4229 00b8 A01CFE81 		.word	-2114052960
 4230 00bc 2B94F908 		.word	150574123
 4231 00c0 68587048 		.word	1215322216
 4232 00c4 FD198F45 		.word	1167006205
 4233 00c8 6C8794DE 		.word	-560691348
 4234 00cc F8B7527B 		.word	2069018616
 4235 00d0 D323AB73 		.word	1940595667
 4236 00d4 02E2724B 		.word	1265820162
 4237 00d8 8F57E31F 		.word	534992783
 4238 00dc AB2A6655 		.word	1432758955
 4239 00e0 2807B2EB 		.word	-340654296
 4240 00e4 C2032FB5 		.word	-1255210046
 4241 00e8 7B9A86C5 		.word	-981034373
 4242 00ec 08A5D337 		.word	936617224
 4243 00f0 87F23028 		.word	674296455
 4244 00f4 A5B223BF 		.word	-1088179547
 4245 00f8 6ABA0203 		.word	50510442
 4246 00fc 825CED16 		.word	384654466
 4247 0100 1C2B8ACF 		.word	-813028580
 4248 0104 B492A779 		.word	2041025204
 4249 0108 F2F0F307 		.word	133427442
 4250 010c E2A14E69 		.word	1766760930
 4251 0110 F4CD65DA 		.word	-630862348
 4252 0114 BED50605 		.word	84334014
 4253 0118 621FD134 		.word	886120290
 4254 011c FE8AC4A6 		.word	-1497068802
 4255 0120 539D342E 		.word	775200083
 4256 0124 55A0A2F3 		.word	-207445931
 4257 0128 E132058A 		.word	-1979370783
 4258 012c EB75A4F6 		.word	-156994069
 4259 0130 EC390B83 		.word	-2096416276
 4260 0134 EFAA4060 		.word	1614850799
 4261 0138 9F065E71 		.word	1901987487
 4262 013c 1051BD6E 		.word	1857900816
 4263 0140 8AF93E21 		.word	557775242
 4264 0144 063D96DD 		.word	-577356538
 4265 0148 05AEDD3E 		.word	1054715397
 4266 014c BD464DE6 		.word	-431143235
 4267 0150 8DB59154 		.word	1418835341
 4268 0154 5D0571C4 		.word	-999226019
 4269 0158 D46F0406 		.word	100954068
 4270 015c 15FF6050 		.word	1348534037
 4271 0160 FB241998 		.word	-1743182597
 4272 0164 E997D6BD 		.word	-1110009879
 4273 0168 43CC8940 		.word	1082772547
 4274 016c 9E7767D9 		.word	-647530594
 4275 0170 42BDB0E8 		.word	-391070398
ARM GAS  T:\msys\tmp\ccwessdu.s 			page 106


 4276 0174 8B880789 		.word	-1995994997
 4277 0178 5B38E719 		.word	434583643
 4278 017c EEDB79C8 		.word	-931537938
 4279 0180 0A47A17C 		.word	2090944266
 4280 0184 0FE97C42 		.word	1115482383
 4281 0188 1EC9F884 		.word	-2064070370
 4282 018c 00000000 		.word	0
 4283 0190 86830980 		.word	-2146860154
 4284 0194 ED48322B 		.word	724715757
 4285 0198 70AC1E11 		.word	287222896
 4286 019c 724E6C5A 		.word	1517047410
 4287 01a0 FFFBFD0E 		.word	251526143
 4288 01a4 38560F85 		.word	-2062592456
 4289 01a8 D51E3DAE 		.word	-1371726123
 4290 01ac 3927362D 		.word	758523705
 4291 01b0 D9640A0F 		.word	252339417
 4292 01b4 A621685C 		.word	1550328230
 4293 01b8 54D19B5B 		.word	1536938324
 4294 01bc 2E3A2436 		.word	908343854
 4295 01c0 67B10C0A 		.word	168604007
 4296 01c4 E70F9357 		.word	1469255655
 4297 01c8 96D2B4EE 		.word	-290139498
 4298 01cc 919E1B9B 		.word	-1692688751
 4299 01d0 C54F80C0 		.word	-1065332795
 4300 01d4 20A261DC 		.word	-597581280
 4301 01d8 4B695A77 		.word	2002413899
 4302 01dc 1A161C12 		.word	303830554
 4303 01e0 BA0AE293 		.word	-1813902662
 4304 01e4 2AE5C0A0 		.word	-1597971158
 4305 01e8 E0433C22 		.word	574374880
 4306 01ec 171D121B 		.word	454171927
 4307 01f0 0D0B0E09 		.word	151915277
 4308 01f4 C7ADF28B 		.word	-1947030073
 4309 01f8 A8B92DB6 		.word	-1238517336
 4310 01fc A9C8141E 		.word	504678569
 4311 0200 198557F1 		.word	-245922535
 4312 0204 074CAF75 		.word	1974422535
 4313 0208 DDBBEE99 		.word	-1712407587
 4314 020c 60FDA37F 		.word	2141453664
 4315 0210 269FF701 		.word	33005350
 4316 0214 F5BC5C72 		.word	1918680309
 4317 0218 3BC54466 		.word	1715782971
 4318 021c 7E345BFB 		.word	-77908866
 4319 0220 29768B43 		.word	1133213225
 4320 0224 C6DCCB23 		.word	600562886
 4321 0228 FC68B6ED 		.word	-306812676
 4322 022c F163B8E4 		.word	-457677839
 4323 0230 DCCAD731 		.word	836225756
 4324 0234 85104263 		.word	1665273989
 4325 0238 22401397 		.word	-1760346078
 4326 023c 112084C6 		.word	-964419567
 4327 0240 247D854A 		.word	1250262308
 4328 0244 3DF8D2BB 		.word	-1143801795
 4329 0248 3211AEF9 		.word	-106032846
 4330 024c A16DC729 		.word	700935585
 4331 0250 2F4B1D9E 		.word	-1642247377
 4332 0254 30F3DCB2 		.word	-1294142672
ARM GAS  T:\msys\tmp\ccwessdu.s 			page 107


 4333 0258 52EC0D86 		.word	-2045907886
 4334 025c E3D077C1 		.word	-1049112349
 4335 0260 166C2BB3 		.word	-1288999914
 4336 0264 B999A970 		.word	1890163129
 4337 0268 48FA1194 		.word	-1810761144
 4338 026c 642247E9 		.word	-381214108
 4339 0270 8CC4A8FC 		.word	-56048500
 4340 0274 3F1AA0F0 		.word	-257942977
 4341 0278 2CD8567D 		.word	2102843436
 4342 027c 90EF2233 		.word	857927568
 4343 0280 4EC78749 		.word	1233635150
 4344 0284 D1C1D938 		.word	953795025
 4345 0288 A2FE8CCA 		.word	-896729438
 4346 028c 0B3698D4 		.word	-728222197
 4347 0290 81CFA6F5 		.word	-173617279
 4348 0294 DE28A57A 		.word	2057644254
 4349 0298 8E26DAB7 		.word	-1210440050
 4350 029c BFA43FAD 		.word	-1388337985
 4351 02a0 9DE42C3A 		.word	976020637
 4352 02a4 920D5078 		.word	2018512274
 4353 02a8 CC9B6A5F 		.word	1600822220
 4354 02ac 4662547E 		.word	2119459398
 4355 02b0 13C2F68D 		.word	-1913208301
 4356 02b4 B8E890D8 		.word	-661591880
 4357 02b8 F75E2E39 		.word	959340279
 4358 02bc AFF582C3 		.word	-1014827601
 4359 02c0 80BE9F5D 		.word	1570750080
 4360 02c4 937C69D0 		.word	-798393197
 4361 02c8 2DA96FD5 		.word	-714102483
 4362 02cc 12B3CF25 		.word	634368786
 4363 02d0 993BC8AC 		.word	-1396163687
 4364 02d4 7DA71018 		.word	403744637
 4365 02d8 636EE89C 		.word	-1662488989
 4366 02dc BB7BDB3B 		.word	1004239803
 4367 02e0 7809CD26 		.word	650971512
 4368 02e4 18F46E59 		.word	1500443672
 4369 02e8 B701EC9A 		.word	-1695809097
 4370 02ec 9AA8834F 		.word	1334028442
 4371 02f0 6E65E695 		.word	-1780062866
 4372 02f4 E67EAAFF 		.word	-5603610
 4373 02f8 CF0821BC 		.word	-1138685745
 4374 02fc E8E6EF15 		.word	368043752
 4375 0300 9BD9BAE7 		.word	-407184997
 4376 0304 36CE4A6F 		.word	1867173430
 4377 0308 09D4EA9F 		.word	-1612000247
 4378 030c 7CD629B0 		.word	-1339435396
 4379 0310 B2AF31A4 		.word	-1540247630
 4380 0314 23312A3F 		.word	1059729699
 4381 0318 9430C6A5 		.word	-1513738092
 4382 031c 66C035A2 		.word	-1573535642
 4383 0320 BC37744E 		.word	1316239292
 4384 0324 CAA6FC82 		.word	-2097371446
 4385 0328 D0B0E090 		.word	-1864322864
 4386 032c D81533A7 		.word	-1489824296
 4387 0330 984AF104 		.word	82922136
 4388 0334 DAF741EC 		.word	-331221030
 4389 0338 500E7FCD 		.word	-847311280
ARM GAS  T:\msys\tmp\ccwessdu.s 			page 108


 4390 033c F62F1791 		.word	-1860751370
 4391 0340 D68D764D 		.word	1299615190
 4392 0344 B04D43EF 		.word	-280801872
 4393 0348 4D54CCAA 		.word	-1429449651
 4394 034c 04DFE496 		.word	-1763385596
 4395 0350 B5E39ED1 		.word	-778116171
 4396 0354 881B4C6A 		.word	1783372680
 4397 0358 1FB8C12C 		.word	750893087
 4398 035c 517F4665 		.word	1699118929
 4399 0360 EA049D5E 		.word	1587348714
 4400 0364 355D018C 		.word	-1946067659
 4401 0368 7473FA87 		.word	-2013629580
 4402 036c 412EFB0B 		.word	201010753
 4403 0370 1D5AB367 		.word	1739807261
 4404 0374 D25292DB 		.word	-611167534
 4405 0378 5633E910 		.word	283718486
 4406 037c 47136DD6 		.word	-697494713
 4407 0380 618C9AD7 		.word	-677737375
 4408 0384 0C7A37A1 		.word	-1590199796
 4409 0388 148E59F8 		.word	-128348652
 4410 038c 3C89EB13 		.word	334203196
 4411 0390 27EECEA9 		.word	-1446056409
 4412 0394 C935B761 		.word	1639396809
 4413 0398 E5EDE11C 		.word	484568549
 4414 039c B13C7A47 		.word	1199193265
 4415 03a0 DF599CD2 		.word	-761505313
 4416 03a4 733F55F2 		.word	-229294221
 4417 03a8 CE791814 		.word	337148366
 4418 03ac 37BF73C7 		.word	-948715721
 4419 03b0 CDEA53F7 		.word	-145495347
 4420 03b4 AA5B5FFD 		.word	-44082262
 4421 03b8 6F14DF3D 		.word	1038029935
 4422 03bc DB867844 		.word	1148749531
 4423 03c0 F381CAAF 		.word	-1345682957
 4424 03c4 C43EB968 		.word	1756970692
 4425 03c8 342C3824 		.word	607661108
 4426 03cc 405FC2A3 		.word	-1547542720
 4427 03d0 C372161D 		.word	488010435
 4428 03d4 250CBCE2 		.word	-490992603
 4429 03d8 498B283C 		.word	1009290057
 4430 03dc 9541FF0D 		.word	234832277
 4431 03e0 017139A8 		.word	-1472630527
 4432 03e4 B3DE080C 		.word	201907891
 4433 03e8 E49CD8B4 		.word	-1260872476
 4434 03ec C1906456 		.word	1449431233
 4435 03f0 84617BCB 		.word	-881106556
 4436 03f4 B670D532 		.word	852848822
 4437 03f8 5C74486C 		.word	1816687708
 4438 03fc 5742D0B8 		.word	-1194311081
 4439              		.section	.rodata.RT3,"a"
 4440              		.align	2
 4441              		.set	.LANCHOR3,. + 0
 4444              	RT3:
 4445 0000 F4A75051 		.word	1364240372
 4446 0004 4165537E 		.word	2119394625
 4447 0008 17A4C31A 		.word	449029143
 4448 000c 275E963A 		.word	982933031
ARM GAS  T:\msys\tmp\ccwessdu.s 			page 109


 4449 0010 AB6BCB3B 		.word	1003187115
 4450 0014 9D45F11F 		.word	535905693
 4451 0018 FA58ABAC 		.word	-1398056710
 4452 001c E303934B 		.word	1267925987
 4453 0020 30FA5520 		.word	542505520
 4454 0024 766DF6AD 		.word	-1376359050
 4455 0028 CC769188 		.word	-2003732788
 4456 002c 024C25F5 		.word	-182105086
 4457 0030 E5D7FC4F 		.word	1341970405
 4458 0034 2ACBD7C5 		.word	-975713494
 4459 0038 35448026 		.word	645940277
 4460 003c 62A38FB5 		.word	-1248877726
 4461 0040 B15A49DE 		.word	-565617999
 4462 0044 BA1B6725 		.word	627514298
 4463 0048 EA0E9845 		.word	1167593194
 4464 004c FEC0E15D 		.word	1575076094
 4465 0050 2F7502C3 		.word	-1023249105
 4466 0054 4CF01281 		.word	-2129465268
 4467 0058 4697A38D 		.word	-1918658746
 4468 005c D3F9C66B 		.word	1808202195
 4469 0060 8F5FE703 		.word	65494927
 4470 0064 929C9515 		.word	362126482
 4471 0068 6D7AEBBF 		.word	-1075086739
 4472 006c 5259DA95 		.word	-1780852398
 4473 0070 BE832DD4 		.word	-735214658
 4474 0074 7421D358 		.word	1490231668
 4475 0078 E0692949 		.word	1227450848
 4476 007c C9C8448E 		.word	-1908094775
 4477 0080 C2896A75 		.word	1969916354
 4478 0084 8E7978F4 		.word	-193431154
 4479 0088 583E6B99 		.word	-1721024936
 4480 008c B971DD27 		.word	668823993
 4481 0090 E14FB6BE 		.word	-1095348255
 4482 0094 88AD17F0 		.word	-266883704
 4483 0098 20AC66C9 		.word	-916018144
 4484 009c CE3AB47D 		.word	2108963534
 4485 00a0 DF4A1863 		.word	1662536415
 4486 00a4 1A3182E5 		.word	-444452582
 4487 00a8 51336097 		.word	-1755303087
 4488 00ac 537F4562 		.word	1648721747
 4489 00b0 6477E0B1 		.word	-1310689436
 4490 00b4 6BAE84BB 		.word	-1148932501
 4491 00b8 81A01CFE 		.word	-31678335
 4492 00bc 082B94F9 		.word	-107730168
 4493 00c0 48685870 		.word	1884842056
 4494 00c4 45FD198F 		.word	-1894122171
 4495 00c8 DE6C8794 		.word	-1803064098
 4496 00cc 7BF8B752 		.word	1387788411
 4497 00d0 73D323AB 		.word	-1423715469
 4498 00d4 4B02E272 		.word	1927414347
 4499 00d8 1F8F57E3 		.word	-480800993
 4500 00dc 55AB2A66 		.word	1714072405
 4501 00e0 EB2807B2 		.word	-1308153621
 4502 00e4 B5C2032F 		.word	788775605
 4503 00e8 C57B9A86 		.word	-2036696123
 4504 00ec 3708A5D3 		.word	-744159177
 4505 00f0 2887F230 		.word	821200680
ARM GAS  T:\msys\tmp\ccwessdu.s 			page 110


 4506 00f4 BFA5B223 		.word	598910399
 4507 00f8 036ABA02 		.word	45771267
 4508 00fc 16825CED 		.word	-312704490
 4509 0100 CF1C2B8A 		.word	-1976886065
 4510 0104 79B492A7 		.word	-1483557767
 4511 0108 07F2F0F3 		.word	-202313209
 4512 010c 69E2A14E 		.word	1319232105
 4513 0110 DAF4CD65 		.word	1707996378
 4514 0114 05BED506 		.word	114671109
 4515 0118 34621FD1 		.word	-786472396
 4516 011c A6FE8AC4 		.word	-997523802
 4517 0120 2E539D34 		.word	882725678
 4518 0124 F355A0A2 		.word	-1566550541
 4519 0128 8AE13205 		.word	87220618
 4520 012c F6EB75A4 		.word	-1535775754
 4521 0130 83EC390B 		.word	188345475
 4522 0134 60EFAA40 		.word	1084944224
 4523 0138 719F065E 		.word	1577492337
 4524 013c 6E1051BD 		.word	-1118760850
 4525 0140 218AF93E 		.word	1056541217
 4526 0144 DD063D96 		.word	-1774385443
 4527 0148 3E05AEDD 		.word	-575797954
 4528 014c E6BD464D 		.word	1296481766
 4529 0150 548DB591 		.word	-1850372780
 4530 0154 C45D0571 		.word	1896177092
 4531 0158 06D46F04 		.word	74437638
 4532 015c 5015FF60 		.word	1627329872
 4533 0160 98FB2419 		.word	421854104
 4534 0164 BDE997D6 		.word	-694687299
 4535 0168 4043CC89 		.word	-1983102144
 4536 016c D99E7767 		.word	1735892697
 4537 0170 E842BDB0 		.word	-1329773848
 4538 0174 898B8807 		.word	126389129
 4539 0178 195B38E7 		.word	-415737063
 4540 017c C8EEDB79 		.word	2044456648
 4541 0180 7C0A47A1 		.word	-1589179780
 4542 0184 420FE97C 		.word	2095648578
 4543 0188 841EC9F8 		.word	-121037180
 4544 018c 00000000 		.word	0
 4545 0190 80868309 		.word	159614592
 4546 0194 2BED4832 		.word	843640107
 4547 0198 1170AC1E 		.word	514617361
 4548 019c 5A724E6C 		.word	1817080410
 4549 01a0 0EFFFBFD 		.word	-33816818
 4550 01a4 8538560F 		.word	257308805
 4551 01a8 AED51E3D 		.word	1025430958
 4552 01ac 2D392736 		.word	908540205
 4553 01b0 0FD9640A 		.word	174381327
 4554 01b4 5CA62168 		.word	1747035740
 4555 01b8 5B54D19B 		.word	-1680780197
 4556 01bc 362E3A24 		.word	607792694
 4557 01c0 0A67B10C 		.word	212952842
 4558 01c4 57E70F93 		.word	-1827674281
 4559 01c8 EE96D2B4 		.word	-1261267218
 4560 01cc 9B919E1B 		.word	463376795
 4561 01d0 C0C54F80 		.word	-2142255680
 4562 01d4 DC20A261 		.word	1638015196
ARM GAS  T:\msys\tmp\ccwessdu.s 			page 111


 4563 01d8 774B695A 		.word	1516850039
 4564 01dc 121A161C 		.word	471210514
 4565 01e0 93BA0AE2 		.word	-502613357
 4566 01e4 A02AE5C0 		.word	-1058723168
 4567 01e8 22E0433C 		.word	1011081250
 4568 01ec 1B171D12 		.word	303896347
 4569 01f0 090D0B0E 		.word	235605257
 4570 01f4 8BC7ADF2 		.word	-223492213
 4571 01f8 B6A8B92D 		.word	767142070
 4572 01fc 1EA9C814 		.word	348694814
 4573 0200 F1198557 		.word	1468340721
 4574 0204 75074CAF 		.word	-1353971851
 4575 0208 99DDBBEE 		.word	-289677927
 4576 020c 7F60FDA3 		.word	-1543675777
 4577 0210 01269FF7 		.word	-140564991
 4578 0214 72F5BC5C 		.word	1555887474
 4579 0218 663BC544 		.word	1153776486
 4580 021c FB7E345B 		.word	1530167035
 4581 0220 4329768B 		.word	-1955190461
 4582 0224 23C6DCCB 		.word	-874723805
 4583 0228 EDFC68B6 		.word	-1234633491
 4584 022c E4F163B8 		.word	-1201409564
 4585 0230 31DCCAD7 		.word	-674571215
 4586 0234 63851042 		.word	1108378979
 4587 0238 97224013 		.word	322970263
 4588 023c C6112084 		.word	-2078273082
 4589 0240 4A247D85 		.word	-2055396278
 4590 0244 BB3DF8D2 		.word	-755483205
 4591 0248 F93211AE 		.word	-1374604551
 4592 024c 29A16DC7 		.word	-949116631
 4593 0250 9E2F4B1D 		.word	491466654
 4594 0254 B230F3DC 		.word	-588042062
 4595 0258 8652EC0D 		.word	233591430
 4596 025c C1E3D077 		.word	2010178497
 4597 0260 B3166C2B 		.word	728503987
 4598 0264 70B999A9 		.word	-1449543312
 4599 0268 9448FA11 		.word	301615252
 4600 026c E9642247 		.word	1193436393
 4601 0270 FC8CC4A8 		.word	-1463513860
 4602 0274 F03F1AA0 		.word	-1608892432
 4603 0278 7D2CD856 		.word	1457007741
 4604 027c 3390EF22 		.word	586125363
 4605 0280 494EC787 		.word	-2016981431
 4606 0284 38D1C1D9 		.word	-641609416
 4607 0288 CAA2FE8C 		.word	-1929469238
 4608 028c D40B3698 		.word	-1741288492
 4609 0290 F581CFA6 		.word	-1496350219
 4610 0294 7ADE28A5 		.word	-1524048262
 4611 0298 B78E26DA 		.word	-635007305
 4612 029c ADBFA43F 		.word	1067761581
 4613 02a0 3A9DE42C 		.word	753179962
 4614 02a4 78920D50 		.word	1343066744
 4615 02a8 5FCC9B6A 		.word	1788595295
 4616 02ac 7E466254 		.word	1415726718
 4617 02b0 8D13C2F6 		.word	-155053171
 4618 02b4 D8B8E890 		.word	-1863796520
 4619 02b8 39F75E2E 		.word	777975609
ARM GAS  T:\msys\tmp\ccwessdu.s 			page 112


 4620 02bc C3AFF582 		.word	-2097827901
 4621 02c0 5D80BE9F 		.word	-1614905251
 4622 02c4 D0937C69 		.word	1769771984
 4623 02c8 D52DA96F 		.word	1873358293
 4624 02cc 2512B3CF 		.word	-810347995
 4625 02d0 AC993BC8 		.word	-935618132
 4626 02d4 187DA710 		.word	279411992
 4627 02d8 9C636EE8 		.word	-395418724
 4628 02dc 3BBB7BDB 		.word	-612648133
 4629 02e0 267809CD 		.word	-855017434
 4630 02e4 5918F46E 		.word	1861490777
 4631 02e8 9AB701EC 		.word	-335431782
 4632 02ec 4F9AA883 		.word	-2086102449
 4633 02f0 956E65E6 		.word	-429560171
 4634 02f4 FFE67EAA 		.word	-1434523905
 4635 02f8 BCCF0821 		.word	554225596
 4636 02fc 15E8E6EF 		.word	-270079979
 4637 0300 E79BD9BA 		.word	-1160143897
 4638 0304 6F36CE4A 		.word	1255028335
 4639 0308 9F09D4EA 		.word	-355202657
 4640 030c B07CD629 		.word	701922480
 4641 0310 A4B2AF31 		.word	833598116
 4642 0314 3F23312A 		.word	707863359
 4643 0318 A59430C6 		.word	-969894747
 4644 031c A266C035 		.word	901801634
 4645 0320 4EBC3774 		.word	1949809742
 4646 0324 82CAA6FC 		.word	-56178046
 4647 0328 90D0B0E0 		.word	-525283184
 4648 032c A7D81533 		.word	857069735
 4649 0330 04984AF1 		.word	-246769660
 4650 0334 ECDAF741 		.word	1106762476
 4651 0338 CD500E7F 		.word	2131644621
 4652 033c 91F62F17 		.word	389019281
 4653 0340 4DD68D76 		.word	1989006925
 4654 0344 EFB04D43 		.word	1129165039
 4655 0348 AA4D54CC 		.word	-866890326
 4656 034c 9604DFE4 		.word	-455146346
 4657 0350 D1B5E39E 		.word	-1629243951
 4658 0354 6A881B4C 		.word	1276872810
 4659 0358 2C1FB8C1 		.word	-1044898004
 4660 035c 65517F46 		.word	1182749029
 4661 0360 5EEA049D 		.word	-1660622242
 4662 0364 8C355D01 		.word	22885772
 4663 0368 877473FA 		.word	-93096825
 4664 036c 0B412EFB 		.word	-80854773
 4665 0370 671D5AB3 		.word	-1285939865
 4666 0374 DBD25292 		.word	-1840065829
 4667 0378 105633E9 		.word	-382511600
 4668 037c D647136D 		.word	1829980118
 4669 0380 D7618C9A 		.word	-1702075945
 4670 0384 A10C7A37 		.word	930745505
 4671 0388 F8148E59 		.word	1502483704
 4672 038c 133C89EB 		.word	-343327725
 4673 0390 A927EECE 		.word	-823253079
 4674 0394 61C935B7 		.word	-1221211807
 4675 0398 1CE5EDE1 		.word	-504503012
 4676 039c 47B13C7A 		.word	2050797895
ARM GAS  T:\msys\tmp\ccwessdu.s 			page 113


 4677 03a0 D2DF599C 		.word	-1671831598
 4678 03a4 F2733F55 		.word	1430221810
 4679 03a8 14CE7918 		.word	410635796
 4680 03ac C737BF73 		.word	1941911495
 4681 03b0 F7CDEA53 		.word	1407897079
 4682 03b4 FDAA5B5F 		.word	1599843069
 4683 03b8 3D6F14DF 		.word	-552308931
 4684 03bc 44DB8678 		.word	2022103876
 4685 03c0 AFF381CA 		.word	-897453137
 4686 03c4 68C43EB9 		.word	-1187068824
 4687 03c8 24342C38 		.word	942421028
 4688 03cc A3405FC2 		.word	-1033944925
 4689 03d0 1DC37216 		.word	376619805
 4690 03d4 E2250CBC 		.word	-1140054558
 4691 03d8 3C498B28 		.word	680216892
 4692 03dc 0D9541FF 		.word	-12479219
 4693 03e0 A8017139 		.word	963707304
 4694 03e4 0CB3DE08 		.word	148812556
 4695 03e8 B4E49CD8 		.word	-660806476
 4696 03ec 56C19064 		.word	1687208278
 4697 03f0 CB84617B 		.word	2069988555
 4698 03f4 32B670D5 		.word	-714033614
 4699 03f8 6C5C7448 		.word	1215585388
 4700 03fc B85742D0 		.word	-800958536
 4701              		.text
 4702              	.Letext0:
 4703              		.file 2 "t:\\msys\\3rd\\gcc-arm-none-eabi-9-2020-q2-update-win32\\arm-none-eabi\\include\\machine\
 4704              		.file 3 "t:\\msys\\3rd\\gcc-arm-none-eabi-9-2020-q2-update-win32\\lib\\gcc\\arm-none-eabi\\9.3.1\\
 4705              		.file 4 "t:\\msys\\3rd\\gcc-arm-none-eabi-9-2020-q2-update-win32\\arm-none-eabi\\include\\sys\\_ty
 4706              		.file 5 "t:\\msys\\3rd\\gcc-arm-none-eabi-9-2020-q2-update-win32\\arm-none-eabi\\include\\sys\\ree
 4707              		.file 6 "t:\\msys\\3rd\\gcc-arm-none-eabi-9-2020-q2-update-win32\\arm-none-eabi\\include\\sys\\loc
 4708              		.file 7 "t:\\msys\\3rd\\gcc-arm-none-eabi-9-2020-q2-update-win32\\arm-none-eabi\\include\\sys\\_st
 4709              		.file 8 "D:/fchai/work/i-cube/I-CUBE-HUAWEI/Middlewares/Third_Party/Huawei/iot_link/network/dtls/m
 4710              		.file 9 "t:\\msys\\3rd\\gcc-arm-none-eabi-9-2020-q2-update-win32\\arm-none-eabi\\include\\stdlib.h
 4711              		.file 10 "t:\\msys\\3rd\\gcc-arm-none-eabi-9-2020-q2-update-win32\\arm-none-eabi\\include\\time.h"
 4712              		.file 11 "D:/fchai/work/i-cube/I-CUBE-HUAWEI/Middlewares/Third_Party/Huawei/iot_link/network/dtls/
 4713              		.file 12 "<built-in>"
 4714              		.file 13 "D:/fchai/work/i-cube/I-CUBE-HUAWEI/Middlewares/Third_Party/Huawei/iot_link/network/dtls/
ARM GAS  T:\msys\tmp\ccwessdu.s 			page 114


DEFINED SYMBOLS
                            *ABS*:00000000 aes.c
T:\msys\tmp\ccwessdu.s:18     .text.mbedtls_aes_init:00000000 $t
T:\msys\tmp\ccwessdu.s:27     .text.mbedtls_aes_init:00000000 mbedtls_aes_init
T:\msys\tmp\ccwessdu.s:49     .text.mbedtls_aes_free:00000000 $t
T:\msys\tmp\ccwessdu.s:57     .text.mbedtls_aes_free:00000000 mbedtls_aes_free
T:\msys\tmp\ccwessdu.s:79     .text.mbedtls_aes_setkey_enc:00000000 $t
T:\msys\tmp\ccwessdu.s:87     .text.mbedtls_aes_setkey_enc:00000000 mbedtls_aes_setkey_enc
T:\msys\tmp\ccwessdu.s:518    .text.mbedtls_aes_setkey_enc:000001e4 $d
T:\msys\tmp\ccwessdu.s:525    .text.mbedtls_aes_setkey_dec:00000000 $t
T:\msys\tmp\ccwessdu.s:533    .text.mbedtls_aes_setkey_dec:00000000 mbedtls_aes_setkey_dec
T:\msys\tmp\ccwessdu.s:816    .text.mbedtls_aes_setkey_dec:00000104 $d
T:\msys\tmp\ccwessdu.s:825    .text.mbedtls_internal_aes_encrypt:00000000 $t
T:\msys\tmp\ccwessdu.s:833    .text.mbedtls_internal_aes_encrypt:00000000 mbedtls_internal_aes_encrypt
T:\msys\tmp\ccwessdu.s:1301   .text.mbedtls_internal_aes_encrypt:00000378 $d
T:\msys\tmp\ccwessdu.s:1308   .text.mbedtls_internal_aes_encrypt:0000038c $t
T:\msys\tmp\ccwessdu.s:1495   .text.mbedtls_internal_aes_encrypt:00000480 $d
T:\msys\tmp\ccwessdu.s:1500   .text.mbedtls_aes_encrypt:00000000 $t
T:\msys\tmp\ccwessdu.s:1508   .text.mbedtls_aes_encrypt:00000000 mbedtls_aes_encrypt
T:\msys\tmp\ccwessdu.s:1524   .text.mbedtls_internal_aes_decrypt:00000000 $t
T:\msys\tmp\ccwessdu.s:1532   .text.mbedtls_internal_aes_decrypt:00000000 mbedtls_internal_aes_decrypt
T:\msys\tmp\ccwessdu.s:2001   .text.mbedtls_internal_aes_decrypt:0000037c $d
T:\msys\tmp\ccwessdu.s:2008   .text.mbedtls_internal_aes_decrypt:00000390 $t
T:\msys\tmp\ccwessdu.s:2192   .text.mbedtls_internal_aes_decrypt:00000498 $d
T:\msys\tmp\ccwessdu.s:2199   .text.mbedtls_aes_decrypt:00000000 $t
T:\msys\tmp\ccwessdu.s:2207   .text.mbedtls_aes_decrypt:00000000 mbedtls_aes_decrypt
T:\msys\tmp\ccwessdu.s:2223   .text.mbedtls_aes_crypt_ecb:00000000 $t
T:\msys\tmp\ccwessdu.s:2231   .text.mbedtls_aes_crypt_ecb:00000000 mbedtls_aes_crypt_ecb
T:\msys\tmp\ccwessdu.s:2298   .text.mbedtls_aes_crypt_cbc:00000000 $t
T:\msys\tmp\ccwessdu.s:2306   .text.mbedtls_aes_crypt_cbc:00000000 mbedtls_aes_crypt_cbc
T:\msys\tmp\ccwessdu.s:2548   .rodata.FSb:00000000 $d
T:\msys\tmp\ccwessdu.s:2552   .rodata.FSb:00000000 FSb
T:\msys\tmp\ccwessdu.s:2569   .rodata.FT0:00000000 $d
T:\msys\tmp\ccwessdu.s:2573   .rodata.FT0:00000000 FT0
T:\msys\tmp\ccwessdu.s:2831   .rodata.FT1:00000000 $d
T:\msys\tmp\ccwessdu.s:2835   .rodata.FT1:00000000 FT1
T:\msys\tmp\ccwessdu.s:3093   .rodata.FT2:00000000 $d
T:\msys\tmp\ccwessdu.s:3097   .rodata.FT2:00000000 FT2
T:\msys\tmp\ccwessdu.s:3355   .rodata.FT3:00000000 $d
T:\msys\tmp\ccwessdu.s:3359   .rodata.FT3:00000000 FT3
T:\msys\tmp\ccwessdu.s:3617   .rodata.RCON:00000000 $d
T:\msys\tmp\ccwessdu.s:3621   .rodata.RCON:00000000 RCON
T:\msys\tmp\ccwessdu.s:3633   .rodata.RSb:00000000 $d
T:\msys\tmp\ccwessdu.s:3637   .rodata.RSb:00000000 RSb
T:\msys\tmp\ccwessdu.s:3654   .rodata.RT0:00000000 $d
T:\msys\tmp\ccwessdu.s:3658   .rodata.RT0:00000000 RT0
T:\msys\tmp\ccwessdu.s:3916   .rodata.RT1:00000000 $d
T:\msys\tmp\ccwessdu.s:3920   .rodata.RT1:00000000 RT1
T:\msys\tmp\ccwessdu.s:4178   .rodata.RT2:00000000 $d
T:\msys\tmp\ccwessdu.s:4182   .rodata.RT2:00000000 RT2
T:\msys\tmp\ccwessdu.s:4440   .rodata.RT3:00000000 $d
T:\msys\tmp\ccwessdu.s:4444   .rodata.RT3:00000000 RT3

UNDEFINED SYMBOLS
memset
mbedtls_platform_zeroize
