ARM GAS  T:\msys\tmp\ccoyqwkK.s 			page 1


   1              		.cpu cortex-m4
   2              		.eabi_attribute 27, 1
   3              		.eabi_attribute 28, 1
   4              		.eabi_attribute 20, 1
   5              		.eabi_attribute 21, 1
   6              		.eabi_attribute 23, 3
   7              		.eabi_attribute 24, 1
   8              		.eabi_attribute 25, 1
   9              		.eabi_attribute 26, 1
  10              		.eabi_attribute 30, 2
  11              		.eabi_attribute 34, 1
  12              		.eabi_attribute 18, 4
  13              		.file	"asn1write.c"
  14              		.text
  15              	.Ltext0:
  16              		.cfi_sections	.debug_frame
  17              		.section	.text.mbedtls_asn1_write_len,"ax",%progbits
  18              		.align	1
  19              		.p2align 2,,3
  20              		.global	mbedtls_asn1_write_len
  21              		.arch armv7e-m
  22              		.syntax unified
  23              		.thumb
  24              		.thumb_func
  25              		.fpu fpv4-sp-d16
  27              	mbedtls_asn1_write_len:
  28              	.LVL0:
  29              	.LFB3:
  30              		.file 1 "D:/fchai/work/i-cube/I-CUBE-HUAWEI/Middlewares/Third_Party/Huawei/iot_link/network/dtls/m
   1:D:/fchai/work/i-cube/I-CUBE-HUAWEI/Middlewares/Third_Party/Huawei/iot_link/network/dtls/mbedtls/mbedtls-2.16.2/library\asn1write.c **** /*
   2:D:/fchai/work/i-cube/I-CUBE-HUAWEI/Middlewares/Third_Party/Huawei/iot_link/network/dtls/mbedtls/mbedtls-2.16.2/library\asn1write.c ****  * ASN.1 buffer writing functionality
   3:D:/fchai/work/i-cube/I-CUBE-HUAWEI/Middlewares/Third_Party/Huawei/iot_link/network/dtls/mbedtls/mbedtls-2.16.2/library\asn1write.c ****  *
   4:D:/fchai/work/i-cube/I-CUBE-HUAWEI/Middlewares/Third_Party/Huawei/iot_link/network/dtls/mbedtls/mbedtls-2.16.2/library\asn1write.c ****  *  Copyright (C) 2006-2015, ARM Limited, All Rights Reserved
   5:D:/fchai/work/i-cube/I-CUBE-HUAWEI/Middlewares/Third_Party/Huawei/iot_link/network/dtls/mbedtls/mbedtls-2.16.2/library\asn1write.c ****  *  SPDX-License-Identifier: Apache-2.0
   6:D:/fchai/work/i-cube/I-CUBE-HUAWEI/Middlewares/Third_Party/Huawei/iot_link/network/dtls/mbedtls/mbedtls-2.16.2/library\asn1write.c ****  *
   7:D:/fchai/work/i-cube/I-CUBE-HUAWEI/Middlewares/Third_Party/Huawei/iot_link/network/dtls/mbedtls/mbedtls-2.16.2/library\asn1write.c ****  *  Licensed under the Apache License, Version 2.0 (the "License"); you may
   8:D:/fchai/work/i-cube/I-CUBE-HUAWEI/Middlewares/Third_Party/Huawei/iot_link/network/dtls/mbedtls/mbedtls-2.16.2/library\asn1write.c ****  *  not use this file except in compliance with the License.
   9:D:/fchai/work/i-cube/I-CUBE-HUAWEI/Middlewares/Third_Party/Huawei/iot_link/network/dtls/mbedtls/mbedtls-2.16.2/library\asn1write.c ****  *  You may obtain a copy of the License at
  10:D:/fchai/work/i-cube/I-CUBE-HUAWEI/Middlewares/Third_Party/Huawei/iot_link/network/dtls/mbedtls/mbedtls-2.16.2/library\asn1write.c ****  *
  11:D:/fchai/work/i-cube/I-CUBE-HUAWEI/Middlewares/Third_Party/Huawei/iot_link/network/dtls/mbedtls/mbedtls-2.16.2/library\asn1write.c ****  *  http://www.apache.org/licenses/LICENSE-2.0
  12:D:/fchai/work/i-cube/I-CUBE-HUAWEI/Middlewares/Third_Party/Huawei/iot_link/network/dtls/mbedtls/mbedtls-2.16.2/library\asn1write.c ****  *
  13:D:/fchai/work/i-cube/I-CUBE-HUAWEI/Middlewares/Third_Party/Huawei/iot_link/network/dtls/mbedtls/mbedtls-2.16.2/library\asn1write.c ****  *  Unless required by applicable law or agreed to in writing, software
  14:D:/fchai/work/i-cube/I-CUBE-HUAWEI/Middlewares/Third_Party/Huawei/iot_link/network/dtls/mbedtls/mbedtls-2.16.2/library\asn1write.c ****  *  distributed under the License is distributed on an "AS IS" BASIS, WITHOUT
  15:D:/fchai/work/i-cube/I-CUBE-HUAWEI/Middlewares/Third_Party/Huawei/iot_link/network/dtls/mbedtls/mbedtls-2.16.2/library\asn1write.c ****  *  WARRANTIES OR CONDITIONS OF ANY KIND, either express or implied.
  16:D:/fchai/work/i-cube/I-CUBE-HUAWEI/Middlewares/Third_Party/Huawei/iot_link/network/dtls/mbedtls/mbedtls-2.16.2/library\asn1write.c ****  *  See the License for the specific language governing permissions and
  17:D:/fchai/work/i-cube/I-CUBE-HUAWEI/Middlewares/Third_Party/Huawei/iot_link/network/dtls/mbedtls/mbedtls-2.16.2/library\asn1write.c ****  *  limitations under the License.
  18:D:/fchai/work/i-cube/I-CUBE-HUAWEI/Middlewares/Third_Party/Huawei/iot_link/network/dtls/mbedtls/mbedtls-2.16.2/library\asn1write.c ****  *
  19:D:/fchai/work/i-cube/I-CUBE-HUAWEI/Middlewares/Third_Party/Huawei/iot_link/network/dtls/mbedtls/mbedtls-2.16.2/library\asn1write.c ****  *  This file is part of mbed TLS (https://tls.mbed.org)
  20:D:/fchai/work/i-cube/I-CUBE-HUAWEI/Middlewares/Third_Party/Huawei/iot_link/network/dtls/mbedtls/mbedtls-2.16.2/library\asn1write.c ****  */
  21:D:/fchai/work/i-cube/I-CUBE-HUAWEI/Middlewares/Third_Party/Huawei/iot_link/network/dtls/mbedtls/mbedtls-2.16.2/library\asn1write.c **** 
  22:D:/fchai/work/i-cube/I-CUBE-HUAWEI/Middlewares/Third_Party/Huawei/iot_link/network/dtls/mbedtls/mbedtls-2.16.2/library\asn1write.c **** #if !defined(MBEDTLS_CONFIG_FILE)
  23:D:/fchai/work/i-cube/I-CUBE-HUAWEI/Middlewares/Third_Party/Huawei/iot_link/network/dtls/mbedtls/mbedtls-2.16.2/library\asn1write.c **** #include "mbedtls/config.h"
  24:D:/fchai/work/i-cube/I-CUBE-HUAWEI/Middlewares/Third_Party/Huawei/iot_link/network/dtls/mbedtls/mbedtls-2.16.2/library\asn1write.c **** #else
  25:D:/fchai/work/i-cube/I-CUBE-HUAWEI/Middlewares/Third_Party/Huawei/iot_link/network/dtls/mbedtls/mbedtls-2.16.2/library\asn1write.c **** #include MBEDTLS_CONFIG_FILE
  26:D:/fchai/work/i-cube/I-CUBE-HUAWEI/Middlewares/Third_Party/Huawei/iot_link/network/dtls/mbedtls/mbedtls-2.16.2/library\asn1write.c **** #endif
  27:D:/fchai/work/i-cube/I-CUBE-HUAWEI/Middlewares/Third_Party/Huawei/iot_link/network/dtls/mbedtls/mbedtls-2.16.2/library\asn1write.c **** 
  28:D:/fchai/work/i-cube/I-CUBE-HUAWEI/Middlewares/Third_Party/Huawei/iot_link/network/dtls/mbedtls/mbedtls-2.16.2/library\asn1write.c **** #if defined(MBEDTLS_ASN1_WRITE_C)
ARM GAS  T:\msys\tmp\ccoyqwkK.s 			page 2


  29:D:/fchai/work/i-cube/I-CUBE-HUAWEI/Middlewares/Third_Party/Huawei/iot_link/network/dtls/mbedtls/mbedtls-2.16.2/library\asn1write.c **** 
  30:D:/fchai/work/i-cube/I-CUBE-HUAWEI/Middlewares/Third_Party/Huawei/iot_link/network/dtls/mbedtls/mbedtls-2.16.2/library\asn1write.c **** #include "mbedtls/asn1write.h"
  31:D:/fchai/work/i-cube/I-CUBE-HUAWEI/Middlewares/Third_Party/Huawei/iot_link/network/dtls/mbedtls/mbedtls-2.16.2/library\asn1write.c **** 
  32:D:/fchai/work/i-cube/I-CUBE-HUAWEI/Middlewares/Third_Party/Huawei/iot_link/network/dtls/mbedtls/mbedtls-2.16.2/library\asn1write.c **** #include <string.h>
  33:D:/fchai/work/i-cube/I-CUBE-HUAWEI/Middlewares/Third_Party/Huawei/iot_link/network/dtls/mbedtls/mbedtls-2.16.2/library\asn1write.c **** 
  34:D:/fchai/work/i-cube/I-CUBE-HUAWEI/Middlewares/Third_Party/Huawei/iot_link/network/dtls/mbedtls/mbedtls-2.16.2/library\asn1write.c **** #if defined(MBEDTLS_PLATFORM_C)
  35:D:/fchai/work/i-cube/I-CUBE-HUAWEI/Middlewares/Third_Party/Huawei/iot_link/network/dtls/mbedtls/mbedtls-2.16.2/library\asn1write.c **** #include "mbedtls/platform.h"
  36:D:/fchai/work/i-cube/I-CUBE-HUAWEI/Middlewares/Third_Party/Huawei/iot_link/network/dtls/mbedtls/mbedtls-2.16.2/library\asn1write.c **** #else
  37:D:/fchai/work/i-cube/I-CUBE-HUAWEI/Middlewares/Third_Party/Huawei/iot_link/network/dtls/mbedtls/mbedtls-2.16.2/library\asn1write.c **** #include <stdlib.h>
  38:D:/fchai/work/i-cube/I-CUBE-HUAWEI/Middlewares/Third_Party/Huawei/iot_link/network/dtls/mbedtls/mbedtls-2.16.2/library\asn1write.c **** #define mbedtls_calloc    calloc
  39:D:/fchai/work/i-cube/I-CUBE-HUAWEI/Middlewares/Third_Party/Huawei/iot_link/network/dtls/mbedtls/mbedtls-2.16.2/library\asn1write.c **** #define mbedtls_free       free
  40:D:/fchai/work/i-cube/I-CUBE-HUAWEI/Middlewares/Third_Party/Huawei/iot_link/network/dtls/mbedtls/mbedtls-2.16.2/library\asn1write.c **** #endif
  41:D:/fchai/work/i-cube/I-CUBE-HUAWEI/Middlewares/Third_Party/Huawei/iot_link/network/dtls/mbedtls/mbedtls-2.16.2/library\asn1write.c **** 
  42:D:/fchai/work/i-cube/I-CUBE-HUAWEI/Middlewares/Third_Party/Huawei/iot_link/network/dtls/mbedtls/mbedtls-2.16.2/library\asn1write.c **** int mbedtls_asn1_write_len( unsigned char **p, unsigned char *start, size_t len )
  43:D:/fchai/work/i-cube/I-CUBE-HUAWEI/Middlewares/Third_Party/Huawei/iot_link/network/dtls/mbedtls/mbedtls-2.16.2/library\asn1write.c **** {
  31              		.loc 1 43 1 view -0
  32              		.cfi_startproc
  33              		@ args = 0, pretend = 0, frame = 0
  34              		@ frame_needed = 0, uses_anonymous_args = 0
  35              		@ link register save eliminated.
  44:D:/fchai/work/i-cube/I-CUBE-HUAWEI/Middlewares/Third_Party/Huawei/iot_link/network/dtls/mbedtls/mbedtls-2.16.2/library\asn1write.c ****     if( len < 0x80 )
  36              		.loc 1 44 5 view .LVU1
  37              		.loc 1 44 7 is_stmt 0 view .LVU2
  38 0000 7F2A     		cmp	r2, #127
  39 0002 09D8     		bhi	.L2
  45:D:/fchai/work/i-cube/I-CUBE-HUAWEI/Middlewares/Third_Party/Huawei/iot_link/network/dtls/mbedtls/mbedtls-2.16.2/library\asn1write.c ****     {
  46:D:/fchai/work/i-cube/I-CUBE-HUAWEI/Middlewares/Third_Party/Huawei/iot_link/network/dtls/mbedtls/mbedtls-2.16.2/library\asn1write.c ****         if( *p - start < 1 )
  40              		.loc 1 46 9 is_stmt 1 view .LVU3
  41              		.loc 1 46 13 is_stmt 0 view .LVU4
  42 0004 0368     		ldr	r3, [r0]
  43              		.loc 1 46 16 view .LVU5
  44 0006 591A     		subs	r1, r3, r1
  45              	.LVL1:
  46              		.loc 1 46 11 view .LVU6
  47 0008 0029     		cmp	r1, #0
  48 000a 73DD     		ble	.L9
  47:D:/fchai/work/i-cube/I-CUBE-HUAWEI/Middlewares/Third_Party/Huawei/iot_link/network/dtls/mbedtls/mbedtls-2.16.2/library\asn1write.c ****             return( MBEDTLS_ERR_ASN1_BUF_TOO_SMALL );
  48:D:/fchai/work/i-cube/I-CUBE-HUAWEI/Middlewares/Third_Party/Huawei/iot_link/network/dtls/mbedtls/mbedtls-2.16.2/library\asn1write.c **** 
  49:D:/fchai/work/i-cube/I-CUBE-HUAWEI/Middlewares/Third_Party/Huawei/iot_link/network/dtls/mbedtls/mbedtls-2.16.2/library\asn1write.c ****         *--(*p) = (unsigned char) len;
  49              		.loc 1 49 9 is_stmt 1 view .LVU7
  50              		.loc 1 49 10 is_stmt 0 view .LVU8
  51 000c 591E     		subs	r1, r3, #1
  52              		.loc 1 49 17 view .LVU9
  53 000e 0160     		str	r1, [r0]
  50:D:/fchai/work/i-cube/I-CUBE-HUAWEI/Middlewares/Third_Party/Huawei/iot_link/network/dtls/mbedtls/mbedtls-2.16.2/library\asn1write.c ****         return( 1 );
  54              		.loc 1 50 15 view .LVU10
  55 0010 0120     		movs	r0, #1
  56              	.LVL2:
  49:D:/fchai/work/i-cube/I-CUBE-HUAWEI/Middlewares/Third_Party/Huawei/iot_link/network/dtls/mbedtls/mbedtls-2.16.2/library\asn1write.c ****         return( 1 );
  57              		.loc 1 49 19 view .LVU11
  58 0012 03F8012C 		strb	r2, [r3, #-1]
  59              		.loc 1 50 9 is_stmt 1 view .LVU12
  60              		.loc 1 50 15 is_stmt 0 view .LVU13
  61 0016 7047     		bx	lr
  62              	.LVL3:
  63              	.L2:
  51:D:/fchai/work/i-cube/I-CUBE-HUAWEI/Middlewares/Third_Party/Huawei/iot_link/network/dtls/mbedtls/mbedtls-2.16.2/library\asn1write.c ****     }
ARM GAS  T:\msys\tmp\ccoyqwkK.s 			page 3


  52:D:/fchai/work/i-cube/I-CUBE-HUAWEI/Middlewares/Third_Party/Huawei/iot_link/network/dtls/mbedtls/mbedtls-2.16.2/library\asn1write.c **** 
  53:D:/fchai/work/i-cube/I-CUBE-HUAWEI/Middlewares/Third_Party/Huawei/iot_link/network/dtls/mbedtls/mbedtls-2.16.2/library\asn1write.c ****     if( len <= 0xFF )
  64              		.loc 1 53 5 is_stmt 1 view .LVU14
  65              		.loc 1 53 7 is_stmt 0 view .LVU15
  66 0018 FF2A     		cmp	r2, #255
  67 001a 0FD8     		bhi	.L4
  54:D:/fchai/work/i-cube/I-CUBE-HUAWEI/Middlewares/Third_Party/Huawei/iot_link/network/dtls/mbedtls/mbedtls-2.16.2/library\asn1write.c ****     {
  55:D:/fchai/work/i-cube/I-CUBE-HUAWEI/Middlewares/Third_Party/Huawei/iot_link/network/dtls/mbedtls/mbedtls-2.16.2/library\asn1write.c ****         if( *p - start < 2 )
  68              		.loc 1 55 9 is_stmt 1 view .LVU16
  69              		.loc 1 55 13 is_stmt 0 view .LVU17
  70 001c 0368     		ldr	r3, [r0]
  71              		.loc 1 55 16 view .LVU18
  72 001e 591A     		subs	r1, r3, r1
  73              	.LVL4:
  74              		.loc 1 55 11 view .LVU19
  75 0020 0129     		cmp	r1, #1
  76 0022 67DD     		ble	.L9
  56:D:/fchai/work/i-cube/I-CUBE-HUAWEI/Middlewares/Third_Party/Huawei/iot_link/network/dtls/mbedtls/mbedtls-2.16.2/library\asn1write.c ****             return( MBEDTLS_ERR_ASN1_BUF_TOO_SMALL );
  57:D:/fchai/work/i-cube/I-CUBE-HUAWEI/Middlewares/Third_Party/Huawei/iot_link/network/dtls/mbedtls/mbedtls-2.16.2/library\asn1write.c **** 
  58:D:/fchai/work/i-cube/I-CUBE-HUAWEI/Middlewares/Third_Party/Huawei/iot_link/network/dtls/mbedtls/mbedtls-2.16.2/library\asn1write.c ****         *--(*p) = (unsigned char) len;
  77              		.loc 1 58 9 is_stmt 1 view .LVU20
  78              		.loc 1 58 10 is_stmt 0 view .LVU21
  79 0024 591E     		subs	r1, r3, #1
  80              		.loc 1 58 17 view .LVU22
  81 0026 0160     		str	r1, [r0]
  82              		.loc 1 58 19 view .LVU23
  83 0028 03F8012C 		strb	r2, [r3, #-1]
  59:D:/fchai/work/i-cube/I-CUBE-HUAWEI/Middlewares/Third_Party/Huawei/iot_link/network/dtls/mbedtls/mbedtls-2.16.2/library\asn1write.c ****         *--(*p) = 0x81;
  84              		.loc 1 59 9 is_stmt 1 view .LVU24
  85              		.loc 1 59 13 is_stmt 0 view .LVU25
  86 002c 0368     		ldr	r3, [r0]
  87              		.loc 1 59 17 view .LVU26
  88 002e 8122     		movs	r2, #129
  89              	.LVL5:
  90              		.loc 1 59 10 view .LVU27
  91 0030 591E     		subs	r1, r3, #1
  92              		.loc 1 59 17 view .LVU28
  93 0032 0160     		str	r1, [r0]
  60:D:/fchai/work/i-cube/I-CUBE-HUAWEI/Middlewares/Third_Party/Huawei/iot_link/network/dtls/mbedtls/mbedtls-2.16.2/library\asn1write.c ****         return( 2 );
  94              		.loc 1 60 15 view .LVU29
  95 0034 0220     		movs	r0, #2
  96              	.LVL6:
  59:D:/fchai/work/i-cube/I-CUBE-HUAWEI/Middlewares/Third_Party/Huawei/iot_link/network/dtls/mbedtls/mbedtls-2.16.2/library\asn1write.c ****         *--(*p) = 0x81;
  97              		.loc 1 59 17 view .LVU30
  98 0036 03F8012C 		strb	r2, [r3, #-1]
  99              		.loc 1 60 9 is_stmt 1 view .LVU31
 100              		.loc 1 60 15 is_stmt 0 view .LVU32
 101 003a 7047     		bx	lr
 102              	.LVL7:
 103              	.L4:
 104              	.LBB44:
 105              	.LBI44:
  42:D:/fchai/work/i-cube/I-CUBE-HUAWEI/Middlewares/Third_Party/Huawei/iot_link/network/dtls/mbedtls/mbedtls-2.16.2/library\asn1write.c **** {
 106              		.loc 1 42 5 is_stmt 1 view .LVU33
 107              	.LBB45:
  61:D:/fchai/work/i-cube/I-CUBE-HUAWEI/Middlewares/Third_Party/Huawei/iot_link/network/dtls/mbedtls/mbedtls-2.16.2/library\asn1write.c ****     }
  62:D:/fchai/work/i-cube/I-CUBE-HUAWEI/Middlewares/Third_Party/Huawei/iot_link/network/dtls/mbedtls/mbedtls-2.16.2/library\asn1write.c **** 
ARM GAS  T:\msys\tmp\ccoyqwkK.s 			page 4


  63:D:/fchai/work/i-cube/I-CUBE-HUAWEI/Middlewares/Third_Party/Huawei/iot_link/network/dtls/mbedtls/mbedtls-2.16.2/library\asn1write.c ****     if( len <= 0xFFFF )
 108              		.loc 1 63 5 view .LVU34
 109              		.loc 1 63 7 is_stmt 0 view .LVU35
 110 003c B2F5803F 		cmp	r2, #65536
 111 0040 22D3     		bcc	.L16
  64:D:/fchai/work/i-cube/I-CUBE-HUAWEI/Middlewares/Third_Party/Huawei/iot_link/network/dtls/mbedtls/mbedtls-2.16.2/library\asn1write.c ****     {
  65:D:/fchai/work/i-cube/I-CUBE-HUAWEI/Middlewares/Third_Party/Huawei/iot_link/network/dtls/mbedtls/mbedtls-2.16.2/library\asn1write.c ****         if( *p - start < 3 )
  66:D:/fchai/work/i-cube/I-CUBE-HUAWEI/Middlewares/Third_Party/Huawei/iot_link/network/dtls/mbedtls/mbedtls-2.16.2/library\asn1write.c ****             return( MBEDTLS_ERR_ASN1_BUF_TOO_SMALL );
  67:D:/fchai/work/i-cube/I-CUBE-HUAWEI/Middlewares/Third_Party/Huawei/iot_link/network/dtls/mbedtls/mbedtls-2.16.2/library\asn1write.c **** 
  68:D:/fchai/work/i-cube/I-CUBE-HUAWEI/Middlewares/Third_Party/Huawei/iot_link/network/dtls/mbedtls/mbedtls-2.16.2/library\asn1write.c ****         *--(*p) = ( len       ) & 0xFF;
  69:D:/fchai/work/i-cube/I-CUBE-HUAWEI/Middlewares/Third_Party/Huawei/iot_link/network/dtls/mbedtls/mbedtls-2.16.2/library\asn1write.c ****         *--(*p) = ( len >>  8 ) & 0xFF;
  70:D:/fchai/work/i-cube/I-CUBE-HUAWEI/Middlewares/Third_Party/Huawei/iot_link/network/dtls/mbedtls/mbedtls-2.16.2/library\asn1write.c ****         *--(*p) = 0x82;
  71:D:/fchai/work/i-cube/I-CUBE-HUAWEI/Middlewares/Third_Party/Huawei/iot_link/network/dtls/mbedtls/mbedtls-2.16.2/library\asn1write.c ****         return( 3 );
  72:D:/fchai/work/i-cube/I-CUBE-HUAWEI/Middlewares/Third_Party/Huawei/iot_link/network/dtls/mbedtls/mbedtls-2.16.2/library\asn1write.c ****     }
  73:D:/fchai/work/i-cube/I-CUBE-HUAWEI/Middlewares/Third_Party/Huawei/iot_link/network/dtls/mbedtls/mbedtls-2.16.2/library\asn1write.c **** 
  74:D:/fchai/work/i-cube/I-CUBE-HUAWEI/Middlewares/Third_Party/Huawei/iot_link/network/dtls/mbedtls/mbedtls-2.16.2/library\asn1write.c ****     if( len <= 0xFFFFFF )
 112              		.loc 1 74 5 is_stmt 1 view .LVU36
  75:D:/fchai/work/i-cube/I-CUBE-HUAWEI/Middlewares/Third_Party/Huawei/iot_link/network/dtls/mbedtls/mbedtls-2.16.2/library\asn1write.c ****     {
  76:D:/fchai/work/i-cube/I-CUBE-HUAWEI/Middlewares/Third_Party/Huawei/iot_link/network/dtls/mbedtls/mbedtls-2.16.2/library\asn1write.c ****         if( *p - start < 4 )
 113              		.loc 1 76 13 is_stmt 0 view .LVU37
 114 0042 0368     		ldr	r3, [r0]
  74:D:/fchai/work/i-cube/I-CUBE-HUAWEI/Middlewares/Third_Party/Huawei/iot_link/network/dtls/mbedtls/mbedtls-2.16.2/library\asn1write.c ****     {
 115              		.loc 1 74 7 view .LVU38
 116 0044 B2F1807F 		cmp	r2, #16777216
 117              	.LBE45:
 118              	.LBE44:
  43:D:/fchai/work/i-cube/I-CUBE-HUAWEI/Middlewares/Third_Party/Huawei/iot_link/network/dtls/mbedtls/mbedtls-2.16.2/library\asn1write.c ****     if( len < 0x80 )
 119              		.loc 1 43 1 view .LVU39
 120 0048 10B4     		push	{r4}
 121              	.LCFI0:
 122              		.cfi_def_cfa_offset 4
 123              		.cfi_offset 4, -4
 124              	.LBB48:
 125              	.LBB46:
 126              		.loc 1 76 16 view .LVU40
 127 004a A3EB0101 		sub	r1, r3, r1
 128              	.LVL8:
  74:D:/fchai/work/i-cube/I-CUBE-HUAWEI/Middlewares/Third_Party/Huawei/iot_link/network/dtls/mbedtls/mbedtls-2.16.2/library\asn1write.c ****     {
 129              		.loc 1 74 7 view .LVU41
 130 004e 31D2     		bcs	.L6
 131              		.loc 1 76 9 is_stmt 1 view .LVU42
 132              		.loc 1 76 11 is_stmt 0 view .LVU43
 133 0050 0329     		cmp	r1, #3
 134 0052 52DD     		ble	.L11
  77:D:/fchai/work/i-cube/I-CUBE-HUAWEI/Middlewares/Third_Party/Huawei/iot_link/network/dtls/mbedtls/mbedtls-2.16.2/library\asn1write.c ****             return( MBEDTLS_ERR_ASN1_BUF_TOO_SMALL );
  78:D:/fchai/work/i-cube/I-CUBE-HUAWEI/Middlewares/Third_Party/Huawei/iot_link/network/dtls/mbedtls/mbedtls-2.16.2/library\asn1write.c **** 
  79:D:/fchai/work/i-cube/I-CUBE-HUAWEI/Middlewares/Third_Party/Huawei/iot_link/network/dtls/mbedtls/mbedtls-2.16.2/library\asn1write.c ****         *--(*p) = ( len       ) & 0xFF;
 135              		.loc 1 79 9 is_stmt 1 view .LVU44
 136              		.loc 1 79 10 is_stmt 0 view .LVU45
 137 0054 591E     		subs	r1, r3, #1
 138              		.loc 1 79 17 view .LVU46
 139 0056 0160     		str	r1, [r0]
 140 0058 03F8012C 		strb	r2, [r3, #-1]
  80:D:/fchai/work/i-cube/I-CUBE-HUAWEI/Middlewares/Third_Party/Huawei/iot_link/network/dtls/mbedtls/mbedtls-2.16.2/library\asn1write.c ****         *--(*p) = ( len >>  8 ) & 0xFF;
 141              		.loc 1 80 9 is_stmt 1 view .LVU47
 142              		.loc 1 80 13 is_stmt 0 view .LVU48
 143 005c 0368     		ldr	r3, [r0]
ARM GAS  T:\msys\tmp\ccoyqwkK.s 			page 5


 144              		.loc 1 80 25 view .LVU49
 145 005e 110A     		lsrs	r1, r2, #8
 146              		.loc 1 80 10 view .LVU50
 147 0060 5C1E     		subs	r4, r3, #1
 148              		.loc 1 80 17 view .LVU51
 149 0062 0460     		str	r4, [r0]
 150 0064 03F8011C 		strb	r1, [r3, #-1]
  81:D:/fchai/work/i-cube/I-CUBE-HUAWEI/Middlewares/Third_Party/Huawei/iot_link/network/dtls/mbedtls/mbedtls-2.16.2/library\asn1write.c ****         *--(*p) = ( len >> 16 ) & 0xFF;
 151              		.loc 1 81 9 is_stmt 1 view .LVU52
 152              		.loc 1 81 13 is_stmt 0 view .LVU53
 153 0068 0168     		ldr	r1, [r0]
 154              		.loc 1 81 25 view .LVU54
 155 006a 130C     		lsrs	r3, r2, #16
 156              		.loc 1 81 10 view .LVU55
 157 006c 4A1E     		subs	r2, r1, #1
 158              	.LVL9:
 159              		.loc 1 81 17 view .LVU56
 160 006e 0260     		str	r2, [r0]
 161 0070 01F8013C 		strb	r3, [r1, #-1]
  82:D:/fchai/work/i-cube/I-CUBE-HUAWEI/Middlewares/Third_Party/Huawei/iot_link/network/dtls/mbedtls/mbedtls-2.16.2/library\asn1write.c ****         *--(*p) = 0x83;
 162              		.loc 1 82 9 is_stmt 1 view .LVU57
 163              		.loc 1 82 13 is_stmt 0 view .LVU58
 164 0074 0368     		ldr	r3, [r0]
 165              		.loc 1 82 17 view .LVU59
 166 0076 8322     		movs	r2, #131
 167              		.loc 1 82 10 view .LVU60
 168 0078 591E     		subs	r1, r3, #1
 169              		.loc 1 82 17 view .LVU61
 170 007a 0160     		str	r1, [r0]
  83:D:/fchai/work/i-cube/I-CUBE-HUAWEI/Middlewares/Third_Party/Huawei/iot_link/network/dtls/mbedtls/mbedtls-2.16.2/library\asn1write.c ****         return( 4 );
 171              		.loc 1 83 15 view .LVU62
 172 007c 0420     		movs	r0, #4
 173              	.LVL10:
  82:D:/fchai/work/i-cube/I-CUBE-HUAWEI/Middlewares/Third_Party/Huawei/iot_link/network/dtls/mbedtls/mbedtls-2.16.2/library\asn1write.c ****         *--(*p) = 0x83;
 174              		.loc 1 82 17 view .LVU63
 175 007e 03F8012C 		strb	r2, [r3, #-1]
 176              		.loc 1 83 9 is_stmt 1 view .LVU64
 177              	.LVL11:
 178              	.L1:
 179              		.loc 1 83 9 is_stmt 0 view .LVU65
 180              	.LBE46:
 181              	.LBE48:
  84:D:/fchai/work/i-cube/I-CUBE-HUAWEI/Middlewares/Third_Party/Huawei/iot_link/network/dtls/mbedtls/mbedtls-2.16.2/library\asn1write.c ****     }
  85:D:/fchai/work/i-cube/I-CUBE-HUAWEI/Middlewares/Third_Party/Huawei/iot_link/network/dtls/mbedtls/mbedtls-2.16.2/library\asn1write.c **** 
  86:D:/fchai/work/i-cube/I-CUBE-HUAWEI/Middlewares/Third_Party/Huawei/iot_link/network/dtls/mbedtls/mbedtls-2.16.2/library\asn1write.c **** #if SIZE_MAX > 0xFFFFFFFF
  87:D:/fchai/work/i-cube/I-CUBE-HUAWEI/Middlewares/Third_Party/Huawei/iot_link/network/dtls/mbedtls/mbedtls-2.16.2/library\asn1write.c ****     if( len <= 0xFFFFFFFF )
  88:D:/fchai/work/i-cube/I-CUBE-HUAWEI/Middlewares/Third_Party/Huawei/iot_link/network/dtls/mbedtls/mbedtls-2.16.2/library\asn1write.c **** #endif
  89:D:/fchai/work/i-cube/I-CUBE-HUAWEI/Middlewares/Third_Party/Huawei/iot_link/network/dtls/mbedtls/mbedtls-2.16.2/library\asn1write.c ****     {
  90:D:/fchai/work/i-cube/I-CUBE-HUAWEI/Middlewares/Third_Party/Huawei/iot_link/network/dtls/mbedtls/mbedtls-2.16.2/library\asn1write.c ****         if( *p - start < 5 )
  91:D:/fchai/work/i-cube/I-CUBE-HUAWEI/Middlewares/Third_Party/Huawei/iot_link/network/dtls/mbedtls/mbedtls-2.16.2/library\asn1write.c ****             return( MBEDTLS_ERR_ASN1_BUF_TOO_SMALL );
  92:D:/fchai/work/i-cube/I-CUBE-HUAWEI/Middlewares/Third_Party/Huawei/iot_link/network/dtls/mbedtls/mbedtls-2.16.2/library\asn1write.c **** 
  93:D:/fchai/work/i-cube/I-CUBE-HUAWEI/Middlewares/Third_Party/Huawei/iot_link/network/dtls/mbedtls/mbedtls-2.16.2/library\asn1write.c ****         *--(*p) = ( len       ) & 0xFF;
  94:D:/fchai/work/i-cube/I-CUBE-HUAWEI/Middlewares/Third_Party/Huawei/iot_link/network/dtls/mbedtls/mbedtls-2.16.2/library\asn1write.c ****         *--(*p) = ( len >>  8 ) & 0xFF;
  95:D:/fchai/work/i-cube/I-CUBE-HUAWEI/Middlewares/Third_Party/Huawei/iot_link/network/dtls/mbedtls/mbedtls-2.16.2/library\asn1write.c ****         *--(*p) = ( len >> 16 ) & 0xFF;
  96:D:/fchai/work/i-cube/I-CUBE-HUAWEI/Middlewares/Third_Party/Huawei/iot_link/network/dtls/mbedtls/mbedtls-2.16.2/library\asn1write.c ****         *--(*p) = ( len >> 24 ) & 0xFF;
  97:D:/fchai/work/i-cube/I-CUBE-HUAWEI/Middlewares/Third_Party/Huawei/iot_link/network/dtls/mbedtls/mbedtls-2.16.2/library\asn1write.c ****         *--(*p) = 0x84;
  98:D:/fchai/work/i-cube/I-CUBE-HUAWEI/Middlewares/Third_Party/Huawei/iot_link/network/dtls/mbedtls/mbedtls-2.16.2/library\asn1write.c ****         return( 5 );
ARM GAS  T:\msys\tmp\ccoyqwkK.s 			page 6


  99:D:/fchai/work/i-cube/I-CUBE-HUAWEI/Middlewares/Third_Party/Huawei/iot_link/network/dtls/mbedtls/mbedtls-2.16.2/library\asn1write.c ****     }
 100:D:/fchai/work/i-cube/I-CUBE-HUAWEI/Middlewares/Third_Party/Huawei/iot_link/network/dtls/mbedtls/mbedtls-2.16.2/library\asn1write.c **** 
 101:D:/fchai/work/i-cube/I-CUBE-HUAWEI/Middlewares/Third_Party/Huawei/iot_link/network/dtls/mbedtls/mbedtls-2.16.2/library\asn1write.c **** #if SIZE_MAX > 0xFFFFFFFF
 102:D:/fchai/work/i-cube/I-CUBE-HUAWEI/Middlewares/Third_Party/Huawei/iot_link/network/dtls/mbedtls/mbedtls-2.16.2/library\asn1write.c ****     return( MBEDTLS_ERR_ASN1_INVALID_LENGTH );
 103:D:/fchai/work/i-cube/I-CUBE-HUAWEI/Middlewares/Third_Party/Huawei/iot_link/network/dtls/mbedtls/mbedtls-2.16.2/library\asn1write.c **** #endif
 104:D:/fchai/work/i-cube/I-CUBE-HUAWEI/Middlewares/Third_Party/Huawei/iot_link/network/dtls/mbedtls/mbedtls-2.16.2/library\asn1write.c **** }
 182              		.loc 1 104 1 view .LVU66
 183 0082 5DF8044B 		ldr	r4, [sp], #4
 184              	.LCFI1:
 185              		.cfi_restore 4
 186              		.cfi_def_cfa_offset 0
 187 0086 7047     		bx	lr
 188              	.LVL12:
 189              	.L16:
 190              	.LBB49:
 191              	.LBB47:
  65:D:/fchai/work/i-cube/I-CUBE-HUAWEI/Middlewares/Third_Party/Huawei/iot_link/network/dtls/mbedtls/mbedtls-2.16.2/library\asn1write.c ****             return( MBEDTLS_ERR_ASN1_BUF_TOO_SMALL );
 192              		.loc 1 65 9 is_stmt 1 view .LVU67
  65:D:/fchai/work/i-cube/I-CUBE-HUAWEI/Middlewares/Third_Party/Huawei/iot_link/network/dtls/mbedtls/mbedtls-2.16.2/library\asn1write.c ****             return( MBEDTLS_ERR_ASN1_BUF_TOO_SMALL );
 193              		.loc 1 65 13 is_stmt 0 view .LVU68
 194 0088 0368     		ldr	r3, [r0]
  65:D:/fchai/work/i-cube/I-CUBE-HUAWEI/Middlewares/Third_Party/Huawei/iot_link/network/dtls/mbedtls/mbedtls-2.16.2/library\asn1write.c ****             return( MBEDTLS_ERR_ASN1_BUF_TOO_SMALL );
 195              		.loc 1 65 16 view .LVU69
 196 008a 591A     		subs	r1, r3, r1
 197              	.LVL13:
  65:D:/fchai/work/i-cube/I-CUBE-HUAWEI/Middlewares/Third_Party/Huawei/iot_link/network/dtls/mbedtls/mbedtls-2.16.2/library\asn1write.c ****             return( MBEDTLS_ERR_ASN1_BUF_TOO_SMALL );
 198              		.loc 1 65 11 view .LVU70
 199 008c 0229     		cmp	r1, #2
 200 008e 31DD     		ble	.L9
  68:D:/fchai/work/i-cube/I-CUBE-HUAWEI/Middlewares/Third_Party/Huawei/iot_link/network/dtls/mbedtls/mbedtls-2.16.2/library\asn1write.c ****         *--(*p) = ( len >>  8 ) & 0xFF;
 201              		.loc 1 68 9 is_stmt 1 view .LVU71
  68:D:/fchai/work/i-cube/I-CUBE-HUAWEI/Middlewares/Third_Party/Huawei/iot_link/network/dtls/mbedtls/mbedtls-2.16.2/library\asn1write.c ****         *--(*p) = ( len >>  8 ) & 0xFF;
 202              		.loc 1 68 10 is_stmt 0 view .LVU72
 203 0090 591E     		subs	r1, r3, #1
  68:D:/fchai/work/i-cube/I-CUBE-HUAWEI/Middlewares/Third_Party/Huawei/iot_link/network/dtls/mbedtls/mbedtls-2.16.2/library\asn1write.c ****         *--(*p) = ( len >>  8 ) & 0xFF;
 204              		.loc 1 68 17 view .LVU73
 205 0092 0160     		str	r1, [r0]
 206 0094 03F8012C 		strb	r2, [r3, #-1]
  69:D:/fchai/work/i-cube/I-CUBE-HUAWEI/Middlewares/Third_Party/Huawei/iot_link/network/dtls/mbedtls/mbedtls-2.16.2/library\asn1write.c ****         *--(*p) = 0x82;
 207              		.loc 1 69 9 is_stmt 1 view .LVU74
  69:D:/fchai/work/i-cube/I-CUBE-HUAWEI/Middlewares/Third_Party/Huawei/iot_link/network/dtls/mbedtls/mbedtls-2.16.2/library\asn1write.c ****         *--(*p) = 0x82;
 208              		.loc 1 69 13 is_stmt 0 view .LVU75
 209 0098 0168     		ldr	r1, [r0]
  69:D:/fchai/work/i-cube/I-CUBE-HUAWEI/Middlewares/Third_Party/Huawei/iot_link/network/dtls/mbedtls/mbedtls-2.16.2/library\asn1write.c ****         *--(*p) = 0x82;
 210              		.loc 1 69 25 view .LVU76
 211 009a 120A     		lsrs	r2, r2, #8
 212              	.LVL14:
  69:D:/fchai/work/i-cube/I-CUBE-HUAWEI/Middlewares/Third_Party/Huawei/iot_link/network/dtls/mbedtls/mbedtls-2.16.2/library\asn1write.c ****         *--(*p) = 0x82;
 213              		.loc 1 69 10 view .LVU77
 214 009c 4B1E     		subs	r3, r1, #1
  69:D:/fchai/work/i-cube/I-CUBE-HUAWEI/Middlewares/Third_Party/Huawei/iot_link/network/dtls/mbedtls/mbedtls-2.16.2/library\asn1write.c ****         *--(*p) = 0x82;
 215              		.loc 1 69 17 view .LVU78
 216 009e 0360     		str	r3, [r0]
 217 00a0 01F8012C 		strb	r2, [r1, #-1]
  70:D:/fchai/work/i-cube/I-CUBE-HUAWEI/Middlewares/Third_Party/Huawei/iot_link/network/dtls/mbedtls/mbedtls-2.16.2/library\asn1write.c ****         return( 3 );
 218              		.loc 1 70 9 is_stmt 1 view .LVU79
  70:D:/fchai/work/i-cube/I-CUBE-HUAWEI/Middlewares/Third_Party/Huawei/iot_link/network/dtls/mbedtls/mbedtls-2.16.2/library\asn1write.c ****         return( 3 );
ARM GAS  T:\msys\tmp\ccoyqwkK.s 			page 7


 219              		.loc 1 70 13 is_stmt 0 view .LVU80
 220 00a4 0368     		ldr	r3, [r0]
  70:D:/fchai/work/i-cube/I-CUBE-HUAWEI/Middlewares/Third_Party/Huawei/iot_link/network/dtls/mbedtls/mbedtls-2.16.2/library\asn1write.c ****         return( 3 );
 221              		.loc 1 70 17 view .LVU81
 222 00a6 8222     		movs	r2, #130
  70:D:/fchai/work/i-cube/I-CUBE-HUAWEI/Middlewares/Third_Party/Huawei/iot_link/network/dtls/mbedtls/mbedtls-2.16.2/library\asn1write.c ****         return( 3 );
 223              		.loc 1 70 10 view .LVU82
 224 00a8 591E     		subs	r1, r3, #1
  70:D:/fchai/work/i-cube/I-CUBE-HUAWEI/Middlewares/Third_Party/Huawei/iot_link/network/dtls/mbedtls/mbedtls-2.16.2/library\asn1write.c ****         return( 3 );
 225              		.loc 1 70 17 view .LVU83
 226 00aa 0160     		str	r1, [r0]
  71:D:/fchai/work/i-cube/I-CUBE-HUAWEI/Middlewares/Third_Party/Huawei/iot_link/network/dtls/mbedtls/mbedtls-2.16.2/library\asn1write.c ****     }
 227              		.loc 1 71 15 view .LVU84
 228 00ac 0320     		movs	r0, #3
 229              	.LVL15:
  70:D:/fchai/work/i-cube/I-CUBE-HUAWEI/Middlewares/Third_Party/Huawei/iot_link/network/dtls/mbedtls/mbedtls-2.16.2/library\asn1write.c ****         return( 3 );
 230              		.loc 1 70 17 view .LVU85
 231 00ae 03F8012C 		strb	r2, [r3, #-1]
  71:D:/fchai/work/i-cube/I-CUBE-HUAWEI/Middlewares/Third_Party/Huawei/iot_link/network/dtls/mbedtls/mbedtls-2.16.2/library\asn1write.c ****     }
 232              		.loc 1 71 9 is_stmt 1 view .LVU86
  71:D:/fchai/work/i-cube/I-CUBE-HUAWEI/Middlewares/Third_Party/Huawei/iot_link/network/dtls/mbedtls/mbedtls-2.16.2/library\asn1write.c ****     }
 233              		.loc 1 71 15 is_stmt 0 view .LVU87
 234 00b2 7047     		bx	lr
 235              	.LVL16:
 236              	.L6:
 237              	.LCFI2:
 238              		.cfi_def_cfa_offset 4
 239              		.cfi_offset 4, -4
  90:D:/fchai/work/i-cube/I-CUBE-HUAWEI/Middlewares/Third_Party/Huawei/iot_link/network/dtls/mbedtls/mbedtls-2.16.2/library\asn1write.c ****             return( MBEDTLS_ERR_ASN1_BUF_TOO_SMALL );
 240              		.loc 1 90 9 is_stmt 1 view .LVU88
  90:D:/fchai/work/i-cube/I-CUBE-HUAWEI/Middlewares/Third_Party/Huawei/iot_link/network/dtls/mbedtls/mbedtls-2.16.2/library\asn1write.c ****             return( MBEDTLS_ERR_ASN1_BUF_TOO_SMALL );
 241              		.loc 1 90 11 is_stmt 0 view .LVU89
 242 00b4 0429     		cmp	r1, #4
 243 00b6 20DD     		ble	.L11
  93:D:/fchai/work/i-cube/I-CUBE-HUAWEI/Middlewares/Third_Party/Huawei/iot_link/network/dtls/mbedtls/mbedtls-2.16.2/library\asn1write.c ****         *--(*p) = ( len >>  8 ) & 0xFF;
 244              		.loc 1 93 9 is_stmt 1 view .LVU90
  93:D:/fchai/work/i-cube/I-CUBE-HUAWEI/Middlewares/Third_Party/Huawei/iot_link/network/dtls/mbedtls/mbedtls-2.16.2/library\asn1write.c ****         *--(*p) = ( len >>  8 ) & 0xFF;
 245              		.loc 1 93 10 is_stmt 0 view .LVU91
 246 00b8 591E     		subs	r1, r3, #1
  93:D:/fchai/work/i-cube/I-CUBE-HUAWEI/Middlewares/Third_Party/Huawei/iot_link/network/dtls/mbedtls/mbedtls-2.16.2/library\asn1write.c ****         *--(*p) = ( len >>  8 ) & 0xFF;
 247              		.loc 1 93 17 view .LVU92
 248 00ba 0160     		str	r1, [r0]
 249 00bc 03F8012C 		strb	r2, [r3, #-1]
  94:D:/fchai/work/i-cube/I-CUBE-HUAWEI/Middlewares/Third_Party/Huawei/iot_link/network/dtls/mbedtls/mbedtls-2.16.2/library\asn1write.c ****         *--(*p) = ( len >> 16 ) & 0xFF;
 250              		.loc 1 94 9 is_stmt 1 view .LVU93
  94:D:/fchai/work/i-cube/I-CUBE-HUAWEI/Middlewares/Third_Party/Huawei/iot_link/network/dtls/mbedtls/mbedtls-2.16.2/library\asn1write.c ****         *--(*p) = ( len >> 16 ) & 0xFF;
 251              		.loc 1 94 13 is_stmt 0 view .LVU94
 252 00c0 0368     		ldr	r3, [r0]
  94:D:/fchai/work/i-cube/I-CUBE-HUAWEI/Middlewares/Third_Party/Huawei/iot_link/network/dtls/mbedtls/mbedtls-2.16.2/library\asn1write.c ****         *--(*p) = ( len >> 16 ) & 0xFF;
 253              		.loc 1 94 25 view .LVU95
 254 00c2 110A     		lsrs	r1, r2, #8
  94:D:/fchai/work/i-cube/I-CUBE-HUAWEI/Middlewares/Third_Party/Huawei/iot_link/network/dtls/mbedtls/mbedtls-2.16.2/library\asn1write.c ****         *--(*p) = ( len >> 16 ) & 0xFF;
 255              		.loc 1 94 10 view .LVU96
 256 00c4 5C1E     		subs	r4, r3, #1
  94:D:/fchai/work/i-cube/I-CUBE-HUAWEI/Middlewares/Third_Party/Huawei/iot_link/network/dtls/mbedtls/mbedtls-2.16.2/library\asn1write.c ****         *--(*p) = ( len >> 16 ) & 0xFF;
 257              		.loc 1 94 17 view .LVU97
 258 00c6 0460     		str	r4, [r0]
ARM GAS  T:\msys\tmp\ccoyqwkK.s 			page 8


 259 00c8 03F8011C 		strb	r1, [r3, #-1]
  95:D:/fchai/work/i-cube/I-CUBE-HUAWEI/Middlewares/Third_Party/Huawei/iot_link/network/dtls/mbedtls/mbedtls-2.16.2/library\asn1write.c ****         *--(*p) = ( len >> 24 ) & 0xFF;
 260              		.loc 1 95 9 is_stmt 1 view .LVU98
  95:D:/fchai/work/i-cube/I-CUBE-HUAWEI/Middlewares/Third_Party/Huawei/iot_link/network/dtls/mbedtls/mbedtls-2.16.2/library\asn1write.c ****         *--(*p) = ( len >> 24 ) & 0xFF;
 261              		.loc 1 95 13 is_stmt 0 view .LVU99
 262 00cc 0368     		ldr	r3, [r0]
  95:D:/fchai/work/i-cube/I-CUBE-HUAWEI/Middlewares/Third_Party/Huawei/iot_link/network/dtls/mbedtls/mbedtls-2.16.2/library\asn1write.c ****         *--(*p) = ( len >> 24 ) & 0xFF;
 263              		.loc 1 95 25 view .LVU100
 264 00ce 110C     		lsrs	r1, r2, #16
  95:D:/fchai/work/i-cube/I-CUBE-HUAWEI/Middlewares/Third_Party/Huawei/iot_link/network/dtls/mbedtls/mbedtls-2.16.2/library\asn1write.c ****         *--(*p) = ( len >> 24 ) & 0xFF;
 265              		.loc 1 95 10 view .LVU101
 266 00d0 5C1E     		subs	r4, r3, #1
  95:D:/fchai/work/i-cube/I-CUBE-HUAWEI/Middlewares/Third_Party/Huawei/iot_link/network/dtls/mbedtls/mbedtls-2.16.2/library\asn1write.c ****         *--(*p) = ( len >> 24 ) & 0xFF;
 267              		.loc 1 95 17 view .LVU102
 268 00d2 0460     		str	r4, [r0]
 269 00d4 03F8011C 		strb	r1, [r3, #-1]
  96:D:/fchai/work/i-cube/I-CUBE-HUAWEI/Middlewares/Third_Party/Huawei/iot_link/network/dtls/mbedtls/mbedtls-2.16.2/library\asn1write.c ****         *--(*p) = 0x84;
 270              		.loc 1 96 9 is_stmt 1 view .LVU103
  96:D:/fchai/work/i-cube/I-CUBE-HUAWEI/Middlewares/Third_Party/Huawei/iot_link/network/dtls/mbedtls/mbedtls-2.16.2/library\asn1write.c ****         *--(*p) = 0x84;
 271              		.loc 1 96 13 is_stmt 0 view .LVU104
 272 00d8 0168     		ldr	r1, [r0]
  96:D:/fchai/work/i-cube/I-CUBE-HUAWEI/Middlewares/Third_Party/Huawei/iot_link/network/dtls/mbedtls/mbedtls-2.16.2/library\asn1write.c ****         *--(*p) = 0x84;
 273              		.loc 1 96 33 view .LVU105
 274 00da 130E     		lsrs	r3, r2, #24
  96:D:/fchai/work/i-cube/I-CUBE-HUAWEI/Middlewares/Third_Party/Huawei/iot_link/network/dtls/mbedtls/mbedtls-2.16.2/library\asn1write.c ****         *--(*p) = 0x84;
 275              		.loc 1 96 10 view .LVU106
 276 00dc 4A1E     		subs	r2, r1, #1
 277              	.LVL17:
  96:D:/fchai/work/i-cube/I-CUBE-HUAWEI/Middlewares/Third_Party/Huawei/iot_link/network/dtls/mbedtls/mbedtls-2.16.2/library\asn1write.c ****         *--(*p) = 0x84;
 278              		.loc 1 96 17 view .LVU107
 279 00de 0260     		str	r2, [r0]
 280 00e0 01F8013C 		strb	r3, [r1, #-1]
  97:D:/fchai/work/i-cube/I-CUBE-HUAWEI/Middlewares/Third_Party/Huawei/iot_link/network/dtls/mbedtls/mbedtls-2.16.2/library\asn1write.c ****         return( 5 );
 281              		.loc 1 97 9 is_stmt 1 view .LVU108
  97:D:/fchai/work/i-cube/I-CUBE-HUAWEI/Middlewares/Third_Party/Huawei/iot_link/network/dtls/mbedtls/mbedtls-2.16.2/library\asn1write.c ****         return( 5 );
 282              		.loc 1 97 13 is_stmt 0 view .LVU109
 283 00e4 0368     		ldr	r3, [r0]
  97:D:/fchai/work/i-cube/I-CUBE-HUAWEI/Middlewares/Third_Party/Huawei/iot_link/network/dtls/mbedtls/mbedtls-2.16.2/library\asn1write.c ****         return( 5 );
 284              		.loc 1 97 17 view .LVU110
 285 00e6 8422     		movs	r2, #132
  97:D:/fchai/work/i-cube/I-CUBE-HUAWEI/Middlewares/Third_Party/Huawei/iot_link/network/dtls/mbedtls/mbedtls-2.16.2/library\asn1write.c ****         return( 5 );
 286              		.loc 1 97 10 view .LVU111
 287 00e8 591E     		subs	r1, r3, #1
  97:D:/fchai/work/i-cube/I-CUBE-HUAWEI/Middlewares/Third_Party/Huawei/iot_link/network/dtls/mbedtls/mbedtls-2.16.2/library\asn1write.c ****         return( 5 );
 288              		.loc 1 97 17 view .LVU112
 289 00ea 0160     		str	r1, [r0]
  98:D:/fchai/work/i-cube/I-CUBE-HUAWEI/Middlewares/Third_Party/Huawei/iot_link/network/dtls/mbedtls/mbedtls-2.16.2/library\asn1write.c ****     }
 290              		.loc 1 98 15 view .LVU113
 291 00ec 0520     		movs	r0, #5
 292              	.LVL18:
  97:D:/fchai/work/i-cube/I-CUBE-HUAWEI/Middlewares/Third_Party/Huawei/iot_link/network/dtls/mbedtls/mbedtls-2.16.2/library\asn1write.c ****         return( 5 );
 293              		.loc 1 97 17 view .LVU114
 294 00ee 03F8012C 		strb	r2, [r3, #-1]
  98:D:/fchai/work/i-cube/I-CUBE-HUAWEI/Middlewares/Third_Party/Huawei/iot_link/network/dtls/mbedtls/mbedtls-2.16.2/library\asn1write.c ****     }
 295              		.loc 1 98 9 is_stmt 1 view .LVU115
  98:D:/fchai/work/i-cube/I-CUBE-HUAWEI/Middlewares/Third_Party/Huawei/iot_link/network/dtls/mbedtls/mbedtls-2.16.2/library\asn1write.c ****     }
 296              		.loc 1 98 15 is_stmt 0 view .LVU116
ARM GAS  T:\msys\tmp\ccoyqwkK.s 			page 9


 297 00f2 C6E7     		b	.L1
 298              	.LVL19:
 299              	.L9:
 300              	.LCFI3:
 301              		.cfi_def_cfa_offset 0
 302              		.cfi_restore 4
  98:D:/fchai/work/i-cube/I-CUBE-HUAWEI/Middlewares/Third_Party/Huawei/iot_link/network/dtls/mbedtls/mbedtls-2.16.2/library\asn1write.c ****     }
 303              		.loc 1 98 15 view .LVU117
 304              	.LBE47:
 305              	.LBE49:
  47:D:/fchai/work/i-cube/I-CUBE-HUAWEI/Middlewares/Third_Party/Huawei/iot_link/network/dtls/mbedtls/mbedtls-2.16.2/library\asn1write.c **** 
 306              		.loc 1 47 19 view .LVU118
 307 00f4 6FF06B00 		mvn	r0, #107
 308              	.LVL20:
 309              		.loc 1 104 1 view .LVU119
 310 00f8 7047     		bx	lr
 311              	.LVL21:
 312              	.L11:
 313              	.LCFI4:
 314              		.cfi_def_cfa_offset 4
 315              		.cfi_offset 4, -4
  47:D:/fchai/work/i-cube/I-CUBE-HUAWEI/Middlewares/Third_Party/Huawei/iot_link/network/dtls/mbedtls/mbedtls-2.16.2/library\asn1write.c **** 
 316              		.loc 1 47 19 view .LVU120
 317 00fa 6FF06B00 		mvn	r0, #107
 318              	.LVL22:
  47:D:/fchai/work/i-cube/I-CUBE-HUAWEI/Middlewares/Third_Party/Huawei/iot_link/network/dtls/mbedtls/mbedtls-2.16.2/library\asn1write.c **** 
 319              		.loc 1 47 19 view .LVU121
 320 00fe C0E7     		b	.L1
 321              		.cfi_endproc
 322              	.LFE3:
 324              		.section	.text.mbedtls_asn1_write_tag,"ax",%progbits
 325              		.align	1
 326              		.p2align 2,,3
 327              		.global	mbedtls_asn1_write_tag
 328              		.syntax unified
 329              		.thumb
 330              		.thumb_func
 331              		.fpu fpv4-sp-d16
 333              	mbedtls_asn1_write_tag:
 334              	.LVL23:
 335              	.LFB4:
 105:D:/fchai/work/i-cube/I-CUBE-HUAWEI/Middlewares/Third_Party/Huawei/iot_link/network/dtls/mbedtls/mbedtls-2.16.2/library\asn1write.c **** 
 106:D:/fchai/work/i-cube/I-CUBE-HUAWEI/Middlewares/Third_Party/Huawei/iot_link/network/dtls/mbedtls/mbedtls-2.16.2/library\asn1write.c **** int mbedtls_asn1_write_tag( unsigned char **p, unsigned char *start, unsigned char tag )
 107:D:/fchai/work/i-cube/I-CUBE-HUAWEI/Middlewares/Third_Party/Huawei/iot_link/network/dtls/mbedtls/mbedtls-2.16.2/library\asn1write.c **** {
 336              		.loc 1 107 1 is_stmt 1 view -0
 337              		.cfi_startproc
 338              		@ args = 0, pretend = 0, frame = 0
 339              		@ frame_needed = 0, uses_anonymous_args = 0
 340              		@ link register save eliminated.
 108:D:/fchai/work/i-cube/I-CUBE-HUAWEI/Middlewares/Third_Party/Huawei/iot_link/network/dtls/mbedtls/mbedtls-2.16.2/library\asn1write.c ****     if( *p - start < 1 )
 341              		.loc 1 108 5 view .LVU123
 342              		.loc 1 108 9 is_stmt 0 view .LVU124
 343 0000 0368     		ldr	r3, [r0]
 344              		.loc 1 108 12 view .LVU125
 345 0002 591A     		subs	r1, r3, r1
 346              	.LVL24:
 347              		.loc 1 108 7 view .LVU126
ARM GAS  T:\msys\tmp\ccoyqwkK.s 			page 10


 348 0004 0029     		cmp	r1, #0
 349 0006 05DD     		ble	.L19
 109:D:/fchai/work/i-cube/I-CUBE-HUAWEI/Middlewares/Third_Party/Huawei/iot_link/network/dtls/mbedtls/mbedtls-2.16.2/library\asn1write.c ****         return( MBEDTLS_ERR_ASN1_BUF_TOO_SMALL );
 110:D:/fchai/work/i-cube/I-CUBE-HUAWEI/Middlewares/Third_Party/Huawei/iot_link/network/dtls/mbedtls/mbedtls-2.16.2/library\asn1write.c **** 
 111:D:/fchai/work/i-cube/I-CUBE-HUAWEI/Middlewares/Third_Party/Huawei/iot_link/network/dtls/mbedtls/mbedtls-2.16.2/library\asn1write.c ****     *--(*p) = tag;
 350              		.loc 1 111 5 is_stmt 1 view .LVU127
 351              		.loc 1 111 6 is_stmt 0 view .LVU128
 352 0008 591E     		subs	r1, r3, #1
 353              		.loc 1 111 13 view .LVU129
 354 000a 0160     		str	r1, [r0]
 112:D:/fchai/work/i-cube/I-CUBE-HUAWEI/Middlewares/Third_Party/Huawei/iot_link/network/dtls/mbedtls/mbedtls-2.16.2/library\asn1write.c **** 
 113:D:/fchai/work/i-cube/I-CUBE-HUAWEI/Middlewares/Third_Party/Huawei/iot_link/network/dtls/mbedtls/mbedtls-2.16.2/library\asn1write.c ****     return( 1 );
 355              		.loc 1 113 11 view .LVU130
 356 000c 0120     		movs	r0, #1
 357              	.LVL25:
 111:D:/fchai/work/i-cube/I-CUBE-HUAWEI/Middlewares/Third_Party/Huawei/iot_link/network/dtls/mbedtls/mbedtls-2.16.2/library\asn1write.c **** 
 358              		.loc 1 111 13 view .LVU131
 359 000e 03F8012C 		strb	r2, [r3, #-1]
 360              		.loc 1 113 5 is_stmt 1 view .LVU132
 361              		.loc 1 113 11 is_stmt 0 view .LVU133
 362 0012 7047     		bx	lr
 363              	.LVL26:
 364              	.L19:
 109:D:/fchai/work/i-cube/I-CUBE-HUAWEI/Middlewares/Third_Party/Huawei/iot_link/network/dtls/mbedtls/mbedtls-2.16.2/library\asn1write.c ****         return( MBEDTLS_ERR_ASN1_BUF_TOO_SMALL );
 365              		.loc 1 109 15 view .LVU134
 366 0014 6FF06B00 		mvn	r0, #107
 367              	.LVL27:
 114:D:/fchai/work/i-cube/I-CUBE-HUAWEI/Middlewares/Third_Party/Huawei/iot_link/network/dtls/mbedtls/mbedtls-2.16.2/library\asn1write.c **** }
 368              		.loc 1 114 1 view .LVU135
 369 0018 7047     		bx	lr
 370              		.cfi_endproc
 371              	.LFE4:
 373 001a 00BF     		.section	.text.mbedtls_asn1_write_raw_buffer,"ax",%progbits
 374              		.align	1
 375              		.p2align 2,,3
 376              		.global	mbedtls_asn1_write_raw_buffer
 377              		.syntax unified
 378              		.thumb
 379              		.thumb_func
 380              		.fpu fpv4-sp-d16
 382              	mbedtls_asn1_write_raw_buffer:
 383              	.LVL28:
 384              	.LFB5:
 115:D:/fchai/work/i-cube/I-CUBE-HUAWEI/Middlewares/Third_Party/Huawei/iot_link/network/dtls/mbedtls/mbedtls-2.16.2/library\asn1write.c **** 
 116:D:/fchai/work/i-cube/I-CUBE-HUAWEI/Middlewares/Third_Party/Huawei/iot_link/network/dtls/mbedtls/mbedtls-2.16.2/library\asn1write.c **** int mbedtls_asn1_write_raw_buffer( unsigned char **p, unsigned char *start,
 117:D:/fchai/work/i-cube/I-CUBE-HUAWEI/Middlewares/Third_Party/Huawei/iot_link/network/dtls/mbedtls/mbedtls-2.16.2/library\asn1write.c ****                            const unsigned char *buf, size_t size )
 118:D:/fchai/work/i-cube/I-CUBE-HUAWEI/Middlewares/Third_Party/Huawei/iot_link/network/dtls/mbedtls/mbedtls-2.16.2/library\asn1write.c **** {
 385              		.loc 1 118 1 is_stmt 1 view -0
 386              		.cfi_startproc
 387              		@ args = 0, pretend = 0, frame = 0
 388              		@ frame_needed = 0, uses_anonymous_args = 0
 119:D:/fchai/work/i-cube/I-CUBE-HUAWEI/Middlewares/Third_Party/Huawei/iot_link/network/dtls/mbedtls/mbedtls-2.16.2/library\asn1write.c ****     size_t len = 0;
 389              		.loc 1 119 5 view .LVU137
 120:D:/fchai/work/i-cube/I-CUBE-HUAWEI/Middlewares/Third_Party/Huawei/iot_link/network/dtls/mbedtls/mbedtls-2.16.2/library\asn1write.c **** 
 121:D:/fchai/work/i-cube/I-CUBE-HUAWEI/Middlewares/Third_Party/Huawei/iot_link/network/dtls/mbedtls/mbedtls-2.16.2/library\asn1write.c ****     if( *p < start || (size_t)( *p - start ) < size )
 390              		.loc 1 121 5 view .LVU138
 118:D:/fchai/work/i-cube/I-CUBE-HUAWEI/Middlewares/Third_Party/Huawei/iot_link/network/dtls/mbedtls/mbedtls-2.16.2/library\asn1write.c ****     size_t len = 0;
ARM GAS  T:\msys\tmp\ccoyqwkK.s 			page 11


 391              		.loc 1 118 1 is_stmt 0 view .LVU139
 392 0000 70B5     		push	{r4, r5, r6, lr}
 393              	.LCFI5:
 394              		.cfi_def_cfa_offset 16
 395              		.cfi_offset 4, -16
 396              		.cfi_offset 5, -12
 397              		.cfi_offset 6, -8
 398              		.cfi_offset 14, -4
 399              		.loc 1 121 9 view .LVU140
 400 0002 0668     		ldr	r6, [r0]
 401              		.loc 1 121 7 view .LVU141
 402 0004 8E42     		cmp	r6, r1
 403 0006 0CD3     		bcc	.L23
 404              		.loc 1 121 36 discriminator 1 view .LVU142
 405 0008 751A     		subs	r5, r6, r1
 406              		.loc 1 121 20 discriminator 1 view .LVU143
 407 000a 9D42     		cmp	r5, r3
 408 000c 1C46     		mov	r4, r3
 409 000e 08D3     		bcc	.L23
 122:D:/fchai/work/i-cube/I-CUBE-HUAWEI/Middlewares/Third_Party/Huawei/iot_link/network/dtls/mbedtls/mbedtls-2.16.2/library\asn1write.c ****         return( MBEDTLS_ERR_ASN1_BUF_TOO_SMALL );
 123:D:/fchai/work/i-cube/I-CUBE-HUAWEI/Middlewares/Third_Party/Huawei/iot_link/network/dtls/mbedtls/mbedtls-2.16.2/library\asn1write.c **** 
 124:D:/fchai/work/i-cube/I-CUBE-HUAWEI/Middlewares/Third_Party/Huawei/iot_link/network/dtls/mbedtls/mbedtls-2.16.2/library\asn1write.c ****     len = size;
 125:D:/fchai/work/i-cube/I-CUBE-HUAWEI/Middlewares/Third_Party/Huawei/iot_link/network/dtls/mbedtls/mbedtls-2.16.2/library\asn1write.c ****     (*p) -= len;
 410              		.loc 1 125 10 view .LVU144
 411 0010 F61A     		subs	r6, r6, r3
 412 0012 1146     		mov	r1, r2
 413              	.LVL29:
 124:D:/fchai/work/i-cube/I-CUBE-HUAWEI/Middlewares/Third_Party/Huawei/iot_link/network/dtls/mbedtls/mbedtls-2.16.2/library\asn1write.c ****     (*p) -= len;
 414              		.loc 1 124 5 is_stmt 1 view .LVU145
 415              		.loc 1 125 5 view .LVU146
 416              		.loc 1 125 10 is_stmt 0 view .LVU147
 417 0014 0660     		str	r6, [r0]
 126:D:/fchai/work/i-cube/I-CUBE-HUAWEI/Middlewares/Third_Party/Huawei/iot_link/network/dtls/mbedtls/mbedtls-2.16.2/library\asn1write.c ****     memcpy( *p, buf, len );
 418              		.loc 1 126 5 is_stmt 1 view .LVU148
 419 0016 1A46     		mov	r2, r3
 420              	.LVL30:
 421              		.loc 1 126 5 is_stmt 0 view .LVU149
 422 0018 3046     		mov	r0, r6
 423              	.LVL31:
 424              		.loc 1 126 5 view .LVU150
 425 001a FFF7FEFF 		bl	memcpy
 426              	.LVL32:
 127:D:/fchai/work/i-cube/I-CUBE-HUAWEI/Middlewares/Third_Party/Huawei/iot_link/network/dtls/mbedtls/mbedtls-2.16.2/library\asn1write.c **** 
 128:D:/fchai/work/i-cube/I-CUBE-HUAWEI/Middlewares/Third_Party/Huawei/iot_link/network/dtls/mbedtls/mbedtls-2.16.2/library\asn1write.c ****     return( (int) len );
 427              		.loc 1 128 5 is_stmt 1 view .LVU151
 428              		.loc 1 128 13 is_stmt 0 view .LVU152
 429 001e 2046     		mov	r0, r4
 129:D:/fchai/work/i-cube/I-CUBE-HUAWEI/Middlewares/Third_Party/Huawei/iot_link/network/dtls/mbedtls/mbedtls-2.16.2/library\asn1write.c **** }
 430              		.loc 1 129 1 view .LVU153
 431 0020 70BD     		pop	{r4, r5, r6, pc}
 432              	.LVL33:
 433              	.L23:
 122:D:/fchai/work/i-cube/I-CUBE-HUAWEI/Middlewares/Third_Party/Huawei/iot_link/network/dtls/mbedtls/mbedtls-2.16.2/library\asn1write.c **** 
 434              		.loc 1 122 15 view .LVU154
 435 0022 6FF06B00 		mvn	r0, #107
 436              	.LVL34:
 437              		.loc 1 129 1 view .LVU155
ARM GAS  T:\msys\tmp\ccoyqwkK.s 			page 12


 438 0026 70BD     		pop	{r4, r5, r6, pc}
 439              		.cfi_endproc
 440              	.LFE5:
 442              		.section	.text.mbedtls_asn1_write_mpi,"ax",%progbits
 443              		.align	1
 444              		.p2align 2,,3
 445              		.global	mbedtls_asn1_write_mpi
 446              		.syntax unified
 447              		.thumb
 448              		.thumb_func
 449              		.fpu fpv4-sp-d16
 451              	mbedtls_asn1_write_mpi:
 452              	.LVL35:
 453              	.LFB6:
 130:D:/fchai/work/i-cube/I-CUBE-HUAWEI/Middlewares/Third_Party/Huawei/iot_link/network/dtls/mbedtls/mbedtls-2.16.2/library\asn1write.c **** 
 131:D:/fchai/work/i-cube/I-CUBE-HUAWEI/Middlewares/Third_Party/Huawei/iot_link/network/dtls/mbedtls/mbedtls-2.16.2/library\asn1write.c **** #if defined(MBEDTLS_BIGNUM_C)
 132:D:/fchai/work/i-cube/I-CUBE-HUAWEI/Middlewares/Third_Party/Huawei/iot_link/network/dtls/mbedtls/mbedtls-2.16.2/library\asn1write.c **** int mbedtls_asn1_write_mpi( unsigned char **p, unsigned char *start, const mbedtls_mpi *X )
 133:D:/fchai/work/i-cube/I-CUBE-HUAWEI/Middlewares/Third_Party/Huawei/iot_link/network/dtls/mbedtls/mbedtls-2.16.2/library\asn1write.c **** {
 454              		.loc 1 133 1 is_stmt 1 view -0
 455              		.cfi_startproc
 456              		@ args = 0, pretend = 0, frame = 0
 457              		@ frame_needed = 0, uses_anonymous_args = 0
 134:D:/fchai/work/i-cube/I-CUBE-HUAWEI/Middlewares/Third_Party/Huawei/iot_link/network/dtls/mbedtls/mbedtls-2.16.2/library\asn1write.c ****     int ret;
 458              		.loc 1 134 5 view .LVU157
 135:D:/fchai/work/i-cube/I-CUBE-HUAWEI/Middlewares/Third_Party/Huawei/iot_link/network/dtls/mbedtls/mbedtls-2.16.2/library\asn1write.c ****     size_t len = 0;
 459              		.loc 1 135 5 view .LVU158
 136:D:/fchai/work/i-cube/I-CUBE-HUAWEI/Middlewares/Third_Party/Huawei/iot_link/network/dtls/mbedtls/mbedtls-2.16.2/library\asn1write.c **** 
 137:D:/fchai/work/i-cube/I-CUBE-HUAWEI/Middlewares/Third_Party/Huawei/iot_link/network/dtls/mbedtls/mbedtls-2.16.2/library\asn1write.c ****     // Write the MPI
 138:D:/fchai/work/i-cube/I-CUBE-HUAWEI/Middlewares/Third_Party/Huawei/iot_link/network/dtls/mbedtls/mbedtls-2.16.2/library\asn1write.c ****     //
 139:D:/fchai/work/i-cube/I-CUBE-HUAWEI/Middlewares/Third_Party/Huawei/iot_link/network/dtls/mbedtls/mbedtls-2.16.2/library\asn1write.c ****     len = mbedtls_mpi_size( X );
 460              		.loc 1 139 5 view .LVU159
 133:D:/fchai/work/i-cube/I-CUBE-HUAWEI/Middlewares/Third_Party/Huawei/iot_link/network/dtls/mbedtls/mbedtls-2.16.2/library\asn1write.c ****     int ret;
 461              		.loc 1 133 1 is_stmt 0 view .LVU160
 462 0000 F8B5     		push	{r3, r4, r5, r6, r7, lr}
 463              	.LCFI6:
 464              		.cfi_def_cfa_offset 24
 465              		.cfi_offset 3, -24
 466              		.cfi_offset 4, -20
 467              		.cfi_offset 5, -16
 468              		.cfi_offset 6, -12
 469              		.cfi_offset 7, -8
 470              		.cfi_offset 14, -4
 133:D:/fchai/work/i-cube/I-CUBE-HUAWEI/Middlewares/Third_Party/Huawei/iot_link/network/dtls/mbedtls/mbedtls-2.16.2/library\asn1write.c ****     int ret;
 471              		.loc 1 133 1 view .LVU161
 472 0002 0546     		mov	r5, r0
 473              		.loc 1 139 11 view .LVU162
 474 0004 1046     		mov	r0, r2
 475              	.LVL36:
 133:D:/fchai/work/i-cube/I-CUBE-HUAWEI/Middlewares/Third_Party/Huawei/iot_link/network/dtls/mbedtls/mbedtls-2.16.2/library\asn1write.c ****     int ret;
 476              		.loc 1 133 1 view .LVU163
 477 0006 0C46     		mov	r4, r1
 478 0008 1646     		mov	r6, r2
 479              		.loc 1 139 11 view .LVU164
 480 000a FFF7FEFF 		bl	mbedtls_mpi_size
 481              	.LVL37:
 140:D:/fchai/work/i-cube/I-CUBE-HUAWEI/Middlewares/Third_Party/Huawei/iot_link/network/dtls/mbedtls/mbedtls-2.16.2/library\asn1write.c **** 
 141:D:/fchai/work/i-cube/I-CUBE-HUAWEI/Middlewares/Third_Party/Huawei/iot_link/network/dtls/mbedtls/mbedtls-2.16.2/library\asn1write.c ****     if( *p < start || (size_t)( *p - start ) < len )
ARM GAS  T:\msys\tmp\ccoyqwkK.s 			page 13


 482              		.loc 1 141 9 view .LVU165
 483 000e 2B68     		ldr	r3, [r5]
 484              	.LVL38:
 485              		.loc 1 141 5 is_stmt 1 view .LVU166
 486              		.loc 1 141 7 is_stmt 0 view .LVU167
 487 0010 A342     		cmp	r3, r4
 488 0012 36D3     		bcc	.L28
 489              		.loc 1 141 36 discriminator 1 view .LVU168
 490 0014 191B     		subs	r1, r3, r4
 491              		.loc 1 141 20 discriminator 1 view .LVU169
 492 0016 8142     		cmp	r1, r0
 493 0018 0746     		mov	r7, r0
 494 001a 32D3     		bcc	.L28
 142:D:/fchai/work/i-cube/I-CUBE-HUAWEI/Middlewares/Third_Party/Huawei/iot_link/network/dtls/mbedtls/mbedtls-2.16.2/library\asn1write.c ****         return( MBEDTLS_ERR_ASN1_BUF_TOO_SMALL );
 143:D:/fchai/work/i-cube/I-CUBE-HUAWEI/Middlewares/Third_Party/Huawei/iot_link/network/dtls/mbedtls/mbedtls-2.16.2/library\asn1write.c **** 
 144:D:/fchai/work/i-cube/I-CUBE-HUAWEI/Middlewares/Third_Party/Huawei/iot_link/network/dtls/mbedtls/mbedtls-2.16.2/library\asn1write.c ****     (*p) -= len;
 495              		.loc 1 144 5 is_stmt 1 view .LVU170
 496              		.loc 1 144 10 is_stmt 0 view .LVU171
 497 001c 191A     		subs	r1, r3, r0
 145:D:/fchai/work/i-cube/I-CUBE-HUAWEI/Middlewares/Third_Party/Huawei/iot_link/network/dtls/mbedtls/mbedtls-2.16.2/library\asn1write.c ****     MBEDTLS_MPI_CHK( mbedtls_mpi_write_binary( X, *p, len ) );
 498              		.loc 1 145 5 view .LVU172
 499 001e 0246     		mov	r2, r0
 144:D:/fchai/work/i-cube/I-CUBE-HUAWEI/Middlewares/Third_Party/Huawei/iot_link/network/dtls/mbedtls/mbedtls-2.16.2/library\asn1write.c ****     MBEDTLS_MPI_CHK( mbedtls_mpi_write_binary( X, *p, len ) );
 500              		.loc 1 144 10 view .LVU173
 501 0020 2960     		str	r1, [r5]
 502              		.loc 1 145 5 is_stmt 1 view .LVU174
 503              		.loc 1 145 5 view .LVU175
 504 0022 3046     		mov	r0, r6
 505              	.LVL39:
 506              		.loc 1 145 5 is_stmt 0 view .LVU176
 507 0024 FFF7FEFF 		bl	mbedtls_mpi_write_binary
 508              	.LVL40:
 509              		.loc 1 145 5 view .LVU177
 510 0028 D0B9     		cbnz	r0, .L25
 511              		.loc 1 145 5 is_stmt 1 discriminator 2 view .LVU178
 146:D:/fchai/work/i-cube/I-CUBE-HUAWEI/Middlewares/Third_Party/Huawei/iot_link/network/dtls/mbedtls/mbedtls-2.16.2/library\asn1write.c **** 
 147:D:/fchai/work/i-cube/I-CUBE-HUAWEI/Middlewares/Third_Party/Huawei/iot_link/network/dtls/mbedtls/mbedtls-2.16.2/library\asn1write.c ****     // DER format assumes 2s complement for numbers, so the leftmost bit
 148:D:/fchai/work/i-cube/I-CUBE-HUAWEI/Middlewares/Third_Party/Huawei/iot_link/network/dtls/mbedtls/mbedtls-2.16.2/library\asn1write.c ****     // should be 0 for positive numbers and 1 for negative numbers.
 149:D:/fchai/work/i-cube/I-CUBE-HUAWEI/Middlewares/Third_Party/Huawei/iot_link/network/dtls/mbedtls/mbedtls-2.16.2/library\asn1write.c ****     //
 150:D:/fchai/work/i-cube/I-CUBE-HUAWEI/Middlewares/Third_Party/Huawei/iot_link/network/dtls/mbedtls/mbedtls-2.16.2/library\asn1write.c ****     if( X->s ==1 && **p & 0x80 )
 512              		.loc 1 150 5 discriminator 2 view .LVU179
 513              		.loc 1 150 7 is_stmt 0 discriminator 2 view .LVU180
 514 002a 3368     		ldr	r3, [r6]
 515 002c 012B     		cmp	r3, #1
 516 002e 04D1     		bne	.L29
 517              		.loc 1 150 22 discriminator 1 view .LVU181
 518 0030 2B68     		ldr	r3, [r5]
 519              		.loc 1 150 18 discriminator 1 view .LVU182
 520 0032 93F90020 		ldrsb	r2, [r3]
 521 0036 002A     		cmp	r2, #0
 522 0038 13DB     		blt	.L31
 523              	.L29:
 151:D:/fchai/work/i-cube/I-CUBE-HUAWEI/Middlewares/Third_Party/Huawei/iot_link/network/dtls/mbedtls/mbedtls-2.16.2/library\asn1write.c ****     {
 152:D:/fchai/work/i-cube/I-CUBE-HUAWEI/Middlewares/Third_Party/Huawei/iot_link/network/dtls/mbedtls/mbedtls-2.16.2/library\asn1write.c ****         if( *p - start < 1 )
 153:D:/fchai/work/i-cube/I-CUBE-HUAWEI/Middlewares/Third_Party/Huawei/iot_link/network/dtls/mbedtls/mbedtls-2.16.2/library\asn1write.c ****             return( MBEDTLS_ERR_ASN1_BUF_TOO_SMALL );
 154:D:/fchai/work/i-cube/I-CUBE-HUAWEI/Middlewares/Third_Party/Huawei/iot_link/network/dtls/mbedtls/mbedtls-2.16.2/library\asn1write.c **** 
 155:D:/fchai/work/i-cube/I-CUBE-HUAWEI/Middlewares/Third_Party/Huawei/iot_link/network/dtls/mbedtls/mbedtls-2.16.2/library\asn1write.c ****         *--(*p) = 0x00;
ARM GAS  T:\msys\tmp\ccoyqwkK.s 			page 14


 156:D:/fchai/work/i-cube/I-CUBE-HUAWEI/Middlewares/Third_Party/Huawei/iot_link/network/dtls/mbedtls/mbedtls-2.16.2/library\asn1write.c ****         len += 1;
 157:D:/fchai/work/i-cube/I-CUBE-HUAWEI/Middlewares/Third_Party/Huawei/iot_link/network/dtls/mbedtls/mbedtls-2.16.2/library\asn1write.c ****     }
 158:D:/fchai/work/i-cube/I-CUBE-HUAWEI/Middlewares/Third_Party/Huawei/iot_link/network/dtls/mbedtls/mbedtls-2.16.2/library\asn1write.c **** 
 159:D:/fchai/work/i-cube/I-CUBE-HUAWEI/Middlewares/Third_Party/Huawei/iot_link/network/dtls/mbedtls/mbedtls-2.16.2/library\asn1write.c ****     MBEDTLS_ASN1_CHK_ADD( len, mbedtls_asn1_write_len( p, start, len ) );
 524              		.loc 1 159 5 is_stmt 1 view .LVU183
 525              		.loc 1 159 5 view .LVU184
 526 003a 3A46     		mov	r2, r7
 527 003c 2146     		mov	r1, r4
 528 003e 2846     		mov	r0, r5
 529              	.LVL41:
 530              		.loc 1 159 5 is_stmt 0 view .LVU185
 531 0040 FFF7FEFF 		bl	mbedtls_asn1_write_len
 532              	.LVL42:
 533              		.loc 1 159 5 view .LVU186
 534 0044 0028     		cmp	r0, #0
 535              		.loc 1 159 5 view .LVU187
 536 0046 0BDB     		blt	.L25
 537              	.LVL43:
 538              	.L32:
 539              		.loc 1 159 5 is_stmt 1 discriminator 2 view .LVU188
 540              	.LBB50:
 541              	.LBB51:
 108:D:/fchai/work/i-cube/I-CUBE-HUAWEI/Middlewares/Third_Party/Huawei/iot_link/network/dtls/mbedtls/mbedtls-2.16.2/library\asn1write.c ****         return( MBEDTLS_ERR_ASN1_BUF_TOO_SMALL );
 542              		.loc 1 108 9 is_stmt 0 discriminator 2 view .LVU189
 543 0048 2B68     		ldr	r3, [r5]
 108:D:/fchai/work/i-cube/I-CUBE-HUAWEI/Middlewares/Third_Party/Huawei/iot_link/network/dtls/mbedtls/mbedtls-2.16.2/library\asn1write.c ****         return( MBEDTLS_ERR_ASN1_BUF_TOO_SMALL );
 544              		.loc 1 108 12 discriminator 2 view .LVU190
 545 004a 191B     		subs	r1, r3, r4
 108:D:/fchai/work/i-cube/I-CUBE-HUAWEI/Middlewares/Third_Party/Huawei/iot_link/network/dtls/mbedtls/mbedtls-2.16.2/library\asn1write.c ****         return( MBEDTLS_ERR_ASN1_BUF_TOO_SMALL );
 546              		.loc 1 108 7 discriminator 2 view .LVU191
 547 004c 0029     		cmp	r1, #0
 548 004e 07F10102 		add	r2, r7, #1
 108:D:/fchai/work/i-cube/I-CUBE-HUAWEI/Middlewares/Third_Party/Huawei/iot_link/network/dtls/mbedtls/mbedtls-2.16.2/library\asn1write.c ****         return( MBEDTLS_ERR_ASN1_BUF_TOO_SMALL );
 549              		.loc 1 108 7 discriminator 2 view .LVU192
 550              	.LBE51:
 551              	.LBE50:
 552              		.loc 1 159 5 is_stmt 1 discriminator 2 view .LVU193
 160:D:/fchai/work/i-cube/I-CUBE-HUAWEI/Middlewares/Third_Party/Huawei/iot_link/network/dtls/mbedtls/mbedtls-2.16.2/library\asn1write.c ****     MBEDTLS_ASN1_CHK_ADD( len, mbedtls_asn1_write_tag( p, start, MBEDTLS_ASN1_INTEGER ) );
 553              		.loc 1 160 5 discriminator 2 view .LVU194
 554              		.loc 1 160 5 discriminator 2 view .LVU195
 555              	.LVL44:
 556              	.LBB54:
 557              	.LBI50:
 106:D:/fchai/work/i-cube/I-CUBE-HUAWEI/Middlewares/Third_Party/Huawei/iot_link/network/dtls/mbedtls/mbedtls-2.16.2/library\asn1write.c **** {
 558              		.loc 1 106 5 discriminator 2 view .LVU196
 559              	.LBB52:
 108:D:/fchai/work/i-cube/I-CUBE-HUAWEI/Middlewares/Third_Party/Huawei/iot_link/network/dtls/mbedtls/mbedtls-2.16.2/library\asn1write.c ****         return( MBEDTLS_ERR_ASN1_BUF_TOO_SMALL );
 560              		.loc 1 108 5 discriminator 2 view .LVU197
 108:D:/fchai/work/i-cube/I-CUBE-HUAWEI/Middlewares/Third_Party/Huawei/iot_link/network/dtls/mbedtls/mbedtls-2.16.2/library\asn1write.c ****         return( MBEDTLS_ERR_ASN1_BUF_TOO_SMALL );
 561              		.loc 1 108 7 is_stmt 0 discriminator 2 view .LVU198
 562 0052 16DD     		ble	.L28
 111:D:/fchai/work/i-cube/I-CUBE-HUAWEI/Middlewares/Third_Party/Huawei/iot_link/network/dtls/mbedtls/mbedtls-2.16.2/library\asn1write.c **** 
 563              		.loc 1 111 5 is_stmt 1 view .LVU199
 111:D:/fchai/work/i-cube/I-CUBE-HUAWEI/Middlewares/Third_Party/Huawei/iot_link/network/dtls/mbedtls/mbedtls-2.16.2/library\asn1write.c **** 
 564              		.loc 1 111 6 is_stmt 0 view .LVU200
 565 0054 5C1E     		subs	r4, r3, #1
 566              	.LVL45:
ARM GAS  T:\msys\tmp\ccoyqwkK.s 			page 15


 111:D:/fchai/work/i-cube/I-CUBE-HUAWEI/Middlewares/Third_Party/Huawei/iot_link/network/dtls/mbedtls/mbedtls-2.16.2/library\asn1write.c **** 
 567              		.loc 1 111 13 view .LVU201
 568 0056 0221     		movs	r1, #2
 569 0058 2C60     		str	r4, [r5]
 570              	.LBE52:
 571              	.LBE54:
 572              		.loc 1 160 5 view .LVU202
 573 005a 1044     		add	r0, r0, r2
 574              	.LVL46:
 575              	.LBB55:
 576              	.LBB53:
 111:D:/fchai/work/i-cube/I-CUBE-HUAWEI/Middlewares/Third_Party/Huawei/iot_link/network/dtls/mbedtls/mbedtls-2.16.2/library\asn1write.c **** 
 577              		.loc 1 111 13 view .LVU203
 578 005c 03F8011C 		strb	r1, [r3, #-1]
 113:D:/fchai/work/i-cube/I-CUBE-HUAWEI/Middlewares/Third_Party/Huawei/iot_link/network/dtls/mbedtls/mbedtls-2.16.2/library\asn1write.c **** }
 579              		.loc 1 113 5 is_stmt 1 view .LVU204
 580              	.LVL47:
 113:D:/fchai/work/i-cube/I-CUBE-HUAWEI/Middlewares/Third_Party/Huawei/iot_link/network/dtls/mbedtls/mbedtls-2.16.2/library\asn1write.c **** }
 581              		.loc 1 113 5 is_stmt 0 view .LVU205
 582              	.LBE53:
 583              	.LBE55:
 584              		.loc 1 160 5 is_stmt 1 view .LVU206
 585              		.loc 1 160 5 view .LVU207
 161:D:/fchai/work/i-cube/I-CUBE-HUAWEI/Middlewares/Third_Party/Huawei/iot_link/network/dtls/mbedtls/mbedtls-2.16.2/library\asn1write.c **** 
 162:D:/fchai/work/i-cube/I-CUBE-HUAWEI/Middlewares/Third_Party/Huawei/iot_link/network/dtls/mbedtls/mbedtls-2.16.2/library\asn1write.c ****     ret = (int) len;
 586              		.loc 1 162 5 view .LVU208
 587              	.L25:
 163:D:/fchai/work/i-cube/I-CUBE-HUAWEI/Middlewares/Third_Party/Huawei/iot_link/network/dtls/mbedtls/mbedtls-2.16.2/library\asn1write.c **** 
 164:D:/fchai/work/i-cube/I-CUBE-HUAWEI/Middlewares/Third_Party/Huawei/iot_link/network/dtls/mbedtls/mbedtls-2.16.2/library\asn1write.c **** cleanup:
 165:D:/fchai/work/i-cube/I-CUBE-HUAWEI/Middlewares/Third_Party/Huawei/iot_link/network/dtls/mbedtls/mbedtls-2.16.2/library\asn1write.c ****     return( ret );
 166:D:/fchai/work/i-cube/I-CUBE-HUAWEI/Middlewares/Third_Party/Huawei/iot_link/network/dtls/mbedtls/mbedtls-2.16.2/library\asn1write.c **** }
 588              		.loc 1 166 1 is_stmt 0 view .LVU209
 589 0060 F8BD     		pop	{r3, r4, r5, r6, r7, pc}
 590              	.LVL48:
 591              	.L31:
 152:D:/fchai/work/i-cube/I-CUBE-HUAWEI/Middlewares/Third_Party/Huawei/iot_link/network/dtls/mbedtls/mbedtls-2.16.2/library\asn1write.c ****             return( MBEDTLS_ERR_ASN1_BUF_TOO_SMALL );
 592              		.loc 1 152 9 is_stmt 1 view .LVU210
 152:D:/fchai/work/i-cube/I-CUBE-HUAWEI/Middlewares/Third_Party/Huawei/iot_link/network/dtls/mbedtls/mbedtls-2.16.2/library\asn1write.c ****             return( MBEDTLS_ERR_ASN1_BUF_TOO_SMALL );
 593              		.loc 1 152 16 is_stmt 0 view .LVU211
 594 0062 1A1B     		subs	r2, r3, r4
 152:D:/fchai/work/i-cube/I-CUBE-HUAWEI/Middlewares/Third_Party/Huawei/iot_link/network/dtls/mbedtls/mbedtls-2.16.2/library\asn1write.c ****             return( MBEDTLS_ERR_ASN1_BUF_TOO_SMALL );
 595              		.loc 1 152 11 view .LVU212
 596 0064 002A     		cmp	r2, #0
 597 0066 0CDD     		ble	.L28
 155:D:/fchai/work/i-cube/I-CUBE-HUAWEI/Middlewares/Third_Party/Huawei/iot_link/network/dtls/mbedtls/mbedtls-2.16.2/library\asn1write.c ****         len += 1;
 598              		.loc 1 155 9 is_stmt 1 view .LVU213
 155:D:/fchai/work/i-cube/I-CUBE-HUAWEI/Middlewares/Third_Party/Huawei/iot_link/network/dtls/mbedtls/mbedtls-2.16.2/library\asn1write.c ****         len += 1;
 599              		.loc 1 155 10 is_stmt 0 view .LVU214
 600 0068 5A1E     		subs	r2, r3, #1
 156:D:/fchai/work/i-cube/I-CUBE-HUAWEI/Middlewares/Third_Party/Huawei/iot_link/network/dtls/mbedtls/mbedtls-2.16.2/library\asn1write.c ****     }
 601              		.loc 1 156 13 view .LVU215
 602 006a 0137     		adds	r7, r7, #1
 603              	.LVL49:
 155:D:/fchai/work/i-cube/I-CUBE-HUAWEI/Middlewares/Third_Party/Huawei/iot_link/network/dtls/mbedtls/mbedtls-2.16.2/library\asn1write.c ****         len += 1;
 604              		.loc 1 155 17 view .LVU216
 605 006c 2A60     		str	r2, [r5]
 159:D:/fchai/work/i-cube/I-CUBE-HUAWEI/Middlewares/Third_Party/Huawei/iot_link/network/dtls/mbedtls/mbedtls-2.16.2/library\asn1write.c ****     MBEDTLS_ASN1_CHK_ADD( len, mbedtls_asn1_write_tag( p, start, MBEDTLS_ASN1_INTEGER ) );
ARM GAS  T:\msys\tmp\ccoyqwkK.s 			page 16


 606              		.loc 1 159 5 view .LVU217
 607 006e 2146     		mov	r1, r4
 155:D:/fchai/work/i-cube/I-CUBE-HUAWEI/Middlewares/Third_Party/Huawei/iot_link/network/dtls/mbedtls/mbedtls-2.16.2/library\asn1write.c ****         len += 1;
 608              		.loc 1 155 17 view .LVU218
 609 0070 03F8010C 		strb	r0, [r3, #-1]
 156:D:/fchai/work/i-cube/I-CUBE-HUAWEI/Middlewares/Third_Party/Huawei/iot_link/network/dtls/mbedtls/mbedtls-2.16.2/library\asn1write.c ****     }
 610              		.loc 1 156 9 is_stmt 1 view .LVU219
 611              	.LVL50:
 159:D:/fchai/work/i-cube/I-CUBE-HUAWEI/Middlewares/Third_Party/Huawei/iot_link/network/dtls/mbedtls/mbedtls-2.16.2/library\asn1write.c ****     MBEDTLS_ASN1_CHK_ADD( len, mbedtls_asn1_write_tag( p, start, MBEDTLS_ASN1_INTEGER ) );
 612              		.loc 1 159 5 view .LVU220
 159:D:/fchai/work/i-cube/I-CUBE-HUAWEI/Middlewares/Third_Party/Huawei/iot_link/network/dtls/mbedtls/mbedtls-2.16.2/library\asn1write.c ****     MBEDTLS_ASN1_CHK_ADD( len, mbedtls_asn1_write_tag( p, start, MBEDTLS_ASN1_INTEGER ) );
 613              		.loc 1 159 5 view .LVU221
 614 0074 3A46     		mov	r2, r7
 615 0076 2846     		mov	r0, r5
 616              	.LVL51:
 159:D:/fchai/work/i-cube/I-CUBE-HUAWEI/Middlewares/Third_Party/Huawei/iot_link/network/dtls/mbedtls/mbedtls-2.16.2/library\asn1write.c ****     MBEDTLS_ASN1_CHK_ADD( len, mbedtls_asn1_write_tag( p, start, MBEDTLS_ASN1_INTEGER ) );
 617              		.loc 1 159 5 is_stmt 0 view .LVU222
 618 0078 FFF7FEFF 		bl	mbedtls_asn1_write_len
 619              	.LVL52:
 159:D:/fchai/work/i-cube/I-CUBE-HUAWEI/Middlewares/Third_Party/Huawei/iot_link/network/dtls/mbedtls/mbedtls-2.16.2/library\asn1write.c ****     MBEDTLS_ASN1_CHK_ADD( len, mbedtls_asn1_write_tag( p, start, MBEDTLS_ASN1_INTEGER ) );
 620              		.loc 1 159 5 view .LVU223
 621 007c 0028     		cmp	r0, #0
 159:D:/fchai/work/i-cube/I-CUBE-HUAWEI/Middlewares/Third_Party/Huawei/iot_link/network/dtls/mbedtls/mbedtls-2.16.2/library\asn1write.c ****     MBEDTLS_ASN1_CHK_ADD( len, mbedtls_asn1_write_tag( p, start, MBEDTLS_ASN1_INTEGER ) );
 622              		.loc 1 159 5 view .LVU224
 623 007e E3DA     		bge	.L32
 624 0080 EEE7     		b	.L25
 625              	.LVL53:
 626              	.L28:
 142:D:/fchai/work/i-cube/I-CUBE-HUAWEI/Middlewares/Third_Party/Huawei/iot_link/network/dtls/mbedtls/mbedtls-2.16.2/library\asn1write.c **** 
 627              		.loc 1 142 15 view .LVU225
 628 0082 6FF06B00 		mvn	r0, #107
 629              		.loc 1 166 1 view .LVU226
 630 0086 F8BD     		pop	{r3, r4, r5, r6, r7, pc}
 631              		.loc 1 166 1 view .LVU227
 632              		.cfi_endproc
 633              	.LFE6:
 635              		.section	.text.mbedtls_asn1_write_null,"ax",%progbits
 636              		.align	1
 637              		.p2align 2,,3
 638              		.global	mbedtls_asn1_write_null
 639              		.syntax unified
 640              		.thumb
 641              		.thumb_func
 642              		.fpu fpv4-sp-d16
 644              	mbedtls_asn1_write_null:
 645              	.LVL54:
 646              	.LFB7:
 167:D:/fchai/work/i-cube/I-CUBE-HUAWEI/Middlewares/Third_Party/Huawei/iot_link/network/dtls/mbedtls/mbedtls-2.16.2/library\asn1write.c **** #endif /* MBEDTLS_BIGNUM_C */
 168:D:/fchai/work/i-cube/I-CUBE-HUAWEI/Middlewares/Third_Party/Huawei/iot_link/network/dtls/mbedtls/mbedtls-2.16.2/library\asn1write.c **** 
 169:D:/fchai/work/i-cube/I-CUBE-HUAWEI/Middlewares/Third_Party/Huawei/iot_link/network/dtls/mbedtls/mbedtls-2.16.2/library\asn1write.c **** int mbedtls_asn1_write_null( unsigned char **p, unsigned char *start )
 170:D:/fchai/work/i-cube/I-CUBE-HUAWEI/Middlewares/Third_Party/Huawei/iot_link/network/dtls/mbedtls/mbedtls-2.16.2/library\asn1write.c **** {
 647              		.loc 1 170 1 is_stmt 1 view -0
 648              		.cfi_startproc
 649              		@ args = 0, pretend = 0, frame = 0
 650              		@ frame_needed = 0, uses_anonymous_args = 0
 651              		@ link register save eliminated.
 171:D:/fchai/work/i-cube/I-CUBE-HUAWEI/Middlewares/Third_Party/Huawei/iot_link/network/dtls/mbedtls/mbedtls-2.16.2/library\asn1write.c ****     int ret;
ARM GAS  T:\msys\tmp\ccoyqwkK.s 			page 17


 652              		.loc 1 171 5 view .LVU229
 172:D:/fchai/work/i-cube/I-CUBE-HUAWEI/Middlewares/Third_Party/Huawei/iot_link/network/dtls/mbedtls/mbedtls-2.16.2/library\asn1write.c ****     size_t len = 0;
 653              		.loc 1 172 5 view .LVU230
 173:D:/fchai/work/i-cube/I-CUBE-HUAWEI/Middlewares/Third_Party/Huawei/iot_link/network/dtls/mbedtls/mbedtls-2.16.2/library\asn1write.c **** 
 174:D:/fchai/work/i-cube/I-CUBE-HUAWEI/Middlewares/Third_Party/Huawei/iot_link/network/dtls/mbedtls/mbedtls-2.16.2/library\asn1write.c ****     // Write NULL
 175:D:/fchai/work/i-cube/I-CUBE-HUAWEI/Middlewares/Third_Party/Huawei/iot_link/network/dtls/mbedtls/mbedtls-2.16.2/library\asn1write.c ****     //
 176:D:/fchai/work/i-cube/I-CUBE-HUAWEI/Middlewares/Third_Party/Huawei/iot_link/network/dtls/mbedtls/mbedtls-2.16.2/library\asn1write.c ****     MBEDTLS_ASN1_CHK_ADD( len, mbedtls_asn1_write_len( p, start, 0) );
 654              		.loc 1 176 5 view .LVU231
 655              		.loc 1 176 5 view .LVU232
 656              	.LBB56:
 657              	.LBB57:
  46:D:/fchai/work/i-cube/I-CUBE-HUAWEI/Middlewares/Third_Party/Huawei/iot_link/network/dtls/mbedtls/mbedtls-2.16.2/library\asn1write.c ****             return( MBEDTLS_ERR_ASN1_BUF_TOO_SMALL );
 658              		.loc 1 46 13 is_stmt 0 view .LVU233
 659 0000 0368     		ldr	r3, [r0]
 660              	.LVL55:
  46:D:/fchai/work/i-cube/I-CUBE-HUAWEI/Middlewares/Third_Party/Huawei/iot_link/network/dtls/mbedtls/mbedtls-2.16.2/library\asn1write.c ****             return( MBEDTLS_ERR_ASN1_BUF_TOO_SMALL );
 661              		.loc 1 46 13 view .LVU234
 662              	.LBE57:
 663              	.LBI56:
  42:D:/fchai/work/i-cube/I-CUBE-HUAWEI/Middlewares/Third_Party/Huawei/iot_link/network/dtls/mbedtls/mbedtls-2.16.2/library\asn1write.c **** {
 664              		.loc 1 42 5 is_stmt 1 view .LVU235
 665              	.LBB58:
  44:D:/fchai/work/i-cube/I-CUBE-HUAWEI/Middlewares/Third_Party/Huawei/iot_link/network/dtls/mbedtls/mbedtls-2.16.2/library\asn1write.c ****     {
 666              		.loc 1 44 5 view .LVU236
  46:D:/fchai/work/i-cube/I-CUBE-HUAWEI/Middlewares/Third_Party/Huawei/iot_link/network/dtls/mbedtls/mbedtls-2.16.2/library\asn1write.c ****             return( MBEDTLS_ERR_ASN1_BUF_TOO_SMALL );
 667              		.loc 1 46 9 view .LVU237
  46:D:/fchai/work/i-cube/I-CUBE-HUAWEI/Middlewares/Third_Party/Huawei/iot_link/network/dtls/mbedtls/mbedtls-2.16.2/library\asn1write.c ****             return( MBEDTLS_ERR_ASN1_BUF_TOO_SMALL );
 668              		.loc 1 46 16 is_stmt 0 view .LVU238
 669 0002 5A1A     		subs	r2, r3, r1
  46:D:/fchai/work/i-cube/I-CUBE-HUAWEI/Middlewares/Third_Party/Huawei/iot_link/network/dtls/mbedtls/mbedtls-2.16.2/library\asn1write.c ****             return( MBEDTLS_ERR_ASN1_BUF_TOO_SMALL );
 670              		.loc 1 46 11 view .LVU239
 671 0004 002A     		cmp	r2, #0
 672 0006 15DD     		ble	.L40
  49:D:/fchai/work/i-cube/I-CUBE-HUAWEI/Middlewares/Third_Party/Huawei/iot_link/network/dtls/mbedtls/mbedtls-2.16.2/library\asn1write.c ****         return( 1 );
 673              		.loc 1 49 9 is_stmt 1 view .LVU240
 674              	.LBE58:
 675              	.LBE56:
 170:D:/fchai/work/i-cube/I-CUBE-HUAWEI/Middlewares/Third_Party/Huawei/iot_link/network/dtls/mbedtls/mbedtls-2.16.2/library\asn1write.c ****     int ret;
 676              		.loc 1 170 1 is_stmt 0 view .LVU241
 677 0008 10B4     		push	{r4}
 678              	.LCFI7:
 679              		.cfi_def_cfa_offset 4
 680              		.cfi_offset 4, -4
 681              	.LBB61:
 682              	.LBB59:
  49:D:/fchai/work/i-cube/I-CUBE-HUAWEI/Middlewares/Third_Party/Huawei/iot_link/network/dtls/mbedtls/mbedtls-2.16.2/library\asn1write.c ****         return( 1 );
 683              		.loc 1 49 17 view .LVU242
 684 000a 0022     		movs	r2, #0
  49:D:/fchai/work/i-cube/I-CUBE-HUAWEI/Middlewares/Third_Party/Huawei/iot_link/network/dtls/mbedtls/mbedtls-2.16.2/library\asn1write.c ****         return( 1 );
 685              		.loc 1 49 10 view .LVU243
 686 000c 5C1E     		subs	r4, r3, #1
  49:D:/fchai/work/i-cube/I-CUBE-HUAWEI/Middlewares/Third_Party/Huawei/iot_link/network/dtls/mbedtls/mbedtls-2.16.2/library\asn1write.c ****         return( 1 );
 687              		.loc 1 49 17 view .LVU244
 688 000e 0460     		str	r4, [r0]
 689 0010 03F8012C 		strb	r2, [r3, #-1]
  50:D:/fchai/work/i-cube/I-CUBE-HUAWEI/Middlewares/Third_Party/Huawei/iot_link/network/dtls/mbedtls/mbedtls-2.16.2/library\asn1write.c ****     }
 690              		.loc 1 50 9 is_stmt 1 view .LVU245
ARM GAS  T:\msys\tmp\ccoyqwkK.s 			page 18


 691              	.LVL56:
  50:D:/fchai/work/i-cube/I-CUBE-HUAWEI/Middlewares/Third_Party/Huawei/iot_link/network/dtls/mbedtls/mbedtls-2.16.2/library\asn1write.c ****     }
 692              		.loc 1 50 9 is_stmt 0 view .LVU246
 693              	.LBE59:
 694              	.LBE61:
 695              		.loc 1 176 5 is_stmt 1 view .LVU247
 696              		.loc 1 176 5 view .LVU248
 177:D:/fchai/work/i-cube/I-CUBE-HUAWEI/Middlewares/Third_Party/Huawei/iot_link/network/dtls/mbedtls/mbedtls-2.16.2/library\asn1write.c ****     MBEDTLS_ASN1_CHK_ADD( len, mbedtls_asn1_write_tag( p, start, MBEDTLS_ASN1_NULL ) );
 697              		.loc 1 177 5 view .LVU249
 698              		.loc 1 177 5 view .LVU250
 699              	.LBB62:
 700              	.LBI62:
 106:D:/fchai/work/i-cube/I-CUBE-HUAWEI/Middlewares/Third_Party/Huawei/iot_link/network/dtls/mbedtls/mbedtls-2.16.2/library\asn1write.c **** {
 701              		.loc 1 106 5 view .LVU251
 702              	.LBB63:
 108:D:/fchai/work/i-cube/I-CUBE-HUAWEI/Middlewares/Third_Party/Huawei/iot_link/network/dtls/mbedtls/mbedtls-2.16.2/library\asn1write.c ****         return( MBEDTLS_ERR_ASN1_BUF_TOO_SMALL );
 703              		.loc 1 108 5 view .LVU252
 108:D:/fchai/work/i-cube/I-CUBE-HUAWEI/Middlewares/Third_Party/Huawei/iot_link/network/dtls/mbedtls/mbedtls-2.16.2/library\asn1write.c ****         return( MBEDTLS_ERR_ASN1_BUF_TOO_SMALL );
 704              		.loc 1 108 9 is_stmt 0 view .LVU253
 705 0014 0368     		ldr	r3, [r0]
 108:D:/fchai/work/i-cube/I-CUBE-HUAWEI/Middlewares/Third_Party/Huawei/iot_link/network/dtls/mbedtls/mbedtls-2.16.2/library\asn1write.c ****         return( MBEDTLS_ERR_ASN1_BUF_TOO_SMALL );
 706              		.loc 1 108 12 view .LVU254
 707 0016 591A     		subs	r1, r3, r1
 708              	.LVL57:
 108:D:/fchai/work/i-cube/I-CUBE-HUAWEI/Middlewares/Third_Party/Huawei/iot_link/network/dtls/mbedtls/mbedtls-2.16.2/library\asn1write.c ****         return( MBEDTLS_ERR_ASN1_BUF_TOO_SMALL );
 709              		.loc 1 108 7 view .LVU255
 710 0018 9142     		cmp	r1, r2
 711 001a 08DD     		ble	.L36
 111:D:/fchai/work/i-cube/I-CUBE-HUAWEI/Middlewares/Third_Party/Huawei/iot_link/network/dtls/mbedtls/mbedtls-2.16.2/library\asn1write.c **** 
 712              		.loc 1 111 5 is_stmt 1 view .LVU256
 111:D:/fchai/work/i-cube/I-CUBE-HUAWEI/Middlewares/Third_Party/Huawei/iot_link/network/dtls/mbedtls/mbedtls-2.16.2/library\asn1write.c **** 
 713              		.loc 1 111 6 is_stmt 0 view .LVU257
 714 001c 591E     		subs	r1, r3, #1
 111:D:/fchai/work/i-cube/I-CUBE-HUAWEI/Middlewares/Third_Party/Huawei/iot_link/network/dtls/mbedtls/mbedtls-2.16.2/library\asn1write.c **** 
 715              		.loc 1 111 13 view .LVU258
 716 001e 0522     		movs	r2, #5
 717 0020 0160     		str	r1, [r0]
 718              	.LBE63:
 719              	.LBE62:
 178:D:/fchai/work/i-cube/I-CUBE-HUAWEI/Middlewares/Third_Party/Huawei/iot_link/network/dtls/mbedtls/mbedtls-2.16.2/library\asn1write.c **** 
 179:D:/fchai/work/i-cube/I-CUBE-HUAWEI/Middlewares/Third_Party/Huawei/iot_link/network/dtls/mbedtls/mbedtls-2.16.2/library\asn1write.c ****     return( (int) len );
 720              		.loc 1 179 13 view .LVU259
 721 0022 0220     		movs	r0, #2
 722              	.LVL58:
 723              	.LBB65:
 724              	.LBB64:
 111:D:/fchai/work/i-cube/I-CUBE-HUAWEI/Middlewares/Third_Party/Huawei/iot_link/network/dtls/mbedtls/mbedtls-2.16.2/library\asn1write.c **** 
 725              		.loc 1 111 13 view .LVU260
 726 0024 03F8012C 		strb	r2, [r3, #-1]
 113:D:/fchai/work/i-cube/I-CUBE-HUAWEI/Middlewares/Third_Party/Huawei/iot_link/network/dtls/mbedtls/mbedtls-2.16.2/library\asn1write.c **** }
 727              		.loc 1 113 5 is_stmt 1 view .LVU261
 728              	.LVL59:
 113:D:/fchai/work/i-cube/I-CUBE-HUAWEI/Middlewares/Third_Party/Huawei/iot_link/network/dtls/mbedtls/mbedtls-2.16.2/library\asn1write.c **** }
 729              		.loc 1 113 5 is_stmt 0 view .LVU262
 730              	.LBE64:
 731              	.LBE65:
 177:D:/fchai/work/i-cube/I-CUBE-HUAWEI/Middlewares/Third_Party/Huawei/iot_link/network/dtls/mbedtls/mbedtls-2.16.2/library\asn1write.c **** 
ARM GAS  T:\msys\tmp\ccoyqwkK.s 			page 19


 732              		.loc 1 177 5 is_stmt 1 view .LVU263
 177:D:/fchai/work/i-cube/I-CUBE-HUAWEI/Middlewares/Third_Party/Huawei/iot_link/network/dtls/mbedtls/mbedtls-2.16.2/library\asn1write.c **** 
 733              		.loc 1 177 5 view .LVU264
 734              		.loc 1 179 5 view .LVU265
 735              	.L33:
 180:D:/fchai/work/i-cube/I-CUBE-HUAWEI/Middlewares/Third_Party/Huawei/iot_link/network/dtls/mbedtls/mbedtls-2.16.2/library\asn1write.c **** }
 736              		.loc 1 180 1 is_stmt 0 view .LVU266
 737 0028 5DF8044B 		ldr	r4, [sp], #4
 738              	.LCFI8:
 739              		.cfi_remember_state
 740              		.cfi_restore 4
 741              		.cfi_def_cfa_offset 0
 742 002c 7047     		bx	lr
 743              	.LVL60:
 744              	.L36:
 745              	.LCFI9:
 746              		.cfi_restore_state
 747              	.LBB66:
 748              	.LBB60:
  47:D:/fchai/work/i-cube/I-CUBE-HUAWEI/Middlewares/Third_Party/Huawei/iot_link/network/dtls/mbedtls/mbedtls-2.16.2/library\asn1write.c **** 
 749              		.loc 1 47 19 view .LVU267
 750 002e 6FF06B00 		mvn	r0, #107
 751              	.LVL61:
  47:D:/fchai/work/i-cube/I-CUBE-HUAWEI/Middlewares/Third_Party/Huawei/iot_link/network/dtls/mbedtls/mbedtls-2.16.2/library\asn1write.c **** 
 752              		.loc 1 47 19 view .LVU268
 753 0032 F9E7     		b	.L33
 754              	.LVL62:
 755              	.L40:
 756              	.LCFI10:
 757              		.cfi_def_cfa_offset 0
 758              		.cfi_restore 4
  47:D:/fchai/work/i-cube/I-CUBE-HUAWEI/Middlewares/Third_Party/Huawei/iot_link/network/dtls/mbedtls/mbedtls-2.16.2/library\asn1write.c **** 
 759              		.loc 1 47 19 view .LVU269
 760 0034 6FF06B00 		mvn	r0, #107
 761              	.LVL63:
  47:D:/fchai/work/i-cube/I-CUBE-HUAWEI/Middlewares/Third_Party/Huawei/iot_link/network/dtls/mbedtls/mbedtls-2.16.2/library\asn1write.c **** 
 762              		.loc 1 47 19 view .LVU270
 763              	.LBE60:
 764              	.LBE66:
 765              		.loc 1 180 1 view .LVU271
 766 0038 7047     		bx	lr
 767              		.cfi_endproc
 768              	.LFE7:
 770 003a 00BF     		.section	.text.mbedtls_asn1_write_oid,"ax",%progbits
 771              		.align	1
 772              		.p2align 2,,3
 773              		.global	mbedtls_asn1_write_oid
 774              		.syntax unified
 775              		.thumb
 776              		.thumb_func
 777              		.fpu fpv4-sp-d16
 779              	mbedtls_asn1_write_oid:
 780              	.LVL64:
 781              	.LFB8:
 181:D:/fchai/work/i-cube/I-CUBE-HUAWEI/Middlewares/Third_Party/Huawei/iot_link/network/dtls/mbedtls/mbedtls-2.16.2/library\asn1write.c **** 
 182:D:/fchai/work/i-cube/I-CUBE-HUAWEI/Middlewares/Third_Party/Huawei/iot_link/network/dtls/mbedtls/mbedtls-2.16.2/library\asn1write.c **** int mbedtls_asn1_write_oid( unsigned char **p, unsigned char *start,
 183:D:/fchai/work/i-cube/I-CUBE-HUAWEI/Middlewares/Third_Party/Huawei/iot_link/network/dtls/mbedtls/mbedtls-2.16.2/library\asn1write.c ****                     const char *oid, size_t oid_len )
ARM GAS  T:\msys\tmp\ccoyqwkK.s 			page 20


 184:D:/fchai/work/i-cube/I-CUBE-HUAWEI/Middlewares/Third_Party/Huawei/iot_link/network/dtls/mbedtls/mbedtls-2.16.2/library\asn1write.c **** {
 782              		.loc 1 184 1 is_stmt 1 view -0
 783              		.cfi_startproc
 784              		@ args = 0, pretend = 0, frame = 0
 785              		@ frame_needed = 0, uses_anonymous_args = 0
 786              		.loc 1 184 1 is_stmt 0 view .LVU273
 787 0000 D0B5     		push	{r4, r6, r7, lr}
 788              	.LCFI11:
 789              		.cfi_def_cfa_offset 16
 790              		.cfi_offset 4, -16
 791              		.cfi_offset 6, -12
 792              		.cfi_offset 7, -8
 793              		.cfi_offset 14, -4
 794              		.loc 1 184 1 view .LVU274
 795 0002 0746     		mov	r7, r0
 796              	.LBB75:
 797              	.LBB76:
 121:D:/fchai/work/i-cube/I-CUBE-HUAWEI/Middlewares/Third_Party/Huawei/iot_link/network/dtls/mbedtls/mbedtls-2.16.2/library\asn1write.c ****         return( MBEDTLS_ERR_ASN1_BUF_TOO_SMALL );
 798              		.loc 1 121 9 view .LVU275
 799 0004 0068     		ldr	r0, [r0]
 800              	.LVL65:
 121:D:/fchai/work/i-cube/I-CUBE-HUAWEI/Middlewares/Third_Party/Huawei/iot_link/network/dtls/mbedtls/mbedtls-2.16.2/library\asn1write.c ****         return( MBEDTLS_ERR_ASN1_BUF_TOO_SMALL );
 801              		.loc 1 121 7 view .LVU276
 802 0006 8142     		cmp	r1, r0
 803              	.LBE76:
 804              	.LBE75:
 805              		.loc 1 184 1 view .LVU277
 806 0008 0E46     		mov	r6, r1
 185:D:/fchai/work/i-cube/I-CUBE-HUAWEI/Middlewares/Third_Party/Huawei/iot_link/network/dtls/mbedtls/mbedtls-2.16.2/library\asn1write.c ****     int ret;
 807              		.loc 1 185 5 is_stmt 1 view .LVU278
 186:D:/fchai/work/i-cube/I-CUBE-HUAWEI/Middlewares/Third_Party/Huawei/iot_link/network/dtls/mbedtls/mbedtls-2.16.2/library\asn1write.c ****     size_t len = 0;
 808              		.loc 1 186 5 view .LVU279
 809              	.LVL66:
 187:D:/fchai/work/i-cube/I-CUBE-HUAWEI/Middlewares/Third_Party/Huawei/iot_link/network/dtls/mbedtls/mbedtls-2.16.2/library\asn1write.c **** 
 188:D:/fchai/work/i-cube/I-CUBE-HUAWEI/Middlewares/Third_Party/Huawei/iot_link/network/dtls/mbedtls/mbedtls-2.16.2/library\asn1write.c ****     MBEDTLS_ASN1_CHK_ADD( len, mbedtls_asn1_write_raw_buffer( p, start,
 810              		.loc 1 188 5 view .LVU280
 811              		.loc 1 188 5 view .LVU281
 812              	.LBB79:
 813              	.LBI75:
 116:D:/fchai/work/i-cube/I-CUBE-HUAWEI/Middlewares/Third_Party/Huawei/iot_link/network/dtls/mbedtls/mbedtls-2.16.2/library\asn1write.c ****                            const unsigned char *buf, size_t size )
 814              		.loc 1 116 5 view .LVU282
 815              	.LBB77:
 119:D:/fchai/work/i-cube/I-CUBE-HUAWEI/Middlewares/Third_Party/Huawei/iot_link/network/dtls/mbedtls/mbedtls-2.16.2/library\asn1write.c **** 
 816              		.loc 1 119 5 view .LVU283
 121:D:/fchai/work/i-cube/I-CUBE-HUAWEI/Middlewares/Third_Party/Huawei/iot_link/network/dtls/mbedtls/mbedtls-2.16.2/library\asn1write.c ****         return( MBEDTLS_ERR_ASN1_BUF_TOO_SMALL );
 817              		.loc 1 121 5 view .LVU284
 121:D:/fchai/work/i-cube/I-CUBE-HUAWEI/Middlewares/Third_Party/Huawei/iot_link/network/dtls/mbedtls/mbedtls-2.16.2/library\asn1write.c ****         return( MBEDTLS_ERR_ASN1_BUF_TOO_SMALL );
 818              		.loc 1 121 7 is_stmt 0 view .LVU285
 819 000a 1FD8     		bhi	.L44
 820 000c 1C46     		mov	r4, r3
 121:D:/fchai/work/i-cube/I-CUBE-HUAWEI/Middlewares/Third_Party/Huawei/iot_link/network/dtls/mbedtls/mbedtls-2.16.2/library\asn1write.c ****         return( MBEDTLS_ERR_ASN1_BUF_TOO_SMALL );
 821              		.loc 1 121 36 view .LVU286
 822 000e 431A     		subs	r3, r0, r1
 823              	.LVL67:
 121:D:/fchai/work/i-cube/I-CUBE-HUAWEI/Middlewares/Third_Party/Huawei/iot_link/network/dtls/mbedtls/mbedtls-2.16.2/library\asn1write.c ****         return( MBEDTLS_ERR_ASN1_BUF_TOO_SMALL );
 824              		.loc 1 121 20 view .LVU287
 825 0010 9C42     		cmp	r4, r3
ARM GAS  T:\msys\tmp\ccoyqwkK.s 			page 21


 826 0012 1BD8     		bhi	.L44
 124:D:/fchai/work/i-cube/I-CUBE-HUAWEI/Middlewares/Third_Party/Huawei/iot_link/network/dtls/mbedtls/mbedtls-2.16.2/library\asn1write.c ****     (*p) -= len;
 827              		.loc 1 124 5 is_stmt 1 view .LVU288
 828              	.LVL68:
 125:D:/fchai/work/i-cube/I-CUBE-HUAWEI/Middlewares/Third_Party/Huawei/iot_link/network/dtls/mbedtls/mbedtls-2.16.2/library\asn1write.c ****     memcpy( *p, buf, len );
 829              		.loc 1 125 5 view .LVU289
 125:D:/fchai/work/i-cube/I-CUBE-HUAWEI/Middlewares/Third_Party/Huawei/iot_link/network/dtls/mbedtls/mbedtls-2.16.2/library\asn1write.c ****     memcpy( *p, buf, len );
 830              		.loc 1 125 10 is_stmt 0 view .LVU290
 831 0014 001B     		subs	r0, r0, r4
 832 0016 1146     		mov	r1, r2
 833              	.LVL69:
 125:D:/fchai/work/i-cube/I-CUBE-HUAWEI/Middlewares/Third_Party/Huawei/iot_link/network/dtls/mbedtls/mbedtls-2.16.2/library\asn1write.c ****     memcpy( *p, buf, len );
 834              		.loc 1 125 10 view .LVU291
 835 0018 3860     		str	r0, [r7]
 126:D:/fchai/work/i-cube/I-CUBE-HUAWEI/Middlewares/Third_Party/Huawei/iot_link/network/dtls/mbedtls/mbedtls-2.16.2/library\asn1write.c **** 
 836              		.loc 1 126 5 is_stmt 1 view .LVU292
 837 001a 2246     		mov	r2, r4
 838              	.LVL70:
 126:D:/fchai/work/i-cube/I-CUBE-HUAWEI/Middlewares/Third_Party/Huawei/iot_link/network/dtls/mbedtls/mbedtls-2.16.2/library\asn1write.c **** 
 839              		.loc 1 126 5 is_stmt 0 view .LVU293
 840 001c FFF7FEFF 		bl	memcpy
 841              	.LVL71:
 128:D:/fchai/work/i-cube/I-CUBE-HUAWEI/Middlewares/Third_Party/Huawei/iot_link/network/dtls/mbedtls/mbedtls-2.16.2/library\asn1write.c **** }
 842              		.loc 1 128 5 is_stmt 1 view .LVU294
 128:D:/fchai/work/i-cube/I-CUBE-HUAWEI/Middlewares/Third_Party/Huawei/iot_link/network/dtls/mbedtls/mbedtls-2.16.2/library\asn1write.c **** }
 843              		.loc 1 128 5 is_stmt 0 view .LVU295
 844              	.LBE77:
 845              	.LBE79:
 846              		.loc 1 188 5 view .LVU296
 847 0020 201E     		subs	r0, r4, #0
 848 0022 12DB     		blt	.L41
 849              	.LVL72:
 850              	.LBB80:
 851              	.LBI80:
 182:D:/fchai/work/i-cube/I-CUBE-HUAWEI/Middlewares/Third_Party/Huawei/iot_link/network/dtls/mbedtls/mbedtls-2.16.2/library\asn1write.c ****                     const char *oid, size_t oid_len )
 852              		.loc 1 182 5 is_stmt 1 view .LVU297
 853              	.LBB81:
 854              		.loc 1 188 5 view .LVU298
 855              		.loc 1 188 5 view .LVU299
 189:D:/fchai/work/i-cube/I-CUBE-HUAWEI/Middlewares/Third_Party/Huawei/iot_link/network/dtls/mbedtls/mbedtls-2.16.2/library\asn1write.c ****                                   (const unsigned char *) oid, oid_len ) );
 190:D:/fchai/work/i-cube/I-CUBE-HUAWEI/Middlewares/Third_Party/Huawei/iot_link/network/dtls/mbedtls/mbedtls-2.16.2/library\asn1write.c ****     MBEDTLS_ASN1_CHK_ADD( len , mbedtls_asn1_write_len( p, start, len ) );
 856              		.loc 1 190 5 view .LVU300
 857              		.loc 1 190 5 view .LVU301
 858 0024 0246     		mov	r2, r0
 859 0026 3146     		mov	r1, r6
 860 0028 3846     		mov	r0, r7
 861 002a FFF7FEFF 		bl	mbedtls_asn1_write_len
 862              	.LVL73:
 863              		.loc 1 190 5 is_stmt 0 view .LVU302
 864 002e 0028     		cmp	r0, #0
 865              		.loc 1 190 5 view .LVU303
 866 0030 0BDB     		blt	.L41
 867              		.loc 1 190 5 is_stmt 1 view .LVU304
 868              	.LBB82:
 869              	.LBB83:
 108:D:/fchai/work/i-cube/I-CUBE-HUAWEI/Middlewares/Third_Party/Huawei/iot_link/network/dtls/mbedtls/mbedtls-2.16.2/library\asn1write.c ****         return( MBEDTLS_ERR_ASN1_BUF_TOO_SMALL );
 870              		.loc 1 108 9 is_stmt 0 view .LVU305
ARM GAS  T:\msys\tmp\ccoyqwkK.s 			page 22


 871 0032 3B68     		ldr	r3, [r7]
 108:D:/fchai/work/i-cube/I-CUBE-HUAWEI/Middlewares/Third_Party/Huawei/iot_link/network/dtls/mbedtls/mbedtls-2.16.2/library\asn1write.c ****         return( MBEDTLS_ERR_ASN1_BUF_TOO_SMALL );
 872              		.loc 1 108 12 view .LVU306
 873 0034 9E1B     		subs	r6, r3, r6
 874              	.LVL74:
 108:D:/fchai/work/i-cube/I-CUBE-HUAWEI/Middlewares/Third_Party/Huawei/iot_link/network/dtls/mbedtls/mbedtls-2.16.2/library\asn1write.c ****         return( MBEDTLS_ERR_ASN1_BUF_TOO_SMALL );
 875              		.loc 1 108 7 view .LVU307
 876 0036 002E     		cmp	r6, #0
 877 0038 04F10104 		add	r4, r4, #1
 878              	.LVL75:
 108:D:/fchai/work/i-cube/I-CUBE-HUAWEI/Middlewares/Third_Party/Huawei/iot_link/network/dtls/mbedtls/mbedtls-2.16.2/library\asn1write.c ****         return( MBEDTLS_ERR_ASN1_BUF_TOO_SMALL );
 879              		.loc 1 108 7 view .LVU308
 880              	.LBE83:
 881              	.LBE82:
 882              		.loc 1 190 5 is_stmt 1 view .LVU309
 191:D:/fchai/work/i-cube/I-CUBE-HUAWEI/Middlewares/Third_Party/Huawei/iot_link/network/dtls/mbedtls/mbedtls-2.16.2/library\asn1write.c ****     MBEDTLS_ASN1_CHK_ADD( len , mbedtls_asn1_write_tag( p, start, MBEDTLS_ASN1_OID ) );
 883              		.loc 1 191 5 view .LVU310
 884              		.loc 1 191 5 view .LVU311
 885              	.LBB86:
 886              	.LBI82:
 106:D:/fchai/work/i-cube/I-CUBE-HUAWEI/Middlewares/Third_Party/Huawei/iot_link/network/dtls/mbedtls/mbedtls-2.16.2/library\asn1write.c **** {
 887              		.loc 1 106 5 view .LVU312
 888              	.LBB84:
 108:D:/fchai/work/i-cube/I-CUBE-HUAWEI/Middlewares/Third_Party/Huawei/iot_link/network/dtls/mbedtls/mbedtls-2.16.2/library\asn1write.c ****         return( MBEDTLS_ERR_ASN1_BUF_TOO_SMALL );
 889              		.loc 1 108 5 view .LVU313
 108:D:/fchai/work/i-cube/I-CUBE-HUAWEI/Middlewares/Third_Party/Huawei/iot_link/network/dtls/mbedtls/mbedtls-2.16.2/library\asn1write.c ****         return( MBEDTLS_ERR_ASN1_BUF_TOO_SMALL );
 890              		.loc 1 108 7 is_stmt 0 view .LVU314
 891 003c 06DD     		ble	.L44
 111:D:/fchai/work/i-cube/I-CUBE-HUAWEI/Middlewares/Third_Party/Huawei/iot_link/network/dtls/mbedtls/mbedtls-2.16.2/library\asn1write.c **** 
 892              		.loc 1 111 5 is_stmt 1 view .LVU315
 111:D:/fchai/work/i-cube/I-CUBE-HUAWEI/Middlewares/Third_Party/Huawei/iot_link/network/dtls/mbedtls/mbedtls-2.16.2/library\asn1write.c **** 
 893              		.loc 1 111 6 is_stmt 0 view .LVU316
 894 003e 591E     		subs	r1, r3, #1
 111:D:/fchai/work/i-cube/I-CUBE-HUAWEI/Middlewares/Third_Party/Huawei/iot_link/network/dtls/mbedtls/mbedtls-2.16.2/library\asn1write.c **** 
 895              		.loc 1 111 13 view .LVU317
 896 0040 0622     		movs	r2, #6
 897 0042 3960     		str	r1, [r7]
 898              	.LBE84:
 899              	.LBE86:
 900              		.loc 1 191 5 view .LVU318
 901 0044 2044     		add	r0, r0, r4
 902              	.LVL76:
 903              	.LBB87:
 904              	.LBB85:
 111:D:/fchai/work/i-cube/I-CUBE-HUAWEI/Middlewares/Third_Party/Huawei/iot_link/network/dtls/mbedtls/mbedtls-2.16.2/library\asn1write.c **** 
 905              		.loc 1 111 13 view .LVU319
 906 0046 03F8012C 		strb	r2, [r3, #-1]
 113:D:/fchai/work/i-cube/I-CUBE-HUAWEI/Middlewares/Third_Party/Huawei/iot_link/network/dtls/mbedtls/mbedtls-2.16.2/library\asn1write.c **** }
 907              		.loc 1 113 5 is_stmt 1 view .LVU320
 908              	.LVL77:
 113:D:/fchai/work/i-cube/I-CUBE-HUAWEI/Middlewares/Third_Party/Huawei/iot_link/network/dtls/mbedtls/mbedtls-2.16.2/library\asn1write.c **** }
 909              		.loc 1 113 5 is_stmt 0 view .LVU321
 910              	.LBE85:
 911              	.LBE87:
 912              		.loc 1 191 5 is_stmt 1 view .LVU322
 913              		.loc 1 191 5 view .LVU323
 192:D:/fchai/work/i-cube/I-CUBE-HUAWEI/Middlewares/Third_Party/Huawei/iot_link/network/dtls/mbedtls/mbedtls-2.16.2/library\asn1write.c **** 
ARM GAS  T:\msys\tmp\ccoyqwkK.s 			page 23


 193:D:/fchai/work/i-cube/I-CUBE-HUAWEI/Middlewares/Third_Party/Huawei/iot_link/network/dtls/mbedtls/mbedtls-2.16.2/library\asn1write.c ****     return( (int) len );
 914              		.loc 1 193 5 view .LVU324
 915              	.L41:
 916              		.loc 1 193 5 is_stmt 0 view .LVU325
 917              	.LBE81:
 918              	.LBE80:
 194:D:/fchai/work/i-cube/I-CUBE-HUAWEI/Middlewares/Third_Party/Huawei/iot_link/network/dtls/mbedtls/mbedtls-2.16.2/library\asn1write.c **** }
 919              		.loc 1 194 1 view .LVU326
 920 004a D0BD     		pop	{r4, r6, r7, pc}
 921              	.LVL78:
 922              	.L44:
 923              	.LBB88:
 924              	.LBB78:
 122:D:/fchai/work/i-cube/I-CUBE-HUAWEI/Middlewares/Third_Party/Huawei/iot_link/network/dtls/mbedtls/mbedtls-2.16.2/library\asn1write.c **** 
 925              		.loc 1 122 15 view .LVU327
 926 004c 6FF06B00 		mvn	r0, #107
 927              	.LBE78:
 928              	.LBE88:
 929              		.loc 1 194 1 view .LVU328
 930 0050 D0BD     		pop	{r4, r6, r7, pc}
 931              		.loc 1 194 1 view .LVU329
 932              		.cfi_endproc
 933              	.LFE8:
 935 0052 00BF     		.section	.text.mbedtls_asn1_write_algorithm_identifier,"ax",%progbits
 936              		.align	1
 937              		.p2align 2,,3
 938              		.global	mbedtls_asn1_write_algorithm_identifier
 939              		.syntax unified
 940              		.thumb
 941              		.thumb_func
 942              		.fpu fpv4-sp-d16
 944              	mbedtls_asn1_write_algorithm_identifier:
 945              	.LVL79:
 946              	.LFB9:
 195:D:/fchai/work/i-cube/I-CUBE-HUAWEI/Middlewares/Third_Party/Huawei/iot_link/network/dtls/mbedtls/mbedtls-2.16.2/library\asn1write.c **** 
 196:D:/fchai/work/i-cube/I-CUBE-HUAWEI/Middlewares/Third_Party/Huawei/iot_link/network/dtls/mbedtls/mbedtls-2.16.2/library\asn1write.c **** int mbedtls_asn1_write_algorithm_identifier( unsigned char **p, unsigned char *start,
 197:D:/fchai/work/i-cube/I-CUBE-HUAWEI/Middlewares/Third_Party/Huawei/iot_link/network/dtls/mbedtls/mbedtls-2.16.2/library\asn1write.c ****                                      const char *oid, size_t oid_len,
 198:D:/fchai/work/i-cube/I-CUBE-HUAWEI/Middlewares/Third_Party/Huawei/iot_link/network/dtls/mbedtls/mbedtls-2.16.2/library\asn1write.c ****                                      size_t par_len )
 199:D:/fchai/work/i-cube/I-CUBE-HUAWEI/Middlewares/Third_Party/Huawei/iot_link/network/dtls/mbedtls/mbedtls-2.16.2/library\asn1write.c **** {
 947              		.loc 1 199 1 is_stmt 1 view -0
 948              		.cfi_startproc
 949              		@ args = 4, pretend = 0, frame = 0
 950              		@ frame_needed = 0, uses_anonymous_args = 0
 200:D:/fchai/work/i-cube/I-CUBE-HUAWEI/Middlewares/Third_Party/Huawei/iot_link/network/dtls/mbedtls/mbedtls-2.16.2/library\asn1write.c ****     int ret;
 951              		.loc 1 200 5 view .LVU331
 201:D:/fchai/work/i-cube/I-CUBE-HUAWEI/Middlewares/Third_Party/Huawei/iot_link/network/dtls/mbedtls/mbedtls-2.16.2/library\asn1write.c ****     size_t len = 0;
 952              		.loc 1 201 5 view .LVU332
 202:D:/fchai/work/i-cube/I-CUBE-HUAWEI/Middlewares/Third_Party/Huawei/iot_link/network/dtls/mbedtls/mbedtls-2.16.2/library\asn1write.c **** 
 203:D:/fchai/work/i-cube/I-CUBE-HUAWEI/Middlewares/Third_Party/Huawei/iot_link/network/dtls/mbedtls/mbedtls-2.16.2/library\asn1write.c ****     if( par_len == 0 )
 953              		.loc 1 203 5 view .LVU333
 199:D:/fchai/work/i-cube/I-CUBE-HUAWEI/Middlewares/Third_Party/Huawei/iot_link/network/dtls/mbedtls/mbedtls-2.16.2/library\asn1write.c ****     int ret;
 954              		.loc 1 199 1 is_stmt 0 view .LVU334
 955 0000 70B5     		push	{r4, r5, r6, lr}
 956              	.LCFI12:
 957              		.cfi_def_cfa_offset 16
 958              		.cfi_offset 4, -16
 959              		.cfi_offset 5, -12
ARM GAS  T:\msys\tmp\ccoyqwkK.s 			page 24


 960              		.cfi_offset 6, -8
 961              		.cfi_offset 14, -4
 199:D:/fchai/work/i-cube/I-CUBE-HUAWEI/Middlewares/Third_Party/Huawei/iot_link/network/dtls/mbedtls/mbedtls-2.16.2/library\asn1write.c ****     int ret;
 962              		.loc 1 199 1 view .LVU335
 963 0002 049E     		ldr	r6, [sp, #16]
 964 0004 0446     		mov	r4, r0
 965 0006 0D46     		mov	r5, r1
 966              		.loc 1 203 7 view .LVU336
 967 0008 8EB9     		cbnz	r6, .L47
 204:D:/fchai/work/i-cube/I-CUBE-HUAWEI/Middlewares/Third_Party/Huawei/iot_link/network/dtls/mbedtls/mbedtls-2.16.2/library\asn1write.c ****         MBEDTLS_ASN1_CHK_ADD( len, mbedtls_asn1_write_null( p, start ) );
 968              		.loc 1 204 9 is_stmt 1 view .LVU337
 969              		.loc 1 204 9 view .LVU338
 970              	.LVL80:
 971              	.LBB89:
 972              	.LBI89:
 169:D:/fchai/work/i-cube/I-CUBE-HUAWEI/Middlewares/Third_Party/Huawei/iot_link/network/dtls/mbedtls/mbedtls-2.16.2/library\asn1write.c **** {
 973              		.loc 1 169 5 view .LVU339
 974              	.LBB90:
 171:D:/fchai/work/i-cube/I-CUBE-HUAWEI/Middlewares/Third_Party/Huawei/iot_link/network/dtls/mbedtls/mbedtls-2.16.2/library\asn1write.c ****     size_t len = 0;
 975              		.loc 1 171 5 view .LVU340
 172:D:/fchai/work/i-cube/I-CUBE-HUAWEI/Middlewares/Third_Party/Huawei/iot_link/network/dtls/mbedtls/mbedtls-2.16.2/library\asn1write.c **** 
 976              		.loc 1 172 5 view .LVU341
 176:D:/fchai/work/i-cube/I-CUBE-HUAWEI/Middlewares/Third_Party/Huawei/iot_link/network/dtls/mbedtls/mbedtls-2.16.2/library\asn1write.c ****     MBEDTLS_ASN1_CHK_ADD( len, mbedtls_asn1_write_tag( p, start, MBEDTLS_ASN1_NULL ) );
 977              		.loc 1 176 5 view .LVU342
 176:D:/fchai/work/i-cube/I-CUBE-HUAWEI/Middlewares/Third_Party/Huawei/iot_link/network/dtls/mbedtls/mbedtls-2.16.2/library\asn1write.c ****     MBEDTLS_ASN1_CHK_ADD( len, mbedtls_asn1_write_tag( p, start, MBEDTLS_ASN1_NULL ) );
 978              		.loc 1 176 5 view .LVU343
 979              	.LBB91:
 980              	.LBI91:
  42:D:/fchai/work/i-cube/I-CUBE-HUAWEI/Middlewares/Third_Party/Huawei/iot_link/network/dtls/mbedtls/mbedtls-2.16.2/library\asn1write.c **** {
 981              		.loc 1 42 5 view .LVU344
 982              	.LBB92:
  44:D:/fchai/work/i-cube/I-CUBE-HUAWEI/Middlewares/Third_Party/Huawei/iot_link/network/dtls/mbedtls/mbedtls-2.16.2/library\asn1write.c ****     {
 983              		.loc 1 44 5 view .LVU345
  46:D:/fchai/work/i-cube/I-CUBE-HUAWEI/Middlewares/Third_Party/Huawei/iot_link/network/dtls/mbedtls/mbedtls-2.16.2/library\asn1write.c ****             return( MBEDTLS_ERR_ASN1_BUF_TOO_SMALL );
 984              		.loc 1 46 9 view .LVU346
  46:D:/fchai/work/i-cube/I-CUBE-HUAWEI/Middlewares/Third_Party/Huawei/iot_link/network/dtls/mbedtls/mbedtls-2.16.2/library\asn1write.c ****             return( MBEDTLS_ERR_ASN1_BUF_TOO_SMALL );
 985              		.loc 1 46 13 is_stmt 0 view .LVU347
 986 000a 0168     		ldr	r1, [r0]
 987              	.LVL81:
  46:D:/fchai/work/i-cube/I-CUBE-HUAWEI/Middlewares/Third_Party/Huawei/iot_link/network/dtls/mbedtls/mbedtls-2.16.2/library\asn1write.c ****             return( MBEDTLS_ERR_ASN1_BUF_TOO_SMALL );
 988              		.loc 1 46 16 view .LVU348
 989 000c 481B     		subs	r0, r1, r5
 990              	.LVL82:
  46:D:/fchai/work/i-cube/I-CUBE-HUAWEI/Middlewares/Third_Party/Huawei/iot_link/network/dtls/mbedtls/mbedtls-2.16.2/library\asn1write.c ****             return( MBEDTLS_ERR_ASN1_BUF_TOO_SMALL );
 991              		.loc 1 46 11 view .LVU349
 992 000e 0028     		cmp	r0, #0
 993 0010 28DD     		ble	.L50
  49:D:/fchai/work/i-cube/I-CUBE-HUAWEI/Middlewares/Third_Party/Huawei/iot_link/network/dtls/mbedtls/mbedtls-2.16.2/library\asn1write.c ****         return( 1 );
 994              		.loc 1 49 9 is_stmt 1 view .LVU350
  49:D:/fchai/work/i-cube/I-CUBE-HUAWEI/Middlewares/Third_Party/Huawei/iot_link/network/dtls/mbedtls/mbedtls-2.16.2/library\asn1write.c ****         return( 1 );
 995              		.loc 1 49 10 is_stmt 0 view .LVU351
 996 0012 481E     		subs	r0, r1, #1
  49:D:/fchai/work/i-cube/I-CUBE-HUAWEI/Middlewares/Third_Party/Huawei/iot_link/network/dtls/mbedtls/mbedtls-2.16.2/library\asn1write.c ****         return( 1 );
 997              		.loc 1 49 17 view .LVU352
 998 0014 2060     		str	r0, [r4]
 999 0016 01F8016C 		strb	r6, [r1, #-1]
  50:D:/fchai/work/i-cube/I-CUBE-HUAWEI/Middlewares/Third_Party/Huawei/iot_link/network/dtls/mbedtls/mbedtls-2.16.2/library\asn1write.c ****     }
ARM GAS  T:\msys\tmp\ccoyqwkK.s 			page 25


 1000              		.loc 1 50 9 is_stmt 1 view .LVU353
 1001              	.LVL83:
  50:D:/fchai/work/i-cube/I-CUBE-HUAWEI/Middlewares/Third_Party/Huawei/iot_link/network/dtls/mbedtls/mbedtls-2.16.2/library\asn1write.c ****     }
 1002              		.loc 1 50 9 is_stmt 0 view .LVU354
 1003              	.LBE92:
 1004              	.LBE91:
 176:D:/fchai/work/i-cube/I-CUBE-HUAWEI/Middlewares/Third_Party/Huawei/iot_link/network/dtls/mbedtls/mbedtls-2.16.2/library\asn1write.c ****     MBEDTLS_ASN1_CHK_ADD( len, mbedtls_asn1_write_tag( p, start, MBEDTLS_ASN1_NULL ) );
 1005              		.loc 1 176 5 is_stmt 1 view .LVU355
 176:D:/fchai/work/i-cube/I-CUBE-HUAWEI/Middlewares/Third_Party/Huawei/iot_link/network/dtls/mbedtls/mbedtls-2.16.2/library\asn1write.c ****     MBEDTLS_ASN1_CHK_ADD( len, mbedtls_asn1_write_tag( p, start, MBEDTLS_ASN1_NULL ) );
 1006              		.loc 1 176 5 view .LVU356
 177:D:/fchai/work/i-cube/I-CUBE-HUAWEI/Middlewares/Third_Party/Huawei/iot_link/network/dtls/mbedtls/mbedtls-2.16.2/library\asn1write.c **** 
 1007              		.loc 1 177 5 view .LVU357
 177:D:/fchai/work/i-cube/I-CUBE-HUAWEI/Middlewares/Third_Party/Huawei/iot_link/network/dtls/mbedtls/mbedtls-2.16.2/library\asn1write.c **** 
 1008              		.loc 1 177 5 view .LVU358
 1009              	.LBB93:
 1010              	.LBI93:
 106:D:/fchai/work/i-cube/I-CUBE-HUAWEI/Middlewares/Third_Party/Huawei/iot_link/network/dtls/mbedtls/mbedtls-2.16.2/library\asn1write.c **** {
 1011              		.loc 1 106 5 view .LVU359
 1012              	.LBB94:
 108:D:/fchai/work/i-cube/I-CUBE-HUAWEI/Middlewares/Third_Party/Huawei/iot_link/network/dtls/mbedtls/mbedtls-2.16.2/library\asn1write.c ****         return( MBEDTLS_ERR_ASN1_BUF_TOO_SMALL );
 1013              		.loc 1 108 5 view .LVU360
 108:D:/fchai/work/i-cube/I-CUBE-HUAWEI/Middlewares/Third_Party/Huawei/iot_link/network/dtls/mbedtls/mbedtls-2.16.2/library\asn1write.c ****         return( MBEDTLS_ERR_ASN1_BUF_TOO_SMALL );
 1014              		.loc 1 108 9 is_stmt 0 view .LVU361
 1015 001a 2168     		ldr	r1, [r4]
 108:D:/fchai/work/i-cube/I-CUBE-HUAWEI/Middlewares/Third_Party/Huawei/iot_link/network/dtls/mbedtls/mbedtls-2.16.2/library\asn1write.c ****         return( MBEDTLS_ERR_ASN1_BUF_TOO_SMALL );
 1016              		.loc 1 108 12 view .LVU362
 1017 001c 481B     		subs	r0, r1, r5
 108:D:/fchai/work/i-cube/I-CUBE-HUAWEI/Middlewares/Third_Party/Huawei/iot_link/network/dtls/mbedtls/mbedtls-2.16.2/library\asn1write.c ****         return( MBEDTLS_ERR_ASN1_BUF_TOO_SMALL );
 1018              		.loc 1 108 7 view .LVU363
 1019 001e 0028     		cmp	r0, #0
 1020 0020 20DD     		ble	.L50
 111:D:/fchai/work/i-cube/I-CUBE-HUAWEI/Middlewares/Third_Party/Huawei/iot_link/network/dtls/mbedtls/mbedtls-2.16.2/library\asn1write.c **** 
 1021              		.loc 1 111 5 is_stmt 1 view .LVU364
 111:D:/fchai/work/i-cube/I-CUBE-HUAWEI/Middlewares/Third_Party/Huawei/iot_link/network/dtls/mbedtls/mbedtls-2.16.2/library\asn1write.c **** 
 1022              		.loc 1 111 6 is_stmt 0 view .LVU365
 1023 0022 4E1E     		subs	r6, r1, #1
 111:D:/fchai/work/i-cube/I-CUBE-HUAWEI/Middlewares/Third_Party/Huawei/iot_link/network/dtls/mbedtls/mbedtls-2.16.2/library\asn1write.c **** 
 1024              		.loc 1 111 13 view .LVU366
 1025 0024 0520     		movs	r0, #5
 1026 0026 2660     		str	r6, [r4]
 1027 0028 01F8010C 		strb	r0, [r1, #-1]
 113:D:/fchai/work/i-cube/I-CUBE-HUAWEI/Middlewares/Third_Party/Huawei/iot_link/network/dtls/mbedtls/mbedtls-2.16.2/library\asn1write.c **** }
 1028              		.loc 1 113 5 is_stmt 1 view .LVU367
 1029              	.LVL84:
 113:D:/fchai/work/i-cube/I-CUBE-HUAWEI/Middlewares/Third_Party/Huawei/iot_link/network/dtls/mbedtls/mbedtls-2.16.2/library\asn1write.c **** }
 1030              		.loc 1 113 5 is_stmt 0 view .LVU368
 1031              	.LBE94:
 1032              	.LBE93:
 177:D:/fchai/work/i-cube/I-CUBE-HUAWEI/Middlewares/Third_Party/Huawei/iot_link/network/dtls/mbedtls/mbedtls-2.16.2/library\asn1write.c **** 
 1033              		.loc 1 177 5 is_stmt 1 view .LVU369
 177:D:/fchai/work/i-cube/I-CUBE-HUAWEI/Middlewares/Third_Party/Huawei/iot_link/network/dtls/mbedtls/mbedtls-2.16.2/library\asn1write.c **** 
 1034              		.loc 1 177 5 view .LVU370
 179:D:/fchai/work/i-cube/I-CUBE-HUAWEI/Middlewares/Third_Party/Huawei/iot_link/network/dtls/mbedtls/mbedtls-2.16.2/library\asn1write.c **** }
 1035              		.loc 1 179 5 view .LVU371
 179:D:/fchai/work/i-cube/I-CUBE-HUAWEI/Middlewares/Third_Party/Huawei/iot_link/network/dtls/mbedtls/mbedtls-2.16.2/library\asn1write.c **** }
 1036              		.loc 1 179 5 is_stmt 0 view .LVU372
 1037              	.LBE90:
ARM GAS  T:\msys\tmp\ccoyqwkK.s 			page 26


 1038              	.LBE89:
 1039              		.loc 1 204 9 is_stmt 1 view .LVU373
 1040              		.loc 1 204 9 view .LVU374
 1041 002c 0226     		movs	r6, #2
 1042              	.LVL85:
 1043              	.L47:
 205:D:/fchai/work/i-cube/I-CUBE-HUAWEI/Middlewares/Third_Party/Huawei/iot_link/network/dtls/mbedtls/mbedtls-2.16.2/library\asn1write.c ****     else
 206:D:/fchai/work/i-cube/I-CUBE-HUAWEI/Middlewares/Third_Party/Huawei/iot_link/network/dtls/mbedtls/mbedtls-2.16.2/library\asn1write.c ****         len += par_len;
 207:D:/fchai/work/i-cube/I-CUBE-HUAWEI/Middlewares/Third_Party/Huawei/iot_link/network/dtls/mbedtls/mbedtls-2.16.2/library\asn1write.c **** 
 208:D:/fchai/work/i-cube/I-CUBE-HUAWEI/Middlewares/Third_Party/Huawei/iot_link/network/dtls/mbedtls/mbedtls-2.16.2/library\asn1write.c ****     MBEDTLS_ASN1_CHK_ADD( len, mbedtls_asn1_write_oid( p, start, oid, oid_len ) );
 1044              		.loc 1 208 5 view .LVU375
 1045              		.loc 1 208 5 view .LVU376
 1046 002e 2946     		mov	r1, r5
 1047 0030 2046     		mov	r0, r4
 1048 0032 FFF7FEFF 		bl	mbedtls_asn1_write_oid
 1049              	.LVL86:
 1050              		.loc 1 208 5 is_stmt 0 view .LVU377
 1051 0036 0028     		cmp	r0, #0
 1052              		.loc 1 208 5 view .LVU378
 1053 0038 13DB     		blt	.L46
 1054              		.loc 1 208 5 is_stmt 1 discriminator 2 view .LVU379
 1055 003a 0644     		add	r6, r6, r0
 1056              	.LVL87:
 1057              		.loc 1 208 5 discriminator 2 view .LVU380
 209:D:/fchai/work/i-cube/I-CUBE-HUAWEI/Middlewares/Third_Party/Huawei/iot_link/network/dtls/mbedtls/mbedtls-2.16.2/library\asn1write.c **** 
 210:D:/fchai/work/i-cube/I-CUBE-HUAWEI/Middlewares/Third_Party/Huawei/iot_link/network/dtls/mbedtls/mbedtls-2.16.2/library\asn1write.c ****     MBEDTLS_ASN1_CHK_ADD( len, mbedtls_asn1_write_len( p, start, len ) );
 1058              		.loc 1 210 5 discriminator 2 view .LVU381
 1059              		.loc 1 210 5 discriminator 2 view .LVU382
 1060 003c 3246     		mov	r2, r6
 1061 003e 2946     		mov	r1, r5
 1062 0040 2046     		mov	r0, r4
 1063              	.LVL88:
 1064              		.loc 1 210 5 is_stmt 0 discriminator 2 view .LVU383
 1065 0042 FFF7FEFF 		bl	mbedtls_asn1_write_len
 1066              	.LVL89:
 1067              		.loc 1 210 5 discriminator 2 view .LVU384
 1068 0046 0028     		cmp	r0, #0
 1069              		.loc 1 210 5 discriminator 2 view .LVU385
 1070 0048 0BDB     		blt	.L46
 1071              		.loc 1 210 5 is_stmt 1 discriminator 2 view .LVU386
 1072              	.LBB95:
 1073              	.LBB96:
 108:D:/fchai/work/i-cube/I-CUBE-HUAWEI/Middlewares/Third_Party/Huawei/iot_link/network/dtls/mbedtls/mbedtls-2.16.2/library\asn1write.c ****         return( MBEDTLS_ERR_ASN1_BUF_TOO_SMALL );
 1074              		.loc 1 108 9 is_stmt 0 discriminator 2 view .LVU387
 1075 004a 2368     		ldr	r3, [r4]
 108:D:/fchai/work/i-cube/I-CUBE-HUAWEI/Middlewares/Third_Party/Huawei/iot_link/network/dtls/mbedtls/mbedtls-2.16.2/library\asn1write.c ****         return( MBEDTLS_ERR_ASN1_BUF_TOO_SMALL );
 1076              		.loc 1 108 12 discriminator 2 view .LVU388
 1077 004c 5D1B     		subs	r5, r3, r5
 1078              	.LVL90:
 108:D:/fchai/work/i-cube/I-CUBE-HUAWEI/Middlewares/Third_Party/Huawei/iot_link/network/dtls/mbedtls/mbedtls-2.16.2/library\asn1write.c ****         return( MBEDTLS_ERR_ASN1_BUF_TOO_SMALL );
 1079              		.loc 1 108 7 discriminator 2 view .LVU389
 1080 004e 002D     		cmp	r5, #0
 1081 0050 06F10106 		add	r6, r6, #1
 1082              	.LVL91:
 108:D:/fchai/work/i-cube/I-CUBE-HUAWEI/Middlewares/Third_Party/Huawei/iot_link/network/dtls/mbedtls/mbedtls-2.16.2/library\asn1write.c ****         return( MBEDTLS_ERR_ASN1_BUF_TOO_SMALL );
 1083              		.loc 1 108 7 discriminator 2 view .LVU390
 1084              	.LBE96:
ARM GAS  T:\msys\tmp\ccoyqwkK.s 			page 27


 1085              	.LBE95:
 1086              		.loc 1 210 5 is_stmt 1 discriminator 2 view .LVU391
 211:D:/fchai/work/i-cube/I-CUBE-HUAWEI/Middlewares/Third_Party/Huawei/iot_link/network/dtls/mbedtls/mbedtls-2.16.2/library\asn1write.c ****     MBEDTLS_ASN1_CHK_ADD( len, mbedtls_asn1_write_tag( p, start,
 1087              		.loc 1 211 5 discriminator 2 view .LVU392
 1088              		.loc 1 211 5 discriminator 2 view .LVU393
 1089              	.LBB99:
 1090              	.LBI95:
 106:D:/fchai/work/i-cube/I-CUBE-HUAWEI/Middlewares/Third_Party/Huawei/iot_link/network/dtls/mbedtls/mbedtls-2.16.2/library\asn1write.c **** {
 1091              		.loc 1 106 5 discriminator 2 view .LVU394
 1092              	.LBB97:
 108:D:/fchai/work/i-cube/I-CUBE-HUAWEI/Middlewares/Third_Party/Huawei/iot_link/network/dtls/mbedtls/mbedtls-2.16.2/library\asn1write.c ****         return( MBEDTLS_ERR_ASN1_BUF_TOO_SMALL );
 1093              		.loc 1 108 5 discriminator 2 view .LVU395
 108:D:/fchai/work/i-cube/I-CUBE-HUAWEI/Middlewares/Third_Party/Huawei/iot_link/network/dtls/mbedtls/mbedtls-2.16.2/library\asn1write.c ****         return( MBEDTLS_ERR_ASN1_BUF_TOO_SMALL );
 1094              		.loc 1 108 7 is_stmt 0 discriminator 2 view .LVU396
 1095 0054 06DD     		ble	.L50
 111:D:/fchai/work/i-cube/I-CUBE-HUAWEI/Middlewares/Third_Party/Huawei/iot_link/network/dtls/mbedtls/mbedtls-2.16.2/library\asn1write.c **** 
 1096              		.loc 1 111 5 is_stmt 1 view .LVU397
 111:D:/fchai/work/i-cube/I-CUBE-HUAWEI/Middlewares/Third_Party/Huawei/iot_link/network/dtls/mbedtls/mbedtls-2.16.2/library\asn1write.c **** 
 1097              		.loc 1 111 6 is_stmt 0 view .LVU398
 1098 0056 591E     		subs	r1, r3, #1
 111:D:/fchai/work/i-cube/I-CUBE-HUAWEI/Middlewares/Third_Party/Huawei/iot_link/network/dtls/mbedtls/mbedtls-2.16.2/library\asn1write.c **** 
 1099              		.loc 1 111 13 view .LVU399
 1100 0058 3022     		movs	r2, #48
 1101 005a 2160     		str	r1, [r4]
 1102              	.LBE97:
 1103              	.LBE99:
 1104              		.loc 1 211 5 view .LVU400
 1105 005c 3044     		add	r0, r0, r6
 1106              	.LVL92:
 1107              	.LBB100:
 1108              	.LBB98:
 111:D:/fchai/work/i-cube/I-CUBE-HUAWEI/Middlewares/Third_Party/Huawei/iot_link/network/dtls/mbedtls/mbedtls-2.16.2/library\asn1write.c **** 
 1109              		.loc 1 111 13 view .LVU401
 1110 005e 03F8012C 		strb	r2, [r3, #-1]
 113:D:/fchai/work/i-cube/I-CUBE-HUAWEI/Middlewares/Third_Party/Huawei/iot_link/network/dtls/mbedtls/mbedtls-2.16.2/library\asn1write.c **** }
 1111              		.loc 1 113 5 is_stmt 1 view .LVU402
 1112              	.LVL93:
 113:D:/fchai/work/i-cube/I-CUBE-HUAWEI/Middlewares/Third_Party/Huawei/iot_link/network/dtls/mbedtls/mbedtls-2.16.2/library\asn1write.c **** }
 1113              		.loc 1 113 5 is_stmt 0 view .LVU403
 1114              	.LBE98:
 1115              	.LBE100:
 1116              		.loc 1 211 5 is_stmt 1 view .LVU404
 1117              		.loc 1 211 5 view .LVU405
 212:D:/fchai/work/i-cube/I-CUBE-HUAWEI/Middlewares/Third_Party/Huawei/iot_link/network/dtls/mbedtls/mbedtls-2.16.2/library\asn1write.c ****                                        MBEDTLS_ASN1_CONSTRUCTED | MBEDTLS_ASN1_SEQUENCE ) );
 213:D:/fchai/work/i-cube/I-CUBE-HUAWEI/Middlewares/Third_Party/Huawei/iot_link/network/dtls/mbedtls/mbedtls-2.16.2/library\asn1write.c **** 
 214:D:/fchai/work/i-cube/I-CUBE-HUAWEI/Middlewares/Third_Party/Huawei/iot_link/network/dtls/mbedtls/mbedtls-2.16.2/library\asn1write.c ****     return( (int) len );
 1118              		.loc 1 214 5 view .LVU406
 1119              	.L46:
 215:D:/fchai/work/i-cube/I-CUBE-HUAWEI/Middlewares/Third_Party/Huawei/iot_link/network/dtls/mbedtls/mbedtls-2.16.2/library\asn1write.c **** }
 1120              		.loc 1 215 1 is_stmt 0 view .LVU407
 1121 0062 70BD     		pop	{r4, r5, r6, pc}
 1122              	.LVL94:
 1123              	.L50:
 204:D:/fchai/work/i-cube/I-CUBE-HUAWEI/Middlewares/Third_Party/Huawei/iot_link/network/dtls/mbedtls/mbedtls-2.16.2/library\asn1write.c ****     else
 1124              		.loc 1 204 9 view .LVU408
 1125 0064 6FF06B00 		mvn	r0, #107
 1126              		.loc 1 215 1 view .LVU409
ARM GAS  T:\msys\tmp\ccoyqwkK.s 			page 28


 1127 0068 70BD     		pop	{r4, r5, r6, pc}
 1128              		.loc 1 215 1 view .LVU410
 1129              		.cfi_endproc
 1130              	.LFE9:
 1132 006a 00BF     		.section	.text.mbedtls_asn1_write_bool,"ax",%progbits
 1133              		.align	1
 1134              		.p2align 2,,3
 1135              		.global	mbedtls_asn1_write_bool
 1136              		.syntax unified
 1137              		.thumb
 1138              		.thumb_func
 1139              		.fpu fpv4-sp-d16
 1141              	mbedtls_asn1_write_bool:
 1142              	.LVL95:
 1143              	.LFB10:
 216:D:/fchai/work/i-cube/I-CUBE-HUAWEI/Middlewares/Third_Party/Huawei/iot_link/network/dtls/mbedtls/mbedtls-2.16.2/library\asn1write.c **** 
 217:D:/fchai/work/i-cube/I-CUBE-HUAWEI/Middlewares/Third_Party/Huawei/iot_link/network/dtls/mbedtls/mbedtls-2.16.2/library\asn1write.c **** int mbedtls_asn1_write_bool( unsigned char **p, unsigned char *start, int boolean )
 218:D:/fchai/work/i-cube/I-CUBE-HUAWEI/Middlewares/Third_Party/Huawei/iot_link/network/dtls/mbedtls/mbedtls-2.16.2/library\asn1write.c **** {
 1144              		.loc 1 218 1 is_stmt 1 view -0
 1145              		.cfi_startproc
 1146              		@ args = 0, pretend = 0, frame = 0
 1147              		@ frame_needed = 0, uses_anonymous_args = 0
 219:D:/fchai/work/i-cube/I-CUBE-HUAWEI/Middlewares/Third_Party/Huawei/iot_link/network/dtls/mbedtls/mbedtls-2.16.2/library\asn1write.c ****     int ret;
 1148              		.loc 1 219 5 view .LVU412
 220:D:/fchai/work/i-cube/I-CUBE-HUAWEI/Middlewares/Third_Party/Huawei/iot_link/network/dtls/mbedtls/mbedtls-2.16.2/library\asn1write.c ****     size_t len = 0;
 1149              		.loc 1 220 5 view .LVU413
 221:D:/fchai/work/i-cube/I-CUBE-HUAWEI/Middlewares/Third_Party/Huawei/iot_link/network/dtls/mbedtls/mbedtls-2.16.2/library\asn1write.c **** 
 222:D:/fchai/work/i-cube/I-CUBE-HUAWEI/Middlewares/Third_Party/Huawei/iot_link/network/dtls/mbedtls/mbedtls-2.16.2/library\asn1write.c ****     if( *p - start < 1 )
 1150              		.loc 1 222 5 view .LVU414
 218:D:/fchai/work/i-cube/I-CUBE-HUAWEI/Middlewares/Third_Party/Huawei/iot_link/network/dtls/mbedtls/mbedtls-2.16.2/library\asn1write.c ****     int ret;
 1151              		.loc 1 218 1 is_stmt 0 view .LVU415
 1152 0000 70B5     		push	{r4, r5, r6, lr}
 1153              	.LCFI13:
 1154              		.cfi_def_cfa_offset 16
 1155              		.cfi_offset 4, -16
 1156              		.cfi_offset 5, -12
 1157              		.cfi_offset 6, -8
 1158              		.cfi_offset 14, -4
 1159              		.loc 1 222 9 view .LVU416
 1160 0002 0668     		ldr	r6, [r0]
 1161              		.loc 1 222 12 view .LVU417
 1162 0004 731A     		subs	r3, r6, r1
 1163              		.loc 1 222 7 view .LVU418
 1164 0006 002B     		cmp	r3, #0
 1165 0008 19DD     		ble	.L55
 223:D:/fchai/work/i-cube/I-CUBE-HUAWEI/Middlewares/Third_Party/Huawei/iot_link/network/dtls/mbedtls/mbedtls-2.16.2/library\asn1write.c ****         return( MBEDTLS_ERR_ASN1_BUF_TOO_SMALL );
 224:D:/fchai/work/i-cube/I-CUBE-HUAWEI/Middlewares/Third_Party/Huawei/iot_link/network/dtls/mbedtls/mbedtls-2.16.2/library\asn1write.c **** 
 225:D:/fchai/work/i-cube/I-CUBE-HUAWEI/Middlewares/Third_Party/Huawei/iot_link/network/dtls/mbedtls/mbedtls-2.16.2/library\asn1write.c ****     *--(*p) = (boolean) ? 255 : 0;
 1166              		.loc 1 225 5 is_stmt 1 view .LVU419
 1167              		.loc 1 225 13 is_stmt 0 view .LVU420
 1168 000a 003A     		subs	r2, r2, #0
 1169              		.loc 1 225 13 view .LVU421
 1170 000c 18BF     		it	ne
 1171 000e 0122     		movne	r2, #1
 1172              	.LVL96:
 1173              		.loc 1 225 13 view .LVU422
 1174 0010 5342     		rsbs	r3, r2, #0
ARM GAS  T:\msys\tmp\ccoyqwkK.s 			page 29


 1175              		.loc 1 225 6 view .LVU423
 1176 0012 721E     		subs	r2, r6, #1
 1177              		.loc 1 225 13 view .LVU424
 1178 0014 0260     		str	r2, [r0]
 226:D:/fchai/work/i-cube/I-CUBE-HUAWEI/Middlewares/Third_Party/Huawei/iot_link/network/dtls/mbedtls/mbedtls-2.16.2/library\asn1write.c ****     len++;
 227:D:/fchai/work/i-cube/I-CUBE-HUAWEI/Middlewares/Third_Party/Huawei/iot_link/network/dtls/mbedtls/mbedtls-2.16.2/library\asn1write.c **** 
 228:D:/fchai/work/i-cube/I-CUBE-HUAWEI/Middlewares/Third_Party/Huawei/iot_link/network/dtls/mbedtls/mbedtls-2.16.2/library\asn1write.c ****     MBEDTLS_ASN1_CHK_ADD( len, mbedtls_asn1_write_len( p, start, len ) );
 1179              		.loc 1 228 5 view .LVU425
 1180 0016 0122     		movs	r2, #1
 225:D:/fchai/work/i-cube/I-CUBE-HUAWEI/Middlewares/Third_Party/Huawei/iot_link/network/dtls/mbedtls/mbedtls-2.16.2/library\asn1write.c ****     len++;
 1181              		.loc 1 225 13 view .LVU426
 1182 0018 06F8013C 		strb	r3, [r6, #-1]
 226:D:/fchai/work/i-cube/I-CUBE-HUAWEI/Middlewares/Third_Party/Huawei/iot_link/network/dtls/mbedtls/mbedtls-2.16.2/library\asn1write.c ****     len++;
 1183              		.loc 1 226 5 is_stmt 1 view .LVU427
 1184              	.LVL97:
 1185              		.loc 1 228 5 view .LVU428
 1186              		.loc 1 228 5 view .LVU429
 1187 001c 0446     		mov	r4, r0
 1188 001e 0D46     		mov	r5, r1
 1189 0020 FFF7FEFF 		bl	mbedtls_asn1_write_len
 1190              	.LVL98:
 1191              		.loc 1 228 5 is_stmt 0 view .LVU430
 1192 0024 0028     		cmp	r0, #0
 1193              		.loc 1 228 5 view .LVU431
 1194 0026 09DB     		blt	.L52
 1195              		.loc 1 228 5 is_stmt 1 discriminator 2 view .LVU432
 1196              	.LVL99:
 1197              		.loc 1 228 5 discriminator 2 view .LVU433
 229:D:/fchai/work/i-cube/I-CUBE-HUAWEI/Middlewares/Third_Party/Huawei/iot_link/network/dtls/mbedtls/mbedtls-2.16.2/library\asn1write.c ****     MBEDTLS_ASN1_CHK_ADD( len, mbedtls_asn1_write_tag( p, start, MBEDTLS_ASN1_BOOLEAN ) );
 1198              		.loc 1 229 5 discriminator 2 view .LVU434
 1199              		.loc 1 229 5 discriminator 2 view .LVU435
 1200              	.LBB101:
 1201              	.LBI101:
 106:D:/fchai/work/i-cube/I-CUBE-HUAWEI/Middlewares/Third_Party/Huawei/iot_link/network/dtls/mbedtls/mbedtls-2.16.2/library\asn1write.c **** {
 1202              		.loc 1 106 5 discriminator 2 view .LVU436
 1203              	.LBB102:
 108:D:/fchai/work/i-cube/I-CUBE-HUAWEI/Middlewares/Third_Party/Huawei/iot_link/network/dtls/mbedtls/mbedtls-2.16.2/library\asn1write.c ****         return( MBEDTLS_ERR_ASN1_BUF_TOO_SMALL );
 1204              		.loc 1 108 5 discriminator 2 view .LVU437
 108:D:/fchai/work/i-cube/I-CUBE-HUAWEI/Middlewares/Third_Party/Huawei/iot_link/network/dtls/mbedtls/mbedtls-2.16.2/library\asn1write.c ****         return( MBEDTLS_ERR_ASN1_BUF_TOO_SMALL );
 1205              		.loc 1 108 9 is_stmt 0 discriminator 2 view .LVU438
 1206 0028 2368     		ldr	r3, [r4]
 108:D:/fchai/work/i-cube/I-CUBE-HUAWEI/Middlewares/Third_Party/Huawei/iot_link/network/dtls/mbedtls/mbedtls-2.16.2/library\asn1write.c ****         return( MBEDTLS_ERR_ASN1_BUF_TOO_SMALL );
 1207              		.loc 1 108 12 discriminator 2 view .LVU439
 1208 002a 5D1B     		subs	r5, r3, r5
 1209              	.LVL100:
 108:D:/fchai/work/i-cube/I-CUBE-HUAWEI/Middlewares/Third_Party/Huawei/iot_link/network/dtls/mbedtls/mbedtls-2.16.2/library\asn1write.c ****         return( MBEDTLS_ERR_ASN1_BUF_TOO_SMALL );
 1210              		.loc 1 108 7 discriminator 2 view .LVU440
 1211 002c 002D     		cmp	r5, #0
 1212 002e 06DD     		ble	.L55
 111:D:/fchai/work/i-cube/I-CUBE-HUAWEI/Middlewares/Third_Party/Huawei/iot_link/network/dtls/mbedtls/mbedtls-2.16.2/library\asn1write.c **** 
 1213              		.loc 1 111 5 is_stmt 1 view .LVU441
 111:D:/fchai/work/i-cube/I-CUBE-HUAWEI/Middlewares/Third_Party/Huawei/iot_link/network/dtls/mbedtls/mbedtls-2.16.2/library\asn1write.c **** 
 1214              		.loc 1 111 6 is_stmt 0 view .LVU442
 1215 0030 591E     		subs	r1, r3, #1
 111:D:/fchai/work/i-cube/I-CUBE-HUAWEI/Middlewares/Third_Party/Huawei/iot_link/network/dtls/mbedtls/mbedtls-2.16.2/library\asn1write.c **** 
 1216              		.loc 1 111 13 view .LVU443
 1217 0032 0122     		movs	r2, #1
ARM GAS  T:\msys\tmp\ccoyqwkK.s 			page 30


 1218 0034 2160     		str	r1, [r4]
 1219              	.LBE102:
 1220              	.LBE101:
 1221              		.loc 1 229 5 view .LVU444
 1222 0036 0230     		adds	r0, r0, #2
 1223              	.LVL101:
 1224              	.LBB104:
 1225              	.LBB103:
 111:D:/fchai/work/i-cube/I-CUBE-HUAWEI/Middlewares/Third_Party/Huawei/iot_link/network/dtls/mbedtls/mbedtls-2.16.2/library\asn1write.c **** 
 1226              		.loc 1 111 13 view .LVU445
 1227 0038 03F8012C 		strb	r2, [r3, #-1]
 113:D:/fchai/work/i-cube/I-CUBE-HUAWEI/Middlewares/Third_Party/Huawei/iot_link/network/dtls/mbedtls/mbedtls-2.16.2/library\asn1write.c **** }
 1228              		.loc 1 113 5 is_stmt 1 view .LVU446
 1229              	.LVL102:
 113:D:/fchai/work/i-cube/I-CUBE-HUAWEI/Middlewares/Third_Party/Huawei/iot_link/network/dtls/mbedtls/mbedtls-2.16.2/library\asn1write.c **** }
 1230              		.loc 1 113 5 is_stmt 0 view .LVU447
 1231              	.LBE103:
 1232              	.LBE104:
 1233              		.loc 1 229 5 is_stmt 1 view .LVU448
 1234              		.loc 1 229 5 view .LVU449
 230:D:/fchai/work/i-cube/I-CUBE-HUAWEI/Middlewares/Third_Party/Huawei/iot_link/network/dtls/mbedtls/mbedtls-2.16.2/library\asn1write.c **** 
 231:D:/fchai/work/i-cube/I-CUBE-HUAWEI/Middlewares/Third_Party/Huawei/iot_link/network/dtls/mbedtls/mbedtls-2.16.2/library\asn1write.c ****     return( (int) len );
 1235              		.loc 1 231 5 view .LVU450
 1236              	.L52:
 232:D:/fchai/work/i-cube/I-CUBE-HUAWEI/Middlewares/Third_Party/Huawei/iot_link/network/dtls/mbedtls/mbedtls-2.16.2/library\asn1write.c **** }
 1237              		.loc 1 232 1 is_stmt 0 view .LVU451
 1238 003c 70BD     		pop	{r4, r5, r6, pc}
 1239              	.LVL103:
 1240              	.L55:
 223:D:/fchai/work/i-cube/I-CUBE-HUAWEI/Middlewares/Third_Party/Huawei/iot_link/network/dtls/mbedtls/mbedtls-2.16.2/library\asn1write.c **** 
 1241              		.loc 1 223 15 view .LVU452
 1242 003e 6FF06B00 		mvn	r0, #107
 1243              		.loc 1 232 1 view .LVU453
 1244 0042 70BD     		pop	{r4, r5, r6, pc}
 1245              		.cfi_endproc
 1246              	.LFE10:
 1248              		.section	.text.mbedtls_asn1_write_int,"ax",%progbits
 1249              		.align	1
 1250              		.p2align 2,,3
 1251              		.global	mbedtls_asn1_write_int
 1252              		.syntax unified
 1253              		.thumb
 1254              		.thumb_func
 1255              		.fpu fpv4-sp-d16
 1257              	mbedtls_asn1_write_int:
 1258              	.LVL104:
 1259              	.LFB11:
 233:D:/fchai/work/i-cube/I-CUBE-HUAWEI/Middlewares/Third_Party/Huawei/iot_link/network/dtls/mbedtls/mbedtls-2.16.2/library\asn1write.c **** 
 234:D:/fchai/work/i-cube/I-CUBE-HUAWEI/Middlewares/Third_Party/Huawei/iot_link/network/dtls/mbedtls/mbedtls-2.16.2/library\asn1write.c **** int mbedtls_asn1_write_int( unsigned char **p, unsigned char *start, int val )
 235:D:/fchai/work/i-cube/I-CUBE-HUAWEI/Middlewares/Third_Party/Huawei/iot_link/network/dtls/mbedtls/mbedtls-2.16.2/library\asn1write.c **** {
 1260              		.loc 1 235 1 is_stmt 1 view -0
 1261              		.cfi_startproc
 1262              		@ args = 0, pretend = 0, frame = 0
 1263              		@ frame_needed = 0, uses_anonymous_args = 0
 236:D:/fchai/work/i-cube/I-CUBE-HUAWEI/Middlewares/Third_Party/Huawei/iot_link/network/dtls/mbedtls/mbedtls-2.16.2/library\asn1write.c ****     int ret;
 1264              		.loc 1 236 5 view .LVU455
 237:D:/fchai/work/i-cube/I-CUBE-HUAWEI/Middlewares/Third_Party/Huawei/iot_link/network/dtls/mbedtls/mbedtls-2.16.2/library\asn1write.c ****     size_t len = 0;
ARM GAS  T:\msys\tmp\ccoyqwkK.s 			page 31


 1265              		.loc 1 237 5 view .LVU456
 238:D:/fchai/work/i-cube/I-CUBE-HUAWEI/Middlewares/Third_Party/Huawei/iot_link/network/dtls/mbedtls/mbedtls-2.16.2/library\asn1write.c **** 
 239:D:/fchai/work/i-cube/I-CUBE-HUAWEI/Middlewares/Third_Party/Huawei/iot_link/network/dtls/mbedtls/mbedtls-2.16.2/library\asn1write.c ****     if( *p - start < 1 )
 1266              		.loc 1 239 5 view .LVU457
 1267              		.loc 1 239 9 is_stmt 0 view .LVU458
 1268 0000 0368     		ldr	r3, [r0]
 235:D:/fchai/work/i-cube/I-CUBE-HUAWEI/Middlewares/Third_Party/Huawei/iot_link/network/dtls/mbedtls/mbedtls-2.16.2/library\asn1write.c ****     int ret;
 1269              		.loc 1 235 1 view .LVU459
 1270 0002 70B5     		push	{r4, r5, r6, lr}
 1271              	.LCFI14:
 1272              		.cfi_def_cfa_offset 16
 1273              		.cfi_offset 4, -16
 1274              		.cfi_offset 5, -12
 1275              		.cfi_offset 6, -8
 1276              		.cfi_offset 14, -4
 235:D:/fchai/work/i-cube/I-CUBE-HUAWEI/Middlewares/Third_Party/Huawei/iot_link/network/dtls/mbedtls/mbedtls-2.16.2/library\asn1write.c ****     int ret;
 1277              		.loc 1 235 1 view .LVU460
 1278 0004 0D46     		mov	r5, r1
 1279              		.loc 1 239 12 view .LVU461
 1280 0006 591A     		subs	r1, r3, r1
 1281              	.LVL105:
 1282              		.loc 1 239 7 view .LVU462
 1283 0008 0029     		cmp	r1, #0
 1284 000a 2ADD     		ble	.L61
 240:D:/fchai/work/i-cube/I-CUBE-HUAWEI/Middlewares/Third_Party/Huawei/iot_link/network/dtls/mbedtls/mbedtls-2.16.2/library\asn1write.c ****         return( MBEDTLS_ERR_ASN1_BUF_TOO_SMALL );
 241:D:/fchai/work/i-cube/I-CUBE-HUAWEI/Middlewares/Third_Party/Huawei/iot_link/network/dtls/mbedtls/mbedtls-2.16.2/library\asn1write.c **** 
 242:D:/fchai/work/i-cube/I-CUBE-HUAWEI/Middlewares/Third_Party/Huawei/iot_link/network/dtls/mbedtls/mbedtls-2.16.2/library\asn1write.c ****     len += 1;
 243:D:/fchai/work/i-cube/I-CUBE-HUAWEI/Middlewares/Third_Party/Huawei/iot_link/network/dtls/mbedtls/mbedtls-2.16.2/library\asn1write.c ****     *--(*p) = val;
 1285              		.loc 1 243 6 view .LVU463
 1286 000c 591E     		subs	r1, r3, #1
 244:D:/fchai/work/i-cube/I-CUBE-HUAWEI/Middlewares/Third_Party/Huawei/iot_link/network/dtls/mbedtls/mbedtls-2.16.2/library\asn1write.c **** 
 245:D:/fchai/work/i-cube/I-CUBE-HUAWEI/Middlewares/Third_Party/Huawei/iot_link/network/dtls/mbedtls/mbedtls-2.16.2/library\asn1write.c ****     if( val > 0 && **p & 0x80 )
 1287              		.loc 1 245 7 view .LVU464
 1288 000e 002A     		cmp	r2, #0
 243:D:/fchai/work/i-cube/I-CUBE-HUAWEI/Middlewares/Third_Party/Huawei/iot_link/network/dtls/mbedtls/mbedtls-2.16.2/library\asn1write.c **** 
 1289              		.loc 1 243 13 view .LVU465
 1290 0010 0160     		str	r1, [r0]
 1291 0012 0446     		mov	r4, r0
 242:D:/fchai/work/i-cube/I-CUBE-HUAWEI/Middlewares/Third_Party/Huawei/iot_link/network/dtls/mbedtls/mbedtls-2.16.2/library\asn1write.c ****     *--(*p) = val;
 1292              		.loc 1 242 5 is_stmt 1 view .LVU466
 1293              	.LVL106:
 243:D:/fchai/work/i-cube/I-CUBE-HUAWEI/Middlewares/Third_Party/Huawei/iot_link/network/dtls/mbedtls/mbedtls-2.16.2/library\asn1write.c **** 
 1294              		.loc 1 243 5 view .LVU467
 243:D:/fchai/work/i-cube/I-CUBE-HUAWEI/Middlewares/Third_Party/Huawei/iot_link/network/dtls/mbedtls/mbedtls-2.16.2/library\asn1write.c **** 
 1295              		.loc 1 243 13 is_stmt 0 view .LVU468
 1296 0014 03F8012C 		strb	r2, [r3, #-1]
 1297              		.loc 1 245 5 is_stmt 1 view .LVU469
 1298              		.loc 1 245 7 is_stmt 0 view .LVU470
 1299 0018 04DD     		ble	.L63
 1300              		.loc 1 245 21 discriminator 1 view .LVU471
 1301 001a 0368     		ldr	r3, [r0]
 1302              		.loc 1 245 17 discriminator 1 view .LVU472
 1303 001c 93F90020 		ldrsb	r2, [r3]
 1304              	.LVL107:
 1305              		.loc 1 245 17 discriminator 1 view .LVU473
 1306 0020 002A     		cmp	r2, #0
 1307 0022 14DB     		blt	.L65
ARM GAS  T:\msys\tmp\ccoyqwkK.s 			page 32


 1308              	.L63:
 242:D:/fchai/work/i-cube/I-CUBE-HUAWEI/Middlewares/Third_Party/Huawei/iot_link/network/dtls/mbedtls/mbedtls-2.16.2/library\asn1write.c ****     *--(*p) = val;
 1309              		.loc 1 242 9 view .LVU474
 1310 0024 0126     		movs	r6, #1
 1311              	.LVL108:
 1312              	.L60:
 246:D:/fchai/work/i-cube/I-CUBE-HUAWEI/Middlewares/Third_Party/Huawei/iot_link/network/dtls/mbedtls/mbedtls-2.16.2/library\asn1write.c ****     {
 247:D:/fchai/work/i-cube/I-CUBE-HUAWEI/Middlewares/Third_Party/Huawei/iot_link/network/dtls/mbedtls/mbedtls-2.16.2/library\asn1write.c ****         if( *p - start < 1 )
 248:D:/fchai/work/i-cube/I-CUBE-HUAWEI/Middlewares/Third_Party/Huawei/iot_link/network/dtls/mbedtls/mbedtls-2.16.2/library\asn1write.c ****             return( MBEDTLS_ERR_ASN1_BUF_TOO_SMALL );
 249:D:/fchai/work/i-cube/I-CUBE-HUAWEI/Middlewares/Third_Party/Huawei/iot_link/network/dtls/mbedtls/mbedtls-2.16.2/library\asn1write.c **** 
 250:D:/fchai/work/i-cube/I-CUBE-HUAWEI/Middlewares/Third_Party/Huawei/iot_link/network/dtls/mbedtls/mbedtls-2.16.2/library\asn1write.c ****         *--(*p) = 0x00;
 251:D:/fchai/work/i-cube/I-CUBE-HUAWEI/Middlewares/Third_Party/Huawei/iot_link/network/dtls/mbedtls/mbedtls-2.16.2/library\asn1write.c ****         len += 1;
 252:D:/fchai/work/i-cube/I-CUBE-HUAWEI/Middlewares/Third_Party/Huawei/iot_link/network/dtls/mbedtls/mbedtls-2.16.2/library\asn1write.c ****     }
 253:D:/fchai/work/i-cube/I-CUBE-HUAWEI/Middlewares/Third_Party/Huawei/iot_link/network/dtls/mbedtls/mbedtls-2.16.2/library\asn1write.c **** 
 254:D:/fchai/work/i-cube/I-CUBE-HUAWEI/Middlewares/Third_Party/Huawei/iot_link/network/dtls/mbedtls/mbedtls-2.16.2/library\asn1write.c ****     MBEDTLS_ASN1_CHK_ADD( len, mbedtls_asn1_write_len( p, start, len ) );
 1313              		.loc 1 254 5 is_stmt 1 view .LVU475
 1314              		.loc 1 254 5 view .LVU476
 1315 0026 3246     		mov	r2, r6
 1316 0028 2946     		mov	r1, r5
 1317 002a 2046     		mov	r0, r4
 1318              	.LVL109:
 1319              		.loc 1 254 5 is_stmt 0 view .LVU477
 1320 002c FFF7FEFF 		bl	mbedtls_asn1_write_len
 1321              	.LVL110:
 1322              		.loc 1 254 5 view .LVU478
 1323 0030 0028     		cmp	r0, #0
 1324              		.loc 1 254 5 view .LVU479
 1325 0032 0BDB     		blt	.L57
 1326              		.loc 1 254 5 is_stmt 1 discriminator 2 view .LVU480
 1327              	.LBB105:
 1328              	.LBB106:
 108:D:/fchai/work/i-cube/I-CUBE-HUAWEI/Middlewares/Third_Party/Huawei/iot_link/network/dtls/mbedtls/mbedtls-2.16.2/library\asn1write.c ****         return( MBEDTLS_ERR_ASN1_BUF_TOO_SMALL );
 1329              		.loc 1 108 9 is_stmt 0 discriminator 2 view .LVU481
 1330 0034 2368     		ldr	r3, [r4]
 108:D:/fchai/work/i-cube/I-CUBE-HUAWEI/Middlewares/Third_Party/Huawei/iot_link/network/dtls/mbedtls/mbedtls-2.16.2/library\asn1write.c ****         return( MBEDTLS_ERR_ASN1_BUF_TOO_SMALL );
 1331              		.loc 1 108 12 discriminator 2 view .LVU482
 1332 0036 5D1B     		subs	r5, r3, r5
 1333              	.LVL111:
 108:D:/fchai/work/i-cube/I-CUBE-HUAWEI/Middlewares/Third_Party/Huawei/iot_link/network/dtls/mbedtls/mbedtls-2.16.2/library\asn1write.c ****         return( MBEDTLS_ERR_ASN1_BUF_TOO_SMALL );
 1334              		.loc 1 108 7 discriminator 2 view .LVU483
 1335 0038 002D     		cmp	r5, #0
 1336 003a 06F10106 		add	r6, r6, #1
 108:D:/fchai/work/i-cube/I-CUBE-HUAWEI/Middlewares/Third_Party/Huawei/iot_link/network/dtls/mbedtls/mbedtls-2.16.2/library\asn1write.c ****         return( MBEDTLS_ERR_ASN1_BUF_TOO_SMALL );
 1337              		.loc 1 108 7 discriminator 2 view .LVU484
 1338              	.LBE106:
 1339              	.LBE105:
 1340              		.loc 1 254 5 is_stmt 1 discriminator 2 view .LVU485
 255:D:/fchai/work/i-cube/I-CUBE-HUAWEI/Middlewares/Third_Party/Huawei/iot_link/network/dtls/mbedtls/mbedtls-2.16.2/library\asn1write.c ****     MBEDTLS_ASN1_CHK_ADD( len, mbedtls_asn1_write_tag( p, start, MBEDTLS_ASN1_INTEGER ) );
 1341              		.loc 1 255 5 discriminator 2 view .LVU486
 1342              		.loc 1 255 5 discriminator 2 view .LVU487
 1343              	.LVL112:
 1344              	.LBB109:
 1345              	.LBI105:
 106:D:/fchai/work/i-cube/I-CUBE-HUAWEI/Middlewares/Third_Party/Huawei/iot_link/network/dtls/mbedtls/mbedtls-2.16.2/library\asn1write.c **** {
 1346              		.loc 1 106 5 discriminator 2 view .LVU488
 1347              	.LBB107:
 108:D:/fchai/work/i-cube/I-CUBE-HUAWEI/Middlewares/Third_Party/Huawei/iot_link/network/dtls/mbedtls/mbedtls-2.16.2/library\asn1write.c ****         return( MBEDTLS_ERR_ASN1_BUF_TOO_SMALL );
ARM GAS  T:\msys\tmp\ccoyqwkK.s 			page 33


 1348              		.loc 1 108 5 discriminator 2 view .LVU489
 108:D:/fchai/work/i-cube/I-CUBE-HUAWEI/Middlewares/Third_Party/Huawei/iot_link/network/dtls/mbedtls/mbedtls-2.16.2/library\asn1write.c ****         return( MBEDTLS_ERR_ASN1_BUF_TOO_SMALL );
 1349              		.loc 1 108 7 is_stmt 0 discriminator 2 view .LVU490
 1350 003e 10DD     		ble	.L61
 111:D:/fchai/work/i-cube/I-CUBE-HUAWEI/Middlewares/Third_Party/Huawei/iot_link/network/dtls/mbedtls/mbedtls-2.16.2/library\asn1write.c **** 
 1351              		.loc 1 111 5 is_stmt 1 view .LVU491
 111:D:/fchai/work/i-cube/I-CUBE-HUAWEI/Middlewares/Third_Party/Huawei/iot_link/network/dtls/mbedtls/mbedtls-2.16.2/library\asn1write.c **** 
 1352              		.loc 1 111 6 is_stmt 0 view .LVU492
 1353 0040 591E     		subs	r1, r3, #1
 111:D:/fchai/work/i-cube/I-CUBE-HUAWEI/Middlewares/Third_Party/Huawei/iot_link/network/dtls/mbedtls/mbedtls-2.16.2/library\asn1write.c **** 
 1354              		.loc 1 111 13 view .LVU493
 1355 0042 0222     		movs	r2, #2
 1356 0044 2160     		str	r1, [r4]
 1357              	.LBE107:
 1358              	.LBE109:
 1359              		.loc 1 255 5 view .LVU494
 1360 0046 3044     		add	r0, r0, r6
 1361              	.LVL113:
 1362              	.LBB110:
 1363              	.LBB108:
 111:D:/fchai/work/i-cube/I-CUBE-HUAWEI/Middlewares/Third_Party/Huawei/iot_link/network/dtls/mbedtls/mbedtls-2.16.2/library\asn1write.c **** 
 1364              		.loc 1 111 13 view .LVU495
 1365 0048 03F8012C 		strb	r2, [r3, #-1]
 113:D:/fchai/work/i-cube/I-CUBE-HUAWEI/Middlewares/Third_Party/Huawei/iot_link/network/dtls/mbedtls/mbedtls-2.16.2/library\asn1write.c **** }
 1366              		.loc 1 113 5 is_stmt 1 view .LVU496
 1367              	.LVL114:
 113:D:/fchai/work/i-cube/I-CUBE-HUAWEI/Middlewares/Third_Party/Huawei/iot_link/network/dtls/mbedtls/mbedtls-2.16.2/library\asn1write.c **** }
 1368              		.loc 1 113 5 is_stmt 0 view .LVU497
 1369              	.LBE108:
 1370              	.LBE110:
 1371              		.loc 1 255 5 is_stmt 1 view .LVU498
 1372              		.loc 1 255 5 view .LVU499
 256:D:/fchai/work/i-cube/I-CUBE-HUAWEI/Middlewares/Third_Party/Huawei/iot_link/network/dtls/mbedtls/mbedtls-2.16.2/library\asn1write.c **** 
 257:D:/fchai/work/i-cube/I-CUBE-HUAWEI/Middlewares/Third_Party/Huawei/iot_link/network/dtls/mbedtls/mbedtls-2.16.2/library\asn1write.c ****     return( (int) len );
 1373              		.loc 1 257 5 view .LVU500
 1374              	.L57:
 258:D:/fchai/work/i-cube/I-CUBE-HUAWEI/Middlewares/Third_Party/Huawei/iot_link/network/dtls/mbedtls/mbedtls-2.16.2/library\asn1write.c **** }
 1375              		.loc 1 258 1 is_stmt 0 view .LVU501
 1376 004c 70BD     		pop	{r4, r5, r6, pc}
 1377              	.LVL115:
 1378              	.L65:
 247:D:/fchai/work/i-cube/I-CUBE-HUAWEI/Middlewares/Third_Party/Huawei/iot_link/network/dtls/mbedtls/mbedtls-2.16.2/library\asn1write.c ****             return( MBEDTLS_ERR_ASN1_BUF_TOO_SMALL );
 1379              		.loc 1 247 9 is_stmt 1 view .LVU502
 247:D:/fchai/work/i-cube/I-CUBE-HUAWEI/Middlewares/Third_Party/Huawei/iot_link/network/dtls/mbedtls/mbedtls-2.16.2/library\asn1write.c ****             return( MBEDTLS_ERR_ASN1_BUF_TOO_SMALL );
 1380              		.loc 1 247 16 is_stmt 0 view .LVU503
 1381 004e 5A1B     		subs	r2, r3, r5
 247:D:/fchai/work/i-cube/I-CUBE-HUAWEI/Middlewares/Third_Party/Huawei/iot_link/network/dtls/mbedtls/mbedtls-2.16.2/library\asn1write.c ****             return( MBEDTLS_ERR_ASN1_BUF_TOO_SMALL );
 1382              		.loc 1 247 11 view .LVU504
 1383 0050 002A     		cmp	r2, #0
 1384 0052 06DD     		ble	.L61
 250:D:/fchai/work/i-cube/I-CUBE-HUAWEI/Middlewares/Third_Party/Huawei/iot_link/network/dtls/mbedtls/mbedtls-2.16.2/library\asn1write.c ****         len += 1;
 1385              		.loc 1 250 9 is_stmt 1 view .LVU505
 250:D:/fchai/work/i-cube/I-CUBE-HUAWEI/Middlewares/Third_Party/Huawei/iot_link/network/dtls/mbedtls/mbedtls-2.16.2/library\asn1write.c ****         len += 1;
 1386              		.loc 1 250 10 is_stmt 0 view .LVU506
 1387 0054 591E     		subs	r1, r3, #1
 250:D:/fchai/work/i-cube/I-CUBE-HUAWEI/Middlewares/Third_Party/Huawei/iot_link/network/dtls/mbedtls/mbedtls-2.16.2/library\asn1write.c ****         len += 1;
 1388              		.loc 1 250 17 view .LVU507
ARM GAS  T:\msys\tmp\ccoyqwkK.s 			page 34


 1389 0056 0022     		movs	r2, #0
 1390 0058 0160     		str	r1, [r0]
 251:D:/fchai/work/i-cube/I-CUBE-HUAWEI/Middlewares/Third_Party/Huawei/iot_link/network/dtls/mbedtls/mbedtls-2.16.2/library\asn1write.c ****     }
 1391              		.loc 1 251 13 view .LVU508
 1392 005a 0226     		movs	r6, #2
 250:D:/fchai/work/i-cube/I-CUBE-HUAWEI/Middlewares/Third_Party/Huawei/iot_link/network/dtls/mbedtls/mbedtls-2.16.2/library\asn1write.c ****         len += 1;
 1393              		.loc 1 250 17 view .LVU509
 1394 005c 03F8012C 		strb	r2, [r3, #-1]
 251:D:/fchai/work/i-cube/I-CUBE-HUAWEI/Middlewares/Third_Party/Huawei/iot_link/network/dtls/mbedtls/mbedtls-2.16.2/library\asn1write.c ****     }
 1395              		.loc 1 251 9 is_stmt 1 view .LVU510
 1396              	.LVL116:
 251:D:/fchai/work/i-cube/I-CUBE-HUAWEI/Middlewares/Third_Party/Huawei/iot_link/network/dtls/mbedtls/mbedtls-2.16.2/library\asn1write.c ****     }
 1397              		.loc 1 251 9 is_stmt 0 view .LVU511
 1398 0060 E1E7     		b	.L60
 1399              	.LVL117:
 1400              	.L61:
 240:D:/fchai/work/i-cube/I-CUBE-HUAWEI/Middlewares/Third_Party/Huawei/iot_link/network/dtls/mbedtls/mbedtls-2.16.2/library\asn1write.c **** 
 1401              		.loc 1 240 15 view .LVU512
 1402 0062 6FF06B00 		mvn	r0, #107
 1403              		.loc 1 258 1 view .LVU513
 1404 0066 70BD     		pop	{r4, r5, r6, pc}
 1405              		.cfi_endproc
 1406              	.LFE11:
 1408              		.section	.text.mbedtls_asn1_write_tagged_string,"ax",%progbits
 1409              		.align	1
 1410              		.p2align 2,,3
 1411              		.global	mbedtls_asn1_write_tagged_string
 1412              		.syntax unified
 1413              		.thumb
 1414              		.thumb_func
 1415              		.fpu fpv4-sp-d16
 1417              	mbedtls_asn1_write_tagged_string:
 1418              	.LVL118:
 1419              	.LFB12:
 259:D:/fchai/work/i-cube/I-CUBE-HUAWEI/Middlewares/Third_Party/Huawei/iot_link/network/dtls/mbedtls/mbedtls-2.16.2/library\asn1write.c **** 
 260:D:/fchai/work/i-cube/I-CUBE-HUAWEI/Middlewares/Third_Party/Huawei/iot_link/network/dtls/mbedtls/mbedtls-2.16.2/library\asn1write.c **** int mbedtls_asn1_write_tagged_string( unsigned char **p, unsigned char *start, int tag,
 261:D:/fchai/work/i-cube/I-CUBE-HUAWEI/Middlewares/Third_Party/Huawei/iot_link/network/dtls/mbedtls/mbedtls-2.16.2/library\asn1write.c ****     const char *text, size_t text_len )
 262:D:/fchai/work/i-cube/I-CUBE-HUAWEI/Middlewares/Third_Party/Huawei/iot_link/network/dtls/mbedtls/mbedtls-2.16.2/library\asn1write.c **** {
 1420              		.loc 1 262 1 is_stmt 1 view -0
 1421              		.cfi_startproc
 1422              		@ args = 4, pretend = 0, frame = 0
 1423              		@ frame_needed = 0, uses_anonymous_args = 0
 1424              		.loc 1 262 1 is_stmt 0 view .LVU515
 1425 0000 2DE9D841 		push	{r3, r4, r6, r7, r8, lr}
 1426              	.LCFI15:
 1427              		.cfi_def_cfa_offset 24
 1428              		.cfi_offset 3, -24
 1429              		.cfi_offset 4, -20
 1430              		.cfi_offset 6, -16
 1431              		.cfi_offset 7, -12
 1432              		.cfi_offset 8, -8
 1433              		.cfi_offset 14, -4
 1434              		.loc 1 262 1 view .LVU516
 1435 0004 0746     		mov	r7, r0
 1436              	.LBB119:
 1437              	.LBB120:
 121:D:/fchai/work/i-cube/I-CUBE-HUAWEI/Middlewares/Third_Party/Huawei/iot_link/network/dtls/mbedtls/mbedtls-2.16.2/library\asn1write.c ****         return( MBEDTLS_ERR_ASN1_BUF_TOO_SMALL );
ARM GAS  T:\msys\tmp\ccoyqwkK.s 			page 35


 1438              		.loc 1 121 9 view .LVU517
 1439 0006 0068     		ldr	r0, [r0]
 1440              	.LVL119:
 121:D:/fchai/work/i-cube/I-CUBE-HUAWEI/Middlewares/Third_Party/Huawei/iot_link/network/dtls/mbedtls/mbedtls-2.16.2/library\asn1write.c ****         return( MBEDTLS_ERR_ASN1_BUF_TOO_SMALL );
 1441              		.loc 1 121 9 view .LVU518
 1442              	.LBE120:
 1443              	.LBE119:
 1444              		.loc 1 262 1 view .LVU519
 1445 0008 069C     		ldr	r4, [sp, #24]
 1446              	.LBB124:
 1447              	.LBB121:
 121:D:/fchai/work/i-cube/I-CUBE-HUAWEI/Middlewares/Third_Party/Huawei/iot_link/network/dtls/mbedtls/mbedtls-2.16.2/library\asn1write.c ****         return( MBEDTLS_ERR_ASN1_BUF_TOO_SMALL );
 1448              		.loc 1 121 7 view .LVU520
 1449 000a 8142     		cmp	r1, r0
 1450              	.LBE121:
 1451              	.LBE124:
 1452              		.loc 1 262 1 view .LVU521
 1453 000c 0E46     		mov	r6, r1
 263:D:/fchai/work/i-cube/I-CUBE-HUAWEI/Middlewares/Third_Party/Huawei/iot_link/network/dtls/mbedtls/mbedtls-2.16.2/library\asn1write.c ****     int ret;
 1454              		.loc 1 263 5 is_stmt 1 view .LVU522
 264:D:/fchai/work/i-cube/I-CUBE-HUAWEI/Middlewares/Third_Party/Huawei/iot_link/network/dtls/mbedtls/mbedtls-2.16.2/library\asn1write.c ****     size_t len = 0;
 1455              		.loc 1 264 5 view .LVU523
 1456              	.LVL120:
 265:D:/fchai/work/i-cube/I-CUBE-HUAWEI/Middlewares/Third_Party/Huawei/iot_link/network/dtls/mbedtls/mbedtls-2.16.2/library\asn1write.c **** 
 266:D:/fchai/work/i-cube/I-CUBE-HUAWEI/Middlewares/Third_Party/Huawei/iot_link/network/dtls/mbedtls/mbedtls-2.16.2/library\asn1write.c ****     MBEDTLS_ASN1_CHK_ADD( len, mbedtls_asn1_write_raw_buffer( p, start,
 1457              		.loc 1 266 5 view .LVU524
 1458              		.loc 1 266 5 view .LVU525
 1459              	.LBB125:
 1460              	.LBI119:
 116:D:/fchai/work/i-cube/I-CUBE-HUAWEI/Middlewares/Third_Party/Huawei/iot_link/network/dtls/mbedtls/mbedtls-2.16.2/library\asn1write.c ****                            const unsigned char *buf, size_t size )
 1461              		.loc 1 116 5 view .LVU526
 1462              	.LBB122:
 119:D:/fchai/work/i-cube/I-CUBE-HUAWEI/Middlewares/Third_Party/Huawei/iot_link/network/dtls/mbedtls/mbedtls-2.16.2/library\asn1write.c **** 
 1463              		.loc 1 119 5 view .LVU527
 121:D:/fchai/work/i-cube/I-CUBE-HUAWEI/Middlewares/Third_Party/Huawei/iot_link/network/dtls/mbedtls/mbedtls-2.16.2/library\asn1write.c ****         return( MBEDTLS_ERR_ASN1_BUF_TOO_SMALL );
 1464              		.loc 1 121 5 view .LVU528
 121:D:/fchai/work/i-cube/I-CUBE-HUAWEI/Middlewares/Third_Party/Huawei/iot_link/network/dtls/mbedtls/mbedtls-2.16.2/library\asn1write.c ****         return( MBEDTLS_ERR_ASN1_BUF_TOO_SMALL );
 1465              		.loc 1 121 7 is_stmt 0 view .LVU529
 1466 000e 21D8     		bhi	.L69
 1467 0010 1946     		mov	r1, r3
 1468              	.LVL121:
 121:D:/fchai/work/i-cube/I-CUBE-HUAWEI/Middlewares/Third_Party/Huawei/iot_link/network/dtls/mbedtls/mbedtls-2.16.2/library\asn1write.c ****         return( MBEDTLS_ERR_ASN1_BUF_TOO_SMALL );
 1469              		.loc 1 121 36 view .LVU530
 1470 0012 831B     		subs	r3, r0, r6
 1471              	.LVL122:
 121:D:/fchai/work/i-cube/I-CUBE-HUAWEI/Middlewares/Third_Party/Huawei/iot_link/network/dtls/mbedtls/mbedtls-2.16.2/library\asn1write.c ****         return( MBEDTLS_ERR_ASN1_BUF_TOO_SMALL );
 1472              		.loc 1 121 20 view .LVU531
 1473 0014 9C42     		cmp	r4, r3
 1474 0016 1DD8     		bhi	.L69
 124:D:/fchai/work/i-cube/I-CUBE-HUAWEI/Middlewares/Third_Party/Huawei/iot_link/network/dtls/mbedtls/mbedtls-2.16.2/library\asn1write.c ****     (*p) -= len;
 1475              		.loc 1 124 5 is_stmt 1 view .LVU532
 1476              	.LVL123:
 125:D:/fchai/work/i-cube/I-CUBE-HUAWEI/Middlewares/Third_Party/Huawei/iot_link/network/dtls/mbedtls/mbedtls-2.16.2/library\asn1write.c ****     memcpy( *p, buf, len );
 1477              		.loc 1 125 5 view .LVU533
 125:D:/fchai/work/i-cube/I-CUBE-HUAWEI/Middlewares/Third_Party/Huawei/iot_link/network/dtls/mbedtls/mbedtls-2.16.2/library\asn1write.c ****     memcpy( *p, buf, len );
 1478              		.loc 1 125 10 is_stmt 0 view .LVU534
 1479 0018 001B     		subs	r0, r0, r4
ARM GAS  T:\msys\tmp\ccoyqwkK.s 			page 36


 1480 001a 9046     		mov	r8, r2
 1481 001c 3860     		str	r0, [r7]
 126:D:/fchai/work/i-cube/I-CUBE-HUAWEI/Middlewares/Third_Party/Huawei/iot_link/network/dtls/mbedtls/mbedtls-2.16.2/library\asn1write.c **** 
 1482              		.loc 1 126 5 is_stmt 1 view .LVU535
 1483 001e 2246     		mov	r2, r4
 1484              	.LVL124:
 126:D:/fchai/work/i-cube/I-CUBE-HUAWEI/Middlewares/Third_Party/Huawei/iot_link/network/dtls/mbedtls/mbedtls-2.16.2/library\asn1write.c **** 
 1485              		.loc 1 126 5 is_stmt 0 view .LVU536
 1486 0020 FFF7FEFF 		bl	memcpy
 1487              	.LVL125:
 128:D:/fchai/work/i-cube/I-CUBE-HUAWEI/Middlewares/Third_Party/Huawei/iot_link/network/dtls/mbedtls/mbedtls-2.16.2/library\asn1write.c **** }
 1488              		.loc 1 128 5 is_stmt 1 view .LVU537
 128:D:/fchai/work/i-cube/I-CUBE-HUAWEI/Middlewares/Third_Party/Huawei/iot_link/network/dtls/mbedtls/mbedtls-2.16.2/library\asn1write.c **** }
 1489              		.loc 1 128 5 is_stmt 0 view .LVU538
 1490              	.LBE122:
 1491              	.LBE125:
 1492              		.loc 1 266 5 view .LVU539
 1493 0024 201E     		subs	r0, r4, #0
 1494 0026 13DB     		blt	.L66
 1495              	.LVL126:
 1496              	.LBB126:
 1497              	.LBI126:
 260:D:/fchai/work/i-cube/I-CUBE-HUAWEI/Middlewares/Third_Party/Huawei/iot_link/network/dtls/mbedtls/mbedtls-2.16.2/library\asn1write.c ****     const char *text, size_t text_len )
 1498              		.loc 1 260 5 is_stmt 1 view .LVU540
 1499              	.LBB127:
 1500              		.loc 1 266 5 view .LVU541
 1501              		.loc 1 266 5 view .LVU542
 267:D:/fchai/work/i-cube/I-CUBE-HUAWEI/Middlewares/Third_Party/Huawei/iot_link/network/dtls/mbedtls/mbedtls-2.16.2/library\asn1write.c ****         (const unsigned char *) text, text_len ) );
 268:D:/fchai/work/i-cube/I-CUBE-HUAWEI/Middlewares/Third_Party/Huawei/iot_link/network/dtls/mbedtls/mbedtls-2.16.2/library\asn1write.c **** 
 269:D:/fchai/work/i-cube/I-CUBE-HUAWEI/Middlewares/Third_Party/Huawei/iot_link/network/dtls/mbedtls/mbedtls-2.16.2/library\asn1write.c ****     MBEDTLS_ASN1_CHK_ADD( len, mbedtls_asn1_write_len( p, start, len ) );
 1502              		.loc 1 269 5 view .LVU543
 1503              		.loc 1 269 5 view .LVU544
 1504 0028 0246     		mov	r2, r0
 1505 002a 3146     		mov	r1, r6
 1506 002c 3846     		mov	r0, r7
 1507 002e FFF7FEFF 		bl	mbedtls_asn1_write_len
 1508              	.LVL127:
 1509              		.loc 1 269 5 is_stmt 0 view .LVU545
 1510 0032 0028     		cmp	r0, #0
 1511              		.loc 1 269 5 view .LVU546
 1512 0034 0CDB     		blt	.L66
 1513              		.loc 1 269 5 is_stmt 1 view .LVU547
 1514              	.LBB128:
 1515              	.LBB129:
 108:D:/fchai/work/i-cube/I-CUBE-HUAWEI/Middlewares/Third_Party/Huawei/iot_link/network/dtls/mbedtls/mbedtls-2.16.2/library\asn1write.c ****         return( MBEDTLS_ERR_ASN1_BUF_TOO_SMALL );
 1516              		.loc 1 108 9 is_stmt 0 view .LVU548
 1517 0036 3B68     		ldr	r3, [r7]
 108:D:/fchai/work/i-cube/I-CUBE-HUAWEI/Middlewares/Third_Party/Huawei/iot_link/network/dtls/mbedtls/mbedtls-2.16.2/library\asn1write.c ****         return( MBEDTLS_ERR_ASN1_BUF_TOO_SMALL );
 1518              		.loc 1 108 12 view .LVU549
 1519 0038 9E1B     		subs	r6, r3, r6
 1520              	.LVL128:
 108:D:/fchai/work/i-cube/I-CUBE-HUAWEI/Middlewares/Third_Party/Huawei/iot_link/network/dtls/mbedtls/mbedtls-2.16.2/library\asn1write.c ****         return( MBEDTLS_ERR_ASN1_BUF_TOO_SMALL );
 1521              		.loc 1 108 7 view .LVU550
 1522 003a 002E     		cmp	r6, #0
 1523 003c 04F10104 		add	r4, r4, #1
 1524              	.LVL129:
 108:D:/fchai/work/i-cube/I-CUBE-HUAWEI/Middlewares/Third_Party/Huawei/iot_link/network/dtls/mbedtls/mbedtls-2.16.2/library\asn1write.c ****         return( MBEDTLS_ERR_ASN1_BUF_TOO_SMALL );
ARM GAS  T:\msys\tmp\ccoyqwkK.s 			page 37


 1525              		.loc 1 108 7 view .LVU551
 1526              	.LBE129:
 1527              	.LBE128:
 1528              		.loc 1 269 5 is_stmt 1 view .LVU552
 270:D:/fchai/work/i-cube/I-CUBE-HUAWEI/Middlewares/Third_Party/Huawei/iot_link/network/dtls/mbedtls/mbedtls-2.16.2/library\asn1write.c ****     MBEDTLS_ASN1_CHK_ADD( len, mbedtls_asn1_write_tag( p, start, tag ) );
 1529              		.loc 1 270 5 view .LVU553
 1530              		.loc 1 270 5 view .LVU554
 1531 0040 5FFA88F8 		uxtb	r8, r8
 1532              	.LVL130:
 1533              	.LBB132:
 1534              	.LBI128:
 106:D:/fchai/work/i-cube/I-CUBE-HUAWEI/Middlewares/Third_Party/Huawei/iot_link/network/dtls/mbedtls/mbedtls-2.16.2/library\asn1write.c **** {
 1535              		.loc 1 106 5 view .LVU555
 1536              	.LBB130:
 108:D:/fchai/work/i-cube/I-CUBE-HUAWEI/Middlewares/Third_Party/Huawei/iot_link/network/dtls/mbedtls/mbedtls-2.16.2/library\asn1write.c ****         return( MBEDTLS_ERR_ASN1_BUF_TOO_SMALL );
 1537              		.loc 1 108 5 view .LVU556
 108:D:/fchai/work/i-cube/I-CUBE-HUAWEI/Middlewares/Third_Party/Huawei/iot_link/network/dtls/mbedtls/mbedtls-2.16.2/library\asn1write.c ****         return( MBEDTLS_ERR_ASN1_BUF_TOO_SMALL );
 1538              		.loc 1 108 7 is_stmt 0 view .LVU557
 1539 0044 06DD     		ble	.L69
 111:D:/fchai/work/i-cube/I-CUBE-HUAWEI/Middlewares/Third_Party/Huawei/iot_link/network/dtls/mbedtls/mbedtls-2.16.2/library\asn1write.c **** 
 1540              		.loc 1 111 5 is_stmt 1 view .LVU558
 111:D:/fchai/work/i-cube/I-CUBE-HUAWEI/Middlewares/Third_Party/Huawei/iot_link/network/dtls/mbedtls/mbedtls-2.16.2/library\asn1write.c **** 
 1541              		.loc 1 111 6 is_stmt 0 view .LVU559
 1542 0046 5A1E     		subs	r2, r3, #1
 111:D:/fchai/work/i-cube/I-CUBE-HUAWEI/Middlewares/Third_Party/Huawei/iot_link/network/dtls/mbedtls/mbedtls-2.16.2/library\asn1write.c **** 
 1543              		.loc 1 111 13 view .LVU560
 1544 0048 3A60     		str	r2, [r7]
 1545              	.LBE130:
 1546              	.LBE132:
 1547              		.loc 1 270 5 view .LVU561
 1548 004a 2044     		add	r0, r0, r4
 1549              	.LVL131:
 1550              	.LBB133:
 1551              	.LBB131:
 111:D:/fchai/work/i-cube/I-CUBE-HUAWEI/Middlewares/Third_Party/Huawei/iot_link/network/dtls/mbedtls/mbedtls-2.16.2/library\asn1write.c **** 
 1552              		.loc 1 111 13 view .LVU562
 1553 004c 03F8018C 		strb	r8, [r3, #-1]
 113:D:/fchai/work/i-cube/I-CUBE-HUAWEI/Middlewares/Third_Party/Huawei/iot_link/network/dtls/mbedtls/mbedtls-2.16.2/library\asn1write.c **** }
 1554              		.loc 1 113 5 is_stmt 1 view .LVU563
 1555              	.LVL132:
 113:D:/fchai/work/i-cube/I-CUBE-HUAWEI/Middlewares/Third_Party/Huawei/iot_link/network/dtls/mbedtls/mbedtls-2.16.2/library\asn1write.c **** }
 1556              		.loc 1 113 5 is_stmt 0 view .LVU564
 1557              	.LBE131:
 1558              	.LBE133:
 1559              		.loc 1 270 5 is_stmt 1 view .LVU565
 1560              		.loc 1 270 5 view .LVU566
 271:D:/fchai/work/i-cube/I-CUBE-HUAWEI/Middlewares/Third_Party/Huawei/iot_link/network/dtls/mbedtls/mbedtls-2.16.2/library\asn1write.c **** 
 272:D:/fchai/work/i-cube/I-CUBE-HUAWEI/Middlewares/Third_Party/Huawei/iot_link/network/dtls/mbedtls/mbedtls-2.16.2/library\asn1write.c ****     return( (int) len );
 1561              		.loc 1 272 5 view .LVU567
 1562              	.L66:
 1563              		.loc 1 272 5 is_stmt 0 view .LVU568
 1564              	.LBE127:
 1565              	.LBE126:
 273:D:/fchai/work/i-cube/I-CUBE-HUAWEI/Middlewares/Third_Party/Huawei/iot_link/network/dtls/mbedtls/mbedtls-2.16.2/library\asn1write.c **** }
 1566              		.loc 1 273 1 view .LVU569
 1567 0050 BDE8D881 		pop	{r3, r4, r6, r7, r8, pc}
 1568              	.LVL133:
ARM GAS  T:\msys\tmp\ccoyqwkK.s 			page 38


 1569              	.L69:
 1570              	.LBB134:
 1571              	.LBB123:
 122:D:/fchai/work/i-cube/I-CUBE-HUAWEI/Middlewares/Third_Party/Huawei/iot_link/network/dtls/mbedtls/mbedtls-2.16.2/library\asn1write.c **** 
 1572              		.loc 1 122 15 view .LVU570
 1573 0054 6FF06B00 		mvn	r0, #107
 1574 0058 FAE7     		b	.L66
 1575              	.LBE123:
 1576              	.LBE134:
 1577              		.cfi_endproc
 1578              	.LFE12:
 1580 005a 00BF     		.section	.text.mbedtls_asn1_write_utf8_string,"ax",%progbits
 1581              		.align	1
 1582              		.p2align 2,,3
 1583              		.global	mbedtls_asn1_write_utf8_string
 1584              		.syntax unified
 1585              		.thumb
 1586              		.thumb_func
 1587              		.fpu fpv4-sp-d16
 1589              	mbedtls_asn1_write_utf8_string:
 1590              	.LVL134:
 1591              	.LFB13:
 274:D:/fchai/work/i-cube/I-CUBE-HUAWEI/Middlewares/Third_Party/Huawei/iot_link/network/dtls/mbedtls/mbedtls-2.16.2/library\asn1write.c **** 
 275:D:/fchai/work/i-cube/I-CUBE-HUAWEI/Middlewares/Third_Party/Huawei/iot_link/network/dtls/mbedtls/mbedtls-2.16.2/library\asn1write.c **** int mbedtls_asn1_write_utf8_string( unsigned char **p, unsigned char *start,
 276:D:/fchai/work/i-cube/I-CUBE-HUAWEI/Middlewares/Third_Party/Huawei/iot_link/network/dtls/mbedtls/mbedtls-2.16.2/library\asn1write.c ****     const char *text, size_t text_len )
 277:D:/fchai/work/i-cube/I-CUBE-HUAWEI/Middlewares/Third_Party/Huawei/iot_link/network/dtls/mbedtls/mbedtls-2.16.2/library\asn1write.c **** {
 1592              		.loc 1 277 1 is_stmt 1 view -0
 1593              		.cfi_startproc
 1594              		@ args = 0, pretend = 0, frame = 0
 1595              		@ frame_needed = 0, uses_anonymous_args = 0
 278:D:/fchai/work/i-cube/I-CUBE-HUAWEI/Middlewares/Third_Party/Huawei/iot_link/network/dtls/mbedtls/mbedtls-2.16.2/library\asn1write.c ****     return( mbedtls_asn1_write_tagged_string(p, start, MBEDTLS_ASN1_UTF8_STRING, text, text_len) );
 1596              		.loc 1 278 5 view .LVU572
 277:D:/fchai/work/i-cube/I-CUBE-HUAWEI/Middlewares/Third_Party/Huawei/iot_link/network/dtls/mbedtls/mbedtls-2.16.2/library\asn1write.c ****     return( mbedtls_asn1_write_tagged_string(p, start, MBEDTLS_ASN1_UTF8_STRING, text, text_len) );
 1597              		.loc 1 277 1 is_stmt 0 view .LVU573
 1598 0000 00B5     		push	{lr}
 1599              	.LCFI16:
 1600              		.cfi_def_cfa_offset 4
 1601              		.cfi_offset 14, -4
 1602 0002 83B0     		sub	sp, sp, #12
 1603              	.LCFI17:
 1604              		.cfi_def_cfa_offset 16
 1605              		.loc 1 278 13 view .LVU574
 1606 0004 0093     		str	r3, [sp]
 1607 0006 1346     		mov	r3, r2
 1608              	.LVL135:
 1609              		.loc 1 278 13 view .LVU575
 1610 0008 0C22     		movs	r2, #12
 1611              	.LVL136:
 1612              		.loc 1 278 13 view .LVU576
 1613 000a FFF7FEFF 		bl	mbedtls_asn1_write_tagged_string
 1614              	.LVL137:
 279:D:/fchai/work/i-cube/I-CUBE-HUAWEI/Middlewares/Third_Party/Huawei/iot_link/network/dtls/mbedtls/mbedtls-2.16.2/library\asn1write.c **** }
 1615              		.loc 1 279 1 view .LVU577
 1616 000e 03B0     		add	sp, sp, #12
 1617              	.LCFI18:
 1618              		.cfi_def_cfa_offset 4
 1619              		@ sp needed
ARM GAS  T:\msys\tmp\ccoyqwkK.s 			page 39


 1620 0010 5DF804FB 		ldr	pc, [sp], #4
 1621              		.cfi_endproc
 1622              	.LFE13:
 1624              		.section	.text.mbedtls_asn1_write_printable_string,"ax",%progbits
 1625              		.align	1
 1626              		.p2align 2,,3
 1627              		.global	mbedtls_asn1_write_printable_string
 1628              		.syntax unified
 1629              		.thumb
 1630              		.thumb_func
 1631              		.fpu fpv4-sp-d16
 1633              	mbedtls_asn1_write_printable_string:
 1634              	.LVL138:
 1635              	.LFB14:
 280:D:/fchai/work/i-cube/I-CUBE-HUAWEI/Middlewares/Third_Party/Huawei/iot_link/network/dtls/mbedtls/mbedtls-2.16.2/library\asn1write.c **** 
 281:D:/fchai/work/i-cube/I-CUBE-HUAWEI/Middlewares/Third_Party/Huawei/iot_link/network/dtls/mbedtls/mbedtls-2.16.2/library\asn1write.c **** int mbedtls_asn1_write_printable_string( unsigned char **p, unsigned char *start,
 282:D:/fchai/work/i-cube/I-CUBE-HUAWEI/Middlewares/Third_Party/Huawei/iot_link/network/dtls/mbedtls/mbedtls-2.16.2/library\asn1write.c ****                                  const char *text, size_t text_len )
 283:D:/fchai/work/i-cube/I-CUBE-HUAWEI/Middlewares/Third_Party/Huawei/iot_link/network/dtls/mbedtls/mbedtls-2.16.2/library\asn1write.c **** {
 1636              		.loc 1 283 1 is_stmt 1 view -0
 1637              		.cfi_startproc
 1638              		@ args = 0, pretend = 0, frame = 0
 1639              		@ frame_needed = 0, uses_anonymous_args = 0
 284:D:/fchai/work/i-cube/I-CUBE-HUAWEI/Middlewares/Third_Party/Huawei/iot_link/network/dtls/mbedtls/mbedtls-2.16.2/library\asn1write.c ****     return( mbedtls_asn1_write_tagged_string(p, start, MBEDTLS_ASN1_PRINTABLE_STRING, text, text_le
 1640              		.loc 1 284 5 view .LVU579
 283:D:/fchai/work/i-cube/I-CUBE-HUAWEI/Middlewares/Third_Party/Huawei/iot_link/network/dtls/mbedtls/mbedtls-2.16.2/library\asn1write.c ****     return( mbedtls_asn1_write_tagged_string(p, start, MBEDTLS_ASN1_PRINTABLE_STRING, text, text_le
 1641              		.loc 1 283 1 is_stmt 0 view .LVU580
 1642 0000 00B5     		push	{lr}
 1643              	.LCFI19:
 1644              		.cfi_def_cfa_offset 4
 1645              		.cfi_offset 14, -4
 1646 0002 83B0     		sub	sp, sp, #12
 1647              	.LCFI20:
 1648              		.cfi_def_cfa_offset 16
 1649              		.loc 1 284 13 view .LVU581
 1650 0004 0093     		str	r3, [sp]
 1651 0006 1346     		mov	r3, r2
 1652              	.LVL139:
 1653              		.loc 1 284 13 view .LVU582
 1654 0008 1322     		movs	r2, #19
 1655              	.LVL140:
 1656              		.loc 1 284 13 view .LVU583
 1657 000a FFF7FEFF 		bl	mbedtls_asn1_write_tagged_string
 1658              	.LVL141:
 285:D:/fchai/work/i-cube/I-CUBE-HUAWEI/Middlewares/Third_Party/Huawei/iot_link/network/dtls/mbedtls/mbedtls-2.16.2/library\asn1write.c **** }
 1659              		.loc 1 285 1 view .LVU584
 1660 000e 03B0     		add	sp, sp, #12
 1661              	.LCFI21:
 1662              		.cfi_def_cfa_offset 4
 1663              		@ sp needed
 1664 0010 5DF804FB 		ldr	pc, [sp], #4
 1665              		.cfi_endproc
 1666              	.LFE14:
 1668              		.section	.text.mbedtls_asn1_write_ia5_string,"ax",%progbits
 1669              		.align	1
 1670              		.p2align 2,,3
 1671              		.global	mbedtls_asn1_write_ia5_string
 1672              		.syntax unified
ARM GAS  T:\msys\tmp\ccoyqwkK.s 			page 40


 1673              		.thumb
 1674              		.thumb_func
 1675              		.fpu fpv4-sp-d16
 1677              	mbedtls_asn1_write_ia5_string:
 1678              	.LVL142:
 1679              	.LFB15:
 286:D:/fchai/work/i-cube/I-CUBE-HUAWEI/Middlewares/Third_Party/Huawei/iot_link/network/dtls/mbedtls/mbedtls-2.16.2/library\asn1write.c **** 
 287:D:/fchai/work/i-cube/I-CUBE-HUAWEI/Middlewares/Third_Party/Huawei/iot_link/network/dtls/mbedtls/mbedtls-2.16.2/library\asn1write.c **** int mbedtls_asn1_write_ia5_string( unsigned char **p, unsigned char *start,
 288:D:/fchai/work/i-cube/I-CUBE-HUAWEI/Middlewares/Third_Party/Huawei/iot_link/network/dtls/mbedtls/mbedtls-2.16.2/library\asn1write.c ****                            const char *text, size_t text_len )
 289:D:/fchai/work/i-cube/I-CUBE-HUAWEI/Middlewares/Third_Party/Huawei/iot_link/network/dtls/mbedtls/mbedtls-2.16.2/library\asn1write.c **** {
 1680              		.loc 1 289 1 is_stmt 1 view -0
 1681              		.cfi_startproc
 1682              		@ args = 0, pretend = 0, frame = 0
 1683              		@ frame_needed = 0, uses_anonymous_args = 0
 290:D:/fchai/work/i-cube/I-CUBE-HUAWEI/Middlewares/Third_Party/Huawei/iot_link/network/dtls/mbedtls/mbedtls-2.16.2/library\asn1write.c ****     return( mbedtls_asn1_write_tagged_string(p, start, MBEDTLS_ASN1_IA5_STRING, text, text_len) );
 1684              		.loc 1 290 5 view .LVU586
 289:D:/fchai/work/i-cube/I-CUBE-HUAWEI/Middlewares/Third_Party/Huawei/iot_link/network/dtls/mbedtls/mbedtls-2.16.2/library\asn1write.c ****     return( mbedtls_asn1_write_tagged_string(p, start, MBEDTLS_ASN1_IA5_STRING, text, text_len) );
 1685              		.loc 1 289 1 is_stmt 0 view .LVU587
 1686 0000 00B5     		push	{lr}
 1687              	.LCFI22:
 1688              		.cfi_def_cfa_offset 4
 1689              		.cfi_offset 14, -4
 1690 0002 83B0     		sub	sp, sp, #12
 1691              	.LCFI23:
 1692              		.cfi_def_cfa_offset 16
 1693              		.loc 1 290 13 view .LVU588
 1694 0004 0093     		str	r3, [sp]
 1695 0006 1346     		mov	r3, r2
 1696              	.LVL143:
 1697              		.loc 1 290 13 view .LVU589
 1698 0008 1622     		movs	r2, #22
 1699              	.LVL144:
 1700              		.loc 1 290 13 view .LVU590
 1701 000a FFF7FEFF 		bl	mbedtls_asn1_write_tagged_string
 1702              	.LVL145:
 291:D:/fchai/work/i-cube/I-CUBE-HUAWEI/Middlewares/Third_Party/Huawei/iot_link/network/dtls/mbedtls/mbedtls-2.16.2/library\asn1write.c **** }
 1703              		.loc 1 291 1 view .LVU591
 1704 000e 03B0     		add	sp, sp, #12
 1705              	.LCFI24:
 1706              		.cfi_def_cfa_offset 4
 1707              		@ sp needed
 1708 0010 5DF804FB 		ldr	pc, [sp], #4
 1709              		.cfi_endproc
 1710              	.LFE15:
 1712              		.section	.text.mbedtls_asn1_write_bitstring,"ax",%progbits
 1713              		.align	1
 1714              		.p2align 2,,3
 1715              		.global	mbedtls_asn1_write_bitstring
 1716              		.syntax unified
 1717              		.thumb
 1718              		.thumb_func
 1719              		.fpu fpv4-sp-d16
 1721              	mbedtls_asn1_write_bitstring:
 1722              	.LVL146:
 1723              	.LFB16:
 292:D:/fchai/work/i-cube/I-CUBE-HUAWEI/Middlewares/Third_Party/Huawei/iot_link/network/dtls/mbedtls/mbedtls-2.16.2/library\asn1write.c **** 
 293:D:/fchai/work/i-cube/I-CUBE-HUAWEI/Middlewares/Third_Party/Huawei/iot_link/network/dtls/mbedtls/mbedtls-2.16.2/library\asn1write.c **** int mbedtls_asn1_write_bitstring( unsigned char **p, unsigned char *start,
ARM GAS  T:\msys\tmp\ccoyqwkK.s 			page 41


 294:D:/fchai/work/i-cube/I-CUBE-HUAWEI/Middlewares/Third_Party/Huawei/iot_link/network/dtls/mbedtls/mbedtls-2.16.2/library\asn1write.c ****                           const unsigned char *buf, size_t bits )
 295:D:/fchai/work/i-cube/I-CUBE-HUAWEI/Middlewares/Third_Party/Huawei/iot_link/network/dtls/mbedtls/mbedtls-2.16.2/library\asn1write.c **** {
 1724              		.loc 1 295 1 is_stmt 1 view -0
 1725              		.cfi_startproc
 1726              		@ args = 0, pretend = 0, frame = 0
 1727              		@ frame_needed = 0, uses_anonymous_args = 0
 296:D:/fchai/work/i-cube/I-CUBE-HUAWEI/Middlewares/Third_Party/Huawei/iot_link/network/dtls/mbedtls/mbedtls-2.16.2/library\asn1write.c ****     int ret;
 1728              		.loc 1 296 5 view .LVU593
 297:D:/fchai/work/i-cube/I-CUBE-HUAWEI/Middlewares/Third_Party/Huawei/iot_link/network/dtls/mbedtls/mbedtls-2.16.2/library\asn1write.c ****     size_t len = 0;
 1729              		.loc 1 297 5 view .LVU594
 298:D:/fchai/work/i-cube/I-CUBE-HUAWEI/Middlewares/Third_Party/Huawei/iot_link/network/dtls/mbedtls/mbedtls-2.16.2/library\asn1write.c ****     size_t unused_bits, byte_len;
 1730              		.loc 1 298 5 view .LVU595
 299:D:/fchai/work/i-cube/I-CUBE-HUAWEI/Middlewares/Third_Party/Huawei/iot_link/network/dtls/mbedtls/mbedtls-2.16.2/library\asn1write.c **** 
 300:D:/fchai/work/i-cube/I-CUBE-HUAWEI/Middlewares/Third_Party/Huawei/iot_link/network/dtls/mbedtls/mbedtls-2.16.2/library\asn1write.c ****     byte_len = ( bits + 7 ) / 8;
 1731              		.loc 1 300 5 view .LVU596
 295:D:/fchai/work/i-cube/I-CUBE-HUAWEI/Middlewares/Third_Party/Huawei/iot_link/network/dtls/mbedtls/mbedtls-2.16.2/library\asn1write.c ****     int ret;
 1732              		.loc 1 295 1 is_stmt 0 view .LVU597
 1733 0000 2DE9F041 		push	{r4, r5, r6, r7, r8, lr}
 1734              	.LCFI25:
 1735              		.cfi_def_cfa_offset 24
 1736              		.cfi_offset 4, -24
 1737              		.cfi_offset 5, -20
 1738              		.cfi_offset 6, -16
 1739              		.cfi_offset 7, -12
 1740              		.cfi_offset 8, -8
 1741              		.cfi_offset 14, -4
 295:D:/fchai/work/i-cube/I-CUBE-HUAWEI/Middlewares/Third_Party/Huawei/iot_link/network/dtls/mbedtls/mbedtls-2.16.2/library\asn1write.c ****     int ret;
 1742              		.loc 1 295 1 view .LVU598
 1743 0004 0446     		mov	r4, r0
 301:D:/fchai/work/i-cube/I-CUBE-HUAWEI/Middlewares/Third_Party/Huawei/iot_link/network/dtls/mbedtls/mbedtls-2.16.2/library\asn1write.c ****     unused_bits = ( byte_len * 8 ) - bits;
 302:D:/fchai/work/i-cube/I-CUBE-HUAWEI/Middlewares/Third_Party/Huawei/iot_link/network/dtls/mbedtls/mbedtls-2.16.2/library\asn1write.c **** 
 303:D:/fchai/work/i-cube/I-CUBE-HUAWEI/Middlewares/Third_Party/Huawei/iot_link/network/dtls/mbedtls/mbedtls-2.16.2/library\asn1write.c ****     if( *p < start || (size_t)( *p - start ) < byte_len + 1 )
 1744              		.loc 1 303 9 view .LVU599
 1745 0006 0068     		ldr	r0, [r0]
 1746              	.LVL147:
 300:D:/fchai/work/i-cube/I-CUBE-HUAWEI/Middlewares/Third_Party/Huawei/iot_link/network/dtls/mbedtls/mbedtls-2.16.2/library\asn1write.c ****     unused_bits = ( byte_len * 8 ) - bits;
 1747              		.loc 1 300 23 view .LVU600
 1748 0008 03F1070C 		add	ip, r3, #7
 301:D:/fchai/work/i-cube/I-CUBE-HUAWEI/Middlewares/Third_Party/Huawei/iot_link/network/dtls/mbedtls/mbedtls-2.16.2/library\asn1write.c ****     unused_bits = ( byte_len * 8 ) - bits;
 1749              		.loc 1 301 30 view .LVU601
 1750 000c 2CF00707 		bic	r7, ip, #7
 1751              		.loc 1 303 7 view .LVU602
 1752 0010 8842     		cmp	r0, r1
 295:D:/fchai/work/i-cube/I-CUBE-HUAWEI/Middlewares/Third_Party/Huawei/iot_link/network/dtls/mbedtls/mbedtls-2.16.2/library\asn1write.c ****     int ret;
 1753              		.loc 1 295 1 view .LVU603
 1754 0012 0D46     		mov	r5, r1
 301:D:/fchai/work/i-cube/I-CUBE-HUAWEI/Middlewares/Third_Party/Huawei/iot_link/network/dtls/mbedtls/mbedtls-2.16.2/library\asn1write.c ****     unused_bits = ( byte_len * 8 ) - bits;
 1755              		.loc 1 301 17 view .LVU604
 1756 0014 A7EB0307 		sub	r7, r7, r3
 1757              	.LVL148:
 301:D:/fchai/work/i-cube/I-CUBE-HUAWEI/Middlewares/Third_Party/Huawei/iot_link/network/dtls/mbedtls/mbedtls-2.16.2/library\asn1write.c ****     unused_bits = ( byte_len * 8 ) - bits;
 1758              		.loc 1 301 5 is_stmt 1 view .LVU605
 1759              		.loc 1 303 5 view .LVU606
 1760              		.loc 1 303 7 is_stmt 0 view .LVU607
 1761 0018 3AD3     		bcc	.L80
 1762 001a 4FEADC06 		lsr	r6, ip, #3
 1763              	.LVL149:
ARM GAS  T:\msys\tmp\ccoyqwkK.s 			page 42


 1764              		.loc 1 303 57 discriminator 1 view .LVU608
 1765 001e 06F10108 		add	r8, r6, #1
 1766              		.loc 1 303 36 discriminator 1 view .LVU609
 1767 0022 431A     		subs	r3, r0, r1
 1768              	.LVL150:
 1769              		.loc 1 303 20 discriminator 1 view .LVU610
 1770 0024 4345     		cmp	r3, r8
 1771 0026 33D3     		bcc	.L80
 304:D:/fchai/work/i-cube/I-CUBE-HUAWEI/Middlewares/Third_Party/Huawei/iot_link/network/dtls/mbedtls/mbedtls-2.16.2/library\asn1write.c ****         return( MBEDTLS_ERR_ASN1_BUF_TOO_SMALL );
 305:D:/fchai/work/i-cube/I-CUBE-HUAWEI/Middlewares/Third_Party/Huawei/iot_link/network/dtls/mbedtls/mbedtls-2.16.2/library\asn1write.c **** 
 306:D:/fchai/work/i-cube/I-CUBE-HUAWEI/Middlewares/Third_Party/Huawei/iot_link/network/dtls/mbedtls/mbedtls-2.16.2/library\asn1write.c ****     len = byte_len + 1;
 1772              		.loc 1 306 5 is_stmt 1 view .LVU611
 1773              	.LVL151:
 307:D:/fchai/work/i-cube/I-CUBE-HUAWEI/Middlewares/Third_Party/Huawei/iot_link/network/dtls/mbedtls/mbedtls-2.16.2/library\asn1write.c **** 
 308:D:/fchai/work/i-cube/I-CUBE-HUAWEI/Middlewares/Third_Party/Huawei/iot_link/network/dtls/mbedtls/mbedtls-2.16.2/library\asn1write.c ****     /* Write the bitstring. Ensure the unused bits are zeroed */
 309:D:/fchai/work/i-cube/I-CUBE-HUAWEI/Middlewares/Third_Party/Huawei/iot_link/network/dtls/mbedtls/mbedtls-2.16.2/library\asn1write.c ****     if( byte_len > 0 )
 1774              		.loc 1 309 5 view .LVU612
 1775              		.loc 1 309 7 is_stmt 0 view .LVU613
 1776 0028 BCF1070F 		cmp	ip, #7
 1777 002c 18D8     		bhi	.L83
 1778              	.LVL152:
 1779              	.L81:
 310:D:/fchai/work/i-cube/I-CUBE-HUAWEI/Middlewares/Third_Party/Huawei/iot_link/network/dtls/mbedtls/mbedtls-2.16.2/library\asn1write.c ****     {
 311:D:/fchai/work/i-cube/I-CUBE-HUAWEI/Middlewares/Third_Party/Huawei/iot_link/network/dtls/mbedtls/mbedtls-2.16.2/library\asn1write.c ****         byte_len--;
 312:D:/fchai/work/i-cube/I-CUBE-HUAWEI/Middlewares/Third_Party/Huawei/iot_link/network/dtls/mbedtls/mbedtls-2.16.2/library\asn1write.c ****         *--( *p ) = buf[byte_len] & ~( ( 0x1 << unused_bits ) - 1 );
 313:D:/fchai/work/i-cube/I-CUBE-HUAWEI/Middlewares/Third_Party/Huawei/iot_link/network/dtls/mbedtls/mbedtls-2.16.2/library\asn1write.c ****         ( *p ) -= byte_len;
 314:D:/fchai/work/i-cube/I-CUBE-HUAWEI/Middlewares/Third_Party/Huawei/iot_link/network/dtls/mbedtls/mbedtls-2.16.2/library\asn1write.c ****         memcpy( *p, buf, byte_len );
 315:D:/fchai/work/i-cube/I-CUBE-HUAWEI/Middlewares/Third_Party/Huawei/iot_link/network/dtls/mbedtls/mbedtls-2.16.2/library\asn1write.c ****     }
 316:D:/fchai/work/i-cube/I-CUBE-HUAWEI/Middlewares/Third_Party/Huawei/iot_link/network/dtls/mbedtls/mbedtls-2.16.2/library\asn1write.c **** 
 317:D:/fchai/work/i-cube/I-CUBE-HUAWEI/Middlewares/Third_Party/Huawei/iot_link/network/dtls/mbedtls/mbedtls-2.16.2/library\asn1write.c ****     /* Write unused bits */
 318:D:/fchai/work/i-cube/I-CUBE-HUAWEI/Middlewares/Third_Party/Huawei/iot_link/network/dtls/mbedtls/mbedtls-2.16.2/library\asn1write.c ****     *--( *p ) = (unsigned char)unused_bits;
 1780              		.loc 1 318 5 is_stmt 1 view .LVU614
 1781              		.loc 1 318 6 is_stmt 0 view .LVU615
 1782 002e 431E     		subs	r3, r0, #1
 1783              		.loc 1 318 15 view .LVU616
 1784 0030 2360     		str	r3, [r4]
 319:D:/fchai/work/i-cube/I-CUBE-HUAWEI/Middlewares/Third_Party/Huawei/iot_link/network/dtls/mbedtls/mbedtls-2.16.2/library\asn1write.c **** 
 320:D:/fchai/work/i-cube/I-CUBE-HUAWEI/Middlewares/Third_Party/Huawei/iot_link/network/dtls/mbedtls/mbedtls-2.16.2/library\asn1write.c ****     MBEDTLS_ASN1_CHK_ADD( len, mbedtls_asn1_write_len( p, start, len ) );
 1785              		.loc 1 320 5 view .LVU617
 1786 0032 4246     		mov	r2, r8
 318:D:/fchai/work/i-cube/I-CUBE-HUAWEI/Middlewares/Third_Party/Huawei/iot_link/network/dtls/mbedtls/mbedtls-2.16.2/library\asn1write.c **** 
 1787              		.loc 1 318 17 view .LVU618
 1788 0034 00F8017C 		strb	r7, [r0, #-1]
 1789              		.loc 1 320 5 is_stmt 1 view .LVU619
 1790              		.loc 1 320 5 view .LVU620
 1791 0038 2946     		mov	r1, r5
 1792 003a 2046     		mov	r0, r4
 1793 003c FFF7FEFF 		bl	mbedtls_asn1_write_len
 1794              	.LVL153:
 1795              		.loc 1 320 5 is_stmt 0 view .LVU621
 1796 0040 0028     		cmp	r0, #0
 1797              		.loc 1 320 5 view .LVU622
 1798 0042 0BDB     		blt	.L77
 1799              		.loc 1 320 5 is_stmt 1 discriminator 2 view .LVU623
 1800              	.LBB135:
 1801              	.LBB136:
 108:D:/fchai/work/i-cube/I-CUBE-HUAWEI/Middlewares/Third_Party/Huawei/iot_link/network/dtls/mbedtls/mbedtls-2.16.2/library\asn1write.c ****         return( MBEDTLS_ERR_ASN1_BUF_TOO_SMALL );
ARM GAS  T:\msys\tmp\ccoyqwkK.s 			page 43


 1802              		.loc 1 108 9 is_stmt 0 discriminator 2 view .LVU624
 1803 0044 2368     		ldr	r3, [r4]
 108:D:/fchai/work/i-cube/I-CUBE-HUAWEI/Middlewares/Third_Party/Huawei/iot_link/network/dtls/mbedtls/mbedtls-2.16.2/library\asn1write.c ****         return( MBEDTLS_ERR_ASN1_BUF_TOO_SMALL );
 1804              		.loc 1 108 12 discriminator 2 view .LVU625
 1805 0046 5D1B     		subs	r5, r3, r5
 1806              	.LVL154:
 108:D:/fchai/work/i-cube/I-CUBE-HUAWEI/Middlewares/Third_Party/Huawei/iot_link/network/dtls/mbedtls/mbedtls-2.16.2/library\asn1write.c ****         return( MBEDTLS_ERR_ASN1_BUF_TOO_SMALL );
 1807              		.loc 1 108 7 discriminator 2 view .LVU626
 1808 0048 002D     		cmp	r5, #0
 1809 004a 06F10206 		add	r6, r6, #2
 1810              	.LVL155:
 108:D:/fchai/work/i-cube/I-CUBE-HUAWEI/Middlewares/Third_Party/Huawei/iot_link/network/dtls/mbedtls/mbedtls-2.16.2/library\asn1write.c ****         return( MBEDTLS_ERR_ASN1_BUF_TOO_SMALL );
 1811              		.loc 1 108 7 discriminator 2 view .LVU627
 1812              	.LBE136:
 1813              	.LBE135:
 1814              		.loc 1 320 5 is_stmt 1 discriminator 2 view .LVU628
 321:D:/fchai/work/i-cube/I-CUBE-HUAWEI/Middlewares/Third_Party/Huawei/iot_link/network/dtls/mbedtls/mbedtls-2.16.2/library\asn1write.c ****     MBEDTLS_ASN1_CHK_ADD( len, mbedtls_asn1_write_tag( p, start, MBEDTLS_ASN1_BIT_STRING ) );
 1815              		.loc 1 321 5 discriminator 2 view .LVU629
 1816              		.loc 1 321 5 discriminator 2 view .LVU630
 1817              	.LBB139:
 1818              	.LBI135:
 106:D:/fchai/work/i-cube/I-CUBE-HUAWEI/Middlewares/Third_Party/Huawei/iot_link/network/dtls/mbedtls/mbedtls-2.16.2/library\asn1write.c **** {
 1819              		.loc 1 106 5 discriminator 2 view .LVU631
 1820              	.LBB137:
 108:D:/fchai/work/i-cube/I-CUBE-HUAWEI/Middlewares/Third_Party/Huawei/iot_link/network/dtls/mbedtls/mbedtls-2.16.2/library\asn1write.c ****         return( MBEDTLS_ERR_ASN1_BUF_TOO_SMALL );
 1821              		.loc 1 108 5 discriminator 2 view .LVU632
 108:D:/fchai/work/i-cube/I-CUBE-HUAWEI/Middlewares/Third_Party/Huawei/iot_link/network/dtls/mbedtls/mbedtls-2.16.2/library\asn1write.c ****         return( MBEDTLS_ERR_ASN1_BUF_TOO_SMALL );
 1822              		.loc 1 108 7 is_stmt 0 discriminator 2 view .LVU633
 1823 004e 1FDD     		ble	.L80
 111:D:/fchai/work/i-cube/I-CUBE-HUAWEI/Middlewares/Third_Party/Huawei/iot_link/network/dtls/mbedtls/mbedtls-2.16.2/library\asn1write.c **** 
 1824              		.loc 1 111 5 is_stmt 1 view .LVU634
 111:D:/fchai/work/i-cube/I-CUBE-HUAWEI/Middlewares/Third_Party/Huawei/iot_link/network/dtls/mbedtls/mbedtls-2.16.2/library\asn1write.c **** 
 1825              		.loc 1 111 6 is_stmt 0 view .LVU635
 1826 0050 591E     		subs	r1, r3, #1
 111:D:/fchai/work/i-cube/I-CUBE-HUAWEI/Middlewares/Third_Party/Huawei/iot_link/network/dtls/mbedtls/mbedtls-2.16.2/library\asn1write.c **** 
 1827              		.loc 1 111 13 view .LVU636
 1828 0052 0322     		movs	r2, #3
 1829 0054 2160     		str	r1, [r4]
 1830              	.LBE137:
 1831              	.LBE139:
 1832              		.loc 1 321 5 view .LVU637
 1833 0056 3044     		add	r0, r0, r6
 1834              	.LVL156:
 1835              	.LBB140:
 1836              	.LBB138:
 111:D:/fchai/work/i-cube/I-CUBE-HUAWEI/Middlewares/Third_Party/Huawei/iot_link/network/dtls/mbedtls/mbedtls-2.16.2/library\asn1write.c **** 
 1837              		.loc 1 111 13 view .LVU638
 1838 0058 03F8012C 		strb	r2, [r3, #-1]
 113:D:/fchai/work/i-cube/I-CUBE-HUAWEI/Middlewares/Third_Party/Huawei/iot_link/network/dtls/mbedtls/mbedtls-2.16.2/library\asn1write.c **** }
 1839              		.loc 1 113 5 is_stmt 1 view .LVU639
 1840              	.LVL157:
 113:D:/fchai/work/i-cube/I-CUBE-HUAWEI/Middlewares/Third_Party/Huawei/iot_link/network/dtls/mbedtls/mbedtls-2.16.2/library\asn1write.c **** }
 1841              		.loc 1 113 5 is_stmt 0 view .LVU640
 1842              	.LBE138:
 1843              	.LBE140:
 1844              		.loc 1 321 5 is_stmt 1 view .LVU641
 1845              		.loc 1 321 5 view .LVU642
ARM GAS  T:\msys\tmp\ccoyqwkK.s 			page 44


 322:D:/fchai/work/i-cube/I-CUBE-HUAWEI/Middlewares/Third_Party/Huawei/iot_link/network/dtls/mbedtls/mbedtls-2.16.2/library\asn1write.c **** 
 323:D:/fchai/work/i-cube/I-CUBE-HUAWEI/Middlewares/Third_Party/Huawei/iot_link/network/dtls/mbedtls/mbedtls-2.16.2/library\asn1write.c ****     return( (int) len );
 1846              		.loc 1 323 5 view .LVU643
 1847              	.L77:
 324:D:/fchai/work/i-cube/I-CUBE-HUAWEI/Middlewares/Third_Party/Huawei/iot_link/network/dtls/mbedtls/mbedtls-2.16.2/library\asn1write.c **** }
 1848              		.loc 1 324 1 is_stmt 0 view .LVU644
 1849 005c BDE8F081 		pop	{r4, r5, r6, r7, r8, pc}
 1850              	.LVL158:
 1851              	.L83:
 311:D:/fchai/work/i-cube/I-CUBE-HUAWEI/Middlewares/Third_Party/Huawei/iot_link/network/dtls/mbedtls/mbedtls-2.16.2/library\asn1write.c ****         *--( *p ) = buf[byte_len] & ~( ( 0x1 << unused_bits ) - 1 );
 1852              		.loc 1 311 9 is_stmt 1 view .LVU645
 1853 0060 1146     		mov	r1, r2
 1854              	.LVL159:
 311:D:/fchai/work/i-cube/I-CUBE-HUAWEI/Middlewares/Third_Party/Huawei/iot_link/network/dtls/mbedtls/mbedtls-2.16.2/library\asn1write.c ****         *--( *p ) = buf[byte_len] & ~( ( 0x1 << unused_bits ) - 1 );
 1855              		.loc 1 311 17 is_stmt 0 view .LVU646
 1856 0062 721E     		subs	r2, r6, #1
 1857              	.LVL160:
 312:D:/fchai/work/i-cube/I-CUBE-HUAWEI/Middlewares/Third_Party/Huawei/iot_link/network/dtls/mbedtls/mbedtls-2.16.2/library\asn1write.c ****         ( *p ) -= byte_len;
 1858              		.loc 1 312 9 is_stmt 1 view .LVU647
 312:D:/fchai/work/i-cube/I-CUBE-HUAWEI/Middlewares/Third_Party/Huawei/iot_link/network/dtls/mbedtls/mbedtls-2.16.2/library\asn1write.c ****         ( *p ) -= byte_len;
 1859              		.loc 1 312 46 is_stmt 0 view .LVU648
 1860 0064 4FF0FF3C 		mov	ip, #-1
 312:D:/fchai/work/i-cube/I-CUBE-HUAWEI/Middlewares/Third_Party/Huawei/iot_link/network/dtls/mbedtls/mbedtls-2.16.2/library\asn1write.c ****         ( *p ) -= byte_len;
 1861              		.loc 1 312 35 view .LVU649
 1862 0068 8B5C     		ldrb	r3, [r1, r2]	@ zero_extendqisi2
 1863 006a 0CFA07FC 		lsl	ip, ip, r7
 1864 006e 03EA0C03 		and	r3, r3, ip
 312:D:/fchai/work/i-cube/I-CUBE-HUAWEI/Middlewares/Third_Party/Huawei/iot_link/network/dtls/mbedtls/mbedtls-2.16.2/library\asn1write.c ****         ( *p ) -= byte_len;
 1865              		.loc 1 312 10 view .LVU650
 1866 0072 00F1FF3C 		add	ip, r0, #-1
 312:D:/fchai/work/i-cube/I-CUBE-HUAWEI/Middlewares/Third_Party/Huawei/iot_link/network/dtls/mbedtls/mbedtls-2.16.2/library\asn1write.c ****         ( *p ) -= byte_len;
 1867              		.loc 1 312 19 view .LVU651
 1868 0076 C4F800C0 		str	ip, [r4]
 1869 007a 00F8013C 		strb	r3, [r0, #-1]
 313:D:/fchai/work/i-cube/I-CUBE-HUAWEI/Middlewares/Third_Party/Huawei/iot_link/network/dtls/mbedtls/mbedtls-2.16.2/library\asn1write.c ****         memcpy( *p, buf, byte_len );
 1870              		.loc 1 313 9 is_stmt 1 view .LVU652
 313:D:/fchai/work/i-cube/I-CUBE-HUAWEI/Middlewares/Third_Party/Huawei/iot_link/network/dtls/mbedtls/mbedtls-2.16.2/library\asn1write.c ****         memcpy( *p, buf, byte_len );
 1871              		.loc 1 313 16 is_stmt 0 view .LVU653
 1872 007e 2068     		ldr	r0, [r4]
 1873 0080 C6F10103 		rsb	r3, r6, #1
 1874 0084 1844     		add	r0, r0, r3
 1875 0086 2060     		str	r0, [r4]
 314:D:/fchai/work/i-cube/I-CUBE-HUAWEI/Middlewares/Third_Party/Huawei/iot_link/network/dtls/mbedtls/mbedtls-2.16.2/library\asn1write.c ****     }
 1876              		.loc 1 314 9 is_stmt 1 view .LVU654
 1877 0088 FFF7FEFF 		bl	memcpy
 1878              	.LVL161:
 314:D:/fchai/work/i-cube/I-CUBE-HUAWEI/Middlewares/Third_Party/Huawei/iot_link/network/dtls/mbedtls/mbedtls-2.16.2/library\asn1write.c ****     }
 1879              		.loc 1 314 9 is_stmt 0 view .LVU655
 1880 008c 2068     		ldr	r0, [r4]
 1881 008e CEE7     		b	.L81
 1882              	.LVL162:
 1883              	.L80:
 304:D:/fchai/work/i-cube/I-CUBE-HUAWEI/Middlewares/Third_Party/Huawei/iot_link/network/dtls/mbedtls/mbedtls-2.16.2/library\asn1write.c **** 
 1884              		.loc 1 304 15 view .LVU656
 1885 0090 6FF06B00 		mvn	r0, #107
 1886 0094 E2E7     		b	.L77
 1887              		.cfi_endproc
ARM GAS  T:\msys\tmp\ccoyqwkK.s 			page 45


 1888              	.LFE16:
 1890 0096 00BF     		.section	.text.mbedtls_asn1_write_octet_string,"ax",%progbits
 1891              		.align	1
 1892              		.p2align 2,,3
 1893              		.global	mbedtls_asn1_write_octet_string
 1894              		.syntax unified
 1895              		.thumb
 1896              		.thumb_func
 1897              		.fpu fpv4-sp-d16
 1899              	mbedtls_asn1_write_octet_string:
 1900              	.LVL163:
 1901              	.LFB17:
 325:D:/fchai/work/i-cube/I-CUBE-HUAWEI/Middlewares/Third_Party/Huawei/iot_link/network/dtls/mbedtls/mbedtls-2.16.2/library\asn1write.c **** 
 326:D:/fchai/work/i-cube/I-CUBE-HUAWEI/Middlewares/Third_Party/Huawei/iot_link/network/dtls/mbedtls/mbedtls-2.16.2/library\asn1write.c **** int mbedtls_asn1_write_octet_string( unsigned char **p, unsigned char *start,
 327:D:/fchai/work/i-cube/I-CUBE-HUAWEI/Middlewares/Third_Party/Huawei/iot_link/network/dtls/mbedtls/mbedtls-2.16.2/library\asn1write.c ****                              const unsigned char *buf, size_t size )
 328:D:/fchai/work/i-cube/I-CUBE-HUAWEI/Middlewares/Third_Party/Huawei/iot_link/network/dtls/mbedtls/mbedtls-2.16.2/library\asn1write.c **** {
 1902              		.loc 1 328 1 is_stmt 1 view -0
 1903              		.cfi_startproc
 1904              		@ args = 0, pretend = 0, frame = 0
 1905              		@ frame_needed = 0, uses_anonymous_args = 0
 1906              		.loc 1 328 1 is_stmt 0 view .LVU658
 1907 0000 D0B5     		push	{r4, r6, r7, lr}
 1908              	.LCFI26:
 1909              		.cfi_def_cfa_offset 16
 1910              		.cfi_offset 4, -16
 1911              		.cfi_offset 6, -12
 1912              		.cfi_offset 7, -8
 1913              		.cfi_offset 14, -4
 1914              		.loc 1 328 1 view .LVU659
 1915 0002 0746     		mov	r7, r0
 1916              	.LBB141:
 1917              	.LBB142:
 121:D:/fchai/work/i-cube/I-CUBE-HUAWEI/Middlewares/Third_Party/Huawei/iot_link/network/dtls/mbedtls/mbedtls-2.16.2/library\asn1write.c ****         return( MBEDTLS_ERR_ASN1_BUF_TOO_SMALL );
 1918              		.loc 1 121 9 view .LVU660
 1919 0004 0068     		ldr	r0, [r0]
 1920              	.LVL164:
 121:D:/fchai/work/i-cube/I-CUBE-HUAWEI/Middlewares/Third_Party/Huawei/iot_link/network/dtls/mbedtls/mbedtls-2.16.2/library\asn1write.c ****         return( MBEDTLS_ERR_ASN1_BUF_TOO_SMALL );
 1921              		.loc 1 121 7 view .LVU661
 1922 0006 8142     		cmp	r1, r0
 1923              	.LBE142:
 1924              	.LBE141:
 1925              		.loc 1 328 1 view .LVU662
 1926 0008 0E46     		mov	r6, r1
 329:D:/fchai/work/i-cube/I-CUBE-HUAWEI/Middlewares/Third_Party/Huawei/iot_link/network/dtls/mbedtls/mbedtls-2.16.2/library\asn1write.c ****     int ret;
 1927              		.loc 1 329 5 is_stmt 1 view .LVU663
 330:D:/fchai/work/i-cube/I-CUBE-HUAWEI/Middlewares/Third_Party/Huawei/iot_link/network/dtls/mbedtls/mbedtls-2.16.2/library\asn1write.c ****     size_t len = 0;
 1928              		.loc 1 330 5 view .LVU664
 1929              	.LVL165:
 331:D:/fchai/work/i-cube/I-CUBE-HUAWEI/Middlewares/Third_Party/Huawei/iot_link/network/dtls/mbedtls/mbedtls-2.16.2/library\asn1write.c **** 
 332:D:/fchai/work/i-cube/I-CUBE-HUAWEI/Middlewares/Third_Party/Huawei/iot_link/network/dtls/mbedtls/mbedtls-2.16.2/library\asn1write.c ****     MBEDTLS_ASN1_CHK_ADD( len, mbedtls_asn1_write_raw_buffer( p, start, buf, size ) );
 1930              		.loc 1 332 5 view .LVU665
 1931              		.loc 1 332 5 view .LVU666
 1932              	.LBB145:
 1933              	.LBI141:
 116:D:/fchai/work/i-cube/I-CUBE-HUAWEI/Middlewares/Third_Party/Huawei/iot_link/network/dtls/mbedtls/mbedtls-2.16.2/library\asn1write.c ****                            const unsigned char *buf, size_t size )
 1934              		.loc 1 116 5 view .LVU667
 1935              	.LBB143:
ARM GAS  T:\msys\tmp\ccoyqwkK.s 			page 46


 119:D:/fchai/work/i-cube/I-CUBE-HUAWEI/Middlewares/Third_Party/Huawei/iot_link/network/dtls/mbedtls/mbedtls-2.16.2/library\asn1write.c **** 
 1936              		.loc 1 119 5 view .LVU668
 121:D:/fchai/work/i-cube/I-CUBE-HUAWEI/Middlewares/Third_Party/Huawei/iot_link/network/dtls/mbedtls/mbedtls-2.16.2/library\asn1write.c ****         return( MBEDTLS_ERR_ASN1_BUF_TOO_SMALL );
 1937              		.loc 1 121 5 view .LVU669
 121:D:/fchai/work/i-cube/I-CUBE-HUAWEI/Middlewares/Third_Party/Huawei/iot_link/network/dtls/mbedtls/mbedtls-2.16.2/library\asn1write.c ****         return( MBEDTLS_ERR_ASN1_BUF_TOO_SMALL );
 1938              		.loc 1 121 7 is_stmt 0 view .LVU670
 1939 000a 1FD8     		bhi	.L87
 1940 000c 1C46     		mov	r4, r3
 121:D:/fchai/work/i-cube/I-CUBE-HUAWEI/Middlewares/Third_Party/Huawei/iot_link/network/dtls/mbedtls/mbedtls-2.16.2/library\asn1write.c ****         return( MBEDTLS_ERR_ASN1_BUF_TOO_SMALL );
 1941              		.loc 1 121 36 view .LVU671
 1942 000e 431A     		subs	r3, r0, r1
 1943              	.LVL166:
 121:D:/fchai/work/i-cube/I-CUBE-HUAWEI/Middlewares/Third_Party/Huawei/iot_link/network/dtls/mbedtls/mbedtls-2.16.2/library\asn1write.c ****         return( MBEDTLS_ERR_ASN1_BUF_TOO_SMALL );
 1944              		.loc 1 121 20 view .LVU672
 1945 0010 9C42     		cmp	r4, r3
 1946 0012 1BD8     		bhi	.L87
 124:D:/fchai/work/i-cube/I-CUBE-HUAWEI/Middlewares/Third_Party/Huawei/iot_link/network/dtls/mbedtls/mbedtls-2.16.2/library\asn1write.c ****     (*p) -= len;
 1947              		.loc 1 124 5 is_stmt 1 view .LVU673
 1948              	.LVL167:
 125:D:/fchai/work/i-cube/I-CUBE-HUAWEI/Middlewares/Third_Party/Huawei/iot_link/network/dtls/mbedtls/mbedtls-2.16.2/library\asn1write.c ****     memcpy( *p, buf, len );
 1949              		.loc 1 125 5 view .LVU674
 125:D:/fchai/work/i-cube/I-CUBE-HUAWEI/Middlewares/Third_Party/Huawei/iot_link/network/dtls/mbedtls/mbedtls-2.16.2/library\asn1write.c ****     memcpy( *p, buf, len );
 1950              		.loc 1 125 10 is_stmt 0 view .LVU675
 1951 0014 001B     		subs	r0, r0, r4
 1952 0016 1146     		mov	r1, r2
 1953              	.LVL168:
 125:D:/fchai/work/i-cube/I-CUBE-HUAWEI/Middlewares/Third_Party/Huawei/iot_link/network/dtls/mbedtls/mbedtls-2.16.2/library\asn1write.c ****     memcpy( *p, buf, len );
 1954              		.loc 1 125 10 view .LVU676
 1955 0018 3860     		str	r0, [r7]
 126:D:/fchai/work/i-cube/I-CUBE-HUAWEI/Middlewares/Third_Party/Huawei/iot_link/network/dtls/mbedtls/mbedtls-2.16.2/library\asn1write.c **** 
 1956              		.loc 1 126 5 is_stmt 1 view .LVU677
 1957 001a 2246     		mov	r2, r4
 1958              	.LVL169:
 126:D:/fchai/work/i-cube/I-CUBE-HUAWEI/Middlewares/Third_Party/Huawei/iot_link/network/dtls/mbedtls/mbedtls-2.16.2/library\asn1write.c **** 
 1959              		.loc 1 126 5 is_stmt 0 view .LVU678
 1960 001c FFF7FEFF 		bl	memcpy
 1961              	.LVL170:
 128:D:/fchai/work/i-cube/I-CUBE-HUAWEI/Middlewares/Third_Party/Huawei/iot_link/network/dtls/mbedtls/mbedtls-2.16.2/library\asn1write.c **** }
 1962              		.loc 1 128 5 is_stmt 1 view .LVU679
 128:D:/fchai/work/i-cube/I-CUBE-HUAWEI/Middlewares/Third_Party/Huawei/iot_link/network/dtls/mbedtls/mbedtls-2.16.2/library\asn1write.c **** }
 1963              		.loc 1 128 5 is_stmt 0 view .LVU680
 1964              	.LBE143:
 1965              	.LBE145:
 1966              		.loc 1 332 5 view .LVU681
 1967 0020 201E     		subs	r0, r4, #0
 1968 0022 12DB     		blt	.L84
 1969              		.loc 1 332 5 is_stmt 1 discriminator 2 view .LVU682
 1970              	.LVL171:
 1971              		.loc 1 332 5 discriminator 2 view .LVU683
 333:D:/fchai/work/i-cube/I-CUBE-HUAWEI/Middlewares/Third_Party/Huawei/iot_link/network/dtls/mbedtls/mbedtls-2.16.2/library\asn1write.c **** 
 334:D:/fchai/work/i-cube/I-CUBE-HUAWEI/Middlewares/Third_Party/Huawei/iot_link/network/dtls/mbedtls/mbedtls-2.16.2/library\asn1write.c ****     MBEDTLS_ASN1_CHK_ADD( len, mbedtls_asn1_write_len( p, start, len ) );
 1972              		.loc 1 334 5 discriminator 2 view .LVU684
 1973              		.loc 1 334 5 discriminator 2 view .LVU685
 1974 0024 0246     		mov	r2, r0
 1975 0026 3146     		mov	r1, r6
 1976 0028 3846     		mov	r0, r7
 1977 002a FFF7FEFF 		bl	mbedtls_asn1_write_len
ARM GAS  T:\msys\tmp\ccoyqwkK.s 			page 47


 1978              	.LVL172:
 1979              		.loc 1 334 5 is_stmt 0 discriminator 2 view .LVU686
 1980 002e 0028     		cmp	r0, #0
 1981              		.loc 1 334 5 discriminator 2 view .LVU687
 1982 0030 0BDB     		blt	.L84
 1983              		.loc 1 334 5 is_stmt 1 discriminator 2 view .LVU688
 1984              	.LBB146:
 1985              	.LBB147:
 108:D:/fchai/work/i-cube/I-CUBE-HUAWEI/Middlewares/Third_Party/Huawei/iot_link/network/dtls/mbedtls/mbedtls-2.16.2/library\asn1write.c ****         return( MBEDTLS_ERR_ASN1_BUF_TOO_SMALL );
 1986              		.loc 1 108 9 is_stmt 0 discriminator 2 view .LVU689
 1987 0032 3B68     		ldr	r3, [r7]
 108:D:/fchai/work/i-cube/I-CUBE-HUAWEI/Middlewares/Third_Party/Huawei/iot_link/network/dtls/mbedtls/mbedtls-2.16.2/library\asn1write.c ****         return( MBEDTLS_ERR_ASN1_BUF_TOO_SMALL );
 1988              		.loc 1 108 12 discriminator 2 view .LVU690
 1989 0034 9E1B     		subs	r6, r3, r6
 1990              	.LVL173:
 108:D:/fchai/work/i-cube/I-CUBE-HUAWEI/Middlewares/Third_Party/Huawei/iot_link/network/dtls/mbedtls/mbedtls-2.16.2/library\asn1write.c ****         return( MBEDTLS_ERR_ASN1_BUF_TOO_SMALL );
 1991              		.loc 1 108 7 discriminator 2 view .LVU691
 1992 0036 002E     		cmp	r6, #0
 1993 0038 04F10104 		add	r4, r4, #1
 1994              	.LVL174:
 108:D:/fchai/work/i-cube/I-CUBE-HUAWEI/Middlewares/Third_Party/Huawei/iot_link/network/dtls/mbedtls/mbedtls-2.16.2/library\asn1write.c ****         return( MBEDTLS_ERR_ASN1_BUF_TOO_SMALL );
 1995              		.loc 1 108 7 discriminator 2 view .LVU692
 1996              	.LBE147:
 1997              	.LBE146:
 1998              		.loc 1 334 5 is_stmt 1 discriminator 2 view .LVU693
 335:D:/fchai/work/i-cube/I-CUBE-HUAWEI/Middlewares/Third_Party/Huawei/iot_link/network/dtls/mbedtls/mbedtls-2.16.2/library\asn1write.c ****     MBEDTLS_ASN1_CHK_ADD( len, mbedtls_asn1_write_tag( p, start, MBEDTLS_ASN1_OCTET_STRING ) );
 1999              		.loc 1 335 5 discriminator 2 view .LVU694
 2000              		.loc 1 335 5 discriminator 2 view .LVU695
 2001              	.LBB150:
 2002              	.LBI146:
 106:D:/fchai/work/i-cube/I-CUBE-HUAWEI/Middlewares/Third_Party/Huawei/iot_link/network/dtls/mbedtls/mbedtls-2.16.2/library\asn1write.c **** {
 2003              		.loc 1 106 5 discriminator 2 view .LVU696
 2004              	.LBB148:
 108:D:/fchai/work/i-cube/I-CUBE-HUAWEI/Middlewares/Third_Party/Huawei/iot_link/network/dtls/mbedtls/mbedtls-2.16.2/library\asn1write.c ****         return( MBEDTLS_ERR_ASN1_BUF_TOO_SMALL );
 2005              		.loc 1 108 5 discriminator 2 view .LVU697
 108:D:/fchai/work/i-cube/I-CUBE-HUAWEI/Middlewares/Third_Party/Huawei/iot_link/network/dtls/mbedtls/mbedtls-2.16.2/library\asn1write.c ****         return( MBEDTLS_ERR_ASN1_BUF_TOO_SMALL );
 2006              		.loc 1 108 7 is_stmt 0 discriminator 2 view .LVU698
 2007 003c 06DD     		ble	.L87
 111:D:/fchai/work/i-cube/I-CUBE-HUAWEI/Middlewares/Third_Party/Huawei/iot_link/network/dtls/mbedtls/mbedtls-2.16.2/library\asn1write.c **** 
 2008              		.loc 1 111 5 is_stmt 1 view .LVU699
 111:D:/fchai/work/i-cube/I-CUBE-HUAWEI/Middlewares/Third_Party/Huawei/iot_link/network/dtls/mbedtls/mbedtls-2.16.2/library\asn1write.c **** 
 2009              		.loc 1 111 6 is_stmt 0 view .LVU700
 2010 003e 591E     		subs	r1, r3, #1
 111:D:/fchai/work/i-cube/I-CUBE-HUAWEI/Middlewares/Third_Party/Huawei/iot_link/network/dtls/mbedtls/mbedtls-2.16.2/library\asn1write.c **** 
 2011              		.loc 1 111 13 view .LVU701
 2012 0040 0422     		movs	r2, #4
 2013 0042 3960     		str	r1, [r7]
 2014              	.LBE148:
 2015              	.LBE150:
 2016              		.loc 1 335 5 view .LVU702
 2017 0044 2044     		add	r0, r0, r4
 2018              	.LVL175:
 2019              	.LBB151:
 2020              	.LBB149:
 111:D:/fchai/work/i-cube/I-CUBE-HUAWEI/Middlewares/Third_Party/Huawei/iot_link/network/dtls/mbedtls/mbedtls-2.16.2/library\asn1write.c **** 
 2021              		.loc 1 111 13 view .LVU703
 2022 0046 03F8012C 		strb	r2, [r3, #-1]
ARM GAS  T:\msys\tmp\ccoyqwkK.s 			page 48


 113:D:/fchai/work/i-cube/I-CUBE-HUAWEI/Middlewares/Third_Party/Huawei/iot_link/network/dtls/mbedtls/mbedtls-2.16.2/library\asn1write.c **** }
 2023              		.loc 1 113 5 is_stmt 1 view .LVU704
 2024              	.LVL176:
 113:D:/fchai/work/i-cube/I-CUBE-HUAWEI/Middlewares/Third_Party/Huawei/iot_link/network/dtls/mbedtls/mbedtls-2.16.2/library\asn1write.c **** }
 2025              		.loc 1 113 5 is_stmt 0 view .LVU705
 2026              	.LBE149:
 2027              	.LBE151:
 2028              		.loc 1 335 5 is_stmt 1 view .LVU706
 2029              		.loc 1 335 5 view .LVU707
 336:D:/fchai/work/i-cube/I-CUBE-HUAWEI/Middlewares/Third_Party/Huawei/iot_link/network/dtls/mbedtls/mbedtls-2.16.2/library\asn1write.c **** 
 337:D:/fchai/work/i-cube/I-CUBE-HUAWEI/Middlewares/Third_Party/Huawei/iot_link/network/dtls/mbedtls/mbedtls-2.16.2/library\asn1write.c ****     return( (int) len );
 2030              		.loc 1 337 5 view .LVU708
 2031              	.L84:
 338:D:/fchai/work/i-cube/I-CUBE-HUAWEI/Middlewares/Third_Party/Huawei/iot_link/network/dtls/mbedtls/mbedtls-2.16.2/library\asn1write.c **** }
 2032              		.loc 1 338 1 is_stmt 0 view .LVU709
 2033 004a D0BD     		pop	{r4, r6, r7, pc}
 2034              	.LVL177:
 2035              	.L87:
 2036              	.LBB152:
 2037              	.LBB144:
 122:D:/fchai/work/i-cube/I-CUBE-HUAWEI/Middlewares/Third_Party/Huawei/iot_link/network/dtls/mbedtls/mbedtls-2.16.2/library\asn1write.c **** 
 2038              		.loc 1 122 15 view .LVU710
 2039 004c 6FF06B00 		mvn	r0, #107
 2040              	.LBE144:
 2041              	.LBE152:
 2042              		.loc 1 338 1 view .LVU711
 2043 0050 D0BD     		pop	{r4, r6, r7, pc}
 2044              		.loc 1 338 1 view .LVU712
 2045              		.cfi_endproc
 2046              	.LFE17:
 2048 0052 00BF     		.section	.text.mbedtls_asn1_store_named_data,"ax",%progbits
 2049              		.align	1
 2050              		.p2align 2,,3
 2051              		.global	mbedtls_asn1_store_named_data
 2052              		.syntax unified
 2053              		.thumb
 2054              		.thumb_func
 2055              		.fpu fpv4-sp-d16
 2057              	mbedtls_asn1_store_named_data:
 2058              	.LVL178:
 2059              	.LFB19:
 339:D:/fchai/work/i-cube/I-CUBE-HUAWEI/Middlewares/Third_Party/Huawei/iot_link/network/dtls/mbedtls/mbedtls-2.16.2/library\asn1write.c **** 
 340:D:/fchai/work/i-cube/I-CUBE-HUAWEI/Middlewares/Third_Party/Huawei/iot_link/network/dtls/mbedtls/mbedtls-2.16.2/library\asn1write.c **** 
 341:D:/fchai/work/i-cube/I-CUBE-HUAWEI/Middlewares/Third_Party/Huawei/iot_link/network/dtls/mbedtls/mbedtls-2.16.2/library\asn1write.c **** /* This is a copy of the ASN.1 parsing function mbedtls_asn1_find_named_data(),
 342:D:/fchai/work/i-cube/I-CUBE-HUAWEI/Middlewares/Third_Party/Huawei/iot_link/network/dtls/mbedtls/mbedtls-2.16.2/library\asn1write.c ****  * which is replicated to avoid a dependency ASN1_WRITE_C on ASN1_PARSE_C. */
 343:D:/fchai/work/i-cube/I-CUBE-HUAWEI/Middlewares/Third_Party/Huawei/iot_link/network/dtls/mbedtls/mbedtls-2.16.2/library\asn1write.c **** static mbedtls_asn1_named_data *asn1_find_named_data(
 344:D:/fchai/work/i-cube/I-CUBE-HUAWEI/Middlewares/Third_Party/Huawei/iot_link/network/dtls/mbedtls/mbedtls-2.16.2/library\asn1write.c ****                                                mbedtls_asn1_named_data *list,
 345:D:/fchai/work/i-cube/I-CUBE-HUAWEI/Middlewares/Third_Party/Huawei/iot_link/network/dtls/mbedtls/mbedtls-2.16.2/library\asn1write.c ****                                                const char *oid, size_t len )
 346:D:/fchai/work/i-cube/I-CUBE-HUAWEI/Middlewares/Third_Party/Huawei/iot_link/network/dtls/mbedtls/mbedtls-2.16.2/library\asn1write.c **** {
 347:D:/fchai/work/i-cube/I-CUBE-HUAWEI/Middlewares/Third_Party/Huawei/iot_link/network/dtls/mbedtls/mbedtls-2.16.2/library\asn1write.c ****     while( list != NULL )
 348:D:/fchai/work/i-cube/I-CUBE-HUAWEI/Middlewares/Third_Party/Huawei/iot_link/network/dtls/mbedtls/mbedtls-2.16.2/library\asn1write.c ****     {
 349:D:/fchai/work/i-cube/I-CUBE-HUAWEI/Middlewares/Third_Party/Huawei/iot_link/network/dtls/mbedtls/mbedtls-2.16.2/library\asn1write.c ****         if( list->oid.len == len &&
 350:D:/fchai/work/i-cube/I-CUBE-HUAWEI/Middlewares/Third_Party/Huawei/iot_link/network/dtls/mbedtls/mbedtls-2.16.2/library\asn1write.c ****             memcmp( list->oid.p, oid, len ) == 0 )
 351:D:/fchai/work/i-cube/I-CUBE-HUAWEI/Middlewares/Third_Party/Huawei/iot_link/network/dtls/mbedtls/mbedtls-2.16.2/library\asn1write.c ****         {
 352:D:/fchai/work/i-cube/I-CUBE-HUAWEI/Middlewares/Third_Party/Huawei/iot_link/network/dtls/mbedtls/mbedtls-2.16.2/library\asn1write.c ****             break;
 353:D:/fchai/work/i-cube/I-CUBE-HUAWEI/Middlewares/Third_Party/Huawei/iot_link/network/dtls/mbedtls/mbedtls-2.16.2/library\asn1write.c ****         }
 354:D:/fchai/work/i-cube/I-CUBE-HUAWEI/Middlewares/Third_Party/Huawei/iot_link/network/dtls/mbedtls/mbedtls-2.16.2/library\asn1write.c **** 
ARM GAS  T:\msys\tmp\ccoyqwkK.s 			page 49


 355:D:/fchai/work/i-cube/I-CUBE-HUAWEI/Middlewares/Third_Party/Huawei/iot_link/network/dtls/mbedtls/mbedtls-2.16.2/library\asn1write.c ****         list = list->next;
 356:D:/fchai/work/i-cube/I-CUBE-HUAWEI/Middlewares/Third_Party/Huawei/iot_link/network/dtls/mbedtls/mbedtls-2.16.2/library\asn1write.c ****     }
 357:D:/fchai/work/i-cube/I-CUBE-HUAWEI/Middlewares/Third_Party/Huawei/iot_link/network/dtls/mbedtls/mbedtls-2.16.2/library\asn1write.c **** 
 358:D:/fchai/work/i-cube/I-CUBE-HUAWEI/Middlewares/Third_Party/Huawei/iot_link/network/dtls/mbedtls/mbedtls-2.16.2/library\asn1write.c ****     return( list );
 359:D:/fchai/work/i-cube/I-CUBE-HUAWEI/Middlewares/Third_Party/Huawei/iot_link/network/dtls/mbedtls/mbedtls-2.16.2/library\asn1write.c **** }
 360:D:/fchai/work/i-cube/I-CUBE-HUAWEI/Middlewares/Third_Party/Huawei/iot_link/network/dtls/mbedtls/mbedtls-2.16.2/library\asn1write.c **** 
 361:D:/fchai/work/i-cube/I-CUBE-HUAWEI/Middlewares/Third_Party/Huawei/iot_link/network/dtls/mbedtls/mbedtls-2.16.2/library\asn1write.c **** mbedtls_asn1_named_data *mbedtls_asn1_store_named_data(
 362:D:/fchai/work/i-cube/I-CUBE-HUAWEI/Middlewares/Third_Party/Huawei/iot_link/network/dtls/mbedtls/mbedtls-2.16.2/library\asn1write.c ****                                         mbedtls_asn1_named_data **head,
 363:D:/fchai/work/i-cube/I-CUBE-HUAWEI/Middlewares/Third_Party/Huawei/iot_link/network/dtls/mbedtls/mbedtls-2.16.2/library\asn1write.c ****                                         const char *oid, size_t oid_len,
 364:D:/fchai/work/i-cube/I-CUBE-HUAWEI/Middlewares/Third_Party/Huawei/iot_link/network/dtls/mbedtls/mbedtls-2.16.2/library\asn1write.c ****                                         const unsigned char *val,
 365:D:/fchai/work/i-cube/I-CUBE-HUAWEI/Middlewares/Third_Party/Huawei/iot_link/network/dtls/mbedtls/mbedtls-2.16.2/library\asn1write.c ****                                         size_t val_len )
 366:D:/fchai/work/i-cube/I-CUBE-HUAWEI/Middlewares/Third_Party/Huawei/iot_link/network/dtls/mbedtls/mbedtls-2.16.2/library\asn1write.c **** {
 2060              		.loc 1 366 1 is_stmt 1 view -0
 2061              		.cfi_startproc
 2062              		@ args = 4, pretend = 0, frame = 8
 2063              		@ frame_needed = 0, uses_anonymous_args = 0
 367:D:/fchai/work/i-cube/I-CUBE-HUAWEI/Middlewares/Third_Party/Huawei/iot_link/network/dtls/mbedtls/mbedtls-2.16.2/library\asn1write.c ****     mbedtls_asn1_named_data *cur;
 2064              		.loc 1 367 5 view .LVU714
 368:D:/fchai/work/i-cube/I-CUBE-HUAWEI/Middlewares/Third_Party/Huawei/iot_link/network/dtls/mbedtls/mbedtls-2.16.2/library\asn1write.c **** 
 369:D:/fchai/work/i-cube/I-CUBE-HUAWEI/Middlewares/Third_Party/Huawei/iot_link/network/dtls/mbedtls/mbedtls-2.16.2/library\asn1write.c ****     if( ( cur = asn1_find_named_data( *head, oid, oid_len ) ) == NULL )
 2065              		.loc 1 369 5 view .LVU715
 366:D:/fchai/work/i-cube/I-CUBE-HUAWEI/Middlewares/Third_Party/Huawei/iot_link/network/dtls/mbedtls/mbedtls-2.16.2/library\asn1write.c ****     mbedtls_asn1_named_data *cur;
 2066              		.loc 1 366 1 is_stmt 0 view .LVU716
 2067 0000 2DE9F043 		push	{r4, r5, r6, r7, r8, r9, lr}
 2068              	.LCFI27:
 2069              		.cfi_def_cfa_offset 28
 2070              		.cfi_offset 4, -28
 2071              		.cfi_offset 5, -24
 2072              		.cfi_offset 6, -20
 2073              		.cfi_offset 7, -16
 2074              		.cfi_offset 8, -12
 2075              		.cfi_offset 9, -8
 2076              		.cfi_offset 14, -4
 2077              		.loc 1 369 17 view .LVU717
 2078 0004 0468     		ldr	r4, [r0]
 2079              	.LVL179:
 366:D:/fchai/work/i-cube/I-CUBE-HUAWEI/Middlewares/Third_Party/Huawei/iot_link/network/dtls/mbedtls/mbedtls-2.16.2/library\asn1write.c ****     mbedtls_asn1_named_data *cur;
 2080              		.loc 1 366 1 view .LVU718
 2081 0006 83B0     		sub	sp, sp, #12
 2082              	.LCFI28:
 2083              		.cfi_def_cfa_offset 40
 366:D:/fchai/work/i-cube/I-CUBE-HUAWEI/Middlewares/Third_Party/Huawei/iot_link/network/dtls/mbedtls/mbedtls-2.16.2/library\asn1write.c ****     mbedtls_asn1_named_data *cur;
 2084              		.loc 1 366 1 view .LVU719
 2085 0008 0746     		mov	r7, r0
 2086 000a DDF82890 		ldr	r9, [sp, #40]
 2087 000e 8846     		mov	r8, r1
 2088              	.LVL180:
 366:D:/fchai/work/i-cube/I-CUBE-HUAWEI/Middlewares/Third_Party/Huawei/iot_link/network/dtls/mbedtls/mbedtls-2.16.2/library\asn1write.c ****     mbedtls_asn1_named_data *cur;
 2089              		.loc 1 366 1 view .LVU720
 2090 0010 1546     		mov	r5, r2
 2091              	.LVL181:
 2092              	.LBB156:
 2093              	.LBI156:
 343:D:/fchai/work/i-cube/I-CUBE-HUAWEI/Middlewares/Third_Party/Huawei/iot_link/network/dtls/mbedtls/mbedtls-2.16.2/library\asn1write.c ****                                                mbedtls_asn1_named_data *list,
 2094              		.loc 1 343 33 is_stmt 1 view .LVU721
 2095              	.LBB157:
 347:D:/fchai/work/i-cube/I-CUBE-HUAWEI/Middlewares/Third_Party/Huawei/iot_link/network/dtls/mbedtls/mbedtls-2.16.2/library\asn1write.c ****     {
ARM GAS  T:\msys\tmp\ccoyqwkK.s 			page 50


 2096              		.loc 1 347 5 view .LVU722
 347:D:/fchai/work/i-cube/I-CUBE-HUAWEI/Middlewares/Third_Party/Huawei/iot_link/network/dtls/mbedtls/mbedtls-2.16.2/library\asn1write.c ****     {
 2097              		.loc 1 347 10 view .LVU723
 2098              	.LBE157:
 2099              	.LBE156:
 366:D:/fchai/work/i-cube/I-CUBE-HUAWEI/Middlewares/Third_Party/Huawei/iot_link/network/dtls/mbedtls/mbedtls-2.16.2/library\asn1write.c ****     mbedtls_asn1_named_data *cur;
 2100              		.loc 1 366 1 is_stmt 0 view .LVU724
 2101 0012 1E46     		mov	r6, r3
 2102              	.LBB160:
 2103              	.LBB158:
 347:D:/fchai/work/i-cube/I-CUBE-HUAWEI/Middlewares/Third_Party/Huawei/iot_link/network/dtls/mbedtls/mbedtls-2.16.2/library\asn1write.c ****     {
 2104              		.loc 1 347 10 view .LVU725
 2105 0014 14B9     		cbnz	r4, .L93
 2106 0016 26E0     		b	.L90
 2107              	.LVL182:
 2108              	.L91:
 355:D:/fchai/work/i-cube/I-CUBE-HUAWEI/Middlewares/Third_Party/Huawei/iot_link/network/dtls/mbedtls/mbedtls-2.16.2/library\asn1write.c ****     }
 2109              		.loc 1 355 9 is_stmt 1 view .LVU726
 355:D:/fchai/work/i-cube/I-CUBE-HUAWEI/Middlewares/Third_Party/Huawei/iot_link/network/dtls/mbedtls/mbedtls-2.16.2/library\asn1write.c ****     }
 2110              		.loc 1 355 14 is_stmt 0 view .LVU727
 2111 0018 A469     		ldr	r4, [r4, #24]
 2112              	.LVL183:
 347:D:/fchai/work/i-cube/I-CUBE-HUAWEI/Middlewares/Third_Party/Huawei/iot_link/network/dtls/mbedtls/mbedtls-2.16.2/library\asn1write.c ****     {
 2113              		.loc 1 347 10 is_stmt 1 view .LVU728
 2114 001a 24B3     		cbz	r4, .L90
 2115              	.L93:
 349:D:/fchai/work/i-cube/I-CUBE-HUAWEI/Middlewares/Third_Party/Huawei/iot_link/network/dtls/mbedtls/mbedtls-2.16.2/library\asn1write.c ****             memcmp( list->oid.p, oid, len ) == 0 )
 2116              		.loc 1 349 9 view .LVU729
 349:D:/fchai/work/i-cube/I-CUBE-HUAWEI/Middlewares/Third_Party/Huawei/iot_link/network/dtls/mbedtls/mbedtls-2.16.2/library\asn1write.c ****             memcmp( list->oid.p, oid, len ) == 0 )
 2117              		.loc 1 349 11 is_stmt 0 view .LVU730
 2118 001c 6368     		ldr	r3, [r4, #4]
 2119 001e 9D42     		cmp	r5, r3
 2120 0020 FAD1     		bne	.L91
 350:D:/fchai/work/i-cube/I-CUBE-HUAWEI/Middlewares/Third_Party/Huawei/iot_link/network/dtls/mbedtls/mbedtls-2.16.2/library\asn1write.c ****         {
 2121              		.loc 1 350 13 view .LVU731
 2122 0022 A068     		ldr	r0, [r4, #8]
 2123 0024 2A46     		mov	r2, r5
 2124 0026 4146     		mov	r1, r8
 2125 0028 FFF7FEFF 		bl	memcmp
 2126              	.LVL184:
 349:D:/fchai/work/i-cube/I-CUBE-HUAWEI/Middlewares/Third_Party/Huawei/iot_link/network/dtls/mbedtls/mbedtls-2.16.2/library\asn1write.c ****             memcmp( list->oid.p, oid, len ) == 0 )
 2127              		.loc 1 349 34 view .LVU732
 2128 002c 0028     		cmp	r0, #0
 2129 002e F3D1     		bne	.L91
 358:D:/fchai/work/i-cube/I-CUBE-HUAWEI/Middlewares/Third_Party/Huawei/iot_link/network/dtls/mbedtls/mbedtls-2.16.2/library\asn1write.c **** }
 2130              		.loc 1 358 5 is_stmt 1 view .LVU733
 2131              	.LVL185:
 358:D:/fchai/work/i-cube/I-CUBE-HUAWEI/Middlewares/Third_Party/Huawei/iot_link/network/dtls/mbedtls/mbedtls-2.16.2/library\asn1write.c **** }
 2132              		.loc 1 358 5 is_stmt 0 view .LVU734
 2133              	.LBE158:
 2134              	.LBE160:
 370:D:/fchai/work/i-cube/I-CUBE-HUAWEI/Middlewares/Third_Party/Huawei/iot_link/network/dtls/mbedtls/mbedtls-2.16.2/library\asn1write.c ****     {
 371:D:/fchai/work/i-cube/I-CUBE-HUAWEI/Middlewares/Third_Party/Huawei/iot_link/network/dtls/mbedtls/mbedtls-2.16.2/library\asn1write.c ****         // Add new entry if not present yet based on OID
 372:D:/fchai/work/i-cube/I-CUBE-HUAWEI/Middlewares/Third_Party/Huawei/iot_link/network/dtls/mbedtls/mbedtls-2.16.2/library\asn1write.c ****         //
 373:D:/fchai/work/i-cube/I-CUBE-HUAWEI/Middlewares/Third_Party/Huawei/iot_link/network/dtls/mbedtls/mbedtls-2.16.2/library\asn1write.c ****         cur = (mbedtls_asn1_named_data*)mbedtls_calloc( 1,
 374:D:/fchai/work/i-cube/I-CUBE-HUAWEI/Middlewares/Third_Party/Huawei/iot_link/network/dtls/mbedtls/mbedtls-2.16.2/library\asn1write.c ****                                             sizeof(mbedtls_asn1_named_data) );
 375:D:/fchai/work/i-cube/I-CUBE-HUAWEI/Middlewares/Third_Party/Huawei/iot_link/network/dtls/mbedtls/mbedtls-2.16.2/library\asn1write.c ****         if( cur == NULL )
ARM GAS  T:\msys\tmp\ccoyqwkK.s 			page 51


 376:D:/fchai/work/i-cube/I-CUBE-HUAWEI/Middlewares/Third_Party/Huawei/iot_link/network/dtls/mbedtls/mbedtls-2.16.2/library\asn1write.c ****             return( NULL );
 377:D:/fchai/work/i-cube/I-CUBE-HUAWEI/Middlewares/Third_Party/Huawei/iot_link/network/dtls/mbedtls/mbedtls-2.16.2/library\asn1write.c **** 
 378:D:/fchai/work/i-cube/I-CUBE-HUAWEI/Middlewares/Third_Party/Huawei/iot_link/network/dtls/mbedtls/mbedtls-2.16.2/library\asn1write.c ****         cur->oid.len = oid_len;
 379:D:/fchai/work/i-cube/I-CUBE-HUAWEI/Middlewares/Third_Party/Huawei/iot_link/network/dtls/mbedtls/mbedtls-2.16.2/library\asn1write.c ****         cur->oid.p = mbedtls_calloc( 1, oid_len );
 380:D:/fchai/work/i-cube/I-CUBE-HUAWEI/Middlewares/Third_Party/Huawei/iot_link/network/dtls/mbedtls/mbedtls-2.16.2/library\asn1write.c ****         if( cur->oid.p == NULL )
 381:D:/fchai/work/i-cube/I-CUBE-HUAWEI/Middlewares/Third_Party/Huawei/iot_link/network/dtls/mbedtls/mbedtls-2.16.2/library\asn1write.c ****         {
 382:D:/fchai/work/i-cube/I-CUBE-HUAWEI/Middlewares/Third_Party/Huawei/iot_link/network/dtls/mbedtls/mbedtls-2.16.2/library\asn1write.c ****             mbedtls_free( cur );
 383:D:/fchai/work/i-cube/I-CUBE-HUAWEI/Middlewares/Third_Party/Huawei/iot_link/network/dtls/mbedtls/mbedtls-2.16.2/library\asn1write.c ****             return( NULL );
 384:D:/fchai/work/i-cube/I-CUBE-HUAWEI/Middlewares/Third_Party/Huawei/iot_link/network/dtls/mbedtls/mbedtls-2.16.2/library\asn1write.c ****         }
 385:D:/fchai/work/i-cube/I-CUBE-HUAWEI/Middlewares/Third_Party/Huawei/iot_link/network/dtls/mbedtls/mbedtls-2.16.2/library\asn1write.c **** 
 386:D:/fchai/work/i-cube/I-CUBE-HUAWEI/Middlewares/Third_Party/Huawei/iot_link/network/dtls/mbedtls/mbedtls-2.16.2/library\asn1write.c ****         memcpy( cur->oid.p, oid, oid_len );
 387:D:/fchai/work/i-cube/I-CUBE-HUAWEI/Middlewares/Third_Party/Huawei/iot_link/network/dtls/mbedtls/mbedtls-2.16.2/library\asn1write.c **** 
 388:D:/fchai/work/i-cube/I-CUBE-HUAWEI/Middlewares/Third_Party/Huawei/iot_link/network/dtls/mbedtls/mbedtls-2.16.2/library\asn1write.c ****         cur->val.len = val_len;
 389:D:/fchai/work/i-cube/I-CUBE-HUAWEI/Middlewares/Third_Party/Huawei/iot_link/network/dtls/mbedtls/mbedtls-2.16.2/library\asn1write.c ****         cur->val.p = mbedtls_calloc( 1, val_len );
 390:D:/fchai/work/i-cube/I-CUBE-HUAWEI/Middlewares/Third_Party/Huawei/iot_link/network/dtls/mbedtls/mbedtls-2.16.2/library\asn1write.c ****         if( cur->val.p == NULL )
 391:D:/fchai/work/i-cube/I-CUBE-HUAWEI/Middlewares/Third_Party/Huawei/iot_link/network/dtls/mbedtls/mbedtls-2.16.2/library\asn1write.c ****         {
 392:D:/fchai/work/i-cube/I-CUBE-HUAWEI/Middlewares/Third_Party/Huawei/iot_link/network/dtls/mbedtls/mbedtls-2.16.2/library\asn1write.c ****             mbedtls_free( cur->oid.p );
 393:D:/fchai/work/i-cube/I-CUBE-HUAWEI/Middlewares/Third_Party/Huawei/iot_link/network/dtls/mbedtls/mbedtls-2.16.2/library\asn1write.c ****             mbedtls_free( cur );
 394:D:/fchai/work/i-cube/I-CUBE-HUAWEI/Middlewares/Third_Party/Huawei/iot_link/network/dtls/mbedtls/mbedtls-2.16.2/library\asn1write.c ****             return( NULL );
 395:D:/fchai/work/i-cube/I-CUBE-HUAWEI/Middlewares/Third_Party/Huawei/iot_link/network/dtls/mbedtls/mbedtls-2.16.2/library\asn1write.c ****         }
 396:D:/fchai/work/i-cube/I-CUBE-HUAWEI/Middlewares/Third_Party/Huawei/iot_link/network/dtls/mbedtls/mbedtls-2.16.2/library\asn1write.c **** 
 397:D:/fchai/work/i-cube/I-CUBE-HUAWEI/Middlewares/Third_Party/Huawei/iot_link/network/dtls/mbedtls/mbedtls-2.16.2/library\asn1write.c ****         cur->next = *head;
 398:D:/fchai/work/i-cube/I-CUBE-HUAWEI/Middlewares/Third_Party/Huawei/iot_link/network/dtls/mbedtls/mbedtls-2.16.2/library\asn1write.c ****         *head = cur;
 399:D:/fchai/work/i-cube/I-CUBE-HUAWEI/Middlewares/Third_Party/Huawei/iot_link/network/dtls/mbedtls/mbedtls-2.16.2/library\asn1write.c ****     }
 400:D:/fchai/work/i-cube/I-CUBE-HUAWEI/Middlewares/Third_Party/Huawei/iot_link/network/dtls/mbedtls/mbedtls-2.16.2/library\asn1write.c ****     else if( cur->val.len < val_len )
 2135              		.loc 1 400 10 is_stmt 1 view .LVU735
 2136              		.loc 1 400 12 is_stmt 0 view .LVU736
 2137 0030 2369     		ldr	r3, [r4, #16]
 2138 0032 4B45     		cmp	r3, r9
 2139 0034 09D3     		bcc	.L114
 401:D:/fchai/work/i-cube/I-CUBE-HUAWEI/Middlewares/Third_Party/Huawei/iot_link/network/dtls/mbedtls/mbedtls-2.16.2/library\asn1write.c ****     {
 402:D:/fchai/work/i-cube/I-CUBE-HUAWEI/Middlewares/Third_Party/Huawei/iot_link/network/dtls/mbedtls/mbedtls-2.16.2/library\asn1write.c ****         /*
 403:D:/fchai/work/i-cube/I-CUBE-HUAWEI/Middlewares/Third_Party/Huawei/iot_link/network/dtls/mbedtls/mbedtls-2.16.2/library\asn1write.c ****          * Enlarge existing value buffer if needed
 404:D:/fchai/work/i-cube/I-CUBE-HUAWEI/Middlewares/Third_Party/Huawei/iot_link/network/dtls/mbedtls/mbedtls-2.16.2/library\asn1write.c ****          * Preserve old data until the allocation succeeded, to leave list in
 405:D:/fchai/work/i-cube/I-CUBE-HUAWEI/Middlewares/Third_Party/Huawei/iot_link/network/dtls/mbedtls/mbedtls-2.16.2/library\asn1write.c ****          * a consistent state in case allocation fails.
 406:D:/fchai/work/i-cube/I-CUBE-HUAWEI/Middlewares/Third_Party/Huawei/iot_link/network/dtls/mbedtls/mbedtls-2.16.2/library\asn1write.c ****          */
 407:D:/fchai/work/i-cube/I-CUBE-HUAWEI/Middlewares/Third_Party/Huawei/iot_link/network/dtls/mbedtls/mbedtls-2.16.2/library\asn1write.c ****         void *p = mbedtls_calloc( 1, val_len );
 408:D:/fchai/work/i-cube/I-CUBE-HUAWEI/Middlewares/Third_Party/Huawei/iot_link/network/dtls/mbedtls/mbedtls-2.16.2/library\asn1write.c ****         if( p == NULL )
 409:D:/fchai/work/i-cube/I-CUBE-HUAWEI/Middlewares/Third_Party/Huawei/iot_link/network/dtls/mbedtls/mbedtls-2.16.2/library\asn1write.c ****             return( NULL );
 410:D:/fchai/work/i-cube/I-CUBE-HUAWEI/Middlewares/Third_Party/Huawei/iot_link/network/dtls/mbedtls/mbedtls-2.16.2/library\asn1write.c **** 
 411:D:/fchai/work/i-cube/I-CUBE-HUAWEI/Middlewares/Third_Party/Huawei/iot_link/network/dtls/mbedtls/mbedtls-2.16.2/library\asn1write.c ****         mbedtls_free( cur->val.p );
 412:D:/fchai/work/i-cube/I-CUBE-HUAWEI/Middlewares/Third_Party/Huawei/iot_link/network/dtls/mbedtls/mbedtls-2.16.2/library\asn1write.c ****         cur->val.p = p;
 413:D:/fchai/work/i-cube/I-CUBE-HUAWEI/Middlewares/Third_Party/Huawei/iot_link/network/dtls/mbedtls/mbedtls-2.16.2/library\asn1write.c ****         cur->val.len = val_len;
 414:D:/fchai/work/i-cube/I-CUBE-HUAWEI/Middlewares/Third_Party/Huawei/iot_link/network/dtls/mbedtls/mbedtls-2.16.2/library\asn1write.c ****     }
 415:D:/fchai/work/i-cube/I-CUBE-HUAWEI/Middlewares/Third_Party/Huawei/iot_link/network/dtls/mbedtls/mbedtls-2.16.2/library\asn1write.c **** 
 416:D:/fchai/work/i-cube/I-CUBE-HUAWEI/Middlewares/Third_Party/Huawei/iot_link/network/dtls/mbedtls/mbedtls-2.16.2/library\asn1write.c ****     if( val != NULL )
 2140              		.loc 1 416 5 is_stmt 1 view .LVU737
 2141              		.loc 1 416 7 is_stmt 0 view .LVU738
 2142 0036 26B1     		cbz	r6, .L89
 2143              	.LVL186:
 2144              	.L115:
 417:D:/fchai/work/i-cube/I-CUBE-HUAWEI/Middlewares/Third_Party/Huawei/iot_link/network/dtls/mbedtls/mbedtls-2.16.2/library\asn1write.c ****         memcpy( cur->val.p, val, val_len );
 2145              		.loc 1 417 9 is_stmt 1 view .LVU739
 2146 0038 6069     		ldr	r0, [r4, #20]
 2147 003a 4A46     		mov	r2, r9
 2148 003c 3146     		mov	r1, r6
 2149 003e FFF7FEFF 		bl	memcpy
ARM GAS  T:\msys\tmp\ccoyqwkK.s 			page 52


 2150              	.LVL187:
 2151              	.L89:
 418:D:/fchai/work/i-cube/I-CUBE-HUAWEI/Middlewares/Third_Party/Huawei/iot_link/network/dtls/mbedtls/mbedtls-2.16.2/library\asn1write.c **** 
 419:D:/fchai/work/i-cube/I-CUBE-HUAWEI/Middlewares/Third_Party/Huawei/iot_link/network/dtls/mbedtls/mbedtls-2.16.2/library\asn1write.c ****     return( cur );
 420:D:/fchai/work/i-cube/I-CUBE-HUAWEI/Middlewares/Third_Party/Huawei/iot_link/network/dtls/mbedtls/mbedtls-2.16.2/library\asn1write.c **** }
 2152              		.loc 1 420 1 is_stmt 0 view .LVU740
 2153 0042 2046     		mov	r0, r4
 2154 0044 03B0     		add	sp, sp, #12
 2155              	.LCFI29:
 2156              		.cfi_remember_state
 2157              		.cfi_def_cfa_offset 28
 2158              		@ sp needed
 2159 0046 BDE8F083 		pop	{r4, r5, r6, r7, r8, r9, pc}
 2160              	.LVL188:
 2161              	.L114:
 2162              	.LCFI30:
 2163              		.cfi_restore_state
 2164              	.LBB161:
 407:D:/fchai/work/i-cube/I-CUBE-HUAWEI/Middlewares/Third_Party/Huawei/iot_link/network/dtls/mbedtls/mbedtls-2.16.2/library\asn1write.c ****         if( p == NULL )
 2165              		.loc 1 407 9 is_stmt 1 view .LVU741
 407:D:/fchai/work/i-cube/I-CUBE-HUAWEI/Middlewares/Third_Party/Huawei/iot_link/network/dtls/mbedtls/mbedtls-2.16.2/library\asn1write.c ****         if( p == NULL )
 2166              		.loc 1 407 19 is_stmt 0 view .LVU742
 2167 004a 4946     		mov	r1, r9
 2168 004c 0120     		movs	r0, #1
 2169 004e FFF7FEFF 		bl	mbedtls_calloc
 2170              	.LVL189:
 408:D:/fchai/work/i-cube/I-CUBE-HUAWEI/Middlewares/Third_Party/Huawei/iot_link/network/dtls/mbedtls/mbedtls-2.16.2/library\asn1write.c ****             return( NULL );
 2171              		.loc 1 408 9 is_stmt 1 view .LVU743
 408:D:/fchai/work/i-cube/I-CUBE-HUAWEI/Middlewares/Third_Party/Huawei/iot_link/network/dtls/mbedtls/mbedtls-2.16.2/library\asn1write.c ****             return( NULL );
 2172              		.loc 1 408 11 is_stmt 0 view .LVU744
 2173 0052 0546     		mov	r5, r0
 2174              	.LVL190:
 408:D:/fchai/work/i-cube/I-CUBE-HUAWEI/Middlewares/Third_Party/Huawei/iot_link/network/dtls/mbedtls/mbedtls-2.16.2/library\asn1write.c ****             return( NULL );
 2175              		.loc 1 408 11 view .LVU745
 2176 0054 38B3     		cbz	r0, .L100
 411:D:/fchai/work/i-cube/I-CUBE-HUAWEI/Middlewares/Third_Party/Huawei/iot_link/network/dtls/mbedtls/mbedtls-2.16.2/library\asn1write.c ****         cur->val.p = p;
 2177              		.loc 1 411 9 is_stmt 1 view .LVU746
 2178 0056 6069     		ldr	r0, [r4, #20]
 2179              	.LVL191:
 411:D:/fchai/work/i-cube/I-CUBE-HUAWEI/Middlewares/Third_Party/Huawei/iot_link/network/dtls/mbedtls/mbedtls-2.16.2/library\asn1write.c ****         cur->val.p = p;
 2180              		.loc 1 411 9 is_stmt 0 view .LVU747
 2181 0058 FFF7FEFF 		bl	mbedtls_free
 2182              	.LVL192:
 412:D:/fchai/work/i-cube/I-CUBE-HUAWEI/Middlewares/Third_Party/Huawei/iot_link/network/dtls/mbedtls/mbedtls-2.16.2/library\asn1write.c ****         cur->val.len = val_len;
 2183              		.loc 1 412 9 is_stmt 1 view .LVU748
 413:D:/fchai/work/i-cube/I-CUBE-HUAWEI/Middlewares/Third_Party/Huawei/iot_link/network/dtls/mbedtls/mbedtls-2.16.2/library\asn1write.c ****     }
 2184              		.loc 1 413 22 is_stmt 0 view .LVU749
 2185 005c C4E90495 		strd	r9, r5, [r4, #16]
 413:D:/fchai/work/i-cube/I-CUBE-HUAWEI/Middlewares/Third_Party/Huawei/iot_link/network/dtls/mbedtls/mbedtls-2.16.2/library\asn1write.c ****     }
 2186              		.loc 1 413 22 view .LVU750
 2187              	.LBE161:
 416:D:/fchai/work/i-cube/I-CUBE-HUAWEI/Middlewares/Third_Party/Huawei/iot_link/network/dtls/mbedtls/mbedtls-2.16.2/library\asn1write.c ****         memcpy( cur->val.p, val, val_len );
 2188              		.loc 1 416 5 is_stmt 1 view .LVU751
 416:D:/fchai/work/i-cube/I-CUBE-HUAWEI/Middlewares/Third_Party/Huawei/iot_link/network/dtls/mbedtls/mbedtls-2.16.2/library\asn1write.c ****         memcpy( cur->val.p, val, val_len );
 2189              		.loc 1 416 7 is_stmt 0 view .LVU752
 2190 0060 002E     		cmp	r6, #0
 2191 0062 E9D1     		bne	.L115
ARM GAS  T:\msys\tmp\ccoyqwkK.s 			page 53


 2192 0064 EDE7     		b	.L89
 2193              	.LVL193:
 2194              	.L90:
 2195              	.LBB162:
 2196              	.LBB159:
 358:D:/fchai/work/i-cube/I-CUBE-HUAWEI/Middlewares/Third_Party/Huawei/iot_link/network/dtls/mbedtls/mbedtls-2.16.2/library\asn1write.c **** }
 2197              		.loc 1 358 5 is_stmt 1 view .LVU753
 358:D:/fchai/work/i-cube/I-CUBE-HUAWEI/Middlewares/Third_Party/Huawei/iot_link/network/dtls/mbedtls/mbedtls-2.16.2/library\asn1write.c **** }
 2198              		.loc 1 358 5 is_stmt 0 view .LVU754
 2199              	.LBE159:
 2200              	.LBE162:
 373:D:/fchai/work/i-cube/I-CUBE-HUAWEI/Middlewares/Third_Party/Huawei/iot_link/network/dtls/mbedtls/mbedtls-2.16.2/library\asn1write.c ****                                             sizeof(mbedtls_asn1_named_data) );
 2201              		.loc 1 373 9 is_stmt 1 view .LVU755
 373:D:/fchai/work/i-cube/I-CUBE-HUAWEI/Middlewares/Third_Party/Huawei/iot_link/network/dtls/mbedtls/mbedtls-2.16.2/library\asn1write.c ****                                             sizeof(mbedtls_asn1_named_data) );
 2202              		.loc 1 373 41 is_stmt 0 view .LVU756
 2203 0066 2021     		movs	r1, #32
 2204 0068 0120     		movs	r0, #1
 2205 006a FFF7FEFF 		bl	mbedtls_calloc
 2206              	.LVL194:
 375:D:/fchai/work/i-cube/I-CUBE-HUAWEI/Middlewares/Third_Party/Huawei/iot_link/network/dtls/mbedtls/mbedtls-2.16.2/library\asn1write.c ****             return( NULL );
 2207              		.loc 1 375 9 is_stmt 1 view .LVU757
 375:D:/fchai/work/i-cube/I-CUBE-HUAWEI/Middlewares/Third_Party/Huawei/iot_link/network/dtls/mbedtls/mbedtls-2.16.2/library\asn1write.c ****             return( NULL );
 2208              		.loc 1 375 11 is_stmt 0 view .LVU758
 2209 006e 0446     		mov	r4, r0
 2210 0070 C8B1     		cbz	r0, .L100
 378:D:/fchai/work/i-cube/I-CUBE-HUAWEI/Middlewares/Third_Party/Huawei/iot_link/network/dtls/mbedtls/mbedtls-2.16.2/library\asn1write.c ****         cur->oid.p = mbedtls_calloc( 1, oid_len );
 2211              		.loc 1 378 9 is_stmt 1 view .LVU759
 378:D:/fchai/work/i-cube/I-CUBE-HUAWEI/Middlewares/Third_Party/Huawei/iot_link/network/dtls/mbedtls/mbedtls-2.16.2/library\asn1write.c ****         cur->oid.p = mbedtls_calloc( 1, oid_len );
 2212              		.loc 1 378 22 is_stmt 0 view .LVU760
 2213 0072 6560     		str	r5, [r4, #4]
 379:D:/fchai/work/i-cube/I-CUBE-HUAWEI/Middlewares/Third_Party/Huawei/iot_link/network/dtls/mbedtls/mbedtls-2.16.2/library\asn1write.c ****         if( cur->oid.p == NULL )
 2214              		.loc 1 379 9 is_stmt 1 view .LVU761
 379:D:/fchai/work/i-cube/I-CUBE-HUAWEI/Middlewares/Third_Party/Huawei/iot_link/network/dtls/mbedtls/mbedtls-2.16.2/library\asn1write.c ****         if( cur->oid.p == NULL )
 2215              		.loc 1 379 22 is_stmt 0 view .LVU762
 2216 0074 2946     		mov	r1, r5
 2217 0076 0120     		movs	r0, #1
 2218              	.LVL195:
 379:D:/fchai/work/i-cube/I-CUBE-HUAWEI/Middlewares/Third_Party/Huawei/iot_link/network/dtls/mbedtls/mbedtls-2.16.2/library\asn1write.c ****         if( cur->oid.p == NULL )
 2219              		.loc 1 379 22 view .LVU763
 2220 0078 FFF7FEFF 		bl	mbedtls_calloc
 2221              	.LVL196:
 379:D:/fchai/work/i-cube/I-CUBE-HUAWEI/Middlewares/Third_Party/Huawei/iot_link/network/dtls/mbedtls/mbedtls-2.16.2/library\asn1write.c ****         if( cur->oid.p == NULL )
 2222              		.loc 1 379 20 view .LVU764
 2223 007c A060     		str	r0, [r4, #8]
 380:D:/fchai/work/i-cube/I-CUBE-HUAWEI/Middlewares/Third_Party/Huawei/iot_link/network/dtls/mbedtls/mbedtls-2.16.2/library\asn1write.c ****         {
 2224              		.loc 1 380 9 is_stmt 1 view .LVU765
 380:D:/fchai/work/i-cube/I-CUBE-HUAWEI/Middlewares/Third_Party/Huawei/iot_link/network/dtls/mbedtls/mbedtls-2.16.2/library\asn1write.c ****         {
 2225              		.loc 1 380 11 is_stmt 0 view .LVU766
 2226 007e A0B1     		cbz	r0, .L116
 386:D:/fchai/work/i-cube/I-CUBE-HUAWEI/Middlewares/Third_Party/Huawei/iot_link/network/dtls/mbedtls/mbedtls-2.16.2/library\asn1write.c **** 
 2227              		.loc 1 386 9 is_stmt 1 view .LVU767
 2228 0080 2A46     		mov	r2, r5
 2229 0082 4146     		mov	r1, r8
 2230 0084 FFF7FEFF 		bl	memcpy
 2231              	.LVL197:
 388:D:/fchai/work/i-cube/I-CUBE-HUAWEI/Middlewares/Third_Party/Huawei/iot_link/network/dtls/mbedtls/mbedtls-2.16.2/library\asn1write.c ****         cur->val.p = mbedtls_calloc( 1, val_len );
 2232              		.loc 1 388 9 view .LVU768
ARM GAS  T:\msys\tmp\ccoyqwkK.s 			page 54


 388:D:/fchai/work/i-cube/I-CUBE-HUAWEI/Middlewares/Third_Party/Huawei/iot_link/network/dtls/mbedtls/mbedtls-2.16.2/library\asn1write.c ****         cur->val.p = mbedtls_calloc( 1, val_len );
 2233              		.loc 1 388 22 is_stmt 0 view .LVU769
 2234 0088 C4F81090 		str	r9, [r4, #16]
 389:D:/fchai/work/i-cube/I-CUBE-HUAWEI/Middlewares/Third_Party/Huawei/iot_link/network/dtls/mbedtls/mbedtls-2.16.2/library\asn1write.c ****         if( cur->val.p == NULL )
 2235              		.loc 1 389 9 is_stmt 1 view .LVU770
 389:D:/fchai/work/i-cube/I-CUBE-HUAWEI/Middlewares/Third_Party/Huawei/iot_link/network/dtls/mbedtls/mbedtls-2.16.2/library\asn1write.c ****         if( cur->val.p == NULL )
 2236              		.loc 1 389 22 is_stmt 0 view .LVU771
 2237 008c 4946     		mov	r1, r9
 2238 008e 0120     		movs	r0, #1
 2239 0090 FFF7FEFF 		bl	mbedtls_calloc
 2240              	.LVL198:
 2241 0094 0546     		mov	r5, r0
 2242              	.LVL199:
 389:D:/fchai/work/i-cube/I-CUBE-HUAWEI/Middlewares/Third_Party/Huawei/iot_link/network/dtls/mbedtls/mbedtls-2.16.2/library\asn1write.c ****         if( cur->val.p == NULL )
 2243              		.loc 1 389 20 view .LVU772
 2244 0096 6061     		str	r0, [r4, #20]
 390:D:/fchai/work/i-cube/I-CUBE-HUAWEI/Middlewares/Third_Party/Huawei/iot_link/network/dtls/mbedtls/mbedtls-2.16.2/library\asn1write.c ****         {
 2245              		.loc 1 390 9 is_stmt 1 view .LVU773
 390:D:/fchai/work/i-cube/I-CUBE-HUAWEI/Middlewares/Third_Party/Huawei/iot_link/network/dtls/mbedtls/mbedtls-2.16.2/library\asn1write.c ****         {
 2246              		.loc 1 390 11 is_stmt 0 view .LVU774
 2247 0098 70B1     		cbz	r0, .L117
 397:D:/fchai/work/i-cube/I-CUBE-HUAWEI/Middlewares/Third_Party/Huawei/iot_link/network/dtls/mbedtls/mbedtls-2.16.2/library\asn1write.c ****         *head = cur;
 2248              		.loc 1 397 9 is_stmt 1 view .LVU775
 397:D:/fchai/work/i-cube/I-CUBE-HUAWEI/Middlewares/Third_Party/Huawei/iot_link/network/dtls/mbedtls/mbedtls-2.16.2/library\asn1write.c ****         *head = cur;
 2249              		.loc 1 397 21 is_stmt 0 view .LVU776
 2250 009a 3B68     		ldr	r3, [r7]
 397:D:/fchai/work/i-cube/I-CUBE-HUAWEI/Middlewares/Third_Party/Huawei/iot_link/network/dtls/mbedtls/mbedtls-2.16.2/library\asn1write.c ****         *head = cur;
 2251              		.loc 1 397 19 view .LVU777
 2252 009c A361     		str	r3, [r4, #24]
 398:D:/fchai/work/i-cube/I-CUBE-HUAWEI/Middlewares/Third_Party/Huawei/iot_link/network/dtls/mbedtls/mbedtls-2.16.2/library\asn1write.c ****     }
 2253              		.loc 1 398 9 is_stmt 1 view .LVU778
 398:D:/fchai/work/i-cube/I-CUBE-HUAWEI/Middlewares/Third_Party/Huawei/iot_link/network/dtls/mbedtls/mbedtls-2.16.2/library\asn1write.c ****     }
 2254              		.loc 1 398 15 is_stmt 0 view .LVU779
 2255 009e 3C60     		str	r4, [r7]
 416:D:/fchai/work/i-cube/I-CUBE-HUAWEI/Middlewares/Third_Party/Huawei/iot_link/network/dtls/mbedtls/mbedtls-2.16.2/library\asn1write.c ****         memcpy( cur->val.p, val, val_len );
 2256              		.loc 1 416 5 is_stmt 1 view .LVU780
 416:D:/fchai/work/i-cube/I-CUBE-HUAWEI/Middlewares/Third_Party/Huawei/iot_link/network/dtls/mbedtls/mbedtls-2.16.2/library\asn1write.c ****         memcpy( cur->val.p, val, val_len );
 2257              		.loc 1 416 7 is_stmt 0 view .LVU781
 2258 00a0 002E     		cmp	r6, #0
 2259 00a2 C9D1     		bne	.L115
 2260 00a4 CDE7     		b	.L89
 2261              	.L100:
 2262              	.LBB163:
 409:D:/fchai/work/i-cube/I-CUBE-HUAWEI/Middlewares/Third_Party/Huawei/iot_link/network/dtls/mbedtls/mbedtls-2.16.2/library\asn1write.c **** 
 2263              		.loc 1 409 19 view .LVU782
 2264 00a6 0024     		movs	r4, #0
 2265              	.LVL200:
 409:D:/fchai/work/i-cube/I-CUBE-HUAWEI/Middlewares/Third_Party/Huawei/iot_link/network/dtls/mbedtls/mbedtls-2.16.2/library\asn1write.c **** 
 2266              		.loc 1 409 19 view .LVU783
 2267 00a8 CBE7     		b	.L89
 2268              	.LVL201:
 2269              	.L116:
 409:D:/fchai/work/i-cube/I-CUBE-HUAWEI/Middlewares/Third_Party/Huawei/iot_link/network/dtls/mbedtls/mbedtls-2.16.2/library\asn1write.c **** 
 2270              		.loc 1 409 19 view .LVU784
 2271 00aa 0190     		str	r0, [sp, #4]
 2272              	.LBE163:
 382:D:/fchai/work/i-cube/I-CUBE-HUAWEI/Middlewares/Third_Party/Huawei/iot_link/network/dtls/mbedtls/mbedtls-2.16.2/library\asn1write.c ****             return( NULL );
ARM GAS  T:\msys\tmp\ccoyqwkK.s 			page 55


 2273              		.loc 1 382 13 is_stmt 1 view .LVU785
 2274 00ac 2046     		mov	r0, r4
 2275 00ae FFF7FEFF 		bl	mbedtls_free
 2276              	.LVL202:
 383:D:/fchai/work/i-cube/I-CUBE-HUAWEI/Middlewares/Third_Party/Huawei/iot_link/network/dtls/mbedtls/mbedtls-2.16.2/library\asn1write.c ****         }
 2277              		.loc 1 383 13 view .LVU786
 383:D:/fchai/work/i-cube/I-CUBE-HUAWEI/Middlewares/Third_Party/Huawei/iot_link/network/dtls/mbedtls/mbedtls-2.16.2/library\asn1write.c ****         }
 2278              		.loc 1 383 19 is_stmt 0 view .LVU787
 2279 00b2 019B     		ldr	r3, [sp, #4]
 2280 00b4 1C46     		mov	r4, r3
 2281              	.LVL203:
 383:D:/fchai/work/i-cube/I-CUBE-HUAWEI/Middlewares/Third_Party/Huawei/iot_link/network/dtls/mbedtls/mbedtls-2.16.2/library\asn1write.c ****         }
 2282              		.loc 1 383 19 view .LVU788
 2283 00b6 C4E7     		b	.L89
 2284              	.LVL204:
 2285              	.L117:
 392:D:/fchai/work/i-cube/I-CUBE-HUAWEI/Middlewares/Third_Party/Huawei/iot_link/network/dtls/mbedtls/mbedtls-2.16.2/library\asn1write.c ****             mbedtls_free( cur );
 2286              		.loc 1 392 13 is_stmt 1 view .LVU789
 2287 00b8 A068     		ldr	r0, [r4, #8]
 2288 00ba FFF7FEFF 		bl	mbedtls_free
 2289              	.LVL205:
 393:D:/fchai/work/i-cube/I-CUBE-HUAWEI/Middlewares/Third_Party/Huawei/iot_link/network/dtls/mbedtls/mbedtls-2.16.2/library\asn1write.c ****             return( NULL );
 2290              		.loc 1 393 13 view .LVU790
 2291 00be 2046     		mov	r0, r4
 2292 00c0 FFF7FEFF 		bl	mbedtls_free
 2293              	.LVL206:
 394:D:/fchai/work/i-cube/I-CUBE-HUAWEI/Middlewares/Third_Party/Huawei/iot_link/network/dtls/mbedtls/mbedtls-2.16.2/library\asn1write.c ****         }
 2294              		.loc 1 394 13 view .LVU791
 394:D:/fchai/work/i-cube/I-CUBE-HUAWEI/Middlewares/Third_Party/Huawei/iot_link/network/dtls/mbedtls/mbedtls-2.16.2/library\asn1write.c ****         }
 2295              		.loc 1 394 19 is_stmt 0 view .LVU792
 2296 00c4 2C46     		mov	r4, r5
 2297              	.LVL207:
 394:D:/fchai/work/i-cube/I-CUBE-HUAWEI/Middlewares/Third_Party/Huawei/iot_link/network/dtls/mbedtls/mbedtls-2.16.2/library\asn1write.c ****         }
 2298              		.loc 1 394 19 view .LVU793
 2299 00c6 BCE7     		b	.L89
 2300              		.cfi_endproc
 2301              	.LFE19:
 2303              		.text
 2304              	.Letext0:
 2305              		.file 2 "t:\\msys\\3rd\\gcc-arm-none-eabi-9-2020-q2-update-win32\\arm-none-eabi\\include\\machine\
 2306              		.file 3 "t:\\msys\\3rd\\gcc-arm-none-eabi-9-2020-q2-update-win32\\lib\\gcc\\arm-none-eabi\\9.3.1\\
 2307              		.file 4 "t:\\msys\\3rd\\gcc-arm-none-eabi-9-2020-q2-update-win32\\arm-none-eabi\\include\\sys\\_st
 2308              		.file 5 "D:/fchai/work/i-cube/I-CUBE-HUAWEI/Middlewares/Third_Party/Huawei/iot_link/network/dtls/m
 2309              		.file 6 "D:/fchai/work/i-cube/I-CUBE-HUAWEI/Middlewares/Third_Party/Huawei/iot_link/network/dtls/m
 2310              		.file 7 "t:\\msys\\3rd\\gcc-arm-none-eabi-9-2020-q2-update-win32\\arm-none-eabi\\include\\sys\\_ty
 2311              		.file 8 "t:\\msys\\3rd\\gcc-arm-none-eabi-9-2020-q2-update-win32\\arm-none-eabi\\include\\sys\\ree
 2312              		.file 9 "t:\\msys\\3rd\\gcc-arm-none-eabi-9-2020-q2-update-win32\\arm-none-eabi\\include\\sys\\loc
 2313              		.file 10 "t:\\msys\\3rd\\gcc-arm-none-eabi-9-2020-q2-update-win32\\arm-none-eabi\\include\\stdlib.
 2314              		.file 11 "t:\\msys\\3rd\\gcc-arm-none-eabi-9-2020-q2-update-win32\\arm-none-eabi\\include\\time.h"
 2315              		.file 12 "D:/fchai/work/i-cube/I-CUBE-HUAWEI/Middlewares/Third_Party/Huawei/iot_link/network/dtls/
 2316              		.file 13 "<built-in>"
ARM GAS  T:\msys\tmp\ccoyqwkK.s 			page 56

