ARM GAS  T:\msys\tmp\ccc421OW.s 			page 1


   1              		.cpu cortex-m4
   2              		.eabi_attribute 27, 1
   3              		.eabi_attribute 28, 1
   4              		.eabi_attribute 20, 1
   5              		.eabi_attribute 21, 1
   6              		.eabi_attribute 23, 3
   7              		.eabi_attribute 24, 1
   8              		.eabi_attribute 25, 1
   9              		.eabi_attribute 26, 1
  10              		.eabi_attribute 30, 2
  11              		.eabi_attribute 34, 1
  12              		.eabi_attribute 18, 4
  13              		.file	"base64.c"
  14              		.text
  15              	.Ltext0:
  16              		.cfi_sections	.debug_frame
  17              		.section	.text.mbedtls_base64_encode,"ax",%progbits
  18              		.align	1
  19              		.p2align 2,,3
  20              		.global	mbedtls_base64_encode
  21              		.arch armv7e-m
  22              		.syntax unified
  23              		.thumb
  24              		.thumb_func
  25              		.fpu fpv4-sp-d16
  27              	mbedtls_base64_encode:
  28              	.LVL0:
  29              	.LFB0:
  30              		.file 1 "D:/fchai/work/i-cube/I-CUBE-HUAWEI/Middlewares/Third_Party/Huawei/iot_link/network/dtls/m
   1:D:/fchai/work/i-cube/I-CUBE-HUAWEI/Middlewares/Third_Party/Huawei/iot_link/network/dtls/mbedtls/mbedtls-2.16.2/library\base64.c **** /*
   2:D:/fchai/work/i-cube/I-CUBE-HUAWEI/Middlewares/Third_Party/Huawei/iot_link/network/dtls/mbedtls/mbedtls-2.16.2/library\base64.c ****  *  RFC 1521 base64 encoding/decoding
   3:D:/fchai/work/i-cube/I-CUBE-HUAWEI/Middlewares/Third_Party/Huawei/iot_link/network/dtls/mbedtls/mbedtls-2.16.2/library\base64.c ****  *
   4:D:/fchai/work/i-cube/I-CUBE-HUAWEI/Middlewares/Third_Party/Huawei/iot_link/network/dtls/mbedtls/mbedtls-2.16.2/library\base64.c ****  *  Copyright (C) 2006-2015, ARM Limited, All Rights Reserved
   5:D:/fchai/work/i-cube/I-CUBE-HUAWEI/Middlewares/Third_Party/Huawei/iot_link/network/dtls/mbedtls/mbedtls-2.16.2/library\base64.c ****  *  SPDX-License-Identifier: Apache-2.0
   6:D:/fchai/work/i-cube/I-CUBE-HUAWEI/Middlewares/Third_Party/Huawei/iot_link/network/dtls/mbedtls/mbedtls-2.16.2/library\base64.c ****  *
   7:D:/fchai/work/i-cube/I-CUBE-HUAWEI/Middlewares/Third_Party/Huawei/iot_link/network/dtls/mbedtls/mbedtls-2.16.2/library\base64.c ****  *  Licensed under the Apache License, Version 2.0 (the "License"); you may
   8:D:/fchai/work/i-cube/I-CUBE-HUAWEI/Middlewares/Third_Party/Huawei/iot_link/network/dtls/mbedtls/mbedtls-2.16.2/library\base64.c ****  *  not use this file except in compliance with the License.
   9:D:/fchai/work/i-cube/I-CUBE-HUAWEI/Middlewares/Third_Party/Huawei/iot_link/network/dtls/mbedtls/mbedtls-2.16.2/library\base64.c ****  *  You may obtain a copy of the License at
  10:D:/fchai/work/i-cube/I-CUBE-HUAWEI/Middlewares/Third_Party/Huawei/iot_link/network/dtls/mbedtls/mbedtls-2.16.2/library\base64.c ****  *
  11:D:/fchai/work/i-cube/I-CUBE-HUAWEI/Middlewares/Third_Party/Huawei/iot_link/network/dtls/mbedtls/mbedtls-2.16.2/library\base64.c ****  *  http://www.apache.org/licenses/LICENSE-2.0
  12:D:/fchai/work/i-cube/I-CUBE-HUAWEI/Middlewares/Third_Party/Huawei/iot_link/network/dtls/mbedtls/mbedtls-2.16.2/library\base64.c ****  *
  13:D:/fchai/work/i-cube/I-CUBE-HUAWEI/Middlewares/Third_Party/Huawei/iot_link/network/dtls/mbedtls/mbedtls-2.16.2/library\base64.c ****  *  Unless required by applicable law or agreed to in writing, software
  14:D:/fchai/work/i-cube/I-CUBE-HUAWEI/Middlewares/Third_Party/Huawei/iot_link/network/dtls/mbedtls/mbedtls-2.16.2/library\base64.c ****  *  distributed under the License is distributed on an "AS IS" BASIS, WITHOUT
  15:D:/fchai/work/i-cube/I-CUBE-HUAWEI/Middlewares/Third_Party/Huawei/iot_link/network/dtls/mbedtls/mbedtls-2.16.2/library\base64.c ****  *  WARRANTIES OR CONDITIONS OF ANY KIND, either express or implied.
  16:D:/fchai/work/i-cube/I-CUBE-HUAWEI/Middlewares/Third_Party/Huawei/iot_link/network/dtls/mbedtls/mbedtls-2.16.2/library\base64.c ****  *  See the License for the specific language governing permissions and
  17:D:/fchai/work/i-cube/I-CUBE-HUAWEI/Middlewares/Third_Party/Huawei/iot_link/network/dtls/mbedtls/mbedtls-2.16.2/library\base64.c ****  *  limitations under the License.
  18:D:/fchai/work/i-cube/I-CUBE-HUAWEI/Middlewares/Third_Party/Huawei/iot_link/network/dtls/mbedtls/mbedtls-2.16.2/library\base64.c ****  *
  19:D:/fchai/work/i-cube/I-CUBE-HUAWEI/Middlewares/Third_Party/Huawei/iot_link/network/dtls/mbedtls/mbedtls-2.16.2/library\base64.c ****  *  This file is part of mbed TLS (https://tls.mbed.org)
  20:D:/fchai/work/i-cube/I-CUBE-HUAWEI/Middlewares/Third_Party/Huawei/iot_link/network/dtls/mbedtls/mbedtls-2.16.2/library\base64.c ****  */
  21:D:/fchai/work/i-cube/I-CUBE-HUAWEI/Middlewares/Third_Party/Huawei/iot_link/network/dtls/mbedtls/mbedtls-2.16.2/library\base64.c **** 
  22:D:/fchai/work/i-cube/I-CUBE-HUAWEI/Middlewares/Third_Party/Huawei/iot_link/network/dtls/mbedtls/mbedtls-2.16.2/library\base64.c **** #if !defined(MBEDTLS_CONFIG_FILE)
  23:D:/fchai/work/i-cube/I-CUBE-HUAWEI/Middlewares/Third_Party/Huawei/iot_link/network/dtls/mbedtls/mbedtls-2.16.2/library\base64.c **** #include "mbedtls/config.h"
  24:D:/fchai/work/i-cube/I-CUBE-HUAWEI/Middlewares/Third_Party/Huawei/iot_link/network/dtls/mbedtls/mbedtls-2.16.2/library\base64.c **** #else
  25:D:/fchai/work/i-cube/I-CUBE-HUAWEI/Middlewares/Third_Party/Huawei/iot_link/network/dtls/mbedtls/mbedtls-2.16.2/library\base64.c **** #include MBEDTLS_CONFIG_FILE
  26:D:/fchai/work/i-cube/I-CUBE-HUAWEI/Middlewares/Third_Party/Huawei/iot_link/network/dtls/mbedtls/mbedtls-2.16.2/library\base64.c **** #endif
  27:D:/fchai/work/i-cube/I-CUBE-HUAWEI/Middlewares/Third_Party/Huawei/iot_link/network/dtls/mbedtls/mbedtls-2.16.2/library\base64.c **** 
  28:D:/fchai/work/i-cube/I-CUBE-HUAWEI/Middlewares/Third_Party/Huawei/iot_link/network/dtls/mbedtls/mbedtls-2.16.2/library\base64.c **** #if defined(MBEDTLS_BASE64_C)
ARM GAS  T:\msys\tmp\ccc421OW.s 			page 2


  29:D:/fchai/work/i-cube/I-CUBE-HUAWEI/Middlewares/Third_Party/Huawei/iot_link/network/dtls/mbedtls/mbedtls-2.16.2/library\base64.c **** 
  30:D:/fchai/work/i-cube/I-CUBE-HUAWEI/Middlewares/Third_Party/Huawei/iot_link/network/dtls/mbedtls/mbedtls-2.16.2/library\base64.c **** #include "mbedtls/base64.h"
  31:D:/fchai/work/i-cube/I-CUBE-HUAWEI/Middlewares/Third_Party/Huawei/iot_link/network/dtls/mbedtls/mbedtls-2.16.2/library\base64.c **** 
  32:D:/fchai/work/i-cube/I-CUBE-HUAWEI/Middlewares/Third_Party/Huawei/iot_link/network/dtls/mbedtls/mbedtls-2.16.2/library\base64.c **** #include <stdint.h>
  33:D:/fchai/work/i-cube/I-CUBE-HUAWEI/Middlewares/Third_Party/Huawei/iot_link/network/dtls/mbedtls/mbedtls-2.16.2/library\base64.c **** 
  34:D:/fchai/work/i-cube/I-CUBE-HUAWEI/Middlewares/Third_Party/Huawei/iot_link/network/dtls/mbedtls/mbedtls-2.16.2/library\base64.c **** #if defined(MBEDTLS_SELF_TEST)
  35:D:/fchai/work/i-cube/I-CUBE-HUAWEI/Middlewares/Third_Party/Huawei/iot_link/network/dtls/mbedtls/mbedtls-2.16.2/library\base64.c **** #include <string.h>
  36:D:/fchai/work/i-cube/I-CUBE-HUAWEI/Middlewares/Third_Party/Huawei/iot_link/network/dtls/mbedtls/mbedtls-2.16.2/library\base64.c **** #if defined(MBEDTLS_PLATFORM_C)
  37:D:/fchai/work/i-cube/I-CUBE-HUAWEI/Middlewares/Third_Party/Huawei/iot_link/network/dtls/mbedtls/mbedtls-2.16.2/library\base64.c **** #include "mbedtls/platform.h"
  38:D:/fchai/work/i-cube/I-CUBE-HUAWEI/Middlewares/Third_Party/Huawei/iot_link/network/dtls/mbedtls/mbedtls-2.16.2/library\base64.c **** #else
  39:D:/fchai/work/i-cube/I-CUBE-HUAWEI/Middlewares/Third_Party/Huawei/iot_link/network/dtls/mbedtls/mbedtls-2.16.2/library\base64.c **** #include <stdio.h>
  40:D:/fchai/work/i-cube/I-CUBE-HUAWEI/Middlewares/Third_Party/Huawei/iot_link/network/dtls/mbedtls/mbedtls-2.16.2/library\base64.c **** #define mbedtls_printf printf
  41:D:/fchai/work/i-cube/I-CUBE-HUAWEI/Middlewares/Third_Party/Huawei/iot_link/network/dtls/mbedtls/mbedtls-2.16.2/library\base64.c **** #endif /* MBEDTLS_PLATFORM_C */
  42:D:/fchai/work/i-cube/I-CUBE-HUAWEI/Middlewares/Third_Party/Huawei/iot_link/network/dtls/mbedtls/mbedtls-2.16.2/library\base64.c **** #endif /* MBEDTLS_SELF_TEST */
  43:D:/fchai/work/i-cube/I-CUBE-HUAWEI/Middlewares/Third_Party/Huawei/iot_link/network/dtls/mbedtls/mbedtls-2.16.2/library\base64.c **** 
  44:D:/fchai/work/i-cube/I-CUBE-HUAWEI/Middlewares/Third_Party/Huawei/iot_link/network/dtls/mbedtls/mbedtls-2.16.2/library\base64.c **** static const unsigned char base64_enc_map[64] =
  45:D:/fchai/work/i-cube/I-CUBE-HUAWEI/Middlewares/Third_Party/Huawei/iot_link/network/dtls/mbedtls/mbedtls-2.16.2/library\base64.c **** {
  46:D:/fchai/work/i-cube/I-CUBE-HUAWEI/Middlewares/Third_Party/Huawei/iot_link/network/dtls/mbedtls/mbedtls-2.16.2/library\base64.c ****     'A', 'B', 'C', 'D', 'E', 'F', 'G', 'H', 'I', 'J',
  47:D:/fchai/work/i-cube/I-CUBE-HUAWEI/Middlewares/Third_Party/Huawei/iot_link/network/dtls/mbedtls/mbedtls-2.16.2/library\base64.c ****     'K', 'L', 'M', 'N', 'O', 'P', 'Q', 'R', 'S', 'T',
  48:D:/fchai/work/i-cube/I-CUBE-HUAWEI/Middlewares/Third_Party/Huawei/iot_link/network/dtls/mbedtls/mbedtls-2.16.2/library\base64.c ****     'U', 'V', 'W', 'X', 'Y', 'Z', 'a', 'b', 'c', 'd',
  49:D:/fchai/work/i-cube/I-CUBE-HUAWEI/Middlewares/Third_Party/Huawei/iot_link/network/dtls/mbedtls/mbedtls-2.16.2/library\base64.c ****     'e', 'f', 'g', 'h', 'i', 'j', 'k', 'l', 'm', 'n',
  50:D:/fchai/work/i-cube/I-CUBE-HUAWEI/Middlewares/Third_Party/Huawei/iot_link/network/dtls/mbedtls/mbedtls-2.16.2/library\base64.c ****     'o', 'p', 'q', 'r', 's', 't', 'u', 'v', 'w', 'x',
  51:D:/fchai/work/i-cube/I-CUBE-HUAWEI/Middlewares/Third_Party/Huawei/iot_link/network/dtls/mbedtls/mbedtls-2.16.2/library\base64.c ****     'y', 'z', '0', '1', '2', '3', '4', '5', '6', '7',
  52:D:/fchai/work/i-cube/I-CUBE-HUAWEI/Middlewares/Third_Party/Huawei/iot_link/network/dtls/mbedtls/mbedtls-2.16.2/library\base64.c ****     '8', '9', '+', '/'
  53:D:/fchai/work/i-cube/I-CUBE-HUAWEI/Middlewares/Third_Party/Huawei/iot_link/network/dtls/mbedtls/mbedtls-2.16.2/library\base64.c **** };
  54:D:/fchai/work/i-cube/I-CUBE-HUAWEI/Middlewares/Third_Party/Huawei/iot_link/network/dtls/mbedtls/mbedtls-2.16.2/library\base64.c **** 
  55:D:/fchai/work/i-cube/I-CUBE-HUAWEI/Middlewares/Third_Party/Huawei/iot_link/network/dtls/mbedtls/mbedtls-2.16.2/library\base64.c **** static const unsigned char base64_dec_map[128] =
  56:D:/fchai/work/i-cube/I-CUBE-HUAWEI/Middlewares/Third_Party/Huawei/iot_link/network/dtls/mbedtls/mbedtls-2.16.2/library\base64.c **** {
  57:D:/fchai/work/i-cube/I-CUBE-HUAWEI/Middlewares/Third_Party/Huawei/iot_link/network/dtls/mbedtls/mbedtls-2.16.2/library\base64.c ****     127, 127, 127, 127, 127, 127, 127, 127, 127, 127,
  58:D:/fchai/work/i-cube/I-CUBE-HUAWEI/Middlewares/Third_Party/Huawei/iot_link/network/dtls/mbedtls/mbedtls-2.16.2/library\base64.c ****     127, 127, 127, 127, 127, 127, 127, 127, 127, 127,
  59:D:/fchai/work/i-cube/I-CUBE-HUAWEI/Middlewares/Third_Party/Huawei/iot_link/network/dtls/mbedtls/mbedtls-2.16.2/library\base64.c ****     127, 127, 127, 127, 127, 127, 127, 127, 127, 127,
  60:D:/fchai/work/i-cube/I-CUBE-HUAWEI/Middlewares/Third_Party/Huawei/iot_link/network/dtls/mbedtls/mbedtls-2.16.2/library\base64.c ****     127, 127, 127, 127, 127, 127, 127, 127, 127, 127,
  61:D:/fchai/work/i-cube/I-CUBE-HUAWEI/Middlewares/Third_Party/Huawei/iot_link/network/dtls/mbedtls/mbedtls-2.16.2/library\base64.c ****     127, 127, 127,  62, 127, 127, 127,  63,  52,  53,
  62:D:/fchai/work/i-cube/I-CUBE-HUAWEI/Middlewares/Third_Party/Huawei/iot_link/network/dtls/mbedtls/mbedtls-2.16.2/library\base64.c ****      54,  55,  56,  57,  58,  59,  60,  61, 127, 127,
  63:D:/fchai/work/i-cube/I-CUBE-HUAWEI/Middlewares/Third_Party/Huawei/iot_link/network/dtls/mbedtls/mbedtls-2.16.2/library\base64.c ****     127,  64, 127, 127, 127,   0,   1,   2,   3,   4,
  64:D:/fchai/work/i-cube/I-CUBE-HUAWEI/Middlewares/Third_Party/Huawei/iot_link/network/dtls/mbedtls/mbedtls-2.16.2/library\base64.c ****       5,   6,   7,   8,   9,  10,  11,  12,  13,  14,
  65:D:/fchai/work/i-cube/I-CUBE-HUAWEI/Middlewares/Third_Party/Huawei/iot_link/network/dtls/mbedtls/mbedtls-2.16.2/library\base64.c ****      15,  16,  17,  18,  19,  20,  21,  22,  23,  24,
  66:D:/fchai/work/i-cube/I-CUBE-HUAWEI/Middlewares/Third_Party/Huawei/iot_link/network/dtls/mbedtls/mbedtls-2.16.2/library\base64.c ****      25, 127, 127, 127, 127, 127, 127,  26,  27,  28,
  67:D:/fchai/work/i-cube/I-CUBE-HUAWEI/Middlewares/Third_Party/Huawei/iot_link/network/dtls/mbedtls/mbedtls-2.16.2/library\base64.c ****      29,  30,  31,  32,  33,  34,  35,  36,  37,  38,
  68:D:/fchai/work/i-cube/I-CUBE-HUAWEI/Middlewares/Third_Party/Huawei/iot_link/network/dtls/mbedtls/mbedtls-2.16.2/library\base64.c ****      39,  40,  41,  42,  43,  44,  45,  46,  47,  48,
  69:D:/fchai/work/i-cube/I-CUBE-HUAWEI/Middlewares/Third_Party/Huawei/iot_link/network/dtls/mbedtls/mbedtls-2.16.2/library\base64.c ****      49,  50,  51, 127, 127, 127, 127, 127
  70:D:/fchai/work/i-cube/I-CUBE-HUAWEI/Middlewares/Third_Party/Huawei/iot_link/network/dtls/mbedtls/mbedtls-2.16.2/library\base64.c **** };
  71:D:/fchai/work/i-cube/I-CUBE-HUAWEI/Middlewares/Third_Party/Huawei/iot_link/network/dtls/mbedtls/mbedtls-2.16.2/library\base64.c **** 
  72:D:/fchai/work/i-cube/I-CUBE-HUAWEI/Middlewares/Third_Party/Huawei/iot_link/network/dtls/mbedtls/mbedtls-2.16.2/library\base64.c **** #define BASE64_SIZE_T_MAX   ( (size_t) -1 ) /* SIZE_T_MAX is not standard */
  73:D:/fchai/work/i-cube/I-CUBE-HUAWEI/Middlewares/Third_Party/Huawei/iot_link/network/dtls/mbedtls/mbedtls-2.16.2/library\base64.c **** 
  74:D:/fchai/work/i-cube/I-CUBE-HUAWEI/Middlewares/Third_Party/Huawei/iot_link/network/dtls/mbedtls/mbedtls-2.16.2/library\base64.c **** /*
  75:D:/fchai/work/i-cube/I-CUBE-HUAWEI/Middlewares/Third_Party/Huawei/iot_link/network/dtls/mbedtls/mbedtls-2.16.2/library\base64.c ****  * Encode a buffer into base64 format
  76:D:/fchai/work/i-cube/I-CUBE-HUAWEI/Middlewares/Third_Party/Huawei/iot_link/network/dtls/mbedtls/mbedtls-2.16.2/library\base64.c ****  */
  77:D:/fchai/work/i-cube/I-CUBE-HUAWEI/Middlewares/Third_Party/Huawei/iot_link/network/dtls/mbedtls/mbedtls-2.16.2/library\base64.c **** int mbedtls_base64_encode( unsigned char *dst, size_t dlen, size_t *olen,
  78:D:/fchai/work/i-cube/I-CUBE-HUAWEI/Middlewares/Third_Party/Huawei/iot_link/network/dtls/mbedtls/mbedtls-2.16.2/library\base64.c ****                    const unsigned char *src, size_t slen )
  79:D:/fchai/work/i-cube/I-CUBE-HUAWEI/Middlewares/Third_Party/Huawei/iot_link/network/dtls/mbedtls/mbedtls-2.16.2/library\base64.c **** {
  31              		.loc 1 79 1 view -0
  32              		.cfi_startproc
  33              		@ args = 4, pretend = 0, frame = 0
  34              		@ frame_needed = 0, uses_anonymous_args = 0
  35              		.loc 1 79 1 is_stmt 0 view .LVU1
  36 0000 2DE9F047 		push	{r4, r5, r6, r7, r8, r9, r10, lr}
ARM GAS  T:\msys\tmp\ccc421OW.s 			page 3


  37              	.LCFI0:
  38              		.cfi_def_cfa_offset 32
  39              		.cfi_offset 4, -32
  40              		.cfi_offset 5, -28
  41              		.cfi_offset 6, -24
  42              		.cfi_offset 7, -20
  43              		.cfi_offset 8, -16
  44              		.cfi_offset 9, -12
  45              		.cfi_offset 10, -8
  46              		.cfi_offset 14, -4
  47              		.loc 1 79 1 view .LVU2
  48 0004 DDF820E0 		ldr	lr, [sp, #32]
  80:D:/fchai/work/i-cube/I-CUBE-HUAWEI/Middlewares/Third_Party/Huawei/iot_link/network/dtls/mbedtls/mbedtls-2.16.2/library\base64.c ****     size_t i, n;
  49              		.loc 1 80 5 is_stmt 1 view .LVU3
  81:D:/fchai/work/i-cube/I-CUBE-HUAWEI/Middlewares/Third_Party/Huawei/iot_link/network/dtls/mbedtls/mbedtls-2.16.2/library\base64.c ****     int C1, C2, C3;
  50              		.loc 1 81 5 view .LVU4
  82:D:/fchai/work/i-cube/I-CUBE-HUAWEI/Middlewares/Third_Party/Huawei/iot_link/network/dtls/mbedtls/mbedtls-2.16.2/library\base64.c ****     unsigned char *p;
  51              		.loc 1 82 5 view .LVU5
  83:D:/fchai/work/i-cube/I-CUBE-HUAWEI/Middlewares/Third_Party/Huawei/iot_link/network/dtls/mbedtls/mbedtls-2.16.2/library\base64.c **** 
  84:D:/fchai/work/i-cube/I-CUBE-HUAWEI/Middlewares/Third_Party/Huawei/iot_link/network/dtls/mbedtls/mbedtls-2.16.2/library\base64.c ****     if( slen == 0 )
  52              		.loc 1 84 5 view .LVU6
  53              		.loc 1 84 7 is_stmt 0 view .LVU7
  54 0008 BEF1000F 		cmp	lr, #0
  55 000c 68D0     		beq	.L16
  85:D:/fchai/work/i-cube/I-CUBE-HUAWEI/Middlewares/Third_Party/Huawei/iot_link/network/dtls/mbedtls/mbedtls-2.16.2/library\base64.c ****     {
  86:D:/fchai/work/i-cube/I-CUBE-HUAWEI/Middlewares/Third_Party/Huawei/iot_link/network/dtls/mbedtls/mbedtls-2.16.2/library\base64.c ****         *olen = 0;
  87:D:/fchai/work/i-cube/I-CUBE-HUAWEI/Middlewares/Third_Party/Huawei/iot_link/network/dtls/mbedtls/mbedtls-2.16.2/library\base64.c ****         return( 0 );
  88:D:/fchai/work/i-cube/I-CUBE-HUAWEI/Middlewares/Third_Party/Huawei/iot_link/network/dtls/mbedtls/mbedtls-2.16.2/library\base64.c ****     }
  89:D:/fchai/work/i-cube/I-CUBE-HUAWEI/Middlewares/Third_Party/Huawei/iot_link/network/dtls/mbedtls/mbedtls-2.16.2/library\base64.c **** 
  90:D:/fchai/work/i-cube/I-CUBE-HUAWEI/Middlewares/Third_Party/Huawei/iot_link/network/dtls/mbedtls/mbedtls-2.16.2/library\base64.c ****     n = slen / 3 + ( slen % 3 != 0 );
  56              		.loc 1 90 5 is_stmt 1 view .LVU8
  57              		.loc 1 90 14 is_stmt 0 view .LVU9
  58 000e 464D     		ldr	r5, .L20
  59 0010 A5FB0E45 		umull	r4, r5, r5, lr
  60              		.loc 1 90 27 view .LVU10
  61 0014 25F00109 		bic	r9, r5, #1
  62 0018 09EB5509 		add	r9, r9, r5, lsr #1
  63              		.loc 1 90 31 view .LVU11
  64 001c BEEB0904 		subs	r4, lr, r9
  65 0020 18BF     		it	ne
  66 0022 0124     		movne	r4, #1
  67              		.loc 1 90 7 view .LVU12
  68 0024 04EB5504 		add	r4, r4, r5, lsr #1
  69              	.LVL1:
  91:D:/fchai/work/i-cube/I-CUBE-HUAWEI/Middlewares/Third_Party/Huawei/iot_link/network/dtls/mbedtls/mbedtls-2.16.2/library\base64.c **** 
  92:D:/fchai/work/i-cube/I-CUBE-HUAWEI/Middlewares/Third_Party/Huawei/iot_link/network/dtls/mbedtls/mbedtls-2.16.2/library\base64.c ****     if( n > ( BASE64_SIZE_T_MAX - 1 ) / 4 )
  70              		.loc 1 92 5 is_stmt 1 view .LVU13
  71              		.loc 1 92 7 is_stmt 0 view .LVU14
  72 0028 B4F1804F 		cmp	r4, #1073741824
  73 002c 76D2     		bcs	.L17
  93:D:/fchai/work/i-cube/I-CUBE-HUAWEI/Middlewares/Third_Party/Huawei/iot_link/network/dtls/mbedtls/mbedtls-2.16.2/library\base64.c ****     {
  94:D:/fchai/work/i-cube/I-CUBE-HUAWEI/Middlewares/Third_Party/Huawei/iot_link/network/dtls/mbedtls/mbedtls-2.16.2/library\base64.c ****         *olen = BASE64_SIZE_T_MAX;
  95:D:/fchai/work/i-cube/I-CUBE-HUAWEI/Middlewares/Third_Party/Huawei/iot_link/network/dtls/mbedtls/mbedtls-2.16.2/library\base64.c ****         return( MBEDTLS_ERR_BASE64_BUFFER_TOO_SMALL );
  96:D:/fchai/work/i-cube/I-CUBE-HUAWEI/Middlewares/Third_Party/Huawei/iot_link/network/dtls/mbedtls/mbedtls-2.16.2/library\base64.c ****     }
  97:D:/fchai/work/i-cube/I-CUBE-HUAWEI/Middlewares/Third_Party/Huawei/iot_link/network/dtls/mbedtls/mbedtls-2.16.2/library\base64.c **** 
  98:D:/fchai/work/i-cube/I-CUBE-HUAWEI/Middlewares/Third_Party/Huawei/iot_link/network/dtls/mbedtls/mbedtls-2.16.2/library\base64.c ****     n *= 4;
  74              		.loc 1 98 5 is_stmt 1 view .LVU15
ARM GAS  T:\msys\tmp\ccc421OW.s 			page 4


  75              	.LVL2:
  99:D:/fchai/work/i-cube/I-CUBE-HUAWEI/Middlewares/Third_Party/Huawei/iot_link/network/dtls/mbedtls/mbedtls-2.16.2/library\base64.c **** 
 100:D:/fchai/work/i-cube/I-CUBE-HUAWEI/Middlewares/Third_Party/Huawei/iot_link/network/dtls/mbedtls/mbedtls-2.16.2/library\base64.c ****     if( ( dlen < n + 1 ) || ( NULL == dst ) )
  76              		.loc 1 100 5 view .LVU16
  98:D:/fchai/work/i-cube/I-CUBE-HUAWEI/Middlewares/Third_Party/Huawei/iot_link/network/dtls/mbedtls/mbedtls-2.16.2/library\base64.c **** 
  77              		.loc 1 98 7 is_stmt 0 view .LVU17
  78 002e A400     		lsls	r4, r4, #2
  79              	.LVL3:
  80              		.loc 1 100 20 view .LVU18
  81 0030 0134     		adds	r4, r4, #1
  82              	.LVL4:
  83              		.loc 1 100 7 view .LVU19
  84 0032 8C42     		cmp	r4, r1
  85 0034 6ED8     		bhi	.L5
  86              		.loc 1 100 26 discriminator 1 view .LVU20
  87 0036 0028     		cmp	r0, #0
  88 0038 6CD0     		beq	.L5
 101:D:/fchai/work/i-cube/I-CUBE-HUAWEI/Middlewares/Third_Party/Huawei/iot_link/network/dtls/mbedtls/mbedtls-2.16.2/library\base64.c ****     {
 102:D:/fchai/work/i-cube/I-CUBE-HUAWEI/Middlewares/Third_Party/Huawei/iot_link/network/dtls/mbedtls/mbedtls-2.16.2/library\base64.c ****         *olen = n + 1;
 103:D:/fchai/work/i-cube/I-CUBE-HUAWEI/Middlewares/Third_Party/Huawei/iot_link/network/dtls/mbedtls/mbedtls-2.16.2/library\base64.c ****         return( MBEDTLS_ERR_BASE64_BUFFER_TOO_SMALL );
 104:D:/fchai/work/i-cube/I-CUBE-HUAWEI/Middlewares/Third_Party/Huawei/iot_link/network/dtls/mbedtls/mbedtls-2.16.2/library\base64.c ****     }
 105:D:/fchai/work/i-cube/I-CUBE-HUAWEI/Middlewares/Third_Party/Huawei/iot_link/network/dtls/mbedtls/mbedtls-2.16.2/library\base64.c **** 
 106:D:/fchai/work/i-cube/I-CUBE-HUAWEI/Middlewares/Third_Party/Huawei/iot_link/network/dtls/mbedtls/mbedtls-2.16.2/library\base64.c ****     n = ( slen / 3 ) * 3;
  89              		.loc 1 106 5 is_stmt 1 view .LVU21
  90              	.LVL5:
 107:D:/fchai/work/i-cube/I-CUBE-HUAWEI/Middlewares/Third_Party/Huawei/iot_link/network/dtls/mbedtls/mbedtls-2.16.2/library\base64.c **** 
 108:D:/fchai/work/i-cube/I-CUBE-HUAWEI/Middlewares/Third_Party/Huawei/iot_link/network/dtls/mbedtls/mbedtls-2.16.2/library\base64.c ****     for( i = 0, p = dst; i < n; i += 3 )
  91              		.loc 1 108 5 view .LVU22
  92              		.loc 1 108 26 view .LVU23
  93              		.loc 1 108 5 is_stmt 0 view .LVU24
  94 003a B9F1000F 		cmp	r9, #0
  95 003e 66D0     		beq	.L12
  96 0040 3A4F     		ldr	r7, .L20+4
  97 0042 DD1C     		adds	r5, r3, #3
  98 0044 011D     		adds	r1, r0, #4
  99              	.LVL6:
 100              		.loc 1 108 12 view .LVU25
 101 0046 4FF00008 		mov	r8, #0
 102              	.LVL7:
 103              	.L8:
 109:D:/fchai/work/i-cube/I-CUBE-HUAWEI/Middlewares/Third_Party/Huawei/iot_link/network/dtls/mbedtls/mbedtls-2.16.2/library\base64.c ****     {
 110:D:/fchai/work/i-cube/I-CUBE-HUAWEI/Middlewares/Third_Party/Huawei/iot_link/network/dtls/mbedtls/mbedtls-2.16.2/library\base64.c ****         C1 = *src++;
 104              		.loc 1 110 9 is_stmt 1 discriminator 3 view .LVU26
 105              		.loc 1 110 12 is_stmt 0 discriminator 3 view .LVU27
 106 004a 15F8036C 		ldrb	r6, [r5, #-3]	@ zero_extendqisi2
 107              	.LVL8:
 111:D:/fchai/work/i-cube/I-CUBE-HUAWEI/Middlewares/Third_Party/Huawei/iot_link/network/dtls/mbedtls/mbedtls-2.16.2/library\base64.c ****         C2 = *src++;
 108              		.loc 1 111 9 is_stmt 1 discriminator 3 view .LVU28
 109              		.loc 1 111 12 is_stmt 0 discriminator 3 view .LVU29
 110 004e 15F8024C 		ldrb	r4, [r5, #-2]	@ zero_extendqisi2
 111              	.LVL9:
 112:D:/fchai/work/i-cube/I-CUBE-HUAWEI/Middlewares/Third_Party/Huawei/iot_link/network/dtls/mbedtls/mbedtls-2.16.2/library\base64.c ****         C3 = *src++;
 112              		.loc 1 112 9 is_stmt 1 discriminator 3 view .LVU30
 113              		.loc 1 112 14 is_stmt 0 discriminator 3 view .LVU31
 114 0052 15F8013C 		ldrb	r3, [r5, #-1]	@ zero_extendqisi2
 115              	.LVL10:
 113:D:/fchai/work/i-cube/I-CUBE-HUAWEI/Middlewares/Third_Party/Huawei/iot_link/network/dtls/mbedtls/mbedtls-2.16.2/library\base64.c **** 
ARM GAS  T:\msys\tmp\ccc421OW.s 			page 5


 114:D:/fchai/work/i-cube/I-CUBE-HUAWEI/Middlewares/Third_Party/Huawei/iot_link/network/dtls/mbedtls/mbedtls-2.16.2/library\base64.c ****         *p++ = base64_enc_map[(C1 >> 2) & 0x3F];
 116              		.loc 1 114 9 is_stmt 1 discriminator 3 view .LVU32
 115:D:/fchai/work/i-cube/I-CUBE-HUAWEI/Middlewares/Third_Party/Huawei/iot_link/network/dtls/mbedtls/mbedtls-2.16.2/library\base64.c ****         *p++ = base64_enc_map[(((C1 &  3) << 4) + (C2 >> 4)) & 0x3F];
 117              		.loc 1 115 43 is_stmt 0 discriminator 3 view .LVU33
 118 0056 4FEA061C 		lsl	ip, r6, #4
 119              		.loc 1 115 30 discriminator 3 view .LVU34
 120 005a 07EB141A 		add	r10, r7, r4, lsr #4
 121              		.loc 1 115 43 discriminator 3 view .LVU35
 122 005e 0CF0300C 		and	ip, ip, #48
 116:D:/fchai/work/i-cube/I-CUBE-HUAWEI/Middlewares/Third_Party/Huawei/iot_link/network/dtls/mbedtls/mbedtls-2.16.2/library\base64.c ****         *p++ = base64_enc_map[(((C2 & 15) << 2) + (C3 >> 6)) & 0x3F];
 123              		.loc 1 116 43 discriminator 3 view .LVU36
 124 0062 A400     		lsls	r4, r4, #2
 125              	.LVL11:
 115:D:/fchai/work/i-cube/I-CUBE-HUAWEI/Middlewares/Third_Party/Huawei/iot_link/network/dtls/mbedtls/mbedtls-2.16.2/library\base64.c ****         *p++ = base64_enc_map[(((C1 &  3) << 4) + (C2 >> 4)) & 0x3F];
 126              		.loc 1 115 14 discriminator 3 view .LVU37
 127 0064 1AF80CC0 		ldrb	ip, [r10, ip]	@ zero_extendqisi2
 128 0068 01F803CC 		strb	ip, [r1, #-3]
 129              	.LVL12:
 114:D:/fchai/work/i-cube/I-CUBE-HUAWEI/Middlewares/Third_Party/Huawei/iot_link/network/dtls/mbedtls/mbedtls-2.16.2/library\base64.c ****         *p++ = base64_enc_map[(((C1 &  3) << 4) + (C2 >> 4)) & 0x3F];
 130              		.loc 1 114 35 discriminator 3 view .LVU38
 131 006c B610     		asrs	r6, r6, #2
 132              	.LVL13:
 133              		.loc 1 116 30 discriminator 3 view .LVU39
 134 006e 07EB931C 		add	ip, r7, r3, lsr #6
 135              		.loc 1 116 43 discriminator 3 view .LVU40
 136 0072 04F03C04 		and	r4, r4, #60
 117:D:/fchai/work/i-cube/I-CUBE-HUAWEI/Middlewares/Third_Party/Huawei/iot_link/network/dtls/mbedtls/mbedtls-2.16.2/library\base64.c ****         *p++ = base64_enc_map[C3 & 0x3F];
 137              		.loc 1 117 34 discriminator 3 view .LVU41
 138 0076 03F03F03 		and	r3, r3, #63
 139              	.LVL14:
 108:D:/fchai/work/i-cube/I-CUBE-HUAWEI/Middlewares/Third_Party/Huawei/iot_link/network/dtls/mbedtls/mbedtls-2.16.2/library\base64.c ****     {
 140              		.loc 1 108 35 discriminator 3 view .LVU42
 141 007a 08F10308 		add	r8, r8, #3
 142              	.LVL15:
 116:D:/fchai/work/i-cube/I-CUBE-HUAWEI/Middlewares/Third_Party/Huawei/iot_link/network/dtls/mbedtls/mbedtls-2.16.2/library\base64.c ****         *p++ = base64_enc_map[C3 & 0x3F];
 143              		.loc 1 116 14 discriminator 3 view .LVU43
 144 007e 1CF80440 		ldrb	r4, [ip, r4]	@ zero_extendqisi2
 145              		.loc 1 117 14 discriminator 3 view .LVU44
 146 0082 FB5C     		ldrb	r3, [r7, r3]	@ zero_extendqisi2
 114:D:/fchai/work/i-cube/I-CUBE-HUAWEI/Middlewares/Third_Party/Huawei/iot_link/network/dtls/mbedtls/mbedtls-2.16.2/library\base64.c ****         *p++ = base64_enc_map[(((C1 &  3) << 4) + (C2 >> 4)) & 0x3F];
 147              		.loc 1 114 14 discriminator 3 view .LVU45
 148 0084 BE5D     		ldrb	r6, [r7, r6]	@ zero_extendqisi2
 116:D:/fchai/work/i-cube/I-CUBE-HUAWEI/Middlewares/Third_Party/Huawei/iot_link/network/dtls/mbedtls/mbedtls-2.16.2/library\base64.c ****         *p++ = base64_enc_map[C3 & 0x3F];
 149              		.loc 1 116 14 discriminator 3 view .LVU46
 150 0086 01F8024C 		strb	r4, [r1, #-2]
 108:D:/fchai/work/i-cube/I-CUBE-HUAWEI/Middlewares/Third_Party/Huawei/iot_link/network/dtls/mbedtls/mbedtls-2.16.2/library\base64.c ****     {
 151              		.loc 1 108 5 discriminator 3 view .LVU47
 152 008a C145     		cmp	r9, r8
 153              		.loc 1 117 14 discriminator 3 view .LVU48
 154 008c 01F8013C 		strb	r3, [r1, #-1]
 114:D:/fchai/work/i-cube/I-CUBE-HUAWEI/Middlewares/Third_Party/Huawei/iot_link/network/dtls/mbedtls/mbedtls-2.16.2/library\base64.c ****         *p++ = base64_enc_map[(((C1 &  3) << 4) + (C2 >> 4)) & 0x3F];
 155              		.loc 1 114 14 discriminator 3 view .LVU49
 156 0090 01F8046C 		strb	r6, [r1, #-4]
 115:D:/fchai/work/i-cube/I-CUBE-HUAWEI/Middlewares/Third_Party/Huawei/iot_link/network/dtls/mbedtls/mbedtls-2.16.2/library\base64.c ****         *p++ = base64_enc_map[(((C2 & 15) << 2) + (C3 >> 6)) & 0x3F];
 157              		.loc 1 115 9 is_stmt 1 discriminator 3 view .LVU50
 158              	.LVL16:
 116:D:/fchai/work/i-cube/I-CUBE-HUAWEI/Middlewares/Third_Party/Huawei/iot_link/network/dtls/mbedtls/mbedtls-2.16.2/library\base64.c ****         *p++ = base64_enc_map[C3 & 0x3F];
ARM GAS  T:\msys\tmp\ccc421OW.s 			page 6


 159              		.loc 1 116 9 discriminator 3 view .LVU51
 160              		.loc 1 117 9 discriminator 3 view .LVU52
 108:D:/fchai/work/i-cube/I-CUBE-HUAWEI/Middlewares/Third_Party/Huawei/iot_link/network/dtls/mbedtls/mbedtls-2.16.2/library\base64.c ****     {
 161              		.loc 1 108 33 discriminator 3 view .LVU53
 108:D:/fchai/work/i-cube/I-CUBE-HUAWEI/Middlewares/Third_Party/Huawei/iot_link/network/dtls/mbedtls/mbedtls-2.16.2/library\base64.c ****     {
 162              		.loc 1 108 26 discriminator 3 view .LVU54
 163 0094 2B46     		mov	r3, r5
 164 0096 0C46     		mov	r4, r1
 165 0098 05F10305 		add	r5, r5, #3
 166              	.LVL17:
 108:D:/fchai/work/i-cube/I-CUBE-HUAWEI/Middlewares/Third_Party/Huawei/iot_link/network/dtls/mbedtls/mbedtls-2.16.2/library\base64.c ****     {
 167              		.loc 1 108 26 is_stmt 0 discriminator 3 view .LVU55
 168 009c 01F10401 		add	r1, r1, #4
 169              	.LVL18:
 108:D:/fchai/work/i-cube/I-CUBE-HUAWEI/Middlewares/Third_Party/Huawei/iot_link/network/dtls/mbedtls/mbedtls-2.16.2/library\base64.c ****     {
 170              		.loc 1 108 5 discriminator 3 view .LVU56
 171 00a0 D3D8     		bhi	.L8
 172              	.LVL19:
 173              	.L7:
 118:D:/fchai/work/i-cube/I-CUBE-HUAWEI/Middlewares/Third_Party/Huawei/iot_link/network/dtls/mbedtls/mbedtls-2.16.2/library\base64.c ****     }
 119:D:/fchai/work/i-cube/I-CUBE-HUAWEI/Middlewares/Third_Party/Huawei/iot_link/network/dtls/mbedtls/mbedtls-2.16.2/library\base64.c **** 
 120:D:/fchai/work/i-cube/I-CUBE-HUAWEI/Middlewares/Third_Party/Huawei/iot_link/network/dtls/mbedtls/mbedtls-2.16.2/library\base64.c ****     if( i < slen )
 174              		.loc 1 120 5 is_stmt 1 view .LVU57
 175              		.loc 1 120 7 is_stmt 0 view .LVU58
 176 00a2 C645     		cmp	lr, r8
 177 00a4 06D8     		bhi	.L18
 178              	.L9:
 121:D:/fchai/work/i-cube/I-CUBE-HUAWEI/Middlewares/Third_Party/Huawei/iot_link/network/dtls/mbedtls/mbedtls-2.16.2/library\base64.c ****     {
 122:D:/fchai/work/i-cube/I-CUBE-HUAWEI/Middlewares/Third_Party/Huawei/iot_link/network/dtls/mbedtls/mbedtls-2.16.2/library\base64.c ****         C1 = *src++;
 123:D:/fchai/work/i-cube/I-CUBE-HUAWEI/Middlewares/Third_Party/Huawei/iot_link/network/dtls/mbedtls/mbedtls-2.16.2/library\base64.c ****         C2 = ( ( i + 1 ) < slen ) ? *src++ : 0;
 124:D:/fchai/work/i-cube/I-CUBE-HUAWEI/Middlewares/Third_Party/Huawei/iot_link/network/dtls/mbedtls/mbedtls-2.16.2/library\base64.c **** 
 125:D:/fchai/work/i-cube/I-CUBE-HUAWEI/Middlewares/Third_Party/Huawei/iot_link/network/dtls/mbedtls/mbedtls-2.16.2/library\base64.c ****         *p++ = base64_enc_map[(C1 >> 2) & 0x3F];
 126:D:/fchai/work/i-cube/I-CUBE-HUAWEI/Middlewares/Third_Party/Huawei/iot_link/network/dtls/mbedtls/mbedtls-2.16.2/library\base64.c ****         *p++ = base64_enc_map[(((C1 & 3) << 4) + (C2 >> 4)) & 0x3F];
 127:D:/fchai/work/i-cube/I-CUBE-HUAWEI/Middlewares/Third_Party/Huawei/iot_link/network/dtls/mbedtls/mbedtls-2.16.2/library\base64.c **** 
 128:D:/fchai/work/i-cube/I-CUBE-HUAWEI/Middlewares/Third_Party/Huawei/iot_link/network/dtls/mbedtls/mbedtls-2.16.2/library\base64.c ****         if( ( i + 1 ) < slen )
 129:D:/fchai/work/i-cube/I-CUBE-HUAWEI/Middlewares/Third_Party/Huawei/iot_link/network/dtls/mbedtls/mbedtls-2.16.2/library\base64.c ****              *p++ = base64_enc_map[((C2 & 15) << 2) & 0x3F];
 130:D:/fchai/work/i-cube/I-CUBE-HUAWEI/Middlewares/Third_Party/Huawei/iot_link/network/dtls/mbedtls/mbedtls-2.16.2/library\base64.c ****         else *p++ = '=';
 131:D:/fchai/work/i-cube/I-CUBE-HUAWEI/Middlewares/Third_Party/Huawei/iot_link/network/dtls/mbedtls/mbedtls-2.16.2/library\base64.c **** 
 132:D:/fchai/work/i-cube/I-CUBE-HUAWEI/Middlewares/Third_Party/Huawei/iot_link/network/dtls/mbedtls/mbedtls-2.16.2/library\base64.c ****         *p++ = '=';
 133:D:/fchai/work/i-cube/I-CUBE-HUAWEI/Middlewares/Third_Party/Huawei/iot_link/network/dtls/mbedtls/mbedtls-2.16.2/library\base64.c ****     }
 134:D:/fchai/work/i-cube/I-CUBE-HUAWEI/Middlewares/Third_Party/Huawei/iot_link/network/dtls/mbedtls/mbedtls-2.16.2/library\base64.c **** 
 135:D:/fchai/work/i-cube/I-CUBE-HUAWEI/Middlewares/Third_Party/Huawei/iot_link/network/dtls/mbedtls/mbedtls-2.16.2/library\base64.c ****     *olen = p - dst;
 179              		.loc 1 135 5 is_stmt 1 view .LVU59
 180              		.loc 1 135 15 is_stmt 0 view .LVU60
 181 00a6 201A     		subs	r0, r4, r0
 182              	.LVL20:
 136:D:/fchai/work/i-cube/I-CUBE-HUAWEI/Middlewares/Third_Party/Huawei/iot_link/network/dtls/mbedtls/mbedtls-2.16.2/library\base64.c ****     *p = 0;
 183              		.loc 1 136 8 view .LVU61
 184 00a8 0023     		movs	r3, #0
 135:D:/fchai/work/i-cube/I-CUBE-HUAWEI/Middlewares/Third_Party/Huawei/iot_link/network/dtls/mbedtls/mbedtls-2.16.2/library\base64.c ****     *p = 0;
 185              		.loc 1 135 11 view .LVU62
 186 00aa 1060     		str	r0, [r2]
 187              		.loc 1 136 5 is_stmt 1 view .LVU63
 137:D:/fchai/work/i-cube/I-CUBE-HUAWEI/Middlewares/Third_Party/Huawei/iot_link/network/dtls/mbedtls/mbedtls-2.16.2/library\base64.c **** 
 138:D:/fchai/work/i-cube/I-CUBE-HUAWEI/Middlewares/Third_Party/Huawei/iot_link/network/dtls/mbedtls/mbedtls-2.16.2/library\base64.c ****     return( 0 );
 188              		.loc 1 138 11 is_stmt 0 view .LVU64
 189 00ac 1846     		mov	r0, r3
ARM GAS  T:\msys\tmp\ccc421OW.s 			page 7


 136:D:/fchai/work/i-cube/I-CUBE-HUAWEI/Middlewares/Third_Party/Huawei/iot_link/network/dtls/mbedtls/mbedtls-2.16.2/library\base64.c **** 
 190              		.loc 1 136 8 view .LVU65
 191 00ae 2370     		strb	r3, [r4]
 192              		.loc 1 138 5 is_stmt 1 view .LVU66
 193              	.LVL21:
 194              	.L1:
 139:D:/fchai/work/i-cube/I-CUBE-HUAWEI/Middlewares/Third_Party/Huawei/iot_link/network/dtls/mbedtls/mbedtls-2.16.2/library\base64.c **** }
 195              		.loc 1 139 1 is_stmt 0 view .LVU67
 196 00b0 BDE8F087 		pop	{r4, r5, r6, r7, r8, r9, r10, pc}
 197              	.LVL22:
 198              	.L18:
 122:D:/fchai/work/i-cube/I-CUBE-HUAWEI/Middlewares/Third_Party/Huawei/iot_link/network/dtls/mbedtls/mbedtls-2.16.2/library\base64.c ****         C2 = ( ( i + 1 ) < slen ) ? *src++ : 0;
 199              		.loc 1 122 9 is_stmt 1 view .LVU68
 123:D:/fchai/work/i-cube/I-CUBE-HUAWEI/Middlewares/Third_Party/Huawei/iot_link/network/dtls/mbedtls/mbedtls-2.16.2/library\base64.c **** 
 200              		.loc 1 123 20 is_stmt 0 view .LVU69
 201 00b4 08F10108 		add	r8, r8, #1
 123:D:/fchai/work/i-cube/I-CUBE-HUAWEI/Middlewares/Third_Party/Huawei/iot_link/network/dtls/mbedtls/mbedtls-2.16.2/library\base64.c **** 
 202              		.loc 1 123 44 view .LVU70
 203 00b8 F045     		cmp	r8, lr
 122:D:/fchai/work/i-cube/I-CUBE-HUAWEI/Middlewares/Third_Party/Huawei/iot_link/network/dtls/mbedtls/mbedtls-2.16.2/library\base64.c ****         C2 = ( ( i + 1 ) < slen ) ? *src++ : 0;
 204              		.loc 1 122 12 view .LVU71
 205 00ba 1978     		ldrb	r1, [r3]	@ zero_extendqisi2
 206              	.LVL23:
 123:D:/fchai/work/i-cube/I-CUBE-HUAWEI/Middlewares/Third_Party/Huawei/iot_link/network/dtls/mbedtls/mbedtls-2.16.2/library\base64.c **** 
 207              		.loc 1 123 9 is_stmt 1 view .LVU72
 123:D:/fchai/work/i-cube/I-CUBE-HUAWEI/Middlewares/Third_Party/Huawei/iot_link/network/dtls/mbedtls/mbedtls-2.16.2/library\base64.c **** 
 208              		.loc 1 123 44 is_stmt 0 view .LVU73
 209 00bc 15D3     		bcc	.L19
 210              	.LVL24:
 125:D:/fchai/work/i-cube/I-CUBE-HUAWEI/Middlewares/Third_Party/Huawei/iot_link/network/dtls/mbedtls/mbedtls-2.16.2/library\base64.c ****         *p++ = base64_enc_map[(((C1 & 3) << 4) + (C2 >> 4)) & 0x3F];
 211              		.loc 1 125 9 is_stmt 1 view .LVU74
 126:D:/fchai/work/i-cube/I-CUBE-HUAWEI/Middlewares/Third_Party/Huawei/iot_link/network/dtls/mbedtls/mbedtls-2.16.2/library\base64.c **** 
 212              		.loc 1 126 42 is_stmt 0 view .LVU75
 213 00be 0B01     		lsls	r3, r1, #4
 125:D:/fchai/work/i-cube/I-CUBE-HUAWEI/Middlewares/Third_Party/Huawei/iot_link/network/dtls/mbedtls/mbedtls-2.16.2/library\base64.c ****         *p++ = base64_enc_map[(((C1 & 3) << 4) + (C2 >> 4)) & 0x3F];
 214              		.loc 1 125 30 view .LVU76
 215 00c0 1A4D     		ldr	r5, .L20+4
 126:D:/fchai/work/i-cube/I-CUBE-HUAWEI/Middlewares/Third_Party/Huawei/iot_link/network/dtls/mbedtls/mbedtls-2.16.2/library\base64.c **** 
 216              		.loc 1 126 42 view .LVU77
 217 00c2 03F03003 		and	r3, r3, #48
 125:D:/fchai/work/i-cube/I-CUBE-HUAWEI/Middlewares/Third_Party/Huawei/iot_link/network/dtls/mbedtls/mbedtls-2.16.2/library\base64.c ****         *p++ = base64_enc_map[(((C1 & 3) << 4) + (C2 >> 4)) & 0x3F];
 218              		.loc 1 125 35 view .LVU78
 219 00c6 8910     		asrs	r1, r1, #2
 220              	.LVL25:
 126:D:/fchai/work/i-cube/I-CUBE-HUAWEI/Middlewares/Third_Party/Huawei/iot_link/network/dtls/mbedtls/mbedtls-2.16.2/library\base64.c **** 
 221              		.loc 1 126 14 view .LVU79
 222 00c8 EE5C     		ldrb	r6, [r5, r3]	@ zero_extendqisi2
 125:D:/fchai/work/i-cube/I-CUBE-HUAWEI/Middlewares/Third_Party/Huawei/iot_link/network/dtls/mbedtls/mbedtls-2.16.2/library\base64.c ****         *p++ = base64_enc_map[(((C1 & 3) << 4) + (C2 >> 4)) & 0x3F];
 223              		.loc 1 125 14 view .LVU80
 224 00ca 6B5C     		ldrb	r3, [r5, r1]	@ zero_extendqisi2
 225 00cc 2370     		strb	r3, [r4]
 126:D:/fchai/work/i-cube/I-CUBE-HUAWEI/Middlewares/Third_Party/Huawei/iot_link/network/dtls/mbedtls/mbedtls-2.16.2/library\base64.c **** 
 226              		.loc 1 126 9 is_stmt 1 view .LVU81
 227              	.LVL26:
 128:D:/fchai/work/i-cube/I-CUBE-HUAWEI/Middlewares/Third_Party/Huawei/iot_link/network/dtls/mbedtls/mbedtls-2.16.2/library\base64.c ****              *p++ = base64_enc_map[((C2 & 15) << 2) & 0x3F];
 228              		.loc 1 128 9 view .LVU82
 130:D:/fchai/work/i-cube/I-CUBE-HUAWEI/Middlewares/Third_Party/Huawei/iot_link/network/dtls/mbedtls/mbedtls-2.16.2/library\base64.c **** 
ARM GAS  T:\msys\tmp\ccc421OW.s 			page 8


 229              		.loc 1 130 14 view .LVU83
 126:D:/fchai/work/i-cube/I-CUBE-HUAWEI/Middlewares/Third_Party/Huawei/iot_link/network/dtls/mbedtls/mbedtls-2.16.2/library\base64.c **** 
 230              		.loc 1 126 14 is_stmt 0 view .LVU84
 231 00ce 6670     		strb	r6, [r4, #1]
 130:D:/fchai/work/i-cube/I-CUBE-HUAWEI/Middlewares/Third_Party/Huawei/iot_link/network/dtls/mbedtls/mbedtls-2.16.2/library\base64.c **** 
 232              		.loc 1 130 16 view .LVU85
 233 00d0 E31C     		adds	r3, r4, #3
 234              	.LVL27:
 130:D:/fchai/work/i-cube/I-CUBE-HUAWEI/Middlewares/Third_Party/Huawei/iot_link/network/dtls/mbedtls/mbedtls-2.16.2/library\base64.c **** 
 235              		.loc 1 130 19 view .LVU86
 236 00d2 3D25     		movs	r5, #61
 237              	.LVL28:
 238              	.L11:
 130:D:/fchai/work/i-cube/I-CUBE-HUAWEI/Middlewares/Third_Party/Huawei/iot_link/network/dtls/mbedtls/mbedtls-2.16.2/library\base64.c **** 
 239              		.loc 1 130 19 view .LVU87
 240 00d4 A570     		strb	r5, [r4, #2]
 132:D:/fchai/work/i-cube/I-CUBE-HUAWEI/Middlewares/Third_Party/Huawei/iot_link/network/dtls/mbedtls/mbedtls-2.16.2/library\base64.c ****     }
 241              		.loc 1 132 9 is_stmt 1 view .LVU88
 132:D:/fchai/work/i-cube/I-CUBE-HUAWEI/Middlewares/Third_Party/Huawei/iot_link/network/dtls/mbedtls/mbedtls-2.16.2/library\base64.c ****     }
 242              		.loc 1 132 11 is_stmt 0 view .LVU89
 243 00d6 1C46     		mov	r4, r3
 244              	.LVL29:
 132:D:/fchai/work/i-cube/I-CUBE-HUAWEI/Middlewares/Third_Party/Huawei/iot_link/network/dtls/mbedtls/mbedtls-2.16.2/library\base64.c ****     }
 245              		.loc 1 132 14 view .LVU90
 246 00d8 3D23     		movs	r3, #61
 247              	.LVL30:
 132:D:/fchai/work/i-cube/I-CUBE-HUAWEI/Middlewares/Third_Party/Huawei/iot_link/network/dtls/mbedtls/mbedtls-2.16.2/library\base64.c ****     }
 248              		.loc 1 132 14 view .LVU91
 249 00da 04F8013B 		strb	r3, [r4], #1
 250              	.LVL31:
 132:D:/fchai/work/i-cube/I-CUBE-HUAWEI/Middlewares/Third_Party/Huawei/iot_link/network/dtls/mbedtls/mbedtls-2.16.2/library\base64.c ****     }
 251              		.loc 1 132 14 view .LVU92
 252 00de E2E7     		b	.L9
 253              	.LVL32:
 254              	.L16:
  86:D:/fchai/work/i-cube/I-CUBE-HUAWEI/Middlewares/Third_Party/Huawei/iot_link/network/dtls/mbedtls/mbedtls-2.16.2/library\base64.c ****         return( 0 );
 255              		.loc 1 86 9 is_stmt 1 view .LVU93
  86:D:/fchai/work/i-cube/I-CUBE-HUAWEI/Middlewares/Third_Party/Huawei/iot_link/network/dtls/mbedtls/mbedtls-2.16.2/library\base64.c ****         return( 0 );
 256              		.loc 1 86 15 is_stmt 0 view .LVU94
 257 00e0 C2F800E0 		str	lr, [r2]
  87:D:/fchai/work/i-cube/I-CUBE-HUAWEI/Middlewares/Third_Party/Huawei/iot_link/network/dtls/mbedtls/mbedtls-2.16.2/library\base64.c ****     }
 258              		.loc 1 87 9 is_stmt 1 view .LVU95
  87:D:/fchai/work/i-cube/I-CUBE-HUAWEI/Middlewares/Third_Party/Huawei/iot_link/network/dtls/mbedtls/mbedtls-2.16.2/library\base64.c ****     }
 259              		.loc 1 87 15 is_stmt 0 view .LVU96
 260 00e4 7046     		mov	r0, lr
 261              	.LVL33:
 262              		.loc 1 139 1 view .LVU97
 263 00e6 BDE8F087 		pop	{r4, r5, r6, r7, r8, r9, r10, pc}
 264              	.LVL34:
 265              	.L19:
 123:D:/fchai/work/i-cube/I-CUBE-HUAWEI/Middlewares/Third_Party/Huawei/iot_link/network/dtls/mbedtls/mbedtls-2.16.2/library\base64.c **** 
 266              		.loc 1 123 44 discriminator 1 view .LVU98
 267 00ea 5B78     		ldrb	r3, [r3, #1]	@ zero_extendqisi2
 268              	.LVL35:
 125:D:/fchai/work/i-cube/I-CUBE-HUAWEI/Middlewares/Third_Party/Huawei/iot_link/network/dtls/mbedtls/mbedtls-2.16.2/library\base64.c ****         *p++ = base64_enc_map[(((C1 & 3) << 4) + (C2 >> 4)) & 0x3F];
 269              		.loc 1 125 9 is_stmt 1 discriminator 1 view .LVU99
 125:D:/fchai/work/i-cube/I-CUBE-HUAWEI/Middlewares/Third_Party/Huawei/iot_link/network/dtls/mbedtls/mbedtls-2.16.2/library\base64.c ****         *p++ = base64_enc_map[(((C1 & 3) << 4) + (C2 >> 4)) & 0x3F];
ARM GAS  T:\msys\tmp\ccc421OW.s 			page 9


 270              		.loc 1 125 30 is_stmt 0 discriminator 1 view .LVU100
 271 00ec 0F4E     		ldr	r6, .L20+4
 126:D:/fchai/work/i-cube/I-CUBE-HUAWEI/Middlewares/Third_Party/Huawei/iot_link/network/dtls/mbedtls/mbedtls-2.16.2/library\base64.c **** 
 272              		.loc 1 126 42 discriminator 1 view .LVU101
 273 00ee 0F01     		lsls	r7, r1, #4
 129:D:/fchai/work/i-cube/I-CUBE-HUAWEI/Middlewares/Third_Party/Huawei/iot_link/network/dtls/mbedtls/mbedtls-2.16.2/library\base64.c ****         else *p++ = '=';
 274              		.loc 1 129 47 discriminator 1 view .LVU102
 275 00f0 9D00     		lsls	r5, r3, #2
 126:D:/fchai/work/i-cube/I-CUBE-HUAWEI/Middlewares/Third_Party/Huawei/iot_link/network/dtls/mbedtls/mbedtls-2.16.2/library\base64.c **** 
 276              		.loc 1 126 42 discriminator 1 view .LVU103
 277 00f2 07F03007 		and	r7, r7, #48
 126:D:/fchai/work/i-cube/I-CUBE-HUAWEI/Middlewares/Third_Party/Huawei/iot_link/network/dtls/mbedtls/mbedtls-2.16.2/library\base64.c **** 
 278              		.loc 1 126 30 discriminator 1 view .LVU104
 279 00f6 06EB1313 		add	r3, r6, r3, lsr #4
 280              	.LVL36:
 125:D:/fchai/work/i-cube/I-CUBE-HUAWEI/Middlewares/Third_Party/Huawei/iot_link/network/dtls/mbedtls/mbedtls-2.16.2/library\base64.c ****         *p++ = base64_enc_map[(((C1 & 3) << 4) + (C2 >> 4)) & 0x3F];
 281              		.loc 1 125 35 discriminator 1 view .LVU105
 282 00fa 8910     		asrs	r1, r1, #2
 283              	.LVL37:
 129:D:/fchai/work/i-cube/I-CUBE-HUAWEI/Middlewares/Third_Party/Huawei/iot_link/network/dtls/mbedtls/mbedtls-2.16.2/library\base64.c ****         else *p++ = '=';
 284              		.loc 1 129 53 discriminator 1 view .LVU106
 285 00fc 05F03C05 		and	r5, r5, #60
 126:D:/fchai/work/i-cube/I-CUBE-HUAWEI/Middlewares/Third_Party/Huawei/iot_link/network/dtls/mbedtls/mbedtls-2.16.2/library\base64.c **** 
 286              		.loc 1 126 14 discriminator 1 view .LVU107
 287 0100 DF5D     		ldrb	r7, [r3, r7]	@ zero_extendqisi2
 125:D:/fchai/work/i-cube/I-CUBE-HUAWEI/Middlewares/Third_Party/Huawei/iot_link/network/dtls/mbedtls/mbedtls-2.16.2/library\base64.c ****         *p++ = base64_enc_map[(((C1 & 3) << 4) + (C2 >> 4)) & 0x3F];
 288              		.loc 1 125 14 discriminator 1 view .LVU108
 289 0102 735C     		ldrb	r3, [r6, r1]	@ zero_extendqisi2
 290 0104 2370     		strb	r3, [r4]
 126:D:/fchai/work/i-cube/I-CUBE-HUAWEI/Middlewares/Third_Party/Huawei/iot_link/network/dtls/mbedtls/mbedtls-2.16.2/library\base64.c **** 
 291              		.loc 1 126 9 is_stmt 1 discriminator 1 view .LVU109
 292              	.LVL38:
 128:D:/fchai/work/i-cube/I-CUBE-HUAWEI/Middlewares/Third_Party/Huawei/iot_link/network/dtls/mbedtls/mbedtls-2.16.2/library\base64.c ****              *p++ = base64_enc_map[((C2 & 15) << 2) & 0x3F];
 293              		.loc 1 128 9 discriminator 1 view .LVU110
 129:D:/fchai/work/i-cube/I-CUBE-HUAWEI/Middlewares/Third_Party/Huawei/iot_link/network/dtls/mbedtls/mbedtls-2.16.2/library\base64.c ****         else *p++ = '=';
 294              		.loc 1 129 14 discriminator 1 view .LVU111
 129:D:/fchai/work/i-cube/I-CUBE-HUAWEI/Middlewares/Third_Party/Huawei/iot_link/network/dtls/mbedtls/mbedtls-2.16.2/library\base64.c ****         else *p++ = '=';
 295              		.loc 1 129 35 is_stmt 0 discriminator 1 view .LVU112
 296 0106 755D     		ldrb	r5, [r6, r5]	@ zero_extendqisi2
 126:D:/fchai/work/i-cube/I-CUBE-HUAWEI/Middlewares/Third_Party/Huawei/iot_link/network/dtls/mbedtls/mbedtls-2.16.2/library\base64.c **** 
 297              		.loc 1 126 14 discriminator 1 view .LVU113
 298 0108 6770     		strb	r7, [r4, #1]
 129:D:/fchai/work/i-cube/I-CUBE-HUAWEI/Middlewares/Third_Party/Huawei/iot_link/network/dtls/mbedtls/mbedtls-2.16.2/library\base64.c ****         else *p++ = '=';
 299              		.loc 1 129 16 discriminator 1 view .LVU114
 300 010a E31C     		adds	r3, r4, #3
 301              	.LVL39:
 129:D:/fchai/work/i-cube/I-CUBE-HUAWEI/Middlewares/Third_Party/Huawei/iot_link/network/dtls/mbedtls/mbedtls-2.16.2/library\base64.c ****         else *p++ = '=';
 302              		.loc 1 129 16 discriminator 1 view .LVU115
 303 010c E2E7     		b	.L11
 304              	.LVL40:
 305              	.L12:
 108:D:/fchai/work/i-cube/I-CUBE-HUAWEI/Middlewares/Third_Party/Huawei/iot_link/network/dtls/mbedtls/mbedtls-2.16.2/library\base64.c ****     {
 306              		.loc 1 108 12 view .LVU116
 307 010e C846     		mov	r8, r9
 108:D:/fchai/work/i-cube/I-CUBE-HUAWEI/Middlewares/Third_Party/Huawei/iot_link/network/dtls/mbedtls/mbedtls-2.16.2/library\base64.c ****     {
 308              		.loc 1 108 5 view .LVU117
 309 0110 0446     		mov	r4, r0
ARM GAS  T:\msys\tmp\ccc421OW.s 			page 10


 310 0112 C6E7     		b	.L7
 311              	.LVL41:
 312              	.L5:
 102:D:/fchai/work/i-cube/I-CUBE-HUAWEI/Middlewares/Third_Party/Huawei/iot_link/network/dtls/mbedtls/mbedtls-2.16.2/library\base64.c ****         return( MBEDTLS_ERR_BASE64_BUFFER_TOO_SMALL );
 313              		.loc 1 102 9 is_stmt 1 view .LVU118
 102:D:/fchai/work/i-cube/I-CUBE-HUAWEI/Middlewares/Third_Party/Huawei/iot_link/network/dtls/mbedtls/mbedtls-2.16.2/library\base64.c ****         return( MBEDTLS_ERR_BASE64_BUFFER_TOO_SMALL );
 314              		.loc 1 102 15 is_stmt 0 view .LVU119
 315 0114 1460     		str	r4, [r2]
 103:D:/fchai/work/i-cube/I-CUBE-HUAWEI/Middlewares/Third_Party/Huawei/iot_link/network/dtls/mbedtls/mbedtls-2.16.2/library\base64.c ****     }
 316              		.loc 1 103 9 is_stmt 1 view .LVU120
 103:D:/fchai/work/i-cube/I-CUBE-HUAWEI/Middlewares/Third_Party/Huawei/iot_link/network/dtls/mbedtls/mbedtls-2.16.2/library\base64.c ****     }
 317              		.loc 1 103 15 is_stmt 0 view .LVU121
 318 0116 6FF02900 		mvn	r0, #41
 319              	.LVL42:
 103:D:/fchai/work/i-cube/I-CUBE-HUAWEI/Middlewares/Third_Party/Huawei/iot_link/network/dtls/mbedtls/mbedtls-2.16.2/library\base64.c ****     }
 320              		.loc 1 103 15 view .LVU122
 321 011a C9E7     		b	.L1
 322              	.LVL43:
 323              	.L17:
  94:D:/fchai/work/i-cube/I-CUBE-HUAWEI/Middlewares/Third_Party/Huawei/iot_link/network/dtls/mbedtls/mbedtls-2.16.2/library\base64.c ****         return( MBEDTLS_ERR_BASE64_BUFFER_TOO_SMALL );
 324              		.loc 1 94 9 is_stmt 1 view .LVU123
  94:D:/fchai/work/i-cube/I-CUBE-HUAWEI/Middlewares/Third_Party/Huawei/iot_link/network/dtls/mbedtls/mbedtls-2.16.2/library\base64.c ****         return( MBEDTLS_ERR_BASE64_BUFFER_TOO_SMALL );
 325              		.loc 1 94 15 is_stmt 0 view .LVU124
 326 011c 4FF0FF33 		mov	r3, #-1
 327              	.LVL44:
  94:D:/fchai/work/i-cube/I-CUBE-HUAWEI/Middlewares/Third_Party/Huawei/iot_link/network/dtls/mbedtls/mbedtls-2.16.2/library\base64.c ****         return( MBEDTLS_ERR_BASE64_BUFFER_TOO_SMALL );
 328              		.loc 1 94 15 view .LVU125
 329 0120 1360     		str	r3, [r2]
  95:D:/fchai/work/i-cube/I-CUBE-HUAWEI/Middlewares/Third_Party/Huawei/iot_link/network/dtls/mbedtls/mbedtls-2.16.2/library\base64.c ****     }
 330              		.loc 1 95 9 is_stmt 1 view .LVU126
  95:D:/fchai/work/i-cube/I-CUBE-HUAWEI/Middlewares/Third_Party/Huawei/iot_link/network/dtls/mbedtls/mbedtls-2.16.2/library\base64.c ****     }
 331              		.loc 1 95 15 is_stmt 0 view .LVU127
 332 0122 6FF02900 		mvn	r0, #41
 333              	.LVL45:
  95:D:/fchai/work/i-cube/I-CUBE-HUAWEI/Middlewares/Third_Party/Huawei/iot_link/network/dtls/mbedtls/mbedtls-2.16.2/library\base64.c ****     }
 334              		.loc 1 95 15 view .LVU128
 335 0126 C3E7     		b	.L1
 336              	.L21:
 337              		.align	2
 338              	.L20:
 339 0128 ABAAAAAA 		.word	-1431655765
 340 012c 00000000 		.word	.LANCHOR0
 341              		.cfi_endproc
 342              	.LFE0:
 344              		.section	.text.mbedtls_base64_decode,"ax",%progbits
 345              		.align	1
 346              		.p2align 2,,3
 347              		.global	mbedtls_base64_decode
 348              		.syntax unified
 349              		.thumb
 350              		.thumb_func
 351              		.fpu fpv4-sp-d16
 353              	mbedtls_base64_decode:
 354              	.LVL46:
 355              	.LFB1:
 140:D:/fchai/work/i-cube/I-CUBE-HUAWEI/Middlewares/Third_Party/Huawei/iot_link/network/dtls/mbedtls/mbedtls-2.16.2/library\base64.c **** 
 141:D:/fchai/work/i-cube/I-CUBE-HUAWEI/Middlewares/Third_Party/Huawei/iot_link/network/dtls/mbedtls/mbedtls-2.16.2/library\base64.c **** /*
ARM GAS  T:\msys\tmp\ccc421OW.s 			page 11


 142:D:/fchai/work/i-cube/I-CUBE-HUAWEI/Middlewares/Third_Party/Huawei/iot_link/network/dtls/mbedtls/mbedtls-2.16.2/library\base64.c ****  * Decode a base64-formatted buffer
 143:D:/fchai/work/i-cube/I-CUBE-HUAWEI/Middlewares/Third_Party/Huawei/iot_link/network/dtls/mbedtls/mbedtls-2.16.2/library\base64.c ****  */
 144:D:/fchai/work/i-cube/I-CUBE-HUAWEI/Middlewares/Third_Party/Huawei/iot_link/network/dtls/mbedtls/mbedtls-2.16.2/library\base64.c **** int mbedtls_base64_decode( unsigned char *dst, size_t dlen, size_t *olen,
 145:D:/fchai/work/i-cube/I-CUBE-HUAWEI/Middlewares/Third_Party/Huawei/iot_link/network/dtls/mbedtls/mbedtls-2.16.2/library\base64.c ****                    const unsigned char *src, size_t slen )
 146:D:/fchai/work/i-cube/I-CUBE-HUAWEI/Middlewares/Third_Party/Huawei/iot_link/network/dtls/mbedtls/mbedtls-2.16.2/library\base64.c **** {
 356              		.loc 1 146 1 is_stmt 1 view -0
 357              		.cfi_startproc
 358              		@ args = 4, pretend = 0, frame = 0
 359              		@ frame_needed = 0, uses_anonymous_args = 0
 360              		.loc 1 146 1 is_stmt 0 view .LVU130
 361 0000 2DE9F047 		push	{r4, r5, r6, r7, r8, r9, r10, lr}
 362              	.LCFI1:
 363              		.cfi_def_cfa_offset 32
 364              		.cfi_offset 4, -32
 365              		.cfi_offset 5, -28
 366              		.cfi_offset 6, -24
 367              		.cfi_offset 7, -20
 368              		.cfi_offset 8, -16
 369              		.cfi_offset 9, -12
 370              		.cfi_offset 10, -8
 371              		.cfi_offset 14, -4
 372              		.loc 1 146 1 view .LVU131
 373 0004 DDF820C0 		ldr	ip, [sp, #32]
 374 0008 9146     		mov	r9, r2
 147:D:/fchai/work/i-cube/I-CUBE-HUAWEI/Middlewares/Third_Party/Huawei/iot_link/network/dtls/mbedtls/mbedtls-2.16.2/library\base64.c ****     size_t i, n;
 375              		.loc 1 147 5 is_stmt 1 view .LVU132
 148:D:/fchai/work/i-cube/I-CUBE-HUAWEI/Middlewares/Third_Party/Huawei/iot_link/network/dtls/mbedtls/mbedtls-2.16.2/library\base64.c ****     uint32_t j, x;
 376              		.loc 1 148 5 view .LVU133
 149:D:/fchai/work/i-cube/I-CUBE-HUAWEI/Middlewares/Third_Party/Huawei/iot_link/network/dtls/mbedtls/mbedtls-2.16.2/library\base64.c ****     unsigned char *p;
 377              		.loc 1 149 5 view .LVU134
 150:D:/fchai/work/i-cube/I-CUBE-HUAWEI/Middlewares/Third_Party/Huawei/iot_link/network/dtls/mbedtls/mbedtls-2.16.2/library\base64.c **** 
 151:D:/fchai/work/i-cube/I-CUBE-HUAWEI/Middlewares/Third_Party/Huawei/iot_link/network/dtls/mbedtls/mbedtls-2.16.2/library\base64.c ****     /* First pass: check for validity and get output length */
 152:D:/fchai/work/i-cube/I-CUBE-HUAWEI/Middlewares/Third_Party/Huawei/iot_link/network/dtls/mbedtls/mbedtls-2.16.2/library\base64.c ****     for( i = n = j = 0; i < slen; i++ )
 378              		.loc 1 152 5 view .LVU135
 379              	.LVL47:
 380              		.loc 1 152 25 view .LVU136
 381              		.loc 1 152 5 is_stmt 0 view .LVU137
 382 000a BCF1000F 		cmp	ip, #0
 383 000e 00F09B80 		beq	.L24
 384              		.loc 1 152 20 view .LVU138
 385 0012 0022     		movs	r2, #0
 386              	.LVL48:
 153:D:/fchai/work/i-cube/I-CUBE-HUAWEI/Middlewares/Third_Party/Huawei/iot_link/network/dtls/mbedtls/mbedtls-2.16.2/library\base64.c ****     {
 154:D:/fchai/work/i-cube/I-CUBE-HUAWEI/Middlewares/Third_Party/Huawei/iot_link/network/dtls/mbedtls/mbedtls-2.16.2/library\base64.c ****         /* Skip spaces before checking for EOL */
 155:D:/fchai/work/i-cube/I-CUBE-HUAWEI/Middlewares/Third_Party/Huawei/iot_link/network/dtls/mbedtls/mbedtls-2.16.2/library\base64.c ****         x = 0;
 156:D:/fchai/work/i-cube/I-CUBE-HUAWEI/Middlewares/Third_Party/Huawei/iot_link/network/dtls/mbedtls/mbedtls-2.16.2/library\base64.c ****         while( i < slen && src[i] == ' ' )
 157:D:/fchai/work/i-cube/I-CUBE-HUAWEI/Middlewares/Third_Party/Huawei/iot_link/network/dtls/mbedtls/mbedtls-2.16.2/library\base64.c ****         {
 158:D:/fchai/work/i-cube/I-CUBE-HUAWEI/Middlewares/Third_Party/Huawei/iot_link/network/dtls/mbedtls/mbedtls-2.16.2/library\base64.c ****             ++i;
 159:D:/fchai/work/i-cube/I-CUBE-HUAWEI/Middlewares/Third_Party/Huawei/iot_link/network/dtls/mbedtls/mbedtls-2.16.2/library\base64.c ****             ++x;
 160:D:/fchai/work/i-cube/I-CUBE-HUAWEI/Middlewares/Third_Party/Huawei/iot_link/network/dtls/mbedtls/mbedtls-2.16.2/library\base64.c ****         }
 161:D:/fchai/work/i-cube/I-CUBE-HUAWEI/Middlewares/Third_Party/Huawei/iot_link/network/dtls/mbedtls/mbedtls-2.16.2/library\base64.c **** 
 162:D:/fchai/work/i-cube/I-CUBE-HUAWEI/Middlewares/Third_Party/Huawei/iot_link/network/dtls/mbedtls/mbedtls-2.16.2/library\base64.c ****         /* Spaces at end of buffer are OK */
 163:D:/fchai/work/i-cube/I-CUBE-HUAWEI/Middlewares/Third_Party/Huawei/iot_link/network/dtls/mbedtls/mbedtls-2.16.2/library\base64.c ****         if( i == slen )
 164:D:/fchai/work/i-cube/I-CUBE-HUAWEI/Middlewares/Third_Party/Huawei/iot_link/network/dtls/mbedtls/mbedtls-2.16.2/library\base64.c ****             break;
 165:D:/fchai/work/i-cube/I-CUBE-HUAWEI/Middlewares/Third_Party/Huawei/iot_link/network/dtls/mbedtls/mbedtls-2.16.2/library\base64.c **** 
 166:D:/fchai/work/i-cube/I-CUBE-HUAWEI/Middlewares/Third_Party/Huawei/iot_link/network/dtls/mbedtls/mbedtls-2.16.2/library\base64.c ****         if( ( slen - i ) >= 2 &&
 167:D:/fchai/work/i-cube/I-CUBE-HUAWEI/Middlewares/Third_Party/Huawei/iot_link/network/dtls/mbedtls/mbedtls-2.16.2/library\base64.c ****             src[i] == '\r' && src[i + 1] == '\n' )
ARM GAS  T:\msys\tmp\ccc421OW.s 			page 12


 168:D:/fchai/work/i-cube/I-CUBE-HUAWEI/Middlewares/Third_Party/Huawei/iot_link/network/dtls/mbedtls/mbedtls-2.16.2/library\base64.c ****             continue;
 169:D:/fchai/work/i-cube/I-CUBE-HUAWEI/Middlewares/Third_Party/Huawei/iot_link/network/dtls/mbedtls/mbedtls-2.16.2/library\base64.c **** 
 170:D:/fchai/work/i-cube/I-CUBE-HUAWEI/Middlewares/Third_Party/Huawei/iot_link/network/dtls/mbedtls/mbedtls-2.16.2/library\base64.c ****         if( src[i] == '\n' )
 171:D:/fchai/work/i-cube/I-CUBE-HUAWEI/Middlewares/Third_Party/Huawei/iot_link/network/dtls/mbedtls/mbedtls-2.16.2/library\base64.c ****             continue;
 172:D:/fchai/work/i-cube/I-CUBE-HUAWEI/Middlewares/Third_Party/Huawei/iot_link/network/dtls/mbedtls/mbedtls-2.16.2/library\base64.c **** 
 173:D:/fchai/work/i-cube/I-CUBE-HUAWEI/Middlewares/Third_Party/Huawei/iot_link/network/dtls/mbedtls/mbedtls-2.16.2/library\base64.c ****         /* Space inside a line is an error */
 174:D:/fchai/work/i-cube/I-CUBE-HUAWEI/Middlewares/Third_Party/Huawei/iot_link/network/dtls/mbedtls/mbedtls-2.16.2/library\base64.c ****         if( x != 0 )
 175:D:/fchai/work/i-cube/I-CUBE-HUAWEI/Middlewares/Third_Party/Huawei/iot_link/network/dtls/mbedtls/mbedtls-2.16.2/library\base64.c ****             return( MBEDTLS_ERR_BASE64_INVALID_CHARACTER );
 176:D:/fchai/work/i-cube/I-CUBE-HUAWEI/Middlewares/Third_Party/Huawei/iot_link/network/dtls/mbedtls/mbedtls-2.16.2/library\base64.c **** 
 177:D:/fchai/work/i-cube/I-CUBE-HUAWEI/Middlewares/Third_Party/Huawei/iot_link/network/dtls/mbedtls/mbedtls-2.16.2/library\base64.c ****         if( src[i] == '=' && ++j > 2 )
 178:D:/fchai/work/i-cube/I-CUBE-HUAWEI/Middlewares/Third_Party/Huawei/iot_link/network/dtls/mbedtls/mbedtls-2.16.2/library\base64.c ****             return( MBEDTLS_ERR_BASE64_INVALID_CHARACTER );
 179:D:/fchai/work/i-cube/I-CUBE-HUAWEI/Middlewares/Third_Party/Huawei/iot_link/network/dtls/mbedtls/mbedtls-2.16.2/library\base64.c **** 
 180:D:/fchai/work/i-cube/I-CUBE-HUAWEI/Middlewares/Third_Party/Huawei/iot_link/network/dtls/mbedtls/mbedtls-2.16.2/library\base64.c ****         if( src[i] > 127 || base64_dec_map[src[i]] == 127 )
 387              		.loc 1 180 43 view .LVU139
 388 0014 DFF85481 		ldr	r8, .L74
 152:D:/fchai/work/i-cube/I-CUBE-HUAWEI/Middlewares/Third_Party/Huawei/iot_link/network/dtls/mbedtls/mbedtls-2.16.2/library\base64.c ****     {
 389              		.loc 1 152 16 view .LVU140
 390 0018 9646     		mov	lr, r2
 152:D:/fchai/work/i-cube/I-CUBE-HUAWEI/Middlewares/Third_Party/Huawei/iot_link/network/dtls/mbedtls/mbedtls-2.16.2/library\base64.c ****     {
 391              		.loc 1 152 12 view .LVU141
 392 001a 1446     		mov	r4, r2
 393              	.LVL49:
 394              	.L23:
 152:D:/fchai/work/i-cube/I-CUBE-HUAWEI/Middlewares/Third_Party/Huawei/iot_link/network/dtls/mbedtls/mbedtls-2.16.2/library\base64.c ****     {
 395              		.loc 1 152 12 view .LVU142
 396 001c 651E     		subs	r5, r4, #1
 397 001e 1D44     		add	r5, r5, r3
 155:D:/fchai/work/i-cube/I-CUBE-HUAWEI/Middlewares/Third_Party/Huawei/iot_link/network/dtls/mbedtls/mbedtls-2.16.2/library\base64.c ****         while( i < slen && src[i] == ' ' )
 398              		.loc 1 155 11 view .LVU143
 399 0020 0026     		movs	r6, #0
 400              	.L36:
 158:D:/fchai/work/i-cube/I-CUBE-HUAWEI/Middlewares/Third_Party/Huawei/iot_link/network/dtls/mbedtls/mbedtls-2.16.2/library\base64.c ****             ++x;
 401              		.loc 1 158 13 is_stmt 1 discriminator 1 view .LVU144
 402              	.LVL50:
 156:D:/fchai/work/i-cube/I-CUBE-HUAWEI/Middlewares/Third_Party/Huawei/iot_link/network/dtls/mbedtls/mbedtls-2.16.2/library\base64.c ****         {
 403              		.loc 1 156 25 is_stmt 0 discriminator 1 view .LVU145
 404 0022 15F8017F 		ldrb	r7, [r5, #1]!	@ zero_extendqisi2
 405 0026 202F     		cmp	r7, #32
 406 0028 04D1     		bne	.L25
 158:D:/fchai/work/i-cube/I-CUBE-HUAWEI/Middlewares/Third_Party/Huawei/iot_link/network/dtls/mbedtls/mbedtls-2.16.2/library\base64.c ****             ++x;
 407              		.loc 1 158 13 view .LVU146
 408 002a 0134     		adds	r4, r4, #1
 409              	.LVL51:
 159:D:/fchai/work/i-cube/I-CUBE-HUAWEI/Middlewares/Third_Party/Huawei/iot_link/network/dtls/mbedtls/mbedtls-2.16.2/library\base64.c ****         }
 410              		.loc 1 159 13 is_stmt 1 view .LVU147
 156:D:/fchai/work/i-cube/I-CUBE-HUAWEI/Middlewares/Third_Party/Huawei/iot_link/network/dtls/mbedtls/mbedtls-2.16.2/library\base64.c ****         {
 411              		.loc 1 156 14 is_stmt 0 view .LVU148
 412 002c A445     		cmp	ip, r4
 159:D:/fchai/work/i-cube/I-CUBE-HUAWEI/Middlewares/Third_Party/Huawei/iot_link/network/dtls/mbedtls/mbedtls-2.16.2/library\base64.c ****         }
 413              		.loc 1 159 13 view .LVU149
 414 002e 06F10106 		add	r6, r6, #1
 415              	.LVL52:
 156:D:/fchai/work/i-cube/I-CUBE-HUAWEI/Middlewares/Third_Party/Huawei/iot_link/network/dtls/mbedtls/mbedtls-2.16.2/library\base64.c ****         {
 416              		.loc 1 156 14 is_stmt 1 view .LVU150
 417 0032 F6D8     		bhi	.L36
 418              	.L25:
 163:D:/fchai/work/i-cube/I-CUBE-HUAWEI/Middlewares/Third_Party/Huawei/iot_link/network/dtls/mbedtls/mbedtls-2.16.2/library\base64.c ****             break;
ARM GAS  T:\msys\tmp\ccc421OW.s 			page 13


 419              		.loc 1 163 9 view .LVU151
 163:D:/fchai/work/i-cube/I-CUBE-HUAWEI/Middlewares/Third_Party/Huawei/iot_link/network/dtls/mbedtls/mbedtls-2.16.2/library\base64.c ****             break;
 420              		.loc 1 163 11 is_stmt 0 view .LVU152
 421 0034 6445     		cmp	r4, ip
 422 0036 1CD0     		beq	.L27
 166:D:/fchai/work/i-cube/I-CUBE-HUAWEI/Middlewares/Third_Party/Huawei/iot_link/network/dtls/mbedtls/mbedtls-2.16.2/library\base64.c ****             src[i] == '\r' && src[i + 1] == '\n' )
 423              		.loc 1 166 9 is_stmt 1 view .LVU153
 166:D:/fchai/work/i-cube/I-CUBE-HUAWEI/Middlewares/Third_Party/Huawei/iot_link/network/dtls/mbedtls/mbedtls-2.16.2/library\base64.c ****             src[i] == '\r' && src[i + 1] == '\n' )
 424              		.loc 1 166 20 is_stmt 0 view .LVU154
 425 0038 ACEB0405 		sub	r5, ip, r4
 166:D:/fchai/work/i-cube/I-CUBE-HUAWEI/Middlewares/Third_Party/Huawei/iot_link/network/dtls/mbedtls/mbedtls-2.16.2/library\base64.c ****             src[i] == '\r' && src[i + 1] == '\n' )
 426              		.loc 1 166 11 view .LVU155
 427 003c 012D     		cmp	r5, #1
 167:D:/fchai/work/i-cube/I-CUBE-HUAWEI/Middlewares/Third_Party/Huawei/iot_link/network/dtls/mbedtls/mbedtls-2.16.2/library\base64.c ****             continue;
 428              		.loc 1 167 16 view .LVU156
 429 003e 1D5D     		ldrb	r5, [r3, r4]	@ zero_extendqisi2
 166:D:/fchai/work/i-cube/I-CUBE-HUAWEI/Middlewares/Third_Party/Huawei/iot_link/network/dtls/mbedtls/mbedtls-2.16.2/library\base64.c ****             src[i] == '\r' && src[i + 1] == '\n' )
 430              		.loc 1 166 11 view .LVU157
 431 0040 01D9     		bls	.L29
 166:D:/fchai/work/i-cube/I-CUBE-HUAWEI/Middlewares/Third_Party/Huawei/iot_link/network/dtls/mbedtls/mbedtls-2.16.2/library\base64.c ****             src[i] == '\r' && src[i + 1] == '\n' )
 432              		.loc 1 166 31 discriminator 1 view .LVU158
 433 0042 0D2D     		cmp	r5, #13
 434 0044 73D0     		beq	.L68
 435              	.L29:
 170:D:/fchai/work/i-cube/I-CUBE-HUAWEI/Middlewares/Third_Party/Huawei/iot_link/network/dtls/mbedtls/mbedtls-2.16.2/library\base64.c ****             continue;
 436              		.loc 1 170 9 is_stmt 1 view .LVU159
 170:D:/fchai/work/i-cube/I-CUBE-HUAWEI/Middlewares/Third_Party/Huawei/iot_link/network/dtls/mbedtls/mbedtls-2.16.2/library\base64.c ****             continue;
 437              		.loc 1 170 11 is_stmt 0 view .LVU160
 438 0046 0A2D     		cmp	r5, #10
 439 0048 0FD0     		beq	.L67
 174:D:/fchai/work/i-cube/I-CUBE-HUAWEI/Middlewares/Third_Party/Huawei/iot_link/network/dtls/mbedtls/mbedtls-2.16.2/library\base64.c ****             return( MBEDTLS_ERR_BASE64_INVALID_CHARACTER );
 440              		.loc 1 174 9 is_stmt 1 view .LVU161
 174:D:/fchai/work/i-cube/I-CUBE-HUAWEI/Middlewares/Third_Party/Huawei/iot_link/network/dtls/mbedtls/mbedtls-2.16.2/library\base64.c ****             return( MBEDTLS_ERR_BASE64_INVALID_CHARACTER );
 441              		.loc 1 174 11 is_stmt 0 view .LVU162
 442 004a 002E     		cmp	r6, #0
 443 004c 6BD1     		bne	.L56
 177:D:/fchai/work/i-cube/I-CUBE-HUAWEI/Middlewares/Third_Party/Huawei/iot_link/network/dtls/mbedtls/mbedtls-2.16.2/library\base64.c ****             return( MBEDTLS_ERR_BASE64_INVALID_CHARACTER );
 444              		.loc 1 177 9 is_stmt 1 view .LVU163
 177:D:/fchai/work/i-cube/I-CUBE-HUAWEI/Middlewares/Third_Party/Huawei/iot_link/network/dtls/mbedtls/mbedtls-2.16.2/library\base64.c ****             return( MBEDTLS_ERR_BASE64_INVALID_CHARACTER );
 445              		.loc 1 177 11 is_stmt 0 view .LVU164
 446 004e 3D2D     		cmp	r5, #61
 447 0050 66D0     		beq	.L69
 448              		.loc 1 180 9 is_stmt 1 view .LVU165
 449              		.loc 1 180 11 is_stmt 0 view .LVU166
 450 0052 2E06     		lsls	r6, r5, #24
 451              	.LVL53:
 452              		.loc 1 180 11 view .LVU167
 453 0054 67D4     		bmi	.L56
 454              	.L46:
 455              		.loc 1 180 43 view .LVU168
 456 0056 18F80550 		ldrb	r5, [r8, r5]	@ zero_extendqisi2
 457              		.loc 1 180 26 view .LVU169
 458 005a 7F2D     		cmp	r5, #127
 459 005c 63D0     		beq	.L56
 181:D:/fchai/work/i-cube/I-CUBE-HUAWEI/Middlewares/Third_Party/Huawei/iot_link/network/dtls/mbedtls/mbedtls-2.16.2/library\base64.c ****             return( MBEDTLS_ERR_BASE64_INVALID_CHARACTER );
 182:D:/fchai/work/i-cube/I-CUBE-HUAWEI/Middlewares/Third_Party/Huawei/iot_link/network/dtls/mbedtls/mbedtls-2.16.2/library\base64.c **** 
 183:D:/fchai/work/i-cube/I-CUBE-HUAWEI/Middlewares/Third_Party/Huawei/iot_link/network/dtls/mbedtls/mbedtls-2.16.2/library\base64.c ****         if( base64_dec_map[src[i]] < 64 && j != 0 )
ARM GAS  T:\msys\tmp\ccc421OW.s 			page 14


 460              		.loc 1 183 9 is_stmt 1 view .LVU170
 461              		.loc 1 183 11 is_stmt 0 view .LVU171
 462 005e 3F2D     		cmp	r5, #63
 463 0060 01D8     		bhi	.L35
 464              		.loc 1 183 41 discriminator 1 view .LVU172
 465 0062 002A     		cmp	r2, #0
 466 0064 5FD1     		bne	.L56
 467              	.L35:
 468              	.LVL54:
 184:D:/fchai/work/i-cube/I-CUBE-HUAWEI/Middlewares/Third_Party/Huawei/iot_link/network/dtls/mbedtls/mbedtls-2.16.2/library\base64.c ****             return( MBEDTLS_ERR_BASE64_INVALID_CHARACTER );
 185:D:/fchai/work/i-cube/I-CUBE-HUAWEI/Middlewares/Third_Party/Huawei/iot_link/network/dtls/mbedtls/mbedtls-2.16.2/library\base64.c **** 
 186:D:/fchai/work/i-cube/I-CUBE-HUAWEI/Middlewares/Third_Party/Huawei/iot_link/network/dtls/mbedtls/mbedtls-2.16.2/library\base64.c ****         n++;
 469              		.loc 1 186 9 is_stmt 1 view .LVU173
 470              		.loc 1 186 10 is_stmt 0 view .LVU174
 471 0066 0EF1010E 		add	lr, lr, #1
 472              	.LVL55:
 473              	.L67:
 474              		.loc 1 186 10 view .LVU175
 475 006a 0134     		adds	r4, r4, #1
 476              	.LVL56:
 477              	.L30:
 152:D:/fchai/work/i-cube/I-CUBE-HUAWEI/Middlewares/Third_Party/Huawei/iot_link/network/dtls/mbedtls/mbedtls-2.16.2/library\base64.c ****     {
 478              		.loc 1 152 35 is_stmt 1 discriminator 2 view .LVU176
 152:D:/fchai/work/i-cube/I-CUBE-HUAWEI/Middlewares/Third_Party/Huawei/iot_link/network/dtls/mbedtls/mbedtls-2.16.2/library\base64.c ****     {
 479              		.loc 1 152 25 discriminator 2 view .LVU177
 152:D:/fchai/work/i-cube/I-CUBE-HUAWEI/Middlewares/Third_Party/Huawei/iot_link/network/dtls/mbedtls/mbedtls-2.16.2/library\base64.c ****     {
 480              		.loc 1 152 5 is_stmt 0 discriminator 2 view .LVU178
 481 006c A445     		cmp	ip, r4
 482 006e D5D8     		bhi	.L23
 152:D:/fchai/work/i-cube/I-CUBE-HUAWEI/Middlewares/Third_Party/Huawei/iot_link/network/dtls/mbedtls/mbedtls-2.16.2/library\base64.c ****     {
 483              		.loc 1 152 5 discriminator 2 view .LVU179
 484 0070 A446     		mov	ip, r4
 485              	.LVL57:
 486              	.L27:
 187:D:/fchai/work/i-cube/I-CUBE-HUAWEI/Middlewares/Third_Party/Huawei/iot_link/network/dtls/mbedtls/mbedtls-2.16.2/library\base64.c ****     }
 188:D:/fchai/work/i-cube/I-CUBE-HUAWEI/Middlewares/Third_Party/Huawei/iot_link/network/dtls/mbedtls/mbedtls-2.16.2/library\base64.c **** 
 189:D:/fchai/work/i-cube/I-CUBE-HUAWEI/Middlewares/Third_Party/Huawei/iot_link/network/dtls/mbedtls/mbedtls-2.16.2/library\base64.c ****     if( n == 0 )
 487              		.loc 1 189 5 is_stmt 1 view .LVU180
 488              		.loc 1 189 7 is_stmt 0 view .LVU181
 489 0072 BEF1000F 		cmp	lr, #0
 490 0076 67D0     		beq	.L24
 190:D:/fchai/work/i-cube/I-CUBE-HUAWEI/Middlewares/Third_Party/Huawei/iot_link/network/dtls/mbedtls/mbedtls-2.16.2/library\base64.c ****     {
 191:D:/fchai/work/i-cube/I-CUBE-HUAWEI/Middlewares/Third_Party/Huawei/iot_link/network/dtls/mbedtls/mbedtls-2.16.2/library\base64.c ****         *olen = 0;
 192:D:/fchai/work/i-cube/I-CUBE-HUAWEI/Middlewares/Third_Party/Huawei/iot_link/network/dtls/mbedtls/mbedtls-2.16.2/library\base64.c ****         return( 0 );
 193:D:/fchai/work/i-cube/I-CUBE-HUAWEI/Middlewares/Third_Party/Huawei/iot_link/network/dtls/mbedtls/mbedtls-2.16.2/library\base64.c ****     }
 194:D:/fchai/work/i-cube/I-CUBE-HUAWEI/Middlewares/Third_Party/Huawei/iot_link/network/dtls/mbedtls/mbedtls-2.16.2/library\base64.c **** 
 195:D:/fchai/work/i-cube/I-CUBE-HUAWEI/Middlewares/Third_Party/Huawei/iot_link/network/dtls/mbedtls/mbedtls-2.16.2/library\base64.c ****     /* The following expression is to calculate the following formula without
 196:D:/fchai/work/i-cube/I-CUBE-HUAWEI/Middlewares/Third_Party/Huawei/iot_link/network/dtls/mbedtls/mbedtls-2.16.2/library\base64.c ****      * risk of integer overflow in n:
 197:D:/fchai/work/i-cube/I-CUBE-HUAWEI/Middlewares/Third_Party/Huawei/iot_link/network/dtls/mbedtls/mbedtls-2.16.2/library\base64.c ****      *     n = ( ( n * 6 ) + 7 ) >> 3;
 198:D:/fchai/work/i-cube/I-CUBE-HUAWEI/Middlewares/Third_Party/Huawei/iot_link/network/dtls/mbedtls/mbedtls-2.16.2/library\base64.c ****      */
 199:D:/fchai/work/i-cube/I-CUBE-HUAWEI/Middlewares/Third_Party/Huawei/iot_link/network/dtls/mbedtls/mbedtls-2.16.2/library\base64.c ****     n = ( 6 * ( n >> 3 ) ) + ( ( 6 * ( n & 0x7 ) + 7 ) >> 3 );
 491              		.loc 1 199 5 is_stmt 1 view .LVU182
 492              		.loc 1 199 42 is_stmt 0 view .LVU183
 493 0078 0EF00704 		and	r4, lr, #7
 494              		.loc 1 199 36 view .LVU184
 495 007c 04EB4404 		add	r4, r4, r4, lsl #1
 496              		.loc 1 199 19 view .LVU185
ARM GAS  T:\msys\tmp\ccc421OW.s 			page 15


 497 0080 4FEADE0E 		lsr	lr, lr, #3
 498              	.LVL58:
 499              		.loc 1 199 36 view .LVU186
 500 0084 6400     		lsls	r4, r4, #1
 501              		.loc 1 199 13 view .LVU187
 502 0086 0EEB4E0E 		add	lr, lr, lr, lsl #1
 503              		.loc 1 199 50 view .LVU188
 504 008a 0734     		adds	r4, r4, #7
 200:D:/fchai/work/i-cube/I-CUBE-HUAWEI/Middlewares/Third_Party/Huawei/iot_link/network/dtls/mbedtls/mbedtls-2.16.2/library\base64.c ****     n -= j;
 505              		.loc 1 200 5 is_stmt 1 view .LVU189
 506 008c C2EB4E02 		rsb	r2, r2, lr, lsl #1
 507              	.LVL59:
 508              		.loc 1 200 7 is_stmt 0 view .LVU190
 509 0090 02EBD402 		add	r2, r2, r4, lsr #3
 510              	.LVL60:
 201:D:/fchai/work/i-cube/I-CUBE-HUAWEI/Middlewares/Third_Party/Huawei/iot_link/network/dtls/mbedtls/mbedtls-2.16.2/library\base64.c **** 
 202:D:/fchai/work/i-cube/I-CUBE-HUAWEI/Middlewares/Third_Party/Huawei/iot_link/network/dtls/mbedtls/mbedtls-2.16.2/library\base64.c ****     if( dst == NULL || dlen < n )
 511              		.loc 1 202 5 is_stmt 1 view .LVU191
 512              		.loc 1 202 7 is_stmt 0 view .LVU192
 513 0094 0028     		cmp	r0, #0
 514 0096 60D0     		beq	.L38
 515              		.loc 1 202 21 discriminator 1 view .LVU193
 516 0098 8A42     		cmp	r2, r1
 517 009a 5ED8     		bhi	.L38
 518              	.LVL61:
 203:D:/fchai/work/i-cube/I-CUBE-HUAWEI/Middlewares/Third_Party/Huawei/iot_link/network/dtls/mbedtls/mbedtls-2.16.2/library\base64.c ****     {
 204:D:/fchai/work/i-cube/I-CUBE-HUAWEI/Middlewares/Third_Party/Huawei/iot_link/network/dtls/mbedtls/mbedtls-2.16.2/library\base64.c ****         *olen = n;
 205:D:/fchai/work/i-cube/I-CUBE-HUAWEI/Middlewares/Third_Party/Huawei/iot_link/network/dtls/mbedtls/mbedtls-2.16.2/library\base64.c ****         return( MBEDTLS_ERR_BASE64_BUFFER_TOO_SMALL );
 206:D:/fchai/work/i-cube/I-CUBE-HUAWEI/Middlewares/Third_Party/Huawei/iot_link/network/dtls/mbedtls/mbedtls-2.16.2/library\base64.c ****     }
 207:D:/fchai/work/i-cube/I-CUBE-HUAWEI/Middlewares/Third_Party/Huawei/iot_link/network/dtls/mbedtls/mbedtls-2.16.2/library\base64.c **** 
 208:D:/fchai/work/i-cube/I-CUBE-HUAWEI/Middlewares/Third_Party/Huawei/iot_link/network/dtls/mbedtls/mbedtls-2.16.2/library\base64.c ****    for( j = 3, n = x = 0, p = dst; i > 0; i--, src++ )
 519              		.loc 1 208 36 is_stmt 1 view .LVU194
 520              		.loc 1 208 4 is_stmt 0 view .LVU195
 521 009c BCF1000F 		cmp	ip, #0
 522 00a0 39D0     		beq	.L40
 523 00a2 013B     		subs	r3, r3, #1
 524              	.LVL62:
 525              		.loc 1 208 22 view .LVU196
 526 00a4 0026     		movs	r6, #0
 527 00a6 03EB0C07 		add	r7, r3, ip
 209:D:/fchai/work/i-cube/I-CUBE-HUAWEI/Middlewares/Third_Party/Huawei/iot_link/network/dtls/mbedtls/mbedtls-2.16.2/library\base64.c ****    {
 210:D:/fchai/work/i-cube/I-CUBE-HUAWEI/Middlewares/Third_Party/Huawei/iot_link/network/dtls/mbedtls/mbedtls-2.16.2/library\base64.c ****         if( *src == '\r' || *src == '\n' || *src == ' ' )
 211:D:/fchai/work/i-cube/I-CUBE-HUAWEI/Middlewares/Third_Party/Huawei/iot_link/network/dtls/mbedtls/mbedtls-2.16.2/library\base64.c ****             continue;
 212:D:/fchai/work/i-cube/I-CUBE-HUAWEI/Middlewares/Third_Party/Huawei/iot_link/network/dtls/mbedtls/mbedtls-2.16.2/library\base64.c **** 
 213:D:/fchai/work/i-cube/I-CUBE-HUAWEI/Middlewares/Third_Party/Huawei/iot_link/network/dtls/mbedtls/mbedtls-2.16.2/library\base64.c ****         j -= ( base64_dec_map[*src] == 64 );
 528              		.loc 1 213 30 view .LVU197
 529 00aa DFF8C0E0 		ldr	lr, .L74
 210:D:/fchai/work/i-cube/I-CUBE-HUAWEI/Middlewares/Third_Party/Huawei/iot_link/network/dtls/mbedtls/mbedtls-2.16.2/library\base64.c ****             continue;
 530              		.loc 1 210 26 view .LVU198
 531 00ae DFF8C080 		ldr	r8, .L74+4
 208:D:/fchai/work/i-cube/I-CUBE-HUAWEI/Middlewares/Third_Party/Huawei/iot_link/network/dtls/mbedtls/mbedtls-2.16.2/library\base64.c ****    {
 532              		.loc 1 208 18 view .LVU199
 533 00b2 3446     		mov	r4, r6
 208:D:/fchai/work/i-cube/I-CUBE-HUAWEI/Middlewares/Third_Party/Huawei/iot_link/network/dtls/mbedtls/mbedtls-2.16.2/library\base64.c ****    {
 534              		.loc 1 208 4 view .LVU200
 535 00b4 8446     		mov	ip, r0
 536              	.LVL63:
ARM GAS  T:\msys\tmp\ccc421OW.s 			page 16


 208:D:/fchai/work/i-cube/I-CUBE-HUAWEI/Middlewares/Third_Party/Huawei/iot_link/network/dtls/mbedtls/mbedtls-2.16.2/library\base64.c ****    {
 537              		.loc 1 208 11 view .LVU201
 538 00b6 0325     		movs	r5, #3
 539 00b8 01E0     		b	.L45
 540              	.LVL64:
 541              	.L42:
 208:D:/fchai/work/i-cube/I-CUBE-HUAWEI/Middlewares/Third_Party/Huawei/iot_link/network/dtls/mbedtls/mbedtls-2.16.2/library\base64.c ****    {
 542              		.loc 1 208 43 is_stmt 1 discriminator 2 view .LVU202
 208:D:/fchai/work/i-cube/I-CUBE-HUAWEI/Middlewares/Third_Party/Huawei/iot_link/network/dtls/mbedtls/mbedtls-2.16.2/library\base64.c ****    {
 543              		.loc 1 208 36 discriminator 2 view .LVU203
 208:D:/fchai/work/i-cube/I-CUBE-HUAWEI/Middlewares/Third_Party/Huawei/iot_link/network/dtls/mbedtls/mbedtls-2.16.2/library\base64.c ****    {
 544              		.loc 1 208 4 is_stmt 0 discriminator 2 view .LVU204
 545 00ba 9F42     		cmp	r7, r3
 546 00bc 29D0     		beq	.L70
 547              	.LVL65:
 548              	.L45:
 210:D:/fchai/work/i-cube/I-CUBE-HUAWEI/Middlewares/Third_Party/Huawei/iot_link/network/dtls/mbedtls/mbedtls-2.16.2/library\base64.c ****             continue;
 549              		.loc 1 210 9 is_stmt 1 view .LVU205
 210:D:/fchai/work/i-cube/I-CUBE-HUAWEI/Middlewares/Third_Party/Huawei/iot_link/network/dtls/mbedtls/mbedtls-2.16.2/library\base64.c ****             continue;
 550              		.loc 1 210 13 is_stmt 0 view .LVU206
 551 00be 13F8011F 		ldrb	r1, [r3, #1]!	@ zero_extendqisi2
 552              	.LVL66:
 210:D:/fchai/work/i-cube/I-CUBE-HUAWEI/Middlewares/Third_Party/Huawei/iot_link/network/dtls/mbedtls/mbedtls-2.16.2/library\base64.c ****             continue;
 553              		.loc 1 210 26 view .LVU207
 554 00c2 A1F10A02 		sub	r2, r1, #10
 555 00c6 D2B2     		uxtb	r2, r2
 556 00c8 162A     		cmp	r2, #22
 557 00ca 03D8     		bhi	.L41
 210:D:/fchai/work/i-cube/I-CUBE-HUAWEI/Middlewares/Third_Party/Huawei/iot_link/network/dtls/mbedtls/mbedtls-2.16.2/library\base64.c ****             continue;
 558              		.loc 1 210 26 discriminator 1 view .LVU208
 559 00cc 28FA02F2 		lsr	r2, r8, r2
 560 00d0 D207     		lsls	r2, r2, #31
 561 00d2 F2D4     		bmi	.L42
 562              	.L41:
 563              		.loc 1 213 9 is_stmt 1 view .LVU209
 564              		.loc 1 213 30 is_stmt 0 view .LVU210
 565 00d4 1EF80120 		ldrb	r2, [lr, r1]	@ zero_extendqisi2
 214:D:/fchai/work/i-cube/I-CUBE-HUAWEI/Middlewares/Third_Party/Huawei/iot_link/network/dtls/mbedtls/mbedtls-2.16.2/library\base64.c ****         x  = ( x << 6 ) | ( base64_dec_map[*src] & 0x3F );
 215:D:/fchai/work/i-cube/I-CUBE-HUAWEI/Middlewares/Third_Party/Huawei/iot_link/network/dtls/mbedtls/mbedtls-2.16.2/library\base64.c **** 
 216:D:/fchai/work/i-cube/I-CUBE-HUAWEI/Middlewares/Third_Party/Huawei/iot_link/network/dtls/mbedtls/mbedtls-2.16.2/library\base64.c ****         if( ++n == 4 )
 566              		.loc 1 216 11 view .LVU211
 567 00d8 0134     		adds	r4, r4, #1
 568              	.LVL67:
 214:D:/fchai/work/i-cube/I-CUBE-HUAWEI/Middlewares/Third_Party/Huawei/iot_link/network/dtls/mbedtls/mbedtls-2.16.2/library\base64.c ****         x  = ( x << 6 ) | ( base64_dec_map[*src] & 0x3F );
 569              		.loc 1 214 50 view .LVU212
 570 00da 02F03F01 		and	r1, r2, #63
 213:D:/fchai/work/i-cube/I-CUBE-HUAWEI/Middlewares/Third_Party/Huawei/iot_link/network/dtls/mbedtls/mbedtls-2.16.2/library\base64.c ****         x  = ( x << 6 ) | ( base64_dec_map[*src] & 0x3F );
 571              		.loc 1 213 11 view .LVU213
 572 00de 402A     		cmp	r2, #64
 573 00e0 08BF     		it	eq
 574 00e2 013D     		subeq	r5, r5, #1
 575              	.LVL68:
 214:D:/fchai/work/i-cube/I-CUBE-HUAWEI/Middlewares/Third_Party/Huawei/iot_link/network/dtls/mbedtls/mbedtls-2.16.2/library\base64.c ****         x  = ( x << 6 ) | ( base64_dec_map[*src] & 0x3F );
 576              		.loc 1 214 9 is_stmt 1 view .LVU214
 577              		.loc 1 216 11 is_stmt 0 view .LVU215
 578 00e4 042C     		cmp	r4, #4
 214:D:/fchai/work/i-cube/I-CUBE-HUAWEI/Middlewares/Third_Party/Huawei/iot_link/network/dtls/mbedtls/mbedtls-2.16.2/library\base64.c ****         x  = ( x << 6 ) | ( base64_dec_map[*src] & 0x3F );
ARM GAS  T:\msys\tmp\ccc421OW.s 			page 17


 579              		.loc 1 214 12 view .LVU216
 580 00e6 41EA8616 		orr	r6, r1, r6, lsl #6
 581              	.LVL69:
 582              		.loc 1 216 9 is_stmt 1 view .LVU217
 583              		.loc 1 216 11 is_stmt 0 view .LVU218
 584 00ea E6D1     		bne	.L42
 217:D:/fchai/work/i-cube/I-CUBE-HUAWEI/Middlewares/Third_Party/Huawei/iot_link/network/dtls/mbedtls/mbedtls-2.16.2/library\base64.c ****         {
 218:D:/fchai/work/i-cube/I-CUBE-HUAWEI/Middlewares/Third_Party/Huawei/iot_link/network/dtls/mbedtls/mbedtls-2.16.2/library\base64.c ****             n = 0;
 585              		.loc 1 218 13 is_stmt 1 view .LVU219
 586              	.LVL70:
 219:D:/fchai/work/i-cube/I-CUBE-HUAWEI/Middlewares/Third_Party/Huawei/iot_link/network/dtls/mbedtls/mbedtls-2.16.2/library\base64.c ****             if( j > 0 ) *p++ = (unsigned char)( x >> 16 );
 587              		.loc 1 219 13 view .LVU220
 588              		.loc 1 219 15 is_stmt 0 view .LVU221
 589 00ec 55B3     		cbz	r5, .L55
 590              		.loc 1 219 25 is_stmt 1 discriminator 1 view .LVU222
 591              	.LVL71:
 592              		.loc 1 219 51 is_stmt 0 discriminator 1 view .LVU223
 593 00ee 320C     		lsrs	r2, r6, #16
 220:D:/fchai/work/i-cube/I-CUBE-HUAWEI/Middlewares/Third_Party/Huawei/iot_link/network/dtls/mbedtls/mbedtls-2.16.2/library\base64.c ****             if( j > 1 ) *p++ = (unsigned char)( x >>  8 );
 594              		.loc 1 220 15 discriminator 1 view .LVU224
 595 00f0 012D     		cmp	r5, #1
 219:D:/fchai/work/i-cube/I-CUBE-HUAWEI/Middlewares/Third_Party/Huawei/iot_link/network/dtls/mbedtls/mbedtls-2.16.2/library\base64.c ****             if( j > 0 ) *p++ = (unsigned char)( x >> 16 );
 596              		.loc 1 219 32 discriminator 1 view .LVU225
 597 00f2 8CF80020 		strb	r2, [ip]
 598              		.loc 1 220 13 is_stmt 1 discriminator 1 view .LVU226
 599              		.loc 1 220 15 is_stmt 0 discriminator 1 view .LVU227
 600 00f6 35D0     		beq	.L71
 601              		.loc 1 220 25 is_stmt 1 discriminator 1 view .LVU228
 602              	.LVL72:
 603              		.loc 1 220 51 is_stmt 0 discriminator 1 view .LVU229
 604 00f8 320A     		lsrs	r2, r6, #8
 221:D:/fchai/work/i-cube/I-CUBE-HUAWEI/Middlewares/Third_Party/Huawei/iot_link/network/dtls/mbedtls/mbedtls-2.16.2/library\base64.c ****             if( j > 2 ) *p++ = (unsigned char)( x       );
 605              		.loc 1 221 15 discriminator 1 view .LVU230
 606 00fa 022D     		cmp	r5, #2
 220:D:/fchai/work/i-cube/I-CUBE-HUAWEI/Middlewares/Third_Party/Huawei/iot_link/network/dtls/mbedtls/mbedtls-2.16.2/library\base64.c ****             if( j > 1 ) *p++ = (unsigned char)( x >>  8 );
 607              		.loc 1 220 32 discriminator 1 view .LVU231
 608 00fc 8CF80120 		strb	r2, [ip, #1]
 609              		.loc 1 221 13 is_stmt 1 discriminator 1 view .LVU232
 610              		.loc 1 221 15 is_stmt 0 discriminator 1 view .LVU233
 611 0100 27D0     		beq	.L72
 612              		.loc 1 221 25 is_stmt 1 discriminator 1 view .LVU234
 613              	.LVL73:
 208:D:/fchai/work/i-cube/I-CUBE-HUAWEI/Middlewares/Third_Party/Huawei/iot_link/network/dtls/mbedtls/mbedtls-2.16.2/library\base64.c ****    {
 614              		.loc 1 208 4 is_stmt 0 discriminator 1 view .LVU235
 615 0102 9F42     		cmp	r7, r3
 616              		.loc 1 221 32 discriminator 1 view .LVU236
 617 0104 8CF80260 		strb	r6, [ip, #2]
 218:D:/fchai/work/i-cube/I-CUBE-HUAWEI/Middlewares/Third_Party/Huawei/iot_link/network/dtls/mbedtls/mbedtls-2.16.2/library\base64.c ****             if( j > 0 ) *p++ = (unsigned char)( x >> 16 );
 618              		.loc 1 218 15 discriminator 1 view .LVU237
 619 0108 4FF00004 		mov	r4, #0
 620              		.loc 1 221 27 discriminator 1 view .LVU238
 621 010c 0CF1030C 		add	ip, ip, #3
 622              	.LVL74:
 208:D:/fchai/work/i-cube/I-CUBE-HUAWEI/Middlewares/Third_Party/Huawei/iot_link/network/dtls/mbedtls/mbedtls-2.16.2/library\base64.c ****    {
 623              		.loc 1 208 43 is_stmt 1 discriminator 1 view .LVU239
 208:D:/fchai/work/i-cube/I-CUBE-HUAWEI/Middlewares/Third_Party/Huawei/iot_link/network/dtls/mbedtls/mbedtls-2.16.2/library\base64.c ****    {
 624              		.loc 1 208 36 discriminator 1 view .LVU240
ARM GAS  T:\msys\tmp\ccc421OW.s 			page 18


 208:D:/fchai/work/i-cube/I-CUBE-HUAWEI/Middlewares/Third_Party/Huawei/iot_link/network/dtls/mbedtls/mbedtls-2.16.2/library\base64.c ****    {
 625              		.loc 1 208 4 is_stmt 0 discriminator 1 view .LVU241
 626 0110 D5D1     		bne	.L45
 627              	.LVL75:
 628              	.L70:
 208:D:/fchai/work/i-cube/I-CUBE-HUAWEI/Middlewares/Third_Party/Huawei/iot_link/network/dtls/mbedtls/mbedtls-2.16.2/library\base64.c ****    {
 629              		.loc 1 208 4 discriminator 1 view .LVU242
 630 0112 ACEB000C 		sub	ip, ip, r0
 631              	.LVL76:
 632              	.L40:
 222:D:/fchai/work/i-cube/I-CUBE-HUAWEI/Middlewares/Third_Party/Huawei/iot_link/network/dtls/mbedtls/mbedtls-2.16.2/library\base64.c ****         }
 223:D:/fchai/work/i-cube/I-CUBE-HUAWEI/Middlewares/Third_Party/Huawei/iot_link/network/dtls/mbedtls/mbedtls-2.16.2/library\base64.c ****     }
 224:D:/fchai/work/i-cube/I-CUBE-HUAWEI/Middlewares/Third_Party/Huawei/iot_link/network/dtls/mbedtls/mbedtls-2.16.2/library\base64.c **** 
 225:D:/fchai/work/i-cube/I-CUBE-HUAWEI/Middlewares/Third_Party/Huawei/iot_link/network/dtls/mbedtls/mbedtls-2.16.2/library\base64.c ****     *olen = p - dst;
 633              		.loc 1 225 5 is_stmt 1 view .LVU243
 634              		.loc 1 225 11 is_stmt 0 view .LVU244
 635 0116 C9F800C0 		str	ip, [r9]
 226:D:/fchai/work/i-cube/I-CUBE-HUAWEI/Middlewares/Third_Party/Huawei/iot_link/network/dtls/mbedtls/mbedtls-2.16.2/library\base64.c **** 
 227:D:/fchai/work/i-cube/I-CUBE-HUAWEI/Middlewares/Third_Party/Huawei/iot_link/network/dtls/mbedtls/mbedtls-2.16.2/library\base64.c ****     return( 0 );
 636              		.loc 1 227 5 is_stmt 1 view .LVU245
 637              		.loc 1 227 11 is_stmt 0 view .LVU246
 638 011a 0020     		movs	r0, #0
 639              	.LVL77:
 228:D:/fchai/work/i-cube/I-CUBE-HUAWEI/Middlewares/Third_Party/Huawei/iot_link/network/dtls/mbedtls/mbedtls-2.16.2/library\base64.c **** }
 640              		.loc 1 228 1 view .LVU247
 641 011c BDE8F087 		pop	{r4, r5, r6, r7, r8, r9, r10, pc}
 642              	.LVL78:
 643              	.L69:
 177:D:/fchai/work/i-cube/I-CUBE-HUAWEI/Middlewares/Third_Party/Huawei/iot_link/network/dtls/mbedtls/mbedtls-2.16.2/library\base64.c ****             return( MBEDTLS_ERR_BASE64_INVALID_CHARACTER );
 644              		.loc 1 177 27 discriminator 1 view .LVU248
 645 0120 0132     		adds	r2, r2, #1
 646              	.LVL79:
 177:D:/fchai/work/i-cube/I-CUBE-HUAWEI/Middlewares/Third_Party/Huawei/iot_link/network/dtls/mbedtls/mbedtls-2.16.2/library\base64.c ****             return( MBEDTLS_ERR_BASE64_INVALID_CHARACTER );
 647              		.loc 1 177 27 discriminator 1 view .LVU249
 648 0122 022A     		cmp	r2, #2
 649 0124 9FD9     		bls	.L35
 650              	.LVL80:
 651              	.L56:
 175:D:/fchai/work/i-cube/I-CUBE-HUAWEI/Middlewares/Third_Party/Huawei/iot_link/network/dtls/mbedtls/mbedtls-2.16.2/library\base64.c **** 
 652              		.loc 1 175 19 view .LVU250
 653 0126 6FF02B00 		mvn	r0, #43
 654              	.LVL81:
 655              	.L22:
 656              		.loc 1 228 1 view .LVU251
 657 012a BDE8F087 		pop	{r4, r5, r6, r7, r8, r9, r10, pc}
 658              	.LVL82:
 659              	.L68:
 167:D:/fchai/work/i-cube/I-CUBE-HUAWEI/Middlewares/Third_Party/Huawei/iot_link/network/dtls/mbedtls/mbedtls-2.16.2/library\base64.c ****             continue;
 660              		.loc 1 167 34 view .LVU252
 661 012e 671C     		adds	r7, r4, #1
 167:D:/fchai/work/i-cube/I-CUBE-HUAWEI/Middlewares/Third_Party/Huawei/iot_link/network/dtls/mbedtls/mbedtls-2.16.2/library\base64.c ****             continue;
 662              		.loc 1 167 28 view .LVU253
 663 0130 13F807A0 		ldrb	r10, [r3, r7]	@ zero_extendqisi2
 664 0134 BAF10A0F 		cmp	r10, #10
 665 0138 02D0     		beq	.L73
 174:D:/fchai/work/i-cube/I-CUBE-HUAWEI/Middlewares/Third_Party/Huawei/iot_link/network/dtls/mbedtls/mbedtls-2.16.2/library\base64.c ****             return( MBEDTLS_ERR_BASE64_INVALID_CHARACTER );
 666              		.loc 1 174 9 is_stmt 1 view .LVU254
ARM GAS  T:\msys\tmp\ccc421OW.s 			page 19


 174:D:/fchai/work/i-cube/I-CUBE-HUAWEI/Middlewares/Third_Party/Huawei/iot_link/network/dtls/mbedtls/mbedtls-2.16.2/library\base64.c ****             return( MBEDTLS_ERR_BASE64_INVALID_CHARACTER );
 667              		.loc 1 174 11 is_stmt 0 view .LVU255
 668 013a 002E     		cmp	r6, #0
 669 013c 8BD0     		beq	.L46
 670 013e F2E7     		b	.L56
 671              	.L73:
 672 0140 3C46     		mov	r4, r7
 673              	.LVL83:
 174:D:/fchai/work/i-cube/I-CUBE-HUAWEI/Middlewares/Third_Party/Huawei/iot_link/network/dtls/mbedtls/mbedtls-2.16.2/library\base64.c ****             return( MBEDTLS_ERR_BASE64_INVALID_CHARACTER );
 674              		.loc 1 174 11 view .LVU256
 675 0142 93E7     		b	.L30
 676              	.LVL84:
 677              	.L55:
 218:D:/fchai/work/i-cube/I-CUBE-HUAWEI/Middlewares/Third_Party/Huawei/iot_link/network/dtls/mbedtls/mbedtls-2.16.2/library\base64.c ****             if( j > 0 ) *p++ = (unsigned char)( x >> 16 );
 678              		.loc 1 218 15 view .LVU257
 679 0144 2C46     		mov	r4, r5
 680 0146 B8E7     		b	.L42
 681              	.LVL85:
 682              	.L24:
 191:D:/fchai/work/i-cube/I-CUBE-HUAWEI/Middlewares/Third_Party/Huawei/iot_link/network/dtls/mbedtls/mbedtls-2.16.2/library\base64.c ****         return( 0 );
 683              		.loc 1 191 9 is_stmt 1 view .LVU258
 191:D:/fchai/work/i-cube/I-CUBE-HUAWEI/Middlewares/Third_Party/Huawei/iot_link/network/dtls/mbedtls/mbedtls-2.16.2/library\base64.c ****         return( 0 );
 684              		.loc 1 191 15 is_stmt 0 view .LVU259
 685 0148 0020     		movs	r0, #0
 686              	.LVL86:
 191:D:/fchai/work/i-cube/I-CUBE-HUAWEI/Middlewares/Third_Party/Huawei/iot_link/network/dtls/mbedtls/mbedtls-2.16.2/library\base64.c ****         return( 0 );
 687              		.loc 1 191 15 view .LVU260
 688 014a C9F80000 		str	r0, [r9]
 192:D:/fchai/work/i-cube/I-CUBE-HUAWEI/Middlewares/Third_Party/Huawei/iot_link/network/dtls/mbedtls/mbedtls-2.16.2/library\base64.c ****     }
 689              		.loc 1 192 9 is_stmt 1 view .LVU261
 690              		.loc 1 228 1 is_stmt 0 view .LVU262
 691 014e BDE8F087 		pop	{r4, r5, r6, r7, r8, r9, r10, pc}
 692              	.LVL87:
 693              	.L72:
 220:D:/fchai/work/i-cube/I-CUBE-HUAWEI/Middlewares/Third_Party/Huawei/iot_link/network/dtls/mbedtls/mbedtls-2.16.2/library\base64.c ****             if( j > 2 ) *p++ = (unsigned char)( x       );
 694              		.loc 1 220 27 view .LVU263
 695 0152 0CF1020C 		add	ip, ip, #2
 696              	.LVL88:
 218:D:/fchai/work/i-cube/I-CUBE-HUAWEI/Middlewares/Third_Party/Huawei/iot_link/network/dtls/mbedtls/mbedtls-2.16.2/library\base64.c ****             if( j > 0 ) *p++ = (unsigned char)( x >> 16 );
 697              		.loc 1 218 15 view .LVU264
 698 0156 0024     		movs	r4, #0
 699 0158 AFE7     		b	.L42
 700              	.LVL89:
 701              	.L38:
 204:D:/fchai/work/i-cube/I-CUBE-HUAWEI/Middlewares/Third_Party/Huawei/iot_link/network/dtls/mbedtls/mbedtls-2.16.2/library\base64.c ****         return( MBEDTLS_ERR_BASE64_BUFFER_TOO_SMALL );
 702              		.loc 1 204 9 is_stmt 1 view .LVU265
 204:D:/fchai/work/i-cube/I-CUBE-HUAWEI/Middlewares/Third_Party/Huawei/iot_link/network/dtls/mbedtls/mbedtls-2.16.2/library\base64.c ****         return( MBEDTLS_ERR_BASE64_BUFFER_TOO_SMALL );
 703              		.loc 1 204 15 is_stmt 0 view .LVU266
 704 015a C9F80020 		str	r2, [r9]
 205:D:/fchai/work/i-cube/I-CUBE-HUAWEI/Middlewares/Third_Party/Huawei/iot_link/network/dtls/mbedtls/mbedtls-2.16.2/library\base64.c ****     }
 705              		.loc 1 205 9 is_stmt 1 view .LVU267
 205:D:/fchai/work/i-cube/I-CUBE-HUAWEI/Middlewares/Third_Party/Huawei/iot_link/network/dtls/mbedtls/mbedtls-2.16.2/library\base64.c ****     }
 706              		.loc 1 205 15 is_stmt 0 view .LVU268
 707 015e 6FF02900 		mvn	r0, #41
 708              	.LVL90:
 205:D:/fchai/work/i-cube/I-CUBE-HUAWEI/Middlewares/Third_Party/Huawei/iot_link/network/dtls/mbedtls/mbedtls-2.16.2/library\base64.c ****     }
 709              		.loc 1 205 15 view .LVU269
ARM GAS  T:\msys\tmp\ccc421OW.s 			page 20


 710 0162 E2E7     		b	.L22
 711              	.LVL91:
 712              	.L71:
 219:D:/fchai/work/i-cube/I-CUBE-HUAWEI/Middlewares/Third_Party/Huawei/iot_link/network/dtls/mbedtls/mbedtls-2.16.2/library\base64.c ****             if( j > 1 ) *p++ = (unsigned char)( x >>  8 );
 713              		.loc 1 219 27 view .LVU270
 714 0164 0CF1010C 		add	ip, ip, #1
 715              	.LVL92:
 218:D:/fchai/work/i-cube/I-CUBE-HUAWEI/Middlewares/Third_Party/Huawei/iot_link/network/dtls/mbedtls/mbedtls-2.16.2/library\base64.c ****             if( j > 0 ) *p++ = (unsigned char)( x >> 16 );
 716              		.loc 1 218 15 view .LVU271
 717 0168 0024     		movs	r4, #0
 718 016a A6E7     		b	.L42
 719              	.L75:
 720              		.align	2
 721              	.L74:
 722 016c 00000000 		.word	.LANCHOR1
 723 0170 09004000 		.word	4194313
 724              		.cfi_endproc
 725              	.LFE1:
 727              		.section	.rodata.base64_dec_map,"a"
 728              		.align	2
 729              		.set	.LANCHOR1,. + 0
 732              	base64_dec_map:
 733 0000 7F7F7F7F 		.ascii	"\177\177\177\177\177\177\177\177\177\177\177\177\177"
 733      7F7F7F7F 
 733      7F7F7F7F 
 733      7F
 734 000d 7F7F7F7F 		.ascii	"\177\177\177\177\177\177\177\177\177\177\177\177\177"
 734      7F7F7F7F 
 734      7F7F7F7F 
 734      7F
 735 001a 7F7F7F7F 		.ascii	"\177\177\177\177\177\177\177\177\177\177\177\177\177"
 735      7F7F7F7F 
 735      7F7F7F7F 
 735      7F
 736 0027 7F7F7F7F 		.ascii	"\177\177\177\177>\177\177\177?456789:;<=\177\177\177"
 736      3E7F7F7F 
 736      3F343536 
 736      3738393A 
 736      3B3C3D7F 
 737 003d 407F7F7F 		.ascii	"@\177\177\177\000\001\002\003\004\005\006\007\010\011"
 737      00010203 
 737      04050607 
 737      0809
 738 004b 0A0B0C0D 		.ascii	"\012\013\014\015\016\017\020\021\022\023\024\025\026"
 738      0E0F1011 
 738      12131415 
 738      16
 739 0058 1718197F 		.ascii	"\027\030\031\177\177\177\177\177\177\032\033\034\035"
 739      7F7F7F7F 
 739      7F1A1B1C 
 739      1D
 740 0065 1E1F2021 		.ascii	"\036\037 !\"#$%&'()*+,-./0123\177\177\177\177\177"
 740      22232425 
 740      26272829 
 740      2A2B2C2D 
 740      2E2F3031 
 741              		.section	.rodata.base64_enc_map,"a"
ARM GAS  T:\msys\tmp\ccc421OW.s 			page 21


 742              		.align	2
 743              		.set	.LANCHOR0,. + 0
 746              	base64_enc_map:
 747 0000 41424344 		.ascii	"ABCDEFGHIJKLMNOPQRSTUVWXYZabcdefghijklmnopqrstuvwxy"
 747      45464748 
 747      494A4B4C 
 747      4D4E4F50 
 747      51525354 
 748 0033 7A303132 		.ascii	"z0123456789+/"
 748      33343536 
 748      3738392B 
 748      2F
 749              		.text
 750              	.Letext0:
 751              		.file 2 "t:\\msys\\3rd\\gcc-arm-none-eabi-9-2020-q2-update-win32\\arm-none-eabi\\include\\machine\
 752              		.file 3 "t:\\msys\\3rd\\gcc-arm-none-eabi-9-2020-q2-update-win32\\lib\\gcc\\arm-none-eabi\\9.3.1\\
 753              		.file 4 "t:\\msys\\3rd\\gcc-arm-none-eabi-9-2020-q2-update-win32\\arm-none-eabi\\include\\sys\\_st
ARM GAS  T:\msys\tmp\ccc421OW.s 			page 22

