ARM GAS  T:\msys\tmp\cctaHzaT.s 			page 1


   1              		.cpu cortex-m4
   2              		.eabi_attribute 27, 1
   3              		.eabi_attribute 28, 1
   4              		.eabi_attribute 20, 1
   5              		.eabi_attribute 21, 1
   6              		.eabi_attribute 23, 3
   7              		.eabi_attribute 24, 1
   8              		.eabi_attribute 25, 1
   9              		.eabi_attribute 26, 1
  10              		.eabi_attribute 30, 2
  11              		.eabi_attribute 34, 1
  12              		.eabi_attribute 18, 4
  13              		.file	"ecdh.c"
  14              		.text
  15              	.Ltext0:
  16              		.cfi_sections	.debug_frame
  17              		.section	.text.ecdh_compute_shared_restartable.constprop.0,"ax",%progbits
  18              		.align	1
  19              		.p2align 2,,3
  20              		.arch armv7e-m
  21              		.syntax unified
  22              		.thumb
  23              		.thumb_func
  24              		.fpu fpv4-sp-d16
  26              	ecdh_compute_shared_restartable.constprop.0:
  27              	.LVL0:
  28              	.LFB28:
  29              		.file 1 "D:/fchai/work/i-cube/I-CUBE-HUAWEI/Middlewares/Third_Party/Huawei/iot_link/network/dtls/m
   1:D:/fchai/work/i-cube/I-CUBE-HUAWEI/Middlewares/Third_Party/Huawei/iot_link/network/dtls/mbedtls/mbedtls-2.16.2/library\ecdh.c **** /*
   2:D:/fchai/work/i-cube/I-CUBE-HUAWEI/Middlewares/Third_Party/Huawei/iot_link/network/dtls/mbedtls/mbedtls-2.16.2/library\ecdh.c ****  *  Elliptic curve Diffie-Hellman
   3:D:/fchai/work/i-cube/I-CUBE-HUAWEI/Middlewares/Third_Party/Huawei/iot_link/network/dtls/mbedtls/mbedtls-2.16.2/library\ecdh.c ****  *
   4:D:/fchai/work/i-cube/I-CUBE-HUAWEI/Middlewares/Third_Party/Huawei/iot_link/network/dtls/mbedtls/mbedtls-2.16.2/library\ecdh.c ****  *  Copyright (C) 2006-2015, ARM Limited, All Rights Reserved
   5:D:/fchai/work/i-cube/I-CUBE-HUAWEI/Middlewares/Third_Party/Huawei/iot_link/network/dtls/mbedtls/mbedtls-2.16.2/library\ecdh.c ****  *  SPDX-License-Identifier: Apache-2.0
   6:D:/fchai/work/i-cube/I-CUBE-HUAWEI/Middlewares/Third_Party/Huawei/iot_link/network/dtls/mbedtls/mbedtls-2.16.2/library\ecdh.c ****  *
   7:D:/fchai/work/i-cube/I-CUBE-HUAWEI/Middlewares/Third_Party/Huawei/iot_link/network/dtls/mbedtls/mbedtls-2.16.2/library\ecdh.c ****  *  Licensed under the Apache License, Version 2.0 (the "License"); you may
   8:D:/fchai/work/i-cube/I-CUBE-HUAWEI/Middlewares/Third_Party/Huawei/iot_link/network/dtls/mbedtls/mbedtls-2.16.2/library\ecdh.c ****  *  not use this file except in compliance with the License.
   9:D:/fchai/work/i-cube/I-CUBE-HUAWEI/Middlewares/Third_Party/Huawei/iot_link/network/dtls/mbedtls/mbedtls-2.16.2/library\ecdh.c ****  *  You may obtain a copy of the License at
  10:D:/fchai/work/i-cube/I-CUBE-HUAWEI/Middlewares/Third_Party/Huawei/iot_link/network/dtls/mbedtls/mbedtls-2.16.2/library\ecdh.c ****  *
  11:D:/fchai/work/i-cube/I-CUBE-HUAWEI/Middlewares/Third_Party/Huawei/iot_link/network/dtls/mbedtls/mbedtls-2.16.2/library\ecdh.c ****  *  http://www.apache.org/licenses/LICENSE-2.0
  12:D:/fchai/work/i-cube/I-CUBE-HUAWEI/Middlewares/Third_Party/Huawei/iot_link/network/dtls/mbedtls/mbedtls-2.16.2/library\ecdh.c ****  *
  13:D:/fchai/work/i-cube/I-CUBE-HUAWEI/Middlewares/Third_Party/Huawei/iot_link/network/dtls/mbedtls/mbedtls-2.16.2/library\ecdh.c ****  *  Unless required by applicable law or agreed to in writing, software
  14:D:/fchai/work/i-cube/I-CUBE-HUAWEI/Middlewares/Third_Party/Huawei/iot_link/network/dtls/mbedtls/mbedtls-2.16.2/library\ecdh.c ****  *  distributed under the License is distributed on an "AS IS" BASIS, WITHOUT
  15:D:/fchai/work/i-cube/I-CUBE-HUAWEI/Middlewares/Third_Party/Huawei/iot_link/network/dtls/mbedtls/mbedtls-2.16.2/library\ecdh.c ****  *  WARRANTIES OR CONDITIONS OF ANY KIND, either express or implied.
  16:D:/fchai/work/i-cube/I-CUBE-HUAWEI/Middlewares/Third_Party/Huawei/iot_link/network/dtls/mbedtls/mbedtls-2.16.2/library\ecdh.c ****  *  See the License for the specific language governing permissions and
  17:D:/fchai/work/i-cube/I-CUBE-HUAWEI/Middlewares/Third_Party/Huawei/iot_link/network/dtls/mbedtls/mbedtls-2.16.2/library\ecdh.c ****  *  limitations under the License.
  18:D:/fchai/work/i-cube/I-CUBE-HUAWEI/Middlewares/Third_Party/Huawei/iot_link/network/dtls/mbedtls/mbedtls-2.16.2/library\ecdh.c ****  *
  19:D:/fchai/work/i-cube/I-CUBE-HUAWEI/Middlewares/Third_Party/Huawei/iot_link/network/dtls/mbedtls/mbedtls-2.16.2/library\ecdh.c ****  *  This file is part of mbed TLS (https://tls.mbed.org)
  20:D:/fchai/work/i-cube/I-CUBE-HUAWEI/Middlewares/Third_Party/Huawei/iot_link/network/dtls/mbedtls/mbedtls-2.16.2/library\ecdh.c ****  */
  21:D:/fchai/work/i-cube/I-CUBE-HUAWEI/Middlewares/Third_Party/Huawei/iot_link/network/dtls/mbedtls/mbedtls-2.16.2/library\ecdh.c **** 
  22:D:/fchai/work/i-cube/I-CUBE-HUAWEI/Middlewares/Third_Party/Huawei/iot_link/network/dtls/mbedtls/mbedtls-2.16.2/library\ecdh.c **** /*
  23:D:/fchai/work/i-cube/I-CUBE-HUAWEI/Middlewares/Third_Party/Huawei/iot_link/network/dtls/mbedtls/mbedtls-2.16.2/library\ecdh.c ****  * References:
  24:D:/fchai/work/i-cube/I-CUBE-HUAWEI/Middlewares/Third_Party/Huawei/iot_link/network/dtls/mbedtls/mbedtls-2.16.2/library\ecdh.c ****  *
  25:D:/fchai/work/i-cube/I-CUBE-HUAWEI/Middlewares/Third_Party/Huawei/iot_link/network/dtls/mbedtls/mbedtls-2.16.2/library\ecdh.c ****  * SEC1 http://www.secg.org/index.php?action=secg,docs_secg
  26:D:/fchai/work/i-cube/I-CUBE-HUAWEI/Middlewares/Third_Party/Huawei/iot_link/network/dtls/mbedtls/mbedtls-2.16.2/library\ecdh.c ****  * RFC 4492
  27:D:/fchai/work/i-cube/I-CUBE-HUAWEI/Middlewares/Third_Party/Huawei/iot_link/network/dtls/mbedtls/mbedtls-2.16.2/library\ecdh.c ****  */
  28:D:/fchai/work/i-cube/I-CUBE-HUAWEI/Middlewares/Third_Party/Huawei/iot_link/network/dtls/mbedtls/mbedtls-2.16.2/library\ecdh.c **** 
  29:D:/fchai/work/i-cube/I-CUBE-HUAWEI/Middlewares/Third_Party/Huawei/iot_link/network/dtls/mbedtls/mbedtls-2.16.2/library\ecdh.c **** #if !defined(MBEDTLS_CONFIG_FILE)
ARM GAS  T:\msys\tmp\cctaHzaT.s 			page 2


  30:D:/fchai/work/i-cube/I-CUBE-HUAWEI/Middlewares/Third_Party/Huawei/iot_link/network/dtls/mbedtls/mbedtls-2.16.2/library\ecdh.c **** #include "mbedtls/config.h"
  31:D:/fchai/work/i-cube/I-CUBE-HUAWEI/Middlewares/Third_Party/Huawei/iot_link/network/dtls/mbedtls/mbedtls-2.16.2/library\ecdh.c **** #else
  32:D:/fchai/work/i-cube/I-CUBE-HUAWEI/Middlewares/Third_Party/Huawei/iot_link/network/dtls/mbedtls/mbedtls-2.16.2/library\ecdh.c **** #include MBEDTLS_CONFIG_FILE
  33:D:/fchai/work/i-cube/I-CUBE-HUAWEI/Middlewares/Third_Party/Huawei/iot_link/network/dtls/mbedtls/mbedtls-2.16.2/library\ecdh.c **** #endif
  34:D:/fchai/work/i-cube/I-CUBE-HUAWEI/Middlewares/Third_Party/Huawei/iot_link/network/dtls/mbedtls/mbedtls-2.16.2/library\ecdh.c **** 
  35:D:/fchai/work/i-cube/I-CUBE-HUAWEI/Middlewares/Third_Party/Huawei/iot_link/network/dtls/mbedtls/mbedtls-2.16.2/library\ecdh.c **** #if defined(MBEDTLS_ECDH_C)
  36:D:/fchai/work/i-cube/I-CUBE-HUAWEI/Middlewares/Third_Party/Huawei/iot_link/network/dtls/mbedtls/mbedtls-2.16.2/library\ecdh.c **** 
  37:D:/fchai/work/i-cube/I-CUBE-HUAWEI/Middlewares/Third_Party/Huawei/iot_link/network/dtls/mbedtls/mbedtls-2.16.2/library\ecdh.c **** #include "mbedtls/ecdh.h"
  38:D:/fchai/work/i-cube/I-CUBE-HUAWEI/Middlewares/Third_Party/Huawei/iot_link/network/dtls/mbedtls/mbedtls-2.16.2/library\ecdh.c **** #include "mbedtls/platform_util.h"
  39:D:/fchai/work/i-cube/I-CUBE-HUAWEI/Middlewares/Third_Party/Huawei/iot_link/network/dtls/mbedtls/mbedtls-2.16.2/library\ecdh.c **** 
  40:D:/fchai/work/i-cube/I-CUBE-HUAWEI/Middlewares/Third_Party/Huawei/iot_link/network/dtls/mbedtls/mbedtls-2.16.2/library\ecdh.c **** #include <string.h>
  41:D:/fchai/work/i-cube/I-CUBE-HUAWEI/Middlewares/Third_Party/Huawei/iot_link/network/dtls/mbedtls/mbedtls-2.16.2/library\ecdh.c **** 
  42:D:/fchai/work/i-cube/I-CUBE-HUAWEI/Middlewares/Third_Party/Huawei/iot_link/network/dtls/mbedtls/mbedtls-2.16.2/library\ecdh.c **** /* Parameter validation macros based on platform_util.h */
  43:D:/fchai/work/i-cube/I-CUBE-HUAWEI/Middlewares/Third_Party/Huawei/iot_link/network/dtls/mbedtls/mbedtls-2.16.2/library\ecdh.c **** #define ECDH_VALIDATE_RET( cond )    \
  44:D:/fchai/work/i-cube/I-CUBE-HUAWEI/Middlewares/Third_Party/Huawei/iot_link/network/dtls/mbedtls/mbedtls-2.16.2/library\ecdh.c ****     MBEDTLS_INTERNAL_VALIDATE_RET( cond, MBEDTLS_ERR_ECP_BAD_INPUT_DATA )
  45:D:/fchai/work/i-cube/I-CUBE-HUAWEI/Middlewares/Third_Party/Huawei/iot_link/network/dtls/mbedtls/mbedtls-2.16.2/library\ecdh.c **** #define ECDH_VALIDATE( cond )        \
  46:D:/fchai/work/i-cube/I-CUBE-HUAWEI/Middlewares/Third_Party/Huawei/iot_link/network/dtls/mbedtls/mbedtls-2.16.2/library\ecdh.c ****     MBEDTLS_INTERNAL_VALIDATE( cond )
  47:D:/fchai/work/i-cube/I-CUBE-HUAWEI/Middlewares/Third_Party/Huawei/iot_link/network/dtls/mbedtls/mbedtls-2.16.2/library\ecdh.c **** 
  48:D:/fchai/work/i-cube/I-CUBE-HUAWEI/Middlewares/Third_Party/Huawei/iot_link/network/dtls/mbedtls/mbedtls-2.16.2/library\ecdh.c **** #if defined(MBEDTLS_ECDH_LEGACY_CONTEXT)
  49:D:/fchai/work/i-cube/I-CUBE-HUAWEI/Middlewares/Third_Party/Huawei/iot_link/network/dtls/mbedtls/mbedtls-2.16.2/library\ecdh.c **** typedef mbedtls_ecdh_context mbedtls_ecdh_context_mbed;
  50:D:/fchai/work/i-cube/I-CUBE-HUAWEI/Middlewares/Third_Party/Huawei/iot_link/network/dtls/mbedtls/mbedtls-2.16.2/library\ecdh.c **** #endif
  51:D:/fchai/work/i-cube/I-CUBE-HUAWEI/Middlewares/Third_Party/Huawei/iot_link/network/dtls/mbedtls/mbedtls-2.16.2/library\ecdh.c **** 
  52:D:/fchai/work/i-cube/I-CUBE-HUAWEI/Middlewares/Third_Party/Huawei/iot_link/network/dtls/mbedtls/mbedtls-2.16.2/library\ecdh.c **** static mbedtls_ecp_group_id mbedtls_ecdh_grp_id(
  53:D:/fchai/work/i-cube/I-CUBE-HUAWEI/Middlewares/Third_Party/Huawei/iot_link/network/dtls/mbedtls/mbedtls-2.16.2/library\ecdh.c ****     const mbedtls_ecdh_context *ctx )
  54:D:/fchai/work/i-cube/I-CUBE-HUAWEI/Middlewares/Third_Party/Huawei/iot_link/network/dtls/mbedtls/mbedtls-2.16.2/library\ecdh.c **** {
  55:D:/fchai/work/i-cube/I-CUBE-HUAWEI/Middlewares/Third_Party/Huawei/iot_link/network/dtls/mbedtls/mbedtls-2.16.2/library\ecdh.c **** #if defined(MBEDTLS_ECDH_LEGACY_CONTEXT)
  56:D:/fchai/work/i-cube/I-CUBE-HUAWEI/Middlewares/Third_Party/Huawei/iot_link/network/dtls/mbedtls/mbedtls-2.16.2/library\ecdh.c ****     return( ctx->grp.id );
  57:D:/fchai/work/i-cube/I-CUBE-HUAWEI/Middlewares/Third_Party/Huawei/iot_link/network/dtls/mbedtls/mbedtls-2.16.2/library\ecdh.c **** #else
  58:D:/fchai/work/i-cube/I-CUBE-HUAWEI/Middlewares/Third_Party/Huawei/iot_link/network/dtls/mbedtls/mbedtls-2.16.2/library\ecdh.c ****     return( ctx->grp_id );
  59:D:/fchai/work/i-cube/I-CUBE-HUAWEI/Middlewares/Third_Party/Huawei/iot_link/network/dtls/mbedtls/mbedtls-2.16.2/library\ecdh.c **** #endif
  60:D:/fchai/work/i-cube/I-CUBE-HUAWEI/Middlewares/Third_Party/Huawei/iot_link/network/dtls/mbedtls/mbedtls-2.16.2/library\ecdh.c **** }
  61:D:/fchai/work/i-cube/I-CUBE-HUAWEI/Middlewares/Third_Party/Huawei/iot_link/network/dtls/mbedtls/mbedtls-2.16.2/library\ecdh.c **** 
  62:D:/fchai/work/i-cube/I-CUBE-HUAWEI/Middlewares/Third_Party/Huawei/iot_link/network/dtls/mbedtls/mbedtls-2.16.2/library\ecdh.c **** #if !defined(MBEDTLS_ECDH_GEN_PUBLIC_ALT)
  63:D:/fchai/work/i-cube/I-CUBE-HUAWEI/Middlewares/Third_Party/Huawei/iot_link/network/dtls/mbedtls/mbedtls-2.16.2/library\ecdh.c **** /*
  64:D:/fchai/work/i-cube/I-CUBE-HUAWEI/Middlewares/Third_Party/Huawei/iot_link/network/dtls/mbedtls/mbedtls-2.16.2/library\ecdh.c ****  * Generate public key (restartable version)
  65:D:/fchai/work/i-cube/I-CUBE-HUAWEI/Middlewares/Third_Party/Huawei/iot_link/network/dtls/mbedtls/mbedtls-2.16.2/library\ecdh.c ****  *
  66:D:/fchai/work/i-cube/I-CUBE-HUAWEI/Middlewares/Third_Party/Huawei/iot_link/network/dtls/mbedtls/mbedtls-2.16.2/library\ecdh.c ****  * Note: this internal function relies on its caller preserving the value of
  67:D:/fchai/work/i-cube/I-CUBE-HUAWEI/Middlewares/Third_Party/Huawei/iot_link/network/dtls/mbedtls/mbedtls-2.16.2/library\ecdh.c ****  * the output parameter 'd' across continuation calls. This would not be
  68:D:/fchai/work/i-cube/I-CUBE-HUAWEI/Middlewares/Third_Party/Huawei/iot_link/network/dtls/mbedtls/mbedtls-2.16.2/library\ecdh.c ****  * acceptable for a public function but is OK here as we control call sites.
  69:D:/fchai/work/i-cube/I-CUBE-HUAWEI/Middlewares/Third_Party/Huawei/iot_link/network/dtls/mbedtls/mbedtls-2.16.2/library\ecdh.c ****  */
  70:D:/fchai/work/i-cube/I-CUBE-HUAWEI/Middlewares/Third_Party/Huawei/iot_link/network/dtls/mbedtls/mbedtls-2.16.2/library\ecdh.c **** static int ecdh_gen_public_restartable( mbedtls_ecp_group *grp,
  71:D:/fchai/work/i-cube/I-CUBE-HUAWEI/Middlewares/Third_Party/Huawei/iot_link/network/dtls/mbedtls/mbedtls-2.16.2/library\ecdh.c ****                     mbedtls_mpi *d, mbedtls_ecp_point *Q,
  72:D:/fchai/work/i-cube/I-CUBE-HUAWEI/Middlewares/Third_Party/Huawei/iot_link/network/dtls/mbedtls/mbedtls-2.16.2/library\ecdh.c ****                     int (*f_rng)(void *, unsigned char *, size_t),
  73:D:/fchai/work/i-cube/I-CUBE-HUAWEI/Middlewares/Third_Party/Huawei/iot_link/network/dtls/mbedtls/mbedtls-2.16.2/library\ecdh.c ****                     void *p_rng,
  74:D:/fchai/work/i-cube/I-CUBE-HUAWEI/Middlewares/Third_Party/Huawei/iot_link/network/dtls/mbedtls/mbedtls-2.16.2/library\ecdh.c ****                     mbedtls_ecp_restart_ctx *rs_ctx )
  75:D:/fchai/work/i-cube/I-CUBE-HUAWEI/Middlewares/Third_Party/Huawei/iot_link/network/dtls/mbedtls/mbedtls-2.16.2/library\ecdh.c **** {
  76:D:/fchai/work/i-cube/I-CUBE-HUAWEI/Middlewares/Third_Party/Huawei/iot_link/network/dtls/mbedtls/mbedtls-2.16.2/library\ecdh.c ****     int ret;
  77:D:/fchai/work/i-cube/I-CUBE-HUAWEI/Middlewares/Third_Party/Huawei/iot_link/network/dtls/mbedtls/mbedtls-2.16.2/library\ecdh.c **** 
  78:D:/fchai/work/i-cube/I-CUBE-HUAWEI/Middlewares/Third_Party/Huawei/iot_link/network/dtls/mbedtls/mbedtls-2.16.2/library\ecdh.c ****     /* If multiplication is in progress, we already generated a privkey */
  79:D:/fchai/work/i-cube/I-CUBE-HUAWEI/Middlewares/Third_Party/Huawei/iot_link/network/dtls/mbedtls/mbedtls-2.16.2/library\ecdh.c **** #if defined(MBEDTLS_ECP_RESTARTABLE)
  80:D:/fchai/work/i-cube/I-CUBE-HUAWEI/Middlewares/Third_Party/Huawei/iot_link/network/dtls/mbedtls/mbedtls-2.16.2/library\ecdh.c ****     if( rs_ctx == NULL || rs_ctx->rsm == NULL )
  81:D:/fchai/work/i-cube/I-CUBE-HUAWEI/Middlewares/Third_Party/Huawei/iot_link/network/dtls/mbedtls/mbedtls-2.16.2/library\ecdh.c **** #endif
  82:D:/fchai/work/i-cube/I-CUBE-HUAWEI/Middlewares/Third_Party/Huawei/iot_link/network/dtls/mbedtls/mbedtls-2.16.2/library\ecdh.c ****         MBEDTLS_MPI_CHK( mbedtls_ecp_gen_privkey( grp, d, f_rng, p_rng ) );
  83:D:/fchai/work/i-cube/I-CUBE-HUAWEI/Middlewares/Third_Party/Huawei/iot_link/network/dtls/mbedtls/mbedtls-2.16.2/library\ecdh.c **** 
  84:D:/fchai/work/i-cube/I-CUBE-HUAWEI/Middlewares/Third_Party/Huawei/iot_link/network/dtls/mbedtls/mbedtls-2.16.2/library\ecdh.c ****     MBEDTLS_MPI_CHK( mbedtls_ecp_mul_restartable( grp, Q, d, &grp->G,
  85:D:/fchai/work/i-cube/I-CUBE-HUAWEI/Middlewares/Third_Party/Huawei/iot_link/network/dtls/mbedtls/mbedtls-2.16.2/library\ecdh.c ****                                                   f_rng, p_rng, rs_ctx ) );
  86:D:/fchai/work/i-cube/I-CUBE-HUAWEI/Middlewares/Third_Party/Huawei/iot_link/network/dtls/mbedtls/mbedtls-2.16.2/library\ecdh.c **** 
ARM GAS  T:\msys\tmp\cctaHzaT.s 			page 3


  87:D:/fchai/work/i-cube/I-CUBE-HUAWEI/Middlewares/Third_Party/Huawei/iot_link/network/dtls/mbedtls/mbedtls-2.16.2/library\ecdh.c **** cleanup:
  88:D:/fchai/work/i-cube/I-CUBE-HUAWEI/Middlewares/Third_Party/Huawei/iot_link/network/dtls/mbedtls/mbedtls-2.16.2/library\ecdh.c ****     return( ret );
  89:D:/fchai/work/i-cube/I-CUBE-HUAWEI/Middlewares/Third_Party/Huawei/iot_link/network/dtls/mbedtls/mbedtls-2.16.2/library\ecdh.c **** }
  90:D:/fchai/work/i-cube/I-CUBE-HUAWEI/Middlewares/Third_Party/Huawei/iot_link/network/dtls/mbedtls/mbedtls-2.16.2/library\ecdh.c **** 
  91:D:/fchai/work/i-cube/I-CUBE-HUAWEI/Middlewares/Third_Party/Huawei/iot_link/network/dtls/mbedtls/mbedtls-2.16.2/library\ecdh.c **** /*
  92:D:/fchai/work/i-cube/I-CUBE-HUAWEI/Middlewares/Third_Party/Huawei/iot_link/network/dtls/mbedtls/mbedtls-2.16.2/library\ecdh.c ****  * Generate public key
  93:D:/fchai/work/i-cube/I-CUBE-HUAWEI/Middlewares/Third_Party/Huawei/iot_link/network/dtls/mbedtls/mbedtls-2.16.2/library\ecdh.c ****  */
  94:D:/fchai/work/i-cube/I-CUBE-HUAWEI/Middlewares/Third_Party/Huawei/iot_link/network/dtls/mbedtls/mbedtls-2.16.2/library\ecdh.c **** int mbedtls_ecdh_gen_public( mbedtls_ecp_group *grp, mbedtls_mpi *d, mbedtls_ecp_point *Q,
  95:D:/fchai/work/i-cube/I-CUBE-HUAWEI/Middlewares/Third_Party/Huawei/iot_link/network/dtls/mbedtls/mbedtls-2.16.2/library\ecdh.c ****                      int (*f_rng)(void *, unsigned char *, size_t),
  96:D:/fchai/work/i-cube/I-CUBE-HUAWEI/Middlewares/Third_Party/Huawei/iot_link/network/dtls/mbedtls/mbedtls-2.16.2/library\ecdh.c ****                      void *p_rng )
  97:D:/fchai/work/i-cube/I-CUBE-HUAWEI/Middlewares/Third_Party/Huawei/iot_link/network/dtls/mbedtls/mbedtls-2.16.2/library\ecdh.c **** {
  98:D:/fchai/work/i-cube/I-CUBE-HUAWEI/Middlewares/Third_Party/Huawei/iot_link/network/dtls/mbedtls/mbedtls-2.16.2/library\ecdh.c ****     ECDH_VALIDATE_RET( grp != NULL );
  99:D:/fchai/work/i-cube/I-CUBE-HUAWEI/Middlewares/Third_Party/Huawei/iot_link/network/dtls/mbedtls/mbedtls-2.16.2/library\ecdh.c ****     ECDH_VALIDATE_RET( d != NULL );
 100:D:/fchai/work/i-cube/I-CUBE-HUAWEI/Middlewares/Third_Party/Huawei/iot_link/network/dtls/mbedtls/mbedtls-2.16.2/library\ecdh.c ****     ECDH_VALIDATE_RET( Q != NULL );
 101:D:/fchai/work/i-cube/I-CUBE-HUAWEI/Middlewares/Third_Party/Huawei/iot_link/network/dtls/mbedtls/mbedtls-2.16.2/library\ecdh.c ****     ECDH_VALIDATE_RET( f_rng != NULL );
 102:D:/fchai/work/i-cube/I-CUBE-HUAWEI/Middlewares/Third_Party/Huawei/iot_link/network/dtls/mbedtls/mbedtls-2.16.2/library\ecdh.c ****     return( ecdh_gen_public_restartable( grp, d, Q, f_rng, p_rng, NULL ) );
 103:D:/fchai/work/i-cube/I-CUBE-HUAWEI/Middlewares/Third_Party/Huawei/iot_link/network/dtls/mbedtls/mbedtls-2.16.2/library\ecdh.c **** }
 104:D:/fchai/work/i-cube/I-CUBE-HUAWEI/Middlewares/Third_Party/Huawei/iot_link/network/dtls/mbedtls/mbedtls-2.16.2/library\ecdh.c **** #endif /* !MBEDTLS_ECDH_GEN_PUBLIC_ALT */
 105:D:/fchai/work/i-cube/I-CUBE-HUAWEI/Middlewares/Third_Party/Huawei/iot_link/network/dtls/mbedtls/mbedtls-2.16.2/library\ecdh.c **** 
 106:D:/fchai/work/i-cube/I-CUBE-HUAWEI/Middlewares/Third_Party/Huawei/iot_link/network/dtls/mbedtls/mbedtls-2.16.2/library\ecdh.c **** #if !defined(MBEDTLS_ECDH_COMPUTE_SHARED_ALT)
 107:D:/fchai/work/i-cube/I-CUBE-HUAWEI/Middlewares/Third_Party/Huawei/iot_link/network/dtls/mbedtls/mbedtls-2.16.2/library\ecdh.c **** /*
 108:D:/fchai/work/i-cube/I-CUBE-HUAWEI/Middlewares/Third_Party/Huawei/iot_link/network/dtls/mbedtls/mbedtls-2.16.2/library\ecdh.c ****  * Compute shared secret (SEC1 3.3.1)
 109:D:/fchai/work/i-cube/I-CUBE-HUAWEI/Middlewares/Third_Party/Huawei/iot_link/network/dtls/mbedtls/mbedtls-2.16.2/library\ecdh.c ****  */
 110:D:/fchai/work/i-cube/I-CUBE-HUAWEI/Middlewares/Third_Party/Huawei/iot_link/network/dtls/mbedtls/mbedtls-2.16.2/library\ecdh.c **** static int ecdh_compute_shared_restartable( mbedtls_ecp_group *grp,
  30              		.loc 1 110 12 view -0
  31              		.cfi_startproc
  32              		@ args = 8, pretend = 0, frame = 48
  33              		@ frame_needed = 0, uses_anonymous_args = 0
 111:D:/fchai/work/i-cube/I-CUBE-HUAWEI/Middlewares/Third_Party/Huawei/iot_link/network/dtls/mbedtls/mbedtls-2.16.2/library\ecdh.c ****                          mbedtls_mpi *z,
 112:D:/fchai/work/i-cube/I-CUBE-HUAWEI/Middlewares/Third_Party/Huawei/iot_link/network/dtls/mbedtls/mbedtls-2.16.2/library\ecdh.c ****                          const mbedtls_ecp_point *Q, const mbedtls_mpi *d,
 113:D:/fchai/work/i-cube/I-CUBE-HUAWEI/Middlewares/Third_Party/Huawei/iot_link/network/dtls/mbedtls/mbedtls-2.16.2/library\ecdh.c ****                          int (*f_rng)(void *, unsigned char *, size_t),
 114:D:/fchai/work/i-cube/I-CUBE-HUAWEI/Middlewares/Third_Party/Huawei/iot_link/network/dtls/mbedtls/mbedtls-2.16.2/library\ecdh.c ****                          void *p_rng,
 115:D:/fchai/work/i-cube/I-CUBE-HUAWEI/Middlewares/Third_Party/Huawei/iot_link/network/dtls/mbedtls/mbedtls-2.16.2/library\ecdh.c ****                          mbedtls_ecp_restart_ctx *rs_ctx )
 116:D:/fchai/work/i-cube/I-CUBE-HUAWEI/Middlewares/Third_Party/Huawei/iot_link/network/dtls/mbedtls/mbedtls-2.16.2/library\ecdh.c **** {
 117:D:/fchai/work/i-cube/I-CUBE-HUAWEI/Middlewares/Third_Party/Huawei/iot_link/network/dtls/mbedtls/mbedtls-2.16.2/library\ecdh.c ****     int ret;
  34              		.loc 1 117 5 view .LVU1
 118:D:/fchai/work/i-cube/I-CUBE-HUAWEI/Middlewares/Third_Party/Huawei/iot_link/network/dtls/mbedtls/mbedtls-2.16.2/library\ecdh.c ****     mbedtls_ecp_point P;
  35              		.loc 1 118 5 view .LVU2
 119:D:/fchai/work/i-cube/I-CUBE-HUAWEI/Middlewares/Third_Party/Huawei/iot_link/network/dtls/mbedtls/mbedtls-2.16.2/library\ecdh.c **** 
 120:D:/fchai/work/i-cube/I-CUBE-HUAWEI/Middlewares/Third_Party/Huawei/iot_link/network/dtls/mbedtls/mbedtls-2.16.2/library\ecdh.c ****     mbedtls_ecp_point_init( &P );
  36              		.loc 1 120 5 view .LVU3
 110:D:/fchai/work/i-cube/I-CUBE-HUAWEI/Middlewares/Third_Party/Huawei/iot_link/network/dtls/mbedtls/mbedtls-2.16.2/library\ecdh.c ****                          mbedtls_mpi *z,
  37              		.loc 1 110 12 is_stmt 0 view .LVU4
  38 0000 F0B5     		push	{r4, r5, r6, r7, lr}
  39              	.LCFI0:
  40              		.cfi_def_cfa_offset 20
  41              		.cfi_offset 4, -20
  42              		.cfi_offset 5, -16
  43              		.cfi_offset 6, -12
  44              		.cfi_offset 7, -8
  45              		.cfi_offset 14, -4
  46 0002 91B0     		sub	sp, sp, #68
  47              	.LCFI1:
  48              		.cfi_def_cfa_offset 88
 110:D:/fchai/work/i-cube/I-CUBE-HUAWEI/Middlewares/Third_Party/Huawei/iot_link/network/dtls/mbedtls/mbedtls-2.16.2/library\ecdh.c ****                          mbedtls_mpi *z,
  49              		.loc 1 110 12 view .LVU5
  50 0004 0446     		mov	r4, r0
ARM GAS  T:\msys\tmp\cctaHzaT.s 			page 4


  51              		.loc 1 120 5 view .LVU6
  52 0006 07A8     		add	r0, sp, #28
  53              	.LVL1:
 110:D:/fchai/work/i-cube/I-CUBE-HUAWEI/Middlewares/Third_Party/Huawei/iot_link/network/dtls/mbedtls/mbedtls-2.16.2/library\ecdh.c ****                          mbedtls_mpi *z,
  54              		.loc 1 110 12 view .LVU7
  55 0008 179E     		ldr	r6, [sp, #92]
  56 000a 0592     		str	r2, [sp, #20]
  57 000c 0F46     		mov	r7, r1
  58 000e 0493     		str	r3, [sp, #16]
 121:D:/fchai/work/i-cube/I-CUBE-HUAWEI/Middlewares/Third_Party/Huawei/iot_link/network/dtls/mbedtls/mbedtls-2.16.2/library\ecdh.c **** 
 122:D:/fchai/work/i-cube/I-CUBE-HUAWEI/Middlewares/Third_Party/Huawei/iot_link/network/dtls/mbedtls/mbedtls-2.16.2/library\ecdh.c ****     MBEDTLS_MPI_CHK( mbedtls_ecp_mul_restartable( grp, &P, d, Q,
  59              		.loc 1 122 5 view .LVU8
  60 0010 0025     		movs	r5, #0
 120:D:/fchai/work/i-cube/I-CUBE-HUAWEI/Middlewares/Third_Party/Huawei/iot_link/network/dtls/mbedtls/mbedtls-2.16.2/library\ecdh.c **** 
  61              		.loc 1 120 5 view .LVU9
  62 0012 FFF7FEFF 		bl	mbedtls_ecp_point_init
  63              	.LVL2:
  64              		.loc 1 122 5 is_stmt 1 view .LVU10
  65              		.loc 1 122 5 view .LVU11
  66 0016 1699     		ldr	r1, [sp, #88]
  67 0018 0091     		str	r1, [sp]
  68 001a 2046     		mov	r0, r4
  69 001c DDE90423 		ldrd	r2, r3, [sp, #16]
  70 0020 0196     		str	r6, [sp, #4]
  71 0022 07A9     		add	r1, sp, #28
  72 0024 0295     		str	r5, [sp, #8]
  73 0026 FFF7FEFF 		bl	mbedtls_ecp_mul_restartable
  74              	.LVL3:
  75              		.loc 1 122 5 is_stmt 0 view .LVU12
  76 002a 0446     		mov	r4, r0
  77              	.LVL4:
  78              		.loc 1 122 5 view .LVU13
  79 002c 28B1     		cbz	r0, .L6
  80              	.LVL5:
  81              	.L2:
 123:D:/fchai/work/i-cube/I-CUBE-HUAWEI/Middlewares/Third_Party/Huawei/iot_link/network/dtls/mbedtls/mbedtls-2.16.2/library\ecdh.c ****                                                   f_rng, p_rng, rs_ctx ) );
 124:D:/fchai/work/i-cube/I-CUBE-HUAWEI/Middlewares/Third_Party/Huawei/iot_link/network/dtls/mbedtls/mbedtls-2.16.2/library\ecdh.c **** 
 125:D:/fchai/work/i-cube/I-CUBE-HUAWEI/Middlewares/Third_Party/Huawei/iot_link/network/dtls/mbedtls/mbedtls-2.16.2/library\ecdh.c ****     if( mbedtls_ecp_is_zero( &P ) )
 126:D:/fchai/work/i-cube/I-CUBE-HUAWEI/Middlewares/Third_Party/Huawei/iot_link/network/dtls/mbedtls/mbedtls-2.16.2/library\ecdh.c ****     {
 127:D:/fchai/work/i-cube/I-CUBE-HUAWEI/Middlewares/Third_Party/Huawei/iot_link/network/dtls/mbedtls/mbedtls-2.16.2/library\ecdh.c ****         ret = MBEDTLS_ERR_ECP_BAD_INPUT_DATA;
 128:D:/fchai/work/i-cube/I-CUBE-HUAWEI/Middlewares/Third_Party/Huawei/iot_link/network/dtls/mbedtls/mbedtls-2.16.2/library\ecdh.c ****         goto cleanup;
 129:D:/fchai/work/i-cube/I-CUBE-HUAWEI/Middlewares/Third_Party/Huawei/iot_link/network/dtls/mbedtls/mbedtls-2.16.2/library\ecdh.c ****     }
 130:D:/fchai/work/i-cube/I-CUBE-HUAWEI/Middlewares/Third_Party/Huawei/iot_link/network/dtls/mbedtls/mbedtls-2.16.2/library\ecdh.c **** 
 131:D:/fchai/work/i-cube/I-CUBE-HUAWEI/Middlewares/Third_Party/Huawei/iot_link/network/dtls/mbedtls/mbedtls-2.16.2/library\ecdh.c ****     MBEDTLS_MPI_CHK( mbedtls_mpi_copy( z, &P.X ) );
  82              		.loc 1 131 5 is_stmt 1 view .LVU14
 132:D:/fchai/work/i-cube/I-CUBE-HUAWEI/Middlewares/Third_Party/Huawei/iot_link/network/dtls/mbedtls/mbedtls-2.16.2/library\ecdh.c **** 
 133:D:/fchai/work/i-cube/I-CUBE-HUAWEI/Middlewares/Third_Party/Huawei/iot_link/network/dtls/mbedtls/mbedtls-2.16.2/library\ecdh.c **** cleanup:
 134:D:/fchai/work/i-cube/I-CUBE-HUAWEI/Middlewares/Third_Party/Huawei/iot_link/network/dtls/mbedtls/mbedtls-2.16.2/library\ecdh.c ****     mbedtls_ecp_point_free( &P );
  83              		.loc 1 134 5 view .LVU15
  84 002e 07A8     		add	r0, sp, #28
  85 0030 FFF7FEFF 		bl	mbedtls_ecp_point_free
  86              	.LVL6:
 135:D:/fchai/work/i-cube/I-CUBE-HUAWEI/Middlewares/Third_Party/Huawei/iot_link/network/dtls/mbedtls/mbedtls-2.16.2/library\ecdh.c **** 
 136:D:/fchai/work/i-cube/I-CUBE-HUAWEI/Middlewares/Third_Party/Huawei/iot_link/network/dtls/mbedtls/mbedtls-2.16.2/library\ecdh.c ****     return( ret );
  87              		.loc 1 136 5 view .LVU16
 137:D:/fchai/work/i-cube/I-CUBE-HUAWEI/Middlewares/Third_Party/Huawei/iot_link/network/dtls/mbedtls/mbedtls-2.16.2/library\ecdh.c **** }
  88              		.loc 1 137 1 is_stmt 0 view .LVU17
ARM GAS  T:\msys\tmp\cctaHzaT.s 			page 5


  89 0034 2046     		mov	r0, r4
  90 0036 11B0     		add	sp, sp, #68
  91              	.LCFI2:
  92              		.cfi_remember_state
  93              		.cfi_def_cfa_offset 20
  94              		@ sp needed
  95 0038 F0BD     		pop	{r4, r5, r6, r7, pc}
  96              	.LVL7:
  97              	.L6:
  98              	.LCFI3:
  99              		.cfi_restore_state
 122:D:/fchai/work/i-cube/I-CUBE-HUAWEI/Middlewares/Third_Party/Huawei/iot_link/network/dtls/mbedtls/mbedtls-2.16.2/library\ecdh.c ****                                                   f_rng, p_rng, rs_ctx ) );
 100              		.loc 1 122 5 is_stmt 1 view .LVU18
 125:D:/fchai/work/i-cube/I-CUBE-HUAWEI/Middlewares/Third_Party/Huawei/iot_link/network/dtls/mbedtls/mbedtls-2.16.2/library\ecdh.c ****     {
 101              		.loc 1 125 5 view .LVU19
 125:D:/fchai/work/i-cube/I-CUBE-HUAWEI/Middlewares/Third_Party/Huawei/iot_link/network/dtls/mbedtls/mbedtls-2.16.2/library\ecdh.c ****     {
 102              		.loc 1 125 9 is_stmt 0 view .LVU20
 103 003a 07A8     		add	r0, sp, #28
 104              	.LVL8:
 125:D:/fchai/work/i-cube/I-CUBE-HUAWEI/Middlewares/Third_Party/Huawei/iot_link/network/dtls/mbedtls/mbedtls-2.16.2/library\ecdh.c ****     {
 105              		.loc 1 125 9 view .LVU21
 106 003c FFF7FEFF 		bl	mbedtls_ecp_is_zero
 107              	.LVL9:
 125:D:/fchai/work/i-cube/I-CUBE-HUAWEI/Middlewares/Third_Party/Huawei/iot_link/network/dtls/mbedtls/mbedtls-2.16.2/library\ecdh.c ****     {
 108              		.loc 1 125 7 view .LVU22
 109 0040 50B9     		cbnz	r0, .L3
 131:D:/fchai/work/i-cube/I-CUBE-HUAWEI/Middlewares/Third_Party/Huawei/iot_link/network/dtls/mbedtls/mbedtls-2.16.2/library\ecdh.c **** 
 110              		.loc 1 131 5 is_stmt 1 view .LVU23
 131:D:/fchai/work/i-cube/I-CUBE-HUAWEI/Middlewares/Third_Party/Huawei/iot_link/network/dtls/mbedtls/mbedtls-2.16.2/library\ecdh.c **** 
 111              		.loc 1 131 5 view .LVU24
 112 0042 07A9     		add	r1, sp, #28
 113 0044 3846     		mov	r0, r7
 114 0046 FFF7FEFF 		bl	mbedtls_mpi_copy
 115              	.LVL10:
 116 004a 0446     		mov	r4, r0
 117              	.LVL11:
 131:D:/fchai/work/i-cube/I-CUBE-HUAWEI/Middlewares/Third_Party/Huawei/iot_link/network/dtls/mbedtls/mbedtls-2.16.2/library\ecdh.c **** 
 118              		.loc 1 131 5 view .LVU25
 134:D:/fchai/work/i-cube/I-CUBE-HUAWEI/Middlewares/Third_Party/Huawei/iot_link/network/dtls/mbedtls/mbedtls-2.16.2/library\ecdh.c **** 
 119              		.loc 1 134 5 view .LVU26
 120 004c 07A8     		add	r0, sp, #28
 121              	.LVL12:
 134:D:/fchai/work/i-cube/I-CUBE-HUAWEI/Middlewares/Third_Party/Huawei/iot_link/network/dtls/mbedtls/mbedtls-2.16.2/library\ecdh.c **** 
 122              		.loc 1 134 5 is_stmt 0 view .LVU27
 123 004e FFF7FEFF 		bl	mbedtls_ecp_point_free
 124              	.LVL13:
 136:D:/fchai/work/i-cube/I-CUBE-HUAWEI/Middlewares/Third_Party/Huawei/iot_link/network/dtls/mbedtls/mbedtls-2.16.2/library\ecdh.c **** }
 125              		.loc 1 136 5 is_stmt 1 view .LVU28
 126              		.loc 1 137 1 is_stmt 0 view .LVU29
 127 0052 2046     		mov	r0, r4
 128 0054 11B0     		add	sp, sp, #68
 129              	.LCFI4:
 130              		.cfi_remember_state
 131              		.cfi_def_cfa_offset 20
 132              		@ sp needed
 133 0056 F0BD     		pop	{r4, r5, r6, r7, pc}
 134              	.LVL14:
ARM GAS  T:\msys\tmp\cctaHzaT.s 			page 6


 135              	.L3:
 136              	.LCFI5:
 137              		.cfi_restore_state
 127:D:/fchai/work/i-cube/I-CUBE-HUAWEI/Middlewares/Third_Party/Huawei/iot_link/network/dtls/mbedtls/mbedtls-2.16.2/library\ecdh.c ****         goto cleanup;
 138              		.loc 1 127 13 view .LVU30
 139 0058 004C     		ldr	r4, .L7
 140              	.LVL15:
 127:D:/fchai/work/i-cube/I-CUBE-HUAWEI/Middlewares/Third_Party/Huawei/iot_link/network/dtls/mbedtls/mbedtls-2.16.2/library\ecdh.c ****         goto cleanup;
 141              		.loc 1 127 13 view .LVU31
 142 005a E8E7     		b	.L2
 143              	.L8:
 144              		.align	2
 145              	.L7:
 146 005c 80B0FFFF 		.word	-20352
 147              		.cfi_endproc
 148              	.LFE28:
 150              		.section	.text.ecdh_gen_public_restartable.constprop.0,"ax",%progbits
 151              		.align	1
 152              		.p2align 2,,3
 153              		.syntax unified
 154              		.thumb
 155              		.thumb_func
 156              		.fpu fpv4-sp-d16
 158              	ecdh_gen_public_restartable.constprop.0:
 159              	.LVL16:
 160              	.LFB27:
  70:D:/fchai/work/i-cube/I-CUBE-HUAWEI/Middlewares/Third_Party/Huawei/iot_link/network/dtls/mbedtls/mbedtls-2.16.2/library\ecdh.c ****                     mbedtls_mpi *d, mbedtls_ecp_point *Q,
 161              		.loc 1 70 12 is_stmt 1 view -0
 162              		.cfi_startproc
 163              		@ args = 4, pretend = 0, frame = 0
 164              		@ frame_needed = 0, uses_anonymous_args = 0
  76:D:/fchai/work/i-cube/I-CUBE-HUAWEI/Middlewares/Third_Party/Huawei/iot_link/network/dtls/mbedtls/mbedtls-2.16.2/library\ecdh.c **** 
 165              		.loc 1 76 5 view .LVU33
  82:D:/fchai/work/i-cube/I-CUBE-HUAWEI/Middlewares/Third_Party/Huawei/iot_link/network/dtls/mbedtls/mbedtls-2.16.2/library\ecdh.c **** 
 166              		.loc 1 82 9 view .LVU34
  82:D:/fchai/work/i-cube/I-CUBE-HUAWEI/Middlewares/Third_Party/Huawei/iot_link/network/dtls/mbedtls/mbedtls-2.16.2/library\ecdh.c **** 
 167              		.loc 1 82 9 view .LVU35
  70:D:/fchai/work/i-cube/I-CUBE-HUAWEI/Middlewares/Third_Party/Huawei/iot_link/network/dtls/mbedtls/mbedtls-2.16.2/library\ecdh.c ****                     mbedtls_mpi *d, mbedtls_ecp_point *Q,
 168              		.loc 1 70 12 is_stmt 0 view .LVU36
 169 0000 2DE9F041 		push	{r4, r5, r6, r7, r8, lr}
 170              	.LCFI6:
 171              		.cfi_def_cfa_offset 24
 172              		.cfi_offset 4, -24
 173              		.cfi_offset 5, -20
 174              		.cfi_offset 6, -16
 175              		.cfi_offset 7, -12
 176              		.cfi_offset 8, -8
 177              		.cfi_offset 14, -4
 178 0004 84B0     		sub	sp, sp, #16
 179              	.LCFI7:
 180              		.cfi_def_cfa_offset 40
  70:D:/fchai/work/i-cube/I-CUBE-HUAWEI/Middlewares/Third_Party/Huawei/iot_link/network/dtls/mbedtls/mbedtls-2.16.2/library\ecdh.c ****                     mbedtls_mpi *d, mbedtls_ecp_point *Q,
 181              		.loc 1 70 12 view .LVU37
 182 0006 1C46     		mov	r4, r3
 183 0008 0A9F     		ldr	r7, [sp, #40]
 184 000a 1646     		mov	r6, r2
  82:D:/fchai/work/i-cube/I-CUBE-HUAWEI/Middlewares/Third_Party/Huawei/iot_link/network/dtls/mbedtls/mbedtls-2.16.2/library\ecdh.c **** 
ARM GAS  T:\msys\tmp\cctaHzaT.s 			page 7


 185              		.loc 1 82 9 view .LVU38
 186 000c 3B46     		mov	r3, r7
 187              	.LVL17:
  82:D:/fchai/work/i-cube/I-CUBE-HUAWEI/Middlewares/Third_Party/Huawei/iot_link/network/dtls/mbedtls/mbedtls-2.16.2/library\ecdh.c **** 
 188              		.loc 1 82 9 view .LVU39
 189 000e 2246     		mov	r2, r4
 190              	.LVL18:
  70:D:/fchai/work/i-cube/I-CUBE-HUAWEI/Middlewares/Third_Party/Huawei/iot_link/network/dtls/mbedtls/mbedtls-2.16.2/library\ecdh.c ****                     mbedtls_mpi *d, mbedtls_ecp_point *Q,
 191              		.loc 1 70 12 view .LVU40
 192 0010 0546     		mov	r5, r0
 193 0012 8846     		mov	r8, r1
  82:D:/fchai/work/i-cube/I-CUBE-HUAWEI/Middlewares/Third_Party/Huawei/iot_link/network/dtls/mbedtls/mbedtls-2.16.2/library\ecdh.c **** 
 194              		.loc 1 82 9 view .LVU41
 195 0014 FFF7FEFF 		bl	mbedtls_ecp_gen_privkey
 196              	.LVL19:
  82:D:/fchai/work/i-cube/I-CUBE-HUAWEI/Middlewares/Third_Party/Huawei/iot_link/network/dtls/mbedtls/mbedtls-2.16.2/library\ecdh.c **** 
 197              		.loc 1 82 9 view .LVU42
 198 0018 48B9     		cbnz	r0, .L9
  82:D:/fchai/work/i-cube/I-CUBE-HUAWEI/Middlewares/Third_Party/Huawei/iot_link/network/dtls/mbedtls/mbedtls-2.16.2/library\ecdh.c **** 
 199              		.loc 1 82 9 is_stmt 1 view .LVU43
  84:D:/fchai/work/i-cube/I-CUBE-HUAWEI/Middlewares/Third_Party/Huawei/iot_link/network/dtls/mbedtls/mbedtls-2.16.2/library\ecdh.c ****                                                   f_rng, p_rng, rs_ctx ) );
 200              		.loc 1 84 5 view .LVU44
  84:D:/fchai/work/i-cube/I-CUBE-HUAWEI/Middlewares/Third_Party/Huawei/iot_link/network/dtls/mbedtls/mbedtls-2.16.2/library\ecdh.c ****                                                   f_rng, p_rng, rs_ctx ) );
 201              		.loc 1 84 5 view .LVU45
 202 001a CDE90170 		strd	r7, r0, [sp, #4]
 203 001e 0094     		str	r4, [sp]
 204 0020 4246     		mov	r2, r8
 205 0022 3146     		mov	r1, r6
 206 0024 05F12803 		add	r3, r5, #40
 207 0028 2846     		mov	r0, r5
 208              	.LVL20:
  84:D:/fchai/work/i-cube/I-CUBE-HUAWEI/Middlewares/Third_Party/Huawei/iot_link/network/dtls/mbedtls/mbedtls-2.16.2/library\ecdh.c ****                                                   f_rng, p_rng, rs_ctx ) );
 209              		.loc 1 84 5 is_stmt 0 view .LVU46
 210 002a FFF7FEFF 		bl	mbedtls_ecp_mul_restartable
 211              	.LVL21:
  84:D:/fchai/work/i-cube/I-CUBE-HUAWEI/Middlewares/Third_Party/Huawei/iot_link/network/dtls/mbedtls/mbedtls-2.16.2/library\ecdh.c ****                                                   f_rng, p_rng, rs_ctx ) );
 212              		.loc 1 84 5 is_stmt 1 view .LVU47
  88:D:/fchai/work/i-cube/I-CUBE-HUAWEI/Middlewares/Third_Party/Huawei/iot_link/network/dtls/mbedtls/mbedtls-2.16.2/library\ecdh.c **** }
 213              		.loc 1 88 5 view .LVU48
 214              	.L10:
 215              	.L9:
  89:D:/fchai/work/i-cube/I-CUBE-HUAWEI/Middlewares/Third_Party/Huawei/iot_link/network/dtls/mbedtls/mbedtls-2.16.2/library\ecdh.c **** 
 216              		.loc 1 89 1 is_stmt 0 view .LVU49
 217 002e 04B0     		add	sp, sp, #16
 218              	.LCFI8:
 219              		.cfi_def_cfa_offset 24
 220              		@ sp needed
 221 0030 BDE8F081 		pop	{r4, r5, r6, r7, r8, pc}
  89:D:/fchai/work/i-cube/I-CUBE-HUAWEI/Middlewares/Third_Party/Huawei/iot_link/network/dtls/mbedtls/mbedtls-2.16.2/library\ecdh.c **** 
 222              		.loc 1 89 1 view .LVU50
 223              		.cfi_endproc
 224              	.LFE27:
 226              		.section	.text.mbedtls_ecdh_gen_public,"ax",%progbits
 227              		.align	1
 228              		.p2align 2,,3
 229              		.global	mbedtls_ecdh_gen_public
 230              		.syntax unified
ARM GAS  T:\msys\tmp\cctaHzaT.s 			page 8


 231              		.thumb
 232              		.thumb_func
 233              		.fpu fpv4-sp-d16
 235              	mbedtls_ecdh_gen_public:
 236              	.LVL22:
 237              	.LFB2:
  97:D:/fchai/work/i-cube/I-CUBE-HUAWEI/Middlewares/Third_Party/Huawei/iot_link/network/dtls/mbedtls/mbedtls-2.16.2/library\ecdh.c ****     ECDH_VALIDATE_RET( grp != NULL );
 238              		.loc 1 97 1 is_stmt 1 view -0
 239              		.cfi_startproc
 240              		@ args = 4, pretend = 0, frame = 0
 241              		@ frame_needed = 0, uses_anonymous_args = 0
 242              		@ link register save eliminated.
  98:D:/fchai/work/i-cube/I-CUBE-HUAWEI/Middlewares/Third_Party/Huawei/iot_link/network/dtls/mbedtls/mbedtls-2.16.2/library\ecdh.c ****     ECDH_VALIDATE_RET( d != NULL );
 243              		.loc 1 98 5 view .LVU52
  98:D:/fchai/work/i-cube/I-CUBE-HUAWEI/Middlewares/Third_Party/Huawei/iot_link/network/dtls/mbedtls/mbedtls-2.16.2/library\ecdh.c ****     ECDH_VALIDATE_RET( d != NULL );
 244              		.loc 1 98 5 view .LVU53
  98:D:/fchai/work/i-cube/I-CUBE-HUAWEI/Middlewares/Third_Party/Huawei/iot_link/network/dtls/mbedtls/mbedtls-2.16.2/library\ecdh.c ****     ECDH_VALIDATE_RET( d != NULL );
 245              		.loc 1 98 5 view .LVU54
  99:D:/fchai/work/i-cube/I-CUBE-HUAWEI/Middlewares/Third_Party/Huawei/iot_link/network/dtls/mbedtls/mbedtls-2.16.2/library\ecdh.c ****     ECDH_VALIDATE_RET( Q != NULL );
 246              		.loc 1 99 5 view .LVU55
  99:D:/fchai/work/i-cube/I-CUBE-HUAWEI/Middlewares/Third_Party/Huawei/iot_link/network/dtls/mbedtls/mbedtls-2.16.2/library\ecdh.c ****     ECDH_VALIDATE_RET( Q != NULL );
 247              		.loc 1 99 5 view .LVU56
  99:D:/fchai/work/i-cube/I-CUBE-HUAWEI/Middlewares/Third_Party/Huawei/iot_link/network/dtls/mbedtls/mbedtls-2.16.2/library\ecdh.c ****     ECDH_VALIDATE_RET( Q != NULL );
 248              		.loc 1 99 5 view .LVU57
 100:D:/fchai/work/i-cube/I-CUBE-HUAWEI/Middlewares/Third_Party/Huawei/iot_link/network/dtls/mbedtls/mbedtls-2.16.2/library\ecdh.c ****     ECDH_VALIDATE_RET( f_rng != NULL );
 249              		.loc 1 100 5 view .LVU58
 100:D:/fchai/work/i-cube/I-CUBE-HUAWEI/Middlewares/Third_Party/Huawei/iot_link/network/dtls/mbedtls/mbedtls-2.16.2/library\ecdh.c ****     ECDH_VALIDATE_RET( f_rng != NULL );
 250              		.loc 1 100 5 view .LVU59
 100:D:/fchai/work/i-cube/I-CUBE-HUAWEI/Middlewares/Third_Party/Huawei/iot_link/network/dtls/mbedtls/mbedtls-2.16.2/library\ecdh.c ****     ECDH_VALIDATE_RET( f_rng != NULL );
 251              		.loc 1 100 5 view .LVU60
 101:D:/fchai/work/i-cube/I-CUBE-HUAWEI/Middlewares/Third_Party/Huawei/iot_link/network/dtls/mbedtls/mbedtls-2.16.2/library\ecdh.c ****     return( ecdh_gen_public_restartable( grp, d, Q, f_rng, p_rng, NULL ) );
 252              		.loc 1 101 5 view .LVU61
 101:D:/fchai/work/i-cube/I-CUBE-HUAWEI/Middlewares/Third_Party/Huawei/iot_link/network/dtls/mbedtls/mbedtls-2.16.2/library\ecdh.c ****     return( ecdh_gen_public_restartable( grp, d, Q, f_rng, p_rng, NULL ) );
 253              		.loc 1 101 5 view .LVU62
 101:D:/fchai/work/i-cube/I-CUBE-HUAWEI/Middlewares/Third_Party/Huawei/iot_link/network/dtls/mbedtls/mbedtls-2.16.2/library\ecdh.c ****     return( ecdh_gen_public_restartable( grp, d, Q, f_rng, p_rng, NULL ) );
 254              		.loc 1 101 5 view .LVU63
 102:D:/fchai/work/i-cube/I-CUBE-HUAWEI/Middlewares/Third_Party/Huawei/iot_link/network/dtls/mbedtls/mbedtls-2.16.2/library\ecdh.c **** }
 255              		.loc 1 102 5 view .LVU64
 102:D:/fchai/work/i-cube/I-CUBE-HUAWEI/Middlewares/Third_Party/Huawei/iot_link/network/dtls/mbedtls/mbedtls-2.16.2/library\ecdh.c **** }
 256              		.loc 1 102 13 is_stmt 0 view .LVU65
 257 0000 FFF7FEBF 		b	ecdh_gen_public_restartable.constprop.0
 258              	.LVL23:
 102:D:/fchai/work/i-cube/I-CUBE-HUAWEI/Middlewares/Third_Party/Huawei/iot_link/network/dtls/mbedtls/mbedtls-2.16.2/library\ecdh.c **** }
 259              		.loc 1 102 13 view .LVU66
 260              		.cfi_endproc
 261              	.LFE2:
 263              		.section	.text.mbedtls_ecdh_compute_shared,"ax",%progbits
 264              		.align	1
 265              		.p2align 2,,3
 266              		.global	mbedtls_ecdh_compute_shared
 267              		.syntax unified
 268              		.thumb
 269              		.thumb_func
 270              		.fpu fpv4-sp-d16
 272              	mbedtls_ecdh_compute_shared:
 273              	.LVL24:
 274              	.LFB4:
ARM GAS  T:\msys\tmp\cctaHzaT.s 			page 9


 138:D:/fchai/work/i-cube/I-CUBE-HUAWEI/Middlewares/Third_Party/Huawei/iot_link/network/dtls/mbedtls/mbedtls-2.16.2/library\ecdh.c **** 
 139:D:/fchai/work/i-cube/I-CUBE-HUAWEI/Middlewares/Third_Party/Huawei/iot_link/network/dtls/mbedtls/mbedtls-2.16.2/library\ecdh.c **** /*
 140:D:/fchai/work/i-cube/I-CUBE-HUAWEI/Middlewares/Third_Party/Huawei/iot_link/network/dtls/mbedtls/mbedtls-2.16.2/library\ecdh.c ****  * Compute shared secret (SEC1 3.3.1)
 141:D:/fchai/work/i-cube/I-CUBE-HUAWEI/Middlewares/Third_Party/Huawei/iot_link/network/dtls/mbedtls/mbedtls-2.16.2/library\ecdh.c ****  */
 142:D:/fchai/work/i-cube/I-CUBE-HUAWEI/Middlewares/Third_Party/Huawei/iot_link/network/dtls/mbedtls/mbedtls-2.16.2/library\ecdh.c **** int mbedtls_ecdh_compute_shared( mbedtls_ecp_group *grp, mbedtls_mpi *z,
 143:D:/fchai/work/i-cube/I-CUBE-HUAWEI/Middlewares/Third_Party/Huawei/iot_link/network/dtls/mbedtls/mbedtls-2.16.2/library\ecdh.c ****                          const mbedtls_ecp_point *Q, const mbedtls_mpi *d,
 144:D:/fchai/work/i-cube/I-CUBE-HUAWEI/Middlewares/Third_Party/Huawei/iot_link/network/dtls/mbedtls/mbedtls-2.16.2/library\ecdh.c ****                          int (*f_rng)(void *, unsigned char *, size_t),
 145:D:/fchai/work/i-cube/I-CUBE-HUAWEI/Middlewares/Third_Party/Huawei/iot_link/network/dtls/mbedtls/mbedtls-2.16.2/library\ecdh.c ****                          void *p_rng )
 146:D:/fchai/work/i-cube/I-CUBE-HUAWEI/Middlewares/Third_Party/Huawei/iot_link/network/dtls/mbedtls/mbedtls-2.16.2/library\ecdh.c **** {
 275              		.loc 1 146 1 is_stmt 1 view -0
 276              		.cfi_startproc
 277              		@ args = 8, pretend = 0, frame = 0
 278              		@ frame_needed = 0, uses_anonymous_args = 0
 279              		@ link register save eliminated.
 147:D:/fchai/work/i-cube/I-CUBE-HUAWEI/Middlewares/Third_Party/Huawei/iot_link/network/dtls/mbedtls/mbedtls-2.16.2/library\ecdh.c ****     ECDH_VALIDATE_RET( grp != NULL );
 280              		.loc 1 147 5 view .LVU68
 281              		.loc 1 147 5 view .LVU69
 282              		.loc 1 147 5 view .LVU70
 148:D:/fchai/work/i-cube/I-CUBE-HUAWEI/Middlewares/Third_Party/Huawei/iot_link/network/dtls/mbedtls/mbedtls-2.16.2/library\ecdh.c ****     ECDH_VALIDATE_RET( Q != NULL );
 283              		.loc 1 148 5 view .LVU71
 284              		.loc 1 148 5 view .LVU72
 285              		.loc 1 148 5 view .LVU73
 149:D:/fchai/work/i-cube/I-CUBE-HUAWEI/Middlewares/Third_Party/Huawei/iot_link/network/dtls/mbedtls/mbedtls-2.16.2/library\ecdh.c ****     ECDH_VALIDATE_RET( d != NULL );
 286              		.loc 1 149 5 view .LVU74
 287              		.loc 1 149 5 view .LVU75
 288              		.loc 1 149 5 view .LVU76
 150:D:/fchai/work/i-cube/I-CUBE-HUAWEI/Middlewares/Third_Party/Huawei/iot_link/network/dtls/mbedtls/mbedtls-2.16.2/library\ecdh.c ****     ECDH_VALIDATE_RET( z != NULL );
 289              		.loc 1 150 5 view .LVU77
 290              		.loc 1 150 5 view .LVU78
 291              		.loc 1 150 5 view .LVU79
 151:D:/fchai/work/i-cube/I-CUBE-HUAWEI/Middlewares/Third_Party/Huawei/iot_link/network/dtls/mbedtls/mbedtls-2.16.2/library\ecdh.c ****     return( ecdh_compute_shared_restartable( grp, z, Q, d,
 292              		.loc 1 151 5 view .LVU80
 293              		.loc 1 151 13 is_stmt 0 view .LVU81
 294 0000 FFF7FEBF 		b	ecdh_compute_shared_restartable.constprop.0
 295              	.LVL25:
 296              		.loc 1 151 13 view .LVU82
 297              		.cfi_endproc
 298              	.LFE4:
 300              		.section	.text.mbedtls_ecdh_init,"ax",%progbits
 301              		.align	1
 302              		.p2align 2,,3
 303              		.global	mbedtls_ecdh_init
 304              		.syntax unified
 305              		.thumb
 306              		.thumb_func
 307              		.fpu fpv4-sp-d16
 309              	mbedtls_ecdh_init:
 310              	.LVL26:
 311              	.LFB6:
 152:D:/fchai/work/i-cube/I-CUBE-HUAWEI/Middlewares/Third_Party/Huawei/iot_link/network/dtls/mbedtls/mbedtls-2.16.2/library\ecdh.c ****                                              f_rng, p_rng, NULL ) );
 153:D:/fchai/work/i-cube/I-CUBE-HUAWEI/Middlewares/Third_Party/Huawei/iot_link/network/dtls/mbedtls/mbedtls-2.16.2/library\ecdh.c **** }
 154:D:/fchai/work/i-cube/I-CUBE-HUAWEI/Middlewares/Third_Party/Huawei/iot_link/network/dtls/mbedtls/mbedtls-2.16.2/library\ecdh.c **** #endif /* !MBEDTLS_ECDH_COMPUTE_SHARED_ALT */
 155:D:/fchai/work/i-cube/I-CUBE-HUAWEI/Middlewares/Third_Party/Huawei/iot_link/network/dtls/mbedtls/mbedtls-2.16.2/library\ecdh.c **** 
 156:D:/fchai/work/i-cube/I-CUBE-HUAWEI/Middlewares/Third_Party/Huawei/iot_link/network/dtls/mbedtls/mbedtls-2.16.2/library\ecdh.c **** static void ecdh_init_internal( mbedtls_ecdh_context_mbed *ctx )
 157:D:/fchai/work/i-cube/I-CUBE-HUAWEI/Middlewares/Third_Party/Huawei/iot_link/network/dtls/mbedtls/mbedtls-2.16.2/library\ecdh.c **** {
 158:D:/fchai/work/i-cube/I-CUBE-HUAWEI/Middlewares/Third_Party/Huawei/iot_link/network/dtls/mbedtls/mbedtls-2.16.2/library\ecdh.c ****     mbedtls_ecp_group_init( &ctx->grp );
 159:D:/fchai/work/i-cube/I-CUBE-HUAWEI/Middlewares/Third_Party/Huawei/iot_link/network/dtls/mbedtls/mbedtls-2.16.2/library\ecdh.c ****     mbedtls_mpi_init( &ctx->d  );
ARM GAS  T:\msys\tmp\cctaHzaT.s 			page 10


 160:D:/fchai/work/i-cube/I-CUBE-HUAWEI/Middlewares/Third_Party/Huawei/iot_link/network/dtls/mbedtls/mbedtls-2.16.2/library\ecdh.c ****     mbedtls_ecp_point_init( &ctx->Q   );
 161:D:/fchai/work/i-cube/I-CUBE-HUAWEI/Middlewares/Third_Party/Huawei/iot_link/network/dtls/mbedtls/mbedtls-2.16.2/library\ecdh.c ****     mbedtls_ecp_point_init( &ctx->Qp  );
 162:D:/fchai/work/i-cube/I-CUBE-HUAWEI/Middlewares/Third_Party/Huawei/iot_link/network/dtls/mbedtls/mbedtls-2.16.2/library\ecdh.c ****     mbedtls_mpi_init( &ctx->z  );
 163:D:/fchai/work/i-cube/I-CUBE-HUAWEI/Middlewares/Third_Party/Huawei/iot_link/network/dtls/mbedtls/mbedtls-2.16.2/library\ecdh.c **** 
 164:D:/fchai/work/i-cube/I-CUBE-HUAWEI/Middlewares/Third_Party/Huawei/iot_link/network/dtls/mbedtls/mbedtls-2.16.2/library\ecdh.c **** #if defined(MBEDTLS_ECP_RESTARTABLE)
 165:D:/fchai/work/i-cube/I-CUBE-HUAWEI/Middlewares/Third_Party/Huawei/iot_link/network/dtls/mbedtls/mbedtls-2.16.2/library\ecdh.c ****     mbedtls_ecp_restart_init( &ctx->rs );
 166:D:/fchai/work/i-cube/I-CUBE-HUAWEI/Middlewares/Third_Party/Huawei/iot_link/network/dtls/mbedtls/mbedtls-2.16.2/library\ecdh.c **** #endif
 167:D:/fchai/work/i-cube/I-CUBE-HUAWEI/Middlewares/Third_Party/Huawei/iot_link/network/dtls/mbedtls/mbedtls-2.16.2/library\ecdh.c **** }
 168:D:/fchai/work/i-cube/I-CUBE-HUAWEI/Middlewares/Third_Party/Huawei/iot_link/network/dtls/mbedtls/mbedtls-2.16.2/library\ecdh.c **** 
 169:D:/fchai/work/i-cube/I-CUBE-HUAWEI/Middlewares/Third_Party/Huawei/iot_link/network/dtls/mbedtls/mbedtls-2.16.2/library\ecdh.c **** /*
 170:D:/fchai/work/i-cube/I-CUBE-HUAWEI/Middlewares/Third_Party/Huawei/iot_link/network/dtls/mbedtls/mbedtls-2.16.2/library\ecdh.c ****  * Initialize context
 171:D:/fchai/work/i-cube/I-CUBE-HUAWEI/Middlewares/Third_Party/Huawei/iot_link/network/dtls/mbedtls/mbedtls-2.16.2/library\ecdh.c ****  */
 172:D:/fchai/work/i-cube/I-CUBE-HUAWEI/Middlewares/Third_Party/Huawei/iot_link/network/dtls/mbedtls/mbedtls-2.16.2/library\ecdh.c **** void mbedtls_ecdh_init( mbedtls_ecdh_context *ctx )
 173:D:/fchai/work/i-cube/I-CUBE-HUAWEI/Middlewares/Third_Party/Huawei/iot_link/network/dtls/mbedtls/mbedtls-2.16.2/library\ecdh.c **** {
 312              		.loc 1 173 1 is_stmt 1 view -0
 313              		.cfi_startproc
 314              		@ args = 0, pretend = 0, frame = 0
 315              		@ frame_needed = 0, uses_anonymous_args = 0
 174:D:/fchai/work/i-cube/I-CUBE-HUAWEI/Middlewares/Third_Party/Huawei/iot_link/network/dtls/mbedtls/mbedtls-2.16.2/library\ecdh.c ****     ECDH_VALIDATE( ctx != NULL );
 316              		.loc 1 174 5 view .LVU84
 317              		.loc 1 174 5 view .LVU85
 318              		.loc 1 174 5 view .LVU86
 175:D:/fchai/work/i-cube/I-CUBE-HUAWEI/Middlewares/Third_Party/Huawei/iot_link/network/dtls/mbedtls/mbedtls-2.16.2/library\ecdh.c **** 
 176:D:/fchai/work/i-cube/I-CUBE-HUAWEI/Middlewares/Third_Party/Huawei/iot_link/network/dtls/mbedtls/mbedtls-2.16.2/library\ecdh.c **** #if defined(MBEDTLS_ECDH_LEGACY_CONTEXT)
 177:D:/fchai/work/i-cube/I-CUBE-HUAWEI/Middlewares/Third_Party/Huawei/iot_link/network/dtls/mbedtls/mbedtls-2.16.2/library\ecdh.c ****     ecdh_init_internal( ctx );
 319              		.loc 1 177 5 view .LVU87
 173:D:/fchai/work/i-cube/I-CUBE-HUAWEI/Middlewares/Third_Party/Huawei/iot_link/network/dtls/mbedtls/mbedtls-2.16.2/library\ecdh.c ****     ECDH_VALIDATE( ctx != NULL );
 320              		.loc 1 173 1 is_stmt 0 view .LVU88
 321 0000 10B5     		push	{r4, lr}
 322              	.LCFI9:
 323              		.cfi_def_cfa_offset 8
 324              		.cfi_offset 4, -8
 325              		.cfi_offset 14, -4
 173:D:/fchai/work/i-cube/I-CUBE-HUAWEI/Middlewares/Third_Party/Huawei/iot_link/network/dtls/mbedtls/mbedtls-2.16.2/library\ecdh.c ****     ECDH_VALIDATE( ctx != NULL );
 326              		.loc 1 173 1 view .LVU89
 327 0002 0446     		mov	r4, r0
 328              	.LVL27:
 329              	.LBB32:
 330              	.LBI32:
 156:D:/fchai/work/i-cube/I-CUBE-HUAWEI/Middlewares/Third_Party/Huawei/iot_link/network/dtls/mbedtls/mbedtls-2.16.2/library\ecdh.c **** {
 331              		.loc 1 156 13 is_stmt 1 view .LVU90
 332              	.LBB33:
 158:D:/fchai/work/i-cube/I-CUBE-HUAWEI/Middlewares/Third_Party/Huawei/iot_link/network/dtls/mbedtls/mbedtls-2.16.2/library\ecdh.c ****     mbedtls_mpi_init( &ctx->d  );
 333              		.loc 1 158 5 view .LVU91
 334 0004 FFF7FEFF 		bl	mbedtls_ecp_group_init
 335              	.LVL28:
 159:D:/fchai/work/i-cube/I-CUBE-HUAWEI/Middlewares/Third_Party/Huawei/iot_link/network/dtls/mbedtls/mbedtls-2.16.2/library\ecdh.c ****     mbedtls_ecp_point_init( &ctx->Q   );
 336              		.loc 1 159 5 view .LVU92
 337 0008 04F17C00 		add	r0, r4, #124
 338 000c FFF7FEFF 		bl	mbedtls_mpi_init
 339              	.LVL29:
 160:D:/fchai/work/i-cube/I-CUBE-HUAWEI/Middlewares/Third_Party/Huawei/iot_link/network/dtls/mbedtls/mbedtls-2.16.2/library\ecdh.c ****     mbedtls_ecp_point_init( &ctx->Qp  );
 340              		.loc 1 160 5 view .LVU93
 341 0010 04F18800 		add	r0, r4, #136
 342 0014 FFF7FEFF 		bl	mbedtls_ecp_point_init
 343              	.LVL30:
 161:D:/fchai/work/i-cube/I-CUBE-HUAWEI/Middlewares/Third_Party/Huawei/iot_link/network/dtls/mbedtls/mbedtls-2.16.2/library\ecdh.c ****     mbedtls_mpi_init( &ctx->z  );
ARM GAS  T:\msys\tmp\cctaHzaT.s 			page 11


 344              		.loc 1 161 5 view .LVU94
 345 0018 04F1AC00 		add	r0, r4, #172
 346 001c FFF7FEFF 		bl	mbedtls_ecp_point_init
 347              	.LVL31:
 162:D:/fchai/work/i-cube/I-CUBE-HUAWEI/Middlewares/Third_Party/Huawei/iot_link/network/dtls/mbedtls/mbedtls-2.16.2/library\ecdh.c **** 
 348              		.loc 1 162 5 view .LVU95
 349 0020 04F1D000 		add	r0, r4, #208
 350 0024 FFF7FEFF 		bl	mbedtls_mpi_init
 351              	.LVL32:
 162:D:/fchai/work/i-cube/I-CUBE-HUAWEI/Middlewares/Third_Party/Huawei/iot_link/network/dtls/mbedtls/mbedtls-2.16.2/library\ecdh.c **** 
 352              		.loc 1 162 5 is_stmt 0 view .LVU96
 353              	.LBE33:
 354              	.LBE32:
 178:D:/fchai/work/i-cube/I-CUBE-HUAWEI/Middlewares/Third_Party/Huawei/iot_link/network/dtls/mbedtls/mbedtls-2.16.2/library\ecdh.c ****     mbedtls_ecp_point_init( &ctx->Vi  );
 355              		.loc 1 178 5 is_stmt 1 view .LVU97
 356 0028 04F1E000 		add	r0, r4, #224
 357 002c FFF7FEFF 		bl	mbedtls_ecp_point_init
 358              	.LVL33:
 179:D:/fchai/work/i-cube/I-CUBE-HUAWEI/Middlewares/Third_Party/Huawei/iot_link/network/dtls/mbedtls/mbedtls-2.16.2/library\ecdh.c ****     mbedtls_ecp_point_init( &ctx->Vf  );
 359              		.loc 1 179 5 view .LVU98
 360 0030 04F58270 		add	r0, r4, #260
 361 0034 FFF7FEFF 		bl	mbedtls_ecp_point_init
 362              	.LVL34:
 180:D:/fchai/work/i-cube/I-CUBE-HUAWEI/Middlewares/Third_Party/Huawei/iot_link/network/dtls/mbedtls/mbedtls-2.16.2/library\ecdh.c ****     mbedtls_mpi_init( &ctx->_d );
 363              		.loc 1 180 5 view .LVU99
 364 0038 04F59470 		add	r0, r4, #296
 365 003c FFF7FEFF 		bl	mbedtls_mpi_init
 366              	.LVL35:
 181:D:/fchai/work/i-cube/I-CUBE-HUAWEI/Middlewares/Third_Party/Huawei/iot_link/network/dtls/mbedtls/mbedtls-2.16.2/library\ecdh.c **** #else
 182:D:/fchai/work/i-cube/I-CUBE-HUAWEI/Middlewares/Third_Party/Huawei/iot_link/network/dtls/mbedtls/mbedtls-2.16.2/library\ecdh.c ****     memset( ctx, 0, sizeof( mbedtls_ecdh_context ) );
 183:D:/fchai/work/i-cube/I-CUBE-HUAWEI/Middlewares/Third_Party/Huawei/iot_link/network/dtls/mbedtls/mbedtls-2.16.2/library\ecdh.c **** 
 184:D:/fchai/work/i-cube/I-CUBE-HUAWEI/Middlewares/Third_Party/Huawei/iot_link/network/dtls/mbedtls/mbedtls-2.16.2/library\ecdh.c ****     ctx->var = MBEDTLS_ECDH_VARIANT_NONE;
 185:D:/fchai/work/i-cube/I-CUBE-HUAWEI/Middlewares/Third_Party/Huawei/iot_link/network/dtls/mbedtls/mbedtls-2.16.2/library\ecdh.c **** #endif
 186:D:/fchai/work/i-cube/I-CUBE-HUAWEI/Middlewares/Third_Party/Huawei/iot_link/network/dtls/mbedtls/mbedtls-2.16.2/library\ecdh.c ****     ctx->point_format = MBEDTLS_ECP_PF_UNCOMPRESSED;
 367              		.loc 1 186 5 view .LVU100
 368              		.loc 1 186 23 is_stmt 0 view .LVU101
 369 0040 0023     		movs	r3, #0
 370 0042 C4F8DC30 		str	r3, [r4, #220]
 187:D:/fchai/work/i-cube/I-CUBE-HUAWEI/Middlewares/Third_Party/Huawei/iot_link/network/dtls/mbedtls/mbedtls-2.16.2/library\ecdh.c **** #if defined(MBEDTLS_ECP_RESTARTABLE)
 188:D:/fchai/work/i-cube/I-CUBE-HUAWEI/Middlewares/Third_Party/Huawei/iot_link/network/dtls/mbedtls/mbedtls-2.16.2/library\ecdh.c ****     ctx->restart_enabled = 0;
 189:D:/fchai/work/i-cube/I-CUBE-HUAWEI/Middlewares/Third_Party/Huawei/iot_link/network/dtls/mbedtls/mbedtls-2.16.2/library\ecdh.c **** #endif
 190:D:/fchai/work/i-cube/I-CUBE-HUAWEI/Middlewares/Third_Party/Huawei/iot_link/network/dtls/mbedtls/mbedtls-2.16.2/library\ecdh.c **** }
 371              		.loc 1 190 1 view .LVU102
 372 0046 10BD     		pop	{r4, pc}
 373              		.loc 1 190 1 view .LVU103
 374              		.cfi_endproc
 375              	.LFE6:
 377              		.section	.text.mbedtls_ecdh_setup,"ax",%progbits
 378              		.align	1
 379              		.p2align 2,,3
 380              		.global	mbedtls_ecdh_setup
 381              		.syntax unified
 382              		.thumb
 383              		.thumb_func
 384              		.fpu fpv4-sp-d16
 386              	mbedtls_ecdh_setup:
 387              	.LVL36:
ARM GAS  T:\msys\tmp\cctaHzaT.s 			page 12


 388              	.LFB8:
 191:D:/fchai/work/i-cube/I-CUBE-HUAWEI/Middlewares/Third_Party/Huawei/iot_link/network/dtls/mbedtls/mbedtls-2.16.2/library\ecdh.c **** 
 192:D:/fchai/work/i-cube/I-CUBE-HUAWEI/Middlewares/Third_Party/Huawei/iot_link/network/dtls/mbedtls/mbedtls-2.16.2/library\ecdh.c **** static int ecdh_setup_internal( mbedtls_ecdh_context_mbed *ctx,
 193:D:/fchai/work/i-cube/I-CUBE-HUAWEI/Middlewares/Third_Party/Huawei/iot_link/network/dtls/mbedtls/mbedtls-2.16.2/library\ecdh.c ****                                 mbedtls_ecp_group_id grp_id )
 194:D:/fchai/work/i-cube/I-CUBE-HUAWEI/Middlewares/Third_Party/Huawei/iot_link/network/dtls/mbedtls/mbedtls-2.16.2/library\ecdh.c **** {
 195:D:/fchai/work/i-cube/I-CUBE-HUAWEI/Middlewares/Third_Party/Huawei/iot_link/network/dtls/mbedtls/mbedtls-2.16.2/library\ecdh.c ****     int ret;
 196:D:/fchai/work/i-cube/I-CUBE-HUAWEI/Middlewares/Third_Party/Huawei/iot_link/network/dtls/mbedtls/mbedtls-2.16.2/library\ecdh.c **** 
 197:D:/fchai/work/i-cube/I-CUBE-HUAWEI/Middlewares/Third_Party/Huawei/iot_link/network/dtls/mbedtls/mbedtls-2.16.2/library\ecdh.c ****     ret = mbedtls_ecp_group_load( &ctx->grp, grp_id );
 198:D:/fchai/work/i-cube/I-CUBE-HUAWEI/Middlewares/Third_Party/Huawei/iot_link/network/dtls/mbedtls/mbedtls-2.16.2/library\ecdh.c ****     if( ret != 0 )
 199:D:/fchai/work/i-cube/I-CUBE-HUAWEI/Middlewares/Third_Party/Huawei/iot_link/network/dtls/mbedtls/mbedtls-2.16.2/library\ecdh.c ****     {
 200:D:/fchai/work/i-cube/I-CUBE-HUAWEI/Middlewares/Third_Party/Huawei/iot_link/network/dtls/mbedtls/mbedtls-2.16.2/library\ecdh.c ****         return( MBEDTLS_ERR_ECP_FEATURE_UNAVAILABLE );
 201:D:/fchai/work/i-cube/I-CUBE-HUAWEI/Middlewares/Third_Party/Huawei/iot_link/network/dtls/mbedtls/mbedtls-2.16.2/library\ecdh.c ****     }
 202:D:/fchai/work/i-cube/I-CUBE-HUAWEI/Middlewares/Third_Party/Huawei/iot_link/network/dtls/mbedtls/mbedtls-2.16.2/library\ecdh.c **** 
 203:D:/fchai/work/i-cube/I-CUBE-HUAWEI/Middlewares/Third_Party/Huawei/iot_link/network/dtls/mbedtls/mbedtls-2.16.2/library\ecdh.c ****     return( 0 );
 204:D:/fchai/work/i-cube/I-CUBE-HUAWEI/Middlewares/Third_Party/Huawei/iot_link/network/dtls/mbedtls/mbedtls-2.16.2/library\ecdh.c **** }
 205:D:/fchai/work/i-cube/I-CUBE-HUAWEI/Middlewares/Third_Party/Huawei/iot_link/network/dtls/mbedtls/mbedtls-2.16.2/library\ecdh.c **** 
 206:D:/fchai/work/i-cube/I-CUBE-HUAWEI/Middlewares/Third_Party/Huawei/iot_link/network/dtls/mbedtls/mbedtls-2.16.2/library\ecdh.c **** /*
 207:D:/fchai/work/i-cube/I-CUBE-HUAWEI/Middlewares/Third_Party/Huawei/iot_link/network/dtls/mbedtls/mbedtls-2.16.2/library\ecdh.c ****  * Setup context
 208:D:/fchai/work/i-cube/I-CUBE-HUAWEI/Middlewares/Third_Party/Huawei/iot_link/network/dtls/mbedtls/mbedtls-2.16.2/library\ecdh.c ****  */
 209:D:/fchai/work/i-cube/I-CUBE-HUAWEI/Middlewares/Third_Party/Huawei/iot_link/network/dtls/mbedtls/mbedtls-2.16.2/library\ecdh.c **** int mbedtls_ecdh_setup( mbedtls_ecdh_context *ctx, mbedtls_ecp_group_id grp_id )
 210:D:/fchai/work/i-cube/I-CUBE-HUAWEI/Middlewares/Third_Party/Huawei/iot_link/network/dtls/mbedtls/mbedtls-2.16.2/library\ecdh.c **** {
 389              		.loc 1 210 1 is_stmt 1 view -0
 390              		.cfi_startproc
 391              		@ args = 0, pretend = 0, frame = 0
 392              		@ frame_needed = 0, uses_anonymous_args = 0
 211:D:/fchai/work/i-cube/I-CUBE-HUAWEI/Middlewares/Third_Party/Huawei/iot_link/network/dtls/mbedtls/mbedtls-2.16.2/library\ecdh.c ****     ECDH_VALIDATE_RET( ctx != NULL );
 393              		.loc 1 211 5 view .LVU105
 394              		.loc 1 211 5 view .LVU106
 395              		.loc 1 211 5 view .LVU107
 212:D:/fchai/work/i-cube/I-CUBE-HUAWEI/Middlewares/Third_Party/Huawei/iot_link/network/dtls/mbedtls/mbedtls-2.16.2/library\ecdh.c **** 
 213:D:/fchai/work/i-cube/I-CUBE-HUAWEI/Middlewares/Third_Party/Huawei/iot_link/network/dtls/mbedtls/mbedtls-2.16.2/library\ecdh.c **** #if defined(MBEDTLS_ECDH_LEGACY_CONTEXT)
 214:D:/fchai/work/i-cube/I-CUBE-HUAWEI/Middlewares/Third_Party/Huawei/iot_link/network/dtls/mbedtls/mbedtls-2.16.2/library\ecdh.c ****     return( ecdh_setup_internal( ctx, grp_id ) );
 396              		.loc 1 214 5 view .LVU108
 397              	.LBB34:
 398              	.LBI34:
 192:D:/fchai/work/i-cube/I-CUBE-HUAWEI/Middlewares/Third_Party/Huawei/iot_link/network/dtls/mbedtls/mbedtls-2.16.2/library\ecdh.c ****                                 mbedtls_ecp_group_id grp_id )
 399              		.loc 1 192 12 view .LVU109
 400              	.LBB35:
 195:D:/fchai/work/i-cube/I-CUBE-HUAWEI/Middlewares/Third_Party/Huawei/iot_link/network/dtls/mbedtls/mbedtls-2.16.2/library\ecdh.c **** 
 401              		.loc 1 195 5 view .LVU110
 197:D:/fchai/work/i-cube/I-CUBE-HUAWEI/Middlewares/Third_Party/Huawei/iot_link/network/dtls/mbedtls/mbedtls-2.16.2/library\ecdh.c ****     if( ret != 0 )
 402              		.loc 1 197 5 view .LVU111
 403              	.LBE35:
 404              	.LBE34:
 210:D:/fchai/work/i-cube/I-CUBE-HUAWEI/Middlewares/Third_Party/Huawei/iot_link/network/dtls/mbedtls/mbedtls-2.16.2/library\ecdh.c ****     ECDH_VALIDATE_RET( ctx != NULL );
 405              		.loc 1 210 1 is_stmt 0 view .LVU112
 406 0000 08B5     		push	{r3, lr}
 407              	.LCFI10:
 408              		.cfi_def_cfa_offset 8
 409              		.cfi_offset 3, -8
 410              		.cfi_offset 14, -4
 411              	.LBB37:
 412              	.LBB36:
 197:D:/fchai/work/i-cube/I-CUBE-HUAWEI/Middlewares/Third_Party/Huawei/iot_link/network/dtls/mbedtls/mbedtls-2.16.2/library\ecdh.c ****     if( ret != 0 )
 413              		.loc 1 197 11 view .LVU113
 414 0002 FFF7FEFF 		bl	mbedtls_ecp_group_load
 415              	.LVL37:
ARM GAS  T:\msys\tmp\cctaHzaT.s 			page 13


 198:D:/fchai/work/i-cube/I-CUBE-HUAWEI/Middlewares/Third_Party/Huawei/iot_link/network/dtls/mbedtls/mbedtls-2.16.2/library\ecdh.c ****     {
 416              		.loc 1 198 5 is_stmt 1 view .LVU114
 200:D:/fchai/work/i-cube/I-CUBE-HUAWEI/Middlewares/Third_Party/Huawei/iot_link/network/dtls/mbedtls/mbedtls-2.16.2/library\ecdh.c ****     }
 417              		.loc 1 200 15 is_stmt 0 view .LVU115
 418 0006 024B     		ldr	r3, .L21
 198:D:/fchai/work/i-cube/I-CUBE-HUAWEI/Middlewares/Third_Party/Huawei/iot_link/network/dtls/mbedtls/mbedtls-2.16.2/library\ecdh.c ****     {
 419              		.loc 1 198 7 view .LVU116
 420 0008 0028     		cmp	r0, #0
 198:D:/fchai/work/i-cube/I-CUBE-HUAWEI/Middlewares/Third_Party/Huawei/iot_link/network/dtls/mbedtls/mbedtls-2.16.2/library\ecdh.c ****     {
 421              		.loc 1 198 7 view .LVU117
 422              	.LBE36:
 423              	.LBE37:
 215:D:/fchai/work/i-cube/I-CUBE-HUAWEI/Middlewares/Third_Party/Huawei/iot_link/network/dtls/mbedtls/mbedtls-2.16.2/library\ecdh.c **** #else
 216:D:/fchai/work/i-cube/I-CUBE-HUAWEI/Middlewares/Third_Party/Huawei/iot_link/network/dtls/mbedtls/mbedtls-2.16.2/library\ecdh.c ****     switch( grp_id )
 217:D:/fchai/work/i-cube/I-CUBE-HUAWEI/Middlewares/Third_Party/Huawei/iot_link/network/dtls/mbedtls/mbedtls-2.16.2/library\ecdh.c ****     {
 218:D:/fchai/work/i-cube/I-CUBE-HUAWEI/Middlewares/Third_Party/Huawei/iot_link/network/dtls/mbedtls/mbedtls-2.16.2/library\ecdh.c ****         default:
 219:D:/fchai/work/i-cube/I-CUBE-HUAWEI/Middlewares/Third_Party/Huawei/iot_link/network/dtls/mbedtls/mbedtls-2.16.2/library\ecdh.c ****             ctx->point_format = MBEDTLS_ECP_PF_UNCOMPRESSED;
 220:D:/fchai/work/i-cube/I-CUBE-HUAWEI/Middlewares/Third_Party/Huawei/iot_link/network/dtls/mbedtls/mbedtls-2.16.2/library\ecdh.c ****             ctx->var = MBEDTLS_ECDH_VARIANT_MBEDTLS_2_0;
 221:D:/fchai/work/i-cube/I-CUBE-HUAWEI/Middlewares/Third_Party/Huawei/iot_link/network/dtls/mbedtls/mbedtls-2.16.2/library\ecdh.c ****             ctx->grp_id = grp_id;
 222:D:/fchai/work/i-cube/I-CUBE-HUAWEI/Middlewares/Third_Party/Huawei/iot_link/network/dtls/mbedtls/mbedtls-2.16.2/library\ecdh.c ****             ecdh_init_internal( &ctx->ctx.mbed_ecdh );
 223:D:/fchai/work/i-cube/I-CUBE-HUAWEI/Middlewares/Third_Party/Huawei/iot_link/network/dtls/mbedtls/mbedtls-2.16.2/library\ecdh.c ****             return( ecdh_setup_internal( &ctx->ctx.mbed_ecdh, grp_id ) );
 224:D:/fchai/work/i-cube/I-CUBE-HUAWEI/Middlewares/Third_Party/Huawei/iot_link/network/dtls/mbedtls/mbedtls-2.16.2/library\ecdh.c ****     }
 225:D:/fchai/work/i-cube/I-CUBE-HUAWEI/Middlewares/Third_Party/Huawei/iot_link/network/dtls/mbedtls/mbedtls-2.16.2/library\ecdh.c **** #endif
 226:D:/fchai/work/i-cube/I-CUBE-HUAWEI/Middlewares/Third_Party/Huawei/iot_link/network/dtls/mbedtls/mbedtls-2.16.2/library\ecdh.c **** }
 424              		.loc 1 226 1 view .LVU118
 425 000a 18BF     		it	ne
 426 000c 1846     		movne	r0, r3
 427              	.LVL38:
 428              		.loc 1 226 1 view .LVU119
 429 000e 08BD     		pop	{r3, pc}
 430              	.L22:
 431              		.align	2
 432              	.L21:
 433 0010 80B1FFFF 		.word	-20096
 434              		.cfi_endproc
 435              	.LFE8:
 437              		.section	.text.mbedtls_ecdh_free,"ax",%progbits
 438              		.align	1
 439              		.p2align 2,,3
 440              		.global	mbedtls_ecdh_free
 441              		.syntax unified
 442              		.thumb
 443              		.thumb_func
 444              		.fpu fpv4-sp-d16
 446              	mbedtls_ecdh_free:
 447              	.LVL39:
 448              	.LFB10:
 227:D:/fchai/work/i-cube/I-CUBE-HUAWEI/Middlewares/Third_Party/Huawei/iot_link/network/dtls/mbedtls/mbedtls-2.16.2/library\ecdh.c **** 
 228:D:/fchai/work/i-cube/I-CUBE-HUAWEI/Middlewares/Third_Party/Huawei/iot_link/network/dtls/mbedtls/mbedtls-2.16.2/library\ecdh.c **** static void ecdh_free_internal( mbedtls_ecdh_context_mbed *ctx )
 229:D:/fchai/work/i-cube/I-CUBE-HUAWEI/Middlewares/Third_Party/Huawei/iot_link/network/dtls/mbedtls/mbedtls-2.16.2/library\ecdh.c **** {
 230:D:/fchai/work/i-cube/I-CUBE-HUAWEI/Middlewares/Third_Party/Huawei/iot_link/network/dtls/mbedtls/mbedtls-2.16.2/library\ecdh.c ****     mbedtls_ecp_group_free( &ctx->grp );
 231:D:/fchai/work/i-cube/I-CUBE-HUAWEI/Middlewares/Third_Party/Huawei/iot_link/network/dtls/mbedtls/mbedtls-2.16.2/library\ecdh.c ****     mbedtls_mpi_free( &ctx->d  );
 232:D:/fchai/work/i-cube/I-CUBE-HUAWEI/Middlewares/Third_Party/Huawei/iot_link/network/dtls/mbedtls/mbedtls-2.16.2/library\ecdh.c ****     mbedtls_ecp_point_free( &ctx->Q   );
 233:D:/fchai/work/i-cube/I-CUBE-HUAWEI/Middlewares/Third_Party/Huawei/iot_link/network/dtls/mbedtls/mbedtls-2.16.2/library\ecdh.c ****     mbedtls_ecp_point_free( &ctx->Qp  );
 234:D:/fchai/work/i-cube/I-CUBE-HUAWEI/Middlewares/Third_Party/Huawei/iot_link/network/dtls/mbedtls/mbedtls-2.16.2/library\ecdh.c ****     mbedtls_mpi_free( &ctx->z  );
 235:D:/fchai/work/i-cube/I-CUBE-HUAWEI/Middlewares/Third_Party/Huawei/iot_link/network/dtls/mbedtls/mbedtls-2.16.2/library\ecdh.c **** 
 236:D:/fchai/work/i-cube/I-CUBE-HUAWEI/Middlewares/Third_Party/Huawei/iot_link/network/dtls/mbedtls/mbedtls-2.16.2/library\ecdh.c **** #if defined(MBEDTLS_ECP_RESTARTABLE)
ARM GAS  T:\msys\tmp\cctaHzaT.s 			page 14


 237:D:/fchai/work/i-cube/I-CUBE-HUAWEI/Middlewares/Third_Party/Huawei/iot_link/network/dtls/mbedtls/mbedtls-2.16.2/library\ecdh.c ****     mbedtls_ecp_restart_free( &ctx->rs );
 238:D:/fchai/work/i-cube/I-CUBE-HUAWEI/Middlewares/Third_Party/Huawei/iot_link/network/dtls/mbedtls/mbedtls-2.16.2/library\ecdh.c **** #endif
 239:D:/fchai/work/i-cube/I-CUBE-HUAWEI/Middlewares/Third_Party/Huawei/iot_link/network/dtls/mbedtls/mbedtls-2.16.2/library\ecdh.c **** }
 240:D:/fchai/work/i-cube/I-CUBE-HUAWEI/Middlewares/Third_Party/Huawei/iot_link/network/dtls/mbedtls/mbedtls-2.16.2/library\ecdh.c **** 
 241:D:/fchai/work/i-cube/I-CUBE-HUAWEI/Middlewares/Third_Party/Huawei/iot_link/network/dtls/mbedtls/mbedtls-2.16.2/library\ecdh.c **** #if defined(MBEDTLS_ECP_RESTARTABLE)
 242:D:/fchai/work/i-cube/I-CUBE-HUAWEI/Middlewares/Third_Party/Huawei/iot_link/network/dtls/mbedtls/mbedtls-2.16.2/library\ecdh.c **** /*
 243:D:/fchai/work/i-cube/I-CUBE-HUAWEI/Middlewares/Third_Party/Huawei/iot_link/network/dtls/mbedtls/mbedtls-2.16.2/library\ecdh.c ****  * Enable restartable operations for context
 244:D:/fchai/work/i-cube/I-CUBE-HUAWEI/Middlewares/Third_Party/Huawei/iot_link/network/dtls/mbedtls/mbedtls-2.16.2/library\ecdh.c ****  */
 245:D:/fchai/work/i-cube/I-CUBE-HUAWEI/Middlewares/Third_Party/Huawei/iot_link/network/dtls/mbedtls/mbedtls-2.16.2/library\ecdh.c **** void mbedtls_ecdh_enable_restart( mbedtls_ecdh_context *ctx )
 246:D:/fchai/work/i-cube/I-CUBE-HUAWEI/Middlewares/Third_Party/Huawei/iot_link/network/dtls/mbedtls/mbedtls-2.16.2/library\ecdh.c **** {
 247:D:/fchai/work/i-cube/I-CUBE-HUAWEI/Middlewares/Third_Party/Huawei/iot_link/network/dtls/mbedtls/mbedtls-2.16.2/library\ecdh.c ****     ECDH_VALIDATE( ctx != NULL );
 248:D:/fchai/work/i-cube/I-CUBE-HUAWEI/Middlewares/Third_Party/Huawei/iot_link/network/dtls/mbedtls/mbedtls-2.16.2/library\ecdh.c **** 
 249:D:/fchai/work/i-cube/I-CUBE-HUAWEI/Middlewares/Third_Party/Huawei/iot_link/network/dtls/mbedtls/mbedtls-2.16.2/library\ecdh.c ****     ctx->restart_enabled = 1;
 250:D:/fchai/work/i-cube/I-CUBE-HUAWEI/Middlewares/Third_Party/Huawei/iot_link/network/dtls/mbedtls/mbedtls-2.16.2/library\ecdh.c **** }
 251:D:/fchai/work/i-cube/I-CUBE-HUAWEI/Middlewares/Third_Party/Huawei/iot_link/network/dtls/mbedtls/mbedtls-2.16.2/library\ecdh.c **** #endif
 252:D:/fchai/work/i-cube/I-CUBE-HUAWEI/Middlewares/Third_Party/Huawei/iot_link/network/dtls/mbedtls/mbedtls-2.16.2/library\ecdh.c **** 
 253:D:/fchai/work/i-cube/I-CUBE-HUAWEI/Middlewares/Third_Party/Huawei/iot_link/network/dtls/mbedtls/mbedtls-2.16.2/library\ecdh.c **** /*
 254:D:/fchai/work/i-cube/I-CUBE-HUAWEI/Middlewares/Third_Party/Huawei/iot_link/network/dtls/mbedtls/mbedtls-2.16.2/library\ecdh.c ****  * Free context
 255:D:/fchai/work/i-cube/I-CUBE-HUAWEI/Middlewares/Third_Party/Huawei/iot_link/network/dtls/mbedtls/mbedtls-2.16.2/library\ecdh.c ****  */
 256:D:/fchai/work/i-cube/I-CUBE-HUAWEI/Middlewares/Third_Party/Huawei/iot_link/network/dtls/mbedtls/mbedtls-2.16.2/library\ecdh.c **** void mbedtls_ecdh_free( mbedtls_ecdh_context *ctx )
 257:D:/fchai/work/i-cube/I-CUBE-HUAWEI/Middlewares/Third_Party/Huawei/iot_link/network/dtls/mbedtls/mbedtls-2.16.2/library\ecdh.c **** {
 449              		.loc 1 257 1 is_stmt 1 view -0
 450              		.cfi_startproc
 451              		@ args = 0, pretend = 0, frame = 0
 452              		@ frame_needed = 0, uses_anonymous_args = 0
 258:D:/fchai/work/i-cube/I-CUBE-HUAWEI/Middlewares/Third_Party/Huawei/iot_link/network/dtls/mbedtls/mbedtls-2.16.2/library\ecdh.c ****     if( ctx == NULL )
 453              		.loc 1 258 5 view .LVU121
 454              		.loc 1 258 7 is_stmt 0 view .LVU122
 455 0000 08B3     		cbz	r0, .L23
 259:D:/fchai/work/i-cube/I-CUBE-HUAWEI/Middlewares/Third_Party/Huawei/iot_link/network/dtls/mbedtls/mbedtls-2.16.2/library\ecdh.c ****         return;
 260:D:/fchai/work/i-cube/I-CUBE-HUAWEI/Middlewares/Third_Party/Huawei/iot_link/network/dtls/mbedtls/mbedtls-2.16.2/library\ecdh.c **** 
 261:D:/fchai/work/i-cube/I-CUBE-HUAWEI/Middlewares/Third_Party/Huawei/iot_link/network/dtls/mbedtls/mbedtls-2.16.2/library\ecdh.c **** #if defined(MBEDTLS_ECDH_LEGACY_CONTEXT)
 262:D:/fchai/work/i-cube/I-CUBE-HUAWEI/Middlewares/Third_Party/Huawei/iot_link/network/dtls/mbedtls/mbedtls-2.16.2/library\ecdh.c ****     mbedtls_ecp_point_free( &ctx->Vi );
 456              		.loc 1 262 5 is_stmt 1 view .LVU123
 257:D:/fchai/work/i-cube/I-CUBE-HUAWEI/Middlewares/Third_Party/Huawei/iot_link/network/dtls/mbedtls/mbedtls-2.16.2/library\ecdh.c ****     if( ctx == NULL )
 457              		.loc 1 257 1 is_stmt 0 view .LVU124
 458 0002 10B5     		push	{r4, lr}
 459              	.LCFI11:
 460              		.cfi_def_cfa_offset 8
 461              		.cfi_offset 4, -8
 462              		.cfi_offset 14, -4
 463 0004 0446     		mov	r4, r0
 464              		.loc 1 262 5 view .LVU125
 465 0006 E030     		adds	r0, r0, #224
 466              	.LVL40:
 467              		.loc 1 262 5 view .LVU126
 468 0008 FFF7FEFF 		bl	mbedtls_ecp_point_free
 469              	.LVL41:
 263:D:/fchai/work/i-cube/I-CUBE-HUAWEI/Middlewares/Third_Party/Huawei/iot_link/network/dtls/mbedtls/mbedtls-2.16.2/library\ecdh.c ****     mbedtls_ecp_point_free( &ctx->Vf );
 470              		.loc 1 263 5 is_stmt 1 view .LVU127
 471 000c 04F58270 		add	r0, r4, #260
 472 0010 FFF7FEFF 		bl	mbedtls_ecp_point_free
 473              	.LVL42:
 264:D:/fchai/work/i-cube/I-CUBE-HUAWEI/Middlewares/Third_Party/Huawei/iot_link/network/dtls/mbedtls/mbedtls-2.16.2/library\ecdh.c ****     mbedtls_mpi_free( &ctx->_d );
 474              		.loc 1 264 5 view .LVU128
 475 0014 04F59470 		add	r0, r4, #296
 476 0018 FFF7FEFF 		bl	mbedtls_mpi_free
ARM GAS  T:\msys\tmp\cctaHzaT.s 			page 15


 477              	.LVL43:
 265:D:/fchai/work/i-cube/I-CUBE-HUAWEI/Middlewares/Third_Party/Huawei/iot_link/network/dtls/mbedtls/mbedtls-2.16.2/library\ecdh.c ****     ecdh_free_internal( ctx );
 478              		.loc 1 265 5 view .LVU129
 479              	.LBB40:
 480              	.LBI40:
 228:D:/fchai/work/i-cube/I-CUBE-HUAWEI/Middlewares/Third_Party/Huawei/iot_link/network/dtls/mbedtls/mbedtls-2.16.2/library\ecdh.c **** {
 481              		.loc 1 228 13 view .LVU130
 482              	.LBB41:
 230:D:/fchai/work/i-cube/I-CUBE-HUAWEI/Middlewares/Third_Party/Huawei/iot_link/network/dtls/mbedtls/mbedtls-2.16.2/library\ecdh.c ****     mbedtls_mpi_free( &ctx->d  );
 483              		.loc 1 230 5 view .LVU131
 484 001c 2046     		mov	r0, r4
 485 001e FFF7FEFF 		bl	mbedtls_ecp_group_free
 486              	.LVL44:
 231:D:/fchai/work/i-cube/I-CUBE-HUAWEI/Middlewares/Third_Party/Huawei/iot_link/network/dtls/mbedtls/mbedtls-2.16.2/library\ecdh.c ****     mbedtls_ecp_point_free( &ctx->Q   );
 487              		.loc 1 231 5 view .LVU132
 488 0022 04F17C00 		add	r0, r4, #124
 489 0026 FFF7FEFF 		bl	mbedtls_mpi_free
 490              	.LVL45:
 232:D:/fchai/work/i-cube/I-CUBE-HUAWEI/Middlewares/Third_Party/Huawei/iot_link/network/dtls/mbedtls/mbedtls-2.16.2/library\ecdh.c ****     mbedtls_ecp_point_free( &ctx->Qp  );
 491              		.loc 1 232 5 view .LVU133
 492 002a 04F18800 		add	r0, r4, #136
 493 002e FFF7FEFF 		bl	mbedtls_ecp_point_free
 494              	.LVL46:
 233:D:/fchai/work/i-cube/I-CUBE-HUAWEI/Middlewares/Third_Party/Huawei/iot_link/network/dtls/mbedtls/mbedtls-2.16.2/library\ecdh.c ****     mbedtls_mpi_free( &ctx->z  );
 495              		.loc 1 233 5 view .LVU134
 496 0032 04F1AC00 		add	r0, r4, #172
 497 0036 FFF7FEFF 		bl	mbedtls_ecp_point_free
 498              	.LVL47:
 234:D:/fchai/work/i-cube/I-CUBE-HUAWEI/Middlewares/Third_Party/Huawei/iot_link/network/dtls/mbedtls/mbedtls-2.16.2/library\ecdh.c **** 
 499              		.loc 1 234 5 view .LVU135
 500 003a 04F1D000 		add	r0, r4, #208
 501              	.LBE41:
 502              	.LBE40:
 266:D:/fchai/work/i-cube/I-CUBE-HUAWEI/Middlewares/Third_Party/Huawei/iot_link/network/dtls/mbedtls/mbedtls-2.16.2/library\ecdh.c **** #else
 267:D:/fchai/work/i-cube/I-CUBE-HUAWEI/Middlewares/Third_Party/Huawei/iot_link/network/dtls/mbedtls/mbedtls-2.16.2/library\ecdh.c ****     switch( ctx->var )
 268:D:/fchai/work/i-cube/I-CUBE-HUAWEI/Middlewares/Third_Party/Huawei/iot_link/network/dtls/mbedtls/mbedtls-2.16.2/library\ecdh.c ****     {
 269:D:/fchai/work/i-cube/I-CUBE-HUAWEI/Middlewares/Third_Party/Huawei/iot_link/network/dtls/mbedtls/mbedtls-2.16.2/library\ecdh.c ****         case MBEDTLS_ECDH_VARIANT_MBEDTLS_2_0:
 270:D:/fchai/work/i-cube/I-CUBE-HUAWEI/Middlewares/Third_Party/Huawei/iot_link/network/dtls/mbedtls/mbedtls-2.16.2/library\ecdh.c ****             ecdh_free_internal( &ctx->ctx.mbed_ecdh );
 271:D:/fchai/work/i-cube/I-CUBE-HUAWEI/Middlewares/Third_Party/Huawei/iot_link/network/dtls/mbedtls/mbedtls-2.16.2/library\ecdh.c ****             break;
 272:D:/fchai/work/i-cube/I-CUBE-HUAWEI/Middlewares/Third_Party/Huawei/iot_link/network/dtls/mbedtls/mbedtls-2.16.2/library\ecdh.c ****         default:
 273:D:/fchai/work/i-cube/I-CUBE-HUAWEI/Middlewares/Third_Party/Huawei/iot_link/network/dtls/mbedtls/mbedtls-2.16.2/library\ecdh.c ****             break;
 274:D:/fchai/work/i-cube/I-CUBE-HUAWEI/Middlewares/Third_Party/Huawei/iot_link/network/dtls/mbedtls/mbedtls-2.16.2/library\ecdh.c ****     }
 275:D:/fchai/work/i-cube/I-CUBE-HUAWEI/Middlewares/Third_Party/Huawei/iot_link/network/dtls/mbedtls/mbedtls-2.16.2/library\ecdh.c **** 
 276:D:/fchai/work/i-cube/I-CUBE-HUAWEI/Middlewares/Third_Party/Huawei/iot_link/network/dtls/mbedtls/mbedtls-2.16.2/library\ecdh.c ****     ctx->point_format = MBEDTLS_ECP_PF_UNCOMPRESSED;
 277:D:/fchai/work/i-cube/I-CUBE-HUAWEI/Middlewares/Third_Party/Huawei/iot_link/network/dtls/mbedtls/mbedtls-2.16.2/library\ecdh.c ****     ctx->var = MBEDTLS_ECDH_VARIANT_NONE;
 278:D:/fchai/work/i-cube/I-CUBE-HUAWEI/Middlewares/Third_Party/Huawei/iot_link/network/dtls/mbedtls/mbedtls-2.16.2/library\ecdh.c ****     ctx->grp_id = MBEDTLS_ECP_DP_NONE;
 279:D:/fchai/work/i-cube/I-CUBE-HUAWEI/Middlewares/Third_Party/Huawei/iot_link/network/dtls/mbedtls/mbedtls-2.16.2/library\ecdh.c **** #endif
 280:D:/fchai/work/i-cube/I-CUBE-HUAWEI/Middlewares/Third_Party/Huawei/iot_link/network/dtls/mbedtls/mbedtls-2.16.2/library\ecdh.c **** }
 503              		.loc 1 280 1 is_stmt 0 view .LVU136
 504 003e BDE81040 		pop	{r4, lr}
 505              	.LCFI12:
 506              		.cfi_restore 14
 507              		.cfi_restore 4
 508              		.cfi_def_cfa_offset 0
 509              	.LVL48:
 510              	.LBB43:
 511              	.LBB42:
ARM GAS  T:\msys\tmp\cctaHzaT.s 			page 16


 234:D:/fchai/work/i-cube/I-CUBE-HUAWEI/Middlewares/Third_Party/Huawei/iot_link/network/dtls/mbedtls/mbedtls-2.16.2/library\ecdh.c **** 
 512              		.loc 1 234 5 view .LVU137
 513 0042 FFF7FEBF 		b	mbedtls_mpi_free
 514              	.LVL49:
 515              	.L23:
 234:D:/fchai/work/i-cube/I-CUBE-HUAWEI/Middlewares/Third_Party/Huawei/iot_link/network/dtls/mbedtls/mbedtls-2.16.2/library\ecdh.c **** 
 516              		.loc 1 234 5 view .LVU138
 517 0046 7047     		bx	lr
 518              	.LBE42:
 519              	.LBE43:
 520              		.cfi_endproc
 521              	.LFE10:
 523              		.section	.text.mbedtls_ecdh_make_params,"ax",%progbits
 524              		.align	1
 525              		.p2align 2,,3
 526              		.global	mbedtls_ecdh_make_params
 527              		.syntax unified
 528              		.thumb
 529              		.thumb_func
 530              		.fpu fpv4-sp-d16
 532              	mbedtls_ecdh_make_params:
 533              	.LVL50:
 534              	.LFB12:
 281:D:/fchai/work/i-cube/I-CUBE-HUAWEI/Middlewares/Third_Party/Huawei/iot_link/network/dtls/mbedtls/mbedtls-2.16.2/library\ecdh.c **** 
 282:D:/fchai/work/i-cube/I-CUBE-HUAWEI/Middlewares/Third_Party/Huawei/iot_link/network/dtls/mbedtls/mbedtls-2.16.2/library\ecdh.c **** static int ecdh_make_params_internal( mbedtls_ecdh_context_mbed *ctx,
 283:D:/fchai/work/i-cube/I-CUBE-HUAWEI/Middlewares/Third_Party/Huawei/iot_link/network/dtls/mbedtls/mbedtls-2.16.2/library\ecdh.c ****                                       size_t *olen, int point_format,
 284:D:/fchai/work/i-cube/I-CUBE-HUAWEI/Middlewares/Third_Party/Huawei/iot_link/network/dtls/mbedtls/mbedtls-2.16.2/library\ecdh.c ****                                       unsigned char *buf, size_t blen,
 285:D:/fchai/work/i-cube/I-CUBE-HUAWEI/Middlewares/Third_Party/Huawei/iot_link/network/dtls/mbedtls/mbedtls-2.16.2/library\ecdh.c ****                                       int (*f_rng)(void *,
 286:D:/fchai/work/i-cube/I-CUBE-HUAWEI/Middlewares/Third_Party/Huawei/iot_link/network/dtls/mbedtls/mbedtls-2.16.2/library\ecdh.c ****                                                    unsigned char *,
 287:D:/fchai/work/i-cube/I-CUBE-HUAWEI/Middlewares/Third_Party/Huawei/iot_link/network/dtls/mbedtls/mbedtls-2.16.2/library\ecdh.c ****                                                    size_t),
 288:D:/fchai/work/i-cube/I-CUBE-HUAWEI/Middlewares/Third_Party/Huawei/iot_link/network/dtls/mbedtls/mbedtls-2.16.2/library\ecdh.c ****                                       void *p_rng,
 289:D:/fchai/work/i-cube/I-CUBE-HUAWEI/Middlewares/Third_Party/Huawei/iot_link/network/dtls/mbedtls/mbedtls-2.16.2/library\ecdh.c ****                                       int restart_enabled )
 290:D:/fchai/work/i-cube/I-CUBE-HUAWEI/Middlewares/Third_Party/Huawei/iot_link/network/dtls/mbedtls/mbedtls-2.16.2/library\ecdh.c **** {
 291:D:/fchai/work/i-cube/I-CUBE-HUAWEI/Middlewares/Third_Party/Huawei/iot_link/network/dtls/mbedtls/mbedtls-2.16.2/library\ecdh.c ****     int ret;
 292:D:/fchai/work/i-cube/I-CUBE-HUAWEI/Middlewares/Third_Party/Huawei/iot_link/network/dtls/mbedtls/mbedtls-2.16.2/library\ecdh.c ****     size_t grp_len, pt_len;
 293:D:/fchai/work/i-cube/I-CUBE-HUAWEI/Middlewares/Third_Party/Huawei/iot_link/network/dtls/mbedtls/mbedtls-2.16.2/library\ecdh.c **** #if defined(MBEDTLS_ECP_RESTARTABLE)
 294:D:/fchai/work/i-cube/I-CUBE-HUAWEI/Middlewares/Third_Party/Huawei/iot_link/network/dtls/mbedtls/mbedtls-2.16.2/library\ecdh.c ****     mbedtls_ecp_restart_ctx *rs_ctx = NULL;
 295:D:/fchai/work/i-cube/I-CUBE-HUAWEI/Middlewares/Third_Party/Huawei/iot_link/network/dtls/mbedtls/mbedtls-2.16.2/library\ecdh.c **** #endif
 296:D:/fchai/work/i-cube/I-CUBE-HUAWEI/Middlewares/Third_Party/Huawei/iot_link/network/dtls/mbedtls/mbedtls-2.16.2/library\ecdh.c **** 
 297:D:/fchai/work/i-cube/I-CUBE-HUAWEI/Middlewares/Third_Party/Huawei/iot_link/network/dtls/mbedtls/mbedtls-2.16.2/library\ecdh.c ****     if( ctx->grp.pbits == 0 )
 298:D:/fchai/work/i-cube/I-CUBE-HUAWEI/Middlewares/Third_Party/Huawei/iot_link/network/dtls/mbedtls/mbedtls-2.16.2/library\ecdh.c ****         return( MBEDTLS_ERR_ECP_BAD_INPUT_DATA );
 299:D:/fchai/work/i-cube/I-CUBE-HUAWEI/Middlewares/Third_Party/Huawei/iot_link/network/dtls/mbedtls/mbedtls-2.16.2/library\ecdh.c **** 
 300:D:/fchai/work/i-cube/I-CUBE-HUAWEI/Middlewares/Third_Party/Huawei/iot_link/network/dtls/mbedtls/mbedtls-2.16.2/library\ecdh.c **** #if defined(MBEDTLS_ECP_RESTARTABLE)
 301:D:/fchai/work/i-cube/I-CUBE-HUAWEI/Middlewares/Third_Party/Huawei/iot_link/network/dtls/mbedtls/mbedtls-2.16.2/library\ecdh.c ****     if( restart_enabled )
 302:D:/fchai/work/i-cube/I-CUBE-HUAWEI/Middlewares/Third_Party/Huawei/iot_link/network/dtls/mbedtls/mbedtls-2.16.2/library\ecdh.c ****         rs_ctx = &ctx->rs;
 303:D:/fchai/work/i-cube/I-CUBE-HUAWEI/Middlewares/Third_Party/Huawei/iot_link/network/dtls/mbedtls/mbedtls-2.16.2/library\ecdh.c **** #else
 304:D:/fchai/work/i-cube/I-CUBE-HUAWEI/Middlewares/Third_Party/Huawei/iot_link/network/dtls/mbedtls/mbedtls-2.16.2/library\ecdh.c ****     (void) restart_enabled;
 305:D:/fchai/work/i-cube/I-CUBE-HUAWEI/Middlewares/Third_Party/Huawei/iot_link/network/dtls/mbedtls/mbedtls-2.16.2/library\ecdh.c **** #endif
 306:D:/fchai/work/i-cube/I-CUBE-HUAWEI/Middlewares/Third_Party/Huawei/iot_link/network/dtls/mbedtls/mbedtls-2.16.2/library\ecdh.c **** 
 307:D:/fchai/work/i-cube/I-CUBE-HUAWEI/Middlewares/Third_Party/Huawei/iot_link/network/dtls/mbedtls/mbedtls-2.16.2/library\ecdh.c **** 
 308:D:/fchai/work/i-cube/I-CUBE-HUAWEI/Middlewares/Third_Party/Huawei/iot_link/network/dtls/mbedtls/mbedtls-2.16.2/library\ecdh.c **** #if defined(MBEDTLS_ECP_RESTARTABLE)
 309:D:/fchai/work/i-cube/I-CUBE-HUAWEI/Middlewares/Third_Party/Huawei/iot_link/network/dtls/mbedtls/mbedtls-2.16.2/library\ecdh.c ****     if( ( ret = ecdh_gen_public_restartable( &ctx->grp, &ctx->d, &ctx->Q,
 310:D:/fchai/work/i-cube/I-CUBE-HUAWEI/Middlewares/Third_Party/Huawei/iot_link/network/dtls/mbedtls/mbedtls-2.16.2/library\ecdh.c ****                                              f_rng, p_rng, rs_ctx ) ) != 0 )
 311:D:/fchai/work/i-cube/I-CUBE-HUAWEI/Middlewares/Third_Party/Huawei/iot_link/network/dtls/mbedtls/mbedtls-2.16.2/library\ecdh.c ****         return( ret );
 312:D:/fchai/work/i-cube/I-CUBE-HUAWEI/Middlewares/Third_Party/Huawei/iot_link/network/dtls/mbedtls/mbedtls-2.16.2/library\ecdh.c **** #else
 313:D:/fchai/work/i-cube/I-CUBE-HUAWEI/Middlewares/Third_Party/Huawei/iot_link/network/dtls/mbedtls/mbedtls-2.16.2/library\ecdh.c ****     if( ( ret = mbedtls_ecdh_gen_public( &ctx->grp, &ctx->d, &ctx->Q,
 314:D:/fchai/work/i-cube/I-CUBE-HUAWEI/Middlewares/Third_Party/Huawei/iot_link/network/dtls/mbedtls/mbedtls-2.16.2/library\ecdh.c ****                                          f_rng, p_rng ) ) != 0 )
ARM GAS  T:\msys\tmp\cctaHzaT.s 			page 17


 315:D:/fchai/work/i-cube/I-CUBE-HUAWEI/Middlewares/Third_Party/Huawei/iot_link/network/dtls/mbedtls/mbedtls-2.16.2/library\ecdh.c ****         return( ret );
 316:D:/fchai/work/i-cube/I-CUBE-HUAWEI/Middlewares/Third_Party/Huawei/iot_link/network/dtls/mbedtls/mbedtls-2.16.2/library\ecdh.c **** #endif /* MBEDTLS_ECP_RESTARTABLE */
 317:D:/fchai/work/i-cube/I-CUBE-HUAWEI/Middlewares/Third_Party/Huawei/iot_link/network/dtls/mbedtls/mbedtls-2.16.2/library\ecdh.c **** 
 318:D:/fchai/work/i-cube/I-CUBE-HUAWEI/Middlewares/Third_Party/Huawei/iot_link/network/dtls/mbedtls/mbedtls-2.16.2/library\ecdh.c ****     if( ( ret = mbedtls_ecp_tls_write_group( &ctx->grp, &grp_len, buf,
 319:D:/fchai/work/i-cube/I-CUBE-HUAWEI/Middlewares/Third_Party/Huawei/iot_link/network/dtls/mbedtls/mbedtls-2.16.2/library\ecdh.c ****                                              blen ) ) != 0 )
 320:D:/fchai/work/i-cube/I-CUBE-HUAWEI/Middlewares/Third_Party/Huawei/iot_link/network/dtls/mbedtls/mbedtls-2.16.2/library\ecdh.c ****         return( ret );
 321:D:/fchai/work/i-cube/I-CUBE-HUAWEI/Middlewares/Third_Party/Huawei/iot_link/network/dtls/mbedtls/mbedtls-2.16.2/library\ecdh.c **** 
 322:D:/fchai/work/i-cube/I-CUBE-HUAWEI/Middlewares/Third_Party/Huawei/iot_link/network/dtls/mbedtls/mbedtls-2.16.2/library\ecdh.c ****     buf += grp_len;
 323:D:/fchai/work/i-cube/I-CUBE-HUAWEI/Middlewares/Third_Party/Huawei/iot_link/network/dtls/mbedtls/mbedtls-2.16.2/library\ecdh.c ****     blen -= grp_len;
 324:D:/fchai/work/i-cube/I-CUBE-HUAWEI/Middlewares/Third_Party/Huawei/iot_link/network/dtls/mbedtls/mbedtls-2.16.2/library\ecdh.c **** 
 325:D:/fchai/work/i-cube/I-CUBE-HUAWEI/Middlewares/Third_Party/Huawei/iot_link/network/dtls/mbedtls/mbedtls-2.16.2/library\ecdh.c ****     if( ( ret = mbedtls_ecp_tls_write_point( &ctx->grp, &ctx->Q, point_format,
 326:D:/fchai/work/i-cube/I-CUBE-HUAWEI/Middlewares/Third_Party/Huawei/iot_link/network/dtls/mbedtls/mbedtls-2.16.2/library\ecdh.c ****                                              &pt_len, buf, blen ) ) != 0 )
 327:D:/fchai/work/i-cube/I-CUBE-HUAWEI/Middlewares/Third_Party/Huawei/iot_link/network/dtls/mbedtls/mbedtls-2.16.2/library\ecdh.c ****         return( ret );
 328:D:/fchai/work/i-cube/I-CUBE-HUAWEI/Middlewares/Third_Party/Huawei/iot_link/network/dtls/mbedtls/mbedtls-2.16.2/library\ecdh.c **** 
 329:D:/fchai/work/i-cube/I-CUBE-HUAWEI/Middlewares/Third_Party/Huawei/iot_link/network/dtls/mbedtls/mbedtls-2.16.2/library\ecdh.c ****     *olen = grp_len + pt_len;
 330:D:/fchai/work/i-cube/I-CUBE-HUAWEI/Middlewares/Third_Party/Huawei/iot_link/network/dtls/mbedtls/mbedtls-2.16.2/library\ecdh.c ****     return( 0 );
 331:D:/fchai/work/i-cube/I-CUBE-HUAWEI/Middlewares/Third_Party/Huawei/iot_link/network/dtls/mbedtls/mbedtls-2.16.2/library\ecdh.c **** }
 332:D:/fchai/work/i-cube/I-CUBE-HUAWEI/Middlewares/Third_Party/Huawei/iot_link/network/dtls/mbedtls/mbedtls-2.16.2/library\ecdh.c **** 
 333:D:/fchai/work/i-cube/I-CUBE-HUAWEI/Middlewares/Third_Party/Huawei/iot_link/network/dtls/mbedtls/mbedtls-2.16.2/library\ecdh.c **** /*
 334:D:/fchai/work/i-cube/I-CUBE-HUAWEI/Middlewares/Third_Party/Huawei/iot_link/network/dtls/mbedtls/mbedtls-2.16.2/library\ecdh.c ****  * Setup and write the ServerKeyExhange parameters (RFC 4492)
 335:D:/fchai/work/i-cube/I-CUBE-HUAWEI/Middlewares/Third_Party/Huawei/iot_link/network/dtls/mbedtls/mbedtls-2.16.2/library\ecdh.c ****  *      struct {
 336:D:/fchai/work/i-cube/I-CUBE-HUAWEI/Middlewares/Third_Party/Huawei/iot_link/network/dtls/mbedtls/mbedtls-2.16.2/library\ecdh.c ****  *          ECParameters    curve_params;
 337:D:/fchai/work/i-cube/I-CUBE-HUAWEI/Middlewares/Third_Party/Huawei/iot_link/network/dtls/mbedtls/mbedtls-2.16.2/library\ecdh.c ****  *          ECPoint         public;
 338:D:/fchai/work/i-cube/I-CUBE-HUAWEI/Middlewares/Third_Party/Huawei/iot_link/network/dtls/mbedtls/mbedtls-2.16.2/library\ecdh.c ****  *      } ServerECDHParams;
 339:D:/fchai/work/i-cube/I-CUBE-HUAWEI/Middlewares/Third_Party/Huawei/iot_link/network/dtls/mbedtls/mbedtls-2.16.2/library\ecdh.c ****  */
 340:D:/fchai/work/i-cube/I-CUBE-HUAWEI/Middlewares/Third_Party/Huawei/iot_link/network/dtls/mbedtls/mbedtls-2.16.2/library\ecdh.c **** int mbedtls_ecdh_make_params( mbedtls_ecdh_context *ctx, size_t *olen,
 341:D:/fchai/work/i-cube/I-CUBE-HUAWEI/Middlewares/Third_Party/Huawei/iot_link/network/dtls/mbedtls/mbedtls-2.16.2/library\ecdh.c ****                               unsigned char *buf, size_t blen,
 342:D:/fchai/work/i-cube/I-CUBE-HUAWEI/Middlewares/Third_Party/Huawei/iot_link/network/dtls/mbedtls/mbedtls-2.16.2/library\ecdh.c ****                               int (*f_rng)(void *, unsigned char *, size_t),
 343:D:/fchai/work/i-cube/I-CUBE-HUAWEI/Middlewares/Third_Party/Huawei/iot_link/network/dtls/mbedtls/mbedtls-2.16.2/library\ecdh.c ****                               void *p_rng )
 344:D:/fchai/work/i-cube/I-CUBE-HUAWEI/Middlewares/Third_Party/Huawei/iot_link/network/dtls/mbedtls/mbedtls-2.16.2/library\ecdh.c **** {
 535              		.loc 1 344 1 is_stmt 1 view -0
 536              		.cfi_startproc
 537              		@ args = 8, pretend = 0, frame = 8
 538              		@ frame_needed = 0, uses_anonymous_args = 0
 345:D:/fchai/work/i-cube/I-CUBE-HUAWEI/Middlewares/Third_Party/Huawei/iot_link/network/dtls/mbedtls/mbedtls-2.16.2/library\ecdh.c ****     int restart_enabled = 0;
 539              		.loc 1 345 5 view .LVU140
 346:D:/fchai/work/i-cube/I-CUBE-HUAWEI/Middlewares/Third_Party/Huawei/iot_link/network/dtls/mbedtls/mbedtls-2.16.2/library\ecdh.c ****     ECDH_VALIDATE_RET( ctx != NULL );
 540              		.loc 1 346 5 view .LVU141
 541              		.loc 1 346 5 view .LVU142
 542              		.loc 1 346 5 view .LVU143
 347:D:/fchai/work/i-cube/I-CUBE-HUAWEI/Middlewares/Third_Party/Huawei/iot_link/network/dtls/mbedtls/mbedtls-2.16.2/library\ecdh.c ****     ECDH_VALIDATE_RET( olen != NULL );
 543              		.loc 1 347 5 view .LVU144
 544              		.loc 1 347 5 view .LVU145
 545              		.loc 1 347 5 view .LVU146
 348:D:/fchai/work/i-cube/I-CUBE-HUAWEI/Middlewares/Third_Party/Huawei/iot_link/network/dtls/mbedtls/mbedtls-2.16.2/library\ecdh.c ****     ECDH_VALIDATE_RET( buf != NULL );
 546              		.loc 1 348 5 view .LVU147
 547              		.loc 1 348 5 view .LVU148
 548              		.loc 1 348 5 view .LVU149
 349:D:/fchai/work/i-cube/I-CUBE-HUAWEI/Middlewares/Third_Party/Huawei/iot_link/network/dtls/mbedtls/mbedtls-2.16.2/library\ecdh.c ****     ECDH_VALIDATE_RET( f_rng != NULL );
 549              		.loc 1 349 5 view .LVU150
 550              		.loc 1 349 5 view .LVU151
 551              		.loc 1 349 5 view .LVU152
 350:D:/fchai/work/i-cube/I-CUBE-HUAWEI/Middlewares/Third_Party/Huawei/iot_link/network/dtls/mbedtls/mbedtls-2.16.2/library\ecdh.c **** 
 351:D:/fchai/work/i-cube/I-CUBE-HUAWEI/Middlewares/Third_Party/Huawei/iot_link/network/dtls/mbedtls/mbedtls-2.16.2/library\ecdh.c **** #if defined(MBEDTLS_ECP_RESTARTABLE)
 352:D:/fchai/work/i-cube/I-CUBE-HUAWEI/Middlewares/Third_Party/Huawei/iot_link/network/dtls/mbedtls/mbedtls-2.16.2/library\ecdh.c ****     restart_enabled = ctx->restart_enabled;
 353:D:/fchai/work/i-cube/I-CUBE-HUAWEI/Middlewares/Third_Party/Huawei/iot_link/network/dtls/mbedtls/mbedtls-2.16.2/library\ecdh.c **** #else
 354:D:/fchai/work/i-cube/I-CUBE-HUAWEI/Middlewares/Third_Party/Huawei/iot_link/network/dtls/mbedtls/mbedtls-2.16.2/library\ecdh.c ****     (void) restart_enabled;
ARM GAS  T:\msys\tmp\cctaHzaT.s 			page 18


 552              		.loc 1 354 5 view .LVU153
 355:D:/fchai/work/i-cube/I-CUBE-HUAWEI/Middlewares/Third_Party/Huawei/iot_link/network/dtls/mbedtls/mbedtls-2.16.2/library\ecdh.c **** #endif
 356:D:/fchai/work/i-cube/I-CUBE-HUAWEI/Middlewares/Third_Party/Huawei/iot_link/network/dtls/mbedtls/mbedtls-2.16.2/library\ecdh.c **** 
 357:D:/fchai/work/i-cube/I-CUBE-HUAWEI/Middlewares/Third_Party/Huawei/iot_link/network/dtls/mbedtls/mbedtls-2.16.2/library\ecdh.c **** #if defined(MBEDTLS_ECDH_LEGACY_CONTEXT)
 358:D:/fchai/work/i-cube/I-CUBE-HUAWEI/Middlewares/Third_Party/Huawei/iot_link/network/dtls/mbedtls/mbedtls-2.16.2/library\ecdh.c ****     return( ecdh_make_params_internal( ctx, olen, ctx->point_format, buf, blen,
 553              		.loc 1 358 5 view .LVU154
 344:D:/fchai/work/i-cube/I-CUBE-HUAWEI/Middlewares/Third_Party/Huawei/iot_link/network/dtls/mbedtls/mbedtls-2.16.2/library\ecdh.c ****     int restart_enabled = 0;
 554              		.loc 1 344 1 is_stmt 0 view .LVU155
 555 0000 2DE9F043 		push	{r4, r5, r6, r7, r8, r9, lr}
 556              	.LCFI13:
 557              		.cfi_def_cfa_offset 28
 558              		.cfi_offset 4, -28
 559              		.cfi_offset 5, -24
 560              		.cfi_offset 6, -20
 561              		.cfi_offset 7, -16
 562              		.cfi_offset 8, -12
 563              		.cfi_offset 9, -8
 564              		.cfi_offset 14, -4
 565 0004 1E46     		mov	r6, r3
 566              	.LBB48:
 567              	.LBB49:
 297:D:/fchai/work/i-cube/I-CUBE-HUAWEI/Middlewares/Third_Party/Huawei/iot_link/network/dtls/mbedtls/mbedtls-2.16.2/library\ecdh.c ****         return( MBEDTLS_ERR_ECP_BAD_INPUT_DATA );
 568              		.loc 1 297 7 view .LVU156
 569 0006 836D     		ldr	r3, [r0, #88]
 570              	.LVL51:
 297:D:/fchai/work/i-cube/I-CUBE-HUAWEI/Middlewares/Third_Party/Huawei/iot_link/network/dtls/mbedtls/mbedtls-2.16.2/library\ecdh.c ****         return( MBEDTLS_ERR_ECP_BAD_INPUT_DATA );
 571              		.loc 1 297 7 view .LVU157
 572              	.LBE49:
 573              	.LBE48:
 574              		.loc 1 358 13 view .LVU158
 575 0008 D0F8DC90 		ldr	r9, [r0, #220]
 576              	.LVL52:
 344:D:/fchai/work/i-cube/I-CUBE-HUAWEI/Middlewares/Third_Party/Huawei/iot_link/network/dtls/mbedtls/mbedtls-2.16.2/library\ecdh.c ****     int restart_enabled = 0;
 577              		.loc 1 344 1 view .LVU159
 578 000c 85B0     		sub	sp, sp, #20
 579              	.LCFI14:
 580              		.cfi_def_cfa_offset 48
 581              	.LVL53:
 582              	.LBB57:
 583              	.LBI48:
 282:D:/fchai/work/i-cube/I-CUBE-HUAWEI/Middlewares/Third_Party/Huawei/iot_link/network/dtls/mbedtls/mbedtls-2.16.2/library\ecdh.c ****                                       size_t *olen, int point_format,
 584              		.loc 1 282 12 is_stmt 1 view .LVU160
 585              	.LBB54:
 291:D:/fchai/work/i-cube/I-CUBE-HUAWEI/Middlewares/Third_Party/Huawei/iot_link/network/dtls/mbedtls/mbedtls-2.16.2/library\ecdh.c ****     size_t grp_len, pt_len;
 586              		.loc 1 291 5 view .LVU161
 292:D:/fchai/work/i-cube/I-CUBE-HUAWEI/Middlewares/Third_Party/Huawei/iot_link/network/dtls/mbedtls/mbedtls-2.16.2/library\ecdh.c **** #if defined(MBEDTLS_ECP_RESTARTABLE)
 587              		.loc 1 292 5 view .LVU162
 297:D:/fchai/work/i-cube/I-CUBE-HUAWEI/Middlewares/Third_Party/Huawei/iot_link/network/dtls/mbedtls/mbedtls-2.16.2/library\ecdh.c ****         return( MBEDTLS_ERR_ECP_BAD_INPUT_DATA );
 588              		.loc 1 297 5 view .LVU163
 297:D:/fchai/work/i-cube/I-CUBE-HUAWEI/Middlewares/Third_Party/Huawei/iot_link/network/dtls/mbedtls/mbedtls-2.16.2/library\ecdh.c ****         return( MBEDTLS_ERR_ECP_BAD_INPUT_DATA );
 589              		.loc 1 297 7 is_stmt 0 view .LVU164
 590 000e 63B3     		cbz	r3, .L30
 304:D:/fchai/work/i-cube/I-CUBE-HUAWEI/Middlewares/Third_Party/Huawei/iot_link/network/dtls/mbedtls/mbedtls-2.16.2/library\ecdh.c **** #endif
 591              		.loc 1 304 5 is_stmt 1 view .LVU165
 313:D:/fchai/work/i-cube/I-CUBE-HUAWEI/Middlewares/Third_Party/Huawei/iot_link/network/dtls/mbedtls/mbedtls-2.16.2/library\ecdh.c ****                                          f_rng, p_rng ) ) != 0 )
 592              		.loc 1 313 5 view .LVU166
 593              	.LBB50:
ARM GAS  T:\msys\tmp\cctaHzaT.s 			page 19


 594              	.LBB51:
 102:D:/fchai/work/i-cube/I-CUBE-HUAWEI/Middlewares/Third_Party/Huawei/iot_link/network/dtls/mbedtls/mbedtls-2.16.2/library\ecdh.c **** }
 595              		.loc 1 102 13 is_stmt 0 view .LVU167
 596 0010 0D9B     		ldr	r3, [sp, #52]
 597 0012 0093     		str	r3, [sp]
 598              	.LBE51:
 599              	.LBE50:
 313:D:/fchai/work/i-cube/I-CUBE-HUAWEI/Middlewares/Third_Party/Huawei/iot_link/network/dtls/mbedtls/mbedtls-2.16.2/library\ecdh.c ****                                          f_rng, p_rng ) ) != 0 )
 600              		.loc 1 313 17 view .LVU168
 601 0014 00F18808 		add	r8, r0, #136
 602              	.LVL54:
 603              	.LBB53:
 604              	.LBI50:
  94:D:/fchai/work/i-cube/I-CUBE-HUAWEI/Middlewares/Third_Party/Huawei/iot_link/network/dtls/mbedtls/mbedtls-2.16.2/library\ecdh.c ****                      int (*f_rng)(void *, unsigned char *, size_t),
 605              		.loc 1 94 5 is_stmt 1 view .LVU169
 606              	.LBB52:
  98:D:/fchai/work/i-cube/I-CUBE-HUAWEI/Middlewares/Third_Party/Huawei/iot_link/network/dtls/mbedtls/mbedtls-2.16.2/library\ecdh.c ****     ECDH_VALIDATE_RET( d != NULL );
 607              		.loc 1 98 5 view .LVU170
  98:D:/fchai/work/i-cube/I-CUBE-HUAWEI/Middlewares/Third_Party/Huawei/iot_link/network/dtls/mbedtls/mbedtls-2.16.2/library\ecdh.c ****     ECDH_VALIDATE_RET( d != NULL );
 608              		.loc 1 98 5 view .LVU171
  98:D:/fchai/work/i-cube/I-CUBE-HUAWEI/Middlewares/Third_Party/Huawei/iot_link/network/dtls/mbedtls/mbedtls-2.16.2/library\ecdh.c ****     ECDH_VALIDATE_RET( d != NULL );
 609              		.loc 1 98 5 view .LVU172
  99:D:/fchai/work/i-cube/I-CUBE-HUAWEI/Middlewares/Third_Party/Huawei/iot_link/network/dtls/mbedtls/mbedtls-2.16.2/library\ecdh.c ****     ECDH_VALIDATE_RET( Q != NULL );
 610              		.loc 1 99 5 view .LVU173
  99:D:/fchai/work/i-cube/I-CUBE-HUAWEI/Middlewares/Third_Party/Huawei/iot_link/network/dtls/mbedtls/mbedtls-2.16.2/library\ecdh.c ****     ECDH_VALIDATE_RET( Q != NULL );
 611              		.loc 1 99 5 view .LVU174
  99:D:/fchai/work/i-cube/I-CUBE-HUAWEI/Middlewares/Third_Party/Huawei/iot_link/network/dtls/mbedtls/mbedtls-2.16.2/library\ecdh.c ****     ECDH_VALIDATE_RET( Q != NULL );
 612              		.loc 1 99 5 view .LVU175
 100:D:/fchai/work/i-cube/I-CUBE-HUAWEI/Middlewares/Third_Party/Huawei/iot_link/network/dtls/mbedtls/mbedtls-2.16.2/library\ecdh.c ****     ECDH_VALIDATE_RET( f_rng != NULL );
 613              		.loc 1 100 5 view .LVU176
 100:D:/fchai/work/i-cube/I-CUBE-HUAWEI/Middlewares/Third_Party/Huawei/iot_link/network/dtls/mbedtls/mbedtls-2.16.2/library\ecdh.c ****     ECDH_VALIDATE_RET( f_rng != NULL );
 614              		.loc 1 100 5 view .LVU177
 100:D:/fchai/work/i-cube/I-CUBE-HUAWEI/Middlewares/Third_Party/Huawei/iot_link/network/dtls/mbedtls/mbedtls-2.16.2/library\ecdh.c ****     ECDH_VALIDATE_RET( f_rng != NULL );
 615              		.loc 1 100 5 view .LVU178
 101:D:/fchai/work/i-cube/I-CUBE-HUAWEI/Middlewares/Third_Party/Huawei/iot_link/network/dtls/mbedtls/mbedtls-2.16.2/library\ecdh.c ****     return( ecdh_gen_public_restartable( grp, d, Q, f_rng, p_rng, NULL ) );
 616              		.loc 1 101 5 view .LVU179
 101:D:/fchai/work/i-cube/I-CUBE-HUAWEI/Middlewares/Third_Party/Huawei/iot_link/network/dtls/mbedtls/mbedtls-2.16.2/library\ecdh.c ****     return( ecdh_gen_public_restartable( grp, d, Q, f_rng, p_rng, NULL ) );
 617              		.loc 1 101 5 view .LVU180
 101:D:/fchai/work/i-cube/I-CUBE-HUAWEI/Middlewares/Third_Party/Huawei/iot_link/network/dtls/mbedtls/mbedtls-2.16.2/library\ecdh.c ****     return( ecdh_gen_public_restartable( grp, d, Q, f_rng, p_rng, NULL ) );
 618              		.loc 1 101 5 view .LVU181
 102:D:/fchai/work/i-cube/I-CUBE-HUAWEI/Middlewares/Third_Party/Huawei/iot_link/network/dtls/mbedtls/mbedtls-2.16.2/library\ecdh.c **** }
 619              		.loc 1 102 5 view .LVU182
 620 0018 0F46     		mov	r7, r1
 621 001a 1546     		mov	r5, r2
 102:D:/fchai/work/i-cube/I-CUBE-HUAWEI/Middlewares/Third_Party/Huawei/iot_link/network/dtls/mbedtls/mbedtls-2.16.2/library\ecdh.c **** }
 622              		.loc 1 102 13 is_stmt 0 view .LVU183
 623 001c 0C9B     		ldr	r3, [sp, #48]
 624 001e 4246     		mov	r2, r8
 625              	.LVL55:
 102:D:/fchai/work/i-cube/I-CUBE-HUAWEI/Middlewares/Third_Party/Huawei/iot_link/network/dtls/mbedtls/mbedtls-2.16.2/library\ecdh.c **** }
 626              		.loc 1 102 13 view .LVU184
 627 0020 00F17C01 		add	r1, r0, #124
 628              	.LVL56:
 102:D:/fchai/work/i-cube/I-CUBE-HUAWEI/Middlewares/Third_Party/Huawei/iot_link/network/dtls/mbedtls/mbedtls-2.16.2/library\ecdh.c **** }
 629              		.loc 1 102 13 view .LVU185
 630 0024 0446     		mov	r4, r0
 631 0026 FFF7FEFF 		bl	ecdh_gen_public_restartable.constprop.0
ARM GAS  T:\msys\tmp\cctaHzaT.s 			page 20


 632              	.LVL57:
 102:D:/fchai/work/i-cube/I-CUBE-HUAWEI/Middlewares/Third_Party/Huawei/iot_link/network/dtls/mbedtls/mbedtls-2.16.2/library\ecdh.c **** }
 633              		.loc 1 102 13 view .LVU186
 634              	.LBE52:
 635              	.LBE53:
 313:D:/fchai/work/i-cube/I-CUBE-HUAWEI/Middlewares/Third_Party/Huawei/iot_link/network/dtls/mbedtls/mbedtls-2.16.2/library\ecdh.c ****                                          f_rng, p_rng ) ) != 0 )
 636              		.loc 1 313 7 view .LVU187
 637 002a 10B1     		cbz	r0, .L32
 638              	.LVL58:
 639              	.L28:
 313:D:/fchai/work/i-cube/I-CUBE-HUAWEI/Middlewares/Third_Party/Huawei/iot_link/network/dtls/mbedtls/mbedtls-2.16.2/library\ecdh.c ****                                          f_rng, p_rng ) ) != 0 )
 640              		.loc 1 313 7 view .LVU188
 641              	.LBE54:
 642              	.LBE57:
 359:D:/fchai/work/i-cube/I-CUBE-HUAWEI/Middlewares/Third_Party/Huawei/iot_link/network/dtls/mbedtls/mbedtls-2.16.2/library\ecdh.c ****                                        f_rng, p_rng, restart_enabled ) );
 360:D:/fchai/work/i-cube/I-CUBE-HUAWEI/Middlewares/Third_Party/Huawei/iot_link/network/dtls/mbedtls/mbedtls-2.16.2/library\ecdh.c **** #else
 361:D:/fchai/work/i-cube/I-CUBE-HUAWEI/Middlewares/Third_Party/Huawei/iot_link/network/dtls/mbedtls/mbedtls-2.16.2/library\ecdh.c ****     switch( ctx->var )
 362:D:/fchai/work/i-cube/I-CUBE-HUAWEI/Middlewares/Third_Party/Huawei/iot_link/network/dtls/mbedtls/mbedtls-2.16.2/library\ecdh.c ****     {
 363:D:/fchai/work/i-cube/I-CUBE-HUAWEI/Middlewares/Third_Party/Huawei/iot_link/network/dtls/mbedtls/mbedtls-2.16.2/library\ecdh.c ****         case MBEDTLS_ECDH_VARIANT_MBEDTLS_2_0:
 364:D:/fchai/work/i-cube/I-CUBE-HUAWEI/Middlewares/Third_Party/Huawei/iot_link/network/dtls/mbedtls/mbedtls-2.16.2/library\ecdh.c ****             return( ecdh_make_params_internal( &ctx->ctx.mbed_ecdh, olen,
 365:D:/fchai/work/i-cube/I-CUBE-HUAWEI/Middlewares/Third_Party/Huawei/iot_link/network/dtls/mbedtls/mbedtls-2.16.2/library\ecdh.c ****                                                ctx->point_format, buf, blen,
 366:D:/fchai/work/i-cube/I-CUBE-HUAWEI/Middlewares/Third_Party/Huawei/iot_link/network/dtls/mbedtls/mbedtls-2.16.2/library\ecdh.c ****                                                f_rng, p_rng,
 367:D:/fchai/work/i-cube/I-CUBE-HUAWEI/Middlewares/Third_Party/Huawei/iot_link/network/dtls/mbedtls/mbedtls-2.16.2/library\ecdh.c ****                                                restart_enabled ) );
 368:D:/fchai/work/i-cube/I-CUBE-HUAWEI/Middlewares/Third_Party/Huawei/iot_link/network/dtls/mbedtls/mbedtls-2.16.2/library\ecdh.c ****         default:
 369:D:/fchai/work/i-cube/I-CUBE-HUAWEI/Middlewares/Third_Party/Huawei/iot_link/network/dtls/mbedtls/mbedtls-2.16.2/library\ecdh.c ****             return MBEDTLS_ERR_ECP_BAD_INPUT_DATA;
 370:D:/fchai/work/i-cube/I-CUBE-HUAWEI/Middlewares/Third_Party/Huawei/iot_link/network/dtls/mbedtls/mbedtls-2.16.2/library\ecdh.c ****     }
 371:D:/fchai/work/i-cube/I-CUBE-HUAWEI/Middlewares/Third_Party/Huawei/iot_link/network/dtls/mbedtls/mbedtls-2.16.2/library\ecdh.c **** #endif
 372:D:/fchai/work/i-cube/I-CUBE-HUAWEI/Middlewares/Third_Party/Huawei/iot_link/network/dtls/mbedtls/mbedtls-2.16.2/library\ecdh.c **** }
 643              		.loc 1 372 1 view .LVU189
 644 002c 05B0     		add	sp, sp, #20
 645              	.LCFI15:
 646              		.cfi_remember_state
 647              		.cfi_def_cfa_offset 28
 648              		@ sp needed
 649 002e BDE8F083 		pop	{r4, r5, r6, r7, r8, r9, pc}
 650              	.LVL59:
 651              	.L32:
 652              	.LCFI16:
 653              		.cfi_restore_state
 654              	.LBB58:
 655              	.LBB55:
 318:D:/fchai/work/i-cube/I-CUBE-HUAWEI/Middlewares/Third_Party/Huawei/iot_link/network/dtls/mbedtls/mbedtls-2.16.2/library\ecdh.c ****                                              blen ) ) != 0 )
 656              		.loc 1 318 5 is_stmt 1 view .LVU190
 318:D:/fchai/work/i-cube/I-CUBE-HUAWEI/Middlewares/Third_Party/Huawei/iot_link/network/dtls/mbedtls/mbedtls-2.16.2/library\ecdh.c ****                                              blen ) ) != 0 )
 657              		.loc 1 318 17 is_stmt 0 view .LVU191
 658 0032 3346     		mov	r3, r6
 659 0034 2A46     		mov	r2, r5
 660 0036 02A9     		add	r1, sp, #8
 661 0038 2046     		mov	r0, r4
 662              	.LVL60:
 318:D:/fchai/work/i-cube/I-CUBE-HUAWEI/Middlewares/Third_Party/Huawei/iot_link/network/dtls/mbedtls/mbedtls-2.16.2/library\ecdh.c ****                                              blen ) ) != 0 )
 663              		.loc 1 318 17 view .LVU192
 664 003a FFF7FEFF 		bl	mbedtls_ecp_tls_write_group
 665              	.LVL61:
 318:D:/fchai/work/i-cube/I-CUBE-HUAWEI/Middlewares/Third_Party/Huawei/iot_link/network/dtls/mbedtls/mbedtls-2.16.2/library\ecdh.c ****                                              blen ) ) != 0 )
 666              		.loc 1 318 7 view .LVU193
 667 003e 0028     		cmp	r0, #0
ARM GAS  T:\msys\tmp\cctaHzaT.s 			page 21


 668 0040 F4D1     		bne	.L28
 322:D:/fchai/work/i-cube/I-CUBE-HUAWEI/Middlewares/Third_Party/Huawei/iot_link/network/dtls/mbedtls/mbedtls-2.16.2/library\ecdh.c ****     blen -= grp_len;
 669              		.loc 1 322 5 is_stmt 1 view .LVU194
 322:D:/fchai/work/i-cube/I-CUBE-HUAWEI/Middlewares/Third_Party/Huawei/iot_link/network/dtls/mbedtls/mbedtls-2.16.2/library\ecdh.c ****     blen -= grp_len;
 670              		.loc 1 322 9 is_stmt 0 view .LVU195
 671 0042 029A     		ldr	r2, [sp, #8]
 672              	.LVL62:
 323:D:/fchai/work/i-cube/I-CUBE-HUAWEI/Middlewares/Third_Party/Huawei/iot_link/network/dtls/mbedtls/mbedtls-2.16.2/library\ecdh.c **** 
 673              		.loc 1 323 5 is_stmt 1 view .LVU196
 325:D:/fchai/work/i-cube/I-CUBE-HUAWEI/Middlewares/Third_Party/Huawei/iot_link/network/dtls/mbedtls/mbedtls-2.16.2/library\ecdh.c ****                                              &pt_len, buf, blen ) ) != 0 )
 674              		.loc 1 325 5 view .LVU197
 323:D:/fchai/work/i-cube/I-CUBE-HUAWEI/Middlewares/Third_Party/Huawei/iot_link/network/dtls/mbedtls/mbedtls-2.16.2/library\ecdh.c **** 
 675              		.loc 1 323 10 is_stmt 0 view .LVU198
 676 0044 B61A     		subs	r6, r6, r2
 677              	.LVL63:
 322:D:/fchai/work/i-cube/I-CUBE-HUAWEI/Middlewares/Third_Party/Huawei/iot_link/network/dtls/mbedtls/mbedtls-2.16.2/library\ecdh.c ****     blen -= grp_len;
 678              		.loc 1 322 9 view .LVU199
 679 0046 1544     		add	r5, r5, r2
 680              	.LVL64:
 325:D:/fchai/work/i-cube/I-CUBE-HUAWEI/Middlewares/Third_Party/Huawei/iot_link/network/dtls/mbedtls/mbedtls-2.16.2/library\ecdh.c ****                                              &pt_len, buf, blen ) ) != 0 )
 681              		.loc 1 325 17 view .LVU200
 682 0048 CDE90056 		strd	r5, r6, [sp]
 683 004c 4A46     		mov	r2, r9
 684 004e 4146     		mov	r1, r8
 685 0050 2046     		mov	r0, r4
 686              	.LVL65:
 325:D:/fchai/work/i-cube/I-CUBE-HUAWEI/Middlewares/Third_Party/Huawei/iot_link/network/dtls/mbedtls/mbedtls-2.16.2/library\ecdh.c ****                                              &pt_len, buf, blen ) ) != 0 )
 687              		.loc 1 325 17 view .LVU201
 688 0052 03AB     		add	r3, sp, #12
 689 0054 FFF7FEFF 		bl	mbedtls_ecp_tls_write_point
 690              	.LVL66:
 325:D:/fchai/work/i-cube/I-CUBE-HUAWEI/Middlewares/Third_Party/Huawei/iot_link/network/dtls/mbedtls/mbedtls-2.16.2/library\ecdh.c ****                                              &pt_len, buf, blen ) ) != 0 )
 691              		.loc 1 325 7 view .LVU202
 692 0058 0028     		cmp	r0, #0
 693 005a E7D1     		bne	.L28
 329:D:/fchai/work/i-cube/I-CUBE-HUAWEI/Middlewares/Third_Party/Huawei/iot_link/network/dtls/mbedtls/mbedtls-2.16.2/library\ecdh.c ****     return( 0 );
 694              		.loc 1 329 5 is_stmt 1 view .LVU203
 329:D:/fchai/work/i-cube/I-CUBE-HUAWEI/Middlewares/Third_Party/Huawei/iot_link/network/dtls/mbedtls/mbedtls-2.16.2/library\ecdh.c ****     return( 0 );
 695              		.loc 1 329 21 is_stmt 0 view .LVU204
 696 005c DDE90232 		ldrd	r3, r2, [sp, #8]
 697 0060 1344     		add	r3, r3, r2
 329:D:/fchai/work/i-cube/I-CUBE-HUAWEI/Middlewares/Third_Party/Huawei/iot_link/network/dtls/mbedtls/mbedtls-2.16.2/library\ecdh.c ****     return( 0 );
 698              		.loc 1 329 11 view .LVU205
 699 0062 3B60     		str	r3, [r7]
 330:D:/fchai/work/i-cube/I-CUBE-HUAWEI/Middlewares/Third_Party/Huawei/iot_link/network/dtls/mbedtls/mbedtls-2.16.2/library\ecdh.c **** }
 700              		.loc 1 330 5 is_stmt 1 view .LVU206
 701              	.LBE55:
 702              	.LBE58:
 703              		.loc 1 372 1 is_stmt 0 view .LVU207
 704 0064 05B0     		add	sp, sp, #20
 705              	.LCFI17:
 706              		.cfi_remember_state
 707              		.cfi_def_cfa_offset 28
 708              		@ sp needed
 709 0066 BDE8F083 		pop	{r4, r5, r6, r7, r8, r9, pc}
 710              	.LVL67:
 711              	.L30:
ARM GAS  T:\msys\tmp\cctaHzaT.s 			page 22


 712              	.LCFI18:
 713              		.cfi_restore_state
 714              	.LBB59:
 715              	.LBB56:
 298:D:/fchai/work/i-cube/I-CUBE-HUAWEI/Middlewares/Third_Party/Huawei/iot_link/network/dtls/mbedtls/mbedtls-2.16.2/library\ecdh.c **** 
 716              		.loc 1 298 15 view .LVU208
 717 006a 0148     		ldr	r0, .L33
 718              	.LVL68:
 298:D:/fchai/work/i-cube/I-CUBE-HUAWEI/Middlewares/Third_Party/Huawei/iot_link/network/dtls/mbedtls/mbedtls-2.16.2/library\ecdh.c **** 
 719              		.loc 1 298 15 view .LVU209
 720              	.LBE56:
 721              	.LBE59:
 358:D:/fchai/work/i-cube/I-CUBE-HUAWEI/Middlewares/Third_Party/Huawei/iot_link/network/dtls/mbedtls/mbedtls-2.16.2/library\ecdh.c ****                                        f_rng, p_rng, restart_enabled ) );
 722              		.loc 1 358 13 view .LVU210
 723 006c DEE7     		b	.L28
 724              	.L34:
 725 006e 00BF     		.align	2
 726              	.L33:
 727 0070 80B0FFFF 		.word	-20352
 728              		.cfi_endproc
 729              	.LFE12:
 731              		.section	.text.mbedtls_ecdh_read_params,"ax",%progbits
 732              		.align	1
 733              		.p2align 2,,3
 734              		.global	mbedtls_ecdh_read_params
 735              		.syntax unified
 736              		.thumb
 737              		.thumb_func
 738              		.fpu fpv4-sp-d16
 740              	mbedtls_ecdh_read_params:
 741              	.LVL69:
 742              	.LFB14:
 373:D:/fchai/work/i-cube/I-CUBE-HUAWEI/Middlewares/Third_Party/Huawei/iot_link/network/dtls/mbedtls/mbedtls-2.16.2/library\ecdh.c **** 
 374:D:/fchai/work/i-cube/I-CUBE-HUAWEI/Middlewares/Third_Party/Huawei/iot_link/network/dtls/mbedtls/mbedtls-2.16.2/library\ecdh.c **** static int ecdh_read_params_internal( mbedtls_ecdh_context_mbed *ctx,
 375:D:/fchai/work/i-cube/I-CUBE-HUAWEI/Middlewares/Third_Party/Huawei/iot_link/network/dtls/mbedtls/mbedtls-2.16.2/library\ecdh.c ****                                       const unsigned char **buf,
 376:D:/fchai/work/i-cube/I-CUBE-HUAWEI/Middlewares/Third_Party/Huawei/iot_link/network/dtls/mbedtls/mbedtls-2.16.2/library\ecdh.c ****                                       const unsigned char *end )
 377:D:/fchai/work/i-cube/I-CUBE-HUAWEI/Middlewares/Third_Party/Huawei/iot_link/network/dtls/mbedtls/mbedtls-2.16.2/library\ecdh.c **** {
 378:D:/fchai/work/i-cube/I-CUBE-HUAWEI/Middlewares/Third_Party/Huawei/iot_link/network/dtls/mbedtls/mbedtls-2.16.2/library\ecdh.c ****     return( mbedtls_ecp_tls_read_point( &ctx->grp, &ctx->Qp, buf,
 379:D:/fchai/work/i-cube/I-CUBE-HUAWEI/Middlewares/Third_Party/Huawei/iot_link/network/dtls/mbedtls/mbedtls-2.16.2/library\ecdh.c ****                                         end - *buf ) );
 380:D:/fchai/work/i-cube/I-CUBE-HUAWEI/Middlewares/Third_Party/Huawei/iot_link/network/dtls/mbedtls/mbedtls-2.16.2/library\ecdh.c **** }
 381:D:/fchai/work/i-cube/I-CUBE-HUAWEI/Middlewares/Third_Party/Huawei/iot_link/network/dtls/mbedtls/mbedtls-2.16.2/library\ecdh.c **** 
 382:D:/fchai/work/i-cube/I-CUBE-HUAWEI/Middlewares/Third_Party/Huawei/iot_link/network/dtls/mbedtls/mbedtls-2.16.2/library\ecdh.c **** /*
 383:D:/fchai/work/i-cube/I-CUBE-HUAWEI/Middlewares/Third_Party/Huawei/iot_link/network/dtls/mbedtls/mbedtls-2.16.2/library\ecdh.c ****  * Read the ServerKeyExhange parameters (RFC 4492)
 384:D:/fchai/work/i-cube/I-CUBE-HUAWEI/Middlewares/Third_Party/Huawei/iot_link/network/dtls/mbedtls/mbedtls-2.16.2/library\ecdh.c ****  *      struct {
 385:D:/fchai/work/i-cube/I-CUBE-HUAWEI/Middlewares/Third_Party/Huawei/iot_link/network/dtls/mbedtls/mbedtls-2.16.2/library\ecdh.c ****  *          ECParameters    curve_params;
 386:D:/fchai/work/i-cube/I-CUBE-HUAWEI/Middlewares/Third_Party/Huawei/iot_link/network/dtls/mbedtls/mbedtls-2.16.2/library\ecdh.c ****  *          ECPoint         public;
 387:D:/fchai/work/i-cube/I-CUBE-HUAWEI/Middlewares/Third_Party/Huawei/iot_link/network/dtls/mbedtls/mbedtls-2.16.2/library\ecdh.c ****  *      } ServerECDHParams;
 388:D:/fchai/work/i-cube/I-CUBE-HUAWEI/Middlewares/Third_Party/Huawei/iot_link/network/dtls/mbedtls/mbedtls-2.16.2/library\ecdh.c ****  */
 389:D:/fchai/work/i-cube/I-CUBE-HUAWEI/Middlewares/Third_Party/Huawei/iot_link/network/dtls/mbedtls/mbedtls-2.16.2/library\ecdh.c **** int mbedtls_ecdh_read_params( mbedtls_ecdh_context *ctx,
 390:D:/fchai/work/i-cube/I-CUBE-HUAWEI/Middlewares/Third_Party/Huawei/iot_link/network/dtls/mbedtls/mbedtls-2.16.2/library\ecdh.c ****                               const unsigned char **buf,
 391:D:/fchai/work/i-cube/I-CUBE-HUAWEI/Middlewares/Third_Party/Huawei/iot_link/network/dtls/mbedtls/mbedtls-2.16.2/library\ecdh.c ****                               const unsigned char *end )
 392:D:/fchai/work/i-cube/I-CUBE-HUAWEI/Middlewares/Third_Party/Huawei/iot_link/network/dtls/mbedtls/mbedtls-2.16.2/library\ecdh.c **** {
 743              		.loc 1 392 1 is_stmt 1 view -0
 744              		.cfi_startproc
 745              		@ args = 0, pretend = 0, frame = 8
 746              		@ frame_needed = 0, uses_anonymous_args = 0
 393:D:/fchai/work/i-cube/I-CUBE-HUAWEI/Middlewares/Third_Party/Huawei/iot_link/network/dtls/mbedtls/mbedtls-2.16.2/library\ecdh.c ****     int ret;
ARM GAS  T:\msys\tmp\cctaHzaT.s 			page 23


 747              		.loc 1 393 5 view .LVU212
 394:D:/fchai/work/i-cube/I-CUBE-HUAWEI/Middlewares/Third_Party/Huawei/iot_link/network/dtls/mbedtls/mbedtls-2.16.2/library\ecdh.c ****     mbedtls_ecp_group_id grp_id;
 748              		.loc 1 394 5 view .LVU213
 395:D:/fchai/work/i-cube/I-CUBE-HUAWEI/Middlewares/Third_Party/Huawei/iot_link/network/dtls/mbedtls/mbedtls-2.16.2/library\ecdh.c ****     ECDH_VALIDATE_RET( ctx != NULL );
 749              		.loc 1 395 5 view .LVU214
 750              		.loc 1 395 5 view .LVU215
 751              		.loc 1 395 5 view .LVU216
 396:D:/fchai/work/i-cube/I-CUBE-HUAWEI/Middlewares/Third_Party/Huawei/iot_link/network/dtls/mbedtls/mbedtls-2.16.2/library\ecdh.c ****     ECDH_VALIDATE_RET( buf != NULL );
 752              		.loc 1 396 5 view .LVU217
 753              		.loc 1 396 5 view .LVU218
 754              		.loc 1 396 5 view .LVU219
 397:D:/fchai/work/i-cube/I-CUBE-HUAWEI/Middlewares/Third_Party/Huawei/iot_link/network/dtls/mbedtls/mbedtls-2.16.2/library\ecdh.c ****     ECDH_VALIDATE_RET( *buf != NULL );
 755              		.loc 1 397 5 view .LVU220
 756              		.loc 1 397 5 view .LVU221
 757              		.loc 1 397 5 view .LVU222
 398:D:/fchai/work/i-cube/I-CUBE-HUAWEI/Middlewares/Third_Party/Huawei/iot_link/network/dtls/mbedtls/mbedtls-2.16.2/library\ecdh.c ****     ECDH_VALIDATE_RET( end != NULL );
 758              		.loc 1 398 5 view .LVU223
 759              		.loc 1 398 5 view .LVU224
 760              		.loc 1 398 5 view .LVU225
 399:D:/fchai/work/i-cube/I-CUBE-HUAWEI/Middlewares/Third_Party/Huawei/iot_link/network/dtls/mbedtls/mbedtls-2.16.2/library\ecdh.c **** 
 400:D:/fchai/work/i-cube/I-CUBE-HUAWEI/Middlewares/Third_Party/Huawei/iot_link/network/dtls/mbedtls/mbedtls-2.16.2/library\ecdh.c ****     if( ( ret = mbedtls_ecp_tls_read_group_id( &grp_id, buf, end - *buf ) )
 761              		.loc 1 400 5 view .LVU226
 392:D:/fchai/work/i-cube/I-CUBE-HUAWEI/Middlewares/Third_Party/Huawei/iot_link/network/dtls/mbedtls/mbedtls-2.16.2/library\ecdh.c ****     int ret;
 762              		.loc 1 392 1 is_stmt 0 view .LVU227
 763 0000 70B5     		push	{r4, r5, r6, lr}
 764              	.LCFI19:
 765              		.cfi_def_cfa_offset 16
 766              		.cfi_offset 4, -16
 767              		.cfi_offset 5, -12
 768              		.cfi_offset 6, -8
 769              		.cfi_offset 14, -4
 770              		.loc 1 400 66 view .LVU228
 771 0002 0B68     		ldr	r3, [r1]
 392:D:/fchai/work/i-cube/I-CUBE-HUAWEI/Middlewares/Third_Party/Huawei/iot_link/network/dtls/mbedtls/mbedtls-2.16.2/library\ecdh.c ****     int ret;
 772              		.loc 1 392 1 view .LVU229
 773 0004 82B0     		sub	sp, sp, #8
 774              	.LCFI20:
 775              		.cfi_def_cfa_offset 24
 392:D:/fchai/work/i-cube/I-CUBE-HUAWEI/Middlewares/Third_Party/Huawei/iot_link/network/dtls/mbedtls/mbedtls-2.16.2/library\ecdh.c ****     int ret;
 776              		.loc 1 392 1 view .LVU230
 777 0006 1546     		mov	r5, r2
 778 0008 0646     		mov	r6, r0
 779              		.loc 1 400 17 view .LVU231
 780 000a D21A     		subs	r2, r2, r3
 781              	.LVL70:
 782              		.loc 1 400 17 view .LVU232
 783 000c 0DF10700 		add	r0, sp, #7
 784              	.LVL71:
 392:D:/fchai/work/i-cube/I-CUBE-HUAWEI/Middlewares/Third_Party/Huawei/iot_link/network/dtls/mbedtls/mbedtls-2.16.2/library\ecdh.c ****     int ret;
 785              		.loc 1 392 1 view .LVU233
 786 0010 0C46     		mov	r4, r1
 787              		.loc 1 400 17 view .LVU234
 788 0012 FFF7FEFF 		bl	mbedtls_ecp_tls_read_group_id
 789              	.LVL72:
 790              		.loc 1 400 7 view .LVU235
 791 0016 08B1     		cbz	r0, .L39
 792              	.LVL73:
ARM GAS  T:\msys\tmp\cctaHzaT.s 			page 24


 793              	.L35:
 401:D:/fchai/work/i-cube/I-CUBE-HUAWEI/Middlewares/Third_Party/Huawei/iot_link/network/dtls/mbedtls/mbedtls-2.16.2/library\ecdh.c ****             != 0 )
 402:D:/fchai/work/i-cube/I-CUBE-HUAWEI/Middlewares/Third_Party/Huawei/iot_link/network/dtls/mbedtls/mbedtls-2.16.2/library\ecdh.c ****         return( ret );
 403:D:/fchai/work/i-cube/I-CUBE-HUAWEI/Middlewares/Third_Party/Huawei/iot_link/network/dtls/mbedtls/mbedtls-2.16.2/library\ecdh.c **** 
 404:D:/fchai/work/i-cube/I-CUBE-HUAWEI/Middlewares/Third_Party/Huawei/iot_link/network/dtls/mbedtls/mbedtls-2.16.2/library\ecdh.c ****     if( ( ret = mbedtls_ecdh_setup( ctx, grp_id ) ) != 0 )
 405:D:/fchai/work/i-cube/I-CUBE-HUAWEI/Middlewares/Third_Party/Huawei/iot_link/network/dtls/mbedtls/mbedtls-2.16.2/library\ecdh.c ****         return( ret );
 406:D:/fchai/work/i-cube/I-CUBE-HUAWEI/Middlewares/Third_Party/Huawei/iot_link/network/dtls/mbedtls/mbedtls-2.16.2/library\ecdh.c **** 
 407:D:/fchai/work/i-cube/I-CUBE-HUAWEI/Middlewares/Third_Party/Huawei/iot_link/network/dtls/mbedtls/mbedtls-2.16.2/library\ecdh.c **** #if defined(MBEDTLS_ECDH_LEGACY_CONTEXT)
 408:D:/fchai/work/i-cube/I-CUBE-HUAWEI/Middlewares/Third_Party/Huawei/iot_link/network/dtls/mbedtls/mbedtls-2.16.2/library\ecdh.c ****     return( ecdh_read_params_internal( ctx, buf, end ) );
 409:D:/fchai/work/i-cube/I-CUBE-HUAWEI/Middlewares/Third_Party/Huawei/iot_link/network/dtls/mbedtls/mbedtls-2.16.2/library\ecdh.c **** #else
 410:D:/fchai/work/i-cube/I-CUBE-HUAWEI/Middlewares/Third_Party/Huawei/iot_link/network/dtls/mbedtls/mbedtls-2.16.2/library\ecdh.c ****     switch( ctx->var )
 411:D:/fchai/work/i-cube/I-CUBE-HUAWEI/Middlewares/Third_Party/Huawei/iot_link/network/dtls/mbedtls/mbedtls-2.16.2/library\ecdh.c ****     {
 412:D:/fchai/work/i-cube/I-CUBE-HUAWEI/Middlewares/Third_Party/Huawei/iot_link/network/dtls/mbedtls/mbedtls-2.16.2/library\ecdh.c ****         case MBEDTLS_ECDH_VARIANT_MBEDTLS_2_0:
 413:D:/fchai/work/i-cube/I-CUBE-HUAWEI/Middlewares/Third_Party/Huawei/iot_link/network/dtls/mbedtls/mbedtls-2.16.2/library\ecdh.c ****             return( ecdh_read_params_internal( &ctx->ctx.mbed_ecdh,
 414:D:/fchai/work/i-cube/I-CUBE-HUAWEI/Middlewares/Third_Party/Huawei/iot_link/network/dtls/mbedtls/mbedtls-2.16.2/library\ecdh.c ****                                                buf, end ) );
 415:D:/fchai/work/i-cube/I-CUBE-HUAWEI/Middlewares/Third_Party/Huawei/iot_link/network/dtls/mbedtls/mbedtls-2.16.2/library\ecdh.c ****         default:
 416:D:/fchai/work/i-cube/I-CUBE-HUAWEI/Middlewares/Third_Party/Huawei/iot_link/network/dtls/mbedtls/mbedtls-2.16.2/library\ecdh.c ****             return MBEDTLS_ERR_ECP_BAD_INPUT_DATA;
 417:D:/fchai/work/i-cube/I-CUBE-HUAWEI/Middlewares/Third_Party/Huawei/iot_link/network/dtls/mbedtls/mbedtls-2.16.2/library\ecdh.c ****     }
 418:D:/fchai/work/i-cube/I-CUBE-HUAWEI/Middlewares/Third_Party/Huawei/iot_link/network/dtls/mbedtls/mbedtls-2.16.2/library\ecdh.c **** #endif
 419:D:/fchai/work/i-cube/I-CUBE-HUAWEI/Middlewares/Third_Party/Huawei/iot_link/network/dtls/mbedtls/mbedtls-2.16.2/library\ecdh.c **** }
 794              		.loc 1 419 1 view .LVU236
 795 0018 02B0     		add	sp, sp, #8
 796              	.LCFI21:
 797              		.cfi_remember_state
 798              		.cfi_def_cfa_offset 16
 799              		@ sp needed
 800 001a 70BD     		pop	{r4, r5, r6, pc}
 801              	.LVL74:
 802              	.L39:
 803              	.LCFI22:
 804              		.cfi_restore_state
 404:D:/fchai/work/i-cube/I-CUBE-HUAWEI/Middlewares/Third_Party/Huawei/iot_link/network/dtls/mbedtls/mbedtls-2.16.2/library\ecdh.c ****         return( ret );
 805              		.loc 1 404 5 is_stmt 1 view .LVU237
 806              	.LBB60:
 807              	.LBI60:
 209:D:/fchai/work/i-cube/I-CUBE-HUAWEI/Middlewares/Third_Party/Huawei/iot_link/network/dtls/mbedtls/mbedtls-2.16.2/library\ecdh.c **** {
 808              		.loc 1 209 5 view .LVU238
 809              	.LBE60:
 211:D:/fchai/work/i-cube/I-CUBE-HUAWEI/Middlewares/Third_Party/Huawei/iot_link/network/dtls/mbedtls/mbedtls-2.16.2/library\ecdh.c **** 
 810              		.loc 1 211 5 view .LVU239
 211:D:/fchai/work/i-cube/I-CUBE-HUAWEI/Middlewares/Third_Party/Huawei/iot_link/network/dtls/mbedtls/mbedtls-2.16.2/library\ecdh.c **** 
 811              		.loc 1 211 5 view .LVU240
 211:D:/fchai/work/i-cube/I-CUBE-HUAWEI/Middlewares/Third_Party/Huawei/iot_link/network/dtls/mbedtls/mbedtls-2.16.2/library\ecdh.c **** 
 812              		.loc 1 211 5 view .LVU241
 214:D:/fchai/work/i-cube/I-CUBE-HUAWEI/Middlewares/Third_Party/Huawei/iot_link/network/dtls/mbedtls/mbedtls-2.16.2/library\ecdh.c **** #else
 813              		.loc 1 214 5 view .LVU242
 814              	.LBB65:
 815              	.LBB61:
 816              	.LBI61:
 192:D:/fchai/work/i-cube/I-CUBE-HUAWEI/Middlewares/Third_Party/Huawei/iot_link/network/dtls/mbedtls/mbedtls-2.16.2/library\ecdh.c ****                                 mbedtls_ecp_group_id grp_id )
 817              		.loc 1 192 12 view .LVU243
 818              	.LBB62:
 195:D:/fchai/work/i-cube/I-CUBE-HUAWEI/Middlewares/Third_Party/Huawei/iot_link/network/dtls/mbedtls/mbedtls-2.16.2/library\ecdh.c **** 
 819              		.loc 1 195 5 view .LVU244
 197:D:/fchai/work/i-cube/I-CUBE-HUAWEI/Middlewares/Third_Party/Huawei/iot_link/network/dtls/mbedtls/mbedtls-2.16.2/library\ecdh.c ****     if( ret != 0 )
 820              		.loc 1 197 5 view .LVU245
 197:D:/fchai/work/i-cube/I-CUBE-HUAWEI/Middlewares/Third_Party/Huawei/iot_link/network/dtls/mbedtls/mbedtls-2.16.2/library\ecdh.c ****     if( ret != 0 )
ARM GAS  T:\msys\tmp\cctaHzaT.s 			page 25


 821              		.loc 1 197 11 is_stmt 0 view .LVU246
 822 001c 9DF80710 		ldrb	r1, [sp, #7]	@ zero_extendqisi2
 823 0020 3046     		mov	r0, r6
 824              	.LVL75:
 197:D:/fchai/work/i-cube/I-CUBE-HUAWEI/Middlewares/Third_Party/Huawei/iot_link/network/dtls/mbedtls/mbedtls-2.16.2/library\ecdh.c ****     if( ret != 0 )
 825              		.loc 1 197 11 view .LVU247
 826 0022 FFF7FEFF 		bl	mbedtls_ecp_group_load
 827              	.LVL76:
 198:D:/fchai/work/i-cube/I-CUBE-HUAWEI/Middlewares/Third_Party/Huawei/iot_link/network/dtls/mbedtls/mbedtls-2.16.2/library\ecdh.c ****     {
 828              		.loc 1 198 5 is_stmt 1 view .LVU248
 198:D:/fchai/work/i-cube/I-CUBE-HUAWEI/Middlewares/Third_Party/Huawei/iot_link/network/dtls/mbedtls/mbedtls-2.16.2/library\ecdh.c ****     {
 829              		.loc 1 198 7 is_stmt 0 view .LVU249
 830 0026 48B9     		cbnz	r0, .L37
 831              	.LVL77:
 198:D:/fchai/work/i-cube/I-CUBE-HUAWEI/Middlewares/Third_Party/Huawei/iot_link/network/dtls/mbedtls/mbedtls-2.16.2/library\ecdh.c ****     {
 832              		.loc 1 198 7 view .LVU250
 833              	.LBE62:
 834              	.LBE61:
 835              	.LBE65:
 408:D:/fchai/work/i-cube/I-CUBE-HUAWEI/Middlewares/Third_Party/Huawei/iot_link/network/dtls/mbedtls/mbedtls-2.16.2/library\ecdh.c **** #else
 836              		.loc 1 408 5 is_stmt 1 view .LVU251
 837              	.LBB66:
 838              	.LBI66:
 374:D:/fchai/work/i-cube/I-CUBE-HUAWEI/Middlewares/Third_Party/Huawei/iot_link/network/dtls/mbedtls/mbedtls-2.16.2/library\ecdh.c ****                                       const unsigned char **buf,
 839              		.loc 1 374 12 view .LVU252
 840              	.LBB67:
 378:D:/fchai/work/i-cube/I-CUBE-HUAWEI/Middlewares/Third_Party/Huawei/iot_link/network/dtls/mbedtls/mbedtls-2.16.2/library\ecdh.c ****                                         end - *buf ) );
 841              		.loc 1 378 5 view .LVU253
 379:D:/fchai/work/i-cube/I-CUBE-HUAWEI/Middlewares/Third_Party/Huawei/iot_link/network/dtls/mbedtls/mbedtls-2.16.2/library\ecdh.c **** }
 842              		.loc 1 379 45 is_stmt 0 view .LVU254
 843 0028 2368     		ldr	r3, [r4]
 378:D:/fchai/work/i-cube/I-CUBE-HUAWEI/Middlewares/Third_Party/Huawei/iot_link/network/dtls/mbedtls/mbedtls-2.16.2/library\ecdh.c ****                                         end - *buf ) );
 844              		.loc 1 378 13 view .LVU255
 845 002a 2246     		mov	r2, r4
 846 002c EB1A     		subs	r3, r5, r3
 847 002e 06F1AC01 		add	r1, r6, #172
 848 0032 3046     		mov	r0, r6
 849 0034 FFF7FEFF 		bl	mbedtls_ecp_tls_read_point
 850              	.LVL78:
 378:D:/fchai/work/i-cube/I-CUBE-HUAWEI/Middlewares/Third_Party/Huawei/iot_link/network/dtls/mbedtls/mbedtls-2.16.2/library\ecdh.c ****                                         end - *buf ) );
 851              		.loc 1 378 13 view .LVU256
 852              	.LBE67:
 853              	.LBE66:
 854              		.loc 1 419 1 view .LVU257
 855 0038 02B0     		add	sp, sp, #8
 856              	.LCFI23:
 857              		.cfi_remember_state
 858              		.cfi_def_cfa_offset 16
 859              		@ sp needed
 860 003a 70BD     		pop	{r4, r5, r6, pc}
 861              	.LVL79:
 862              	.L37:
 863              	.LCFI24:
 864              		.cfi_restore_state
 865              	.LBB68:
 866              	.LBB64:
 867              	.LBB63:
ARM GAS  T:\msys\tmp\cctaHzaT.s 			page 26


 200:D:/fchai/work/i-cube/I-CUBE-HUAWEI/Middlewares/Third_Party/Huawei/iot_link/network/dtls/mbedtls/mbedtls-2.16.2/library\ecdh.c ****     }
 868              		.loc 1 200 15 view .LVU258
 869 003c 0048     		ldr	r0, .L40
 870              	.LVL80:
 200:D:/fchai/work/i-cube/I-CUBE-HUAWEI/Middlewares/Third_Party/Huawei/iot_link/network/dtls/mbedtls/mbedtls-2.16.2/library\ecdh.c ****     }
 871              		.loc 1 200 15 view .LVU259
 872 003e EBE7     		b	.L35
 873              	.L41:
 874              		.align	2
 875              	.L40:
 876 0040 80B1FFFF 		.word	-20096
 877              	.LBE63:
 878              	.LBE64:
 879              	.LBE68:
 880              		.cfi_endproc
 881              	.LFE14:
 883              		.section	.text.mbedtls_ecdh_get_params,"ax",%progbits
 884              		.align	1
 885              		.p2align 2,,3
 886              		.global	mbedtls_ecdh_get_params
 887              		.syntax unified
 888              		.thumb
 889              		.thumb_func
 890              		.fpu fpv4-sp-d16
 892              	mbedtls_ecdh_get_params:
 893              	.LVL81:
 894              	.LFB16:
 420:D:/fchai/work/i-cube/I-CUBE-HUAWEI/Middlewares/Third_Party/Huawei/iot_link/network/dtls/mbedtls/mbedtls-2.16.2/library\ecdh.c **** 
 421:D:/fchai/work/i-cube/I-CUBE-HUAWEI/Middlewares/Third_Party/Huawei/iot_link/network/dtls/mbedtls/mbedtls-2.16.2/library\ecdh.c **** static int ecdh_get_params_internal( mbedtls_ecdh_context_mbed *ctx,
 422:D:/fchai/work/i-cube/I-CUBE-HUAWEI/Middlewares/Third_Party/Huawei/iot_link/network/dtls/mbedtls/mbedtls-2.16.2/library\ecdh.c ****                                      const mbedtls_ecp_keypair *key,
 423:D:/fchai/work/i-cube/I-CUBE-HUAWEI/Middlewares/Third_Party/Huawei/iot_link/network/dtls/mbedtls/mbedtls-2.16.2/library\ecdh.c ****                                      mbedtls_ecdh_side side )
 424:D:/fchai/work/i-cube/I-CUBE-HUAWEI/Middlewares/Third_Party/Huawei/iot_link/network/dtls/mbedtls/mbedtls-2.16.2/library\ecdh.c **** {
 425:D:/fchai/work/i-cube/I-CUBE-HUAWEI/Middlewares/Third_Party/Huawei/iot_link/network/dtls/mbedtls/mbedtls-2.16.2/library\ecdh.c ****     int ret;
 426:D:/fchai/work/i-cube/I-CUBE-HUAWEI/Middlewares/Third_Party/Huawei/iot_link/network/dtls/mbedtls/mbedtls-2.16.2/library\ecdh.c **** 
 427:D:/fchai/work/i-cube/I-CUBE-HUAWEI/Middlewares/Third_Party/Huawei/iot_link/network/dtls/mbedtls/mbedtls-2.16.2/library\ecdh.c ****     /* If it's not our key, just import the public part as Qp */
 428:D:/fchai/work/i-cube/I-CUBE-HUAWEI/Middlewares/Third_Party/Huawei/iot_link/network/dtls/mbedtls/mbedtls-2.16.2/library\ecdh.c ****     if( side == MBEDTLS_ECDH_THEIRS )
 429:D:/fchai/work/i-cube/I-CUBE-HUAWEI/Middlewares/Third_Party/Huawei/iot_link/network/dtls/mbedtls/mbedtls-2.16.2/library\ecdh.c ****         return( mbedtls_ecp_copy( &ctx->Qp, &key->Q ) );
 430:D:/fchai/work/i-cube/I-CUBE-HUAWEI/Middlewares/Third_Party/Huawei/iot_link/network/dtls/mbedtls/mbedtls-2.16.2/library\ecdh.c **** 
 431:D:/fchai/work/i-cube/I-CUBE-HUAWEI/Middlewares/Third_Party/Huawei/iot_link/network/dtls/mbedtls/mbedtls-2.16.2/library\ecdh.c ****     /* Our key: import public (as Q) and private parts */
 432:D:/fchai/work/i-cube/I-CUBE-HUAWEI/Middlewares/Third_Party/Huawei/iot_link/network/dtls/mbedtls/mbedtls-2.16.2/library\ecdh.c ****     if( side != MBEDTLS_ECDH_OURS )
 433:D:/fchai/work/i-cube/I-CUBE-HUAWEI/Middlewares/Third_Party/Huawei/iot_link/network/dtls/mbedtls/mbedtls-2.16.2/library\ecdh.c ****         return( MBEDTLS_ERR_ECP_BAD_INPUT_DATA );
 434:D:/fchai/work/i-cube/I-CUBE-HUAWEI/Middlewares/Third_Party/Huawei/iot_link/network/dtls/mbedtls/mbedtls-2.16.2/library\ecdh.c **** 
 435:D:/fchai/work/i-cube/I-CUBE-HUAWEI/Middlewares/Third_Party/Huawei/iot_link/network/dtls/mbedtls/mbedtls-2.16.2/library\ecdh.c ****     if( ( ret = mbedtls_ecp_copy( &ctx->Q, &key->Q ) ) != 0 ||
 436:D:/fchai/work/i-cube/I-CUBE-HUAWEI/Middlewares/Third_Party/Huawei/iot_link/network/dtls/mbedtls/mbedtls-2.16.2/library\ecdh.c ****         ( ret = mbedtls_mpi_copy( &ctx->d, &key->d ) ) != 0 )
 437:D:/fchai/work/i-cube/I-CUBE-HUAWEI/Middlewares/Third_Party/Huawei/iot_link/network/dtls/mbedtls/mbedtls-2.16.2/library\ecdh.c ****         return( ret );
 438:D:/fchai/work/i-cube/I-CUBE-HUAWEI/Middlewares/Third_Party/Huawei/iot_link/network/dtls/mbedtls/mbedtls-2.16.2/library\ecdh.c **** 
 439:D:/fchai/work/i-cube/I-CUBE-HUAWEI/Middlewares/Third_Party/Huawei/iot_link/network/dtls/mbedtls/mbedtls-2.16.2/library\ecdh.c ****     return( 0 );
 440:D:/fchai/work/i-cube/I-CUBE-HUAWEI/Middlewares/Third_Party/Huawei/iot_link/network/dtls/mbedtls/mbedtls-2.16.2/library\ecdh.c **** }
 441:D:/fchai/work/i-cube/I-CUBE-HUAWEI/Middlewares/Third_Party/Huawei/iot_link/network/dtls/mbedtls/mbedtls-2.16.2/library\ecdh.c **** 
 442:D:/fchai/work/i-cube/I-CUBE-HUAWEI/Middlewares/Third_Party/Huawei/iot_link/network/dtls/mbedtls/mbedtls-2.16.2/library\ecdh.c **** /*
 443:D:/fchai/work/i-cube/I-CUBE-HUAWEI/Middlewares/Third_Party/Huawei/iot_link/network/dtls/mbedtls/mbedtls-2.16.2/library\ecdh.c ****  * Get parameters from a keypair
 444:D:/fchai/work/i-cube/I-CUBE-HUAWEI/Middlewares/Third_Party/Huawei/iot_link/network/dtls/mbedtls/mbedtls-2.16.2/library\ecdh.c ****  */
 445:D:/fchai/work/i-cube/I-CUBE-HUAWEI/Middlewares/Third_Party/Huawei/iot_link/network/dtls/mbedtls/mbedtls-2.16.2/library\ecdh.c **** int mbedtls_ecdh_get_params( mbedtls_ecdh_context *ctx,
 446:D:/fchai/work/i-cube/I-CUBE-HUAWEI/Middlewares/Third_Party/Huawei/iot_link/network/dtls/mbedtls/mbedtls-2.16.2/library\ecdh.c ****                              const mbedtls_ecp_keypair *key,
 447:D:/fchai/work/i-cube/I-CUBE-HUAWEI/Middlewares/Third_Party/Huawei/iot_link/network/dtls/mbedtls/mbedtls-2.16.2/library\ecdh.c ****                              mbedtls_ecdh_side side )
 448:D:/fchai/work/i-cube/I-CUBE-HUAWEI/Middlewares/Third_Party/Huawei/iot_link/network/dtls/mbedtls/mbedtls-2.16.2/library\ecdh.c **** {
 895              		.loc 1 448 1 is_stmt 1 view -0
ARM GAS  T:\msys\tmp\cctaHzaT.s 			page 27


 896              		.cfi_startproc
 897              		@ args = 0, pretend = 0, frame = 0
 898              		@ frame_needed = 0, uses_anonymous_args = 0
 449:D:/fchai/work/i-cube/I-CUBE-HUAWEI/Middlewares/Third_Party/Huawei/iot_link/network/dtls/mbedtls/mbedtls-2.16.2/library\ecdh.c ****     int ret;
 899              		.loc 1 449 5 view .LVU261
 450:D:/fchai/work/i-cube/I-CUBE-HUAWEI/Middlewares/Third_Party/Huawei/iot_link/network/dtls/mbedtls/mbedtls-2.16.2/library\ecdh.c ****     ECDH_VALIDATE_RET( ctx != NULL );
 900              		.loc 1 450 5 view .LVU262
 901              		.loc 1 450 5 view .LVU263
 902              		.loc 1 450 5 view .LVU264
 451:D:/fchai/work/i-cube/I-CUBE-HUAWEI/Middlewares/Third_Party/Huawei/iot_link/network/dtls/mbedtls/mbedtls-2.16.2/library\ecdh.c ****     ECDH_VALIDATE_RET( key != NULL );
 903              		.loc 1 451 5 view .LVU265
 904              		.loc 1 451 5 view .LVU266
 905              		.loc 1 451 5 view .LVU267
 452:D:/fchai/work/i-cube/I-CUBE-HUAWEI/Middlewares/Third_Party/Huawei/iot_link/network/dtls/mbedtls/mbedtls-2.16.2/library\ecdh.c ****     ECDH_VALIDATE_RET( side == MBEDTLS_ECDH_OURS ||
 906              		.loc 1 452 5 view .LVU268
 907              		.loc 1 452 5 view .LVU269
 908              		.loc 1 452 5 view .LVU270
 453:D:/fchai/work/i-cube/I-CUBE-HUAWEI/Middlewares/Third_Party/Huawei/iot_link/network/dtls/mbedtls/mbedtls-2.16.2/library\ecdh.c ****                        side == MBEDTLS_ECDH_THEIRS );
 454:D:/fchai/work/i-cube/I-CUBE-HUAWEI/Middlewares/Third_Party/Huawei/iot_link/network/dtls/mbedtls/mbedtls-2.16.2/library\ecdh.c **** 
 455:D:/fchai/work/i-cube/I-CUBE-HUAWEI/Middlewares/Third_Party/Huawei/iot_link/network/dtls/mbedtls/mbedtls-2.16.2/library\ecdh.c ****     if( mbedtls_ecdh_grp_id( ctx ) == MBEDTLS_ECP_DP_NONE )
 909              		.loc 1 455 5 view .LVU271
 448:D:/fchai/work/i-cube/I-CUBE-HUAWEI/Middlewares/Third_Party/Huawei/iot_link/network/dtls/mbedtls/mbedtls-2.16.2/library\ecdh.c ****     int ret;
 910              		.loc 1 448 1 is_stmt 0 view .LVU272
 911 0000 70B5     		push	{r4, r5, r6, lr}
 912              	.LCFI25:
 913              		.cfi_def_cfa_offset 16
 914              		.cfi_offset 4, -16
 915              		.cfi_offset 5, -12
 916              		.cfi_offset 6, -8
 917              		.cfi_offset 14, -4
 918              		.loc 1 455 9 view .LVU273
 919 0002 0378     		ldrb	r3, [r0]	@ zero_extendqisi2
 920              	.LVL82:
  56:D:/fchai/work/i-cube/I-CUBE-HUAWEI/Middlewares/Third_Party/Huawei/iot_link/network/dtls/mbedtls/mbedtls-2.16.2/library\ecdh.c **** #else
 921              		.loc 1 56 5 is_stmt 1 view .LVU274
 448:D:/fchai/work/i-cube/I-CUBE-HUAWEI/Middlewares/Third_Party/Huawei/iot_link/network/dtls/mbedtls/mbedtls-2.16.2/library\ecdh.c ****     int ret;
 922              		.loc 1 448 1 is_stmt 0 view .LVU275
 923 0004 0446     		mov	r4, r0
 924 0006 0D46     		mov	r5, r1
 925 0008 1646     		mov	r6, r2
 926              		.loc 1 455 7 view .LVU276
 927 000a ABB1     		cbz	r3, .L52
 456:D:/fchai/work/i-cube/I-CUBE-HUAWEI/Middlewares/Third_Party/Huawei/iot_link/network/dtls/mbedtls/mbedtls-2.16.2/library\ecdh.c ****     {
 457:D:/fchai/work/i-cube/I-CUBE-HUAWEI/Middlewares/Third_Party/Huawei/iot_link/network/dtls/mbedtls/mbedtls-2.16.2/library\ecdh.c ****         /* This is the first call to get_params(). Set up the context
 458:D:/fchai/work/i-cube/I-CUBE-HUAWEI/Middlewares/Third_Party/Huawei/iot_link/network/dtls/mbedtls/mbedtls-2.16.2/library\ecdh.c ****          * for use with the group. */
 459:D:/fchai/work/i-cube/I-CUBE-HUAWEI/Middlewares/Third_Party/Huawei/iot_link/network/dtls/mbedtls/mbedtls-2.16.2/library\ecdh.c ****         if( ( ret = mbedtls_ecdh_setup( ctx, key->grp.id ) ) != 0 )
 460:D:/fchai/work/i-cube/I-CUBE-HUAWEI/Middlewares/Third_Party/Huawei/iot_link/network/dtls/mbedtls/mbedtls-2.16.2/library\ecdh.c ****             return( ret );
 461:D:/fchai/work/i-cube/I-CUBE-HUAWEI/Middlewares/Third_Party/Huawei/iot_link/network/dtls/mbedtls/mbedtls-2.16.2/library\ecdh.c ****     }
 462:D:/fchai/work/i-cube/I-CUBE-HUAWEI/Middlewares/Third_Party/Huawei/iot_link/network/dtls/mbedtls/mbedtls-2.16.2/library\ecdh.c ****     else
 463:D:/fchai/work/i-cube/I-CUBE-HUAWEI/Middlewares/Third_Party/Huawei/iot_link/network/dtls/mbedtls/mbedtls-2.16.2/library\ecdh.c ****     {
 464:D:/fchai/work/i-cube/I-CUBE-HUAWEI/Middlewares/Third_Party/Huawei/iot_link/network/dtls/mbedtls/mbedtls-2.16.2/library\ecdh.c ****         /* This is not the first call to get_params(). Check that the
 465:D:/fchai/work/i-cube/I-CUBE-HUAWEI/Middlewares/Third_Party/Huawei/iot_link/network/dtls/mbedtls/mbedtls-2.16.2/library\ecdh.c ****          * current key's group is the same as the context's, which was set
 466:D:/fchai/work/i-cube/I-CUBE-HUAWEI/Middlewares/Third_Party/Huawei/iot_link/network/dtls/mbedtls/mbedtls-2.16.2/library\ecdh.c ****          * from the first key's group. */
 467:D:/fchai/work/i-cube/I-CUBE-HUAWEI/Middlewares/Third_Party/Huawei/iot_link/network/dtls/mbedtls/mbedtls-2.16.2/library\ecdh.c ****         if( mbedtls_ecdh_grp_id( ctx ) != key->grp.id )
 928              		.loc 1 467 9 is_stmt 1 view .LVU277
 929              	.LVL83:
  56:D:/fchai/work/i-cube/I-CUBE-HUAWEI/Middlewares/Third_Party/Huawei/iot_link/network/dtls/mbedtls/mbedtls-2.16.2/library\ecdh.c **** #else
ARM GAS  T:\msys\tmp\cctaHzaT.s 			page 28


 930              		.loc 1 56 5 view .LVU278
 931              		.loc 1 467 11 is_stmt 0 view .LVU279
 932 000c 0A78     		ldrb	r2, [r1]	@ zero_extendqisi2
 933              	.LVL84:
 934              		.loc 1 467 11 view .LVU280
 935 000e 9A42     		cmp	r2, r3
 936 0010 21D1     		bne	.L48
 937              	.LVL85:
 938              	.L47:
 468:D:/fchai/work/i-cube/I-CUBE-HUAWEI/Middlewares/Third_Party/Huawei/iot_link/network/dtls/mbedtls/mbedtls-2.16.2/library\ecdh.c ****             return( MBEDTLS_ERR_ECP_BAD_INPUT_DATA );
 469:D:/fchai/work/i-cube/I-CUBE-HUAWEI/Middlewares/Third_Party/Huawei/iot_link/network/dtls/mbedtls/mbedtls-2.16.2/library\ecdh.c ****     }
 470:D:/fchai/work/i-cube/I-CUBE-HUAWEI/Middlewares/Third_Party/Huawei/iot_link/network/dtls/mbedtls/mbedtls-2.16.2/library\ecdh.c **** 
 471:D:/fchai/work/i-cube/I-CUBE-HUAWEI/Middlewares/Third_Party/Huawei/iot_link/network/dtls/mbedtls/mbedtls-2.16.2/library\ecdh.c **** #if defined(MBEDTLS_ECDH_LEGACY_CONTEXT)
 472:D:/fchai/work/i-cube/I-CUBE-HUAWEI/Middlewares/Third_Party/Huawei/iot_link/network/dtls/mbedtls/mbedtls-2.16.2/library\ecdh.c ****     return( ecdh_get_params_internal( ctx, key, side ) );
 939              		.loc 1 472 5 is_stmt 1 view .LVU281
 940              	.LBB74:
 941              	.LBI74:
 421:D:/fchai/work/i-cube/I-CUBE-HUAWEI/Middlewares/Third_Party/Huawei/iot_link/network/dtls/mbedtls/mbedtls-2.16.2/library\ecdh.c ****                                      const mbedtls_ecp_keypair *key,
 942              		.loc 1 421 12 view .LVU282
 943              	.LBB75:
 425:D:/fchai/work/i-cube/I-CUBE-HUAWEI/Middlewares/Third_Party/Huawei/iot_link/network/dtls/mbedtls/mbedtls-2.16.2/library\ecdh.c **** 
 944              		.loc 1 425 5 view .LVU283
 428:D:/fchai/work/i-cube/I-CUBE-HUAWEI/Middlewares/Third_Party/Huawei/iot_link/network/dtls/mbedtls/mbedtls-2.16.2/library\ecdh.c ****         return( mbedtls_ecp_copy( &ctx->Qp, &key->Q ) );
 945              		.loc 1 428 5 view .LVU284
 428:D:/fchai/work/i-cube/I-CUBE-HUAWEI/Middlewares/Third_Party/Huawei/iot_link/network/dtls/mbedtls/mbedtls-2.16.2/library\ecdh.c ****         return( mbedtls_ecp_copy( &ctx->Qp, &key->Q ) );
 946              		.loc 1 428 7 is_stmt 0 view .LVU285
 947 0012 012E     		cmp	r6, #1
 948 0014 17D0     		beq	.L53
 432:D:/fchai/work/i-cube/I-CUBE-HUAWEI/Middlewares/Third_Party/Huawei/iot_link/network/dtls/mbedtls/mbedtls-2.16.2/library\ecdh.c ****         return( MBEDTLS_ERR_ECP_BAD_INPUT_DATA );
 949              		.loc 1 432 5 is_stmt 1 view .LVU286
 432:D:/fchai/work/i-cube/I-CUBE-HUAWEI/Middlewares/Third_Party/Huawei/iot_link/network/dtls/mbedtls/mbedtls-2.16.2/library\ecdh.c ****         return( MBEDTLS_ERR_ECP_BAD_INPUT_DATA );
 950              		.loc 1 432 7 is_stmt 0 view .LVU287
 951 0016 F6B9     		cbnz	r6, .L48
 435:D:/fchai/work/i-cube/I-CUBE-HUAWEI/Middlewares/Third_Party/Huawei/iot_link/network/dtls/mbedtls/mbedtls-2.16.2/library\ecdh.c ****         ( ret = mbedtls_mpi_copy( &ctx->d, &key->d ) ) != 0 )
 952              		.loc 1 435 5 is_stmt 1 view .LVU288
 435:D:/fchai/work/i-cube/I-CUBE-HUAWEI/Middlewares/Third_Party/Huawei/iot_link/network/dtls/mbedtls/mbedtls-2.16.2/library\ecdh.c ****         ( ret = mbedtls_mpi_copy( &ctx->d, &key->d ) ) != 0 )
 953              		.loc 1 435 17 is_stmt 0 view .LVU289
 954 0018 05F18801 		add	r1, r5, #136
 955 001c 04F18800 		add	r0, r4, #136
 956 0020 FFF7FEFF 		bl	mbedtls_ecp_copy
 957              	.LVL86:
 435:D:/fchai/work/i-cube/I-CUBE-HUAWEI/Middlewares/Third_Party/Huawei/iot_link/network/dtls/mbedtls/mbedtls-2.16.2/library\ecdh.c ****         ( ret = mbedtls_mpi_copy( &ctx->d, &key->d ) ) != 0 )
 958              		.loc 1 435 7 view .LVU290
 959 0024 00B1     		cbz	r0, .L54
 960              	.LBE75:
 961              	.LBE74:
 473:D:/fchai/work/i-cube/I-CUBE-HUAWEI/Middlewares/Third_Party/Huawei/iot_link/network/dtls/mbedtls/mbedtls-2.16.2/library\ecdh.c **** #else
 474:D:/fchai/work/i-cube/I-CUBE-HUAWEI/Middlewares/Third_Party/Huawei/iot_link/network/dtls/mbedtls/mbedtls-2.16.2/library\ecdh.c ****     switch( ctx->var )
 475:D:/fchai/work/i-cube/I-CUBE-HUAWEI/Middlewares/Third_Party/Huawei/iot_link/network/dtls/mbedtls/mbedtls-2.16.2/library\ecdh.c ****     {
 476:D:/fchai/work/i-cube/I-CUBE-HUAWEI/Middlewares/Third_Party/Huawei/iot_link/network/dtls/mbedtls/mbedtls-2.16.2/library\ecdh.c ****         case MBEDTLS_ECDH_VARIANT_MBEDTLS_2_0:
 477:D:/fchai/work/i-cube/I-CUBE-HUAWEI/Middlewares/Third_Party/Huawei/iot_link/network/dtls/mbedtls/mbedtls-2.16.2/library\ecdh.c ****             return( ecdh_get_params_internal( &ctx->ctx.mbed_ecdh,
 478:D:/fchai/work/i-cube/I-CUBE-HUAWEI/Middlewares/Third_Party/Huawei/iot_link/network/dtls/mbedtls/mbedtls-2.16.2/library\ecdh.c ****                                               key, side ) );
 479:D:/fchai/work/i-cube/I-CUBE-HUAWEI/Middlewares/Third_Party/Huawei/iot_link/network/dtls/mbedtls/mbedtls-2.16.2/library\ecdh.c ****         default:
 480:D:/fchai/work/i-cube/I-CUBE-HUAWEI/Middlewares/Third_Party/Huawei/iot_link/network/dtls/mbedtls/mbedtls-2.16.2/library\ecdh.c ****             return MBEDTLS_ERR_ECP_BAD_INPUT_DATA;
 481:D:/fchai/work/i-cube/I-CUBE-HUAWEI/Middlewares/Third_Party/Huawei/iot_link/network/dtls/mbedtls/mbedtls-2.16.2/library\ecdh.c ****     }
 482:D:/fchai/work/i-cube/I-CUBE-HUAWEI/Middlewares/Third_Party/Huawei/iot_link/network/dtls/mbedtls/mbedtls-2.16.2/library\ecdh.c **** #endif
 483:D:/fchai/work/i-cube/I-CUBE-HUAWEI/Middlewares/Third_Party/Huawei/iot_link/network/dtls/mbedtls/mbedtls-2.16.2/library\ecdh.c **** }
ARM GAS  T:\msys\tmp\cctaHzaT.s 			page 29


 962              		.loc 1 483 1 view .LVU291
 963 0026 70BD     		pop	{r4, r5, r6, pc}
 964              	.LVL87:
 965              	.L54:
 966              	.LBB80:
 967              	.LBB76:
 436:D:/fchai/work/i-cube/I-CUBE-HUAWEI/Middlewares/Third_Party/Huawei/iot_link/network/dtls/mbedtls/mbedtls-2.16.2/library\ecdh.c ****         return( ret );
 968              		.loc 1 436 17 view .LVU292
 969 0028 05F17C01 		add	r1, r5, #124
 970 002c 04F17C00 		add	r0, r4, #124
 971              	.LVL88:
 436:D:/fchai/work/i-cube/I-CUBE-HUAWEI/Middlewares/Third_Party/Huawei/iot_link/network/dtls/mbedtls/mbedtls-2.16.2/library\ecdh.c ****         return( ret );
 972              		.loc 1 436 17 view .LVU293
 973              	.LBE76:
 974              	.LBE80:
 975              		.loc 1 483 1 view .LVU294
 976 0030 BDE87040 		pop	{r4, r5, r6, lr}
 977              	.LCFI26:
 978              		.cfi_remember_state
 979              		.cfi_restore 14
 980              		.cfi_restore 6
 981              		.cfi_restore 5
 982              		.cfi_restore 4
 983              		.cfi_def_cfa_offset 0
 984              	.LVL89:
 985              	.LBB81:
 986              	.LBB77:
 436:D:/fchai/work/i-cube/I-CUBE-HUAWEI/Middlewares/Third_Party/Huawei/iot_link/network/dtls/mbedtls/mbedtls-2.16.2/library\ecdh.c ****         return( ret );
 987              		.loc 1 436 17 view .LVU295
 988 0034 FFF7FEBF 		b	mbedtls_mpi_copy
 989              	.LVL90:
 990              	.L52:
 991              	.LCFI27:
 992              		.cfi_restore_state
 436:D:/fchai/work/i-cube/I-CUBE-HUAWEI/Middlewares/Third_Party/Huawei/iot_link/network/dtls/mbedtls/mbedtls-2.16.2/library\ecdh.c ****         return( ret );
 993              		.loc 1 436 17 view .LVU296
 994              	.LBE77:
 995              	.LBE81:
 459:D:/fchai/work/i-cube/I-CUBE-HUAWEI/Middlewares/Third_Party/Huawei/iot_link/network/dtls/mbedtls/mbedtls-2.16.2/library\ecdh.c ****             return( ret );
 996              		.loc 1 459 9 is_stmt 1 view .LVU297
 997              	.LBB82:
 998              	.LBI82:
 209:D:/fchai/work/i-cube/I-CUBE-HUAWEI/Middlewares/Third_Party/Huawei/iot_link/network/dtls/mbedtls/mbedtls-2.16.2/library\ecdh.c **** {
 999              		.loc 1 209 5 view .LVU298
 1000              	.LBE82:
 211:D:/fchai/work/i-cube/I-CUBE-HUAWEI/Middlewares/Third_Party/Huawei/iot_link/network/dtls/mbedtls/mbedtls-2.16.2/library\ecdh.c **** 
 1001              		.loc 1 211 5 view .LVU299
 211:D:/fchai/work/i-cube/I-CUBE-HUAWEI/Middlewares/Third_Party/Huawei/iot_link/network/dtls/mbedtls/mbedtls-2.16.2/library\ecdh.c **** 
 1002              		.loc 1 211 5 view .LVU300
 211:D:/fchai/work/i-cube/I-CUBE-HUAWEI/Middlewares/Third_Party/Huawei/iot_link/network/dtls/mbedtls/mbedtls-2.16.2/library\ecdh.c **** 
 1003              		.loc 1 211 5 view .LVU301
 214:D:/fchai/work/i-cube/I-CUBE-HUAWEI/Middlewares/Third_Party/Huawei/iot_link/network/dtls/mbedtls/mbedtls-2.16.2/library\ecdh.c **** #else
 1004              		.loc 1 214 5 view .LVU302
 1005              	.LBB85:
 1006              	.LBB83:
 1007              	.LBI83:
 192:D:/fchai/work/i-cube/I-CUBE-HUAWEI/Middlewares/Third_Party/Huawei/iot_link/network/dtls/mbedtls/mbedtls-2.16.2/library\ecdh.c ****                                 mbedtls_ecp_group_id grp_id )
ARM GAS  T:\msys\tmp\cctaHzaT.s 			page 30


 1008              		.loc 1 192 12 view .LVU303
 1009              	.LBB84:
 195:D:/fchai/work/i-cube/I-CUBE-HUAWEI/Middlewares/Third_Party/Huawei/iot_link/network/dtls/mbedtls/mbedtls-2.16.2/library\ecdh.c **** 
 1010              		.loc 1 195 5 view .LVU304
 197:D:/fchai/work/i-cube/I-CUBE-HUAWEI/Middlewares/Third_Party/Huawei/iot_link/network/dtls/mbedtls/mbedtls-2.16.2/library\ecdh.c ****     if( ret != 0 )
 1011              		.loc 1 197 5 view .LVU305
 197:D:/fchai/work/i-cube/I-CUBE-HUAWEI/Middlewares/Third_Party/Huawei/iot_link/network/dtls/mbedtls/mbedtls-2.16.2/library\ecdh.c ****     if( ret != 0 )
 1012              		.loc 1 197 11 is_stmt 0 view .LVU306
 1013 0038 0978     		ldrb	r1, [r1]	@ zero_extendqisi2
 1014              	.LVL91:
 197:D:/fchai/work/i-cube/I-CUBE-HUAWEI/Middlewares/Third_Party/Huawei/iot_link/network/dtls/mbedtls/mbedtls-2.16.2/library\ecdh.c ****     if( ret != 0 )
 1015              		.loc 1 197 11 view .LVU307
 1016 003a FFF7FEFF 		bl	mbedtls_ecp_group_load
 1017              	.LVL92:
 198:D:/fchai/work/i-cube/I-CUBE-HUAWEI/Middlewares/Third_Party/Huawei/iot_link/network/dtls/mbedtls/mbedtls-2.16.2/library\ecdh.c ****     {
 1018              		.loc 1 198 5 is_stmt 1 view .LVU308
 198:D:/fchai/work/i-cube/I-CUBE-HUAWEI/Middlewares/Third_Party/Huawei/iot_link/network/dtls/mbedtls/mbedtls-2.16.2/library\ecdh.c ****     {
 1019              		.loc 1 198 7 is_stmt 0 view .LVU309
 1020 003e 0028     		cmp	r0, #0
 1021 0040 E7D0     		beq	.L47
 200:D:/fchai/work/i-cube/I-CUBE-HUAWEI/Middlewares/Third_Party/Huawei/iot_link/network/dtls/mbedtls/mbedtls-2.16.2/library\ecdh.c ****     }
 1022              		.loc 1 200 15 view .LVU310
 1023 0042 0648     		ldr	r0, .L55
 1024              	.LVL93:
 200:D:/fchai/work/i-cube/I-CUBE-HUAWEI/Middlewares/Third_Party/Huawei/iot_link/network/dtls/mbedtls/mbedtls-2.16.2/library\ecdh.c ****     }
 1025              		.loc 1 200 15 view .LVU311
 1026              	.LBE84:
 1027              	.LBE83:
 1028              	.LBE85:
 1029              		.loc 1 483 1 view .LVU312
 1030 0044 70BD     		pop	{r4, r5, r6, pc}
 1031              	.LVL94:
 1032              	.L53:
 1033              	.LBB86:
 1034              	.LBB78:
 429:D:/fchai/work/i-cube/I-CUBE-HUAWEI/Middlewares/Third_Party/Huawei/iot_link/network/dtls/mbedtls/mbedtls-2.16.2/library\ecdh.c **** 
 1035              		.loc 1 429 9 is_stmt 1 view .LVU313
 429:D:/fchai/work/i-cube/I-CUBE-HUAWEI/Middlewares/Third_Party/Huawei/iot_link/network/dtls/mbedtls/mbedtls-2.16.2/library\ecdh.c **** 
 1036              		.loc 1 429 17 is_stmt 0 view .LVU314
 1037 0046 05F18801 		add	r1, r5, #136
 1038 004a 04F1AC00 		add	r0, r4, #172
 1039              	.LBE78:
 1040              	.LBE86:
 1041              		.loc 1 483 1 view .LVU315
 1042 004e BDE87040 		pop	{r4, r5, r6, lr}
 1043              	.LCFI28:
 1044              		.cfi_remember_state
 1045              		.cfi_restore 14
 1046              		.cfi_restore 6
 1047              		.cfi_restore 5
 1048              		.cfi_restore 4
 1049              		.cfi_def_cfa_offset 0
 1050              	.LVL95:
 1051              	.LBB87:
 1052              	.LBB79:
 429:D:/fchai/work/i-cube/I-CUBE-HUAWEI/Middlewares/Third_Party/Huawei/iot_link/network/dtls/mbedtls/mbedtls-2.16.2/library\ecdh.c **** 
 1053              		.loc 1 429 17 view .LVU316
ARM GAS  T:\msys\tmp\cctaHzaT.s 			page 31


 1054 0052 FFF7FEBF 		b	mbedtls_ecp_copy
 1055              	.LVL96:
 1056              	.L48:
 1057              	.LCFI29:
 1058              		.cfi_restore_state
 429:D:/fchai/work/i-cube/I-CUBE-HUAWEI/Middlewares/Third_Party/Huawei/iot_link/network/dtls/mbedtls/mbedtls-2.16.2/library\ecdh.c **** 
 1059              		.loc 1 429 17 view .LVU317
 1060              	.LBE79:
 1061              	.LBE87:
 468:D:/fchai/work/i-cube/I-CUBE-HUAWEI/Middlewares/Third_Party/Huawei/iot_link/network/dtls/mbedtls/mbedtls-2.16.2/library\ecdh.c ****     }
 1062              		.loc 1 468 19 view .LVU318
 1063 0056 0248     		ldr	r0, .L55+4
 1064              		.loc 1 483 1 view .LVU319
 1065 0058 70BD     		pop	{r4, r5, r6, pc}
 1066              	.LVL97:
 1067              	.L56:
 1068              		.loc 1 483 1 view .LVU320
 1069 005a 00BF     		.align	2
 1070              	.L55:
 1071 005c 80B1FFFF 		.word	-20096
 1072 0060 80B0FFFF 		.word	-20352
 1073              		.cfi_endproc
 1074              	.LFE16:
 1076              		.section	.text.mbedtls_ecdh_make_public,"ax",%progbits
 1077              		.align	1
 1078              		.p2align 2,,3
 1079              		.global	mbedtls_ecdh_make_public
 1080              		.syntax unified
 1081              		.thumb
 1082              		.thumb_func
 1083              		.fpu fpv4-sp-d16
 1085              	mbedtls_ecdh_make_public:
 1086              	.LVL98:
 1087              	.LFB18:
 484:D:/fchai/work/i-cube/I-CUBE-HUAWEI/Middlewares/Third_Party/Huawei/iot_link/network/dtls/mbedtls/mbedtls-2.16.2/library\ecdh.c **** 
 485:D:/fchai/work/i-cube/I-CUBE-HUAWEI/Middlewares/Third_Party/Huawei/iot_link/network/dtls/mbedtls/mbedtls-2.16.2/library\ecdh.c **** static int ecdh_make_public_internal( mbedtls_ecdh_context_mbed *ctx,
 486:D:/fchai/work/i-cube/I-CUBE-HUAWEI/Middlewares/Third_Party/Huawei/iot_link/network/dtls/mbedtls/mbedtls-2.16.2/library\ecdh.c ****                                       size_t *olen, int point_format,
 487:D:/fchai/work/i-cube/I-CUBE-HUAWEI/Middlewares/Third_Party/Huawei/iot_link/network/dtls/mbedtls/mbedtls-2.16.2/library\ecdh.c ****                                       unsigned char *buf, size_t blen,
 488:D:/fchai/work/i-cube/I-CUBE-HUAWEI/Middlewares/Third_Party/Huawei/iot_link/network/dtls/mbedtls/mbedtls-2.16.2/library\ecdh.c ****                                       int (*f_rng)(void *,
 489:D:/fchai/work/i-cube/I-CUBE-HUAWEI/Middlewares/Third_Party/Huawei/iot_link/network/dtls/mbedtls/mbedtls-2.16.2/library\ecdh.c ****                                                    unsigned char *,
 490:D:/fchai/work/i-cube/I-CUBE-HUAWEI/Middlewares/Third_Party/Huawei/iot_link/network/dtls/mbedtls/mbedtls-2.16.2/library\ecdh.c ****                                                    size_t),
 491:D:/fchai/work/i-cube/I-CUBE-HUAWEI/Middlewares/Third_Party/Huawei/iot_link/network/dtls/mbedtls/mbedtls-2.16.2/library\ecdh.c ****                                       void *p_rng,
 492:D:/fchai/work/i-cube/I-CUBE-HUAWEI/Middlewares/Third_Party/Huawei/iot_link/network/dtls/mbedtls/mbedtls-2.16.2/library\ecdh.c ****                                       int restart_enabled )
 493:D:/fchai/work/i-cube/I-CUBE-HUAWEI/Middlewares/Third_Party/Huawei/iot_link/network/dtls/mbedtls/mbedtls-2.16.2/library\ecdh.c **** {
 494:D:/fchai/work/i-cube/I-CUBE-HUAWEI/Middlewares/Third_Party/Huawei/iot_link/network/dtls/mbedtls/mbedtls-2.16.2/library\ecdh.c ****     int ret;
 495:D:/fchai/work/i-cube/I-CUBE-HUAWEI/Middlewares/Third_Party/Huawei/iot_link/network/dtls/mbedtls/mbedtls-2.16.2/library\ecdh.c **** #if defined(MBEDTLS_ECP_RESTARTABLE)
 496:D:/fchai/work/i-cube/I-CUBE-HUAWEI/Middlewares/Third_Party/Huawei/iot_link/network/dtls/mbedtls/mbedtls-2.16.2/library\ecdh.c ****     mbedtls_ecp_restart_ctx *rs_ctx = NULL;
 497:D:/fchai/work/i-cube/I-CUBE-HUAWEI/Middlewares/Third_Party/Huawei/iot_link/network/dtls/mbedtls/mbedtls-2.16.2/library\ecdh.c **** #endif
 498:D:/fchai/work/i-cube/I-CUBE-HUAWEI/Middlewares/Third_Party/Huawei/iot_link/network/dtls/mbedtls/mbedtls-2.16.2/library\ecdh.c **** 
 499:D:/fchai/work/i-cube/I-CUBE-HUAWEI/Middlewares/Third_Party/Huawei/iot_link/network/dtls/mbedtls/mbedtls-2.16.2/library\ecdh.c ****     if( ctx->grp.pbits == 0 )
 500:D:/fchai/work/i-cube/I-CUBE-HUAWEI/Middlewares/Third_Party/Huawei/iot_link/network/dtls/mbedtls/mbedtls-2.16.2/library\ecdh.c ****         return( MBEDTLS_ERR_ECP_BAD_INPUT_DATA );
 501:D:/fchai/work/i-cube/I-CUBE-HUAWEI/Middlewares/Third_Party/Huawei/iot_link/network/dtls/mbedtls/mbedtls-2.16.2/library\ecdh.c **** 
 502:D:/fchai/work/i-cube/I-CUBE-HUAWEI/Middlewares/Third_Party/Huawei/iot_link/network/dtls/mbedtls/mbedtls-2.16.2/library\ecdh.c **** #if defined(MBEDTLS_ECP_RESTARTABLE)
 503:D:/fchai/work/i-cube/I-CUBE-HUAWEI/Middlewares/Third_Party/Huawei/iot_link/network/dtls/mbedtls/mbedtls-2.16.2/library\ecdh.c ****     if( restart_enabled )
 504:D:/fchai/work/i-cube/I-CUBE-HUAWEI/Middlewares/Third_Party/Huawei/iot_link/network/dtls/mbedtls/mbedtls-2.16.2/library\ecdh.c ****         rs_ctx = &ctx->rs;
 505:D:/fchai/work/i-cube/I-CUBE-HUAWEI/Middlewares/Third_Party/Huawei/iot_link/network/dtls/mbedtls/mbedtls-2.16.2/library\ecdh.c **** #else
 506:D:/fchai/work/i-cube/I-CUBE-HUAWEI/Middlewares/Third_Party/Huawei/iot_link/network/dtls/mbedtls/mbedtls-2.16.2/library\ecdh.c ****     (void) restart_enabled;
ARM GAS  T:\msys\tmp\cctaHzaT.s 			page 32


 507:D:/fchai/work/i-cube/I-CUBE-HUAWEI/Middlewares/Third_Party/Huawei/iot_link/network/dtls/mbedtls/mbedtls-2.16.2/library\ecdh.c **** #endif
 508:D:/fchai/work/i-cube/I-CUBE-HUAWEI/Middlewares/Third_Party/Huawei/iot_link/network/dtls/mbedtls/mbedtls-2.16.2/library\ecdh.c **** 
 509:D:/fchai/work/i-cube/I-CUBE-HUAWEI/Middlewares/Third_Party/Huawei/iot_link/network/dtls/mbedtls/mbedtls-2.16.2/library\ecdh.c **** #if defined(MBEDTLS_ECP_RESTARTABLE)
 510:D:/fchai/work/i-cube/I-CUBE-HUAWEI/Middlewares/Third_Party/Huawei/iot_link/network/dtls/mbedtls/mbedtls-2.16.2/library\ecdh.c ****     if( ( ret = ecdh_gen_public_restartable( &ctx->grp, &ctx->d, &ctx->Q,
 511:D:/fchai/work/i-cube/I-CUBE-HUAWEI/Middlewares/Third_Party/Huawei/iot_link/network/dtls/mbedtls/mbedtls-2.16.2/library\ecdh.c ****                                              f_rng, p_rng, rs_ctx ) ) != 0 )
 512:D:/fchai/work/i-cube/I-CUBE-HUAWEI/Middlewares/Third_Party/Huawei/iot_link/network/dtls/mbedtls/mbedtls-2.16.2/library\ecdh.c ****         return( ret );
 513:D:/fchai/work/i-cube/I-CUBE-HUAWEI/Middlewares/Third_Party/Huawei/iot_link/network/dtls/mbedtls/mbedtls-2.16.2/library\ecdh.c **** #else
 514:D:/fchai/work/i-cube/I-CUBE-HUAWEI/Middlewares/Third_Party/Huawei/iot_link/network/dtls/mbedtls/mbedtls-2.16.2/library\ecdh.c ****     if( ( ret = mbedtls_ecdh_gen_public( &ctx->grp, &ctx->d, &ctx->Q,
 515:D:/fchai/work/i-cube/I-CUBE-HUAWEI/Middlewares/Third_Party/Huawei/iot_link/network/dtls/mbedtls/mbedtls-2.16.2/library\ecdh.c ****                                          f_rng, p_rng ) ) != 0 )
 516:D:/fchai/work/i-cube/I-CUBE-HUAWEI/Middlewares/Third_Party/Huawei/iot_link/network/dtls/mbedtls/mbedtls-2.16.2/library\ecdh.c ****         return( ret );
 517:D:/fchai/work/i-cube/I-CUBE-HUAWEI/Middlewares/Third_Party/Huawei/iot_link/network/dtls/mbedtls/mbedtls-2.16.2/library\ecdh.c **** #endif /* MBEDTLS_ECP_RESTARTABLE */
 518:D:/fchai/work/i-cube/I-CUBE-HUAWEI/Middlewares/Third_Party/Huawei/iot_link/network/dtls/mbedtls/mbedtls-2.16.2/library\ecdh.c **** 
 519:D:/fchai/work/i-cube/I-CUBE-HUAWEI/Middlewares/Third_Party/Huawei/iot_link/network/dtls/mbedtls/mbedtls-2.16.2/library\ecdh.c ****     return mbedtls_ecp_tls_write_point( &ctx->grp, &ctx->Q, point_format, olen,
 520:D:/fchai/work/i-cube/I-CUBE-HUAWEI/Middlewares/Third_Party/Huawei/iot_link/network/dtls/mbedtls/mbedtls-2.16.2/library\ecdh.c ****                                         buf, blen );
 521:D:/fchai/work/i-cube/I-CUBE-HUAWEI/Middlewares/Third_Party/Huawei/iot_link/network/dtls/mbedtls/mbedtls-2.16.2/library\ecdh.c **** }
 522:D:/fchai/work/i-cube/I-CUBE-HUAWEI/Middlewares/Third_Party/Huawei/iot_link/network/dtls/mbedtls/mbedtls-2.16.2/library\ecdh.c **** 
 523:D:/fchai/work/i-cube/I-CUBE-HUAWEI/Middlewares/Third_Party/Huawei/iot_link/network/dtls/mbedtls/mbedtls-2.16.2/library\ecdh.c **** /*
 524:D:/fchai/work/i-cube/I-CUBE-HUAWEI/Middlewares/Third_Party/Huawei/iot_link/network/dtls/mbedtls/mbedtls-2.16.2/library\ecdh.c ****  * Setup and export the client public value
 525:D:/fchai/work/i-cube/I-CUBE-HUAWEI/Middlewares/Third_Party/Huawei/iot_link/network/dtls/mbedtls/mbedtls-2.16.2/library\ecdh.c ****  */
 526:D:/fchai/work/i-cube/I-CUBE-HUAWEI/Middlewares/Third_Party/Huawei/iot_link/network/dtls/mbedtls/mbedtls-2.16.2/library\ecdh.c **** int mbedtls_ecdh_make_public( mbedtls_ecdh_context *ctx, size_t *olen,
 527:D:/fchai/work/i-cube/I-CUBE-HUAWEI/Middlewares/Third_Party/Huawei/iot_link/network/dtls/mbedtls/mbedtls-2.16.2/library\ecdh.c ****                               unsigned char *buf, size_t blen,
 528:D:/fchai/work/i-cube/I-CUBE-HUAWEI/Middlewares/Third_Party/Huawei/iot_link/network/dtls/mbedtls/mbedtls-2.16.2/library\ecdh.c ****                               int (*f_rng)(void *, unsigned char *, size_t),
 529:D:/fchai/work/i-cube/I-CUBE-HUAWEI/Middlewares/Third_Party/Huawei/iot_link/network/dtls/mbedtls/mbedtls-2.16.2/library\ecdh.c ****                               void *p_rng )
 530:D:/fchai/work/i-cube/I-CUBE-HUAWEI/Middlewares/Third_Party/Huawei/iot_link/network/dtls/mbedtls/mbedtls-2.16.2/library\ecdh.c **** {
 1088              		.loc 1 530 1 is_stmt 1 view -0
 1089              		.cfi_startproc
 1090              		@ args = 8, pretend = 0, frame = 0
 1091              		@ frame_needed = 0, uses_anonymous_args = 0
 531:D:/fchai/work/i-cube/I-CUBE-HUAWEI/Middlewares/Third_Party/Huawei/iot_link/network/dtls/mbedtls/mbedtls-2.16.2/library\ecdh.c ****     int restart_enabled = 0;
 1092              		.loc 1 531 5 view .LVU322
 532:D:/fchai/work/i-cube/I-CUBE-HUAWEI/Middlewares/Third_Party/Huawei/iot_link/network/dtls/mbedtls/mbedtls-2.16.2/library\ecdh.c ****     ECDH_VALIDATE_RET( ctx != NULL );
 1093              		.loc 1 532 5 view .LVU323
 1094              		.loc 1 532 5 view .LVU324
 1095              		.loc 1 532 5 view .LVU325
 533:D:/fchai/work/i-cube/I-CUBE-HUAWEI/Middlewares/Third_Party/Huawei/iot_link/network/dtls/mbedtls/mbedtls-2.16.2/library\ecdh.c ****     ECDH_VALIDATE_RET( olen != NULL );
 1096              		.loc 1 533 5 view .LVU326
 1097              		.loc 1 533 5 view .LVU327
 1098              		.loc 1 533 5 view .LVU328
 534:D:/fchai/work/i-cube/I-CUBE-HUAWEI/Middlewares/Third_Party/Huawei/iot_link/network/dtls/mbedtls/mbedtls-2.16.2/library\ecdh.c ****     ECDH_VALIDATE_RET( buf != NULL );
 1099              		.loc 1 534 5 view .LVU329
 1100              		.loc 1 534 5 view .LVU330
 1101              		.loc 1 534 5 view .LVU331
 535:D:/fchai/work/i-cube/I-CUBE-HUAWEI/Middlewares/Third_Party/Huawei/iot_link/network/dtls/mbedtls/mbedtls-2.16.2/library\ecdh.c ****     ECDH_VALIDATE_RET( f_rng != NULL );
 1102              		.loc 1 535 5 view .LVU332
 1103              		.loc 1 535 5 view .LVU333
 1104              		.loc 1 535 5 view .LVU334
 536:D:/fchai/work/i-cube/I-CUBE-HUAWEI/Middlewares/Third_Party/Huawei/iot_link/network/dtls/mbedtls/mbedtls-2.16.2/library\ecdh.c **** 
 537:D:/fchai/work/i-cube/I-CUBE-HUAWEI/Middlewares/Third_Party/Huawei/iot_link/network/dtls/mbedtls/mbedtls-2.16.2/library\ecdh.c **** #if defined(MBEDTLS_ECP_RESTARTABLE)
 538:D:/fchai/work/i-cube/I-CUBE-HUAWEI/Middlewares/Third_Party/Huawei/iot_link/network/dtls/mbedtls/mbedtls-2.16.2/library\ecdh.c ****     restart_enabled = ctx->restart_enabled;
 539:D:/fchai/work/i-cube/I-CUBE-HUAWEI/Middlewares/Third_Party/Huawei/iot_link/network/dtls/mbedtls/mbedtls-2.16.2/library\ecdh.c **** #endif
 540:D:/fchai/work/i-cube/I-CUBE-HUAWEI/Middlewares/Third_Party/Huawei/iot_link/network/dtls/mbedtls/mbedtls-2.16.2/library\ecdh.c **** 
 541:D:/fchai/work/i-cube/I-CUBE-HUAWEI/Middlewares/Third_Party/Huawei/iot_link/network/dtls/mbedtls/mbedtls-2.16.2/library\ecdh.c **** #if defined(MBEDTLS_ECDH_LEGACY_CONTEXT)
 542:D:/fchai/work/i-cube/I-CUBE-HUAWEI/Middlewares/Third_Party/Huawei/iot_link/network/dtls/mbedtls/mbedtls-2.16.2/library\ecdh.c ****     return( ecdh_make_public_internal( ctx, olen, ctx->point_format, buf, blen,
 1105              		.loc 1 542 5 view .LVU335
 530:D:/fchai/work/i-cube/I-CUBE-HUAWEI/Middlewares/Third_Party/Huawei/iot_link/network/dtls/mbedtls/mbedtls-2.16.2/library\ecdh.c ****     int restart_enabled = 0;
 1106              		.loc 1 530 1 is_stmt 0 view .LVU336
 1107 0000 2DE9F043 		push	{r4, r5, r6, r7, r8, r9, lr}
ARM GAS  T:\msys\tmp\cctaHzaT.s 			page 33


 1108              	.LCFI30:
 1109              		.cfi_def_cfa_offset 28
 1110              		.cfi_offset 4, -28
 1111              		.cfi_offset 5, -24
 1112              		.cfi_offset 6, -20
 1113              		.cfi_offset 7, -16
 1114              		.cfi_offset 8, -12
 1115              		.cfi_offset 9, -8
 1116              		.cfi_offset 14, -4
 1117 0004 1F46     		mov	r7, r3
 1118              	.LBB92:
 1119              	.LBB93:
 499:D:/fchai/work/i-cube/I-CUBE-HUAWEI/Middlewares/Third_Party/Huawei/iot_link/network/dtls/mbedtls/mbedtls-2.16.2/library\ecdh.c ****         return( MBEDTLS_ERR_ECP_BAD_INPUT_DATA );
 1120              		.loc 1 499 7 view .LVU337
 1121 0006 836D     		ldr	r3, [r0, #88]
 1122              	.LVL99:
 499:D:/fchai/work/i-cube/I-CUBE-HUAWEI/Middlewares/Third_Party/Huawei/iot_link/network/dtls/mbedtls/mbedtls-2.16.2/library\ecdh.c ****         return( MBEDTLS_ERR_ECP_BAD_INPUT_DATA );
 1123              		.loc 1 499 7 view .LVU338
 1124              	.LBE93:
 1125              	.LBE92:
 1126              		.loc 1 542 13 view .LVU339
 1127 0008 D0F8DC90 		ldr	r9, [r0, #220]
 1128              	.LVL100:
 530:D:/fchai/work/i-cube/I-CUBE-HUAWEI/Middlewares/Third_Party/Huawei/iot_link/network/dtls/mbedtls/mbedtls-2.16.2/library\ecdh.c ****     int restart_enabled = 0;
 1129              		.loc 1 530 1 view .LVU340
 1130 000c 83B0     		sub	sp, sp, #12
 1131              	.LCFI31:
 1132              		.cfi_def_cfa_offset 40
 530:D:/fchai/work/i-cube/I-CUBE-HUAWEI/Middlewares/Third_Party/Huawei/iot_link/network/dtls/mbedtls/mbedtls-2.16.2/library\ecdh.c ****     int restart_enabled = 0;
 1133              		.loc 1 530 1 view .LVU341
 1134 000e DDE90ACE 		ldrd	ip, lr, [sp, #40]
 1135              	.LVL101:
 1136              	.LBB99:
 1137              	.LBI92:
 485:D:/fchai/work/i-cube/I-CUBE-HUAWEI/Middlewares/Third_Party/Huawei/iot_link/network/dtls/mbedtls/mbedtls-2.16.2/library\ecdh.c ****                                       size_t *olen, int point_format,
 1138              		.loc 1 485 12 is_stmt 1 view .LVU342
 1139              	.LBB96:
 494:D:/fchai/work/i-cube/I-CUBE-HUAWEI/Middlewares/Third_Party/Huawei/iot_link/network/dtls/mbedtls/mbedtls-2.16.2/library\ecdh.c **** #if defined(MBEDTLS_ECP_RESTARTABLE)
 1140              		.loc 1 494 5 view .LVU343
 499:D:/fchai/work/i-cube/I-CUBE-HUAWEI/Middlewares/Third_Party/Huawei/iot_link/network/dtls/mbedtls/mbedtls-2.16.2/library\ecdh.c ****         return( MBEDTLS_ERR_ECP_BAD_INPUT_DATA );
 1141              		.loc 1 499 5 view .LVU344
 499:D:/fchai/work/i-cube/I-CUBE-HUAWEI/Middlewares/Third_Party/Huawei/iot_link/network/dtls/mbedtls/mbedtls-2.16.2/library\ecdh.c ****         return( MBEDTLS_ERR_ECP_BAD_INPUT_DATA );
 1142              		.loc 1 499 7 is_stmt 0 view .LVU345
 1143 0012 DBB1     		cbz	r3, .L59
 506:D:/fchai/work/i-cube/I-CUBE-HUAWEI/Middlewares/Third_Party/Huawei/iot_link/network/dtls/mbedtls/mbedtls-2.16.2/library\ecdh.c **** #endif
 1144              		.loc 1 506 5 is_stmt 1 view .LVU346
 514:D:/fchai/work/i-cube/I-CUBE-HUAWEI/Middlewares/Third_Party/Huawei/iot_link/network/dtls/mbedtls/mbedtls-2.16.2/library\ecdh.c ****                                          f_rng, p_rng ) ) != 0 )
 1145              		.loc 1 514 5 view .LVU347
 514:D:/fchai/work/i-cube/I-CUBE-HUAWEI/Middlewares/Third_Party/Huawei/iot_link/network/dtls/mbedtls/mbedtls-2.16.2/library\ecdh.c ****                                          f_rng, p_rng ) ) != 0 )
 1146              		.loc 1 514 17 is_stmt 0 view .LVU348
 1147 0014 00F18808 		add	r8, r0, #136
 1148              	.LVL102:
 1149              	.LBB94:
 1150              	.LBI94:
  94:D:/fchai/work/i-cube/I-CUBE-HUAWEI/Middlewares/Third_Party/Huawei/iot_link/network/dtls/mbedtls/mbedtls-2.16.2/library\ecdh.c ****                      int (*f_rng)(void *, unsigned char *, size_t),
 1151              		.loc 1 94 5 is_stmt 1 view .LVU349
 1152              	.LBB95:
ARM GAS  T:\msys\tmp\cctaHzaT.s 			page 34


  98:D:/fchai/work/i-cube/I-CUBE-HUAWEI/Middlewares/Third_Party/Huawei/iot_link/network/dtls/mbedtls/mbedtls-2.16.2/library\ecdh.c ****     ECDH_VALIDATE_RET( d != NULL );
 1153              		.loc 1 98 5 view .LVU350
  98:D:/fchai/work/i-cube/I-CUBE-HUAWEI/Middlewares/Third_Party/Huawei/iot_link/network/dtls/mbedtls/mbedtls-2.16.2/library\ecdh.c ****     ECDH_VALIDATE_RET( d != NULL );
 1154              		.loc 1 98 5 view .LVU351
  98:D:/fchai/work/i-cube/I-CUBE-HUAWEI/Middlewares/Third_Party/Huawei/iot_link/network/dtls/mbedtls/mbedtls-2.16.2/library\ecdh.c ****     ECDH_VALIDATE_RET( d != NULL );
 1155              		.loc 1 98 5 view .LVU352
  99:D:/fchai/work/i-cube/I-CUBE-HUAWEI/Middlewares/Third_Party/Huawei/iot_link/network/dtls/mbedtls/mbedtls-2.16.2/library\ecdh.c ****     ECDH_VALIDATE_RET( Q != NULL );
 1156              		.loc 1 99 5 view .LVU353
  99:D:/fchai/work/i-cube/I-CUBE-HUAWEI/Middlewares/Third_Party/Huawei/iot_link/network/dtls/mbedtls/mbedtls-2.16.2/library\ecdh.c ****     ECDH_VALIDATE_RET( Q != NULL );
 1157              		.loc 1 99 5 view .LVU354
  99:D:/fchai/work/i-cube/I-CUBE-HUAWEI/Middlewares/Third_Party/Huawei/iot_link/network/dtls/mbedtls/mbedtls-2.16.2/library\ecdh.c ****     ECDH_VALIDATE_RET( Q != NULL );
 1158              		.loc 1 99 5 view .LVU355
 100:D:/fchai/work/i-cube/I-CUBE-HUAWEI/Middlewares/Third_Party/Huawei/iot_link/network/dtls/mbedtls/mbedtls-2.16.2/library\ecdh.c ****     ECDH_VALIDATE_RET( f_rng != NULL );
 1159              		.loc 1 100 5 view .LVU356
 100:D:/fchai/work/i-cube/I-CUBE-HUAWEI/Middlewares/Third_Party/Huawei/iot_link/network/dtls/mbedtls/mbedtls-2.16.2/library\ecdh.c ****     ECDH_VALIDATE_RET( f_rng != NULL );
 1160              		.loc 1 100 5 view .LVU357
 100:D:/fchai/work/i-cube/I-CUBE-HUAWEI/Middlewares/Third_Party/Huawei/iot_link/network/dtls/mbedtls/mbedtls-2.16.2/library\ecdh.c ****     ECDH_VALIDATE_RET( f_rng != NULL );
 1161              		.loc 1 100 5 view .LVU358
 101:D:/fchai/work/i-cube/I-CUBE-HUAWEI/Middlewares/Third_Party/Huawei/iot_link/network/dtls/mbedtls/mbedtls-2.16.2/library\ecdh.c ****     return( ecdh_gen_public_restartable( grp, d, Q, f_rng, p_rng, NULL ) );
 1162              		.loc 1 101 5 view .LVU359
 101:D:/fchai/work/i-cube/I-CUBE-HUAWEI/Middlewares/Third_Party/Huawei/iot_link/network/dtls/mbedtls/mbedtls-2.16.2/library\ecdh.c ****     return( ecdh_gen_public_restartable( grp, d, Q, f_rng, p_rng, NULL ) );
 1163              		.loc 1 101 5 view .LVU360
 101:D:/fchai/work/i-cube/I-CUBE-HUAWEI/Middlewares/Third_Party/Huawei/iot_link/network/dtls/mbedtls/mbedtls-2.16.2/library\ecdh.c ****     return( ecdh_gen_public_restartable( grp, d, Q, f_rng, p_rng, NULL ) );
 1164              		.loc 1 101 5 view .LVU361
 102:D:/fchai/work/i-cube/I-CUBE-HUAWEI/Middlewares/Third_Party/Huawei/iot_link/network/dtls/mbedtls/mbedtls-2.16.2/library\ecdh.c **** }
 1165              		.loc 1 102 5 view .LVU362
 1166 0018 0D46     		mov	r5, r1
 1167 001a 1646     		mov	r6, r2
 102:D:/fchai/work/i-cube/I-CUBE-HUAWEI/Middlewares/Third_Party/Huawei/iot_link/network/dtls/mbedtls/mbedtls-2.16.2/library\ecdh.c **** }
 1168              		.loc 1 102 13 is_stmt 0 view .LVU363
 1169 001c CDF800E0 		str	lr, [sp]
 1170 0020 6346     		mov	r3, ip
 1171 0022 4246     		mov	r2, r8
 1172              	.LVL103:
 102:D:/fchai/work/i-cube/I-CUBE-HUAWEI/Middlewares/Third_Party/Huawei/iot_link/network/dtls/mbedtls/mbedtls-2.16.2/library\ecdh.c **** }
 1173              		.loc 1 102 13 view .LVU364
 1174 0024 00F17C01 		add	r1, r0, #124
 1175              	.LVL104:
 102:D:/fchai/work/i-cube/I-CUBE-HUAWEI/Middlewares/Third_Party/Huawei/iot_link/network/dtls/mbedtls/mbedtls-2.16.2/library\ecdh.c **** }
 1176              		.loc 1 102 13 view .LVU365
 1177 0028 0446     		mov	r4, r0
 1178 002a FFF7FEFF 		bl	ecdh_gen_public_restartable.constprop.0
 1179              	.LVL105:
 102:D:/fchai/work/i-cube/I-CUBE-HUAWEI/Middlewares/Third_Party/Huawei/iot_link/network/dtls/mbedtls/mbedtls-2.16.2/library\ecdh.c **** }
 1180              		.loc 1 102 13 view .LVU366
 1181              	.LBE95:
 1182              	.LBE94:
 514:D:/fchai/work/i-cube/I-CUBE-HUAWEI/Middlewares/Third_Party/Huawei/iot_link/network/dtls/mbedtls/mbedtls-2.16.2/library\ecdh.c ****                                          f_rng, p_rng ) ) != 0 )
 1183              		.loc 1 514 7 view .LVU367
 1184 002e 10B1     		cbz	r0, .L61
 1185              	.LVL106:
 1186              	.L57:
 514:D:/fchai/work/i-cube/I-CUBE-HUAWEI/Middlewares/Third_Party/Huawei/iot_link/network/dtls/mbedtls/mbedtls-2.16.2/library\ecdh.c ****                                          f_rng, p_rng ) ) != 0 )
 1187              		.loc 1 514 7 view .LVU368
 1188              	.LBE96:
 1189              	.LBE99:
 543:D:/fchai/work/i-cube/I-CUBE-HUAWEI/Middlewares/Third_Party/Huawei/iot_link/network/dtls/mbedtls/mbedtls-2.16.2/library\ecdh.c ****                                        f_rng, p_rng, restart_enabled ) );
ARM GAS  T:\msys\tmp\cctaHzaT.s 			page 35


 544:D:/fchai/work/i-cube/I-CUBE-HUAWEI/Middlewares/Third_Party/Huawei/iot_link/network/dtls/mbedtls/mbedtls-2.16.2/library\ecdh.c **** #else
 545:D:/fchai/work/i-cube/I-CUBE-HUAWEI/Middlewares/Third_Party/Huawei/iot_link/network/dtls/mbedtls/mbedtls-2.16.2/library\ecdh.c ****     switch( ctx->var )
 546:D:/fchai/work/i-cube/I-CUBE-HUAWEI/Middlewares/Third_Party/Huawei/iot_link/network/dtls/mbedtls/mbedtls-2.16.2/library\ecdh.c ****     {
 547:D:/fchai/work/i-cube/I-CUBE-HUAWEI/Middlewares/Third_Party/Huawei/iot_link/network/dtls/mbedtls/mbedtls-2.16.2/library\ecdh.c ****         case MBEDTLS_ECDH_VARIANT_MBEDTLS_2_0:
 548:D:/fchai/work/i-cube/I-CUBE-HUAWEI/Middlewares/Third_Party/Huawei/iot_link/network/dtls/mbedtls/mbedtls-2.16.2/library\ecdh.c ****             return( ecdh_make_public_internal( &ctx->ctx.mbed_ecdh, olen,
 549:D:/fchai/work/i-cube/I-CUBE-HUAWEI/Middlewares/Third_Party/Huawei/iot_link/network/dtls/mbedtls/mbedtls-2.16.2/library\ecdh.c ****                                                ctx->point_format, buf, blen,
 550:D:/fchai/work/i-cube/I-CUBE-HUAWEI/Middlewares/Third_Party/Huawei/iot_link/network/dtls/mbedtls/mbedtls-2.16.2/library\ecdh.c ****                                                f_rng, p_rng,
 551:D:/fchai/work/i-cube/I-CUBE-HUAWEI/Middlewares/Third_Party/Huawei/iot_link/network/dtls/mbedtls/mbedtls-2.16.2/library\ecdh.c ****                                                restart_enabled ) );
 552:D:/fchai/work/i-cube/I-CUBE-HUAWEI/Middlewares/Third_Party/Huawei/iot_link/network/dtls/mbedtls/mbedtls-2.16.2/library\ecdh.c ****         default:
 553:D:/fchai/work/i-cube/I-CUBE-HUAWEI/Middlewares/Third_Party/Huawei/iot_link/network/dtls/mbedtls/mbedtls-2.16.2/library\ecdh.c ****             return MBEDTLS_ERR_ECP_BAD_INPUT_DATA;
 554:D:/fchai/work/i-cube/I-CUBE-HUAWEI/Middlewares/Third_Party/Huawei/iot_link/network/dtls/mbedtls/mbedtls-2.16.2/library\ecdh.c ****     }
 555:D:/fchai/work/i-cube/I-CUBE-HUAWEI/Middlewares/Third_Party/Huawei/iot_link/network/dtls/mbedtls/mbedtls-2.16.2/library\ecdh.c **** #endif
 556:D:/fchai/work/i-cube/I-CUBE-HUAWEI/Middlewares/Third_Party/Huawei/iot_link/network/dtls/mbedtls/mbedtls-2.16.2/library\ecdh.c **** }
 1190              		.loc 1 556 1 view .LVU369
 1191 0030 03B0     		add	sp, sp, #12
 1192              	.LCFI32:
 1193              		.cfi_remember_state
 1194              		.cfi_def_cfa_offset 28
 1195              		@ sp needed
 1196 0032 BDE8F083 		pop	{r4, r5, r6, r7, r8, r9, pc}
 1197              	.LVL107:
 1198              	.L61:
 1199              	.LCFI33:
 1200              		.cfi_restore_state
 1201              	.LBB100:
 1202              	.LBB97:
 519:D:/fchai/work/i-cube/I-CUBE-HUAWEI/Middlewares/Third_Party/Huawei/iot_link/network/dtls/mbedtls/mbedtls-2.16.2/library\ecdh.c ****                                         buf, blen );
 1203              		.loc 1 519 5 is_stmt 1 view .LVU370
 519:D:/fchai/work/i-cube/I-CUBE-HUAWEI/Middlewares/Third_Party/Huawei/iot_link/network/dtls/mbedtls/mbedtls-2.16.2/library\ecdh.c ****                                         buf, blen );
 1204              		.loc 1 519 12 is_stmt 0 view .LVU371
 1205 0036 2B46     		mov	r3, r5
 1206 0038 4A46     		mov	r2, r9
 1207 003a 4146     		mov	r1, r8
 1208 003c 2046     		mov	r0, r4
 1209              	.LVL108:
 519:D:/fchai/work/i-cube/I-CUBE-HUAWEI/Middlewares/Third_Party/Huawei/iot_link/network/dtls/mbedtls/mbedtls-2.16.2/library\ecdh.c ****                                         buf, blen );
 1210              		.loc 1 519 12 view .LVU372
 1211 003e CDE90A67 		strd	r6, r7, [sp, #40]
 1212              	.LVL109:
 519:D:/fchai/work/i-cube/I-CUBE-HUAWEI/Middlewares/Third_Party/Huawei/iot_link/network/dtls/mbedtls/mbedtls-2.16.2/library\ecdh.c ****                                         buf, blen );
 1213              		.loc 1 519 12 view .LVU373
 1214              	.LBE97:
 1215              	.LBE100:
 1216              		.loc 1 556 1 view .LVU374
 1217 0042 03B0     		add	sp, sp, #12
 1218              	.LCFI34:
 1219              		.cfi_remember_state
 1220              		.cfi_def_cfa_offset 28
 1221              		@ sp needed
 1222 0044 BDE8F043 		pop	{r4, r5, r6, r7, r8, r9, lr}
 1223              	.LCFI35:
 1224              		.cfi_restore 14
 1225              		.cfi_restore 9
 1226              		.cfi_restore 8
 1227              		.cfi_restore 7
 1228              		.cfi_restore 6
 1229              		.cfi_restore 5
ARM GAS  T:\msys\tmp\cctaHzaT.s 			page 36


 1230              		.cfi_restore 4
 1231              		.cfi_def_cfa_offset 0
 1232              	.LVL110:
 1233              	.LBB101:
 1234              	.LBB98:
 519:D:/fchai/work/i-cube/I-CUBE-HUAWEI/Middlewares/Third_Party/Huawei/iot_link/network/dtls/mbedtls/mbedtls-2.16.2/library\ecdh.c ****                                         buf, blen );
 1235              		.loc 1 519 12 view .LVU375
 1236 0048 FFF7FEBF 		b	mbedtls_ecp_tls_write_point
 1237              	.LVL111:
 1238              	.L59:
 1239              	.LCFI36:
 1240              		.cfi_restore_state
 500:D:/fchai/work/i-cube/I-CUBE-HUAWEI/Middlewares/Third_Party/Huawei/iot_link/network/dtls/mbedtls/mbedtls-2.16.2/library\ecdh.c **** 
 1241              		.loc 1 500 15 view .LVU376
 1242 004c 0048     		ldr	r0, .L62
 1243              	.LVL112:
 500:D:/fchai/work/i-cube/I-CUBE-HUAWEI/Middlewares/Third_Party/Huawei/iot_link/network/dtls/mbedtls/mbedtls-2.16.2/library\ecdh.c **** 
 1244              		.loc 1 500 15 view .LVU377
 1245              	.LBE98:
 1246              	.LBE101:
 542:D:/fchai/work/i-cube/I-CUBE-HUAWEI/Middlewares/Third_Party/Huawei/iot_link/network/dtls/mbedtls/mbedtls-2.16.2/library\ecdh.c ****                                        f_rng, p_rng, restart_enabled ) );
 1247              		.loc 1 542 13 view .LVU378
 1248 004e EFE7     		b	.L57
 1249              	.L63:
 1250              		.align	2
 1251              	.L62:
 1252 0050 80B0FFFF 		.word	-20352
 1253              		.cfi_endproc
 1254              	.LFE18:
 1256              		.section	.text.mbedtls_ecdh_read_public,"ax",%progbits
 1257              		.align	1
 1258              		.p2align 2,,3
 1259              		.global	mbedtls_ecdh_read_public
 1260              		.syntax unified
 1261              		.thumb
 1262              		.thumb_func
 1263              		.fpu fpv4-sp-d16
 1265              	mbedtls_ecdh_read_public:
 1266              	.LVL113:
 1267              	.LFB20:
 557:D:/fchai/work/i-cube/I-CUBE-HUAWEI/Middlewares/Third_Party/Huawei/iot_link/network/dtls/mbedtls/mbedtls-2.16.2/library\ecdh.c **** 
 558:D:/fchai/work/i-cube/I-CUBE-HUAWEI/Middlewares/Third_Party/Huawei/iot_link/network/dtls/mbedtls/mbedtls-2.16.2/library\ecdh.c **** static int ecdh_read_public_internal( mbedtls_ecdh_context_mbed *ctx,
 559:D:/fchai/work/i-cube/I-CUBE-HUAWEI/Middlewares/Third_Party/Huawei/iot_link/network/dtls/mbedtls/mbedtls-2.16.2/library\ecdh.c ****                                       const unsigned char *buf, size_t blen )
 560:D:/fchai/work/i-cube/I-CUBE-HUAWEI/Middlewares/Third_Party/Huawei/iot_link/network/dtls/mbedtls/mbedtls-2.16.2/library\ecdh.c **** {
 561:D:/fchai/work/i-cube/I-CUBE-HUAWEI/Middlewares/Third_Party/Huawei/iot_link/network/dtls/mbedtls/mbedtls-2.16.2/library\ecdh.c ****     int ret;
 562:D:/fchai/work/i-cube/I-CUBE-HUAWEI/Middlewares/Third_Party/Huawei/iot_link/network/dtls/mbedtls/mbedtls-2.16.2/library\ecdh.c ****     const unsigned char *p = buf;
 563:D:/fchai/work/i-cube/I-CUBE-HUAWEI/Middlewares/Third_Party/Huawei/iot_link/network/dtls/mbedtls/mbedtls-2.16.2/library\ecdh.c **** 
 564:D:/fchai/work/i-cube/I-CUBE-HUAWEI/Middlewares/Third_Party/Huawei/iot_link/network/dtls/mbedtls/mbedtls-2.16.2/library\ecdh.c ****     if( ( ret = mbedtls_ecp_tls_read_point( &ctx->grp, &ctx->Qp, &p,
 565:D:/fchai/work/i-cube/I-CUBE-HUAWEI/Middlewares/Third_Party/Huawei/iot_link/network/dtls/mbedtls/mbedtls-2.16.2/library\ecdh.c ****                                             blen ) ) != 0 )
 566:D:/fchai/work/i-cube/I-CUBE-HUAWEI/Middlewares/Third_Party/Huawei/iot_link/network/dtls/mbedtls/mbedtls-2.16.2/library\ecdh.c ****         return( ret );
 567:D:/fchai/work/i-cube/I-CUBE-HUAWEI/Middlewares/Third_Party/Huawei/iot_link/network/dtls/mbedtls/mbedtls-2.16.2/library\ecdh.c **** 
 568:D:/fchai/work/i-cube/I-CUBE-HUAWEI/Middlewares/Third_Party/Huawei/iot_link/network/dtls/mbedtls/mbedtls-2.16.2/library\ecdh.c ****     if( (size_t)( p - buf ) != blen )
 569:D:/fchai/work/i-cube/I-CUBE-HUAWEI/Middlewares/Third_Party/Huawei/iot_link/network/dtls/mbedtls/mbedtls-2.16.2/library\ecdh.c ****         return( MBEDTLS_ERR_ECP_BAD_INPUT_DATA );
 570:D:/fchai/work/i-cube/I-CUBE-HUAWEI/Middlewares/Third_Party/Huawei/iot_link/network/dtls/mbedtls/mbedtls-2.16.2/library\ecdh.c **** 
 571:D:/fchai/work/i-cube/I-CUBE-HUAWEI/Middlewares/Third_Party/Huawei/iot_link/network/dtls/mbedtls/mbedtls-2.16.2/library\ecdh.c ****     return( 0 );
 572:D:/fchai/work/i-cube/I-CUBE-HUAWEI/Middlewares/Third_Party/Huawei/iot_link/network/dtls/mbedtls/mbedtls-2.16.2/library\ecdh.c **** }
 573:D:/fchai/work/i-cube/I-CUBE-HUAWEI/Middlewares/Third_Party/Huawei/iot_link/network/dtls/mbedtls/mbedtls-2.16.2/library\ecdh.c **** 
ARM GAS  T:\msys\tmp\cctaHzaT.s 			page 37


 574:D:/fchai/work/i-cube/I-CUBE-HUAWEI/Middlewares/Third_Party/Huawei/iot_link/network/dtls/mbedtls/mbedtls-2.16.2/library\ecdh.c **** /*
 575:D:/fchai/work/i-cube/I-CUBE-HUAWEI/Middlewares/Third_Party/Huawei/iot_link/network/dtls/mbedtls/mbedtls-2.16.2/library\ecdh.c ****  * Parse and import the client's public value
 576:D:/fchai/work/i-cube/I-CUBE-HUAWEI/Middlewares/Third_Party/Huawei/iot_link/network/dtls/mbedtls/mbedtls-2.16.2/library\ecdh.c ****  */
 577:D:/fchai/work/i-cube/I-CUBE-HUAWEI/Middlewares/Third_Party/Huawei/iot_link/network/dtls/mbedtls/mbedtls-2.16.2/library\ecdh.c **** int mbedtls_ecdh_read_public( mbedtls_ecdh_context *ctx,
 578:D:/fchai/work/i-cube/I-CUBE-HUAWEI/Middlewares/Third_Party/Huawei/iot_link/network/dtls/mbedtls/mbedtls-2.16.2/library\ecdh.c ****                               const unsigned char *buf, size_t blen )
 579:D:/fchai/work/i-cube/I-CUBE-HUAWEI/Middlewares/Third_Party/Huawei/iot_link/network/dtls/mbedtls/mbedtls-2.16.2/library\ecdh.c **** {
 1268              		.loc 1 579 1 is_stmt 1 view -0
 1269              		.cfi_startproc
 1270              		@ args = 0, pretend = 0, frame = 8
 1271              		@ frame_needed = 0, uses_anonymous_args = 0
 580:D:/fchai/work/i-cube/I-CUBE-HUAWEI/Middlewares/Third_Party/Huawei/iot_link/network/dtls/mbedtls/mbedtls-2.16.2/library\ecdh.c ****     ECDH_VALIDATE_RET( ctx != NULL );
 1272              		.loc 1 580 5 view .LVU380
 1273              		.loc 1 580 5 view .LVU381
 1274              		.loc 1 580 5 view .LVU382
 581:D:/fchai/work/i-cube/I-CUBE-HUAWEI/Middlewares/Third_Party/Huawei/iot_link/network/dtls/mbedtls/mbedtls-2.16.2/library\ecdh.c ****     ECDH_VALIDATE_RET( buf != NULL );
 1275              		.loc 1 581 5 view .LVU383
 1276              		.loc 1 581 5 view .LVU384
 1277              		.loc 1 581 5 view .LVU385
 582:D:/fchai/work/i-cube/I-CUBE-HUAWEI/Middlewares/Third_Party/Huawei/iot_link/network/dtls/mbedtls/mbedtls-2.16.2/library\ecdh.c **** 
 583:D:/fchai/work/i-cube/I-CUBE-HUAWEI/Middlewares/Third_Party/Huawei/iot_link/network/dtls/mbedtls/mbedtls-2.16.2/library\ecdh.c **** #if defined(MBEDTLS_ECDH_LEGACY_CONTEXT)
 584:D:/fchai/work/i-cube/I-CUBE-HUAWEI/Middlewares/Third_Party/Huawei/iot_link/network/dtls/mbedtls/mbedtls-2.16.2/library\ecdh.c ****     return( ecdh_read_public_internal( ctx, buf, blen ) );
 1278              		.loc 1 584 5 view .LVU386
 579:D:/fchai/work/i-cube/I-CUBE-HUAWEI/Middlewares/Third_Party/Huawei/iot_link/network/dtls/mbedtls/mbedtls-2.16.2/library\ecdh.c ****     ECDH_VALIDATE_RET( ctx != NULL );
 1279              		.loc 1 579 1 is_stmt 0 view .LVU387
 1280 0000 30B5     		push	{r4, r5, lr}
 1281              	.LCFI37:
 1282              		.cfi_def_cfa_offset 12
 1283              		.cfi_offset 4, -12
 1284              		.cfi_offset 5, -8
 1285              		.cfi_offset 14, -4
 1286 0002 83B0     		sub	sp, sp, #12
 1287              	.LCFI38:
 1288              		.cfi_def_cfa_offset 24
 579:D:/fchai/work/i-cube/I-CUBE-HUAWEI/Middlewares/Third_Party/Huawei/iot_link/network/dtls/mbedtls/mbedtls-2.16.2/library\ecdh.c ****     ECDH_VALIDATE_RET( ctx != NULL );
 1289              		.loc 1 579 1 view .LVU388
 1290 0004 0D46     		mov	r5, r1
 1291 0006 1446     		mov	r4, r2
 1292              	.LVL114:
 1293              	.LBB104:
 1294              	.LBI104:
 558:D:/fchai/work/i-cube/I-CUBE-HUAWEI/Middlewares/Third_Party/Huawei/iot_link/network/dtls/mbedtls/mbedtls-2.16.2/library\ecdh.c ****                                       const unsigned char *buf, size_t blen )
 1295              		.loc 1 558 12 is_stmt 1 view .LVU389
 1296              	.LBB105:
 561:D:/fchai/work/i-cube/I-CUBE-HUAWEI/Middlewares/Third_Party/Huawei/iot_link/network/dtls/mbedtls/mbedtls-2.16.2/library\ecdh.c ****     const unsigned char *p = buf;
 1297              		.loc 1 561 5 view .LVU390
 562:D:/fchai/work/i-cube/I-CUBE-HUAWEI/Middlewares/Third_Party/Huawei/iot_link/network/dtls/mbedtls/mbedtls-2.16.2/library\ecdh.c **** 
 1298              		.loc 1 562 5 view .LVU391
 564:D:/fchai/work/i-cube/I-CUBE-HUAWEI/Middlewares/Third_Party/Huawei/iot_link/network/dtls/mbedtls/mbedtls-2.16.2/library\ecdh.c ****                                             blen ) ) != 0 )
 1299              		.loc 1 564 17 is_stmt 0 view .LVU392
 1300 0008 1346     		mov	r3, r2
 1301 000a 00F1AC01 		add	r1, r0, #172
 1302              	.LVL115:
 564:D:/fchai/work/i-cube/I-CUBE-HUAWEI/Middlewares/Third_Party/Huawei/iot_link/network/dtls/mbedtls/mbedtls-2.16.2/library\ecdh.c ****                                             blen ) ) != 0 )
 1303              		.loc 1 564 17 view .LVU393
 1304 000e 01AA     		add	r2, sp, #4
 1305              	.LVL116:
 562:D:/fchai/work/i-cube/I-CUBE-HUAWEI/Middlewares/Third_Party/Huawei/iot_link/network/dtls/mbedtls/mbedtls-2.16.2/library\ecdh.c **** 
ARM GAS  T:\msys\tmp\cctaHzaT.s 			page 38


 1306              		.loc 1 562 26 view .LVU394
 1307 0010 0195     		str	r5, [sp, #4]
 564:D:/fchai/work/i-cube/I-CUBE-HUAWEI/Middlewares/Third_Party/Huawei/iot_link/network/dtls/mbedtls/mbedtls-2.16.2/library\ecdh.c ****                                             blen ) ) != 0 )
 1308              		.loc 1 564 5 is_stmt 1 view .LVU395
 564:D:/fchai/work/i-cube/I-CUBE-HUAWEI/Middlewares/Third_Party/Huawei/iot_link/network/dtls/mbedtls/mbedtls-2.16.2/library\ecdh.c ****                                             blen ) ) != 0 )
 1309              		.loc 1 564 17 is_stmt 0 view .LVU396
 1310 0012 FFF7FEFF 		bl	mbedtls_ecp_tls_read_point
 1311              	.LVL117:
 564:D:/fchai/work/i-cube/I-CUBE-HUAWEI/Middlewares/Third_Party/Huawei/iot_link/network/dtls/mbedtls/mbedtls-2.16.2/library\ecdh.c ****                                             blen ) ) != 0 )
 1312              		.loc 1 564 7 view .LVU397
 1313 0016 28B9     		cbnz	r0, .L64
 568:D:/fchai/work/i-cube/I-CUBE-HUAWEI/Middlewares/Third_Party/Huawei/iot_link/network/dtls/mbedtls/mbedtls-2.16.2/library\ecdh.c ****         return( MBEDTLS_ERR_ECP_BAD_INPUT_DATA );
 1314              		.loc 1 568 5 is_stmt 1 view .LVU398
 568:D:/fchai/work/i-cube/I-CUBE-HUAWEI/Middlewares/Third_Party/Huawei/iot_link/network/dtls/mbedtls/mbedtls-2.16.2/library\ecdh.c ****         return( MBEDTLS_ERR_ECP_BAD_INPUT_DATA );
 1315              		.loc 1 568 21 is_stmt 0 view .LVU399
 1316 0018 0199     		ldr	r1, [sp, #4]
 569:D:/fchai/work/i-cube/I-CUBE-HUAWEI/Middlewares/Third_Party/Huawei/iot_link/network/dtls/mbedtls/mbedtls-2.16.2/library\ecdh.c **** 
 1317              		.loc 1 569 15 view .LVU400
 1318 001a 034B     		ldr	r3, .L67
 568:D:/fchai/work/i-cube/I-CUBE-HUAWEI/Middlewares/Third_Party/Huawei/iot_link/network/dtls/mbedtls/mbedtls-2.16.2/library\ecdh.c ****         return( MBEDTLS_ERR_ECP_BAD_INPUT_DATA );
 1319              		.loc 1 568 21 view .LVU401
 1320 001c 491B     		subs	r1, r1, r5
 569:D:/fchai/work/i-cube/I-CUBE-HUAWEI/Middlewares/Third_Party/Huawei/iot_link/network/dtls/mbedtls/mbedtls-2.16.2/library\ecdh.c **** 
 1321              		.loc 1 569 15 view .LVU402
 1322 001e A142     		cmp	r1, r4
 1323 0020 18BF     		it	ne
 1324 0022 1846     		movne	r0, r3
 1325              	.LVL118:
 1326              	.L64:
 569:D:/fchai/work/i-cube/I-CUBE-HUAWEI/Middlewares/Third_Party/Huawei/iot_link/network/dtls/mbedtls/mbedtls-2.16.2/library\ecdh.c **** 
 1327              		.loc 1 569 15 view .LVU403
 1328              	.LBE105:
 1329              	.LBE104:
 585:D:/fchai/work/i-cube/I-CUBE-HUAWEI/Middlewares/Third_Party/Huawei/iot_link/network/dtls/mbedtls/mbedtls-2.16.2/library\ecdh.c **** #else
 586:D:/fchai/work/i-cube/I-CUBE-HUAWEI/Middlewares/Third_Party/Huawei/iot_link/network/dtls/mbedtls/mbedtls-2.16.2/library\ecdh.c ****     switch( ctx->var )
 587:D:/fchai/work/i-cube/I-CUBE-HUAWEI/Middlewares/Third_Party/Huawei/iot_link/network/dtls/mbedtls/mbedtls-2.16.2/library\ecdh.c ****     {
 588:D:/fchai/work/i-cube/I-CUBE-HUAWEI/Middlewares/Third_Party/Huawei/iot_link/network/dtls/mbedtls/mbedtls-2.16.2/library\ecdh.c ****         case MBEDTLS_ECDH_VARIANT_MBEDTLS_2_0:
 589:D:/fchai/work/i-cube/I-CUBE-HUAWEI/Middlewares/Third_Party/Huawei/iot_link/network/dtls/mbedtls/mbedtls-2.16.2/library\ecdh.c ****             return( ecdh_read_public_internal( &ctx->ctx.mbed_ecdh,
 590:D:/fchai/work/i-cube/I-CUBE-HUAWEI/Middlewares/Third_Party/Huawei/iot_link/network/dtls/mbedtls/mbedtls-2.16.2/library\ecdh.c ****                                                        buf, blen ) );
 591:D:/fchai/work/i-cube/I-CUBE-HUAWEI/Middlewares/Third_Party/Huawei/iot_link/network/dtls/mbedtls/mbedtls-2.16.2/library\ecdh.c ****         default:
 592:D:/fchai/work/i-cube/I-CUBE-HUAWEI/Middlewares/Third_Party/Huawei/iot_link/network/dtls/mbedtls/mbedtls-2.16.2/library\ecdh.c ****             return MBEDTLS_ERR_ECP_BAD_INPUT_DATA;
 593:D:/fchai/work/i-cube/I-CUBE-HUAWEI/Middlewares/Third_Party/Huawei/iot_link/network/dtls/mbedtls/mbedtls-2.16.2/library\ecdh.c ****     }
 594:D:/fchai/work/i-cube/I-CUBE-HUAWEI/Middlewares/Third_Party/Huawei/iot_link/network/dtls/mbedtls/mbedtls-2.16.2/library\ecdh.c **** #endif
 595:D:/fchai/work/i-cube/I-CUBE-HUAWEI/Middlewares/Third_Party/Huawei/iot_link/network/dtls/mbedtls/mbedtls-2.16.2/library\ecdh.c **** }
 1330              		.loc 1 595 1 view .LVU404
 1331 0024 03B0     		add	sp, sp, #12
 1332              	.LCFI39:
 1333              		.cfi_def_cfa_offset 12
 1334              		@ sp needed
 1335 0026 30BD     		pop	{r4, r5, pc}
 1336              	.LVL119:
 1337              	.L68:
 1338              		.loc 1 595 1 view .LVU405
 1339              		.align	2
 1340              	.L67:
 1341 0028 80B0FFFF 		.word	-20352
 1342              		.cfi_endproc
ARM GAS  T:\msys\tmp\cctaHzaT.s 			page 39


 1343              	.LFE20:
 1345              		.section	.text.mbedtls_ecdh_calc_secret,"ax",%progbits
 1346              		.align	1
 1347              		.p2align 2,,3
 1348              		.global	mbedtls_ecdh_calc_secret
 1349              		.syntax unified
 1350              		.thumb
 1351              		.thumb_func
 1352              		.fpu fpv4-sp-d16
 1354              	mbedtls_ecdh_calc_secret:
 1355              	.LVL120:
 1356              	.LFB22:
 596:D:/fchai/work/i-cube/I-CUBE-HUAWEI/Middlewares/Third_Party/Huawei/iot_link/network/dtls/mbedtls/mbedtls-2.16.2/library\ecdh.c **** 
 597:D:/fchai/work/i-cube/I-CUBE-HUAWEI/Middlewares/Third_Party/Huawei/iot_link/network/dtls/mbedtls/mbedtls-2.16.2/library\ecdh.c **** static int ecdh_calc_secret_internal( mbedtls_ecdh_context_mbed *ctx,
 598:D:/fchai/work/i-cube/I-CUBE-HUAWEI/Middlewares/Third_Party/Huawei/iot_link/network/dtls/mbedtls/mbedtls-2.16.2/library\ecdh.c ****                                       size_t *olen, unsigned char *buf,
 599:D:/fchai/work/i-cube/I-CUBE-HUAWEI/Middlewares/Third_Party/Huawei/iot_link/network/dtls/mbedtls/mbedtls-2.16.2/library\ecdh.c ****                                       size_t blen,
 600:D:/fchai/work/i-cube/I-CUBE-HUAWEI/Middlewares/Third_Party/Huawei/iot_link/network/dtls/mbedtls/mbedtls-2.16.2/library\ecdh.c ****                                       int (*f_rng)(void *,
 601:D:/fchai/work/i-cube/I-CUBE-HUAWEI/Middlewares/Third_Party/Huawei/iot_link/network/dtls/mbedtls/mbedtls-2.16.2/library\ecdh.c ****                                                    unsigned char *,
 602:D:/fchai/work/i-cube/I-CUBE-HUAWEI/Middlewares/Third_Party/Huawei/iot_link/network/dtls/mbedtls/mbedtls-2.16.2/library\ecdh.c ****                                                    size_t),
 603:D:/fchai/work/i-cube/I-CUBE-HUAWEI/Middlewares/Third_Party/Huawei/iot_link/network/dtls/mbedtls/mbedtls-2.16.2/library\ecdh.c ****                                       void *p_rng,
 604:D:/fchai/work/i-cube/I-CUBE-HUAWEI/Middlewares/Third_Party/Huawei/iot_link/network/dtls/mbedtls/mbedtls-2.16.2/library\ecdh.c ****                                       int restart_enabled )
 605:D:/fchai/work/i-cube/I-CUBE-HUAWEI/Middlewares/Third_Party/Huawei/iot_link/network/dtls/mbedtls/mbedtls-2.16.2/library\ecdh.c **** {
 606:D:/fchai/work/i-cube/I-CUBE-HUAWEI/Middlewares/Third_Party/Huawei/iot_link/network/dtls/mbedtls/mbedtls-2.16.2/library\ecdh.c ****     int ret;
 607:D:/fchai/work/i-cube/I-CUBE-HUAWEI/Middlewares/Third_Party/Huawei/iot_link/network/dtls/mbedtls/mbedtls-2.16.2/library\ecdh.c **** #if defined(MBEDTLS_ECP_RESTARTABLE)
 608:D:/fchai/work/i-cube/I-CUBE-HUAWEI/Middlewares/Third_Party/Huawei/iot_link/network/dtls/mbedtls/mbedtls-2.16.2/library\ecdh.c ****     mbedtls_ecp_restart_ctx *rs_ctx = NULL;
 609:D:/fchai/work/i-cube/I-CUBE-HUAWEI/Middlewares/Third_Party/Huawei/iot_link/network/dtls/mbedtls/mbedtls-2.16.2/library\ecdh.c **** #endif
 610:D:/fchai/work/i-cube/I-CUBE-HUAWEI/Middlewares/Third_Party/Huawei/iot_link/network/dtls/mbedtls/mbedtls-2.16.2/library\ecdh.c **** 
 611:D:/fchai/work/i-cube/I-CUBE-HUAWEI/Middlewares/Third_Party/Huawei/iot_link/network/dtls/mbedtls/mbedtls-2.16.2/library\ecdh.c ****     if( ctx == NULL || ctx->grp.pbits == 0 )
 612:D:/fchai/work/i-cube/I-CUBE-HUAWEI/Middlewares/Third_Party/Huawei/iot_link/network/dtls/mbedtls/mbedtls-2.16.2/library\ecdh.c ****         return( MBEDTLS_ERR_ECP_BAD_INPUT_DATA );
 613:D:/fchai/work/i-cube/I-CUBE-HUAWEI/Middlewares/Third_Party/Huawei/iot_link/network/dtls/mbedtls/mbedtls-2.16.2/library\ecdh.c **** 
 614:D:/fchai/work/i-cube/I-CUBE-HUAWEI/Middlewares/Third_Party/Huawei/iot_link/network/dtls/mbedtls/mbedtls-2.16.2/library\ecdh.c **** #if defined(MBEDTLS_ECP_RESTARTABLE)
 615:D:/fchai/work/i-cube/I-CUBE-HUAWEI/Middlewares/Third_Party/Huawei/iot_link/network/dtls/mbedtls/mbedtls-2.16.2/library\ecdh.c ****     if( restart_enabled )
 616:D:/fchai/work/i-cube/I-CUBE-HUAWEI/Middlewares/Third_Party/Huawei/iot_link/network/dtls/mbedtls/mbedtls-2.16.2/library\ecdh.c ****         rs_ctx = &ctx->rs;
 617:D:/fchai/work/i-cube/I-CUBE-HUAWEI/Middlewares/Third_Party/Huawei/iot_link/network/dtls/mbedtls/mbedtls-2.16.2/library\ecdh.c **** #else
 618:D:/fchai/work/i-cube/I-CUBE-HUAWEI/Middlewares/Third_Party/Huawei/iot_link/network/dtls/mbedtls/mbedtls-2.16.2/library\ecdh.c ****     (void) restart_enabled;
 619:D:/fchai/work/i-cube/I-CUBE-HUAWEI/Middlewares/Third_Party/Huawei/iot_link/network/dtls/mbedtls/mbedtls-2.16.2/library\ecdh.c **** #endif
 620:D:/fchai/work/i-cube/I-CUBE-HUAWEI/Middlewares/Third_Party/Huawei/iot_link/network/dtls/mbedtls/mbedtls-2.16.2/library\ecdh.c **** 
 621:D:/fchai/work/i-cube/I-CUBE-HUAWEI/Middlewares/Third_Party/Huawei/iot_link/network/dtls/mbedtls/mbedtls-2.16.2/library\ecdh.c **** #if defined(MBEDTLS_ECP_RESTARTABLE)
 622:D:/fchai/work/i-cube/I-CUBE-HUAWEI/Middlewares/Third_Party/Huawei/iot_link/network/dtls/mbedtls/mbedtls-2.16.2/library\ecdh.c ****     if( ( ret = ecdh_compute_shared_restartable( &ctx->grp, &ctx->z, &ctx->Qp,
 623:D:/fchai/work/i-cube/I-CUBE-HUAWEI/Middlewares/Third_Party/Huawei/iot_link/network/dtls/mbedtls/mbedtls-2.16.2/library\ecdh.c ****                                                  &ctx->d, f_rng, p_rng,
 624:D:/fchai/work/i-cube/I-CUBE-HUAWEI/Middlewares/Third_Party/Huawei/iot_link/network/dtls/mbedtls/mbedtls-2.16.2/library\ecdh.c ****                                                  rs_ctx ) ) != 0 )
 625:D:/fchai/work/i-cube/I-CUBE-HUAWEI/Middlewares/Third_Party/Huawei/iot_link/network/dtls/mbedtls/mbedtls-2.16.2/library\ecdh.c ****     {
 626:D:/fchai/work/i-cube/I-CUBE-HUAWEI/Middlewares/Third_Party/Huawei/iot_link/network/dtls/mbedtls/mbedtls-2.16.2/library\ecdh.c ****         return( ret );
 627:D:/fchai/work/i-cube/I-CUBE-HUAWEI/Middlewares/Third_Party/Huawei/iot_link/network/dtls/mbedtls/mbedtls-2.16.2/library\ecdh.c ****     }
 628:D:/fchai/work/i-cube/I-CUBE-HUAWEI/Middlewares/Third_Party/Huawei/iot_link/network/dtls/mbedtls/mbedtls-2.16.2/library\ecdh.c **** #else
 629:D:/fchai/work/i-cube/I-CUBE-HUAWEI/Middlewares/Third_Party/Huawei/iot_link/network/dtls/mbedtls/mbedtls-2.16.2/library\ecdh.c ****     if( ( ret = mbedtls_ecdh_compute_shared( &ctx->grp, &ctx->z, &ctx->Qp,
 630:D:/fchai/work/i-cube/I-CUBE-HUAWEI/Middlewares/Third_Party/Huawei/iot_link/network/dtls/mbedtls/mbedtls-2.16.2/library\ecdh.c ****                                              &ctx->d, f_rng, p_rng ) ) != 0 )
 631:D:/fchai/work/i-cube/I-CUBE-HUAWEI/Middlewares/Third_Party/Huawei/iot_link/network/dtls/mbedtls/mbedtls-2.16.2/library\ecdh.c ****     {
 632:D:/fchai/work/i-cube/I-CUBE-HUAWEI/Middlewares/Third_Party/Huawei/iot_link/network/dtls/mbedtls/mbedtls-2.16.2/library\ecdh.c ****         return( ret );
 633:D:/fchai/work/i-cube/I-CUBE-HUAWEI/Middlewares/Third_Party/Huawei/iot_link/network/dtls/mbedtls/mbedtls-2.16.2/library\ecdh.c ****     }
 634:D:/fchai/work/i-cube/I-CUBE-HUAWEI/Middlewares/Third_Party/Huawei/iot_link/network/dtls/mbedtls/mbedtls-2.16.2/library\ecdh.c **** #endif /* MBEDTLS_ECP_RESTARTABLE */
 635:D:/fchai/work/i-cube/I-CUBE-HUAWEI/Middlewares/Third_Party/Huawei/iot_link/network/dtls/mbedtls/mbedtls-2.16.2/library\ecdh.c **** 
 636:D:/fchai/work/i-cube/I-CUBE-HUAWEI/Middlewares/Third_Party/Huawei/iot_link/network/dtls/mbedtls/mbedtls-2.16.2/library\ecdh.c ****     if( mbedtls_mpi_size( &ctx->z ) > blen )
 637:D:/fchai/work/i-cube/I-CUBE-HUAWEI/Middlewares/Third_Party/Huawei/iot_link/network/dtls/mbedtls/mbedtls-2.16.2/library\ecdh.c ****         return( MBEDTLS_ERR_ECP_BAD_INPUT_DATA );
 638:D:/fchai/work/i-cube/I-CUBE-HUAWEI/Middlewares/Third_Party/Huawei/iot_link/network/dtls/mbedtls/mbedtls-2.16.2/library\ecdh.c **** 
 639:D:/fchai/work/i-cube/I-CUBE-HUAWEI/Middlewares/Third_Party/Huawei/iot_link/network/dtls/mbedtls/mbedtls-2.16.2/library\ecdh.c ****     *olen = ctx->grp.pbits / 8 + ( ( ctx->grp.pbits % 8 ) != 0 );
 640:D:/fchai/work/i-cube/I-CUBE-HUAWEI/Middlewares/Third_Party/Huawei/iot_link/network/dtls/mbedtls/mbedtls-2.16.2/library\ecdh.c ****     return mbedtls_mpi_write_binary( &ctx->z, buf, *olen );
ARM GAS  T:\msys\tmp\cctaHzaT.s 			page 40


 641:D:/fchai/work/i-cube/I-CUBE-HUAWEI/Middlewares/Third_Party/Huawei/iot_link/network/dtls/mbedtls/mbedtls-2.16.2/library\ecdh.c **** }
 642:D:/fchai/work/i-cube/I-CUBE-HUAWEI/Middlewares/Third_Party/Huawei/iot_link/network/dtls/mbedtls/mbedtls-2.16.2/library\ecdh.c **** 
 643:D:/fchai/work/i-cube/I-CUBE-HUAWEI/Middlewares/Third_Party/Huawei/iot_link/network/dtls/mbedtls/mbedtls-2.16.2/library\ecdh.c **** /*
 644:D:/fchai/work/i-cube/I-CUBE-HUAWEI/Middlewares/Third_Party/Huawei/iot_link/network/dtls/mbedtls/mbedtls-2.16.2/library\ecdh.c ****  * Derive and export the shared secret
 645:D:/fchai/work/i-cube/I-CUBE-HUAWEI/Middlewares/Third_Party/Huawei/iot_link/network/dtls/mbedtls/mbedtls-2.16.2/library\ecdh.c ****  */
 646:D:/fchai/work/i-cube/I-CUBE-HUAWEI/Middlewares/Third_Party/Huawei/iot_link/network/dtls/mbedtls/mbedtls-2.16.2/library\ecdh.c **** int mbedtls_ecdh_calc_secret( mbedtls_ecdh_context *ctx, size_t *olen,
 647:D:/fchai/work/i-cube/I-CUBE-HUAWEI/Middlewares/Third_Party/Huawei/iot_link/network/dtls/mbedtls/mbedtls-2.16.2/library\ecdh.c ****                               unsigned char *buf, size_t blen,
 648:D:/fchai/work/i-cube/I-CUBE-HUAWEI/Middlewares/Third_Party/Huawei/iot_link/network/dtls/mbedtls/mbedtls-2.16.2/library\ecdh.c ****                               int (*f_rng)(void *, unsigned char *, size_t),
 649:D:/fchai/work/i-cube/I-CUBE-HUAWEI/Middlewares/Third_Party/Huawei/iot_link/network/dtls/mbedtls/mbedtls-2.16.2/library\ecdh.c ****                               void *p_rng )
 650:D:/fchai/work/i-cube/I-CUBE-HUAWEI/Middlewares/Third_Party/Huawei/iot_link/network/dtls/mbedtls/mbedtls-2.16.2/library\ecdh.c **** {
 1357              		.loc 1 650 1 is_stmt 1 view -0
 1358              		.cfi_startproc
 1359              		@ args = 8, pretend = 0, frame = 0
 1360              		@ frame_needed = 0, uses_anonymous_args = 0
 651:D:/fchai/work/i-cube/I-CUBE-HUAWEI/Middlewares/Third_Party/Huawei/iot_link/network/dtls/mbedtls/mbedtls-2.16.2/library\ecdh.c ****     int restart_enabled = 0;
 1361              		.loc 1 651 5 view .LVU407
 652:D:/fchai/work/i-cube/I-CUBE-HUAWEI/Middlewares/Third_Party/Huawei/iot_link/network/dtls/mbedtls/mbedtls-2.16.2/library\ecdh.c ****     ECDH_VALIDATE_RET( ctx != NULL );
 1362              		.loc 1 652 5 view .LVU408
 1363              		.loc 1 652 5 view .LVU409
 1364              		.loc 1 652 5 view .LVU410
 653:D:/fchai/work/i-cube/I-CUBE-HUAWEI/Middlewares/Third_Party/Huawei/iot_link/network/dtls/mbedtls/mbedtls-2.16.2/library\ecdh.c ****     ECDH_VALIDATE_RET( olen != NULL );
 1365              		.loc 1 653 5 view .LVU411
 1366              		.loc 1 653 5 view .LVU412
 1367              		.loc 1 653 5 view .LVU413
 654:D:/fchai/work/i-cube/I-CUBE-HUAWEI/Middlewares/Third_Party/Huawei/iot_link/network/dtls/mbedtls/mbedtls-2.16.2/library\ecdh.c ****     ECDH_VALIDATE_RET( buf != NULL );
 1368              		.loc 1 654 5 view .LVU414
 1369              		.loc 1 654 5 view .LVU415
 1370              		.loc 1 654 5 view .LVU416
 655:D:/fchai/work/i-cube/I-CUBE-HUAWEI/Middlewares/Third_Party/Huawei/iot_link/network/dtls/mbedtls/mbedtls-2.16.2/library\ecdh.c **** 
 656:D:/fchai/work/i-cube/I-CUBE-HUAWEI/Middlewares/Third_Party/Huawei/iot_link/network/dtls/mbedtls/mbedtls-2.16.2/library\ecdh.c **** #if defined(MBEDTLS_ECP_RESTARTABLE)
 657:D:/fchai/work/i-cube/I-CUBE-HUAWEI/Middlewares/Third_Party/Huawei/iot_link/network/dtls/mbedtls/mbedtls-2.16.2/library\ecdh.c ****     restart_enabled = ctx->restart_enabled;
 658:D:/fchai/work/i-cube/I-CUBE-HUAWEI/Middlewares/Third_Party/Huawei/iot_link/network/dtls/mbedtls/mbedtls-2.16.2/library\ecdh.c **** #endif
 659:D:/fchai/work/i-cube/I-CUBE-HUAWEI/Middlewares/Third_Party/Huawei/iot_link/network/dtls/mbedtls/mbedtls-2.16.2/library\ecdh.c **** 
 660:D:/fchai/work/i-cube/I-CUBE-HUAWEI/Middlewares/Third_Party/Huawei/iot_link/network/dtls/mbedtls/mbedtls-2.16.2/library\ecdh.c **** #if defined(MBEDTLS_ECDH_LEGACY_CONTEXT)
 661:D:/fchai/work/i-cube/I-CUBE-HUAWEI/Middlewares/Third_Party/Huawei/iot_link/network/dtls/mbedtls/mbedtls-2.16.2/library\ecdh.c ****     return( ecdh_calc_secret_internal( ctx, olen, buf, blen, f_rng, p_rng,
 1371              		.loc 1 661 5 view .LVU417
 650:D:/fchai/work/i-cube/I-CUBE-HUAWEI/Middlewares/Third_Party/Huawei/iot_link/network/dtls/mbedtls/mbedtls-2.16.2/library\ecdh.c ****     int restart_enabled = 0;
 1372              		.loc 1 650 1 is_stmt 0 view .LVU418
 1373 0000 2DE9F041 		push	{r4, r5, r6, r7, r8, lr}
 1374              	.LCFI40:
 1375              		.cfi_def_cfa_offset 24
 1376              		.cfi_offset 4, -24
 1377              		.cfi_offset 5, -20
 1378              		.cfi_offset 6, -16
 1379              		.cfi_offset 7, -12
 1380              		.cfi_offset 8, -8
 1381              		.cfi_offset 14, -4
 1382 0004 82B0     		sub	sp, sp, #8
 1383              	.LCFI41:
 1384              		.cfi_def_cfa_offset 32
 650:D:/fchai/work/i-cube/I-CUBE-HUAWEI/Middlewares/Third_Party/Huawei/iot_link/network/dtls/mbedtls/mbedtls-2.16.2/library\ecdh.c ****     int restart_enabled = 0;
 1385              		.loc 1 650 1 view .LVU419
 1386 0006 0D46     		mov	r5, r1
 1387              	.LVL121:
 650:D:/fchai/work/i-cube/I-CUBE-HUAWEI/Middlewares/Third_Party/Huawei/iot_link/network/dtls/mbedtls/mbedtls-2.16.2/library\ecdh.c ****     int restart_enabled = 0;
 1388              		.loc 1 650 1 view .LVU420
 1389 0008 1646     		mov	r6, r2
ARM GAS  T:\msys\tmp\cctaHzaT.s 			page 41


 1390              	.LVL122:
 650:D:/fchai/work/i-cube/I-CUBE-HUAWEI/Middlewares/Third_Party/Huawei/iot_link/network/dtls/mbedtls/mbedtls-2.16.2/library\ecdh.c ****     int restart_enabled = 0;
 1391              		.loc 1 650 1 view .LVU421
 1392 000a DDE90821 		ldrd	r2, r1, [sp, #32]
 1393              	.LVL123:
 1394              	.LBB110:
 1395              	.LBI110:
 597:D:/fchai/work/i-cube/I-CUBE-HUAWEI/Middlewares/Third_Party/Huawei/iot_link/network/dtls/mbedtls/mbedtls-2.16.2/library\ecdh.c ****                                       size_t *olen, unsigned char *buf,
 1396              		.loc 1 597 12 is_stmt 1 view .LVU422
 1397              	.LBB111:
 606:D:/fchai/work/i-cube/I-CUBE-HUAWEI/Middlewares/Third_Party/Huawei/iot_link/network/dtls/mbedtls/mbedtls-2.16.2/library\ecdh.c **** #if defined(MBEDTLS_ECP_RESTARTABLE)
 1398              		.loc 1 606 5 view .LVU423
 611:D:/fchai/work/i-cube/I-CUBE-HUAWEI/Middlewares/Third_Party/Huawei/iot_link/network/dtls/mbedtls/mbedtls-2.16.2/library\ecdh.c ****         return( MBEDTLS_ERR_ECP_BAD_INPUT_DATA );
 1399              		.loc 1 611 5 view .LVU424
 611:D:/fchai/work/i-cube/I-CUBE-HUAWEI/Middlewares/Third_Party/Huawei/iot_link/network/dtls/mbedtls/mbedtls-2.16.2/library\ecdh.c ****         return( MBEDTLS_ERR_ECP_BAD_INPUT_DATA );
 1400              		.loc 1 611 7 is_stmt 0 view .LVU425
 1401 000e 30B3     		cbz	r0, .L72
 1402 0010 9846     		mov	r8, r3
 611:D:/fchai/work/i-cube/I-CUBE-HUAWEI/Middlewares/Third_Party/Huawei/iot_link/network/dtls/mbedtls/mbedtls-2.16.2/library\ecdh.c ****         return( MBEDTLS_ERR_ECP_BAD_INPUT_DATA );
 1403              		.loc 1 611 21 view .LVU426
 1404 0012 836D     		ldr	r3, [r0, #88]
 1405              	.LVL124:
 611:D:/fchai/work/i-cube/I-CUBE-HUAWEI/Middlewares/Third_Party/Huawei/iot_link/network/dtls/mbedtls/mbedtls-2.16.2/library\ecdh.c ****         return( MBEDTLS_ERR_ECP_BAD_INPUT_DATA );
 1406              		.loc 1 611 21 view .LVU427
 1407 0014 0446     		mov	r4, r0
 1408 0016 13B3     		cbz	r3, .L72
 618:D:/fchai/work/i-cube/I-CUBE-HUAWEI/Middlewares/Third_Party/Huawei/iot_link/network/dtls/mbedtls/mbedtls-2.16.2/library\ecdh.c **** #endif
 1409              		.loc 1 618 5 is_stmt 1 view .LVU428
 629:D:/fchai/work/i-cube/I-CUBE-HUAWEI/Middlewares/Third_Party/Huawei/iot_link/network/dtls/mbedtls/mbedtls-2.16.2/library\ecdh.c ****                                              &ctx->d, f_rng, p_rng ) ) != 0 )
 1410              		.loc 1 629 5 view .LVU429
 629:D:/fchai/work/i-cube/I-CUBE-HUAWEI/Middlewares/Third_Party/Huawei/iot_link/network/dtls/mbedtls/mbedtls-2.16.2/library\ecdh.c ****                                              &ctx->d, f_rng, p_rng ) ) != 0 )
 1411              		.loc 1 629 17 is_stmt 0 view .LVU430
 1412 0018 00F1D007 		add	r7, r0, #208
 1413              	.LVL125:
 1414              	.LBB112:
 1415              	.LBI112:
 142:D:/fchai/work/i-cube/I-CUBE-HUAWEI/Middlewares/Third_Party/Huawei/iot_link/network/dtls/mbedtls/mbedtls-2.16.2/library\ecdh.c ****                          const mbedtls_ecp_point *Q, const mbedtls_mpi *d,
 1416              		.loc 1 142 5 is_stmt 1 view .LVU431
 1417              	.LBB113:
 147:D:/fchai/work/i-cube/I-CUBE-HUAWEI/Middlewares/Third_Party/Huawei/iot_link/network/dtls/mbedtls/mbedtls-2.16.2/library\ecdh.c ****     ECDH_VALIDATE_RET( Q != NULL );
 1418              		.loc 1 147 5 view .LVU432
 147:D:/fchai/work/i-cube/I-CUBE-HUAWEI/Middlewares/Third_Party/Huawei/iot_link/network/dtls/mbedtls/mbedtls-2.16.2/library\ecdh.c ****     ECDH_VALIDATE_RET( Q != NULL );
 1419              		.loc 1 147 5 view .LVU433
 147:D:/fchai/work/i-cube/I-CUBE-HUAWEI/Middlewares/Third_Party/Huawei/iot_link/network/dtls/mbedtls/mbedtls-2.16.2/library\ecdh.c ****     ECDH_VALIDATE_RET( Q != NULL );
 1420              		.loc 1 147 5 view .LVU434
 148:D:/fchai/work/i-cube/I-CUBE-HUAWEI/Middlewares/Third_Party/Huawei/iot_link/network/dtls/mbedtls/mbedtls-2.16.2/library\ecdh.c ****     ECDH_VALIDATE_RET( d != NULL );
 1421              		.loc 1 148 5 view .LVU435
 148:D:/fchai/work/i-cube/I-CUBE-HUAWEI/Middlewares/Third_Party/Huawei/iot_link/network/dtls/mbedtls/mbedtls-2.16.2/library\ecdh.c ****     ECDH_VALIDATE_RET( d != NULL );
 1422              		.loc 1 148 5 view .LVU436
 148:D:/fchai/work/i-cube/I-CUBE-HUAWEI/Middlewares/Third_Party/Huawei/iot_link/network/dtls/mbedtls/mbedtls-2.16.2/library\ecdh.c ****     ECDH_VALIDATE_RET( d != NULL );
 1423              		.loc 1 148 5 view .LVU437
 149:D:/fchai/work/i-cube/I-CUBE-HUAWEI/Middlewares/Third_Party/Huawei/iot_link/network/dtls/mbedtls/mbedtls-2.16.2/library\ecdh.c ****     ECDH_VALIDATE_RET( z != NULL );
 1424              		.loc 1 149 5 view .LVU438
 149:D:/fchai/work/i-cube/I-CUBE-HUAWEI/Middlewares/Third_Party/Huawei/iot_link/network/dtls/mbedtls/mbedtls-2.16.2/library\ecdh.c ****     ECDH_VALIDATE_RET( z != NULL );
 1425              		.loc 1 149 5 view .LVU439
 149:D:/fchai/work/i-cube/I-CUBE-HUAWEI/Middlewares/Third_Party/Huawei/iot_link/network/dtls/mbedtls/mbedtls-2.16.2/library\ecdh.c ****     ECDH_VALIDATE_RET( z != NULL );
 1426              		.loc 1 149 5 view .LVU440
ARM GAS  T:\msys\tmp\cctaHzaT.s 			page 42


 150:D:/fchai/work/i-cube/I-CUBE-HUAWEI/Middlewares/Third_Party/Huawei/iot_link/network/dtls/mbedtls/mbedtls-2.16.2/library\ecdh.c ****     return( ecdh_compute_shared_restartable( grp, z, Q, d,
 1427              		.loc 1 150 5 view .LVU441
 150:D:/fchai/work/i-cube/I-CUBE-HUAWEI/Middlewares/Third_Party/Huawei/iot_link/network/dtls/mbedtls/mbedtls-2.16.2/library\ecdh.c ****     return( ecdh_compute_shared_restartable( grp, z, Q, d,
 1428              		.loc 1 150 5 view .LVU442
 150:D:/fchai/work/i-cube/I-CUBE-HUAWEI/Middlewares/Third_Party/Huawei/iot_link/network/dtls/mbedtls/mbedtls-2.16.2/library\ecdh.c ****     return( ecdh_compute_shared_restartable( grp, z, Q, d,
 1429              		.loc 1 150 5 view .LVU443
 151:D:/fchai/work/i-cube/I-CUBE-HUAWEI/Middlewares/Third_Party/Huawei/iot_link/network/dtls/mbedtls/mbedtls-2.16.2/library\ecdh.c ****                                              f_rng, p_rng, NULL ) );
 1430              		.loc 1 151 5 view .LVU444
 151:D:/fchai/work/i-cube/I-CUBE-HUAWEI/Middlewares/Third_Party/Huawei/iot_link/network/dtls/mbedtls/mbedtls-2.16.2/library\ecdh.c ****                                              f_rng, p_rng, NULL ) );
 1431              		.loc 1 151 13 is_stmt 0 view .LVU445
 1432 001c CDE90021 		strd	r2, r1, [sp]
 1433 0020 00F17C03 		add	r3, r0, #124
 1434              	.LVL126:
 151:D:/fchai/work/i-cube/I-CUBE-HUAWEI/Middlewares/Third_Party/Huawei/iot_link/network/dtls/mbedtls/mbedtls-2.16.2/library\ecdh.c ****                                              f_rng, p_rng, NULL ) );
 1435              		.loc 1 151 13 view .LVU446
 1436 0024 3946     		mov	r1, r7
 1437              	.LVL127:
 151:D:/fchai/work/i-cube/I-CUBE-HUAWEI/Middlewares/Third_Party/Huawei/iot_link/network/dtls/mbedtls/mbedtls-2.16.2/library\ecdh.c ****                                              f_rng, p_rng, NULL ) );
 1438              		.loc 1 151 13 view .LVU447
 1439 0026 00F1AC02 		add	r2, r0, #172
 1440              	.LVL128:
 151:D:/fchai/work/i-cube/I-CUBE-HUAWEI/Middlewares/Third_Party/Huawei/iot_link/network/dtls/mbedtls/mbedtls-2.16.2/library\ecdh.c ****                                              f_rng, p_rng, NULL ) );
 1441              		.loc 1 151 13 view .LVU448
 1442 002a FFF7FEFF 		bl	ecdh_compute_shared_restartable.constprop.0
 1443              	.LVL129:
 151:D:/fchai/work/i-cube/I-CUBE-HUAWEI/Middlewares/Third_Party/Huawei/iot_link/network/dtls/mbedtls/mbedtls-2.16.2/library\ecdh.c ****                                              f_rng, p_rng, NULL ) );
 1444              		.loc 1 151 13 view .LVU449
 1445              	.LBE113:
 1446              	.LBE112:
 629:D:/fchai/work/i-cube/I-CUBE-HUAWEI/Middlewares/Third_Party/Huawei/iot_link/network/dtls/mbedtls/mbedtls-2.16.2/library\ecdh.c ****                                              &ctx->d, f_rng, p_rng ) ) != 0 )
 1447              		.loc 1 629 7 view .LVU450
 1448 002e 10B1     		cbz	r0, .L77
 1449              	.LVL130:
 1450              	.L69:
 629:D:/fchai/work/i-cube/I-CUBE-HUAWEI/Middlewares/Third_Party/Huawei/iot_link/network/dtls/mbedtls/mbedtls-2.16.2/library\ecdh.c ****                                              &ctx->d, f_rng, p_rng ) ) != 0 )
 1451              		.loc 1 629 7 view .LVU451
 1452              	.LBE111:
 1453              	.LBE110:
 662:D:/fchai/work/i-cube/I-CUBE-HUAWEI/Middlewares/Third_Party/Huawei/iot_link/network/dtls/mbedtls/mbedtls-2.16.2/library\ecdh.c ****                                        restart_enabled ) );
 663:D:/fchai/work/i-cube/I-CUBE-HUAWEI/Middlewares/Third_Party/Huawei/iot_link/network/dtls/mbedtls/mbedtls-2.16.2/library\ecdh.c **** #else
 664:D:/fchai/work/i-cube/I-CUBE-HUAWEI/Middlewares/Third_Party/Huawei/iot_link/network/dtls/mbedtls/mbedtls-2.16.2/library\ecdh.c ****     switch( ctx->var )
 665:D:/fchai/work/i-cube/I-CUBE-HUAWEI/Middlewares/Third_Party/Huawei/iot_link/network/dtls/mbedtls/mbedtls-2.16.2/library\ecdh.c ****     {
 666:D:/fchai/work/i-cube/I-CUBE-HUAWEI/Middlewares/Third_Party/Huawei/iot_link/network/dtls/mbedtls/mbedtls-2.16.2/library\ecdh.c ****         case MBEDTLS_ECDH_VARIANT_MBEDTLS_2_0:
 667:D:/fchai/work/i-cube/I-CUBE-HUAWEI/Middlewares/Third_Party/Huawei/iot_link/network/dtls/mbedtls/mbedtls-2.16.2/library\ecdh.c ****             return( ecdh_calc_secret_internal( &ctx->ctx.mbed_ecdh, olen, buf,
 668:D:/fchai/work/i-cube/I-CUBE-HUAWEI/Middlewares/Third_Party/Huawei/iot_link/network/dtls/mbedtls/mbedtls-2.16.2/library\ecdh.c ****                                                blen, f_rng, p_rng,
 669:D:/fchai/work/i-cube/I-CUBE-HUAWEI/Middlewares/Third_Party/Huawei/iot_link/network/dtls/mbedtls/mbedtls-2.16.2/library\ecdh.c ****                                                restart_enabled ) );
 670:D:/fchai/work/i-cube/I-CUBE-HUAWEI/Middlewares/Third_Party/Huawei/iot_link/network/dtls/mbedtls/mbedtls-2.16.2/library\ecdh.c ****         default:
 671:D:/fchai/work/i-cube/I-CUBE-HUAWEI/Middlewares/Third_Party/Huawei/iot_link/network/dtls/mbedtls/mbedtls-2.16.2/library\ecdh.c ****             return( MBEDTLS_ERR_ECP_BAD_INPUT_DATA );
 672:D:/fchai/work/i-cube/I-CUBE-HUAWEI/Middlewares/Third_Party/Huawei/iot_link/network/dtls/mbedtls/mbedtls-2.16.2/library\ecdh.c ****     }
 673:D:/fchai/work/i-cube/I-CUBE-HUAWEI/Middlewares/Third_Party/Huawei/iot_link/network/dtls/mbedtls/mbedtls-2.16.2/library\ecdh.c **** #endif
 674:D:/fchai/work/i-cube/I-CUBE-HUAWEI/Middlewares/Third_Party/Huawei/iot_link/network/dtls/mbedtls/mbedtls-2.16.2/library\ecdh.c **** }
 1454              		.loc 1 674 1 view .LVU452
 1455 0030 02B0     		add	sp, sp, #8
 1456              	.LCFI42:
 1457              		.cfi_remember_state
 1458              		.cfi_def_cfa_offset 24
 1459              		@ sp needed
ARM GAS  T:\msys\tmp\cctaHzaT.s 			page 43


 1460 0032 BDE8F081 		pop	{r4, r5, r6, r7, r8, pc}
 1461              	.LVL131:
 1462              	.L77:
 1463              	.LCFI43:
 1464              		.cfi_restore_state
 1465              	.LBB116:
 1466              	.LBB114:
 636:D:/fchai/work/i-cube/I-CUBE-HUAWEI/Middlewares/Third_Party/Huawei/iot_link/network/dtls/mbedtls/mbedtls-2.16.2/library\ecdh.c ****         return( MBEDTLS_ERR_ECP_BAD_INPUT_DATA );
 1467              		.loc 1 636 5 is_stmt 1 view .LVU453
 636:D:/fchai/work/i-cube/I-CUBE-HUAWEI/Middlewares/Third_Party/Huawei/iot_link/network/dtls/mbedtls/mbedtls-2.16.2/library\ecdh.c ****         return( MBEDTLS_ERR_ECP_BAD_INPUT_DATA );
 1468              		.loc 1 636 9 is_stmt 0 view .LVU454
 1469 0036 3846     		mov	r0, r7
 1470              	.LVL132:
 636:D:/fchai/work/i-cube/I-CUBE-HUAWEI/Middlewares/Third_Party/Huawei/iot_link/network/dtls/mbedtls/mbedtls-2.16.2/library\ecdh.c ****         return( MBEDTLS_ERR_ECP_BAD_INPUT_DATA );
 1471              		.loc 1 636 9 view .LVU455
 1472 0038 FFF7FEFF 		bl	mbedtls_mpi_size
 1473              	.LVL133:
 636:D:/fchai/work/i-cube/I-CUBE-HUAWEI/Middlewares/Third_Party/Huawei/iot_link/network/dtls/mbedtls/mbedtls-2.16.2/library\ecdh.c ****         return( MBEDTLS_ERR_ECP_BAD_INPUT_DATA );
 1474              		.loc 1 636 7 view .LVU456
 1475 003c 8045     		cmp	r8, r0
 1476 003e 0ED3     		bcc	.L72
 639:D:/fchai/work/i-cube/I-CUBE-HUAWEI/Middlewares/Third_Party/Huawei/iot_link/network/dtls/mbedtls/mbedtls-2.16.2/library\ecdh.c ****     return mbedtls_mpi_write_binary( &ctx->z, buf, *olen );
 1477              		.loc 1 639 5 is_stmt 1 view .LVU457
 639:D:/fchai/work/i-cube/I-CUBE-HUAWEI/Middlewares/Third_Party/Huawei/iot_link/network/dtls/mbedtls/mbedtls-2.16.2/library\ecdh.c ****     return mbedtls_mpi_write_binary( &ctx->z, buf, *olen );
 1478              		.loc 1 639 21 is_stmt 0 view .LVU458
 1479 0040 A26D     		ldr	r2, [r4, #88]
 639:D:/fchai/work/i-cube/I-CUBE-HUAWEI/Middlewares/Third_Party/Huawei/iot_link/network/dtls/mbedtls/mbedtls-2.16.2/library\ecdh.c ****     return mbedtls_mpi_write_binary( &ctx->z, buf, *olen );
 1480              		.loc 1 639 59 view .LVU459
 1481 0042 12F00703 		ands	r3, r2, #7
 1482 0046 18BF     		it	ne
 1483 0048 0123     		movne	r3, #1
 639:D:/fchai/work/i-cube/I-CUBE-HUAWEI/Middlewares/Third_Party/Huawei/iot_link/network/dtls/mbedtls/mbedtls-2.16.2/library\ecdh.c ****     return mbedtls_mpi_write_binary( &ctx->z, buf, *olen );
 1484              		.loc 1 639 32 view .LVU460
 1485 004a 03EBD202 		add	r2, r3, r2, lsr #3
 640:D:/fchai/work/i-cube/I-CUBE-HUAWEI/Middlewares/Third_Party/Huawei/iot_link/network/dtls/mbedtls/mbedtls-2.16.2/library\ecdh.c **** }
 1486              		.loc 1 640 12 view .LVU461
 1487 004e 3146     		mov	r1, r6
 1488 0050 3846     		mov	r0, r7
 639:D:/fchai/work/i-cube/I-CUBE-HUAWEI/Middlewares/Third_Party/Huawei/iot_link/network/dtls/mbedtls/mbedtls-2.16.2/library\ecdh.c ****     return mbedtls_mpi_write_binary( &ctx->z, buf, *olen );
 1489              		.loc 1 639 11 view .LVU462
 1490 0052 2A60     		str	r2, [r5]
 640:D:/fchai/work/i-cube/I-CUBE-HUAWEI/Middlewares/Third_Party/Huawei/iot_link/network/dtls/mbedtls/mbedtls-2.16.2/library\ecdh.c **** }
 1491              		.loc 1 640 5 is_stmt 1 view .LVU463
 1492              	.LBE114:
 1493              	.LBE116:
 1494              		.loc 1 674 1 is_stmt 0 view .LVU464
 1495 0054 02B0     		add	sp, sp, #8
 1496              	.LCFI44:
 1497              		.cfi_remember_state
 1498              		.cfi_def_cfa_offset 24
 1499              		@ sp needed
 1500 0056 BDE8F041 		pop	{r4, r5, r6, r7, r8, lr}
 1501              	.LCFI45:
 1502              		.cfi_restore 14
 1503              		.cfi_restore 8
 1504              		.cfi_restore 7
 1505              		.cfi_restore 6
ARM GAS  T:\msys\tmp\cctaHzaT.s 			page 44


 1506              		.cfi_restore 5
 1507              		.cfi_restore 4
 1508              		.cfi_def_cfa_offset 0
 1509              	.LVL134:
 1510              	.LBB117:
 1511              	.LBB115:
 640:D:/fchai/work/i-cube/I-CUBE-HUAWEI/Middlewares/Third_Party/Huawei/iot_link/network/dtls/mbedtls/mbedtls-2.16.2/library\ecdh.c **** }
 1512              		.loc 1 640 12 view .LVU465
 1513 005a FFF7FEBF 		b	mbedtls_mpi_write_binary
 1514              	.LVL135:
 1515              	.L72:
 1516              	.LCFI46:
 1517              		.cfi_restore_state
 612:D:/fchai/work/i-cube/I-CUBE-HUAWEI/Middlewares/Third_Party/Huawei/iot_link/network/dtls/mbedtls/mbedtls-2.16.2/library\ecdh.c **** 
 1518              		.loc 1 612 15 view .LVU466
 1519 005e 0148     		ldr	r0, .L78
 1520 0060 E6E7     		b	.L69
 1521              	.L79:
 1522 0062 00BF     		.align	2
 1523              	.L78:
 1524 0064 80B0FFFF 		.word	-20352
 1525              	.LBE115:
 1526              	.LBE117:
 1527              		.cfi_endproc
 1528              	.LFE22:
 1530              		.text
 1531              	.Letext0:
 1532              		.file 2 "t:\\msys\\3rd\\gcc-arm-none-eabi-9-2020-q2-update-win32\\arm-none-eabi\\include\\machine\
 1533              		.file 3 "t:\\msys\\3rd\\gcc-arm-none-eabi-9-2020-q2-update-win32\\lib\\gcc\\arm-none-eabi\\9.3.1\\
 1534              		.file 4 "t:\\msys\\3rd\\gcc-arm-none-eabi-9-2020-q2-update-win32\\arm-none-eabi\\include\\sys\\_st
 1535              		.file 5 "D:/fchai/work/i-cube/I-CUBE-HUAWEI/Middlewares/Third_Party/Huawei/iot_link/network/dtls/m
 1536              		.file 6 "D:/fchai/work/i-cube/I-CUBE-HUAWEI/Middlewares/Third_Party/Huawei/iot_link/network/dtls/m
 1537              		.file 7 "D:/fchai/work/i-cube/I-CUBE-HUAWEI/Middlewares/Third_Party/Huawei/iot_link/network/dtls/m
 1538              		.file 8 "t:\\msys\\3rd\\gcc-arm-none-eabi-9-2020-q2-update-win32\\arm-none-eabi\\include\\sys\\_ty
 1539              		.file 9 "t:\\msys\\3rd\\gcc-arm-none-eabi-9-2020-q2-update-win32\\arm-none-eabi\\include\\sys\\ree
 1540              		.file 10 "t:\\msys\\3rd\\gcc-arm-none-eabi-9-2020-q2-update-win32\\arm-none-eabi\\include\\sys\\lo
ARM GAS  T:\msys\tmp\cctaHzaT.s 			page 45

