ARM GAS  T:\msys\tmp\ccyWqaJb.s 			page 1


   1              		.cpu cortex-m4
   2              		.eabi_attribute 27, 1
   3              		.eabi_attribute 28, 1
   4              		.eabi_attribute 20, 1
   5              		.eabi_attribute 21, 1
   6              		.eabi_attribute 23, 3
   7              		.eabi_attribute 24, 1
   8              		.eabi_attribute 25, 1
   9              		.eabi_attribute 26, 1
  10              		.eabi_attribute 30, 2
  11              		.eabi_attribute 34, 1
  12              		.eabi_attribute 18, 4
  13              		.file	"ecdsa.c"
  14              		.text
  15              	.Ltext0:
  16              		.cfi_sections	.debug_frame
  17              		.section	.text.derive_mpi,"ax",%progbits
  18              		.align	1
  19              		.p2align 2,,3
  20              		.arch armv7e-m
  21              		.syntax unified
  22              		.thumb
  23              		.thumb_func
  24              		.fpu fpv4-sp-d16
  26              	derive_mpi:
  27              	.LVL0:
  28              	.LFB3:
  29              		.file 1 "D:/fchai/work/i-cube/I-CUBE-HUAWEI/Middlewares/Third_Party/Huawei/iot_link/network/dtls/m
   1:D:/fchai/work/i-cube/I-CUBE-HUAWEI/Middlewares/Third_Party/Huawei/iot_link/network/dtls/mbedtls/mbedtls-2.16.2/library\ecdsa.c **** /*
   2:D:/fchai/work/i-cube/I-CUBE-HUAWEI/Middlewares/Third_Party/Huawei/iot_link/network/dtls/mbedtls/mbedtls-2.16.2/library\ecdsa.c ****  *  Elliptic curve DSA
   3:D:/fchai/work/i-cube/I-CUBE-HUAWEI/Middlewares/Third_Party/Huawei/iot_link/network/dtls/mbedtls/mbedtls-2.16.2/library\ecdsa.c ****  *
   4:D:/fchai/work/i-cube/I-CUBE-HUAWEI/Middlewares/Third_Party/Huawei/iot_link/network/dtls/mbedtls/mbedtls-2.16.2/library\ecdsa.c ****  *  Copyright (C) 2006-2015, ARM Limited, All Rights Reserved
   5:D:/fchai/work/i-cube/I-CUBE-HUAWEI/Middlewares/Third_Party/Huawei/iot_link/network/dtls/mbedtls/mbedtls-2.16.2/library\ecdsa.c ****  *  SPDX-License-Identifier: Apache-2.0
   6:D:/fchai/work/i-cube/I-CUBE-HUAWEI/Middlewares/Third_Party/Huawei/iot_link/network/dtls/mbedtls/mbedtls-2.16.2/library\ecdsa.c ****  *
   7:D:/fchai/work/i-cube/I-CUBE-HUAWEI/Middlewares/Third_Party/Huawei/iot_link/network/dtls/mbedtls/mbedtls-2.16.2/library\ecdsa.c ****  *  Licensed under the Apache License, Version 2.0 (the "License"); you may
   8:D:/fchai/work/i-cube/I-CUBE-HUAWEI/Middlewares/Third_Party/Huawei/iot_link/network/dtls/mbedtls/mbedtls-2.16.2/library\ecdsa.c ****  *  not use this file except in compliance with the License.
   9:D:/fchai/work/i-cube/I-CUBE-HUAWEI/Middlewares/Third_Party/Huawei/iot_link/network/dtls/mbedtls/mbedtls-2.16.2/library\ecdsa.c ****  *  You may obtain a copy of the License at
  10:D:/fchai/work/i-cube/I-CUBE-HUAWEI/Middlewares/Third_Party/Huawei/iot_link/network/dtls/mbedtls/mbedtls-2.16.2/library\ecdsa.c ****  *
  11:D:/fchai/work/i-cube/I-CUBE-HUAWEI/Middlewares/Third_Party/Huawei/iot_link/network/dtls/mbedtls/mbedtls-2.16.2/library\ecdsa.c ****  *  http://www.apache.org/licenses/LICENSE-2.0
  12:D:/fchai/work/i-cube/I-CUBE-HUAWEI/Middlewares/Third_Party/Huawei/iot_link/network/dtls/mbedtls/mbedtls-2.16.2/library\ecdsa.c ****  *
  13:D:/fchai/work/i-cube/I-CUBE-HUAWEI/Middlewares/Third_Party/Huawei/iot_link/network/dtls/mbedtls/mbedtls-2.16.2/library\ecdsa.c ****  *  Unless required by applicable law or agreed to in writing, software
  14:D:/fchai/work/i-cube/I-CUBE-HUAWEI/Middlewares/Third_Party/Huawei/iot_link/network/dtls/mbedtls/mbedtls-2.16.2/library\ecdsa.c ****  *  distributed under the License is distributed on an "AS IS" BASIS, WITHOUT
  15:D:/fchai/work/i-cube/I-CUBE-HUAWEI/Middlewares/Third_Party/Huawei/iot_link/network/dtls/mbedtls/mbedtls-2.16.2/library\ecdsa.c ****  *  WARRANTIES OR CONDITIONS OF ANY KIND, either express or implied.
  16:D:/fchai/work/i-cube/I-CUBE-HUAWEI/Middlewares/Third_Party/Huawei/iot_link/network/dtls/mbedtls/mbedtls-2.16.2/library\ecdsa.c ****  *  See the License for the specific language governing permissions and
  17:D:/fchai/work/i-cube/I-CUBE-HUAWEI/Middlewares/Third_Party/Huawei/iot_link/network/dtls/mbedtls/mbedtls-2.16.2/library\ecdsa.c ****  *  limitations under the License.
  18:D:/fchai/work/i-cube/I-CUBE-HUAWEI/Middlewares/Third_Party/Huawei/iot_link/network/dtls/mbedtls/mbedtls-2.16.2/library\ecdsa.c ****  *
  19:D:/fchai/work/i-cube/I-CUBE-HUAWEI/Middlewares/Third_Party/Huawei/iot_link/network/dtls/mbedtls/mbedtls-2.16.2/library\ecdsa.c ****  *  This file is part of mbed TLS (https://tls.mbed.org)
  20:D:/fchai/work/i-cube/I-CUBE-HUAWEI/Middlewares/Third_Party/Huawei/iot_link/network/dtls/mbedtls/mbedtls-2.16.2/library\ecdsa.c ****  */
  21:D:/fchai/work/i-cube/I-CUBE-HUAWEI/Middlewares/Third_Party/Huawei/iot_link/network/dtls/mbedtls/mbedtls-2.16.2/library\ecdsa.c **** 
  22:D:/fchai/work/i-cube/I-CUBE-HUAWEI/Middlewares/Third_Party/Huawei/iot_link/network/dtls/mbedtls/mbedtls-2.16.2/library\ecdsa.c **** /*
  23:D:/fchai/work/i-cube/I-CUBE-HUAWEI/Middlewares/Third_Party/Huawei/iot_link/network/dtls/mbedtls/mbedtls-2.16.2/library\ecdsa.c ****  * References:
  24:D:/fchai/work/i-cube/I-CUBE-HUAWEI/Middlewares/Third_Party/Huawei/iot_link/network/dtls/mbedtls/mbedtls-2.16.2/library\ecdsa.c ****  *
  25:D:/fchai/work/i-cube/I-CUBE-HUAWEI/Middlewares/Third_Party/Huawei/iot_link/network/dtls/mbedtls/mbedtls-2.16.2/library\ecdsa.c ****  * SEC1 http://www.secg.org/index.php?action=secg,docs_secg
  26:D:/fchai/work/i-cube/I-CUBE-HUAWEI/Middlewares/Third_Party/Huawei/iot_link/network/dtls/mbedtls/mbedtls-2.16.2/library\ecdsa.c ****  */
  27:D:/fchai/work/i-cube/I-CUBE-HUAWEI/Middlewares/Third_Party/Huawei/iot_link/network/dtls/mbedtls/mbedtls-2.16.2/library\ecdsa.c **** 
  28:D:/fchai/work/i-cube/I-CUBE-HUAWEI/Middlewares/Third_Party/Huawei/iot_link/network/dtls/mbedtls/mbedtls-2.16.2/library\ecdsa.c **** #if !defined(MBEDTLS_CONFIG_FILE)
  29:D:/fchai/work/i-cube/I-CUBE-HUAWEI/Middlewares/Third_Party/Huawei/iot_link/network/dtls/mbedtls/mbedtls-2.16.2/library\ecdsa.c **** #include "mbedtls/config.h"
ARM GAS  T:\msys\tmp\ccyWqaJb.s 			page 2


  30:D:/fchai/work/i-cube/I-CUBE-HUAWEI/Middlewares/Third_Party/Huawei/iot_link/network/dtls/mbedtls/mbedtls-2.16.2/library\ecdsa.c **** #else
  31:D:/fchai/work/i-cube/I-CUBE-HUAWEI/Middlewares/Third_Party/Huawei/iot_link/network/dtls/mbedtls/mbedtls-2.16.2/library\ecdsa.c **** #include MBEDTLS_CONFIG_FILE
  32:D:/fchai/work/i-cube/I-CUBE-HUAWEI/Middlewares/Third_Party/Huawei/iot_link/network/dtls/mbedtls/mbedtls-2.16.2/library\ecdsa.c **** #endif
  33:D:/fchai/work/i-cube/I-CUBE-HUAWEI/Middlewares/Third_Party/Huawei/iot_link/network/dtls/mbedtls/mbedtls-2.16.2/library\ecdsa.c **** 
  34:D:/fchai/work/i-cube/I-CUBE-HUAWEI/Middlewares/Third_Party/Huawei/iot_link/network/dtls/mbedtls/mbedtls-2.16.2/library\ecdsa.c **** #if defined(MBEDTLS_ECDSA_C)
  35:D:/fchai/work/i-cube/I-CUBE-HUAWEI/Middlewares/Third_Party/Huawei/iot_link/network/dtls/mbedtls/mbedtls-2.16.2/library\ecdsa.c **** 
  36:D:/fchai/work/i-cube/I-CUBE-HUAWEI/Middlewares/Third_Party/Huawei/iot_link/network/dtls/mbedtls/mbedtls-2.16.2/library\ecdsa.c **** #include "mbedtls/ecdsa.h"
  37:D:/fchai/work/i-cube/I-CUBE-HUAWEI/Middlewares/Third_Party/Huawei/iot_link/network/dtls/mbedtls/mbedtls-2.16.2/library\ecdsa.c **** #include "mbedtls/asn1write.h"
  38:D:/fchai/work/i-cube/I-CUBE-HUAWEI/Middlewares/Third_Party/Huawei/iot_link/network/dtls/mbedtls/mbedtls-2.16.2/library\ecdsa.c **** 
  39:D:/fchai/work/i-cube/I-CUBE-HUAWEI/Middlewares/Third_Party/Huawei/iot_link/network/dtls/mbedtls/mbedtls-2.16.2/library\ecdsa.c **** #include <string.h>
  40:D:/fchai/work/i-cube/I-CUBE-HUAWEI/Middlewares/Third_Party/Huawei/iot_link/network/dtls/mbedtls/mbedtls-2.16.2/library\ecdsa.c **** 
  41:D:/fchai/work/i-cube/I-CUBE-HUAWEI/Middlewares/Third_Party/Huawei/iot_link/network/dtls/mbedtls/mbedtls-2.16.2/library\ecdsa.c **** #if defined(MBEDTLS_ECDSA_DETERMINISTIC)
  42:D:/fchai/work/i-cube/I-CUBE-HUAWEI/Middlewares/Third_Party/Huawei/iot_link/network/dtls/mbedtls/mbedtls-2.16.2/library\ecdsa.c **** #include "mbedtls/hmac_drbg.h"
  43:D:/fchai/work/i-cube/I-CUBE-HUAWEI/Middlewares/Third_Party/Huawei/iot_link/network/dtls/mbedtls/mbedtls-2.16.2/library\ecdsa.c **** #endif
  44:D:/fchai/work/i-cube/I-CUBE-HUAWEI/Middlewares/Third_Party/Huawei/iot_link/network/dtls/mbedtls/mbedtls-2.16.2/library\ecdsa.c **** 
  45:D:/fchai/work/i-cube/I-CUBE-HUAWEI/Middlewares/Third_Party/Huawei/iot_link/network/dtls/mbedtls/mbedtls-2.16.2/library\ecdsa.c **** #if defined(MBEDTLS_PLATFORM_C)
  46:D:/fchai/work/i-cube/I-CUBE-HUAWEI/Middlewares/Third_Party/Huawei/iot_link/network/dtls/mbedtls/mbedtls-2.16.2/library\ecdsa.c **** #include "mbedtls/platform.h"
  47:D:/fchai/work/i-cube/I-CUBE-HUAWEI/Middlewares/Third_Party/Huawei/iot_link/network/dtls/mbedtls/mbedtls-2.16.2/library\ecdsa.c **** #else
  48:D:/fchai/work/i-cube/I-CUBE-HUAWEI/Middlewares/Third_Party/Huawei/iot_link/network/dtls/mbedtls/mbedtls-2.16.2/library\ecdsa.c **** #include <stdlib.h>
  49:D:/fchai/work/i-cube/I-CUBE-HUAWEI/Middlewares/Third_Party/Huawei/iot_link/network/dtls/mbedtls/mbedtls-2.16.2/library\ecdsa.c **** #define mbedtls_calloc    calloc
  50:D:/fchai/work/i-cube/I-CUBE-HUAWEI/Middlewares/Third_Party/Huawei/iot_link/network/dtls/mbedtls/mbedtls-2.16.2/library\ecdsa.c **** #define mbedtls_free       free
  51:D:/fchai/work/i-cube/I-CUBE-HUAWEI/Middlewares/Third_Party/Huawei/iot_link/network/dtls/mbedtls/mbedtls-2.16.2/library\ecdsa.c **** #endif
  52:D:/fchai/work/i-cube/I-CUBE-HUAWEI/Middlewares/Third_Party/Huawei/iot_link/network/dtls/mbedtls/mbedtls-2.16.2/library\ecdsa.c **** 
  53:D:/fchai/work/i-cube/I-CUBE-HUAWEI/Middlewares/Third_Party/Huawei/iot_link/network/dtls/mbedtls/mbedtls-2.16.2/library\ecdsa.c **** #include "mbedtls/platform_util.h"
  54:D:/fchai/work/i-cube/I-CUBE-HUAWEI/Middlewares/Third_Party/Huawei/iot_link/network/dtls/mbedtls/mbedtls-2.16.2/library\ecdsa.c **** 
  55:D:/fchai/work/i-cube/I-CUBE-HUAWEI/Middlewares/Third_Party/Huawei/iot_link/network/dtls/mbedtls/mbedtls-2.16.2/library\ecdsa.c **** /* Parameter validation macros based on platform_util.h */
  56:D:/fchai/work/i-cube/I-CUBE-HUAWEI/Middlewares/Third_Party/Huawei/iot_link/network/dtls/mbedtls/mbedtls-2.16.2/library\ecdsa.c **** #define ECDSA_VALIDATE_RET( cond )    \
  57:D:/fchai/work/i-cube/I-CUBE-HUAWEI/Middlewares/Third_Party/Huawei/iot_link/network/dtls/mbedtls/mbedtls-2.16.2/library\ecdsa.c ****     MBEDTLS_INTERNAL_VALIDATE_RET( cond, MBEDTLS_ERR_ECP_BAD_INPUT_DATA )
  58:D:/fchai/work/i-cube/I-CUBE-HUAWEI/Middlewares/Third_Party/Huawei/iot_link/network/dtls/mbedtls/mbedtls-2.16.2/library\ecdsa.c **** #define ECDSA_VALIDATE( cond )        \
  59:D:/fchai/work/i-cube/I-CUBE-HUAWEI/Middlewares/Third_Party/Huawei/iot_link/network/dtls/mbedtls/mbedtls-2.16.2/library\ecdsa.c ****     MBEDTLS_INTERNAL_VALIDATE( cond )
  60:D:/fchai/work/i-cube/I-CUBE-HUAWEI/Middlewares/Third_Party/Huawei/iot_link/network/dtls/mbedtls/mbedtls-2.16.2/library\ecdsa.c **** 
  61:D:/fchai/work/i-cube/I-CUBE-HUAWEI/Middlewares/Third_Party/Huawei/iot_link/network/dtls/mbedtls/mbedtls-2.16.2/library\ecdsa.c **** #if defined(MBEDTLS_ECP_RESTARTABLE)
  62:D:/fchai/work/i-cube/I-CUBE-HUAWEI/Middlewares/Third_Party/Huawei/iot_link/network/dtls/mbedtls/mbedtls-2.16.2/library\ecdsa.c **** 
  63:D:/fchai/work/i-cube/I-CUBE-HUAWEI/Middlewares/Third_Party/Huawei/iot_link/network/dtls/mbedtls/mbedtls-2.16.2/library\ecdsa.c **** /*
  64:D:/fchai/work/i-cube/I-CUBE-HUAWEI/Middlewares/Third_Party/Huawei/iot_link/network/dtls/mbedtls/mbedtls-2.16.2/library\ecdsa.c ****  * Sub-context for ecdsa_verify()
  65:D:/fchai/work/i-cube/I-CUBE-HUAWEI/Middlewares/Third_Party/Huawei/iot_link/network/dtls/mbedtls/mbedtls-2.16.2/library\ecdsa.c ****  */
  66:D:/fchai/work/i-cube/I-CUBE-HUAWEI/Middlewares/Third_Party/Huawei/iot_link/network/dtls/mbedtls/mbedtls-2.16.2/library\ecdsa.c **** struct mbedtls_ecdsa_restart_ver
  67:D:/fchai/work/i-cube/I-CUBE-HUAWEI/Middlewares/Third_Party/Huawei/iot_link/network/dtls/mbedtls/mbedtls-2.16.2/library\ecdsa.c **** {
  68:D:/fchai/work/i-cube/I-CUBE-HUAWEI/Middlewares/Third_Party/Huawei/iot_link/network/dtls/mbedtls/mbedtls-2.16.2/library\ecdsa.c ****     mbedtls_mpi u1, u2;     /* intermediate values  */
  69:D:/fchai/work/i-cube/I-CUBE-HUAWEI/Middlewares/Third_Party/Huawei/iot_link/network/dtls/mbedtls/mbedtls-2.16.2/library\ecdsa.c ****     enum {                  /* what to do next?     */
  70:D:/fchai/work/i-cube/I-CUBE-HUAWEI/Middlewares/Third_Party/Huawei/iot_link/network/dtls/mbedtls/mbedtls-2.16.2/library\ecdsa.c ****         ecdsa_ver_init = 0, /* getting started      */
  71:D:/fchai/work/i-cube/I-CUBE-HUAWEI/Middlewares/Third_Party/Huawei/iot_link/network/dtls/mbedtls/mbedtls-2.16.2/library\ecdsa.c ****         ecdsa_ver_muladd,   /* muladd step          */
  72:D:/fchai/work/i-cube/I-CUBE-HUAWEI/Middlewares/Third_Party/Huawei/iot_link/network/dtls/mbedtls/mbedtls-2.16.2/library\ecdsa.c ****     } state;
  73:D:/fchai/work/i-cube/I-CUBE-HUAWEI/Middlewares/Third_Party/Huawei/iot_link/network/dtls/mbedtls/mbedtls-2.16.2/library\ecdsa.c **** };
  74:D:/fchai/work/i-cube/I-CUBE-HUAWEI/Middlewares/Third_Party/Huawei/iot_link/network/dtls/mbedtls/mbedtls-2.16.2/library\ecdsa.c **** 
  75:D:/fchai/work/i-cube/I-CUBE-HUAWEI/Middlewares/Third_Party/Huawei/iot_link/network/dtls/mbedtls/mbedtls-2.16.2/library\ecdsa.c **** /*
  76:D:/fchai/work/i-cube/I-CUBE-HUAWEI/Middlewares/Third_Party/Huawei/iot_link/network/dtls/mbedtls/mbedtls-2.16.2/library\ecdsa.c ****  * Init verify restart sub-context
  77:D:/fchai/work/i-cube/I-CUBE-HUAWEI/Middlewares/Third_Party/Huawei/iot_link/network/dtls/mbedtls/mbedtls-2.16.2/library\ecdsa.c ****  */
  78:D:/fchai/work/i-cube/I-CUBE-HUAWEI/Middlewares/Third_Party/Huawei/iot_link/network/dtls/mbedtls/mbedtls-2.16.2/library\ecdsa.c **** static void ecdsa_restart_ver_init( mbedtls_ecdsa_restart_ver_ctx *ctx )
  79:D:/fchai/work/i-cube/I-CUBE-HUAWEI/Middlewares/Third_Party/Huawei/iot_link/network/dtls/mbedtls/mbedtls-2.16.2/library\ecdsa.c **** {
  80:D:/fchai/work/i-cube/I-CUBE-HUAWEI/Middlewares/Third_Party/Huawei/iot_link/network/dtls/mbedtls/mbedtls-2.16.2/library\ecdsa.c ****     mbedtls_mpi_init( &ctx->u1 );
  81:D:/fchai/work/i-cube/I-CUBE-HUAWEI/Middlewares/Third_Party/Huawei/iot_link/network/dtls/mbedtls/mbedtls-2.16.2/library\ecdsa.c ****     mbedtls_mpi_init( &ctx->u2 );
  82:D:/fchai/work/i-cube/I-CUBE-HUAWEI/Middlewares/Third_Party/Huawei/iot_link/network/dtls/mbedtls/mbedtls-2.16.2/library\ecdsa.c ****     ctx->state = ecdsa_ver_init;
  83:D:/fchai/work/i-cube/I-CUBE-HUAWEI/Middlewares/Third_Party/Huawei/iot_link/network/dtls/mbedtls/mbedtls-2.16.2/library\ecdsa.c **** }
  84:D:/fchai/work/i-cube/I-CUBE-HUAWEI/Middlewares/Third_Party/Huawei/iot_link/network/dtls/mbedtls/mbedtls-2.16.2/library\ecdsa.c **** 
  85:D:/fchai/work/i-cube/I-CUBE-HUAWEI/Middlewares/Third_Party/Huawei/iot_link/network/dtls/mbedtls/mbedtls-2.16.2/library\ecdsa.c **** /*
  86:D:/fchai/work/i-cube/I-CUBE-HUAWEI/Middlewares/Third_Party/Huawei/iot_link/network/dtls/mbedtls/mbedtls-2.16.2/library\ecdsa.c ****  * Free the components of a verify restart sub-context
ARM GAS  T:\msys\tmp\ccyWqaJb.s 			page 3


  87:D:/fchai/work/i-cube/I-CUBE-HUAWEI/Middlewares/Third_Party/Huawei/iot_link/network/dtls/mbedtls/mbedtls-2.16.2/library\ecdsa.c ****  */
  88:D:/fchai/work/i-cube/I-CUBE-HUAWEI/Middlewares/Third_Party/Huawei/iot_link/network/dtls/mbedtls/mbedtls-2.16.2/library\ecdsa.c **** static void ecdsa_restart_ver_free( mbedtls_ecdsa_restart_ver_ctx *ctx )
  89:D:/fchai/work/i-cube/I-CUBE-HUAWEI/Middlewares/Third_Party/Huawei/iot_link/network/dtls/mbedtls/mbedtls-2.16.2/library\ecdsa.c **** {
  90:D:/fchai/work/i-cube/I-CUBE-HUAWEI/Middlewares/Third_Party/Huawei/iot_link/network/dtls/mbedtls/mbedtls-2.16.2/library\ecdsa.c ****     if( ctx == NULL )
  91:D:/fchai/work/i-cube/I-CUBE-HUAWEI/Middlewares/Third_Party/Huawei/iot_link/network/dtls/mbedtls/mbedtls-2.16.2/library\ecdsa.c ****         return;
  92:D:/fchai/work/i-cube/I-CUBE-HUAWEI/Middlewares/Third_Party/Huawei/iot_link/network/dtls/mbedtls/mbedtls-2.16.2/library\ecdsa.c **** 
  93:D:/fchai/work/i-cube/I-CUBE-HUAWEI/Middlewares/Third_Party/Huawei/iot_link/network/dtls/mbedtls/mbedtls-2.16.2/library\ecdsa.c ****     mbedtls_mpi_free( &ctx->u1 );
  94:D:/fchai/work/i-cube/I-CUBE-HUAWEI/Middlewares/Third_Party/Huawei/iot_link/network/dtls/mbedtls/mbedtls-2.16.2/library\ecdsa.c ****     mbedtls_mpi_free( &ctx->u2 );
  95:D:/fchai/work/i-cube/I-CUBE-HUAWEI/Middlewares/Third_Party/Huawei/iot_link/network/dtls/mbedtls/mbedtls-2.16.2/library\ecdsa.c **** 
  96:D:/fchai/work/i-cube/I-CUBE-HUAWEI/Middlewares/Third_Party/Huawei/iot_link/network/dtls/mbedtls/mbedtls-2.16.2/library\ecdsa.c ****     ecdsa_restart_ver_init( ctx );
  97:D:/fchai/work/i-cube/I-CUBE-HUAWEI/Middlewares/Third_Party/Huawei/iot_link/network/dtls/mbedtls/mbedtls-2.16.2/library\ecdsa.c **** }
  98:D:/fchai/work/i-cube/I-CUBE-HUAWEI/Middlewares/Third_Party/Huawei/iot_link/network/dtls/mbedtls/mbedtls-2.16.2/library\ecdsa.c **** 
  99:D:/fchai/work/i-cube/I-CUBE-HUAWEI/Middlewares/Third_Party/Huawei/iot_link/network/dtls/mbedtls/mbedtls-2.16.2/library\ecdsa.c **** /*
 100:D:/fchai/work/i-cube/I-CUBE-HUAWEI/Middlewares/Third_Party/Huawei/iot_link/network/dtls/mbedtls/mbedtls-2.16.2/library\ecdsa.c ****  * Sub-context for ecdsa_sign()
 101:D:/fchai/work/i-cube/I-CUBE-HUAWEI/Middlewares/Third_Party/Huawei/iot_link/network/dtls/mbedtls/mbedtls-2.16.2/library\ecdsa.c ****  */
 102:D:/fchai/work/i-cube/I-CUBE-HUAWEI/Middlewares/Third_Party/Huawei/iot_link/network/dtls/mbedtls/mbedtls-2.16.2/library\ecdsa.c **** struct mbedtls_ecdsa_restart_sig
 103:D:/fchai/work/i-cube/I-CUBE-HUAWEI/Middlewares/Third_Party/Huawei/iot_link/network/dtls/mbedtls/mbedtls-2.16.2/library\ecdsa.c **** {
 104:D:/fchai/work/i-cube/I-CUBE-HUAWEI/Middlewares/Third_Party/Huawei/iot_link/network/dtls/mbedtls/mbedtls-2.16.2/library\ecdsa.c ****     int sign_tries;
 105:D:/fchai/work/i-cube/I-CUBE-HUAWEI/Middlewares/Third_Party/Huawei/iot_link/network/dtls/mbedtls/mbedtls-2.16.2/library\ecdsa.c ****     int key_tries;
 106:D:/fchai/work/i-cube/I-CUBE-HUAWEI/Middlewares/Third_Party/Huawei/iot_link/network/dtls/mbedtls/mbedtls-2.16.2/library\ecdsa.c ****     mbedtls_mpi k;          /* per-signature random */
 107:D:/fchai/work/i-cube/I-CUBE-HUAWEI/Middlewares/Third_Party/Huawei/iot_link/network/dtls/mbedtls/mbedtls-2.16.2/library\ecdsa.c ****     mbedtls_mpi r;          /* r value              */
 108:D:/fchai/work/i-cube/I-CUBE-HUAWEI/Middlewares/Third_Party/Huawei/iot_link/network/dtls/mbedtls/mbedtls-2.16.2/library\ecdsa.c ****     enum {                  /* what to do next?     */
 109:D:/fchai/work/i-cube/I-CUBE-HUAWEI/Middlewares/Third_Party/Huawei/iot_link/network/dtls/mbedtls/mbedtls-2.16.2/library\ecdsa.c ****         ecdsa_sig_init = 0, /* getting started      */
 110:D:/fchai/work/i-cube/I-CUBE-HUAWEI/Middlewares/Third_Party/Huawei/iot_link/network/dtls/mbedtls/mbedtls-2.16.2/library\ecdsa.c ****         ecdsa_sig_mul,      /* doing ecp_mul()      */
 111:D:/fchai/work/i-cube/I-CUBE-HUAWEI/Middlewares/Third_Party/Huawei/iot_link/network/dtls/mbedtls/mbedtls-2.16.2/library\ecdsa.c ****         ecdsa_sig_modn,     /* mod N computations   */
 112:D:/fchai/work/i-cube/I-CUBE-HUAWEI/Middlewares/Third_Party/Huawei/iot_link/network/dtls/mbedtls/mbedtls-2.16.2/library\ecdsa.c ****     } state;
 113:D:/fchai/work/i-cube/I-CUBE-HUAWEI/Middlewares/Third_Party/Huawei/iot_link/network/dtls/mbedtls/mbedtls-2.16.2/library\ecdsa.c **** };
 114:D:/fchai/work/i-cube/I-CUBE-HUAWEI/Middlewares/Third_Party/Huawei/iot_link/network/dtls/mbedtls/mbedtls-2.16.2/library\ecdsa.c **** 
 115:D:/fchai/work/i-cube/I-CUBE-HUAWEI/Middlewares/Third_Party/Huawei/iot_link/network/dtls/mbedtls/mbedtls-2.16.2/library\ecdsa.c **** /*
 116:D:/fchai/work/i-cube/I-CUBE-HUAWEI/Middlewares/Third_Party/Huawei/iot_link/network/dtls/mbedtls/mbedtls-2.16.2/library\ecdsa.c ****  * Init verify sign sub-context
 117:D:/fchai/work/i-cube/I-CUBE-HUAWEI/Middlewares/Third_Party/Huawei/iot_link/network/dtls/mbedtls/mbedtls-2.16.2/library\ecdsa.c ****  */
 118:D:/fchai/work/i-cube/I-CUBE-HUAWEI/Middlewares/Third_Party/Huawei/iot_link/network/dtls/mbedtls/mbedtls-2.16.2/library\ecdsa.c **** static void ecdsa_restart_sig_init( mbedtls_ecdsa_restart_sig_ctx *ctx )
 119:D:/fchai/work/i-cube/I-CUBE-HUAWEI/Middlewares/Third_Party/Huawei/iot_link/network/dtls/mbedtls/mbedtls-2.16.2/library\ecdsa.c **** {
 120:D:/fchai/work/i-cube/I-CUBE-HUAWEI/Middlewares/Third_Party/Huawei/iot_link/network/dtls/mbedtls/mbedtls-2.16.2/library\ecdsa.c ****     ctx->sign_tries = 0;
 121:D:/fchai/work/i-cube/I-CUBE-HUAWEI/Middlewares/Third_Party/Huawei/iot_link/network/dtls/mbedtls/mbedtls-2.16.2/library\ecdsa.c ****     ctx->key_tries = 0;
 122:D:/fchai/work/i-cube/I-CUBE-HUAWEI/Middlewares/Third_Party/Huawei/iot_link/network/dtls/mbedtls/mbedtls-2.16.2/library\ecdsa.c ****     mbedtls_mpi_init( &ctx->k );
 123:D:/fchai/work/i-cube/I-CUBE-HUAWEI/Middlewares/Third_Party/Huawei/iot_link/network/dtls/mbedtls/mbedtls-2.16.2/library\ecdsa.c ****     mbedtls_mpi_init( &ctx->r );
 124:D:/fchai/work/i-cube/I-CUBE-HUAWEI/Middlewares/Third_Party/Huawei/iot_link/network/dtls/mbedtls/mbedtls-2.16.2/library\ecdsa.c ****     ctx->state = ecdsa_sig_init;
 125:D:/fchai/work/i-cube/I-CUBE-HUAWEI/Middlewares/Third_Party/Huawei/iot_link/network/dtls/mbedtls/mbedtls-2.16.2/library\ecdsa.c **** }
 126:D:/fchai/work/i-cube/I-CUBE-HUAWEI/Middlewares/Third_Party/Huawei/iot_link/network/dtls/mbedtls/mbedtls-2.16.2/library\ecdsa.c **** 
 127:D:/fchai/work/i-cube/I-CUBE-HUAWEI/Middlewares/Third_Party/Huawei/iot_link/network/dtls/mbedtls/mbedtls-2.16.2/library\ecdsa.c **** /*
 128:D:/fchai/work/i-cube/I-CUBE-HUAWEI/Middlewares/Third_Party/Huawei/iot_link/network/dtls/mbedtls/mbedtls-2.16.2/library\ecdsa.c ****  * Free the components of a sign restart sub-context
 129:D:/fchai/work/i-cube/I-CUBE-HUAWEI/Middlewares/Third_Party/Huawei/iot_link/network/dtls/mbedtls/mbedtls-2.16.2/library\ecdsa.c ****  */
 130:D:/fchai/work/i-cube/I-CUBE-HUAWEI/Middlewares/Third_Party/Huawei/iot_link/network/dtls/mbedtls/mbedtls-2.16.2/library\ecdsa.c **** static void ecdsa_restart_sig_free( mbedtls_ecdsa_restart_sig_ctx *ctx )
 131:D:/fchai/work/i-cube/I-CUBE-HUAWEI/Middlewares/Third_Party/Huawei/iot_link/network/dtls/mbedtls/mbedtls-2.16.2/library\ecdsa.c **** {
 132:D:/fchai/work/i-cube/I-CUBE-HUAWEI/Middlewares/Third_Party/Huawei/iot_link/network/dtls/mbedtls/mbedtls-2.16.2/library\ecdsa.c ****     if( ctx == NULL )
 133:D:/fchai/work/i-cube/I-CUBE-HUAWEI/Middlewares/Third_Party/Huawei/iot_link/network/dtls/mbedtls/mbedtls-2.16.2/library\ecdsa.c ****         return;
 134:D:/fchai/work/i-cube/I-CUBE-HUAWEI/Middlewares/Third_Party/Huawei/iot_link/network/dtls/mbedtls/mbedtls-2.16.2/library\ecdsa.c **** 
 135:D:/fchai/work/i-cube/I-CUBE-HUAWEI/Middlewares/Third_Party/Huawei/iot_link/network/dtls/mbedtls/mbedtls-2.16.2/library\ecdsa.c ****     mbedtls_mpi_free( &ctx->k );
 136:D:/fchai/work/i-cube/I-CUBE-HUAWEI/Middlewares/Third_Party/Huawei/iot_link/network/dtls/mbedtls/mbedtls-2.16.2/library\ecdsa.c ****     mbedtls_mpi_free( &ctx->r );
 137:D:/fchai/work/i-cube/I-CUBE-HUAWEI/Middlewares/Third_Party/Huawei/iot_link/network/dtls/mbedtls/mbedtls-2.16.2/library\ecdsa.c **** }
 138:D:/fchai/work/i-cube/I-CUBE-HUAWEI/Middlewares/Third_Party/Huawei/iot_link/network/dtls/mbedtls/mbedtls-2.16.2/library\ecdsa.c **** 
 139:D:/fchai/work/i-cube/I-CUBE-HUAWEI/Middlewares/Third_Party/Huawei/iot_link/network/dtls/mbedtls/mbedtls-2.16.2/library\ecdsa.c **** #if defined(MBEDTLS_ECDSA_DETERMINISTIC)
 140:D:/fchai/work/i-cube/I-CUBE-HUAWEI/Middlewares/Third_Party/Huawei/iot_link/network/dtls/mbedtls/mbedtls-2.16.2/library\ecdsa.c **** /*
 141:D:/fchai/work/i-cube/I-CUBE-HUAWEI/Middlewares/Third_Party/Huawei/iot_link/network/dtls/mbedtls/mbedtls-2.16.2/library\ecdsa.c ****  * Sub-context for ecdsa_sign_det()
 142:D:/fchai/work/i-cube/I-CUBE-HUAWEI/Middlewares/Third_Party/Huawei/iot_link/network/dtls/mbedtls/mbedtls-2.16.2/library\ecdsa.c ****  */
 143:D:/fchai/work/i-cube/I-CUBE-HUAWEI/Middlewares/Third_Party/Huawei/iot_link/network/dtls/mbedtls/mbedtls-2.16.2/library\ecdsa.c **** struct mbedtls_ecdsa_restart_det
ARM GAS  T:\msys\tmp\ccyWqaJb.s 			page 4


 144:D:/fchai/work/i-cube/I-CUBE-HUAWEI/Middlewares/Third_Party/Huawei/iot_link/network/dtls/mbedtls/mbedtls-2.16.2/library\ecdsa.c **** {
 145:D:/fchai/work/i-cube/I-CUBE-HUAWEI/Middlewares/Third_Party/Huawei/iot_link/network/dtls/mbedtls/mbedtls-2.16.2/library\ecdsa.c ****     mbedtls_hmac_drbg_context rng_ctx;  /* DRBG state   */
 146:D:/fchai/work/i-cube/I-CUBE-HUAWEI/Middlewares/Third_Party/Huawei/iot_link/network/dtls/mbedtls/mbedtls-2.16.2/library\ecdsa.c ****     enum {                      /* what to do next?     */
 147:D:/fchai/work/i-cube/I-CUBE-HUAWEI/Middlewares/Third_Party/Huawei/iot_link/network/dtls/mbedtls/mbedtls-2.16.2/library\ecdsa.c ****         ecdsa_det_init = 0,     /* getting started      */
 148:D:/fchai/work/i-cube/I-CUBE-HUAWEI/Middlewares/Third_Party/Huawei/iot_link/network/dtls/mbedtls/mbedtls-2.16.2/library\ecdsa.c ****         ecdsa_det_sign,         /* make signature       */
 149:D:/fchai/work/i-cube/I-CUBE-HUAWEI/Middlewares/Third_Party/Huawei/iot_link/network/dtls/mbedtls/mbedtls-2.16.2/library\ecdsa.c ****     } state;
 150:D:/fchai/work/i-cube/I-CUBE-HUAWEI/Middlewares/Third_Party/Huawei/iot_link/network/dtls/mbedtls/mbedtls-2.16.2/library\ecdsa.c **** };
 151:D:/fchai/work/i-cube/I-CUBE-HUAWEI/Middlewares/Third_Party/Huawei/iot_link/network/dtls/mbedtls/mbedtls-2.16.2/library\ecdsa.c **** 
 152:D:/fchai/work/i-cube/I-CUBE-HUAWEI/Middlewares/Third_Party/Huawei/iot_link/network/dtls/mbedtls/mbedtls-2.16.2/library\ecdsa.c **** /*
 153:D:/fchai/work/i-cube/I-CUBE-HUAWEI/Middlewares/Third_Party/Huawei/iot_link/network/dtls/mbedtls/mbedtls-2.16.2/library\ecdsa.c ****  * Init verify sign_det sub-context
 154:D:/fchai/work/i-cube/I-CUBE-HUAWEI/Middlewares/Third_Party/Huawei/iot_link/network/dtls/mbedtls/mbedtls-2.16.2/library\ecdsa.c ****  */
 155:D:/fchai/work/i-cube/I-CUBE-HUAWEI/Middlewares/Third_Party/Huawei/iot_link/network/dtls/mbedtls/mbedtls-2.16.2/library\ecdsa.c **** static void ecdsa_restart_det_init( mbedtls_ecdsa_restart_det_ctx *ctx )
 156:D:/fchai/work/i-cube/I-CUBE-HUAWEI/Middlewares/Third_Party/Huawei/iot_link/network/dtls/mbedtls/mbedtls-2.16.2/library\ecdsa.c **** {
 157:D:/fchai/work/i-cube/I-CUBE-HUAWEI/Middlewares/Third_Party/Huawei/iot_link/network/dtls/mbedtls/mbedtls-2.16.2/library\ecdsa.c ****     mbedtls_hmac_drbg_init( &ctx->rng_ctx );
 158:D:/fchai/work/i-cube/I-CUBE-HUAWEI/Middlewares/Third_Party/Huawei/iot_link/network/dtls/mbedtls/mbedtls-2.16.2/library\ecdsa.c ****     ctx->state = ecdsa_det_init;
 159:D:/fchai/work/i-cube/I-CUBE-HUAWEI/Middlewares/Third_Party/Huawei/iot_link/network/dtls/mbedtls/mbedtls-2.16.2/library\ecdsa.c **** }
 160:D:/fchai/work/i-cube/I-CUBE-HUAWEI/Middlewares/Third_Party/Huawei/iot_link/network/dtls/mbedtls/mbedtls-2.16.2/library\ecdsa.c **** 
 161:D:/fchai/work/i-cube/I-CUBE-HUAWEI/Middlewares/Third_Party/Huawei/iot_link/network/dtls/mbedtls/mbedtls-2.16.2/library\ecdsa.c **** /*
 162:D:/fchai/work/i-cube/I-CUBE-HUAWEI/Middlewares/Third_Party/Huawei/iot_link/network/dtls/mbedtls/mbedtls-2.16.2/library\ecdsa.c ****  * Free the components of a sign_det restart sub-context
 163:D:/fchai/work/i-cube/I-CUBE-HUAWEI/Middlewares/Third_Party/Huawei/iot_link/network/dtls/mbedtls/mbedtls-2.16.2/library\ecdsa.c ****  */
 164:D:/fchai/work/i-cube/I-CUBE-HUAWEI/Middlewares/Third_Party/Huawei/iot_link/network/dtls/mbedtls/mbedtls-2.16.2/library\ecdsa.c **** static void ecdsa_restart_det_free( mbedtls_ecdsa_restart_det_ctx *ctx )
 165:D:/fchai/work/i-cube/I-CUBE-HUAWEI/Middlewares/Third_Party/Huawei/iot_link/network/dtls/mbedtls/mbedtls-2.16.2/library\ecdsa.c **** {
 166:D:/fchai/work/i-cube/I-CUBE-HUAWEI/Middlewares/Third_Party/Huawei/iot_link/network/dtls/mbedtls/mbedtls-2.16.2/library\ecdsa.c ****     if( ctx == NULL )
 167:D:/fchai/work/i-cube/I-CUBE-HUAWEI/Middlewares/Third_Party/Huawei/iot_link/network/dtls/mbedtls/mbedtls-2.16.2/library\ecdsa.c ****         return;
 168:D:/fchai/work/i-cube/I-CUBE-HUAWEI/Middlewares/Third_Party/Huawei/iot_link/network/dtls/mbedtls/mbedtls-2.16.2/library\ecdsa.c **** 
 169:D:/fchai/work/i-cube/I-CUBE-HUAWEI/Middlewares/Third_Party/Huawei/iot_link/network/dtls/mbedtls/mbedtls-2.16.2/library\ecdsa.c ****     mbedtls_hmac_drbg_free( &ctx->rng_ctx );
 170:D:/fchai/work/i-cube/I-CUBE-HUAWEI/Middlewares/Third_Party/Huawei/iot_link/network/dtls/mbedtls/mbedtls-2.16.2/library\ecdsa.c **** 
 171:D:/fchai/work/i-cube/I-CUBE-HUAWEI/Middlewares/Third_Party/Huawei/iot_link/network/dtls/mbedtls/mbedtls-2.16.2/library\ecdsa.c ****     ecdsa_restart_det_init( ctx );
 172:D:/fchai/work/i-cube/I-CUBE-HUAWEI/Middlewares/Third_Party/Huawei/iot_link/network/dtls/mbedtls/mbedtls-2.16.2/library\ecdsa.c **** }
 173:D:/fchai/work/i-cube/I-CUBE-HUAWEI/Middlewares/Third_Party/Huawei/iot_link/network/dtls/mbedtls/mbedtls-2.16.2/library\ecdsa.c **** #endif /* MBEDTLS_ECDSA_DETERMINISTIC */
 174:D:/fchai/work/i-cube/I-CUBE-HUAWEI/Middlewares/Third_Party/Huawei/iot_link/network/dtls/mbedtls/mbedtls-2.16.2/library\ecdsa.c **** 
 175:D:/fchai/work/i-cube/I-CUBE-HUAWEI/Middlewares/Third_Party/Huawei/iot_link/network/dtls/mbedtls/mbedtls-2.16.2/library\ecdsa.c **** #define ECDSA_RS_ECP    &rs_ctx->ecp
 176:D:/fchai/work/i-cube/I-CUBE-HUAWEI/Middlewares/Third_Party/Huawei/iot_link/network/dtls/mbedtls/mbedtls-2.16.2/library\ecdsa.c **** 
 177:D:/fchai/work/i-cube/I-CUBE-HUAWEI/Middlewares/Third_Party/Huawei/iot_link/network/dtls/mbedtls/mbedtls-2.16.2/library\ecdsa.c **** /* Utility macro for checking and updating ops budget */
 178:D:/fchai/work/i-cube/I-CUBE-HUAWEI/Middlewares/Third_Party/Huawei/iot_link/network/dtls/mbedtls/mbedtls-2.16.2/library\ecdsa.c **** #define ECDSA_BUDGET( ops )   \
 179:D:/fchai/work/i-cube/I-CUBE-HUAWEI/Middlewares/Third_Party/Huawei/iot_link/network/dtls/mbedtls/mbedtls-2.16.2/library\ecdsa.c ****     MBEDTLS_MPI_CHK( mbedtls_ecp_check_budget( grp, &rs_ctx->ecp, ops ) );
 180:D:/fchai/work/i-cube/I-CUBE-HUAWEI/Middlewares/Third_Party/Huawei/iot_link/network/dtls/mbedtls/mbedtls-2.16.2/library\ecdsa.c **** 
 181:D:/fchai/work/i-cube/I-CUBE-HUAWEI/Middlewares/Third_Party/Huawei/iot_link/network/dtls/mbedtls/mbedtls-2.16.2/library\ecdsa.c **** /* Call this when entering a function that needs its own sub-context */
 182:D:/fchai/work/i-cube/I-CUBE-HUAWEI/Middlewares/Third_Party/Huawei/iot_link/network/dtls/mbedtls/mbedtls-2.16.2/library\ecdsa.c **** #define ECDSA_RS_ENTER( SUB )   do {                                 \
 183:D:/fchai/work/i-cube/I-CUBE-HUAWEI/Middlewares/Third_Party/Huawei/iot_link/network/dtls/mbedtls/mbedtls-2.16.2/library\ecdsa.c ****     /* reset ops count for this call if top-level */                 \
 184:D:/fchai/work/i-cube/I-CUBE-HUAWEI/Middlewares/Third_Party/Huawei/iot_link/network/dtls/mbedtls/mbedtls-2.16.2/library\ecdsa.c ****     if( rs_ctx != NULL && rs_ctx->ecp.depth++ == 0 )                 \
 185:D:/fchai/work/i-cube/I-CUBE-HUAWEI/Middlewares/Third_Party/Huawei/iot_link/network/dtls/mbedtls/mbedtls-2.16.2/library\ecdsa.c ****         rs_ctx->ecp.ops_done = 0;                                    \
 186:D:/fchai/work/i-cube/I-CUBE-HUAWEI/Middlewares/Third_Party/Huawei/iot_link/network/dtls/mbedtls/mbedtls-2.16.2/library\ecdsa.c ****                                                                      \
 187:D:/fchai/work/i-cube/I-CUBE-HUAWEI/Middlewares/Third_Party/Huawei/iot_link/network/dtls/mbedtls/mbedtls-2.16.2/library\ecdsa.c ****     /* set up our own sub-context if needed */                       \
 188:D:/fchai/work/i-cube/I-CUBE-HUAWEI/Middlewares/Third_Party/Huawei/iot_link/network/dtls/mbedtls/mbedtls-2.16.2/library\ecdsa.c ****     if( mbedtls_ecp_restart_is_enabled() &&                          \
 189:D:/fchai/work/i-cube/I-CUBE-HUAWEI/Middlewares/Third_Party/Huawei/iot_link/network/dtls/mbedtls/mbedtls-2.16.2/library\ecdsa.c ****         rs_ctx != NULL && rs_ctx->SUB == NULL )                      \
 190:D:/fchai/work/i-cube/I-CUBE-HUAWEI/Middlewares/Third_Party/Huawei/iot_link/network/dtls/mbedtls/mbedtls-2.16.2/library\ecdsa.c ****     {                                                                \
 191:D:/fchai/work/i-cube/I-CUBE-HUAWEI/Middlewares/Third_Party/Huawei/iot_link/network/dtls/mbedtls/mbedtls-2.16.2/library\ecdsa.c ****         rs_ctx->SUB = mbedtls_calloc( 1, sizeof( *rs_ctx->SUB ) );   \
 192:D:/fchai/work/i-cube/I-CUBE-HUAWEI/Middlewares/Third_Party/Huawei/iot_link/network/dtls/mbedtls/mbedtls-2.16.2/library\ecdsa.c ****         if( rs_ctx->SUB == NULL )                                    \
 193:D:/fchai/work/i-cube/I-CUBE-HUAWEI/Middlewares/Third_Party/Huawei/iot_link/network/dtls/mbedtls/mbedtls-2.16.2/library\ecdsa.c ****             return( MBEDTLS_ERR_ECP_ALLOC_FAILED );                  \
 194:D:/fchai/work/i-cube/I-CUBE-HUAWEI/Middlewares/Third_Party/Huawei/iot_link/network/dtls/mbedtls/mbedtls-2.16.2/library\ecdsa.c ****                                                                      \
 195:D:/fchai/work/i-cube/I-CUBE-HUAWEI/Middlewares/Third_Party/Huawei/iot_link/network/dtls/mbedtls/mbedtls-2.16.2/library\ecdsa.c ****         ecdsa_restart_## SUB ##_init( rs_ctx->SUB );                 \
 196:D:/fchai/work/i-cube/I-CUBE-HUAWEI/Middlewares/Third_Party/Huawei/iot_link/network/dtls/mbedtls/mbedtls-2.16.2/library\ecdsa.c ****     }                                                                \
 197:D:/fchai/work/i-cube/I-CUBE-HUAWEI/Middlewares/Third_Party/Huawei/iot_link/network/dtls/mbedtls/mbedtls-2.16.2/library\ecdsa.c **** } while( 0 )
 198:D:/fchai/work/i-cube/I-CUBE-HUAWEI/Middlewares/Third_Party/Huawei/iot_link/network/dtls/mbedtls/mbedtls-2.16.2/library\ecdsa.c **** 
 199:D:/fchai/work/i-cube/I-CUBE-HUAWEI/Middlewares/Third_Party/Huawei/iot_link/network/dtls/mbedtls/mbedtls-2.16.2/library\ecdsa.c **** /* Call this when leaving a function that needs its own sub-context */
 200:D:/fchai/work/i-cube/I-CUBE-HUAWEI/Middlewares/Third_Party/Huawei/iot_link/network/dtls/mbedtls/mbedtls-2.16.2/library\ecdsa.c **** #define ECDSA_RS_LEAVE( SUB )   do {                                 \
ARM GAS  T:\msys\tmp\ccyWqaJb.s 			page 5


 201:D:/fchai/work/i-cube/I-CUBE-HUAWEI/Middlewares/Third_Party/Huawei/iot_link/network/dtls/mbedtls/mbedtls-2.16.2/library\ecdsa.c ****     /* clear our sub-context when not in progress (done or error) */ \
 202:D:/fchai/work/i-cube/I-CUBE-HUAWEI/Middlewares/Third_Party/Huawei/iot_link/network/dtls/mbedtls/mbedtls-2.16.2/library\ecdsa.c ****     if( rs_ctx != NULL && rs_ctx->SUB != NULL &&                     \
 203:D:/fchai/work/i-cube/I-CUBE-HUAWEI/Middlewares/Third_Party/Huawei/iot_link/network/dtls/mbedtls/mbedtls-2.16.2/library\ecdsa.c ****         ret != MBEDTLS_ERR_ECP_IN_PROGRESS )                         \
 204:D:/fchai/work/i-cube/I-CUBE-HUAWEI/Middlewares/Third_Party/Huawei/iot_link/network/dtls/mbedtls/mbedtls-2.16.2/library\ecdsa.c ****     {                                                                \
 205:D:/fchai/work/i-cube/I-CUBE-HUAWEI/Middlewares/Third_Party/Huawei/iot_link/network/dtls/mbedtls/mbedtls-2.16.2/library\ecdsa.c ****         ecdsa_restart_## SUB ##_free( rs_ctx->SUB );                 \
 206:D:/fchai/work/i-cube/I-CUBE-HUAWEI/Middlewares/Third_Party/Huawei/iot_link/network/dtls/mbedtls/mbedtls-2.16.2/library\ecdsa.c ****         mbedtls_free( rs_ctx->SUB );                                 \
 207:D:/fchai/work/i-cube/I-CUBE-HUAWEI/Middlewares/Third_Party/Huawei/iot_link/network/dtls/mbedtls/mbedtls-2.16.2/library\ecdsa.c ****         rs_ctx->SUB = NULL;                                          \
 208:D:/fchai/work/i-cube/I-CUBE-HUAWEI/Middlewares/Third_Party/Huawei/iot_link/network/dtls/mbedtls/mbedtls-2.16.2/library\ecdsa.c ****     }                                                                \
 209:D:/fchai/work/i-cube/I-CUBE-HUAWEI/Middlewares/Third_Party/Huawei/iot_link/network/dtls/mbedtls/mbedtls-2.16.2/library\ecdsa.c ****                                                                      \
 210:D:/fchai/work/i-cube/I-CUBE-HUAWEI/Middlewares/Third_Party/Huawei/iot_link/network/dtls/mbedtls/mbedtls-2.16.2/library\ecdsa.c ****     if( rs_ctx != NULL )                                             \
 211:D:/fchai/work/i-cube/I-CUBE-HUAWEI/Middlewares/Third_Party/Huawei/iot_link/network/dtls/mbedtls/mbedtls-2.16.2/library\ecdsa.c ****         rs_ctx->ecp.depth--;                                         \
 212:D:/fchai/work/i-cube/I-CUBE-HUAWEI/Middlewares/Third_Party/Huawei/iot_link/network/dtls/mbedtls/mbedtls-2.16.2/library\ecdsa.c **** } while( 0 )
 213:D:/fchai/work/i-cube/I-CUBE-HUAWEI/Middlewares/Third_Party/Huawei/iot_link/network/dtls/mbedtls/mbedtls-2.16.2/library\ecdsa.c **** 
 214:D:/fchai/work/i-cube/I-CUBE-HUAWEI/Middlewares/Third_Party/Huawei/iot_link/network/dtls/mbedtls/mbedtls-2.16.2/library\ecdsa.c **** #else /* MBEDTLS_ECP_RESTARTABLE */
 215:D:/fchai/work/i-cube/I-CUBE-HUAWEI/Middlewares/Third_Party/Huawei/iot_link/network/dtls/mbedtls/mbedtls-2.16.2/library\ecdsa.c **** 
 216:D:/fchai/work/i-cube/I-CUBE-HUAWEI/Middlewares/Third_Party/Huawei/iot_link/network/dtls/mbedtls/mbedtls-2.16.2/library\ecdsa.c **** #define ECDSA_RS_ECP    NULL
 217:D:/fchai/work/i-cube/I-CUBE-HUAWEI/Middlewares/Third_Party/Huawei/iot_link/network/dtls/mbedtls/mbedtls-2.16.2/library\ecdsa.c **** 
 218:D:/fchai/work/i-cube/I-CUBE-HUAWEI/Middlewares/Third_Party/Huawei/iot_link/network/dtls/mbedtls/mbedtls-2.16.2/library\ecdsa.c **** #define ECDSA_BUDGET( ops )   /* no-op; for compatibility */
 219:D:/fchai/work/i-cube/I-CUBE-HUAWEI/Middlewares/Third_Party/Huawei/iot_link/network/dtls/mbedtls/mbedtls-2.16.2/library\ecdsa.c **** 
 220:D:/fchai/work/i-cube/I-CUBE-HUAWEI/Middlewares/Third_Party/Huawei/iot_link/network/dtls/mbedtls/mbedtls-2.16.2/library\ecdsa.c **** #define ECDSA_RS_ENTER( SUB )   (void) rs_ctx
 221:D:/fchai/work/i-cube/I-CUBE-HUAWEI/Middlewares/Third_Party/Huawei/iot_link/network/dtls/mbedtls/mbedtls-2.16.2/library\ecdsa.c **** #define ECDSA_RS_LEAVE( SUB )   (void) rs_ctx
 222:D:/fchai/work/i-cube/I-CUBE-HUAWEI/Middlewares/Third_Party/Huawei/iot_link/network/dtls/mbedtls/mbedtls-2.16.2/library\ecdsa.c **** 
 223:D:/fchai/work/i-cube/I-CUBE-HUAWEI/Middlewares/Third_Party/Huawei/iot_link/network/dtls/mbedtls/mbedtls-2.16.2/library\ecdsa.c **** #endif /* MBEDTLS_ECP_RESTARTABLE */
 224:D:/fchai/work/i-cube/I-CUBE-HUAWEI/Middlewares/Third_Party/Huawei/iot_link/network/dtls/mbedtls/mbedtls-2.16.2/library\ecdsa.c **** 
 225:D:/fchai/work/i-cube/I-CUBE-HUAWEI/Middlewares/Third_Party/Huawei/iot_link/network/dtls/mbedtls/mbedtls-2.16.2/library\ecdsa.c **** /*
 226:D:/fchai/work/i-cube/I-CUBE-HUAWEI/Middlewares/Third_Party/Huawei/iot_link/network/dtls/mbedtls/mbedtls-2.16.2/library\ecdsa.c ****  * Derive a suitable integer for group grp from a buffer of length len
 227:D:/fchai/work/i-cube/I-CUBE-HUAWEI/Middlewares/Third_Party/Huawei/iot_link/network/dtls/mbedtls/mbedtls-2.16.2/library\ecdsa.c ****  * SEC1 4.1.3 step 5 aka SEC1 4.1.4 step 3
 228:D:/fchai/work/i-cube/I-CUBE-HUAWEI/Middlewares/Third_Party/Huawei/iot_link/network/dtls/mbedtls/mbedtls-2.16.2/library\ecdsa.c ****  */
 229:D:/fchai/work/i-cube/I-CUBE-HUAWEI/Middlewares/Third_Party/Huawei/iot_link/network/dtls/mbedtls/mbedtls-2.16.2/library\ecdsa.c **** static int derive_mpi( const mbedtls_ecp_group *grp, mbedtls_mpi *x,
 230:D:/fchai/work/i-cube/I-CUBE-HUAWEI/Middlewares/Third_Party/Huawei/iot_link/network/dtls/mbedtls/mbedtls-2.16.2/library\ecdsa.c ****                        const unsigned char *buf, size_t blen )
 231:D:/fchai/work/i-cube/I-CUBE-HUAWEI/Middlewares/Third_Party/Huawei/iot_link/network/dtls/mbedtls/mbedtls-2.16.2/library\ecdsa.c **** {
  30              		.loc 1 231 1 view -0
  31              		.cfi_startproc
  32              		@ args = 0, pretend = 0, frame = 0
  33              		@ frame_needed = 0, uses_anonymous_args = 0
 232:D:/fchai/work/i-cube/I-CUBE-HUAWEI/Middlewares/Third_Party/Huawei/iot_link/network/dtls/mbedtls/mbedtls-2.16.2/library\ecdsa.c ****     int ret;
  34              		.loc 1 232 5 view .LVU1
 233:D:/fchai/work/i-cube/I-CUBE-HUAWEI/Middlewares/Third_Party/Huawei/iot_link/network/dtls/mbedtls/mbedtls-2.16.2/library\ecdsa.c ****     size_t n_size = ( grp->nbits + 7 ) / 8;
  35              		.loc 1 233 5 view .LVU2
 231:D:/fchai/work/i-cube/I-CUBE-HUAWEI/Middlewares/Third_Party/Huawei/iot_link/network/dtls/mbedtls/mbedtls-2.16.2/library\ecdsa.c ****     int ret;
  36              		.loc 1 231 1 is_stmt 0 view .LVU3
  37 0000 F8B5     		push	{r3, r4, r5, r6, r7, lr}
  38              	.LCFI0:
  39              		.cfi_def_cfa_offset 24
  40              		.cfi_offset 3, -24
  41              		.cfi_offset 4, -20
  42              		.cfi_offset 5, -16
  43              		.cfi_offset 6, -12
  44              		.cfi_offset 7, -8
  45              		.cfi_offset 14, -4
  46              		.loc 1 233 34 view .LVU4
  47 0002 C46D     		ldr	r4, [r0, #92]
  48 0004 E51D     		adds	r5, r4, #7
  49              		.loc 1 233 12 view .LVU5
  50 0006 ED08     		lsrs	r5, r5, #3
 234:D:/fchai/work/i-cube/I-CUBE-HUAWEI/Middlewares/Third_Party/Huawei/iot_link/network/dtls/mbedtls/mbedtls-2.16.2/library\ecdsa.c ****     size_t use_size = blen > n_size ? n_size : blen;
  51              		.loc 1 234 12 view .LVU6
ARM GAS  T:\msys\tmp\ccyWqaJb.s 			page 6


  52 0008 9D42     		cmp	r5, r3
  53 000a 2C46     		mov	r4, r5
 231:D:/fchai/work/i-cube/I-CUBE-HUAWEI/Middlewares/Third_Party/Huawei/iot_link/network/dtls/mbedtls/mbedtls-2.16.2/library\ecdsa.c ****     int ret;
  54              		.loc 1 231 1 view .LVU7
  55 000c 0F46     		mov	r7, r1
  56              		.loc 1 234 12 view .LVU8
  57 000e 28BF     		it	cs
  58 0010 1C46     		movcs	r4, r3
 235:D:/fchai/work/i-cube/I-CUBE-HUAWEI/Middlewares/Third_Party/Huawei/iot_link/network/dtls/mbedtls/mbedtls-2.16.2/library\ecdsa.c **** 
 236:D:/fchai/work/i-cube/I-CUBE-HUAWEI/Middlewares/Third_Party/Huawei/iot_link/network/dtls/mbedtls/mbedtls-2.16.2/library\ecdsa.c ****     MBEDTLS_MPI_CHK( mbedtls_mpi_read_binary( x, buf, use_size ) );
  59              		.loc 1 236 5 view .LVU9
  60 0012 1146     		mov	r1, r2
  61              	.LVL1:
 231:D:/fchai/work/i-cube/I-CUBE-HUAWEI/Middlewares/Third_Party/Huawei/iot_link/network/dtls/mbedtls/mbedtls-2.16.2/library\ecdsa.c ****     int ret;
  62              		.loc 1 231 1 view .LVU10
  63 0014 0646     		mov	r6, r0
  64              	.LVL2:
 234:D:/fchai/work/i-cube/I-CUBE-HUAWEI/Middlewares/Third_Party/Huawei/iot_link/network/dtls/mbedtls/mbedtls-2.16.2/library\ecdsa.c ****     size_t use_size = blen > n_size ? n_size : blen;
  65              		.loc 1 234 5 is_stmt 1 view .LVU11
  66              		.loc 1 236 5 view .LVU12
  67              		.loc 1 236 5 view .LVU13
  68 0016 2246     		mov	r2, r4
  69              	.LVL3:
  70              		.loc 1 236 5 is_stmt 0 view .LVU14
  71 0018 3846     		mov	r0, r7
  72              	.LVL4:
  73              		.loc 1 236 5 view .LVU15
  74 001a FFF7FEFF 		bl	mbedtls_mpi_read_binary
  75              	.LVL5:
  76              		.loc 1 236 5 view .LVU16
  77 001e 0546     		mov	r5, r0
  78              	.LVL6:
  79              		.loc 1 236 5 view .LVU17
  80 0020 88B9     		cbnz	r0, .L1
  81              		.loc 1 236 5 is_stmt 1 discriminator 2 view .LVU18
 237:D:/fchai/work/i-cube/I-CUBE-HUAWEI/Middlewares/Third_Party/Huawei/iot_link/network/dtls/mbedtls/mbedtls-2.16.2/library\ecdsa.c ****     if( use_size * 8 > grp->nbits )
  82              		.loc 1 237 5 discriminator 2 view .LVU19
  83              		.loc 1 237 27 is_stmt 0 discriminator 2 view .LVU20
  84 0022 F36D     		ldr	r3, [r6, #92]
  85              		.loc 1 237 7 discriminator 2 view .LVU21
  86 0024 B3EBC40F 		cmp	r3, r4, lsl #3
  87              		.loc 1 237 18 discriminator 2 view .LVU22
  88 0028 4FEAC401 		lsl	r1, r4, #3
  89              		.loc 1 237 7 discriminator 2 view .LVU23
  90 002c 04D2     		bcs	.L5
 238:D:/fchai/work/i-cube/I-CUBE-HUAWEI/Middlewares/Third_Party/Huawei/iot_link/network/dtls/mbedtls/mbedtls-2.16.2/library\ecdsa.c ****         MBEDTLS_MPI_CHK( mbedtls_mpi_shift_r( x, use_size * 8 - grp->nbits ) );
  91              		.loc 1 238 9 is_stmt 1 view .LVU24
  92              		.loc 1 238 9 view .LVU25
  93 002e C91A     		subs	r1, r1, r3
  94 0030 3846     		mov	r0, r7
  95              	.LVL7:
  96              		.loc 1 238 9 is_stmt 0 view .LVU26
  97 0032 FFF7FEFF 		bl	mbedtls_mpi_shift_r
  98              	.LVL8:
  99              		.loc 1 238 9 view .LVU27
 100 0036 78B9     		cbnz	r0, .L9
 101              	.LVL9:
ARM GAS  T:\msys\tmp\ccyWqaJb.s 			page 7


 102              	.L5:
 103              		.loc 1 238 9 is_stmt 1 view .LVU28
 239:D:/fchai/work/i-cube/I-CUBE-HUAWEI/Middlewares/Third_Party/Huawei/iot_link/network/dtls/mbedtls/mbedtls-2.16.2/library\ecdsa.c **** 
 240:D:/fchai/work/i-cube/I-CUBE-HUAWEI/Middlewares/Third_Party/Huawei/iot_link/network/dtls/mbedtls/mbedtls-2.16.2/library\ecdsa.c ****     /* While at it, reduce modulo N */
 241:D:/fchai/work/i-cube/I-CUBE-HUAWEI/Middlewares/Third_Party/Huawei/iot_link/network/dtls/mbedtls/mbedtls-2.16.2/library\ecdsa.c ****     if( mbedtls_mpi_cmp_mpi( x, &grp->N ) >= 0 )
 104              		.loc 1 241 5 view .LVU29
 105              		.loc 1 241 9 is_stmt 0 view .LVU30
 106 0038 4C36     		adds	r6, r6, #76
 107              	.LVL10:
 108              		.loc 1 241 9 view .LVU31
 109 003a 3146     		mov	r1, r6
 110 003c 3846     		mov	r0, r7
 111 003e FFF7FEFF 		bl	mbedtls_mpi_cmp_mpi
 112              	.LVL11:
 113              		.loc 1 241 7 view .LVU32
 114 0042 0028     		cmp	r0, #0
 115 0044 01DA     		bge	.L10
 116              	.LVL12:
 117              	.L1:
 242:D:/fchai/work/i-cube/I-CUBE-HUAWEI/Middlewares/Third_Party/Huawei/iot_link/network/dtls/mbedtls/mbedtls-2.16.2/library\ecdsa.c ****         MBEDTLS_MPI_CHK( mbedtls_mpi_sub_mpi( x, x, &grp->N ) );
 243:D:/fchai/work/i-cube/I-CUBE-HUAWEI/Middlewares/Third_Party/Huawei/iot_link/network/dtls/mbedtls/mbedtls-2.16.2/library\ecdsa.c **** 
 244:D:/fchai/work/i-cube/I-CUBE-HUAWEI/Middlewares/Third_Party/Huawei/iot_link/network/dtls/mbedtls/mbedtls-2.16.2/library\ecdsa.c **** cleanup:
 245:D:/fchai/work/i-cube/I-CUBE-HUAWEI/Middlewares/Third_Party/Huawei/iot_link/network/dtls/mbedtls/mbedtls-2.16.2/library\ecdsa.c ****     return( ret );
 246:D:/fchai/work/i-cube/I-CUBE-HUAWEI/Middlewares/Third_Party/Huawei/iot_link/network/dtls/mbedtls/mbedtls-2.16.2/library\ecdsa.c **** }
 118              		.loc 1 246 1 view .LVU33
 119 0046 2846     		mov	r0, r5
 120 0048 F8BD     		pop	{r3, r4, r5, r6, r7, pc}
 121              	.LVL13:
 122              	.L10:
 242:D:/fchai/work/i-cube/I-CUBE-HUAWEI/Middlewares/Third_Party/Huawei/iot_link/network/dtls/mbedtls/mbedtls-2.16.2/library\ecdsa.c ****         MBEDTLS_MPI_CHK( mbedtls_mpi_sub_mpi( x, x, &grp->N ) );
 123              		.loc 1 242 9 is_stmt 1 view .LVU34
 242:D:/fchai/work/i-cube/I-CUBE-HUAWEI/Middlewares/Third_Party/Huawei/iot_link/network/dtls/mbedtls/mbedtls-2.16.2/library\ecdsa.c ****         MBEDTLS_MPI_CHK( mbedtls_mpi_sub_mpi( x, x, &grp->N ) );
 124              		.loc 1 242 9 view .LVU35
 125 004a 3246     		mov	r2, r6
 126 004c 3946     		mov	r1, r7
 127 004e 3846     		mov	r0, r7
 128              		.loc 1 246 1 is_stmt 0 view .LVU36
 129 0050 BDE8F840 		pop	{r3, r4, r5, r6, r7, lr}
 130              	.LCFI1:
 131              		.cfi_remember_state
 132              		.cfi_restore 14
 133              		.cfi_restore 7
 134              		.cfi_restore 6
 135              		.cfi_restore 5
 136              		.cfi_restore 4
 137              		.cfi_restore 3
 138              		.cfi_def_cfa_offset 0
 139              	.LVL14:
 242:D:/fchai/work/i-cube/I-CUBE-HUAWEI/Middlewares/Third_Party/Huawei/iot_link/network/dtls/mbedtls/mbedtls-2.16.2/library\ecdsa.c ****         MBEDTLS_MPI_CHK( mbedtls_mpi_sub_mpi( x, x, &grp->N ) );
 140              		.loc 1 242 9 view .LVU37
 141 0054 FFF7FEBF 		b	mbedtls_mpi_sub_mpi
 142              	.LVL15:
 143              	.L9:
 144              	.LCFI2:
 145              		.cfi_restore_state
 146              	.L2:
 242:D:/fchai/work/i-cube/I-CUBE-HUAWEI/Middlewares/Third_Party/Huawei/iot_link/network/dtls/mbedtls/mbedtls-2.16.2/library\ecdsa.c ****         MBEDTLS_MPI_CHK( mbedtls_mpi_sub_mpi( x, x, &grp->N ) );
ARM GAS  T:\msys\tmp\ccyWqaJb.s 			page 8


 147              		.loc 1 242 9 view .LVU38
 148 0058 0546     		mov	r5, r0
 242:D:/fchai/work/i-cube/I-CUBE-HUAWEI/Middlewares/Third_Party/Huawei/iot_link/network/dtls/mbedtls/mbedtls-2.16.2/library\ecdsa.c ****         MBEDTLS_MPI_CHK( mbedtls_mpi_sub_mpi( x, x, &grp->N ) );
 149              		.loc 1 242 9 is_stmt 1 view .LVU39
 245:D:/fchai/work/i-cube/I-CUBE-HUAWEI/Middlewares/Third_Party/Huawei/iot_link/network/dtls/mbedtls/mbedtls-2.16.2/library\ecdsa.c **** }
 150              		.loc 1 245 5 view .LVU40
 151              		.loc 1 246 1 is_stmt 0 view .LVU41
 152 005a 2846     		mov	r0, r5
 153              		.loc 1 246 1 view .LVU42
 154 005c F8BD     		pop	{r3, r4, r5, r6, r7, pc}
 155              		.loc 1 246 1 view .LVU43
 156              		.cfi_endproc
 157              	.LFE3:
 159 005e 00BF     		.section	.text.ecdsa_sign_restartable.isra.0,"ax",%progbits
 160              		.align	1
 161              		.p2align 2,,3
 162              		.syntax unified
 163              		.thumb
 164              		.thumb_func
 165              		.fpu fpv4-sp-d16
 167              	ecdsa_sign_restartable.isra.0:
 168              	.LVL16:
 169              	.LFB17:
 247:D:/fchai/work/i-cube/I-CUBE-HUAWEI/Middlewares/Third_Party/Huawei/iot_link/network/dtls/mbedtls/mbedtls-2.16.2/library\ecdsa.c **** 
 248:D:/fchai/work/i-cube/I-CUBE-HUAWEI/Middlewares/Third_Party/Huawei/iot_link/network/dtls/mbedtls/mbedtls-2.16.2/library\ecdsa.c **** #if !defined(MBEDTLS_ECDSA_SIGN_ALT)
 249:D:/fchai/work/i-cube/I-CUBE-HUAWEI/Middlewares/Third_Party/Huawei/iot_link/network/dtls/mbedtls/mbedtls-2.16.2/library\ecdsa.c **** /*
 250:D:/fchai/work/i-cube/I-CUBE-HUAWEI/Middlewares/Third_Party/Huawei/iot_link/network/dtls/mbedtls/mbedtls-2.16.2/library\ecdsa.c ****  * Compute ECDSA signature of a hashed message (SEC1 4.1.3)
 251:D:/fchai/work/i-cube/I-CUBE-HUAWEI/Middlewares/Third_Party/Huawei/iot_link/network/dtls/mbedtls/mbedtls-2.16.2/library\ecdsa.c ****  * Obviously, compared to SEC1 4.1.3, we skip step 4 (hash message)
 252:D:/fchai/work/i-cube/I-CUBE-HUAWEI/Middlewares/Third_Party/Huawei/iot_link/network/dtls/mbedtls/mbedtls-2.16.2/library\ecdsa.c ****  */
 253:D:/fchai/work/i-cube/I-CUBE-HUAWEI/Middlewares/Third_Party/Huawei/iot_link/network/dtls/mbedtls/mbedtls-2.16.2/library\ecdsa.c **** static int ecdsa_sign_restartable( mbedtls_ecp_group *grp,
 170              		.loc 1 253 12 is_stmt 1 view -0
 171              		.cfi_startproc
 172              		@ args = 16, pretend = 0, frame = 88
 173              		@ frame_needed = 0, uses_anonymous_args = 0
 254:D:/fchai/work/i-cube/I-CUBE-HUAWEI/Middlewares/Third_Party/Huawei/iot_link/network/dtls/mbedtls/mbedtls-2.16.2/library\ecdsa.c ****                 mbedtls_mpi *r, mbedtls_mpi *s,
 255:D:/fchai/work/i-cube/I-CUBE-HUAWEI/Middlewares/Third_Party/Huawei/iot_link/network/dtls/mbedtls/mbedtls-2.16.2/library\ecdsa.c ****                 const mbedtls_mpi *d, const unsigned char *buf, size_t blen,
 256:D:/fchai/work/i-cube/I-CUBE-HUAWEI/Middlewares/Third_Party/Huawei/iot_link/network/dtls/mbedtls/mbedtls-2.16.2/library\ecdsa.c ****                 int (*f_rng)(void *, unsigned char *, size_t), void *p_rng,
 257:D:/fchai/work/i-cube/I-CUBE-HUAWEI/Middlewares/Third_Party/Huawei/iot_link/network/dtls/mbedtls/mbedtls-2.16.2/library\ecdsa.c ****                 mbedtls_ecdsa_restart_ctx *rs_ctx )
 258:D:/fchai/work/i-cube/I-CUBE-HUAWEI/Middlewares/Third_Party/Huawei/iot_link/network/dtls/mbedtls/mbedtls-2.16.2/library\ecdsa.c **** {
 259:D:/fchai/work/i-cube/I-CUBE-HUAWEI/Middlewares/Third_Party/Huawei/iot_link/network/dtls/mbedtls/mbedtls-2.16.2/library\ecdsa.c ****     int ret, key_tries, sign_tries;
 174              		.loc 1 259 5 view .LVU45
 260:D:/fchai/work/i-cube/I-CUBE-HUAWEI/Middlewares/Third_Party/Huawei/iot_link/network/dtls/mbedtls/mbedtls-2.16.2/library\ecdsa.c ****     int *p_sign_tries = &sign_tries, *p_key_tries = &key_tries;
 175              		.loc 1 260 5 view .LVU46
 253:D:/fchai/work/i-cube/I-CUBE-HUAWEI/Middlewares/Third_Party/Huawei/iot_link/network/dtls/mbedtls/mbedtls-2.16.2/library\ecdsa.c ****                 mbedtls_mpi *r, mbedtls_mpi *s,
 176              		.loc 1 253 12 is_stmt 0 view .LVU47
 177 0000 2DE9F04F 		push	{r4, r5, r6, r7, r8, r9, r10, fp, lr}
 178              	.LCFI3:
 179              		.cfi_def_cfa_offset 36
 180              		.cfi_offset 4, -36
 181              		.cfi_offset 5, -32
 182              		.cfi_offset 6, -28
 183              		.cfi_offset 7, -24
 184              		.cfi_offset 8, -20
 185              		.cfi_offset 9, -16
 186              		.cfi_offset 10, -12
 187              		.cfi_offset 11, -8
 188              		.cfi_offset 14, -4
ARM GAS  T:\msys\tmp\ccyWqaJb.s 			page 9


 189 0004 2DED028B 		vpush.64	{d8}
 190              	.LCFI4:
 191              		.cfi_def_cfa_offset 44
 192              		.cfi_offset 80, -44
 193              		.cfi_offset 81, -40
 194 0008 0546     		mov	r5, r0
 261:D:/fchai/work/i-cube/I-CUBE-HUAWEI/Middlewares/Third_Party/Huawei/iot_link/network/dtls/mbedtls/mbedtls-2.16.2/library\ecdsa.c ****     mbedtls_ecp_point R;
 262:D:/fchai/work/i-cube/I-CUBE-HUAWEI/Middlewares/Third_Party/Huawei/iot_link/network/dtls/mbedtls/mbedtls-2.16.2/library\ecdsa.c ****     mbedtls_mpi k, e, t;
 263:D:/fchai/work/i-cube/I-CUBE-HUAWEI/Middlewares/Third_Party/Huawei/iot_link/network/dtls/mbedtls/mbedtls-2.16.2/library\ecdsa.c ****     mbedtls_mpi *pk = &k, *pr = r;
 264:D:/fchai/work/i-cube/I-CUBE-HUAWEI/Middlewares/Third_Party/Huawei/iot_link/network/dtls/mbedtls/mbedtls-2.16.2/library\ecdsa.c **** 
 265:D:/fchai/work/i-cube/I-CUBE-HUAWEI/Middlewares/Third_Party/Huawei/iot_link/network/dtls/mbedtls/mbedtls-2.16.2/library\ecdsa.c ****     /* Fail cleanly on curves such as Curve25519 that can't be used for ECDSA */
 266:D:/fchai/work/i-cube/I-CUBE-HUAWEI/Middlewares/Third_Party/Huawei/iot_link/network/dtls/mbedtls/mbedtls-2.16.2/library\ecdsa.c ****     if( grp->N.p == NULL )
 195              		.loc 1 266 7 view .LVU48
 196 000a 406D     		ldr	r0, [r0, #84]
 197              	.LVL17:
 253:D:/fchai/work/i-cube/I-CUBE-HUAWEI/Middlewares/Third_Party/Huawei/iot_link/network/dtls/mbedtls/mbedtls-2.16.2/library\ecdsa.c ****                 mbedtls_mpi *r, mbedtls_mpi *s,
 198              		.loc 1 253 12 view .LVU49
 199 000c 9BB0     		sub	sp, sp, #108
 200              	.LCFI5:
 201              		.cfi_def_cfa_offset 152
 202              	.LVL18:
 261:D:/fchai/work/i-cube/I-CUBE-HUAWEI/Middlewares/Third_Party/Huawei/iot_link/network/dtls/mbedtls/mbedtls-2.16.2/library\ecdsa.c ****     mbedtls_ecp_point R;
 203              		.loc 1 261 5 is_stmt 1 view .LVU50
 262:D:/fchai/work/i-cube/I-CUBE-HUAWEI/Middlewares/Third_Party/Huawei/iot_link/network/dtls/mbedtls/mbedtls-2.16.2/library\ecdsa.c ****     mbedtls_mpi *pk = &k, *pr = r;
 204              		.loc 1 262 5 view .LVU51
 263:D:/fchai/work/i-cube/I-CUBE-HUAWEI/Middlewares/Third_Party/Huawei/iot_link/network/dtls/mbedtls/mbedtls-2.16.2/library\ecdsa.c **** 
 205              		.loc 1 263 5 view .LVU52
 253:D:/fchai/work/i-cube/I-CUBE-HUAWEI/Middlewares/Third_Party/Huawei/iot_link/network/dtls/mbedtls/mbedtls-2.16.2/library\ecdsa.c ****                 mbedtls_mpi *r, mbedtls_mpi *s,
 206              		.loc 1 253 12 is_stmt 0 view .LVU53
 207 000e DDE92889 		ldrd	r8, r9, [sp, #160]
 208              	.LVL19:
 209              		.loc 1 266 5 is_stmt 1 view .LVU54
 210              		.loc 1 266 7 is_stmt 0 view .LVU55
 211 0012 0028     		cmp	r0, #0
 212 0014 00F0D480 		beq	.L20
 267:D:/fchai/work/i-cube/I-CUBE-HUAWEI/Middlewares/Third_Party/Huawei/iot_link/network/dtls/mbedtls/mbedtls-2.16.2/library\ecdsa.c ****         return( MBEDTLS_ERR_ECP_BAD_INPUT_DATA );
 268:D:/fchai/work/i-cube/I-CUBE-HUAWEI/Middlewares/Third_Party/Huawei/iot_link/network/dtls/mbedtls/mbedtls-2.16.2/library\ecdsa.c **** 
 269:D:/fchai/work/i-cube/I-CUBE-HUAWEI/Middlewares/Third_Party/Huawei/iot_link/network/dtls/mbedtls/mbedtls-2.16.2/library\ecdsa.c ****     /* Make sure d is in range 1..n-1 */
 270:D:/fchai/work/i-cube/I-CUBE-HUAWEI/Middlewares/Third_Party/Huawei/iot_link/network/dtls/mbedtls/mbedtls-2.16.2/library\ecdsa.c ****     if( mbedtls_mpi_cmp_int( d, 1 ) < 0 || mbedtls_mpi_cmp_mpi( d, &grp->N ) >= 0 )
 213              		.loc 1 270 5 is_stmt 1 view .LVU56
 214 0018 0E46     		mov	r6, r1
 215              		.loc 1 270 9 is_stmt 0 view .LVU57
 216 001a 1846     		mov	r0, r3
 217 001c 0121     		movs	r1, #1
 218              	.LVL20:
 219              		.loc 1 270 9 view .LVU58
 220 001e 08EE102A 		vmov	s16, r2	@ int
 221 0022 08EE903A 		vmov	s17, r3	@ int
 222 0026 FFF7FEFF 		bl	mbedtls_mpi_cmp_int
 223              	.LVL21:
 224              		.loc 1 270 7 view .LVU59
 225 002a 0028     		cmp	r0, #0
 226 002c C0F2C680 		blt	.L14
 227              		.loc 1 270 68 view .LVU60
 228 0030 05F14C0A 		add	r10, r5, #76
 229              		.loc 1 270 44 view .LVU61
 230 0034 18EE900A 		vmov	r0, s17	@ int
ARM GAS  T:\msys\tmp\ccyWqaJb.s 			page 10


 231 0038 5146     		mov	r1, r10
 232 003a FFF7FEFF 		bl	mbedtls_mpi_cmp_mpi
 233              	.LVL22:
 234              		.loc 1 270 41 view .LVU62
 235 003e 0028     		cmp	r0, #0
 236 0040 80F2BC80 		bge	.L14
 271:D:/fchai/work/i-cube/I-CUBE-HUAWEI/Middlewares/Third_Party/Huawei/iot_link/network/dtls/mbedtls/mbedtls-2.16.2/library\ecdsa.c ****         return( MBEDTLS_ERR_ECP_INVALID_KEY );
 272:D:/fchai/work/i-cube/I-CUBE-HUAWEI/Middlewares/Third_Party/Huawei/iot_link/network/dtls/mbedtls/mbedtls-2.16.2/library\ecdsa.c **** 
 273:D:/fchai/work/i-cube/I-CUBE-HUAWEI/Middlewares/Third_Party/Huawei/iot_link/network/dtls/mbedtls/mbedtls-2.16.2/library\ecdsa.c ****     mbedtls_ecp_point_init( &R );
 237              		.loc 1 273 5 is_stmt 1 view .LVU63
 238 0044 11A8     		add	r0, sp, #68
 239 0046 FFF7FEFF 		bl	mbedtls_ecp_point_init
 240              	.LVL23:
 274:D:/fchai/work/i-cube/I-CUBE-HUAWEI/Middlewares/Third_Party/Huawei/iot_link/network/dtls/mbedtls/mbedtls-2.16.2/library\ecdsa.c ****     mbedtls_mpi_init( &k ); mbedtls_mpi_init( &e ); mbedtls_mpi_init( &t );
 241              		.loc 1 274 5 view .LVU64
 242 004a 08A8     		add	r0, sp, #32
 243              	.LVL24:
 244              		.loc 1 274 5 is_stmt 0 view .LVU65
 245 004c FFF7FEFF 		bl	mbedtls_mpi_init
 246              	.LVL25:
 247              		.loc 1 274 29 is_stmt 1 view .LVU66
 248 0050 0BA8     		add	r0, sp, #44
 249 0052 FFF7FEFF 		bl	mbedtls_mpi_init
 250              	.LVL26:
 251              		.loc 1 274 53 view .LVU67
 252 0056 0EA8     		add	r0, sp, #56
 253 0058 FFF7FEFF 		bl	mbedtls_mpi_init
 254              	.LVL27:
 275:D:/fchai/work/i-cube/I-CUBE-HUAWEI/Middlewares/Third_Party/Huawei/iot_link/network/dtls/mbedtls/mbedtls-2.16.2/library\ecdsa.c **** 
 276:D:/fchai/work/i-cube/I-CUBE-HUAWEI/Middlewares/Third_Party/Huawei/iot_link/network/dtls/mbedtls/mbedtls-2.16.2/library\ecdsa.c ****     ECDSA_RS_ENTER( sig );
 255              		.loc 1 276 5 view .LVU68
 277:D:/fchai/work/i-cube/I-CUBE-HUAWEI/Middlewares/Third_Party/Huawei/iot_link/network/dtls/mbedtls/mbedtls-2.16.2/library\ecdsa.c **** 
 278:D:/fchai/work/i-cube/I-CUBE-HUAWEI/Middlewares/Third_Party/Huawei/iot_link/network/dtls/mbedtls/mbedtls-2.16.2/library\ecdsa.c **** #if defined(MBEDTLS_ECP_RESTARTABLE)
 279:D:/fchai/work/i-cube/I-CUBE-HUAWEI/Middlewares/Third_Party/Huawei/iot_link/network/dtls/mbedtls/mbedtls-2.16.2/library\ecdsa.c ****     if( rs_ctx != NULL && rs_ctx->sig != NULL )
 280:D:/fchai/work/i-cube/I-CUBE-HUAWEI/Middlewares/Third_Party/Huawei/iot_link/network/dtls/mbedtls/mbedtls-2.16.2/library\ecdsa.c ****     {
 281:D:/fchai/work/i-cube/I-CUBE-HUAWEI/Middlewares/Third_Party/Huawei/iot_link/network/dtls/mbedtls/mbedtls-2.16.2/library\ecdsa.c ****         /* redirect to our context */
 282:D:/fchai/work/i-cube/I-CUBE-HUAWEI/Middlewares/Third_Party/Huawei/iot_link/network/dtls/mbedtls/mbedtls-2.16.2/library\ecdsa.c ****         p_sign_tries = &rs_ctx->sig->sign_tries;
 283:D:/fchai/work/i-cube/I-CUBE-HUAWEI/Middlewares/Third_Party/Huawei/iot_link/network/dtls/mbedtls/mbedtls-2.16.2/library\ecdsa.c ****         p_key_tries = &rs_ctx->sig->key_tries;
 284:D:/fchai/work/i-cube/I-CUBE-HUAWEI/Middlewares/Third_Party/Huawei/iot_link/network/dtls/mbedtls/mbedtls-2.16.2/library\ecdsa.c ****         pk = &rs_ctx->sig->k;
 285:D:/fchai/work/i-cube/I-CUBE-HUAWEI/Middlewares/Third_Party/Huawei/iot_link/network/dtls/mbedtls/mbedtls-2.16.2/library\ecdsa.c ****         pr = &rs_ctx->sig->r;
 286:D:/fchai/work/i-cube/I-CUBE-HUAWEI/Middlewares/Third_Party/Huawei/iot_link/network/dtls/mbedtls/mbedtls-2.16.2/library\ecdsa.c **** 
 287:D:/fchai/work/i-cube/I-CUBE-HUAWEI/Middlewares/Third_Party/Huawei/iot_link/network/dtls/mbedtls/mbedtls-2.16.2/library\ecdsa.c ****         /* jump to current step */
 288:D:/fchai/work/i-cube/I-CUBE-HUAWEI/Middlewares/Third_Party/Huawei/iot_link/network/dtls/mbedtls/mbedtls-2.16.2/library\ecdsa.c ****         if( rs_ctx->sig->state == ecdsa_sig_mul )
 289:D:/fchai/work/i-cube/I-CUBE-HUAWEI/Middlewares/Third_Party/Huawei/iot_link/network/dtls/mbedtls/mbedtls-2.16.2/library\ecdsa.c ****             goto mul;
 290:D:/fchai/work/i-cube/I-CUBE-HUAWEI/Middlewares/Third_Party/Huawei/iot_link/network/dtls/mbedtls/mbedtls-2.16.2/library\ecdsa.c ****         if( rs_ctx->sig->state == ecdsa_sig_modn )
 291:D:/fchai/work/i-cube/I-CUBE-HUAWEI/Middlewares/Third_Party/Huawei/iot_link/network/dtls/mbedtls/mbedtls-2.16.2/library\ecdsa.c ****             goto modn;
 292:D:/fchai/work/i-cube/I-CUBE-HUAWEI/Middlewares/Third_Party/Huawei/iot_link/network/dtls/mbedtls/mbedtls-2.16.2/library\ecdsa.c ****     }
 293:D:/fchai/work/i-cube/I-CUBE-HUAWEI/Middlewares/Third_Party/Huawei/iot_link/network/dtls/mbedtls/mbedtls-2.16.2/library\ecdsa.c **** #endif /* MBEDTLS_ECP_RESTARTABLE */
 294:D:/fchai/work/i-cube/I-CUBE-HUAWEI/Middlewares/Third_Party/Huawei/iot_link/network/dtls/mbedtls/mbedtls-2.16.2/library\ecdsa.c **** 
 295:D:/fchai/work/i-cube/I-CUBE-HUAWEI/Middlewares/Third_Party/Huawei/iot_link/network/dtls/mbedtls/mbedtls-2.16.2/library\ecdsa.c ****     *p_sign_tries = 0;
 256              		.loc 1 295 5 view .LVU69
 257              		.loc 1 295 19 is_stmt 0 view .LVU70
 258 005c 0023     		movs	r3, #0
 296:D:/fchai/work/i-cube/I-CUBE-HUAWEI/Middlewares/Third_Party/Huawei/iot_link/network/dtls/mbedtls/mbedtls-2.16.2/library\ecdsa.c ****     do
 297:D:/fchai/work/i-cube/I-CUBE-HUAWEI/Middlewares/Third_Party/Huawei/iot_link/network/dtls/mbedtls/mbedtls-2.16.2/library\ecdsa.c ****     {
 298:D:/fchai/work/i-cube/I-CUBE-HUAWEI/Middlewares/Third_Party/Huawei/iot_link/network/dtls/mbedtls/mbedtls-2.16.2/library\ecdsa.c ****         if( *p_sign_tries++ > 10 )
 299:D:/fchai/work/i-cube/I-CUBE-HUAWEI/Middlewares/Third_Party/Huawei/iot_link/network/dtls/mbedtls/mbedtls-2.16.2/library\ecdsa.c ****         {
ARM GAS  T:\msys\tmp\ccyWqaJb.s 			page 11


 300:D:/fchai/work/i-cube/I-CUBE-HUAWEI/Middlewares/Third_Party/Huawei/iot_link/network/dtls/mbedtls/mbedtls-2.16.2/library\ecdsa.c ****             ret = MBEDTLS_ERR_ECP_RANDOM_FAILED;
 301:D:/fchai/work/i-cube/I-CUBE-HUAWEI/Middlewares/Third_Party/Huawei/iot_link/network/dtls/mbedtls/mbedtls-2.16.2/library\ecdsa.c ****             goto cleanup;
 302:D:/fchai/work/i-cube/I-CUBE-HUAWEI/Middlewares/Third_Party/Huawei/iot_link/network/dtls/mbedtls/mbedtls-2.16.2/library\ecdsa.c ****         }
 303:D:/fchai/work/i-cube/I-CUBE-HUAWEI/Middlewares/Third_Party/Huawei/iot_link/network/dtls/mbedtls/mbedtls-2.16.2/library\ecdsa.c **** 
 304:D:/fchai/work/i-cube/I-CUBE-HUAWEI/Middlewares/Third_Party/Huawei/iot_link/network/dtls/mbedtls/mbedtls-2.16.2/library\ecdsa.c ****         /*
 305:D:/fchai/work/i-cube/I-CUBE-HUAWEI/Middlewares/Third_Party/Huawei/iot_link/network/dtls/mbedtls/mbedtls-2.16.2/library\ecdsa.c ****          * Steps 1-3: generate a suitable ephemeral keypair
 306:D:/fchai/work/i-cube/I-CUBE-HUAWEI/Middlewares/Third_Party/Huawei/iot_link/network/dtls/mbedtls/mbedtls-2.16.2/library\ecdsa.c ****          * and set r = xR mod n
 307:D:/fchai/work/i-cube/I-CUBE-HUAWEI/Middlewares/Third_Party/Huawei/iot_link/network/dtls/mbedtls/mbedtls-2.16.2/library\ecdsa.c ****          */
 308:D:/fchai/work/i-cube/I-CUBE-HUAWEI/Middlewares/Third_Party/Huawei/iot_link/network/dtls/mbedtls/mbedtls-2.16.2/library\ecdsa.c ****         *p_key_tries = 0;
 309:D:/fchai/work/i-cube/I-CUBE-HUAWEI/Middlewares/Third_Party/Huawei/iot_link/network/dtls/mbedtls/mbedtls-2.16.2/library\ecdsa.c ****         do
 310:D:/fchai/work/i-cube/I-CUBE-HUAWEI/Middlewares/Third_Party/Huawei/iot_link/network/dtls/mbedtls/mbedtls-2.16.2/library\ecdsa.c ****         {
 311:D:/fchai/work/i-cube/I-CUBE-HUAWEI/Middlewares/Third_Party/Huawei/iot_link/network/dtls/mbedtls/mbedtls-2.16.2/library\ecdsa.c ****             if( *p_key_tries++ > 10 )
 312:D:/fchai/work/i-cube/I-CUBE-HUAWEI/Middlewares/Third_Party/Huawei/iot_link/network/dtls/mbedtls/mbedtls-2.16.2/library\ecdsa.c ****             {
 313:D:/fchai/work/i-cube/I-CUBE-HUAWEI/Middlewares/Third_Party/Huawei/iot_link/network/dtls/mbedtls/mbedtls-2.16.2/library\ecdsa.c ****                 ret = MBEDTLS_ERR_ECP_RANDOM_FAILED;
 314:D:/fchai/work/i-cube/I-CUBE-HUAWEI/Middlewares/Third_Party/Huawei/iot_link/network/dtls/mbedtls/mbedtls-2.16.2/library\ecdsa.c ****                 goto cleanup;
 315:D:/fchai/work/i-cube/I-CUBE-HUAWEI/Middlewares/Third_Party/Huawei/iot_link/network/dtls/mbedtls/mbedtls-2.16.2/library\ecdsa.c ****             }
 316:D:/fchai/work/i-cube/I-CUBE-HUAWEI/Middlewares/Third_Party/Huawei/iot_link/network/dtls/mbedtls/mbedtls-2.16.2/library\ecdsa.c **** 
 317:D:/fchai/work/i-cube/I-CUBE-HUAWEI/Middlewares/Third_Party/Huawei/iot_link/network/dtls/mbedtls/mbedtls-2.16.2/library\ecdsa.c ****             MBEDTLS_MPI_CHK( mbedtls_ecp_gen_privkey( grp, pk, f_rng, p_rng ) );
 318:D:/fchai/work/i-cube/I-CUBE-HUAWEI/Middlewares/Third_Party/Huawei/iot_link/network/dtls/mbedtls/mbedtls-2.16.2/library\ecdsa.c **** 
 319:D:/fchai/work/i-cube/I-CUBE-HUAWEI/Middlewares/Third_Party/Huawei/iot_link/network/dtls/mbedtls/mbedtls-2.16.2/library\ecdsa.c **** #if defined(MBEDTLS_ECP_RESTARTABLE)
 320:D:/fchai/work/i-cube/I-CUBE-HUAWEI/Middlewares/Third_Party/Huawei/iot_link/network/dtls/mbedtls/mbedtls-2.16.2/library\ecdsa.c ****             if( rs_ctx != NULL && rs_ctx->sig != NULL )
 321:D:/fchai/work/i-cube/I-CUBE-HUAWEI/Middlewares/Third_Party/Huawei/iot_link/network/dtls/mbedtls/mbedtls-2.16.2/library\ecdsa.c ****                 rs_ctx->sig->state = ecdsa_sig_mul;
 322:D:/fchai/work/i-cube/I-CUBE-HUAWEI/Middlewares/Third_Party/Huawei/iot_link/network/dtls/mbedtls/mbedtls-2.16.2/library\ecdsa.c **** 
 323:D:/fchai/work/i-cube/I-CUBE-HUAWEI/Middlewares/Third_Party/Huawei/iot_link/network/dtls/mbedtls/mbedtls-2.16.2/library\ecdsa.c **** mul:
 324:D:/fchai/work/i-cube/I-CUBE-HUAWEI/Middlewares/Third_Party/Huawei/iot_link/network/dtls/mbedtls/mbedtls-2.16.2/library\ecdsa.c **** #endif
 325:D:/fchai/work/i-cube/I-CUBE-HUAWEI/Middlewares/Third_Party/Huawei/iot_link/network/dtls/mbedtls/mbedtls-2.16.2/library\ecdsa.c ****             MBEDTLS_MPI_CHK( mbedtls_ecp_mul_restartable( grp, &R, pk, &grp->G,
 259              		.loc 1 325 13 view .LVU71
 260 005e CDF8A080 		str	r8, [sp, #160]
 261              	.LVL28:
 295:D:/fchai/work/i-cube/I-CUBE-HUAWEI/Middlewares/Third_Party/Huawei/iot_link/network/dtls/mbedtls/mbedtls-2.16.2/library\ecdsa.c ****     do
 262              		.loc 1 295 19 view .LVU72
 263 0062 0793     		str	r3, [sp, #28]
 296:D:/fchai/work/i-cube/I-CUBE-HUAWEI/Middlewares/Third_Party/Huawei/iot_link/network/dtls/mbedtls/mbedtls-2.16.2/library\ecdsa.c ****     do
 264              		.loc 1 296 5 is_stmt 1 view .LVU73
 298:D:/fchai/work/i-cube/I-CUBE-HUAWEI/Middlewares/Third_Party/Huawei/iot_link/network/dtls/mbedtls/mbedtls-2.16.2/library\ecdsa.c ****         {
 265              		.loc 1 298 9 view .LVU74
 266              	.LVL29:
 308:D:/fchai/work/i-cube/I-CUBE-HUAWEI/Middlewares/Third_Party/Huawei/iot_link/network/dtls/mbedtls/mbedtls-2.16.2/library\ecdsa.c ****         do
 267              		.loc 1 308 22 is_stmt 0 view .LVU75
 268 0064 0493     		str	r3, [sp, #16]
 269              		.loc 1 325 13 view .LVU76
 270 0066 B046     		mov	r8, r6
 260:D:/fchai/work/i-cube/I-CUBE-HUAWEI/Middlewares/Third_Party/Huawei/iot_link/network/dtls/mbedtls/mbedtls-2.16.2/library\ecdsa.c ****     mbedtls_ecp_point R;
 271              		.loc 1 260 10 view .LVU77
 272 0068 07AB     		add	r3, sp, #28
 273              		.loc 1 325 13 view .LVU78
 274 006a 289E     		ldr	r6, [sp, #160]
 275              	.LVL30:
 260:D:/fchai/work/i-cube/I-CUBE-HUAWEI/Middlewares/Third_Party/Huawei/iot_link/network/dtls/mbedtls/mbedtls-2.16.2/library\ecdsa.c ****     mbedtls_ecp_point R;
 276              		.loc 1 260 10 view .LVU79
 277 006c 0593     		str	r3, [sp, #20]
 260:D:/fchai/work/i-cube/I-CUBE-HUAWEI/Middlewares/Third_Party/Huawei/iot_link/network/dtls/mbedtls/mbedtls-2.16.2/library\ecdsa.c ****     mbedtls_ecp_point R;
 278              		.loc 1 260 39 view .LVU80
 279 006e 06AF     		add	r7, sp, #24
 280              	.LVL31:
 281              		.loc 1 325 13 view .LVU81
 282 0070 05F1280B 		add	fp, r5, #40
ARM GAS  T:\msys\tmp\ccyWqaJb.s 			page 12


 283              	.LVL32:
 284              	.L19:
 308:D:/fchai/work/i-cube/I-CUBE-HUAWEI/Middlewares/Third_Party/Huawei/iot_link/network/dtls/mbedtls/mbedtls-2.16.2/library\ecdsa.c ****         do
 285              		.loc 1 308 9 is_stmt 1 view .LVU82
 308:D:/fchai/work/i-cube/I-CUBE-HUAWEI/Middlewares/Third_Party/Huawei/iot_link/network/dtls/mbedtls/mbedtls-2.16.2/library\ecdsa.c ****         do
 286              		.loc 1 308 22 is_stmt 0 view .LVU83
 287 0074 049B     		ldr	r3, [sp, #16]
 288 0076 47F8043B 		str	r3, [r7], #4
 289              	.LVL33:
 309:D:/fchai/work/i-cube/I-CUBE-HUAWEI/Middlewares/Third_Party/Huawei/iot_link/network/dtls/mbedtls/mbedtls-2.16.2/library\ecdsa.c ****         {
 290              		.loc 1 309 9 is_stmt 1 view .LVU84
 311:D:/fchai/work/i-cube/I-CUBE-HUAWEI/Middlewares/Third_Party/Huawei/iot_link/network/dtls/mbedtls/mbedtls-2.16.2/library\ecdsa.c ****             {
 291              		.loc 1 311 13 view .LVU85
 311:D:/fchai/work/i-cube/I-CUBE-HUAWEI/Middlewares/Third_Party/Huawei/iot_link/network/dtls/mbedtls/mbedtls-2.16.2/library\ecdsa.c ****             {
 292              		.loc 1 311 13 is_stmt 0 view .LVU86
 293 007a CDF8A490 		str	r9, [sp, #164]
 294 007e B946     		mov	r9, r7
 295 0080 299F     		ldr	r7, [sp, #164]
 296              	.LVL34:
 297              	.L15:
 317:D:/fchai/work/i-cube/I-CUBE-HUAWEI/Middlewares/Third_Party/Huawei/iot_link/network/dtls/mbedtls/mbedtls-2.16.2/library\ecdsa.c **** 
 298              		.loc 1 317 13 is_stmt 1 view .LVU87
 317:D:/fchai/work/i-cube/I-CUBE-HUAWEI/Middlewares/Third_Party/Huawei/iot_link/network/dtls/mbedtls/mbedtls-2.16.2/library\ecdsa.c **** 
 299              		.loc 1 317 13 view .LVU88
 300 0082 3B46     		mov	r3, r7
 301 0084 3246     		mov	r2, r6
 302 0086 08A9     		add	r1, sp, #32
 303              	.LVL35:
 317:D:/fchai/work/i-cube/I-CUBE-HUAWEI/Middlewares/Third_Party/Huawei/iot_link/network/dtls/mbedtls/mbedtls-2.16.2/library\ecdsa.c **** 
 304              		.loc 1 317 13 is_stmt 0 view .LVU89
 305 0088 2846     		mov	r0, r5
 306 008a FFF7FEFF 		bl	mbedtls_ecp_gen_privkey
 307              	.LVL36:
 317:D:/fchai/work/i-cube/I-CUBE-HUAWEI/Middlewares/Third_Party/Huawei/iot_link/network/dtls/mbedtls/mbedtls-2.16.2/library\ecdsa.c **** 
 308              		.loc 1 317 13 is_stmt 1 view .LVU90
 309              		.loc 1 325 13 view .LVU91
 310              		.loc 1 325 13 view .LVU92
 317:D:/fchai/work/i-cube/I-CUBE-HUAWEI/Middlewares/Third_Party/Huawei/iot_link/network/dtls/mbedtls/mbedtls-2.16.2/library\ecdsa.c **** 
 311              		.loc 1 317 13 is_stmt 0 view .LVU93
 312 008e 0446     		mov	r4, r0
 313              	.LVL37:
 314              		.loc 1 325 13 view .LVU94
 315 0090 5B46     		mov	r3, fp
 316 0092 08AA     		add	r2, sp, #32
 317              	.LVL38:
 318              		.loc 1 325 13 view .LVU95
 319 0094 11A9     		add	r1, sp, #68
 320 0096 2846     		mov	r0, r5
 321              	.LVL39:
 317:D:/fchai/work/i-cube/I-CUBE-HUAWEI/Middlewares/Third_Party/Huawei/iot_link/network/dtls/mbedtls/mbedtls-2.16.2/library\ecdsa.c **** 
 322              		.loc 1 317 13 view .LVU96
 323 0098 BCB9     		cbnz	r4, .L17
 324              	.LVL40:
 325              		.loc 1 325 13 view .LVU97
 326 009a CDE90174 		strd	r7, r4, [sp, #4]
 327 009e 0096     		str	r6, [sp]
 328 00a0 FFF7FEFF 		bl	mbedtls_ecp_mul_restartable
ARM GAS  T:\msys\tmp\ccyWqaJb.s 			page 13


 329              	.LVL41:
 330              		.loc 1 325 13 is_stmt 1 view .LVU98
 326:D:/fchai/work/i-cube/I-CUBE-HUAWEI/Middlewares/Third_Party/Huawei/iot_link/network/dtls/mbedtls/mbedtls-2.16.2/library\ecdsa.c ****                                                   f_rng, p_rng, ECDSA_RS_ECP ) );
 327:D:/fchai/work/i-cube/I-CUBE-HUAWEI/Middlewares/Third_Party/Huawei/iot_link/network/dtls/mbedtls/mbedtls-2.16.2/library\ecdsa.c ****             MBEDTLS_MPI_CHK( mbedtls_mpi_mod_mpi( pr, &R.X, &grp->N ) );
 331              		.loc 1 327 13 view .LVU99
 332              		.loc 1 327 13 view .LVU100
 325:D:/fchai/work/i-cube/I-CUBE-HUAWEI/Middlewares/Third_Party/Huawei/iot_link/network/dtls/mbedtls/mbedtls-2.16.2/library\ecdsa.c ****                                                   f_rng, p_rng, ECDSA_RS_ECP ) );
 333              		.loc 1 325 13 is_stmt 0 view .LVU101
 334 00a4 0446     		mov	r4, r0
 335              	.LVL42:
 336              		.loc 1 327 13 view .LVU102
 337 00a6 5246     		mov	r2, r10
 338 00a8 11A9     		add	r1, sp, #68
 339 00aa 4046     		mov	r0, r8
 340              	.LVL43:
 325:D:/fchai/work/i-cube/I-CUBE-HUAWEI/Middlewares/Third_Party/Huawei/iot_link/network/dtls/mbedtls/mbedtls-2.16.2/library\ecdsa.c ****                                                   f_rng, p_rng, ECDSA_RS_ECP ) );
 341              		.loc 1 325 13 view .LVU103
 342 00ac 6CB9     		cbnz	r4, .L17
 343              	.LVL44:
 344              		.loc 1 327 13 view .LVU104
 345 00ae FFF7FEFF 		bl	mbedtls_mpi_mod_mpi
 346              	.LVL45:
 347              		.loc 1 327 13 is_stmt 1 view .LVU105
 328:D:/fchai/work/i-cube/I-CUBE-HUAWEI/Middlewares/Third_Party/Huawei/iot_link/network/dtls/mbedtls/mbedtls-2.16.2/library\ecdsa.c ****         }
 329:D:/fchai/work/i-cube/I-CUBE-HUAWEI/Middlewares/Third_Party/Huawei/iot_link/network/dtls/mbedtls/mbedtls-2.16.2/library\ecdsa.c ****         while( mbedtls_mpi_cmp_int( pr, 0 ) == 0 );
 348              		.loc 1 329 14 view .LVU106
 327:D:/fchai/work/i-cube/I-CUBE-HUAWEI/Middlewares/Third_Party/Huawei/iot_link/network/dtls/mbedtls/mbedtls-2.16.2/library\ecdsa.c ****         }
 349              		.loc 1 327 13 is_stmt 0 view .LVU107
 350 00b2 0446     		mov	r4, r0
 351              	.LVL46:
 352              		.loc 1 329 16 view .LVU108
 353 00b4 2146     		mov	r1, r4
 354 00b6 4046     		mov	r0, r8
 355              	.LVL47:
 327:D:/fchai/work/i-cube/I-CUBE-HUAWEI/Middlewares/Third_Party/Huawei/iot_link/network/dtls/mbedtls/mbedtls-2.16.2/library\ecdsa.c ****         }
 356              		.loc 1 327 13 view .LVU109
 357 00b8 3CB9     		cbnz	r4, .L17
 358              	.LVL48:
 359              		.loc 1 329 16 view .LVU110
 360 00ba FFF7FEFF 		bl	mbedtls_mpi_cmp_int
 361              	.LVL49:
 309:D:/fchai/work/i-cube/I-CUBE-HUAWEI/Middlewares/Third_Party/Huawei/iot_link/network/dtls/mbedtls/mbedtls-2.16.2/library\ecdsa.c ****         {
 362              		.loc 1 309 9 is_stmt 1 view .LVU111
 311:D:/fchai/work/i-cube/I-CUBE-HUAWEI/Middlewares/Third_Party/Huawei/iot_link/network/dtls/mbedtls/mbedtls-2.16.2/library\ecdsa.c ****             {
 363              		.loc 1 311 13 view .LVU112
 364              		.loc 1 329 9 is_stmt 0 view .LVU113
 365 00be B0B9     		cbnz	r0, .L36
 311:D:/fchai/work/i-cube/I-CUBE-HUAWEI/Middlewares/Third_Party/Huawei/iot_link/network/dtls/mbedtls/mbedtls-2.16.2/library\ecdsa.c ****             {
 366              		.loc 1 311 15 view .LVU114
 367 00c0 59F8043B 		ldr	r3, [r9], #4
 368              	.LVL50:
 311:D:/fchai/work/i-cube/I-CUBE-HUAWEI/Middlewares/Third_Party/Huawei/iot_link/network/dtls/mbedtls/mbedtls-2.16.2/library\ecdsa.c ****             {
 369              		.loc 1 311 15 view .LVU115
 370 00c4 0A2B     		cmp	r3, #10
 371 00c6 DCDD     		ble	.L15
 372              	.LVL51:
 373              	.L16:
ARM GAS  T:\msys\tmp\ccyWqaJb.s 			page 14


 300:D:/fchai/work/i-cube/I-CUBE-HUAWEI/Middlewares/Third_Party/Huawei/iot_link/network/dtls/mbedtls/mbedtls-2.16.2/library\ecdsa.c ****             goto cleanup;
 374              		.loc 1 300 17 view .LVU116
 375 00c8 3E4C     		ldr	r4, .L37
 376              	.LVL52:
 377              	.L17:
 330:D:/fchai/work/i-cube/I-CUBE-HUAWEI/Middlewares/Third_Party/Huawei/iot_link/network/dtls/mbedtls/mbedtls-2.16.2/library\ecdsa.c **** 
 331:D:/fchai/work/i-cube/I-CUBE-HUAWEI/Middlewares/Third_Party/Huawei/iot_link/network/dtls/mbedtls/mbedtls-2.16.2/library\ecdsa.c **** #if defined(MBEDTLS_ECP_RESTARTABLE)
 332:D:/fchai/work/i-cube/I-CUBE-HUAWEI/Middlewares/Third_Party/Huawei/iot_link/network/dtls/mbedtls/mbedtls-2.16.2/library\ecdsa.c ****         if( rs_ctx != NULL && rs_ctx->sig != NULL )
 333:D:/fchai/work/i-cube/I-CUBE-HUAWEI/Middlewares/Third_Party/Huawei/iot_link/network/dtls/mbedtls/mbedtls-2.16.2/library\ecdsa.c ****             rs_ctx->sig->state = ecdsa_sig_modn;
 334:D:/fchai/work/i-cube/I-CUBE-HUAWEI/Middlewares/Third_Party/Huawei/iot_link/network/dtls/mbedtls/mbedtls-2.16.2/library\ecdsa.c **** 
 335:D:/fchai/work/i-cube/I-CUBE-HUAWEI/Middlewares/Third_Party/Huawei/iot_link/network/dtls/mbedtls/mbedtls-2.16.2/library\ecdsa.c **** modn:
 336:D:/fchai/work/i-cube/I-CUBE-HUAWEI/Middlewares/Third_Party/Huawei/iot_link/network/dtls/mbedtls/mbedtls-2.16.2/library\ecdsa.c **** #endif
 337:D:/fchai/work/i-cube/I-CUBE-HUAWEI/Middlewares/Third_Party/Huawei/iot_link/network/dtls/mbedtls/mbedtls-2.16.2/library\ecdsa.c ****         /*
 338:D:/fchai/work/i-cube/I-CUBE-HUAWEI/Middlewares/Third_Party/Huawei/iot_link/network/dtls/mbedtls/mbedtls-2.16.2/library\ecdsa.c ****          * Accounting for everything up to the end of the loop
 339:D:/fchai/work/i-cube/I-CUBE-HUAWEI/Middlewares/Third_Party/Huawei/iot_link/network/dtls/mbedtls/mbedtls-2.16.2/library\ecdsa.c ****          * (step 6, but checking now avoids saving e and t)
 340:D:/fchai/work/i-cube/I-CUBE-HUAWEI/Middlewares/Third_Party/Huawei/iot_link/network/dtls/mbedtls/mbedtls-2.16.2/library\ecdsa.c ****          */
 341:D:/fchai/work/i-cube/I-CUBE-HUAWEI/Middlewares/Third_Party/Huawei/iot_link/network/dtls/mbedtls/mbedtls-2.16.2/library\ecdsa.c ****         ECDSA_BUDGET( MBEDTLS_ECP_OPS_INV + 4 );
 342:D:/fchai/work/i-cube/I-CUBE-HUAWEI/Middlewares/Third_Party/Huawei/iot_link/network/dtls/mbedtls/mbedtls-2.16.2/library\ecdsa.c **** 
 343:D:/fchai/work/i-cube/I-CUBE-HUAWEI/Middlewares/Third_Party/Huawei/iot_link/network/dtls/mbedtls/mbedtls-2.16.2/library\ecdsa.c ****         /*
 344:D:/fchai/work/i-cube/I-CUBE-HUAWEI/Middlewares/Third_Party/Huawei/iot_link/network/dtls/mbedtls/mbedtls-2.16.2/library\ecdsa.c ****          * Step 5: derive MPI from hashed message
 345:D:/fchai/work/i-cube/I-CUBE-HUAWEI/Middlewares/Third_Party/Huawei/iot_link/network/dtls/mbedtls/mbedtls-2.16.2/library\ecdsa.c ****          */
 346:D:/fchai/work/i-cube/I-CUBE-HUAWEI/Middlewares/Third_Party/Huawei/iot_link/network/dtls/mbedtls/mbedtls-2.16.2/library\ecdsa.c ****         MBEDTLS_MPI_CHK( derive_mpi( grp, &e, buf, blen ) );
 347:D:/fchai/work/i-cube/I-CUBE-HUAWEI/Middlewares/Third_Party/Huawei/iot_link/network/dtls/mbedtls/mbedtls-2.16.2/library\ecdsa.c **** 
 348:D:/fchai/work/i-cube/I-CUBE-HUAWEI/Middlewares/Third_Party/Huawei/iot_link/network/dtls/mbedtls/mbedtls-2.16.2/library\ecdsa.c ****         /*
 349:D:/fchai/work/i-cube/I-CUBE-HUAWEI/Middlewares/Third_Party/Huawei/iot_link/network/dtls/mbedtls/mbedtls-2.16.2/library\ecdsa.c ****          * Generate a random value to blind inv_mod in next step,
 350:D:/fchai/work/i-cube/I-CUBE-HUAWEI/Middlewares/Third_Party/Huawei/iot_link/network/dtls/mbedtls/mbedtls-2.16.2/library\ecdsa.c ****          * avoiding a potential timing leak.
 351:D:/fchai/work/i-cube/I-CUBE-HUAWEI/Middlewares/Third_Party/Huawei/iot_link/network/dtls/mbedtls/mbedtls-2.16.2/library\ecdsa.c ****          */
 352:D:/fchai/work/i-cube/I-CUBE-HUAWEI/Middlewares/Third_Party/Huawei/iot_link/network/dtls/mbedtls/mbedtls-2.16.2/library\ecdsa.c ****         MBEDTLS_MPI_CHK( mbedtls_ecp_gen_privkey( grp, &t, f_rng, p_rng ) );
 353:D:/fchai/work/i-cube/I-CUBE-HUAWEI/Middlewares/Third_Party/Huawei/iot_link/network/dtls/mbedtls/mbedtls-2.16.2/library\ecdsa.c **** 
 354:D:/fchai/work/i-cube/I-CUBE-HUAWEI/Middlewares/Third_Party/Huawei/iot_link/network/dtls/mbedtls/mbedtls-2.16.2/library\ecdsa.c ****         /*
 355:D:/fchai/work/i-cube/I-CUBE-HUAWEI/Middlewares/Third_Party/Huawei/iot_link/network/dtls/mbedtls/mbedtls-2.16.2/library\ecdsa.c ****          * Step 6: compute s = (e + r * d) / k = t (e + rd) / (kt) mod n
 356:D:/fchai/work/i-cube/I-CUBE-HUAWEI/Middlewares/Third_Party/Huawei/iot_link/network/dtls/mbedtls/mbedtls-2.16.2/library\ecdsa.c ****          */
 357:D:/fchai/work/i-cube/I-CUBE-HUAWEI/Middlewares/Third_Party/Huawei/iot_link/network/dtls/mbedtls/mbedtls-2.16.2/library\ecdsa.c ****         MBEDTLS_MPI_CHK( mbedtls_mpi_mul_mpi( s, pr, d ) );
 358:D:/fchai/work/i-cube/I-CUBE-HUAWEI/Middlewares/Third_Party/Huawei/iot_link/network/dtls/mbedtls/mbedtls-2.16.2/library\ecdsa.c ****         MBEDTLS_MPI_CHK( mbedtls_mpi_add_mpi( &e, &e, s ) );
 359:D:/fchai/work/i-cube/I-CUBE-HUAWEI/Middlewares/Third_Party/Huawei/iot_link/network/dtls/mbedtls/mbedtls-2.16.2/library\ecdsa.c ****         MBEDTLS_MPI_CHK( mbedtls_mpi_mul_mpi( &e, &e, &t ) );
 360:D:/fchai/work/i-cube/I-CUBE-HUAWEI/Middlewares/Third_Party/Huawei/iot_link/network/dtls/mbedtls/mbedtls-2.16.2/library\ecdsa.c ****         MBEDTLS_MPI_CHK( mbedtls_mpi_mul_mpi( pk, pk, &t ) );
 361:D:/fchai/work/i-cube/I-CUBE-HUAWEI/Middlewares/Third_Party/Huawei/iot_link/network/dtls/mbedtls/mbedtls-2.16.2/library\ecdsa.c ****         MBEDTLS_MPI_CHK( mbedtls_mpi_inv_mod( s, pk, &grp->N ) );
 362:D:/fchai/work/i-cube/I-CUBE-HUAWEI/Middlewares/Third_Party/Huawei/iot_link/network/dtls/mbedtls/mbedtls-2.16.2/library\ecdsa.c ****         MBEDTLS_MPI_CHK( mbedtls_mpi_mul_mpi( s, s, &e ) );
 363:D:/fchai/work/i-cube/I-CUBE-HUAWEI/Middlewares/Third_Party/Huawei/iot_link/network/dtls/mbedtls/mbedtls-2.16.2/library\ecdsa.c ****         MBEDTLS_MPI_CHK( mbedtls_mpi_mod_mpi( s, s, &grp->N ) );
 364:D:/fchai/work/i-cube/I-CUBE-HUAWEI/Middlewares/Third_Party/Huawei/iot_link/network/dtls/mbedtls/mbedtls-2.16.2/library\ecdsa.c ****     }
 365:D:/fchai/work/i-cube/I-CUBE-HUAWEI/Middlewares/Third_Party/Huawei/iot_link/network/dtls/mbedtls/mbedtls-2.16.2/library\ecdsa.c ****     while( mbedtls_mpi_cmp_int( s, 0 ) == 0 );
 366:D:/fchai/work/i-cube/I-CUBE-HUAWEI/Middlewares/Third_Party/Huawei/iot_link/network/dtls/mbedtls/mbedtls-2.16.2/library\ecdsa.c **** 
 367:D:/fchai/work/i-cube/I-CUBE-HUAWEI/Middlewares/Third_Party/Huawei/iot_link/network/dtls/mbedtls/mbedtls-2.16.2/library\ecdsa.c **** #if defined(MBEDTLS_ECP_RESTARTABLE)
 368:D:/fchai/work/i-cube/I-CUBE-HUAWEI/Middlewares/Third_Party/Huawei/iot_link/network/dtls/mbedtls/mbedtls-2.16.2/library\ecdsa.c ****     if( rs_ctx != NULL && rs_ctx->sig != NULL )
 369:D:/fchai/work/i-cube/I-CUBE-HUAWEI/Middlewares/Third_Party/Huawei/iot_link/network/dtls/mbedtls/mbedtls-2.16.2/library\ecdsa.c ****         mbedtls_mpi_copy( r, pr );
 370:D:/fchai/work/i-cube/I-CUBE-HUAWEI/Middlewares/Third_Party/Huawei/iot_link/network/dtls/mbedtls/mbedtls-2.16.2/library\ecdsa.c **** #endif
 371:D:/fchai/work/i-cube/I-CUBE-HUAWEI/Middlewares/Third_Party/Huawei/iot_link/network/dtls/mbedtls/mbedtls-2.16.2/library\ecdsa.c **** 
 372:D:/fchai/work/i-cube/I-CUBE-HUAWEI/Middlewares/Third_Party/Huawei/iot_link/network/dtls/mbedtls/mbedtls-2.16.2/library\ecdsa.c **** cleanup:
 373:D:/fchai/work/i-cube/I-CUBE-HUAWEI/Middlewares/Third_Party/Huawei/iot_link/network/dtls/mbedtls/mbedtls-2.16.2/library\ecdsa.c ****     mbedtls_ecp_point_free( &R );
 378              		.loc 1 373 5 is_stmt 1 view .LVU117
 379 00ca 11A8     		add	r0, sp, #68
 380 00cc FFF7FEFF 		bl	mbedtls_ecp_point_free
 381              	.LVL53:
 374:D:/fchai/work/i-cube/I-CUBE-HUAWEI/Middlewares/Third_Party/Huawei/iot_link/network/dtls/mbedtls/mbedtls-2.16.2/library\ecdsa.c ****     mbedtls_mpi_free( &k ); mbedtls_mpi_free( &e ); mbedtls_mpi_free( &t );
 382              		.loc 1 374 5 view .LVU118
 383 00d0 08A8     		add	r0, sp, #32
 384              	.LVL54:
ARM GAS  T:\msys\tmp\ccyWqaJb.s 			page 15


 385              		.loc 1 374 5 is_stmt 0 view .LVU119
 386 00d2 FFF7FEFF 		bl	mbedtls_mpi_free
 387              	.LVL55:
 388              		.loc 1 374 29 is_stmt 1 view .LVU120
 389 00d6 0BA8     		add	r0, sp, #44
 390 00d8 FFF7FEFF 		bl	mbedtls_mpi_free
 391              	.LVL56:
 392              		.loc 1 374 53 view .LVU121
 393 00dc 0EA8     		add	r0, sp, #56
 394 00de FFF7FEFF 		bl	mbedtls_mpi_free
 395              	.LVL57:
 375:D:/fchai/work/i-cube/I-CUBE-HUAWEI/Middlewares/Third_Party/Huawei/iot_link/network/dtls/mbedtls/mbedtls-2.16.2/library\ecdsa.c **** 
 376:D:/fchai/work/i-cube/I-CUBE-HUAWEI/Middlewares/Third_Party/Huawei/iot_link/network/dtls/mbedtls/mbedtls-2.16.2/library\ecdsa.c ****     ECDSA_RS_LEAVE( sig );
 396              		.loc 1 376 5 view .LVU122
 377:D:/fchai/work/i-cube/I-CUBE-HUAWEI/Middlewares/Third_Party/Huawei/iot_link/network/dtls/mbedtls/mbedtls-2.16.2/library\ecdsa.c **** 
 378:D:/fchai/work/i-cube/I-CUBE-HUAWEI/Middlewares/Third_Party/Huawei/iot_link/network/dtls/mbedtls/mbedtls-2.16.2/library\ecdsa.c ****     return( ret );
 397              		.loc 1 378 5 view .LVU123
 398              	.L11:
 379:D:/fchai/work/i-cube/I-CUBE-HUAWEI/Middlewares/Third_Party/Huawei/iot_link/network/dtls/mbedtls/mbedtls-2.16.2/library\ecdsa.c **** }
 399              		.loc 1 379 1 is_stmt 0 view .LVU124
 400 00e2 2046     		mov	r0, r4
 401 00e4 1BB0     		add	sp, sp, #108
 402              	.LCFI6:
 403              		.cfi_remember_state
 404              		.cfi_def_cfa_offset 44
 405              		@ sp needed
 406 00e6 BDEC028B 		vldm	sp!, {d8}
 407              	.LCFI7:
 408              		.cfi_restore 80
 409              		.cfi_restore 81
 410              		.cfi_def_cfa_offset 36
 411 00ea BDE8F08F 		pop	{r4, r5, r6, r7, r8, r9, r10, fp, pc}
 412              	.LVL58:
 413              	.L36:
 414              	.LCFI8:
 415              		.cfi_restore_state
 341:D:/fchai/work/i-cube/I-CUBE-HUAWEI/Middlewares/Third_Party/Huawei/iot_link/network/dtls/mbedtls/mbedtls-2.16.2/library\ecdsa.c **** 
 416              		.loc 1 341 48 is_stmt 1 view .LVU125
 346:D:/fchai/work/i-cube/I-CUBE-HUAWEI/Middlewares/Third_Party/Huawei/iot_link/network/dtls/mbedtls/mbedtls-2.16.2/library\ecdsa.c **** 
 417              		.loc 1 346 9 view .LVU126
 346:D:/fchai/work/i-cube/I-CUBE-HUAWEI/Middlewares/Third_Party/Huawei/iot_link/network/dtls/mbedtls/mbedtls-2.16.2/library\ecdsa.c **** 
 418              		.loc 1 346 9 view .LVU127
 419 00ee 2997     		str	r7, [sp, #164]
 420 00f0 DDE92623 		ldrd	r2, r3, [sp, #152]
 421 00f4 0BA9     		add	r1, sp, #44
 422 00f6 2846     		mov	r0, r5
 423 00f8 4F46     		mov	r7, r9
 424 00fa DDF8A490 		ldr	r9, [sp, #164]
 425              	.LVL59:
 346:D:/fchai/work/i-cube/I-CUBE-HUAWEI/Middlewares/Third_Party/Huawei/iot_link/network/dtls/mbedtls/mbedtls-2.16.2/library\ecdsa.c **** 
 426              		.loc 1 346 9 is_stmt 0 view .LVU128
 427 00fe FFF7FEFF 		bl	derive_mpi
 428              	.LVL60:
 346:D:/fchai/work/i-cube/I-CUBE-HUAWEI/Middlewares/Third_Party/Huawei/iot_link/network/dtls/mbedtls/mbedtls-2.16.2/library\ecdsa.c **** 
 429              		.loc 1 346 9 view .LVU129
 430 0102 0446     		mov	r4, r0
 431 0104 0028     		cmp	r0, #0
ARM GAS  T:\msys\tmp\ccyWqaJb.s 			page 16


 432 0106 E0D1     		bne	.L17
 346:D:/fchai/work/i-cube/I-CUBE-HUAWEI/Middlewares/Third_Party/Huawei/iot_link/network/dtls/mbedtls/mbedtls-2.16.2/library\ecdsa.c **** 
 433              		.loc 1 346 9 is_stmt 1 view .LVU130
 352:D:/fchai/work/i-cube/I-CUBE-HUAWEI/Middlewares/Third_Party/Huawei/iot_link/network/dtls/mbedtls/mbedtls-2.16.2/library\ecdsa.c **** 
 434              		.loc 1 352 9 view .LVU131
 352:D:/fchai/work/i-cube/I-CUBE-HUAWEI/Middlewares/Third_Party/Huawei/iot_link/network/dtls/mbedtls/mbedtls-2.16.2/library\ecdsa.c **** 
 435              		.loc 1 352 9 view .LVU132
 436 0108 4B46     		mov	r3, r9
 437 010a 3246     		mov	r2, r6
 438 010c 0EA9     		add	r1, sp, #56
 439 010e 2846     		mov	r0, r5
 440              	.LVL61:
 352:D:/fchai/work/i-cube/I-CUBE-HUAWEI/Middlewares/Third_Party/Huawei/iot_link/network/dtls/mbedtls/mbedtls-2.16.2/library\ecdsa.c **** 
 441              		.loc 1 352 9 is_stmt 0 view .LVU133
 442 0110 FFF7FEFF 		bl	mbedtls_ecp_gen_privkey
 443              	.LVL62:
 352:D:/fchai/work/i-cube/I-CUBE-HUAWEI/Middlewares/Third_Party/Huawei/iot_link/network/dtls/mbedtls/mbedtls-2.16.2/library\ecdsa.c **** 
 444              		.loc 1 352 9 view .LVU134
 445 0114 0446     		mov	r4, r0
 446 0116 0028     		cmp	r0, #0
 447 0118 D7D1     		bne	.L17
 352:D:/fchai/work/i-cube/I-CUBE-HUAWEI/Middlewares/Third_Party/Huawei/iot_link/network/dtls/mbedtls/mbedtls-2.16.2/library\ecdsa.c **** 
 448              		.loc 1 352 9 is_stmt 1 view .LVU135
 357:D:/fchai/work/i-cube/I-CUBE-HUAWEI/Middlewares/Third_Party/Huawei/iot_link/network/dtls/mbedtls/mbedtls-2.16.2/library\ecdsa.c ****         MBEDTLS_MPI_CHK( mbedtls_mpi_add_mpi( &e, &e, s ) );
 449              		.loc 1 357 9 view .LVU136
 357:D:/fchai/work/i-cube/I-CUBE-HUAWEI/Middlewares/Third_Party/Huawei/iot_link/network/dtls/mbedtls/mbedtls-2.16.2/library\ecdsa.c ****         MBEDTLS_MPI_CHK( mbedtls_mpi_add_mpi( &e, &e, s ) );
 450              		.loc 1 357 9 view .LVU137
 451 011a 18EE902A 		vmov	r2, s17	@ int
 452 011e 18EE100A 		vmov	r0, s16	@ int
 453              	.LVL63:
 357:D:/fchai/work/i-cube/I-CUBE-HUAWEI/Middlewares/Third_Party/Huawei/iot_link/network/dtls/mbedtls/mbedtls-2.16.2/library\ecdsa.c ****         MBEDTLS_MPI_CHK( mbedtls_mpi_add_mpi( &e, &e, s ) );
 454              		.loc 1 357 9 is_stmt 0 view .LVU138
 455 0122 4146     		mov	r1, r8
 456 0124 FFF7FEFF 		bl	mbedtls_mpi_mul_mpi
 457              	.LVL64:
 357:D:/fchai/work/i-cube/I-CUBE-HUAWEI/Middlewares/Third_Party/Huawei/iot_link/network/dtls/mbedtls/mbedtls-2.16.2/library\ecdsa.c ****         MBEDTLS_MPI_CHK( mbedtls_mpi_add_mpi( &e, &e, s ) );
 458              		.loc 1 357 9 view .LVU139
 459 0128 0446     		mov	r4, r0
 460 012a 0028     		cmp	r0, #0
 461 012c CDD1     		bne	.L17
 357:D:/fchai/work/i-cube/I-CUBE-HUAWEI/Middlewares/Third_Party/Huawei/iot_link/network/dtls/mbedtls/mbedtls-2.16.2/library\ecdsa.c ****         MBEDTLS_MPI_CHK( mbedtls_mpi_add_mpi( &e, &e, s ) );
 462              		.loc 1 357 9 is_stmt 1 view .LVU140
 358:D:/fchai/work/i-cube/I-CUBE-HUAWEI/Middlewares/Third_Party/Huawei/iot_link/network/dtls/mbedtls/mbedtls-2.16.2/library\ecdsa.c ****         MBEDTLS_MPI_CHK( mbedtls_mpi_mul_mpi( &e, &e, &t ) );
 463              		.loc 1 358 9 view .LVU141
 358:D:/fchai/work/i-cube/I-CUBE-HUAWEI/Middlewares/Third_Party/Huawei/iot_link/network/dtls/mbedtls/mbedtls-2.16.2/library\ecdsa.c ****         MBEDTLS_MPI_CHK( mbedtls_mpi_mul_mpi( &e, &e, &t ) );
 464              		.loc 1 358 9 view .LVU142
 465 012e 0BA9     		add	r1, sp, #44
 466 0130 18EE102A 		vmov	r2, s16	@ int
 467 0134 0846     		mov	r0, r1
 468              	.LVL65:
 358:D:/fchai/work/i-cube/I-CUBE-HUAWEI/Middlewares/Third_Party/Huawei/iot_link/network/dtls/mbedtls/mbedtls-2.16.2/library\ecdsa.c ****         MBEDTLS_MPI_CHK( mbedtls_mpi_mul_mpi( &e, &e, &t ) );
 469              		.loc 1 358 9 is_stmt 0 view .LVU143
 470 0136 FFF7FEFF 		bl	mbedtls_mpi_add_mpi
 471              	.LVL66:
 358:D:/fchai/work/i-cube/I-CUBE-HUAWEI/Middlewares/Third_Party/Huawei/iot_link/network/dtls/mbedtls/mbedtls-2.16.2/library\ecdsa.c ****         MBEDTLS_MPI_CHK( mbedtls_mpi_mul_mpi( &e, &e, &t ) );
 472              		.loc 1 358 9 view .LVU144
 473 013a 0446     		mov	r4, r0
ARM GAS  T:\msys\tmp\ccyWqaJb.s 			page 17


 474 013c 0028     		cmp	r0, #0
 475 013e C4D1     		bne	.L17
 358:D:/fchai/work/i-cube/I-CUBE-HUAWEI/Middlewares/Third_Party/Huawei/iot_link/network/dtls/mbedtls/mbedtls-2.16.2/library\ecdsa.c ****         MBEDTLS_MPI_CHK( mbedtls_mpi_mul_mpi( &e, &e, &t ) );
 476              		.loc 1 358 9 is_stmt 1 view .LVU145
 359:D:/fchai/work/i-cube/I-CUBE-HUAWEI/Middlewares/Third_Party/Huawei/iot_link/network/dtls/mbedtls/mbedtls-2.16.2/library\ecdsa.c ****         MBEDTLS_MPI_CHK( mbedtls_mpi_mul_mpi( pk, pk, &t ) );
 477              		.loc 1 359 9 view .LVU146
 359:D:/fchai/work/i-cube/I-CUBE-HUAWEI/Middlewares/Third_Party/Huawei/iot_link/network/dtls/mbedtls/mbedtls-2.16.2/library\ecdsa.c ****         MBEDTLS_MPI_CHK( mbedtls_mpi_mul_mpi( pk, pk, &t ) );
 478              		.loc 1 359 9 view .LVU147
 479 0140 0EAB     		add	r3, sp, #56
 480 0142 0BA9     		add	r1, sp, #44
 481 0144 1A46     		mov	r2, r3
 482 0146 0846     		mov	r0, r1
 483              	.LVL67:
 359:D:/fchai/work/i-cube/I-CUBE-HUAWEI/Middlewares/Third_Party/Huawei/iot_link/network/dtls/mbedtls/mbedtls-2.16.2/library\ecdsa.c ****         MBEDTLS_MPI_CHK( mbedtls_mpi_mul_mpi( pk, pk, &t ) );
 484              		.loc 1 359 9 is_stmt 0 view .LVU148
 485 0148 FFF7FEFF 		bl	mbedtls_mpi_mul_mpi
 486              	.LVL68:
 359:D:/fchai/work/i-cube/I-CUBE-HUAWEI/Middlewares/Third_Party/Huawei/iot_link/network/dtls/mbedtls/mbedtls-2.16.2/library\ecdsa.c ****         MBEDTLS_MPI_CHK( mbedtls_mpi_mul_mpi( pk, pk, &t ) );
 487              		.loc 1 359 9 view .LVU149
 488 014c 0446     		mov	r4, r0
 489 014e 0028     		cmp	r0, #0
 490 0150 BBD1     		bne	.L17
 359:D:/fchai/work/i-cube/I-CUBE-HUAWEI/Middlewares/Third_Party/Huawei/iot_link/network/dtls/mbedtls/mbedtls-2.16.2/library\ecdsa.c ****         MBEDTLS_MPI_CHK( mbedtls_mpi_mul_mpi( pk, pk, &t ) );
 491              		.loc 1 359 9 is_stmt 1 view .LVU150
 360:D:/fchai/work/i-cube/I-CUBE-HUAWEI/Middlewares/Third_Party/Huawei/iot_link/network/dtls/mbedtls/mbedtls-2.16.2/library\ecdsa.c ****         MBEDTLS_MPI_CHK( mbedtls_mpi_inv_mod( s, pk, &grp->N ) );
 492              		.loc 1 360 9 view .LVU151
 360:D:/fchai/work/i-cube/I-CUBE-HUAWEI/Middlewares/Third_Party/Huawei/iot_link/network/dtls/mbedtls/mbedtls-2.16.2/library\ecdsa.c ****         MBEDTLS_MPI_CHK( mbedtls_mpi_inv_mod( s, pk, &grp->N ) );
 493              		.loc 1 360 9 view .LVU152
 494 0152 0EAB     		add	r3, sp, #56
 495 0154 08A9     		add	r1, sp, #32
 496              	.LVL69:
 360:D:/fchai/work/i-cube/I-CUBE-HUAWEI/Middlewares/Third_Party/Huawei/iot_link/network/dtls/mbedtls/mbedtls-2.16.2/library\ecdsa.c ****         MBEDTLS_MPI_CHK( mbedtls_mpi_inv_mod( s, pk, &grp->N ) );
 497              		.loc 1 360 9 is_stmt 0 view .LVU153
 498 0156 1A46     		mov	r2, r3
 499 0158 0846     		mov	r0, r1
 500              	.LVL70:
 360:D:/fchai/work/i-cube/I-CUBE-HUAWEI/Middlewares/Third_Party/Huawei/iot_link/network/dtls/mbedtls/mbedtls-2.16.2/library\ecdsa.c ****         MBEDTLS_MPI_CHK( mbedtls_mpi_inv_mod( s, pk, &grp->N ) );
 501              		.loc 1 360 9 view .LVU154
 502 015a FFF7FEFF 		bl	mbedtls_mpi_mul_mpi
 503              	.LVL71:
 360:D:/fchai/work/i-cube/I-CUBE-HUAWEI/Middlewares/Third_Party/Huawei/iot_link/network/dtls/mbedtls/mbedtls-2.16.2/library\ecdsa.c ****         MBEDTLS_MPI_CHK( mbedtls_mpi_inv_mod( s, pk, &grp->N ) );
 504              		.loc 1 360 9 view .LVU155
 505 015e 0446     		mov	r4, r0
 506 0160 0028     		cmp	r0, #0
 507 0162 B2D1     		bne	.L17
 360:D:/fchai/work/i-cube/I-CUBE-HUAWEI/Middlewares/Third_Party/Huawei/iot_link/network/dtls/mbedtls/mbedtls-2.16.2/library\ecdsa.c ****         MBEDTLS_MPI_CHK( mbedtls_mpi_inv_mod( s, pk, &grp->N ) );
 508              		.loc 1 360 9 is_stmt 1 view .LVU156
 361:D:/fchai/work/i-cube/I-CUBE-HUAWEI/Middlewares/Third_Party/Huawei/iot_link/network/dtls/mbedtls/mbedtls-2.16.2/library\ecdsa.c ****         MBEDTLS_MPI_CHK( mbedtls_mpi_mul_mpi( s, s, &e ) );
 509              		.loc 1 361 9 view .LVU157
 361:D:/fchai/work/i-cube/I-CUBE-HUAWEI/Middlewares/Third_Party/Huawei/iot_link/network/dtls/mbedtls/mbedtls-2.16.2/library\ecdsa.c ****         MBEDTLS_MPI_CHK( mbedtls_mpi_mul_mpi( s, s, &e ) );
 510              		.loc 1 361 9 view .LVU158
 511 0164 18EE100A 		vmov	r0, s16	@ int
 512              	.LVL72:
 361:D:/fchai/work/i-cube/I-CUBE-HUAWEI/Middlewares/Third_Party/Huawei/iot_link/network/dtls/mbedtls/mbedtls-2.16.2/library\ecdsa.c ****         MBEDTLS_MPI_CHK( mbedtls_mpi_mul_mpi( s, s, &e ) );
 513              		.loc 1 361 9 is_stmt 0 view .LVU159
 514 0168 5246     		mov	r2, r10
 515 016a 08A9     		add	r1, sp, #32
ARM GAS  T:\msys\tmp\ccyWqaJb.s 			page 18


 516              	.LVL73:
 361:D:/fchai/work/i-cube/I-CUBE-HUAWEI/Middlewares/Third_Party/Huawei/iot_link/network/dtls/mbedtls/mbedtls-2.16.2/library\ecdsa.c ****         MBEDTLS_MPI_CHK( mbedtls_mpi_mul_mpi( s, s, &e ) );
 517              		.loc 1 361 9 view .LVU160
 518 016c FFF7FEFF 		bl	mbedtls_mpi_inv_mod
 519              	.LVL74:
 361:D:/fchai/work/i-cube/I-CUBE-HUAWEI/Middlewares/Third_Party/Huawei/iot_link/network/dtls/mbedtls/mbedtls-2.16.2/library\ecdsa.c ****         MBEDTLS_MPI_CHK( mbedtls_mpi_mul_mpi( s, s, &e ) );
 520              		.loc 1 361 9 view .LVU161
 521 0170 0446     		mov	r4, r0
 522 0172 0028     		cmp	r0, #0
 523 0174 A9D1     		bne	.L17
 361:D:/fchai/work/i-cube/I-CUBE-HUAWEI/Middlewares/Third_Party/Huawei/iot_link/network/dtls/mbedtls/mbedtls-2.16.2/library\ecdsa.c ****         MBEDTLS_MPI_CHK( mbedtls_mpi_mul_mpi( s, s, &e ) );
 524              		.loc 1 361 9 is_stmt 1 view .LVU162
 362:D:/fchai/work/i-cube/I-CUBE-HUAWEI/Middlewares/Third_Party/Huawei/iot_link/network/dtls/mbedtls/mbedtls-2.16.2/library\ecdsa.c ****         MBEDTLS_MPI_CHK( mbedtls_mpi_mod_mpi( s, s, &grp->N ) );
 525              		.loc 1 362 9 view .LVU163
 362:D:/fchai/work/i-cube/I-CUBE-HUAWEI/Middlewares/Third_Party/Huawei/iot_link/network/dtls/mbedtls/mbedtls-2.16.2/library\ecdsa.c ****         MBEDTLS_MPI_CHK( mbedtls_mpi_mod_mpi( s, s, &grp->N ) );
 526              		.loc 1 362 9 view .LVU164
 527 0176 18EE101A 		vmov	r1, s16	@ int
 528 017a 18EE100A 		vmov	r0, s16	@ int
 529              	.LVL75:
 362:D:/fchai/work/i-cube/I-CUBE-HUAWEI/Middlewares/Third_Party/Huawei/iot_link/network/dtls/mbedtls/mbedtls-2.16.2/library\ecdsa.c ****         MBEDTLS_MPI_CHK( mbedtls_mpi_mod_mpi( s, s, &grp->N ) );
 530              		.loc 1 362 9 is_stmt 0 view .LVU165
 531 017e 0BAA     		add	r2, sp, #44
 532 0180 FFF7FEFF 		bl	mbedtls_mpi_mul_mpi
 533              	.LVL76:
 362:D:/fchai/work/i-cube/I-CUBE-HUAWEI/Middlewares/Third_Party/Huawei/iot_link/network/dtls/mbedtls/mbedtls-2.16.2/library\ecdsa.c ****         MBEDTLS_MPI_CHK( mbedtls_mpi_mod_mpi( s, s, &grp->N ) );
 534              		.loc 1 362 9 view .LVU166
 535 0184 0446     		mov	r4, r0
 536 0186 0028     		cmp	r0, #0
 537 0188 9FD1     		bne	.L17
 362:D:/fchai/work/i-cube/I-CUBE-HUAWEI/Middlewares/Third_Party/Huawei/iot_link/network/dtls/mbedtls/mbedtls-2.16.2/library\ecdsa.c ****         MBEDTLS_MPI_CHK( mbedtls_mpi_mod_mpi( s, s, &grp->N ) );
 538              		.loc 1 362 9 is_stmt 1 view .LVU167
 363:D:/fchai/work/i-cube/I-CUBE-HUAWEI/Middlewares/Third_Party/Huawei/iot_link/network/dtls/mbedtls/mbedtls-2.16.2/library\ecdsa.c ****     }
 539              		.loc 1 363 9 view .LVU168
 363:D:/fchai/work/i-cube/I-CUBE-HUAWEI/Middlewares/Third_Party/Huawei/iot_link/network/dtls/mbedtls/mbedtls-2.16.2/library\ecdsa.c ****     }
 540              		.loc 1 363 9 view .LVU169
 541 018a 18EE101A 		vmov	r1, s16	@ int
 542 018e 18EE100A 		vmov	r0, s16	@ int
 543              	.LVL77:
 363:D:/fchai/work/i-cube/I-CUBE-HUAWEI/Middlewares/Third_Party/Huawei/iot_link/network/dtls/mbedtls/mbedtls-2.16.2/library\ecdsa.c ****     }
 544              		.loc 1 363 9 is_stmt 0 view .LVU170
 545 0192 5246     		mov	r2, r10
 546 0194 FFF7FEFF 		bl	mbedtls_mpi_mod_mpi
 547              	.LVL78:
 363:D:/fchai/work/i-cube/I-CUBE-HUAWEI/Middlewares/Third_Party/Huawei/iot_link/network/dtls/mbedtls/mbedtls-2.16.2/library\ecdsa.c ****     }
 548              		.loc 1 363 9 view .LVU171
 549 0198 0446     		mov	r4, r0
 550 019a 0028     		cmp	r0, #0
 551 019c 95D1     		bne	.L17
 363:D:/fchai/work/i-cube/I-CUBE-HUAWEI/Middlewares/Third_Party/Huawei/iot_link/network/dtls/mbedtls/mbedtls-2.16.2/library\ecdsa.c ****     }
 552              		.loc 1 363 9 is_stmt 1 view .LVU172
 365:D:/fchai/work/i-cube/I-CUBE-HUAWEI/Middlewares/Third_Party/Huawei/iot_link/network/dtls/mbedtls/mbedtls-2.16.2/library\ecdsa.c **** 
 553              		.loc 1 365 10 view .LVU173
 365:D:/fchai/work/i-cube/I-CUBE-HUAWEI/Middlewares/Third_Party/Huawei/iot_link/network/dtls/mbedtls/mbedtls-2.16.2/library\ecdsa.c **** 
 554              		.loc 1 365 12 is_stmt 0 view .LVU174
 555 019e 0146     		mov	r1, r0
 556 01a0 18EE100A 		vmov	r0, s16	@ int
 557              	.LVL79:
ARM GAS  T:\msys\tmp\ccyWqaJb.s 			page 19


 365:D:/fchai/work/i-cube/I-CUBE-HUAWEI/Middlewares/Third_Party/Huawei/iot_link/network/dtls/mbedtls/mbedtls-2.16.2/library\ecdsa.c **** 
 558              		.loc 1 365 12 view .LVU175
 559 01a4 FFF7FEFF 		bl	mbedtls_mpi_cmp_int
 560              	.LVL80:
 365:D:/fchai/work/i-cube/I-CUBE-HUAWEI/Middlewares/Third_Party/Huawei/iot_link/network/dtls/mbedtls/mbedtls-2.16.2/library\ecdsa.c **** 
 561              		.loc 1 365 5 view .LVU176
 562 01a8 0028     		cmp	r0, #0
 563 01aa 8ED1     		bne	.L17
 564              	.LVL81:
 296:D:/fchai/work/i-cube/I-CUBE-HUAWEI/Middlewares/Third_Party/Huawei/iot_link/network/dtls/mbedtls/mbedtls-2.16.2/library\ecdsa.c ****     {
 565              		.loc 1 296 5 is_stmt 1 view .LVU177
 298:D:/fchai/work/i-cube/I-CUBE-HUAWEI/Middlewares/Third_Party/Huawei/iot_link/network/dtls/mbedtls/mbedtls-2.16.2/library\ecdsa.c ****         {
 566              		.loc 1 298 9 view .LVU178
 298:D:/fchai/work/i-cube/I-CUBE-HUAWEI/Middlewares/Third_Party/Huawei/iot_link/network/dtls/mbedtls/mbedtls-2.16.2/library\ecdsa.c ****         {
 567              		.loc 1 298 11 is_stmt 0 view .LVU179
 568 01ac 059A     		ldr	r2, [sp, #20]
 569 01ae 52F8043F 		ldr	r3, [r2, #4]!
 570 01b2 0592     		str	r2, [sp, #20]
 571              	.LVL82:
 298:D:/fchai/work/i-cube/I-CUBE-HUAWEI/Middlewares/Third_Party/Huawei/iot_link/network/dtls/mbedtls/mbedtls-2.16.2/library\ecdsa.c ****         {
 572              		.loc 1 298 11 view .LVU180
 573 01b4 0A2B     		cmp	r3, #10
 574 01b6 7FF75DAF 		ble	.L19
 575 01ba 85E7     		b	.L16
 576              	.LVL83:
 577              	.L14:
 271:D:/fchai/work/i-cube/I-CUBE-HUAWEI/Middlewares/Third_Party/Huawei/iot_link/network/dtls/mbedtls/mbedtls-2.16.2/library\ecdsa.c **** 
 578              		.loc 1 271 15 view .LVU181
 579 01bc 024C     		ldr	r4, .L37+4
 580 01be 90E7     		b	.L11
 581              	.LVL84:
 582              	.L20:
 267:D:/fchai/work/i-cube/I-CUBE-HUAWEI/Middlewares/Third_Party/Huawei/iot_link/network/dtls/mbedtls/mbedtls-2.16.2/library\ecdsa.c **** 
 583              		.loc 1 267 15 view .LVU182
 584 01c0 024C     		ldr	r4, .L37+8
 585 01c2 8EE7     		b	.L11
 586              	.L38:
 587              		.align	2
 588              	.L37:
 589 01c4 00B3FFFF 		.word	-19712
 590 01c8 80B3FFFF 		.word	-19584
 591 01cc 80B0FFFF 		.word	-20352
 592              		.cfi_endproc
 593              	.LFE17:
 595              		.section	.text.ecdsa_verify_restartable.isra.0,"ax",%progbits
 596              		.align	1
 597              		.p2align 2,,3
 598              		.syntax unified
 599              		.thumb
 600              		.thumb_func
 601              		.fpu fpv4-sp-d16
 603              	ecdsa_verify_restartable.isra.0:
 604              	.LVL85:
 605              	.LFB18:
 380:D:/fchai/work/i-cube/I-CUBE-HUAWEI/Middlewares/Third_Party/Huawei/iot_link/network/dtls/mbedtls/mbedtls-2.16.2/library\ecdsa.c **** 
 381:D:/fchai/work/i-cube/I-CUBE-HUAWEI/Middlewares/Third_Party/Huawei/iot_link/network/dtls/mbedtls/mbedtls-2.16.2/library\ecdsa.c **** /*
 382:D:/fchai/work/i-cube/I-CUBE-HUAWEI/Middlewares/Third_Party/Huawei/iot_link/network/dtls/mbedtls/mbedtls-2.16.2/library\ecdsa.c ****  * Compute ECDSA signature of a hashed message
ARM GAS  T:\msys\tmp\ccyWqaJb.s 			page 20


 383:D:/fchai/work/i-cube/I-CUBE-HUAWEI/Middlewares/Third_Party/Huawei/iot_link/network/dtls/mbedtls/mbedtls-2.16.2/library\ecdsa.c ****  */
 384:D:/fchai/work/i-cube/I-CUBE-HUAWEI/Middlewares/Third_Party/Huawei/iot_link/network/dtls/mbedtls/mbedtls-2.16.2/library\ecdsa.c **** int mbedtls_ecdsa_sign( mbedtls_ecp_group *grp, mbedtls_mpi *r, mbedtls_mpi *s,
 385:D:/fchai/work/i-cube/I-CUBE-HUAWEI/Middlewares/Third_Party/Huawei/iot_link/network/dtls/mbedtls/mbedtls-2.16.2/library\ecdsa.c ****                 const mbedtls_mpi *d, const unsigned char *buf, size_t blen,
 386:D:/fchai/work/i-cube/I-CUBE-HUAWEI/Middlewares/Third_Party/Huawei/iot_link/network/dtls/mbedtls/mbedtls-2.16.2/library\ecdsa.c ****                 int (*f_rng)(void *, unsigned char *, size_t), void *p_rng )
 387:D:/fchai/work/i-cube/I-CUBE-HUAWEI/Middlewares/Third_Party/Huawei/iot_link/network/dtls/mbedtls/mbedtls-2.16.2/library\ecdsa.c **** {
 388:D:/fchai/work/i-cube/I-CUBE-HUAWEI/Middlewares/Third_Party/Huawei/iot_link/network/dtls/mbedtls/mbedtls-2.16.2/library\ecdsa.c ****     ECDSA_VALIDATE_RET( grp   != NULL );
 389:D:/fchai/work/i-cube/I-CUBE-HUAWEI/Middlewares/Third_Party/Huawei/iot_link/network/dtls/mbedtls/mbedtls-2.16.2/library\ecdsa.c ****     ECDSA_VALIDATE_RET( r     != NULL );
 390:D:/fchai/work/i-cube/I-CUBE-HUAWEI/Middlewares/Third_Party/Huawei/iot_link/network/dtls/mbedtls/mbedtls-2.16.2/library\ecdsa.c ****     ECDSA_VALIDATE_RET( s     != NULL );
 391:D:/fchai/work/i-cube/I-CUBE-HUAWEI/Middlewares/Third_Party/Huawei/iot_link/network/dtls/mbedtls/mbedtls-2.16.2/library\ecdsa.c ****     ECDSA_VALIDATE_RET( d     != NULL );
 392:D:/fchai/work/i-cube/I-CUBE-HUAWEI/Middlewares/Third_Party/Huawei/iot_link/network/dtls/mbedtls/mbedtls-2.16.2/library\ecdsa.c ****     ECDSA_VALIDATE_RET( f_rng != NULL );
 393:D:/fchai/work/i-cube/I-CUBE-HUAWEI/Middlewares/Third_Party/Huawei/iot_link/network/dtls/mbedtls/mbedtls-2.16.2/library\ecdsa.c ****     ECDSA_VALIDATE_RET( buf   != NULL || blen == 0 );
 394:D:/fchai/work/i-cube/I-CUBE-HUAWEI/Middlewares/Third_Party/Huawei/iot_link/network/dtls/mbedtls/mbedtls-2.16.2/library\ecdsa.c **** 
 395:D:/fchai/work/i-cube/I-CUBE-HUAWEI/Middlewares/Third_Party/Huawei/iot_link/network/dtls/mbedtls/mbedtls-2.16.2/library\ecdsa.c ****     return( ecdsa_sign_restartable( grp, r, s, d, buf, blen,
 396:D:/fchai/work/i-cube/I-CUBE-HUAWEI/Middlewares/Third_Party/Huawei/iot_link/network/dtls/mbedtls/mbedtls-2.16.2/library\ecdsa.c ****                                     f_rng, p_rng, NULL ) );
 397:D:/fchai/work/i-cube/I-CUBE-HUAWEI/Middlewares/Third_Party/Huawei/iot_link/network/dtls/mbedtls/mbedtls-2.16.2/library\ecdsa.c **** }
 398:D:/fchai/work/i-cube/I-CUBE-HUAWEI/Middlewares/Third_Party/Huawei/iot_link/network/dtls/mbedtls/mbedtls-2.16.2/library\ecdsa.c **** #endif /* !MBEDTLS_ECDSA_SIGN_ALT */
 399:D:/fchai/work/i-cube/I-CUBE-HUAWEI/Middlewares/Third_Party/Huawei/iot_link/network/dtls/mbedtls/mbedtls-2.16.2/library\ecdsa.c **** 
 400:D:/fchai/work/i-cube/I-CUBE-HUAWEI/Middlewares/Third_Party/Huawei/iot_link/network/dtls/mbedtls/mbedtls-2.16.2/library\ecdsa.c **** #if defined(MBEDTLS_ECDSA_DETERMINISTIC)
 401:D:/fchai/work/i-cube/I-CUBE-HUAWEI/Middlewares/Third_Party/Huawei/iot_link/network/dtls/mbedtls/mbedtls-2.16.2/library\ecdsa.c **** /*
 402:D:/fchai/work/i-cube/I-CUBE-HUAWEI/Middlewares/Third_Party/Huawei/iot_link/network/dtls/mbedtls/mbedtls-2.16.2/library\ecdsa.c ****  * Deterministic signature wrapper
 403:D:/fchai/work/i-cube/I-CUBE-HUAWEI/Middlewares/Third_Party/Huawei/iot_link/network/dtls/mbedtls/mbedtls-2.16.2/library\ecdsa.c ****  */
 404:D:/fchai/work/i-cube/I-CUBE-HUAWEI/Middlewares/Third_Party/Huawei/iot_link/network/dtls/mbedtls/mbedtls-2.16.2/library\ecdsa.c **** static int ecdsa_sign_det_restartable( mbedtls_ecp_group *grp,
 405:D:/fchai/work/i-cube/I-CUBE-HUAWEI/Middlewares/Third_Party/Huawei/iot_link/network/dtls/mbedtls/mbedtls-2.16.2/library\ecdsa.c ****                     mbedtls_mpi *r, mbedtls_mpi *s,
 406:D:/fchai/work/i-cube/I-CUBE-HUAWEI/Middlewares/Third_Party/Huawei/iot_link/network/dtls/mbedtls/mbedtls-2.16.2/library\ecdsa.c ****                     const mbedtls_mpi *d, const unsigned char *buf, size_t blen,
 407:D:/fchai/work/i-cube/I-CUBE-HUAWEI/Middlewares/Third_Party/Huawei/iot_link/network/dtls/mbedtls/mbedtls-2.16.2/library\ecdsa.c ****                     mbedtls_md_type_t md_alg,
 408:D:/fchai/work/i-cube/I-CUBE-HUAWEI/Middlewares/Third_Party/Huawei/iot_link/network/dtls/mbedtls/mbedtls-2.16.2/library\ecdsa.c ****                     mbedtls_ecdsa_restart_ctx *rs_ctx )
 409:D:/fchai/work/i-cube/I-CUBE-HUAWEI/Middlewares/Third_Party/Huawei/iot_link/network/dtls/mbedtls/mbedtls-2.16.2/library\ecdsa.c **** {
 410:D:/fchai/work/i-cube/I-CUBE-HUAWEI/Middlewares/Third_Party/Huawei/iot_link/network/dtls/mbedtls/mbedtls-2.16.2/library\ecdsa.c ****     int ret;
 411:D:/fchai/work/i-cube/I-CUBE-HUAWEI/Middlewares/Third_Party/Huawei/iot_link/network/dtls/mbedtls/mbedtls-2.16.2/library\ecdsa.c ****     mbedtls_hmac_drbg_context rng_ctx;
 412:D:/fchai/work/i-cube/I-CUBE-HUAWEI/Middlewares/Third_Party/Huawei/iot_link/network/dtls/mbedtls/mbedtls-2.16.2/library\ecdsa.c ****     mbedtls_hmac_drbg_context *p_rng = &rng_ctx;
 413:D:/fchai/work/i-cube/I-CUBE-HUAWEI/Middlewares/Third_Party/Huawei/iot_link/network/dtls/mbedtls/mbedtls-2.16.2/library\ecdsa.c ****     unsigned char data[2 * MBEDTLS_ECP_MAX_BYTES];
 414:D:/fchai/work/i-cube/I-CUBE-HUAWEI/Middlewares/Third_Party/Huawei/iot_link/network/dtls/mbedtls/mbedtls-2.16.2/library\ecdsa.c ****     size_t grp_len = ( grp->nbits + 7 ) / 8;
 415:D:/fchai/work/i-cube/I-CUBE-HUAWEI/Middlewares/Third_Party/Huawei/iot_link/network/dtls/mbedtls/mbedtls-2.16.2/library\ecdsa.c ****     const mbedtls_md_info_t *md_info;
 416:D:/fchai/work/i-cube/I-CUBE-HUAWEI/Middlewares/Third_Party/Huawei/iot_link/network/dtls/mbedtls/mbedtls-2.16.2/library\ecdsa.c ****     mbedtls_mpi h;
 417:D:/fchai/work/i-cube/I-CUBE-HUAWEI/Middlewares/Third_Party/Huawei/iot_link/network/dtls/mbedtls/mbedtls-2.16.2/library\ecdsa.c **** 
 418:D:/fchai/work/i-cube/I-CUBE-HUAWEI/Middlewares/Third_Party/Huawei/iot_link/network/dtls/mbedtls/mbedtls-2.16.2/library\ecdsa.c ****     if( ( md_info = mbedtls_md_info_from_type( md_alg ) ) == NULL )
 419:D:/fchai/work/i-cube/I-CUBE-HUAWEI/Middlewares/Third_Party/Huawei/iot_link/network/dtls/mbedtls/mbedtls-2.16.2/library\ecdsa.c ****         return( MBEDTLS_ERR_ECP_BAD_INPUT_DATA );
 420:D:/fchai/work/i-cube/I-CUBE-HUAWEI/Middlewares/Third_Party/Huawei/iot_link/network/dtls/mbedtls/mbedtls-2.16.2/library\ecdsa.c **** 
 421:D:/fchai/work/i-cube/I-CUBE-HUAWEI/Middlewares/Third_Party/Huawei/iot_link/network/dtls/mbedtls/mbedtls-2.16.2/library\ecdsa.c ****     mbedtls_mpi_init( &h );
 422:D:/fchai/work/i-cube/I-CUBE-HUAWEI/Middlewares/Third_Party/Huawei/iot_link/network/dtls/mbedtls/mbedtls-2.16.2/library\ecdsa.c ****     mbedtls_hmac_drbg_init( &rng_ctx );
 423:D:/fchai/work/i-cube/I-CUBE-HUAWEI/Middlewares/Third_Party/Huawei/iot_link/network/dtls/mbedtls/mbedtls-2.16.2/library\ecdsa.c **** 
 424:D:/fchai/work/i-cube/I-CUBE-HUAWEI/Middlewares/Third_Party/Huawei/iot_link/network/dtls/mbedtls/mbedtls-2.16.2/library\ecdsa.c ****     ECDSA_RS_ENTER( det );
 425:D:/fchai/work/i-cube/I-CUBE-HUAWEI/Middlewares/Third_Party/Huawei/iot_link/network/dtls/mbedtls/mbedtls-2.16.2/library\ecdsa.c **** 
 426:D:/fchai/work/i-cube/I-CUBE-HUAWEI/Middlewares/Third_Party/Huawei/iot_link/network/dtls/mbedtls/mbedtls-2.16.2/library\ecdsa.c **** #if defined(MBEDTLS_ECP_RESTARTABLE)
 427:D:/fchai/work/i-cube/I-CUBE-HUAWEI/Middlewares/Third_Party/Huawei/iot_link/network/dtls/mbedtls/mbedtls-2.16.2/library\ecdsa.c ****     if( rs_ctx != NULL && rs_ctx->det != NULL )
 428:D:/fchai/work/i-cube/I-CUBE-HUAWEI/Middlewares/Third_Party/Huawei/iot_link/network/dtls/mbedtls/mbedtls-2.16.2/library\ecdsa.c ****     {
 429:D:/fchai/work/i-cube/I-CUBE-HUAWEI/Middlewares/Third_Party/Huawei/iot_link/network/dtls/mbedtls/mbedtls-2.16.2/library\ecdsa.c ****         /* redirect to our context */
 430:D:/fchai/work/i-cube/I-CUBE-HUAWEI/Middlewares/Third_Party/Huawei/iot_link/network/dtls/mbedtls/mbedtls-2.16.2/library\ecdsa.c ****         p_rng = &rs_ctx->det->rng_ctx;
 431:D:/fchai/work/i-cube/I-CUBE-HUAWEI/Middlewares/Third_Party/Huawei/iot_link/network/dtls/mbedtls/mbedtls-2.16.2/library\ecdsa.c **** 
 432:D:/fchai/work/i-cube/I-CUBE-HUAWEI/Middlewares/Third_Party/Huawei/iot_link/network/dtls/mbedtls/mbedtls-2.16.2/library\ecdsa.c ****         /* jump to current step */
 433:D:/fchai/work/i-cube/I-CUBE-HUAWEI/Middlewares/Third_Party/Huawei/iot_link/network/dtls/mbedtls/mbedtls-2.16.2/library\ecdsa.c ****         if( rs_ctx->det->state == ecdsa_det_sign )
 434:D:/fchai/work/i-cube/I-CUBE-HUAWEI/Middlewares/Third_Party/Huawei/iot_link/network/dtls/mbedtls/mbedtls-2.16.2/library\ecdsa.c ****             goto sign;
 435:D:/fchai/work/i-cube/I-CUBE-HUAWEI/Middlewares/Third_Party/Huawei/iot_link/network/dtls/mbedtls/mbedtls-2.16.2/library\ecdsa.c ****     }
 436:D:/fchai/work/i-cube/I-CUBE-HUAWEI/Middlewares/Third_Party/Huawei/iot_link/network/dtls/mbedtls/mbedtls-2.16.2/library\ecdsa.c **** #endif /* MBEDTLS_ECP_RESTARTABLE */
 437:D:/fchai/work/i-cube/I-CUBE-HUAWEI/Middlewares/Third_Party/Huawei/iot_link/network/dtls/mbedtls/mbedtls-2.16.2/library\ecdsa.c **** 
 438:D:/fchai/work/i-cube/I-CUBE-HUAWEI/Middlewares/Third_Party/Huawei/iot_link/network/dtls/mbedtls/mbedtls-2.16.2/library\ecdsa.c ****     /* Use private key and message hash (reduced) to initialize HMAC_DRBG */
 439:D:/fchai/work/i-cube/I-CUBE-HUAWEI/Middlewares/Third_Party/Huawei/iot_link/network/dtls/mbedtls/mbedtls-2.16.2/library\ecdsa.c ****     MBEDTLS_MPI_CHK( mbedtls_mpi_write_binary( d, data, grp_len ) );
ARM GAS  T:\msys\tmp\ccyWqaJb.s 			page 21


 440:D:/fchai/work/i-cube/I-CUBE-HUAWEI/Middlewares/Third_Party/Huawei/iot_link/network/dtls/mbedtls/mbedtls-2.16.2/library\ecdsa.c ****     MBEDTLS_MPI_CHK( derive_mpi( grp, &h, buf, blen ) );
 441:D:/fchai/work/i-cube/I-CUBE-HUAWEI/Middlewares/Third_Party/Huawei/iot_link/network/dtls/mbedtls/mbedtls-2.16.2/library\ecdsa.c ****     MBEDTLS_MPI_CHK( mbedtls_mpi_write_binary( &h, data + grp_len, grp_len ) );
 442:D:/fchai/work/i-cube/I-CUBE-HUAWEI/Middlewares/Third_Party/Huawei/iot_link/network/dtls/mbedtls/mbedtls-2.16.2/library\ecdsa.c ****     mbedtls_hmac_drbg_seed_buf( p_rng, md_info, data, 2 * grp_len );
 443:D:/fchai/work/i-cube/I-CUBE-HUAWEI/Middlewares/Third_Party/Huawei/iot_link/network/dtls/mbedtls/mbedtls-2.16.2/library\ecdsa.c **** 
 444:D:/fchai/work/i-cube/I-CUBE-HUAWEI/Middlewares/Third_Party/Huawei/iot_link/network/dtls/mbedtls/mbedtls-2.16.2/library\ecdsa.c **** #if defined(MBEDTLS_ECP_RESTARTABLE)
 445:D:/fchai/work/i-cube/I-CUBE-HUAWEI/Middlewares/Third_Party/Huawei/iot_link/network/dtls/mbedtls/mbedtls-2.16.2/library\ecdsa.c ****     if( rs_ctx != NULL && rs_ctx->det != NULL )
 446:D:/fchai/work/i-cube/I-CUBE-HUAWEI/Middlewares/Third_Party/Huawei/iot_link/network/dtls/mbedtls/mbedtls-2.16.2/library\ecdsa.c ****         rs_ctx->det->state = ecdsa_det_sign;
 447:D:/fchai/work/i-cube/I-CUBE-HUAWEI/Middlewares/Third_Party/Huawei/iot_link/network/dtls/mbedtls/mbedtls-2.16.2/library\ecdsa.c **** 
 448:D:/fchai/work/i-cube/I-CUBE-HUAWEI/Middlewares/Third_Party/Huawei/iot_link/network/dtls/mbedtls/mbedtls-2.16.2/library\ecdsa.c **** sign:
 449:D:/fchai/work/i-cube/I-CUBE-HUAWEI/Middlewares/Third_Party/Huawei/iot_link/network/dtls/mbedtls/mbedtls-2.16.2/library\ecdsa.c **** #endif
 450:D:/fchai/work/i-cube/I-CUBE-HUAWEI/Middlewares/Third_Party/Huawei/iot_link/network/dtls/mbedtls/mbedtls-2.16.2/library\ecdsa.c **** #if defined(MBEDTLS_ECDSA_SIGN_ALT)
 451:D:/fchai/work/i-cube/I-CUBE-HUAWEI/Middlewares/Third_Party/Huawei/iot_link/network/dtls/mbedtls/mbedtls-2.16.2/library\ecdsa.c ****     ret = mbedtls_ecdsa_sign( grp, r, s, d, buf, blen,
 452:D:/fchai/work/i-cube/I-CUBE-HUAWEI/Middlewares/Third_Party/Huawei/iot_link/network/dtls/mbedtls/mbedtls-2.16.2/library\ecdsa.c ****                               mbedtls_hmac_drbg_random, p_rng );
 453:D:/fchai/work/i-cube/I-CUBE-HUAWEI/Middlewares/Third_Party/Huawei/iot_link/network/dtls/mbedtls/mbedtls-2.16.2/library\ecdsa.c **** #else
 454:D:/fchai/work/i-cube/I-CUBE-HUAWEI/Middlewares/Third_Party/Huawei/iot_link/network/dtls/mbedtls/mbedtls-2.16.2/library\ecdsa.c ****     ret = ecdsa_sign_restartable( grp, r, s, d, buf, blen,
 455:D:/fchai/work/i-cube/I-CUBE-HUAWEI/Middlewares/Third_Party/Huawei/iot_link/network/dtls/mbedtls/mbedtls-2.16.2/library\ecdsa.c ****                       mbedtls_hmac_drbg_random, p_rng, rs_ctx );
 456:D:/fchai/work/i-cube/I-CUBE-HUAWEI/Middlewares/Third_Party/Huawei/iot_link/network/dtls/mbedtls/mbedtls-2.16.2/library\ecdsa.c **** #endif /* MBEDTLS_ECDSA_SIGN_ALT */
 457:D:/fchai/work/i-cube/I-CUBE-HUAWEI/Middlewares/Third_Party/Huawei/iot_link/network/dtls/mbedtls/mbedtls-2.16.2/library\ecdsa.c **** 
 458:D:/fchai/work/i-cube/I-CUBE-HUAWEI/Middlewares/Third_Party/Huawei/iot_link/network/dtls/mbedtls/mbedtls-2.16.2/library\ecdsa.c **** cleanup:
 459:D:/fchai/work/i-cube/I-CUBE-HUAWEI/Middlewares/Third_Party/Huawei/iot_link/network/dtls/mbedtls/mbedtls-2.16.2/library\ecdsa.c ****     mbedtls_hmac_drbg_free( &rng_ctx );
 460:D:/fchai/work/i-cube/I-CUBE-HUAWEI/Middlewares/Third_Party/Huawei/iot_link/network/dtls/mbedtls/mbedtls-2.16.2/library\ecdsa.c ****     mbedtls_mpi_free( &h );
 461:D:/fchai/work/i-cube/I-CUBE-HUAWEI/Middlewares/Third_Party/Huawei/iot_link/network/dtls/mbedtls/mbedtls-2.16.2/library\ecdsa.c **** 
 462:D:/fchai/work/i-cube/I-CUBE-HUAWEI/Middlewares/Third_Party/Huawei/iot_link/network/dtls/mbedtls/mbedtls-2.16.2/library\ecdsa.c ****     ECDSA_RS_LEAVE( det );
 463:D:/fchai/work/i-cube/I-CUBE-HUAWEI/Middlewares/Third_Party/Huawei/iot_link/network/dtls/mbedtls/mbedtls-2.16.2/library\ecdsa.c **** 
 464:D:/fchai/work/i-cube/I-CUBE-HUAWEI/Middlewares/Third_Party/Huawei/iot_link/network/dtls/mbedtls/mbedtls-2.16.2/library\ecdsa.c ****     return( ret );
 465:D:/fchai/work/i-cube/I-CUBE-HUAWEI/Middlewares/Third_Party/Huawei/iot_link/network/dtls/mbedtls/mbedtls-2.16.2/library\ecdsa.c **** }
 466:D:/fchai/work/i-cube/I-CUBE-HUAWEI/Middlewares/Third_Party/Huawei/iot_link/network/dtls/mbedtls/mbedtls-2.16.2/library\ecdsa.c **** 
 467:D:/fchai/work/i-cube/I-CUBE-HUAWEI/Middlewares/Third_Party/Huawei/iot_link/network/dtls/mbedtls/mbedtls-2.16.2/library\ecdsa.c **** /*
 468:D:/fchai/work/i-cube/I-CUBE-HUAWEI/Middlewares/Third_Party/Huawei/iot_link/network/dtls/mbedtls/mbedtls-2.16.2/library\ecdsa.c ****  * Deterministic signature wrapper
 469:D:/fchai/work/i-cube/I-CUBE-HUAWEI/Middlewares/Third_Party/Huawei/iot_link/network/dtls/mbedtls/mbedtls-2.16.2/library\ecdsa.c ****  */
 470:D:/fchai/work/i-cube/I-CUBE-HUAWEI/Middlewares/Third_Party/Huawei/iot_link/network/dtls/mbedtls/mbedtls-2.16.2/library\ecdsa.c **** int mbedtls_ecdsa_sign_det( mbedtls_ecp_group *grp, mbedtls_mpi *r, mbedtls_mpi *s,
 471:D:/fchai/work/i-cube/I-CUBE-HUAWEI/Middlewares/Third_Party/Huawei/iot_link/network/dtls/mbedtls/mbedtls-2.16.2/library\ecdsa.c ****                     const mbedtls_mpi *d, const unsigned char *buf, size_t blen,
 472:D:/fchai/work/i-cube/I-CUBE-HUAWEI/Middlewares/Third_Party/Huawei/iot_link/network/dtls/mbedtls/mbedtls-2.16.2/library\ecdsa.c ****                     mbedtls_md_type_t md_alg )
 473:D:/fchai/work/i-cube/I-CUBE-HUAWEI/Middlewares/Third_Party/Huawei/iot_link/network/dtls/mbedtls/mbedtls-2.16.2/library\ecdsa.c **** {
 474:D:/fchai/work/i-cube/I-CUBE-HUAWEI/Middlewares/Third_Party/Huawei/iot_link/network/dtls/mbedtls/mbedtls-2.16.2/library\ecdsa.c ****     ECDSA_VALIDATE_RET( grp   != NULL );
 475:D:/fchai/work/i-cube/I-CUBE-HUAWEI/Middlewares/Third_Party/Huawei/iot_link/network/dtls/mbedtls/mbedtls-2.16.2/library\ecdsa.c ****     ECDSA_VALIDATE_RET( r     != NULL );
 476:D:/fchai/work/i-cube/I-CUBE-HUAWEI/Middlewares/Third_Party/Huawei/iot_link/network/dtls/mbedtls/mbedtls-2.16.2/library\ecdsa.c ****     ECDSA_VALIDATE_RET( s     != NULL );
 477:D:/fchai/work/i-cube/I-CUBE-HUAWEI/Middlewares/Third_Party/Huawei/iot_link/network/dtls/mbedtls/mbedtls-2.16.2/library\ecdsa.c ****     ECDSA_VALIDATE_RET( d     != NULL );
 478:D:/fchai/work/i-cube/I-CUBE-HUAWEI/Middlewares/Third_Party/Huawei/iot_link/network/dtls/mbedtls/mbedtls-2.16.2/library\ecdsa.c ****     ECDSA_VALIDATE_RET( buf   != NULL || blen == 0 );
 479:D:/fchai/work/i-cube/I-CUBE-HUAWEI/Middlewares/Third_Party/Huawei/iot_link/network/dtls/mbedtls/mbedtls-2.16.2/library\ecdsa.c **** 
 480:D:/fchai/work/i-cube/I-CUBE-HUAWEI/Middlewares/Third_Party/Huawei/iot_link/network/dtls/mbedtls/mbedtls-2.16.2/library\ecdsa.c ****     return( ecdsa_sign_det_restartable( grp, r, s, d, buf, blen, md_alg, NULL ) );
 481:D:/fchai/work/i-cube/I-CUBE-HUAWEI/Middlewares/Third_Party/Huawei/iot_link/network/dtls/mbedtls/mbedtls-2.16.2/library\ecdsa.c **** }
 482:D:/fchai/work/i-cube/I-CUBE-HUAWEI/Middlewares/Third_Party/Huawei/iot_link/network/dtls/mbedtls/mbedtls-2.16.2/library\ecdsa.c **** #endif /* MBEDTLS_ECDSA_DETERMINISTIC */
 483:D:/fchai/work/i-cube/I-CUBE-HUAWEI/Middlewares/Third_Party/Huawei/iot_link/network/dtls/mbedtls/mbedtls-2.16.2/library\ecdsa.c **** 
 484:D:/fchai/work/i-cube/I-CUBE-HUAWEI/Middlewares/Third_Party/Huawei/iot_link/network/dtls/mbedtls/mbedtls-2.16.2/library\ecdsa.c **** #if !defined(MBEDTLS_ECDSA_VERIFY_ALT)
 485:D:/fchai/work/i-cube/I-CUBE-HUAWEI/Middlewares/Third_Party/Huawei/iot_link/network/dtls/mbedtls/mbedtls-2.16.2/library\ecdsa.c **** /*
 486:D:/fchai/work/i-cube/I-CUBE-HUAWEI/Middlewares/Third_Party/Huawei/iot_link/network/dtls/mbedtls/mbedtls-2.16.2/library\ecdsa.c ****  * Verify ECDSA signature of hashed message (SEC1 4.1.4)
 487:D:/fchai/work/i-cube/I-CUBE-HUAWEI/Middlewares/Third_Party/Huawei/iot_link/network/dtls/mbedtls/mbedtls-2.16.2/library\ecdsa.c ****  * Obviously, compared to SEC1 4.1.3, we skip step 2 (hash message)
 488:D:/fchai/work/i-cube/I-CUBE-HUAWEI/Middlewares/Third_Party/Huawei/iot_link/network/dtls/mbedtls/mbedtls-2.16.2/library\ecdsa.c ****  */
 489:D:/fchai/work/i-cube/I-CUBE-HUAWEI/Middlewares/Third_Party/Huawei/iot_link/network/dtls/mbedtls/mbedtls-2.16.2/library\ecdsa.c **** static int ecdsa_verify_restartable( mbedtls_ecp_group *grp,
 606              		.loc 1 489 12 is_stmt 1 view -0
 607              		.cfi_startproc
 608              		@ args = 8, pretend = 0, frame = 88
 609              		@ frame_needed = 0, uses_anonymous_args = 0
 490:D:/fchai/work/i-cube/I-CUBE-HUAWEI/Middlewares/Third_Party/Huawei/iot_link/network/dtls/mbedtls/mbedtls-2.16.2/library\ecdsa.c ****                                      const unsigned char *buf, size_t blen,
 491:D:/fchai/work/i-cube/I-CUBE-HUAWEI/Middlewares/Third_Party/Huawei/iot_link/network/dtls/mbedtls/mbedtls-2.16.2/library\ecdsa.c ****                                      const mbedtls_ecp_point *Q,
 492:D:/fchai/work/i-cube/I-CUBE-HUAWEI/Middlewares/Third_Party/Huawei/iot_link/network/dtls/mbedtls/mbedtls-2.16.2/library\ecdsa.c ****                                      const mbedtls_mpi *r, const mbedtls_mpi *s,
ARM GAS  T:\msys\tmp\ccyWqaJb.s 			page 22


 493:D:/fchai/work/i-cube/I-CUBE-HUAWEI/Middlewares/Third_Party/Huawei/iot_link/network/dtls/mbedtls/mbedtls-2.16.2/library\ecdsa.c ****                                      mbedtls_ecdsa_restart_ctx *rs_ctx )
 494:D:/fchai/work/i-cube/I-CUBE-HUAWEI/Middlewares/Third_Party/Huawei/iot_link/network/dtls/mbedtls/mbedtls-2.16.2/library\ecdsa.c **** {
 495:D:/fchai/work/i-cube/I-CUBE-HUAWEI/Middlewares/Third_Party/Huawei/iot_link/network/dtls/mbedtls/mbedtls-2.16.2/library\ecdsa.c ****     int ret;
 610              		.loc 1 495 5 view .LVU184
 496:D:/fchai/work/i-cube/I-CUBE-HUAWEI/Middlewares/Third_Party/Huawei/iot_link/network/dtls/mbedtls/mbedtls-2.16.2/library\ecdsa.c ****     mbedtls_mpi e, s_inv, u1, u2;
 611              		.loc 1 496 5 view .LVU185
 497:D:/fchai/work/i-cube/I-CUBE-HUAWEI/Middlewares/Third_Party/Huawei/iot_link/network/dtls/mbedtls/mbedtls-2.16.2/library\ecdsa.c ****     mbedtls_ecp_point R;
 612              		.loc 1 497 5 view .LVU186
 498:D:/fchai/work/i-cube/I-CUBE-HUAWEI/Middlewares/Third_Party/Huawei/iot_link/network/dtls/mbedtls/mbedtls-2.16.2/library\ecdsa.c ****     mbedtls_mpi *pu1 = &u1, *pu2 = &u2;
 613              		.loc 1 498 5 view .LVU187
 489:D:/fchai/work/i-cube/I-CUBE-HUAWEI/Middlewares/Third_Party/Huawei/iot_link/network/dtls/mbedtls/mbedtls-2.16.2/library\ecdsa.c ****                                      const unsigned char *buf, size_t blen,
 614              		.loc 1 489 12 is_stmt 0 view .LVU188
 615 0000 2DE9F043 		push	{r4, r5, r6, r7, r8, r9, lr}
 616              	.LCFI9:
 617              		.cfi_def_cfa_offset 28
 618              		.cfi_offset 4, -28
 619              		.cfi_offset 5, -24
 620              		.cfi_offset 6, -20
 621              		.cfi_offset 7, -16
 622              		.cfi_offset 8, -12
 623              		.cfi_offset 9, -8
 624              		.cfi_offset 14, -4
 625 0004 9BB0     		sub	sp, sp, #108
 626              	.LCFI10:
 627              		.cfi_def_cfa_offset 136
 628              	.LVL86:
 499:D:/fchai/work/i-cube/I-CUBE-HUAWEI/Middlewares/Third_Party/Huawei/iot_link/network/dtls/mbedtls/mbedtls-2.16.2/library\ecdsa.c **** 
 500:D:/fchai/work/i-cube/I-CUBE-HUAWEI/Middlewares/Third_Party/Huawei/iot_link/network/dtls/mbedtls/mbedtls-2.16.2/library\ecdsa.c ****     mbedtls_ecp_point_init( &R );
 629              		.loc 1 500 5 is_stmt 1 view .LVU189
 489:D:/fchai/work/i-cube/I-CUBE-HUAWEI/Middlewares/Third_Party/Huawei/iot_link/network/dtls/mbedtls/mbedtls-2.16.2/library\ecdsa.c ****                                      const unsigned char *buf, size_t blen,
 630              		.loc 1 489 12 is_stmt 0 view .LVU190
 631 0006 0446     		mov	r4, r0
 632              		.loc 1 500 5 view .LVU191
 633 0008 11A8     		add	r0, sp, #68
 634              	.LVL87:
 489:D:/fchai/work/i-cube/I-CUBE-HUAWEI/Middlewares/Third_Party/Huawei/iot_link/network/dtls/mbedtls/mbedtls-2.16.2/library\ecdsa.c ****                                      const unsigned char *buf, size_t blen,
 635              		.loc 1 489 12 view .LVU192
 636 000a 1E46     		mov	r6, r3
 637 000c 0D46     		mov	r5, r1
 638 000e 9146     		mov	r9, r2
 639 0010 229F     		ldr	r7, [sp, #136]
 640              		.loc 1 500 5 view .LVU193
 641 0012 FFF7FEFF 		bl	mbedtls_ecp_point_init
 642              	.LVL88:
 501:D:/fchai/work/i-cube/I-CUBE-HUAWEI/Middlewares/Third_Party/Huawei/iot_link/network/dtls/mbedtls/mbedtls-2.16.2/library\ecdsa.c ****     mbedtls_mpi_init( &e ); mbedtls_mpi_init( &s_inv );
 643              		.loc 1 501 5 is_stmt 1 view .LVU194
 644 0016 05A8     		add	r0, sp, #20
 645 0018 FFF7FEFF 		bl	mbedtls_mpi_init
 646              	.LVL89:
 647              		.loc 1 501 29 view .LVU195
 648 001c 08A8     		add	r0, sp, #32
 649 001e FFF7FEFF 		bl	mbedtls_mpi_init
 650              	.LVL90:
 502:D:/fchai/work/i-cube/I-CUBE-HUAWEI/Middlewares/Third_Party/Huawei/iot_link/network/dtls/mbedtls/mbedtls-2.16.2/library\ecdsa.c ****     mbedtls_mpi_init( &u1 ); mbedtls_mpi_init( &u2 );
 651              		.loc 1 502 5 view .LVU196
 652 0022 0BA8     		add	r0, sp, #44
 653              	.LVL91:
ARM GAS  T:\msys\tmp\ccyWqaJb.s 			page 23


 654              		.loc 1 502 5 is_stmt 0 view .LVU197
 655 0024 FFF7FEFF 		bl	mbedtls_mpi_init
 656              	.LVL92:
 657              		.loc 1 502 30 is_stmt 1 view .LVU198
 658 0028 0EA8     		add	r0, sp, #56
 659              	.LVL93:
 660              		.loc 1 502 30 is_stmt 0 view .LVU199
 661 002a FFF7FEFF 		bl	mbedtls_mpi_init
 662              	.LVL94:
 503:D:/fchai/work/i-cube/I-CUBE-HUAWEI/Middlewares/Third_Party/Huawei/iot_link/network/dtls/mbedtls/mbedtls-2.16.2/library\ecdsa.c **** 
 504:D:/fchai/work/i-cube/I-CUBE-HUAWEI/Middlewares/Third_Party/Huawei/iot_link/network/dtls/mbedtls/mbedtls-2.16.2/library\ecdsa.c ****     /* Fail cleanly on curves such as Curve25519 that can't be used for ECDSA */
 505:D:/fchai/work/i-cube/I-CUBE-HUAWEI/Middlewares/Third_Party/Huawei/iot_link/network/dtls/mbedtls/mbedtls-2.16.2/library\ecdsa.c ****     if( grp->N.p == NULL )
 663              		.loc 1 505 5 is_stmt 1 view .LVU200
 664              		.loc 1 505 7 is_stmt 0 view .LVU201
 665 002e 636D     		ldr	r3, [r4, #84]
 666 0030 002B     		cmp	r3, #0
 667 0032 00F08280 		beq	.L43
 506:D:/fchai/work/i-cube/I-CUBE-HUAWEI/Middlewares/Third_Party/Huawei/iot_link/network/dtls/mbedtls/mbedtls-2.16.2/library\ecdsa.c ****         return( MBEDTLS_ERR_ECP_BAD_INPUT_DATA );
 507:D:/fchai/work/i-cube/I-CUBE-HUAWEI/Middlewares/Third_Party/Huawei/iot_link/network/dtls/mbedtls/mbedtls-2.16.2/library\ecdsa.c **** 
 508:D:/fchai/work/i-cube/I-CUBE-HUAWEI/Middlewares/Third_Party/Huawei/iot_link/network/dtls/mbedtls/mbedtls-2.16.2/library\ecdsa.c ****     ECDSA_RS_ENTER( ver );
 668              		.loc 1 508 5 is_stmt 1 view .LVU202
 509:D:/fchai/work/i-cube/I-CUBE-HUAWEI/Middlewares/Third_Party/Huawei/iot_link/network/dtls/mbedtls/mbedtls-2.16.2/library\ecdsa.c **** 
 510:D:/fchai/work/i-cube/I-CUBE-HUAWEI/Middlewares/Third_Party/Huawei/iot_link/network/dtls/mbedtls/mbedtls-2.16.2/library\ecdsa.c **** #if defined(MBEDTLS_ECP_RESTARTABLE)
 511:D:/fchai/work/i-cube/I-CUBE-HUAWEI/Middlewares/Third_Party/Huawei/iot_link/network/dtls/mbedtls/mbedtls-2.16.2/library\ecdsa.c ****     if( rs_ctx != NULL && rs_ctx->ver != NULL )
 512:D:/fchai/work/i-cube/I-CUBE-HUAWEI/Middlewares/Third_Party/Huawei/iot_link/network/dtls/mbedtls/mbedtls-2.16.2/library\ecdsa.c ****     {
 513:D:/fchai/work/i-cube/I-CUBE-HUAWEI/Middlewares/Third_Party/Huawei/iot_link/network/dtls/mbedtls/mbedtls-2.16.2/library\ecdsa.c ****         /* redirect to our context */
 514:D:/fchai/work/i-cube/I-CUBE-HUAWEI/Middlewares/Third_Party/Huawei/iot_link/network/dtls/mbedtls/mbedtls-2.16.2/library\ecdsa.c ****         pu1 = &rs_ctx->ver->u1;
 515:D:/fchai/work/i-cube/I-CUBE-HUAWEI/Middlewares/Third_Party/Huawei/iot_link/network/dtls/mbedtls/mbedtls-2.16.2/library\ecdsa.c ****         pu2 = &rs_ctx->ver->u2;
 516:D:/fchai/work/i-cube/I-CUBE-HUAWEI/Middlewares/Third_Party/Huawei/iot_link/network/dtls/mbedtls/mbedtls-2.16.2/library\ecdsa.c **** 
 517:D:/fchai/work/i-cube/I-CUBE-HUAWEI/Middlewares/Third_Party/Huawei/iot_link/network/dtls/mbedtls/mbedtls-2.16.2/library\ecdsa.c ****         /* jump to current step */
 518:D:/fchai/work/i-cube/I-CUBE-HUAWEI/Middlewares/Third_Party/Huawei/iot_link/network/dtls/mbedtls/mbedtls-2.16.2/library\ecdsa.c ****         if( rs_ctx->ver->state == ecdsa_ver_muladd )
 519:D:/fchai/work/i-cube/I-CUBE-HUAWEI/Middlewares/Third_Party/Huawei/iot_link/network/dtls/mbedtls/mbedtls-2.16.2/library\ecdsa.c ****             goto muladd;
 520:D:/fchai/work/i-cube/I-CUBE-HUAWEI/Middlewares/Third_Party/Huawei/iot_link/network/dtls/mbedtls/mbedtls-2.16.2/library\ecdsa.c ****     }
 521:D:/fchai/work/i-cube/I-CUBE-HUAWEI/Middlewares/Third_Party/Huawei/iot_link/network/dtls/mbedtls/mbedtls-2.16.2/library\ecdsa.c **** #endif /* MBEDTLS_ECP_RESTARTABLE */
 522:D:/fchai/work/i-cube/I-CUBE-HUAWEI/Middlewares/Third_Party/Huawei/iot_link/network/dtls/mbedtls/mbedtls-2.16.2/library\ecdsa.c **** 
 523:D:/fchai/work/i-cube/I-CUBE-HUAWEI/Middlewares/Third_Party/Huawei/iot_link/network/dtls/mbedtls/mbedtls-2.16.2/library\ecdsa.c ****     /*
 524:D:/fchai/work/i-cube/I-CUBE-HUAWEI/Middlewares/Third_Party/Huawei/iot_link/network/dtls/mbedtls/mbedtls-2.16.2/library\ecdsa.c ****      * Step 1: make sure r and s are in range 1..n-1
 525:D:/fchai/work/i-cube/I-CUBE-HUAWEI/Middlewares/Third_Party/Huawei/iot_link/network/dtls/mbedtls/mbedtls-2.16.2/library\ecdsa.c ****      */
 526:D:/fchai/work/i-cube/I-CUBE-HUAWEI/Middlewares/Third_Party/Huawei/iot_link/network/dtls/mbedtls/mbedtls-2.16.2/library\ecdsa.c ****     if( mbedtls_mpi_cmp_int( r, 1 ) < 0 || mbedtls_mpi_cmp_mpi( r, &grp->N ) >= 0 ||
 669              		.loc 1 526 5 view .LVU203
 670              		.loc 1 526 9 is_stmt 0 view .LVU204
 671 0036 0121     		movs	r1, #1
 672 0038 3846     		mov	r0, r7
 673 003a FFF7FEFF 		bl	mbedtls_mpi_cmp_int
 674              	.LVL95:
 675              		.loc 1 526 7 view .LVU205
 676 003e 0028     		cmp	r0, #0
 677 0040 07DB     		blt	.L41
 678              		.loc 1 526 68 view .LVU206
 679 0042 04F14C08 		add	r8, r4, #76
 680              		.loc 1 526 44 view .LVU207
 681 0046 4146     		mov	r1, r8
 682 0048 3846     		mov	r0, r7
 683 004a FFF7FEFF 		bl	mbedtls_mpi_cmp_mpi
 684              	.LVL96:
 685              		.loc 1 526 41 view .LVU208
 686 004e 0028     		cmp	r0, #0
ARM GAS  T:\msys\tmp\ccyWqaJb.s 			page 24


 687 0050 13DB     		blt	.L48
 688              	.LVL97:
 689              	.L41:
 527:D:/fchai/work/i-cube/I-CUBE-HUAWEI/Middlewares/Third_Party/Huawei/iot_link/network/dtls/mbedtls/mbedtls-2.16.2/library\ecdsa.c ****         mbedtls_mpi_cmp_int( s, 1 ) < 0 || mbedtls_mpi_cmp_mpi( s, &grp->N ) >= 0 )
 528:D:/fchai/work/i-cube/I-CUBE-HUAWEI/Middlewares/Third_Party/Huawei/iot_link/network/dtls/mbedtls/mbedtls-2.16.2/library\ecdsa.c ****     {
 529:D:/fchai/work/i-cube/I-CUBE-HUAWEI/Middlewares/Third_Party/Huawei/iot_link/network/dtls/mbedtls/mbedtls-2.16.2/library\ecdsa.c ****         ret = MBEDTLS_ERR_ECP_VERIFY_FAILED;
 530:D:/fchai/work/i-cube/I-CUBE-HUAWEI/Middlewares/Third_Party/Huawei/iot_link/network/dtls/mbedtls/mbedtls-2.16.2/library\ecdsa.c ****         goto cleanup;
 531:D:/fchai/work/i-cube/I-CUBE-HUAWEI/Middlewares/Third_Party/Huawei/iot_link/network/dtls/mbedtls/mbedtls-2.16.2/library\ecdsa.c ****     }
 532:D:/fchai/work/i-cube/I-CUBE-HUAWEI/Middlewares/Third_Party/Huawei/iot_link/network/dtls/mbedtls/mbedtls-2.16.2/library\ecdsa.c **** 
 533:D:/fchai/work/i-cube/I-CUBE-HUAWEI/Middlewares/Third_Party/Huawei/iot_link/network/dtls/mbedtls/mbedtls-2.16.2/library\ecdsa.c ****     /*
 534:D:/fchai/work/i-cube/I-CUBE-HUAWEI/Middlewares/Third_Party/Huawei/iot_link/network/dtls/mbedtls/mbedtls-2.16.2/library\ecdsa.c ****      * Step 3: derive MPI from hashed message
 535:D:/fchai/work/i-cube/I-CUBE-HUAWEI/Middlewares/Third_Party/Huawei/iot_link/network/dtls/mbedtls/mbedtls-2.16.2/library\ecdsa.c ****      */
 536:D:/fchai/work/i-cube/I-CUBE-HUAWEI/Middlewares/Third_Party/Huawei/iot_link/network/dtls/mbedtls/mbedtls-2.16.2/library\ecdsa.c ****     MBEDTLS_MPI_CHK( derive_mpi( grp, &e, buf, blen ) );
 537:D:/fchai/work/i-cube/I-CUBE-HUAWEI/Middlewares/Third_Party/Huawei/iot_link/network/dtls/mbedtls/mbedtls-2.16.2/library\ecdsa.c **** 
 538:D:/fchai/work/i-cube/I-CUBE-HUAWEI/Middlewares/Third_Party/Huawei/iot_link/network/dtls/mbedtls/mbedtls-2.16.2/library\ecdsa.c ****     /*
 539:D:/fchai/work/i-cube/I-CUBE-HUAWEI/Middlewares/Third_Party/Huawei/iot_link/network/dtls/mbedtls/mbedtls-2.16.2/library\ecdsa.c ****      * Step 4: u1 = e / s mod n, u2 = r / s mod n
 540:D:/fchai/work/i-cube/I-CUBE-HUAWEI/Middlewares/Third_Party/Huawei/iot_link/network/dtls/mbedtls/mbedtls-2.16.2/library\ecdsa.c ****      */
 541:D:/fchai/work/i-cube/I-CUBE-HUAWEI/Middlewares/Third_Party/Huawei/iot_link/network/dtls/mbedtls/mbedtls-2.16.2/library\ecdsa.c ****     ECDSA_BUDGET( MBEDTLS_ECP_OPS_CHK + MBEDTLS_ECP_OPS_INV + 2 );
 542:D:/fchai/work/i-cube/I-CUBE-HUAWEI/Middlewares/Third_Party/Huawei/iot_link/network/dtls/mbedtls/mbedtls-2.16.2/library\ecdsa.c **** 
 543:D:/fchai/work/i-cube/I-CUBE-HUAWEI/Middlewares/Third_Party/Huawei/iot_link/network/dtls/mbedtls/mbedtls-2.16.2/library\ecdsa.c ****     MBEDTLS_MPI_CHK( mbedtls_mpi_inv_mod( &s_inv, s, &grp->N ) );
 544:D:/fchai/work/i-cube/I-CUBE-HUAWEI/Middlewares/Third_Party/Huawei/iot_link/network/dtls/mbedtls/mbedtls-2.16.2/library\ecdsa.c **** 
 545:D:/fchai/work/i-cube/I-CUBE-HUAWEI/Middlewares/Third_Party/Huawei/iot_link/network/dtls/mbedtls/mbedtls-2.16.2/library\ecdsa.c ****     MBEDTLS_MPI_CHK( mbedtls_mpi_mul_mpi( pu1, &e, &s_inv ) );
 546:D:/fchai/work/i-cube/I-CUBE-HUAWEI/Middlewares/Third_Party/Huawei/iot_link/network/dtls/mbedtls/mbedtls-2.16.2/library\ecdsa.c ****     MBEDTLS_MPI_CHK( mbedtls_mpi_mod_mpi( pu1, pu1, &grp->N ) );
 547:D:/fchai/work/i-cube/I-CUBE-HUAWEI/Middlewares/Third_Party/Huawei/iot_link/network/dtls/mbedtls/mbedtls-2.16.2/library\ecdsa.c **** 
 548:D:/fchai/work/i-cube/I-CUBE-HUAWEI/Middlewares/Third_Party/Huawei/iot_link/network/dtls/mbedtls/mbedtls-2.16.2/library\ecdsa.c ****     MBEDTLS_MPI_CHK( mbedtls_mpi_mul_mpi( pu2, r, &s_inv ) );
 549:D:/fchai/work/i-cube/I-CUBE-HUAWEI/Middlewares/Third_Party/Huawei/iot_link/network/dtls/mbedtls/mbedtls-2.16.2/library\ecdsa.c ****     MBEDTLS_MPI_CHK( mbedtls_mpi_mod_mpi( pu2, pu2, &grp->N ) );
 550:D:/fchai/work/i-cube/I-CUBE-HUAWEI/Middlewares/Third_Party/Huawei/iot_link/network/dtls/mbedtls/mbedtls-2.16.2/library\ecdsa.c **** 
 551:D:/fchai/work/i-cube/I-CUBE-HUAWEI/Middlewares/Third_Party/Huawei/iot_link/network/dtls/mbedtls/mbedtls-2.16.2/library\ecdsa.c **** #if defined(MBEDTLS_ECP_RESTARTABLE)
 552:D:/fchai/work/i-cube/I-CUBE-HUAWEI/Middlewares/Third_Party/Huawei/iot_link/network/dtls/mbedtls/mbedtls-2.16.2/library\ecdsa.c ****     if( rs_ctx != NULL && rs_ctx->ver != NULL )
 553:D:/fchai/work/i-cube/I-CUBE-HUAWEI/Middlewares/Third_Party/Huawei/iot_link/network/dtls/mbedtls/mbedtls-2.16.2/library\ecdsa.c ****         rs_ctx->ver->state = ecdsa_ver_muladd;
 554:D:/fchai/work/i-cube/I-CUBE-HUAWEI/Middlewares/Third_Party/Huawei/iot_link/network/dtls/mbedtls/mbedtls-2.16.2/library\ecdsa.c **** 
 555:D:/fchai/work/i-cube/I-CUBE-HUAWEI/Middlewares/Third_Party/Huawei/iot_link/network/dtls/mbedtls/mbedtls-2.16.2/library\ecdsa.c **** muladd:
 556:D:/fchai/work/i-cube/I-CUBE-HUAWEI/Middlewares/Third_Party/Huawei/iot_link/network/dtls/mbedtls/mbedtls-2.16.2/library\ecdsa.c **** #endif
 557:D:/fchai/work/i-cube/I-CUBE-HUAWEI/Middlewares/Third_Party/Huawei/iot_link/network/dtls/mbedtls/mbedtls-2.16.2/library\ecdsa.c ****     /*
 558:D:/fchai/work/i-cube/I-CUBE-HUAWEI/Middlewares/Third_Party/Huawei/iot_link/network/dtls/mbedtls/mbedtls-2.16.2/library\ecdsa.c ****      * Step 5: R = u1 G + u2 Q
 559:D:/fchai/work/i-cube/I-CUBE-HUAWEI/Middlewares/Third_Party/Huawei/iot_link/network/dtls/mbedtls/mbedtls-2.16.2/library\ecdsa.c ****      */
 560:D:/fchai/work/i-cube/I-CUBE-HUAWEI/Middlewares/Third_Party/Huawei/iot_link/network/dtls/mbedtls/mbedtls-2.16.2/library\ecdsa.c ****     MBEDTLS_MPI_CHK( mbedtls_ecp_muladd_restartable( grp,
 561:D:/fchai/work/i-cube/I-CUBE-HUAWEI/Middlewares/Third_Party/Huawei/iot_link/network/dtls/mbedtls/mbedtls-2.16.2/library\ecdsa.c ****                      &R, pu1, &grp->G, pu2, Q, ECDSA_RS_ECP ) );
 562:D:/fchai/work/i-cube/I-CUBE-HUAWEI/Middlewares/Third_Party/Huawei/iot_link/network/dtls/mbedtls/mbedtls-2.16.2/library\ecdsa.c **** 
 563:D:/fchai/work/i-cube/I-CUBE-HUAWEI/Middlewares/Third_Party/Huawei/iot_link/network/dtls/mbedtls/mbedtls-2.16.2/library\ecdsa.c ****     if( mbedtls_ecp_is_zero( &R ) )
 564:D:/fchai/work/i-cube/I-CUBE-HUAWEI/Middlewares/Third_Party/Huawei/iot_link/network/dtls/mbedtls/mbedtls-2.16.2/library\ecdsa.c ****     {
 565:D:/fchai/work/i-cube/I-CUBE-HUAWEI/Middlewares/Third_Party/Huawei/iot_link/network/dtls/mbedtls/mbedtls-2.16.2/library\ecdsa.c ****         ret = MBEDTLS_ERR_ECP_VERIFY_FAILED;
 566:D:/fchai/work/i-cube/I-CUBE-HUAWEI/Middlewares/Third_Party/Huawei/iot_link/network/dtls/mbedtls/mbedtls-2.16.2/library\ecdsa.c ****         goto cleanup;
 567:D:/fchai/work/i-cube/I-CUBE-HUAWEI/Middlewares/Third_Party/Huawei/iot_link/network/dtls/mbedtls/mbedtls-2.16.2/library\ecdsa.c ****     }
 568:D:/fchai/work/i-cube/I-CUBE-HUAWEI/Middlewares/Third_Party/Huawei/iot_link/network/dtls/mbedtls/mbedtls-2.16.2/library\ecdsa.c **** 
 569:D:/fchai/work/i-cube/I-CUBE-HUAWEI/Middlewares/Third_Party/Huawei/iot_link/network/dtls/mbedtls/mbedtls-2.16.2/library\ecdsa.c ****     /*
 570:D:/fchai/work/i-cube/I-CUBE-HUAWEI/Middlewares/Third_Party/Huawei/iot_link/network/dtls/mbedtls/mbedtls-2.16.2/library\ecdsa.c ****      * Step 6: convert xR to an integer (no-op)
 571:D:/fchai/work/i-cube/I-CUBE-HUAWEI/Middlewares/Third_Party/Huawei/iot_link/network/dtls/mbedtls/mbedtls-2.16.2/library\ecdsa.c ****      * Step 7: reduce xR mod n (gives v)
 572:D:/fchai/work/i-cube/I-CUBE-HUAWEI/Middlewares/Third_Party/Huawei/iot_link/network/dtls/mbedtls/mbedtls-2.16.2/library\ecdsa.c ****      */
 573:D:/fchai/work/i-cube/I-CUBE-HUAWEI/Middlewares/Third_Party/Huawei/iot_link/network/dtls/mbedtls/mbedtls-2.16.2/library\ecdsa.c ****     MBEDTLS_MPI_CHK( mbedtls_mpi_mod_mpi( &R.X, &R.X, &grp->N ) );
 574:D:/fchai/work/i-cube/I-CUBE-HUAWEI/Middlewares/Third_Party/Huawei/iot_link/network/dtls/mbedtls/mbedtls-2.16.2/library\ecdsa.c **** 
 575:D:/fchai/work/i-cube/I-CUBE-HUAWEI/Middlewares/Third_Party/Huawei/iot_link/network/dtls/mbedtls/mbedtls-2.16.2/library\ecdsa.c ****     /*
 576:D:/fchai/work/i-cube/I-CUBE-HUAWEI/Middlewares/Third_Party/Huawei/iot_link/network/dtls/mbedtls/mbedtls-2.16.2/library\ecdsa.c ****      * Step 8: check if v (that is, R.X) is equal to r
 577:D:/fchai/work/i-cube/I-CUBE-HUAWEI/Middlewares/Third_Party/Huawei/iot_link/network/dtls/mbedtls/mbedtls-2.16.2/library\ecdsa.c ****      */
 578:D:/fchai/work/i-cube/I-CUBE-HUAWEI/Middlewares/Third_Party/Huawei/iot_link/network/dtls/mbedtls/mbedtls-2.16.2/library\ecdsa.c ****     if( mbedtls_mpi_cmp_mpi( &R.X, r ) != 0 )
 579:D:/fchai/work/i-cube/I-CUBE-HUAWEI/Middlewares/Third_Party/Huawei/iot_link/network/dtls/mbedtls/mbedtls-2.16.2/library\ecdsa.c ****     {
 580:D:/fchai/work/i-cube/I-CUBE-HUAWEI/Middlewares/Third_Party/Huawei/iot_link/network/dtls/mbedtls/mbedtls-2.16.2/library\ecdsa.c ****         ret = MBEDTLS_ERR_ECP_VERIFY_FAILED;
ARM GAS  T:\msys\tmp\ccyWqaJb.s 			page 25


 690              		.loc 1 580 9 is_stmt 1 view .LVU209
 581:D:/fchai/work/i-cube/I-CUBE-HUAWEI/Middlewares/Third_Party/Huawei/iot_link/network/dtls/mbedtls/mbedtls-2.16.2/library\ecdsa.c ****         goto cleanup;
 691              		.loc 1 581 9 view .LVU210
 580:D:/fchai/work/i-cube/I-CUBE-HUAWEI/Middlewares/Third_Party/Huawei/iot_link/network/dtls/mbedtls/mbedtls-2.16.2/library\ecdsa.c ****         goto cleanup;
 692              		.loc 1 580 13 is_stmt 0 view .LVU211
 693 0052 3B4D     		ldr	r5, .L49
 694              	.LVL98:
 695              	.L42:
 582:D:/fchai/work/i-cube/I-CUBE-HUAWEI/Middlewares/Third_Party/Huawei/iot_link/network/dtls/mbedtls/mbedtls-2.16.2/library\ecdsa.c ****     }
 583:D:/fchai/work/i-cube/I-CUBE-HUAWEI/Middlewares/Third_Party/Huawei/iot_link/network/dtls/mbedtls/mbedtls-2.16.2/library\ecdsa.c **** 
 584:D:/fchai/work/i-cube/I-CUBE-HUAWEI/Middlewares/Third_Party/Huawei/iot_link/network/dtls/mbedtls/mbedtls-2.16.2/library\ecdsa.c **** cleanup:
 585:D:/fchai/work/i-cube/I-CUBE-HUAWEI/Middlewares/Third_Party/Huawei/iot_link/network/dtls/mbedtls/mbedtls-2.16.2/library\ecdsa.c ****     mbedtls_ecp_point_free( &R );
 696              		.loc 1 585 5 is_stmt 1 view .LVU212
 697 0054 11A8     		add	r0, sp, #68
 698 0056 FFF7FEFF 		bl	mbedtls_ecp_point_free
 699              	.LVL99:
 586:D:/fchai/work/i-cube/I-CUBE-HUAWEI/Middlewares/Third_Party/Huawei/iot_link/network/dtls/mbedtls/mbedtls-2.16.2/library\ecdsa.c ****     mbedtls_mpi_free( &e ); mbedtls_mpi_free( &s_inv );
 700              		.loc 1 586 5 view .LVU213
 701 005a 05A8     		add	r0, sp, #20
 702 005c FFF7FEFF 		bl	mbedtls_mpi_free
 703              	.LVL100:
 704              		.loc 1 586 29 view .LVU214
 705 0060 08A8     		add	r0, sp, #32
 706 0062 FFF7FEFF 		bl	mbedtls_mpi_free
 707              	.LVL101:
 587:D:/fchai/work/i-cube/I-CUBE-HUAWEI/Middlewares/Third_Party/Huawei/iot_link/network/dtls/mbedtls/mbedtls-2.16.2/library\ecdsa.c ****     mbedtls_mpi_free( &u1 ); mbedtls_mpi_free( &u2 );
 708              		.loc 1 587 5 view .LVU215
 709 0066 0BA8     		add	r0, sp, #44
 710              	.LVL102:
 711              		.loc 1 587 5 is_stmt 0 view .LVU216
 712 0068 FFF7FEFF 		bl	mbedtls_mpi_free
 713              	.LVL103:
 714              		.loc 1 587 30 is_stmt 1 view .LVU217
 715 006c 0EA8     		add	r0, sp, #56
 716              	.LVL104:
 717              		.loc 1 587 30 is_stmt 0 view .LVU218
 718 006e FFF7FEFF 		bl	mbedtls_mpi_free
 719              	.LVL105:
 588:D:/fchai/work/i-cube/I-CUBE-HUAWEI/Middlewares/Third_Party/Huawei/iot_link/network/dtls/mbedtls/mbedtls-2.16.2/library\ecdsa.c **** 
 589:D:/fchai/work/i-cube/I-CUBE-HUAWEI/Middlewares/Third_Party/Huawei/iot_link/network/dtls/mbedtls/mbedtls-2.16.2/library\ecdsa.c ****     ECDSA_RS_LEAVE( ver );
 720              		.loc 1 589 5 is_stmt 1 view .LVU219
 590:D:/fchai/work/i-cube/I-CUBE-HUAWEI/Middlewares/Third_Party/Huawei/iot_link/network/dtls/mbedtls/mbedtls-2.16.2/library\ecdsa.c **** 
 591:D:/fchai/work/i-cube/I-CUBE-HUAWEI/Middlewares/Third_Party/Huawei/iot_link/network/dtls/mbedtls/mbedtls-2.16.2/library\ecdsa.c ****     return( ret );
 721              		.loc 1 591 5 view .LVU220
 722              	.L39:
 592:D:/fchai/work/i-cube/I-CUBE-HUAWEI/Middlewares/Third_Party/Huawei/iot_link/network/dtls/mbedtls/mbedtls-2.16.2/library\ecdsa.c **** }
 723              		.loc 1 592 1 is_stmt 0 view .LVU221
 724 0072 2846     		mov	r0, r5
 725 0074 1BB0     		add	sp, sp, #108
 726              	.LCFI11:
 727              		.cfi_remember_state
 728              		.cfi_def_cfa_offset 28
 729              		@ sp needed
 730 0076 BDE8F083 		pop	{r4, r5, r6, r7, r8, r9, pc}
 731              	.LVL106:
 732              	.L48:
 733              	.LCFI12:
ARM GAS  T:\msys\tmp\ccyWqaJb.s 			page 26


 734              		.cfi_restore_state
 527:D:/fchai/work/i-cube/I-CUBE-HUAWEI/Middlewares/Third_Party/Huawei/iot_link/network/dtls/mbedtls/mbedtls-2.16.2/library\ecdsa.c ****     {
 735              		.loc 1 527 9 view .LVU222
 736 007a 2398     		ldr	r0, [sp, #140]
 737 007c 0121     		movs	r1, #1
 738 007e FFF7FEFF 		bl	mbedtls_mpi_cmp_int
 739              	.LVL107:
 526:D:/fchai/work/i-cube/I-CUBE-HUAWEI/Middlewares/Third_Party/Huawei/iot_link/network/dtls/mbedtls/mbedtls-2.16.2/library\ecdsa.c ****         mbedtls_mpi_cmp_int( s, 1 ) < 0 || mbedtls_mpi_cmp_mpi( s, &grp->N ) >= 0 )
 740              		.loc 1 526 83 view .LVU223
 741 0082 0028     		cmp	r0, #0
 742 0084 E5DB     		blt	.L41
 527:D:/fchai/work/i-cube/I-CUBE-HUAWEI/Middlewares/Third_Party/Huawei/iot_link/network/dtls/mbedtls/mbedtls-2.16.2/library\ecdsa.c ****     {
 743              		.loc 1 527 44 view .LVU224
 744 0086 2398     		ldr	r0, [sp, #140]
 745 0088 4146     		mov	r1, r8
 746 008a FFF7FEFF 		bl	mbedtls_mpi_cmp_mpi
 747              	.LVL108:
 527:D:/fchai/work/i-cube/I-CUBE-HUAWEI/Middlewares/Third_Party/Huawei/iot_link/network/dtls/mbedtls/mbedtls-2.16.2/library\ecdsa.c ****     {
 748              		.loc 1 527 41 view .LVU225
 749 008e 0028     		cmp	r0, #0
 750 0090 DFDA     		bge	.L41
 536:D:/fchai/work/i-cube/I-CUBE-HUAWEI/Middlewares/Third_Party/Huawei/iot_link/network/dtls/mbedtls/mbedtls-2.16.2/library\ecdsa.c **** 
 751              		.loc 1 536 5 is_stmt 1 view .LVU226
 536:D:/fchai/work/i-cube/I-CUBE-HUAWEI/Middlewares/Third_Party/Huawei/iot_link/network/dtls/mbedtls/mbedtls-2.16.2/library\ecdsa.c **** 
 752              		.loc 1 536 5 view .LVU227
 753 0092 2A46     		mov	r2, r5
 754 0094 4B46     		mov	r3, r9
 755 0096 05A9     		add	r1, sp, #20
 756 0098 2046     		mov	r0, r4
 757 009a FFF7FEFF 		bl	derive_mpi
 758              	.LVL109:
 536:D:/fchai/work/i-cube/I-CUBE-HUAWEI/Middlewares/Third_Party/Huawei/iot_link/network/dtls/mbedtls/mbedtls-2.16.2/library\ecdsa.c **** 
 759              		.loc 1 536 5 is_stmt 0 view .LVU228
 760 009e 0546     		mov	r5, r0
 761              	.LVL110:
 536:D:/fchai/work/i-cube/I-CUBE-HUAWEI/Middlewares/Third_Party/Huawei/iot_link/network/dtls/mbedtls/mbedtls-2.16.2/library\ecdsa.c **** 
 762              		.loc 1 536 5 view .LVU229
 763 00a0 0028     		cmp	r0, #0
 764 00a2 D7D1     		bne	.L42
 536:D:/fchai/work/i-cube/I-CUBE-HUAWEI/Middlewares/Third_Party/Huawei/iot_link/network/dtls/mbedtls/mbedtls-2.16.2/library\ecdsa.c **** 
 765              		.loc 1 536 5 is_stmt 1 view .LVU230
 541:D:/fchai/work/i-cube/I-CUBE-HUAWEI/Middlewares/Third_Party/Huawei/iot_link/network/dtls/mbedtls/mbedtls-2.16.2/library\ecdsa.c **** 
 766              		.loc 1 541 66 view .LVU231
 543:D:/fchai/work/i-cube/I-CUBE-HUAWEI/Middlewares/Third_Party/Huawei/iot_link/network/dtls/mbedtls/mbedtls-2.16.2/library\ecdsa.c **** 
 767              		.loc 1 543 5 view .LVU232
 543:D:/fchai/work/i-cube/I-CUBE-HUAWEI/Middlewares/Third_Party/Huawei/iot_link/network/dtls/mbedtls/mbedtls-2.16.2/library\ecdsa.c **** 
 768              		.loc 1 543 5 view .LVU233
 769 00a4 2399     		ldr	r1, [sp, #140]
 770 00a6 4246     		mov	r2, r8
 771 00a8 08A8     		add	r0, sp, #32
 772              	.LVL111:
 543:D:/fchai/work/i-cube/I-CUBE-HUAWEI/Middlewares/Third_Party/Huawei/iot_link/network/dtls/mbedtls/mbedtls-2.16.2/library\ecdsa.c **** 
 773              		.loc 1 543 5 is_stmt 0 view .LVU234
 774 00aa FFF7FEFF 		bl	mbedtls_mpi_inv_mod
 775              	.LVL112:
 543:D:/fchai/work/i-cube/I-CUBE-HUAWEI/Middlewares/Third_Party/Huawei/iot_link/network/dtls/mbedtls/mbedtls-2.16.2/library\ecdsa.c **** 
 776              		.loc 1 543 5 view .LVU235
ARM GAS  T:\msys\tmp\ccyWqaJb.s 			page 27


 777 00ae 0546     		mov	r5, r0
 778 00b0 0028     		cmp	r0, #0
 779 00b2 CFD1     		bne	.L42
 543:D:/fchai/work/i-cube/I-CUBE-HUAWEI/Middlewares/Third_Party/Huawei/iot_link/network/dtls/mbedtls/mbedtls-2.16.2/library\ecdsa.c **** 
 780              		.loc 1 543 5 is_stmt 1 view .LVU236
 545:D:/fchai/work/i-cube/I-CUBE-HUAWEI/Middlewares/Third_Party/Huawei/iot_link/network/dtls/mbedtls/mbedtls-2.16.2/library\ecdsa.c ****     MBEDTLS_MPI_CHK( mbedtls_mpi_mod_mpi( pu1, pu1, &grp->N ) );
 781              		.loc 1 545 5 view .LVU237
 545:D:/fchai/work/i-cube/I-CUBE-HUAWEI/Middlewares/Third_Party/Huawei/iot_link/network/dtls/mbedtls/mbedtls-2.16.2/library\ecdsa.c ****     MBEDTLS_MPI_CHK( mbedtls_mpi_mod_mpi( pu1, pu1, &grp->N ) );
 782              		.loc 1 545 5 view .LVU238
 783 00b4 08AA     		add	r2, sp, #32
 784 00b6 05A9     		add	r1, sp, #20
 785 00b8 0BA8     		add	r0, sp, #44
 786              	.LVL113:
 545:D:/fchai/work/i-cube/I-CUBE-HUAWEI/Middlewares/Third_Party/Huawei/iot_link/network/dtls/mbedtls/mbedtls-2.16.2/library\ecdsa.c ****     MBEDTLS_MPI_CHK( mbedtls_mpi_mod_mpi( pu1, pu1, &grp->N ) );
 787              		.loc 1 545 5 is_stmt 0 view .LVU239
 788 00ba FFF7FEFF 		bl	mbedtls_mpi_mul_mpi
 789              	.LVL114:
 545:D:/fchai/work/i-cube/I-CUBE-HUAWEI/Middlewares/Third_Party/Huawei/iot_link/network/dtls/mbedtls/mbedtls-2.16.2/library\ecdsa.c ****     MBEDTLS_MPI_CHK( mbedtls_mpi_mod_mpi( pu1, pu1, &grp->N ) );
 790              		.loc 1 545 5 view .LVU240
 791 00be 0546     		mov	r5, r0
 792 00c0 0028     		cmp	r0, #0
 793 00c2 C7D1     		bne	.L42
 545:D:/fchai/work/i-cube/I-CUBE-HUAWEI/Middlewares/Third_Party/Huawei/iot_link/network/dtls/mbedtls/mbedtls-2.16.2/library\ecdsa.c ****     MBEDTLS_MPI_CHK( mbedtls_mpi_mod_mpi( pu1, pu1, &grp->N ) );
 794              		.loc 1 545 5 is_stmt 1 view .LVU241
 546:D:/fchai/work/i-cube/I-CUBE-HUAWEI/Middlewares/Third_Party/Huawei/iot_link/network/dtls/mbedtls/mbedtls-2.16.2/library\ecdsa.c **** 
 795              		.loc 1 546 5 view .LVU242
 546:D:/fchai/work/i-cube/I-CUBE-HUAWEI/Middlewares/Third_Party/Huawei/iot_link/network/dtls/mbedtls/mbedtls-2.16.2/library\ecdsa.c **** 
 796              		.loc 1 546 5 view .LVU243
 797 00c4 0BA9     		add	r1, sp, #44
 798              	.LVL115:
 546:D:/fchai/work/i-cube/I-CUBE-HUAWEI/Middlewares/Third_Party/Huawei/iot_link/network/dtls/mbedtls/mbedtls-2.16.2/library\ecdsa.c **** 
 799              		.loc 1 546 5 is_stmt 0 view .LVU244
 800 00c6 4246     		mov	r2, r8
 801 00c8 0846     		mov	r0, r1
 802              	.LVL116:
 546:D:/fchai/work/i-cube/I-CUBE-HUAWEI/Middlewares/Third_Party/Huawei/iot_link/network/dtls/mbedtls/mbedtls-2.16.2/library\ecdsa.c **** 
 803              		.loc 1 546 5 view .LVU245
 804 00ca FFF7FEFF 		bl	mbedtls_mpi_mod_mpi
 805              	.LVL117:
 546:D:/fchai/work/i-cube/I-CUBE-HUAWEI/Middlewares/Third_Party/Huawei/iot_link/network/dtls/mbedtls/mbedtls-2.16.2/library\ecdsa.c **** 
 806              		.loc 1 546 5 view .LVU246
 807 00ce 0546     		mov	r5, r0
 808 00d0 0028     		cmp	r0, #0
 809 00d2 BFD1     		bne	.L42
 546:D:/fchai/work/i-cube/I-CUBE-HUAWEI/Middlewares/Third_Party/Huawei/iot_link/network/dtls/mbedtls/mbedtls-2.16.2/library\ecdsa.c **** 
 810              		.loc 1 546 5 is_stmt 1 view .LVU247
 548:D:/fchai/work/i-cube/I-CUBE-HUAWEI/Middlewares/Third_Party/Huawei/iot_link/network/dtls/mbedtls/mbedtls-2.16.2/library\ecdsa.c ****     MBEDTLS_MPI_CHK( mbedtls_mpi_mod_mpi( pu2, pu2, &grp->N ) );
 811              		.loc 1 548 5 view .LVU248
 548:D:/fchai/work/i-cube/I-CUBE-HUAWEI/Middlewares/Third_Party/Huawei/iot_link/network/dtls/mbedtls/mbedtls-2.16.2/library\ecdsa.c ****     MBEDTLS_MPI_CHK( mbedtls_mpi_mod_mpi( pu2, pu2, &grp->N ) );
 812              		.loc 1 548 5 view .LVU249
 813 00d4 08AA     		add	r2, sp, #32
 814 00d6 3946     		mov	r1, r7
 815 00d8 0EA8     		add	r0, sp, #56
 816              	.LVL118:
 548:D:/fchai/work/i-cube/I-CUBE-HUAWEI/Middlewares/Third_Party/Huawei/iot_link/network/dtls/mbedtls/mbedtls-2.16.2/library\ecdsa.c ****     MBEDTLS_MPI_CHK( mbedtls_mpi_mod_mpi( pu2, pu2, &grp->N ) );
 817              		.loc 1 548 5 is_stmt 0 view .LVU250
 818 00da FFF7FEFF 		bl	mbedtls_mpi_mul_mpi
ARM GAS  T:\msys\tmp\ccyWqaJb.s 			page 28


 819              	.LVL119:
 548:D:/fchai/work/i-cube/I-CUBE-HUAWEI/Middlewares/Third_Party/Huawei/iot_link/network/dtls/mbedtls/mbedtls-2.16.2/library\ecdsa.c ****     MBEDTLS_MPI_CHK( mbedtls_mpi_mod_mpi( pu2, pu2, &grp->N ) );
 820              		.loc 1 548 5 view .LVU251
 821 00de 0546     		mov	r5, r0
 822 00e0 0028     		cmp	r0, #0
 823 00e2 B7D1     		bne	.L42
 548:D:/fchai/work/i-cube/I-CUBE-HUAWEI/Middlewares/Third_Party/Huawei/iot_link/network/dtls/mbedtls/mbedtls-2.16.2/library\ecdsa.c ****     MBEDTLS_MPI_CHK( mbedtls_mpi_mod_mpi( pu2, pu2, &grp->N ) );
 824              		.loc 1 548 5 is_stmt 1 view .LVU252
 549:D:/fchai/work/i-cube/I-CUBE-HUAWEI/Middlewares/Third_Party/Huawei/iot_link/network/dtls/mbedtls/mbedtls-2.16.2/library\ecdsa.c **** 
 825              		.loc 1 549 5 view .LVU253
 549:D:/fchai/work/i-cube/I-CUBE-HUAWEI/Middlewares/Third_Party/Huawei/iot_link/network/dtls/mbedtls/mbedtls-2.16.2/library\ecdsa.c **** 
 826              		.loc 1 549 5 view .LVU254
 827 00e4 0EA9     		add	r1, sp, #56
 828              	.LVL120:
 549:D:/fchai/work/i-cube/I-CUBE-HUAWEI/Middlewares/Third_Party/Huawei/iot_link/network/dtls/mbedtls/mbedtls-2.16.2/library\ecdsa.c **** 
 829              		.loc 1 549 5 is_stmt 0 view .LVU255
 830 00e6 4246     		mov	r2, r8
 831 00e8 0846     		mov	r0, r1
 832              	.LVL121:
 549:D:/fchai/work/i-cube/I-CUBE-HUAWEI/Middlewares/Third_Party/Huawei/iot_link/network/dtls/mbedtls/mbedtls-2.16.2/library\ecdsa.c **** 
 833              		.loc 1 549 5 view .LVU256
 834 00ea FFF7FEFF 		bl	mbedtls_mpi_mod_mpi
 835              	.LVL122:
 549:D:/fchai/work/i-cube/I-CUBE-HUAWEI/Middlewares/Third_Party/Huawei/iot_link/network/dtls/mbedtls/mbedtls-2.16.2/library\ecdsa.c **** 
 836              		.loc 1 549 5 view .LVU257
 837 00ee 0546     		mov	r5, r0
 838 00f0 0028     		cmp	r0, #0
 839 00f2 AFD1     		bne	.L42
 549:D:/fchai/work/i-cube/I-CUBE-HUAWEI/Middlewares/Third_Party/Huawei/iot_link/network/dtls/mbedtls/mbedtls-2.16.2/library\ecdsa.c **** 
 840              		.loc 1 549 5 is_stmt 1 view .LVU258
 560:D:/fchai/work/i-cube/I-CUBE-HUAWEI/Middlewares/Third_Party/Huawei/iot_link/network/dtls/mbedtls/mbedtls-2.16.2/library\ecdsa.c ****                      &R, pu1, &grp->G, pu2, Q, ECDSA_RS_ECP ) );
 841              		.loc 1 560 5 view .LVU259
 560:D:/fchai/work/i-cube/I-CUBE-HUAWEI/Middlewares/Third_Party/Huawei/iot_link/network/dtls/mbedtls/mbedtls-2.16.2/library\ecdsa.c ****                      &R, pu1, &grp->G, pu2, Q, ECDSA_RS_ECP ) );
 842              		.loc 1 560 5 view .LVU260
 843 00f4 0EAB     		add	r3, sp, #56
 844              	.LVL123:
 560:D:/fchai/work/i-cube/I-CUBE-HUAWEI/Middlewares/Third_Party/Huawei/iot_link/network/dtls/mbedtls/mbedtls-2.16.2/library\ecdsa.c ****                      &R, pu1, &grp->G, pu2, Q, ECDSA_RS_ECP ) );
 845              		.loc 1 560 5 is_stmt 0 view .LVU261
 846 00f6 CDE90160 		strd	r6, r0, [sp, #4]
 847 00fa 0093     		str	r3, [sp]
 848 00fc 2046     		mov	r0, r4
 849              	.LVL124:
 560:D:/fchai/work/i-cube/I-CUBE-HUAWEI/Middlewares/Third_Party/Huawei/iot_link/network/dtls/mbedtls/mbedtls-2.16.2/library\ecdsa.c ****                      &R, pu1, &grp->G, pu2, Q, ECDSA_RS_ECP ) );
 850              		.loc 1 560 5 view .LVU262
 851 00fe 04F12803 		add	r3, r4, #40
 852              	.LVL125:
 560:D:/fchai/work/i-cube/I-CUBE-HUAWEI/Middlewares/Third_Party/Huawei/iot_link/network/dtls/mbedtls/mbedtls-2.16.2/library\ecdsa.c ****                      &R, pu1, &grp->G, pu2, Q, ECDSA_RS_ECP ) );
 853              		.loc 1 560 5 view .LVU263
 854 0102 0BAA     		add	r2, sp, #44
 855              	.LVL126:
 560:D:/fchai/work/i-cube/I-CUBE-HUAWEI/Middlewares/Third_Party/Huawei/iot_link/network/dtls/mbedtls/mbedtls-2.16.2/library\ecdsa.c ****                      &R, pu1, &grp->G, pu2, Q, ECDSA_RS_ECP ) );
 856              		.loc 1 560 5 view .LVU264
 857 0104 11A9     		add	r1, sp, #68
 858 0106 FFF7FEFF 		bl	mbedtls_ecp_muladd_restartable
 859              	.LVL127:
 560:D:/fchai/work/i-cube/I-CUBE-HUAWEI/Middlewares/Third_Party/Huawei/iot_link/network/dtls/mbedtls/mbedtls-2.16.2/library\ecdsa.c ****                      &R, pu1, &grp->G, pu2, Q, ECDSA_RS_ECP ) );
 860              		.loc 1 560 5 view .LVU265
ARM GAS  T:\msys\tmp\ccyWqaJb.s 			page 29


 861 010a 0546     		mov	r5, r0
 862 010c 0028     		cmp	r0, #0
 863 010e A1D1     		bne	.L42
 560:D:/fchai/work/i-cube/I-CUBE-HUAWEI/Middlewares/Third_Party/Huawei/iot_link/network/dtls/mbedtls/mbedtls-2.16.2/library\ecdsa.c ****                      &R, pu1, &grp->G, pu2, Q, ECDSA_RS_ECP ) );
 864              		.loc 1 560 5 is_stmt 1 view .LVU266
 563:D:/fchai/work/i-cube/I-CUBE-HUAWEI/Middlewares/Third_Party/Huawei/iot_link/network/dtls/mbedtls/mbedtls-2.16.2/library\ecdsa.c ****     {
 865              		.loc 1 563 5 view .LVU267
 563:D:/fchai/work/i-cube/I-CUBE-HUAWEI/Middlewares/Third_Party/Huawei/iot_link/network/dtls/mbedtls/mbedtls-2.16.2/library\ecdsa.c ****     {
 866              		.loc 1 563 9 is_stmt 0 view .LVU268
 867 0110 11A8     		add	r0, sp, #68
 868              	.LVL128:
 563:D:/fchai/work/i-cube/I-CUBE-HUAWEI/Middlewares/Third_Party/Huawei/iot_link/network/dtls/mbedtls/mbedtls-2.16.2/library\ecdsa.c ****     {
 869              		.loc 1 563 9 view .LVU269
 870 0112 FFF7FEFF 		bl	mbedtls_ecp_is_zero
 871              	.LVL129:
 563:D:/fchai/work/i-cube/I-CUBE-HUAWEI/Middlewares/Third_Party/Huawei/iot_link/network/dtls/mbedtls/mbedtls-2.16.2/library\ecdsa.c ****     {
 872              		.loc 1 563 7 view .LVU270
 873 0116 0028     		cmp	r0, #0
 874 0118 9BD1     		bne	.L41
 573:D:/fchai/work/i-cube/I-CUBE-HUAWEI/Middlewares/Third_Party/Huawei/iot_link/network/dtls/mbedtls/mbedtls-2.16.2/library\ecdsa.c **** 
 875              		.loc 1 573 5 is_stmt 1 view .LVU271
 573:D:/fchai/work/i-cube/I-CUBE-HUAWEI/Middlewares/Third_Party/Huawei/iot_link/network/dtls/mbedtls/mbedtls-2.16.2/library\ecdsa.c **** 
 876              		.loc 1 573 5 view .LVU272
 877 011a 11A9     		add	r1, sp, #68
 878 011c 4246     		mov	r2, r8
 879 011e 0846     		mov	r0, r1
 880 0120 FFF7FEFF 		bl	mbedtls_mpi_mod_mpi
 881              	.LVL130:
 573:D:/fchai/work/i-cube/I-CUBE-HUAWEI/Middlewares/Third_Party/Huawei/iot_link/network/dtls/mbedtls/mbedtls-2.16.2/library\ecdsa.c **** 
 882              		.loc 1 573 5 is_stmt 0 view .LVU273
 883 0124 0546     		mov	r5, r0
 884 0126 0028     		cmp	r0, #0
 885 0128 94D1     		bne	.L42
 573:D:/fchai/work/i-cube/I-CUBE-HUAWEI/Middlewares/Third_Party/Huawei/iot_link/network/dtls/mbedtls/mbedtls-2.16.2/library\ecdsa.c **** 
 886              		.loc 1 573 5 is_stmt 1 view .LVU274
 578:D:/fchai/work/i-cube/I-CUBE-HUAWEI/Middlewares/Third_Party/Huawei/iot_link/network/dtls/mbedtls/mbedtls-2.16.2/library\ecdsa.c ****     {
 887              		.loc 1 578 5 view .LVU275
 578:D:/fchai/work/i-cube/I-CUBE-HUAWEI/Middlewares/Third_Party/Huawei/iot_link/network/dtls/mbedtls/mbedtls-2.16.2/library\ecdsa.c ****     {
 888              		.loc 1 578 9 is_stmt 0 view .LVU276
 889 012a 3946     		mov	r1, r7
 890 012c 11A8     		add	r0, sp, #68
 891              	.LVL131:
 578:D:/fchai/work/i-cube/I-CUBE-HUAWEI/Middlewares/Third_Party/Huawei/iot_link/network/dtls/mbedtls/mbedtls-2.16.2/library\ecdsa.c ****     {
 892              		.loc 1 578 9 view .LVU277
 893 012e FFF7FEFF 		bl	mbedtls_mpi_cmp_mpi
 894              	.LVL132:
 578:D:/fchai/work/i-cube/I-CUBE-HUAWEI/Middlewares/Third_Party/Huawei/iot_link/network/dtls/mbedtls/mbedtls-2.16.2/library\ecdsa.c ****     {
 895              		.loc 1 578 7 view .LVU278
 896 0132 0546     		mov	r5, r0
 897              	.LVL133:
 578:D:/fchai/work/i-cube/I-CUBE-HUAWEI/Middlewares/Third_Party/Huawei/iot_link/network/dtls/mbedtls/mbedtls-2.16.2/library\ecdsa.c ****     {
 898              		.loc 1 578 7 view .LVU279
 899 0134 0028     		cmp	r0, #0
 900 0136 8DD0     		beq	.L42
 901 0138 8BE7     		b	.L41
 902              	.LVL134:
 903              	.L43:
ARM GAS  T:\msys\tmp\ccyWqaJb.s 			page 30


 506:D:/fchai/work/i-cube/I-CUBE-HUAWEI/Middlewares/Third_Party/Huawei/iot_link/network/dtls/mbedtls/mbedtls-2.16.2/library\ecdsa.c **** 
 904              		.loc 1 506 15 view .LVU280
 905 013a 024D     		ldr	r5, .L49+4
 906              	.LVL135:
 506:D:/fchai/work/i-cube/I-CUBE-HUAWEI/Middlewares/Third_Party/Huawei/iot_link/network/dtls/mbedtls/mbedtls-2.16.2/library\ecdsa.c **** 
 907              		.loc 1 506 15 view .LVU281
 908 013c 99E7     		b	.L39
 909              	.L50:
 910 013e 00BF     		.align	2
 911              	.L49:
 912 0140 00B2FFFF 		.word	-19968
 913 0144 80B0FFFF 		.word	-20352
 914              		.cfi_endproc
 915              	.LFE18:
 917              		.section	.text.mbedtls_ecdsa_sign,"ax",%progbits
 918              		.align	1
 919              		.p2align 2,,3
 920              		.global	mbedtls_ecdsa_sign
 921              		.syntax unified
 922              		.thumb
 923              		.thumb_func
 924              		.fpu fpv4-sp-d16
 926              	mbedtls_ecdsa_sign:
 927              	.LVL136:
 928              	.LFB5:
 387:D:/fchai/work/i-cube/I-CUBE-HUAWEI/Middlewares/Third_Party/Huawei/iot_link/network/dtls/mbedtls/mbedtls-2.16.2/library\ecdsa.c ****     ECDSA_VALIDATE_RET( grp   != NULL );
 929              		.loc 1 387 1 is_stmt 1 view -0
 930              		.cfi_startproc
 931              		@ args = 16, pretend = 0, frame = 0
 932              		@ frame_needed = 0, uses_anonymous_args = 0
 933              		@ link register save eliminated.
 388:D:/fchai/work/i-cube/I-CUBE-HUAWEI/Middlewares/Third_Party/Huawei/iot_link/network/dtls/mbedtls/mbedtls-2.16.2/library\ecdsa.c ****     ECDSA_VALIDATE_RET( r     != NULL );
 934              		.loc 1 388 5 view .LVU283
 388:D:/fchai/work/i-cube/I-CUBE-HUAWEI/Middlewares/Third_Party/Huawei/iot_link/network/dtls/mbedtls/mbedtls-2.16.2/library\ecdsa.c ****     ECDSA_VALIDATE_RET( r     != NULL );
 935              		.loc 1 388 5 view .LVU284
 388:D:/fchai/work/i-cube/I-CUBE-HUAWEI/Middlewares/Third_Party/Huawei/iot_link/network/dtls/mbedtls/mbedtls-2.16.2/library\ecdsa.c ****     ECDSA_VALIDATE_RET( r     != NULL );
 936              		.loc 1 388 5 view .LVU285
 389:D:/fchai/work/i-cube/I-CUBE-HUAWEI/Middlewares/Third_Party/Huawei/iot_link/network/dtls/mbedtls/mbedtls-2.16.2/library\ecdsa.c ****     ECDSA_VALIDATE_RET( s     != NULL );
 937              		.loc 1 389 5 view .LVU286
 389:D:/fchai/work/i-cube/I-CUBE-HUAWEI/Middlewares/Third_Party/Huawei/iot_link/network/dtls/mbedtls/mbedtls-2.16.2/library\ecdsa.c ****     ECDSA_VALIDATE_RET( s     != NULL );
 938              		.loc 1 389 5 view .LVU287
 389:D:/fchai/work/i-cube/I-CUBE-HUAWEI/Middlewares/Third_Party/Huawei/iot_link/network/dtls/mbedtls/mbedtls-2.16.2/library\ecdsa.c ****     ECDSA_VALIDATE_RET( s     != NULL );
 939              		.loc 1 389 5 view .LVU288
 390:D:/fchai/work/i-cube/I-CUBE-HUAWEI/Middlewares/Third_Party/Huawei/iot_link/network/dtls/mbedtls/mbedtls-2.16.2/library\ecdsa.c ****     ECDSA_VALIDATE_RET( d     != NULL );
 940              		.loc 1 390 5 view .LVU289
 390:D:/fchai/work/i-cube/I-CUBE-HUAWEI/Middlewares/Third_Party/Huawei/iot_link/network/dtls/mbedtls/mbedtls-2.16.2/library\ecdsa.c ****     ECDSA_VALIDATE_RET( d     != NULL );
 941              		.loc 1 390 5 view .LVU290
 390:D:/fchai/work/i-cube/I-CUBE-HUAWEI/Middlewares/Third_Party/Huawei/iot_link/network/dtls/mbedtls/mbedtls-2.16.2/library\ecdsa.c ****     ECDSA_VALIDATE_RET( d     != NULL );
 942              		.loc 1 390 5 view .LVU291
 391:D:/fchai/work/i-cube/I-CUBE-HUAWEI/Middlewares/Third_Party/Huawei/iot_link/network/dtls/mbedtls/mbedtls-2.16.2/library\ecdsa.c ****     ECDSA_VALIDATE_RET( f_rng != NULL );
 943              		.loc 1 391 5 view .LVU292
 391:D:/fchai/work/i-cube/I-CUBE-HUAWEI/Middlewares/Third_Party/Huawei/iot_link/network/dtls/mbedtls/mbedtls-2.16.2/library\ecdsa.c ****     ECDSA_VALIDATE_RET( f_rng != NULL );
 944              		.loc 1 391 5 view .LVU293
 391:D:/fchai/work/i-cube/I-CUBE-HUAWEI/Middlewares/Third_Party/Huawei/iot_link/network/dtls/mbedtls/mbedtls-2.16.2/library\ecdsa.c ****     ECDSA_VALIDATE_RET( f_rng != NULL );
 945              		.loc 1 391 5 view .LVU294
 392:D:/fchai/work/i-cube/I-CUBE-HUAWEI/Middlewares/Third_Party/Huawei/iot_link/network/dtls/mbedtls/mbedtls-2.16.2/library\ecdsa.c ****     ECDSA_VALIDATE_RET( buf   != NULL || blen == 0 );
 946              		.loc 1 392 5 view .LVU295
ARM GAS  T:\msys\tmp\ccyWqaJb.s 			page 31


 392:D:/fchai/work/i-cube/I-CUBE-HUAWEI/Middlewares/Third_Party/Huawei/iot_link/network/dtls/mbedtls/mbedtls-2.16.2/library\ecdsa.c ****     ECDSA_VALIDATE_RET( buf   != NULL || blen == 0 );
 947              		.loc 1 392 5 view .LVU296
 392:D:/fchai/work/i-cube/I-CUBE-HUAWEI/Middlewares/Third_Party/Huawei/iot_link/network/dtls/mbedtls/mbedtls-2.16.2/library\ecdsa.c ****     ECDSA_VALIDATE_RET( buf   != NULL || blen == 0 );
 948              		.loc 1 392 5 view .LVU297
 393:D:/fchai/work/i-cube/I-CUBE-HUAWEI/Middlewares/Third_Party/Huawei/iot_link/network/dtls/mbedtls/mbedtls-2.16.2/library\ecdsa.c **** 
 949              		.loc 1 393 5 view .LVU298
 393:D:/fchai/work/i-cube/I-CUBE-HUAWEI/Middlewares/Third_Party/Huawei/iot_link/network/dtls/mbedtls/mbedtls-2.16.2/library\ecdsa.c **** 
 950              		.loc 1 393 5 view .LVU299
 393:D:/fchai/work/i-cube/I-CUBE-HUAWEI/Middlewares/Third_Party/Huawei/iot_link/network/dtls/mbedtls/mbedtls-2.16.2/library\ecdsa.c **** 
 951              		.loc 1 393 5 view .LVU300
 395:D:/fchai/work/i-cube/I-CUBE-HUAWEI/Middlewares/Third_Party/Huawei/iot_link/network/dtls/mbedtls/mbedtls-2.16.2/library\ecdsa.c ****                                     f_rng, p_rng, NULL ) );
 952              		.loc 1 395 5 view .LVU301
 395:D:/fchai/work/i-cube/I-CUBE-HUAWEI/Middlewares/Third_Party/Huawei/iot_link/network/dtls/mbedtls/mbedtls-2.16.2/library\ecdsa.c ****                                     f_rng, p_rng, NULL ) );
 953              		.loc 1 395 13 is_stmt 0 view .LVU302
 954 0000 FFF7FEBF 		b	ecdsa_sign_restartable.isra.0
 955              	.LVL137:
 395:D:/fchai/work/i-cube/I-CUBE-HUAWEI/Middlewares/Third_Party/Huawei/iot_link/network/dtls/mbedtls/mbedtls-2.16.2/library\ecdsa.c ****                                     f_rng, p_rng, NULL ) );
 956              		.loc 1 395 13 view .LVU303
 957              		.cfi_endproc
 958              	.LFE5:
 960              		.section	.text.mbedtls_ecdsa_verify,"ax",%progbits
 961              		.align	1
 962              		.p2align 2,,3
 963              		.global	mbedtls_ecdsa_verify
 964              		.syntax unified
 965              		.thumb
 966              		.thumb_func
 967              		.fpu fpv4-sp-d16
 969              	mbedtls_ecdsa_verify:
 970              	.LVL138:
 971              	.LFB7:
 593:D:/fchai/work/i-cube/I-CUBE-HUAWEI/Middlewares/Third_Party/Huawei/iot_link/network/dtls/mbedtls/mbedtls-2.16.2/library\ecdsa.c **** 
 594:D:/fchai/work/i-cube/I-CUBE-HUAWEI/Middlewares/Third_Party/Huawei/iot_link/network/dtls/mbedtls/mbedtls-2.16.2/library\ecdsa.c **** /*
 595:D:/fchai/work/i-cube/I-CUBE-HUAWEI/Middlewares/Third_Party/Huawei/iot_link/network/dtls/mbedtls/mbedtls-2.16.2/library\ecdsa.c ****  * Verify ECDSA signature of hashed message
 596:D:/fchai/work/i-cube/I-CUBE-HUAWEI/Middlewares/Third_Party/Huawei/iot_link/network/dtls/mbedtls/mbedtls-2.16.2/library\ecdsa.c ****  */
 597:D:/fchai/work/i-cube/I-CUBE-HUAWEI/Middlewares/Third_Party/Huawei/iot_link/network/dtls/mbedtls/mbedtls-2.16.2/library\ecdsa.c **** int mbedtls_ecdsa_verify( mbedtls_ecp_group *grp,
 598:D:/fchai/work/i-cube/I-CUBE-HUAWEI/Middlewares/Third_Party/Huawei/iot_link/network/dtls/mbedtls/mbedtls-2.16.2/library\ecdsa.c ****                           const unsigned char *buf, size_t blen,
 599:D:/fchai/work/i-cube/I-CUBE-HUAWEI/Middlewares/Third_Party/Huawei/iot_link/network/dtls/mbedtls/mbedtls-2.16.2/library\ecdsa.c ****                           const mbedtls_ecp_point *Q,
 600:D:/fchai/work/i-cube/I-CUBE-HUAWEI/Middlewares/Third_Party/Huawei/iot_link/network/dtls/mbedtls/mbedtls-2.16.2/library\ecdsa.c ****                           const mbedtls_mpi *r,
 601:D:/fchai/work/i-cube/I-CUBE-HUAWEI/Middlewares/Third_Party/Huawei/iot_link/network/dtls/mbedtls/mbedtls-2.16.2/library\ecdsa.c ****                           const mbedtls_mpi *s)
 602:D:/fchai/work/i-cube/I-CUBE-HUAWEI/Middlewares/Third_Party/Huawei/iot_link/network/dtls/mbedtls/mbedtls-2.16.2/library\ecdsa.c **** {
 972              		.loc 1 602 1 is_stmt 1 view -0
 973              		.cfi_startproc
 974              		@ args = 8, pretend = 0, frame = 0
 975              		@ frame_needed = 0, uses_anonymous_args = 0
 976              		@ link register save eliminated.
 603:D:/fchai/work/i-cube/I-CUBE-HUAWEI/Middlewares/Third_Party/Huawei/iot_link/network/dtls/mbedtls/mbedtls-2.16.2/library\ecdsa.c ****     ECDSA_VALIDATE_RET( grp != NULL );
 977              		.loc 1 603 5 view .LVU305
 978              		.loc 1 603 5 view .LVU306
 979              		.loc 1 603 5 view .LVU307
 604:D:/fchai/work/i-cube/I-CUBE-HUAWEI/Middlewares/Third_Party/Huawei/iot_link/network/dtls/mbedtls/mbedtls-2.16.2/library\ecdsa.c ****     ECDSA_VALIDATE_RET( Q   != NULL );
 980              		.loc 1 604 5 view .LVU308
 981              		.loc 1 604 5 view .LVU309
 982              		.loc 1 604 5 view .LVU310
 605:D:/fchai/work/i-cube/I-CUBE-HUAWEI/Middlewares/Third_Party/Huawei/iot_link/network/dtls/mbedtls/mbedtls-2.16.2/library\ecdsa.c ****     ECDSA_VALIDATE_RET( r   != NULL );
 983              		.loc 1 605 5 view .LVU311
 984              		.loc 1 605 5 view .LVU312
ARM GAS  T:\msys\tmp\ccyWqaJb.s 			page 32


 985              		.loc 1 605 5 view .LVU313
 606:D:/fchai/work/i-cube/I-CUBE-HUAWEI/Middlewares/Third_Party/Huawei/iot_link/network/dtls/mbedtls/mbedtls-2.16.2/library\ecdsa.c ****     ECDSA_VALIDATE_RET( s   != NULL );
 986              		.loc 1 606 5 view .LVU314
 987              		.loc 1 606 5 view .LVU315
 988              		.loc 1 606 5 view .LVU316
 607:D:/fchai/work/i-cube/I-CUBE-HUAWEI/Middlewares/Third_Party/Huawei/iot_link/network/dtls/mbedtls/mbedtls-2.16.2/library\ecdsa.c ****     ECDSA_VALIDATE_RET( buf != NULL || blen == 0 );
 989              		.loc 1 607 5 view .LVU317
 990              		.loc 1 607 5 view .LVU318
 991              		.loc 1 607 5 view .LVU319
 608:D:/fchai/work/i-cube/I-CUBE-HUAWEI/Middlewares/Third_Party/Huawei/iot_link/network/dtls/mbedtls/mbedtls-2.16.2/library\ecdsa.c **** 
 609:D:/fchai/work/i-cube/I-CUBE-HUAWEI/Middlewares/Third_Party/Huawei/iot_link/network/dtls/mbedtls/mbedtls-2.16.2/library\ecdsa.c ****     return( ecdsa_verify_restartable( grp, buf, blen, Q, r, s, NULL ) );
 992              		.loc 1 609 5 view .LVU320
 993              		.loc 1 609 13 is_stmt 0 view .LVU321
 994 0000 FFF7FEBF 		b	ecdsa_verify_restartable.isra.0
 995              	.LVL139:
 996              		.loc 1 609 13 view .LVU322
 997              		.cfi_endproc
 998              	.LFE7:
 1000              		.section	.text.mbedtls_ecdsa_write_signature_restartable,"ax",%progbits
 1001              		.align	1
 1002              		.p2align 2,,3
 1003              		.global	mbedtls_ecdsa_write_signature_restartable
 1004              		.syntax unified
 1005              		.thumb
 1006              		.thumb_func
 1007              		.fpu fpv4-sp-d16
 1009              	mbedtls_ecdsa_write_signature_restartable:
 1010              	.LVL140:
 1011              	.LFB9:
 610:D:/fchai/work/i-cube/I-CUBE-HUAWEI/Middlewares/Third_Party/Huawei/iot_link/network/dtls/mbedtls/mbedtls-2.16.2/library\ecdsa.c **** }
 611:D:/fchai/work/i-cube/I-CUBE-HUAWEI/Middlewares/Third_Party/Huawei/iot_link/network/dtls/mbedtls/mbedtls-2.16.2/library\ecdsa.c **** #endif /* !MBEDTLS_ECDSA_VERIFY_ALT */
 612:D:/fchai/work/i-cube/I-CUBE-HUAWEI/Middlewares/Third_Party/Huawei/iot_link/network/dtls/mbedtls/mbedtls-2.16.2/library\ecdsa.c **** 
 613:D:/fchai/work/i-cube/I-CUBE-HUAWEI/Middlewares/Third_Party/Huawei/iot_link/network/dtls/mbedtls/mbedtls-2.16.2/library\ecdsa.c **** /*
 614:D:/fchai/work/i-cube/I-CUBE-HUAWEI/Middlewares/Third_Party/Huawei/iot_link/network/dtls/mbedtls/mbedtls-2.16.2/library\ecdsa.c ****  * Convert a signature (given by context) to ASN.1
 615:D:/fchai/work/i-cube/I-CUBE-HUAWEI/Middlewares/Third_Party/Huawei/iot_link/network/dtls/mbedtls/mbedtls-2.16.2/library\ecdsa.c ****  */
 616:D:/fchai/work/i-cube/I-CUBE-HUAWEI/Middlewares/Third_Party/Huawei/iot_link/network/dtls/mbedtls/mbedtls-2.16.2/library\ecdsa.c **** static int ecdsa_signature_to_asn1( const mbedtls_mpi *r, const mbedtls_mpi *s,
 617:D:/fchai/work/i-cube/I-CUBE-HUAWEI/Middlewares/Third_Party/Huawei/iot_link/network/dtls/mbedtls/mbedtls-2.16.2/library\ecdsa.c ****                                     unsigned char *sig, size_t *slen )
 618:D:/fchai/work/i-cube/I-CUBE-HUAWEI/Middlewares/Third_Party/Huawei/iot_link/network/dtls/mbedtls/mbedtls-2.16.2/library\ecdsa.c **** {
 619:D:/fchai/work/i-cube/I-CUBE-HUAWEI/Middlewares/Third_Party/Huawei/iot_link/network/dtls/mbedtls/mbedtls-2.16.2/library\ecdsa.c ****     int ret;
 620:D:/fchai/work/i-cube/I-CUBE-HUAWEI/Middlewares/Third_Party/Huawei/iot_link/network/dtls/mbedtls/mbedtls-2.16.2/library\ecdsa.c ****     unsigned char buf[MBEDTLS_ECDSA_MAX_LEN];
 621:D:/fchai/work/i-cube/I-CUBE-HUAWEI/Middlewares/Third_Party/Huawei/iot_link/network/dtls/mbedtls/mbedtls-2.16.2/library\ecdsa.c ****     unsigned char *p = buf + sizeof( buf );
 622:D:/fchai/work/i-cube/I-CUBE-HUAWEI/Middlewares/Third_Party/Huawei/iot_link/network/dtls/mbedtls/mbedtls-2.16.2/library\ecdsa.c ****     size_t len = 0;
 623:D:/fchai/work/i-cube/I-CUBE-HUAWEI/Middlewares/Third_Party/Huawei/iot_link/network/dtls/mbedtls/mbedtls-2.16.2/library\ecdsa.c **** 
 624:D:/fchai/work/i-cube/I-CUBE-HUAWEI/Middlewares/Third_Party/Huawei/iot_link/network/dtls/mbedtls/mbedtls-2.16.2/library\ecdsa.c ****     MBEDTLS_ASN1_CHK_ADD( len, mbedtls_asn1_write_mpi( &p, buf, s ) );
 625:D:/fchai/work/i-cube/I-CUBE-HUAWEI/Middlewares/Third_Party/Huawei/iot_link/network/dtls/mbedtls/mbedtls-2.16.2/library\ecdsa.c ****     MBEDTLS_ASN1_CHK_ADD( len, mbedtls_asn1_write_mpi( &p, buf, r ) );
 626:D:/fchai/work/i-cube/I-CUBE-HUAWEI/Middlewares/Third_Party/Huawei/iot_link/network/dtls/mbedtls/mbedtls-2.16.2/library\ecdsa.c **** 
 627:D:/fchai/work/i-cube/I-CUBE-HUAWEI/Middlewares/Third_Party/Huawei/iot_link/network/dtls/mbedtls/mbedtls-2.16.2/library\ecdsa.c ****     MBEDTLS_ASN1_CHK_ADD( len, mbedtls_asn1_write_len( &p, buf, len ) );
 628:D:/fchai/work/i-cube/I-CUBE-HUAWEI/Middlewares/Third_Party/Huawei/iot_link/network/dtls/mbedtls/mbedtls-2.16.2/library\ecdsa.c ****     MBEDTLS_ASN1_CHK_ADD( len, mbedtls_asn1_write_tag( &p, buf,
 629:D:/fchai/work/i-cube/I-CUBE-HUAWEI/Middlewares/Third_Party/Huawei/iot_link/network/dtls/mbedtls/mbedtls-2.16.2/library\ecdsa.c ****                                        MBEDTLS_ASN1_CONSTRUCTED | MBEDTLS_ASN1_SEQUENCE ) );
 630:D:/fchai/work/i-cube/I-CUBE-HUAWEI/Middlewares/Third_Party/Huawei/iot_link/network/dtls/mbedtls/mbedtls-2.16.2/library\ecdsa.c **** 
 631:D:/fchai/work/i-cube/I-CUBE-HUAWEI/Middlewares/Third_Party/Huawei/iot_link/network/dtls/mbedtls/mbedtls-2.16.2/library\ecdsa.c ****     memcpy( sig, p, len );
 632:D:/fchai/work/i-cube/I-CUBE-HUAWEI/Middlewares/Third_Party/Huawei/iot_link/network/dtls/mbedtls/mbedtls-2.16.2/library\ecdsa.c ****     *slen = len;
 633:D:/fchai/work/i-cube/I-CUBE-HUAWEI/Middlewares/Third_Party/Huawei/iot_link/network/dtls/mbedtls/mbedtls-2.16.2/library\ecdsa.c **** 
 634:D:/fchai/work/i-cube/I-CUBE-HUAWEI/Middlewares/Third_Party/Huawei/iot_link/network/dtls/mbedtls/mbedtls-2.16.2/library\ecdsa.c ****     return( 0 );
 635:D:/fchai/work/i-cube/I-CUBE-HUAWEI/Middlewares/Third_Party/Huawei/iot_link/network/dtls/mbedtls/mbedtls-2.16.2/library\ecdsa.c **** }
 636:D:/fchai/work/i-cube/I-CUBE-HUAWEI/Middlewares/Third_Party/Huawei/iot_link/network/dtls/mbedtls/mbedtls-2.16.2/library\ecdsa.c **** 
 637:D:/fchai/work/i-cube/I-CUBE-HUAWEI/Middlewares/Third_Party/Huawei/iot_link/network/dtls/mbedtls/mbedtls-2.16.2/library\ecdsa.c **** /*
ARM GAS  T:\msys\tmp\ccyWqaJb.s 			page 33


 638:D:/fchai/work/i-cube/I-CUBE-HUAWEI/Middlewares/Third_Party/Huawei/iot_link/network/dtls/mbedtls/mbedtls-2.16.2/library\ecdsa.c ****  * Compute and write signature
 639:D:/fchai/work/i-cube/I-CUBE-HUAWEI/Middlewares/Third_Party/Huawei/iot_link/network/dtls/mbedtls/mbedtls-2.16.2/library\ecdsa.c ****  */
 640:D:/fchai/work/i-cube/I-CUBE-HUAWEI/Middlewares/Third_Party/Huawei/iot_link/network/dtls/mbedtls/mbedtls-2.16.2/library\ecdsa.c **** int mbedtls_ecdsa_write_signature_restartable( mbedtls_ecdsa_context *ctx,
 641:D:/fchai/work/i-cube/I-CUBE-HUAWEI/Middlewares/Third_Party/Huawei/iot_link/network/dtls/mbedtls/mbedtls-2.16.2/library\ecdsa.c ****                            mbedtls_md_type_t md_alg,
 642:D:/fchai/work/i-cube/I-CUBE-HUAWEI/Middlewares/Third_Party/Huawei/iot_link/network/dtls/mbedtls/mbedtls-2.16.2/library\ecdsa.c ****                            const unsigned char *hash, size_t hlen,
 643:D:/fchai/work/i-cube/I-CUBE-HUAWEI/Middlewares/Third_Party/Huawei/iot_link/network/dtls/mbedtls/mbedtls-2.16.2/library\ecdsa.c ****                            unsigned char *sig, size_t *slen,
 644:D:/fchai/work/i-cube/I-CUBE-HUAWEI/Middlewares/Third_Party/Huawei/iot_link/network/dtls/mbedtls/mbedtls-2.16.2/library\ecdsa.c ****                            int (*f_rng)(void *, unsigned char *, size_t),
 645:D:/fchai/work/i-cube/I-CUBE-HUAWEI/Middlewares/Third_Party/Huawei/iot_link/network/dtls/mbedtls/mbedtls-2.16.2/library\ecdsa.c ****                            void *p_rng,
 646:D:/fchai/work/i-cube/I-CUBE-HUAWEI/Middlewares/Third_Party/Huawei/iot_link/network/dtls/mbedtls/mbedtls-2.16.2/library\ecdsa.c ****                            mbedtls_ecdsa_restart_ctx *rs_ctx )
 647:D:/fchai/work/i-cube/I-CUBE-HUAWEI/Middlewares/Third_Party/Huawei/iot_link/network/dtls/mbedtls/mbedtls-2.16.2/library\ecdsa.c **** {
 1012              		.loc 1 647 1 is_stmt 1 view -0
 1013              		.cfi_startproc
 1014              		@ args = 20, pretend = 0, frame = 176
 1015              		@ frame_needed = 0, uses_anonymous_args = 0
 648:D:/fchai/work/i-cube/I-CUBE-HUAWEI/Middlewares/Third_Party/Huawei/iot_link/network/dtls/mbedtls/mbedtls-2.16.2/library\ecdsa.c ****     int ret;
 1016              		.loc 1 648 5 view .LVU324
 649:D:/fchai/work/i-cube/I-CUBE-HUAWEI/Middlewares/Third_Party/Huawei/iot_link/network/dtls/mbedtls/mbedtls-2.16.2/library\ecdsa.c ****     mbedtls_mpi r, s;
 1017              		.loc 1 649 5 view .LVU325
 650:D:/fchai/work/i-cube/I-CUBE-HUAWEI/Middlewares/Third_Party/Huawei/iot_link/network/dtls/mbedtls/mbedtls-2.16.2/library\ecdsa.c ****     ECDSA_VALIDATE_RET( ctx  != NULL );
 1018              		.loc 1 650 5 view .LVU326
 1019              		.loc 1 650 5 view .LVU327
 1020              		.loc 1 650 5 view .LVU328
 651:D:/fchai/work/i-cube/I-CUBE-HUAWEI/Middlewares/Third_Party/Huawei/iot_link/network/dtls/mbedtls/mbedtls-2.16.2/library\ecdsa.c ****     ECDSA_VALIDATE_RET( hash != NULL );
 1021              		.loc 1 651 5 view .LVU329
 1022              		.loc 1 651 5 view .LVU330
 1023              		.loc 1 651 5 view .LVU331
 652:D:/fchai/work/i-cube/I-CUBE-HUAWEI/Middlewares/Third_Party/Huawei/iot_link/network/dtls/mbedtls/mbedtls-2.16.2/library\ecdsa.c ****     ECDSA_VALIDATE_RET( sig  != NULL );
 1024              		.loc 1 652 5 view .LVU332
 1025              		.loc 1 652 5 view .LVU333
 1026              		.loc 1 652 5 view .LVU334
 653:D:/fchai/work/i-cube/I-CUBE-HUAWEI/Middlewares/Third_Party/Huawei/iot_link/network/dtls/mbedtls/mbedtls-2.16.2/library\ecdsa.c ****     ECDSA_VALIDATE_RET( slen != NULL );
 1027              		.loc 1 653 5 view .LVU335
 1028              		.loc 1 653 5 view .LVU336
 1029              		.loc 1 653 5 view .LVU337
 654:D:/fchai/work/i-cube/I-CUBE-HUAWEI/Middlewares/Third_Party/Huawei/iot_link/network/dtls/mbedtls/mbedtls-2.16.2/library\ecdsa.c **** 
 655:D:/fchai/work/i-cube/I-CUBE-HUAWEI/Middlewares/Third_Party/Huawei/iot_link/network/dtls/mbedtls/mbedtls-2.16.2/library\ecdsa.c ****     mbedtls_mpi_init( &r );
 1030              		.loc 1 655 5 view .LVU338
 647:D:/fchai/work/i-cube/I-CUBE-HUAWEI/Middlewares/Third_Party/Huawei/iot_link/network/dtls/mbedtls/mbedtls-2.16.2/library\ecdsa.c ****     int ret;
 1031              		.loc 1 647 1 is_stmt 0 view .LVU339
 1032 0000 F0B5     		push	{r4, r5, r6, r7, lr}
 1033              	.LCFI13:
 1034              		.cfi_def_cfa_offset 20
 1035              		.cfi_offset 4, -20
 1036              		.cfi_offset 5, -16
 1037              		.cfi_offset 6, -12
 1038              		.cfi_offset 7, -8
 1039              		.cfi_offset 14, -4
 1040 0002 B1B0     		sub	sp, sp, #196
 1041              	.LCFI14:
 1042              		.cfi_def_cfa_offset 216
 647:D:/fchai/work/i-cube/I-CUBE-HUAWEI/Middlewares/Third_Party/Huawei/iot_link/network/dtls/mbedtls/mbedtls-2.16.2/library\ecdsa.c ****     int ret;
 1043              		.loc 1 647 1 view .LVU340
 1044 0004 0446     		mov	r4, r0
 1045              		.loc 1 655 5 view .LVU341
 1046 0006 06A8     		add	r0, sp, #24
 1047              	.LVL141:
 647:D:/fchai/work/i-cube/I-CUBE-HUAWEI/Middlewares/Third_Party/Huawei/iot_link/network/dtls/mbedtls/mbedtls-2.16.2/library\ecdsa.c ****     int ret;
ARM GAS  T:\msys\tmp\ccyWqaJb.s 			page 34


 1048              		.loc 1 647 1 view .LVU342
 1049 0008 1546     		mov	r5, r2
 1050 000a 1E46     		mov	r6, r3
 1051 000c 399F     		ldr	r7, [sp, #228]
 1052              		.loc 1 655 5 view .LVU343
 1053 000e FFF7FEFF 		bl	mbedtls_mpi_init
 1054              	.LVL142:
 656:D:/fchai/work/i-cube/I-CUBE-HUAWEI/Middlewares/Third_Party/Huawei/iot_link/network/dtls/mbedtls/mbedtls-2.16.2/library\ecdsa.c ****     mbedtls_mpi_init( &s );
 1055              		.loc 1 656 5 is_stmt 1 view .LVU344
 1056 0012 09A8     		add	r0, sp, #36
 1057 0014 FFF7FEFF 		bl	mbedtls_mpi_init
 1058              	.LVL143:
 657:D:/fchai/work/i-cube/I-CUBE-HUAWEI/Middlewares/Third_Party/Huawei/iot_link/network/dtls/mbedtls/mbedtls-2.16.2/library\ecdsa.c **** 
 658:D:/fchai/work/i-cube/I-CUBE-HUAWEI/Middlewares/Third_Party/Huawei/iot_link/network/dtls/mbedtls/mbedtls-2.16.2/library\ecdsa.c **** #if defined(MBEDTLS_ECDSA_DETERMINISTIC)
 659:D:/fchai/work/i-cube/I-CUBE-HUAWEI/Middlewares/Third_Party/Huawei/iot_link/network/dtls/mbedtls/mbedtls-2.16.2/library\ecdsa.c ****     (void) f_rng;
 660:D:/fchai/work/i-cube/I-CUBE-HUAWEI/Middlewares/Third_Party/Huawei/iot_link/network/dtls/mbedtls/mbedtls-2.16.2/library\ecdsa.c ****     (void) p_rng;
 661:D:/fchai/work/i-cube/I-CUBE-HUAWEI/Middlewares/Third_Party/Huawei/iot_link/network/dtls/mbedtls/mbedtls-2.16.2/library\ecdsa.c **** 
 662:D:/fchai/work/i-cube/I-CUBE-HUAWEI/Middlewares/Third_Party/Huawei/iot_link/network/dtls/mbedtls/mbedtls-2.16.2/library\ecdsa.c ****     MBEDTLS_MPI_CHK( ecdsa_sign_det_restartable( &ctx->grp, &r, &s, &ctx->d,
 663:D:/fchai/work/i-cube/I-CUBE-HUAWEI/Middlewares/Third_Party/Huawei/iot_link/network/dtls/mbedtls/mbedtls-2.16.2/library\ecdsa.c ****                              hash, hlen, md_alg, rs_ctx ) );
 664:D:/fchai/work/i-cube/I-CUBE-HUAWEI/Middlewares/Third_Party/Huawei/iot_link/network/dtls/mbedtls/mbedtls-2.16.2/library\ecdsa.c **** #else
 665:D:/fchai/work/i-cube/I-CUBE-HUAWEI/Middlewares/Third_Party/Huawei/iot_link/network/dtls/mbedtls/mbedtls-2.16.2/library\ecdsa.c ****     (void) md_alg;
 1059              		.loc 1 665 5 view .LVU345
 666:D:/fchai/work/i-cube/I-CUBE-HUAWEI/Middlewares/Third_Party/Huawei/iot_link/network/dtls/mbedtls/mbedtls-2.16.2/library\ecdsa.c **** 
 667:D:/fchai/work/i-cube/I-CUBE-HUAWEI/Middlewares/Third_Party/Huawei/iot_link/network/dtls/mbedtls/mbedtls-2.16.2/library\ecdsa.c **** #if defined(MBEDTLS_ECDSA_SIGN_ALT)
 668:D:/fchai/work/i-cube/I-CUBE-HUAWEI/Middlewares/Third_Party/Huawei/iot_link/network/dtls/mbedtls/mbedtls-2.16.2/library\ecdsa.c ****     MBEDTLS_MPI_CHK( mbedtls_ecdsa_sign( &ctx->grp, &r, &s, &ctx->d,
 669:D:/fchai/work/i-cube/I-CUBE-HUAWEI/Middlewares/Third_Party/Huawei/iot_link/network/dtls/mbedtls/mbedtls-2.16.2/library\ecdsa.c ****                          hash, hlen, f_rng, p_rng ) );
 670:D:/fchai/work/i-cube/I-CUBE-HUAWEI/Middlewares/Third_Party/Huawei/iot_link/network/dtls/mbedtls/mbedtls-2.16.2/library\ecdsa.c **** #else
 671:D:/fchai/work/i-cube/I-CUBE-HUAWEI/Middlewares/Third_Party/Huawei/iot_link/network/dtls/mbedtls/mbedtls-2.16.2/library\ecdsa.c ****     MBEDTLS_MPI_CHK( ecdsa_sign_restartable( &ctx->grp, &r, &s, &ctx->d,
 1060              		.loc 1 671 5 view .LVU346
 1061              		.loc 1 671 5 view .LVU347
 1062 0018 389B     		ldr	r3, [sp, #224]
 1063 001a 0293     		str	r3, [sp, #8]
 1064 001c 2046     		mov	r0, r4
 1065 001e 04F17C03 		add	r3, r4, #124
 1066 0022 CDE90056 		strd	r5, r6, [sp]
 1067 0026 0397     		str	r7, [sp, #12]
 1068 0028 09AA     		add	r2, sp, #36
 1069 002a 06A9     		add	r1, sp, #24
 1070 002c FFF7FEFF 		bl	ecdsa_sign_restartable.isra.0
 1071              	.LVL144:
 1072              		.loc 1 671 5 is_stmt 0 view .LVU348
 1073 0030 0446     		mov	r4, r0
 1074              	.LVL145:
 1075              		.loc 1 671 5 view .LVU349
 1076 0032 40B1     		cbz	r0, .L61
 1077              	.LVL146:
 1078              	.L54:
 672:D:/fchai/work/i-cube/I-CUBE-HUAWEI/Middlewares/Third_Party/Huawei/iot_link/network/dtls/mbedtls/mbedtls-2.16.2/library\ecdsa.c ****                          hash, hlen, f_rng, p_rng, rs_ctx ) );
 673:D:/fchai/work/i-cube/I-CUBE-HUAWEI/Middlewares/Third_Party/Huawei/iot_link/network/dtls/mbedtls/mbedtls-2.16.2/library\ecdsa.c **** #endif /* MBEDTLS_ECDSA_SIGN_ALT */
 674:D:/fchai/work/i-cube/I-CUBE-HUAWEI/Middlewares/Third_Party/Huawei/iot_link/network/dtls/mbedtls/mbedtls-2.16.2/library\ecdsa.c **** #endif /* MBEDTLS_ECDSA_DETERMINISTIC */
 675:D:/fchai/work/i-cube/I-CUBE-HUAWEI/Middlewares/Third_Party/Huawei/iot_link/network/dtls/mbedtls/mbedtls-2.16.2/library\ecdsa.c **** 
 676:D:/fchai/work/i-cube/I-CUBE-HUAWEI/Middlewares/Third_Party/Huawei/iot_link/network/dtls/mbedtls/mbedtls-2.16.2/library\ecdsa.c ****     MBEDTLS_MPI_CHK( ecdsa_signature_to_asn1( &r, &s, sig, slen ) );
 1079              		.loc 1 676 5 is_stmt 1 discriminator 3 view .LVU350
 677:D:/fchai/work/i-cube/I-CUBE-HUAWEI/Middlewares/Third_Party/Huawei/iot_link/network/dtls/mbedtls/mbedtls-2.16.2/library\ecdsa.c **** 
 678:D:/fchai/work/i-cube/I-CUBE-HUAWEI/Middlewares/Third_Party/Huawei/iot_link/network/dtls/mbedtls/mbedtls-2.16.2/library\ecdsa.c **** cleanup:
 679:D:/fchai/work/i-cube/I-CUBE-HUAWEI/Middlewares/Third_Party/Huawei/iot_link/network/dtls/mbedtls/mbedtls-2.16.2/library\ecdsa.c ****     mbedtls_mpi_free( &r );
 1080              		.loc 1 679 5 discriminator 3 view .LVU351
ARM GAS  T:\msys\tmp\ccyWqaJb.s 			page 35


 1081 0034 06A8     		add	r0, sp, #24
 1082 0036 FFF7FEFF 		bl	mbedtls_mpi_free
 1083              	.LVL147:
 680:D:/fchai/work/i-cube/I-CUBE-HUAWEI/Middlewares/Third_Party/Huawei/iot_link/network/dtls/mbedtls/mbedtls-2.16.2/library\ecdsa.c ****     mbedtls_mpi_free( &s );
 1084              		.loc 1 680 5 discriminator 3 view .LVU352
 1085 003a 09A8     		add	r0, sp, #36
 1086 003c FFF7FEFF 		bl	mbedtls_mpi_free
 1087              	.LVL148:
 681:D:/fchai/work/i-cube/I-CUBE-HUAWEI/Middlewares/Third_Party/Huawei/iot_link/network/dtls/mbedtls/mbedtls-2.16.2/library\ecdsa.c **** 
 682:D:/fchai/work/i-cube/I-CUBE-HUAWEI/Middlewares/Third_Party/Huawei/iot_link/network/dtls/mbedtls/mbedtls-2.16.2/library\ecdsa.c ****     return( ret );
 1088              		.loc 1 682 5 discriminator 3 view .LVU353
 683:D:/fchai/work/i-cube/I-CUBE-HUAWEI/Middlewares/Third_Party/Huawei/iot_link/network/dtls/mbedtls/mbedtls-2.16.2/library\ecdsa.c **** }
 1089              		.loc 1 683 1 is_stmt 0 discriminator 3 view .LVU354
 1090 0040 2046     		mov	r0, r4
 1091 0042 31B0     		add	sp, sp, #196
 1092              	.LCFI15:
 1093              		.cfi_remember_state
 1094              		.cfi_def_cfa_offset 20
 1095              		@ sp needed
 1096 0044 F0BD     		pop	{r4, r5, r6, r7, pc}
 1097              	.LVL149:
 1098              	.L61:
 1099              	.LCFI16:
 1100              		.cfi_restore_state
 671:D:/fchai/work/i-cube/I-CUBE-HUAWEI/Middlewares/Third_Party/Huawei/iot_link/network/dtls/mbedtls/mbedtls-2.16.2/library\ecdsa.c ****                          hash, hlen, f_rng, p_rng, rs_ctx ) );
 1101              		.loc 1 671 5 is_stmt 1 view .LVU355
 676:D:/fchai/work/i-cube/I-CUBE-HUAWEI/Middlewares/Third_Party/Huawei/iot_link/network/dtls/mbedtls/mbedtls-2.16.2/library\ecdsa.c **** 
 1102              		.loc 1 676 5 view .LVU356
 676:D:/fchai/work/i-cube/I-CUBE-HUAWEI/Middlewares/Third_Party/Huawei/iot_link/network/dtls/mbedtls/mbedtls-2.16.2/library\ecdsa.c **** 
 1103              		.loc 1 676 5 view .LVU357
 1104              	.LBB6:
 1105              	.LBI6:
 616:D:/fchai/work/i-cube/I-CUBE-HUAWEI/Middlewares/Third_Party/Huawei/iot_link/network/dtls/mbedtls/mbedtls-2.16.2/library\ecdsa.c ****                                     unsigned char *sig, size_t *slen )
 1106              		.loc 1 616 12 view .LVU358
 1107              	.LBB7:
 619:D:/fchai/work/i-cube/I-CUBE-HUAWEI/Middlewares/Third_Party/Huawei/iot_link/network/dtls/mbedtls/mbedtls-2.16.2/library\ecdsa.c ****     unsigned char buf[MBEDTLS_ECDSA_MAX_LEN];
 1108              		.loc 1 619 5 view .LVU359
 620:D:/fchai/work/i-cube/I-CUBE-HUAWEI/Middlewares/Third_Party/Huawei/iot_link/network/dtls/mbedtls/mbedtls-2.16.2/library\ecdsa.c ****     unsigned char *p = buf + sizeof( buf );
 1109              		.loc 1 620 5 view .LVU360
 621:D:/fchai/work/i-cube/I-CUBE-HUAWEI/Middlewares/Third_Party/Huawei/iot_link/network/dtls/mbedtls/mbedtls-2.16.2/library\ecdsa.c ****     size_t len = 0;
 1110              		.loc 1 621 5 view .LVU361
 621:D:/fchai/work/i-cube/I-CUBE-HUAWEI/Middlewares/Third_Party/Huawei/iot_link/network/dtls/mbedtls/mbedtls-2.16.2/library\ecdsa.c ****     size_t len = 0;
 1111              		.loc 1 621 20 is_stmt 0 view .LVU362
 1112 0046 0DF1BD03 		add	r3, sp, #189
 624:D:/fchai/work/i-cube/I-CUBE-HUAWEI/Middlewares/Third_Party/Huawei/iot_link/network/dtls/mbedtls/mbedtls-2.16.2/library\ecdsa.c ****     MBEDTLS_ASN1_CHK_ADD( len, mbedtls_asn1_write_mpi( &p, buf, r ) );
 1113              		.loc 1 624 5 view .LVU363
 1114 004a 0CA9     		add	r1, sp, #48
 1115 004c 05A8     		add	r0, sp, #20
 1116              	.LVL150:
 624:D:/fchai/work/i-cube/I-CUBE-HUAWEI/Middlewares/Third_Party/Huawei/iot_link/network/dtls/mbedtls/mbedtls-2.16.2/library\ecdsa.c ****     MBEDTLS_ASN1_CHK_ADD( len, mbedtls_asn1_write_mpi( &p, buf, r ) );
 1117              		.loc 1 624 5 view .LVU364
 1118 004e 09AA     		add	r2, sp, #36
 1119              	.LVL151:
 621:D:/fchai/work/i-cube/I-CUBE-HUAWEI/Middlewares/Third_Party/Huawei/iot_link/network/dtls/mbedtls/mbedtls-2.16.2/library\ecdsa.c ****     size_t len = 0;
 1120              		.loc 1 621 20 view .LVU365
 1121 0050 0593     		str	r3, [sp, #20]
 622:D:/fchai/work/i-cube/I-CUBE-HUAWEI/Middlewares/Third_Party/Huawei/iot_link/network/dtls/mbedtls/mbedtls-2.16.2/library\ecdsa.c **** 
ARM GAS  T:\msys\tmp\ccyWqaJb.s 			page 36


 1122              		.loc 1 622 5 is_stmt 1 view .LVU366
 1123              	.LVL152:
 624:D:/fchai/work/i-cube/I-CUBE-HUAWEI/Middlewares/Third_Party/Huawei/iot_link/network/dtls/mbedtls/mbedtls-2.16.2/library\ecdsa.c ****     MBEDTLS_ASN1_CHK_ADD( len, mbedtls_asn1_write_mpi( &p, buf, r ) );
 1124              		.loc 1 624 5 view .LVU367
 624:D:/fchai/work/i-cube/I-CUBE-HUAWEI/Middlewares/Third_Party/Huawei/iot_link/network/dtls/mbedtls/mbedtls-2.16.2/library\ecdsa.c ****     MBEDTLS_ASN1_CHK_ADD( len, mbedtls_asn1_write_mpi( &p, buf, r ) );
 1125              		.loc 1 624 5 view .LVU368
 1126 0052 FFF7FEFF 		bl	mbedtls_asn1_write_mpi
 1127              	.LVL153:
 624:D:/fchai/work/i-cube/I-CUBE-HUAWEI/Middlewares/Third_Party/Huawei/iot_link/network/dtls/mbedtls/mbedtls-2.16.2/library\ecdsa.c ****     MBEDTLS_ASN1_CHK_ADD( len, mbedtls_asn1_write_mpi( &p, buf, r ) );
 1128              		.loc 1 624 5 is_stmt 0 view .LVU369
 1129 0056 051E     		subs	r5, r0, #0
 1130              	.LVL154:
 624:D:/fchai/work/i-cube/I-CUBE-HUAWEI/Middlewares/Third_Party/Huawei/iot_link/network/dtls/mbedtls/mbedtls-2.16.2/library\ecdsa.c ****     MBEDTLS_ASN1_CHK_ADD( len, mbedtls_asn1_write_mpi( &p, buf, r ) );
 1131              		.loc 1 624 5 view .LVU370
 1132 0058 1FDB     		blt	.L56
 624:D:/fchai/work/i-cube/I-CUBE-HUAWEI/Middlewares/Third_Party/Huawei/iot_link/network/dtls/mbedtls/mbedtls-2.16.2/library\ecdsa.c ****     MBEDTLS_ASN1_CHK_ADD( len, mbedtls_asn1_write_mpi( &p, buf, r ) );
 1133              		.loc 1 624 5 is_stmt 1 view .LVU371
 1134              	.LVL155:
 624:D:/fchai/work/i-cube/I-CUBE-HUAWEI/Middlewares/Third_Party/Huawei/iot_link/network/dtls/mbedtls/mbedtls-2.16.2/library\ecdsa.c ****     MBEDTLS_ASN1_CHK_ADD( len, mbedtls_asn1_write_mpi( &p, buf, r ) );
 1135              		.loc 1 624 5 view .LVU372
 625:D:/fchai/work/i-cube/I-CUBE-HUAWEI/Middlewares/Third_Party/Huawei/iot_link/network/dtls/mbedtls/mbedtls-2.16.2/library\ecdsa.c **** 
 1136              		.loc 1 625 5 view .LVU373
 625:D:/fchai/work/i-cube/I-CUBE-HUAWEI/Middlewares/Third_Party/Huawei/iot_link/network/dtls/mbedtls/mbedtls-2.16.2/library\ecdsa.c **** 
 1137              		.loc 1 625 5 view .LVU374
 1138 005a 06AA     		add	r2, sp, #24
 1139              	.LVL156:
 625:D:/fchai/work/i-cube/I-CUBE-HUAWEI/Middlewares/Third_Party/Huawei/iot_link/network/dtls/mbedtls/mbedtls-2.16.2/library\ecdsa.c **** 
 1140              		.loc 1 625 5 is_stmt 0 view .LVU375
 1141 005c 0CA9     		add	r1, sp, #48
 1142 005e 05A8     		add	r0, sp, #20
 1143              	.LVL157:
 625:D:/fchai/work/i-cube/I-CUBE-HUAWEI/Middlewares/Third_Party/Huawei/iot_link/network/dtls/mbedtls/mbedtls-2.16.2/library\ecdsa.c **** 
 1144              		.loc 1 625 5 view .LVU376
 1145 0060 FFF7FEFF 		bl	mbedtls_asn1_write_mpi
 1146              	.LVL158:
 625:D:/fchai/work/i-cube/I-CUBE-HUAWEI/Middlewares/Third_Party/Huawei/iot_link/network/dtls/mbedtls/mbedtls-2.16.2/library\ecdsa.c **** 
 1147              		.loc 1 625 5 view .LVU377
 1148 0064 0028     		cmp	r0, #0
 625:D:/fchai/work/i-cube/I-CUBE-HUAWEI/Middlewares/Third_Party/Huawei/iot_link/network/dtls/mbedtls/mbedtls-2.16.2/library\ecdsa.c **** 
 1149              		.loc 1 625 5 view .LVU378
 1150 0066 1ADB     		blt	.L59
 625:D:/fchai/work/i-cube/I-CUBE-HUAWEI/Middlewares/Third_Party/Huawei/iot_link/network/dtls/mbedtls/mbedtls-2.16.2/library\ecdsa.c **** 
 1151              		.loc 1 625 5 is_stmt 1 view .LVU379
 1152 0068 0544     		add	r5, r5, r0
 1153              	.LVL159:
 625:D:/fchai/work/i-cube/I-CUBE-HUAWEI/Middlewares/Third_Party/Huawei/iot_link/network/dtls/mbedtls/mbedtls-2.16.2/library\ecdsa.c **** 
 1154              		.loc 1 625 5 view .LVU380
 627:D:/fchai/work/i-cube/I-CUBE-HUAWEI/Middlewares/Third_Party/Huawei/iot_link/network/dtls/mbedtls/mbedtls-2.16.2/library\ecdsa.c ****     MBEDTLS_ASN1_CHK_ADD( len, mbedtls_asn1_write_tag( &p, buf,
 1155              		.loc 1 627 5 view .LVU381
 627:D:/fchai/work/i-cube/I-CUBE-HUAWEI/Middlewares/Third_Party/Huawei/iot_link/network/dtls/mbedtls/mbedtls-2.16.2/library\ecdsa.c ****     MBEDTLS_ASN1_CHK_ADD( len, mbedtls_asn1_write_tag( &p, buf,
 1156              		.loc 1 627 5 view .LVU382
 1157 006a 2A46     		mov	r2, r5
 1158 006c 0CA9     		add	r1, sp, #48
 1159 006e 05A8     		add	r0, sp, #20
 1160              	.LVL160:
 627:D:/fchai/work/i-cube/I-CUBE-HUAWEI/Middlewares/Third_Party/Huawei/iot_link/network/dtls/mbedtls/mbedtls-2.16.2/library\ecdsa.c ****     MBEDTLS_ASN1_CHK_ADD( len, mbedtls_asn1_write_tag( &p, buf,
 1161              		.loc 1 627 5 is_stmt 0 view .LVU383
ARM GAS  T:\msys\tmp\ccyWqaJb.s 			page 37


 1162 0070 FFF7FEFF 		bl	mbedtls_asn1_write_len
 1163              	.LVL161:
 627:D:/fchai/work/i-cube/I-CUBE-HUAWEI/Middlewares/Third_Party/Huawei/iot_link/network/dtls/mbedtls/mbedtls-2.16.2/library\ecdsa.c ****     MBEDTLS_ASN1_CHK_ADD( len, mbedtls_asn1_write_tag( &p, buf,
 1164              		.loc 1 627 5 view .LVU384
 1165 0074 061E     		subs	r6, r0, #0
 1166              	.LVL162:
 627:D:/fchai/work/i-cube/I-CUBE-HUAWEI/Middlewares/Third_Party/Huawei/iot_link/network/dtls/mbedtls/mbedtls-2.16.2/library\ecdsa.c ****     MBEDTLS_ASN1_CHK_ADD( len, mbedtls_asn1_write_tag( &p, buf,
 1167              		.loc 1 627 5 view .LVU385
 1168 0076 14DB     		blt	.L58
 627:D:/fchai/work/i-cube/I-CUBE-HUAWEI/Middlewares/Third_Party/Huawei/iot_link/network/dtls/mbedtls/mbedtls-2.16.2/library\ecdsa.c ****     MBEDTLS_ASN1_CHK_ADD( len, mbedtls_asn1_write_tag( &p, buf,
 1169              		.loc 1 627 5 is_stmt 1 view .LVU386
 1170              	.LVL163:
 627:D:/fchai/work/i-cube/I-CUBE-HUAWEI/Middlewares/Third_Party/Huawei/iot_link/network/dtls/mbedtls/mbedtls-2.16.2/library\ecdsa.c ****     MBEDTLS_ASN1_CHK_ADD( len, mbedtls_asn1_write_tag( &p, buf,
 1171              		.loc 1 627 5 view .LVU387
 628:D:/fchai/work/i-cube/I-CUBE-HUAWEI/Middlewares/Third_Party/Huawei/iot_link/network/dtls/mbedtls/mbedtls-2.16.2/library\ecdsa.c ****                                        MBEDTLS_ASN1_CONSTRUCTED | MBEDTLS_ASN1_SEQUENCE ) );
 1172              		.loc 1 628 5 view .LVU388
 628:D:/fchai/work/i-cube/I-CUBE-HUAWEI/Middlewares/Third_Party/Huawei/iot_link/network/dtls/mbedtls/mbedtls-2.16.2/library\ecdsa.c ****                                        MBEDTLS_ASN1_CONSTRUCTED | MBEDTLS_ASN1_SEQUENCE ) );
 1173              		.loc 1 628 5 view .LVU389
 1174 0078 0CA9     		add	r1, sp, #48
 1175 007a 05A8     		add	r0, sp, #20
 1176              	.LVL164:
 628:D:/fchai/work/i-cube/I-CUBE-HUAWEI/Middlewares/Third_Party/Huawei/iot_link/network/dtls/mbedtls/mbedtls-2.16.2/library\ecdsa.c ****                                        MBEDTLS_ASN1_CONSTRUCTED | MBEDTLS_ASN1_SEQUENCE ) );
 1177              		.loc 1 628 5 is_stmt 0 view .LVU390
 1178 007c 3022     		movs	r2, #48
 1179 007e FFF7FEFF 		bl	mbedtls_asn1_write_tag
 1180              	.LVL165:
 628:D:/fchai/work/i-cube/I-CUBE-HUAWEI/Middlewares/Third_Party/Huawei/iot_link/network/dtls/mbedtls/mbedtls-2.16.2/library\ecdsa.c ****                                        MBEDTLS_ASN1_CONSTRUCTED | MBEDTLS_ASN1_SEQUENCE ) );
 1181              		.loc 1 628 5 view .LVU391
 1182 0082 0028     		cmp	r0, #0
 628:D:/fchai/work/i-cube/I-CUBE-HUAWEI/Middlewares/Third_Party/Huawei/iot_link/network/dtls/mbedtls/mbedtls-2.16.2/library\ecdsa.c ****                                        MBEDTLS_ASN1_CONSTRUCTED | MBEDTLS_ASN1_SEQUENCE ) );
 1183              		.loc 1 628 5 view .LVU392
 1184 0084 0BDB     		blt	.L59
 628:D:/fchai/work/i-cube/I-CUBE-HUAWEI/Middlewares/Third_Party/Huawei/iot_link/network/dtls/mbedtls/mbedtls-2.16.2/library\ecdsa.c ****                                        MBEDTLS_ASN1_CONSTRUCTED | MBEDTLS_ASN1_SEQUENCE ) );
 1185              		.loc 1 628 5 is_stmt 1 view .LVU393
 627:D:/fchai/work/i-cube/I-CUBE-HUAWEI/Middlewares/Third_Party/Huawei/iot_link/network/dtls/mbedtls/mbedtls-2.16.2/library\ecdsa.c ****     MBEDTLS_ASN1_CHK_ADD( len, mbedtls_asn1_write_tag( &p, buf,
 1186              		.loc 1 627 5 is_stmt 0 view .LVU394
 1187 0086 3544     		add	r5, r5, r6
 1188              	.LVL166:
 628:D:/fchai/work/i-cube/I-CUBE-HUAWEI/Middlewares/Third_Party/Huawei/iot_link/network/dtls/mbedtls/mbedtls-2.16.2/library\ecdsa.c ****                                        MBEDTLS_ASN1_CONSTRUCTED | MBEDTLS_ASN1_SEQUENCE ) );
 1189              		.loc 1 628 5 view .LVU395
 1190 0088 0544     		add	r5, r5, r0
 1191              	.LVL167:
 628:D:/fchai/work/i-cube/I-CUBE-HUAWEI/Middlewares/Third_Party/Huawei/iot_link/network/dtls/mbedtls/mbedtls-2.16.2/library\ecdsa.c ****                                        MBEDTLS_ASN1_CONSTRUCTED | MBEDTLS_ASN1_SEQUENCE ) );
 1192              		.loc 1 628 5 is_stmt 1 view .LVU396
 631:D:/fchai/work/i-cube/I-CUBE-HUAWEI/Middlewares/Third_Party/Huawei/iot_link/network/dtls/mbedtls/mbedtls-2.16.2/library\ecdsa.c ****     *slen = len;
 1193              		.loc 1 631 5 view .LVU397
 1194 008a 0599     		ldr	r1, [sp, #20]
 1195 008c 3698     		ldr	r0, [sp, #216]
 1196              	.LVL168:
 631:D:/fchai/work/i-cube/I-CUBE-HUAWEI/Middlewares/Third_Party/Huawei/iot_link/network/dtls/mbedtls/mbedtls-2.16.2/library\ecdsa.c ****     *slen = len;
 1197              		.loc 1 631 5 is_stmt 0 view .LVU398
 1198 008e 2A46     		mov	r2, r5
 1199 0090 FFF7FEFF 		bl	memcpy
 1200              	.LVL169:
 632:D:/fchai/work/i-cube/I-CUBE-HUAWEI/Middlewares/Third_Party/Huawei/iot_link/network/dtls/mbedtls/mbedtls-2.16.2/library\ecdsa.c **** 
 1201              		.loc 1 632 5 is_stmt 1 view .LVU399
 632:D:/fchai/work/i-cube/I-CUBE-HUAWEI/Middlewares/Third_Party/Huawei/iot_link/network/dtls/mbedtls/mbedtls-2.16.2/library\ecdsa.c **** 
ARM GAS  T:\msys\tmp\ccyWqaJb.s 			page 38


 1202              		.loc 1 632 11 is_stmt 0 view .LVU400
 1203 0094 379B     		ldr	r3, [sp, #220]
 1204 0096 1D60     		str	r5, [r3]
 634:D:/fchai/work/i-cube/I-CUBE-HUAWEI/Middlewares/Third_Party/Huawei/iot_link/network/dtls/mbedtls/mbedtls-2.16.2/library\ecdsa.c **** }
 1205              		.loc 1 634 5 is_stmt 1 view .LVU401
 634:D:/fchai/work/i-cube/I-CUBE-HUAWEI/Middlewares/Third_Party/Huawei/iot_link/network/dtls/mbedtls/mbedtls-2.16.2/library\ecdsa.c **** }
 1206              		.loc 1 634 11 is_stmt 0 view .LVU402
 1207 0098 CCE7     		b	.L54
 1208              	.LVL170:
 1209              	.L56:
 634:D:/fchai/work/i-cube/I-CUBE-HUAWEI/Middlewares/Third_Party/Huawei/iot_link/network/dtls/mbedtls/mbedtls-2.16.2/library\ecdsa.c **** }
 1210              		.loc 1 634 11 view .LVU403
 1211 009a 2C46     		mov	r4, r5
 1212              	.LVL171:
 634:D:/fchai/work/i-cube/I-CUBE-HUAWEI/Middlewares/Third_Party/Huawei/iot_link/network/dtls/mbedtls/mbedtls-2.16.2/library\ecdsa.c **** }
 1213              		.loc 1 634 11 view .LVU404
 1214 009c CAE7     		b	.L54
 1215              	.LVL172:
 1216              	.L59:
 634:D:/fchai/work/i-cube/I-CUBE-HUAWEI/Middlewares/Third_Party/Huawei/iot_link/network/dtls/mbedtls/mbedtls-2.16.2/library\ecdsa.c **** }
 1217              		.loc 1 634 11 view .LVU405
 1218 009e 0446     		mov	r4, r0
 1219              	.LVL173:
 634:D:/fchai/work/i-cube/I-CUBE-HUAWEI/Middlewares/Third_Party/Huawei/iot_link/network/dtls/mbedtls/mbedtls-2.16.2/library\ecdsa.c **** }
 1220              		.loc 1 634 11 view .LVU406
 1221              	.LBE7:
 1222              	.LBE6:
 678:D:/fchai/work/i-cube/I-CUBE-HUAWEI/Middlewares/Third_Party/Huawei/iot_link/network/dtls/mbedtls/mbedtls-2.16.2/library\ecdsa.c ****     mbedtls_mpi_free( &r );
 1223              		.loc 1 678 1 view .LVU407
 1224 00a0 C8E7     		b	.L54
 1225              	.LVL174:
 1226              	.L58:
 1227              	.LBB9:
 1228              	.LBB8:
 678:D:/fchai/work/i-cube/I-CUBE-HUAWEI/Middlewares/Third_Party/Huawei/iot_link/network/dtls/mbedtls/mbedtls-2.16.2/library\ecdsa.c ****     mbedtls_mpi_free( &r );
 1229              		.loc 1 678 1 view .LVU408
 1230 00a2 3446     		mov	r4, r6
 1231              	.LVL175:
 678:D:/fchai/work/i-cube/I-CUBE-HUAWEI/Middlewares/Third_Party/Huawei/iot_link/network/dtls/mbedtls/mbedtls-2.16.2/library\ecdsa.c ****     mbedtls_mpi_free( &r );
 1232              		.loc 1 678 1 view .LVU409
 1233 00a4 C6E7     		b	.L54
 1234              	.LBE8:
 1235              	.LBE9:
 1236              		.cfi_endproc
 1237              	.LFE9:
 1239 00a6 00BF     		.section	.text.mbedtls_ecdsa_write_signature,"ax",%progbits
 1240              		.align	1
 1241              		.p2align 2,,3
 1242              		.global	mbedtls_ecdsa_write_signature
 1243              		.syntax unified
 1244              		.thumb
 1245              		.thumb_func
 1246              		.fpu fpv4-sp-d16
 1248              	mbedtls_ecdsa_write_signature:
 1249              	.LVL176:
 1250              	.LFB10:
 684:D:/fchai/work/i-cube/I-CUBE-HUAWEI/Middlewares/Third_Party/Huawei/iot_link/network/dtls/mbedtls/mbedtls-2.16.2/library\ecdsa.c **** 
ARM GAS  T:\msys\tmp\ccyWqaJb.s 			page 39


 685:D:/fchai/work/i-cube/I-CUBE-HUAWEI/Middlewares/Third_Party/Huawei/iot_link/network/dtls/mbedtls/mbedtls-2.16.2/library\ecdsa.c **** /*
 686:D:/fchai/work/i-cube/I-CUBE-HUAWEI/Middlewares/Third_Party/Huawei/iot_link/network/dtls/mbedtls/mbedtls-2.16.2/library\ecdsa.c ****  * Compute and write signature
 687:D:/fchai/work/i-cube/I-CUBE-HUAWEI/Middlewares/Third_Party/Huawei/iot_link/network/dtls/mbedtls/mbedtls-2.16.2/library\ecdsa.c ****  */
 688:D:/fchai/work/i-cube/I-CUBE-HUAWEI/Middlewares/Third_Party/Huawei/iot_link/network/dtls/mbedtls/mbedtls-2.16.2/library\ecdsa.c **** int mbedtls_ecdsa_write_signature( mbedtls_ecdsa_context *ctx,
 689:D:/fchai/work/i-cube/I-CUBE-HUAWEI/Middlewares/Third_Party/Huawei/iot_link/network/dtls/mbedtls/mbedtls-2.16.2/library\ecdsa.c ****                                  mbedtls_md_type_t md_alg,
 690:D:/fchai/work/i-cube/I-CUBE-HUAWEI/Middlewares/Third_Party/Huawei/iot_link/network/dtls/mbedtls/mbedtls-2.16.2/library\ecdsa.c ****                                  const unsigned char *hash, size_t hlen,
 691:D:/fchai/work/i-cube/I-CUBE-HUAWEI/Middlewares/Third_Party/Huawei/iot_link/network/dtls/mbedtls/mbedtls-2.16.2/library\ecdsa.c ****                                  unsigned char *sig, size_t *slen,
 692:D:/fchai/work/i-cube/I-CUBE-HUAWEI/Middlewares/Third_Party/Huawei/iot_link/network/dtls/mbedtls/mbedtls-2.16.2/library\ecdsa.c ****                                  int (*f_rng)(void *, unsigned char *, size_t),
 693:D:/fchai/work/i-cube/I-CUBE-HUAWEI/Middlewares/Third_Party/Huawei/iot_link/network/dtls/mbedtls/mbedtls-2.16.2/library\ecdsa.c ****                                  void *p_rng )
 694:D:/fchai/work/i-cube/I-CUBE-HUAWEI/Middlewares/Third_Party/Huawei/iot_link/network/dtls/mbedtls/mbedtls-2.16.2/library\ecdsa.c **** {
 1251              		.loc 1 694 1 is_stmt 1 view -0
 1252              		.cfi_startproc
 1253              		@ args = 16, pretend = 0, frame = 0
 1254              		@ frame_needed = 0, uses_anonymous_args = 0
 695:D:/fchai/work/i-cube/I-CUBE-HUAWEI/Middlewares/Third_Party/Huawei/iot_link/network/dtls/mbedtls/mbedtls-2.16.2/library\ecdsa.c ****     ECDSA_VALIDATE_RET( ctx  != NULL );
 1255              		.loc 1 695 5 view .LVU411
 1256              		.loc 1 695 5 view .LVU412
 1257              		.loc 1 695 5 view .LVU413
 696:D:/fchai/work/i-cube/I-CUBE-HUAWEI/Middlewares/Third_Party/Huawei/iot_link/network/dtls/mbedtls/mbedtls-2.16.2/library\ecdsa.c ****     ECDSA_VALIDATE_RET( hash != NULL );
 1258              		.loc 1 696 5 view .LVU414
 1259              		.loc 1 696 5 view .LVU415
 1260              		.loc 1 696 5 view .LVU416
 697:D:/fchai/work/i-cube/I-CUBE-HUAWEI/Middlewares/Third_Party/Huawei/iot_link/network/dtls/mbedtls/mbedtls-2.16.2/library\ecdsa.c ****     ECDSA_VALIDATE_RET( sig  != NULL );
 1261              		.loc 1 697 5 view .LVU417
 1262              		.loc 1 697 5 view .LVU418
 1263              		.loc 1 697 5 view .LVU419
 698:D:/fchai/work/i-cube/I-CUBE-HUAWEI/Middlewares/Third_Party/Huawei/iot_link/network/dtls/mbedtls/mbedtls-2.16.2/library\ecdsa.c ****     ECDSA_VALIDATE_RET( slen != NULL );
 1264              		.loc 1 698 5 view .LVU420
 1265              		.loc 1 698 5 view .LVU421
 1266              		.loc 1 698 5 view .LVU422
 699:D:/fchai/work/i-cube/I-CUBE-HUAWEI/Middlewares/Third_Party/Huawei/iot_link/network/dtls/mbedtls/mbedtls-2.16.2/library\ecdsa.c ****     return( mbedtls_ecdsa_write_signature_restartable(
 1267              		.loc 1 699 5 view .LVU423
 694:D:/fchai/work/i-cube/I-CUBE-HUAWEI/Middlewares/Third_Party/Huawei/iot_link/network/dtls/mbedtls/mbedtls-2.16.2/library\ecdsa.c ****     ECDSA_VALIDATE_RET( ctx  != NULL );
 1268              		.loc 1 694 1 is_stmt 0 view .LVU424
 1269 0000 30B5     		push	{r4, r5, lr}
 1270              	.LCFI17:
 1271              		.cfi_def_cfa_offset 12
 1272              		.cfi_offset 4, -12
 1273              		.cfi_offset 5, -8
 1274              		.cfi_offset 14, -4
 1275 0002 87B0     		sub	sp, sp, #28
 1276              	.LCFI18:
 1277              		.cfi_def_cfa_offset 40
 694:D:/fchai/work/i-cube/I-CUBE-HUAWEI/Middlewares/Third_Party/Huawei/iot_link/network/dtls/mbedtls/mbedtls-2.16.2/library\ecdsa.c ****     ECDSA_VALIDATE_RET( ctx  != NULL );
 1278              		.loc 1 694 1 view .LVU425
 1279 0004 DDE90A45 		ldrd	r4, r5, [sp, #40]
 1280              		.loc 1 699 13 view .LVU426
 1281 0008 0094     		str	r4, [sp]
 1282 000a 0195     		str	r5, [sp, #4]
 694:D:/fchai/work/i-cube/I-CUBE-HUAWEI/Middlewares/Third_Party/Huawei/iot_link/network/dtls/mbedtls/mbedtls-2.16.2/library\ecdsa.c ****     ECDSA_VALIDATE_RET( ctx  != NULL );
 1283              		.loc 1 694 1 view .LVU427
 1284 000c 0C9C     		ldr	r4, [sp, #48]
 1285 000e 0D9D     		ldr	r5, [sp, #52]
 1286              		.loc 1 699 13 view .LVU428
 1287 0010 0294     		str	r4, [sp, #8]
 1288 0012 0024     		movs	r4, #0
 1289 0014 CDE90354 		strd	r5, r4, [sp, #12]
ARM GAS  T:\msys\tmp\ccyWqaJb.s 			page 40


 1290 0018 FFF7FEFF 		bl	mbedtls_ecdsa_write_signature_restartable
 1291              	.LVL177:
 700:D:/fchai/work/i-cube/I-CUBE-HUAWEI/Middlewares/Third_Party/Huawei/iot_link/network/dtls/mbedtls/mbedtls-2.16.2/library\ecdsa.c ****                 ctx, md_alg, hash, hlen, sig, slen, f_rng, p_rng, NULL ) );
 701:D:/fchai/work/i-cube/I-CUBE-HUAWEI/Middlewares/Third_Party/Huawei/iot_link/network/dtls/mbedtls/mbedtls-2.16.2/library\ecdsa.c **** }
 1292              		.loc 1 701 1 view .LVU429
 1293 001c 07B0     		add	sp, sp, #28
 1294              	.LCFI19:
 1295              		.cfi_def_cfa_offset 12
 1296              		@ sp needed
 1297 001e 30BD     		pop	{r4, r5, pc}
 1298              		.loc 1 701 1 view .LVU430
 1299              		.cfi_endproc
 1300              	.LFE10:
 1302              		.section	.text.mbedtls_ecdsa_read_signature_restartable,"ax",%progbits
 1303              		.align	1
 1304              		.p2align 2,,3
 1305              		.global	mbedtls_ecdsa_read_signature_restartable
 1306              		.syntax unified
 1307              		.thumb
 1308              		.thumb_func
 1309              		.fpu fpv4-sp-d16
 1311              	mbedtls_ecdsa_read_signature_restartable:
 1312              	.LVL178:
 1313              	.LFB12:
 702:D:/fchai/work/i-cube/I-CUBE-HUAWEI/Middlewares/Third_Party/Huawei/iot_link/network/dtls/mbedtls/mbedtls-2.16.2/library\ecdsa.c **** 
 703:D:/fchai/work/i-cube/I-CUBE-HUAWEI/Middlewares/Third_Party/Huawei/iot_link/network/dtls/mbedtls/mbedtls-2.16.2/library\ecdsa.c **** #if !defined(MBEDTLS_DEPRECATED_REMOVED) && \
 704:D:/fchai/work/i-cube/I-CUBE-HUAWEI/Middlewares/Third_Party/Huawei/iot_link/network/dtls/mbedtls/mbedtls-2.16.2/library\ecdsa.c ****     defined(MBEDTLS_ECDSA_DETERMINISTIC)
 705:D:/fchai/work/i-cube/I-CUBE-HUAWEI/Middlewares/Third_Party/Huawei/iot_link/network/dtls/mbedtls/mbedtls-2.16.2/library\ecdsa.c **** int mbedtls_ecdsa_write_signature_det( mbedtls_ecdsa_context *ctx,
 706:D:/fchai/work/i-cube/I-CUBE-HUAWEI/Middlewares/Third_Party/Huawei/iot_link/network/dtls/mbedtls/mbedtls-2.16.2/library\ecdsa.c ****                                const unsigned char *hash, size_t hlen,
 707:D:/fchai/work/i-cube/I-CUBE-HUAWEI/Middlewares/Third_Party/Huawei/iot_link/network/dtls/mbedtls/mbedtls-2.16.2/library\ecdsa.c ****                                unsigned char *sig, size_t *slen,
 708:D:/fchai/work/i-cube/I-CUBE-HUAWEI/Middlewares/Third_Party/Huawei/iot_link/network/dtls/mbedtls/mbedtls-2.16.2/library\ecdsa.c ****                                mbedtls_md_type_t md_alg )
 709:D:/fchai/work/i-cube/I-CUBE-HUAWEI/Middlewares/Third_Party/Huawei/iot_link/network/dtls/mbedtls/mbedtls-2.16.2/library\ecdsa.c **** {
 710:D:/fchai/work/i-cube/I-CUBE-HUAWEI/Middlewares/Third_Party/Huawei/iot_link/network/dtls/mbedtls/mbedtls-2.16.2/library\ecdsa.c ****     ECDSA_VALIDATE_RET( ctx  != NULL );
 711:D:/fchai/work/i-cube/I-CUBE-HUAWEI/Middlewares/Third_Party/Huawei/iot_link/network/dtls/mbedtls/mbedtls-2.16.2/library\ecdsa.c ****     ECDSA_VALIDATE_RET( hash != NULL );
 712:D:/fchai/work/i-cube/I-CUBE-HUAWEI/Middlewares/Third_Party/Huawei/iot_link/network/dtls/mbedtls/mbedtls-2.16.2/library\ecdsa.c ****     ECDSA_VALIDATE_RET( sig  != NULL );
 713:D:/fchai/work/i-cube/I-CUBE-HUAWEI/Middlewares/Third_Party/Huawei/iot_link/network/dtls/mbedtls/mbedtls-2.16.2/library\ecdsa.c ****     ECDSA_VALIDATE_RET( slen != NULL );
 714:D:/fchai/work/i-cube/I-CUBE-HUAWEI/Middlewares/Third_Party/Huawei/iot_link/network/dtls/mbedtls/mbedtls-2.16.2/library\ecdsa.c ****     return( mbedtls_ecdsa_write_signature( ctx, md_alg, hash, hlen, sig, slen,
 715:D:/fchai/work/i-cube/I-CUBE-HUAWEI/Middlewares/Third_Party/Huawei/iot_link/network/dtls/mbedtls/mbedtls-2.16.2/library\ecdsa.c ****                                    NULL, NULL ) );
 716:D:/fchai/work/i-cube/I-CUBE-HUAWEI/Middlewares/Third_Party/Huawei/iot_link/network/dtls/mbedtls/mbedtls-2.16.2/library\ecdsa.c **** }
 717:D:/fchai/work/i-cube/I-CUBE-HUAWEI/Middlewares/Third_Party/Huawei/iot_link/network/dtls/mbedtls/mbedtls-2.16.2/library\ecdsa.c **** #endif
 718:D:/fchai/work/i-cube/I-CUBE-HUAWEI/Middlewares/Third_Party/Huawei/iot_link/network/dtls/mbedtls/mbedtls-2.16.2/library\ecdsa.c **** 
 719:D:/fchai/work/i-cube/I-CUBE-HUAWEI/Middlewares/Third_Party/Huawei/iot_link/network/dtls/mbedtls/mbedtls-2.16.2/library\ecdsa.c **** /*
 720:D:/fchai/work/i-cube/I-CUBE-HUAWEI/Middlewares/Third_Party/Huawei/iot_link/network/dtls/mbedtls/mbedtls-2.16.2/library\ecdsa.c ****  * Read and check signature
 721:D:/fchai/work/i-cube/I-CUBE-HUAWEI/Middlewares/Third_Party/Huawei/iot_link/network/dtls/mbedtls/mbedtls-2.16.2/library\ecdsa.c ****  */
 722:D:/fchai/work/i-cube/I-CUBE-HUAWEI/Middlewares/Third_Party/Huawei/iot_link/network/dtls/mbedtls/mbedtls-2.16.2/library\ecdsa.c **** int mbedtls_ecdsa_read_signature( mbedtls_ecdsa_context *ctx,
 723:D:/fchai/work/i-cube/I-CUBE-HUAWEI/Middlewares/Third_Party/Huawei/iot_link/network/dtls/mbedtls/mbedtls-2.16.2/library\ecdsa.c ****                           const unsigned char *hash, size_t hlen,
 724:D:/fchai/work/i-cube/I-CUBE-HUAWEI/Middlewares/Third_Party/Huawei/iot_link/network/dtls/mbedtls/mbedtls-2.16.2/library\ecdsa.c ****                           const unsigned char *sig, size_t slen )
 725:D:/fchai/work/i-cube/I-CUBE-HUAWEI/Middlewares/Third_Party/Huawei/iot_link/network/dtls/mbedtls/mbedtls-2.16.2/library\ecdsa.c **** {
 726:D:/fchai/work/i-cube/I-CUBE-HUAWEI/Middlewares/Third_Party/Huawei/iot_link/network/dtls/mbedtls/mbedtls-2.16.2/library\ecdsa.c ****     ECDSA_VALIDATE_RET( ctx  != NULL );
 727:D:/fchai/work/i-cube/I-CUBE-HUAWEI/Middlewares/Third_Party/Huawei/iot_link/network/dtls/mbedtls/mbedtls-2.16.2/library\ecdsa.c ****     ECDSA_VALIDATE_RET( hash != NULL );
 728:D:/fchai/work/i-cube/I-CUBE-HUAWEI/Middlewares/Third_Party/Huawei/iot_link/network/dtls/mbedtls/mbedtls-2.16.2/library\ecdsa.c ****     ECDSA_VALIDATE_RET( sig  != NULL );
 729:D:/fchai/work/i-cube/I-CUBE-HUAWEI/Middlewares/Third_Party/Huawei/iot_link/network/dtls/mbedtls/mbedtls-2.16.2/library\ecdsa.c ****     return( mbedtls_ecdsa_read_signature_restartable(
 730:D:/fchai/work/i-cube/I-CUBE-HUAWEI/Middlewares/Third_Party/Huawei/iot_link/network/dtls/mbedtls/mbedtls-2.16.2/library\ecdsa.c ****                 ctx, hash, hlen, sig, slen, NULL ) );
 731:D:/fchai/work/i-cube/I-CUBE-HUAWEI/Middlewares/Third_Party/Huawei/iot_link/network/dtls/mbedtls/mbedtls-2.16.2/library\ecdsa.c **** }
 732:D:/fchai/work/i-cube/I-CUBE-HUAWEI/Middlewares/Third_Party/Huawei/iot_link/network/dtls/mbedtls/mbedtls-2.16.2/library\ecdsa.c **** 
 733:D:/fchai/work/i-cube/I-CUBE-HUAWEI/Middlewares/Third_Party/Huawei/iot_link/network/dtls/mbedtls/mbedtls-2.16.2/library\ecdsa.c **** /*
 734:D:/fchai/work/i-cube/I-CUBE-HUAWEI/Middlewares/Third_Party/Huawei/iot_link/network/dtls/mbedtls/mbedtls-2.16.2/library\ecdsa.c ****  * Restartable read and check signature
ARM GAS  T:\msys\tmp\ccyWqaJb.s 			page 41


 735:D:/fchai/work/i-cube/I-CUBE-HUAWEI/Middlewares/Third_Party/Huawei/iot_link/network/dtls/mbedtls/mbedtls-2.16.2/library\ecdsa.c ****  */
 736:D:/fchai/work/i-cube/I-CUBE-HUAWEI/Middlewares/Third_Party/Huawei/iot_link/network/dtls/mbedtls/mbedtls-2.16.2/library\ecdsa.c **** int mbedtls_ecdsa_read_signature_restartable( mbedtls_ecdsa_context *ctx,
 737:D:/fchai/work/i-cube/I-CUBE-HUAWEI/Middlewares/Third_Party/Huawei/iot_link/network/dtls/mbedtls/mbedtls-2.16.2/library\ecdsa.c ****                           const unsigned char *hash, size_t hlen,
 738:D:/fchai/work/i-cube/I-CUBE-HUAWEI/Middlewares/Third_Party/Huawei/iot_link/network/dtls/mbedtls/mbedtls-2.16.2/library\ecdsa.c ****                           const unsigned char *sig, size_t slen,
 739:D:/fchai/work/i-cube/I-CUBE-HUAWEI/Middlewares/Third_Party/Huawei/iot_link/network/dtls/mbedtls/mbedtls-2.16.2/library\ecdsa.c ****                           mbedtls_ecdsa_restart_ctx *rs_ctx )
 740:D:/fchai/work/i-cube/I-CUBE-HUAWEI/Middlewares/Third_Party/Huawei/iot_link/network/dtls/mbedtls/mbedtls-2.16.2/library\ecdsa.c **** {
 1314              		.loc 1 740 1 is_stmt 1 view -0
 1315              		.cfi_startproc
 1316              		@ args = 8, pretend = 0, frame = 32
 1317              		@ frame_needed = 0, uses_anonymous_args = 0
 741:D:/fchai/work/i-cube/I-CUBE-HUAWEI/Middlewares/Third_Party/Huawei/iot_link/network/dtls/mbedtls/mbedtls-2.16.2/library\ecdsa.c ****     int ret;
 1318              		.loc 1 741 5 view .LVU432
 742:D:/fchai/work/i-cube/I-CUBE-HUAWEI/Middlewares/Third_Party/Huawei/iot_link/network/dtls/mbedtls/mbedtls-2.16.2/library\ecdsa.c ****     unsigned char *p = (unsigned char *) sig;
 1319              		.loc 1 742 5 view .LVU433
 740:D:/fchai/work/i-cube/I-CUBE-HUAWEI/Middlewares/Third_Party/Huawei/iot_link/network/dtls/mbedtls/mbedtls-2.16.2/library\ecdsa.c ****     int ret;
 1320              		.loc 1 740 1 is_stmt 0 view .LVU434
 1321 0000 F0B5     		push	{r4, r5, r6, r7, lr}
 1322              	.LCFI20:
 1323              		.cfi_def_cfa_offset 20
 1324              		.cfi_offset 4, -20
 1325              		.cfi_offset 5, -16
 1326              		.cfi_offset 6, -12
 1327              		.cfi_offset 7, -8
 1328              		.cfi_offset 14, -4
 1329 0002 8BB0     		sub	sp, sp, #44
 1330              	.LCFI21:
 1331              		.cfi_def_cfa_offset 64
 740:D:/fchai/work/i-cube/I-CUBE-HUAWEI/Middlewares/Third_Party/Huawei/iot_link/network/dtls/mbedtls/mbedtls-2.16.2/library\ecdsa.c ****     int ret;
 1332              		.loc 1 740 1 view .LVU435
 1333 0004 0446     		mov	r4, r0
 1334 0006 109D     		ldr	r5, [sp, #64]
 1335              		.loc 1 742 20 view .LVU436
 1336 0008 0293     		str	r3, [sp, #8]
 743:D:/fchai/work/i-cube/I-CUBE-HUAWEI/Middlewares/Third_Party/Huawei/iot_link/network/dtls/mbedtls/mbedtls-2.16.2/library\ecdsa.c ****     const unsigned char *end = sig + slen;
 1337              		.loc 1 743 5 is_stmt 1 view .LVU437
 744:D:/fchai/work/i-cube/I-CUBE-HUAWEI/Middlewares/Third_Party/Huawei/iot_link/network/dtls/mbedtls/mbedtls-2.16.2/library\ecdsa.c ****     size_t len;
 745:D:/fchai/work/i-cube/I-CUBE-HUAWEI/Middlewares/Third_Party/Huawei/iot_link/network/dtls/mbedtls/mbedtls-2.16.2/library\ecdsa.c ****     mbedtls_mpi r, s;
 746:D:/fchai/work/i-cube/I-CUBE-HUAWEI/Middlewares/Third_Party/Huawei/iot_link/network/dtls/mbedtls/mbedtls-2.16.2/library\ecdsa.c ****     ECDSA_VALIDATE_RET( ctx  != NULL );
 747:D:/fchai/work/i-cube/I-CUBE-HUAWEI/Middlewares/Third_Party/Huawei/iot_link/network/dtls/mbedtls/mbedtls-2.16.2/library\ecdsa.c ****     ECDSA_VALIDATE_RET( hash != NULL );
 748:D:/fchai/work/i-cube/I-CUBE-HUAWEI/Middlewares/Third_Party/Huawei/iot_link/network/dtls/mbedtls/mbedtls-2.16.2/library\ecdsa.c ****     ECDSA_VALIDATE_RET( sig  != NULL );
 749:D:/fchai/work/i-cube/I-CUBE-HUAWEI/Middlewares/Third_Party/Huawei/iot_link/network/dtls/mbedtls/mbedtls-2.16.2/library\ecdsa.c **** 
 750:D:/fchai/work/i-cube/I-CUBE-HUAWEI/Middlewares/Third_Party/Huawei/iot_link/network/dtls/mbedtls/mbedtls-2.16.2/library\ecdsa.c ****     mbedtls_mpi_init( &r );
 1338              		.loc 1 750 5 is_stmt 0 view .LVU438
 1339 000a 04A8     		add	r0, sp, #16
 1340              	.LVL179:
 743:D:/fchai/work/i-cube/I-CUBE-HUAWEI/Middlewares/Third_Party/Huawei/iot_link/network/dtls/mbedtls/mbedtls-2.16.2/library\ecdsa.c ****     const unsigned char *end = sig + slen;
 1341              		.loc 1 743 26 view .LVU439
 1342 000c 1D44     		add	r5, r5, r3
 1343              	.LVL180:
 744:D:/fchai/work/i-cube/I-CUBE-HUAWEI/Middlewares/Third_Party/Huawei/iot_link/network/dtls/mbedtls/mbedtls-2.16.2/library\ecdsa.c ****     size_t len;
 1344              		.loc 1 744 5 is_stmt 1 view .LVU440
 745:D:/fchai/work/i-cube/I-CUBE-HUAWEI/Middlewares/Third_Party/Huawei/iot_link/network/dtls/mbedtls/mbedtls-2.16.2/library\ecdsa.c ****     ECDSA_VALIDATE_RET( ctx  != NULL );
 1345              		.loc 1 745 5 view .LVU441
 746:D:/fchai/work/i-cube/I-CUBE-HUAWEI/Middlewares/Third_Party/Huawei/iot_link/network/dtls/mbedtls/mbedtls-2.16.2/library\ecdsa.c ****     ECDSA_VALIDATE_RET( hash != NULL );
 1346              		.loc 1 746 5 view .LVU442
 746:D:/fchai/work/i-cube/I-CUBE-HUAWEI/Middlewares/Third_Party/Huawei/iot_link/network/dtls/mbedtls/mbedtls-2.16.2/library\ecdsa.c ****     ECDSA_VALIDATE_RET( hash != NULL );
 1347              		.loc 1 746 5 view .LVU443
ARM GAS  T:\msys\tmp\ccyWqaJb.s 			page 42


 746:D:/fchai/work/i-cube/I-CUBE-HUAWEI/Middlewares/Third_Party/Huawei/iot_link/network/dtls/mbedtls/mbedtls-2.16.2/library\ecdsa.c ****     ECDSA_VALIDATE_RET( hash != NULL );
 1348              		.loc 1 746 5 view .LVU444
 747:D:/fchai/work/i-cube/I-CUBE-HUAWEI/Middlewares/Third_Party/Huawei/iot_link/network/dtls/mbedtls/mbedtls-2.16.2/library\ecdsa.c ****     ECDSA_VALIDATE_RET( sig  != NULL );
 1349              		.loc 1 747 5 view .LVU445
 747:D:/fchai/work/i-cube/I-CUBE-HUAWEI/Middlewares/Third_Party/Huawei/iot_link/network/dtls/mbedtls/mbedtls-2.16.2/library\ecdsa.c ****     ECDSA_VALIDATE_RET( sig  != NULL );
 1350              		.loc 1 747 5 view .LVU446
 747:D:/fchai/work/i-cube/I-CUBE-HUAWEI/Middlewares/Third_Party/Huawei/iot_link/network/dtls/mbedtls/mbedtls-2.16.2/library\ecdsa.c ****     ECDSA_VALIDATE_RET( sig  != NULL );
 1351              		.loc 1 747 5 view .LVU447
 748:D:/fchai/work/i-cube/I-CUBE-HUAWEI/Middlewares/Third_Party/Huawei/iot_link/network/dtls/mbedtls/mbedtls-2.16.2/library\ecdsa.c **** 
 1352              		.loc 1 748 5 view .LVU448
 748:D:/fchai/work/i-cube/I-CUBE-HUAWEI/Middlewares/Third_Party/Huawei/iot_link/network/dtls/mbedtls/mbedtls-2.16.2/library\ecdsa.c **** 
 1353              		.loc 1 748 5 view .LVU449
 748:D:/fchai/work/i-cube/I-CUBE-HUAWEI/Middlewares/Third_Party/Huawei/iot_link/network/dtls/mbedtls/mbedtls-2.16.2/library\ecdsa.c **** 
 1354              		.loc 1 748 5 view .LVU450
 1355              		.loc 1 750 5 view .LVU451
 740:D:/fchai/work/i-cube/I-CUBE-HUAWEI/Middlewares/Third_Party/Huawei/iot_link/network/dtls/mbedtls/mbedtls-2.16.2/library\ecdsa.c ****     int ret;
 1356              		.loc 1 740 1 is_stmt 0 view .LVU452
 1357 000e 0E46     		mov	r6, r1
 1358 0010 1746     		mov	r7, r2
 1359              		.loc 1 750 5 view .LVU453
 1360 0012 FFF7FEFF 		bl	mbedtls_mpi_init
 1361              	.LVL181:
 751:D:/fchai/work/i-cube/I-CUBE-HUAWEI/Middlewares/Third_Party/Huawei/iot_link/network/dtls/mbedtls/mbedtls-2.16.2/library\ecdsa.c ****     mbedtls_mpi_init( &s );
 1362              		.loc 1 751 5 is_stmt 1 view .LVU454
 1363 0016 07A8     		add	r0, sp, #28
 1364 0018 FFF7FEFF 		bl	mbedtls_mpi_init
 1365              	.LVL182:
 752:D:/fchai/work/i-cube/I-CUBE-HUAWEI/Middlewares/Third_Party/Huawei/iot_link/network/dtls/mbedtls/mbedtls-2.16.2/library\ecdsa.c **** 
 753:D:/fchai/work/i-cube/I-CUBE-HUAWEI/Middlewares/Third_Party/Huawei/iot_link/network/dtls/mbedtls/mbedtls-2.16.2/library\ecdsa.c ****     if( ( ret = mbedtls_asn1_get_tag( &p, end, &len,
 1366              		.loc 1 753 5 view .LVU455
 1367              		.loc 1 753 17 is_stmt 0 view .LVU456
 1368 001c 2946     		mov	r1, r5
 1369 001e 02A8     		add	r0, sp, #8
 1370 0020 3023     		movs	r3, #48
 1371 0022 03AA     		add	r2, sp, #12
 1372 0024 FFF7FEFF 		bl	mbedtls_asn1_get_tag
 1373              	.LVL183:
 1374              		.loc 1 753 7 view .LVU457
 1375 0028 50B9     		cbnz	r0, .L67
 754:D:/fchai/work/i-cube/I-CUBE-HUAWEI/Middlewares/Third_Party/Huawei/iot_link/network/dtls/mbedtls/mbedtls-2.16.2/library\ecdsa.c ****                     MBEDTLS_ASN1_CONSTRUCTED | MBEDTLS_ASN1_SEQUENCE ) ) != 0 )
 755:D:/fchai/work/i-cube/I-CUBE-HUAWEI/Middlewares/Third_Party/Huawei/iot_link/network/dtls/mbedtls/mbedtls-2.16.2/library\ecdsa.c ****     {
 756:D:/fchai/work/i-cube/I-CUBE-HUAWEI/Middlewares/Third_Party/Huawei/iot_link/network/dtls/mbedtls/mbedtls-2.16.2/library\ecdsa.c ****         ret += MBEDTLS_ERR_ECP_BAD_INPUT_DATA;
 757:D:/fchai/work/i-cube/I-CUBE-HUAWEI/Middlewares/Third_Party/Huawei/iot_link/network/dtls/mbedtls/mbedtls-2.16.2/library\ecdsa.c ****         goto cleanup;
 758:D:/fchai/work/i-cube/I-CUBE-HUAWEI/Middlewares/Third_Party/Huawei/iot_link/network/dtls/mbedtls/mbedtls-2.16.2/library\ecdsa.c ****     }
 759:D:/fchai/work/i-cube/I-CUBE-HUAWEI/Middlewares/Third_Party/Huawei/iot_link/network/dtls/mbedtls/mbedtls-2.16.2/library\ecdsa.c **** 
 760:D:/fchai/work/i-cube/I-CUBE-HUAWEI/Middlewares/Third_Party/Huawei/iot_link/network/dtls/mbedtls/mbedtls-2.16.2/library\ecdsa.c ****     if( p + len != end )
 1376              		.loc 1 760 5 is_stmt 1 view .LVU458
 1377              		.loc 1 760 11 is_stmt 0 view .LVU459
 1378 002a DDE90232 		ldrd	r3, r2, [sp, #8]
 1379 002e 1344     		add	r3, r3, r2
 1380              		.loc 1 760 7 view .LVU460
 1381 0030 9D42     		cmp	r5, r3
 1382 0032 2BD1     		bne	.L69
 761:D:/fchai/work/i-cube/I-CUBE-HUAWEI/Middlewares/Third_Party/Huawei/iot_link/network/dtls/mbedtls/mbedtls-2.16.2/library\ecdsa.c ****     {
 762:D:/fchai/work/i-cube/I-CUBE-HUAWEI/Middlewares/Third_Party/Huawei/iot_link/network/dtls/mbedtls/mbedtls-2.16.2/library\ecdsa.c ****         ret = MBEDTLS_ERR_ECP_BAD_INPUT_DATA +
 763:D:/fchai/work/i-cube/I-CUBE-HUAWEI/Middlewares/Third_Party/Huawei/iot_link/network/dtls/mbedtls/mbedtls-2.16.2/library\ecdsa.c ****               MBEDTLS_ERR_ASN1_LENGTH_MISMATCH;
 764:D:/fchai/work/i-cube/I-CUBE-HUAWEI/Middlewares/Third_Party/Huawei/iot_link/network/dtls/mbedtls/mbedtls-2.16.2/library\ecdsa.c ****         goto cleanup;
ARM GAS  T:\msys\tmp\ccyWqaJb.s 			page 43


 765:D:/fchai/work/i-cube/I-CUBE-HUAWEI/Middlewares/Third_Party/Huawei/iot_link/network/dtls/mbedtls/mbedtls-2.16.2/library\ecdsa.c ****     }
 766:D:/fchai/work/i-cube/I-CUBE-HUAWEI/Middlewares/Third_Party/Huawei/iot_link/network/dtls/mbedtls/mbedtls-2.16.2/library\ecdsa.c **** 
 767:D:/fchai/work/i-cube/I-CUBE-HUAWEI/Middlewares/Third_Party/Huawei/iot_link/network/dtls/mbedtls/mbedtls-2.16.2/library\ecdsa.c ****     if( ( ret = mbedtls_asn1_get_mpi( &p, end, &r ) ) != 0 ||
 1383              		.loc 1 767 5 is_stmt 1 view .LVU461
 1384              		.loc 1 767 17 is_stmt 0 view .LVU462
 1385 0034 04AA     		add	r2, sp, #16
 1386 0036 2946     		mov	r1, r5
 1387 0038 02A8     		add	r0, sp, #8
 1388              	.LVL184:
 1389              		.loc 1 767 17 view .LVU463
 1390 003a FFF7FEFF 		bl	mbedtls_asn1_get_mpi
 1391              	.LVL185:
 1392              		.loc 1 767 7 view .LVU464
 1393 003e 50B1     		cbz	r0, .L71
 1394              	.L67:
 768:D:/fchai/work/i-cube/I-CUBE-HUAWEI/Middlewares/Third_Party/Huawei/iot_link/network/dtls/mbedtls/mbedtls-2.16.2/library\ecdsa.c ****         ( ret = mbedtls_asn1_get_mpi( &p, end, &s ) ) != 0 )
 769:D:/fchai/work/i-cube/I-CUBE-HUAWEI/Middlewares/Third_Party/Huawei/iot_link/network/dtls/mbedtls/mbedtls-2.16.2/library\ecdsa.c ****     {
 770:D:/fchai/work/i-cube/I-CUBE-HUAWEI/Middlewares/Third_Party/Huawei/iot_link/network/dtls/mbedtls/mbedtls-2.16.2/library\ecdsa.c ****         ret += MBEDTLS_ERR_ECP_BAD_INPUT_DATA;
 1395              		.loc 1 770 9 is_stmt 1 view .LVU465
 1396              		.loc 1 770 13 is_stmt 0 view .LVU466
 1397 0040 A0F59F44 		sub	r4, r0, #20352
 1398              	.LVL186:
 771:D:/fchai/work/i-cube/I-CUBE-HUAWEI/Middlewares/Third_Party/Huawei/iot_link/network/dtls/mbedtls/mbedtls-2.16.2/library\ecdsa.c ****         goto cleanup;
 1399              		.loc 1 771 9 is_stmt 1 view .LVU467
 1400              	.L66:
 772:D:/fchai/work/i-cube/I-CUBE-HUAWEI/Middlewares/Third_Party/Huawei/iot_link/network/dtls/mbedtls/mbedtls-2.16.2/library\ecdsa.c ****     }
 773:D:/fchai/work/i-cube/I-CUBE-HUAWEI/Middlewares/Third_Party/Huawei/iot_link/network/dtls/mbedtls/mbedtls-2.16.2/library\ecdsa.c **** #if defined(MBEDTLS_ECDSA_VERIFY_ALT)
 774:D:/fchai/work/i-cube/I-CUBE-HUAWEI/Middlewares/Third_Party/Huawei/iot_link/network/dtls/mbedtls/mbedtls-2.16.2/library\ecdsa.c ****     if( ( ret = mbedtls_ecdsa_verify( &ctx->grp, hash, hlen,
 775:D:/fchai/work/i-cube/I-CUBE-HUAWEI/Middlewares/Third_Party/Huawei/iot_link/network/dtls/mbedtls/mbedtls-2.16.2/library\ecdsa.c ****                                       &ctx->Q, &r, &s ) ) != 0 )
 776:D:/fchai/work/i-cube/I-CUBE-HUAWEI/Middlewares/Third_Party/Huawei/iot_link/network/dtls/mbedtls/mbedtls-2.16.2/library\ecdsa.c ****         goto cleanup;
 777:D:/fchai/work/i-cube/I-CUBE-HUAWEI/Middlewares/Third_Party/Huawei/iot_link/network/dtls/mbedtls/mbedtls-2.16.2/library\ecdsa.c **** #else
 778:D:/fchai/work/i-cube/I-CUBE-HUAWEI/Middlewares/Third_Party/Huawei/iot_link/network/dtls/mbedtls/mbedtls-2.16.2/library\ecdsa.c ****     if( ( ret = ecdsa_verify_restartable( &ctx->grp, hash, hlen,
 779:D:/fchai/work/i-cube/I-CUBE-HUAWEI/Middlewares/Third_Party/Huawei/iot_link/network/dtls/mbedtls/mbedtls-2.16.2/library\ecdsa.c ****                               &ctx->Q, &r, &s, rs_ctx ) ) != 0 )
 780:D:/fchai/work/i-cube/I-CUBE-HUAWEI/Middlewares/Third_Party/Huawei/iot_link/network/dtls/mbedtls/mbedtls-2.16.2/library\ecdsa.c ****         goto cleanup;
 781:D:/fchai/work/i-cube/I-CUBE-HUAWEI/Middlewares/Third_Party/Huawei/iot_link/network/dtls/mbedtls/mbedtls-2.16.2/library\ecdsa.c **** #endif /* MBEDTLS_ECDSA_VERIFY_ALT */
 782:D:/fchai/work/i-cube/I-CUBE-HUAWEI/Middlewares/Third_Party/Huawei/iot_link/network/dtls/mbedtls/mbedtls-2.16.2/library\ecdsa.c **** 
 783:D:/fchai/work/i-cube/I-CUBE-HUAWEI/Middlewares/Third_Party/Huawei/iot_link/network/dtls/mbedtls/mbedtls-2.16.2/library\ecdsa.c ****     /* At this point we know that the buffer starts with a valid signature.
 784:D:/fchai/work/i-cube/I-CUBE-HUAWEI/Middlewares/Third_Party/Huawei/iot_link/network/dtls/mbedtls/mbedtls-2.16.2/library\ecdsa.c ****      * Return 0 if the buffer just contains the signature, and a specific
 785:D:/fchai/work/i-cube/I-CUBE-HUAWEI/Middlewares/Third_Party/Huawei/iot_link/network/dtls/mbedtls/mbedtls-2.16.2/library\ecdsa.c ****      * error code if the valid signature is followed by more data. */
 786:D:/fchai/work/i-cube/I-CUBE-HUAWEI/Middlewares/Third_Party/Huawei/iot_link/network/dtls/mbedtls/mbedtls-2.16.2/library\ecdsa.c ****     if( p != end )
 787:D:/fchai/work/i-cube/I-CUBE-HUAWEI/Middlewares/Third_Party/Huawei/iot_link/network/dtls/mbedtls/mbedtls-2.16.2/library\ecdsa.c ****         ret = MBEDTLS_ERR_ECP_SIG_LEN_MISMATCH;
 788:D:/fchai/work/i-cube/I-CUBE-HUAWEI/Middlewares/Third_Party/Huawei/iot_link/network/dtls/mbedtls/mbedtls-2.16.2/library\ecdsa.c **** 
 789:D:/fchai/work/i-cube/I-CUBE-HUAWEI/Middlewares/Third_Party/Huawei/iot_link/network/dtls/mbedtls/mbedtls-2.16.2/library\ecdsa.c **** cleanup:
 790:D:/fchai/work/i-cube/I-CUBE-HUAWEI/Middlewares/Third_Party/Huawei/iot_link/network/dtls/mbedtls/mbedtls-2.16.2/library\ecdsa.c ****     mbedtls_mpi_free( &r );
 1401              		.loc 1 790 5 view .LVU468
 1402 0044 04A8     		add	r0, sp, #16
 1403 0046 FFF7FEFF 		bl	mbedtls_mpi_free
 1404              	.LVL187:
 791:D:/fchai/work/i-cube/I-CUBE-HUAWEI/Middlewares/Third_Party/Huawei/iot_link/network/dtls/mbedtls/mbedtls-2.16.2/library\ecdsa.c ****     mbedtls_mpi_free( &s );
 1405              		.loc 1 791 5 view .LVU469
 1406 004a 07A8     		add	r0, sp, #28
 1407 004c FFF7FEFF 		bl	mbedtls_mpi_free
 1408              	.LVL188:
 792:D:/fchai/work/i-cube/I-CUBE-HUAWEI/Middlewares/Third_Party/Huawei/iot_link/network/dtls/mbedtls/mbedtls-2.16.2/library\ecdsa.c **** 
 793:D:/fchai/work/i-cube/I-CUBE-HUAWEI/Middlewares/Third_Party/Huawei/iot_link/network/dtls/mbedtls/mbedtls-2.16.2/library\ecdsa.c ****     return( ret );
 1409              		.loc 1 793 5 view .LVU470
 794:D:/fchai/work/i-cube/I-CUBE-HUAWEI/Middlewares/Third_Party/Huawei/iot_link/network/dtls/mbedtls/mbedtls-2.16.2/library\ecdsa.c **** }
ARM GAS  T:\msys\tmp\ccyWqaJb.s 			page 44


 1410              		.loc 1 794 1 is_stmt 0 view .LVU471
 1411 0050 2046     		mov	r0, r4
 1412 0052 0BB0     		add	sp, sp, #44
 1413              	.LCFI22:
 1414              		.cfi_remember_state
 1415              		.cfi_def_cfa_offset 20
 1416              		@ sp needed
 1417 0054 F0BD     		pop	{r4, r5, r6, r7, pc}
 1418              	.LVL189:
 1419              	.L71:
 1420              	.LCFI23:
 1421              		.cfi_restore_state
 768:D:/fchai/work/i-cube/I-CUBE-HUAWEI/Middlewares/Third_Party/Huawei/iot_link/network/dtls/mbedtls/mbedtls-2.16.2/library\ecdsa.c ****     {
 1422              		.loc 1 768 17 discriminator 1 view .LVU472
 1423 0056 02A8     		add	r0, sp, #8
 1424              	.LVL190:
 768:D:/fchai/work/i-cube/I-CUBE-HUAWEI/Middlewares/Third_Party/Huawei/iot_link/network/dtls/mbedtls/mbedtls-2.16.2/library\ecdsa.c ****     {
 1425              		.loc 1 768 17 discriminator 1 view .LVU473
 1426 0058 07AA     		add	r2, sp, #28
 1427 005a 2946     		mov	r1, r5
 1428 005c FFF7FEFF 		bl	mbedtls_asn1_get_mpi
 1429              	.LVL191:
 767:D:/fchai/work/i-cube/I-CUBE-HUAWEI/Middlewares/Third_Party/Huawei/iot_link/network/dtls/mbedtls/mbedtls-2.16.2/library\ecdsa.c ****         ( ret = mbedtls_asn1_get_mpi( &p, end, &s ) ) != 0 )
 1430              		.loc 1 767 60 discriminator 1 view .LVU474
 1431 0060 0028     		cmp	r0, #0
 1432 0062 EDD1     		bne	.L67
 778:D:/fchai/work/i-cube/I-CUBE-HUAWEI/Middlewares/Third_Party/Huawei/iot_link/network/dtls/mbedtls/mbedtls-2.16.2/library\ecdsa.c ****                               &ctx->Q, &r, &s, rs_ctx ) ) != 0 )
 1433              		.loc 1 778 5 is_stmt 1 view .LVU475
 778:D:/fchai/work/i-cube/I-CUBE-HUAWEI/Middlewares/Third_Party/Huawei/iot_link/network/dtls/mbedtls/mbedtls-2.16.2/library\ecdsa.c ****                               &ctx->Q, &r, &s, rs_ctx ) ) != 0 )
 1434              		.loc 1 778 17 is_stmt 0 view .LVU476
 1435 0064 07AB     		add	r3, sp, #28
 1436 0066 0193     		str	r3, [sp, #4]
 1437 0068 04AB     		add	r3, sp, #16
 1438 006a 0093     		str	r3, [sp]
 1439 006c 2046     		mov	r0, r4
 1440              	.LVL192:
 778:D:/fchai/work/i-cube/I-CUBE-HUAWEI/Middlewares/Third_Party/Huawei/iot_link/network/dtls/mbedtls/mbedtls-2.16.2/library\ecdsa.c ****                               &ctx->Q, &r, &s, rs_ctx ) ) != 0 )
 1441              		.loc 1 778 17 view .LVU477
 1442 006e 04F18803 		add	r3, r4, #136
 1443 0072 3A46     		mov	r2, r7
 1444 0074 3146     		mov	r1, r6
 1445 0076 FFF7FEFF 		bl	ecdsa_verify_restartable.isra.0
 1446              	.LVL193:
 778:D:/fchai/work/i-cube/I-CUBE-HUAWEI/Middlewares/Third_Party/Huawei/iot_link/network/dtls/mbedtls/mbedtls-2.16.2/library\ecdsa.c ****                               &ctx->Q, &r, &s, rs_ctx ) ) != 0 )
 1447              		.loc 1 778 7 view .LVU478
 1448 007a 0446     		mov	r4, r0
 1449              	.LVL194:
 778:D:/fchai/work/i-cube/I-CUBE-HUAWEI/Middlewares/Third_Party/Huawei/iot_link/network/dtls/mbedtls/mbedtls-2.16.2/library\ecdsa.c ****                               &ctx->Q, &r, &s, rs_ctx ) ) != 0 )
 1450              		.loc 1 778 7 view .LVU479
 1451 007c 0028     		cmp	r0, #0
 1452 007e E1D1     		bne	.L66
 786:D:/fchai/work/i-cube/I-CUBE-HUAWEI/Middlewares/Third_Party/Huawei/iot_link/network/dtls/mbedtls/mbedtls-2.16.2/library\ecdsa.c ****         ret = MBEDTLS_ERR_ECP_SIG_LEN_MISMATCH;
 1453              		.loc 1 786 5 is_stmt 1 view .LVU480
 786:D:/fchai/work/i-cube/I-CUBE-HUAWEI/Middlewares/Third_Party/Huawei/iot_link/network/dtls/mbedtls/mbedtls-2.16.2/library\ecdsa.c ****         ret = MBEDTLS_ERR_ECP_SIG_LEN_MISMATCH;
 1454              		.loc 1 786 7 is_stmt 0 view .LVU481
 1455 0080 029A     		ldr	r2, [sp, #8]
 787:D:/fchai/work/i-cube/I-CUBE-HUAWEI/Middlewares/Third_Party/Huawei/iot_link/network/dtls/mbedtls/mbedtls-2.16.2/library\ecdsa.c **** 
ARM GAS  T:\msys\tmp\ccyWqaJb.s 			page 45


 1456              		.loc 1 787 13 view .LVU482
 1457 0082 034B     		ldr	r3, .L72
 1458 0084 AA42     		cmp	r2, r5
 1459 0086 18BF     		it	ne
 1460 0088 1C46     		movne	r4, r3
 1461 008a DBE7     		b	.L66
 1462              	.LVL195:
 1463              	.L69:
 762:D:/fchai/work/i-cube/I-CUBE-HUAWEI/Middlewares/Third_Party/Huawei/iot_link/network/dtls/mbedtls/mbedtls-2.16.2/library\ecdsa.c ****               MBEDTLS_ERR_ASN1_LENGTH_MISMATCH;
 1464              		.loc 1 762 13 view .LVU483
 1465 008c 014C     		ldr	r4, .L72+4
 1466              	.LVL196:
 762:D:/fchai/work/i-cube/I-CUBE-HUAWEI/Middlewares/Third_Party/Huawei/iot_link/network/dtls/mbedtls/mbedtls-2.16.2/library\ecdsa.c ****               MBEDTLS_ERR_ASN1_LENGTH_MISMATCH;
 1467              		.loc 1 762 13 view .LVU484
 1468 008e D9E7     		b	.L66
 1469              	.L73:
 1470              		.align	2
 1471              	.L72:
 1472 0090 00B4FFFF 		.word	-19456
 1473 0094 1AB0FFFF 		.word	-20454
 1474              		.cfi_endproc
 1475              	.LFE12:
 1477              		.section	.text.mbedtls_ecdsa_read_signature,"ax",%progbits
 1478              		.align	1
 1479              		.p2align 2,,3
 1480              		.global	mbedtls_ecdsa_read_signature
 1481              		.syntax unified
 1482              		.thumb
 1483              		.thumb_func
 1484              		.fpu fpv4-sp-d16
 1486              	mbedtls_ecdsa_read_signature:
 1487              	.LVL197:
 1488              	.LFB11:
 725:D:/fchai/work/i-cube/I-CUBE-HUAWEI/Middlewares/Third_Party/Huawei/iot_link/network/dtls/mbedtls/mbedtls-2.16.2/library\ecdsa.c ****     ECDSA_VALIDATE_RET( ctx  != NULL );
 1489              		.loc 1 725 1 is_stmt 1 view -0
 1490              		.cfi_startproc
 1491              		@ args = 4, pretend = 0, frame = 0
 1492              		@ frame_needed = 0, uses_anonymous_args = 0
 726:D:/fchai/work/i-cube/I-CUBE-HUAWEI/Middlewares/Third_Party/Huawei/iot_link/network/dtls/mbedtls/mbedtls-2.16.2/library\ecdsa.c ****     ECDSA_VALIDATE_RET( hash != NULL );
 1493              		.loc 1 726 5 view .LVU486
 726:D:/fchai/work/i-cube/I-CUBE-HUAWEI/Middlewares/Third_Party/Huawei/iot_link/network/dtls/mbedtls/mbedtls-2.16.2/library\ecdsa.c ****     ECDSA_VALIDATE_RET( hash != NULL );
 1494              		.loc 1 726 5 view .LVU487
 726:D:/fchai/work/i-cube/I-CUBE-HUAWEI/Middlewares/Third_Party/Huawei/iot_link/network/dtls/mbedtls/mbedtls-2.16.2/library\ecdsa.c ****     ECDSA_VALIDATE_RET( hash != NULL );
 1495              		.loc 1 726 5 view .LVU488
 727:D:/fchai/work/i-cube/I-CUBE-HUAWEI/Middlewares/Third_Party/Huawei/iot_link/network/dtls/mbedtls/mbedtls-2.16.2/library\ecdsa.c ****     ECDSA_VALIDATE_RET( sig  != NULL );
 1496              		.loc 1 727 5 view .LVU489
 727:D:/fchai/work/i-cube/I-CUBE-HUAWEI/Middlewares/Third_Party/Huawei/iot_link/network/dtls/mbedtls/mbedtls-2.16.2/library\ecdsa.c ****     ECDSA_VALIDATE_RET( sig  != NULL );
 1497              		.loc 1 727 5 view .LVU490
 727:D:/fchai/work/i-cube/I-CUBE-HUAWEI/Middlewares/Third_Party/Huawei/iot_link/network/dtls/mbedtls/mbedtls-2.16.2/library\ecdsa.c ****     ECDSA_VALIDATE_RET( sig  != NULL );
 1498              		.loc 1 727 5 view .LVU491
 728:D:/fchai/work/i-cube/I-CUBE-HUAWEI/Middlewares/Third_Party/Huawei/iot_link/network/dtls/mbedtls/mbedtls-2.16.2/library\ecdsa.c ****     return( mbedtls_ecdsa_read_signature_restartable(
 1499              		.loc 1 728 5 view .LVU492
 728:D:/fchai/work/i-cube/I-CUBE-HUAWEI/Middlewares/Third_Party/Huawei/iot_link/network/dtls/mbedtls/mbedtls-2.16.2/library\ecdsa.c ****     return( mbedtls_ecdsa_read_signature_restartable(
 1500              		.loc 1 728 5 view .LVU493
 728:D:/fchai/work/i-cube/I-CUBE-HUAWEI/Middlewares/Third_Party/Huawei/iot_link/network/dtls/mbedtls/mbedtls-2.16.2/library\ecdsa.c ****     return( mbedtls_ecdsa_read_signature_restartable(
 1501              		.loc 1 728 5 view .LVU494
 729:D:/fchai/work/i-cube/I-CUBE-HUAWEI/Middlewares/Third_Party/Huawei/iot_link/network/dtls/mbedtls/mbedtls-2.16.2/library\ecdsa.c ****                 ctx, hash, hlen, sig, slen, NULL ) );
ARM GAS  T:\msys\tmp\ccyWqaJb.s 			page 46


 1502              		.loc 1 729 5 view .LVU495
 725:D:/fchai/work/i-cube/I-CUBE-HUAWEI/Middlewares/Third_Party/Huawei/iot_link/network/dtls/mbedtls/mbedtls-2.16.2/library\ecdsa.c ****     ECDSA_VALIDATE_RET( ctx  != NULL );
 1503              		.loc 1 725 1 is_stmt 0 view .LVU496
 1504 0000 10B5     		push	{r4, lr}
 1505              	.LCFI24:
 1506              		.cfi_def_cfa_offset 8
 1507              		.cfi_offset 4, -8
 1508              		.cfi_offset 14, -4
 1509 0002 82B0     		sub	sp, sp, #8
 1510              	.LCFI25:
 1511              		.cfi_def_cfa_offset 16
 725:D:/fchai/work/i-cube/I-CUBE-HUAWEI/Middlewares/Third_Party/Huawei/iot_link/network/dtls/mbedtls/mbedtls-2.16.2/library\ecdsa.c ****     ECDSA_VALIDATE_RET( ctx  != NULL );
 1512              		.loc 1 725 1 view .LVU497
 1513 0004 049C     		ldr	r4, [sp, #16]
 729:D:/fchai/work/i-cube/I-CUBE-HUAWEI/Middlewares/Third_Party/Huawei/iot_link/network/dtls/mbedtls/mbedtls-2.16.2/library\ecdsa.c ****                 ctx, hash, hlen, sig, slen, NULL ) );
 1514              		.loc 1 729 13 view .LVU498
 1515 0006 0094     		str	r4, [sp]
 1516 0008 0024     		movs	r4, #0
 1517 000a 0194     		str	r4, [sp, #4]
 1518 000c FFF7FEFF 		bl	mbedtls_ecdsa_read_signature_restartable
 1519              	.LVL198:
 731:D:/fchai/work/i-cube/I-CUBE-HUAWEI/Middlewares/Third_Party/Huawei/iot_link/network/dtls/mbedtls/mbedtls-2.16.2/library\ecdsa.c **** 
 1520              		.loc 1 731 1 view .LVU499
 1521 0010 02B0     		add	sp, sp, #8
 1522              	.LCFI26:
 1523              		.cfi_def_cfa_offset 8
 1524              		@ sp needed
 1525 0012 10BD     		pop	{r4, pc}
 731:D:/fchai/work/i-cube/I-CUBE-HUAWEI/Middlewares/Third_Party/Huawei/iot_link/network/dtls/mbedtls/mbedtls-2.16.2/library\ecdsa.c **** 
 1526              		.loc 1 731 1 view .LVU500
 1527              		.cfi_endproc
 1528              	.LFE11:
 1530              		.section	.text.mbedtls_ecdsa_genkey,"ax",%progbits
 1531              		.align	1
 1532              		.p2align 2,,3
 1533              		.global	mbedtls_ecdsa_genkey
 1534              		.syntax unified
 1535              		.thumb
 1536              		.thumb_func
 1537              		.fpu fpv4-sp-d16
 1539              	mbedtls_ecdsa_genkey:
 1540              	.LVL199:
 1541              	.LFB13:
 795:D:/fchai/work/i-cube/I-CUBE-HUAWEI/Middlewares/Third_Party/Huawei/iot_link/network/dtls/mbedtls/mbedtls-2.16.2/library\ecdsa.c **** 
 796:D:/fchai/work/i-cube/I-CUBE-HUAWEI/Middlewares/Third_Party/Huawei/iot_link/network/dtls/mbedtls/mbedtls-2.16.2/library\ecdsa.c **** #if !defined(MBEDTLS_ECDSA_GENKEY_ALT)
 797:D:/fchai/work/i-cube/I-CUBE-HUAWEI/Middlewares/Third_Party/Huawei/iot_link/network/dtls/mbedtls/mbedtls-2.16.2/library\ecdsa.c **** /*
