ARM GAS  T:\msys\tmp\ccQXiRIu.s 			page 1


   1              		.cpu cortex-m4
   2              		.eabi_attribute 27, 1
   3              		.eabi_attribute 28, 1
   4              		.eabi_attribute 20, 1
   5              		.eabi_attribute 21, 1
   6              		.eabi_attribute 23, 3
   7              		.eabi_attribute 24, 1
   8              		.eabi_attribute 25, 1
   9              		.eabi_attribute 26, 1
  10              		.eabi_attribute 30, 2
  11              		.eabi_attribute 34, 1
  12              		.eabi_attribute 18, 4
  13              		.file	"entropy.c"
  14              		.text
  15              	.Ltext0:
  16              		.cfi_sections	.debug_frame
  17              		.section	.text.entropy_update,"ax",%progbits
  18              		.align	1
  19              		.p2align 2,,3
  20              		.arch armv7e-m
  21              		.syntax unified
  22              		.thumb
  23              		.thumb_func
  24              		.fpu fpv4-sp-d16
  26              	entropy_update:
  27              	.LVL0:
  28              	.LFB3:
  29              		.file 1 "D:/fchai/work/i-cube/I-CUBE-HUAWEI/Middlewares/Third_Party/Huawei/iot_link/network/dtls/m
   1:D:/fchai/work/i-cube/I-CUBE-HUAWEI/Middlewares/Third_Party/Huawei/iot_link/network/dtls/mbedtls/mbedtls-2.16.2/library\entropy.c **** /*
   2:D:/fchai/work/i-cube/I-CUBE-HUAWEI/Middlewares/Third_Party/Huawei/iot_link/network/dtls/mbedtls/mbedtls-2.16.2/library\entropy.c ****  *  Entropy accumulator implementation
   3:D:/fchai/work/i-cube/I-CUBE-HUAWEI/Middlewares/Third_Party/Huawei/iot_link/network/dtls/mbedtls/mbedtls-2.16.2/library\entropy.c ****  *
   4:D:/fchai/work/i-cube/I-CUBE-HUAWEI/Middlewares/Third_Party/Huawei/iot_link/network/dtls/mbedtls/mbedtls-2.16.2/library\entropy.c ****  *  Copyright (C) 2006-2016, ARM Limited, All Rights Reserved
   5:D:/fchai/work/i-cube/I-CUBE-HUAWEI/Middlewares/Third_Party/Huawei/iot_link/network/dtls/mbedtls/mbedtls-2.16.2/library\entropy.c ****  *  SPDX-License-Identifier: Apache-2.0
   6:D:/fchai/work/i-cube/I-CUBE-HUAWEI/Middlewares/Third_Party/Huawei/iot_link/network/dtls/mbedtls/mbedtls-2.16.2/library\entropy.c ****  *
   7:D:/fchai/work/i-cube/I-CUBE-HUAWEI/Middlewares/Third_Party/Huawei/iot_link/network/dtls/mbedtls/mbedtls-2.16.2/library\entropy.c ****  *  Licensed under the Apache License, Version 2.0 (the "License"); you may
   8:D:/fchai/work/i-cube/I-CUBE-HUAWEI/Middlewares/Third_Party/Huawei/iot_link/network/dtls/mbedtls/mbedtls-2.16.2/library\entropy.c ****  *  not use this file except in compliance with the License.
   9:D:/fchai/work/i-cube/I-CUBE-HUAWEI/Middlewares/Third_Party/Huawei/iot_link/network/dtls/mbedtls/mbedtls-2.16.2/library\entropy.c ****  *  You may obtain a copy of the License at
  10:D:/fchai/work/i-cube/I-CUBE-HUAWEI/Middlewares/Third_Party/Huawei/iot_link/network/dtls/mbedtls/mbedtls-2.16.2/library\entropy.c ****  *
  11:D:/fchai/work/i-cube/I-CUBE-HUAWEI/Middlewares/Third_Party/Huawei/iot_link/network/dtls/mbedtls/mbedtls-2.16.2/library\entropy.c ****  *  http://www.apache.org/licenses/LICENSE-2.0
  12:D:/fchai/work/i-cube/I-CUBE-HUAWEI/Middlewares/Third_Party/Huawei/iot_link/network/dtls/mbedtls/mbedtls-2.16.2/library\entropy.c ****  *
  13:D:/fchai/work/i-cube/I-CUBE-HUAWEI/Middlewares/Third_Party/Huawei/iot_link/network/dtls/mbedtls/mbedtls-2.16.2/library\entropy.c ****  *  Unless required by applicable law or agreed to in writing, software
  14:D:/fchai/work/i-cube/I-CUBE-HUAWEI/Middlewares/Third_Party/Huawei/iot_link/network/dtls/mbedtls/mbedtls-2.16.2/library\entropy.c ****  *  distributed under the License is distributed on an "AS IS" BASIS, WITHOUT
  15:D:/fchai/work/i-cube/I-CUBE-HUAWEI/Middlewares/Third_Party/Huawei/iot_link/network/dtls/mbedtls/mbedtls-2.16.2/library\entropy.c ****  *  WARRANTIES OR CONDITIONS OF ANY KIND, either express or implied.
  16:D:/fchai/work/i-cube/I-CUBE-HUAWEI/Middlewares/Third_Party/Huawei/iot_link/network/dtls/mbedtls/mbedtls-2.16.2/library\entropy.c ****  *  See the License for the specific language governing permissions and
  17:D:/fchai/work/i-cube/I-CUBE-HUAWEI/Middlewares/Third_Party/Huawei/iot_link/network/dtls/mbedtls/mbedtls-2.16.2/library\entropy.c ****  *  limitations under the License.
  18:D:/fchai/work/i-cube/I-CUBE-HUAWEI/Middlewares/Third_Party/Huawei/iot_link/network/dtls/mbedtls/mbedtls-2.16.2/library\entropy.c ****  *
  19:D:/fchai/work/i-cube/I-CUBE-HUAWEI/Middlewares/Third_Party/Huawei/iot_link/network/dtls/mbedtls/mbedtls-2.16.2/library\entropy.c ****  *  This file is part of mbed TLS (https://tls.mbed.org)
  20:D:/fchai/work/i-cube/I-CUBE-HUAWEI/Middlewares/Third_Party/Huawei/iot_link/network/dtls/mbedtls/mbedtls-2.16.2/library\entropy.c ****  */
  21:D:/fchai/work/i-cube/I-CUBE-HUAWEI/Middlewares/Third_Party/Huawei/iot_link/network/dtls/mbedtls/mbedtls-2.16.2/library\entropy.c **** 
  22:D:/fchai/work/i-cube/I-CUBE-HUAWEI/Middlewares/Third_Party/Huawei/iot_link/network/dtls/mbedtls/mbedtls-2.16.2/library\entropy.c **** #if !defined(MBEDTLS_CONFIG_FILE)
  23:D:/fchai/work/i-cube/I-CUBE-HUAWEI/Middlewares/Third_Party/Huawei/iot_link/network/dtls/mbedtls/mbedtls-2.16.2/library\entropy.c **** #include "mbedtls/config.h"
  24:D:/fchai/work/i-cube/I-CUBE-HUAWEI/Middlewares/Third_Party/Huawei/iot_link/network/dtls/mbedtls/mbedtls-2.16.2/library\entropy.c **** #else
  25:D:/fchai/work/i-cube/I-CUBE-HUAWEI/Middlewares/Third_Party/Huawei/iot_link/network/dtls/mbedtls/mbedtls-2.16.2/library\entropy.c **** #include MBEDTLS_CONFIG_FILE
  26:D:/fchai/work/i-cube/I-CUBE-HUAWEI/Middlewares/Third_Party/Huawei/iot_link/network/dtls/mbedtls/mbedtls-2.16.2/library\entropy.c **** #endif
  27:D:/fchai/work/i-cube/I-CUBE-HUAWEI/Middlewares/Third_Party/Huawei/iot_link/network/dtls/mbedtls/mbedtls-2.16.2/library\entropy.c **** 
  28:D:/fchai/work/i-cube/I-CUBE-HUAWEI/Middlewares/Third_Party/Huawei/iot_link/network/dtls/mbedtls/mbedtls-2.16.2/library\entropy.c **** #if defined(MBEDTLS_ENTROPY_C)
  29:D:/fchai/work/i-cube/I-CUBE-HUAWEI/Middlewares/Third_Party/Huawei/iot_link/network/dtls/mbedtls/mbedtls-2.16.2/library\entropy.c **** 
ARM GAS  T:\msys\tmp\ccQXiRIu.s 			page 2


  30:D:/fchai/work/i-cube/I-CUBE-HUAWEI/Middlewares/Third_Party/Huawei/iot_link/network/dtls/mbedtls/mbedtls-2.16.2/library\entropy.c **** #if defined(MBEDTLS_TEST_NULL_ENTROPY)
  31:D:/fchai/work/i-cube/I-CUBE-HUAWEI/Middlewares/Third_Party/Huawei/iot_link/network/dtls/mbedtls/mbedtls-2.16.2/library\entropy.c **** #warning "**** WARNING!  MBEDTLS_TEST_NULL_ENTROPY defined! "
  32:D:/fchai/work/i-cube/I-CUBE-HUAWEI/Middlewares/Third_Party/Huawei/iot_link/network/dtls/mbedtls/mbedtls-2.16.2/library\entropy.c **** #warning "**** THIS BUILD HAS NO DEFINED ENTROPY SOURCES "
  33:D:/fchai/work/i-cube/I-CUBE-HUAWEI/Middlewares/Third_Party/Huawei/iot_link/network/dtls/mbedtls/mbedtls-2.16.2/library\entropy.c **** #warning "**** THIS BUILD IS *NOT* SUITABLE FOR PRODUCTION USE "
  34:D:/fchai/work/i-cube/I-CUBE-HUAWEI/Middlewares/Third_Party/Huawei/iot_link/network/dtls/mbedtls/mbedtls-2.16.2/library\entropy.c **** #endif
  35:D:/fchai/work/i-cube/I-CUBE-HUAWEI/Middlewares/Third_Party/Huawei/iot_link/network/dtls/mbedtls/mbedtls-2.16.2/library\entropy.c **** 
  36:D:/fchai/work/i-cube/I-CUBE-HUAWEI/Middlewares/Third_Party/Huawei/iot_link/network/dtls/mbedtls/mbedtls-2.16.2/library\entropy.c **** #include "mbedtls/entropy.h"
  37:D:/fchai/work/i-cube/I-CUBE-HUAWEI/Middlewares/Third_Party/Huawei/iot_link/network/dtls/mbedtls/mbedtls-2.16.2/library\entropy.c **** #include "mbedtls/entropy_poll.h"
  38:D:/fchai/work/i-cube/I-CUBE-HUAWEI/Middlewares/Third_Party/Huawei/iot_link/network/dtls/mbedtls/mbedtls-2.16.2/library\entropy.c **** #include "mbedtls/platform_util.h"
  39:D:/fchai/work/i-cube/I-CUBE-HUAWEI/Middlewares/Third_Party/Huawei/iot_link/network/dtls/mbedtls/mbedtls-2.16.2/library\entropy.c **** 
  40:D:/fchai/work/i-cube/I-CUBE-HUAWEI/Middlewares/Third_Party/Huawei/iot_link/network/dtls/mbedtls/mbedtls-2.16.2/library\entropy.c **** #include <string.h>
  41:D:/fchai/work/i-cube/I-CUBE-HUAWEI/Middlewares/Third_Party/Huawei/iot_link/network/dtls/mbedtls/mbedtls-2.16.2/library\entropy.c **** 
  42:D:/fchai/work/i-cube/I-CUBE-HUAWEI/Middlewares/Third_Party/Huawei/iot_link/network/dtls/mbedtls/mbedtls-2.16.2/library\entropy.c **** #if defined(MBEDTLS_FS_IO)
  43:D:/fchai/work/i-cube/I-CUBE-HUAWEI/Middlewares/Third_Party/Huawei/iot_link/network/dtls/mbedtls/mbedtls-2.16.2/library\entropy.c **** #include <stdio.h>
  44:D:/fchai/work/i-cube/I-CUBE-HUAWEI/Middlewares/Third_Party/Huawei/iot_link/network/dtls/mbedtls/mbedtls-2.16.2/library\entropy.c **** #endif
  45:D:/fchai/work/i-cube/I-CUBE-HUAWEI/Middlewares/Third_Party/Huawei/iot_link/network/dtls/mbedtls/mbedtls-2.16.2/library\entropy.c **** 
  46:D:/fchai/work/i-cube/I-CUBE-HUAWEI/Middlewares/Third_Party/Huawei/iot_link/network/dtls/mbedtls/mbedtls-2.16.2/library\entropy.c **** #if defined(MBEDTLS_ENTROPY_NV_SEED)
  47:D:/fchai/work/i-cube/I-CUBE-HUAWEI/Middlewares/Third_Party/Huawei/iot_link/network/dtls/mbedtls/mbedtls-2.16.2/library\entropy.c **** #include "mbedtls/platform.h"
  48:D:/fchai/work/i-cube/I-CUBE-HUAWEI/Middlewares/Third_Party/Huawei/iot_link/network/dtls/mbedtls/mbedtls-2.16.2/library\entropy.c **** #endif
  49:D:/fchai/work/i-cube/I-CUBE-HUAWEI/Middlewares/Third_Party/Huawei/iot_link/network/dtls/mbedtls/mbedtls-2.16.2/library\entropy.c **** 
  50:D:/fchai/work/i-cube/I-CUBE-HUAWEI/Middlewares/Third_Party/Huawei/iot_link/network/dtls/mbedtls/mbedtls-2.16.2/library\entropy.c **** #if defined(MBEDTLS_SELF_TEST)
  51:D:/fchai/work/i-cube/I-CUBE-HUAWEI/Middlewares/Third_Party/Huawei/iot_link/network/dtls/mbedtls/mbedtls-2.16.2/library\entropy.c **** #if defined(MBEDTLS_PLATFORM_C)
  52:D:/fchai/work/i-cube/I-CUBE-HUAWEI/Middlewares/Third_Party/Huawei/iot_link/network/dtls/mbedtls/mbedtls-2.16.2/library\entropy.c **** #include "mbedtls/platform.h"
  53:D:/fchai/work/i-cube/I-CUBE-HUAWEI/Middlewares/Third_Party/Huawei/iot_link/network/dtls/mbedtls/mbedtls-2.16.2/library\entropy.c **** #else
  54:D:/fchai/work/i-cube/I-CUBE-HUAWEI/Middlewares/Third_Party/Huawei/iot_link/network/dtls/mbedtls/mbedtls-2.16.2/library\entropy.c **** #include <stdio.h>
  55:D:/fchai/work/i-cube/I-CUBE-HUAWEI/Middlewares/Third_Party/Huawei/iot_link/network/dtls/mbedtls/mbedtls-2.16.2/library\entropy.c **** #define mbedtls_printf     printf
  56:D:/fchai/work/i-cube/I-CUBE-HUAWEI/Middlewares/Third_Party/Huawei/iot_link/network/dtls/mbedtls/mbedtls-2.16.2/library\entropy.c **** #endif /* MBEDTLS_PLATFORM_C */
  57:D:/fchai/work/i-cube/I-CUBE-HUAWEI/Middlewares/Third_Party/Huawei/iot_link/network/dtls/mbedtls/mbedtls-2.16.2/library\entropy.c **** #endif /* MBEDTLS_SELF_TEST */
  58:D:/fchai/work/i-cube/I-CUBE-HUAWEI/Middlewares/Third_Party/Huawei/iot_link/network/dtls/mbedtls/mbedtls-2.16.2/library\entropy.c **** 
  59:D:/fchai/work/i-cube/I-CUBE-HUAWEI/Middlewares/Third_Party/Huawei/iot_link/network/dtls/mbedtls/mbedtls-2.16.2/library\entropy.c **** #if defined(MBEDTLS_HAVEGE_C)
  60:D:/fchai/work/i-cube/I-CUBE-HUAWEI/Middlewares/Third_Party/Huawei/iot_link/network/dtls/mbedtls/mbedtls-2.16.2/library\entropy.c **** #include "mbedtls/havege.h"
  61:D:/fchai/work/i-cube/I-CUBE-HUAWEI/Middlewares/Third_Party/Huawei/iot_link/network/dtls/mbedtls/mbedtls-2.16.2/library\entropy.c **** #endif
  62:D:/fchai/work/i-cube/I-CUBE-HUAWEI/Middlewares/Third_Party/Huawei/iot_link/network/dtls/mbedtls/mbedtls-2.16.2/library\entropy.c **** 
  63:D:/fchai/work/i-cube/I-CUBE-HUAWEI/Middlewares/Third_Party/Huawei/iot_link/network/dtls/mbedtls/mbedtls-2.16.2/library\entropy.c **** #define ENTROPY_MAX_LOOP    256     /**< Maximum amount to loop before error */
  64:D:/fchai/work/i-cube/I-CUBE-HUAWEI/Middlewares/Third_Party/Huawei/iot_link/network/dtls/mbedtls/mbedtls-2.16.2/library\entropy.c **** 
  65:D:/fchai/work/i-cube/I-CUBE-HUAWEI/Middlewares/Third_Party/Huawei/iot_link/network/dtls/mbedtls/mbedtls-2.16.2/library\entropy.c **** void mbedtls_entropy_init( mbedtls_entropy_context *ctx )
  66:D:/fchai/work/i-cube/I-CUBE-HUAWEI/Middlewares/Third_Party/Huawei/iot_link/network/dtls/mbedtls/mbedtls-2.16.2/library\entropy.c **** {
  67:D:/fchai/work/i-cube/I-CUBE-HUAWEI/Middlewares/Third_Party/Huawei/iot_link/network/dtls/mbedtls/mbedtls-2.16.2/library\entropy.c ****     ctx->source_count = 0;
  68:D:/fchai/work/i-cube/I-CUBE-HUAWEI/Middlewares/Third_Party/Huawei/iot_link/network/dtls/mbedtls/mbedtls-2.16.2/library\entropy.c ****     memset( ctx->source, 0, sizeof( ctx->source ) );
  69:D:/fchai/work/i-cube/I-CUBE-HUAWEI/Middlewares/Third_Party/Huawei/iot_link/network/dtls/mbedtls/mbedtls-2.16.2/library\entropy.c **** 
  70:D:/fchai/work/i-cube/I-CUBE-HUAWEI/Middlewares/Third_Party/Huawei/iot_link/network/dtls/mbedtls/mbedtls-2.16.2/library\entropy.c **** #if defined(MBEDTLS_THREADING_C)
  71:D:/fchai/work/i-cube/I-CUBE-HUAWEI/Middlewares/Third_Party/Huawei/iot_link/network/dtls/mbedtls/mbedtls-2.16.2/library\entropy.c ****     mbedtls_mutex_init( &ctx->mutex );
  72:D:/fchai/work/i-cube/I-CUBE-HUAWEI/Middlewares/Third_Party/Huawei/iot_link/network/dtls/mbedtls/mbedtls-2.16.2/library\entropy.c **** #endif
  73:D:/fchai/work/i-cube/I-CUBE-HUAWEI/Middlewares/Third_Party/Huawei/iot_link/network/dtls/mbedtls/mbedtls-2.16.2/library\entropy.c **** 
  74:D:/fchai/work/i-cube/I-CUBE-HUAWEI/Middlewares/Third_Party/Huawei/iot_link/network/dtls/mbedtls/mbedtls-2.16.2/library\entropy.c ****     ctx->accumulator_started = 0;
  75:D:/fchai/work/i-cube/I-CUBE-HUAWEI/Middlewares/Third_Party/Huawei/iot_link/network/dtls/mbedtls/mbedtls-2.16.2/library\entropy.c **** #if defined(MBEDTLS_ENTROPY_SHA512_ACCUMULATOR)
  76:D:/fchai/work/i-cube/I-CUBE-HUAWEI/Middlewares/Third_Party/Huawei/iot_link/network/dtls/mbedtls/mbedtls-2.16.2/library\entropy.c ****     mbedtls_sha512_init( &ctx->accumulator );
  77:D:/fchai/work/i-cube/I-CUBE-HUAWEI/Middlewares/Third_Party/Huawei/iot_link/network/dtls/mbedtls/mbedtls-2.16.2/library\entropy.c **** #else
  78:D:/fchai/work/i-cube/I-CUBE-HUAWEI/Middlewares/Third_Party/Huawei/iot_link/network/dtls/mbedtls/mbedtls-2.16.2/library\entropy.c ****     mbedtls_sha256_init( &ctx->accumulator );
  79:D:/fchai/work/i-cube/I-CUBE-HUAWEI/Middlewares/Third_Party/Huawei/iot_link/network/dtls/mbedtls/mbedtls-2.16.2/library\entropy.c **** #endif
  80:D:/fchai/work/i-cube/I-CUBE-HUAWEI/Middlewares/Third_Party/Huawei/iot_link/network/dtls/mbedtls/mbedtls-2.16.2/library\entropy.c **** #if defined(MBEDTLS_HAVEGE_C)
  81:D:/fchai/work/i-cube/I-CUBE-HUAWEI/Middlewares/Third_Party/Huawei/iot_link/network/dtls/mbedtls/mbedtls-2.16.2/library\entropy.c ****     mbedtls_havege_init( &ctx->havege_data );
  82:D:/fchai/work/i-cube/I-CUBE-HUAWEI/Middlewares/Third_Party/Huawei/iot_link/network/dtls/mbedtls/mbedtls-2.16.2/library\entropy.c **** #endif
  83:D:/fchai/work/i-cube/I-CUBE-HUAWEI/Middlewares/Third_Party/Huawei/iot_link/network/dtls/mbedtls/mbedtls-2.16.2/library\entropy.c **** 
  84:D:/fchai/work/i-cube/I-CUBE-HUAWEI/Middlewares/Third_Party/Huawei/iot_link/network/dtls/mbedtls/mbedtls-2.16.2/library\entropy.c ****     /* Reminder: Update ENTROPY_HAVE_STRONG in the test files
  85:D:/fchai/work/i-cube/I-CUBE-HUAWEI/Middlewares/Third_Party/Huawei/iot_link/network/dtls/mbedtls/mbedtls-2.16.2/library\entropy.c ****      *           when adding more strong entropy sources here. */
  86:D:/fchai/work/i-cube/I-CUBE-HUAWEI/Middlewares/Third_Party/Huawei/iot_link/network/dtls/mbedtls/mbedtls-2.16.2/library\entropy.c **** 
ARM GAS  T:\msys\tmp\ccQXiRIu.s 			page 3


  87:D:/fchai/work/i-cube/I-CUBE-HUAWEI/Middlewares/Third_Party/Huawei/iot_link/network/dtls/mbedtls/mbedtls-2.16.2/library\entropy.c **** #if defined(MBEDTLS_TEST_NULL_ENTROPY)
  88:D:/fchai/work/i-cube/I-CUBE-HUAWEI/Middlewares/Third_Party/Huawei/iot_link/network/dtls/mbedtls/mbedtls-2.16.2/library\entropy.c ****     mbedtls_entropy_add_source( ctx, mbedtls_null_entropy_poll, NULL,
  89:D:/fchai/work/i-cube/I-CUBE-HUAWEI/Middlewares/Third_Party/Huawei/iot_link/network/dtls/mbedtls/mbedtls-2.16.2/library\entropy.c ****                                 1, MBEDTLS_ENTROPY_SOURCE_STRONG );
  90:D:/fchai/work/i-cube/I-CUBE-HUAWEI/Middlewares/Third_Party/Huawei/iot_link/network/dtls/mbedtls/mbedtls-2.16.2/library\entropy.c **** #endif
  91:D:/fchai/work/i-cube/I-CUBE-HUAWEI/Middlewares/Third_Party/Huawei/iot_link/network/dtls/mbedtls/mbedtls-2.16.2/library\entropy.c **** 
  92:D:/fchai/work/i-cube/I-CUBE-HUAWEI/Middlewares/Third_Party/Huawei/iot_link/network/dtls/mbedtls/mbedtls-2.16.2/library\entropy.c **** #if !defined(MBEDTLS_NO_DEFAULT_ENTROPY_SOURCES)
  93:D:/fchai/work/i-cube/I-CUBE-HUAWEI/Middlewares/Third_Party/Huawei/iot_link/network/dtls/mbedtls/mbedtls-2.16.2/library\entropy.c **** #if !defined(MBEDTLS_NO_PLATFORM_ENTROPY)
  94:D:/fchai/work/i-cube/I-CUBE-HUAWEI/Middlewares/Third_Party/Huawei/iot_link/network/dtls/mbedtls/mbedtls-2.16.2/library\entropy.c ****     mbedtls_entropy_add_source( ctx, mbedtls_platform_entropy_poll, NULL,
  95:D:/fchai/work/i-cube/I-CUBE-HUAWEI/Middlewares/Third_Party/Huawei/iot_link/network/dtls/mbedtls/mbedtls-2.16.2/library\entropy.c ****                                 MBEDTLS_ENTROPY_MIN_PLATFORM,
  96:D:/fchai/work/i-cube/I-CUBE-HUAWEI/Middlewares/Third_Party/Huawei/iot_link/network/dtls/mbedtls/mbedtls-2.16.2/library\entropy.c ****                                 MBEDTLS_ENTROPY_SOURCE_STRONG );
  97:D:/fchai/work/i-cube/I-CUBE-HUAWEI/Middlewares/Third_Party/Huawei/iot_link/network/dtls/mbedtls/mbedtls-2.16.2/library\entropy.c **** #endif
  98:D:/fchai/work/i-cube/I-CUBE-HUAWEI/Middlewares/Third_Party/Huawei/iot_link/network/dtls/mbedtls/mbedtls-2.16.2/library\entropy.c **** #if defined(MBEDTLS_TIMING_C)
  99:D:/fchai/work/i-cube/I-CUBE-HUAWEI/Middlewares/Third_Party/Huawei/iot_link/network/dtls/mbedtls/mbedtls-2.16.2/library\entropy.c ****     mbedtls_entropy_add_source( ctx, mbedtls_hardclock_poll, NULL,
 100:D:/fchai/work/i-cube/I-CUBE-HUAWEI/Middlewares/Third_Party/Huawei/iot_link/network/dtls/mbedtls/mbedtls-2.16.2/library\entropy.c ****                                 MBEDTLS_ENTROPY_MIN_HARDCLOCK,
 101:D:/fchai/work/i-cube/I-CUBE-HUAWEI/Middlewares/Third_Party/Huawei/iot_link/network/dtls/mbedtls/mbedtls-2.16.2/library\entropy.c ****                                 MBEDTLS_ENTROPY_SOURCE_WEAK );
 102:D:/fchai/work/i-cube/I-CUBE-HUAWEI/Middlewares/Third_Party/Huawei/iot_link/network/dtls/mbedtls/mbedtls-2.16.2/library\entropy.c **** #endif
 103:D:/fchai/work/i-cube/I-CUBE-HUAWEI/Middlewares/Third_Party/Huawei/iot_link/network/dtls/mbedtls/mbedtls-2.16.2/library\entropy.c **** #if defined(MBEDTLS_HAVEGE_C)
 104:D:/fchai/work/i-cube/I-CUBE-HUAWEI/Middlewares/Third_Party/Huawei/iot_link/network/dtls/mbedtls/mbedtls-2.16.2/library\entropy.c ****     mbedtls_entropy_add_source( ctx, mbedtls_havege_poll, &ctx->havege_data,
 105:D:/fchai/work/i-cube/I-CUBE-HUAWEI/Middlewares/Third_Party/Huawei/iot_link/network/dtls/mbedtls/mbedtls-2.16.2/library\entropy.c ****                                 MBEDTLS_ENTROPY_MIN_HAVEGE,
 106:D:/fchai/work/i-cube/I-CUBE-HUAWEI/Middlewares/Third_Party/Huawei/iot_link/network/dtls/mbedtls/mbedtls-2.16.2/library\entropy.c ****                                 MBEDTLS_ENTROPY_SOURCE_STRONG );
 107:D:/fchai/work/i-cube/I-CUBE-HUAWEI/Middlewares/Third_Party/Huawei/iot_link/network/dtls/mbedtls/mbedtls-2.16.2/library\entropy.c **** #endif
 108:D:/fchai/work/i-cube/I-CUBE-HUAWEI/Middlewares/Third_Party/Huawei/iot_link/network/dtls/mbedtls/mbedtls-2.16.2/library\entropy.c **** #if defined(MBEDTLS_ENTROPY_HARDWARE_ALT)
 109:D:/fchai/work/i-cube/I-CUBE-HUAWEI/Middlewares/Third_Party/Huawei/iot_link/network/dtls/mbedtls/mbedtls-2.16.2/library\entropy.c ****     mbedtls_entropy_add_source( ctx, mbedtls_hardware_poll, NULL,
 110:D:/fchai/work/i-cube/I-CUBE-HUAWEI/Middlewares/Third_Party/Huawei/iot_link/network/dtls/mbedtls/mbedtls-2.16.2/library\entropy.c ****                                 MBEDTLS_ENTROPY_MIN_HARDWARE,
 111:D:/fchai/work/i-cube/I-CUBE-HUAWEI/Middlewares/Third_Party/Huawei/iot_link/network/dtls/mbedtls/mbedtls-2.16.2/library\entropy.c ****                                 MBEDTLS_ENTROPY_SOURCE_STRONG );
 112:D:/fchai/work/i-cube/I-CUBE-HUAWEI/Middlewares/Third_Party/Huawei/iot_link/network/dtls/mbedtls/mbedtls-2.16.2/library\entropy.c **** #endif
 113:D:/fchai/work/i-cube/I-CUBE-HUAWEI/Middlewares/Third_Party/Huawei/iot_link/network/dtls/mbedtls/mbedtls-2.16.2/library\entropy.c **** #if defined(MBEDTLS_ENTROPY_NV_SEED)
 114:D:/fchai/work/i-cube/I-CUBE-HUAWEI/Middlewares/Third_Party/Huawei/iot_link/network/dtls/mbedtls/mbedtls-2.16.2/library\entropy.c ****     mbedtls_entropy_add_source( ctx, mbedtls_nv_seed_poll, NULL,
 115:D:/fchai/work/i-cube/I-CUBE-HUAWEI/Middlewares/Third_Party/Huawei/iot_link/network/dtls/mbedtls/mbedtls-2.16.2/library\entropy.c ****                                 MBEDTLS_ENTROPY_BLOCK_SIZE,
 116:D:/fchai/work/i-cube/I-CUBE-HUAWEI/Middlewares/Third_Party/Huawei/iot_link/network/dtls/mbedtls/mbedtls-2.16.2/library\entropy.c ****                                 MBEDTLS_ENTROPY_SOURCE_STRONG );
 117:D:/fchai/work/i-cube/I-CUBE-HUAWEI/Middlewares/Third_Party/Huawei/iot_link/network/dtls/mbedtls/mbedtls-2.16.2/library\entropy.c ****     ctx->initial_entropy_run = 0;
 118:D:/fchai/work/i-cube/I-CUBE-HUAWEI/Middlewares/Third_Party/Huawei/iot_link/network/dtls/mbedtls/mbedtls-2.16.2/library\entropy.c **** #endif
 119:D:/fchai/work/i-cube/I-CUBE-HUAWEI/Middlewares/Third_Party/Huawei/iot_link/network/dtls/mbedtls/mbedtls-2.16.2/library\entropy.c **** #endif /* MBEDTLS_NO_DEFAULT_ENTROPY_SOURCES */
 120:D:/fchai/work/i-cube/I-CUBE-HUAWEI/Middlewares/Third_Party/Huawei/iot_link/network/dtls/mbedtls/mbedtls-2.16.2/library\entropy.c **** }
 121:D:/fchai/work/i-cube/I-CUBE-HUAWEI/Middlewares/Third_Party/Huawei/iot_link/network/dtls/mbedtls/mbedtls-2.16.2/library\entropy.c **** 
 122:D:/fchai/work/i-cube/I-CUBE-HUAWEI/Middlewares/Third_Party/Huawei/iot_link/network/dtls/mbedtls/mbedtls-2.16.2/library\entropy.c **** void mbedtls_entropy_free( mbedtls_entropy_context *ctx )
 123:D:/fchai/work/i-cube/I-CUBE-HUAWEI/Middlewares/Third_Party/Huawei/iot_link/network/dtls/mbedtls/mbedtls-2.16.2/library\entropy.c **** {
 124:D:/fchai/work/i-cube/I-CUBE-HUAWEI/Middlewares/Third_Party/Huawei/iot_link/network/dtls/mbedtls/mbedtls-2.16.2/library\entropy.c **** #if defined(MBEDTLS_HAVEGE_C)
 125:D:/fchai/work/i-cube/I-CUBE-HUAWEI/Middlewares/Third_Party/Huawei/iot_link/network/dtls/mbedtls/mbedtls-2.16.2/library\entropy.c ****     mbedtls_havege_free( &ctx->havege_data );
 126:D:/fchai/work/i-cube/I-CUBE-HUAWEI/Middlewares/Third_Party/Huawei/iot_link/network/dtls/mbedtls/mbedtls-2.16.2/library\entropy.c **** #endif
 127:D:/fchai/work/i-cube/I-CUBE-HUAWEI/Middlewares/Third_Party/Huawei/iot_link/network/dtls/mbedtls/mbedtls-2.16.2/library\entropy.c **** #if defined(MBEDTLS_THREADING_C)
 128:D:/fchai/work/i-cube/I-CUBE-HUAWEI/Middlewares/Third_Party/Huawei/iot_link/network/dtls/mbedtls/mbedtls-2.16.2/library\entropy.c ****     mbedtls_mutex_free( &ctx->mutex );
 129:D:/fchai/work/i-cube/I-CUBE-HUAWEI/Middlewares/Third_Party/Huawei/iot_link/network/dtls/mbedtls/mbedtls-2.16.2/library\entropy.c **** #endif
 130:D:/fchai/work/i-cube/I-CUBE-HUAWEI/Middlewares/Third_Party/Huawei/iot_link/network/dtls/mbedtls/mbedtls-2.16.2/library\entropy.c **** #if defined(MBEDTLS_ENTROPY_SHA512_ACCUMULATOR)
 131:D:/fchai/work/i-cube/I-CUBE-HUAWEI/Middlewares/Third_Party/Huawei/iot_link/network/dtls/mbedtls/mbedtls-2.16.2/library\entropy.c ****     mbedtls_sha512_free( &ctx->accumulator );
 132:D:/fchai/work/i-cube/I-CUBE-HUAWEI/Middlewares/Third_Party/Huawei/iot_link/network/dtls/mbedtls/mbedtls-2.16.2/library\entropy.c **** #else
 133:D:/fchai/work/i-cube/I-CUBE-HUAWEI/Middlewares/Third_Party/Huawei/iot_link/network/dtls/mbedtls/mbedtls-2.16.2/library\entropy.c ****     mbedtls_sha256_free( &ctx->accumulator );
 134:D:/fchai/work/i-cube/I-CUBE-HUAWEI/Middlewares/Third_Party/Huawei/iot_link/network/dtls/mbedtls/mbedtls-2.16.2/library\entropy.c **** #endif
 135:D:/fchai/work/i-cube/I-CUBE-HUAWEI/Middlewares/Third_Party/Huawei/iot_link/network/dtls/mbedtls/mbedtls-2.16.2/library\entropy.c **** #if defined(MBEDTLS_ENTROPY_NV_SEED)
 136:D:/fchai/work/i-cube/I-CUBE-HUAWEI/Middlewares/Third_Party/Huawei/iot_link/network/dtls/mbedtls/mbedtls-2.16.2/library\entropy.c ****     ctx->initial_entropy_run = 0;
 137:D:/fchai/work/i-cube/I-CUBE-HUAWEI/Middlewares/Third_Party/Huawei/iot_link/network/dtls/mbedtls/mbedtls-2.16.2/library\entropy.c **** #endif
 138:D:/fchai/work/i-cube/I-CUBE-HUAWEI/Middlewares/Third_Party/Huawei/iot_link/network/dtls/mbedtls/mbedtls-2.16.2/library\entropy.c ****     ctx->source_count = 0;
 139:D:/fchai/work/i-cube/I-CUBE-HUAWEI/Middlewares/Third_Party/Huawei/iot_link/network/dtls/mbedtls/mbedtls-2.16.2/library\entropy.c ****     mbedtls_platform_zeroize( ctx->source, sizeof( ctx->source ) );
 140:D:/fchai/work/i-cube/I-CUBE-HUAWEI/Middlewares/Third_Party/Huawei/iot_link/network/dtls/mbedtls/mbedtls-2.16.2/library\entropy.c ****     ctx->accumulator_started = 0;
 141:D:/fchai/work/i-cube/I-CUBE-HUAWEI/Middlewares/Third_Party/Huawei/iot_link/network/dtls/mbedtls/mbedtls-2.16.2/library\entropy.c **** }
 142:D:/fchai/work/i-cube/I-CUBE-HUAWEI/Middlewares/Third_Party/Huawei/iot_link/network/dtls/mbedtls/mbedtls-2.16.2/library\entropy.c **** 
 143:D:/fchai/work/i-cube/I-CUBE-HUAWEI/Middlewares/Third_Party/Huawei/iot_link/network/dtls/mbedtls/mbedtls-2.16.2/library\entropy.c **** int mbedtls_entropy_add_source( mbedtls_entropy_context *ctx,
ARM GAS  T:\msys\tmp\ccQXiRIu.s 			page 4


 144:D:/fchai/work/i-cube/I-CUBE-HUAWEI/Middlewares/Third_Party/Huawei/iot_link/network/dtls/mbedtls/mbedtls-2.16.2/library\entropy.c ****                         mbedtls_entropy_f_source_ptr f_source, void *p_source,
 145:D:/fchai/work/i-cube/I-CUBE-HUAWEI/Middlewares/Third_Party/Huawei/iot_link/network/dtls/mbedtls/mbedtls-2.16.2/library\entropy.c ****                         size_t threshold, int strong )
 146:D:/fchai/work/i-cube/I-CUBE-HUAWEI/Middlewares/Third_Party/Huawei/iot_link/network/dtls/mbedtls/mbedtls-2.16.2/library\entropy.c **** {
 147:D:/fchai/work/i-cube/I-CUBE-HUAWEI/Middlewares/Third_Party/Huawei/iot_link/network/dtls/mbedtls/mbedtls-2.16.2/library\entropy.c ****     int idx, ret = 0;
 148:D:/fchai/work/i-cube/I-CUBE-HUAWEI/Middlewares/Third_Party/Huawei/iot_link/network/dtls/mbedtls/mbedtls-2.16.2/library\entropy.c **** 
 149:D:/fchai/work/i-cube/I-CUBE-HUAWEI/Middlewares/Third_Party/Huawei/iot_link/network/dtls/mbedtls/mbedtls-2.16.2/library\entropy.c **** #if defined(MBEDTLS_THREADING_C)
 150:D:/fchai/work/i-cube/I-CUBE-HUAWEI/Middlewares/Third_Party/Huawei/iot_link/network/dtls/mbedtls/mbedtls-2.16.2/library\entropy.c ****     if( ( ret = mbedtls_mutex_lock( &ctx->mutex ) ) != 0 )
 151:D:/fchai/work/i-cube/I-CUBE-HUAWEI/Middlewares/Third_Party/Huawei/iot_link/network/dtls/mbedtls/mbedtls-2.16.2/library\entropy.c ****         return( ret );
 152:D:/fchai/work/i-cube/I-CUBE-HUAWEI/Middlewares/Third_Party/Huawei/iot_link/network/dtls/mbedtls/mbedtls-2.16.2/library\entropy.c **** #endif
 153:D:/fchai/work/i-cube/I-CUBE-HUAWEI/Middlewares/Third_Party/Huawei/iot_link/network/dtls/mbedtls/mbedtls-2.16.2/library\entropy.c **** 
 154:D:/fchai/work/i-cube/I-CUBE-HUAWEI/Middlewares/Third_Party/Huawei/iot_link/network/dtls/mbedtls/mbedtls-2.16.2/library\entropy.c ****     idx = ctx->source_count;
 155:D:/fchai/work/i-cube/I-CUBE-HUAWEI/Middlewares/Third_Party/Huawei/iot_link/network/dtls/mbedtls/mbedtls-2.16.2/library\entropy.c ****     if( idx >= MBEDTLS_ENTROPY_MAX_SOURCES )
 156:D:/fchai/work/i-cube/I-CUBE-HUAWEI/Middlewares/Third_Party/Huawei/iot_link/network/dtls/mbedtls/mbedtls-2.16.2/library\entropy.c ****     {
 157:D:/fchai/work/i-cube/I-CUBE-HUAWEI/Middlewares/Third_Party/Huawei/iot_link/network/dtls/mbedtls/mbedtls-2.16.2/library\entropy.c ****         ret = MBEDTLS_ERR_ENTROPY_MAX_SOURCES;
 158:D:/fchai/work/i-cube/I-CUBE-HUAWEI/Middlewares/Third_Party/Huawei/iot_link/network/dtls/mbedtls/mbedtls-2.16.2/library\entropy.c ****         goto exit;
 159:D:/fchai/work/i-cube/I-CUBE-HUAWEI/Middlewares/Third_Party/Huawei/iot_link/network/dtls/mbedtls/mbedtls-2.16.2/library\entropy.c ****     }
 160:D:/fchai/work/i-cube/I-CUBE-HUAWEI/Middlewares/Third_Party/Huawei/iot_link/network/dtls/mbedtls/mbedtls-2.16.2/library\entropy.c **** 
 161:D:/fchai/work/i-cube/I-CUBE-HUAWEI/Middlewares/Third_Party/Huawei/iot_link/network/dtls/mbedtls/mbedtls-2.16.2/library\entropy.c ****     ctx->source[idx].f_source  = f_source;
 162:D:/fchai/work/i-cube/I-CUBE-HUAWEI/Middlewares/Third_Party/Huawei/iot_link/network/dtls/mbedtls/mbedtls-2.16.2/library\entropy.c ****     ctx->source[idx].p_source  = p_source;
 163:D:/fchai/work/i-cube/I-CUBE-HUAWEI/Middlewares/Third_Party/Huawei/iot_link/network/dtls/mbedtls/mbedtls-2.16.2/library\entropy.c ****     ctx->source[idx].threshold = threshold;
 164:D:/fchai/work/i-cube/I-CUBE-HUAWEI/Middlewares/Third_Party/Huawei/iot_link/network/dtls/mbedtls/mbedtls-2.16.2/library\entropy.c ****     ctx->source[idx].strong    = strong;
 165:D:/fchai/work/i-cube/I-CUBE-HUAWEI/Middlewares/Third_Party/Huawei/iot_link/network/dtls/mbedtls/mbedtls-2.16.2/library\entropy.c **** 
 166:D:/fchai/work/i-cube/I-CUBE-HUAWEI/Middlewares/Third_Party/Huawei/iot_link/network/dtls/mbedtls/mbedtls-2.16.2/library\entropy.c ****     ctx->source_count++;
 167:D:/fchai/work/i-cube/I-CUBE-HUAWEI/Middlewares/Third_Party/Huawei/iot_link/network/dtls/mbedtls/mbedtls-2.16.2/library\entropy.c **** 
 168:D:/fchai/work/i-cube/I-CUBE-HUAWEI/Middlewares/Third_Party/Huawei/iot_link/network/dtls/mbedtls/mbedtls-2.16.2/library\entropy.c **** exit:
 169:D:/fchai/work/i-cube/I-CUBE-HUAWEI/Middlewares/Third_Party/Huawei/iot_link/network/dtls/mbedtls/mbedtls-2.16.2/library\entropy.c **** #if defined(MBEDTLS_THREADING_C)
 170:D:/fchai/work/i-cube/I-CUBE-HUAWEI/Middlewares/Third_Party/Huawei/iot_link/network/dtls/mbedtls/mbedtls-2.16.2/library\entropy.c ****     if( mbedtls_mutex_unlock( &ctx->mutex ) != 0 )
 171:D:/fchai/work/i-cube/I-CUBE-HUAWEI/Middlewares/Third_Party/Huawei/iot_link/network/dtls/mbedtls/mbedtls-2.16.2/library\entropy.c ****         return( MBEDTLS_ERR_THREADING_MUTEX_ERROR );
 172:D:/fchai/work/i-cube/I-CUBE-HUAWEI/Middlewares/Third_Party/Huawei/iot_link/network/dtls/mbedtls/mbedtls-2.16.2/library\entropy.c **** #endif
 173:D:/fchai/work/i-cube/I-CUBE-HUAWEI/Middlewares/Third_Party/Huawei/iot_link/network/dtls/mbedtls/mbedtls-2.16.2/library\entropy.c **** 
 174:D:/fchai/work/i-cube/I-CUBE-HUAWEI/Middlewares/Third_Party/Huawei/iot_link/network/dtls/mbedtls/mbedtls-2.16.2/library\entropy.c ****     return( ret );
 175:D:/fchai/work/i-cube/I-CUBE-HUAWEI/Middlewares/Third_Party/Huawei/iot_link/network/dtls/mbedtls/mbedtls-2.16.2/library\entropy.c **** }
 176:D:/fchai/work/i-cube/I-CUBE-HUAWEI/Middlewares/Third_Party/Huawei/iot_link/network/dtls/mbedtls/mbedtls-2.16.2/library\entropy.c **** 
 177:D:/fchai/work/i-cube/I-CUBE-HUAWEI/Middlewares/Third_Party/Huawei/iot_link/network/dtls/mbedtls/mbedtls-2.16.2/library\entropy.c **** /*
 178:D:/fchai/work/i-cube/I-CUBE-HUAWEI/Middlewares/Third_Party/Huawei/iot_link/network/dtls/mbedtls/mbedtls-2.16.2/library\entropy.c ****  * Entropy accumulator update
 179:D:/fchai/work/i-cube/I-CUBE-HUAWEI/Middlewares/Third_Party/Huawei/iot_link/network/dtls/mbedtls/mbedtls-2.16.2/library\entropy.c ****  */
 180:D:/fchai/work/i-cube/I-CUBE-HUAWEI/Middlewares/Third_Party/Huawei/iot_link/network/dtls/mbedtls/mbedtls-2.16.2/library\entropy.c **** static int entropy_update( mbedtls_entropy_context *ctx, unsigned char source_id,
 181:D:/fchai/work/i-cube/I-CUBE-HUAWEI/Middlewares/Third_Party/Huawei/iot_link/network/dtls/mbedtls/mbedtls-2.16.2/library\entropy.c ****                            const unsigned char *data, size_t len )
 182:D:/fchai/work/i-cube/I-CUBE-HUAWEI/Middlewares/Third_Party/Huawei/iot_link/network/dtls/mbedtls/mbedtls-2.16.2/library\entropy.c **** {
  30              		.loc 1 182 1 view -0
  31              		.cfi_startproc
  32              		@ args = 0, pretend = 0, frame = 40
  33              		@ frame_needed = 0, uses_anonymous_args = 0
 183:D:/fchai/work/i-cube/I-CUBE-HUAWEI/Middlewares/Third_Party/Huawei/iot_link/network/dtls/mbedtls/mbedtls-2.16.2/library\entropy.c ****     unsigned char header[2];
  34              		.loc 1 183 5 view .LVU1
 184:D:/fchai/work/i-cube/I-CUBE-HUAWEI/Middlewares/Third_Party/Huawei/iot_link/network/dtls/mbedtls/mbedtls-2.16.2/library\entropy.c ****     unsigned char tmp[MBEDTLS_ENTROPY_BLOCK_SIZE];
  35              		.loc 1 184 5 view .LVU2
 185:D:/fchai/work/i-cube/I-CUBE-HUAWEI/Middlewares/Third_Party/Huawei/iot_link/network/dtls/mbedtls/mbedtls-2.16.2/library\entropy.c ****     size_t use_len = len;
  36              		.loc 1 185 5 view .LVU3
 182:D:/fchai/work/i-cube/I-CUBE-HUAWEI/Middlewares/Third_Party/Huawei/iot_link/network/dtls/mbedtls/mbedtls-2.16.2/library\entropy.c ****     unsigned char header[2];
  37              		.loc 1 182 1 is_stmt 0 view .LVU4
  38 0000 2DE9F043 		push	{r4, r5, r6, r7, r8, r9, lr}
  39              	.LCFI0:
  40              		.cfi_def_cfa_offset 28
  41              		.cfi_offset 4, -28
  42              		.cfi_offset 5, -24
  43              		.cfi_offset 6, -20
ARM GAS  T:\msys\tmp\ccQXiRIu.s 			page 5


  44              		.cfi_offset 7, -16
  45              		.cfi_offset 8, -12
  46              		.cfi_offset 9, -8
  47              		.cfi_offset 14, -4
 186:D:/fchai/work/i-cube/I-CUBE-HUAWEI/Middlewares/Third_Party/Huawei/iot_link/network/dtls/mbedtls/mbedtls-2.16.2/library\entropy.c ****     const unsigned char *p = data;
 187:D:/fchai/work/i-cube/I-CUBE-HUAWEI/Middlewares/Third_Party/Huawei/iot_link/network/dtls/mbedtls/mbedtls-2.16.2/library\entropy.c ****     int ret = 0;
 188:D:/fchai/work/i-cube/I-CUBE-HUAWEI/Middlewares/Third_Party/Huawei/iot_link/network/dtls/mbedtls/mbedtls-2.16.2/library\entropy.c **** 
 189:D:/fchai/work/i-cube/I-CUBE-HUAWEI/Middlewares/Third_Party/Huawei/iot_link/network/dtls/mbedtls/mbedtls-2.16.2/library\entropy.c ****     if( use_len > MBEDTLS_ENTROPY_BLOCK_SIZE )
  48              		.loc 1 189 7 view .LVU5
  49 0004 202B     		cmp	r3, #32
 182:D:/fchai/work/i-cube/I-CUBE-HUAWEI/Middlewares/Third_Party/Huawei/iot_link/network/dtls/mbedtls/mbedtls-2.16.2/library\entropy.c ****     unsigned char header[2];
  50              		.loc 1 182 1 view .LVU6
  51 0006 8BB0     		sub	sp, sp, #44
  52              	.LCFI1:
  53              		.cfi_def_cfa_offset 72
 182:D:/fchai/work/i-cube/I-CUBE-HUAWEI/Middlewares/Third_Party/Huawei/iot_link/network/dtls/mbedtls/mbedtls-2.16.2/library\entropy.c ****     unsigned char header[2];
  54              		.loc 1 182 1 view .LVU7
  55 0008 1D46     		mov	r5, r3
  56              	.LVL1:
 186:D:/fchai/work/i-cube/I-CUBE-HUAWEI/Middlewares/Third_Party/Huawei/iot_link/network/dtls/mbedtls/mbedtls-2.16.2/library\entropy.c ****     const unsigned char *p = data;
  57              		.loc 1 186 5 is_stmt 1 view .LVU8
 182:D:/fchai/work/i-cube/I-CUBE-HUAWEI/Middlewares/Third_Party/Huawei/iot_link/network/dtls/mbedtls/mbedtls-2.16.2/library\entropy.c ****     unsigned char header[2];
  58              		.loc 1 182 1 is_stmt 0 view .LVU9
  59 000a 0646     		mov	r6, r0
  60 000c 8946     		mov	r9, r1
  61 000e 9046     		mov	r8, r2
  62              	.LVL2:
 187:D:/fchai/work/i-cube/I-CUBE-HUAWEI/Middlewares/Third_Party/Huawei/iot_link/network/dtls/mbedtls/mbedtls-2.16.2/library\entropy.c **** 
  63              		.loc 1 187 5 is_stmt 1 view .LVU10
  64              		.loc 1 189 5 view .LVU11
  65              		.loc 1 189 7 is_stmt 0 view .LVU12
  66 0010 26D8     		bhi	.L2
  67 0012 DBB2     		uxtb	r3, r3
  68              	.LVL3:
  69              		.loc 1 189 7 view .LVU13
  70 0014 02AF     		add	r7, sp, #8
  71              	.LVL4:
  72              	.L3:
 190:D:/fchai/work/i-cube/I-CUBE-HUAWEI/Middlewares/Third_Party/Huawei/iot_link/network/dtls/mbedtls/mbedtls-2.16.2/library\entropy.c ****     {
 191:D:/fchai/work/i-cube/I-CUBE-HUAWEI/Middlewares/Third_Party/Huawei/iot_link/network/dtls/mbedtls/mbedtls-2.16.2/library\entropy.c **** #if defined(MBEDTLS_ENTROPY_SHA512_ACCUMULATOR)
 192:D:/fchai/work/i-cube/I-CUBE-HUAWEI/Middlewares/Third_Party/Huawei/iot_link/network/dtls/mbedtls/mbedtls-2.16.2/library\entropy.c ****         if( ( ret = mbedtls_sha512_ret( data, len, tmp, 0 ) ) != 0 )
 193:D:/fchai/work/i-cube/I-CUBE-HUAWEI/Middlewares/Third_Party/Huawei/iot_link/network/dtls/mbedtls/mbedtls-2.16.2/library\entropy.c ****             goto cleanup;
 194:D:/fchai/work/i-cube/I-CUBE-HUAWEI/Middlewares/Third_Party/Huawei/iot_link/network/dtls/mbedtls/mbedtls-2.16.2/library\entropy.c **** #else
 195:D:/fchai/work/i-cube/I-CUBE-HUAWEI/Middlewares/Third_Party/Huawei/iot_link/network/dtls/mbedtls/mbedtls-2.16.2/library\entropy.c ****         if( ( ret = mbedtls_sha256_ret( data, len, tmp, 0 ) ) != 0 )
 196:D:/fchai/work/i-cube/I-CUBE-HUAWEI/Middlewares/Third_Party/Huawei/iot_link/network/dtls/mbedtls/mbedtls-2.16.2/library\entropy.c ****             goto cleanup;
 197:D:/fchai/work/i-cube/I-CUBE-HUAWEI/Middlewares/Third_Party/Huawei/iot_link/network/dtls/mbedtls/mbedtls-2.16.2/library\entropy.c **** #endif
 198:D:/fchai/work/i-cube/I-CUBE-HUAWEI/Middlewares/Third_Party/Huawei/iot_link/network/dtls/mbedtls/mbedtls-2.16.2/library\entropy.c ****         p = tmp;
 199:D:/fchai/work/i-cube/I-CUBE-HUAWEI/Middlewares/Third_Party/Huawei/iot_link/network/dtls/mbedtls/mbedtls-2.16.2/library\entropy.c ****         use_len = MBEDTLS_ENTROPY_BLOCK_SIZE;
 200:D:/fchai/work/i-cube/I-CUBE-HUAWEI/Middlewares/Third_Party/Huawei/iot_link/network/dtls/mbedtls/mbedtls-2.16.2/library\entropy.c ****     }
 201:D:/fchai/work/i-cube/I-CUBE-HUAWEI/Middlewares/Third_Party/Huawei/iot_link/network/dtls/mbedtls/mbedtls-2.16.2/library\entropy.c **** 
 202:D:/fchai/work/i-cube/I-CUBE-HUAWEI/Middlewares/Third_Party/Huawei/iot_link/network/dtls/mbedtls/mbedtls-2.16.2/library\entropy.c ****     header[0] = source_id;
  73              		.loc 1 202 5 is_stmt 1 view .LVU14
 203:D:/fchai/work/i-cube/I-CUBE-HUAWEI/Middlewares/Third_Party/Huawei/iot_link/network/dtls/mbedtls/mbedtls-2.16.2/library\entropy.c ****     header[1] = use_len & 0xFF;
 204:D:/fchai/work/i-cube/I-CUBE-HUAWEI/Middlewares/Third_Party/Huawei/iot_link/network/dtls/mbedtls/mbedtls-2.16.2/library\entropy.c **** 
 205:D:/fchai/work/i-cube/I-CUBE-HUAWEI/Middlewares/Third_Party/Huawei/iot_link/network/dtls/mbedtls/mbedtls-2.16.2/library\entropy.c ****     /*
 206:D:/fchai/work/i-cube/I-CUBE-HUAWEI/Middlewares/Third_Party/Huawei/iot_link/network/dtls/mbedtls/mbedtls-2.16.2/library\entropy.c ****      * Start the accumulator if this has not already happened. Note that
 207:D:/fchai/work/i-cube/I-CUBE-HUAWEI/Middlewares/Third_Party/Huawei/iot_link/network/dtls/mbedtls/mbedtls-2.16.2/library\entropy.c ****      * it is sufficient to start the accumulator here only because all calls to
ARM GAS  T:\msys\tmp\ccQXiRIu.s 			page 6


 208:D:/fchai/work/i-cube/I-CUBE-HUAWEI/Middlewares/Third_Party/Huawei/iot_link/network/dtls/mbedtls/mbedtls-2.16.2/library\entropy.c ****      * gather entropy eventually execute this code.
 209:D:/fchai/work/i-cube/I-CUBE-HUAWEI/Middlewares/Third_Party/Huawei/iot_link/network/dtls/mbedtls/mbedtls-2.16.2/library\entropy.c ****      */
 210:D:/fchai/work/i-cube/I-CUBE-HUAWEI/Middlewares/Third_Party/Huawei/iot_link/network/dtls/mbedtls/mbedtls-2.16.2/library\entropy.c **** #if defined(MBEDTLS_ENTROPY_SHA512_ACCUMULATOR)
 211:D:/fchai/work/i-cube/I-CUBE-HUAWEI/Middlewares/Third_Party/Huawei/iot_link/network/dtls/mbedtls/mbedtls-2.16.2/library\entropy.c ****     if( ctx->accumulator_started == 0 &&
 212:D:/fchai/work/i-cube/I-CUBE-HUAWEI/Middlewares/Third_Party/Huawei/iot_link/network/dtls/mbedtls/mbedtls-2.16.2/library\entropy.c ****         ( ret = mbedtls_sha512_starts_ret( &ctx->accumulator, 0 ) ) != 0 )
 213:D:/fchai/work/i-cube/I-CUBE-HUAWEI/Middlewares/Third_Party/Huawei/iot_link/network/dtls/mbedtls/mbedtls-2.16.2/library\entropy.c ****         goto cleanup;
 214:D:/fchai/work/i-cube/I-CUBE-HUAWEI/Middlewares/Third_Party/Huawei/iot_link/network/dtls/mbedtls/mbedtls-2.16.2/library\entropy.c ****     else
 215:D:/fchai/work/i-cube/I-CUBE-HUAWEI/Middlewares/Third_Party/Huawei/iot_link/network/dtls/mbedtls/mbedtls-2.16.2/library\entropy.c ****         ctx->accumulator_started = 1;
 216:D:/fchai/work/i-cube/I-CUBE-HUAWEI/Middlewares/Third_Party/Huawei/iot_link/network/dtls/mbedtls/mbedtls-2.16.2/library\entropy.c ****     if( ( ret = mbedtls_sha512_update_ret( &ctx->accumulator, header, 2 ) ) != 0 )
 217:D:/fchai/work/i-cube/I-CUBE-HUAWEI/Middlewares/Third_Party/Huawei/iot_link/network/dtls/mbedtls/mbedtls-2.16.2/library\entropy.c ****         goto cleanup;
 218:D:/fchai/work/i-cube/I-CUBE-HUAWEI/Middlewares/Third_Party/Huawei/iot_link/network/dtls/mbedtls/mbedtls-2.16.2/library\entropy.c ****     ret = mbedtls_sha512_update_ret( &ctx->accumulator, p, use_len );
 219:D:/fchai/work/i-cube/I-CUBE-HUAWEI/Middlewares/Third_Party/Huawei/iot_link/network/dtls/mbedtls/mbedtls-2.16.2/library\entropy.c **** #else
 220:D:/fchai/work/i-cube/I-CUBE-HUAWEI/Middlewares/Third_Party/Huawei/iot_link/network/dtls/mbedtls/mbedtls-2.16.2/library\entropy.c ****     if( ctx->accumulator_started == 0 &&
  74              		.loc 1 220 7 is_stmt 0 view .LVU15
  75 0016 3168     		ldr	r1, [r6]
 202:D:/fchai/work/i-cube/I-CUBE-HUAWEI/Middlewares/Third_Party/Huawei/iot_link/network/dtls/mbedtls/mbedtls-2.16.2/library\entropy.c ****     header[1] = use_len & 0xFF;
  76              		.loc 1 202 15 view .LVU16
  77 0018 8DF80490 		strb	r9, [sp, #4]
 203:D:/fchai/work/i-cube/I-CUBE-HUAWEI/Middlewares/Third_Party/Huawei/iot_link/network/dtls/mbedtls/mbedtls-2.16.2/library\entropy.c ****     header[1] = use_len & 0xFF;
  78              		.loc 1 203 5 is_stmt 1 view .LVU17
 203:D:/fchai/work/i-cube/I-CUBE-HUAWEI/Middlewares/Third_Party/Huawei/iot_link/network/dtls/mbedtls/mbedtls-2.16.2/library\entropy.c ****     header[1] = use_len & 0xFF;
  79              		.loc 1 203 15 is_stmt 0 view .LVU18
  80 001c 8DF80530 		strb	r3, [sp, #5]
  81              		.loc 1 220 5 is_stmt 1 view .LVU19
 221:D:/fchai/work/i-cube/I-CUBE-HUAWEI/Middlewares/Third_Party/Huawei/iot_link/network/dtls/mbedtls/mbedtls-2.16.2/library\entropy.c ****         ( ret = mbedtls_sha256_starts_ret( &ctx->accumulator, 0 ) ) != 0 )
  82              		.loc 1 221 17 is_stmt 0 view .LVU20
  83 0020 06F10409 		add	r9, r6, #4
 220:D:/fchai/work/i-cube/I-CUBE-HUAWEI/Middlewares/Third_Party/Huawei/iot_link/network/dtls/mbedtls/mbedtls-2.16.2/library\entropy.c ****         ( ret = mbedtls_sha256_starts_ret( &ctx->accumulator, 0 ) ) != 0 )
  84              		.loc 1 220 7 view .LVU21
  85 0024 21B9     		cbnz	r1, .L7
  86              		.loc 1 221 17 discriminator 1 view .LVU22
  87 0026 4846     		mov	r0, r9
  88 0028 FFF7FEFF 		bl	mbedtls_sha256_starts_ret
  89              	.LVL5:
 220:D:/fchai/work/i-cube/I-CUBE-HUAWEI/Middlewares/Third_Party/Huawei/iot_link/network/dtls/mbedtls/mbedtls-2.16.2/library\entropy.c ****         ( ret = mbedtls_sha256_starts_ret( &ctx->accumulator, 0 ) ) != 0 )
  90              		.loc 1 220 39 discriminator 1 view .LVU23
  91 002c 0446     		mov	r4, r0
  92 002e 40B9     		cbnz	r0, .L4
  93              	.LVL6:
  94              	.L7:
 222:D:/fchai/work/i-cube/I-CUBE-HUAWEI/Middlewares/Third_Party/Huawei/iot_link/network/dtls/mbedtls/mbedtls-2.16.2/library\entropy.c ****         goto cleanup;
 223:D:/fchai/work/i-cube/I-CUBE-HUAWEI/Middlewares/Third_Party/Huawei/iot_link/network/dtls/mbedtls/mbedtls-2.16.2/library\entropy.c ****     else
 224:D:/fchai/work/i-cube/I-CUBE-HUAWEI/Middlewares/Third_Party/Huawei/iot_link/network/dtls/mbedtls/mbedtls-2.16.2/library\entropy.c ****         ctx->accumulator_started = 1;
  95              		.loc 1 224 9 is_stmt 1 view .LVU24
  96              		.loc 1 224 34 is_stmt 0 view .LVU25
  97 0030 0123     		movs	r3, #1
  98 0032 3360     		str	r3, [r6]
 225:D:/fchai/work/i-cube/I-CUBE-HUAWEI/Middlewares/Third_Party/Huawei/iot_link/network/dtls/mbedtls/mbedtls-2.16.2/library\entropy.c ****     if( ( ret = mbedtls_sha256_update_ret( &ctx->accumulator, header, 2 ) ) != 0 )
  99              		.loc 1 225 5 is_stmt 1 view .LVU26
 100              		.loc 1 225 17 is_stmt 0 view .LVU27
 101 0034 0222     		movs	r2, #2
 102 0036 01A9     		add	r1, sp, #4
 103 0038 4846     		mov	r0, r9
 104 003a FFF7FEFF 		bl	mbedtls_sha256_update_ret
 105              	.LVL7:
 106              		.loc 1 225 7 view .LVU28
 107 003e 0446     		mov	r4, r0
ARM GAS  T:\msys\tmp\ccQXiRIu.s 			page 7


 108 0040 38B1     		cbz	r0, .L11
 109              	.L4:
 226:D:/fchai/work/i-cube/I-CUBE-HUAWEI/Middlewares/Third_Party/Huawei/iot_link/network/dtls/mbedtls/mbedtls-2.16.2/library\entropy.c ****         goto cleanup;
 227:D:/fchai/work/i-cube/I-CUBE-HUAWEI/Middlewares/Third_Party/Huawei/iot_link/network/dtls/mbedtls/mbedtls-2.16.2/library\entropy.c ****     ret = mbedtls_sha256_update_ret( &ctx->accumulator, p, use_len );
 228:D:/fchai/work/i-cube/I-CUBE-HUAWEI/Middlewares/Third_Party/Huawei/iot_link/network/dtls/mbedtls/mbedtls-2.16.2/library\entropy.c **** #endif
 229:D:/fchai/work/i-cube/I-CUBE-HUAWEI/Middlewares/Third_Party/Huawei/iot_link/network/dtls/mbedtls/mbedtls-2.16.2/library\entropy.c **** 
 230:D:/fchai/work/i-cube/I-CUBE-HUAWEI/Middlewares/Third_Party/Huawei/iot_link/network/dtls/mbedtls/mbedtls-2.16.2/library\entropy.c **** cleanup:
 231:D:/fchai/work/i-cube/I-CUBE-HUAWEI/Middlewares/Third_Party/Huawei/iot_link/network/dtls/mbedtls/mbedtls-2.16.2/library\entropy.c ****     mbedtls_platform_zeroize( tmp, sizeof( tmp ) );
 110              		.loc 1 231 5 is_stmt 1 view .LVU29
 111 0042 3846     		mov	r0, r7
 112              	.LVL8:
 113              		.loc 1 231 5 is_stmt 0 view .LVU30
 114 0044 2021     		movs	r1, #32
 115 0046 FFF7FEFF 		bl	mbedtls_platform_zeroize
 116              	.LVL9:
 232:D:/fchai/work/i-cube/I-CUBE-HUAWEI/Middlewares/Third_Party/Huawei/iot_link/network/dtls/mbedtls/mbedtls-2.16.2/library\entropy.c **** 
 233:D:/fchai/work/i-cube/I-CUBE-HUAWEI/Middlewares/Third_Party/Huawei/iot_link/network/dtls/mbedtls/mbedtls-2.16.2/library\entropy.c ****     return( ret );
 117              		.loc 1 233 5 is_stmt 1 view .LVU31
 234:D:/fchai/work/i-cube/I-CUBE-HUAWEI/Middlewares/Third_Party/Huawei/iot_link/network/dtls/mbedtls/mbedtls-2.16.2/library\entropy.c **** }
 118              		.loc 1 234 1 is_stmt 0 view .LVU32
 119 004a 2046     		mov	r0, r4
 120 004c 0BB0     		add	sp, sp, #44
 121              	.LCFI2:
 122              		.cfi_remember_state
 123              		.cfi_def_cfa_offset 28
 124              		@ sp needed
 125 004e BDE8F083 		pop	{r4, r5, r6, r7, r8, r9, pc}
 126              	.LVL10:
 127              	.L11:
 128              	.LCFI3:
 129              		.cfi_restore_state
 227:D:/fchai/work/i-cube/I-CUBE-HUAWEI/Middlewares/Third_Party/Huawei/iot_link/network/dtls/mbedtls/mbedtls-2.16.2/library\entropy.c **** #endif
 130              		.loc 1 227 5 is_stmt 1 view .LVU33
 227:D:/fchai/work/i-cube/I-CUBE-HUAWEI/Middlewares/Third_Party/Huawei/iot_link/network/dtls/mbedtls/mbedtls-2.16.2/library\entropy.c **** #endif
 131              		.loc 1 227 11 is_stmt 0 view .LVU34
 132 0052 2A46     		mov	r2, r5
 133 0054 4146     		mov	r1, r8
 134 0056 4846     		mov	r0, r9
 135              	.LVL11:
 227:D:/fchai/work/i-cube/I-CUBE-HUAWEI/Middlewares/Third_Party/Huawei/iot_link/network/dtls/mbedtls/mbedtls-2.16.2/library\entropy.c **** #endif
 136              		.loc 1 227 11 view .LVU35
 137 0058 FFF7FEFF 		bl	mbedtls_sha256_update_ret
 138              	.LVL12:
 139 005c 0446     		mov	r4, r0
 140              	.LVL13:
 227:D:/fchai/work/i-cube/I-CUBE-HUAWEI/Middlewares/Third_Party/Huawei/iot_link/network/dtls/mbedtls/mbedtls-2.16.2/library\entropy.c **** #endif
 141              		.loc 1 227 11 view .LVU36
 142 005e F0E7     		b	.L4
 143              	.LVL14:
 144              	.L2:
 195:D:/fchai/work/i-cube/I-CUBE-HUAWEI/Middlewares/Third_Party/Huawei/iot_link/network/dtls/mbedtls/mbedtls-2.16.2/library\entropy.c ****             goto cleanup;
 145              		.loc 1 195 9 is_stmt 1 view .LVU37
 195:D:/fchai/work/i-cube/I-CUBE-HUAWEI/Middlewares/Third_Party/Huawei/iot_link/network/dtls/mbedtls/mbedtls-2.16.2/library\entropy.c ****             goto cleanup;
 146              		.loc 1 195 21 is_stmt 0 view .LVU38
 147 0060 02AF     		add	r7, sp, #8
 148 0062 1946     		mov	r1, r3
 149              	.LVL15:
ARM GAS  T:\msys\tmp\ccQXiRIu.s 			page 8


 195:D:/fchai/work/i-cube/I-CUBE-HUAWEI/Middlewares/Third_Party/Huawei/iot_link/network/dtls/mbedtls/mbedtls-2.16.2/library\entropy.c ****             goto cleanup;
 150              		.loc 1 195 21 view .LVU39
 151 0064 1046     		mov	r0, r2
 152              	.LVL16:
 195:D:/fchai/work/i-cube/I-CUBE-HUAWEI/Middlewares/Third_Party/Huawei/iot_link/network/dtls/mbedtls/mbedtls-2.16.2/library\entropy.c ****             goto cleanup;
 153              		.loc 1 195 21 view .LVU40
 154 0066 0023     		movs	r3, #0
 155              	.LVL17:
 195:D:/fchai/work/i-cube/I-CUBE-HUAWEI/Middlewares/Third_Party/Huawei/iot_link/network/dtls/mbedtls/mbedtls-2.16.2/library\entropy.c ****             goto cleanup;
 156              		.loc 1 195 21 view .LVU41
 157 0068 3A46     		mov	r2, r7
 158              	.LVL18:
 195:D:/fchai/work/i-cube/I-CUBE-HUAWEI/Middlewares/Third_Party/Huawei/iot_link/network/dtls/mbedtls/mbedtls-2.16.2/library\entropy.c ****             goto cleanup;
 159              		.loc 1 195 21 view .LVU42
 160 006a FFF7FEFF 		bl	mbedtls_sha256_ret
 161              	.LVL19:
 195:D:/fchai/work/i-cube/I-CUBE-HUAWEI/Middlewares/Third_Party/Huawei/iot_link/network/dtls/mbedtls/mbedtls-2.16.2/library\entropy.c ****             goto cleanup;
 162              		.loc 1 195 11 view .LVU43
 163 006e 0446     		mov	r4, r0
 164 0070 0028     		cmp	r0, #0
 165 0072 E6D1     		bne	.L4
 166 0074 2023     		movs	r3, #32
 199:D:/fchai/work/i-cube/I-CUBE-HUAWEI/Middlewares/Third_Party/Huawei/iot_link/network/dtls/mbedtls/mbedtls-2.16.2/library\entropy.c ****     }
 167              		.loc 1 199 17 view .LVU44
 168 0076 1D46     		mov	r5, r3
 169              	.LVL20:
 198:D:/fchai/work/i-cube/I-CUBE-HUAWEI/Middlewares/Third_Party/Huawei/iot_link/network/dtls/mbedtls/mbedtls-2.16.2/library\entropy.c ****         use_len = MBEDTLS_ENTROPY_BLOCK_SIZE;
 170              		.loc 1 198 11 view .LVU45
 171 0078 B846     		mov	r8, r7
 172              	.LVL21:
 198:D:/fchai/work/i-cube/I-CUBE-HUAWEI/Middlewares/Third_Party/Huawei/iot_link/network/dtls/mbedtls/mbedtls-2.16.2/library\entropy.c ****         use_len = MBEDTLS_ENTROPY_BLOCK_SIZE;
 173              		.loc 1 198 11 view .LVU46
 174 007a CCE7     		b	.L3
 175              		.cfi_endproc
 176              	.LFE3:
 178              		.section	.text.entropy_gather_internal,"ax",%progbits
 179              		.align	1
 180              		.p2align 2,,3
 181              		.syntax unified
 182              		.thumb
 183              		.thumb_func
 184              		.fpu fpv4-sp-d16
 186              	entropy_gather_internal:
 187              	.LVL22:
 188              	.LFB5:
 235:D:/fchai/work/i-cube/I-CUBE-HUAWEI/Middlewares/Third_Party/Huawei/iot_link/network/dtls/mbedtls/mbedtls-2.16.2/library\entropy.c **** 
 236:D:/fchai/work/i-cube/I-CUBE-HUAWEI/Middlewares/Third_Party/Huawei/iot_link/network/dtls/mbedtls/mbedtls-2.16.2/library\entropy.c **** int mbedtls_entropy_update_manual( mbedtls_entropy_context *ctx,
 237:D:/fchai/work/i-cube/I-CUBE-HUAWEI/Middlewares/Third_Party/Huawei/iot_link/network/dtls/mbedtls/mbedtls-2.16.2/library\entropy.c ****                            const unsigned char *data, size_t len )
 238:D:/fchai/work/i-cube/I-CUBE-HUAWEI/Middlewares/Third_Party/Huawei/iot_link/network/dtls/mbedtls/mbedtls-2.16.2/library\entropy.c **** {
 239:D:/fchai/work/i-cube/I-CUBE-HUAWEI/Middlewares/Third_Party/Huawei/iot_link/network/dtls/mbedtls/mbedtls-2.16.2/library\entropy.c ****     int ret;
 240:D:/fchai/work/i-cube/I-CUBE-HUAWEI/Middlewares/Third_Party/Huawei/iot_link/network/dtls/mbedtls/mbedtls-2.16.2/library\entropy.c **** 
 241:D:/fchai/work/i-cube/I-CUBE-HUAWEI/Middlewares/Third_Party/Huawei/iot_link/network/dtls/mbedtls/mbedtls-2.16.2/library\entropy.c **** #if defined(MBEDTLS_THREADING_C)
 242:D:/fchai/work/i-cube/I-CUBE-HUAWEI/Middlewares/Third_Party/Huawei/iot_link/network/dtls/mbedtls/mbedtls-2.16.2/library\entropy.c ****     if( ( ret = mbedtls_mutex_lock( &ctx->mutex ) ) != 0 )
 243:D:/fchai/work/i-cube/I-CUBE-HUAWEI/Middlewares/Third_Party/Huawei/iot_link/network/dtls/mbedtls/mbedtls-2.16.2/library\entropy.c ****         return( ret );
 244:D:/fchai/work/i-cube/I-CUBE-HUAWEI/Middlewares/Third_Party/Huawei/iot_link/network/dtls/mbedtls/mbedtls-2.16.2/library\entropy.c **** #endif
 245:D:/fchai/work/i-cube/I-CUBE-HUAWEI/Middlewares/Third_Party/Huawei/iot_link/network/dtls/mbedtls/mbedtls-2.16.2/library\entropy.c **** 
 246:D:/fchai/work/i-cube/I-CUBE-HUAWEI/Middlewares/Third_Party/Huawei/iot_link/network/dtls/mbedtls/mbedtls-2.16.2/library\entropy.c ****     ret = entropy_update( ctx, MBEDTLS_ENTROPY_SOURCE_MANUAL, data, len );
ARM GAS  T:\msys\tmp\ccQXiRIu.s 			page 9


 247:D:/fchai/work/i-cube/I-CUBE-HUAWEI/Middlewares/Third_Party/Huawei/iot_link/network/dtls/mbedtls/mbedtls-2.16.2/library\entropy.c **** 
 248:D:/fchai/work/i-cube/I-CUBE-HUAWEI/Middlewares/Third_Party/Huawei/iot_link/network/dtls/mbedtls/mbedtls-2.16.2/library\entropy.c **** #if defined(MBEDTLS_THREADING_C)
 249:D:/fchai/work/i-cube/I-CUBE-HUAWEI/Middlewares/Third_Party/Huawei/iot_link/network/dtls/mbedtls/mbedtls-2.16.2/library\entropy.c ****     if( mbedtls_mutex_unlock( &ctx->mutex ) != 0 )
 250:D:/fchai/work/i-cube/I-CUBE-HUAWEI/Middlewares/Third_Party/Huawei/iot_link/network/dtls/mbedtls/mbedtls-2.16.2/library\entropy.c ****         return( MBEDTLS_ERR_THREADING_MUTEX_ERROR );
 251:D:/fchai/work/i-cube/I-CUBE-HUAWEI/Middlewares/Third_Party/Huawei/iot_link/network/dtls/mbedtls/mbedtls-2.16.2/library\entropy.c **** #endif
 252:D:/fchai/work/i-cube/I-CUBE-HUAWEI/Middlewares/Third_Party/Huawei/iot_link/network/dtls/mbedtls/mbedtls-2.16.2/library\entropy.c **** 
 253:D:/fchai/work/i-cube/I-CUBE-HUAWEI/Middlewares/Third_Party/Huawei/iot_link/network/dtls/mbedtls/mbedtls-2.16.2/library\entropy.c ****     return( ret );
 254:D:/fchai/work/i-cube/I-CUBE-HUAWEI/Middlewares/Third_Party/Huawei/iot_link/network/dtls/mbedtls/mbedtls-2.16.2/library\entropy.c **** }
 255:D:/fchai/work/i-cube/I-CUBE-HUAWEI/Middlewares/Third_Party/Huawei/iot_link/network/dtls/mbedtls/mbedtls-2.16.2/library\entropy.c **** 
 256:D:/fchai/work/i-cube/I-CUBE-HUAWEI/Middlewares/Third_Party/Huawei/iot_link/network/dtls/mbedtls/mbedtls-2.16.2/library\entropy.c **** /*
 257:D:/fchai/work/i-cube/I-CUBE-HUAWEI/Middlewares/Third_Party/Huawei/iot_link/network/dtls/mbedtls/mbedtls-2.16.2/library\entropy.c ****  * Run through the different sources to add entropy to our accumulator
 258:D:/fchai/work/i-cube/I-CUBE-HUAWEI/Middlewares/Third_Party/Huawei/iot_link/network/dtls/mbedtls/mbedtls-2.16.2/library\entropy.c ****  */
 259:D:/fchai/work/i-cube/I-CUBE-HUAWEI/Middlewares/Third_Party/Huawei/iot_link/network/dtls/mbedtls/mbedtls-2.16.2/library\entropy.c **** static int entropy_gather_internal( mbedtls_entropy_context *ctx )
 260:D:/fchai/work/i-cube/I-CUBE-HUAWEI/Middlewares/Third_Party/Huawei/iot_link/network/dtls/mbedtls/mbedtls-2.16.2/library\entropy.c **** {
 189              		.loc 1 260 1 is_stmt 1 view -0
 190              		.cfi_startproc
 191              		@ args = 0, pretend = 0, frame = 136
 192              		@ frame_needed = 0, uses_anonymous_args = 0
 261:D:/fchai/work/i-cube/I-CUBE-HUAWEI/Middlewares/Third_Party/Huawei/iot_link/network/dtls/mbedtls/mbedtls-2.16.2/library\entropy.c ****     int ret, i, have_one_strong = 0;
 193              		.loc 1 261 5 view .LVU48
 262:D:/fchai/work/i-cube/I-CUBE-HUAWEI/Middlewares/Third_Party/Huawei/iot_link/network/dtls/mbedtls/mbedtls-2.16.2/library\entropy.c ****     unsigned char buf[MBEDTLS_ENTROPY_MAX_GATHER];
 194              		.loc 1 262 5 view .LVU49
 263:D:/fchai/work/i-cube/I-CUBE-HUAWEI/Middlewares/Third_Party/Huawei/iot_link/network/dtls/mbedtls/mbedtls-2.16.2/library\entropy.c ****     size_t olen;
 195              		.loc 1 263 5 view .LVU50
 264:D:/fchai/work/i-cube/I-CUBE-HUAWEI/Middlewares/Third_Party/Huawei/iot_link/network/dtls/mbedtls/mbedtls-2.16.2/library\entropy.c **** 
 265:D:/fchai/work/i-cube/I-CUBE-HUAWEI/Middlewares/Third_Party/Huawei/iot_link/network/dtls/mbedtls/mbedtls-2.16.2/library\entropy.c ****     if( ctx->source_count == 0 )
 196              		.loc 1 265 5 view .LVU51
 260:D:/fchai/work/i-cube/I-CUBE-HUAWEI/Middlewares/Third_Party/Huawei/iot_link/network/dtls/mbedtls/mbedtls-2.16.2/library\entropy.c ****     int ret, i, have_one_strong = 0;
 197              		.loc 1 260 1 is_stmt 0 view .LVU52
 198 0000 2DE9F047 		push	{r4, r5, r6, r7, r8, r9, r10, lr}
 199              	.LCFI4:
 200              		.cfi_def_cfa_offset 32
 201              		.cfi_offset 4, -32
 202              		.cfi_offset 5, -28
 203              		.cfi_offset 6, -24
 204              		.cfi_offset 7, -20
 205              		.cfi_offset 8, -16
 206              		.cfi_offset 9, -12
 207              		.cfi_offset 10, -8
 208              		.cfi_offset 14, -4
 209              		.loc 1 265 12 view .LVU53
 210 0004 036F     		ldr	r3, [r0, #112]
 211              		.loc 1 265 7 view .LVU54
 212 0006 002B     		cmp	r3, #0
 260:D:/fchai/work/i-cube/I-CUBE-HUAWEI/Middlewares/Third_Party/Huawei/iot_link/network/dtls/mbedtls/mbedtls-2.16.2/library\entropy.c ****     int ret, i, have_one_strong = 0;
 213              		.loc 1 260 1 view .LVU55
 214 0008 A2B0     		sub	sp, sp, #136
 215              	.LCFI5:
 216              		.cfi_def_cfa_offset 168
 217              		.loc 1 265 7 view .LVU56
 218 000a 47D0     		beq	.L20
 219              	.LVL23:
 266:D:/fchai/work/i-cube/I-CUBE-HUAWEI/Middlewares/Third_Party/Huawei/iot_link/network/dtls/mbedtls/mbedtls-2.16.2/library\entropy.c ****         return( MBEDTLS_ERR_ENTROPY_NO_SOURCES_DEFINED );
 267:D:/fchai/work/i-cube/I-CUBE-HUAWEI/Middlewares/Third_Party/Huawei/iot_link/network/dtls/mbedtls/mbedtls-2.16.2/library\entropy.c **** 
 268:D:/fchai/work/i-cube/I-CUBE-HUAWEI/Middlewares/Third_Party/Huawei/iot_link/network/dtls/mbedtls/mbedtls-2.16.2/library\entropy.c ****     /*
 269:D:/fchai/work/i-cube/I-CUBE-HUAWEI/Middlewares/Third_Party/Huawei/iot_link/network/dtls/mbedtls/mbedtls-2.16.2/library\entropy.c ****      * Run through our entropy sources
 270:D:/fchai/work/i-cube/I-CUBE-HUAWEI/Middlewares/Third_Party/Huawei/iot_link/network/dtls/mbedtls/mbedtls-2.16.2/library\entropy.c ****      */
ARM GAS  T:\msys\tmp\ccQXiRIu.s 			page 10


 271:D:/fchai/work/i-cube/I-CUBE-HUAWEI/Middlewares/Third_Party/Huawei/iot_link/network/dtls/mbedtls/mbedtls-2.16.2/library\entropy.c ****     for( i = 0; i < ctx->source_count; i++ )
 220              		.loc 1 271 17 is_stmt 1 view .LVU57
 221 000c D8BF     		it	le
 222 000e 0DF10809 		addle	r9, sp, #8
 223              		.loc 1 271 5 is_stmt 0 view .LVU58
 224 0012 3BDD     		ble	.L14
 261:D:/fchai/work/i-cube/I-CUBE-HUAWEI/Middlewares/Third_Party/Huawei/iot_link/network/dtls/mbedtls/mbedtls-2.16.2/library\entropy.c ****     unsigned char buf[MBEDTLS_ENTROPY_MAX_GATHER];
 225              		.loc 1 261 17 view .LVU59
 226 0014 0027     		movs	r7, #0
 227 0016 8046     		mov	r8, r0
 228              		.loc 1 271 12 view .LVU60
 229 0018 3E46     		mov	r6, r7
 272:D:/fchai/work/i-cube/I-CUBE-HUAWEI/Middlewares/Third_Party/Huawei/iot_link/network/dtls/mbedtls/mbedtls-2.16.2/library\entropy.c ****     {
 273:D:/fchai/work/i-cube/I-CUBE-HUAWEI/Middlewares/Third_Party/Huawei/iot_link/network/dtls/mbedtls/mbedtls-2.16.2/library\entropy.c ****         if( ctx->source[i].strong == MBEDTLS_ENTROPY_SOURCE_STRONG )
 274:D:/fchai/work/i-cube/I-CUBE-HUAWEI/Middlewares/Third_Party/Huawei/iot_link/network/dtls/mbedtls/mbedtls-2.16.2/library\entropy.c ****             have_one_strong = 1;
 275:D:/fchai/work/i-cube/I-CUBE-HUAWEI/Middlewares/Third_Party/Huawei/iot_link/network/dtls/mbedtls/mbedtls-2.16.2/library\entropy.c **** 
 276:D:/fchai/work/i-cube/I-CUBE-HUAWEI/Middlewares/Third_Party/Huawei/iot_link/network/dtls/mbedtls/mbedtls-2.16.2/library\entropy.c ****         olen = 0;
 230              		.loc 1 276 14 view .LVU61
 231 001a BA46     		mov	r10, r7
 232 001c 0446     		mov	r4, r0
 233 001e 0DF10809 		add	r9, sp, #8
 234 0022 06E0     		b	.L18
 235              	.LVL24:
 236              	.L17:
 271:D:/fchai/work/i-cube/I-CUBE-HUAWEI/Middlewares/Third_Party/Huawei/iot_link/network/dtls/mbedtls/mbedtls-2.16.2/library\entropy.c ****     {
 237              		.loc 1 271 40 is_stmt 1 discriminator 2 view .LVU62
 271:D:/fchai/work/i-cube/I-CUBE-HUAWEI/Middlewares/Third_Party/Huawei/iot_link/network/dtls/mbedtls/mbedtls-2.16.2/library\entropy.c ****     {
 238              		.loc 1 271 5 is_stmt 0 discriminator 2 view .LVU63
 239 0024 D8F87030 		ldr	r3, [r8, #112]
 271:D:/fchai/work/i-cube/I-CUBE-HUAWEI/Middlewares/Third_Party/Huawei/iot_link/network/dtls/mbedtls/mbedtls-2.16.2/library\entropy.c ****     {
 240              		.loc 1 271 41 discriminator 2 view .LVU64
 241 0028 0136     		adds	r6, r6, #1
 242              	.LVL25:
 271:D:/fchai/work/i-cube/I-CUBE-HUAWEI/Middlewares/Third_Party/Huawei/iot_link/network/dtls/mbedtls/mbedtls-2.16.2/library\entropy.c ****     {
 243              		.loc 1 271 17 is_stmt 1 discriminator 2 view .LVU65
 271:D:/fchai/work/i-cube/I-CUBE-HUAWEI/Middlewares/Third_Party/Huawei/iot_link/network/dtls/mbedtls/mbedtls-2.16.2/library\entropy.c ****     {
 244              		.loc 1 271 5 is_stmt 0 discriminator 2 view .LVU66
 245 002a B342     		cmp	r3, r6
 246 002c 04F11404 		add	r4, r4, #20
 247 0030 23DD     		ble	.L33
 248              	.LVL26:
 249              	.L18:
 273:D:/fchai/work/i-cube/I-CUBE-HUAWEI/Middlewares/Third_Party/Huawei/iot_link/network/dtls/mbedtls/mbedtls-2.16.2/library\entropy.c ****             have_one_strong = 1;
 250              		.loc 1 273 9 is_stmt 1 view .LVU67
 273:D:/fchai/work/i-cube/I-CUBE-HUAWEI/Middlewares/Third_Party/Huawei/iot_link/network/dtls/mbedtls/mbedtls-2.16.2/library\entropy.c ****             have_one_strong = 1;
 251              		.loc 1 273 27 is_stmt 0 view .LVU68
 252 0032 D4F88430 		ldr	r3, [r4, #132]
 253              		.loc 1 276 14 view .LVU69
 254 0036 CDF804A0 		str	r10, [sp, #4]
 274:D:/fchai/work/i-cube/I-CUBE-HUAWEI/Middlewares/Third_Party/Huawei/iot_link/network/dtls/mbedtls/mbedtls-2.16.2/library\entropy.c **** 
 255              		.loc 1 274 29 view .LVU70
 256 003a 012B     		cmp	r3, #1
 277:D:/fchai/work/i-cube/I-CUBE-HUAWEI/Middlewares/Third_Party/Huawei/iot_link/network/dtls/mbedtls/mbedtls-2.16.2/library\entropy.c ****         if( ( ret = ctx->source[i].f_source( ctx->source[i].p_source,
 257              		.loc 1 277 21 view .LVU71
 258 003c D4E91D50 		ldrd	r5, r0, [r4, #116]
 259 0040 01AB     		add	r3, sp, #4
 260 0042 4FF08002 		mov	r2, #128
ARM GAS  T:\msys\tmp\ccQXiRIu.s 			page 11


 261 0046 4946     		mov	r1, r9
 274:D:/fchai/work/i-cube/I-CUBE-HUAWEI/Middlewares/Third_Party/Huawei/iot_link/network/dtls/mbedtls/mbedtls-2.16.2/library\entropy.c **** 
 262              		.loc 1 274 29 view .LVU72
 263 0048 08BF     		it	eq
 264 004a 0127     		moveq	r7, #1
 265              	.LVL27:
 276:D:/fchai/work/i-cube/I-CUBE-HUAWEI/Middlewares/Third_Party/Huawei/iot_link/network/dtls/mbedtls/mbedtls-2.16.2/library\entropy.c ****         if( ( ret = ctx->source[i].f_source( ctx->source[i].p_source,
 266              		.loc 1 276 9 is_stmt 1 view .LVU73
 267              		.loc 1 277 9 view .LVU74
 268              		.loc 1 277 21 is_stmt 0 view .LVU75
 269 004c A847     		blx	r5
 270              	.LVL28:
 278:D:/fchai/work/i-cube/I-CUBE-HUAWEI/Middlewares/Third_Party/Huawei/iot_link/network/dtls/mbedtls/mbedtls-2.16.2/library\entropy.c ****                         buf, MBEDTLS_ENTROPY_MAX_GATHER, &olen ) ) != 0 )
 279:D:/fchai/work/i-cube/I-CUBE-HUAWEI/Middlewares/Third_Party/Huawei/iot_link/network/dtls/mbedtls/mbedtls-2.16.2/library\entropy.c ****         {
 280:D:/fchai/work/i-cube/I-CUBE-HUAWEI/Middlewares/Third_Party/Huawei/iot_link/network/dtls/mbedtls/mbedtls-2.16.2/library\entropy.c ****             goto cleanup;
 281:D:/fchai/work/i-cube/I-CUBE-HUAWEI/Middlewares/Third_Party/Huawei/iot_link/network/dtls/mbedtls/mbedtls-2.16.2/library\entropy.c ****         }
 282:D:/fchai/work/i-cube/I-CUBE-HUAWEI/Middlewares/Third_Party/Huawei/iot_link/network/dtls/mbedtls/mbedtls-2.16.2/library\entropy.c **** 
 283:D:/fchai/work/i-cube/I-CUBE-HUAWEI/Middlewares/Third_Party/Huawei/iot_link/network/dtls/mbedtls/mbedtls-2.16.2/library\entropy.c ****         /*
 284:D:/fchai/work/i-cube/I-CUBE-HUAWEI/Middlewares/Third_Party/Huawei/iot_link/network/dtls/mbedtls/mbedtls-2.16.2/library\entropy.c ****          * Add if we actually gathered something
 285:D:/fchai/work/i-cube/I-CUBE-HUAWEI/Middlewares/Third_Party/Huawei/iot_link/network/dtls/mbedtls/mbedtls-2.16.2/library\entropy.c ****          */
 286:D:/fchai/work/i-cube/I-CUBE-HUAWEI/Middlewares/Third_Party/Huawei/iot_link/network/dtls/mbedtls/mbedtls-2.16.2/library\entropy.c ****         if( olen > 0 )
 271              		.loc 1 286 9 is_stmt 1 view .LVU76
 277:D:/fchai/work/i-cube/I-CUBE-HUAWEI/Middlewares/Third_Party/Huawei/iot_link/network/dtls/mbedtls/mbedtls-2.16.2/library\entropy.c ****                         buf, MBEDTLS_ENTROPY_MAX_GATHER, &olen ) ) != 0 )
 272              		.loc 1 277 11 is_stmt 0 view .LVU77
 273 004e 0546     		mov	r5, r0
 274 0050 A0B9     		cbnz	r0, .L16
 275              		.loc 1 286 18 view .LVU78
 276 0052 019B     		ldr	r3, [sp, #4]
 277              		.loc 1 286 11 view .LVU79
 278 0054 002B     		cmp	r3, #0
 279 0056 E5D0     		beq	.L17
 287:D:/fchai/work/i-cube/I-CUBE-HUAWEI/Middlewares/Third_Party/Huawei/iot_link/network/dtls/mbedtls/mbedtls-2.16.2/library\entropy.c ****         {
 288:D:/fchai/work/i-cube/I-CUBE-HUAWEI/Middlewares/Third_Party/Huawei/iot_link/network/dtls/mbedtls/mbedtls-2.16.2/library\entropy.c ****             if( ( ret = entropy_update( ctx, (unsigned char) i,
 280              		.loc 1 288 13 is_stmt 1 view .LVU80
 281              		.loc 1 288 25 is_stmt 0 view .LVU81
 282 0058 4A46     		mov	r2, r9
 283 005a F1B2     		uxtb	r1, r6
 284 005c 4046     		mov	r0, r8
 285              	.LVL29:
 286              		.loc 1 288 25 view .LVU82
 287 005e FFF7FEFF 		bl	entropy_update
 288              	.LVL30:
 289:D:/fchai/work/i-cube/I-CUBE-HUAWEI/Middlewares/Third_Party/Huawei/iot_link/network/dtls/mbedtls/mbedtls-2.16.2/library\entropy.c ****                                         buf, olen ) ) != 0 )
 290:D:/fchai/work/i-cube/I-CUBE-HUAWEI/Middlewares/Third_Party/Huawei/iot_link/network/dtls/mbedtls/mbedtls-2.16.2/library\entropy.c ****                 return( ret );
 291:D:/fchai/work/i-cube/I-CUBE-HUAWEI/Middlewares/Third_Party/Huawei/iot_link/network/dtls/mbedtls/mbedtls-2.16.2/library\entropy.c ****             ctx->source[i].size += olen;
 289              		.loc 1 291 13 is_stmt 1 view .LVU83
 288:D:/fchai/work/i-cube/I-CUBE-HUAWEI/Middlewares/Third_Party/Huawei/iot_link/network/dtls/mbedtls/mbedtls-2.16.2/library\entropy.c ****                                         buf, olen ) ) != 0 )
 290              		.loc 1 288 15 is_stmt 0 view .LVU84
 291 0062 B0B9     		cbnz	r0, .L21
 292              		.loc 1 291 33 view .LVU85
 293 0064 E36F     		ldr	r3, [r4, #124]
 294 0066 019A     		ldr	r2, [sp, #4]
 295 0068 1344     		add	r3, r3, r2
 296 006a E367     		str	r3, [r4, #124]
 297              	.LVL31:
 271:D:/fchai/work/i-cube/I-CUBE-HUAWEI/Middlewares/Third_Party/Huawei/iot_link/network/dtls/mbedtls/mbedtls-2.16.2/library\entropy.c ****     {
 298              		.loc 1 271 40 is_stmt 1 view .LVU86
ARM GAS  T:\msys\tmp\ccQXiRIu.s 			page 12


 271:D:/fchai/work/i-cube/I-CUBE-HUAWEI/Middlewares/Third_Party/Huawei/iot_link/network/dtls/mbedtls/mbedtls-2.16.2/library\entropy.c ****     {
 299              		.loc 1 271 5 is_stmt 0 view .LVU87
 300 006c D8F87030 		ldr	r3, [r8, #112]
 271:D:/fchai/work/i-cube/I-CUBE-HUAWEI/Middlewares/Third_Party/Huawei/iot_link/network/dtls/mbedtls/mbedtls-2.16.2/library\entropy.c ****     {
 301              		.loc 1 271 41 view .LVU88
 302 0070 0136     		adds	r6, r6, #1
 303              	.LVL32:
 271:D:/fchai/work/i-cube/I-CUBE-HUAWEI/Middlewares/Third_Party/Huawei/iot_link/network/dtls/mbedtls/mbedtls-2.16.2/library\entropy.c ****     {
 304              		.loc 1 271 17 is_stmt 1 view .LVU89
 271:D:/fchai/work/i-cube/I-CUBE-HUAWEI/Middlewares/Third_Party/Huawei/iot_link/network/dtls/mbedtls/mbedtls-2.16.2/library\entropy.c ****     {
 305              		.loc 1 271 5 is_stmt 0 view .LVU90
 306 0072 B342     		cmp	r3, r6
 307 0074 04F11404 		add	r4, r4, #20
 308 0078 DBDC     		bgt	.L18
 309              	.L33:
 292:D:/fchai/work/i-cube/I-CUBE-HUAWEI/Middlewares/Third_Party/Huawei/iot_link/network/dtls/mbedtls/mbedtls-2.16.2/library\entropy.c ****         }
 293:D:/fchai/work/i-cube/I-CUBE-HUAWEI/Middlewares/Third_Party/Huawei/iot_link/network/dtls/mbedtls/mbedtls-2.16.2/library\entropy.c ****     }
 294:D:/fchai/work/i-cube/I-CUBE-HUAWEI/Middlewares/Third_Party/Huawei/iot_link/network/dtls/mbedtls/mbedtls-2.16.2/library\entropy.c **** 
 295:D:/fchai/work/i-cube/I-CUBE-HUAWEI/Middlewares/Third_Party/Huawei/iot_link/network/dtls/mbedtls/mbedtls-2.16.2/library\entropy.c ****     if( have_one_strong == 0 )
 310              		.loc 1 295 5 is_stmt 1 view .LVU91
 311              		.loc 1 295 7 is_stmt 0 view .LVU92
 312 007a 3FB1     		cbz	r7, .L14
 313              	.LVL33:
 314              	.L16:
 296:D:/fchai/work/i-cube/I-CUBE-HUAWEI/Middlewares/Third_Party/Huawei/iot_link/network/dtls/mbedtls/mbedtls-2.16.2/library\entropy.c ****         ret = MBEDTLS_ERR_ENTROPY_NO_STRONG_SOURCE;
 297:D:/fchai/work/i-cube/I-CUBE-HUAWEI/Middlewares/Third_Party/Huawei/iot_link/network/dtls/mbedtls/mbedtls-2.16.2/library\entropy.c **** 
 298:D:/fchai/work/i-cube/I-CUBE-HUAWEI/Middlewares/Third_Party/Huawei/iot_link/network/dtls/mbedtls/mbedtls-2.16.2/library\entropy.c **** cleanup:
 299:D:/fchai/work/i-cube/I-CUBE-HUAWEI/Middlewares/Third_Party/Huawei/iot_link/network/dtls/mbedtls/mbedtls-2.16.2/library\entropy.c ****     mbedtls_platform_zeroize( buf, sizeof( buf ) );
 315              		.loc 1 299 5 is_stmt 1 view .LVU93
 316 007c 4846     		mov	r0, r9
 317 007e 8021     		movs	r1, #128
 318 0080 FFF7FEFF 		bl	mbedtls_platform_zeroize
 319              	.LVL34:
 300:D:/fchai/work/i-cube/I-CUBE-HUAWEI/Middlewares/Third_Party/Huawei/iot_link/network/dtls/mbedtls/mbedtls-2.16.2/library\entropy.c **** 
 301:D:/fchai/work/i-cube/I-CUBE-HUAWEI/Middlewares/Third_Party/Huawei/iot_link/network/dtls/mbedtls/mbedtls-2.16.2/library\entropy.c ****     return( ret );
 320              		.loc 1 301 5 view .LVU94
 321              	.L12:
 302:D:/fchai/work/i-cube/I-CUBE-HUAWEI/Middlewares/Third_Party/Huawei/iot_link/network/dtls/mbedtls/mbedtls-2.16.2/library\entropy.c **** }
 322              		.loc 1 302 1 is_stmt 0 view .LVU95
 323 0084 2846     		mov	r0, r5
 324 0086 22B0     		add	sp, sp, #136
 325              	.LCFI6:
 326              		.cfi_remember_state
 327              		.cfi_def_cfa_offset 32
 328              		@ sp needed
 329 0088 BDE8F087 		pop	{r4, r5, r6, r7, r8, r9, r10, pc}
 330              	.LVL35:
 331              	.L14:
 332              	.LCFI7:
 333              		.cfi_restore_state
 295:D:/fchai/work/i-cube/I-CUBE-HUAWEI/Middlewares/Third_Party/Huawei/iot_link/network/dtls/mbedtls/mbedtls-2.16.2/library\entropy.c ****         ret = MBEDTLS_ERR_ENTROPY_NO_STRONG_SOURCE;
 334              		.loc 1 295 5 is_stmt 1 view .LVU96
 296:D:/fchai/work/i-cube/I-CUBE-HUAWEI/Middlewares/Third_Party/Huawei/iot_link/network/dtls/mbedtls/mbedtls-2.16.2/library\entropy.c **** 
 335              		.loc 1 296 9 view .LVU97
 296:D:/fchai/work/i-cube/I-CUBE-HUAWEI/Middlewares/Third_Party/Huawei/iot_link/network/dtls/mbedtls/mbedtls-2.16.2/library\entropy.c **** 
 336              		.loc 1 296 13 is_stmt 0 view .LVU98
 337 008c 6FF03C05 		mvn	r5, #60
ARM GAS  T:\msys\tmp\ccQXiRIu.s 			page 13


 338 0090 F4E7     		b	.L16
 339              	.LVL36:
 340              	.L21:
 296:D:/fchai/work/i-cube/I-CUBE-HUAWEI/Middlewares/Third_Party/Huawei/iot_link/network/dtls/mbedtls/mbedtls-2.16.2/library\entropy.c **** 
 341              		.loc 1 296 13 view .LVU99
 342 0092 0546     		mov	r5, r0
 343              		.loc 1 302 1 view .LVU100
 344 0094 2846     		mov	r0, r5
 345              		.loc 1 302 1 view .LVU101
 346 0096 22B0     		add	sp, sp, #136
 347              	.LCFI8:
 348              		.cfi_remember_state
 349              		.cfi_def_cfa_offset 32
 350              		@ sp needed
 351 0098 BDE8F087 		pop	{r4, r5, r6, r7, r8, r9, r10, pc}
 352              	.LVL37:
 353              	.L20:
 354              	.LCFI9:
 355              		.cfi_restore_state
 266:D:/fchai/work/i-cube/I-CUBE-HUAWEI/Middlewares/Third_Party/Huawei/iot_link/network/dtls/mbedtls/mbedtls-2.16.2/library\entropy.c **** 
 356              		.loc 1 266 15 view .LVU102
 357 009c 6FF03F05 		mvn	r5, #63
 358 00a0 F0E7     		b	.L12
 359              		.cfi_endproc
 360              	.LFE5:
 362 00a2 00BF     		.section	.text.mbedtls_entropy_init,"ax",%progbits
 363              		.align	1
 364              		.p2align 2,,3
 365              		.global	mbedtls_entropy_init
 366              		.syntax unified
 367              		.thumb
 368              		.thumb_func
 369              		.fpu fpv4-sp-d16
 371              	mbedtls_entropy_init:
 372              	.LVL38:
 373              	.LFB0:
  66:D:/fchai/work/i-cube/I-CUBE-HUAWEI/Middlewares/Third_Party/Huawei/iot_link/network/dtls/mbedtls/mbedtls-2.16.2/library\entropy.c ****     ctx->source_count = 0;
 374              		.loc 1 66 1 is_stmt 1 view -0
 375              		.cfi_startproc
 376              		@ args = 0, pretend = 0, frame = 0
 377              		@ frame_needed = 0, uses_anonymous_args = 0
  67:D:/fchai/work/i-cube/I-CUBE-HUAWEI/Middlewares/Third_Party/Huawei/iot_link/network/dtls/mbedtls/mbedtls-2.16.2/library\entropy.c ****     memset( ctx->source, 0, sizeof( ctx->source ) );
 378              		.loc 1 67 5 view .LVU104
  66:D:/fchai/work/i-cube/I-CUBE-HUAWEI/Middlewares/Third_Party/Huawei/iot_link/network/dtls/mbedtls/mbedtls-2.16.2/library\entropy.c ****     ctx->source_count = 0;
 379              		.loc 1 66 1 is_stmt 0 view .LVU105
 380 0000 70B5     		push	{r4, r5, r6, lr}
 381              	.LCFI10:
 382              		.cfi_def_cfa_offset 16
 383              		.cfi_offset 4, -16
 384              		.cfi_offset 5, -12
 385              		.cfi_offset 6, -8
 386              		.cfi_offset 14, -4
  67:D:/fchai/work/i-cube/I-CUBE-HUAWEI/Middlewares/Third_Party/Huawei/iot_link/network/dtls/mbedtls/mbedtls-2.16.2/library\entropy.c ****     memset( ctx->source, 0, sizeof( ctx->source ) );
 387              		.loc 1 67 23 view .LVU106
 388 0002 0025     		movs	r5, #0
  66:D:/fchai/work/i-cube/I-CUBE-HUAWEI/Middlewares/Third_Party/Huawei/iot_link/network/dtls/mbedtls/mbedtls-2.16.2/library\entropy.c ****     ctx->source_count = 0;
 389              		.loc 1 66 1 view .LVU107
ARM GAS  T:\msys\tmp\ccQXiRIu.s 			page 14


 390 0004 0446     		mov	r4, r0
  67:D:/fchai/work/i-cube/I-CUBE-HUAWEI/Middlewares/Third_Party/Huawei/iot_link/network/dtls/mbedtls/mbedtls-2.16.2/library\entropy.c ****     memset( ctx->source, 0, sizeof( ctx->source ) );
 391              		.loc 1 67 23 view .LVU108
 392 0006 0567     		str	r5, [r0, #112]
  68:D:/fchai/work/i-cube/I-CUBE-HUAWEI/Middlewares/Third_Party/Huawei/iot_link/network/dtls/mbedtls/mbedtls-2.16.2/library\entropy.c **** 
 393              		.loc 1 68 5 is_stmt 1 view .LVU109
 394 0008 4567     		str	r5, [r0, #116]	@ unaligned
 395 000a 8567     		str	r5, [r0, #120]	@ unaligned
 396 000c C567     		str	r5, [r0, #124]	@ unaligned
 397 000e C0F88050 		str	r5, [r0, #128]	@ unaligned
 398 0012 C0F88450 		str	r5, [r0, #132]	@ unaligned
  74:D:/fchai/work/i-cube/I-CUBE-HUAWEI/Middlewares/Third_Party/Huawei/iot_link/network/dtls/mbedtls/mbedtls-2.16.2/library\entropy.c **** #if defined(MBEDTLS_ENTROPY_SHA512_ACCUMULATOR)
 399              		.loc 1 74 5 view .LVU110
  74:D:/fchai/work/i-cube/I-CUBE-HUAWEI/Middlewares/Third_Party/Huawei/iot_link/network/dtls/mbedtls/mbedtls-2.16.2/library\entropy.c **** #if defined(MBEDTLS_ENTROPY_SHA512_ACCUMULATOR)
 400              		.loc 1 74 30 is_stmt 0 view .LVU111
 401 0016 40F8045B 		str	r5, [r0], #4
 402              	.LVL39:
  78:D:/fchai/work/i-cube/I-CUBE-HUAWEI/Middlewares/Third_Party/Huawei/iot_link/network/dtls/mbedtls/mbedtls-2.16.2/library\entropy.c **** #endif
 403              		.loc 1 78 5 is_stmt 1 view .LVU112
 404 001a FFF7FEFF 		bl	mbedtls_sha256_init
 405              	.LVL40:
 109:D:/fchai/work/i-cube/I-CUBE-HUAWEI/Middlewares/Third_Party/Huawei/iot_link/network/dtls/mbedtls/mbedtls-2.16.2/library\entropy.c ****                                 MBEDTLS_ENTROPY_MIN_HARDWARE,
 406              		.loc 1 109 5 view .LVU113
 407              	.LBB4:
 408              	.LBI4:
 143:D:/fchai/work/i-cube/I-CUBE-HUAWEI/Middlewares/Third_Party/Huawei/iot_link/network/dtls/mbedtls/mbedtls-2.16.2/library\entropy.c ****                         mbedtls_entropy_f_source_ptr f_source, void *p_source,
 409              		.loc 1 143 5 view .LVU114
 410              	.LBB5:
 147:D:/fchai/work/i-cube/I-CUBE-HUAWEI/Middlewares/Third_Party/Huawei/iot_link/network/dtls/mbedtls/mbedtls-2.16.2/library\entropy.c **** 
 411              		.loc 1 147 5 view .LVU115
 154:D:/fchai/work/i-cube/I-CUBE-HUAWEI/Middlewares/Third_Party/Huawei/iot_link/network/dtls/mbedtls/mbedtls-2.16.2/library\entropy.c ****     if( idx >= MBEDTLS_ENTROPY_MAX_SOURCES )
 412              		.loc 1 154 5 view .LVU116
 154:D:/fchai/work/i-cube/I-CUBE-HUAWEI/Middlewares/Third_Party/Huawei/iot_link/network/dtls/mbedtls/mbedtls-2.16.2/library\entropy.c ****     if( idx >= MBEDTLS_ENTROPY_MAX_SOURCES )
 413              		.loc 1 154 9 is_stmt 0 view .LVU117
 414 001e 236F     		ldr	r3, [r4, #112]
 415              	.LVL41:
 155:D:/fchai/work/i-cube/I-CUBE-HUAWEI/Middlewares/Third_Party/Huawei/iot_link/network/dtls/mbedtls/mbedtls-2.16.2/library\entropy.c ****     {
 416              		.loc 1 155 5 is_stmt 1 view .LVU118
 155:D:/fchai/work/i-cube/I-CUBE-HUAWEI/Middlewares/Third_Party/Huawei/iot_link/network/dtls/mbedtls/mbedtls-2.16.2/library\entropy.c ****     {
 417              		.loc 1 155 7 is_stmt 0 view .LVU119
 418 0020 AB42     		cmp	r3, r5
 419 0022 0CDC     		bgt	.L34
 161:D:/fchai/work/i-cube/I-CUBE-HUAWEI/Middlewares/Third_Party/Huawei/iot_link/network/dtls/mbedtls/mbedtls-2.16.2/library\entropy.c ****     ctx->source[idx].p_source  = p_source;
 420              		.loc 1 161 5 is_stmt 1 view .LVU120
 161:D:/fchai/work/i-cube/I-CUBE-HUAWEI/Middlewares/Third_Party/Huawei/iot_link/network/dtls/mbedtls/mbedtls-2.16.2/library\entropy.c ****     ctx->source[idx].p_source  = p_source;
 421              		.loc 1 161 32 is_stmt 0 view .LVU121
 422 0024 03EB8302 		add	r2, r3, r3, lsl #2
 423 0028 04EB8202 		add	r2, r4, r2, lsl #2
 424 002c 044E     		ldr	r6, .L37
 162:D:/fchai/work/i-cube/I-CUBE-HUAWEI/Middlewares/Third_Party/Huawei/iot_link/network/dtls/mbedtls/mbedtls-2.16.2/library\entropy.c ****     ctx->source[idx].threshold = threshold;
 425              		.loc 1 162 32 view .LVU122
 426 002e 9567     		str	r5, [r2, #120]
 166:D:/fchai/work/i-cube/I-CUBE-HUAWEI/Middlewares/Third_Party/Huawei/iot_link/network/dtls/mbedtls/mbedtls-2.16.2/library\entropy.c **** 
 427              		.loc 1 166 22 view .LVU123
 428 0030 0133     		adds	r3, r3, #1
 429              	.LVL42:
 163:D:/fchai/work/i-cube/I-CUBE-HUAWEI/Middlewares/Third_Party/Huawei/iot_link/network/dtls/mbedtls/mbedtls-2.16.2/library\entropy.c ****     ctx->source[idx].strong    = strong;
ARM GAS  T:\msys\tmp\ccQXiRIu.s 			page 15


 430              		.loc 1 163 32 view .LVU124
 431 0032 2020     		movs	r0, #32
 164:D:/fchai/work/i-cube/I-CUBE-HUAWEI/Middlewares/Third_Party/Huawei/iot_link/network/dtls/mbedtls/mbedtls-2.16.2/library\entropy.c **** 
 432              		.loc 1 164 32 view .LVU125
 433 0034 0121     		movs	r1, #1
 434 0036 C2E92001 		strd	r0, r1, [r2, #128]
 161:D:/fchai/work/i-cube/I-CUBE-HUAWEI/Middlewares/Third_Party/Huawei/iot_link/network/dtls/mbedtls/mbedtls-2.16.2/library\entropy.c ****     ctx->source[idx].p_source  = p_source;
 435              		.loc 1 161 32 view .LVU126
 436 003a 5667     		str	r6, [r2, #116]
 162:D:/fchai/work/i-cube/I-CUBE-HUAWEI/Middlewares/Third_Party/Huawei/iot_link/network/dtls/mbedtls/mbedtls-2.16.2/library\entropy.c ****     ctx->source[idx].threshold = threshold;
 437              		.loc 1 162 5 is_stmt 1 view .LVU127
 163:D:/fchai/work/i-cube/I-CUBE-HUAWEI/Middlewares/Third_Party/Huawei/iot_link/network/dtls/mbedtls/mbedtls-2.16.2/library\entropy.c ****     ctx->source[idx].strong    = strong;
 438              		.loc 1 163 5 view .LVU128
 166:D:/fchai/work/i-cube/I-CUBE-HUAWEI/Middlewares/Third_Party/Huawei/iot_link/network/dtls/mbedtls/mbedtls-2.16.2/library\entropy.c **** 
 439              		.loc 1 166 5 view .LVU129
 166:D:/fchai/work/i-cube/I-CUBE-HUAWEI/Middlewares/Third_Party/Huawei/iot_link/network/dtls/mbedtls/mbedtls-2.16.2/library\entropy.c **** 
 440              		.loc 1 166 22 is_stmt 0 view .LVU130
 441 003c 2367     		str	r3, [r4, #112]
 442              	.LVL43:
 174:D:/fchai/work/i-cube/I-CUBE-HUAWEI/Middlewares/Third_Party/Huawei/iot_link/network/dtls/mbedtls/mbedtls-2.16.2/library\entropy.c **** }
 443              		.loc 1 174 5 is_stmt 1 view .LVU131
 444              	.L35:
 445              	.L34:
 174:D:/fchai/work/i-cube/I-CUBE-HUAWEI/Middlewares/Third_Party/Huawei/iot_link/network/dtls/mbedtls/mbedtls-2.16.2/library\entropy.c **** }
 446              		.loc 1 174 5 is_stmt 0 view .LVU132
 447              	.LBE5:
 448              	.LBE4:
 120:D:/fchai/work/i-cube/I-CUBE-HUAWEI/Middlewares/Third_Party/Huawei/iot_link/network/dtls/mbedtls/mbedtls-2.16.2/library\entropy.c **** 
 449              		.loc 1 120 1 view .LVU133
 450 003e 70BD     		pop	{r4, r5, r6, pc}
 451              	.LVL44:
 452              	.L38:
 120:D:/fchai/work/i-cube/I-CUBE-HUAWEI/Middlewares/Third_Party/Huawei/iot_link/network/dtls/mbedtls/mbedtls-2.16.2/library\entropy.c **** 
 453              		.loc 1 120 1 view .LVU134
 454              		.align	2
 455              	.L37:
 456 0040 00000000 		.word	mbedtls_hardware_poll
 457              		.cfi_endproc
 458              	.LFE0:
 460              		.section	.text.mbedtls_entropy_free,"ax",%progbits
 461              		.align	1
 462              		.p2align 2,,3
 463              		.global	mbedtls_entropy_free
 464              		.syntax unified
 465              		.thumb
 466              		.thumb_func
 467              		.fpu fpv4-sp-d16
 469              	mbedtls_entropy_free:
 470              	.LVL45:
 471              	.LFB1:
 123:D:/fchai/work/i-cube/I-CUBE-HUAWEI/Middlewares/Third_Party/Huawei/iot_link/network/dtls/mbedtls/mbedtls-2.16.2/library\entropy.c **** #if defined(MBEDTLS_HAVEGE_C)
 472              		.loc 1 123 1 is_stmt 1 view -0
 473              		.cfi_startproc
 474              		@ args = 0, pretend = 0, frame = 0
 475              		@ frame_needed = 0, uses_anonymous_args = 0
 133:D:/fchai/work/i-cube/I-CUBE-HUAWEI/Middlewares/Third_Party/Huawei/iot_link/network/dtls/mbedtls/mbedtls-2.16.2/library\entropy.c **** #endif
 476              		.loc 1 133 5 view .LVU136
ARM GAS  T:\msys\tmp\ccQXiRIu.s 			page 16


 123:D:/fchai/work/i-cube/I-CUBE-HUAWEI/Middlewares/Third_Party/Huawei/iot_link/network/dtls/mbedtls/mbedtls-2.16.2/library\entropy.c **** #if defined(MBEDTLS_HAVEGE_C)
 477              		.loc 1 123 1 is_stmt 0 view .LVU137
 478 0000 38B5     		push	{r3, r4, r5, lr}
 479              	.LCFI11:
 480              		.cfi_def_cfa_offset 16
 481              		.cfi_offset 3, -16
 482              		.cfi_offset 4, -12
 483              		.cfi_offset 5, -8
 484              		.cfi_offset 14, -4
 123:D:/fchai/work/i-cube/I-CUBE-HUAWEI/Middlewares/Third_Party/Huawei/iot_link/network/dtls/mbedtls/mbedtls-2.16.2/library\entropy.c **** #if defined(MBEDTLS_HAVEGE_C)
 485              		.loc 1 123 1 view .LVU138
 486 0002 0446     		mov	r4, r0
 138:D:/fchai/work/i-cube/I-CUBE-HUAWEI/Middlewares/Third_Party/Huawei/iot_link/network/dtls/mbedtls/mbedtls-2.16.2/library\entropy.c ****     mbedtls_platform_zeroize( ctx->source, sizeof( ctx->source ) );
 487              		.loc 1 138 23 view .LVU139
 488 0004 0025     		movs	r5, #0
 133:D:/fchai/work/i-cube/I-CUBE-HUAWEI/Middlewares/Third_Party/Huawei/iot_link/network/dtls/mbedtls/mbedtls-2.16.2/library\entropy.c **** #endif
 489              		.loc 1 133 5 view .LVU140
 490 0006 0430     		adds	r0, r0, #4
 491              	.LVL46:
 133:D:/fchai/work/i-cube/I-CUBE-HUAWEI/Middlewares/Third_Party/Huawei/iot_link/network/dtls/mbedtls/mbedtls-2.16.2/library\entropy.c **** #endif
 492              		.loc 1 133 5 view .LVU141
 493 0008 FFF7FEFF 		bl	mbedtls_sha256_free
 494              	.LVL47:
 138:D:/fchai/work/i-cube/I-CUBE-HUAWEI/Middlewares/Third_Party/Huawei/iot_link/network/dtls/mbedtls/mbedtls-2.16.2/library\entropy.c ****     mbedtls_platform_zeroize( ctx->source, sizeof( ctx->source ) );
 495              		.loc 1 138 5 is_stmt 1 view .LVU142
 138:D:/fchai/work/i-cube/I-CUBE-HUAWEI/Middlewares/Third_Party/Huawei/iot_link/network/dtls/mbedtls/mbedtls-2.16.2/library\entropy.c ****     mbedtls_platform_zeroize( ctx->source, sizeof( ctx->source ) );
 496              		.loc 1 138 23 is_stmt 0 view .LVU143
 497 000c 2567     		str	r5, [r4, #112]
 139:D:/fchai/work/i-cube/I-CUBE-HUAWEI/Middlewares/Third_Party/Huawei/iot_link/network/dtls/mbedtls/mbedtls-2.16.2/library\entropy.c ****     ctx->accumulator_started = 0;
 498              		.loc 1 139 5 is_stmt 1 view .LVU144
 499 000e 04F17400 		add	r0, r4, #116
 500 0012 1421     		movs	r1, #20
 501 0014 FFF7FEFF 		bl	mbedtls_platform_zeroize
 502              	.LVL48:
 140:D:/fchai/work/i-cube/I-CUBE-HUAWEI/Middlewares/Third_Party/Huawei/iot_link/network/dtls/mbedtls/mbedtls-2.16.2/library\entropy.c **** }
 503              		.loc 1 140 5 view .LVU145
 140:D:/fchai/work/i-cube/I-CUBE-HUAWEI/Middlewares/Third_Party/Huawei/iot_link/network/dtls/mbedtls/mbedtls-2.16.2/library\entropy.c **** }
 504              		.loc 1 140 30 is_stmt 0 view .LVU146
 505 0018 2560     		str	r5, [r4]
 141:D:/fchai/work/i-cube/I-CUBE-HUAWEI/Middlewares/Third_Party/Huawei/iot_link/network/dtls/mbedtls/mbedtls-2.16.2/library\entropy.c **** 
 506              		.loc 1 141 1 view .LVU147
 507 001a 38BD     		pop	{r3, r4, r5, pc}
 141:D:/fchai/work/i-cube/I-CUBE-HUAWEI/Middlewares/Third_Party/Huawei/iot_link/network/dtls/mbedtls/mbedtls-2.16.2/library\entropy.c **** 
 508              		.loc 1 141 1 view .LVU148
 509              		.cfi_endproc
 510              	.LFE1:
 512              		.section	.text.mbedtls_entropy_add_source,"ax",%progbits
 513              		.align	1
 514              		.p2align 2,,3
 515              		.global	mbedtls_entropy_add_source
 516              		.syntax unified
 517              		.thumb
 518              		.thumb_func
 519              		.fpu fpv4-sp-d16
 521              	mbedtls_entropy_add_source:
 522              	.LVL49:
 523              	.LFB2:
ARM GAS  T:\msys\tmp\ccQXiRIu.s 			page 17


 146:D:/fchai/work/i-cube/I-CUBE-HUAWEI/Middlewares/Third_Party/Huawei/iot_link/network/dtls/mbedtls/mbedtls-2.16.2/library\entropy.c ****     int idx, ret = 0;
 524              		.loc 1 146 1 is_stmt 1 view -0
 525              		.cfi_startproc
 526              		@ args = 4, pretend = 0, frame = 0
 527              		@ frame_needed = 0, uses_anonymous_args = 0
 528              		@ link register save eliminated.
 147:D:/fchai/work/i-cube/I-CUBE-HUAWEI/Middlewares/Third_Party/Huawei/iot_link/network/dtls/mbedtls/mbedtls-2.16.2/library\entropy.c **** 
 529              		.loc 1 147 5 view .LVU150
 154:D:/fchai/work/i-cube/I-CUBE-HUAWEI/Middlewares/Third_Party/Huawei/iot_link/network/dtls/mbedtls/mbedtls-2.16.2/library\entropy.c ****     if( idx >= MBEDTLS_ENTROPY_MAX_SOURCES )
 530              		.loc 1 154 5 view .LVU151
 146:D:/fchai/work/i-cube/I-CUBE-HUAWEI/Middlewares/Third_Party/Huawei/iot_link/network/dtls/mbedtls/mbedtls-2.16.2/library\entropy.c ****     int idx, ret = 0;
 531              		.loc 1 146 1 is_stmt 0 view .LVU152
 532 0000 70B4     		push	{r4, r5, r6}
 533              	.LCFI12:
 534              		.cfi_def_cfa_offset 12
 535              		.cfi_offset 4, -12
 536              		.cfi_offset 5, -8
 537              		.cfi_offset 6, -4
 154:D:/fchai/work/i-cube/I-CUBE-HUAWEI/Middlewares/Third_Party/Huawei/iot_link/network/dtls/mbedtls/mbedtls-2.16.2/library\entropy.c ****     if( idx >= MBEDTLS_ENTROPY_MAX_SOURCES )
 538              		.loc 1 154 9 view .LVU153
 539 0002 046F     		ldr	r4, [r0, #112]
 540              	.LVL50:
 155:D:/fchai/work/i-cube/I-CUBE-HUAWEI/Middlewares/Third_Party/Huawei/iot_link/network/dtls/mbedtls/mbedtls-2.16.2/library\entropy.c ****     {
 541              		.loc 1 155 5 is_stmt 1 view .LVU154
 155:D:/fchai/work/i-cube/I-CUBE-HUAWEI/Middlewares/Third_Party/Huawei/iot_link/network/dtls/mbedtls/mbedtls-2.16.2/library\entropy.c ****     {
 542              		.loc 1 155 7 is_stmt 0 view .LVU155
 543 0004 002C     		cmp	r4, #0
 544 0006 10DC     		bgt	.L43
 161:D:/fchai/work/i-cube/I-CUBE-HUAWEI/Middlewares/Third_Party/Huawei/iot_link/network/dtls/mbedtls/mbedtls-2.16.2/library\entropy.c ****     ctx->source[idx].p_source  = p_source;
 545              		.loc 1 161 5 is_stmt 1 view .LVU156
 161:D:/fchai/work/i-cube/I-CUBE-HUAWEI/Middlewares/Third_Party/Huawei/iot_link/network/dtls/mbedtls/mbedtls-2.16.2/library\entropy.c ****     ctx->source[idx].p_source  = p_source;
 546              		.loc 1 161 32 is_stmt 0 view .LVU157
 547 0008 04EB8405 		add	r5, r4, r4, lsl #2
 548 000c 00EB8505 		add	r5, r0, r5, lsl #2
 549 0010 0646     		mov	r6, r0
 163:D:/fchai/work/i-cube/I-CUBE-HUAWEI/Middlewares/Third_Party/Huawei/iot_link/network/dtls/mbedtls/mbedtls-2.16.2/library\entropy.c ****     ctx->source[idx].strong    = strong;
 550              		.loc 1 163 32 view .LVU158
 551 0012 C5F88030 		str	r3, [r5, #128]
 166:D:/fchai/work/i-cube/I-CUBE-HUAWEI/Middlewares/Third_Party/Huawei/iot_link/network/dtls/mbedtls/mbedtls-2.16.2/library\entropy.c **** 
 552              		.loc 1 166 22 view .LVU159
 553 0016 0134     		adds	r4, r4, #1
 554              	.LVL51:
 164:D:/fchai/work/i-cube/I-CUBE-HUAWEI/Middlewares/Third_Party/Huawei/iot_link/network/dtls/mbedtls/mbedtls-2.16.2/library\entropy.c **** 
 555              		.loc 1 164 32 view .LVU160
 556 0018 039B     		ldr	r3, [sp, #12]
 557              	.LVL52:
 164:D:/fchai/work/i-cube/I-CUBE-HUAWEI/Middlewares/Third_Party/Huawei/iot_link/network/dtls/mbedtls/mbedtls-2.16.2/library\entropy.c **** 
 558              		.loc 1 164 32 view .LVU161
 559 001a C5F88430 		str	r3, [r5, #132]
 162:D:/fchai/work/i-cube/I-CUBE-HUAWEI/Middlewares/Third_Party/Huawei/iot_link/network/dtls/mbedtls/mbedtls-2.16.2/library\entropy.c ****     ctx->source[idx].threshold = threshold;
 560              		.loc 1 162 32 view .LVU162
 561 001e C5E91D12 		strd	r1, r2, [r5, #116]
 163:D:/fchai/work/i-cube/I-CUBE-HUAWEI/Middlewares/Third_Party/Huawei/iot_link/network/dtls/mbedtls/mbedtls-2.16.2/library\entropy.c ****     ctx->source[idx].strong    = strong;
 562              		.loc 1 163 5 is_stmt 1 view .LVU163
 164:D:/fchai/work/i-cube/I-CUBE-HUAWEI/Middlewares/Third_Party/Huawei/iot_link/network/dtls/mbedtls/mbedtls-2.16.2/library\entropy.c **** 
 563              		.loc 1 164 5 view .LVU164
 166:D:/fchai/work/i-cube/I-CUBE-HUAWEI/Middlewares/Third_Party/Huawei/iot_link/network/dtls/mbedtls/mbedtls-2.16.2/library\entropy.c **** 
ARM GAS  T:\msys\tmp\ccQXiRIu.s 			page 18


 564              		.loc 1 166 5 view .LVU165
 147:D:/fchai/work/i-cube/I-CUBE-HUAWEI/Middlewares/Third_Party/Huawei/iot_link/network/dtls/mbedtls/mbedtls-2.16.2/library\entropy.c **** 
 565              		.loc 1 147 14 is_stmt 0 view .LVU166
 566 0022 0020     		movs	r0, #0
 567              	.LVL53:
 166:D:/fchai/work/i-cube/I-CUBE-HUAWEI/Middlewares/Third_Party/Huawei/iot_link/network/dtls/mbedtls/mbedtls-2.16.2/library\entropy.c **** 
 568              		.loc 1 166 22 view .LVU167
 569 0024 3467     		str	r4, [r6, #112]
 570              	.LVL54:
 571              	.L41:
 175:D:/fchai/work/i-cube/I-CUBE-HUAWEI/Middlewares/Third_Party/Huawei/iot_link/network/dtls/mbedtls/mbedtls-2.16.2/library\entropy.c **** 
 572              		.loc 1 175 1 view .LVU168
 573 0026 70BC     		pop	{r4, r5, r6}
 574              	.LCFI13:
 575              		.cfi_remember_state
 576              		.cfi_restore 6
 577              		.cfi_restore 5
 578              		.cfi_restore 4
 579              		.cfi_def_cfa_offset 0
 580              	.LVL55:
 175:D:/fchai/work/i-cube/I-CUBE-HUAWEI/Middlewares/Third_Party/Huawei/iot_link/network/dtls/mbedtls/mbedtls-2.16.2/library\entropy.c **** 
 581              		.loc 1 175 1 view .LVU169
 582 0028 7047     		bx	lr
 583              	.LVL56:
 584              	.L43:
 585              	.LCFI14:
 586              		.cfi_restore_state
 587              	.L42:
 157:D:/fchai/work/i-cube/I-CUBE-HUAWEI/Middlewares/Third_Party/Huawei/iot_link/network/dtls/mbedtls/mbedtls-2.16.2/library\entropy.c ****         goto exit;
 588              		.loc 1 157 13 view .LVU170
 589 002a 6FF03D00 		mvn	r0, #61
 590              	.LVL57:
 174:D:/fchai/work/i-cube/I-CUBE-HUAWEI/Middlewares/Third_Party/Huawei/iot_link/network/dtls/mbedtls/mbedtls-2.16.2/library\entropy.c **** }
 591              		.loc 1 174 5 is_stmt 1 view .LVU171
 174:D:/fchai/work/i-cube/I-CUBE-HUAWEI/Middlewares/Third_Party/Huawei/iot_link/network/dtls/mbedtls/mbedtls-2.16.2/library\entropy.c **** }
 592              		.loc 1 174 11 is_stmt 0 view .LVU172
 593 002e FAE7     		b	.L41
 594              		.cfi_endproc
 595              	.LFE2:
 597              		.section	.text.mbedtls_entropy_update_manual,"ax",%progbits
 598              		.align	1
 599              		.p2align 2,,3
 600              		.global	mbedtls_entropy_update_manual
 601              		.syntax unified
 602              		.thumb
 603              		.thumb_func
 604              		.fpu fpv4-sp-d16
 606              	mbedtls_entropy_update_manual:
 607              	.LVL58:
 608              	.LFB4:
 238:D:/fchai/work/i-cube/I-CUBE-HUAWEI/Middlewares/Third_Party/Huawei/iot_link/network/dtls/mbedtls/mbedtls-2.16.2/library\entropy.c ****     int ret;
 609              		.loc 1 238 1 is_stmt 1 view -0
 610              		.cfi_startproc
 611              		@ args = 0, pretend = 0, frame = 0
 612              		@ frame_needed = 0, uses_anonymous_args = 0
 613              		@ link register save eliminated.
 239:D:/fchai/work/i-cube/I-CUBE-HUAWEI/Middlewares/Third_Party/Huawei/iot_link/network/dtls/mbedtls/mbedtls-2.16.2/library\entropy.c **** 
ARM GAS  T:\msys\tmp\ccQXiRIu.s 			page 19


 614              		.loc 1 239 5 view .LVU174
 246:D:/fchai/work/i-cube/I-CUBE-HUAWEI/Middlewares/Third_Party/Huawei/iot_link/network/dtls/mbedtls/mbedtls-2.16.2/library\entropy.c **** 
 615              		.loc 1 246 5 view .LVU175
 238:D:/fchai/work/i-cube/I-CUBE-HUAWEI/Middlewares/Third_Party/Huawei/iot_link/network/dtls/mbedtls/mbedtls-2.16.2/library\entropy.c ****     int ret;
 616              		.loc 1 238 1 is_stmt 0 view .LVU176
 617 0000 1346     		mov	r3, r2
 246:D:/fchai/work/i-cube/I-CUBE-HUAWEI/Middlewares/Third_Party/Huawei/iot_link/network/dtls/mbedtls/mbedtls-2.16.2/library\entropy.c **** 
 618              		.loc 1 246 11 view .LVU177
 619 0002 0A46     		mov	r2, r1
 620              	.LVL59:
 246:D:/fchai/work/i-cube/I-CUBE-HUAWEI/Middlewares/Third_Party/Huawei/iot_link/network/dtls/mbedtls/mbedtls-2.16.2/library\entropy.c **** 
 621              		.loc 1 246 11 view .LVU178
 622 0004 0121     		movs	r1, #1
 623              	.LVL60:
 246:D:/fchai/work/i-cube/I-CUBE-HUAWEI/Middlewares/Third_Party/Huawei/iot_link/network/dtls/mbedtls/mbedtls-2.16.2/library\entropy.c **** 
 624              		.loc 1 246 11 view .LVU179
 625 0006 FFF7FEBF 		b	entropy_update
 626              	.LVL61:
 246:D:/fchai/work/i-cube/I-CUBE-HUAWEI/Middlewares/Third_Party/Huawei/iot_link/network/dtls/mbedtls/mbedtls-2.16.2/library\entropy.c **** 
 627              		.loc 1 246 11 view .LVU180
 628              		.cfi_endproc
 629              	.LFE4:
 631 000a 00BF     		.section	.text.mbedtls_entropy_gather,"ax",%progbits
 632              		.align	1
 633              		.p2align 2,,3
 634              		.global	mbedtls_entropy_gather
 635              		.syntax unified
 636              		.thumb
 637              		.thumb_func
 638              		.fpu fpv4-sp-d16
 640              	mbedtls_entropy_gather:
 641              	.LVL62:
 642              	.LFB6:
 303:D:/fchai/work/i-cube/I-CUBE-HUAWEI/Middlewares/Third_Party/Huawei/iot_link/network/dtls/mbedtls/mbedtls-2.16.2/library\entropy.c **** 
 304:D:/fchai/work/i-cube/I-CUBE-HUAWEI/Middlewares/Third_Party/Huawei/iot_link/network/dtls/mbedtls/mbedtls-2.16.2/library\entropy.c **** /*
 305:D:/fchai/work/i-cube/I-CUBE-HUAWEI/Middlewares/Third_Party/Huawei/iot_link/network/dtls/mbedtls/mbedtls-2.16.2/library\entropy.c ****  * Thread-safe wrapper for entropy_gather_internal()
 306:D:/fchai/work/i-cube/I-CUBE-HUAWEI/Middlewares/Third_Party/Huawei/iot_link/network/dtls/mbedtls/mbedtls-2.16.2/library\entropy.c ****  */
 307:D:/fchai/work/i-cube/I-CUBE-HUAWEI/Middlewares/Third_Party/Huawei/iot_link/network/dtls/mbedtls/mbedtls-2.16.2/library\entropy.c **** int mbedtls_entropy_gather( mbedtls_entropy_context *ctx )
 308:D:/fchai/work/i-cube/I-CUBE-HUAWEI/Middlewares/Third_Party/Huawei/iot_link/network/dtls/mbedtls/mbedtls-2.16.2/library\entropy.c **** {
 643              		.loc 1 308 1 is_stmt 1 view -0
 644              		.cfi_startproc
 645              		@ args = 0, pretend = 0, frame = 0
 646              		@ frame_needed = 0, uses_anonymous_args = 0
 647              		@ link register save eliminated.
 309:D:/fchai/work/i-cube/I-CUBE-HUAWEI/Middlewares/Third_Party/Huawei/iot_link/network/dtls/mbedtls/mbedtls-2.16.2/library\entropy.c ****     int ret;
 648              		.loc 1 309 5 view .LVU182
 310:D:/fchai/work/i-cube/I-CUBE-HUAWEI/Middlewares/Third_Party/Huawei/iot_link/network/dtls/mbedtls/mbedtls-2.16.2/library\entropy.c **** 
 311:D:/fchai/work/i-cube/I-CUBE-HUAWEI/Middlewares/Third_Party/Huawei/iot_link/network/dtls/mbedtls/mbedtls-2.16.2/library\entropy.c **** #if defined(MBEDTLS_THREADING_C)
 312:D:/fchai/work/i-cube/I-CUBE-HUAWEI/Middlewares/Third_Party/Huawei/iot_link/network/dtls/mbedtls/mbedtls-2.16.2/library\entropy.c ****     if( ( ret = mbedtls_mutex_lock( &ctx->mutex ) ) != 0 )
 313:D:/fchai/work/i-cube/I-CUBE-HUAWEI/Middlewares/Third_Party/Huawei/iot_link/network/dtls/mbedtls/mbedtls-2.16.2/library\entropy.c ****         return( ret );
 314:D:/fchai/work/i-cube/I-CUBE-HUAWEI/Middlewares/Third_Party/Huawei/iot_link/network/dtls/mbedtls/mbedtls-2.16.2/library\entropy.c **** #endif
 315:D:/fchai/work/i-cube/I-CUBE-HUAWEI/Middlewares/Third_Party/Huawei/iot_link/network/dtls/mbedtls/mbedtls-2.16.2/library\entropy.c **** 
 316:D:/fchai/work/i-cube/I-CUBE-HUAWEI/Middlewares/Third_Party/Huawei/iot_link/network/dtls/mbedtls/mbedtls-2.16.2/library\entropy.c ****     ret = entropy_gather_internal( ctx );
 649              		.loc 1 316 5 view .LVU183
 650              		.loc 1 316 11 is_stmt 0 view .LVU184
 651 0000 FFF7FEBF 		b	entropy_gather_internal
 652              	.LVL63:
ARM GAS  T:\msys\tmp\ccQXiRIu.s 			page 20


 653              		.loc 1 316 11 view .LVU185
 654              		.cfi_endproc
 655              	.LFE6:
 657              		.section	.text.mbedtls_entropy_func,"ax",%progbits
 658              		.align	1
 659              		.p2align 2,,3
 660              		.global	mbedtls_entropy_func
 661              		.syntax unified
 662              		.thumb
 663              		.thumb_func
 664              		.fpu fpv4-sp-d16
 666              	mbedtls_entropy_func:
 667              	.LVL64:
 668              	.LFB7:
 317:D:/fchai/work/i-cube/I-CUBE-HUAWEI/Middlewares/Third_Party/Huawei/iot_link/network/dtls/mbedtls/mbedtls-2.16.2/library\entropy.c **** 
 318:D:/fchai/work/i-cube/I-CUBE-HUAWEI/Middlewares/Third_Party/Huawei/iot_link/network/dtls/mbedtls/mbedtls-2.16.2/library\entropy.c **** #if defined(MBEDTLS_THREADING_C)
 319:D:/fchai/work/i-cube/I-CUBE-HUAWEI/Middlewares/Third_Party/Huawei/iot_link/network/dtls/mbedtls/mbedtls-2.16.2/library\entropy.c ****     if( mbedtls_mutex_unlock( &ctx->mutex ) != 0 )
 320:D:/fchai/work/i-cube/I-CUBE-HUAWEI/Middlewares/Third_Party/Huawei/iot_link/network/dtls/mbedtls/mbedtls-2.16.2/library\entropy.c ****         return( MBEDTLS_ERR_THREADING_MUTEX_ERROR );
 321:D:/fchai/work/i-cube/I-CUBE-HUAWEI/Middlewares/Third_Party/Huawei/iot_link/network/dtls/mbedtls/mbedtls-2.16.2/library\entropy.c **** #endif
 322:D:/fchai/work/i-cube/I-CUBE-HUAWEI/Middlewares/Third_Party/Huawei/iot_link/network/dtls/mbedtls/mbedtls-2.16.2/library\entropy.c **** 
 323:D:/fchai/work/i-cube/I-CUBE-HUAWEI/Middlewares/Third_Party/Huawei/iot_link/network/dtls/mbedtls/mbedtls-2.16.2/library\entropy.c ****     return( ret );
 324:D:/fchai/work/i-cube/I-CUBE-HUAWEI/Middlewares/Third_Party/Huawei/iot_link/network/dtls/mbedtls/mbedtls-2.16.2/library\entropy.c **** }
 325:D:/fchai/work/i-cube/I-CUBE-HUAWEI/Middlewares/Third_Party/Huawei/iot_link/network/dtls/mbedtls/mbedtls-2.16.2/library\entropy.c **** 
 326:D:/fchai/work/i-cube/I-CUBE-HUAWEI/Middlewares/Third_Party/Huawei/iot_link/network/dtls/mbedtls/mbedtls-2.16.2/library\entropy.c **** int mbedtls_entropy_func( void *data, unsigned char *output, size_t len )
 327:D:/fchai/work/i-cube/I-CUBE-HUAWEI/Middlewares/Third_Party/Huawei/iot_link/network/dtls/mbedtls/mbedtls-2.16.2/library\entropy.c **** {
 669              		.loc 1 327 1 is_stmt 1 view -0
 670              		.cfi_startproc
 671              		@ args = 0, pretend = 0, frame = 32
 672              		@ frame_needed = 0, uses_anonymous_args = 0
 328:D:/fchai/work/i-cube/I-CUBE-HUAWEI/Middlewares/Third_Party/Huawei/iot_link/network/dtls/mbedtls/mbedtls-2.16.2/library\entropy.c ****     int ret, count = 0, i, done;
 673              		.loc 1 328 5 view .LVU187
 329:D:/fchai/work/i-cube/I-CUBE-HUAWEI/Middlewares/Third_Party/Huawei/iot_link/network/dtls/mbedtls/mbedtls-2.16.2/library\entropy.c ****     mbedtls_entropy_context *ctx = (mbedtls_entropy_context *) data;
 674              		.loc 1 329 5 view .LVU188
 330:D:/fchai/work/i-cube/I-CUBE-HUAWEI/Middlewares/Third_Party/Huawei/iot_link/network/dtls/mbedtls/mbedtls-2.16.2/library\entropy.c ****     unsigned char buf[MBEDTLS_ENTROPY_BLOCK_SIZE];
 675              		.loc 1 330 5 view .LVU189
 331:D:/fchai/work/i-cube/I-CUBE-HUAWEI/Middlewares/Third_Party/Huawei/iot_link/network/dtls/mbedtls/mbedtls-2.16.2/library\entropy.c **** 
 332:D:/fchai/work/i-cube/I-CUBE-HUAWEI/Middlewares/Third_Party/Huawei/iot_link/network/dtls/mbedtls/mbedtls-2.16.2/library\entropy.c ****     if( len > MBEDTLS_ENTROPY_BLOCK_SIZE )
 676              		.loc 1 332 5 view .LVU190
 327:D:/fchai/work/i-cube/I-CUBE-HUAWEI/Middlewares/Third_Party/Huawei/iot_link/network/dtls/mbedtls/mbedtls-2.16.2/library\entropy.c ****     int ret, count = 0, i, done;
 677              		.loc 1 327 1 is_stmt 0 view .LVU191
 678 0000 2DE9F047 		push	{r4, r5, r6, r7, r8, r9, r10, lr}
 679              	.LCFI15:
 680              		.cfi_def_cfa_offset 32
 681              		.cfi_offset 4, -32
 682              		.cfi_offset 5, -28
 683              		.cfi_offset 6, -24
 684              		.cfi_offset 7, -20
 685              		.cfi_offset 8, -16
 686              		.cfi_offset 9, -12
 687              		.cfi_offset 10, -8
 688              		.cfi_offset 14, -4
 689              		.loc 1 332 7 view .LVU192
 690 0004 202A     		cmp	r2, #32
 327:D:/fchai/work/i-cube/I-CUBE-HUAWEI/Middlewares/Third_Party/Huawei/iot_link/network/dtls/mbedtls/mbedtls-2.16.2/library\entropy.c ****     int ret, count = 0, i, done;
 691              		.loc 1 327 1 view .LVU193
 692 0006 88B0     		sub	sp, sp, #32
 693              	.LCFI16:
ARM GAS  T:\msys\tmp\ccQXiRIu.s 			page 21


 694              		.cfi_def_cfa_offset 64
 695              		.loc 1 332 7 view .LVU194
 696 0008 64D8     		bhi	.L57
 697 000a 9246     		mov	r10, r2
 698 000c 0546     		mov	r5, r0
 699 000e 8846     		mov	r8, r1
 700 0010 40F20116 		movw	r6, #257
 701              	.LVL65:
 702              	.L49:
 333:D:/fchai/work/i-cube/I-CUBE-HUAWEI/Middlewares/Third_Party/Huawei/iot_link/network/dtls/mbedtls/mbedtls-2.16.2/library\entropy.c ****         return( MBEDTLS_ERR_ENTROPY_SOURCE_FAILED );
 334:D:/fchai/work/i-cube/I-CUBE-HUAWEI/Middlewares/Third_Party/Huawei/iot_link/network/dtls/mbedtls/mbedtls-2.16.2/library\entropy.c **** 
 335:D:/fchai/work/i-cube/I-CUBE-HUAWEI/Middlewares/Third_Party/Huawei/iot_link/network/dtls/mbedtls/mbedtls-2.16.2/library\entropy.c **** #if defined(MBEDTLS_ENTROPY_NV_SEED)
 336:D:/fchai/work/i-cube/I-CUBE-HUAWEI/Middlewares/Third_Party/Huawei/iot_link/network/dtls/mbedtls/mbedtls-2.16.2/library\entropy.c ****     /* Update the NV entropy seed before generating any entropy for outside
 337:D:/fchai/work/i-cube/I-CUBE-HUAWEI/Middlewares/Third_Party/Huawei/iot_link/network/dtls/mbedtls/mbedtls-2.16.2/library\entropy.c ****      * use.
 338:D:/fchai/work/i-cube/I-CUBE-HUAWEI/Middlewares/Third_Party/Huawei/iot_link/network/dtls/mbedtls/mbedtls-2.16.2/library\entropy.c ****      */
 339:D:/fchai/work/i-cube/I-CUBE-HUAWEI/Middlewares/Third_Party/Huawei/iot_link/network/dtls/mbedtls/mbedtls-2.16.2/library\entropy.c ****     if( ctx->initial_entropy_run == 0 )
 340:D:/fchai/work/i-cube/I-CUBE-HUAWEI/Middlewares/Third_Party/Huawei/iot_link/network/dtls/mbedtls/mbedtls-2.16.2/library\entropy.c ****     {
 341:D:/fchai/work/i-cube/I-CUBE-HUAWEI/Middlewares/Third_Party/Huawei/iot_link/network/dtls/mbedtls/mbedtls-2.16.2/library\entropy.c ****         ctx->initial_entropy_run = 1;
 342:D:/fchai/work/i-cube/I-CUBE-HUAWEI/Middlewares/Third_Party/Huawei/iot_link/network/dtls/mbedtls/mbedtls-2.16.2/library\entropy.c ****         if( ( ret = mbedtls_entropy_update_nv_seed( ctx ) ) != 0 )
 343:D:/fchai/work/i-cube/I-CUBE-HUAWEI/Middlewares/Third_Party/Huawei/iot_link/network/dtls/mbedtls/mbedtls-2.16.2/library\entropy.c ****             return( ret );
 344:D:/fchai/work/i-cube/I-CUBE-HUAWEI/Middlewares/Third_Party/Huawei/iot_link/network/dtls/mbedtls/mbedtls-2.16.2/library\entropy.c ****     }
 345:D:/fchai/work/i-cube/I-CUBE-HUAWEI/Middlewares/Third_Party/Huawei/iot_link/network/dtls/mbedtls/mbedtls-2.16.2/library\entropy.c **** #endif
 346:D:/fchai/work/i-cube/I-CUBE-HUAWEI/Middlewares/Third_Party/Huawei/iot_link/network/dtls/mbedtls/mbedtls-2.16.2/library\entropy.c **** 
 347:D:/fchai/work/i-cube/I-CUBE-HUAWEI/Middlewares/Third_Party/Huawei/iot_link/network/dtls/mbedtls/mbedtls-2.16.2/library\entropy.c **** #if defined(MBEDTLS_THREADING_C)
 348:D:/fchai/work/i-cube/I-CUBE-HUAWEI/Middlewares/Third_Party/Huawei/iot_link/network/dtls/mbedtls/mbedtls-2.16.2/library\entropy.c ****     if( ( ret = mbedtls_mutex_lock( &ctx->mutex ) ) != 0 )
 349:D:/fchai/work/i-cube/I-CUBE-HUAWEI/Middlewares/Third_Party/Huawei/iot_link/network/dtls/mbedtls/mbedtls-2.16.2/library\entropy.c ****         return( ret );
 350:D:/fchai/work/i-cube/I-CUBE-HUAWEI/Middlewares/Third_Party/Huawei/iot_link/network/dtls/mbedtls/mbedtls-2.16.2/library\entropy.c **** #endif
 351:D:/fchai/work/i-cube/I-CUBE-HUAWEI/Middlewares/Third_Party/Huawei/iot_link/network/dtls/mbedtls/mbedtls-2.16.2/library\entropy.c **** 
 352:D:/fchai/work/i-cube/I-CUBE-HUAWEI/Middlewares/Third_Party/Huawei/iot_link/network/dtls/mbedtls/mbedtls-2.16.2/library\entropy.c ****     /*
 353:D:/fchai/work/i-cube/I-CUBE-HUAWEI/Middlewares/Third_Party/Huawei/iot_link/network/dtls/mbedtls/mbedtls-2.16.2/library\entropy.c ****      * Always gather extra entropy before a call
 354:D:/fchai/work/i-cube/I-CUBE-HUAWEI/Middlewares/Third_Party/Huawei/iot_link/network/dtls/mbedtls/mbedtls-2.16.2/library\entropy.c ****      */
 355:D:/fchai/work/i-cube/I-CUBE-HUAWEI/Middlewares/Third_Party/Huawei/iot_link/network/dtls/mbedtls/mbedtls-2.16.2/library\entropy.c ****     do
 356:D:/fchai/work/i-cube/I-CUBE-HUAWEI/Middlewares/Third_Party/Huawei/iot_link/network/dtls/mbedtls/mbedtls-2.16.2/library\entropy.c ****     {
 357:D:/fchai/work/i-cube/I-CUBE-HUAWEI/Middlewares/Third_Party/Huawei/iot_link/network/dtls/mbedtls/mbedtls-2.16.2/library\entropy.c ****         if( count++ > ENTROPY_MAX_LOOP )
 358:D:/fchai/work/i-cube/I-CUBE-HUAWEI/Middlewares/Third_Party/Huawei/iot_link/network/dtls/mbedtls/mbedtls-2.16.2/library\entropy.c ****         {
 359:D:/fchai/work/i-cube/I-CUBE-HUAWEI/Middlewares/Third_Party/Huawei/iot_link/network/dtls/mbedtls/mbedtls-2.16.2/library\entropy.c ****             ret = MBEDTLS_ERR_ENTROPY_SOURCE_FAILED;
 360:D:/fchai/work/i-cube/I-CUBE-HUAWEI/Middlewares/Third_Party/Huawei/iot_link/network/dtls/mbedtls/mbedtls-2.16.2/library\entropy.c ****             goto exit;
 361:D:/fchai/work/i-cube/I-CUBE-HUAWEI/Middlewares/Third_Party/Huawei/iot_link/network/dtls/mbedtls/mbedtls-2.16.2/library\entropy.c ****         }
 362:D:/fchai/work/i-cube/I-CUBE-HUAWEI/Middlewares/Third_Party/Huawei/iot_link/network/dtls/mbedtls/mbedtls-2.16.2/library\entropy.c **** 
 363:D:/fchai/work/i-cube/I-CUBE-HUAWEI/Middlewares/Third_Party/Huawei/iot_link/network/dtls/mbedtls/mbedtls-2.16.2/library\entropy.c ****         if( ( ret = entropy_gather_internal( ctx ) ) != 0 )
 703              		.loc 1 363 9 is_stmt 1 view .LVU195
 704              		.loc 1 363 21 is_stmt 0 view .LVU196
 705 0014 2846     		mov	r0, r5
 706 0016 FFF7FEFF 		bl	entropy_gather_internal
 707              	.LVL66:
 708              		.loc 1 363 11 view .LVU197
 709 001a 0446     		mov	r4, r0
 710 001c A0B9     		cbnz	r0, .L64
 711              	.LVL67:
 364:D:/fchai/work/i-cube/I-CUBE-HUAWEI/Middlewares/Third_Party/Huawei/iot_link/network/dtls/mbedtls/mbedtls-2.16.2/library\entropy.c ****             goto exit;
 365:D:/fchai/work/i-cube/I-CUBE-HUAWEI/Middlewares/Third_Party/Huawei/iot_link/network/dtls/mbedtls/mbedtls-2.16.2/library\entropy.c **** 
 366:D:/fchai/work/i-cube/I-CUBE-HUAWEI/Middlewares/Third_Party/Huawei/iot_link/network/dtls/mbedtls/mbedtls-2.16.2/library\entropy.c ****         done = 1;
 367:D:/fchai/work/i-cube/I-CUBE-HUAWEI/Middlewares/Third_Party/Huawei/iot_link/network/dtls/mbedtls/mbedtls-2.16.2/library\entropy.c ****         for( i = 0; i < ctx->source_count; i++ )
 712              		.loc 1 367 21 is_stmt 1 view .LVU198
 713              		.loc 1 367 28 is_stmt 0 view .LVU199
 714 001e 2B6F     		ldr	r3, [r5, #112]
 715              		.loc 1 367 9 view .LVU200
ARM GAS  T:\msys\tmp\ccQXiRIu.s 			page 22


 716 0020 002B     		cmp	r3, #0
 717 0022 1ADD     		ble	.L51
 718 0024 2C46     		mov	r4, r5
 366:D:/fchai/work/i-cube/I-CUBE-HUAWEI/Middlewares/Third_Party/Huawei/iot_link/network/dtls/mbedtls/mbedtls-2.16.2/library\entropy.c ****         for( i = 0; i < ctx->source_count; i++ )
 719              		.loc 1 366 14 view .LVU201
 720 0026 0121     		movs	r1, #1
 721              	.LVL68:
 722              	.L53:
 368:D:/fchai/work/i-cube/I-CUBE-HUAWEI/Middlewares/Third_Party/Huawei/iot_link/network/dtls/mbedtls/mbedtls-2.16.2/library\entropy.c ****             if( ctx->source[i].size < ctx->source[i].threshold )
 723              		.loc 1 368 13 is_stmt 1 view .LVU202
 724              		.loc 1 368 15 is_stmt 0 view .LVU203
 725 0028 E26F     		ldr	r2, [r4, #124]
 369:D:/fchai/work/i-cube/I-CUBE-HUAWEI/Middlewares/Third_Party/Huawei/iot_link/network/dtls/mbedtls/mbedtls-2.16.2/library\entropy.c ****                 done = 0;
 726              		.loc 1 369 22 view .LVU204
 727 002a D4F88070 		ldr	r7, [r4, #128]
 367:D:/fchai/work/i-cube/I-CUBE-HUAWEI/Middlewares/Third_Party/Huawei/iot_link/network/dtls/mbedtls/mbedtls-2.16.2/library\entropy.c ****             if( ctx->source[i].size < ctx->source[i].threshold )
 728              		.loc 1 367 45 view .LVU205
 729 002e 0130     		adds	r0, r0, #1
 730              	.LVL69:
 731              		.loc 1 369 22 view .LVU206
 732 0030 BA42     		cmp	r2, r7
 733 0032 38BF     		it	cc
 734 0034 0021     		movcc	r1, #0
 735              	.LVL70:
 367:D:/fchai/work/i-cube/I-CUBE-HUAWEI/Middlewares/Third_Party/Huawei/iot_link/network/dtls/mbedtls/mbedtls-2.16.2/library\entropy.c ****             if( ctx->source[i].size < ctx->source[i].threshold )
 736              		.loc 1 367 44 is_stmt 1 view .LVU207
 367:D:/fchai/work/i-cube/I-CUBE-HUAWEI/Middlewares/Third_Party/Huawei/iot_link/network/dtls/mbedtls/mbedtls-2.16.2/library\entropy.c ****             if( ctx->source[i].size < ctx->source[i].threshold )
 737              		.loc 1 367 21 view .LVU208
 367:D:/fchai/work/i-cube/I-CUBE-HUAWEI/Middlewares/Third_Party/Huawei/iot_link/network/dtls/mbedtls/mbedtls-2.16.2/library\entropy.c ****             if( ctx->source[i].size < ctx->source[i].threshold )
 738              		.loc 1 367 9 is_stmt 0 view .LVU209
 739 0036 9842     		cmp	r0, r3
 740 0038 04F11404 		add	r4, r4, #20
 741 003c F4D1     		bne	.L53
 370:D:/fchai/work/i-cube/I-CUBE-HUAWEI/Middlewares/Third_Party/Huawei/iot_link/network/dtls/mbedtls/mbedtls-2.16.2/library\entropy.c ****     }
 371:D:/fchai/work/i-cube/I-CUBE-HUAWEI/Middlewares/Third_Party/Huawei/iot_link/network/dtls/mbedtls/mbedtls-2.16.2/library\entropy.c ****     while( ! done );
 742              		.loc 1 371 10 is_stmt 1 view .LVU210
 743              		.loc 1 371 5 is_stmt 0 view .LVU211
 744 003e 61B9     		cbnz	r1, .L51
 355:D:/fchai/work/i-cube/I-CUBE-HUAWEI/Middlewares/Third_Party/Huawei/iot_link/network/dtls/mbedtls/mbedtls-2.16.2/library\entropy.c ****     {
 745              		.loc 1 355 5 is_stmt 1 view .LVU212
 357:D:/fchai/work/i-cube/I-CUBE-HUAWEI/Middlewares/Third_Party/Huawei/iot_link/network/dtls/mbedtls/mbedtls-2.16.2/library\entropy.c ****         {
 746              		.loc 1 357 9 view .LVU213
 747              	.LVL71:
 357:D:/fchai/work/i-cube/I-CUBE-HUAWEI/Middlewares/Third_Party/Huawei/iot_link/network/dtls/mbedtls/mbedtls-2.16.2/library\entropy.c ****         {
 748              		.loc 1 357 11 is_stmt 0 view .LVU214
 749 0040 013E     		subs	r6, r6, #1
 750              	.LVL72:
 357:D:/fchai/work/i-cube/I-CUBE-HUAWEI/Middlewares/Third_Party/Huawei/iot_link/network/dtls/mbedtls/mbedtls-2.16.2/library\entropy.c ****         {
 751              		.loc 1 357 11 view .LVU215
 752 0042 E7D1     		bne	.L49
 359:D:/fchai/work/i-cube/I-CUBE-HUAWEI/Middlewares/Third_Party/Huawei/iot_link/network/dtls/mbedtls/mbedtls-2.16.2/library\entropy.c ****             goto exit;
 753              		.loc 1 359 17 view .LVU216
 754 0044 6FF03B04 		mvn	r4, #59
 755              	.LVL73:
 756              	.L64:
 359:D:/fchai/work/i-cube/I-CUBE-HUAWEI/Middlewares/Third_Party/Huawei/iot_link/network/dtls/mbedtls/mbedtls-2.16.2/library\entropy.c ****             goto exit;
 757              		.loc 1 359 17 view .LVU217
ARM GAS  T:\msys\tmp\ccQXiRIu.s 			page 23


 758 0048 E946     		mov	r9, sp
 759              	.LVL74:
 760              	.L50:
 372:D:/fchai/work/i-cube/I-CUBE-HUAWEI/Middlewares/Third_Party/Huawei/iot_link/network/dtls/mbedtls/mbedtls-2.16.2/library\entropy.c **** 
 373:D:/fchai/work/i-cube/I-CUBE-HUAWEI/Middlewares/Third_Party/Huawei/iot_link/network/dtls/mbedtls/mbedtls-2.16.2/library\entropy.c ****     memset( buf, 0, MBEDTLS_ENTROPY_BLOCK_SIZE );
 374:D:/fchai/work/i-cube/I-CUBE-HUAWEI/Middlewares/Third_Party/Huawei/iot_link/network/dtls/mbedtls/mbedtls-2.16.2/library\entropy.c **** 
 375:D:/fchai/work/i-cube/I-CUBE-HUAWEI/Middlewares/Third_Party/Huawei/iot_link/network/dtls/mbedtls/mbedtls-2.16.2/library\entropy.c **** #if defined(MBEDTLS_ENTROPY_SHA512_ACCUMULATOR)
 376:D:/fchai/work/i-cube/I-CUBE-HUAWEI/Middlewares/Third_Party/Huawei/iot_link/network/dtls/mbedtls/mbedtls-2.16.2/library\entropy.c ****     /*
 377:D:/fchai/work/i-cube/I-CUBE-HUAWEI/Middlewares/Third_Party/Huawei/iot_link/network/dtls/mbedtls/mbedtls-2.16.2/library\entropy.c ****      * Note that at this stage it is assumed that the accumulator was started
 378:D:/fchai/work/i-cube/I-CUBE-HUAWEI/Middlewares/Third_Party/Huawei/iot_link/network/dtls/mbedtls/mbedtls-2.16.2/library\entropy.c ****      * in a previous call to entropy_update(). If this is not guaranteed, the
 379:D:/fchai/work/i-cube/I-CUBE-HUAWEI/Middlewares/Third_Party/Huawei/iot_link/network/dtls/mbedtls/mbedtls-2.16.2/library\entropy.c ****      * code below will fail.
 380:D:/fchai/work/i-cube/I-CUBE-HUAWEI/Middlewares/Third_Party/Huawei/iot_link/network/dtls/mbedtls/mbedtls-2.16.2/library\entropy.c ****      */
 381:D:/fchai/work/i-cube/I-CUBE-HUAWEI/Middlewares/Third_Party/Huawei/iot_link/network/dtls/mbedtls/mbedtls-2.16.2/library\entropy.c ****     if( ( ret = mbedtls_sha512_finish_ret( &ctx->accumulator, buf ) ) != 0 )
 382:D:/fchai/work/i-cube/I-CUBE-HUAWEI/Middlewares/Third_Party/Huawei/iot_link/network/dtls/mbedtls/mbedtls-2.16.2/library\entropy.c ****         goto exit;
 383:D:/fchai/work/i-cube/I-CUBE-HUAWEI/Middlewares/Third_Party/Huawei/iot_link/network/dtls/mbedtls/mbedtls-2.16.2/library\entropy.c **** 
 384:D:/fchai/work/i-cube/I-CUBE-HUAWEI/Middlewares/Third_Party/Huawei/iot_link/network/dtls/mbedtls/mbedtls-2.16.2/library\entropy.c ****     /*
 385:D:/fchai/work/i-cube/I-CUBE-HUAWEI/Middlewares/Third_Party/Huawei/iot_link/network/dtls/mbedtls/mbedtls-2.16.2/library\entropy.c ****      * Reset accumulator and counters and recycle existing entropy
 386:D:/fchai/work/i-cube/I-CUBE-HUAWEI/Middlewares/Third_Party/Huawei/iot_link/network/dtls/mbedtls/mbedtls-2.16.2/library\entropy.c ****      */
 387:D:/fchai/work/i-cube/I-CUBE-HUAWEI/Middlewares/Third_Party/Huawei/iot_link/network/dtls/mbedtls/mbedtls-2.16.2/library\entropy.c ****     mbedtls_sha512_free( &ctx->accumulator );
 388:D:/fchai/work/i-cube/I-CUBE-HUAWEI/Middlewares/Third_Party/Huawei/iot_link/network/dtls/mbedtls/mbedtls-2.16.2/library\entropy.c ****     mbedtls_sha512_init( &ctx->accumulator );
 389:D:/fchai/work/i-cube/I-CUBE-HUAWEI/Middlewares/Third_Party/Huawei/iot_link/network/dtls/mbedtls/mbedtls-2.16.2/library\entropy.c ****     if( ( ret = mbedtls_sha512_starts_ret( &ctx->accumulator, 0 ) ) != 0 )
 390:D:/fchai/work/i-cube/I-CUBE-HUAWEI/Middlewares/Third_Party/Huawei/iot_link/network/dtls/mbedtls/mbedtls-2.16.2/library\entropy.c ****         goto exit;
 391:D:/fchai/work/i-cube/I-CUBE-HUAWEI/Middlewares/Third_Party/Huawei/iot_link/network/dtls/mbedtls/mbedtls-2.16.2/library\entropy.c ****     if( ( ret = mbedtls_sha512_update_ret( &ctx->accumulator, buf,
 392:D:/fchai/work/i-cube/I-CUBE-HUAWEI/Middlewares/Third_Party/Huawei/iot_link/network/dtls/mbedtls/mbedtls-2.16.2/library\entropy.c ****                                            MBEDTLS_ENTROPY_BLOCK_SIZE ) ) != 0 )
 393:D:/fchai/work/i-cube/I-CUBE-HUAWEI/Middlewares/Third_Party/Huawei/iot_link/network/dtls/mbedtls/mbedtls-2.16.2/library\entropy.c ****         goto exit;
 394:D:/fchai/work/i-cube/I-CUBE-HUAWEI/Middlewares/Third_Party/Huawei/iot_link/network/dtls/mbedtls/mbedtls-2.16.2/library\entropy.c **** 
 395:D:/fchai/work/i-cube/I-CUBE-HUAWEI/Middlewares/Third_Party/Huawei/iot_link/network/dtls/mbedtls/mbedtls-2.16.2/library\entropy.c ****     /*
 396:D:/fchai/work/i-cube/I-CUBE-HUAWEI/Middlewares/Third_Party/Huawei/iot_link/network/dtls/mbedtls/mbedtls-2.16.2/library\entropy.c ****      * Perform second SHA-512 on entropy
 397:D:/fchai/work/i-cube/I-CUBE-HUAWEI/Middlewares/Third_Party/Huawei/iot_link/network/dtls/mbedtls/mbedtls-2.16.2/library\entropy.c ****      */
 398:D:/fchai/work/i-cube/I-CUBE-HUAWEI/Middlewares/Third_Party/Huawei/iot_link/network/dtls/mbedtls/mbedtls-2.16.2/library\entropy.c ****     if( ( ret = mbedtls_sha512_ret( buf, MBEDTLS_ENTROPY_BLOCK_SIZE,
 399:D:/fchai/work/i-cube/I-CUBE-HUAWEI/Middlewares/Third_Party/Huawei/iot_link/network/dtls/mbedtls/mbedtls-2.16.2/library\entropy.c ****                                     buf, 0 ) ) != 0 )
 400:D:/fchai/work/i-cube/I-CUBE-HUAWEI/Middlewares/Third_Party/Huawei/iot_link/network/dtls/mbedtls/mbedtls-2.16.2/library\entropy.c ****         goto exit;
 401:D:/fchai/work/i-cube/I-CUBE-HUAWEI/Middlewares/Third_Party/Huawei/iot_link/network/dtls/mbedtls/mbedtls-2.16.2/library\entropy.c **** #else /* MBEDTLS_ENTROPY_SHA512_ACCUMULATOR */
 402:D:/fchai/work/i-cube/I-CUBE-HUAWEI/Middlewares/Third_Party/Huawei/iot_link/network/dtls/mbedtls/mbedtls-2.16.2/library\entropy.c ****     if( ( ret = mbedtls_sha256_finish_ret( &ctx->accumulator, buf ) ) != 0 )
 403:D:/fchai/work/i-cube/I-CUBE-HUAWEI/Middlewares/Third_Party/Huawei/iot_link/network/dtls/mbedtls/mbedtls-2.16.2/library\entropy.c ****         goto exit;
 404:D:/fchai/work/i-cube/I-CUBE-HUAWEI/Middlewares/Third_Party/Huawei/iot_link/network/dtls/mbedtls/mbedtls-2.16.2/library\entropy.c **** 
 405:D:/fchai/work/i-cube/I-CUBE-HUAWEI/Middlewares/Third_Party/Huawei/iot_link/network/dtls/mbedtls/mbedtls-2.16.2/library\entropy.c ****     /*
 406:D:/fchai/work/i-cube/I-CUBE-HUAWEI/Middlewares/Third_Party/Huawei/iot_link/network/dtls/mbedtls/mbedtls-2.16.2/library\entropy.c ****      * Reset accumulator and counters and recycle existing entropy
 407:D:/fchai/work/i-cube/I-CUBE-HUAWEI/Middlewares/Third_Party/Huawei/iot_link/network/dtls/mbedtls/mbedtls-2.16.2/library\entropy.c ****      */
 408:D:/fchai/work/i-cube/I-CUBE-HUAWEI/Middlewares/Third_Party/Huawei/iot_link/network/dtls/mbedtls/mbedtls-2.16.2/library\entropy.c ****     mbedtls_sha256_free( &ctx->accumulator );
 409:D:/fchai/work/i-cube/I-CUBE-HUAWEI/Middlewares/Third_Party/Huawei/iot_link/network/dtls/mbedtls/mbedtls-2.16.2/library\entropy.c ****     mbedtls_sha256_init( &ctx->accumulator );
 410:D:/fchai/work/i-cube/I-CUBE-HUAWEI/Middlewares/Third_Party/Huawei/iot_link/network/dtls/mbedtls/mbedtls-2.16.2/library\entropy.c ****     if( ( ret = mbedtls_sha256_starts_ret( &ctx->accumulator, 0 ) ) != 0 )
 411:D:/fchai/work/i-cube/I-CUBE-HUAWEI/Middlewares/Third_Party/Huawei/iot_link/network/dtls/mbedtls/mbedtls-2.16.2/library\entropy.c ****         goto exit;
 412:D:/fchai/work/i-cube/I-CUBE-HUAWEI/Middlewares/Third_Party/Huawei/iot_link/network/dtls/mbedtls/mbedtls-2.16.2/library\entropy.c ****     if( ( ret = mbedtls_sha256_update_ret( &ctx->accumulator, buf,
 413:D:/fchai/work/i-cube/I-CUBE-HUAWEI/Middlewares/Third_Party/Huawei/iot_link/network/dtls/mbedtls/mbedtls-2.16.2/library\entropy.c ****                                            MBEDTLS_ENTROPY_BLOCK_SIZE ) ) != 0 )
 414:D:/fchai/work/i-cube/I-CUBE-HUAWEI/Middlewares/Third_Party/Huawei/iot_link/network/dtls/mbedtls/mbedtls-2.16.2/library\entropy.c ****         goto exit;
 415:D:/fchai/work/i-cube/I-CUBE-HUAWEI/Middlewares/Third_Party/Huawei/iot_link/network/dtls/mbedtls/mbedtls-2.16.2/library\entropy.c **** 
 416:D:/fchai/work/i-cube/I-CUBE-HUAWEI/Middlewares/Third_Party/Huawei/iot_link/network/dtls/mbedtls/mbedtls-2.16.2/library\entropy.c ****     /*
 417:D:/fchai/work/i-cube/I-CUBE-HUAWEI/Middlewares/Third_Party/Huawei/iot_link/network/dtls/mbedtls/mbedtls-2.16.2/library\entropy.c ****      * Perform second SHA-256 on entropy
 418:D:/fchai/work/i-cube/I-CUBE-HUAWEI/Middlewares/Third_Party/Huawei/iot_link/network/dtls/mbedtls/mbedtls-2.16.2/library\entropy.c ****      */
 419:D:/fchai/work/i-cube/I-CUBE-HUAWEI/Middlewares/Third_Party/Huawei/iot_link/network/dtls/mbedtls/mbedtls-2.16.2/library\entropy.c ****     if( ( ret = mbedtls_sha256_ret( buf, MBEDTLS_ENTROPY_BLOCK_SIZE,
 420:D:/fchai/work/i-cube/I-CUBE-HUAWEI/Middlewares/Third_Party/Huawei/iot_link/network/dtls/mbedtls/mbedtls-2.16.2/library\entropy.c ****                                     buf, 0 ) ) != 0 )
 421:D:/fchai/work/i-cube/I-CUBE-HUAWEI/Middlewares/Third_Party/Huawei/iot_link/network/dtls/mbedtls/mbedtls-2.16.2/library\entropy.c ****         goto exit;
 422:D:/fchai/work/i-cube/I-CUBE-HUAWEI/Middlewares/Third_Party/Huawei/iot_link/network/dtls/mbedtls/mbedtls-2.16.2/library\entropy.c **** #endif /* MBEDTLS_ENTROPY_SHA512_ACCUMULATOR */
 423:D:/fchai/work/i-cube/I-CUBE-HUAWEI/Middlewares/Third_Party/Huawei/iot_link/network/dtls/mbedtls/mbedtls-2.16.2/library\entropy.c **** 
 424:D:/fchai/work/i-cube/I-CUBE-HUAWEI/Middlewares/Third_Party/Huawei/iot_link/network/dtls/mbedtls/mbedtls-2.16.2/library\entropy.c ****     for( i = 0; i < ctx->source_count; i++ )
 425:D:/fchai/work/i-cube/I-CUBE-HUAWEI/Middlewares/Third_Party/Huawei/iot_link/network/dtls/mbedtls/mbedtls-2.16.2/library\entropy.c ****         ctx->source[i].size = 0;
ARM GAS  T:\msys\tmp\ccQXiRIu.s 			page 24


 426:D:/fchai/work/i-cube/I-CUBE-HUAWEI/Middlewares/Third_Party/Huawei/iot_link/network/dtls/mbedtls/mbedtls-2.16.2/library\entropy.c **** 
 427:D:/fchai/work/i-cube/I-CUBE-HUAWEI/Middlewares/Third_Party/Huawei/iot_link/network/dtls/mbedtls/mbedtls-2.16.2/library\entropy.c ****     memcpy( output, buf, len );
 428:D:/fchai/work/i-cube/I-CUBE-HUAWEI/Middlewares/Third_Party/Huawei/iot_link/network/dtls/mbedtls/mbedtls-2.16.2/library\entropy.c **** 
 429:D:/fchai/work/i-cube/I-CUBE-HUAWEI/Middlewares/Third_Party/Huawei/iot_link/network/dtls/mbedtls/mbedtls-2.16.2/library\entropy.c ****     ret = 0;
 430:D:/fchai/work/i-cube/I-CUBE-HUAWEI/Middlewares/Third_Party/Huawei/iot_link/network/dtls/mbedtls/mbedtls-2.16.2/library\entropy.c **** 
 431:D:/fchai/work/i-cube/I-CUBE-HUAWEI/Middlewares/Third_Party/Huawei/iot_link/network/dtls/mbedtls/mbedtls-2.16.2/library\entropy.c **** exit:
 432:D:/fchai/work/i-cube/I-CUBE-HUAWEI/Middlewares/Third_Party/Huawei/iot_link/network/dtls/mbedtls/mbedtls-2.16.2/library\entropy.c ****     mbedtls_platform_zeroize( buf, sizeof( buf ) );
 761              		.loc 1 432 5 is_stmt 1 view .LVU218
 762 004a 4846     		mov	r0, r9
 763 004c 2021     		movs	r1, #32
 764 004e FFF7FEFF 		bl	mbedtls_platform_zeroize
 765              	.LVL75:
 433:D:/fchai/work/i-cube/I-CUBE-HUAWEI/Middlewares/Third_Party/Huawei/iot_link/network/dtls/mbedtls/mbedtls-2.16.2/library\entropy.c **** 
 434:D:/fchai/work/i-cube/I-CUBE-HUAWEI/Middlewares/Third_Party/Huawei/iot_link/network/dtls/mbedtls/mbedtls-2.16.2/library\entropy.c **** #if defined(MBEDTLS_THREADING_C)
 435:D:/fchai/work/i-cube/I-CUBE-HUAWEI/Middlewares/Third_Party/Huawei/iot_link/network/dtls/mbedtls/mbedtls-2.16.2/library\entropy.c ****     if( mbedtls_mutex_unlock( &ctx->mutex ) != 0 )
 436:D:/fchai/work/i-cube/I-CUBE-HUAWEI/Middlewares/Third_Party/Huawei/iot_link/network/dtls/mbedtls/mbedtls-2.16.2/library\entropy.c ****         return( MBEDTLS_ERR_THREADING_MUTEX_ERROR );
 437:D:/fchai/work/i-cube/I-CUBE-HUAWEI/Middlewares/Third_Party/Huawei/iot_link/network/dtls/mbedtls/mbedtls-2.16.2/library\entropy.c **** #endif
 438:D:/fchai/work/i-cube/I-CUBE-HUAWEI/Middlewares/Third_Party/Huawei/iot_link/network/dtls/mbedtls/mbedtls-2.16.2/library\entropy.c **** 
 439:D:/fchai/work/i-cube/I-CUBE-HUAWEI/Middlewares/Third_Party/Huawei/iot_link/network/dtls/mbedtls/mbedtls-2.16.2/library\entropy.c ****     return( ret );
 766              		.loc 1 439 5 view .LVU219
 767              	.L47:
 440:D:/fchai/work/i-cube/I-CUBE-HUAWEI/Middlewares/Third_Party/Huawei/iot_link/network/dtls/mbedtls/mbedtls-2.16.2/library\entropy.c **** }
 768              		.loc 1 440 1 is_stmt 0 view .LVU220
 769 0052 2046     		mov	r0, r4
 770 0054 08B0     		add	sp, sp, #32
 771              	.LCFI17:
 772              		.cfi_remember_state
 773              		.cfi_def_cfa_offset 32
 774              		@ sp needed
 775 0056 BDE8F087 		pop	{r4, r5, r6, r7, r8, r9, r10, pc}
 776              	.LVL76:
 777              	.L51:
 778              	.LCFI18:
 779              		.cfi_restore_state
 373:D:/fchai/work/i-cube/I-CUBE-HUAWEI/Middlewares/Third_Party/Huawei/iot_link/network/dtls/mbedtls/mbedtls-2.16.2/library\entropy.c **** 
 780              		.loc 1 373 5 is_stmt 1 view .LVU221
 781 005a E946     		mov	r9, sp
 782 005c 2022     		movs	r2, #32
 783 005e 0021     		movs	r1, #0
 784 0060 4846     		mov	r0, r9
 402:D:/fchai/work/i-cube/I-CUBE-HUAWEI/Middlewares/Third_Party/Huawei/iot_link/network/dtls/mbedtls/mbedtls-2.16.2/library\entropy.c ****         goto exit;
 785              		.loc 1 402 17 is_stmt 0 view .LVU222
 786 0062 2E1D     		adds	r6, r5, #4
 787              	.LVL77:
 373:D:/fchai/work/i-cube/I-CUBE-HUAWEI/Middlewares/Third_Party/Huawei/iot_link/network/dtls/mbedtls/mbedtls-2.16.2/library\entropy.c **** 
 788              		.loc 1 373 5 view .LVU223
 789 0064 FFF7FEFF 		bl	memset
 790              	.LVL78:
 402:D:/fchai/work/i-cube/I-CUBE-HUAWEI/Middlewares/Third_Party/Huawei/iot_link/network/dtls/mbedtls/mbedtls-2.16.2/library\entropy.c ****         goto exit;
 791              		.loc 1 402 5 is_stmt 1 view .LVU224
 402:D:/fchai/work/i-cube/I-CUBE-HUAWEI/Middlewares/Third_Party/Huawei/iot_link/network/dtls/mbedtls/mbedtls-2.16.2/library\entropy.c ****         goto exit;
 792              		.loc 1 402 17 is_stmt 0 view .LVU225
 793 0068 4946     		mov	r1, r9
 794 006a 3046     		mov	r0, r6
 795 006c FFF7FEFF 		bl	mbedtls_sha256_finish_ret
 796              	.LVL79:
 402:D:/fchai/work/i-cube/I-CUBE-HUAWEI/Middlewares/Third_Party/Huawei/iot_link/network/dtls/mbedtls/mbedtls-2.16.2/library\entropy.c ****         goto exit;
ARM GAS  T:\msys\tmp\ccQXiRIu.s 			page 25


 797              		.loc 1 402 7 view .LVU226
 798 0070 0446     		mov	r4, r0
 799 0072 0028     		cmp	r0, #0
 800 0074 E9D1     		bne	.L50
 408:D:/fchai/work/i-cube/I-CUBE-HUAWEI/Middlewares/Third_Party/Huawei/iot_link/network/dtls/mbedtls/mbedtls-2.16.2/library\entropy.c ****     mbedtls_sha256_init( &ctx->accumulator );
 801              		.loc 1 408 5 is_stmt 1 view .LVU227
 802 0076 3046     		mov	r0, r6
 803              	.LVL80:
 408:D:/fchai/work/i-cube/I-CUBE-HUAWEI/Middlewares/Third_Party/Huawei/iot_link/network/dtls/mbedtls/mbedtls-2.16.2/library\entropy.c ****     mbedtls_sha256_init( &ctx->accumulator );
 804              		.loc 1 408 5 is_stmt 0 view .LVU228
 805 0078 FFF7FEFF 		bl	mbedtls_sha256_free
 806              	.LVL81:
 409:D:/fchai/work/i-cube/I-CUBE-HUAWEI/Middlewares/Third_Party/Huawei/iot_link/network/dtls/mbedtls/mbedtls-2.16.2/library\entropy.c ****     if( ( ret = mbedtls_sha256_starts_ret( &ctx->accumulator, 0 ) ) != 0 )
 807              		.loc 1 409 5 is_stmt 1 view .LVU229
 808 007c 3046     		mov	r0, r6
 809 007e FFF7FEFF 		bl	mbedtls_sha256_init
 810              	.LVL82:
 410:D:/fchai/work/i-cube/I-CUBE-HUAWEI/Middlewares/Third_Party/Huawei/iot_link/network/dtls/mbedtls/mbedtls-2.16.2/library\entropy.c ****         goto exit;
 811              		.loc 1 410 5 view .LVU230
 410:D:/fchai/work/i-cube/I-CUBE-HUAWEI/Middlewares/Third_Party/Huawei/iot_link/network/dtls/mbedtls/mbedtls-2.16.2/library\entropy.c ****         goto exit;
 812              		.loc 1 410 17 is_stmt 0 view .LVU231
 813 0082 2146     		mov	r1, r4
 814 0084 3046     		mov	r0, r6
 815 0086 FFF7FEFF 		bl	mbedtls_sha256_starts_ret
 816              	.LVL83:
 410:D:/fchai/work/i-cube/I-CUBE-HUAWEI/Middlewares/Third_Party/Huawei/iot_link/network/dtls/mbedtls/mbedtls-2.16.2/library\entropy.c ****         goto exit;
 817              		.loc 1 410 7 view .LVU232
 818 008a 0446     		mov	r4, r0
 819 008c 0028     		cmp	r0, #0
 820 008e DCD1     		bne	.L50
 412:D:/fchai/work/i-cube/I-CUBE-HUAWEI/Middlewares/Third_Party/Huawei/iot_link/network/dtls/mbedtls/mbedtls-2.16.2/library\entropy.c ****                                            MBEDTLS_ENTROPY_BLOCK_SIZE ) ) != 0 )
 821              		.loc 1 412 5 is_stmt 1 view .LVU233
 412:D:/fchai/work/i-cube/I-CUBE-HUAWEI/Middlewares/Third_Party/Huawei/iot_link/network/dtls/mbedtls/mbedtls-2.16.2/library\entropy.c ****                                            MBEDTLS_ENTROPY_BLOCK_SIZE ) ) != 0 )
 822              		.loc 1 412 17 is_stmt 0 view .LVU234
 823 0090 3046     		mov	r0, r6
 824              	.LVL84:
 412:D:/fchai/work/i-cube/I-CUBE-HUAWEI/Middlewares/Third_Party/Huawei/iot_link/network/dtls/mbedtls/mbedtls-2.16.2/library\entropy.c ****                                            MBEDTLS_ENTROPY_BLOCK_SIZE ) ) != 0 )
 825              		.loc 1 412 17 view .LVU235
 826 0092 2022     		movs	r2, #32
 827 0094 4946     		mov	r1, r9
 828 0096 FFF7FEFF 		bl	mbedtls_sha256_update_ret
 829              	.LVL85:
 412:D:/fchai/work/i-cube/I-CUBE-HUAWEI/Middlewares/Third_Party/Huawei/iot_link/network/dtls/mbedtls/mbedtls-2.16.2/library\entropy.c ****                                            MBEDTLS_ENTROPY_BLOCK_SIZE ) ) != 0 )
 830              		.loc 1 412 7 view .LVU236
 831 009a 0446     		mov	r4, r0
 832 009c 0028     		cmp	r0, #0
 833 009e D4D1     		bne	.L50
 419:D:/fchai/work/i-cube/I-CUBE-HUAWEI/Middlewares/Third_Party/Huawei/iot_link/network/dtls/mbedtls/mbedtls-2.16.2/library\entropy.c ****                                     buf, 0 ) ) != 0 )
 834              		.loc 1 419 5 is_stmt 1 view .LVU237
 419:D:/fchai/work/i-cube/I-CUBE-HUAWEI/Middlewares/Third_Party/Huawei/iot_link/network/dtls/mbedtls/mbedtls-2.16.2/library\entropy.c ****                                     buf, 0 ) ) != 0 )
 835              		.loc 1 419 17 is_stmt 0 view .LVU238
 836 00a0 0346     		mov	r3, r0
 837 00a2 4A46     		mov	r2, r9
 838 00a4 2021     		movs	r1, #32
 839 00a6 4846     		mov	r0, r9
 840              	.LVL86:
 419:D:/fchai/work/i-cube/I-CUBE-HUAWEI/Middlewares/Third_Party/Huawei/iot_link/network/dtls/mbedtls/mbedtls-2.16.2/library\entropy.c ****                                     buf, 0 ) ) != 0 )
ARM GAS  T:\msys\tmp\ccQXiRIu.s 			page 26


 841              		.loc 1 419 17 view .LVU239
 842 00a8 FFF7FEFF 		bl	mbedtls_sha256_ret
 843              	.LVL87:
 419:D:/fchai/work/i-cube/I-CUBE-HUAWEI/Middlewares/Third_Party/Huawei/iot_link/network/dtls/mbedtls/mbedtls-2.16.2/library\entropy.c ****                                     buf, 0 ) ) != 0 )
 844              		.loc 1 419 7 view .LVU240
 845 00ac 0446     		mov	r4, r0
 846 00ae 0028     		cmp	r0, #0
 847 00b0 CBD1     		bne	.L50
 848              	.LVL88:
 424:D:/fchai/work/i-cube/I-CUBE-HUAWEI/Middlewares/Third_Party/Huawei/iot_link/network/dtls/mbedtls/mbedtls-2.16.2/library\entropy.c ****         ctx->source[i].size = 0;
 849              		.loc 1 424 17 is_stmt 1 view .LVU241
 424:D:/fchai/work/i-cube/I-CUBE-HUAWEI/Middlewares/Third_Party/Huawei/iot_link/network/dtls/mbedtls/mbedtls-2.16.2/library\entropy.c ****         ctx->source[i].size = 0;
 850              		.loc 1 424 24 is_stmt 0 view .LVU242
 851 00b2 2A6F     		ldr	r2, [r5, #112]
 424:D:/fchai/work/i-cube/I-CUBE-HUAWEI/Middlewares/Third_Party/Huawei/iot_link/network/dtls/mbedtls/mbedtls-2.16.2/library\entropy.c ****         ctx->source[i].size = 0;
 852              		.loc 1 424 5 view .LVU243
 853 00b4 002A     		cmp	r2, #0
 854 00b6 07DD     		ble	.L55
 424:D:/fchai/work/i-cube/I-CUBE-HUAWEI/Middlewares/Third_Party/Huawei/iot_link/network/dtls/mbedtls/mbedtls-2.16.2/library\entropy.c ****         ctx->source[i].size = 0;
 855              		.loc 1 424 12 view .LVU244
 856 00b8 0346     		mov	r3, r0
 425:D:/fchai/work/i-cube/I-CUBE-HUAWEI/Middlewares/Third_Party/Huawei/iot_link/network/dtls/mbedtls/mbedtls-2.16.2/library\entropy.c **** 
 857              		.loc 1 425 29 view .LVU245
 858 00ba 0146     		mov	r1, r0
 859              	.LVL89:
 860              	.L56:
 425:D:/fchai/work/i-cube/I-CUBE-HUAWEI/Middlewares/Third_Party/Huawei/iot_link/network/dtls/mbedtls/mbedtls-2.16.2/library\entropy.c **** 
 861              		.loc 1 425 9 is_stmt 1 discriminator 3 view .LVU246
 424:D:/fchai/work/i-cube/I-CUBE-HUAWEI/Middlewares/Third_Party/Huawei/iot_link/network/dtls/mbedtls/mbedtls-2.16.2/library\entropy.c ****         ctx->source[i].size = 0;
 862              		.loc 1 424 41 is_stmt 0 discriminator 3 view .LVU247
 863 00bc 0133     		adds	r3, r3, #1
 864              	.LVL90:
 424:D:/fchai/work/i-cube/I-CUBE-HUAWEI/Middlewares/Third_Party/Huawei/iot_link/network/dtls/mbedtls/mbedtls-2.16.2/library\entropy.c ****         ctx->source[i].size = 0;
 865              		.loc 1 424 5 discriminator 3 view .LVU248
 866 00be 9342     		cmp	r3, r2
 425:D:/fchai/work/i-cube/I-CUBE-HUAWEI/Middlewares/Third_Party/Huawei/iot_link/network/dtls/mbedtls/mbedtls-2.16.2/library\entropy.c **** 
 867              		.loc 1 425 29 discriminator 3 view .LVU249
 868 00c0 E967     		str	r1, [r5, #124]
 424:D:/fchai/work/i-cube/I-CUBE-HUAWEI/Middlewares/Third_Party/Huawei/iot_link/network/dtls/mbedtls/mbedtls-2.16.2/library\entropy.c ****         ctx->source[i].size = 0;
 869              		.loc 1 424 40 is_stmt 1 discriminator 3 view .LVU250
 870              	.LVL91:
 424:D:/fchai/work/i-cube/I-CUBE-HUAWEI/Middlewares/Third_Party/Huawei/iot_link/network/dtls/mbedtls/mbedtls-2.16.2/library\entropy.c ****         ctx->source[i].size = 0;
 871              		.loc 1 424 17 discriminator 3 view .LVU251
 872 00c2 05F11405 		add	r5, r5, #20
 424:D:/fchai/work/i-cube/I-CUBE-HUAWEI/Middlewares/Third_Party/Huawei/iot_link/network/dtls/mbedtls/mbedtls-2.16.2/library\entropy.c ****         ctx->source[i].size = 0;
 873              		.loc 1 424 5 is_stmt 0 discriminator 3 view .LVU252
 874 00c6 F9D1     		bne	.L56
 875              	.LVL92:
 876              	.L55:
 427:D:/fchai/work/i-cube/I-CUBE-HUAWEI/Middlewares/Third_Party/Huawei/iot_link/network/dtls/mbedtls/mbedtls-2.16.2/library\entropy.c **** 
 877              		.loc 1 427 5 is_stmt 1 view .LVU253
 878 00c8 5246     		mov	r2, r10
 879 00ca 4046     		mov	r0, r8
 880              	.LVL93:
 427:D:/fchai/work/i-cube/I-CUBE-HUAWEI/Middlewares/Third_Party/Huawei/iot_link/network/dtls/mbedtls/mbedtls-2.16.2/library\entropy.c **** 
 881              		.loc 1 427 5 is_stmt 0 view .LVU254
 882 00cc 4946     		mov	r1, r9
ARM GAS  T:\msys\tmp\ccQXiRIu.s 			page 27


 883 00ce FFF7FEFF 		bl	memcpy
 884              	.LVL94:
 429:D:/fchai/work/i-cube/I-CUBE-HUAWEI/Middlewares/Third_Party/Huawei/iot_link/network/dtls/mbedtls/mbedtls-2.16.2/library\entropy.c **** 
 885              		.loc 1 429 5 is_stmt 1 view .LVU255
 429:D:/fchai/work/i-cube/I-CUBE-HUAWEI/Middlewares/Third_Party/Huawei/iot_link/network/dtls/mbedtls/mbedtls-2.16.2/library\entropy.c **** 
 886              		.loc 1 429 5 is_stmt 0 view .LVU256
 887 00d2 BAE7     		b	.L50
 888              	.LVL95:
 889              	.L57:
 333:D:/fchai/work/i-cube/I-CUBE-HUAWEI/Middlewares/Third_Party/Huawei/iot_link/network/dtls/mbedtls/mbedtls-2.16.2/library\entropy.c **** 
 890              		.loc 1 333 15 view .LVU257
 891 00d4 6FF03B04 		mvn	r4, #59
 892 00d8 BBE7     		b	.L47
 893              		.cfi_endproc
 894              	.LFE7:
 896 00da 00BF     		.text
 897              	.Letext0:
 898              		.file 2 "t:\\msys\\3rd\\gcc-arm-none-eabi-9-2020-q2-update-win32\\arm-none-eabi\\include\\machine\
 899              		.file 3 "t:\\msys\\3rd\\gcc-arm-none-eabi-9-2020-q2-update-win32\\lib\\gcc\\arm-none-eabi\\9.3.1\\
 900              		.file 4 "t:\\msys\\3rd\\gcc-arm-none-eabi-9-2020-q2-update-win32\\arm-none-eabi\\include\\sys\\_st
 901              		.file 5 "D:/fchai/work/i-cube/I-CUBE-HUAWEI/Middlewares/Third_Party/Huawei/iot_link/network/dtls/m
 902              		.file 6 "D:/fchai/work/i-cube/I-CUBE-HUAWEI/Middlewares/Third_Party/Huawei/iot_link/network/dtls/m
 903              		.file 7 "t:\\msys\\3rd\\gcc-arm-none-eabi-9-2020-q2-update-win32\\arm-none-eabi\\include\\sys\\_ty
 904              		.file 8 "t:\\msys\\3rd\\gcc-arm-none-eabi-9-2020-q2-update-win32\\arm-none-eabi\\include\\sys\\ree
 905              		.file 9 "t:\\msys\\3rd\\gcc-arm-none-eabi-9-2020-q2-update-win32\\arm-none-eabi\\include\\sys\\loc
 906              		.file 10 "D:/fchai/work/i-cube/I-CUBE-HUAWEI/Middlewares/Third_Party/Huawei/iot_link/network/dtls/
 907              		.file 11 "<built-in>"
ARM GAS  T:\msys\tmp\ccQXiRIu.s 			page 28

