ARM GAS  T:\msys\tmp\cceu68zA.s 			page 1


   1              		.cpu cortex-m4
   2              		.eabi_attribute 27, 1
   3              		.eabi_attribute 28, 1
   4              		.eabi_attribute 20, 1
   5              		.eabi_attribute 21, 1
   6              		.eabi_attribute 23, 3
   7              		.eabi_attribute 24, 1
   8              		.eabi_attribute 25, 1
   9              		.eabi_attribute 26, 1
  10              		.eabi_attribute 30, 2
  11              		.eabi_attribute 34, 1
  12              		.eabi_attribute 18, 4
  13              		.file	"error.c"
  14              		.text
  15              	.Ltext0:
  16              		.cfi_sections	.debug_frame
  17              		.section	.rodata.mbedtls_strerror.str1.4,"aMS",%progbits,1
  18              		.align	2
  19              	.LC0:
  20 0000 43495048 		.ascii	"CIPHER - The selected feature is not available\000"
  20      4552202D 
  20      20546865 
  20      2073656C 
  20      65637465 
  21 002f 00       		.align	2
  22              	.LC1:
  23 0030 43495048 		.ascii	"CIPHER - Bad input parameters\000"
  23      4552202D 
  23      20426164 
  23      20696E70 
  23      75742070 
  24 004e 0000     		.align	2
  25              	.LC2:
  26 0050 43495048 		.ascii	"CIPHER - Failed to allocate memory\000"
  26      4552202D 
  26      20466169 
  26      6C656420 
  26      746F2061 
  27 0073 00       		.align	2
  28              	.LC3:
  29 0074 43495048 		.ascii	"CIPHER - Input data contains invalid padding and is"
  29      4552202D 
  29      20496E70 
  29      75742064 
  29      61746120 
  30 00a7 2072656A 		.ascii	" rejected\000"
  30      65637465 
  30      6400
  31 00b1 000000   		.align	2
  32              	.LC4:
  33 00b4 43495048 		.ascii	"CIPHER - Decryption of block requires a full block\000"
  33      4552202D 
  33      20446563 
  33      72797074 
  33      696F6E20 
  34 00e7 00       		.align	2
  35              	.LC5:
ARM GAS  T:\msys\tmp\cceu68zA.s 			page 2


  36 00e8 43495048 		.ascii	"CIPHER - Authentication failed (for AEAD modes)\000"
  36      4552202D 
  36      20417574 
  36      68656E74 
  36      69636174 
  37              		.align	2
  38              	.LC6:
  39 0118 43495048 		.ascii	"CIPHER - The context is invalid. For example, becau"
  39      4552202D 
  39      20546865 
  39      20636F6E 
  39      74657874 
  40 014b 73652069 		.ascii	"se it was freed\000"
  40      74207761 
  40      73206672 
  40      65656400 
  41 015b 00       		.align	2
  42              	.LC7:
  43 015c 43495048 		.ascii	"CIPHER - Cipher hardware accelerator failed\000"
  43      4552202D 
  43      20436970 
  43      68657220 
  43      68617264 
  44              		.align	2
  45              	.LC8:
  46 0188 45435020 		.ascii	"ECP - Bad input parameters to function\000"
  46      2D204261 
  46      6420696E 
  46      70757420 
  46      70617261 
  47 01af 00       		.align	2
  48              	.LC9:
  49 01b0 45435020 		.ascii	"ECP - The buffer is too small to write to\000"
  49      2D205468 
  49      65206275 
  49      66666572 
  49      20697320 
  50 01da 0000     		.align	2
  51              	.LC10:
  52 01dc 45435020 		.ascii	"ECP - The requested feature is not available, for e"
  52      2D205468 
  52      65207265 
  52      71756573 
  52      74656420 
  53 020f 78616D70 		.ascii	"xample, the requested curve is not supported\000"
  53      6C652C20 
  53      74686520 
  53      72657175 
  53      65737465 
  54              		.align	2
  55              	.LC11:
  56 023c 45435020 		.ascii	"ECP - The signature is not valid\000"
  56      2D205468 
  56      65207369 
  56      676E6174 
  56      75726520 
  57 025d 000000   		.align	2
ARM GAS  T:\msys\tmp\cceu68zA.s 			page 3


  58              	.LC12:
  59 0260 45435020 		.ascii	"ECP - Memory allocation failed\000"
  59      2D204D65 
  59      6D6F7279 
  59      20616C6C 
  59      6F636174 
  60 027f 00       		.align	2
  61              	.LC13:
  62 0280 45435020 		.ascii	"ECP - Generation of random value, such as ephemeral"
  62      2D204765 
  62      6E657261 
  62      74696F6E 
  62      206F6620 
  63 02b3 206B6579 		.ascii	" key, failed\000"
  63      2C206661 
  63      696C6564 
  63      00
  64              		.align	2
  65              	.LC14:
  66 02c0 45435020 		.ascii	"ECP - Invalid private or public key\000"
  66      2D20496E 
  66      76616C69 
  66      64207072 
  66      69766174 
  67              		.align	2
  68              	.LC15:
  69 02e4 45435020 		.ascii	"ECP - The buffer contains a valid signature followe"
  69      2D205468 
  69      65206275 
  69      66666572 
  69      20636F6E 
  70 0317 64206279 		.ascii	"d by more data\000"
  70      206D6F72 
  70      65206461 
  70      746100
  71 0326 0000     		.align	2
  72              	.LC16:
  73 0328 45435020 		.ascii	"ECP - The ECP hardware accelerator failed\000"
  73      2D205468 
  73      65204543 
  73      50206861 
  73      72647761 
  74 0352 0000     		.align	2
  75              	.LC17:
  76 0354 45435020 		.ascii	"ECP - Operation in progress, call again with the sa"
  76      2D204F70 
  76      65726174 
  76      696F6E20 
  76      696E2070 
  77 0387 6D652070 		.ascii	"me parameters to continue\000"
  77      6172616D 
  77      65746572 
  77      7320746F 
  77      20636F6E 
  78 03a1 000000   		.align	2
  79              	.LC18:
  80 03a4 4D44202D 		.ascii	"MD - The selected feature is not available\000"
ARM GAS  T:\msys\tmp\cceu68zA.s 			page 4


  80      20546865 
  80      2073656C 
  80      65637465 
  80      64206665 
  81 03cf 00       		.align	2
  82              	.LC19:
  83 03d0 4D44202D 		.ascii	"MD - Bad input parameters to function\000"
  83      20426164 
  83      20696E70 
  83      75742070 
  83      6172616D 
  84 03f6 0000     		.align	2
  85              	.LC20:
  86 03f8 4D44202D 		.ascii	"MD - Failed to allocate memory\000"
  86      20466169 
  86      6C656420 
  86      746F2061 
  86      6C6C6F63 
  87 0417 00       		.align	2
  88              	.LC21:
  89 0418 4D44202D 		.ascii	"MD - Opening or reading of file failed\000"
  89      204F7065 
  89      6E696E67 
  89      206F7220 
  89      72656164 
  90 043f 00       		.align	2
  91              	.LC22:
  92 0440 4D44202D 		.ascii	"MD - MD hardware accelerator failed\000"
  92      204D4420 
  92      68617264 
  92      77617265 
  92      20616363 
  93              		.align	2
  94              	.LC23:
  95 0464 50454D20 		.ascii	"PEM - No PEM header or footer found\000"
  95      2D204E6F 
  95      2050454D 
  95      20686561 
  95      64657220 
  96              		.align	2
  97              	.LC24:
  98 0488 50454D20 		.ascii	"PEM - PEM string is not as expected\000"
  98      2D205045 
  98      4D207374 
  98      72696E67 
  98      20697320 
  99              		.align	2
 100              	.LC25:
 101 04ac 50454D20 		.ascii	"PEM - Failed to allocate memory\000"
 101      2D204661 
 101      696C6564 
 101      20746F20 
 101      616C6C6F 
 102              		.align	2
 103              	.LC26:
 104 04cc 50454D20 		.ascii	"PEM - RSA IV is not in hex-format\000"
 104      2D205253 
ARM GAS  T:\msys\tmp\cceu68zA.s 			page 5


 104      41204956 
 104      20697320 
 104      6E6F7420 
 105 04ee 0000     		.align	2
 106              	.LC27:
 107 04f0 50454D20 		.ascii	"PEM - Unsupported key encryption algorithm\000"
 107      2D20556E 
 107      73757070 
 107      6F727465 
 107      64206B65 
 108 051b 00       		.align	2
 109              	.LC28:
 110 051c 50454D20 		.ascii	"PEM - Private key password can't be empty\000"
 110      2D205072 
 110      69766174 
 110      65206B65 
 110      79207061 
 111 0546 0000     		.align	2
 112              	.LC29:
 113 0548 50454D20 		.ascii	"PEM - Given private key password does not allow for"
 113      2D204769 
 113      76656E20 
 113      70726976 
 113      61746520 
 114 057b 20636F72 		.ascii	" correct decryption\000"
 114      72656374 
 114      20646563 
 114      72797074 
 114      696F6E00 
 115 058f 00       		.align	2
 116              	.LC30:
 117 0590 50454D20 		.ascii	"PEM - Unavailable feature, e.g. hashing/encryption "
 117      2D20556E 
 117      61766169 
 117      6C61626C 
 117      65206665 
 118 05c3 636F6D62 		.ascii	"combination\000"
 118      696E6174 
 118      696F6E00 
 119 05cf 00       		.align	2
 120              	.LC31:
 121 05d0 50454D20 		.ascii	"PEM - Bad input parameters to function\000"
 121      2D204261 
 121      6420696E 
 121      70757420 
 121      70617261 
 122 05f7 00       		.align	2
 123              	.LC32:
 124 05f8 504B202D 		.ascii	"PK - Memory allocation failed\000"
 124      204D656D 
 124      6F727920 
 124      616C6C6F 
 124      63617469 
 125 0616 0000     		.align	2
 126              	.LC33:
 127 0618 504B202D 		.ascii	"PK - Type mismatch, eg attempt to encrypt with an E"
 127      20547970 
ARM GAS  T:\msys\tmp\cceu68zA.s 			page 6


 127      65206D69 
 127      736D6174 
 127      63682C20 
 128 064b 43445341 		.ascii	"CDSA key\000"
 128      206B6579 
 128      00
 129              		.align	2
 130              	.LC34:
 131 0654 504B202D 		.ascii	"PK - Bad input parameters to function\000"
 131      20426164 
 131      20696E70 
 131      75742070 
 131      6172616D 
 132 067a 0000     		.align	2
 133              	.LC35:
 134 067c 504B202D 		.ascii	"PK - Read/write of file failed\000"
 134      20526561 
 134      642F7772 
 134      69746520 
 134      6F662066 
 135 069b 00       		.align	2
 136              	.LC36:
 137 069c 504B202D 		.ascii	"PK - Unsupported key version\000"
 137      20556E73 
 137      7570706F 
 137      72746564 
 137      206B6579 
 138 06b9 000000   		.align	2
 139              	.LC37:
 140 06bc 504B202D 		.ascii	"PK - Invalid key tag or value\000"
 140      20496E76 
 140      616C6964 
 140      206B6579 
 140      20746167 
 141 06da 0000     		.align	2
 142              	.LC38:
 143 06dc 504B202D 		.ascii	"PK - Key algorithm is unsupported (only RSA and EC "
 143      204B6579 
 143      20616C67 
 143      6F726974 
 143      686D2069 
 144 070f 61726520 		.ascii	"are supported)\000"
 144      73757070 
 144      6F727465 
 144      642900
 145 071e 0000     		.align	2
 146              	.LC39:
 147 0720 504B202D 		.ascii	"PK - Private key password can't be empty\000"
 147      20507269 
 147      76617465 
 147      206B6579 
 147      20706173 
 148 0749 000000   		.align	2
 149              	.LC40:
 150 074c 504B202D 		.ascii	"PK - Given private key password does not allow for "
 150      20476976 
 150      656E2070 
ARM GAS  T:\msys\tmp\cceu68zA.s 			page 7


 150      72697661 
 150      7465206B 
 151 077f 636F7272 		.ascii	"correct decryption\000"
 151      65637420 
 151      64656372 
 151      79707469 
 151      6F6E00
 152 0792 0000     		.align	2
 153              	.LC41:
 154 0794 504B202D 		.ascii	"PK - The pubkey tag or value is invalid (only RSA a"
 154      20546865 
 154      20707562 
 154      6B657920 
 154      74616720 
 155 07c7 6E642045 		.ascii	"nd EC are supported)\000"
 155      43206172 
 155      65207375 
 155      70706F72 
 155      74656429 
 156              		.align	2
 157              	.LC42:
 158 07dc 504B202D 		.ascii	"PK - The algorithm tag or value is invalid\000"
 158      20546865 
 158      20616C67 
 158      6F726974 
 158      686D2074 
 159 0807 00       		.align	2
 160              	.LC43:
 161 0808 504B202D 		.ascii	"PK - Elliptic curve is unsupported (only NIST curve"
 161      20456C6C 
 161      69707469 
 161      63206375 
 161      72766520 
 162 083b 73206172 		.ascii	"s are supported)\000"
 162      65207375 
 162      70706F72 
 162      74656429 
 162      00
 163              		.align	2
 164              	.LC44:
 165 084c 504B202D 		.ascii	"PK - Unavailable feature, e.g. RSA disabled for RSA"
 165      20556E61 
 165      7661696C 
 165      61626C65 
 165      20666561 
 166 087f 206B6579 		.ascii	" key\000"
 166      00
 167              		.align	2
 168              	.LC45:
 169 0884 504B202D 		.ascii	"PK - The buffer contains a valid signature followed"
 169      20546865 
 169      20627566 
 169      66657220 
 169      636F6E74 
 170 08b7 20627920 		.ascii	" by more data\000"
 170      6D6F7265 
 170      20646174 
ARM GAS  T:\msys\tmp\cceu68zA.s 			page 8


 170      6100
 171 08c5 000000   		.align	2
 172              	.LC46:
 173 08c8 504B202D 		.ascii	"PK - PK hardware accelerator failed\000"
 173      20504B20 
 173      68617264 
 173      77617265 
 173      20616363 
 174              		.align	2
 175              	.LC47:
 176 08ec 504B4353 		.ascii	"PKCS12 - Bad input parameters to function\000"
 176      3132202D 
 176      20426164 
 176      20696E70 
 176      75742070 
 177 0916 0000     		.align	2
 178              	.LC48:
 179 0918 504B4353 		.ascii	"PKCS12 - Feature not available, e.g. unsupported en"
 179      3132202D 
 179      20466561 
 179      74757265 
 179      206E6F74 
 180 094b 63727970 		.ascii	"cryption scheme\000"
 180      74696F6E 
 180      20736368 
 180      656D6500 
 181 095b 00       		.align	2
 182              	.LC49:
 183 095c 504B4353 		.ascii	"PKCS12 - PBE ASN.1 data not as expected\000"
 183      3132202D 
 183      20504245 
 183      2041534E 
 183      2E312064 
 184              		.align	2
 185              	.LC50:
 186 0984 504B4353 		.ascii	"PKCS12 - Given private key password does not allow "
 186      3132202D 
 186      20476976 
 186      656E2070 
 186      72697661 
 187 09b7 666F7220 		.ascii	"for correct decryption\000"
 187      636F7272 
 187      65637420 
 187      64656372 
 187      79707469 
 188 09ce 0000     		.align	2
 189              	.LC51:
 190 09d0 504B4353 		.ascii	"PKCS5 - Bad input parameters to function\000"
 190      35202D20 
 190      42616420 
 190      696E7075 
 190      74207061 
 191 09f9 000000   		.align	2
 192              	.LC52:
 193 09fc 504B4353 		.ascii	"PKCS5 - Unexpected ASN.1 data\000"
 193      35202D20 
 193      556E6578 
ARM GAS  T:\msys\tmp\cceu68zA.s 			page 9


 193      70656374 
 193      65642041 
 194 0a1a 0000     		.align	2
 195              	.LC53:
 196 0a1c 504B4353 		.ascii	"PKCS5 - Requested encryption or digest alg not avai"
 196      35202D20 
 196      52657175 
 196      65737465 
 196      6420656E 
 197 0a4f 6C61626C 		.ascii	"lable\000"
 197      6500
 198 0a55 000000   		.align	2
 199              	.LC54:
 200 0a58 504B4353 		.ascii	"PKCS5 - Given private key password does not allow f"
 200      35202D20 
 200      47697665 
 200      6E207072 
 200      69766174 
 201 0a8b 6F722063 		.ascii	"or correct decryption\000"
 201      6F727265 
 201      63742064 
 201      65637279 
 201      7074696F 
 202 0aa1 000000   		.align	2
 203              	.LC55:
 204 0aa4 52534120 		.ascii	"RSA - Bad input parameters to function\000"
 204      2D204261 
 204      6420696E 
 204      70757420 
 204      70617261 
 205 0acb 00       		.align	2
 206              	.LC56:
 207 0acc 52534120 		.ascii	"RSA - Input data contains invalid padding and is re"
 207      2D20496E 
 207      70757420 
 207      64617461 
 207      20636F6E 
 208 0aff 6A656374 		.ascii	"jected\000"
 208      656400
 209 0b06 0000     		.align	2
 210              	.LC57:
 211 0b08 52534120 		.ascii	"RSA - Something failed during generation of a key\000"
 211      2D20536F 
 211      6D657468 
 211      696E6720 
 211      6661696C 
 212 0b3a 0000     		.align	2
 213              	.LC58:
 214 0b3c 52534120 		.ascii	"RSA - Key failed to pass the validity check of the "
 214      2D204B65 
 214      79206661 
 214      696C6564 
 214      20746F20 
 215 0b6f 6C696272 		.ascii	"library\000"
 215      61727900 
 216 0b77 00       		.align	2
 217              	.LC59:
ARM GAS  T:\msys\tmp\cceu68zA.s 			page 10


 218 0b78 52534120 		.ascii	"RSA - The public key operation failed\000"
 218      2D205468 
 218      65207075 
 218      626C6963 
 218      206B6579 
 219 0b9e 0000     		.align	2
 220              	.LC60:
 221 0ba0 52534120 		.ascii	"RSA - The private key operation failed\000"
 221      2D205468 
 221      65207072 
 221      69766174 
 221      65206B65 
 222 0bc7 00       		.align	2
 223              	.LC61:
 224 0bc8 52534120 		.ascii	"RSA - The PKCS#1 verification failed\000"
 224      2D205468 
 224      6520504B 
 224      43532331 
 224      20766572 
 225 0bed 000000   		.align	2
 226              	.LC62:
 227 0bf0 52534120 		.ascii	"RSA - The output buffer for decryption is not large"
 227      2D205468 
 227      65206F75 
 227      74707574 
 227      20627566 
 228 0c23 20656E6F 		.ascii	" enough\000"
 228      75676800 
 229 0c2b 00       		.align	2
 230              	.LC63:
 231 0c2c 52534120 		.ascii	"RSA - The random generator failed to generate non-z"
 231      2D205468 
 231      65207261 
 231      6E646F6D 
 231      2067656E 
 232 0c5f 65726F73 		.ascii	"eros\000"
 232      00
 233              		.align	2
 234              	.LC64:
 235 0c64 52534120 		.ascii	"RSA - The implementation does not offer the request"
 235      2D205468 
 235      6520696D 
 235      706C656D 
 235      656E7461 
 236 0c97 6564206F 		.ascii	"ed operation, for example, because of security viol"
 236      70657261 
 236      74696F6E 
 236      2C20666F 
 236      72206578 
 237 0cca 6174696F 		.ascii	"ations or lack of functionality\000"
 237      6E73206F 
 237      72206C61 
 237      636B206F 
 237      66206675 
 238 0cea 0000     		.align	2
 239              	.LC65:
 240 0cec 52534120 		.ascii	"RSA - RSA hardware accelerator failed\000"
ARM GAS  T:\msys\tmp\cceu68zA.s 			page 11


 240      2D205253 
 240      41206861 
 240      72647761 
 240      72652061 
 241 0d12 0000     		.align	2
 242              	.LC66:
 243 0d14 53534C20 		.ascii	"SSL - The requested feature is not available\000"
 243      2D205468 
 243      65207265 
 243      71756573 
 243      74656420 
 244 0d41 000000   		.align	2
 245              	.LC67:
 246 0d44 53534C20 		.ascii	"SSL - Bad input parameters to function\000"
 246      2D204261 
 246      6420696E 
 246      70757420 
 246      70617261 
 247 0d6b 00       		.align	2
 248              	.LC68:
 249 0d6c 53534C20 		.ascii	"SSL - Verification of the message MAC failed\000"
 249      2D205665 
 249      72696669 
 249      63617469 
 249      6F6E206F 
 250 0d99 000000   		.align	2
 251              	.LC69:
 252 0d9c 53534C20 		.ascii	"SSL - An invalid SSL record was received\000"
 252      2D20416E 
 252      20696E76 
 252      616C6964 
 252      2053534C 
 253 0dc5 000000   		.align	2
 254              	.LC70:
 255 0dc8 53534C20 		.ascii	"SSL - The connection indicated an EOF\000"
 255      2D205468 
 255      6520636F 
 255      6E6E6563 
 255      74696F6E 
 256 0dee 0000     		.align	2
 257              	.LC71:
 258 0df0 53534C20 		.ascii	"SSL - An unknown cipher was received\000"
 258      2D20416E 
 258      20756E6B 
 258      6E6F776E 
 258      20636970 
 259 0e15 000000   		.align	2
 260              	.LC72:
 261 0e18 53534C20 		.ascii	"SSL - The server has no ciphersuites in common with"
 261      2D205468 
 261      65207365 
 261      72766572 
 261      20686173 
 262 0e4b 20746865 		.ascii	" the client\000"
 262      20636C69 
 262      656E7400 
 263 0e57 00       		.align	2
ARM GAS  T:\msys\tmp\cceu68zA.s 			page 12


 264              	.LC73:
 265 0e58 53534C20 		.ascii	"SSL - No RNG was provided to the SSL module\000"
 265      2D204E6F 
 265      20524E47 
 265      20776173 
 265      2070726F 
 266              		.align	2
 267              	.LC74:
 268 0e84 53534C20 		.ascii	"SSL - No client certification received from the cli"
 268      2D204E6F 
 268      20636C69 
 268      656E7420 
 268      63657274 
 269 0eb7 656E742C 		.ascii	"ent, but required by the authentication mode\000"
 269      20627574 
 269      20726571 
 269      75697265 
 269      64206279 
 270              		.align	2
 271              	.LC75:
 272 0ee4 53534C20 		.ascii	"SSL - Our own certificate(s) is/are too large to se"
 272      2D204F75 
 272      72206F77 
 272      6E206365 
 272      72746966 
 273 0f17 6E642069 		.ascii	"nd in an SSL message\000"
 273      6E20616E 
 273      2053534C 
 273      206D6573 
 273      73616765 
 274              		.align	2
 275              	.LC76:
 276 0f2c 53534C20 		.ascii	"SSL - The own certificate is not set, but needed by"
 276      2D205468 
 276      65206F77 
 276      6E206365 
 276      72746966 
 277 0f5f 20746865 		.ascii	" the server\000"
 277      20736572 
 277      76657200 
 278 0f6b 00       		.align	2
 279              	.LC77:
 280 0f6c 53534C20 		.ascii	"SSL - The own private key or pre-shared key is not "
 280      2D205468 
 280      65206F77 
 280      6E207072 
 280      69766174 
 281 0f9f 7365742C 		.ascii	"set, but needed\000"
 281      20627574 
 281      206E6565 
 281      64656400 
 282 0faf 00       		.align	2
 283              	.LC78:
 284 0fb0 53534C20 		.ascii	"SSL - No CA Chain is set, but required to operate\000"
 284      2D204E6F 
 284      20434120 
 284      43686169 
ARM GAS  T:\msys\tmp\cceu68zA.s 			page 13


 284      6E206973 
 285 0fe2 0000     		.align	2
 286              	.LC79:
 287 0fe4 53534C20 		.ascii	"SSL - An unexpected message was received from our p"
 287      2D20416E 
 287      20756E65 
 287      78706563 
 287      74656420 
 288 1017 65657200 		.ascii	"eer\000"
 289 101b 00       		.align	2
 290              	.LC80:
 291 101c 53534C20 		.ascii	"SSL - A fatal alert message was received from our p"
 291      2D204120 
 291      66617461 
 291      6C20616C 
 291      65727420 
 292 104f 65657200 		.ascii	"eer\000"
 293 1053 00       		.align	2
 294              	.LC81:
 295 1054 53534C20 		.ascii	"SSL - Verification of our peer failed\000"
 295      2D205665 
 295      72696669 
 295      63617469 
 295      6F6E206F 
 296 107a 0000     		.align	2
 297              	.LC82:
 298 107c 53534C20 		.ascii	"SSL - The peer notified us that the connection is g"
 298      2D205468 
 298      65207065 
 298      6572206E 
 298      6F746966 
 299 10af 6F696E67 		.ascii	"oing to be closed\000"
 299      20746F20 
 299      62652063 
 299      6C6F7365 
 299      6400
 300 10c1 000000   		.align	2
 301              	.LC83:
 302 10c4 53534C20 		.ascii	"SSL - Processing of the ClientHello handshake messa"
 302      2D205072 
 302      6F636573 
 302      73696E67 
 302      206F6620 
 303 10f7 67652066 		.ascii	"ge failed\000"
 303      61696C65 
 303      6400
 304 1101 000000   		.align	2
 305              	.LC84:
 306 1104 53534C20 		.ascii	"SSL - Processing of the ServerHello handshake messa"
 306      2D205072 
 306      6F636573 
 306      73696E67 
 306      206F6620 
 307 1137 67652066 		.ascii	"ge failed\000"
 307      61696C65 
 307      6400
 308 1141 000000   		.align	2
ARM GAS  T:\msys\tmp\cceu68zA.s 			page 14


 309              	.LC85:
 310 1144 53534C20 		.ascii	"SSL - Processing of the Certificate handshake messa"
 310      2D205072 
 310      6F636573 
 310      73696E67 
 310      206F6620 
 311 1177 67652066 		.ascii	"ge failed\000"
 311      61696C65 
 311      6400
 312 1181 000000   		.align	2
 313              	.LC86:
 314 1184 53534C20 		.ascii	"SSL - Processing of the CertificateRequest handshak"
 314      2D205072 
 314      6F636573 
 314      73696E67 
 314      206F6620 
 315 11b7 65206D65 		.ascii	"e message failed\000"
 315      73736167 
 315      65206661 
 315      696C6564 
 315      00
 316              		.align	2
 317              	.LC87:
 318 11c8 53534C20 		.ascii	"SSL - Processing of the ServerKeyExchange handshake"
 318      2D205072 
 318      6F636573 
 318      73696E67 
 318      206F6620 
 319 11fb 206D6573 		.ascii	" message failed\000"
 319      73616765 
 319      20666169 
 319      6C656400 
 320 120b 00       		.align	2
 321              	.LC88:
 322 120c 53534C20 		.ascii	"SSL - Processing of the ServerHelloDone handshake m"
 322      2D205072 
 322      6F636573 
 322      73696E67 
 322      206F6620 
 323 123f 65737361 		.ascii	"essage failed\000"
 323      67652066 
 323      61696C65 
 323      6400
 324 124d 000000   		.align	2
 325              	.LC89:
 326 1250 53534C20 		.ascii	"SSL - Processing of the ClientKeyExchange handshake"
 326      2D205072 
 326      6F636573 
 326      73696E67 
 326      206F6620 
 327 1283 206D6573 		.ascii	" message failed\000"
 327      73616765 
 327      20666169 
 327      6C656400 
 328 1293 00       		.align	2
 329              	.LC90:
 330 1294 53534C20 		.ascii	"SSL - Processing of the ClientKeyExchange handshake"
ARM GAS  T:\msys\tmp\cceu68zA.s 			page 15


 330      2D205072 
 330      6F636573 
 330      73696E67 
 330      206F6620 
 331 12c7 206D6573 		.ascii	" message failed in DHM / ECDH Read Public\000"
 331      73616765 
 331      20666169 
 331      6C656420 
 331      696E2044 
 332 12f1 000000   		.align	2
 333              	.LC91:
 334 12f4 53534C20 		.ascii	"SSL - Processing of the ClientKeyExchange handshake"
 334      2D205072 
 334      6F636573 
 334      73696E67 
 334      206F6620 
 335 1327 206D6573 		.ascii	" message failed in DHM / ECDH Calculate Secret\000"
 335      73616765 
 335      20666169 
 335      6C656420 
 335      696E2044 
 336 1356 0000     		.align	2
 337              	.LC92:
 338 1358 53534C20 		.ascii	"SSL - Processing of the CertificateVerify handshake"
 338      2D205072 
 338      6F636573 
 338      73696E67 
 338      206F6620 
 339 138b 206D6573 		.ascii	" message failed\000"
 339      73616765 
 339      20666169 
 339      6C656400 
 340 139b 00       		.align	2
 341              	.LC93:
 342 139c 53534C20 		.ascii	"SSL - Processing of the ChangeCipherSpec handshake "
 342      2D205072 
 342      6F636573 
 342      73696E67 
 342      206F6620 
 343 13cf 6D657373 		.ascii	"message failed\000"
 343      61676520 
 343      6661696C 
 343      656400
 344 13de 0000     		.align	2
 345              	.LC94:
 346 13e0 53534C20 		.ascii	"SSL - Processing of the Finished handshake message "
 346      2D205072 
 346      6F636573 
 346      73696E67 
 346      206F6620 
 347 1413 6661696C 		.ascii	"failed\000"
 347      656400
 348 141a 0000     		.align	2
 349              	.LC95:
 350 141c 53534C20 		.ascii	"SSL - Memory allocation failed\000"
 350      2D204D65 
 350      6D6F7279 
ARM GAS  T:\msys\tmp\cceu68zA.s 			page 16


 350      20616C6C 
 350      6F636174 
 351 143b 00       		.align	2
 352              	.LC96:
 353 143c 53534C20 		.ascii	"SSL - Hardware acceleration function returned with "
 353      2D204861 
 353      72647761 
 353      72652061 
 353      6363656C 
 354 146f 6572726F 		.ascii	"error\000"
 354      7200
 355 1475 000000   		.align	2
 356              	.LC97:
 357 1478 53534C20 		.ascii	"SSL - Hardware acceleration function skipped / left"
 357      2D204861 
 357      72647761 
 357      72652061 
 357      6363656C 
 358 14ab 20616C6F 		.ascii	" alone data\000"
 358      6E652064 
 358      61746100 
 359 14b7 00       		.align	2
 360              	.LC98:
 361 14b8 53534C20 		.ascii	"SSL - Processing of the compression / decompression"
 361      2D205072 
 361      6F636573 
 361      73696E67 
 361      206F6620 
 362 14eb 20666169 		.ascii	" failed\000"
 362      6C656400 
 363 14f3 00       		.align	2
 364              	.LC99:
 365 14f4 53534C20 		.ascii	"SSL - Handshake protocol not within min/max boundar"
 365      2D204861 
 365      6E647368 
 365      616B6520 
 365      70726F74 
 366 1527 69657300 		.ascii	"ies\000"
 367 152b 00       		.align	2
 368              	.LC100:
 369 152c 53534C20 		.ascii	"SSL - Processing of the NewSessionTicket handshake "
 369      2D205072 
 369      6F636573 
 369      73696E67 
 369      206F6620 
 370 155f 6D657373 		.ascii	"message failed\000"
 370      61676520 
 370      6661696C 
 370      656400
 371 156e 0000     		.align	2
 372              	.LC101:
 373 1570 53534C20 		.ascii	"SSL - Session ticket has expired\000"
 373      2D205365 
 373      7373696F 
 373      6E207469 
 373      636B6574 
 374 1591 000000   		.align	2
ARM GAS  T:\msys\tmp\cceu68zA.s 			page 17


 375              	.LC102:
 376 1594 53534C20 		.ascii	"SSL - Public key type mismatch (eg, asked for RSA k"
 376      2D205075 
 376      626C6963 
 376      206B6579 
 376      20747970 
 377 15c7 65792065 		.ascii	"ey exchange and presented EC key)\000"
 377      78636861 
 377      6E676520 
 377      616E6420 
 377      70726573 
 378 15e9 000000   		.align	2
 379              	.LC103:
 380 15ec 53534C20 		.ascii	"SSL - Unknown identity received (eg, PSK identity)\000"
 380      2D20556E 
 380      6B6E6F77 
 380      6E206964 
 380      656E7469 
 381 161f 00       		.align	2
 382              	.LC104:
 383 1620 53534C20 		.ascii	"SSL - Internal error (eg, unexpected failure in low"
 383      2D20496E 
 383      7465726E 
 383      616C2065 
 383      72726F72 
 384 1653 65722D6C 		.ascii	"er-level module)\000"
 384      6576656C 
 384      206D6F64 
 384      756C6529 
 384      00
 385              		.align	2
 386              	.LC105:
 387 1664 53534C20 		.ascii	"SSL - A counter would wrap (eg, too many messages e"
 387      2D204120 
 387      636F756E 
 387      74657220 
 387      776F756C 
 388 1697 78636861 		.ascii	"xchanged)\000"
 388      6E676564 
 388      2900
 389 16a1 000000   		.align	2
 390              	.LC106:
 391 16a4 53534C20 		.ascii	"SSL - Unexpected message at ServerHello in renegoti"
 391      2D20556E 
 391      65787065 
 391      63746564 
 391      206D6573 
 392 16d7 6174696F 		.ascii	"ation\000"
 392      6E00
 393 16dd 000000   		.align	2
 394              	.LC107:
 395 16e0 53534C20 		.ascii	"SSL - DTLS client must retry for hello verification"
 395      2D204454 
 395      4C532063 
 395      6C69656E 
 395      74206D75 
 396 1713 00       		.ascii	"\000"
ARM GAS  T:\msys\tmp\cceu68zA.s 			page 18


 397              		.align	2
 398              	.LC108:
 399 1714 53534C20 		.ascii	"SSL - A buffer is too small to receive or write a m"
 399      2D204120 
 399      62756666 
 399      65722069 
 399      7320746F 
 400 1747 65737361 		.ascii	"essage\000"
 400      676500
 401 174e 0000     		.align	2
 402              	.LC109:
 403 1750 53534C20 		.ascii	"SSL - None of the common ciphersuites is usable (eg"
 403      2D204E6F 
 403      6E65206F 
 403      66207468 
 403      6520636F 
 404 1783 2C206E6F 		.ascii	", no suitable certificate, see debug messages)\000"
 404      20737569 
 404      7461626C 
 404      65206365 
 404      72746966 
 405 17b2 0000     		.align	2
 406              	.LC110:
 407 17b4 53534C20 		.ascii	"SSL - No data of requested type currently available"
 407      2D204E6F 
 407      20646174 
 407      61206F66 
 407      20726571 
 408 17e7 206F6E20 		.ascii	" on underlying transport\000"
 408      756E6465 
 408      726C7969 
 408      6E672074 
 408      72616E73 
 409              		.align	2
 410              	.LC111:
 411 1800 53534C20 		.ascii	"SSL - Connection requires a write call\000"
 411      2D20436F 
 411      6E6E6563 
 411      74696F6E 
 411      20726571 
 412 1827 00       		.align	2
 413              	.LC112:
 414 1828 53534C20 		.ascii	"SSL - The operation timed out\000"
 414      2D205468 
 414      65206F70 
 414      65726174 
 414      696F6E20 
 415 1846 0000     		.align	2
 416              	.LC113:
 417 1848 53534C20 		.ascii	"SSL - The client initiated a reconnect from the sam"
 417      2D205468 
 417      6520636C 
 417      69656E74 
 417      20696E69 
 418 187b 6520706F 		.ascii	"e port\000"
 418      727400
 419 1882 0000     		.align	2
ARM GAS  T:\msys\tmp\cceu68zA.s 			page 19


 420              	.LC114:
 421 1884 53534C20 		.ascii	"SSL - Record header looks valid but is not expected"
 421      2D205265 
 421      636F7264 
 421      20686561 
 421      64657220 
 422 18b7 00       		.ascii	"\000"
 423              		.align	2
 424              	.LC115:
 425 18b8 53534C20 		.ascii	"SSL - The alert message received indicates a non-fa"
 425      2D205468 
 425      6520616C 
 425      65727420 
 425      6D657373 
 426 18eb 74616C20 		.ascii	"tal error\000"
 426      6572726F 
 426      7200
 427 18f5 000000   		.align	2
 428              	.LC116:
 429 18f8 53534C20 		.ascii	"SSL - Couldn't set the hash for verifying Certifica"
 429      2D20436F 
 429      756C646E 
 429      27742073 
 429      65742074 
 430 192b 74655665 		.ascii	"teVerify\000"
 430      72696679 
 430      00
 431              		.align	2
 432              	.LC117:
 433 1934 53534C20 		.ascii	"SSL - Internal-only message signaling that further "
 433      2D20496E 
 433      7465726E 
 433      616C2D6F 
 433      6E6C7920 
 434 1967 6D657373 		.ascii	"message-processing should be done\000"
 434      6167652D 
 434      70726F63 
 434      65737369 
 434      6E672073 
 435 1989 000000   		.align	2
 436              	.LC118:
 437 198c 53534C20 		.ascii	"SSL - The asynchronous operation is not completed y"
 437      2D205468 
 437      65206173 
 437      796E6368 
 437      726F6E6F 
 438 19bf 657400   		.ascii	"et\000"
 439 19c2 0000     		.align	2
 440              	.LC119:
 441 19c4 53534C20 		.ascii	"SSL - Internal-only message signaling that a messag"
 441      2D20496E 
 441      7465726E 
 441      616C2D6F 
 441      6E6C7920 
 442 19f7 65206172 		.ascii	"e arrived early\000"
 442      72697665 
 442      64206561 
ARM GAS  T:\msys\tmp\cceu68zA.s 			page 20


 442      726C7900 
 443 1a07 00       		.align	2
 444              	.LC120:
 445 1a08 53534C20 		.ascii	"SSL - A cryptographic operation is in progress. Try"
 445      2D204120 
 445      63727970 
 445      746F6772 
 445      61706869 
 446 1a3b 20616761 		.ascii	" again later\000"
 446      696E206C 
 446      61746572 
 446      00
 447              		.align	2
 448              	.LC121:
 449 1a48 58353039 		.ascii	"X509 - Unavailable feature, e.g. RSA hashing/encryp"
 449      202D2055 
 449      6E617661 
 449      696C6162 
 449      6C652066 
 450 1a7b 74696F6E 		.ascii	"tion combination\000"
 450      20636F6D 
 450      62696E61 
 450      74696F6E 
 450      00
 451              		.align	2
 452              	.LC122:
 453 1a8c 58353039 		.ascii	"X509 - Requested OID is unknown\000"
 453      202D2052 
 453      65717565 
 453      73746564 
 453      204F4944 
 454              		.align	2
 455              	.LC123:
 456 1aac 58353039 		.ascii	"X509 - The CRT/CRL/CSR format is invalid, e.g. diff"
 456      202D2054 
 456      68652043 
 456      52542F43 
 456      524C2F43 
 457 1adf 6572656E 		.ascii	"erent type expected\000"
 457      74207479 
 457      70652065 
 457      78706563 
 457      74656400 
 458 1af3 00       		.align	2
 459              	.LC124:
 460 1af4 58353039 		.ascii	"X509 - The CRT/CRL/CSR version element is invalid\000"
 460      202D2054 
 460      68652043 
 460      52542F43 
 460      524C2F43 
 461 1b26 0000     		.align	2
 462              	.LC125:
 463 1b28 58353039 		.ascii	"X509 - The serial tag or value is invalid\000"
 463      202D2054 
 463      68652073 
 463      65726961 
 463      6C207461 
ARM GAS  T:\msys\tmp\cceu68zA.s 			page 21


 464 1b52 0000     		.align	2
 465              	.LC126:
 466 1b54 58353039 		.ascii	"X509 - The algorithm tag or value is invalid\000"
 466      202D2054 
 466      68652061 
 466      6C676F72 
 466      6974686D 
 467 1b81 000000   		.align	2
 468              	.LC127:
 469 1b84 58353039 		.ascii	"X509 - The name tag or value is invalid\000"
 469      202D2054 
 469      6865206E 
 469      616D6520 
 469      74616720 
 470              		.align	2
 471              	.LC128:
 472 1bac 58353039 		.ascii	"X509 - The date tag or value is invalid\000"
 472      202D2054 
 472      68652064 
 472      61746520 
 472      74616720 
 473              		.align	2
 474              	.LC129:
 475 1bd4 58353039 		.ascii	"X509 - The signature tag or value invalid\000"
 475      202D2054 
 475      68652073 
 475      69676E61 
 475      74757265 
 476 1bfe 0000     		.align	2
 477              	.LC130:
 478 1c00 58353039 		.ascii	"X509 - The extension tag or value is invalid\000"
 478      202D2054 
 478      68652065 
 478      7874656E 
 478      73696F6E 
 479 1c2d 000000   		.align	2
 480              	.LC131:
 481 1c30 58353039 		.ascii	"X509 - CRT/CRL/CSR has an unsupported version numbe"
 481      202D2043 
 481      52542F43 
 481      524C2F43 
 481      53522068 
 482 1c63 7200     		.ascii	"r\000"
 483 1c65 000000   		.align	2
 484              	.LC132:
 485 1c68 58353039 		.ascii	"X509 - Signature algorithm (oid) is unsupported\000"
 485      202D2053 
 485      69676E61 
 485      74757265 
 485      20616C67 
 486              		.align	2
 487              	.LC133:
 488 1c98 58353039 		.ascii	"X509 - Signature algorithms do not match. (see \\c "
 488      202D2053 
 488      69676E61 
 488      74757265 
 488      20616C67 
ARM GAS  T:\msys\tmp\cceu68zA.s 			page 22


 489 1cca 3A3A6D62 		.ascii	"::mbedtls_x509_crt sig_oid)\000"
 489      6564746C 
 489      735F7835 
 489      30395F63 
 489      72742073 
 490 1ce6 0000     		.align	2
 491              	.LC134:
 492 1ce8 58353039 		.ascii	"X509 - Certificate verification failed, e.g. CRL, C"
 492      202D2043 
 492      65727469 
 492      66696361 
 492      74652076 
 493 1d1b 41206F72 		.ascii	"A or signature check failed\000"
 493      20736967 
 493      6E617475 
 493      72652063 
 493      6865636B 
 494 1d37 00       		.align	2
 495              	.LC135:
 496 1d38 58353039 		.ascii	"X509 - Format not recognized as DER or PEM\000"
 496      202D2046 
 496      6F726D61 
 496      74206E6F 
 496      74207265 
 497 1d63 00       		.align	2
 498              	.LC136:
 499 1d64 58353039 		.ascii	"X509 - Input invalid\000"
 499      202D2049 
 499      6E707574 
 499      20696E76 
 499      616C6964 
 500 1d79 000000   		.align	2
 501              	.LC137:
 502 1d7c 58353039 		.ascii	"X509 - Allocation of memory failed\000"
 502      202D2041 
 502      6C6C6F63 
 502      6174696F 
 502      6E206F66 
 503 1d9f 00       		.align	2
 504              	.LC138:
 505 1da0 58353039 		.ascii	"X509 - Read/write of file failed\000"
 505      202D2052 
 505      6561642F 
 505      77726974 
 505      65206F66 
 506 1dc1 000000   		.align	2
 507              	.LC139:
 508 1dc4 58353039 		.ascii	"X509 - Destination buffer is too small\000"
 508      202D2044 
 508      65737469 
 508      6E617469 
 508      6F6E2062 
 509 1deb 00       		.align	2
 510              	.LC140:
 511 1dec 58353039 		.ascii	"X509 - A fatal error occured, eg the chain is too l"
 511      202D2041 
 511      20666174 
ARM GAS  T:\msys\tmp\cceu68zA.s 			page 23


 511      616C2065 
 511      72726F72 
 512 1e1f 6F6E6720 		.ascii	"ong or the vrfy callback failed\000"
 512      6F722074 
 512      68652076 
 512      72667920 
 512      63616C6C 
 513 1e3f 00       		.align	2
 514              	.LC141:
 515 1e40 554E4B4E 		.ascii	"UNKNOWN ERROR CODE (%04X)\000"
 515      4F574E20 
 515      4552524F 
 515      5220434F 
 515      44452028 
 516 1e5a 0000     		.align	2
 517              	.LC142:
 518 1e5c 203A2000 		.ascii	" : \000"
 519              		.align	2
 520              	.LC143:
 521 1e60 41455320 		.ascii	"AES - Invalid key length\000"
 521      2D20496E 
 521      76616C69 
 521      64206B65 
 521      79206C65 
 522 1e79 000000   		.align	2
 523              	.LC144:
 524 1e7c 41455320 		.ascii	"AES - Invalid data input length\000"
 524      2D20496E 
 524      76616C69 
 524      64206461 
 524      74612069 
 525              		.align	2
 526              	.LC145:
 527 1e9c 41455320 		.ascii	"AES - Invalid input data\000"
 527      2D20496E 
 527      76616C69 
 527      6420696E 
 527      70757420 
 528 1eb5 000000   		.align	2
 529              	.LC146:
 530 1eb8 41455320 		.ascii	"AES - Feature not available. For example, an unsupp"
 530      2D204665 
 530      61747572 
 530      65206E6F 
 530      74206176 
 531 1eeb 6F727465 		.ascii	"orted AES key size\000"
 531      64204145 
 531      53206B65 
 531      79207369 
 531      7A6500
 532 1efe 0000     		.align	2
 533              	.LC147:
 534 1f00 41455320 		.ascii	"AES - AES hardware accelerator failed\000"
 534      2D204145 
 534      53206861 
 534      72647761 
 534      72652061 
ARM GAS  T:\msys\tmp\cceu68zA.s 			page 24


 535 1f26 0000     		.align	2
 536              	.LC148:
 537 1f28 41534E31 		.ascii	"ASN1 - Out of data when parsing an ASN1 data struct"
 537      202D204F 
 537      7574206F 
 537      66206461 
 537      74612077 
 538 1f5b 75726500 		.ascii	"ure\000"
 539 1f5f 00       		.align	2
 540              	.LC149:
 541 1f60 41534E31 		.ascii	"ASN1 - ASN1 tag was of an unexpected value\000"
 541      202D2041 
 541      534E3120 
 541      74616720 
 541      77617320 
 542 1f8b 00       		.align	2
 543              	.LC150:
 544 1f8c 41534E31 		.ascii	"ASN1 - Error when trying to determine the length or"
 544      202D2045 
 544      72726F72 
 544      20776865 
 544      6E207472 
 545 1fbf 20696E76 		.ascii	" invalid length\000"
 545      616C6964 
 545      206C656E 
 545      67746800 
 546 1fcf 00       		.align	2
 547              	.LC151:
 548 1fd0 41534E31 		.ascii	"ASN1 - Actual length differs from expected length\000"
 548      202D2041 
 548      63747561 
 548      6C206C65 
 548      6E677468 
 549 2002 0000     		.align	2
 550              	.LC152:
 551 2004 41534E31 		.ascii	"ASN1 - Data is invalid. (not used)\000"
 551      202D2044 
 551      61746120 
 551      69732069 
 551      6E76616C 
 552 2027 00       		.align	2
 553              	.LC153:
 554 2028 41534E31 		.ascii	"ASN1 - Memory allocation failed\000"
 554      202D204D 
 554      656D6F72 
 554      7920616C 
 554      6C6F6361 
 555              		.align	2
 556              	.LC154:
 557 2048 41534E31 		.ascii	"ASN1 - Buffer too small when writing ASN.1 data str"
 557      202D2042 
 557      75666665 
 557      7220746F 
 557      6F20736D 
 558 207b 75637475 		.ascii	"ucture\000"
 558      726500
 559 2082 0000     		.align	2
ARM GAS  T:\msys\tmp\cceu68zA.s 			page 25


 560              	.LC155:
 561 2084 42415345 		.ascii	"BASE64 - Output buffer too small\000"
 561      3634202D 
 561      204F7574 
 561      70757420 
 561      62756666 
 562 20a5 000000   		.align	2
 563              	.LC156:
 564 20a8 42415345 		.ascii	"BASE64 - Invalid character in input\000"
 564      3634202D 
 564      20496E76 
 564      616C6964 
 564      20636861 
 565              		.align	2
 566              	.LC157:
 567 20cc 4249474E 		.ascii	"BIGNUM - An error occurred while reading from or wr"
 567      554D202D 
 567      20416E20 
 567      6572726F 
 567      72206F63 
 568 20ff 6974696E 		.ascii	"iting to a file\000"
 568      6720746F 
 568      20612066 
 568      696C6500 
 569 210f 00       		.align	2
 570              	.LC158:
 571 2110 4249474E 		.ascii	"BIGNUM - Bad input parameters to function\000"
 571      554D202D 
 571      20426164 
 571      20696E70 
 571      75742070 
 572 213a 0000     		.align	2
 573              	.LC159:
 574 213c 4249474E 		.ascii	"BIGNUM - There is an invalid character in the digit"
 574      554D202D 
 574      20546865 
 574      72652069 
 574      7320616E 
 575 216f 20737472 		.ascii	" string\000"
 575      696E6700 
 576 2177 00       		.align	2
 577              	.LC160:
 578 2178 4249474E 		.ascii	"BIGNUM - The buffer is too small to write to\000"
 578      554D202D 
 578      20546865 
 578      20627566 
 578      66657220 
 579 21a5 000000   		.align	2
 580              	.LC161:
 581 21a8 4249474E 		.ascii	"BIGNUM - The input arguments are negative or result"
 581      554D202D 
 581      20546865 
 581      20696E70 
 581      75742061 
 582 21db 20696E20 		.ascii	" in illegal output\000"
 582      696C6C65 
 582      67616C20 
ARM GAS  T:\msys\tmp\cceu68zA.s 			page 26


 582      6F757470 
 582      757400
 583 21ee 0000     		.align	2
 584              	.LC162:
 585 21f0 4249474E 		.ascii	"BIGNUM - The input argument for division is zero, w"
 585      554D202D 
 585      20546865 
 585      20696E70 
 585      75742061 
 586 2223 68696368 		.ascii	"hich is not allowed\000"
 586      20697320 
 586      6E6F7420 
 586      616C6C6F 
 586      77656400 
 587 2237 00       		.align	2
 588              	.LC163:
 589 2238 4249474E 		.ascii	"BIGNUM - The input arguments are not acceptable\000"
 589      554D202D 
 589      20546865 
 589      20696E70 
 589      75742061 
 590              		.align	2
 591              	.LC164:
 592 2268 4249474E 		.ascii	"BIGNUM - Memory allocation failed\000"
 592      554D202D 
 592      204D656D 
 592      6F727920 
 592      616C6C6F 
 593 228a 0000     		.align	2
 594              	.LC165:
 595 228c 4354525F 		.ascii	"CTR_DRBG - The entropy source failed\000"
 595      44524247 
 595      202D2054 
 595      68652065 
 595      6E74726F 
 596 22b1 000000   		.align	2
 597              	.LC166:
 598 22b4 4354525F 		.ascii	"CTR_DRBG - The requested random buffer length is to"
 598      44524247 
 598      202D2054 
 598      68652072 
 598      65717565 
 599 22e7 6F206269 		.ascii	"o big\000"
 599      6700
 600 22ed 000000   		.align	2
 601              	.LC167:
 602 22f0 4354525F 		.ascii	"CTR_DRBG - The input (entropy + additional data) is"
 602      44524247 
 602      202D2054 
 602      68652069 
 602      6E707574 
 603 2323 20746F6F 		.ascii	" too large\000"
 603      206C6172 
 603      676500
 604 232e 0000     		.align	2
 605              	.LC168:
 606 2330 4354525F 		.ascii	"CTR_DRBG - Read or write error in file\000"
ARM GAS  T:\msys\tmp\cceu68zA.s 			page 27


 606      44524247 
 606      202D2052 
 606      65616420 
 606      6F722077 
 607 2357 00       		.align	2
 608              	.LC169:
 609 2358 454E5452 		.ascii	"ENTROPY - Critical entropy source failure\000"
 609      4F505920 
 609      2D204372 
 609      69746963 
 609      616C2065 
 610 2382 0000     		.align	2
 611              	.LC170:
 612 2384 454E5452 		.ascii	"ENTROPY - No more sources can be added\000"
 612      4F505920 
 612      2D204E6F 
 612      206D6F72 
 612      6520736F 
 613 23ab 00       		.align	2
 614              	.LC171:
 615 23ac 454E5452 		.ascii	"ENTROPY - No sources have been added to poll\000"
 615      4F505920 
 615      2D204E6F 
 615      20736F75 
 615      72636573 
 616 23d9 000000   		.align	2
 617              	.LC172:
 618 23dc 454E5452 		.ascii	"ENTROPY - No strong sources have been added to poll"
 618      4F505920 
 618      2D204E6F 
 618      20737472 
 618      6F6E6720 
 619 240f 00       		.ascii	"\000"
 620              		.align	2
 621              	.LC173:
 622 2410 454E5452 		.ascii	"ENTROPY - Read/write error in file\000"
 622      4F505920 
 622      2D205265 
 622      61642F77 
 622      72697465 
 623 2433 00       		.align	2
 624              	.LC174:
 625 2434 47434D20 		.ascii	"GCM - Authenticated decryption failed\000"
 625      2D204175 
 625      7468656E 
 625      74696361 
 625      74656420 
 626 245a 0000     		.align	2
 627              	.LC175:
 628 245c 47434D20 		.ascii	"GCM - GCM hardware accelerator failed\000"
 628      2D204743 
 628      4D206861 
 628      72647761 
 628      72652061 
 629 2482 0000     		.align	2
 630              	.LC176:
 631 2484 47434D20 		.ascii	"GCM - Bad input parameters to function\000"
ARM GAS  T:\msys\tmp\cceu68zA.s 			page 28


 631      2D204261 
 631      6420696E 
 631      70757420 
 631      70617261 
 632 24ab 00       		.align	2
 633              	.LC177:
 634 24ac 4F494420 		.ascii	"OID - OID is not found\000"
 634      2D204F49 
 634      44206973 
 634      206E6F74 
 634      20666F75 
 635 24c3 00       		.align	2
 636              	.LC178:
 637 24c4 4F494420 		.ascii	"OID - output buffer is too small\000"
 637      2D206F75 
 637      74707574 
 637      20627566 
 637      66657220 
 638 24e5 000000   		.align	2
 639              	.LC179:
 640 24e8 504C4154 		.ascii	"PLATFORM - Hardware accelerator failed\000"
 640      464F524D 
 640      202D2048 
 640      61726477 
 640      61726520 
 641 250f 00       		.align	2
 642              	.LC180:
 643 2510 504C4154 		.ascii	"PLATFORM - The requested feature is not supported b"
 643      464F524D 
 643      202D2054 
 643      68652072 
 643      65717565 
 644 2543 79207468 		.ascii	"y the platform\000"
 644      6520706C 
 644      6174666F 
 644      726D00
 645 2552 0000     		.align	2
 646              	.LC181:
 647 2554 53484131 		.ascii	"SHA1 - SHA-1 hardware accelerator failed\000"
 647      202D2053 
 647      48412D31 
 647      20686172 
 647      64776172 
 648 257d 000000   		.align	2
 649              	.LC182:
 650 2580 53484131 		.ascii	"SHA1 - SHA-1 input data was malformed\000"
 650      202D2053 
 650      48412D31 
 650      20696E70 
 650      75742064 
 651 25a6 0000     		.align	2
 652              	.LC183:
 653 25a8 53484132 		.ascii	"SHA256 - SHA-256 hardware accelerator failed\000"
 653      3536202D 
 653      20534841 
 653      2D323536 
 653      20686172 
ARM GAS  T:\msys\tmp\cceu68zA.s 			page 29


 654 25d5 000000   		.align	2
 655              	.LC184:
 656 25d8 53484132 		.ascii	"SHA256 - SHA-256 input data was malformed\000"
 656      3536202D 
 656      20534841 
 656      2D323536 
 656      20696E70 
 657              		.section	.text.mbedtls_strerror,"ax",%progbits
 658              		.align	1
 659              		.p2align 2,,3
 660              		.global	mbedtls_strerror
 661              		.arch armv7e-m
 662              		.syntax unified
 663              		.thumb
 664              		.thumb_func
 665              		.fpu fpv4-sp-d16
 667              	mbedtls_strerror:
 668              	.LVL0:
 669              	.LFB18:
 670              		.file 1 "D:/fchai/work/i-cube/I-CUBE-HUAWEI/Middlewares/Third_Party/Huawei/iot_link/network/dtls/m
   1:D:/fchai/work/i-cube/I-CUBE-HUAWEI/Middlewares/Third_Party/Huawei/iot_link/network/dtls/mbedtls/mbedtls-2.16.2/library\error.c **** /*
   2:D:/fchai/work/i-cube/I-CUBE-HUAWEI/Middlewares/Third_Party/Huawei/iot_link/network/dtls/mbedtls/mbedtls-2.16.2/library\error.c ****  *  Error message information
   3:D:/fchai/work/i-cube/I-CUBE-HUAWEI/Middlewares/Third_Party/Huawei/iot_link/network/dtls/mbedtls/mbedtls-2.16.2/library\error.c ****  *
   4:D:/fchai/work/i-cube/I-CUBE-HUAWEI/Middlewares/Third_Party/Huawei/iot_link/network/dtls/mbedtls/mbedtls-2.16.2/library\error.c ****  *  Copyright (C) 2006-2015, ARM Limited, All Rights Reserved
   5:D:/fchai/work/i-cube/I-CUBE-HUAWEI/Middlewares/Third_Party/Huawei/iot_link/network/dtls/mbedtls/mbedtls-2.16.2/library\error.c ****  *  SPDX-License-Identifier: Apache-2.0
   6:D:/fchai/work/i-cube/I-CUBE-HUAWEI/Middlewares/Third_Party/Huawei/iot_link/network/dtls/mbedtls/mbedtls-2.16.2/library\error.c ****  *
   7:D:/fchai/work/i-cube/I-CUBE-HUAWEI/Middlewares/Third_Party/Huawei/iot_link/network/dtls/mbedtls/mbedtls-2.16.2/library\error.c ****  *  Licensed under the Apache License, Version 2.0 (the "License"); you may
   8:D:/fchai/work/i-cube/I-CUBE-HUAWEI/Middlewares/Third_Party/Huawei/iot_link/network/dtls/mbedtls/mbedtls-2.16.2/library\error.c ****  *  not use this file except in compliance with the License.
   9:D:/fchai/work/i-cube/I-CUBE-HUAWEI/Middlewares/Third_Party/Huawei/iot_link/network/dtls/mbedtls/mbedtls-2.16.2/library\error.c ****  *  You may obtain a copy of the License at
  10:D:/fchai/work/i-cube/I-CUBE-HUAWEI/Middlewares/Third_Party/Huawei/iot_link/network/dtls/mbedtls/mbedtls-2.16.2/library\error.c ****  *
  11:D:/fchai/work/i-cube/I-CUBE-HUAWEI/Middlewares/Third_Party/Huawei/iot_link/network/dtls/mbedtls/mbedtls-2.16.2/library\error.c ****  *  http://www.apache.org/licenses/LICENSE-2.0
  12:D:/fchai/work/i-cube/I-CUBE-HUAWEI/Middlewares/Third_Party/Huawei/iot_link/network/dtls/mbedtls/mbedtls-2.16.2/library\error.c ****  *
  13:D:/fchai/work/i-cube/I-CUBE-HUAWEI/Middlewares/Third_Party/Huawei/iot_link/network/dtls/mbedtls/mbedtls-2.16.2/library\error.c ****  *  Unless required by applicable law or agreed to in writing, software
  14:D:/fchai/work/i-cube/I-CUBE-HUAWEI/Middlewares/Third_Party/Huawei/iot_link/network/dtls/mbedtls/mbedtls-2.16.2/library\error.c ****  *  distributed under the License is distributed on an "AS IS" BASIS, WITHOUT
  15:D:/fchai/work/i-cube/I-CUBE-HUAWEI/Middlewares/Third_Party/Huawei/iot_link/network/dtls/mbedtls/mbedtls-2.16.2/library\error.c ****  *  WARRANTIES OR CONDITIONS OF ANY KIND, either express or implied.
  16:D:/fchai/work/i-cube/I-CUBE-HUAWEI/Middlewares/Third_Party/Huawei/iot_link/network/dtls/mbedtls/mbedtls-2.16.2/library\error.c ****  *  See the License for the specific language governing permissions and
  17:D:/fchai/work/i-cube/I-CUBE-HUAWEI/Middlewares/Third_Party/Huawei/iot_link/network/dtls/mbedtls/mbedtls-2.16.2/library\error.c ****  *  limitations under the License.
  18:D:/fchai/work/i-cube/I-CUBE-HUAWEI/Middlewares/Third_Party/Huawei/iot_link/network/dtls/mbedtls/mbedtls-2.16.2/library\error.c ****  *
  19:D:/fchai/work/i-cube/I-CUBE-HUAWEI/Middlewares/Third_Party/Huawei/iot_link/network/dtls/mbedtls/mbedtls-2.16.2/library\error.c ****  *  This file is part of mbed TLS (https://tls.mbed.org)
  20:D:/fchai/work/i-cube/I-CUBE-HUAWEI/Middlewares/Third_Party/Huawei/iot_link/network/dtls/mbedtls/mbedtls-2.16.2/library\error.c ****  */
  21:D:/fchai/work/i-cube/I-CUBE-HUAWEI/Middlewares/Third_Party/Huawei/iot_link/network/dtls/mbedtls/mbedtls-2.16.2/library\error.c **** 
  22:D:/fchai/work/i-cube/I-CUBE-HUAWEI/Middlewares/Third_Party/Huawei/iot_link/network/dtls/mbedtls/mbedtls-2.16.2/library\error.c **** #if !defined(MBEDTLS_CONFIG_FILE)
  23:D:/fchai/work/i-cube/I-CUBE-HUAWEI/Middlewares/Third_Party/Huawei/iot_link/network/dtls/mbedtls/mbedtls-2.16.2/library\error.c **** #include "mbedtls/config.h"
  24:D:/fchai/work/i-cube/I-CUBE-HUAWEI/Middlewares/Third_Party/Huawei/iot_link/network/dtls/mbedtls/mbedtls-2.16.2/library\error.c **** #else
  25:D:/fchai/work/i-cube/I-CUBE-HUAWEI/Middlewares/Third_Party/Huawei/iot_link/network/dtls/mbedtls/mbedtls-2.16.2/library\error.c **** #include MBEDTLS_CONFIG_FILE
  26:D:/fchai/work/i-cube/I-CUBE-HUAWEI/Middlewares/Third_Party/Huawei/iot_link/network/dtls/mbedtls/mbedtls-2.16.2/library\error.c **** #endif
  27:D:/fchai/work/i-cube/I-CUBE-HUAWEI/Middlewares/Third_Party/Huawei/iot_link/network/dtls/mbedtls/mbedtls-2.16.2/library\error.c **** 
  28:D:/fchai/work/i-cube/I-CUBE-HUAWEI/Middlewares/Third_Party/Huawei/iot_link/network/dtls/mbedtls/mbedtls-2.16.2/library\error.c **** #if defined(MBEDTLS_ERROR_C) || defined(MBEDTLS_ERROR_STRERROR_DUMMY)
  29:D:/fchai/work/i-cube/I-CUBE-HUAWEI/Middlewares/Third_Party/Huawei/iot_link/network/dtls/mbedtls/mbedtls-2.16.2/library\error.c **** #include "mbedtls/error.h"
  30:D:/fchai/work/i-cube/I-CUBE-HUAWEI/Middlewares/Third_Party/Huawei/iot_link/network/dtls/mbedtls/mbedtls-2.16.2/library\error.c **** #include <string.h>
  31:D:/fchai/work/i-cube/I-CUBE-HUAWEI/Middlewares/Third_Party/Huawei/iot_link/network/dtls/mbedtls/mbedtls-2.16.2/library\error.c **** #endif
  32:D:/fchai/work/i-cube/I-CUBE-HUAWEI/Middlewares/Third_Party/Huawei/iot_link/network/dtls/mbedtls/mbedtls-2.16.2/library\error.c **** 
  33:D:/fchai/work/i-cube/I-CUBE-HUAWEI/Middlewares/Third_Party/Huawei/iot_link/network/dtls/mbedtls/mbedtls-2.16.2/library\error.c **** #if defined(MBEDTLS_PLATFORM_C)
  34:D:/fchai/work/i-cube/I-CUBE-HUAWEI/Middlewares/Third_Party/Huawei/iot_link/network/dtls/mbedtls/mbedtls-2.16.2/library\error.c **** #include "mbedtls/platform.h"
  35:D:/fchai/work/i-cube/I-CUBE-HUAWEI/Middlewares/Third_Party/Huawei/iot_link/network/dtls/mbedtls/mbedtls-2.16.2/library\error.c **** #else
  36:D:/fchai/work/i-cube/I-CUBE-HUAWEI/Middlewares/Third_Party/Huawei/iot_link/network/dtls/mbedtls/mbedtls-2.16.2/library\error.c **** #define mbedtls_snprintf snprintf
  37:D:/fchai/work/i-cube/I-CUBE-HUAWEI/Middlewares/Third_Party/Huawei/iot_link/network/dtls/mbedtls/mbedtls-2.16.2/library\error.c **** #define mbedtls_time_t   time_t
ARM GAS  T:\msys\tmp\cceu68zA.s 			page 30


  38:D:/fchai/work/i-cube/I-CUBE-HUAWEI/Middlewares/Third_Party/Huawei/iot_link/network/dtls/mbedtls/mbedtls-2.16.2/library\error.c **** #endif
  39:D:/fchai/work/i-cube/I-CUBE-HUAWEI/Middlewares/Third_Party/Huawei/iot_link/network/dtls/mbedtls/mbedtls-2.16.2/library\error.c **** 
  40:D:/fchai/work/i-cube/I-CUBE-HUAWEI/Middlewares/Third_Party/Huawei/iot_link/network/dtls/mbedtls/mbedtls-2.16.2/library\error.c **** #if defined(MBEDTLS_ERROR_C)
  41:D:/fchai/work/i-cube/I-CUBE-HUAWEI/Middlewares/Third_Party/Huawei/iot_link/network/dtls/mbedtls/mbedtls-2.16.2/library\error.c **** 
  42:D:/fchai/work/i-cube/I-CUBE-HUAWEI/Middlewares/Third_Party/Huawei/iot_link/network/dtls/mbedtls/mbedtls-2.16.2/library\error.c **** #include <stdio.h>
  43:D:/fchai/work/i-cube/I-CUBE-HUAWEI/Middlewares/Third_Party/Huawei/iot_link/network/dtls/mbedtls/mbedtls-2.16.2/library\error.c **** 
  44:D:/fchai/work/i-cube/I-CUBE-HUAWEI/Middlewares/Third_Party/Huawei/iot_link/network/dtls/mbedtls/mbedtls-2.16.2/library\error.c **** #if defined(MBEDTLS_AES_C)
  45:D:/fchai/work/i-cube/I-CUBE-HUAWEI/Middlewares/Third_Party/Huawei/iot_link/network/dtls/mbedtls/mbedtls-2.16.2/library\error.c **** #include "mbedtls/aes.h"
  46:D:/fchai/work/i-cube/I-CUBE-HUAWEI/Middlewares/Third_Party/Huawei/iot_link/network/dtls/mbedtls/mbedtls-2.16.2/library\error.c **** #endif
  47:D:/fchai/work/i-cube/I-CUBE-HUAWEI/Middlewares/Third_Party/Huawei/iot_link/network/dtls/mbedtls/mbedtls-2.16.2/library\error.c **** 
  48:D:/fchai/work/i-cube/I-CUBE-HUAWEI/Middlewares/Third_Party/Huawei/iot_link/network/dtls/mbedtls/mbedtls-2.16.2/library\error.c **** #if defined(MBEDTLS_ARC4_C)
  49:D:/fchai/work/i-cube/I-CUBE-HUAWEI/Middlewares/Third_Party/Huawei/iot_link/network/dtls/mbedtls/mbedtls-2.16.2/library\error.c **** #include "mbedtls/arc4.h"
  50:D:/fchai/work/i-cube/I-CUBE-HUAWEI/Middlewares/Third_Party/Huawei/iot_link/network/dtls/mbedtls/mbedtls-2.16.2/library\error.c **** #endif
  51:D:/fchai/work/i-cube/I-CUBE-HUAWEI/Middlewares/Third_Party/Huawei/iot_link/network/dtls/mbedtls/mbedtls-2.16.2/library\error.c **** 
  52:D:/fchai/work/i-cube/I-CUBE-HUAWEI/Middlewares/Third_Party/Huawei/iot_link/network/dtls/mbedtls/mbedtls-2.16.2/library\error.c **** #if defined(MBEDTLS_ARIA_C)
  53:D:/fchai/work/i-cube/I-CUBE-HUAWEI/Middlewares/Third_Party/Huawei/iot_link/network/dtls/mbedtls/mbedtls-2.16.2/library\error.c **** #include "mbedtls/aria.h"
  54:D:/fchai/work/i-cube/I-CUBE-HUAWEI/Middlewares/Third_Party/Huawei/iot_link/network/dtls/mbedtls/mbedtls-2.16.2/library\error.c **** #endif
  55:D:/fchai/work/i-cube/I-CUBE-HUAWEI/Middlewares/Third_Party/Huawei/iot_link/network/dtls/mbedtls/mbedtls-2.16.2/library\error.c **** 
  56:D:/fchai/work/i-cube/I-CUBE-HUAWEI/Middlewares/Third_Party/Huawei/iot_link/network/dtls/mbedtls/mbedtls-2.16.2/library\error.c **** #if defined(MBEDTLS_BASE64_C)
  57:D:/fchai/work/i-cube/I-CUBE-HUAWEI/Middlewares/Third_Party/Huawei/iot_link/network/dtls/mbedtls/mbedtls-2.16.2/library\error.c **** #include "mbedtls/base64.h"
  58:D:/fchai/work/i-cube/I-CUBE-HUAWEI/Middlewares/Third_Party/Huawei/iot_link/network/dtls/mbedtls/mbedtls-2.16.2/library\error.c **** #endif
  59:D:/fchai/work/i-cube/I-CUBE-HUAWEI/Middlewares/Third_Party/Huawei/iot_link/network/dtls/mbedtls/mbedtls-2.16.2/library\error.c **** 
  60:D:/fchai/work/i-cube/I-CUBE-HUAWEI/Middlewares/Third_Party/Huawei/iot_link/network/dtls/mbedtls/mbedtls-2.16.2/library\error.c **** #if defined(MBEDTLS_BIGNUM_C)
  61:D:/fchai/work/i-cube/I-CUBE-HUAWEI/Middlewares/Third_Party/Huawei/iot_link/network/dtls/mbedtls/mbedtls-2.16.2/library\error.c **** #include "mbedtls/bignum.h"
  62:D:/fchai/work/i-cube/I-CUBE-HUAWEI/Middlewares/Third_Party/Huawei/iot_link/network/dtls/mbedtls/mbedtls-2.16.2/library\error.c **** #endif
  63:D:/fchai/work/i-cube/I-CUBE-HUAWEI/Middlewares/Third_Party/Huawei/iot_link/network/dtls/mbedtls/mbedtls-2.16.2/library\error.c **** 
  64:D:/fchai/work/i-cube/I-CUBE-HUAWEI/Middlewares/Third_Party/Huawei/iot_link/network/dtls/mbedtls/mbedtls-2.16.2/library\error.c **** #if defined(MBEDTLS_BLOWFISH_C)
  65:D:/fchai/work/i-cube/I-CUBE-HUAWEI/Middlewares/Third_Party/Huawei/iot_link/network/dtls/mbedtls/mbedtls-2.16.2/library\error.c **** #include "mbedtls/blowfish.h"
  66:D:/fchai/work/i-cube/I-CUBE-HUAWEI/Middlewares/Third_Party/Huawei/iot_link/network/dtls/mbedtls/mbedtls-2.16.2/library\error.c **** #endif
  67:D:/fchai/work/i-cube/I-CUBE-HUAWEI/Middlewares/Third_Party/Huawei/iot_link/network/dtls/mbedtls/mbedtls-2.16.2/library\error.c **** 
  68:D:/fchai/work/i-cube/I-CUBE-HUAWEI/Middlewares/Third_Party/Huawei/iot_link/network/dtls/mbedtls/mbedtls-2.16.2/library\error.c **** #if defined(MBEDTLS_CAMELLIA_C)
  69:D:/fchai/work/i-cube/I-CUBE-HUAWEI/Middlewares/Third_Party/Huawei/iot_link/network/dtls/mbedtls/mbedtls-2.16.2/library\error.c **** #include "mbedtls/camellia.h"
  70:D:/fchai/work/i-cube/I-CUBE-HUAWEI/Middlewares/Third_Party/Huawei/iot_link/network/dtls/mbedtls/mbedtls-2.16.2/library\error.c **** #endif
  71:D:/fchai/work/i-cube/I-CUBE-HUAWEI/Middlewares/Third_Party/Huawei/iot_link/network/dtls/mbedtls/mbedtls-2.16.2/library\error.c **** 
  72:D:/fchai/work/i-cube/I-CUBE-HUAWEI/Middlewares/Third_Party/Huawei/iot_link/network/dtls/mbedtls/mbedtls-2.16.2/library\error.c **** #if defined(MBEDTLS_CCM_C)
  73:D:/fchai/work/i-cube/I-CUBE-HUAWEI/Middlewares/Third_Party/Huawei/iot_link/network/dtls/mbedtls/mbedtls-2.16.2/library\error.c **** #include "mbedtls/ccm.h"
  74:D:/fchai/work/i-cube/I-CUBE-HUAWEI/Middlewares/Third_Party/Huawei/iot_link/network/dtls/mbedtls/mbedtls-2.16.2/library\error.c **** #endif
  75:D:/fchai/work/i-cube/I-CUBE-HUAWEI/Middlewares/Third_Party/Huawei/iot_link/network/dtls/mbedtls/mbedtls-2.16.2/library\error.c **** 
  76:D:/fchai/work/i-cube/I-CUBE-HUAWEI/Middlewares/Third_Party/Huawei/iot_link/network/dtls/mbedtls/mbedtls-2.16.2/library\error.c **** #if defined(MBEDTLS_CHACHA20_C)
  77:D:/fchai/work/i-cube/I-CUBE-HUAWEI/Middlewares/Third_Party/Huawei/iot_link/network/dtls/mbedtls/mbedtls-2.16.2/library\error.c **** #include "mbedtls/chacha20.h"
  78:D:/fchai/work/i-cube/I-CUBE-HUAWEI/Middlewares/Third_Party/Huawei/iot_link/network/dtls/mbedtls/mbedtls-2.16.2/library\error.c **** #endif
  79:D:/fchai/work/i-cube/I-CUBE-HUAWEI/Middlewares/Third_Party/Huawei/iot_link/network/dtls/mbedtls/mbedtls-2.16.2/library\error.c **** 
  80:D:/fchai/work/i-cube/I-CUBE-HUAWEI/Middlewares/Third_Party/Huawei/iot_link/network/dtls/mbedtls/mbedtls-2.16.2/library\error.c **** #if defined(MBEDTLS_CHACHAPOLY_C)
  81:D:/fchai/work/i-cube/I-CUBE-HUAWEI/Middlewares/Third_Party/Huawei/iot_link/network/dtls/mbedtls/mbedtls-2.16.2/library\error.c **** #include "mbedtls/chachapoly.h"
  82:D:/fchai/work/i-cube/I-CUBE-HUAWEI/Middlewares/Third_Party/Huawei/iot_link/network/dtls/mbedtls/mbedtls-2.16.2/library\error.c **** #endif
  83:D:/fchai/work/i-cube/I-CUBE-HUAWEI/Middlewares/Third_Party/Huawei/iot_link/network/dtls/mbedtls/mbedtls-2.16.2/library\error.c **** 
  84:D:/fchai/work/i-cube/I-CUBE-HUAWEI/Middlewares/Third_Party/Huawei/iot_link/network/dtls/mbedtls/mbedtls-2.16.2/library\error.c **** #if defined(MBEDTLS_CIPHER_C)
  85:D:/fchai/work/i-cube/I-CUBE-HUAWEI/Middlewares/Third_Party/Huawei/iot_link/network/dtls/mbedtls/mbedtls-2.16.2/library\error.c **** #include "mbedtls/cipher.h"
  86:D:/fchai/work/i-cube/I-CUBE-HUAWEI/Middlewares/Third_Party/Huawei/iot_link/network/dtls/mbedtls/mbedtls-2.16.2/library\error.c **** #endif
  87:D:/fchai/work/i-cube/I-CUBE-HUAWEI/Middlewares/Third_Party/Huawei/iot_link/network/dtls/mbedtls/mbedtls-2.16.2/library\error.c **** 
  88:D:/fchai/work/i-cube/I-CUBE-HUAWEI/Middlewares/Third_Party/Huawei/iot_link/network/dtls/mbedtls/mbedtls-2.16.2/library\error.c **** #if defined(MBEDTLS_CMAC_C)
  89:D:/fchai/work/i-cube/I-CUBE-HUAWEI/Middlewares/Third_Party/Huawei/iot_link/network/dtls/mbedtls/mbedtls-2.16.2/library\error.c **** #include "mbedtls/cmac.h"
  90:D:/fchai/work/i-cube/I-CUBE-HUAWEI/Middlewares/Third_Party/Huawei/iot_link/network/dtls/mbedtls/mbedtls-2.16.2/library\error.c **** #endif
  91:D:/fchai/work/i-cube/I-CUBE-HUAWEI/Middlewares/Third_Party/Huawei/iot_link/network/dtls/mbedtls/mbedtls-2.16.2/library\error.c **** 
  92:D:/fchai/work/i-cube/I-CUBE-HUAWEI/Middlewares/Third_Party/Huawei/iot_link/network/dtls/mbedtls/mbedtls-2.16.2/library\error.c **** #if defined(MBEDTLS_CTR_DRBG_C)
  93:D:/fchai/work/i-cube/I-CUBE-HUAWEI/Middlewares/Third_Party/Huawei/iot_link/network/dtls/mbedtls/mbedtls-2.16.2/library\error.c **** #include "mbedtls/ctr_drbg.h"
  94:D:/fchai/work/i-cube/I-CUBE-HUAWEI/Middlewares/Third_Party/Huawei/iot_link/network/dtls/mbedtls/mbedtls-2.16.2/library\error.c **** #endif
ARM GAS  T:\msys\tmp\cceu68zA.s 			page 31


  95:D:/fchai/work/i-cube/I-CUBE-HUAWEI/Middlewares/Third_Party/Huawei/iot_link/network/dtls/mbedtls/mbedtls-2.16.2/library\error.c **** 
  96:D:/fchai/work/i-cube/I-CUBE-HUAWEI/Middlewares/Third_Party/Huawei/iot_link/network/dtls/mbedtls/mbedtls-2.16.2/library\error.c **** #if defined(MBEDTLS_DES_C)
  97:D:/fchai/work/i-cube/I-CUBE-HUAWEI/Middlewares/Third_Party/Huawei/iot_link/network/dtls/mbedtls/mbedtls-2.16.2/library\error.c **** #include "mbedtls/des.h"
  98:D:/fchai/work/i-cube/I-CUBE-HUAWEI/Middlewares/Third_Party/Huawei/iot_link/network/dtls/mbedtls/mbedtls-2.16.2/library\error.c **** #endif
  99:D:/fchai/work/i-cube/I-CUBE-HUAWEI/Middlewares/Third_Party/Huawei/iot_link/network/dtls/mbedtls/mbedtls-2.16.2/library\error.c **** 
 100:D:/fchai/work/i-cube/I-CUBE-HUAWEI/Middlewares/Third_Party/Huawei/iot_link/network/dtls/mbedtls/mbedtls-2.16.2/library\error.c **** #if defined(MBEDTLS_DHM_C)
 101:D:/fchai/work/i-cube/I-CUBE-HUAWEI/Middlewares/Third_Party/Huawei/iot_link/network/dtls/mbedtls/mbedtls-2.16.2/library\error.c **** #include "mbedtls/dhm.h"
 102:D:/fchai/work/i-cube/I-CUBE-HUAWEI/Middlewares/Third_Party/Huawei/iot_link/network/dtls/mbedtls/mbedtls-2.16.2/library\error.c **** #endif
 103:D:/fchai/work/i-cube/I-CUBE-HUAWEI/Middlewares/Third_Party/Huawei/iot_link/network/dtls/mbedtls/mbedtls-2.16.2/library\error.c **** 
 104:D:/fchai/work/i-cube/I-CUBE-HUAWEI/Middlewares/Third_Party/Huawei/iot_link/network/dtls/mbedtls/mbedtls-2.16.2/library\error.c **** #if defined(MBEDTLS_ECP_C)
 105:D:/fchai/work/i-cube/I-CUBE-HUAWEI/Middlewares/Third_Party/Huawei/iot_link/network/dtls/mbedtls/mbedtls-2.16.2/library\error.c **** #include "mbedtls/ecp.h"
 106:D:/fchai/work/i-cube/I-CUBE-HUAWEI/Middlewares/Third_Party/Huawei/iot_link/network/dtls/mbedtls/mbedtls-2.16.2/library\error.c **** #endif
 107:D:/fchai/work/i-cube/I-CUBE-HUAWEI/Middlewares/Third_Party/Huawei/iot_link/network/dtls/mbedtls/mbedtls-2.16.2/library\error.c **** 
 108:D:/fchai/work/i-cube/I-CUBE-HUAWEI/Middlewares/Third_Party/Huawei/iot_link/network/dtls/mbedtls/mbedtls-2.16.2/library\error.c **** #if defined(MBEDTLS_ENTROPY_C)
 109:D:/fchai/work/i-cube/I-CUBE-HUAWEI/Middlewares/Third_Party/Huawei/iot_link/network/dtls/mbedtls/mbedtls-2.16.2/library\error.c **** #include "mbedtls/entropy.h"
 110:D:/fchai/work/i-cube/I-CUBE-HUAWEI/Middlewares/Third_Party/Huawei/iot_link/network/dtls/mbedtls/mbedtls-2.16.2/library\error.c **** #endif
 111:D:/fchai/work/i-cube/I-CUBE-HUAWEI/Middlewares/Third_Party/Huawei/iot_link/network/dtls/mbedtls/mbedtls-2.16.2/library\error.c **** 
 112:D:/fchai/work/i-cube/I-CUBE-HUAWEI/Middlewares/Third_Party/Huawei/iot_link/network/dtls/mbedtls/mbedtls-2.16.2/library\error.c **** #if defined(MBEDTLS_GCM_C)
 113:D:/fchai/work/i-cube/I-CUBE-HUAWEI/Middlewares/Third_Party/Huawei/iot_link/network/dtls/mbedtls/mbedtls-2.16.2/library\error.c **** #include "mbedtls/gcm.h"
 114:D:/fchai/work/i-cube/I-CUBE-HUAWEI/Middlewares/Third_Party/Huawei/iot_link/network/dtls/mbedtls/mbedtls-2.16.2/library\error.c **** #endif
 115:D:/fchai/work/i-cube/I-CUBE-HUAWEI/Middlewares/Third_Party/Huawei/iot_link/network/dtls/mbedtls/mbedtls-2.16.2/library\error.c **** 
 116:D:/fchai/work/i-cube/I-CUBE-HUAWEI/Middlewares/Third_Party/Huawei/iot_link/network/dtls/mbedtls/mbedtls-2.16.2/library\error.c **** #if defined(MBEDTLS_HKDF_C)
 117:D:/fchai/work/i-cube/I-CUBE-HUAWEI/Middlewares/Third_Party/Huawei/iot_link/network/dtls/mbedtls/mbedtls-2.16.2/library\error.c **** #include "mbedtls/hkdf.h"
 118:D:/fchai/work/i-cube/I-CUBE-HUAWEI/Middlewares/Third_Party/Huawei/iot_link/network/dtls/mbedtls/mbedtls-2.16.2/library\error.c **** #endif
 119:D:/fchai/work/i-cube/I-CUBE-HUAWEI/Middlewares/Third_Party/Huawei/iot_link/network/dtls/mbedtls/mbedtls-2.16.2/library\error.c **** 
 120:D:/fchai/work/i-cube/I-CUBE-HUAWEI/Middlewares/Third_Party/Huawei/iot_link/network/dtls/mbedtls/mbedtls-2.16.2/library\error.c **** #if defined(MBEDTLS_HMAC_DRBG_C)
 121:D:/fchai/work/i-cube/I-CUBE-HUAWEI/Middlewares/Third_Party/Huawei/iot_link/network/dtls/mbedtls/mbedtls-2.16.2/library\error.c **** #include "mbedtls/hmac_drbg.h"
 122:D:/fchai/work/i-cube/I-CUBE-HUAWEI/Middlewares/Third_Party/Huawei/iot_link/network/dtls/mbedtls/mbedtls-2.16.2/library\error.c **** #endif
 123:D:/fchai/work/i-cube/I-CUBE-HUAWEI/Middlewares/Third_Party/Huawei/iot_link/network/dtls/mbedtls/mbedtls-2.16.2/library\error.c **** 
 124:D:/fchai/work/i-cube/I-CUBE-HUAWEI/Middlewares/Third_Party/Huawei/iot_link/network/dtls/mbedtls/mbedtls-2.16.2/library\error.c **** #if defined(MBEDTLS_MD_C)
 125:D:/fchai/work/i-cube/I-CUBE-HUAWEI/Middlewares/Third_Party/Huawei/iot_link/network/dtls/mbedtls/mbedtls-2.16.2/library\error.c **** #include "mbedtls/md.h"
 126:D:/fchai/work/i-cube/I-CUBE-HUAWEI/Middlewares/Third_Party/Huawei/iot_link/network/dtls/mbedtls/mbedtls-2.16.2/library\error.c **** #endif
 127:D:/fchai/work/i-cube/I-CUBE-HUAWEI/Middlewares/Third_Party/Huawei/iot_link/network/dtls/mbedtls/mbedtls-2.16.2/library\error.c **** 
 128:D:/fchai/work/i-cube/I-CUBE-HUAWEI/Middlewares/Third_Party/Huawei/iot_link/network/dtls/mbedtls/mbedtls-2.16.2/library\error.c **** #if defined(MBEDTLS_MD2_C)
 129:D:/fchai/work/i-cube/I-CUBE-HUAWEI/Middlewares/Third_Party/Huawei/iot_link/network/dtls/mbedtls/mbedtls-2.16.2/library\error.c **** #include "mbedtls/md2.h"
 130:D:/fchai/work/i-cube/I-CUBE-HUAWEI/Middlewares/Third_Party/Huawei/iot_link/network/dtls/mbedtls/mbedtls-2.16.2/library\error.c **** #endif
 131:D:/fchai/work/i-cube/I-CUBE-HUAWEI/Middlewares/Third_Party/Huawei/iot_link/network/dtls/mbedtls/mbedtls-2.16.2/library\error.c **** 
 132:D:/fchai/work/i-cube/I-CUBE-HUAWEI/Middlewares/Third_Party/Huawei/iot_link/network/dtls/mbedtls/mbedtls-2.16.2/library\error.c **** #if defined(MBEDTLS_MD4_C)
 133:D:/fchai/work/i-cube/I-CUBE-HUAWEI/Middlewares/Third_Party/Huawei/iot_link/network/dtls/mbedtls/mbedtls-2.16.2/library\error.c **** #include "mbedtls/md4.h"
 134:D:/fchai/work/i-cube/I-CUBE-HUAWEI/Middlewares/Third_Party/Huawei/iot_link/network/dtls/mbedtls/mbedtls-2.16.2/library\error.c **** #endif
 135:D:/fchai/work/i-cube/I-CUBE-HUAWEI/Middlewares/Third_Party/Huawei/iot_link/network/dtls/mbedtls/mbedtls-2.16.2/library\error.c **** 
 136:D:/fchai/work/i-cube/I-CUBE-HUAWEI/Middlewares/Third_Party/Huawei/iot_link/network/dtls/mbedtls/mbedtls-2.16.2/library\error.c **** #if defined(MBEDTLS_MD5_C)
 137:D:/fchai/work/i-cube/I-CUBE-HUAWEI/Middlewares/Third_Party/Huawei/iot_link/network/dtls/mbedtls/mbedtls-2.16.2/library\error.c **** #include "mbedtls/md5.h"
 138:D:/fchai/work/i-cube/I-CUBE-HUAWEI/Middlewares/Third_Party/Huawei/iot_link/network/dtls/mbedtls/mbedtls-2.16.2/library\error.c **** #endif
 139:D:/fchai/work/i-cube/I-CUBE-HUAWEI/Middlewares/Third_Party/Huawei/iot_link/network/dtls/mbedtls/mbedtls-2.16.2/library\error.c **** 
 140:D:/fchai/work/i-cube/I-CUBE-HUAWEI/Middlewares/Third_Party/Huawei/iot_link/network/dtls/mbedtls/mbedtls-2.16.2/library\error.c **** #if defined(MBEDTLS_NET_C)
 141:D:/fchai/work/i-cube/I-CUBE-HUAWEI/Middlewares/Third_Party/Huawei/iot_link/network/dtls/mbedtls/mbedtls-2.16.2/library\error.c **** #include "mbedtls/net_sockets.h"
 142:D:/fchai/work/i-cube/I-CUBE-HUAWEI/Middlewares/Third_Party/Huawei/iot_link/network/dtls/mbedtls/mbedtls-2.16.2/library\error.c **** #endif
 143:D:/fchai/work/i-cube/I-CUBE-HUAWEI/Middlewares/Third_Party/Huawei/iot_link/network/dtls/mbedtls/mbedtls-2.16.2/library\error.c **** 
 144:D:/fchai/work/i-cube/I-CUBE-HUAWEI/Middlewares/Third_Party/Huawei/iot_link/network/dtls/mbedtls/mbedtls-2.16.2/library\error.c **** #if defined(MBEDTLS_OID_C)
 145:D:/fchai/work/i-cube/I-CUBE-HUAWEI/Middlewares/Third_Party/Huawei/iot_link/network/dtls/mbedtls/mbedtls-2.16.2/library\error.c **** #include "mbedtls/oid.h"
 146:D:/fchai/work/i-cube/I-CUBE-HUAWEI/Middlewares/Third_Party/Huawei/iot_link/network/dtls/mbedtls/mbedtls-2.16.2/library\error.c **** #endif
 147:D:/fchai/work/i-cube/I-CUBE-HUAWEI/Middlewares/Third_Party/Huawei/iot_link/network/dtls/mbedtls/mbedtls-2.16.2/library\error.c **** 
 148:D:/fchai/work/i-cube/I-CUBE-HUAWEI/Middlewares/Third_Party/Huawei/iot_link/network/dtls/mbedtls/mbedtls-2.16.2/library\error.c **** #if defined(MBEDTLS_PADLOCK_C)
 149:D:/fchai/work/i-cube/I-CUBE-HUAWEI/Middlewares/Third_Party/Huawei/iot_link/network/dtls/mbedtls/mbedtls-2.16.2/library\error.c **** #include "mbedtls/padlock.h"
 150:D:/fchai/work/i-cube/I-CUBE-HUAWEI/Middlewares/Third_Party/Huawei/iot_link/network/dtls/mbedtls/mbedtls-2.16.2/library\error.c **** #endif
 151:D:/fchai/work/i-cube/I-CUBE-HUAWEI/Middlewares/Third_Party/Huawei/iot_link/network/dtls/mbedtls/mbedtls-2.16.2/library\error.c **** 
ARM GAS  T:\msys\tmp\cceu68zA.s 			page 32


 152:D:/fchai/work/i-cube/I-CUBE-HUAWEI/Middlewares/Third_Party/Huawei/iot_link/network/dtls/mbedtls/mbedtls-2.16.2/library\error.c **** #if defined(MBEDTLS_PEM_PARSE_C) || defined(MBEDTLS_PEM_WRITE_C)
 153:D:/fchai/work/i-cube/I-CUBE-HUAWEI/Middlewares/Third_Party/Huawei/iot_link/network/dtls/mbedtls/mbedtls-2.16.2/library\error.c **** #include "mbedtls/pem.h"
 154:D:/fchai/work/i-cube/I-CUBE-HUAWEI/Middlewares/Third_Party/Huawei/iot_link/network/dtls/mbedtls/mbedtls-2.16.2/library\error.c **** #endif
 155:D:/fchai/work/i-cube/I-CUBE-HUAWEI/Middlewares/Third_Party/Huawei/iot_link/network/dtls/mbedtls/mbedtls-2.16.2/library\error.c **** 
 156:D:/fchai/work/i-cube/I-CUBE-HUAWEI/Middlewares/Third_Party/Huawei/iot_link/network/dtls/mbedtls/mbedtls-2.16.2/library\error.c **** #if defined(MBEDTLS_PK_C)
 157:D:/fchai/work/i-cube/I-CUBE-HUAWEI/Middlewares/Third_Party/Huawei/iot_link/network/dtls/mbedtls/mbedtls-2.16.2/library\error.c **** #include "mbedtls/pk.h"
 158:D:/fchai/work/i-cube/I-CUBE-HUAWEI/Middlewares/Third_Party/Huawei/iot_link/network/dtls/mbedtls/mbedtls-2.16.2/library\error.c **** #endif
 159:D:/fchai/work/i-cube/I-CUBE-HUAWEI/Middlewares/Third_Party/Huawei/iot_link/network/dtls/mbedtls/mbedtls-2.16.2/library\error.c **** 
 160:D:/fchai/work/i-cube/I-CUBE-HUAWEI/Middlewares/Third_Party/Huawei/iot_link/network/dtls/mbedtls/mbedtls-2.16.2/library\error.c **** #if defined(MBEDTLS_PKCS12_C)
 161:D:/fchai/work/i-cube/I-CUBE-HUAWEI/Middlewares/Third_Party/Huawei/iot_link/network/dtls/mbedtls/mbedtls-2.16.2/library\error.c **** #include "mbedtls/pkcs12.h"
 162:D:/fchai/work/i-cube/I-CUBE-HUAWEI/Middlewares/Third_Party/Huawei/iot_link/network/dtls/mbedtls/mbedtls-2.16.2/library\error.c **** #endif
 163:D:/fchai/work/i-cube/I-CUBE-HUAWEI/Middlewares/Third_Party/Huawei/iot_link/network/dtls/mbedtls/mbedtls-2.16.2/library\error.c **** 
 164:D:/fchai/work/i-cube/I-CUBE-HUAWEI/Middlewares/Third_Party/Huawei/iot_link/network/dtls/mbedtls/mbedtls-2.16.2/library\error.c **** #if defined(MBEDTLS_PKCS5_C)
 165:D:/fchai/work/i-cube/I-CUBE-HUAWEI/Middlewares/Third_Party/Huawei/iot_link/network/dtls/mbedtls/mbedtls-2.16.2/library\error.c **** #include "mbedtls/pkcs5.h"
 166:D:/fchai/work/i-cube/I-CUBE-HUAWEI/Middlewares/Third_Party/Huawei/iot_link/network/dtls/mbedtls/mbedtls-2.16.2/library\error.c **** #endif
 167:D:/fchai/work/i-cube/I-CUBE-HUAWEI/Middlewares/Third_Party/Huawei/iot_link/network/dtls/mbedtls/mbedtls-2.16.2/library\error.c **** 
 168:D:/fchai/work/i-cube/I-CUBE-HUAWEI/Middlewares/Third_Party/Huawei/iot_link/network/dtls/mbedtls/mbedtls-2.16.2/library\error.c **** #if defined(MBEDTLS_PLATFORM_C)
 169:D:/fchai/work/i-cube/I-CUBE-HUAWEI/Middlewares/Third_Party/Huawei/iot_link/network/dtls/mbedtls/mbedtls-2.16.2/library\error.c **** #include "mbedtls/platform.h"
 170:D:/fchai/work/i-cube/I-CUBE-HUAWEI/Middlewares/Third_Party/Huawei/iot_link/network/dtls/mbedtls/mbedtls-2.16.2/library\error.c **** #endif
 171:D:/fchai/work/i-cube/I-CUBE-HUAWEI/Middlewares/Third_Party/Huawei/iot_link/network/dtls/mbedtls/mbedtls-2.16.2/library\error.c **** 
 172:D:/fchai/work/i-cube/I-CUBE-HUAWEI/Middlewares/Third_Party/Huawei/iot_link/network/dtls/mbedtls/mbedtls-2.16.2/library\error.c **** #if defined(MBEDTLS_POLY1305_C)
 173:D:/fchai/work/i-cube/I-CUBE-HUAWEI/Middlewares/Third_Party/Huawei/iot_link/network/dtls/mbedtls/mbedtls-2.16.2/library\error.c **** #include "mbedtls/poly1305.h"
 174:D:/fchai/work/i-cube/I-CUBE-HUAWEI/Middlewares/Third_Party/Huawei/iot_link/network/dtls/mbedtls/mbedtls-2.16.2/library\error.c **** #endif
 175:D:/fchai/work/i-cube/I-CUBE-HUAWEI/Middlewares/Third_Party/Huawei/iot_link/network/dtls/mbedtls/mbedtls-2.16.2/library\error.c **** 
 176:D:/fchai/work/i-cube/I-CUBE-HUAWEI/Middlewares/Third_Party/Huawei/iot_link/network/dtls/mbedtls/mbedtls-2.16.2/library\error.c **** #if defined(MBEDTLS_RIPEMD160_C)
 177:D:/fchai/work/i-cube/I-CUBE-HUAWEI/Middlewares/Third_Party/Huawei/iot_link/network/dtls/mbedtls/mbedtls-2.16.2/library\error.c **** #include "mbedtls/ripemd160.h"
 178:D:/fchai/work/i-cube/I-CUBE-HUAWEI/Middlewares/Third_Party/Huawei/iot_link/network/dtls/mbedtls/mbedtls-2.16.2/library\error.c **** #endif
 179:D:/fchai/work/i-cube/I-CUBE-HUAWEI/Middlewares/Third_Party/Huawei/iot_link/network/dtls/mbedtls/mbedtls-2.16.2/library\error.c **** 
 180:D:/fchai/work/i-cube/I-CUBE-HUAWEI/Middlewares/Third_Party/Huawei/iot_link/network/dtls/mbedtls/mbedtls-2.16.2/library\error.c **** #if defined(MBEDTLS_RSA_C)
 181:D:/fchai/work/i-cube/I-CUBE-HUAWEI/Middlewares/Third_Party/Huawei/iot_link/network/dtls/mbedtls/mbedtls-2.16.2/library\error.c **** #include "mbedtls/rsa.h"
 182:D:/fchai/work/i-cube/I-CUBE-HUAWEI/Middlewares/Third_Party/Huawei/iot_link/network/dtls/mbedtls/mbedtls-2.16.2/library\error.c **** #endif
 183:D:/fchai/work/i-cube/I-CUBE-HUAWEI/Middlewares/Third_Party/Huawei/iot_link/network/dtls/mbedtls/mbedtls-2.16.2/library\error.c **** 
 184:D:/fchai/work/i-cube/I-CUBE-HUAWEI/Middlewares/Third_Party/Huawei/iot_link/network/dtls/mbedtls/mbedtls-2.16.2/library\error.c **** #if defined(MBEDTLS_SHA1_C)
 185:D:/fchai/work/i-cube/I-CUBE-HUAWEI/Middlewares/Third_Party/Huawei/iot_link/network/dtls/mbedtls/mbedtls-2.16.2/library\error.c **** #include "mbedtls/sha1.h"
 186:D:/fchai/work/i-cube/I-CUBE-HUAWEI/Middlewares/Third_Party/Huawei/iot_link/network/dtls/mbedtls/mbedtls-2.16.2/library\error.c **** #endif
 187:D:/fchai/work/i-cube/I-CUBE-HUAWEI/Middlewares/Third_Party/Huawei/iot_link/network/dtls/mbedtls/mbedtls-2.16.2/library\error.c **** 
 188:D:/fchai/work/i-cube/I-CUBE-HUAWEI/Middlewares/Third_Party/Huawei/iot_link/network/dtls/mbedtls/mbedtls-2.16.2/library\error.c **** #if defined(MBEDTLS_SHA256_C)
 189:D:/fchai/work/i-cube/I-CUBE-HUAWEI/Middlewares/Third_Party/Huawei/iot_link/network/dtls/mbedtls/mbedtls-2.16.2/library\error.c **** #include "mbedtls/sha256.h"
 190:D:/fchai/work/i-cube/I-CUBE-HUAWEI/Middlewares/Third_Party/Huawei/iot_link/network/dtls/mbedtls/mbedtls-2.16.2/library\error.c **** #endif
 191:D:/fchai/work/i-cube/I-CUBE-HUAWEI/Middlewares/Third_Party/Huawei/iot_link/network/dtls/mbedtls/mbedtls-2.16.2/library\error.c **** 
 192:D:/fchai/work/i-cube/I-CUBE-HUAWEI/Middlewares/Third_Party/Huawei/iot_link/network/dtls/mbedtls/mbedtls-2.16.2/library\error.c **** #if defined(MBEDTLS_SHA512_C)
 193:D:/fchai/work/i-cube/I-CUBE-HUAWEI/Middlewares/Third_Party/Huawei/iot_link/network/dtls/mbedtls/mbedtls-2.16.2/library\error.c **** #include "mbedtls/sha512.h"
 194:D:/fchai/work/i-cube/I-CUBE-HUAWEI/Middlewares/Third_Party/Huawei/iot_link/network/dtls/mbedtls/mbedtls-2.16.2/library\error.c **** #endif
 195:D:/fchai/work/i-cube/I-CUBE-HUAWEI/Middlewares/Third_Party/Huawei/iot_link/network/dtls/mbedtls/mbedtls-2.16.2/library\error.c **** 
 196:D:/fchai/work/i-cube/I-CUBE-HUAWEI/Middlewares/Third_Party/Huawei/iot_link/network/dtls/mbedtls/mbedtls-2.16.2/library\error.c **** #if defined(MBEDTLS_SSL_TLS_C)
 197:D:/fchai/work/i-cube/I-CUBE-HUAWEI/Middlewares/Third_Party/Huawei/iot_link/network/dtls/mbedtls/mbedtls-2.16.2/library\error.c **** #include "mbedtls/ssl.h"
 198:D:/fchai/work/i-cube/I-CUBE-HUAWEI/Middlewares/Third_Party/Huawei/iot_link/network/dtls/mbedtls/mbedtls-2.16.2/library\error.c **** #endif
 199:D:/fchai/work/i-cube/I-CUBE-HUAWEI/Middlewares/Third_Party/Huawei/iot_link/network/dtls/mbedtls/mbedtls-2.16.2/library\error.c **** 
 200:D:/fchai/work/i-cube/I-CUBE-HUAWEI/Middlewares/Third_Party/Huawei/iot_link/network/dtls/mbedtls/mbedtls-2.16.2/library\error.c **** #if defined(MBEDTLS_THREADING_C)
 201:D:/fchai/work/i-cube/I-CUBE-HUAWEI/Middlewares/Third_Party/Huawei/iot_link/network/dtls/mbedtls/mbedtls-2.16.2/library\error.c **** #include "mbedtls/threading.h"
 202:D:/fchai/work/i-cube/I-CUBE-HUAWEI/Middlewares/Third_Party/Huawei/iot_link/network/dtls/mbedtls/mbedtls-2.16.2/library\error.c **** #endif
 203:D:/fchai/work/i-cube/I-CUBE-HUAWEI/Middlewares/Third_Party/Huawei/iot_link/network/dtls/mbedtls/mbedtls-2.16.2/library\error.c **** 
 204:D:/fchai/work/i-cube/I-CUBE-HUAWEI/Middlewares/Third_Party/Huawei/iot_link/network/dtls/mbedtls/mbedtls-2.16.2/library\error.c **** #if defined(MBEDTLS_X509_USE_C) || defined(MBEDTLS_X509_CREATE_C)
 205:D:/fchai/work/i-cube/I-CUBE-HUAWEI/Middlewares/Third_Party/Huawei/iot_link/network/dtls/mbedtls/mbedtls-2.16.2/library\error.c **** #include "mbedtls/x509.h"
 206:D:/fchai/work/i-cube/I-CUBE-HUAWEI/Middlewares/Third_Party/Huawei/iot_link/network/dtls/mbedtls/mbedtls-2.16.2/library\error.c **** #endif
 207:D:/fchai/work/i-cube/I-CUBE-HUAWEI/Middlewares/Third_Party/Huawei/iot_link/network/dtls/mbedtls/mbedtls-2.16.2/library\error.c **** 
 208:D:/fchai/work/i-cube/I-CUBE-HUAWEI/Middlewares/Third_Party/Huawei/iot_link/network/dtls/mbedtls/mbedtls-2.16.2/library\error.c **** #if defined(MBEDTLS_XTEA_C)
ARM GAS  T:\msys\tmp\cceu68zA.s 			page 33


 209:D:/fchai/work/i-cube/I-CUBE-HUAWEI/Middlewares/Third_Party/Huawei/iot_link/network/dtls/mbedtls/mbedtls-2.16.2/library\error.c **** #include "mbedtls/xtea.h"
 210:D:/fchai/work/i-cube/I-CUBE-HUAWEI/Middlewares/Third_Party/Huawei/iot_link/network/dtls/mbedtls/mbedtls-2.16.2/library\error.c **** #endif
 211:D:/fchai/work/i-cube/I-CUBE-HUAWEI/Middlewares/Third_Party/Huawei/iot_link/network/dtls/mbedtls/mbedtls-2.16.2/library\error.c **** 
 212:D:/fchai/work/i-cube/I-CUBE-HUAWEI/Middlewares/Third_Party/Huawei/iot_link/network/dtls/mbedtls/mbedtls-2.16.2/library\error.c **** 
 213:D:/fchai/work/i-cube/I-CUBE-HUAWEI/Middlewares/Third_Party/Huawei/iot_link/network/dtls/mbedtls/mbedtls-2.16.2/library\error.c **** void mbedtls_strerror( int ret, char *buf, size_t buflen )
 214:D:/fchai/work/i-cube/I-CUBE-HUAWEI/Middlewares/Third_Party/Huawei/iot_link/network/dtls/mbedtls/mbedtls-2.16.2/library\error.c **** {
 671              		.loc 1 214 1 view -0
 672              		.cfi_startproc
 673              		@ args = 0, pretend = 0, frame = 0
 674              		@ frame_needed = 0, uses_anonymous_args = 0
 215:D:/fchai/work/i-cube/I-CUBE-HUAWEI/Middlewares/Third_Party/Huawei/iot_link/network/dtls/mbedtls/mbedtls-2.16.2/library\error.c ****     size_t len;
 675              		.loc 1 215 5 view .LVU1
 216:D:/fchai/work/i-cube/I-CUBE-HUAWEI/Middlewares/Third_Party/Huawei/iot_link/network/dtls/mbedtls/mbedtls-2.16.2/library\error.c ****     int use_ret;
 676              		.loc 1 216 5 view .LVU2
 217:D:/fchai/work/i-cube/I-CUBE-HUAWEI/Middlewares/Third_Party/Huawei/iot_link/network/dtls/mbedtls/mbedtls-2.16.2/library\error.c **** 
 218:D:/fchai/work/i-cube/I-CUBE-HUAWEI/Middlewares/Third_Party/Huawei/iot_link/network/dtls/mbedtls/mbedtls-2.16.2/library\error.c ****     if( buflen == 0 )
 677              		.loc 1 218 5 view .LVU3
 678              		.loc 1 218 7 is_stmt 0 view .LVU4
 679 0000 02B9     		cbnz	r2, .L203
 680 0002 7047     		bx	lr
 681              	.L203:
 219:D:/fchai/work/i-cube/I-CUBE-HUAWEI/Middlewares/Third_Party/Huawei/iot_link/network/dtls/mbedtls/mbedtls-2.16.2/library\error.c ****         return;
 220:D:/fchai/work/i-cube/I-CUBE-HUAWEI/Middlewares/Third_Party/Huawei/iot_link/network/dtls/mbedtls/mbedtls-2.16.2/library\error.c **** 
 221:D:/fchai/work/i-cube/I-CUBE-HUAWEI/Middlewares/Third_Party/Huawei/iot_link/network/dtls/mbedtls/mbedtls-2.16.2/library\error.c ****     memset( buf, 0x00, buflen );
 682              		.loc 1 221 5 is_stmt 1 view .LVU5
 683 0004 0346     		mov	r3, r0
 214:D:/fchai/work/i-cube/I-CUBE-HUAWEI/Middlewares/Third_Party/Huawei/iot_link/network/dtls/mbedtls/mbedtls-2.16.2/library\error.c ****     size_t len;
 684              		.loc 1 214 1 is_stmt 0 view .LVU6
 685 0006 2DE9F041 		push	{r4, r5, r6, r7, r8, lr}
 686              	.LCFI0:
 687              		.cfi_def_cfa_offset 24
 688              		.cfi_offset 4, -24
 689              		.cfi_offset 5, -20
 690              		.cfi_offset 6, -16
 691              		.cfi_offset 7, -12
 692              		.cfi_offset 8, -8
 693              		.cfi_offset 14, -4
 694 000a 0E46     		mov	r6, r1
 695 000c 83EAE377 		eor	r7, r3, r3, asr #31
 696 0010 A7EBE377 		sub	r7, r7, r3, asr #31
 697              		.loc 1 221 5 view .LVU7
 698 0014 0021     		movs	r1, #0
 699              	.LVL1:
 700              		.loc 1 221 5 view .LVU8
 701 0016 3046     		mov	r0, r6
 702              	.LVL2:
 222:D:/fchai/work/i-cube/I-CUBE-HUAWEI/Middlewares/Third_Party/Huawei/iot_link/network/dtls/mbedtls/mbedtls-2.16.2/library\error.c **** 
 223:D:/fchai/work/i-cube/I-CUBE-HUAWEI/Middlewares/Third_Party/Huawei/iot_link/network/dtls/mbedtls/mbedtls-2.16.2/library\error.c ****     if( ret < 0 )
 224:D:/fchai/work/i-cube/I-CUBE-HUAWEI/Middlewares/Third_Party/Huawei/iot_link/network/dtls/mbedtls/mbedtls-2.16.2/library\error.c ****         ret = -ret;
 225:D:/fchai/work/i-cube/I-CUBE-HUAWEI/Middlewares/Third_Party/Huawei/iot_link/network/dtls/mbedtls/mbedtls-2.16.2/library\error.c **** 
 226:D:/fchai/work/i-cube/I-CUBE-HUAWEI/Middlewares/Third_Party/Huawei/iot_link/network/dtls/mbedtls/mbedtls-2.16.2/library\error.c ****     if( ret & 0xFF80 )
 703              		.loc 1 226 13 view .LVU9
 704 0018 4FF68075 		movw	r5, #65408
 705 001c 1446     		mov	r4, r2
 221:D:/fchai/work/i-cube/I-CUBE-HUAWEI/Middlewares/Third_Party/Huawei/iot_link/network/dtls/mbedtls/mbedtls-2.16.2/library\error.c **** 
 706              		.loc 1 221 5 view .LVU10
 707 001e FFF7FEFF 		bl	memset
ARM GAS  T:\msys\tmp\cceu68zA.s 			page 34


 708              	.LVL3:
 223:D:/fchai/work/i-cube/I-CUBE-HUAWEI/Middlewares/Third_Party/Huawei/iot_link/network/dtls/mbedtls/mbedtls-2.16.2/library\error.c ****         ret = -ret;
 709              		.loc 1 223 5 is_stmt 1 view .LVU11
 710              		.loc 1 226 5 view .LVU12
 711              		.loc 1 226 7 is_stmt 0 view .LVU13
 712 0022 3D40     		ands	r5, r7, r5
 713 0024 15D0     		beq	.L5
 227:D:/fchai/work/i-cube/I-CUBE-HUAWEI/Middlewares/Third_Party/Huawei/iot_link/network/dtls/mbedtls/mbedtls-2.16.2/library\error.c ****     {
 228:D:/fchai/work/i-cube/I-CUBE-HUAWEI/Middlewares/Third_Party/Huawei/iot_link/network/dtls/mbedtls/mbedtls-2.16.2/library\error.c ****         use_ret = ret & 0xFF80;
 714              		.loc 1 228 9 is_stmt 1 view .LVU14
 715              	.LVL4:
 229:D:/fchai/work/i-cube/I-CUBE-HUAWEI/Middlewares/Third_Party/Huawei/iot_link/network/dtls/mbedtls/mbedtls-2.16.2/library\error.c **** 
 230:D:/fchai/work/i-cube/I-CUBE-HUAWEI/Middlewares/Third_Party/Huawei/iot_link/network/dtls/mbedtls/mbedtls-2.16.2/library\error.c ****         // High level error codes
 231:D:/fchai/work/i-cube/I-CUBE-HUAWEI/Middlewares/Third_Party/Huawei/iot_link/network/dtls/mbedtls/mbedtls-2.16.2/library\error.c ****         //
 232:D:/fchai/work/i-cube/I-CUBE-HUAWEI/Middlewares/Third_Party/Huawei/iot_link/network/dtls/mbedtls/mbedtls-2.16.2/library\error.c ****         // BEGIN generated code
 233:D:/fchai/work/i-cube/I-CUBE-HUAWEI/Middlewares/Third_Party/Huawei/iot_link/network/dtls/mbedtls/mbedtls-2.16.2/library\error.c **** #if defined(MBEDTLS_CIPHER_C)
 234:D:/fchai/work/i-cube/I-CUBE-HUAWEI/Middlewares/Third_Party/Huawei/iot_link/network/dtls/mbedtls/mbedtls-2.16.2/library\error.c ****         if( use_ret == -(MBEDTLS_ERR_CIPHER_FEATURE_UNAVAILABLE) )
 716              		.loc 1 234 9 view .LVU15
 717              		.loc 1 234 11 is_stmt 0 view .LVU16
 718 0026 B5F5C14F 		cmp	r5, #24704
 719 002a 41D0     		beq	.L204
 235:D:/fchai/work/i-cube/I-CUBE-HUAWEI/Middlewares/Third_Party/Huawei/iot_link/network/dtls/mbedtls/mbedtls-2.16.2/library\error.c ****             mbedtls_snprintf( buf, buflen, "CIPHER - The selected feature is not available" );
 236:D:/fchai/work/i-cube/I-CUBE-HUAWEI/Middlewares/Third_Party/Huawei/iot_link/network/dtls/mbedtls/mbedtls-2.16.2/library\error.c ****         if( use_ret == -(MBEDTLS_ERR_CIPHER_BAD_INPUT_DATA) )
 720              		.loc 1 236 9 is_stmt 1 view .LVU17
 721              		.loc 1 236 11 is_stmt 0 view .LVU18
 722 002c B5F5C24F 		cmp	r5, #24832
 723 0030 4CD1     		bne	.L8
 237:D:/fchai/work/i-cube/I-CUBE-HUAWEI/Middlewares/Third_Party/Huawei/iot_link/network/dtls/mbedtls/mbedtls-2.16.2/library\error.c ****             mbedtls_snprintf( buf, buflen, "CIPHER - Bad input parameters" );
 724              		.loc 1 237 13 is_stmt 1 view .LVU19
 725 0032 9E4B     		ldr	r3, .L207
 726 0034 9E4A     		ldr	r2, .L207+4
 727 0036 1B68     		ldr	r3, [r3]
 728 0038 2146     		mov	r1, r4
 729 003a 3046     		mov	r0, r6
 730 003c 9847     		blx	r3
 731              	.LVL5:
 238:D:/fchai/work/i-cube/I-CUBE-HUAWEI/Middlewares/Third_Party/Huawei/iot_link/network/dtls/mbedtls/mbedtls-2.16.2/library\error.c ****         if( use_ret == -(MBEDTLS_ERR_CIPHER_ALLOC_FAILED) )
 732              		.loc 1 238 9 view .LVU20
 239:D:/fchai/work/i-cube/I-CUBE-HUAWEI/Middlewares/Third_Party/Huawei/iot_link/network/dtls/mbedtls/mbedtls-2.16.2/library\error.c ****             mbedtls_snprintf( buf, buflen, "CIPHER - Failed to allocate memory" );
 240:D:/fchai/work/i-cube/I-CUBE-HUAWEI/Middlewares/Third_Party/Huawei/iot_link/network/dtls/mbedtls/mbedtls-2.16.2/library\error.c ****         if( use_ret == -(MBEDTLS_ERR_CIPHER_INVALID_PADDING) )
 733              		.loc 1 240 9 view .LVU21
 734              	.L146:
 241:D:/fchai/work/i-cube/I-CUBE-HUAWEI/Middlewares/Third_Party/Huawei/iot_link/network/dtls/mbedtls/mbedtls-2.16.2/library\error.c ****             mbedtls_snprintf( buf, buflen, "CIPHER - Input data contains invalid padding and is rej
 242:D:/fchai/work/i-cube/I-CUBE-HUAWEI/Middlewares/Third_Party/Huawei/iot_link/network/dtls/mbedtls/mbedtls-2.16.2/library\error.c ****         if( use_ret == -(MBEDTLS_ERR_CIPHER_FULL_BLOCK_EXPECTED) )
 243:D:/fchai/work/i-cube/I-CUBE-HUAWEI/Middlewares/Third_Party/Huawei/iot_link/network/dtls/mbedtls/mbedtls-2.16.2/library\error.c ****             mbedtls_snprintf( buf, buflen, "CIPHER - Decryption of block requires a full block" );
 244:D:/fchai/work/i-cube/I-CUBE-HUAWEI/Middlewares/Third_Party/Huawei/iot_link/network/dtls/mbedtls/mbedtls-2.16.2/library\error.c ****         if( use_ret == -(MBEDTLS_ERR_CIPHER_AUTH_FAILED) )
 245:D:/fchai/work/i-cube/I-CUBE-HUAWEI/Middlewares/Third_Party/Huawei/iot_link/network/dtls/mbedtls/mbedtls-2.16.2/library\error.c ****             mbedtls_snprintf( buf, buflen, "CIPHER - Authentication failed (for AEAD modes)" );
 246:D:/fchai/work/i-cube/I-CUBE-HUAWEI/Middlewares/Third_Party/Huawei/iot_link/network/dtls/mbedtls/mbedtls-2.16.2/library\error.c ****         if( use_ret == -(MBEDTLS_ERR_CIPHER_INVALID_CONTEXT) )
 247:D:/fchai/work/i-cube/I-CUBE-HUAWEI/Middlewares/Third_Party/Huawei/iot_link/network/dtls/mbedtls/mbedtls-2.16.2/library\error.c ****             mbedtls_snprintf( buf, buflen, "CIPHER - The context is invalid. For example, because i
 248:D:/fchai/work/i-cube/I-CUBE-HUAWEI/Middlewares/Third_Party/Huawei/iot_link/network/dtls/mbedtls/mbedtls-2.16.2/library\error.c ****         if( use_ret == -(MBEDTLS_ERR_CIPHER_HW_ACCEL_FAILED) )
 249:D:/fchai/work/i-cube/I-CUBE-HUAWEI/Middlewares/Third_Party/Huawei/iot_link/network/dtls/mbedtls/mbedtls-2.16.2/library\error.c ****             mbedtls_snprintf( buf, buflen, "CIPHER - Cipher hardware accelerator failed" );
 250:D:/fchai/work/i-cube/I-CUBE-HUAWEI/Middlewares/Third_Party/Huawei/iot_link/network/dtls/mbedtls/mbedtls-2.16.2/library\error.c **** #endif /* MBEDTLS_CIPHER_C */
 251:D:/fchai/work/i-cube/I-CUBE-HUAWEI/Middlewares/Third_Party/Huawei/iot_link/network/dtls/mbedtls/mbedtls-2.16.2/library\error.c **** 
 252:D:/fchai/work/i-cube/I-CUBE-HUAWEI/Middlewares/Third_Party/Huawei/iot_link/network/dtls/mbedtls/mbedtls-2.16.2/library\error.c **** #if defined(MBEDTLS_DHM_C)
 253:D:/fchai/work/i-cube/I-CUBE-HUAWEI/Middlewares/Third_Party/Huawei/iot_link/network/dtls/mbedtls/mbedtls-2.16.2/library\error.c ****         if( use_ret == -(MBEDTLS_ERR_DHM_BAD_INPUT_DATA) )
 254:D:/fchai/work/i-cube/I-CUBE-HUAWEI/Middlewares/Third_Party/Huawei/iot_link/network/dtls/mbedtls/mbedtls-2.16.2/library\error.c ****             mbedtls_snprintf( buf, buflen, "DHM - Bad input parameters" );
 255:D:/fchai/work/i-cube/I-CUBE-HUAWEI/Middlewares/Third_Party/Huawei/iot_link/network/dtls/mbedtls/mbedtls-2.16.2/library\error.c ****         if( use_ret == -(MBEDTLS_ERR_DHM_READ_PARAMS_FAILED) )
ARM GAS  T:\msys\tmp\cceu68zA.s 			page 35


 256:D:/fchai/work/i-cube/I-CUBE-HUAWEI/Middlewares/Third_Party/Huawei/iot_link/network/dtls/mbedtls/mbedtls-2.16.2/library\error.c ****             mbedtls_snprintf( buf, buflen, "DHM - Reading of the DHM parameters failed" );
 257:D:/fchai/work/i-cube/I-CUBE-HUAWEI/Middlewares/Third_Party/Huawei/iot_link/network/dtls/mbedtls/mbedtls-2.16.2/library\error.c ****         if( use_ret == -(MBEDTLS_ERR_DHM_MAKE_PARAMS_FAILED) )
 258:D:/fchai/work/i-cube/I-CUBE-HUAWEI/Middlewares/Third_Party/Huawei/iot_link/network/dtls/mbedtls/mbedtls-2.16.2/library\error.c ****             mbedtls_snprintf( buf, buflen, "DHM - Making of the DHM parameters failed" );
 259:D:/fchai/work/i-cube/I-CUBE-HUAWEI/Middlewares/Third_Party/Huawei/iot_link/network/dtls/mbedtls/mbedtls-2.16.2/library\error.c ****         if( use_ret == -(MBEDTLS_ERR_DHM_READ_PUBLIC_FAILED) )
 260:D:/fchai/work/i-cube/I-CUBE-HUAWEI/Middlewares/Third_Party/Huawei/iot_link/network/dtls/mbedtls/mbedtls-2.16.2/library\error.c ****             mbedtls_snprintf( buf, buflen, "DHM - Reading of the public values failed" );
 261:D:/fchai/work/i-cube/I-CUBE-HUAWEI/Middlewares/Third_Party/Huawei/iot_link/network/dtls/mbedtls/mbedtls-2.16.2/library\error.c ****         if( use_ret == -(MBEDTLS_ERR_DHM_MAKE_PUBLIC_FAILED) )
 262:D:/fchai/work/i-cube/I-CUBE-HUAWEI/Middlewares/Third_Party/Huawei/iot_link/network/dtls/mbedtls/mbedtls-2.16.2/library\error.c ****             mbedtls_snprintf( buf, buflen, "DHM - Making of the public value failed" );
 263:D:/fchai/work/i-cube/I-CUBE-HUAWEI/Middlewares/Third_Party/Huawei/iot_link/network/dtls/mbedtls/mbedtls-2.16.2/library\error.c ****         if( use_ret == -(MBEDTLS_ERR_DHM_CALC_SECRET_FAILED) )
 264:D:/fchai/work/i-cube/I-CUBE-HUAWEI/Middlewares/Third_Party/Huawei/iot_link/network/dtls/mbedtls/mbedtls-2.16.2/library\error.c ****             mbedtls_snprintf( buf, buflen, "DHM - Calculation of the DHM secret failed" );
 265:D:/fchai/work/i-cube/I-CUBE-HUAWEI/Middlewares/Third_Party/Huawei/iot_link/network/dtls/mbedtls/mbedtls-2.16.2/library\error.c ****         if( use_ret == -(MBEDTLS_ERR_DHM_INVALID_FORMAT) )
 266:D:/fchai/work/i-cube/I-CUBE-HUAWEI/Middlewares/Third_Party/Huawei/iot_link/network/dtls/mbedtls/mbedtls-2.16.2/library\error.c ****             mbedtls_snprintf( buf, buflen, "DHM - The ASN.1 data is not formatted correctly" );
 267:D:/fchai/work/i-cube/I-CUBE-HUAWEI/Middlewares/Third_Party/Huawei/iot_link/network/dtls/mbedtls/mbedtls-2.16.2/library\error.c ****         if( use_ret == -(MBEDTLS_ERR_DHM_ALLOC_FAILED) )
 268:D:/fchai/work/i-cube/I-CUBE-HUAWEI/Middlewares/Third_Party/Huawei/iot_link/network/dtls/mbedtls/mbedtls-2.16.2/library\error.c ****             mbedtls_snprintf( buf, buflen, "DHM - Allocation of memory failed" );
 269:D:/fchai/work/i-cube/I-CUBE-HUAWEI/Middlewares/Third_Party/Huawei/iot_link/network/dtls/mbedtls/mbedtls-2.16.2/library\error.c ****         if( use_ret == -(MBEDTLS_ERR_DHM_FILE_IO_ERROR) )
 270:D:/fchai/work/i-cube/I-CUBE-HUAWEI/Middlewares/Third_Party/Huawei/iot_link/network/dtls/mbedtls/mbedtls-2.16.2/library\error.c ****             mbedtls_snprintf( buf, buflen, "DHM - Read or write of file failed" );
 271:D:/fchai/work/i-cube/I-CUBE-HUAWEI/Middlewares/Third_Party/Huawei/iot_link/network/dtls/mbedtls/mbedtls-2.16.2/library\error.c ****         if( use_ret == -(MBEDTLS_ERR_DHM_HW_ACCEL_FAILED) )
 272:D:/fchai/work/i-cube/I-CUBE-HUAWEI/Middlewares/Third_Party/Huawei/iot_link/network/dtls/mbedtls/mbedtls-2.16.2/library\error.c ****             mbedtls_snprintf( buf, buflen, "DHM - DHM hardware accelerator failed" );
 273:D:/fchai/work/i-cube/I-CUBE-HUAWEI/Middlewares/Third_Party/Huawei/iot_link/network/dtls/mbedtls/mbedtls-2.16.2/library\error.c ****         if( use_ret == -(MBEDTLS_ERR_DHM_SET_GROUP_FAILED) )
 274:D:/fchai/work/i-cube/I-CUBE-HUAWEI/Middlewares/Third_Party/Huawei/iot_link/network/dtls/mbedtls/mbedtls-2.16.2/library\error.c ****             mbedtls_snprintf( buf, buflen, "DHM - Setting the modulus and generator failed" );
 275:D:/fchai/work/i-cube/I-CUBE-HUAWEI/Middlewares/Third_Party/Huawei/iot_link/network/dtls/mbedtls/mbedtls-2.16.2/library\error.c **** #endif /* MBEDTLS_DHM_C */
 276:D:/fchai/work/i-cube/I-CUBE-HUAWEI/Middlewares/Third_Party/Huawei/iot_link/network/dtls/mbedtls/mbedtls-2.16.2/library\error.c **** 
 277:D:/fchai/work/i-cube/I-CUBE-HUAWEI/Middlewares/Third_Party/Huawei/iot_link/network/dtls/mbedtls/mbedtls-2.16.2/library\error.c **** #if defined(MBEDTLS_ECP_C)
 278:D:/fchai/work/i-cube/I-CUBE-HUAWEI/Middlewares/Third_Party/Huawei/iot_link/network/dtls/mbedtls/mbedtls-2.16.2/library\error.c ****         if( use_ret == -(MBEDTLS_ERR_ECP_BAD_INPUT_DATA) )
 279:D:/fchai/work/i-cube/I-CUBE-HUAWEI/Middlewares/Third_Party/Huawei/iot_link/network/dtls/mbedtls/mbedtls-2.16.2/library\error.c ****             mbedtls_snprintf( buf, buflen, "ECP - Bad input parameters to function" );
 280:D:/fchai/work/i-cube/I-CUBE-HUAWEI/Middlewares/Third_Party/Huawei/iot_link/network/dtls/mbedtls/mbedtls-2.16.2/library\error.c ****         if( use_ret == -(MBEDTLS_ERR_ECP_BUFFER_TOO_SMALL) )
 281:D:/fchai/work/i-cube/I-CUBE-HUAWEI/Middlewares/Third_Party/Huawei/iot_link/network/dtls/mbedtls/mbedtls-2.16.2/library\error.c ****             mbedtls_snprintf( buf, buflen, "ECP - The buffer is too small to write to" );
 282:D:/fchai/work/i-cube/I-CUBE-HUAWEI/Middlewares/Third_Party/Huawei/iot_link/network/dtls/mbedtls/mbedtls-2.16.2/library\error.c ****         if( use_ret == -(MBEDTLS_ERR_ECP_FEATURE_UNAVAILABLE) )
 283:D:/fchai/work/i-cube/I-CUBE-HUAWEI/Middlewares/Third_Party/Huawei/iot_link/network/dtls/mbedtls/mbedtls-2.16.2/library\error.c ****             mbedtls_snprintf( buf, buflen, "ECP - The requested feature is not available, for examp
 284:D:/fchai/work/i-cube/I-CUBE-HUAWEI/Middlewares/Third_Party/Huawei/iot_link/network/dtls/mbedtls/mbedtls-2.16.2/library\error.c ****         if( use_ret == -(MBEDTLS_ERR_ECP_VERIFY_FAILED) )
 285:D:/fchai/work/i-cube/I-CUBE-HUAWEI/Middlewares/Third_Party/Huawei/iot_link/network/dtls/mbedtls/mbedtls-2.16.2/library\error.c ****             mbedtls_snprintf( buf, buflen, "ECP - The signature is not valid" );
 286:D:/fchai/work/i-cube/I-CUBE-HUAWEI/Middlewares/Third_Party/Huawei/iot_link/network/dtls/mbedtls/mbedtls-2.16.2/library\error.c ****         if( use_ret == -(MBEDTLS_ERR_ECP_ALLOC_FAILED) )
 287:D:/fchai/work/i-cube/I-CUBE-HUAWEI/Middlewares/Third_Party/Huawei/iot_link/network/dtls/mbedtls/mbedtls-2.16.2/library\error.c ****             mbedtls_snprintf( buf, buflen, "ECP - Memory allocation failed" );
 288:D:/fchai/work/i-cube/I-CUBE-HUAWEI/Middlewares/Third_Party/Huawei/iot_link/network/dtls/mbedtls/mbedtls-2.16.2/library\error.c ****         if( use_ret == -(MBEDTLS_ERR_ECP_RANDOM_FAILED) )
 289:D:/fchai/work/i-cube/I-CUBE-HUAWEI/Middlewares/Third_Party/Huawei/iot_link/network/dtls/mbedtls/mbedtls-2.16.2/library\error.c ****             mbedtls_snprintf( buf, buflen, "ECP - Generation of random value, such as ephemeral key
 290:D:/fchai/work/i-cube/I-CUBE-HUAWEI/Middlewares/Third_Party/Huawei/iot_link/network/dtls/mbedtls/mbedtls-2.16.2/library\error.c ****         if( use_ret == -(MBEDTLS_ERR_ECP_INVALID_KEY) )
 291:D:/fchai/work/i-cube/I-CUBE-HUAWEI/Middlewares/Third_Party/Huawei/iot_link/network/dtls/mbedtls/mbedtls-2.16.2/library\error.c ****             mbedtls_snprintf( buf, buflen, "ECP - Invalid private or public key" );
 292:D:/fchai/work/i-cube/I-CUBE-HUAWEI/Middlewares/Third_Party/Huawei/iot_link/network/dtls/mbedtls/mbedtls-2.16.2/library\error.c ****         if( use_ret == -(MBEDTLS_ERR_ECP_SIG_LEN_MISMATCH) )
 293:D:/fchai/work/i-cube/I-CUBE-HUAWEI/Middlewares/Third_Party/Huawei/iot_link/network/dtls/mbedtls/mbedtls-2.16.2/library\error.c ****             mbedtls_snprintf( buf, buflen, "ECP - The buffer contains a valid signature followed by
 294:D:/fchai/work/i-cube/I-CUBE-HUAWEI/Middlewares/Third_Party/Huawei/iot_link/network/dtls/mbedtls/mbedtls-2.16.2/library\error.c ****         if( use_ret == -(MBEDTLS_ERR_ECP_HW_ACCEL_FAILED) )
 295:D:/fchai/work/i-cube/I-CUBE-HUAWEI/Middlewares/Third_Party/Huawei/iot_link/network/dtls/mbedtls/mbedtls-2.16.2/library\error.c ****             mbedtls_snprintf( buf, buflen, "ECP - The ECP hardware accelerator failed" );
 296:D:/fchai/work/i-cube/I-CUBE-HUAWEI/Middlewares/Third_Party/Huawei/iot_link/network/dtls/mbedtls/mbedtls-2.16.2/library\error.c ****         if( use_ret == -(MBEDTLS_ERR_ECP_IN_PROGRESS) )
 297:D:/fchai/work/i-cube/I-CUBE-HUAWEI/Middlewares/Third_Party/Huawei/iot_link/network/dtls/mbedtls/mbedtls-2.16.2/library\error.c ****             mbedtls_snprintf( buf, buflen, "ECP - Operation in progress, call again with the same p
 298:D:/fchai/work/i-cube/I-CUBE-HUAWEI/Middlewares/Third_Party/Huawei/iot_link/network/dtls/mbedtls/mbedtls-2.16.2/library\error.c **** #endif /* MBEDTLS_ECP_C */
 299:D:/fchai/work/i-cube/I-CUBE-HUAWEI/Middlewares/Third_Party/Huawei/iot_link/network/dtls/mbedtls/mbedtls-2.16.2/library\error.c **** 
 300:D:/fchai/work/i-cube/I-CUBE-HUAWEI/Middlewares/Third_Party/Huawei/iot_link/network/dtls/mbedtls/mbedtls-2.16.2/library\error.c **** #if defined(MBEDTLS_MD_C)
 301:D:/fchai/work/i-cube/I-CUBE-HUAWEI/Middlewares/Third_Party/Huawei/iot_link/network/dtls/mbedtls/mbedtls-2.16.2/library\error.c ****         if( use_ret == -(MBEDTLS_ERR_MD_FEATURE_UNAVAILABLE) )
 302:D:/fchai/work/i-cube/I-CUBE-HUAWEI/Middlewares/Third_Party/Huawei/iot_link/network/dtls/mbedtls/mbedtls-2.16.2/library\error.c ****             mbedtls_snprintf( buf, buflen, "MD - The selected feature is not available" );
 303:D:/fchai/work/i-cube/I-CUBE-HUAWEI/Middlewares/Third_Party/Huawei/iot_link/network/dtls/mbedtls/mbedtls-2.16.2/library\error.c ****         if( use_ret == -(MBEDTLS_ERR_MD_BAD_INPUT_DATA) )
 304:D:/fchai/work/i-cube/I-CUBE-HUAWEI/Middlewares/Third_Party/Huawei/iot_link/network/dtls/mbedtls/mbedtls-2.16.2/library\error.c ****             mbedtls_snprintf( buf, buflen, "MD - Bad input parameters to function" );
 305:D:/fchai/work/i-cube/I-CUBE-HUAWEI/Middlewares/Third_Party/Huawei/iot_link/network/dtls/mbedtls/mbedtls-2.16.2/library\error.c ****         if( use_ret == -(MBEDTLS_ERR_MD_ALLOC_FAILED) )
 306:D:/fchai/work/i-cube/I-CUBE-HUAWEI/Middlewares/Third_Party/Huawei/iot_link/network/dtls/mbedtls/mbedtls-2.16.2/library\error.c ****             mbedtls_snprintf( buf, buflen, "MD - Failed to allocate memory" );
 307:D:/fchai/work/i-cube/I-CUBE-HUAWEI/Middlewares/Third_Party/Huawei/iot_link/network/dtls/mbedtls/mbedtls-2.16.2/library\error.c ****         if( use_ret == -(MBEDTLS_ERR_MD_FILE_IO_ERROR) )
 308:D:/fchai/work/i-cube/I-CUBE-HUAWEI/Middlewares/Third_Party/Huawei/iot_link/network/dtls/mbedtls/mbedtls-2.16.2/library\error.c ****             mbedtls_snprintf( buf, buflen, "MD - Opening or reading of file failed" );
 309:D:/fchai/work/i-cube/I-CUBE-HUAWEI/Middlewares/Third_Party/Huawei/iot_link/network/dtls/mbedtls/mbedtls-2.16.2/library\error.c ****         if( use_ret == -(MBEDTLS_ERR_MD_HW_ACCEL_FAILED) )
 310:D:/fchai/work/i-cube/I-CUBE-HUAWEI/Middlewares/Third_Party/Huawei/iot_link/network/dtls/mbedtls/mbedtls-2.16.2/library\error.c ****             mbedtls_snprintf( buf, buflen, "MD - MD hardware accelerator failed" );
 311:D:/fchai/work/i-cube/I-CUBE-HUAWEI/Middlewares/Third_Party/Huawei/iot_link/network/dtls/mbedtls/mbedtls-2.16.2/library\error.c **** #endif /* MBEDTLS_MD_C */
 312:D:/fchai/work/i-cube/I-CUBE-HUAWEI/Middlewares/Third_Party/Huawei/iot_link/network/dtls/mbedtls/mbedtls-2.16.2/library\error.c **** 
ARM GAS  T:\msys\tmp\cceu68zA.s 			page 36


 313:D:/fchai/work/i-cube/I-CUBE-HUAWEI/Middlewares/Third_Party/Huawei/iot_link/network/dtls/mbedtls/mbedtls-2.16.2/library\error.c **** #if defined(MBEDTLS_PEM_PARSE_C) || defined(MBEDTLS_PEM_WRITE_C)
 314:D:/fchai/work/i-cube/I-CUBE-HUAWEI/Middlewares/Third_Party/Huawei/iot_link/network/dtls/mbedtls/mbedtls-2.16.2/library\error.c ****         if( use_ret == -(MBEDTLS_ERR_PEM_NO_HEADER_FOOTER_PRESENT) )
 315:D:/fchai/work/i-cube/I-CUBE-HUAWEI/Middlewares/Third_Party/Huawei/iot_link/network/dtls/mbedtls/mbedtls-2.16.2/library\error.c ****             mbedtls_snprintf( buf, buflen, "PEM - No PEM header or footer found" );
 316:D:/fchai/work/i-cube/I-CUBE-HUAWEI/Middlewares/Third_Party/Huawei/iot_link/network/dtls/mbedtls/mbedtls-2.16.2/library\error.c ****         if( use_ret == -(MBEDTLS_ERR_PEM_INVALID_DATA) )
 317:D:/fchai/work/i-cube/I-CUBE-HUAWEI/Middlewares/Third_Party/Huawei/iot_link/network/dtls/mbedtls/mbedtls-2.16.2/library\error.c ****             mbedtls_snprintf( buf, buflen, "PEM - PEM string is not as expected" );
 318:D:/fchai/work/i-cube/I-CUBE-HUAWEI/Middlewares/Third_Party/Huawei/iot_link/network/dtls/mbedtls/mbedtls-2.16.2/library\error.c ****         if( use_ret == -(MBEDTLS_ERR_PEM_ALLOC_FAILED) )
 319:D:/fchai/work/i-cube/I-CUBE-HUAWEI/Middlewares/Third_Party/Huawei/iot_link/network/dtls/mbedtls/mbedtls-2.16.2/library\error.c ****             mbedtls_snprintf( buf, buflen, "PEM - Failed to allocate memory" );
 320:D:/fchai/work/i-cube/I-CUBE-HUAWEI/Middlewares/Third_Party/Huawei/iot_link/network/dtls/mbedtls/mbedtls-2.16.2/library\error.c ****         if( use_ret == -(MBEDTLS_ERR_PEM_INVALID_ENC_IV) )
 321:D:/fchai/work/i-cube/I-CUBE-HUAWEI/Middlewares/Third_Party/Huawei/iot_link/network/dtls/mbedtls/mbedtls-2.16.2/library\error.c ****             mbedtls_snprintf( buf, buflen, "PEM - RSA IV is not in hex-format" );
 322:D:/fchai/work/i-cube/I-CUBE-HUAWEI/Middlewares/Third_Party/Huawei/iot_link/network/dtls/mbedtls/mbedtls-2.16.2/library\error.c ****         if( use_ret == -(MBEDTLS_ERR_PEM_UNKNOWN_ENC_ALG) )
 323:D:/fchai/work/i-cube/I-CUBE-HUAWEI/Middlewares/Third_Party/Huawei/iot_link/network/dtls/mbedtls/mbedtls-2.16.2/library\error.c ****             mbedtls_snprintf( buf, buflen, "PEM - Unsupported key encryption algorithm" );
 324:D:/fchai/work/i-cube/I-CUBE-HUAWEI/Middlewares/Third_Party/Huawei/iot_link/network/dtls/mbedtls/mbedtls-2.16.2/library\error.c ****         if( use_ret == -(MBEDTLS_ERR_PEM_PASSWORD_REQUIRED) )
 325:D:/fchai/work/i-cube/I-CUBE-HUAWEI/Middlewares/Third_Party/Huawei/iot_link/network/dtls/mbedtls/mbedtls-2.16.2/library\error.c ****             mbedtls_snprintf( buf, buflen, "PEM - Private key password can't be empty" );
 326:D:/fchai/work/i-cube/I-CUBE-HUAWEI/Middlewares/Third_Party/Huawei/iot_link/network/dtls/mbedtls/mbedtls-2.16.2/library\error.c ****         if( use_ret == -(MBEDTLS_ERR_PEM_PASSWORD_MISMATCH) )
 327:D:/fchai/work/i-cube/I-CUBE-HUAWEI/Middlewares/Third_Party/Huawei/iot_link/network/dtls/mbedtls/mbedtls-2.16.2/library\error.c ****             mbedtls_snprintf( buf, buflen, "PEM - Given private key password does not allow for cor
 328:D:/fchai/work/i-cube/I-CUBE-HUAWEI/Middlewares/Third_Party/Huawei/iot_link/network/dtls/mbedtls/mbedtls-2.16.2/library\error.c ****         if( use_ret == -(MBEDTLS_ERR_PEM_FEATURE_UNAVAILABLE) )
 329:D:/fchai/work/i-cube/I-CUBE-HUAWEI/Middlewares/Third_Party/Huawei/iot_link/network/dtls/mbedtls/mbedtls-2.16.2/library\error.c ****             mbedtls_snprintf( buf, buflen, "PEM - Unavailable feature, e.g. hashing/encryption comb
 330:D:/fchai/work/i-cube/I-CUBE-HUAWEI/Middlewares/Third_Party/Huawei/iot_link/network/dtls/mbedtls/mbedtls-2.16.2/library\error.c ****         if( use_ret == -(MBEDTLS_ERR_PEM_BAD_INPUT_DATA) )
 331:D:/fchai/work/i-cube/I-CUBE-HUAWEI/Middlewares/Third_Party/Huawei/iot_link/network/dtls/mbedtls/mbedtls-2.16.2/library\error.c ****             mbedtls_snprintf( buf, buflen, "PEM - Bad input parameters to function" );
 332:D:/fchai/work/i-cube/I-CUBE-HUAWEI/Middlewares/Third_Party/Huawei/iot_link/network/dtls/mbedtls/mbedtls-2.16.2/library\error.c **** #endif /* MBEDTLS_PEM_PARSE_C || MBEDTLS_PEM_WRITE_C */
 333:D:/fchai/work/i-cube/I-CUBE-HUAWEI/Middlewares/Third_Party/Huawei/iot_link/network/dtls/mbedtls/mbedtls-2.16.2/library\error.c **** 
 334:D:/fchai/work/i-cube/I-CUBE-HUAWEI/Middlewares/Third_Party/Huawei/iot_link/network/dtls/mbedtls/mbedtls-2.16.2/library\error.c **** #if defined(MBEDTLS_PK_C)
 335:D:/fchai/work/i-cube/I-CUBE-HUAWEI/Middlewares/Third_Party/Huawei/iot_link/network/dtls/mbedtls/mbedtls-2.16.2/library\error.c ****         if( use_ret == -(MBEDTLS_ERR_PK_ALLOC_FAILED) )
 336:D:/fchai/work/i-cube/I-CUBE-HUAWEI/Middlewares/Third_Party/Huawei/iot_link/network/dtls/mbedtls/mbedtls-2.16.2/library\error.c ****             mbedtls_snprintf( buf, buflen, "PK - Memory allocation failed" );
 337:D:/fchai/work/i-cube/I-CUBE-HUAWEI/Middlewares/Third_Party/Huawei/iot_link/network/dtls/mbedtls/mbedtls-2.16.2/library\error.c ****         if( use_ret == -(MBEDTLS_ERR_PK_TYPE_MISMATCH) )
 338:D:/fchai/work/i-cube/I-CUBE-HUAWEI/Middlewares/Third_Party/Huawei/iot_link/network/dtls/mbedtls/mbedtls-2.16.2/library\error.c ****             mbedtls_snprintf( buf, buflen, "PK - Type mismatch, eg attempt to encrypt with an ECDSA
 339:D:/fchai/work/i-cube/I-CUBE-HUAWEI/Middlewares/Third_Party/Huawei/iot_link/network/dtls/mbedtls/mbedtls-2.16.2/library\error.c ****         if( use_ret == -(MBEDTLS_ERR_PK_BAD_INPUT_DATA) )
 340:D:/fchai/work/i-cube/I-CUBE-HUAWEI/Middlewares/Third_Party/Huawei/iot_link/network/dtls/mbedtls/mbedtls-2.16.2/library\error.c ****             mbedtls_snprintf( buf, buflen, "PK - Bad input parameters to function" );
 341:D:/fchai/work/i-cube/I-CUBE-HUAWEI/Middlewares/Third_Party/Huawei/iot_link/network/dtls/mbedtls/mbedtls-2.16.2/library\error.c ****         if( use_ret == -(MBEDTLS_ERR_PK_FILE_IO_ERROR) )
 342:D:/fchai/work/i-cube/I-CUBE-HUAWEI/Middlewares/Third_Party/Huawei/iot_link/network/dtls/mbedtls/mbedtls-2.16.2/library\error.c ****             mbedtls_snprintf( buf, buflen, "PK - Read/write of file failed" );
 343:D:/fchai/work/i-cube/I-CUBE-HUAWEI/Middlewares/Third_Party/Huawei/iot_link/network/dtls/mbedtls/mbedtls-2.16.2/library\error.c ****         if( use_ret == -(MBEDTLS_ERR_PK_KEY_INVALID_VERSION) )
 344:D:/fchai/work/i-cube/I-CUBE-HUAWEI/Middlewares/Third_Party/Huawei/iot_link/network/dtls/mbedtls/mbedtls-2.16.2/library\error.c ****             mbedtls_snprintf( buf, buflen, "PK - Unsupported key version" );
 345:D:/fchai/work/i-cube/I-CUBE-HUAWEI/Middlewares/Third_Party/Huawei/iot_link/network/dtls/mbedtls/mbedtls-2.16.2/library\error.c ****         if( use_ret == -(MBEDTLS_ERR_PK_KEY_INVALID_FORMAT) )
 346:D:/fchai/work/i-cube/I-CUBE-HUAWEI/Middlewares/Third_Party/Huawei/iot_link/network/dtls/mbedtls/mbedtls-2.16.2/library\error.c ****             mbedtls_snprintf( buf, buflen, "PK - Invalid key tag or value" );
 347:D:/fchai/work/i-cube/I-CUBE-HUAWEI/Middlewares/Third_Party/Huawei/iot_link/network/dtls/mbedtls/mbedtls-2.16.2/library\error.c ****         if( use_ret == -(MBEDTLS_ERR_PK_UNKNOWN_PK_ALG) )
 348:D:/fchai/work/i-cube/I-CUBE-HUAWEI/Middlewares/Third_Party/Huawei/iot_link/network/dtls/mbedtls/mbedtls-2.16.2/library\error.c ****             mbedtls_snprintf( buf, buflen, "PK - Key algorithm is unsupported (only RSA and EC are 
 349:D:/fchai/work/i-cube/I-CUBE-HUAWEI/Middlewares/Third_Party/Huawei/iot_link/network/dtls/mbedtls/mbedtls-2.16.2/library\error.c ****         if( use_ret == -(MBEDTLS_ERR_PK_PASSWORD_REQUIRED) )
 350:D:/fchai/work/i-cube/I-CUBE-HUAWEI/Middlewares/Third_Party/Huawei/iot_link/network/dtls/mbedtls/mbedtls-2.16.2/library\error.c ****             mbedtls_snprintf( buf, buflen, "PK - Private key password can't be empty" );
 351:D:/fchai/work/i-cube/I-CUBE-HUAWEI/Middlewares/Third_Party/Huawei/iot_link/network/dtls/mbedtls/mbedtls-2.16.2/library\error.c ****         if( use_ret == -(MBEDTLS_ERR_PK_PASSWORD_MISMATCH) )
 352:D:/fchai/work/i-cube/I-CUBE-HUAWEI/Middlewares/Third_Party/Huawei/iot_link/network/dtls/mbedtls/mbedtls-2.16.2/library\error.c ****             mbedtls_snprintf( buf, buflen, "PK - Given private key password does not allow for corr
 353:D:/fchai/work/i-cube/I-CUBE-HUAWEI/Middlewares/Third_Party/Huawei/iot_link/network/dtls/mbedtls/mbedtls-2.16.2/library\error.c ****         if( use_ret == -(MBEDTLS_ERR_PK_INVALID_PUBKEY) )
 354:D:/fchai/work/i-cube/I-CUBE-HUAWEI/Middlewares/Third_Party/Huawei/iot_link/network/dtls/mbedtls/mbedtls-2.16.2/library\error.c ****             mbedtls_snprintf( buf, buflen, "PK - The pubkey tag or value is invalid (only RSA and E
 355:D:/fchai/work/i-cube/I-CUBE-HUAWEI/Middlewares/Third_Party/Huawei/iot_link/network/dtls/mbedtls/mbedtls-2.16.2/library\error.c ****         if( use_ret == -(MBEDTLS_ERR_PK_INVALID_ALG) )
 356:D:/fchai/work/i-cube/I-CUBE-HUAWEI/Middlewares/Third_Party/Huawei/iot_link/network/dtls/mbedtls/mbedtls-2.16.2/library\error.c ****             mbedtls_snprintf( buf, buflen, "PK - The algorithm tag or value is invalid" );
 357:D:/fchai/work/i-cube/I-CUBE-HUAWEI/Middlewares/Third_Party/Huawei/iot_link/network/dtls/mbedtls/mbedtls-2.16.2/library\error.c ****         if( use_ret == -(MBEDTLS_ERR_PK_UNKNOWN_NAMED_CURVE) )
 358:D:/fchai/work/i-cube/I-CUBE-HUAWEI/Middlewares/Third_Party/Huawei/iot_link/network/dtls/mbedtls/mbedtls-2.16.2/library\error.c ****             mbedtls_snprintf( buf, buflen, "PK - Elliptic curve is unsupported (only NIST curves ar
 359:D:/fchai/work/i-cube/I-CUBE-HUAWEI/Middlewares/Third_Party/Huawei/iot_link/network/dtls/mbedtls/mbedtls-2.16.2/library\error.c ****         if( use_ret == -(MBEDTLS_ERR_PK_FEATURE_UNAVAILABLE) )
 360:D:/fchai/work/i-cube/I-CUBE-HUAWEI/Middlewares/Third_Party/Huawei/iot_link/network/dtls/mbedtls/mbedtls-2.16.2/library\error.c ****             mbedtls_snprintf( buf, buflen, "PK - Unavailable feature, e.g. RSA disabled for RSA key
 361:D:/fchai/work/i-cube/I-CUBE-HUAWEI/Middlewares/Third_Party/Huawei/iot_link/network/dtls/mbedtls/mbedtls-2.16.2/library\error.c ****         if( use_ret == -(MBEDTLS_ERR_PK_SIG_LEN_MISMATCH) )
 362:D:/fchai/work/i-cube/I-CUBE-HUAWEI/Middlewares/Third_Party/Huawei/iot_link/network/dtls/mbedtls/mbedtls-2.16.2/library\error.c ****             mbedtls_snprintf( buf, buflen, "PK - The buffer contains a valid signature followed by 
 363:D:/fchai/work/i-cube/I-CUBE-HUAWEI/Middlewares/Third_Party/Huawei/iot_link/network/dtls/mbedtls/mbedtls-2.16.2/library\error.c ****         if( use_ret == -(MBEDTLS_ERR_PK_HW_ACCEL_FAILED) )
 364:D:/fchai/work/i-cube/I-CUBE-HUAWEI/Middlewares/Third_Party/Huawei/iot_link/network/dtls/mbedtls/mbedtls-2.16.2/library\error.c ****             mbedtls_snprintf( buf, buflen, "PK - PK hardware accelerator failed" );
 365:D:/fchai/work/i-cube/I-CUBE-HUAWEI/Middlewares/Third_Party/Huawei/iot_link/network/dtls/mbedtls/mbedtls-2.16.2/library\error.c **** #endif /* MBEDTLS_PK_C */
 366:D:/fchai/work/i-cube/I-CUBE-HUAWEI/Middlewares/Third_Party/Huawei/iot_link/network/dtls/mbedtls/mbedtls-2.16.2/library\error.c **** 
 367:D:/fchai/work/i-cube/I-CUBE-HUAWEI/Middlewares/Third_Party/Huawei/iot_link/network/dtls/mbedtls/mbedtls-2.16.2/library\error.c **** #if defined(MBEDTLS_PKCS12_C)
 368:D:/fchai/work/i-cube/I-CUBE-HUAWEI/Middlewares/Third_Party/Huawei/iot_link/network/dtls/mbedtls/mbedtls-2.16.2/library\error.c ****         if( use_ret == -(MBEDTLS_ERR_PKCS12_BAD_INPUT_DATA) )
 369:D:/fchai/work/i-cube/I-CUBE-HUAWEI/Middlewares/Third_Party/Huawei/iot_link/network/dtls/mbedtls/mbedtls-2.16.2/library\error.c ****             mbedtls_snprintf( buf, buflen, "PKCS12 - Bad input parameters to function" );
ARM GAS  T:\msys\tmp\cceu68zA.s 			page 37


 370:D:/fchai/work/i-cube/I-CUBE-HUAWEI/Middlewares/Third_Party/Huawei/iot_link/network/dtls/mbedtls/mbedtls-2.16.2/library\error.c ****         if( use_ret == -(MBEDTLS_ERR_PKCS12_FEATURE_UNAVAILABLE) )
 371:D:/fchai/work/i-cube/I-CUBE-HUAWEI/Middlewares/Third_Party/Huawei/iot_link/network/dtls/mbedtls/mbedtls-2.16.2/library\error.c ****             mbedtls_snprintf( buf, buflen, "PKCS12 - Feature not available, e.g. unsupported encryp
 372:D:/fchai/work/i-cube/I-CUBE-HUAWEI/Middlewares/Third_Party/Huawei/iot_link/network/dtls/mbedtls/mbedtls-2.16.2/library\error.c ****         if( use_ret == -(MBEDTLS_ERR_PKCS12_PBE_INVALID_FORMAT) )
 373:D:/fchai/work/i-cube/I-CUBE-HUAWEI/Middlewares/Third_Party/Huawei/iot_link/network/dtls/mbedtls/mbedtls-2.16.2/library\error.c ****             mbedtls_snprintf( buf, buflen, "PKCS12 - PBE ASN.1 data not as expected" );
 374:D:/fchai/work/i-cube/I-CUBE-HUAWEI/Middlewares/Third_Party/Huawei/iot_link/network/dtls/mbedtls/mbedtls-2.16.2/library\error.c ****         if( use_ret == -(MBEDTLS_ERR_PKCS12_PASSWORD_MISMATCH) )
 375:D:/fchai/work/i-cube/I-CUBE-HUAWEI/Middlewares/Third_Party/Huawei/iot_link/network/dtls/mbedtls/mbedtls-2.16.2/library\error.c ****             mbedtls_snprintf( buf, buflen, "PKCS12 - Given private key password does not allow for 
 376:D:/fchai/work/i-cube/I-CUBE-HUAWEI/Middlewares/Third_Party/Huawei/iot_link/network/dtls/mbedtls/mbedtls-2.16.2/library\error.c **** #endif /* MBEDTLS_PKCS12_C */
 377:D:/fchai/work/i-cube/I-CUBE-HUAWEI/Middlewares/Third_Party/Huawei/iot_link/network/dtls/mbedtls/mbedtls-2.16.2/library\error.c **** 
 378:D:/fchai/work/i-cube/I-CUBE-HUAWEI/Middlewares/Third_Party/Huawei/iot_link/network/dtls/mbedtls/mbedtls-2.16.2/library\error.c **** #if defined(MBEDTLS_PKCS5_C)
 379:D:/fchai/work/i-cube/I-CUBE-HUAWEI/Middlewares/Third_Party/Huawei/iot_link/network/dtls/mbedtls/mbedtls-2.16.2/library\error.c ****         if( use_ret == -(MBEDTLS_ERR_PKCS5_BAD_INPUT_DATA) )
 380:D:/fchai/work/i-cube/I-CUBE-HUAWEI/Middlewares/Third_Party/Huawei/iot_link/network/dtls/mbedtls/mbedtls-2.16.2/library\error.c ****             mbedtls_snprintf( buf, buflen, "PKCS5 - Bad input parameters to function" );
 381:D:/fchai/work/i-cube/I-CUBE-HUAWEI/Middlewares/Third_Party/Huawei/iot_link/network/dtls/mbedtls/mbedtls-2.16.2/library\error.c ****         if( use_ret == -(MBEDTLS_ERR_PKCS5_INVALID_FORMAT) )
 382:D:/fchai/work/i-cube/I-CUBE-HUAWEI/Middlewares/Third_Party/Huawei/iot_link/network/dtls/mbedtls/mbedtls-2.16.2/library\error.c ****             mbedtls_snprintf( buf, buflen, "PKCS5 - Unexpected ASN.1 data" );
 383:D:/fchai/work/i-cube/I-CUBE-HUAWEI/Middlewares/Third_Party/Huawei/iot_link/network/dtls/mbedtls/mbedtls-2.16.2/library\error.c ****         if( use_ret == -(MBEDTLS_ERR_PKCS5_FEATURE_UNAVAILABLE) )
 384:D:/fchai/work/i-cube/I-CUBE-HUAWEI/Middlewares/Third_Party/Huawei/iot_link/network/dtls/mbedtls/mbedtls-2.16.2/library\error.c ****             mbedtls_snprintf( buf, buflen, "PKCS5 - Requested encryption or digest alg not availabl
 385:D:/fchai/work/i-cube/I-CUBE-HUAWEI/Middlewares/Third_Party/Huawei/iot_link/network/dtls/mbedtls/mbedtls-2.16.2/library\error.c ****         if( use_ret == -(MBEDTLS_ERR_PKCS5_PASSWORD_MISMATCH) )
 386:D:/fchai/work/i-cube/I-CUBE-HUAWEI/Middlewares/Third_Party/Huawei/iot_link/network/dtls/mbedtls/mbedtls-2.16.2/library\error.c ****             mbedtls_snprintf( buf, buflen, "PKCS5 - Given private key password does not allow for c
 387:D:/fchai/work/i-cube/I-CUBE-HUAWEI/Middlewares/Third_Party/Huawei/iot_link/network/dtls/mbedtls/mbedtls-2.16.2/library\error.c **** #endif /* MBEDTLS_PKCS5_C */
 388:D:/fchai/work/i-cube/I-CUBE-HUAWEI/Middlewares/Third_Party/Huawei/iot_link/network/dtls/mbedtls/mbedtls-2.16.2/library\error.c **** 
 389:D:/fchai/work/i-cube/I-CUBE-HUAWEI/Middlewares/Third_Party/Huawei/iot_link/network/dtls/mbedtls/mbedtls-2.16.2/library\error.c **** #if defined(MBEDTLS_RSA_C)
 390:D:/fchai/work/i-cube/I-CUBE-HUAWEI/Middlewares/Third_Party/Huawei/iot_link/network/dtls/mbedtls/mbedtls-2.16.2/library\error.c ****         if( use_ret == -(MBEDTLS_ERR_RSA_BAD_INPUT_DATA) )
 391:D:/fchai/work/i-cube/I-CUBE-HUAWEI/Middlewares/Third_Party/Huawei/iot_link/network/dtls/mbedtls/mbedtls-2.16.2/library\error.c ****             mbedtls_snprintf( buf, buflen, "RSA - Bad input parameters to function" );
 392:D:/fchai/work/i-cube/I-CUBE-HUAWEI/Middlewares/Third_Party/Huawei/iot_link/network/dtls/mbedtls/mbedtls-2.16.2/library\error.c ****         if( use_ret == -(MBEDTLS_ERR_RSA_INVALID_PADDING) )
 393:D:/fchai/work/i-cube/I-CUBE-HUAWEI/Middlewares/Third_Party/Huawei/iot_link/network/dtls/mbedtls/mbedtls-2.16.2/library\error.c ****             mbedtls_snprintf( buf, buflen, "RSA - Input data contains invalid padding and is reject
 394:D:/fchai/work/i-cube/I-CUBE-HUAWEI/Middlewares/Third_Party/Huawei/iot_link/network/dtls/mbedtls/mbedtls-2.16.2/library\error.c ****         if( use_ret == -(MBEDTLS_ERR_RSA_KEY_GEN_FAILED) )
 395:D:/fchai/work/i-cube/I-CUBE-HUAWEI/Middlewares/Third_Party/Huawei/iot_link/network/dtls/mbedtls/mbedtls-2.16.2/library\error.c ****             mbedtls_snprintf( buf, buflen, "RSA - Something failed during generation of a key" );
 396:D:/fchai/work/i-cube/I-CUBE-HUAWEI/Middlewares/Third_Party/Huawei/iot_link/network/dtls/mbedtls/mbedtls-2.16.2/library\error.c ****         if( use_ret == -(MBEDTLS_ERR_RSA_KEY_CHECK_FAILED) )
 397:D:/fchai/work/i-cube/I-CUBE-HUAWEI/Middlewares/Third_Party/Huawei/iot_link/network/dtls/mbedtls/mbedtls-2.16.2/library\error.c ****             mbedtls_snprintf( buf, buflen, "RSA - Key failed to pass the validity check of the libr
 398:D:/fchai/work/i-cube/I-CUBE-HUAWEI/Middlewares/Third_Party/Huawei/iot_link/network/dtls/mbedtls/mbedtls-2.16.2/library\error.c ****         if( use_ret == -(MBEDTLS_ERR_RSA_PUBLIC_FAILED) )
 399:D:/fchai/work/i-cube/I-CUBE-HUAWEI/Middlewares/Third_Party/Huawei/iot_link/network/dtls/mbedtls/mbedtls-2.16.2/library\error.c ****             mbedtls_snprintf( buf, buflen, "RSA - The public key operation failed" );
 400:D:/fchai/work/i-cube/I-CUBE-HUAWEI/Middlewares/Third_Party/Huawei/iot_link/network/dtls/mbedtls/mbedtls-2.16.2/library\error.c ****         if( use_ret == -(MBEDTLS_ERR_RSA_PRIVATE_FAILED) )
 401:D:/fchai/work/i-cube/I-CUBE-HUAWEI/Middlewares/Third_Party/Huawei/iot_link/network/dtls/mbedtls/mbedtls-2.16.2/library\error.c ****             mbedtls_snprintf( buf, buflen, "RSA - The private key operation failed" );
 402:D:/fchai/work/i-cube/I-CUBE-HUAWEI/Middlewares/Third_Party/Huawei/iot_link/network/dtls/mbedtls/mbedtls-2.16.2/library\error.c ****         if( use_ret == -(MBEDTLS_ERR_RSA_VERIFY_FAILED) )
 403:D:/fchai/work/i-cube/I-CUBE-HUAWEI/Middlewares/Third_Party/Huawei/iot_link/network/dtls/mbedtls/mbedtls-2.16.2/library\error.c ****             mbedtls_snprintf( buf, buflen, "RSA - The PKCS#1 verification failed" );
 404:D:/fchai/work/i-cube/I-CUBE-HUAWEI/Middlewares/Third_Party/Huawei/iot_link/network/dtls/mbedtls/mbedtls-2.16.2/library\error.c ****         if( use_ret == -(MBEDTLS_ERR_RSA_OUTPUT_TOO_LARGE) )
 405:D:/fchai/work/i-cube/I-CUBE-HUAWEI/Middlewares/Third_Party/Huawei/iot_link/network/dtls/mbedtls/mbedtls-2.16.2/library\error.c ****             mbedtls_snprintf( buf, buflen, "RSA - The output buffer for decryption is not large eno
 406:D:/fchai/work/i-cube/I-CUBE-HUAWEI/Middlewares/Third_Party/Huawei/iot_link/network/dtls/mbedtls/mbedtls-2.16.2/library\error.c ****         if( use_ret == -(MBEDTLS_ERR_RSA_RNG_FAILED) )
 407:D:/fchai/work/i-cube/I-CUBE-HUAWEI/Middlewares/Third_Party/Huawei/iot_link/network/dtls/mbedtls/mbedtls-2.16.2/library\error.c ****             mbedtls_snprintf( buf, buflen, "RSA - The random generator failed to generate non-zeros
 408:D:/fchai/work/i-cube/I-CUBE-HUAWEI/Middlewares/Third_Party/Huawei/iot_link/network/dtls/mbedtls/mbedtls-2.16.2/library\error.c ****         if( use_ret == -(MBEDTLS_ERR_RSA_UNSUPPORTED_OPERATION) )
 409:D:/fchai/work/i-cube/I-CUBE-HUAWEI/Middlewares/Third_Party/Huawei/iot_link/network/dtls/mbedtls/mbedtls-2.16.2/library\error.c ****             mbedtls_snprintf( buf, buflen, "RSA - The implementation does not offer the requested o
 410:D:/fchai/work/i-cube/I-CUBE-HUAWEI/Middlewares/Third_Party/Huawei/iot_link/network/dtls/mbedtls/mbedtls-2.16.2/library\error.c ****         if( use_ret == -(MBEDTLS_ERR_RSA_HW_ACCEL_FAILED) )
 411:D:/fchai/work/i-cube/I-CUBE-HUAWEI/Middlewares/Third_Party/Huawei/iot_link/network/dtls/mbedtls/mbedtls-2.16.2/library\error.c ****             mbedtls_snprintf( buf, buflen, "RSA - RSA hardware accelerator failed" );
 412:D:/fchai/work/i-cube/I-CUBE-HUAWEI/Middlewares/Third_Party/Huawei/iot_link/network/dtls/mbedtls/mbedtls-2.16.2/library\error.c **** #endif /* MBEDTLS_RSA_C */
 413:D:/fchai/work/i-cube/I-CUBE-HUAWEI/Middlewares/Third_Party/Huawei/iot_link/network/dtls/mbedtls/mbedtls-2.16.2/library\error.c **** 
 414:D:/fchai/work/i-cube/I-CUBE-HUAWEI/Middlewares/Third_Party/Huawei/iot_link/network/dtls/mbedtls/mbedtls-2.16.2/library\error.c **** #if defined(MBEDTLS_SSL_TLS_C)
 415:D:/fchai/work/i-cube/I-CUBE-HUAWEI/Middlewares/Third_Party/Huawei/iot_link/network/dtls/mbedtls/mbedtls-2.16.2/library\error.c ****         if( use_ret == -(MBEDTLS_ERR_SSL_FEATURE_UNAVAILABLE) )
 416:D:/fchai/work/i-cube/I-CUBE-HUAWEI/Middlewares/Third_Party/Huawei/iot_link/network/dtls/mbedtls/mbedtls-2.16.2/library\error.c ****             mbedtls_snprintf( buf, buflen, "SSL - The requested feature is not available" );
 417:D:/fchai/work/i-cube/I-CUBE-HUAWEI/Middlewares/Third_Party/Huawei/iot_link/network/dtls/mbedtls/mbedtls-2.16.2/library\error.c ****         if( use_ret == -(MBEDTLS_ERR_SSL_BAD_INPUT_DATA) )
 418:D:/fchai/work/i-cube/I-CUBE-HUAWEI/Middlewares/Third_Party/Huawei/iot_link/network/dtls/mbedtls/mbedtls-2.16.2/library\error.c ****             mbedtls_snprintf( buf, buflen, "SSL - Bad input parameters to function" );
 419:D:/fchai/work/i-cube/I-CUBE-HUAWEI/Middlewares/Third_Party/Huawei/iot_link/network/dtls/mbedtls/mbedtls-2.16.2/library\error.c ****         if( use_ret == -(MBEDTLS_ERR_SSL_INVALID_MAC) )
 420:D:/fchai/work/i-cube/I-CUBE-HUAWEI/Middlewares/Third_Party/Huawei/iot_link/network/dtls/mbedtls/mbedtls-2.16.2/library\error.c ****             mbedtls_snprintf( buf, buflen, "SSL - Verification of the message MAC failed" );
 421:D:/fchai/work/i-cube/I-CUBE-HUAWEI/Middlewares/Third_Party/Huawei/iot_link/network/dtls/mbedtls/mbedtls-2.16.2/library\error.c ****         if( use_ret == -(MBEDTLS_ERR_SSL_INVALID_RECORD) )
 422:D:/fchai/work/i-cube/I-CUBE-HUAWEI/Middlewares/Third_Party/Huawei/iot_link/network/dtls/mbedtls/mbedtls-2.16.2/library\error.c ****             mbedtls_snprintf( buf, buflen, "SSL - An invalid SSL record was received" );
 423:D:/fchai/work/i-cube/I-CUBE-HUAWEI/Middlewares/Third_Party/Huawei/iot_link/network/dtls/mbedtls/mbedtls-2.16.2/library\error.c ****         if( use_ret == -(MBEDTLS_ERR_SSL_CONN_EOF) )
 424:D:/fchai/work/i-cube/I-CUBE-HUAWEI/Middlewares/Third_Party/Huawei/iot_link/network/dtls/mbedtls/mbedtls-2.16.2/library\error.c ****             mbedtls_snprintf( buf, buflen, "SSL - The connection indicated an EOF" );
 425:D:/fchai/work/i-cube/I-CUBE-HUAWEI/Middlewares/Third_Party/Huawei/iot_link/network/dtls/mbedtls/mbedtls-2.16.2/library\error.c ****         if( use_ret == -(MBEDTLS_ERR_SSL_UNKNOWN_CIPHER) )
 426:D:/fchai/work/i-cube/I-CUBE-HUAWEI/Middlewares/Third_Party/Huawei/iot_link/network/dtls/mbedtls/mbedtls-2.16.2/library\error.c ****             mbedtls_snprintf( buf, buflen, "SSL - An unknown cipher was received" );
ARM GAS  T:\msys\tmp\cceu68zA.s 			page 38


 427:D:/fchai/work/i-cube/I-CUBE-HUAWEI/Middlewares/Third_Party/Huawei/iot_link/network/dtls/mbedtls/mbedtls-2.16.2/library\error.c ****         if( use_ret == -(MBEDTLS_ERR_SSL_NO_CIPHER_CHOSEN) )
 428:D:/fchai/work/i-cube/I-CUBE-HUAWEI/Middlewares/Third_Party/Huawei/iot_link/network/dtls/mbedtls/mbedtls-2.16.2/library\error.c ****             mbedtls_snprintf( buf, buflen, "SSL - The server has no ciphersuites in common with the
 429:D:/fchai/work/i-cube/I-CUBE-HUAWEI/Middlewares/Third_Party/Huawei/iot_link/network/dtls/mbedtls/mbedtls-2.16.2/library\error.c ****         if( use_ret == -(MBEDTLS_ERR_SSL_NO_RNG) )
 430:D:/fchai/work/i-cube/I-CUBE-HUAWEI/Middlewares/Third_Party/Huawei/iot_link/network/dtls/mbedtls/mbedtls-2.16.2/library\error.c ****             mbedtls_snprintf( buf, buflen, "SSL - No RNG was provided to the SSL module" );
 431:D:/fchai/work/i-cube/I-CUBE-HUAWEI/Middlewares/Third_Party/Huawei/iot_link/network/dtls/mbedtls/mbedtls-2.16.2/library\error.c ****         if( use_ret == -(MBEDTLS_ERR_SSL_NO_CLIENT_CERTIFICATE) )
 432:D:/fchai/work/i-cube/I-CUBE-HUAWEI/Middlewares/Third_Party/Huawei/iot_link/network/dtls/mbedtls/mbedtls-2.16.2/library\error.c ****             mbedtls_snprintf( buf, buflen, "SSL - No client certification received from the client,
 433:D:/fchai/work/i-cube/I-CUBE-HUAWEI/Middlewares/Third_Party/Huawei/iot_link/network/dtls/mbedtls/mbedtls-2.16.2/library\error.c ****         if( use_ret == -(MBEDTLS_ERR_SSL_CERTIFICATE_TOO_LARGE) )
 434:D:/fchai/work/i-cube/I-CUBE-HUAWEI/Middlewares/Third_Party/Huawei/iot_link/network/dtls/mbedtls/mbedtls-2.16.2/library\error.c ****             mbedtls_snprintf( buf, buflen, "SSL - Our own certificate(s) is/are too large to send i
 435:D:/fchai/work/i-cube/I-CUBE-HUAWEI/Middlewares/Third_Party/Huawei/iot_link/network/dtls/mbedtls/mbedtls-2.16.2/library\error.c ****         if( use_ret == -(MBEDTLS_ERR_SSL_CERTIFICATE_REQUIRED) )
 436:D:/fchai/work/i-cube/I-CUBE-HUAWEI/Middlewares/Third_Party/Huawei/iot_link/network/dtls/mbedtls/mbedtls-2.16.2/library\error.c ****             mbedtls_snprintf( buf, buflen, "SSL - The own certificate is not set, but needed by the
 437:D:/fchai/work/i-cube/I-CUBE-HUAWEI/Middlewares/Third_Party/Huawei/iot_link/network/dtls/mbedtls/mbedtls-2.16.2/library\error.c ****         if( use_ret == -(MBEDTLS_ERR_SSL_PRIVATE_KEY_REQUIRED) )
 438:D:/fchai/work/i-cube/I-CUBE-HUAWEI/Middlewares/Third_Party/Huawei/iot_link/network/dtls/mbedtls/mbedtls-2.16.2/library\error.c ****             mbedtls_snprintf( buf, buflen, "SSL - The own private key or pre-shared key is not set,
 439:D:/fchai/work/i-cube/I-CUBE-HUAWEI/Middlewares/Third_Party/Huawei/iot_link/network/dtls/mbedtls/mbedtls-2.16.2/library\error.c ****         if( use_ret == -(MBEDTLS_ERR_SSL_CA_CHAIN_REQUIRED) )
 440:D:/fchai/work/i-cube/I-CUBE-HUAWEI/Middlewares/Third_Party/Huawei/iot_link/network/dtls/mbedtls/mbedtls-2.16.2/library\error.c ****             mbedtls_snprintf( buf, buflen, "SSL - No CA Chain is set, but required to operate" );
 441:D:/fchai/work/i-cube/I-CUBE-HUAWEI/Middlewares/Third_Party/Huawei/iot_link/network/dtls/mbedtls/mbedtls-2.16.2/library\error.c ****         if( use_ret == -(MBEDTLS_ERR_SSL_UNEXPECTED_MESSAGE) )
 442:D:/fchai/work/i-cube/I-CUBE-HUAWEI/Middlewares/Third_Party/Huawei/iot_link/network/dtls/mbedtls/mbedtls-2.16.2/library\error.c ****             mbedtls_snprintf( buf, buflen, "SSL - An unexpected message was received from our peer"
 443:D:/fchai/work/i-cube/I-CUBE-HUAWEI/Middlewares/Third_Party/Huawei/iot_link/network/dtls/mbedtls/mbedtls-2.16.2/library\error.c ****         if( use_ret == -(MBEDTLS_ERR_SSL_FATAL_ALERT_MESSAGE) )
 444:D:/fchai/work/i-cube/I-CUBE-HUAWEI/Middlewares/Third_Party/Huawei/iot_link/network/dtls/mbedtls/mbedtls-2.16.2/library\error.c ****         {
 445:D:/fchai/work/i-cube/I-CUBE-HUAWEI/Middlewares/Third_Party/Huawei/iot_link/network/dtls/mbedtls/mbedtls-2.16.2/library\error.c ****             mbedtls_snprintf( buf, buflen, "SSL - A fatal alert message was received from our peer"
 446:D:/fchai/work/i-cube/I-CUBE-HUAWEI/Middlewares/Third_Party/Huawei/iot_link/network/dtls/mbedtls/mbedtls-2.16.2/library\error.c ****             return;
 447:D:/fchai/work/i-cube/I-CUBE-HUAWEI/Middlewares/Third_Party/Huawei/iot_link/network/dtls/mbedtls/mbedtls-2.16.2/library\error.c ****         }
 448:D:/fchai/work/i-cube/I-CUBE-HUAWEI/Middlewares/Third_Party/Huawei/iot_link/network/dtls/mbedtls/mbedtls-2.16.2/library\error.c ****         if( use_ret == -(MBEDTLS_ERR_SSL_PEER_VERIFY_FAILED) )
 449:D:/fchai/work/i-cube/I-CUBE-HUAWEI/Middlewares/Third_Party/Huawei/iot_link/network/dtls/mbedtls/mbedtls-2.16.2/library\error.c ****             mbedtls_snprintf( buf, buflen, "SSL - Verification of our peer failed" );
 450:D:/fchai/work/i-cube/I-CUBE-HUAWEI/Middlewares/Third_Party/Huawei/iot_link/network/dtls/mbedtls/mbedtls-2.16.2/library\error.c ****         if( use_ret == -(MBEDTLS_ERR_SSL_PEER_CLOSE_NOTIFY) )
 451:D:/fchai/work/i-cube/I-CUBE-HUAWEI/Middlewares/Third_Party/Huawei/iot_link/network/dtls/mbedtls/mbedtls-2.16.2/library\error.c ****             mbedtls_snprintf( buf, buflen, "SSL - The peer notified us that the connection is going
 452:D:/fchai/work/i-cube/I-CUBE-HUAWEI/Middlewares/Third_Party/Huawei/iot_link/network/dtls/mbedtls/mbedtls-2.16.2/library\error.c ****         if( use_ret == -(MBEDTLS_ERR_SSL_BAD_HS_CLIENT_HELLO) )
 453:D:/fchai/work/i-cube/I-CUBE-HUAWEI/Middlewares/Third_Party/Huawei/iot_link/network/dtls/mbedtls/mbedtls-2.16.2/library\error.c ****             mbedtls_snprintf( buf, buflen, "SSL - Processing of the ClientHello handshake message f
 454:D:/fchai/work/i-cube/I-CUBE-HUAWEI/Middlewares/Third_Party/Huawei/iot_link/network/dtls/mbedtls/mbedtls-2.16.2/library\error.c ****         if( use_ret == -(MBEDTLS_ERR_SSL_BAD_HS_SERVER_HELLO) )
 455:D:/fchai/work/i-cube/I-CUBE-HUAWEI/Middlewares/Third_Party/Huawei/iot_link/network/dtls/mbedtls/mbedtls-2.16.2/library\error.c ****             mbedtls_snprintf( buf, buflen, "SSL - Processing of the ServerHello handshake message f
 456:D:/fchai/work/i-cube/I-CUBE-HUAWEI/Middlewares/Third_Party/Huawei/iot_link/network/dtls/mbedtls/mbedtls-2.16.2/library\error.c ****         if( use_ret == -(MBEDTLS_ERR_SSL_BAD_HS_CERTIFICATE) )
 457:D:/fchai/work/i-cube/I-CUBE-HUAWEI/Middlewares/Third_Party/Huawei/iot_link/network/dtls/mbedtls/mbedtls-2.16.2/library\error.c ****             mbedtls_snprintf( buf, buflen, "SSL - Processing of the Certificate handshake message f
 458:D:/fchai/work/i-cube/I-CUBE-HUAWEI/Middlewares/Third_Party/Huawei/iot_link/network/dtls/mbedtls/mbedtls-2.16.2/library\error.c ****         if( use_ret == -(MBEDTLS_ERR_SSL_BAD_HS_CERTIFICATE_REQUEST) )
 459:D:/fchai/work/i-cube/I-CUBE-HUAWEI/Middlewares/Third_Party/Huawei/iot_link/network/dtls/mbedtls/mbedtls-2.16.2/library\error.c ****             mbedtls_snprintf( buf, buflen, "SSL - Processing of the CertificateRequest handshake me
 460:D:/fchai/work/i-cube/I-CUBE-HUAWEI/Middlewares/Third_Party/Huawei/iot_link/network/dtls/mbedtls/mbedtls-2.16.2/library\error.c ****         if( use_ret == -(MBEDTLS_ERR_SSL_BAD_HS_SERVER_KEY_EXCHANGE) )
 461:D:/fchai/work/i-cube/I-CUBE-HUAWEI/Middlewares/Third_Party/Huawei/iot_link/network/dtls/mbedtls/mbedtls-2.16.2/library\error.c ****             mbedtls_snprintf( buf, buflen, "SSL - Processing of the ServerKeyExchange handshake mes
 462:D:/fchai/work/i-cube/I-CUBE-HUAWEI/Middlewares/Third_Party/Huawei/iot_link/network/dtls/mbedtls/mbedtls-2.16.2/library\error.c ****         if( use_ret == -(MBEDTLS_ERR_SSL_BAD_HS_SERVER_HELLO_DONE) )
 463:D:/fchai/work/i-cube/I-CUBE-HUAWEI/Middlewares/Third_Party/Huawei/iot_link/network/dtls/mbedtls/mbedtls-2.16.2/library\error.c ****             mbedtls_snprintf( buf, buflen, "SSL - Processing of the ServerHelloDone handshake messa
 464:D:/fchai/work/i-cube/I-CUBE-HUAWEI/Middlewares/Third_Party/Huawei/iot_link/network/dtls/mbedtls/mbedtls-2.16.2/library\error.c ****         if( use_ret == -(MBEDTLS_ERR_SSL_BAD_HS_CLIENT_KEY_EXCHANGE) )
 465:D:/fchai/work/i-cube/I-CUBE-HUAWEI/Middlewares/Third_Party/Huawei/iot_link/network/dtls/mbedtls/mbedtls-2.16.2/library\error.c ****             mbedtls_snprintf( buf, buflen, "SSL - Processing of the ClientKeyExchange handshake mes
 466:D:/fchai/work/i-cube/I-CUBE-HUAWEI/Middlewares/Third_Party/Huawei/iot_link/network/dtls/mbedtls/mbedtls-2.16.2/library\error.c ****         if( use_ret == -(MBEDTLS_ERR_SSL_BAD_HS_CLIENT_KEY_EXCHANGE_RP) )
 467:D:/fchai/work/i-cube/I-CUBE-HUAWEI/Middlewares/Third_Party/Huawei/iot_link/network/dtls/mbedtls/mbedtls-2.16.2/library\error.c ****             mbedtls_snprintf( buf, buflen, "SSL - Processing of the ClientKeyExchange handshake mes
 468:D:/fchai/work/i-cube/I-CUBE-HUAWEI/Middlewares/Third_Party/Huawei/iot_link/network/dtls/mbedtls/mbedtls-2.16.2/library\error.c ****         if( use_ret == -(MBEDTLS_ERR_SSL_BAD_HS_CLIENT_KEY_EXCHANGE_CS) )
 469:D:/fchai/work/i-cube/I-CUBE-HUAWEI/Middlewares/Third_Party/Huawei/iot_link/network/dtls/mbedtls/mbedtls-2.16.2/library\error.c ****             mbedtls_snprintf( buf, buflen, "SSL - Processing of the ClientKeyExchange handshake mes
 470:D:/fchai/work/i-cube/I-CUBE-HUAWEI/Middlewares/Third_Party/Huawei/iot_link/network/dtls/mbedtls/mbedtls-2.16.2/library\error.c ****         if( use_ret == -(MBEDTLS_ERR_SSL_BAD_HS_CERTIFICATE_VERIFY) )
 471:D:/fchai/work/i-cube/I-CUBE-HUAWEI/Middlewares/Third_Party/Huawei/iot_link/network/dtls/mbedtls/mbedtls-2.16.2/library\error.c ****             mbedtls_snprintf( buf, buflen, "SSL - Processing of the CertificateVerify handshake mes
 472:D:/fchai/work/i-cube/I-CUBE-HUAWEI/Middlewares/Third_Party/Huawei/iot_link/network/dtls/mbedtls/mbedtls-2.16.2/library\error.c ****         if( use_ret == -(MBEDTLS_ERR_SSL_BAD_HS_CHANGE_CIPHER_SPEC) )
 473:D:/fchai/work/i-cube/I-CUBE-HUAWEI/Middlewares/Third_Party/Huawei/iot_link/network/dtls/mbedtls/mbedtls-2.16.2/library\error.c ****             mbedtls_snprintf( buf, buflen, "SSL - Processing of the ChangeCipherSpec handshake mess
 474:D:/fchai/work/i-cube/I-CUBE-HUAWEI/Middlewares/Third_Party/Huawei/iot_link/network/dtls/mbedtls/mbedtls-2.16.2/library\error.c ****         if( use_ret == -(MBEDTLS_ERR_SSL_BAD_HS_FINISHED) )
 475:D:/fchai/work/i-cube/I-CUBE-HUAWEI/Middlewares/Third_Party/Huawei/iot_link/network/dtls/mbedtls/mbedtls-2.16.2/library\error.c ****             mbedtls_snprintf( buf, buflen, "SSL - Processing of the Finished handshake message fail
 476:D:/fchai/work/i-cube/I-CUBE-HUAWEI/Middlewares/Third_Party/Huawei/iot_link/network/dtls/mbedtls/mbedtls-2.16.2/library\error.c ****         if( use_ret == -(MBEDTLS_ERR_SSL_ALLOC_FAILED) )
 477:D:/fchai/work/i-cube/I-CUBE-HUAWEI/Middlewares/Third_Party/Huawei/iot_link/network/dtls/mbedtls/mbedtls-2.16.2/library\error.c ****             mbedtls_snprintf( buf, buflen, "SSL - Memory allocation failed" );
 478:D:/fchai/work/i-cube/I-CUBE-HUAWEI/Middlewares/Third_Party/Huawei/iot_link/network/dtls/mbedtls/mbedtls-2.16.2/library\error.c ****         if( use_ret == -(MBEDTLS_ERR_SSL_HW_ACCEL_FAILED) )
 479:D:/fchai/work/i-cube/I-CUBE-HUAWEI/Middlewares/Third_Party/Huawei/iot_link/network/dtls/mbedtls/mbedtls-2.16.2/library\error.c ****             mbedtls_snprintf( buf, buflen, "SSL - Hardware acceleration function returned with erro
 480:D:/fchai/work/i-cube/I-CUBE-HUAWEI/Middlewares/Third_Party/Huawei/iot_link/network/dtls/mbedtls/mbedtls-2.16.2/library\error.c ****         if( use_ret == -(MBEDTLS_ERR_SSL_HW_ACCEL_FALLTHROUGH) )
 481:D:/fchai/work/i-cube/I-CUBE-HUAWEI/Middlewares/Third_Party/Huawei/iot_link/network/dtls/mbedtls/mbedtls-2.16.2/library\error.c ****             mbedtls_snprintf( buf, buflen, "SSL - Hardware acceleration function skipped / left alo
 482:D:/fchai/work/i-cube/I-CUBE-HUAWEI/Middlewares/Third_Party/Huawei/iot_link/network/dtls/mbedtls/mbedtls-2.16.2/library\error.c ****         if( use_ret == -(MBEDTLS_ERR_SSL_COMPRESSION_FAILED) )
 483:D:/fchai/work/i-cube/I-CUBE-HUAWEI/Middlewares/Third_Party/Huawei/iot_link/network/dtls/mbedtls/mbedtls-2.16.2/library\error.c ****             mbedtls_snprintf( buf, buflen, "SSL - Processing of the compression / decompression fai
ARM GAS  T:\msys\tmp\cceu68zA.s 			page 39


 484:D:/fchai/work/i-cube/I-CUBE-HUAWEI/Middlewares/Third_Party/Huawei/iot_link/network/dtls/mbedtls/mbedtls-2.16.2/library\error.c ****         if( use_ret == -(MBEDTLS_ERR_SSL_BAD_HS_PROTOCOL_VERSION) )
 485:D:/fchai/work/i-cube/I-CUBE-HUAWEI/Middlewares/Third_Party/Huawei/iot_link/network/dtls/mbedtls/mbedtls-2.16.2/library\error.c ****             mbedtls_snprintf( buf, buflen, "SSL - Handshake protocol not within min/max boundaries"
 486:D:/fchai/work/i-cube/I-CUBE-HUAWEI/Middlewares/Third_Party/Huawei/iot_link/network/dtls/mbedtls/mbedtls-2.16.2/library\error.c ****         if( use_ret == -(MBEDTLS_ERR_SSL_BAD_HS_NEW_SESSION_TICKET) )
 487:D:/fchai/work/i-cube/I-CUBE-HUAWEI/Middlewares/Third_Party/Huawei/iot_link/network/dtls/mbedtls/mbedtls-2.16.2/library\error.c ****             mbedtls_snprintf( buf, buflen, "SSL - Processing of the NewSessionTicket handshake mess
 488:D:/fchai/work/i-cube/I-CUBE-HUAWEI/Middlewares/Third_Party/Huawei/iot_link/network/dtls/mbedtls/mbedtls-2.16.2/library\error.c ****         if( use_ret == -(MBEDTLS_ERR_SSL_SESSION_TICKET_EXPIRED) )
 489:D:/fchai/work/i-cube/I-CUBE-HUAWEI/Middlewares/Third_Party/Huawei/iot_link/network/dtls/mbedtls/mbedtls-2.16.2/library\error.c ****             mbedtls_snprintf( buf, buflen, "SSL - Session ticket has expired" );
 490:D:/fchai/work/i-cube/I-CUBE-HUAWEI/Middlewares/Third_Party/Huawei/iot_link/network/dtls/mbedtls/mbedtls-2.16.2/library\error.c ****         if( use_ret == -(MBEDTLS_ERR_SSL_PK_TYPE_MISMATCH) )
 491:D:/fchai/work/i-cube/I-CUBE-HUAWEI/Middlewares/Third_Party/Huawei/iot_link/network/dtls/mbedtls/mbedtls-2.16.2/library\error.c ****             mbedtls_snprintf( buf, buflen, "SSL - Public key type mismatch (eg, asked for RSA key e
 492:D:/fchai/work/i-cube/I-CUBE-HUAWEI/Middlewares/Third_Party/Huawei/iot_link/network/dtls/mbedtls/mbedtls-2.16.2/library\error.c ****         if( use_ret == -(MBEDTLS_ERR_SSL_UNKNOWN_IDENTITY) )
 493:D:/fchai/work/i-cube/I-CUBE-HUAWEI/Middlewares/Third_Party/Huawei/iot_link/network/dtls/mbedtls/mbedtls-2.16.2/library\error.c ****             mbedtls_snprintf( buf, buflen, "SSL - Unknown identity received (eg, PSK identity)" );
 494:D:/fchai/work/i-cube/I-CUBE-HUAWEI/Middlewares/Third_Party/Huawei/iot_link/network/dtls/mbedtls/mbedtls-2.16.2/library\error.c ****         if( use_ret == -(MBEDTLS_ERR_SSL_INTERNAL_ERROR) )
 495:D:/fchai/work/i-cube/I-CUBE-HUAWEI/Middlewares/Third_Party/Huawei/iot_link/network/dtls/mbedtls/mbedtls-2.16.2/library\error.c ****             mbedtls_snprintf( buf, buflen, "SSL - Internal error (eg, unexpected failure in lower-l
 496:D:/fchai/work/i-cube/I-CUBE-HUAWEI/Middlewares/Third_Party/Huawei/iot_link/network/dtls/mbedtls/mbedtls-2.16.2/library\error.c ****         if( use_ret == -(MBEDTLS_ERR_SSL_COUNTER_WRAPPING) )
 497:D:/fchai/work/i-cube/I-CUBE-HUAWEI/Middlewares/Third_Party/Huawei/iot_link/network/dtls/mbedtls/mbedtls-2.16.2/library\error.c ****             mbedtls_snprintf( buf, buflen, "SSL - A counter would wrap (eg, too many messages excha
 498:D:/fchai/work/i-cube/I-CUBE-HUAWEI/Middlewares/Third_Party/Huawei/iot_link/network/dtls/mbedtls/mbedtls-2.16.2/library\error.c ****         if( use_ret == -(MBEDTLS_ERR_SSL_WAITING_SERVER_HELLO_RENEGO) )
 499:D:/fchai/work/i-cube/I-CUBE-HUAWEI/Middlewares/Third_Party/Huawei/iot_link/network/dtls/mbedtls/mbedtls-2.16.2/library\error.c ****             mbedtls_snprintf( buf, buflen, "SSL - Unexpected message at ServerHello in renegotiatio
 500:D:/fchai/work/i-cube/I-CUBE-HUAWEI/Middlewares/Third_Party/Huawei/iot_link/network/dtls/mbedtls/mbedtls-2.16.2/library\error.c ****         if( use_ret == -(MBEDTLS_ERR_SSL_HELLO_VERIFY_REQUIRED) )
 501:D:/fchai/work/i-cube/I-CUBE-HUAWEI/Middlewares/Third_Party/Huawei/iot_link/network/dtls/mbedtls/mbedtls-2.16.2/library\error.c ****             mbedtls_snprintf( buf, buflen, "SSL - DTLS client must retry for hello verification" );
 502:D:/fchai/work/i-cube/I-CUBE-HUAWEI/Middlewares/Third_Party/Huawei/iot_link/network/dtls/mbedtls/mbedtls-2.16.2/library\error.c ****         if( use_ret == -(MBEDTLS_ERR_SSL_BUFFER_TOO_SMALL) )
 503:D:/fchai/work/i-cube/I-CUBE-HUAWEI/Middlewares/Third_Party/Huawei/iot_link/network/dtls/mbedtls/mbedtls-2.16.2/library\error.c ****             mbedtls_snprintf( buf, buflen, "SSL - A buffer is too small to receive or write a messa
 504:D:/fchai/work/i-cube/I-CUBE-HUAWEI/Middlewares/Third_Party/Huawei/iot_link/network/dtls/mbedtls/mbedtls-2.16.2/library\error.c ****         if( use_ret == -(MBEDTLS_ERR_SSL_NO_USABLE_CIPHERSUITE) )
 505:D:/fchai/work/i-cube/I-CUBE-HUAWEI/Middlewares/Third_Party/Huawei/iot_link/network/dtls/mbedtls/mbedtls-2.16.2/library\error.c ****             mbedtls_snprintf( buf, buflen, "SSL - None of the common ciphersuites is usable (eg, no
 506:D:/fchai/work/i-cube/I-CUBE-HUAWEI/Middlewares/Third_Party/Huawei/iot_link/network/dtls/mbedtls/mbedtls-2.16.2/library\error.c ****         if( use_ret == -(MBEDTLS_ERR_SSL_WANT_READ) )
 507:D:/fchai/work/i-cube/I-CUBE-HUAWEI/Middlewares/Third_Party/Huawei/iot_link/network/dtls/mbedtls/mbedtls-2.16.2/library\error.c ****             mbedtls_snprintf( buf, buflen, "SSL - No data of requested type currently available on 
 508:D:/fchai/work/i-cube/I-CUBE-HUAWEI/Middlewares/Third_Party/Huawei/iot_link/network/dtls/mbedtls/mbedtls-2.16.2/library\error.c ****         if( use_ret == -(MBEDTLS_ERR_SSL_WANT_WRITE) )
 509:D:/fchai/work/i-cube/I-CUBE-HUAWEI/Middlewares/Third_Party/Huawei/iot_link/network/dtls/mbedtls/mbedtls-2.16.2/library\error.c ****             mbedtls_snprintf( buf, buflen, "SSL - Connection requires a write call" );
 510:D:/fchai/work/i-cube/I-CUBE-HUAWEI/Middlewares/Third_Party/Huawei/iot_link/network/dtls/mbedtls/mbedtls-2.16.2/library\error.c ****         if( use_ret == -(MBEDTLS_ERR_SSL_TIMEOUT) )
 511:D:/fchai/work/i-cube/I-CUBE-HUAWEI/Middlewares/Third_Party/Huawei/iot_link/network/dtls/mbedtls/mbedtls-2.16.2/library\error.c ****             mbedtls_snprintf( buf, buflen, "SSL - The operation timed out" );
 512:D:/fchai/work/i-cube/I-CUBE-HUAWEI/Middlewares/Third_Party/Huawei/iot_link/network/dtls/mbedtls/mbedtls-2.16.2/library\error.c ****         if( use_ret == -(MBEDTLS_ERR_SSL_CLIENT_RECONNECT) )
 513:D:/fchai/work/i-cube/I-CUBE-HUAWEI/Middlewares/Third_Party/Huawei/iot_link/network/dtls/mbedtls/mbedtls-2.16.2/library\error.c ****             mbedtls_snprintf( buf, buflen, "SSL - The client initiated a reconnect from the same po
 514:D:/fchai/work/i-cube/I-CUBE-HUAWEI/Middlewares/Third_Party/Huawei/iot_link/network/dtls/mbedtls/mbedtls-2.16.2/library\error.c ****         if( use_ret == -(MBEDTLS_ERR_SSL_UNEXPECTED_RECORD) )
 515:D:/fchai/work/i-cube/I-CUBE-HUAWEI/Middlewares/Third_Party/Huawei/iot_link/network/dtls/mbedtls/mbedtls-2.16.2/library\error.c ****             mbedtls_snprintf( buf, buflen, "SSL - Record header looks valid but is not expected" );
 516:D:/fchai/work/i-cube/I-CUBE-HUAWEI/Middlewares/Third_Party/Huawei/iot_link/network/dtls/mbedtls/mbedtls-2.16.2/library\error.c ****         if( use_ret == -(MBEDTLS_ERR_SSL_NON_FATAL) )
 517:D:/fchai/work/i-cube/I-CUBE-HUAWEI/Middlewares/Third_Party/Huawei/iot_link/network/dtls/mbedtls/mbedtls-2.16.2/library\error.c ****             mbedtls_snprintf( buf, buflen, "SSL - The alert message received indicates a non-fatal 
 518:D:/fchai/work/i-cube/I-CUBE-HUAWEI/Middlewares/Third_Party/Huawei/iot_link/network/dtls/mbedtls/mbedtls-2.16.2/library\error.c ****         if( use_ret == -(MBEDTLS_ERR_SSL_INVALID_VERIFY_HASH) )
 519:D:/fchai/work/i-cube/I-CUBE-HUAWEI/Middlewares/Third_Party/Huawei/iot_link/network/dtls/mbedtls/mbedtls-2.16.2/library\error.c ****             mbedtls_snprintf( buf, buflen, "SSL - Couldn't set the hash for verifying CertificateVe
 520:D:/fchai/work/i-cube/I-CUBE-HUAWEI/Middlewares/Third_Party/Huawei/iot_link/network/dtls/mbedtls/mbedtls-2.16.2/library\error.c ****         if( use_ret == -(MBEDTLS_ERR_SSL_CONTINUE_PROCESSING) )
 521:D:/fchai/work/i-cube/I-CUBE-HUAWEI/Middlewares/Third_Party/Huawei/iot_link/network/dtls/mbedtls/mbedtls-2.16.2/library\error.c ****             mbedtls_snprintf( buf, buflen, "SSL - Internal-only message signaling that further mess
 522:D:/fchai/work/i-cube/I-CUBE-HUAWEI/Middlewares/Third_Party/Huawei/iot_link/network/dtls/mbedtls/mbedtls-2.16.2/library\error.c ****         if( use_ret == -(MBEDTLS_ERR_SSL_ASYNC_IN_PROGRESS) )
 523:D:/fchai/work/i-cube/I-CUBE-HUAWEI/Middlewares/Third_Party/Huawei/iot_link/network/dtls/mbedtls/mbedtls-2.16.2/library\error.c ****             mbedtls_snprintf( buf, buflen, "SSL - The asynchronous operation is not completed yet" 
 524:D:/fchai/work/i-cube/I-CUBE-HUAWEI/Middlewares/Third_Party/Huawei/iot_link/network/dtls/mbedtls/mbedtls-2.16.2/library\error.c ****         if( use_ret == -(MBEDTLS_ERR_SSL_EARLY_MESSAGE) )
 525:D:/fchai/work/i-cube/I-CUBE-HUAWEI/Middlewares/Third_Party/Huawei/iot_link/network/dtls/mbedtls/mbedtls-2.16.2/library\error.c ****             mbedtls_snprintf( buf, buflen, "SSL - Internal-only message signaling that a message ar
 526:D:/fchai/work/i-cube/I-CUBE-HUAWEI/Middlewares/Third_Party/Huawei/iot_link/network/dtls/mbedtls/mbedtls-2.16.2/library\error.c ****         if( use_ret == -(MBEDTLS_ERR_SSL_CRYPTO_IN_PROGRESS) )
 527:D:/fchai/work/i-cube/I-CUBE-HUAWEI/Middlewares/Third_Party/Huawei/iot_link/network/dtls/mbedtls/mbedtls-2.16.2/library\error.c ****             mbedtls_snprintf( buf, buflen, "SSL - A cryptographic operation is in progress. Try aga
 528:D:/fchai/work/i-cube/I-CUBE-HUAWEI/Middlewares/Third_Party/Huawei/iot_link/network/dtls/mbedtls/mbedtls-2.16.2/library\error.c **** #endif /* MBEDTLS_SSL_TLS_C */
 529:D:/fchai/work/i-cube/I-CUBE-HUAWEI/Middlewares/Third_Party/Huawei/iot_link/network/dtls/mbedtls/mbedtls-2.16.2/library\error.c **** 
 530:D:/fchai/work/i-cube/I-CUBE-HUAWEI/Middlewares/Third_Party/Huawei/iot_link/network/dtls/mbedtls/mbedtls-2.16.2/library\error.c **** #if defined(MBEDTLS_X509_USE_C) || defined(MBEDTLS_X509_CREATE_C)
 531:D:/fchai/work/i-cube/I-CUBE-HUAWEI/Middlewares/Third_Party/Huawei/iot_link/network/dtls/mbedtls/mbedtls-2.16.2/library\error.c ****         if( use_ret == -(MBEDTLS_ERR_X509_FEATURE_UNAVAILABLE) )
 532:D:/fchai/work/i-cube/I-CUBE-HUAWEI/Middlewares/Third_Party/Huawei/iot_link/network/dtls/mbedtls/mbedtls-2.16.2/library\error.c ****             mbedtls_snprintf( buf, buflen, "X509 - Unavailable feature, e.g. RSA hashing/encryption
 533:D:/fchai/work/i-cube/I-CUBE-HUAWEI/Middlewares/Third_Party/Huawei/iot_link/network/dtls/mbedtls/mbedtls-2.16.2/library\error.c ****         if( use_ret == -(MBEDTLS_ERR_X509_UNKNOWN_OID) )
 534:D:/fchai/work/i-cube/I-CUBE-HUAWEI/Middlewares/Third_Party/Huawei/iot_link/network/dtls/mbedtls/mbedtls-2.16.2/library\error.c ****             mbedtls_snprintf( buf, buflen, "X509 - Requested OID is unknown" );
 535:D:/fchai/work/i-cube/I-CUBE-HUAWEI/Middlewares/Third_Party/Huawei/iot_link/network/dtls/mbedtls/mbedtls-2.16.2/library\error.c ****         if( use_ret == -(MBEDTLS_ERR_X509_INVALID_FORMAT) )
 536:D:/fchai/work/i-cube/I-CUBE-HUAWEI/Middlewares/Third_Party/Huawei/iot_link/network/dtls/mbedtls/mbedtls-2.16.2/library\error.c ****             mbedtls_snprintf( buf, buflen, "X509 - The CRT/CRL/CSR format is invalid, e.g. differen
 537:D:/fchai/work/i-cube/I-CUBE-HUAWEI/Middlewares/Third_Party/Huawei/iot_link/network/dtls/mbedtls/mbedtls-2.16.2/library\error.c ****         if( use_ret == -(MBEDTLS_ERR_X509_INVALID_VERSION) )
 538:D:/fchai/work/i-cube/I-CUBE-HUAWEI/Middlewares/Third_Party/Huawei/iot_link/network/dtls/mbedtls/mbedtls-2.16.2/library\error.c ****             mbedtls_snprintf( buf, buflen, "X509 - The CRT/CRL/CSR version element is invalid" );
 539:D:/fchai/work/i-cube/I-CUBE-HUAWEI/Middlewares/Third_Party/Huawei/iot_link/network/dtls/mbedtls/mbedtls-2.16.2/library\error.c ****         if( use_ret == -(MBEDTLS_ERR_X509_INVALID_SERIAL) )
 540:D:/fchai/work/i-cube/I-CUBE-HUAWEI/Middlewares/Third_Party/Huawei/iot_link/network/dtls/mbedtls/mbedtls-2.16.2/library\error.c ****             mbedtls_snprintf( buf, buflen, "X509 - The serial tag or value is invalid" );
ARM GAS  T:\msys\tmp\cceu68zA.s 			page 40


 541:D:/fchai/work/i-cube/I-CUBE-HUAWEI/Middlewares/Third_Party/Huawei/iot_link/network/dtls/mbedtls/mbedtls-2.16.2/library\error.c ****         if( use_ret == -(MBEDTLS_ERR_X509_INVALID_ALG) )
 542:D:/fchai/work/i-cube/I-CUBE-HUAWEI/Middlewares/Third_Party/Huawei/iot_link/network/dtls/mbedtls/mbedtls-2.16.2/library\error.c ****             mbedtls_snprintf( buf, buflen, "X509 - The algorithm tag or value is invalid" );
 543:D:/fchai/work/i-cube/I-CUBE-HUAWEI/Middlewares/Third_Party/Huawei/iot_link/network/dtls/mbedtls/mbedtls-2.16.2/library\error.c ****         if( use_ret == -(MBEDTLS_ERR_X509_INVALID_NAME) )
 544:D:/fchai/work/i-cube/I-CUBE-HUAWEI/Middlewares/Third_Party/Huawei/iot_link/network/dtls/mbedtls/mbedtls-2.16.2/library\error.c ****             mbedtls_snprintf( buf, buflen, "X509 - The name tag or value is invalid" );
 545:D:/fchai/work/i-cube/I-CUBE-HUAWEI/Middlewares/Third_Party/Huawei/iot_link/network/dtls/mbedtls/mbedtls-2.16.2/library\error.c ****         if( use_ret == -(MBEDTLS_ERR_X509_INVALID_DATE) )
 546:D:/fchai/work/i-cube/I-CUBE-HUAWEI/Middlewares/Third_Party/Huawei/iot_link/network/dtls/mbedtls/mbedtls-2.16.2/library\error.c ****             mbedtls_snprintf( buf, buflen, "X509 - The date tag or value is invalid" );
 547:D:/fchai/work/i-cube/I-CUBE-HUAWEI/Middlewares/Third_Party/Huawei/iot_link/network/dtls/mbedtls/mbedtls-2.16.2/library\error.c ****         if( use_ret == -(MBEDTLS_ERR_X509_INVALID_SIGNATURE) )
 548:D:/fchai/work/i-cube/I-CUBE-HUAWEI/Middlewares/Third_Party/Huawei/iot_link/network/dtls/mbedtls/mbedtls-2.16.2/library\error.c ****             mbedtls_snprintf( buf, buflen, "X509 - The signature tag or value invalid" );
 549:D:/fchai/work/i-cube/I-CUBE-HUAWEI/Middlewares/Third_Party/Huawei/iot_link/network/dtls/mbedtls/mbedtls-2.16.2/library\error.c ****         if( use_ret == -(MBEDTLS_ERR_X509_INVALID_EXTENSIONS) )
 550:D:/fchai/work/i-cube/I-CUBE-HUAWEI/Middlewares/Third_Party/Huawei/iot_link/network/dtls/mbedtls/mbedtls-2.16.2/library\error.c ****             mbedtls_snprintf( buf, buflen, "X509 - The extension tag or value is invalid" );
 551:D:/fchai/work/i-cube/I-CUBE-HUAWEI/Middlewares/Third_Party/Huawei/iot_link/network/dtls/mbedtls/mbedtls-2.16.2/library\error.c ****         if( use_ret == -(MBEDTLS_ERR_X509_UNKNOWN_VERSION) )
 552:D:/fchai/work/i-cube/I-CUBE-HUAWEI/Middlewares/Third_Party/Huawei/iot_link/network/dtls/mbedtls/mbedtls-2.16.2/library\error.c ****             mbedtls_snprintf( buf, buflen, "X509 - CRT/CRL/CSR has an unsupported version number" )
 553:D:/fchai/work/i-cube/I-CUBE-HUAWEI/Middlewares/Third_Party/Huawei/iot_link/network/dtls/mbedtls/mbedtls-2.16.2/library\error.c ****         if( use_ret == -(MBEDTLS_ERR_X509_UNKNOWN_SIG_ALG) )
 554:D:/fchai/work/i-cube/I-CUBE-HUAWEI/Middlewares/Third_Party/Huawei/iot_link/network/dtls/mbedtls/mbedtls-2.16.2/library\error.c ****             mbedtls_snprintf( buf, buflen, "X509 - Signature algorithm (oid) is unsupported" );
 555:D:/fchai/work/i-cube/I-CUBE-HUAWEI/Middlewares/Third_Party/Huawei/iot_link/network/dtls/mbedtls/mbedtls-2.16.2/library\error.c ****         if( use_ret == -(MBEDTLS_ERR_X509_SIG_MISMATCH) )
 556:D:/fchai/work/i-cube/I-CUBE-HUAWEI/Middlewares/Third_Party/Huawei/iot_link/network/dtls/mbedtls/mbedtls-2.16.2/library\error.c ****             mbedtls_snprintf( buf, buflen, "X509 - Signature algorithms do not match. (see \\c ::mb
 557:D:/fchai/work/i-cube/I-CUBE-HUAWEI/Middlewares/Third_Party/Huawei/iot_link/network/dtls/mbedtls/mbedtls-2.16.2/library\error.c ****         if( use_ret == -(MBEDTLS_ERR_X509_CERT_VERIFY_FAILED) )
 558:D:/fchai/work/i-cube/I-CUBE-HUAWEI/Middlewares/Third_Party/Huawei/iot_link/network/dtls/mbedtls/mbedtls-2.16.2/library\error.c ****             mbedtls_snprintf( buf, buflen, "X509 - Certificate verification failed, e.g. CRL, CA or
 559:D:/fchai/work/i-cube/I-CUBE-HUAWEI/Middlewares/Third_Party/Huawei/iot_link/network/dtls/mbedtls/mbedtls-2.16.2/library\error.c ****         if( use_ret == -(MBEDTLS_ERR_X509_CERT_UNKNOWN_FORMAT) )
 560:D:/fchai/work/i-cube/I-CUBE-HUAWEI/Middlewares/Third_Party/Huawei/iot_link/network/dtls/mbedtls/mbedtls-2.16.2/library\error.c ****             mbedtls_snprintf( buf, buflen, "X509 - Format not recognized as DER or PEM" );
 561:D:/fchai/work/i-cube/I-CUBE-HUAWEI/Middlewares/Third_Party/Huawei/iot_link/network/dtls/mbedtls/mbedtls-2.16.2/library\error.c ****         if( use_ret == -(MBEDTLS_ERR_X509_BAD_INPUT_DATA) )
 562:D:/fchai/work/i-cube/I-CUBE-HUAWEI/Middlewares/Third_Party/Huawei/iot_link/network/dtls/mbedtls/mbedtls-2.16.2/library\error.c ****             mbedtls_snprintf( buf, buflen, "X509 - Input invalid" );
 563:D:/fchai/work/i-cube/I-CUBE-HUAWEI/Middlewares/Third_Party/Huawei/iot_link/network/dtls/mbedtls/mbedtls-2.16.2/library\error.c ****         if( use_ret == -(MBEDTLS_ERR_X509_ALLOC_FAILED) )
 564:D:/fchai/work/i-cube/I-CUBE-HUAWEI/Middlewares/Third_Party/Huawei/iot_link/network/dtls/mbedtls/mbedtls-2.16.2/library\error.c ****             mbedtls_snprintf( buf, buflen, "X509 - Allocation of memory failed" );
 565:D:/fchai/work/i-cube/I-CUBE-HUAWEI/Middlewares/Third_Party/Huawei/iot_link/network/dtls/mbedtls/mbedtls-2.16.2/library\error.c ****         if( use_ret == -(MBEDTLS_ERR_X509_FILE_IO_ERROR) )
 566:D:/fchai/work/i-cube/I-CUBE-HUAWEI/Middlewares/Third_Party/Huawei/iot_link/network/dtls/mbedtls/mbedtls-2.16.2/library\error.c ****             mbedtls_snprintf( buf, buflen, "X509 - Read/write of file failed" );
 567:D:/fchai/work/i-cube/I-CUBE-HUAWEI/Middlewares/Third_Party/Huawei/iot_link/network/dtls/mbedtls/mbedtls-2.16.2/library\error.c ****         if( use_ret == -(MBEDTLS_ERR_X509_BUFFER_TOO_SMALL) )
 568:D:/fchai/work/i-cube/I-CUBE-HUAWEI/Middlewares/Third_Party/Huawei/iot_link/network/dtls/mbedtls/mbedtls-2.16.2/library\error.c ****             mbedtls_snprintf( buf, buflen, "X509 - Destination buffer is too small" );
 569:D:/fchai/work/i-cube/I-CUBE-HUAWEI/Middlewares/Third_Party/Huawei/iot_link/network/dtls/mbedtls/mbedtls-2.16.2/library\error.c ****         if( use_ret == -(MBEDTLS_ERR_X509_FATAL_ERROR) )
 570:D:/fchai/work/i-cube/I-CUBE-HUAWEI/Middlewares/Third_Party/Huawei/iot_link/network/dtls/mbedtls/mbedtls-2.16.2/library\error.c ****             mbedtls_snprintf( buf, buflen, "X509 - A fatal error occured, eg the chain is too long 
 571:D:/fchai/work/i-cube/I-CUBE-HUAWEI/Middlewares/Third_Party/Huawei/iot_link/network/dtls/mbedtls/mbedtls-2.16.2/library\error.c **** #endif /* MBEDTLS_X509_USE_C || MBEDTLS_X509_CREATE_C */
 572:D:/fchai/work/i-cube/I-CUBE-HUAWEI/Middlewares/Third_Party/Huawei/iot_link/network/dtls/mbedtls/mbedtls-2.16.2/library\error.c ****         // END generated code
 573:D:/fchai/work/i-cube/I-CUBE-HUAWEI/Middlewares/Third_Party/Huawei/iot_link/network/dtls/mbedtls/mbedtls-2.16.2/library\error.c **** 
 574:D:/fchai/work/i-cube/I-CUBE-HUAWEI/Middlewares/Third_Party/Huawei/iot_link/network/dtls/mbedtls/mbedtls-2.16.2/library\error.c ****         if( strlen( buf ) == 0 )
 735              		.loc 1 574 9 view .LVU22
 736              		.loc 1 574 11 is_stmt 0 view .LVU23
 737 003e 3378     		ldrb	r3, [r6]	@ zero_extendqisi2
 738 0040 3BB9     		cbnz	r3, .L5
 575:D:/fchai/work/i-cube/I-CUBE-HUAWEI/Middlewares/Third_Party/Huawei/iot_link/network/dtls/mbedtls/mbedtls-2.16.2/library\error.c ****             mbedtls_snprintf( buf, buflen, "UNKNOWN ERROR CODE (%04X)", use_ret );
 739              		.loc 1 575 13 is_stmt 1 view .LVU24
 740 0042 9A4B     		ldr	r3, .L207
 741 0044 9B4A     		ldr	r2, .L207+8
 742 0046 D3F80080 		ldr	r8, [r3]
 743 004a 2146     		mov	r1, r4
 744 004c 2B46     		mov	r3, r5
 745 004e 3046     		mov	r0, r6
 746 0050 C047     		blx	r8
 747              	.LVL6:
 748              	.L5:
 576:D:/fchai/work/i-cube/I-CUBE-HUAWEI/Middlewares/Third_Party/Huawei/iot_link/network/dtls/mbedtls/mbedtls-2.16.2/library\error.c ****     }
 577:D:/fchai/work/i-cube/I-CUBE-HUAWEI/Middlewares/Third_Party/Huawei/iot_link/network/dtls/mbedtls/mbedtls-2.16.2/library\error.c **** 
 578:D:/fchai/work/i-cube/I-CUBE-HUAWEI/Middlewares/Third_Party/Huawei/iot_link/network/dtls/mbedtls/mbedtls-2.16.2/library\error.c ****     use_ret = ret & ~0xFF80;
 749              		.loc 1 578 5 view .LVU25
 750              		.loc 1 578 13 is_stmt 0 view .LVU26
 751 0052 27F47F47 		bic	r7, r7, #65280
 752              	.LVL7:
 753              		.loc 1 578 13 view .LVU27
ARM GAS  T:\msys\tmp\cceu68zA.s 			page 41


 754 0056 27F08007 		bic	r7, r7, #128
 755              	.LVL8:
 579:D:/fchai/work/i-cube/I-CUBE-HUAWEI/Middlewares/Third_Party/Huawei/iot_link/network/dtls/mbedtls/mbedtls-2.16.2/library\error.c **** 
 580:D:/fchai/work/i-cube/I-CUBE-HUAWEI/Middlewares/Third_Party/Huawei/iot_link/network/dtls/mbedtls/mbedtls-2.16.2/library\error.c ****     if( use_ret == 0 )
 756              		.loc 1 580 5 is_stmt 1 view .LVU28
 757              		.loc 1 580 7 is_stmt 0 view .LVU29
 758 005a 3FB3     		cbz	r7, .L1
 581:D:/fchai/work/i-cube/I-CUBE-HUAWEI/Middlewares/Third_Party/Huawei/iot_link/network/dtls/mbedtls/mbedtls-2.16.2/library\error.c ****         return;
 582:D:/fchai/work/i-cube/I-CUBE-HUAWEI/Middlewares/Third_Party/Huawei/iot_link/network/dtls/mbedtls/mbedtls-2.16.2/library\error.c **** 
 583:D:/fchai/work/i-cube/I-CUBE-HUAWEI/Middlewares/Third_Party/Huawei/iot_link/network/dtls/mbedtls/mbedtls-2.16.2/library\error.c ****     // If high level code is present, make a concatenation between both
 584:D:/fchai/work/i-cube/I-CUBE-HUAWEI/Middlewares/Third_Party/Huawei/iot_link/network/dtls/mbedtls/mbedtls-2.16.2/library\error.c ****     // error strings.
 585:D:/fchai/work/i-cube/I-CUBE-HUAWEI/Middlewares/Third_Party/Huawei/iot_link/network/dtls/mbedtls/mbedtls-2.16.2/library\error.c ****     //
 586:D:/fchai/work/i-cube/I-CUBE-HUAWEI/Middlewares/Third_Party/Huawei/iot_link/network/dtls/mbedtls/mbedtls-2.16.2/library\error.c ****     len = strlen( buf );
 759              		.loc 1 586 5 is_stmt 1 view .LVU30
 760              		.loc 1 586 11 is_stmt 0 view .LVU31
 761 005c 3046     		mov	r0, r6
 762 005e FFF7FEFF 		bl	strlen
 763              	.LVL9:
 587:D:/fchai/work/i-cube/I-CUBE-HUAWEI/Middlewares/Third_Party/Huawei/iot_link/network/dtls/mbedtls/mbedtls-2.16.2/library\error.c **** 
 588:D:/fchai/work/i-cube/I-CUBE-HUAWEI/Middlewares/Third_Party/Huawei/iot_link/network/dtls/mbedtls/mbedtls-2.16.2/library\error.c ****     if( len > 0 )
 764              		.loc 1 588 5 is_stmt 1 view .LVU32
 765              		.loc 1 588 7 is_stmt 0 view .LVU33
 766 0062 0546     		mov	r5, r0
 767 0064 58B1     		cbz	r0, .L149
 589:D:/fchai/work/i-cube/I-CUBE-HUAWEI/Middlewares/Third_Party/Huawei/iot_link/network/dtls/mbedtls/mbedtls-2.16.2/library\error.c ****     {
 590:D:/fchai/work/i-cube/I-CUBE-HUAWEI/Middlewares/Third_Party/Huawei/iot_link/network/dtls/mbedtls/mbedtls-2.16.2/library\error.c ****         if( buflen - len < 5 )
 768              		.loc 1 590 9 is_stmt 1 view .LVU34
 769              		.loc 1 590 20 is_stmt 0 view .LVU35
 770 0066 241A     		subs	r4, r4, r0
 771              	.LVL10:
 772              		.loc 1 590 11 view .LVU36
 773 0068 042C     		cmp	r4, #4
 774 006a 1FD9     		bls	.L1
 591:D:/fchai/work/i-cube/I-CUBE-HUAWEI/Middlewares/Third_Party/Huawei/iot_link/network/dtls/mbedtls/mbedtls-2.16.2/library\error.c ****             return;
 592:D:/fchai/work/i-cube/I-CUBE-HUAWEI/Middlewares/Third_Party/Huawei/iot_link/network/dtls/mbedtls/mbedtls-2.16.2/library\error.c **** 
 593:D:/fchai/work/i-cube/I-CUBE-HUAWEI/Middlewares/Third_Party/Huawei/iot_link/network/dtls/mbedtls/mbedtls-2.16.2/library\error.c ****         mbedtls_snprintf( buf + len, buflen - len, " : " );
 775              		.loc 1 593 9 is_stmt 1 view .LVU37
 776 006c 8F4B     		ldr	r3, .L207
 777 006e 924A     		ldr	r2, .L207+12
 778 0070 1B68     		ldr	r3, [r3]
 779 0072 2146     		mov	r1, r4
 780 0074 3018     		adds	r0, r6, r0
 781              	.LVL11:
 782              		.loc 1 593 9 is_stmt 0 view .LVU38
 783 0076 9847     		blx	r3
 784              	.LVL12:
 594:D:/fchai/work/i-cube/I-CUBE-HUAWEI/Middlewares/Third_Party/Huawei/iot_link/network/dtls/mbedtls/mbedtls-2.16.2/library\error.c **** 
 595:D:/fchai/work/i-cube/I-CUBE-HUAWEI/Middlewares/Third_Party/Huawei/iot_link/network/dtls/mbedtls/mbedtls-2.16.2/library\error.c ****         buf += len + 3;
 785              		.loc 1 595 9 is_stmt 1 view .LVU39
 786              		.loc 1 595 13 is_stmt 0 view .LVU40
 787 0078 0335     		adds	r5, r5, #3
 788              	.LVL13:
 596:D:/fchai/work/i-cube/I-CUBE-HUAWEI/Middlewares/Third_Party/Huawei/iot_link/network/dtls/mbedtls/mbedtls-2.16.2/library\error.c ****         buflen -= len + 3;
 789              		.loc 1 596 16 view .LVU41
 790 007a 033C     		subs	r4, r4, #3
 595:D:/fchai/work/i-cube/I-CUBE-HUAWEI/Middlewares/Third_Party/Huawei/iot_link/network/dtls/mbedtls/mbedtls-2.16.2/library\error.c ****         buflen -= len + 3;
 791              		.loc 1 595 13 view .LVU42
ARM GAS  T:\msys\tmp\cceu68zA.s 			page 42


 792 007c 2E44     		add	r6, r6, r5
 793              	.LVL14:
 794              		.loc 1 596 9 is_stmt 1 view .LVU43
 795              	.L149:
 597:D:/fchai/work/i-cube/I-CUBE-HUAWEI/Middlewares/Third_Party/Huawei/iot_link/network/dtls/mbedtls/mbedtls-2.16.2/library\error.c ****     }
 598:D:/fchai/work/i-cube/I-CUBE-HUAWEI/Middlewares/Third_Party/Huawei/iot_link/network/dtls/mbedtls/mbedtls-2.16.2/library\error.c **** 
 599:D:/fchai/work/i-cube/I-CUBE-HUAWEI/Middlewares/Third_Party/Huawei/iot_link/network/dtls/mbedtls/mbedtls-2.16.2/library\error.c ****     // Low level error codes
 600:D:/fchai/work/i-cube/I-CUBE-HUAWEI/Middlewares/Third_Party/Huawei/iot_link/network/dtls/mbedtls/mbedtls-2.16.2/library\error.c ****     //
 601:D:/fchai/work/i-cube/I-CUBE-HUAWEI/Middlewares/Third_Party/Huawei/iot_link/network/dtls/mbedtls/mbedtls-2.16.2/library\error.c ****     // BEGIN generated code
 602:D:/fchai/work/i-cube/I-CUBE-HUAWEI/Middlewares/Third_Party/Huawei/iot_link/network/dtls/mbedtls/mbedtls-2.16.2/library\error.c **** #if defined(MBEDTLS_AES_C)
 603:D:/fchai/work/i-cube/I-CUBE-HUAWEI/Middlewares/Third_Party/Huawei/iot_link/network/dtls/mbedtls/mbedtls-2.16.2/library\error.c ****     if( use_ret == -(MBEDTLS_ERR_AES_INVALID_KEY_LENGTH) )
 796              		.loc 1 603 5 view .LVU44
 797              		.loc 1 603 7 is_stmt 0 view .LVU45
 798 007e 202F     		cmp	r7, #32
 799 0080 1DD0     		beq	.L205
 604:D:/fchai/work/i-cube/I-CUBE-HUAWEI/Middlewares/Third_Party/Huawei/iot_link/network/dtls/mbedtls/mbedtls-2.16.2/library\error.c ****         mbedtls_snprintf( buf, buflen, "AES - Invalid key length" );
 605:D:/fchai/work/i-cube/I-CUBE-HUAWEI/Middlewares/Third_Party/Huawei/iot_link/network/dtls/mbedtls/mbedtls-2.16.2/library\error.c ****     if( use_ret == -(MBEDTLS_ERR_AES_INVALID_INPUT_LENGTH) )
 800              		.loc 1 605 5 is_stmt 1 view .LVU46
 801              		.loc 1 605 7 is_stmt 0 view .LVU47
 802 0082 222F     		cmp	r7, #34
 803 0084 40F0BD83 		bne	.L152
 606:D:/fchai/work/i-cube/I-CUBE-HUAWEI/Middlewares/Third_Party/Huawei/iot_link/network/dtls/mbedtls/mbedtls-2.16.2/library\error.c ****         mbedtls_snprintf( buf, buflen, "AES - Invalid data input length" );
 804              		.loc 1 606 9 is_stmt 1 view .LVU48
 805 0088 884B     		ldr	r3, .L207
 806 008a 8C4A     		ldr	r2, .L207+16
 807 008c 1B68     		ldr	r3, [r3]
 808 008e 2146     		mov	r1, r4
 809 0090 3046     		mov	r0, r6
 810 0092 9847     		blx	r3
 811              	.LVL15:
 607:D:/fchai/work/i-cube/I-CUBE-HUAWEI/Middlewares/Third_Party/Huawei/iot_link/network/dtls/mbedtls/mbedtls-2.16.2/library\error.c ****     if( use_ret == -(MBEDTLS_ERR_AES_BAD_INPUT_DATA) )
 812              		.loc 1 607 5 view .LVU49
 608:D:/fchai/work/i-cube/I-CUBE-HUAWEI/Middlewares/Third_Party/Huawei/iot_link/network/dtls/mbedtls/mbedtls-2.16.2/library\error.c ****         mbedtls_snprintf( buf, buflen, "AES - Invalid input data" );
 609:D:/fchai/work/i-cube/I-CUBE-HUAWEI/Middlewares/Third_Party/Huawei/iot_link/network/dtls/mbedtls/mbedtls-2.16.2/library\error.c ****     if( use_ret == -(MBEDTLS_ERR_AES_FEATURE_UNAVAILABLE) )
 813              		.loc 1 609 5 view .LVU50
 814              	.L191:
 610:D:/fchai/work/i-cube/I-CUBE-HUAWEI/Middlewares/Third_Party/Huawei/iot_link/network/dtls/mbedtls/mbedtls-2.16.2/library\error.c ****         mbedtls_snprintf( buf, buflen, "AES - Feature not available. For example, an unsupported AE
 611:D:/fchai/work/i-cube/I-CUBE-HUAWEI/Middlewares/Third_Party/Huawei/iot_link/network/dtls/mbedtls/mbedtls-2.16.2/library\error.c ****     if( use_ret == -(MBEDTLS_ERR_AES_HW_ACCEL_FAILED) )
 612:D:/fchai/work/i-cube/I-CUBE-HUAWEI/Middlewares/Third_Party/Huawei/iot_link/network/dtls/mbedtls/mbedtls-2.16.2/library\error.c ****         mbedtls_snprintf( buf, buflen, "AES - AES hardware accelerator failed" );
 613:D:/fchai/work/i-cube/I-CUBE-HUAWEI/Middlewares/Third_Party/Huawei/iot_link/network/dtls/mbedtls/mbedtls-2.16.2/library\error.c **** #endif /* MBEDTLS_AES_C */
 614:D:/fchai/work/i-cube/I-CUBE-HUAWEI/Middlewares/Third_Party/Huawei/iot_link/network/dtls/mbedtls/mbedtls-2.16.2/library\error.c **** 
 615:D:/fchai/work/i-cube/I-CUBE-HUAWEI/Middlewares/Third_Party/Huawei/iot_link/network/dtls/mbedtls/mbedtls-2.16.2/library\error.c **** #if defined(MBEDTLS_ARC4_C)
 616:D:/fchai/work/i-cube/I-CUBE-HUAWEI/Middlewares/Third_Party/Huawei/iot_link/network/dtls/mbedtls/mbedtls-2.16.2/library\error.c ****     if( use_ret == -(MBEDTLS_ERR_ARC4_HW_ACCEL_FAILED) )
 617:D:/fchai/work/i-cube/I-CUBE-HUAWEI/Middlewares/Third_Party/Huawei/iot_link/network/dtls/mbedtls/mbedtls-2.16.2/library\error.c ****         mbedtls_snprintf( buf, buflen, "ARC4 - ARC4 hardware accelerator failed" );
 618:D:/fchai/work/i-cube/I-CUBE-HUAWEI/Middlewares/Third_Party/Huawei/iot_link/network/dtls/mbedtls/mbedtls-2.16.2/library\error.c **** #endif /* MBEDTLS_ARC4_C */
 619:D:/fchai/work/i-cube/I-CUBE-HUAWEI/Middlewares/Third_Party/Huawei/iot_link/network/dtls/mbedtls/mbedtls-2.16.2/library\error.c **** 
 620:D:/fchai/work/i-cube/I-CUBE-HUAWEI/Middlewares/Third_Party/Huawei/iot_link/network/dtls/mbedtls/mbedtls-2.16.2/library\error.c **** #if defined(MBEDTLS_ARIA_C)
 621:D:/fchai/work/i-cube/I-CUBE-HUAWEI/Middlewares/Third_Party/Huawei/iot_link/network/dtls/mbedtls/mbedtls-2.16.2/library\error.c ****     if( use_ret == -(MBEDTLS_ERR_ARIA_BAD_INPUT_DATA) )
 622:D:/fchai/work/i-cube/I-CUBE-HUAWEI/Middlewares/Third_Party/Huawei/iot_link/network/dtls/mbedtls/mbedtls-2.16.2/library\error.c ****         mbedtls_snprintf( buf, buflen, "ARIA - Bad input data" );
 623:D:/fchai/work/i-cube/I-CUBE-HUAWEI/Middlewares/Third_Party/Huawei/iot_link/network/dtls/mbedtls/mbedtls-2.16.2/library\error.c ****     if( use_ret == -(MBEDTLS_ERR_ARIA_INVALID_INPUT_LENGTH) )
 624:D:/fchai/work/i-cube/I-CUBE-HUAWEI/Middlewares/Third_Party/Huawei/iot_link/network/dtls/mbedtls/mbedtls-2.16.2/library\error.c ****         mbedtls_snprintf( buf, buflen, "ARIA - Invalid data input length" );
 625:D:/fchai/work/i-cube/I-CUBE-HUAWEI/Middlewares/Third_Party/Huawei/iot_link/network/dtls/mbedtls/mbedtls-2.16.2/library\error.c ****     if( use_ret == -(MBEDTLS_ERR_ARIA_FEATURE_UNAVAILABLE) )
 626:D:/fchai/work/i-cube/I-CUBE-HUAWEI/Middlewares/Third_Party/Huawei/iot_link/network/dtls/mbedtls/mbedtls-2.16.2/library\error.c ****         mbedtls_snprintf( buf, buflen, "ARIA - Feature not available. For example, an unsupported A
 627:D:/fchai/work/i-cube/I-CUBE-HUAWEI/Middlewares/Third_Party/Huawei/iot_link/network/dtls/mbedtls/mbedtls-2.16.2/library\error.c ****     if( use_ret == -(MBEDTLS_ERR_ARIA_HW_ACCEL_FAILED) )
 628:D:/fchai/work/i-cube/I-CUBE-HUAWEI/Middlewares/Third_Party/Huawei/iot_link/network/dtls/mbedtls/mbedtls-2.16.2/library\error.c ****         mbedtls_snprintf( buf, buflen, "ARIA - ARIA hardware accelerator failed" );
 629:D:/fchai/work/i-cube/I-CUBE-HUAWEI/Middlewares/Third_Party/Huawei/iot_link/network/dtls/mbedtls/mbedtls-2.16.2/library\error.c **** #endif /* MBEDTLS_ARIA_C */
 630:D:/fchai/work/i-cube/I-CUBE-HUAWEI/Middlewares/Third_Party/Huawei/iot_link/network/dtls/mbedtls/mbedtls-2.16.2/library\error.c **** 
ARM GAS  T:\msys\tmp\cceu68zA.s 			page 43


 631:D:/fchai/work/i-cube/I-CUBE-HUAWEI/Middlewares/Third_Party/Huawei/iot_link/network/dtls/mbedtls/mbedtls-2.16.2/library\error.c **** #if defined(MBEDTLS_ASN1_PARSE_C)
 632:D:/fchai/work/i-cube/I-CUBE-HUAWEI/Middlewares/Third_Party/Huawei/iot_link/network/dtls/mbedtls/mbedtls-2.16.2/library\error.c ****     if( use_ret == -(MBEDTLS_ERR_ASN1_OUT_OF_DATA) )
 633:D:/fchai/work/i-cube/I-CUBE-HUAWEI/Middlewares/Third_Party/Huawei/iot_link/network/dtls/mbedtls/mbedtls-2.16.2/library\error.c ****         mbedtls_snprintf( buf, buflen, "ASN1 - Out of data when parsing an ASN1 data structure" );
 634:D:/fchai/work/i-cube/I-CUBE-HUAWEI/Middlewares/Third_Party/Huawei/iot_link/network/dtls/mbedtls/mbedtls-2.16.2/library\error.c ****     if( use_ret == -(MBEDTLS_ERR_ASN1_UNEXPECTED_TAG) )
 635:D:/fchai/work/i-cube/I-CUBE-HUAWEI/Middlewares/Third_Party/Huawei/iot_link/network/dtls/mbedtls/mbedtls-2.16.2/library\error.c ****         mbedtls_snprintf( buf, buflen, "ASN1 - ASN1 tag was of an unexpected value" );
 636:D:/fchai/work/i-cube/I-CUBE-HUAWEI/Middlewares/Third_Party/Huawei/iot_link/network/dtls/mbedtls/mbedtls-2.16.2/library\error.c ****     if( use_ret == -(MBEDTLS_ERR_ASN1_INVALID_LENGTH) )
 637:D:/fchai/work/i-cube/I-CUBE-HUAWEI/Middlewares/Third_Party/Huawei/iot_link/network/dtls/mbedtls/mbedtls-2.16.2/library\error.c ****         mbedtls_snprintf( buf, buflen, "ASN1 - Error when trying to determine the length or invalid
 638:D:/fchai/work/i-cube/I-CUBE-HUAWEI/Middlewares/Third_Party/Huawei/iot_link/network/dtls/mbedtls/mbedtls-2.16.2/library\error.c ****     if( use_ret == -(MBEDTLS_ERR_ASN1_LENGTH_MISMATCH) )
 639:D:/fchai/work/i-cube/I-CUBE-HUAWEI/Middlewares/Third_Party/Huawei/iot_link/network/dtls/mbedtls/mbedtls-2.16.2/library\error.c ****         mbedtls_snprintf( buf, buflen, "ASN1 - Actual length differs from expected length" );
 640:D:/fchai/work/i-cube/I-CUBE-HUAWEI/Middlewares/Third_Party/Huawei/iot_link/network/dtls/mbedtls/mbedtls-2.16.2/library\error.c ****     if( use_ret == -(MBEDTLS_ERR_ASN1_INVALID_DATA) )
 641:D:/fchai/work/i-cube/I-CUBE-HUAWEI/Middlewares/Third_Party/Huawei/iot_link/network/dtls/mbedtls/mbedtls-2.16.2/library\error.c ****         mbedtls_snprintf( buf, buflen, "ASN1 - Data is invalid. (not used)" );
 642:D:/fchai/work/i-cube/I-CUBE-HUAWEI/Middlewares/Third_Party/Huawei/iot_link/network/dtls/mbedtls/mbedtls-2.16.2/library\error.c ****     if( use_ret == -(MBEDTLS_ERR_ASN1_ALLOC_FAILED) )
 643:D:/fchai/work/i-cube/I-CUBE-HUAWEI/Middlewares/Third_Party/Huawei/iot_link/network/dtls/mbedtls/mbedtls-2.16.2/library\error.c ****         mbedtls_snprintf( buf, buflen, "ASN1 - Memory allocation failed" );
 644:D:/fchai/work/i-cube/I-CUBE-HUAWEI/Middlewares/Third_Party/Huawei/iot_link/network/dtls/mbedtls/mbedtls-2.16.2/library\error.c ****     if( use_ret == -(MBEDTLS_ERR_ASN1_BUF_TOO_SMALL) )
 645:D:/fchai/work/i-cube/I-CUBE-HUAWEI/Middlewares/Third_Party/Huawei/iot_link/network/dtls/mbedtls/mbedtls-2.16.2/library\error.c ****         mbedtls_snprintf( buf, buflen, "ASN1 - Buffer too small when writing ASN.1 data structure" 
 646:D:/fchai/work/i-cube/I-CUBE-HUAWEI/Middlewares/Third_Party/Huawei/iot_link/network/dtls/mbedtls/mbedtls-2.16.2/library\error.c **** #endif /* MBEDTLS_ASN1_PARSE_C */
 647:D:/fchai/work/i-cube/I-CUBE-HUAWEI/Middlewares/Third_Party/Huawei/iot_link/network/dtls/mbedtls/mbedtls-2.16.2/library\error.c **** 
 648:D:/fchai/work/i-cube/I-CUBE-HUAWEI/Middlewares/Third_Party/Huawei/iot_link/network/dtls/mbedtls/mbedtls-2.16.2/library\error.c **** #if defined(MBEDTLS_BASE64_C)
 649:D:/fchai/work/i-cube/I-CUBE-HUAWEI/Middlewares/Third_Party/Huawei/iot_link/network/dtls/mbedtls/mbedtls-2.16.2/library\error.c ****     if( use_ret == -(MBEDTLS_ERR_BASE64_BUFFER_TOO_SMALL) )
 650:D:/fchai/work/i-cube/I-CUBE-HUAWEI/Middlewares/Third_Party/Huawei/iot_link/network/dtls/mbedtls/mbedtls-2.16.2/library\error.c ****         mbedtls_snprintf( buf, buflen, "BASE64 - Output buffer too small" );
 651:D:/fchai/work/i-cube/I-CUBE-HUAWEI/Middlewares/Third_Party/Huawei/iot_link/network/dtls/mbedtls/mbedtls-2.16.2/library\error.c ****     if( use_ret == -(MBEDTLS_ERR_BASE64_INVALID_CHARACTER) )
 652:D:/fchai/work/i-cube/I-CUBE-HUAWEI/Middlewares/Third_Party/Huawei/iot_link/network/dtls/mbedtls/mbedtls-2.16.2/library\error.c ****         mbedtls_snprintf( buf, buflen, "BASE64 - Invalid character in input" );
 653:D:/fchai/work/i-cube/I-CUBE-HUAWEI/Middlewares/Third_Party/Huawei/iot_link/network/dtls/mbedtls/mbedtls-2.16.2/library\error.c **** #endif /* MBEDTLS_BASE64_C */
 654:D:/fchai/work/i-cube/I-CUBE-HUAWEI/Middlewares/Third_Party/Huawei/iot_link/network/dtls/mbedtls/mbedtls-2.16.2/library\error.c **** 
 655:D:/fchai/work/i-cube/I-CUBE-HUAWEI/Middlewares/Third_Party/Huawei/iot_link/network/dtls/mbedtls/mbedtls-2.16.2/library\error.c **** #if defined(MBEDTLS_BIGNUM_C)
 656:D:/fchai/work/i-cube/I-CUBE-HUAWEI/Middlewares/Third_Party/Huawei/iot_link/network/dtls/mbedtls/mbedtls-2.16.2/library\error.c ****     if( use_ret == -(MBEDTLS_ERR_MPI_FILE_IO_ERROR) )
 657:D:/fchai/work/i-cube/I-CUBE-HUAWEI/Middlewares/Third_Party/Huawei/iot_link/network/dtls/mbedtls/mbedtls-2.16.2/library\error.c ****         mbedtls_snprintf( buf, buflen, "BIGNUM - An error occurred while reading from or writing to
 658:D:/fchai/work/i-cube/I-CUBE-HUAWEI/Middlewares/Third_Party/Huawei/iot_link/network/dtls/mbedtls/mbedtls-2.16.2/library\error.c ****     if( use_ret == -(MBEDTLS_ERR_MPI_BAD_INPUT_DATA) )
 659:D:/fchai/work/i-cube/I-CUBE-HUAWEI/Middlewares/Third_Party/Huawei/iot_link/network/dtls/mbedtls/mbedtls-2.16.2/library\error.c ****         mbedtls_snprintf( buf, buflen, "BIGNUM - Bad input parameters to function" );
 660:D:/fchai/work/i-cube/I-CUBE-HUAWEI/Middlewares/Third_Party/Huawei/iot_link/network/dtls/mbedtls/mbedtls-2.16.2/library\error.c ****     if( use_ret == -(MBEDTLS_ERR_MPI_INVALID_CHARACTER) )
 661:D:/fchai/work/i-cube/I-CUBE-HUAWEI/Middlewares/Third_Party/Huawei/iot_link/network/dtls/mbedtls/mbedtls-2.16.2/library\error.c ****         mbedtls_snprintf( buf, buflen, "BIGNUM - There is an invalid character in the digit string"
 662:D:/fchai/work/i-cube/I-CUBE-HUAWEI/Middlewares/Third_Party/Huawei/iot_link/network/dtls/mbedtls/mbedtls-2.16.2/library\error.c ****     if( use_ret == -(MBEDTLS_ERR_MPI_BUFFER_TOO_SMALL) )
 663:D:/fchai/work/i-cube/I-CUBE-HUAWEI/Middlewares/Third_Party/Huawei/iot_link/network/dtls/mbedtls/mbedtls-2.16.2/library\error.c ****         mbedtls_snprintf( buf, buflen, "BIGNUM - The buffer is too small to write to" );
 664:D:/fchai/work/i-cube/I-CUBE-HUAWEI/Middlewares/Third_Party/Huawei/iot_link/network/dtls/mbedtls/mbedtls-2.16.2/library\error.c ****     if( use_ret == -(MBEDTLS_ERR_MPI_NEGATIVE_VALUE) )
 665:D:/fchai/work/i-cube/I-CUBE-HUAWEI/Middlewares/Third_Party/Huawei/iot_link/network/dtls/mbedtls/mbedtls-2.16.2/library\error.c ****         mbedtls_snprintf( buf, buflen, "BIGNUM - The input arguments are negative or result in ille
 666:D:/fchai/work/i-cube/I-CUBE-HUAWEI/Middlewares/Third_Party/Huawei/iot_link/network/dtls/mbedtls/mbedtls-2.16.2/library\error.c ****     if( use_ret == -(MBEDTLS_ERR_MPI_DIVISION_BY_ZERO) )
 667:D:/fchai/work/i-cube/I-CUBE-HUAWEI/Middlewares/Third_Party/Huawei/iot_link/network/dtls/mbedtls/mbedtls-2.16.2/library\error.c ****         mbedtls_snprintf( buf, buflen, "BIGNUM - The input argument for division is zero, which is 
 668:D:/fchai/work/i-cube/I-CUBE-HUAWEI/Middlewares/Third_Party/Huawei/iot_link/network/dtls/mbedtls/mbedtls-2.16.2/library\error.c ****     if( use_ret == -(MBEDTLS_ERR_MPI_NOT_ACCEPTABLE) )
 669:D:/fchai/work/i-cube/I-CUBE-HUAWEI/Middlewares/Third_Party/Huawei/iot_link/network/dtls/mbedtls/mbedtls-2.16.2/library\error.c ****         mbedtls_snprintf( buf, buflen, "BIGNUM - The input arguments are not acceptable" );
 670:D:/fchai/work/i-cube/I-CUBE-HUAWEI/Middlewares/Third_Party/Huawei/iot_link/network/dtls/mbedtls/mbedtls-2.16.2/library\error.c ****     if( use_ret == -(MBEDTLS_ERR_MPI_ALLOC_FAILED) )
 671:D:/fchai/work/i-cube/I-CUBE-HUAWEI/Middlewares/Third_Party/Huawei/iot_link/network/dtls/mbedtls/mbedtls-2.16.2/library\error.c ****         mbedtls_snprintf( buf, buflen, "BIGNUM - Memory allocation failed" );
 672:D:/fchai/work/i-cube/I-CUBE-HUAWEI/Middlewares/Third_Party/Huawei/iot_link/network/dtls/mbedtls/mbedtls-2.16.2/library\error.c **** #endif /* MBEDTLS_BIGNUM_C */
 673:D:/fchai/work/i-cube/I-CUBE-HUAWEI/Middlewares/Third_Party/Huawei/iot_link/network/dtls/mbedtls/mbedtls-2.16.2/library\error.c **** 
 674:D:/fchai/work/i-cube/I-CUBE-HUAWEI/Middlewares/Third_Party/Huawei/iot_link/network/dtls/mbedtls/mbedtls-2.16.2/library\error.c **** #if defined(MBEDTLS_BLOWFISH_C)
 675:D:/fchai/work/i-cube/I-CUBE-HUAWEI/Middlewares/Third_Party/Huawei/iot_link/network/dtls/mbedtls/mbedtls-2.16.2/library\error.c ****     if( use_ret == -(MBEDTLS_ERR_BLOWFISH_BAD_INPUT_DATA) )
 676:D:/fchai/work/i-cube/I-CUBE-HUAWEI/Middlewares/Third_Party/Huawei/iot_link/network/dtls/mbedtls/mbedtls-2.16.2/library\error.c ****         mbedtls_snprintf( buf, buflen, "BLOWFISH - Bad input data" );
 677:D:/fchai/work/i-cube/I-CUBE-HUAWEI/Middlewares/Third_Party/Huawei/iot_link/network/dtls/mbedtls/mbedtls-2.16.2/library\error.c ****     if( use_ret == -(MBEDTLS_ERR_BLOWFISH_INVALID_INPUT_LENGTH) )
 678:D:/fchai/work/i-cube/I-CUBE-HUAWEI/Middlewares/Third_Party/Huawei/iot_link/network/dtls/mbedtls/mbedtls-2.16.2/library\error.c ****         mbedtls_snprintf( buf, buflen, "BLOWFISH - Invalid data input length" );
 679:D:/fchai/work/i-cube/I-CUBE-HUAWEI/Middlewares/Third_Party/Huawei/iot_link/network/dtls/mbedtls/mbedtls-2.16.2/library\error.c ****     if( use_ret == -(MBEDTLS_ERR_BLOWFISH_HW_ACCEL_FAILED) )
 680:D:/fchai/work/i-cube/I-CUBE-HUAWEI/Middlewares/Third_Party/Huawei/iot_link/network/dtls/mbedtls/mbedtls-2.16.2/library\error.c ****         mbedtls_snprintf( buf, buflen, "BLOWFISH - Blowfish hardware accelerator failed" );
 681:D:/fchai/work/i-cube/I-CUBE-HUAWEI/Middlewares/Third_Party/Huawei/iot_link/network/dtls/mbedtls/mbedtls-2.16.2/library\error.c **** #endif /* MBEDTLS_BLOWFISH_C */
 682:D:/fchai/work/i-cube/I-CUBE-HUAWEI/Middlewares/Third_Party/Huawei/iot_link/network/dtls/mbedtls/mbedtls-2.16.2/library\error.c **** 
 683:D:/fchai/work/i-cube/I-CUBE-HUAWEI/Middlewares/Third_Party/Huawei/iot_link/network/dtls/mbedtls/mbedtls-2.16.2/library\error.c **** #if defined(MBEDTLS_CAMELLIA_C)
 684:D:/fchai/work/i-cube/I-CUBE-HUAWEI/Middlewares/Third_Party/Huawei/iot_link/network/dtls/mbedtls/mbedtls-2.16.2/library\error.c ****     if( use_ret == -(MBEDTLS_ERR_CAMELLIA_BAD_INPUT_DATA) )
 685:D:/fchai/work/i-cube/I-CUBE-HUAWEI/Middlewares/Third_Party/Huawei/iot_link/network/dtls/mbedtls/mbedtls-2.16.2/library\error.c ****         mbedtls_snprintf( buf, buflen, "CAMELLIA - Bad input data" );
 686:D:/fchai/work/i-cube/I-CUBE-HUAWEI/Middlewares/Third_Party/Huawei/iot_link/network/dtls/mbedtls/mbedtls-2.16.2/library\error.c ****     if( use_ret == -(MBEDTLS_ERR_CAMELLIA_INVALID_INPUT_LENGTH) )
 687:D:/fchai/work/i-cube/I-CUBE-HUAWEI/Middlewares/Third_Party/Huawei/iot_link/network/dtls/mbedtls/mbedtls-2.16.2/library\error.c ****         mbedtls_snprintf( buf, buflen, "CAMELLIA - Invalid data input length" );
ARM GAS  T:\msys\tmp\cceu68zA.s 			page 44


 688:D:/fchai/work/i-cube/I-CUBE-HUAWEI/Middlewares/Third_Party/Huawei/iot_link/network/dtls/mbedtls/mbedtls-2.16.2/library\error.c ****     if( use_ret == -(MBEDTLS_ERR_CAMELLIA_HW_ACCEL_FAILED) )
 689:D:/fchai/work/i-cube/I-CUBE-HUAWEI/Middlewares/Third_Party/Huawei/iot_link/network/dtls/mbedtls/mbedtls-2.16.2/library\error.c ****         mbedtls_snprintf( buf, buflen, "CAMELLIA - Camellia hardware accelerator failed" );
 690:D:/fchai/work/i-cube/I-CUBE-HUAWEI/Middlewares/Third_Party/Huawei/iot_link/network/dtls/mbedtls/mbedtls-2.16.2/library\error.c **** #endif /* MBEDTLS_CAMELLIA_C */
 691:D:/fchai/work/i-cube/I-CUBE-HUAWEI/Middlewares/Third_Party/Huawei/iot_link/network/dtls/mbedtls/mbedtls-2.16.2/library\error.c **** 
 692:D:/fchai/work/i-cube/I-CUBE-HUAWEI/Middlewares/Third_Party/Huawei/iot_link/network/dtls/mbedtls/mbedtls-2.16.2/library\error.c **** #if defined(MBEDTLS_CCM_C)
 693:D:/fchai/work/i-cube/I-CUBE-HUAWEI/Middlewares/Third_Party/Huawei/iot_link/network/dtls/mbedtls/mbedtls-2.16.2/library\error.c ****     if( use_ret == -(MBEDTLS_ERR_CCM_BAD_INPUT) )
 694:D:/fchai/work/i-cube/I-CUBE-HUAWEI/Middlewares/Third_Party/Huawei/iot_link/network/dtls/mbedtls/mbedtls-2.16.2/library\error.c ****         mbedtls_snprintf( buf, buflen, "CCM - Bad input parameters to the function" );
 695:D:/fchai/work/i-cube/I-CUBE-HUAWEI/Middlewares/Third_Party/Huawei/iot_link/network/dtls/mbedtls/mbedtls-2.16.2/library\error.c ****     if( use_ret == -(MBEDTLS_ERR_CCM_AUTH_FAILED) )
 696:D:/fchai/work/i-cube/I-CUBE-HUAWEI/Middlewares/Third_Party/Huawei/iot_link/network/dtls/mbedtls/mbedtls-2.16.2/library\error.c ****         mbedtls_snprintf( buf, buflen, "CCM - Authenticated decryption failed" );
 697:D:/fchai/work/i-cube/I-CUBE-HUAWEI/Middlewares/Third_Party/Huawei/iot_link/network/dtls/mbedtls/mbedtls-2.16.2/library\error.c ****     if( use_ret == -(MBEDTLS_ERR_CCM_HW_ACCEL_FAILED) )
 698:D:/fchai/work/i-cube/I-CUBE-HUAWEI/Middlewares/Third_Party/Huawei/iot_link/network/dtls/mbedtls/mbedtls-2.16.2/library\error.c ****         mbedtls_snprintf( buf, buflen, "CCM - CCM hardware accelerator failed" );
 699:D:/fchai/work/i-cube/I-CUBE-HUAWEI/Middlewares/Third_Party/Huawei/iot_link/network/dtls/mbedtls/mbedtls-2.16.2/library\error.c **** #endif /* MBEDTLS_CCM_C */
 700:D:/fchai/work/i-cube/I-CUBE-HUAWEI/Middlewares/Third_Party/Huawei/iot_link/network/dtls/mbedtls/mbedtls-2.16.2/library\error.c **** 
 701:D:/fchai/work/i-cube/I-CUBE-HUAWEI/Middlewares/Third_Party/Huawei/iot_link/network/dtls/mbedtls/mbedtls-2.16.2/library\error.c **** #if defined(MBEDTLS_CHACHA20_C)
 702:D:/fchai/work/i-cube/I-CUBE-HUAWEI/Middlewares/Third_Party/Huawei/iot_link/network/dtls/mbedtls/mbedtls-2.16.2/library\error.c ****     if( use_ret == -(MBEDTLS_ERR_CHACHA20_BAD_INPUT_DATA) )
 703:D:/fchai/work/i-cube/I-CUBE-HUAWEI/Middlewares/Third_Party/Huawei/iot_link/network/dtls/mbedtls/mbedtls-2.16.2/library\error.c ****         mbedtls_snprintf( buf, buflen, "CHACHA20 - Invalid input parameter(s)" );
 704:D:/fchai/work/i-cube/I-CUBE-HUAWEI/Middlewares/Third_Party/Huawei/iot_link/network/dtls/mbedtls/mbedtls-2.16.2/library\error.c ****     if( use_ret == -(MBEDTLS_ERR_CHACHA20_FEATURE_UNAVAILABLE) )
 705:D:/fchai/work/i-cube/I-CUBE-HUAWEI/Middlewares/Third_Party/Huawei/iot_link/network/dtls/mbedtls/mbedtls-2.16.2/library\error.c ****         mbedtls_snprintf( buf, buflen, "CHACHA20 - Feature not available. For example, s part of th
 706:D:/fchai/work/i-cube/I-CUBE-HUAWEI/Middlewares/Third_Party/Huawei/iot_link/network/dtls/mbedtls/mbedtls-2.16.2/library\error.c ****     if( use_ret == -(MBEDTLS_ERR_CHACHA20_HW_ACCEL_FAILED) )
 707:D:/fchai/work/i-cube/I-CUBE-HUAWEI/Middlewares/Third_Party/Huawei/iot_link/network/dtls/mbedtls/mbedtls-2.16.2/library\error.c ****         mbedtls_snprintf( buf, buflen, "CHACHA20 - Chacha20 hardware accelerator failed" );
 708:D:/fchai/work/i-cube/I-CUBE-HUAWEI/Middlewares/Third_Party/Huawei/iot_link/network/dtls/mbedtls/mbedtls-2.16.2/library\error.c **** #endif /* MBEDTLS_CHACHA20_C */
 709:D:/fchai/work/i-cube/I-CUBE-HUAWEI/Middlewares/Third_Party/Huawei/iot_link/network/dtls/mbedtls/mbedtls-2.16.2/library\error.c **** 
 710:D:/fchai/work/i-cube/I-CUBE-HUAWEI/Middlewares/Third_Party/Huawei/iot_link/network/dtls/mbedtls/mbedtls-2.16.2/library\error.c **** #if defined(MBEDTLS_CHACHAPOLY_C)
 711:D:/fchai/work/i-cube/I-CUBE-HUAWEI/Middlewares/Third_Party/Huawei/iot_link/network/dtls/mbedtls/mbedtls-2.16.2/library\error.c ****     if( use_ret == -(MBEDTLS_ERR_CHACHAPOLY_BAD_STATE) )
 712:D:/fchai/work/i-cube/I-CUBE-HUAWEI/Middlewares/Third_Party/Huawei/iot_link/network/dtls/mbedtls/mbedtls-2.16.2/library\error.c ****         mbedtls_snprintf( buf, buflen, "CHACHAPOLY - The requested operation is not permitted in th
 713:D:/fchai/work/i-cube/I-CUBE-HUAWEI/Middlewares/Third_Party/Huawei/iot_link/network/dtls/mbedtls/mbedtls-2.16.2/library\error.c ****     if( use_ret == -(MBEDTLS_ERR_CHACHAPOLY_AUTH_FAILED) )
 714:D:/fchai/work/i-cube/I-CUBE-HUAWEI/Middlewares/Third_Party/Huawei/iot_link/network/dtls/mbedtls/mbedtls-2.16.2/library\error.c ****         mbedtls_snprintf( buf, buflen, "CHACHAPOLY - Authenticated decryption failed: data was not 
 715:D:/fchai/work/i-cube/I-CUBE-HUAWEI/Middlewares/Third_Party/Huawei/iot_link/network/dtls/mbedtls/mbedtls-2.16.2/library\error.c **** #endif /* MBEDTLS_CHACHAPOLY_C */
 716:D:/fchai/work/i-cube/I-CUBE-HUAWEI/Middlewares/Third_Party/Huawei/iot_link/network/dtls/mbedtls/mbedtls-2.16.2/library\error.c **** 
 717:D:/fchai/work/i-cube/I-CUBE-HUAWEI/Middlewares/Third_Party/Huawei/iot_link/network/dtls/mbedtls/mbedtls-2.16.2/library\error.c **** #if defined(MBEDTLS_CMAC_C)
 718:D:/fchai/work/i-cube/I-CUBE-HUAWEI/Middlewares/Third_Party/Huawei/iot_link/network/dtls/mbedtls/mbedtls-2.16.2/library\error.c ****     if( use_ret == -(MBEDTLS_ERR_CMAC_HW_ACCEL_FAILED) )
 719:D:/fchai/work/i-cube/I-CUBE-HUAWEI/Middlewares/Third_Party/Huawei/iot_link/network/dtls/mbedtls/mbedtls-2.16.2/library\error.c ****         mbedtls_snprintf( buf, buflen, "CMAC - CMAC hardware accelerator failed" );
 720:D:/fchai/work/i-cube/I-CUBE-HUAWEI/Middlewares/Third_Party/Huawei/iot_link/network/dtls/mbedtls/mbedtls-2.16.2/library\error.c **** #endif /* MBEDTLS_CMAC_C */
 721:D:/fchai/work/i-cube/I-CUBE-HUAWEI/Middlewares/Third_Party/Huawei/iot_link/network/dtls/mbedtls/mbedtls-2.16.2/library\error.c **** 
 722:D:/fchai/work/i-cube/I-CUBE-HUAWEI/Middlewares/Third_Party/Huawei/iot_link/network/dtls/mbedtls/mbedtls-2.16.2/library\error.c **** #if defined(MBEDTLS_CTR_DRBG_C)
 723:D:/fchai/work/i-cube/I-CUBE-HUAWEI/Middlewares/Third_Party/Huawei/iot_link/network/dtls/mbedtls/mbedtls-2.16.2/library\error.c ****     if( use_ret == -(MBEDTLS_ERR_CTR_DRBG_ENTROPY_SOURCE_FAILED) )
 724:D:/fchai/work/i-cube/I-CUBE-HUAWEI/Middlewares/Third_Party/Huawei/iot_link/network/dtls/mbedtls/mbedtls-2.16.2/library\error.c ****         mbedtls_snprintf( buf, buflen, "CTR_DRBG - The entropy source failed" );
 725:D:/fchai/work/i-cube/I-CUBE-HUAWEI/Middlewares/Third_Party/Huawei/iot_link/network/dtls/mbedtls/mbedtls-2.16.2/library\error.c ****     if( use_ret == -(MBEDTLS_ERR_CTR_DRBG_REQUEST_TOO_BIG) )
 726:D:/fchai/work/i-cube/I-CUBE-HUAWEI/Middlewares/Third_Party/Huawei/iot_link/network/dtls/mbedtls/mbedtls-2.16.2/library\error.c ****         mbedtls_snprintf( buf, buflen, "CTR_DRBG - The requested random buffer length is too big" )
 727:D:/fchai/work/i-cube/I-CUBE-HUAWEI/Middlewares/Third_Party/Huawei/iot_link/network/dtls/mbedtls/mbedtls-2.16.2/library\error.c ****     if( use_ret == -(MBEDTLS_ERR_CTR_DRBG_INPUT_TOO_BIG) )
 728:D:/fchai/work/i-cube/I-CUBE-HUAWEI/Middlewares/Third_Party/Huawei/iot_link/network/dtls/mbedtls/mbedtls-2.16.2/library\error.c ****         mbedtls_snprintf( buf, buflen, "CTR_DRBG - The input (entropy + additional data) is too lar
 729:D:/fchai/work/i-cube/I-CUBE-HUAWEI/Middlewares/Third_Party/Huawei/iot_link/network/dtls/mbedtls/mbedtls-2.16.2/library\error.c ****     if( use_ret == -(MBEDTLS_ERR_CTR_DRBG_FILE_IO_ERROR) )
 730:D:/fchai/work/i-cube/I-CUBE-HUAWEI/Middlewares/Third_Party/Huawei/iot_link/network/dtls/mbedtls/mbedtls-2.16.2/library\error.c ****         mbedtls_snprintf( buf, buflen, "CTR_DRBG - Read or write error in file" );
 731:D:/fchai/work/i-cube/I-CUBE-HUAWEI/Middlewares/Third_Party/Huawei/iot_link/network/dtls/mbedtls/mbedtls-2.16.2/library\error.c **** #endif /* MBEDTLS_CTR_DRBG_C */
 732:D:/fchai/work/i-cube/I-CUBE-HUAWEI/Middlewares/Third_Party/Huawei/iot_link/network/dtls/mbedtls/mbedtls-2.16.2/library\error.c **** 
 733:D:/fchai/work/i-cube/I-CUBE-HUAWEI/Middlewares/Third_Party/Huawei/iot_link/network/dtls/mbedtls/mbedtls-2.16.2/library\error.c **** #if defined(MBEDTLS_DES_C)
 734:D:/fchai/work/i-cube/I-CUBE-HUAWEI/Middlewares/Third_Party/Huawei/iot_link/network/dtls/mbedtls/mbedtls-2.16.2/library\error.c ****     if( use_ret == -(MBEDTLS_ERR_DES_INVALID_INPUT_LENGTH) )
 735:D:/fchai/work/i-cube/I-CUBE-HUAWEI/Middlewares/Third_Party/Huawei/iot_link/network/dtls/mbedtls/mbedtls-2.16.2/library\error.c ****         mbedtls_snprintf( buf, buflen, "DES - The data input has an invalid length" );
 736:D:/fchai/work/i-cube/I-CUBE-HUAWEI/Middlewares/Third_Party/Huawei/iot_link/network/dtls/mbedtls/mbedtls-2.16.2/library\error.c ****     if( use_ret == -(MBEDTLS_ERR_DES_HW_ACCEL_FAILED) )
 737:D:/fchai/work/i-cube/I-CUBE-HUAWEI/Middlewares/Third_Party/Huawei/iot_link/network/dtls/mbedtls/mbedtls-2.16.2/library\error.c ****         mbedtls_snprintf( buf, buflen, "DES - DES hardware accelerator failed" );
 738:D:/fchai/work/i-cube/I-CUBE-HUAWEI/Middlewares/Third_Party/Huawei/iot_link/network/dtls/mbedtls/mbedtls-2.16.2/library\error.c **** #endif /* MBEDTLS_DES_C */
 739:D:/fchai/work/i-cube/I-CUBE-HUAWEI/Middlewares/Third_Party/Huawei/iot_link/network/dtls/mbedtls/mbedtls-2.16.2/library\error.c **** 
 740:D:/fchai/work/i-cube/I-CUBE-HUAWEI/Middlewares/Third_Party/Huawei/iot_link/network/dtls/mbedtls/mbedtls-2.16.2/library\error.c **** #if defined(MBEDTLS_ENTROPY_C)
 741:D:/fchai/work/i-cube/I-CUBE-HUAWEI/Middlewares/Third_Party/Huawei/iot_link/network/dtls/mbedtls/mbedtls-2.16.2/library\error.c ****     if( use_ret == -(MBEDTLS_ERR_ENTROPY_SOURCE_FAILED) )
 742:D:/fchai/work/i-cube/I-CUBE-HUAWEI/Middlewares/Third_Party/Huawei/iot_link/network/dtls/mbedtls/mbedtls-2.16.2/library\error.c ****         mbedtls_snprintf( buf, buflen, "ENTROPY - Critical entropy source failure" );
 743:D:/fchai/work/i-cube/I-CUBE-HUAWEI/Middlewares/Third_Party/Huawei/iot_link/network/dtls/mbedtls/mbedtls-2.16.2/library\error.c ****     if( use_ret == -(MBEDTLS_ERR_ENTROPY_MAX_SOURCES) )
 744:D:/fchai/work/i-cube/I-CUBE-HUAWEI/Middlewares/Third_Party/Huawei/iot_link/network/dtls/mbedtls/mbedtls-2.16.2/library\error.c ****         mbedtls_snprintf( buf, buflen, "ENTROPY - No more sources can be added" );
ARM GAS  T:\msys\tmp\cceu68zA.s 			page 45


 745:D:/fchai/work/i-cube/I-CUBE-HUAWEI/Middlewares/Third_Party/Huawei/iot_link/network/dtls/mbedtls/mbedtls-2.16.2/library\error.c ****     if( use_ret == -(MBEDTLS_ERR_ENTROPY_NO_SOURCES_DEFINED) )
 746:D:/fchai/work/i-cube/I-CUBE-HUAWEI/Middlewares/Third_Party/Huawei/iot_link/network/dtls/mbedtls/mbedtls-2.16.2/library\error.c ****         mbedtls_snprintf( buf, buflen, "ENTROPY - No sources have been added to poll" );
 747:D:/fchai/work/i-cube/I-CUBE-HUAWEI/Middlewares/Third_Party/Huawei/iot_link/network/dtls/mbedtls/mbedtls-2.16.2/library\error.c ****     if( use_ret == -(MBEDTLS_ERR_ENTROPY_NO_STRONG_SOURCE) )
 748:D:/fchai/work/i-cube/I-CUBE-HUAWEI/Middlewares/Third_Party/Huawei/iot_link/network/dtls/mbedtls/mbedtls-2.16.2/library\error.c ****         mbedtls_snprintf( buf, buflen, "ENTROPY - No strong sources have been added to poll" );
 749:D:/fchai/work/i-cube/I-CUBE-HUAWEI/Middlewares/Third_Party/Huawei/iot_link/network/dtls/mbedtls/mbedtls-2.16.2/library\error.c ****     if( use_ret == -(MBEDTLS_ERR_ENTROPY_FILE_IO_ERROR) )
 750:D:/fchai/work/i-cube/I-CUBE-HUAWEI/Middlewares/Third_Party/Huawei/iot_link/network/dtls/mbedtls/mbedtls-2.16.2/library\error.c ****         mbedtls_snprintf( buf, buflen, "ENTROPY - Read/write error in file" );
 751:D:/fchai/work/i-cube/I-CUBE-HUAWEI/Middlewares/Third_Party/Huawei/iot_link/network/dtls/mbedtls/mbedtls-2.16.2/library\error.c **** #endif /* MBEDTLS_ENTROPY_C */
 752:D:/fchai/work/i-cube/I-CUBE-HUAWEI/Middlewares/Third_Party/Huawei/iot_link/network/dtls/mbedtls/mbedtls-2.16.2/library\error.c **** 
 753:D:/fchai/work/i-cube/I-CUBE-HUAWEI/Middlewares/Third_Party/Huawei/iot_link/network/dtls/mbedtls/mbedtls-2.16.2/library\error.c **** #if defined(MBEDTLS_GCM_C)
 754:D:/fchai/work/i-cube/I-CUBE-HUAWEI/Middlewares/Third_Party/Huawei/iot_link/network/dtls/mbedtls/mbedtls-2.16.2/library\error.c ****     if( use_ret == -(MBEDTLS_ERR_GCM_AUTH_FAILED) )
 755:D:/fchai/work/i-cube/I-CUBE-HUAWEI/Middlewares/Third_Party/Huawei/iot_link/network/dtls/mbedtls/mbedtls-2.16.2/library\error.c ****         mbedtls_snprintf( buf, buflen, "GCM - Authenticated decryption failed" );
 756:D:/fchai/work/i-cube/I-CUBE-HUAWEI/Middlewares/Third_Party/Huawei/iot_link/network/dtls/mbedtls/mbedtls-2.16.2/library\error.c ****     if( use_ret == -(MBEDTLS_ERR_GCM_HW_ACCEL_FAILED) )
 757:D:/fchai/work/i-cube/I-CUBE-HUAWEI/Middlewares/Third_Party/Huawei/iot_link/network/dtls/mbedtls/mbedtls-2.16.2/library\error.c ****         mbedtls_snprintf( buf, buflen, "GCM - GCM hardware accelerator failed" );
 758:D:/fchai/work/i-cube/I-CUBE-HUAWEI/Middlewares/Third_Party/Huawei/iot_link/network/dtls/mbedtls/mbedtls-2.16.2/library\error.c ****     if( use_ret == -(MBEDTLS_ERR_GCM_BAD_INPUT) )
 759:D:/fchai/work/i-cube/I-CUBE-HUAWEI/Middlewares/Third_Party/Huawei/iot_link/network/dtls/mbedtls/mbedtls-2.16.2/library\error.c ****         mbedtls_snprintf( buf, buflen, "GCM - Bad input parameters to function" );
 760:D:/fchai/work/i-cube/I-CUBE-HUAWEI/Middlewares/Third_Party/Huawei/iot_link/network/dtls/mbedtls/mbedtls-2.16.2/library\error.c **** #endif /* MBEDTLS_GCM_C */
 761:D:/fchai/work/i-cube/I-CUBE-HUAWEI/Middlewares/Third_Party/Huawei/iot_link/network/dtls/mbedtls/mbedtls-2.16.2/library\error.c **** 
 762:D:/fchai/work/i-cube/I-CUBE-HUAWEI/Middlewares/Third_Party/Huawei/iot_link/network/dtls/mbedtls/mbedtls-2.16.2/library\error.c **** #if defined(MBEDTLS_HKDF_C)
 763:D:/fchai/work/i-cube/I-CUBE-HUAWEI/Middlewares/Third_Party/Huawei/iot_link/network/dtls/mbedtls/mbedtls-2.16.2/library\error.c ****     if( use_ret == -(MBEDTLS_ERR_HKDF_BAD_INPUT_DATA) )
 764:D:/fchai/work/i-cube/I-CUBE-HUAWEI/Middlewares/Third_Party/Huawei/iot_link/network/dtls/mbedtls/mbedtls-2.16.2/library\error.c ****         mbedtls_snprintf( buf, buflen, "HKDF - Bad input parameters to function" );
 765:D:/fchai/work/i-cube/I-CUBE-HUAWEI/Middlewares/Third_Party/Huawei/iot_link/network/dtls/mbedtls/mbedtls-2.16.2/library\error.c **** #endif /* MBEDTLS_HKDF_C */
 766:D:/fchai/work/i-cube/I-CUBE-HUAWEI/Middlewares/Third_Party/Huawei/iot_link/network/dtls/mbedtls/mbedtls-2.16.2/library\error.c **** 
 767:D:/fchai/work/i-cube/I-CUBE-HUAWEI/Middlewares/Third_Party/Huawei/iot_link/network/dtls/mbedtls/mbedtls-2.16.2/library\error.c **** #if defined(MBEDTLS_HMAC_DRBG_C)
 768:D:/fchai/work/i-cube/I-CUBE-HUAWEI/Middlewares/Third_Party/Huawei/iot_link/network/dtls/mbedtls/mbedtls-2.16.2/library\error.c ****     if( use_ret == -(MBEDTLS_ERR_HMAC_DRBG_REQUEST_TOO_BIG) )
 769:D:/fchai/work/i-cube/I-CUBE-HUAWEI/Middlewares/Third_Party/Huawei/iot_link/network/dtls/mbedtls/mbedtls-2.16.2/library\error.c ****         mbedtls_snprintf( buf, buflen, "HMAC_DRBG - Too many random requested in single call" );
 770:D:/fchai/work/i-cube/I-CUBE-HUAWEI/Middlewares/Third_Party/Huawei/iot_link/network/dtls/mbedtls/mbedtls-2.16.2/library\error.c ****     if( use_ret == -(MBEDTLS_ERR_HMAC_DRBG_INPUT_TOO_BIG) )
 771:D:/fchai/work/i-cube/I-CUBE-HUAWEI/Middlewares/Third_Party/Huawei/iot_link/network/dtls/mbedtls/mbedtls-2.16.2/library\error.c ****         mbedtls_snprintf( buf, buflen, "HMAC_DRBG - Input too large (Entropy + additional)" );
 772:D:/fchai/work/i-cube/I-CUBE-HUAWEI/Middlewares/Third_Party/Huawei/iot_link/network/dtls/mbedtls/mbedtls-2.16.2/library\error.c ****     if( use_ret == -(MBEDTLS_ERR_HMAC_DRBG_FILE_IO_ERROR) )
 773:D:/fchai/work/i-cube/I-CUBE-HUAWEI/Middlewares/Third_Party/Huawei/iot_link/network/dtls/mbedtls/mbedtls-2.16.2/library\error.c ****         mbedtls_snprintf( buf, buflen, "HMAC_DRBG - Read/write error in file" );
 774:D:/fchai/work/i-cube/I-CUBE-HUAWEI/Middlewares/Third_Party/Huawei/iot_link/network/dtls/mbedtls/mbedtls-2.16.2/library\error.c ****     if( use_ret == -(MBEDTLS_ERR_HMAC_DRBG_ENTROPY_SOURCE_FAILED) )
 775:D:/fchai/work/i-cube/I-CUBE-HUAWEI/Middlewares/Third_Party/Huawei/iot_link/network/dtls/mbedtls/mbedtls-2.16.2/library\error.c ****         mbedtls_snprintf( buf, buflen, "HMAC_DRBG - The entropy source failed" );
 776:D:/fchai/work/i-cube/I-CUBE-HUAWEI/Middlewares/Third_Party/Huawei/iot_link/network/dtls/mbedtls/mbedtls-2.16.2/library\error.c **** #endif /* MBEDTLS_HMAC_DRBG_C */
 777:D:/fchai/work/i-cube/I-CUBE-HUAWEI/Middlewares/Third_Party/Huawei/iot_link/network/dtls/mbedtls/mbedtls-2.16.2/library\error.c **** 
 778:D:/fchai/work/i-cube/I-CUBE-HUAWEI/Middlewares/Third_Party/Huawei/iot_link/network/dtls/mbedtls/mbedtls-2.16.2/library\error.c **** #if defined(MBEDTLS_MD2_C)
 779:D:/fchai/work/i-cube/I-CUBE-HUAWEI/Middlewares/Third_Party/Huawei/iot_link/network/dtls/mbedtls/mbedtls-2.16.2/library\error.c ****     if( use_ret == -(MBEDTLS_ERR_MD2_HW_ACCEL_FAILED) )
 780:D:/fchai/work/i-cube/I-CUBE-HUAWEI/Middlewares/Third_Party/Huawei/iot_link/network/dtls/mbedtls/mbedtls-2.16.2/library\error.c ****         mbedtls_snprintf( buf, buflen, "MD2 - MD2 hardware accelerator failed" );
 781:D:/fchai/work/i-cube/I-CUBE-HUAWEI/Middlewares/Third_Party/Huawei/iot_link/network/dtls/mbedtls/mbedtls-2.16.2/library\error.c **** #endif /* MBEDTLS_MD2_C */
 782:D:/fchai/work/i-cube/I-CUBE-HUAWEI/Middlewares/Third_Party/Huawei/iot_link/network/dtls/mbedtls/mbedtls-2.16.2/library\error.c **** 
 783:D:/fchai/work/i-cube/I-CUBE-HUAWEI/Middlewares/Third_Party/Huawei/iot_link/network/dtls/mbedtls/mbedtls-2.16.2/library\error.c **** #if defined(MBEDTLS_MD4_C)
 784:D:/fchai/work/i-cube/I-CUBE-HUAWEI/Middlewares/Third_Party/Huawei/iot_link/network/dtls/mbedtls/mbedtls-2.16.2/library\error.c ****     if( use_ret == -(MBEDTLS_ERR_MD4_HW_ACCEL_FAILED) )
 785:D:/fchai/work/i-cube/I-CUBE-HUAWEI/Middlewares/Third_Party/Huawei/iot_link/network/dtls/mbedtls/mbedtls-2.16.2/library\error.c ****         mbedtls_snprintf( buf, buflen, "MD4 - MD4 hardware accelerator failed" );
 786:D:/fchai/work/i-cube/I-CUBE-HUAWEI/Middlewares/Third_Party/Huawei/iot_link/network/dtls/mbedtls/mbedtls-2.16.2/library\error.c **** #endif /* MBEDTLS_MD4_C */
 787:D:/fchai/work/i-cube/I-CUBE-HUAWEI/Middlewares/Third_Party/Huawei/iot_link/network/dtls/mbedtls/mbedtls-2.16.2/library\error.c **** 
 788:D:/fchai/work/i-cube/I-CUBE-HUAWEI/Middlewares/Third_Party/Huawei/iot_link/network/dtls/mbedtls/mbedtls-2.16.2/library\error.c **** #if defined(MBEDTLS_MD5_C)
 789:D:/fchai/work/i-cube/I-CUBE-HUAWEI/Middlewares/Third_Party/Huawei/iot_link/network/dtls/mbedtls/mbedtls-2.16.2/library\error.c ****     if( use_ret == -(MBEDTLS_ERR_MD5_HW_ACCEL_FAILED) )
 790:D:/fchai/work/i-cube/I-CUBE-HUAWEI/Middlewares/Third_Party/Huawei/iot_link/network/dtls/mbedtls/mbedtls-2.16.2/library\error.c ****         mbedtls_snprintf( buf, buflen, "MD5 - MD5 hardware accelerator failed" );
 791:D:/fchai/work/i-cube/I-CUBE-HUAWEI/Middlewares/Third_Party/Huawei/iot_link/network/dtls/mbedtls/mbedtls-2.16.2/library\error.c **** #endif /* MBEDTLS_MD5_C */
 792:D:/fchai/work/i-cube/I-CUBE-HUAWEI/Middlewares/Third_Party/Huawei/iot_link/network/dtls/mbedtls/mbedtls-2.16.2/library\error.c **** 
 793:D:/fchai/work/i-cube/I-CUBE-HUAWEI/Middlewares/Third_Party/Huawei/iot_link/network/dtls/mbedtls/mbedtls-2.16.2/library\error.c **** #if defined(MBEDTLS_NET_C)
 794:D:/fchai/work/i-cube/I-CUBE-HUAWEI/Middlewares/Third_Party/Huawei/iot_link/network/dtls/mbedtls/mbedtls-2.16.2/library\error.c ****     if( use_ret == -(MBEDTLS_ERR_NET_SOCKET_FAILED) )
 795:D:/fchai/work/i-cube/I-CUBE-HUAWEI/Middlewares/Third_Party/Huawei/iot_link/network/dtls/mbedtls/mbedtls-2.16.2/library\error.c ****         mbedtls_snprintf( buf, buflen, "NET - Failed to open a socket" );
 796:D:/fchai/work/i-cube/I-CUBE-HUAWEI/Middlewares/Third_Party/Huawei/iot_link/network/dtls/mbedtls/mbedtls-2.16.2/library\error.c ****     if( use_ret == -(MBEDTLS_ERR_NET_CONNECT_FAILED) )
 797:D:/fchai/work/i-cube/I-CUBE-HUAWEI/Middlewares/Third_Party/Huawei/iot_link/network/dtls/mbedtls/mbedtls-2.16.2/library\error.c ****         mbedtls_snprintf( buf, buflen, "NET - The connection to the given server / port failed" );
 798:D:/fchai/work/i-cube/I-CUBE-HUAWEI/Middlewares/Third_Party/Huawei/iot_link/network/dtls/mbedtls/mbedtls-2.16.2/library\error.c ****     if( use_ret == -(MBEDTLS_ERR_NET_BIND_FAILED) )
 799:D:/fchai/work/i-cube/I-CUBE-HUAWEI/Middlewares/Third_Party/Huawei/iot_link/network/dtls/mbedtls/mbedtls-2.16.2/library\error.c ****         mbedtls_snprintf( buf, buflen, "NET - Binding of the socket failed" );
 800:D:/fchai/work/i-cube/I-CUBE-HUAWEI/Middlewares/Third_Party/Huawei/iot_link/network/dtls/mbedtls/mbedtls-2.16.2/library\error.c ****     if( use_ret == -(MBEDTLS_ERR_NET_LISTEN_FAILED) )
 801:D:/fchai/work/i-cube/I-CUBE-HUAWEI/Middlewares/Third_Party/Huawei/iot_link/network/dtls/mbedtls/mbedtls-2.16.2/library\error.c ****         mbedtls_snprintf( buf, buflen, "NET - Could not listen on the socket" );
ARM GAS  T:\msys\tmp\cceu68zA.s 			page 46


 802:D:/fchai/work/i-cube/I-CUBE-HUAWEI/Middlewares/Third_Party/Huawei/iot_link/network/dtls/mbedtls/mbedtls-2.16.2/library\error.c ****     if( use_ret == -(MBEDTLS_ERR_NET_ACCEPT_FAILED) )
 803:D:/fchai/work/i-cube/I-CUBE-HUAWEI/Middlewares/Third_Party/Huawei/iot_link/network/dtls/mbedtls/mbedtls-2.16.2/library\error.c ****         mbedtls_snprintf( buf, buflen, "NET - Could not accept the incoming connection" );
 804:D:/fchai/work/i-cube/I-CUBE-HUAWEI/Middlewares/Third_Party/Huawei/iot_link/network/dtls/mbedtls/mbedtls-2.16.2/library\error.c ****     if( use_ret == -(MBEDTLS_ERR_NET_RECV_FAILED) )
 805:D:/fchai/work/i-cube/I-CUBE-HUAWEI/Middlewares/Third_Party/Huawei/iot_link/network/dtls/mbedtls/mbedtls-2.16.2/library\error.c ****         mbedtls_snprintf( buf, buflen, "NET - Reading information from the socket failed" );
 806:D:/fchai/work/i-cube/I-CUBE-HUAWEI/Middlewares/Third_Party/Huawei/iot_link/network/dtls/mbedtls/mbedtls-2.16.2/library\error.c ****     if( use_ret == -(MBEDTLS_ERR_NET_SEND_FAILED) )
 807:D:/fchai/work/i-cube/I-CUBE-HUAWEI/Middlewares/Third_Party/Huawei/iot_link/network/dtls/mbedtls/mbedtls-2.16.2/library\error.c ****         mbedtls_snprintf( buf, buflen, "NET - Sending information through the socket failed" );
 808:D:/fchai/work/i-cube/I-CUBE-HUAWEI/Middlewares/Third_Party/Huawei/iot_link/network/dtls/mbedtls/mbedtls-2.16.2/library\error.c ****     if( use_ret == -(MBEDTLS_ERR_NET_CONN_RESET) )
 809:D:/fchai/work/i-cube/I-CUBE-HUAWEI/Middlewares/Third_Party/Huawei/iot_link/network/dtls/mbedtls/mbedtls-2.16.2/library\error.c ****         mbedtls_snprintf( buf, buflen, "NET - Connection was reset by peer" );
 810:D:/fchai/work/i-cube/I-CUBE-HUAWEI/Middlewares/Third_Party/Huawei/iot_link/network/dtls/mbedtls/mbedtls-2.16.2/library\error.c ****     if( use_ret == -(MBEDTLS_ERR_NET_UNKNOWN_HOST) )
 811:D:/fchai/work/i-cube/I-CUBE-HUAWEI/Middlewares/Third_Party/Huawei/iot_link/network/dtls/mbedtls/mbedtls-2.16.2/library\error.c ****         mbedtls_snprintf( buf, buflen, "NET - Failed to get an IP address for the given hostname" )
 812:D:/fchai/work/i-cube/I-CUBE-HUAWEI/Middlewares/Third_Party/Huawei/iot_link/network/dtls/mbedtls/mbedtls-2.16.2/library\error.c ****     if( use_ret == -(MBEDTLS_ERR_NET_BUFFER_TOO_SMALL) )
 813:D:/fchai/work/i-cube/I-CUBE-HUAWEI/Middlewares/Third_Party/Huawei/iot_link/network/dtls/mbedtls/mbedtls-2.16.2/library\error.c ****         mbedtls_snprintf( buf, buflen, "NET - Buffer is too small to hold the data" );
 814:D:/fchai/work/i-cube/I-CUBE-HUAWEI/Middlewares/Third_Party/Huawei/iot_link/network/dtls/mbedtls/mbedtls-2.16.2/library\error.c ****     if( use_ret == -(MBEDTLS_ERR_NET_INVALID_CONTEXT) )
 815:D:/fchai/work/i-cube/I-CUBE-HUAWEI/Middlewares/Third_Party/Huawei/iot_link/network/dtls/mbedtls/mbedtls-2.16.2/library\error.c ****         mbedtls_snprintf( buf, buflen, "NET - The context is invalid, eg because it was free()ed" )
 816:D:/fchai/work/i-cube/I-CUBE-HUAWEI/Middlewares/Third_Party/Huawei/iot_link/network/dtls/mbedtls/mbedtls-2.16.2/library\error.c ****     if( use_ret == -(MBEDTLS_ERR_NET_POLL_FAILED) )
 817:D:/fchai/work/i-cube/I-CUBE-HUAWEI/Middlewares/Third_Party/Huawei/iot_link/network/dtls/mbedtls/mbedtls-2.16.2/library\error.c ****         mbedtls_snprintf( buf, buflen, "NET - Polling the net context failed" );
 818:D:/fchai/work/i-cube/I-CUBE-HUAWEI/Middlewares/Third_Party/Huawei/iot_link/network/dtls/mbedtls/mbedtls-2.16.2/library\error.c ****     if( use_ret == -(MBEDTLS_ERR_NET_BAD_INPUT_DATA) )
 819:D:/fchai/work/i-cube/I-CUBE-HUAWEI/Middlewares/Third_Party/Huawei/iot_link/network/dtls/mbedtls/mbedtls-2.16.2/library\error.c ****         mbedtls_snprintf( buf, buflen, "NET - Input invalid" );
 820:D:/fchai/work/i-cube/I-CUBE-HUAWEI/Middlewares/Third_Party/Huawei/iot_link/network/dtls/mbedtls/mbedtls-2.16.2/library\error.c **** #endif /* MBEDTLS_NET_C */
 821:D:/fchai/work/i-cube/I-CUBE-HUAWEI/Middlewares/Third_Party/Huawei/iot_link/network/dtls/mbedtls/mbedtls-2.16.2/library\error.c **** 
 822:D:/fchai/work/i-cube/I-CUBE-HUAWEI/Middlewares/Third_Party/Huawei/iot_link/network/dtls/mbedtls/mbedtls-2.16.2/library\error.c **** #if defined(MBEDTLS_OID_C)
 823:D:/fchai/work/i-cube/I-CUBE-HUAWEI/Middlewares/Third_Party/Huawei/iot_link/network/dtls/mbedtls/mbedtls-2.16.2/library\error.c ****     if( use_ret == -(MBEDTLS_ERR_OID_NOT_FOUND) )
 824:D:/fchai/work/i-cube/I-CUBE-HUAWEI/Middlewares/Third_Party/Huawei/iot_link/network/dtls/mbedtls/mbedtls-2.16.2/library\error.c ****         mbedtls_snprintf( buf, buflen, "OID - OID is not found" );
 825:D:/fchai/work/i-cube/I-CUBE-HUAWEI/Middlewares/Third_Party/Huawei/iot_link/network/dtls/mbedtls/mbedtls-2.16.2/library\error.c ****     if( use_ret == -(MBEDTLS_ERR_OID_BUF_TOO_SMALL) )
 826:D:/fchai/work/i-cube/I-CUBE-HUAWEI/Middlewares/Third_Party/Huawei/iot_link/network/dtls/mbedtls/mbedtls-2.16.2/library\error.c ****         mbedtls_snprintf( buf, buflen, "OID - output buffer is too small" );
 827:D:/fchai/work/i-cube/I-CUBE-HUAWEI/Middlewares/Third_Party/Huawei/iot_link/network/dtls/mbedtls/mbedtls-2.16.2/library\error.c **** #endif /* MBEDTLS_OID_C */
 828:D:/fchai/work/i-cube/I-CUBE-HUAWEI/Middlewares/Third_Party/Huawei/iot_link/network/dtls/mbedtls/mbedtls-2.16.2/library\error.c **** 
 829:D:/fchai/work/i-cube/I-CUBE-HUAWEI/Middlewares/Third_Party/Huawei/iot_link/network/dtls/mbedtls/mbedtls-2.16.2/library\error.c **** #if defined(MBEDTLS_PADLOCK_C)
 830:D:/fchai/work/i-cube/I-CUBE-HUAWEI/Middlewares/Third_Party/Huawei/iot_link/network/dtls/mbedtls/mbedtls-2.16.2/library\error.c ****     if( use_ret == -(MBEDTLS_ERR_PADLOCK_DATA_MISALIGNED) )
 831:D:/fchai/work/i-cube/I-CUBE-HUAWEI/Middlewares/Third_Party/Huawei/iot_link/network/dtls/mbedtls/mbedtls-2.16.2/library\error.c ****         mbedtls_snprintf( buf, buflen, "PADLOCK - Input data should be aligned" );
 832:D:/fchai/work/i-cube/I-CUBE-HUAWEI/Middlewares/Third_Party/Huawei/iot_link/network/dtls/mbedtls/mbedtls-2.16.2/library\error.c **** #endif /* MBEDTLS_PADLOCK_C */
 833:D:/fchai/work/i-cube/I-CUBE-HUAWEI/Middlewares/Third_Party/Huawei/iot_link/network/dtls/mbedtls/mbedtls-2.16.2/library\error.c **** 
 834:D:/fchai/work/i-cube/I-CUBE-HUAWEI/Middlewares/Third_Party/Huawei/iot_link/network/dtls/mbedtls/mbedtls-2.16.2/library\error.c **** #if defined(MBEDTLS_PLATFORM_C)
 835:D:/fchai/work/i-cube/I-CUBE-HUAWEI/Middlewares/Third_Party/Huawei/iot_link/network/dtls/mbedtls/mbedtls-2.16.2/library\error.c ****     if( use_ret == -(MBEDTLS_ERR_PLATFORM_HW_ACCEL_FAILED) )
 836:D:/fchai/work/i-cube/I-CUBE-HUAWEI/Middlewares/Third_Party/Huawei/iot_link/network/dtls/mbedtls/mbedtls-2.16.2/library\error.c ****         mbedtls_snprintf( buf, buflen, "PLATFORM - Hardware accelerator failed" );
 837:D:/fchai/work/i-cube/I-CUBE-HUAWEI/Middlewares/Third_Party/Huawei/iot_link/network/dtls/mbedtls/mbedtls-2.16.2/library\error.c ****     if( use_ret == -(MBEDTLS_ERR_PLATFORM_FEATURE_UNSUPPORTED) )
 838:D:/fchai/work/i-cube/I-CUBE-HUAWEI/Middlewares/Third_Party/Huawei/iot_link/network/dtls/mbedtls/mbedtls-2.16.2/library\error.c ****         mbedtls_snprintf( buf, buflen, "PLATFORM - The requested feature is not supported by the pl
 839:D:/fchai/work/i-cube/I-CUBE-HUAWEI/Middlewares/Third_Party/Huawei/iot_link/network/dtls/mbedtls/mbedtls-2.16.2/library\error.c **** #endif /* MBEDTLS_PLATFORM_C */
 840:D:/fchai/work/i-cube/I-CUBE-HUAWEI/Middlewares/Third_Party/Huawei/iot_link/network/dtls/mbedtls/mbedtls-2.16.2/library\error.c **** 
 841:D:/fchai/work/i-cube/I-CUBE-HUAWEI/Middlewares/Third_Party/Huawei/iot_link/network/dtls/mbedtls/mbedtls-2.16.2/library\error.c **** #if defined(MBEDTLS_POLY1305_C)
 842:D:/fchai/work/i-cube/I-CUBE-HUAWEI/Middlewares/Third_Party/Huawei/iot_link/network/dtls/mbedtls/mbedtls-2.16.2/library\error.c ****     if( use_ret == -(MBEDTLS_ERR_POLY1305_BAD_INPUT_DATA) )
 843:D:/fchai/work/i-cube/I-CUBE-HUAWEI/Middlewares/Third_Party/Huawei/iot_link/network/dtls/mbedtls/mbedtls-2.16.2/library\error.c ****         mbedtls_snprintf( buf, buflen, "POLY1305 - Invalid input parameter(s)" );
 844:D:/fchai/work/i-cube/I-CUBE-HUAWEI/Middlewares/Third_Party/Huawei/iot_link/network/dtls/mbedtls/mbedtls-2.16.2/library\error.c ****     if( use_ret == -(MBEDTLS_ERR_POLY1305_FEATURE_UNAVAILABLE) )
 845:D:/fchai/work/i-cube/I-CUBE-HUAWEI/Middlewares/Third_Party/Huawei/iot_link/network/dtls/mbedtls/mbedtls-2.16.2/library\error.c ****         mbedtls_snprintf( buf, buflen, "POLY1305 - Feature not available. For example, s part of th
 846:D:/fchai/work/i-cube/I-CUBE-HUAWEI/Middlewares/Third_Party/Huawei/iot_link/network/dtls/mbedtls/mbedtls-2.16.2/library\error.c ****     if( use_ret == -(MBEDTLS_ERR_POLY1305_HW_ACCEL_FAILED) )
 847:D:/fchai/work/i-cube/I-CUBE-HUAWEI/Middlewares/Third_Party/Huawei/iot_link/network/dtls/mbedtls/mbedtls-2.16.2/library\error.c ****         mbedtls_snprintf( buf, buflen, "POLY1305 - Poly1305 hardware accelerator failed" );
 848:D:/fchai/work/i-cube/I-CUBE-HUAWEI/Middlewares/Third_Party/Huawei/iot_link/network/dtls/mbedtls/mbedtls-2.16.2/library\error.c **** #endif /* MBEDTLS_POLY1305_C */
 849:D:/fchai/work/i-cube/I-CUBE-HUAWEI/Middlewares/Third_Party/Huawei/iot_link/network/dtls/mbedtls/mbedtls-2.16.2/library\error.c **** 
 850:D:/fchai/work/i-cube/I-CUBE-HUAWEI/Middlewares/Third_Party/Huawei/iot_link/network/dtls/mbedtls/mbedtls-2.16.2/library\error.c **** #if defined(MBEDTLS_RIPEMD160_C)
 851:D:/fchai/work/i-cube/I-CUBE-HUAWEI/Middlewares/Third_Party/Huawei/iot_link/network/dtls/mbedtls/mbedtls-2.16.2/library\error.c ****     if( use_ret == -(MBEDTLS_ERR_RIPEMD160_HW_ACCEL_FAILED) )
 852:D:/fchai/work/i-cube/I-CUBE-HUAWEI/Middlewares/Third_Party/Huawei/iot_link/network/dtls/mbedtls/mbedtls-2.16.2/library\error.c ****         mbedtls_snprintf( buf, buflen, "RIPEMD160 - RIPEMD160 hardware accelerator failed" );
 853:D:/fchai/work/i-cube/I-CUBE-HUAWEI/Middlewares/Third_Party/Huawei/iot_link/network/dtls/mbedtls/mbedtls-2.16.2/library\error.c **** #endif /* MBEDTLS_RIPEMD160_C */
 854:D:/fchai/work/i-cube/I-CUBE-HUAWEI/Middlewares/Third_Party/Huawei/iot_link/network/dtls/mbedtls/mbedtls-2.16.2/library\error.c **** 
 855:D:/fchai/work/i-cube/I-CUBE-HUAWEI/Middlewares/Third_Party/Huawei/iot_link/network/dtls/mbedtls/mbedtls-2.16.2/library\error.c **** #if defined(MBEDTLS_SHA1_C)
 856:D:/fchai/work/i-cube/I-CUBE-HUAWEI/Middlewares/Third_Party/Huawei/iot_link/network/dtls/mbedtls/mbedtls-2.16.2/library\error.c ****     if( use_ret == -(MBEDTLS_ERR_SHA1_HW_ACCEL_FAILED) )
 857:D:/fchai/work/i-cube/I-CUBE-HUAWEI/Middlewares/Third_Party/Huawei/iot_link/network/dtls/mbedtls/mbedtls-2.16.2/library\error.c ****         mbedtls_snprintf( buf, buflen, "SHA1 - SHA-1 hardware accelerator failed" );
 858:D:/fchai/work/i-cube/I-CUBE-HUAWEI/Middlewares/Third_Party/Huawei/iot_link/network/dtls/mbedtls/mbedtls-2.16.2/library\error.c ****     if( use_ret == -(MBEDTLS_ERR_SHA1_BAD_INPUT_DATA) )
ARM GAS  T:\msys\tmp\cceu68zA.s 			page 47


 859:D:/fchai/work/i-cube/I-CUBE-HUAWEI/Middlewares/Third_Party/Huawei/iot_link/network/dtls/mbedtls/mbedtls-2.16.2/library\error.c ****         mbedtls_snprintf( buf, buflen, "SHA1 - SHA-1 input data was malformed" );
 860:D:/fchai/work/i-cube/I-CUBE-HUAWEI/Middlewares/Third_Party/Huawei/iot_link/network/dtls/mbedtls/mbedtls-2.16.2/library\error.c **** #endif /* MBEDTLS_SHA1_C */
 861:D:/fchai/work/i-cube/I-CUBE-HUAWEI/Middlewares/Third_Party/Huawei/iot_link/network/dtls/mbedtls/mbedtls-2.16.2/library\error.c **** 
 862:D:/fchai/work/i-cube/I-CUBE-HUAWEI/Middlewares/Third_Party/Huawei/iot_link/network/dtls/mbedtls/mbedtls-2.16.2/library\error.c **** #if defined(MBEDTLS_SHA256_C)
 863:D:/fchai/work/i-cube/I-CUBE-HUAWEI/Middlewares/Third_Party/Huawei/iot_link/network/dtls/mbedtls/mbedtls-2.16.2/library\error.c ****     if( use_ret == -(MBEDTLS_ERR_SHA256_HW_ACCEL_FAILED) )
 864:D:/fchai/work/i-cube/I-CUBE-HUAWEI/Middlewares/Third_Party/Huawei/iot_link/network/dtls/mbedtls/mbedtls-2.16.2/library\error.c ****         mbedtls_snprintf( buf, buflen, "SHA256 - SHA-256 hardware accelerator failed" );
 865:D:/fchai/work/i-cube/I-CUBE-HUAWEI/Middlewares/Third_Party/Huawei/iot_link/network/dtls/mbedtls/mbedtls-2.16.2/library\error.c ****     if( use_ret == -(MBEDTLS_ERR_SHA256_BAD_INPUT_DATA) )
 866:D:/fchai/work/i-cube/I-CUBE-HUAWEI/Middlewares/Third_Party/Huawei/iot_link/network/dtls/mbedtls/mbedtls-2.16.2/library\error.c ****         mbedtls_snprintf( buf, buflen, "SHA256 - SHA-256 input data was malformed" );
 867:D:/fchai/work/i-cube/I-CUBE-HUAWEI/Middlewares/Third_Party/Huawei/iot_link/network/dtls/mbedtls/mbedtls-2.16.2/library\error.c **** #endif /* MBEDTLS_SHA256_C */
 868:D:/fchai/work/i-cube/I-CUBE-HUAWEI/Middlewares/Third_Party/Huawei/iot_link/network/dtls/mbedtls/mbedtls-2.16.2/library\error.c **** 
 869:D:/fchai/work/i-cube/I-CUBE-HUAWEI/Middlewares/Third_Party/Huawei/iot_link/network/dtls/mbedtls/mbedtls-2.16.2/library\error.c **** #if defined(MBEDTLS_SHA512_C)
 870:D:/fchai/work/i-cube/I-CUBE-HUAWEI/Middlewares/Third_Party/Huawei/iot_link/network/dtls/mbedtls/mbedtls-2.16.2/library\error.c ****     if( use_ret == -(MBEDTLS_ERR_SHA512_HW_ACCEL_FAILED) )
 871:D:/fchai/work/i-cube/I-CUBE-HUAWEI/Middlewares/Third_Party/Huawei/iot_link/network/dtls/mbedtls/mbedtls-2.16.2/library\error.c ****         mbedtls_snprintf( buf, buflen, "SHA512 - SHA-512 hardware accelerator failed" );
 872:D:/fchai/work/i-cube/I-CUBE-HUAWEI/Middlewares/Third_Party/Huawei/iot_link/network/dtls/mbedtls/mbedtls-2.16.2/library\error.c ****     if( use_ret == -(MBEDTLS_ERR_SHA512_BAD_INPUT_DATA) )
 873:D:/fchai/work/i-cube/I-CUBE-HUAWEI/Middlewares/Third_Party/Huawei/iot_link/network/dtls/mbedtls/mbedtls-2.16.2/library\error.c ****         mbedtls_snprintf( buf, buflen, "SHA512 - SHA-512 input data was malformed" );
 874:D:/fchai/work/i-cube/I-CUBE-HUAWEI/Middlewares/Third_Party/Huawei/iot_link/network/dtls/mbedtls/mbedtls-2.16.2/library\error.c **** #endif /* MBEDTLS_SHA512_C */
 875:D:/fchai/work/i-cube/I-CUBE-HUAWEI/Middlewares/Third_Party/Huawei/iot_link/network/dtls/mbedtls/mbedtls-2.16.2/library\error.c **** 
 876:D:/fchai/work/i-cube/I-CUBE-HUAWEI/Middlewares/Third_Party/Huawei/iot_link/network/dtls/mbedtls/mbedtls-2.16.2/library\error.c **** #if defined(MBEDTLS_THREADING_C)
 877:D:/fchai/work/i-cube/I-CUBE-HUAWEI/Middlewares/Third_Party/Huawei/iot_link/network/dtls/mbedtls/mbedtls-2.16.2/library\error.c ****     if( use_ret == -(MBEDTLS_ERR_THREADING_FEATURE_UNAVAILABLE) )
 878:D:/fchai/work/i-cube/I-CUBE-HUAWEI/Middlewares/Third_Party/Huawei/iot_link/network/dtls/mbedtls/mbedtls-2.16.2/library\error.c ****         mbedtls_snprintf( buf, buflen, "THREADING - The selected feature is not available" );
 879:D:/fchai/work/i-cube/I-CUBE-HUAWEI/Middlewares/Third_Party/Huawei/iot_link/network/dtls/mbedtls/mbedtls-2.16.2/library\error.c ****     if( use_ret == -(MBEDTLS_ERR_THREADING_BAD_INPUT_DATA) )
 880:D:/fchai/work/i-cube/I-CUBE-HUAWEI/Middlewares/Third_Party/Huawei/iot_link/network/dtls/mbedtls/mbedtls-2.16.2/library\error.c ****         mbedtls_snprintf( buf, buflen, "THREADING - Bad input parameters to function" );
 881:D:/fchai/work/i-cube/I-CUBE-HUAWEI/Middlewares/Third_Party/Huawei/iot_link/network/dtls/mbedtls/mbedtls-2.16.2/library\error.c ****     if( use_ret == -(MBEDTLS_ERR_THREADING_MUTEX_ERROR) )
 882:D:/fchai/work/i-cube/I-CUBE-HUAWEI/Middlewares/Third_Party/Huawei/iot_link/network/dtls/mbedtls/mbedtls-2.16.2/library\error.c ****         mbedtls_snprintf( buf, buflen, "THREADING - Locking / unlocking / free failed with error co
 883:D:/fchai/work/i-cube/I-CUBE-HUAWEI/Middlewares/Third_Party/Huawei/iot_link/network/dtls/mbedtls/mbedtls-2.16.2/library\error.c **** #endif /* MBEDTLS_THREADING_C */
 884:D:/fchai/work/i-cube/I-CUBE-HUAWEI/Middlewares/Third_Party/Huawei/iot_link/network/dtls/mbedtls/mbedtls-2.16.2/library\error.c **** 
 885:D:/fchai/work/i-cube/I-CUBE-HUAWEI/Middlewares/Third_Party/Huawei/iot_link/network/dtls/mbedtls/mbedtls-2.16.2/library\error.c **** #if defined(MBEDTLS_XTEA_C)
 886:D:/fchai/work/i-cube/I-CUBE-HUAWEI/Middlewares/Third_Party/Huawei/iot_link/network/dtls/mbedtls/mbedtls-2.16.2/library\error.c ****     if( use_ret == -(MBEDTLS_ERR_XTEA_INVALID_INPUT_LENGTH) )
 887:D:/fchai/work/i-cube/I-CUBE-HUAWEI/Middlewares/Third_Party/Huawei/iot_link/network/dtls/mbedtls/mbedtls-2.16.2/library\error.c ****         mbedtls_snprintf( buf, buflen, "XTEA - The data input has an invalid length" );
 888:D:/fchai/work/i-cube/I-CUBE-HUAWEI/Middlewares/Third_Party/Huawei/iot_link/network/dtls/mbedtls/mbedtls-2.16.2/library\error.c ****     if( use_ret == -(MBEDTLS_ERR_XTEA_HW_ACCEL_FAILED) )
 889:D:/fchai/work/i-cube/I-CUBE-HUAWEI/Middlewares/Third_Party/Huawei/iot_link/network/dtls/mbedtls/mbedtls-2.16.2/library\error.c ****         mbedtls_snprintf( buf, buflen, "XTEA - XTEA hardware accelerator failed" );
 890:D:/fchai/work/i-cube/I-CUBE-HUAWEI/Middlewares/Third_Party/Huawei/iot_link/network/dtls/mbedtls/mbedtls-2.16.2/library\error.c **** #endif /* MBEDTLS_XTEA_C */
 891:D:/fchai/work/i-cube/I-CUBE-HUAWEI/Middlewares/Third_Party/Huawei/iot_link/network/dtls/mbedtls/mbedtls-2.16.2/library\error.c ****     // END generated code
 892:D:/fchai/work/i-cube/I-CUBE-HUAWEI/Middlewares/Third_Party/Huawei/iot_link/network/dtls/mbedtls/mbedtls-2.16.2/library\error.c **** 
 893:D:/fchai/work/i-cube/I-CUBE-HUAWEI/Middlewares/Third_Party/Huawei/iot_link/network/dtls/mbedtls/mbedtls-2.16.2/library\error.c ****     if( strlen( buf ) != 0 )
 815              		.loc 1 893 5 view .LVU51
 816              		.loc 1 893 7 is_stmt 0 view .LVU52
 817 0094 3378     		ldrb	r3, [r6]	@ zero_extendqisi2
 818 0096 4BB9     		cbnz	r3, .L1
 894:D:/fchai/work/i-cube/I-CUBE-HUAWEI/Middlewares/Third_Party/Huawei/iot_link/network/dtls/mbedtls/mbedtls-2.16.2/library\error.c ****         return;
 895:D:/fchai/work/i-cube/I-CUBE-HUAWEI/Middlewares/Third_Party/Huawei/iot_link/network/dtls/mbedtls/mbedtls-2.16.2/library\error.c **** 
 896:D:/fchai/work/i-cube/I-CUBE-HUAWEI/Middlewares/Third_Party/Huawei/iot_link/network/dtls/mbedtls/mbedtls-2.16.2/library\error.c ****     mbedtls_snprintf( buf, buflen, "UNKNOWN ERROR CODE (%04X)", use_ret );
 819              		.loc 1 896 5 is_stmt 1 view .LVU53
 820 0098 844B     		ldr	r3, .L207
 821 009a 864A     		ldr	r2, .L207+8
 822 009c 1D68     		ldr	r5, [r3]
 823 009e 2146     		mov	r1, r4
 824 00a0 3B46     		mov	r3, r7
 825 00a2 3046     		mov	r0, r6
 826 00a4 AC46     		mov	ip, r5
 897:D:/fchai/work/i-cube/I-CUBE-HUAWEI/Middlewares/Third_Party/Huawei/iot_link/network/dtls/mbedtls/mbedtls-2.16.2/library\error.c **** }
 827              		.loc 1 897 1 is_stmt 0 view .LVU54
 828 00a6 BDE8F041 		pop	{r4, r5, r6, r7, r8, lr}
 829              	.LCFI1:
 830              		.cfi_remember_state
 831              		.cfi_restore 14
 832              		.cfi_restore 8
ARM GAS  T:\msys\tmp\cceu68zA.s 			page 48


 833              		.cfi_restore 7
 834              		.cfi_restore 6
 835              		.cfi_restore 5
 836              		.cfi_restore 4
 837              		.cfi_def_cfa_offset 0
 838              	.LVL16:
 896:D:/fchai/work/i-cube/I-CUBE-HUAWEI/Middlewares/Third_Party/Huawei/iot_link/network/dtls/mbedtls/mbedtls-2.16.2/library\error.c **** }
 839              		.loc 1 896 5 view .LVU55
 840 00aa 6047     		bx	ip
 841              	.LVL17:
 842              	.L1:
 843              	.LCFI2:
 844              		.cfi_restore_state
 845              		.loc 1 897 1 view .LVU56
 846 00ac BDE8F081 		pop	{r4, r5, r6, r7, r8, pc}
 847              	.LVL18:
 848              	.L204:
 235:D:/fchai/work/i-cube/I-CUBE-HUAWEI/Middlewares/Third_Party/Huawei/iot_link/network/dtls/mbedtls/mbedtls-2.16.2/library\error.c ****         if( use_ret == -(MBEDTLS_ERR_CIPHER_BAD_INPUT_DATA) )
 849              		.loc 1 235 13 is_stmt 1 view .LVU57
 850 00b0 7E4B     		ldr	r3, .L207
 851 00b2 834A     		ldr	r2, .L207+20
 852 00b4 1B68     		ldr	r3, [r3]
 853 00b6 2146     		mov	r1, r4
 854 00b8 3046     		mov	r0, r6
 855 00ba 9847     		blx	r3
 856              	.LVL19:
 236:D:/fchai/work/i-cube/I-CUBE-HUAWEI/Middlewares/Third_Party/Huawei/iot_link/network/dtls/mbedtls/mbedtls-2.16.2/library\error.c ****             mbedtls_snprintf( buf, buflen, "CIPHER - Bad input parameters" );
 857              		.loc 1 236 9 view .LVU58
 238:D:/fchai/work/i-cube/I-CUBE-HUAWEI/Middlewares/Third_Party/Huawei/iot_link/network/dtls/mbedtls/mbedtls-2.16.2/library\error.c ****             mbedtls_snprintf( buf, buflen, "CIPHER - Failed to allocate memory" );
 858              		.loc 1 238 9 view .LVU59
 859 00bc BFE7     		b	.L146
 860              	.LVL20:
 861              	.L205:
 604:D:/fchai/work/i-cube/I-CUBE-HUAWEI/Middlewares/Third_Party/Huawei/iot_link/network/dtls/mbedtls/mbedtls-2.16.2/library\error.c ****     if( use_ret == -(MBEDTLS_ERR_AES_INVALID_INPUT_LENGTH) )
 862              		.loc 1 604 9 view .LVU60
 863 00be 7B4B     		ldr	r3, .L207
 864 00c0 804A     		ldr	r2, .L207+24
 865 00c2 1B68     		ldr	r3, [r3]
 866 00c4 2146     		mov	r1, r4
 867 00c6 3046     		mov	r0, r6
 868 00c8 9847     		blx	r3
 869              	.LVL21:
 605:D:/fchai/work/i-cube/I-CUBE-HUAWEI/Middlewares/Third_Party/Huawei/iot_link/network/dtls/mbedtls/mbedtls-2.16.2/library\error.c ****         mbedtls_snprintf( buf, buflen, "AES - Invalid data input length" );
 870              		.loc 1 605 5 view .LVU61
 607:D:/fchai/work/i-cube/I-CUBE-HUAWEI/Middlewares/Third_Party/Huawei/iot_link/network/dtls/mbedtls/mbedtls-2.16.2/library\error.c ****         mbedtls_snprintf( buf, buflen, "AES - Invalid input data" );
 871              		.loc 1 607 5 view .LVU62
 872 00ca E3E7     		b	.L191
 873              	.LVL22:
 874              	.L8:
 238:D:/fchai/work/i-cube/I-CUBE-HUAWEI/Middlewares/Third_Party/Huawei/iot_link/network/dtls/mbedtls/mbedtls-2.16.2/library\error.c ****             mbedtls_snprintf( buf, buflen, "CIPHER - Failed to allocate memory" );
 875              		.loc 1 238 9 view .LVU63
 238:D:/fchai/work/i-cube/I-CUBE-HUAWEI/Middlewares/Third_Party/Huawei/iot_link/network/dtls/mbedtls/mbedtls-2.16.2/library\error.c ****             mbedtls_snprintf( buf, buflen, "CIPHER - Failed to allocate memory" );
 876              		.loc 1 238 11 is_stmt 0 view .LVU64
 877 00cc B5F5C34F 		cmp	r5, #24960
 878 00d0 06D1     		bne	.L7
 239:D:/fchai/work/i-cube/I-CUBE-HUAWEI/Middlewares/Third_Party/Huawei/iot_link/network/dtls/mbedtls/mbedtls-2.16.2/library\error.c ****         if( use_ret == -(MBEDTLS_ERR_CIPHER_INVALID_PADDING) )
 879              		.loc 1 239 13 is_stmt 1 view .LVU65
ARM GAS  T:\msys\tmp\cceu68zA.s 			page 49


 880 00d2 764B     		ldr	r3, .L207
 881 00d4 7C4A     		ldr	r2, .L207+28
 882 00d6 1B68     		ldr	r3, [r3]
 883 00d8 2146     		mov	r1, r4
 884 00da 3046     		mov	r0, r6
 885 00dc 9847     		blx	r3
 886              	.LVL23:
 240:D:/fchai/work/i-cube/I-CUBE-HUAWEI/Middlewares/Third_Party/Huawei/iot_link/network/dtls/mbedtls/mbedtls-2.16.2/library\error.c ****             mbedtls_snprintf( buf, buflen, "CIPHER - Input data contains invalid padding and is rej
 887              		.loc 1 240 9 view .LVU66
 242:D:/fchai/work/i-cube/I-CUBE-HUAWEI/Middlewares/Third_Party/Huawei/iot_link/network/dtls/mbedtls/mbedtls-2.16.2/library\error.c ****             mbedtls_snprintf( buf, buflen, "CIPHER - Decryption of block requires a full block" );
 888              		.loc 1 242 9 view .LVU67
 889 00de AEE7     		b	.L146
 890              	.L7:
 240:D:/fchai/work/i-cube/I-CUBE-HUAWEI/Middlewares/Third_Party/Huawei/iot_link/network/dtls/mbedtls/mbedtls-2.16.2/library\error.c ****             mbedtls_snprintf( buf, buflen, "CIPHER - Input data contains invalid padding and is rej
 891              		.loc 1 240 9 view .LVU68
 240:D:/fchai/work/i-cube/I-CUBE-HUAWEI/Middlewares/Third_Party/Huawei/iot_link/network/dtls/mbedtls/mbedtls-2.16.2/library\error.c ****             mbedtls_snprintf( buf, buflen, "CIPHER - Input data contains invalid padding and is rej
 892              		.loc 1 240 11 is_stmt 0 view .LVU69
 893 00e0 B5F5C44F 		cmp	r5, #25088
 894 00e4 06D1     		bne	.L9
 241:D:/fchai/work/i-cube/I-CUBE-HUAWEI/Middlewares/Third_Party/Huawei/iot_link/network/dtls/mbedtls/mbedtls-2.16.2/library\error.c ****         if( use_ret == -(MBEDTLS_ERR_CIPHER_FULL_BLOCK_EXPECTED) )
 895              		.loc 1 241 13 is_stmt 1 view .LVU70
 896 00e6 714B     		ldr	r3, .L207
 897 00e8 784A     		ldr	r2, .L207+32
 898 00ea 1B68     		ldr	r3, [r3]
 899 00ec 2146     		mov	r1, r4
 900 00ee 3046     		mov	r0, r6
 901 00f0 9847     		blx	r3
 902              	.LVL24:
 242:D:/fchai/work/i-cube/I-CUBE-HUAWEI/Middlewares/Third_Party/Huawei/iot_link/network/dtls/mbedtls/mbedtls-2.16.2/library\error.c ****             mbedtls_snprintf( buf, buflen, "CIPHER - Decryption of block requires a full block" );
 903              		.loc 1 242 9 view .LVU71
 244:D:/fchai/work/i-cube/I-CUBE-HUAWEI/Middlewares/Third_Party/Huawei/iot_link/network/dtls/mbedtls/mbedtls-2.16.2/library\error.c ****             mbedtls_snprintf( buf, buflen, "CIPHER - Authentication failed (for AEAD modes)" );
 904              		.loc 1 244 9 view .LVU72
 905 00f2 A4E7     		b	.L146
 906              	.L9:
 242:D:/fchai/work/i-cube/I-CUBE-HUAWEI/Middlewares/Third_Party/Huawei/iot_link/network/dtls/mbedtls/mbedtls-2.16.2/library\error.c ****             mbedtls_snprintf( buf, buflen, "CIPHER - Decryption of block requires a full block" );
 907              		.loc 1 242 9 view .LVU73
 242:D:/fchai/work/i-cube/I-CUBE-HUAWEI/Middlewares/Third_Party/Huawei/iot_link/network/dtls/mbedtls/mbedtls-2.16.2/library\error.c ****             mbedtls_snprintf( buf, buflen, "CIPHER - Decryption of block requires a full block" );
 908              		.loc 1 242 11 is_stmt 0 view .LVU74
 909 00f4 B5F5C54F 		cmp	r5, #25216
 910 00f8 06D1     		bne	.L10
 243:D:/fchai/work/i-cube/I-CUBE-HUAWEI/Middlewares/Third_Party/Huawei/iot_link/network/dtls/mbedtls/mbedtls-2.16.2/library\error.c ****         if( use_ret == -(MBEDTLS_ERR_CIPHER_AUTH_FAILED) )
 911              		.loc 1 243 13 is_stmt 1 view .LVU75
 912 00fa 6C4B     		ldr	r3, .L207
 913 00fc 744A     		ldr	r2, .L207+36
 914 00fe 1B68     		ldr	r3, [r3]
 915 0100 2146     		mov	r1, r4
 916 0102 3046     		mov	r0, r6
 917 0104 9847     		blx	r3
 918              	.LVL25:
 244:D:/fchai/work/i-cube/I-CUBE-HUAWEI/Middlewares/Third_Party/Huawei/iot_link/network/dtls/mbedtls/mbedtls-2.16.2/library\error.c ****             mbedtls_snprintf( buf, buflen, "CIPHER - Authentication failed (for AEAD modes)" );
 919              		.loc 1 244 9 view .LVU76
 246:D:/fchai/work/i-cube/I-CUBE-HUAWEI/Middlewares/Third_Party/Huawei/iot_link/network/dtls/mbedtls/mbedtls-2.16.2/library\error.c ****             mbedtls_snprintf( buf, buflen, "CIPHER - The context is invalid. For example, because i
 920              		.loc 1 246 9 view .LVU77
 921 0106 9AE7     		b	.L146
 922              	.L10:
 244:D:/fchai/work/i-cube/I-CUBE-HUAWEI/Middlewares/Third_Party/Huawei/iot_link/network/dtls/mbedtls/mbedtls-2.16.2/library\error.c ****             mbedtls_snprintf( buf, buflen, "CIPHER - Authentication failed (for AEAD modes)" );
 923              		.loc 1 244 9 view .LVU78
ARM GAS  T:\msys\tmp\cceu68zA.s 			page 50


 244:D:/fchai/work/i-cube/I-CUBE-HUAWEI/Middlewares/Third_Party/Huawei/iot_link/network/dtls/mbedtls/mbedtls-2.16.2/library\error.c ****             mbedtls_snprintf( buf, buflen, "CIPHER - Authentication failed (for AEAD modes)" );
 924              		.loc 1 244 11 is_stmt 0 view .LVU79
 925 0108 B5F5C64F 		cmp	r5, #25344
 926 010c 06D1     		bne	.L11
 245:D:/fchai/work/i-cube/I-CUBE-HUAWEI/Middlewares/Third_Party/Huawei/iot_link/network/dtls/mbedtls/mbedtls-2.16.2/library\error.c ****         if( use_ret == -(MBEDTLS_ERR_CIPHER_INVALID_CONTEXT) )
 927              		.loc 1 245 13 is_stmt 1 view .LVU80
 928 010e 674B     		ldr	r3, .L207
 929 0110 704A     		ldr	r2, .L207+40
 930 0112 1B68     		ldr	r3, [r3]
 931 0114 2146     		mov	r1, r4
 932 0116 3046     		mov	r0, r6
 933 0118 9847     		blx	r3
 934              	.LVL26:
 246:D:/fchai/work/i-cube/I-CUBE-HUAWEI/Middlewares/Third_Party/Huawei/iot_link/network/dtls/mbedtls/mbedtls-2.16.2/library\error.c ****             mbedtls_snprintf( buf, buflen, "CIPHER - The context is invalid. For example, because i
 935              		.loc 1 246 9 view .LVU81
 248:D:/fchai/work/i-cube/I-CUBE-HUAWEI/Middlewares/Third_Party/Huawei/iot_link/network/dtls/mbedtls/mbedtls-2.16.2/library\error.c ****             mbedtls_snprintf( buf, buflen, "CIPHER - Cipher hardware accelerator failed" );
 936              		.loc 1 248 9 view .LVU82
 937 011a 90E7     		b	.L146
 938              	.L11:
 246:D:/fchai/work/i-cube/I-CUBE-HUAWEI/Middlewares/Third_Party/Huawei/iot_link/network/dtls/mbedtls/mbedtls-2.16.2/library\error.c ****             mbedtls_snprintf( buf, buflen, "CIPHER - The context is invalid. For example, because i
 939              		.loc 1 246 9 view .LVU83
 246:D:/fchai/work/i-cube/I-CUBE-HUAWEI/Middlewares/Third_Party/Huawei/iot_link/network/dtls/mbedtls/mbedtls-2.16.2/library\error.c ****             mbedtls_snprintf( buf, buflen, "CIPHER - The context is invalid. For example, because i
 940              		.loc 1 246 11 is_stmt 0 view .LVU84
 941 011c B5F5C74F 		cmp	r5, #25472
 942 0120 06D1     		bne	.L12
 247:D:/fchai/work/i-cube/I-CUBE-HUAWEI/Middlewares/Third_Party/Huawei/iot_link/network/dtls/mbedtls/mbedtls-2.16.2/library\error.c ****         if( use_ret == -(MBEDTLS_ERR_CIPHER_HW_ACCEL_FAILED) )
 943              		.loc 1 247 13 is_stmt 1 view .LVU85
 944 0122 624B     		ldr	r3, .L207
 945 0124 6C4A     		ldr	r2, .L207+44
 946 0126 1B68     		ldr	r3, [r3]
 947 0128 2146     		mov	r1, r4
 948 012a 3046     		mov	r0, r6
 949 012c 9847     		blx	r3
 950              	.LVL27:
 248:D:/fchai/work/i-cube/I-CUBE-HUAWEI/Middlewares/Third_Party/Huawei/iot_link/network/dtls/mbedtls/mbedtls-2.16.2/library\error.c ****             mbedtls_snprintf( buf, buflen, "CIPHER - Cipher hardware accelerator failed" );
 951              		.loc 1 248 9 view .LVU86
 278:D:/fchai/work/i-cube/I-CUBE-HUAWEI/Middlewares/Third_Party/Huawei/iot_link/network/dtls/mbedtls/mbedtls-2.16.2/library\error.c ****             mbedtls_snprintf( buf, buflen, "ECP - Bad input parameters to function" );
 952              		.loc 1 278 9 view .LVU87
 953 012e 86E7     		b	.L146
 954              	.L12:
 248:D:/fchai/work/i-cube/I-CUBE-HUAWEI/Middlewares/Third_Party/Huawei/iot_link/network/dtls/mbedtls/mbedtls-2.16.2/library\error.c ****             mbedtls_snprintf( buf, buflen, "CIPHER - Cipher hardware accelerator failed" );
 955              		.loc 1 248 9 view .LVU88
 248:D:/fchai/work/i-cube/I-CUBE-HUAWEI/Middlewares/Third_Party/Huawei/iot_link/network/dtls/mbedtls/mbedtls-2.16.2/library\error.c ****             mbedtls_snprintf( buf, buflen, "CIPHER - Cipher hardware accelerator failed" );
 956              		.loc 1 248 11 is_stmt 0 view .LVU89
 957 0130 B5F5C84F 		cmp	r5, #25600
 958 0134 06D1     		bne	.L13
 249:D:/fchai/work/i-cube/I-CUBE-HUAWEI/Middlewares/Third_Party/Huawei/iot_link/network/dtls/mbedtls/mbedtls-2.16.2/library\error.c **** #endif /* MBEDTLS_CIPHER_C */
 959              		.loc 1 249 13 is_stmt 1 view .LVU90
 960 0136 5D4B     		ldr	r3, .L207
 961 0138 684A     		ldr	r2, .L207+48
 962 013a 1B68     		ldr	r3, [r3]
 963 013c 2146     		mov	r1, r4
 964 013e 3046     		mov	r0, r6
 965 0140 9847     		blx	r3
 966              	.LVL28:
 278:D:/fchai/work/i-cube/I-CUBE-HUAWEI/Middlewares/Third_Party/Huawei/iot_link/network/dtls/mbedtls/mbedtls-2.16.2/library\error.c ****             mbedtls_snprintf( buf, buflen, "ECP - Bad input parameters to function" );
 967              		.loc 1 278 9 view .LVU91
ARM GAS  T:\msys\tmp\cceu68zA.s 			page 51


 280:D:/fchai/work/i-cube/I-CUBE-HUAWEI/Middlewares/Third_Party/Huawei/iot_link/network/dtls/mbedtls/mbedtls-2.16.2/library\error.c ****             mbedtls_snprintf( buf, buflen, "ECP - The buffer is too small to write to" );
 968              		.loc 1 280 9 view .LVU92
 969 0142 7CE7     		b	.L146
 970              	.L13:
 278:D:/fchai/work/i-cube/I-CUBE-HUAWEI/Middlewares/Third_Party/Huawei/iot_link/network/dtls/mbedtls/mbedtls-2.16.2/library\error.c ****             mbedtls_snprintf( buf, buflen, "ECP - Bad input parameters to function" );
 971              		.loc 1 278 9 view .LVU93
 278:D:/fchai/work/i-cube/I-CUBE-HUAWEI/Middlewares/Third_Party/Huawei/iot_link/network/dtls/mbedtls/mbedtls-2.16.2/library\error.c ****             mbedtls_snprintf( buf, buflen, "ECP - Bad input parameters to function" );
 972              		.loc 1 278 11 is_stmt 0 view .LVU94
 973 0144 B5F59F4F 		cmp	r5, #20352
 974 0148 06D1     		bne	.L14
 279:D:/fchai/work/i-cube/I-CUBE-HUAWEI/Middlewares/Third_Party/Huawei/iot_link/network/dtls/mbedtls/mbedtls-2.16.2/library\error.c ****         if( use_ret == -(MBEDTLS_ERR_ECP_BUFFER_TOO_SMALL) )
 975              		.loc 1 279 13 is_stmt 1 view .LVU95
 976 014a 584B     		ldr	r3, .L207
 977 014c 644A     		ldr	r2, .L207+52
 978 014e 1B68     		ldr	r3, [r3]
 979 0150 2146     		mov	r1, r4
 980 0152 3046     		mov	r0, r6
 981 0154 9847     		blx	r3
 982              	.LVL29:
 280:D:/fchai/work/i-cube/I-CUBE-HUAWEI/Middlewares/Third_Party/Huawei/iot_link/network/dtls/mbedtls/mbedtls-2.16.2/library\error.c ****             mbedtls_snprintf( buf, buflen, "ECP - The buffer is too small to write to" );
 983              		.loc 1 280 9 view .LVU96
 282:D:/fchai/work/i-cube/I-CUBE-HUAWEI/Middlewares/Third_Party/Huawei/iot_link/network/dtls/mbedtls/mbedtls-2.16.2/library\error.c ****             mbedtls_snprintf( buf, buflen, "ECP - The requested feature is not available, for examp
 984              		.loc 1 282 9 view .LVU97
 985 0156 72E7     		b	.L146
 986              	.L14:
 280:D:/fchai/work/i-cube/I-CUBE-HUAWEI/Middlewares/Third_Party/Huawei/iot_link/network/dtls/mbedtls/mbedtls-2.16.2/library\error.c ****             mbedtls_snprintf( buf, buflen, "ECP - The buffer is too small to write to" );
 987              		.loc 1 280 9 view .LVU98
 280:D:/fchai/work/i-cube/I-CUBE-HUAWEI/Middlewares/Third_Party/Huawei/iot_link/network/dtls/mbedtls/mbedtls-2.16.2/library\error.c ****             mbedtls_snprintf( buf, buflen, "ECP - The buffer is too small to write to" );
 988              		.loc 1 280 11 is_stmt 0 view .LVU99
 989 0158 B5F59E4F 		cmp	r5, #20224
 990 015c 06D1     		bne	.L15
 281:D:/fchai/work/i-cube/I-CUBE-HUAWEI/Middlewares/Third_Party/Huawei/iot_link/network/dtls/mbedtls/mbedtls-2.16.2/library\error.c ****         if( use_ret == -(MBEDTLS_ERR_ECP_FEATURE_UNAVAILABLE) )
 991              		.loc 1 281 13 is_stmt 1 view .LVU100
 992 015e 534B     		ldr	r3, .L207
 993 0160 604A     		ldr	r2, .L207+56
 994 0162 1B68     		ldr	r3, [r3]
 995 0164 2146     		mov	r1, r4
 996 0166 3046     		mov	r0, r6
 997 0168 9847     		blx	r3
 998              	.LVL30:
 282:D:/fchai/work/i-cube/I-CUBE-HUAWEI/Middlewares/Third_Party/Huawei/iot_link/network/dtls/mbedtls/mbedtls-2.16.2/library\error.c ****             mbedtls_snprintf( buf, buflen, "ECP - The requested feature is not available, for examp
 999              		.loc 1 282 9 view .LVU101
 284:D:/fchai/work/i-cube/I-CUBE-HUAWEI/Middlewares/Third_Party/Huawei/iot_link/network/dtls/mbedtls/mbedtls-2.16.2/library\error.c ****             mbedtls_snprintf( buf, buflen, "ECP - The signature is not valid" );
 1000              		.loc 1 284 9 view .LVU102
 1001 016a 68E7     		b	.L146
 1002              	.L15:
 282:D:/fchai/work/i-cube/I-CUBE-HUAWEI/Middlewares/Third_Party/Huawei/iot_link/network/dtls/mbedtls/mbedtls-2.16.2/library\error.c ****             mbedtls_snprintf( buf, buflen, "ECP - The requested feature is not available, for examp
 1003              		.loc 1 282 9 view .LVU103
 282:D:/fchai/work/i-cube/I-CUBE-HUAWEI/Middlewares/Third_Party/Huawei/iot_link/network/dtls/mbedtls/mbedtls-2.16.2/library\error.c ****             mbedtls_snprintf( buf, buflen, "ECP - The requested feature is not available, for examp
 1004              		.loc 1 282 11 is_stmt 0 view .LVU104
 1005 016c B5F59D4F 		cmp	r5, #20096
 1006 0170 06D1     		bne	.L16
 283:D:/fchai/work/i-cube/I-CUBE-HUAWEI/Middlewares/Third_Party/Huawei/iot_link/network/dtls/mbedtls/mbedtls-2.16.2/library\error.c ****         if( use_ret == -(MBEDTLS_ERR_ECP_VERIFY_FAILED) )
 1007              		.loc 1 283 13 is_stmt 1 view .LVU105
 1008 0172 4E4B     		ldr	r3, .L207
 1009 0174 5C4A     		ldr	r2, .L207+60
 1010 0176 1B68     		ldr	r3, [r3]
ARM GAS  T:\msys\tmp\cceu68zA.s 			page 52


 1011 0178 2146     		mov	r1, r4
 1012 017a 3046     		mov	r0, r6
 1013 017c 9847     		blx	r3
 1014              	.LVL31:
 284:D:/fchai/work/i-cube/I-CUBE-HUAWEI/Middlewares/Third_Party/Huawei/iot_link/network/dtls/mbedtls/mbedtls-2.16.2/library\error.c ****             mbedtls_snprintf( buf, buflen, "ECP - The signature is not valid" );
 1015              		.loc 1 284 9 view .LVU106
 286:D:/fchai/work/i-cube/I-CUBE-HUAWEI/Middlewares/Third_Party/Huawei/iot_link/network/dtls/mbedtls/mbedtls-2.16.2/library\error.c ****             mbedtls_snprintf( buf, buflen, "ECP - Memory allocation failed" );
 1016              		.loc 1 286 9 view .LVU107
 1017 017e 5EE7     		b	.L146
 1018              	.L16:
 284:D:/fchai/work/i-cube/I-CUBE-HUAWEI/Middlewares/Third_Party/Huawei/iot_link/network/dtls/mbedtls/mbedtls-2.16.2/library\error.c ****             mbedtls_snprintf( buf, buflen, "ECP - The signature is not valid" );
 1019              		.loc 1 284 9 view .LVU108
 284:D:/fchai/work/i-cube/I-CUBE-HUAWEI/Middlewares/Third_Party/Huawei/iot_link/network/dtls/mbedtls/mbedtls-2.16.2/library\error.c ****             mbedtls_snprintf( buf, buflen, "ECP - The signature is not valid" );
 1020              		.loc 1 284 11 is_stmt 0 view .LVU109
 1021 0180 B5F59C4F 		cmp	r5, #19968
 1022 0184 06D1     		bne	.L17
 285:D:/fchai/work/i-cube/I-CUBE-HUAWEI/Middlewares/Third_Party/Huawei/iot_link/network/dtls/mbedtls/mbedtls-2.16.2/library\error.c ****         if( use_ret == -(MBEDTLS_ERR_ECP_ALLOC_FAILED) )
 1023              		.loc 1 285 13 is_stmt 1 view .LVU110
 1024 0186 494B     		ldr	r3, .L207
 1025 0188 584A     		ldr	r2, .L207+64
 1026 018a 1B68     		ldr	r3, [r3]
 1027 018c 2146     		mov	r1, r4
 1028 018e 3046     		mov	r0, r6
 1029 0190 9847     		blx	r3
 1030              	.LVL32:
 286:D:/fchai/work/i-cube/I-CUBE-HUAWEI/Middlewares/Third_Party/Huawei/iot_link/network/dtls/mbedtls/mbedtls-2.16.2/library\error.c ****             mbedtls_snprintf( buf, buflen, "ECP - Memory allocation failed" );
 1031              		.loc 1 286 9 view .LVU111
 288:D:/fchai/work/i-cube/I-CUBE-HUAWEI/Middlewares/Third_Party/Huawei/iot_link/network/dtls/mbedtls/mbedtls-2.16.2/library\error.c ****             mbedtls_snprintf( buf, buflen, "ECP - Generation of random value, such as ephemeral key
 1032              		.loc 1 288 9 view .LVU112
 1033 0192 54E7     		b	.L146
 1034              	.L17:
 286:D:/fchai/work/i-cube/I-CUBE-HUAWEI/Middlewares/Third_Party/Huawei/iot_link/network/dtls/mbedtls/mbedtls-2.16.2/library\error.c ****             mbedtls_snprintf( buf, buflen, "ECP - Memory allocation failed" );
 1035              		.loc 1 286 9 view .LVU113
 286:D:/fchai/work/i-cube/I-CUBE-HUAWEI/Middlewares/Third_Party/Huawei/iot_link/network/dtls/mbedtls/mbedtls-2.16.2/library\error.c ****             mbedtls_snprintf( buf, buflen, "ECP - Memory allocation failed" );
 1036              		.loc 1 286 11 is_stmt 0 view .LVU114
 1037 0194 B5F59B4F 		cmp	r5, #19840
