ARM GAS  T:\msys\tmp\ccyunwdQ.s 			page 1


   1              		.cpu cortex-m4
   2              		.eabi_attribute 27, 1
   3              		.eabi_attribute 28, 1
   4              		.eabi_attribute 20, 1
   5              		.eabi_attribute 21, 1
   6              		.eabi_attribute 23, 3
   7              		.eabi_attribute 24, 1
   8              		.eabi_attribute 25, 1
   9              		.eabi_attribute 26, 1
  10              		.eabi_attribute 30, 2
  11              		.eabi_attribute 34, 1
  12              		.eabi_attribute 18, 4
  13              		.file	"gcm.c"
  14              		.text
  15              	.Ltext0:
  16              		.cfi_sections	.debug_frame
  17              		.section	.text.gcm_mult,"ax",%progbits
  18              		.align	1
  19              		.p2align 2,,3
  20              		.arch armv7e-m
  21              		.syntax unified
  22              		.thumb
  23              		.thumb_func
  24              		.fpu fpv4-sp-d16
  26              	gcm_mult:
  27              	.LVL0:
  28              	.LFB10:
  29              		.file 1 "D:/fchai/work/i-cube/I-CUBE-HUAWEI/Middlewares/Third_Party/Huawei/iot_link/network/dtls/m
   1:D:/fchai/work/i-cube/I-CUBE-HUAWEI/Middlewares/Third_Party/Huawei/iot_link/network/dtls/mbedtls/mbedtls-2.16.2/library\gcm.c **** /*
   2:D:/fchai/work/i-cube/I-CUBE-HUAWEI/Middlewares/Third_Party/Huawei/iot_link/network/dtls/mbedtls/mbedtls-2.16.2/library\gcm.c ****  *  NIST SP800-38D compliant GCM implementation
   3:D:/fchai/work/i-cube/I-CUBE-HUAWEI/Middlewares/Third_Party/Huawei/iot_link/network/dtls/mbedtls/mbedtls-2.16.2/library\gcm.c ****  *
   4:D:/fchai/work/i-cube/I-CUBE-HUAWEI/Middlewares/Third_Party/Huawei/iot_link/network/dtls/mbedtls/mbedtls-2.16.2/library\gcm.c ****  *  Copyright (C) 2006-2015, ARM Limited, All Rights Reserved
   5:D:/fchai/work/i-cube/I-CUBE-HUAWEI/Middlewares/Third_Party/Huawei/iot_link/network/dtls/mbedtls/mbedtls-2.16.2/library\gcm.c ****  *  SPDX-License-Identifier: Apache-2.0
   6:D:/fchai/work/i-cube/I-CUBE-HUAWEI/Middlewares/Third_Party/Huawei/iot_link/network/dtls/mbedtls/mbedtls-2.16.2/library\gcm.c ****  *
   7:D:/fchai/work/i-cube/I-CUBE-HUAWEI/Middlewares/Third_Party/Huawei/iot_link/network/dtls/mbedtls/mbedtls-2.16.2/library\gcm.c ****  *  Licensed under the Apache License, Version 2.0 (the "License"); you may
   8:D:/fchai/work/i-cube/I-CUBE-HUAWEI/Middlewares/Third_Party/Huawei/iot_link/network/dtls/mbedtls/mbedtls-2.16.2/library\gcm.c ****  *  not use this file except in compliance with the License.
   9:D:/fchai/work/i-cube/I-CUBE-HUAWEI/Middlewares/Third_Party/Huawei/iot_link/network/dtls/mbedtls/mbedtls-2.16.2/library\gcm.c ****  *  You may obtain a copy of the License at
  10:D:/fchai/work/i-cube/I-CUBE-HUAWEI/Middlewares/Third_Party/Huawei/iot_link/network/dtls/mbedtls/mbedtls-2.16.2/library\gcm.c ****  *
  11:D:/fchai/work/i-cube/I-CUBE-HUAWEI/Middlewares/Third_Party/Huawei/iot_link/network/dtls/mbedtls/mbedtls-2.16.2/library\gcm.c ****  *  http://www.apache.org/licenses/LICENSE-2.0
  12:D:/fchai/work/i-cube/I-CUBE-HUAWEI/Middlewares/Third_Party/Huawei/iot_link/network/dtls/mbedtls/mbedtls-2.16.2/library\gcm.c ****  *
  13:D:/fchai/work/i-cube/I-CUBE-HUAWEI/Middlewares/Third_Party/Huawei/iot_link/network/dtls/mbedtls/mbedtls-2.16.2/library\gcm.c ****  *  Unless required by applicable law or agreed to in writing, software
  14:D:/fchai/work/i-cube/I-CUBE-HUAWEI/Middlewares/Third_Party/Huawei/iot_link/network/dtls/mbedtls/mbedtls-2.16.2/library\gcm.c ****  *  distributed under the License is distributed on an "AS IS" BASIS, WITHOUT
  15:D:/fchai/work/i-cube/I-CUBE-HUAWEI/Middlewares/Third_Party/Huawei/iot_link/network/dtls/mbedtls/mbedtls-2.16.2/library\gcm.c ****  *  WARRANTIES OR CONDITIONS OF ANY KIND, either express or implied.
  16:D:/fchai/work/i-cube/I-CUBE-HUAWEI/Middlewares/Third_Party/Huawei/iot_link/network/dtls/mbedtls/mbedtls-2.16.2/library\gcm.c ****  *  See the License for the specific language governing permissions and
  17:D:/fchai/work/i-cube/I-CUBE-HUAWEI/Middlewares/Third_Party/Huawei/iot_link/network/dtls/mbedtls/mbedtls-2.16.2/library\gcm.c ****  *  limitations under the License.
  18:D:/fchai/work/i-cube/I-CUBE-HUAWEI/Middlewares/Third_Party/Huawei/iot_link/network/dtls/mbedtls/mbedtls-2.16.2/library\gcm.c ****  *
  19:D:/fchai/work/i-cube/I-CUBE-HUAWEI/Middlewares/Third_Party/Huawei/iot_link/network/dtls/mbedtls/mbedtls-2.16.2/library\gcm.c ****  *  This file is part of mbed TLS (https://tls.mbed.org)
  20:D:/fchai/work/i-cube/I-CUBE-HUAWEI/Middlewares/Third_Party/Huawei/iot_link/network/dtls/mbedtls/mbedtls-2.16.2/library\gcm.c ****  */
  21:D:/fchai/work/i-cube/I-CUBE-HUAWEI/Middlewares/Third_Party/Huawei/iot_link/network/dtls/mbedtls/mbedtls-2.16.2/library\gcm.c **** 
  22:D:/fchai/work/i-cube/I-CUBE-HUAWEI/Middlewares/Third_Party/Huawei/iot_link/network/dtls/mbedtls/mbedtls-2.16.2/library\gcm.c **** /*
  23:D:/fchai/work/i-cube/I-CUBE-HUAWEI/Middlewares/Third_Party/Huawei/iot_link/network/dtls/mbedtls/mbedtls-2.16.2/library\gcm.c ****  * http://csrc.nist.gov/publications/nistpubs/800-38D/SP-800-38D.pdf
  24:D:/fchai/work/i-cube/I-CUBE-HUAWEI/Middlewares/Third_Party/Huawei/iot_link/network/dtls/mbedtls/mbedtls-2.16.2/library\gcm.c ****  *
  25:D:/fchai/work/i-cube/I-CUBE-HUAWEI/Middlewares/Third_Party/Huawei/iot_link/network/dtls/mbedtls/mbedtls-2.16.2/library\gcm.c ****  * See also:
  26:D:/fchai/work/i-cube/I-CUBE-HUAWEI/Middlewares/Third_Party/Huawei/iot_link/network/dtls/mbedtls/mbedtls-2.16.2/library\gcm.c ****  * [MGV] http://csrc.nist.gov/groups/ST/toolkit/BCM/documents/proposedmodes/gcm/gcm-revised-spec.pd
  27:D:/fchai/work/i-cube/I-CUBE-HUAWEI/Middlewares/Third_Party/Huawei/iot_link/network/dtls/mbedtls/mbedtls-2.16.2/library\gcm.c ****  *
  28:D:/fchai/work/i-cube/I-CUBE-HUAWEI/Middlewares/Third_Party/Huawei/iot_link/network/dtls/mbedtls/mbedtls-2.16.2/library\gcm.c ****  * We use the algorithm described as Shoup's method with 4-bit tables in
  29:D:/fchai/work/i-cube/I-CUBE-HUAWEI/Middlewares/Third_Party/Huawei/iot_link/network/dtls/mbedtls/mbedtls-2.16.2/library\gcm.c ****  * [MGV] 4.1, pp. 12-13, to enhance speed without using too much memory.
ARM GAS  T:\msys\tmp\ccyunwdQ.s 			page 2


  30:D:/fchai/work/i-cube/I-CUBE-HUAWEI/Middlewares/Third_Party/Huawei/iot_link/network/dtls/mbedtls/mbedtls-2.16.2/library\gcm.c ****  */
  31:D:/fchai/work/i-cube/I-CUBE-HUAWEI/Middlewares/Third_Party/Huawei/iot_link/network/dtls/mbedtls/mbedtls-2.16.2/library\gcm.c **** 
  32:D:/fchai/work/i-cube/I-CUBE-HUAWEI/Middlewares/Third_Party/Huawei/iot_link/network/dtls/mbedtls/mbedtls-2.16.2/library\gcm.c **** #if !defined(MBEDTLS_CONFIG_FILE)
  33:D:/fchai/work/i-cube/I-CUBE-HUAWEI/Middlewares/Third_Party/Huawei/iot_link/network/dtls/mbedtls/mbedtls-2.16.2/library\gcm.c **** #include "mbedtls/config.h"
  34:D:/fchai/work/i-cube/I-CUBE-HUAWEI/Middlewares/Third_Party/Huawei/iot_link/network/dtls/mbedtls/mbedtls-2.16.2/library\gcm.c **** #else
  35:D:/fchai/work/i-cube/I-CUBE-HUAWEI/Middlewares/Third_Party/Huawei/iot_link/network/dtls/mbedtls/mbedtls-2.16.2/library\gcm.c **** #include MBEDTLS_CONFIG_FILE
  36:D:/fchai/work/i-cube/I-CUBE-HUAWEI/Middlewares/Third_Party/Huawei/iot_link/network/dtls/mbedtls/mbedtls-2.16.2/library\gcm.c **** #endif
  37:D:/fchai/work/i-cube/I-CUBE-HUAWEI/Middlewares/Third_Party/Huawei/iot_link/network/dtls/mbedtls/mbedtls-2.16.2/library\gcm.c **** 
  38:D:/fchai/work/i-cube/I-CUBE-HUAWEI/Middlewares/Third_Party/Huawei/iot_link/network/dtls/mbedtls/mbedtls-2.16.2/library\gcm.c **** #if defined(MBEDTLS_GCM_C)
  39:D:/fchai/work/i-cube/I-CUBE-HUAWEI/Middlewares/Third_Party/Huawei/iot_link/network/dtls/mbedtls/mbedtls-2.16.2/library\gcm.c **** 
  40:D:/fchai/work/i-cube/I-CUBE-HUAWEI/Middlewares/Third_Party/Huawei/iot_link/network/dtls/mbedtls/mbedtls-2.16.2/library\gcm.c **** #include "mbedtls/gcm.h"
  41:D:/fchai/work/i-cube/I-CUBE-HUAWEI/Middlewares/Third_Party/Huawei/iot_link/network/dtls/mbedtls/mbedtls-2.16.2/library\gcm.c **** #include "mbedtls/platform_util.h"
  42:D:/fchai/work/i-cube/I-CUBE-HUAWEI/Middlewares/Third_Party/Huawei/iot_link/network/dtls/mbedtls/mbedtls-2.16.2/library\gcm.c **** 
  43:D:/fchai/work/i-cube/I-CUBE-HUAWEI/Middlewares/Third_Party/Huawei/iot_link/network/dtls/mbedtls/mbedtls-2.16.2/library\gcm.c **** #include <string.h>
  44:D:/fchai/work/i-cube/I-CUBE-HUAWEI/Middlewares/Third_Party/Huawei/iot_link/network/dtls/mbedtls/mbedtls-2.16.2/library\gcm.c **** 
  45:D:/fchai/work/i-cube/I-CUBE-HUAWEI/Middlewares/Third_Party/Huawei/iot_link/network/dtls/mbedtls/mbedtls-2.16.2/library\gcm.c **** #if defined(MBEDTLS_AESNI_C)
  46:D:/fchai/work/i-cube/I-CUBE-HUAWEI/Middlewares/Third_Party/Huawei/iot_link/network/dtls/mbedtls/mbedtls-2.16.2/library\gcm.c **** #include "mbedtls/aesni.h"
  47:D:/fchai/work/i-cube/I-CUBE-HUAWEI/Middlewares/Third_Party/Huawei/iot_link/network/dtls/mbedtls/mbedtls-2.16.2/library\gcm.c **** #endif
  48:D:/fchai/work/i-cube/I-CUBE-HUAWEI/Middlewares/Third_Party/Huawei/iot_link/network/dtls/mbedtls/mbedtls-2.16.2/library\gcm.c **** 
  49:D:/fchai/work/i-cube/I-CUBE-HUAWEI/Middlewares/Third_Party/Huawei/iot_link/network/dtls/mbedtls/mbedtls-2.16.2/library\gcm.c **** #if defined(MBEDTLS_SELF_TEST) && defined(MBEDTLS_AES_C)
  50:D:/fchai/work/i-cube/I-CUBE-HUAWEI/Middlewares/Third_Party/Huawei/iot_link/network/dtls/mbedtls/mbedtls-2.16.2/library\gcm.c **** #include "mbedtls/aes.h"
  51:D:/fchai/work/i-cube/I-CUBE-HUAWEI/Middlewares/Third_Party/Huawei/iot_link/network/dtls/mbedtls/mbedtls-2.16.2/library\gcm.c **** #include "mbedtls/platform.h"
  52:D:/fchai/work/i-cube/I-CUBE-HUAWEI/Middlewares/Third_Party/Huawei/iot_link/network/dtls/mbedtls/mbedtls-2.16.2/library\gcm.c **** #if !defined(MBEDTLS_PLATFORM_C)
  53:D:/fchai/work/i-cube/I-CUBE-HUAWEI/Middlewares/Third_Party/Huawei/iot_link/network/dtls/mbedtls/mbedtls-2.16.2/library\gcm.c **** #include <stdio.h>
  54:D:/fchai/work/i-cube/I-CUBE-HUAWEI/Middlewares/Third_Party/Huawei/iot_link/network/dtls/mbedtls/mbedtls-2.16.2/library\gcm.c **** #define mbedtls_printf printf
  55:D:/fchai/work/i-cube/I-CUBE-HUAWEI/Middlewares/Third_Party/Huawei/iot_link/network/dtls/mbedtls/mbedtls-2.16.2/library\gcm.c **** #endif /* MBEDTLS_PLATFORM_C */
  56:D:/fchai/work/i-cube/I-CUBE-HUAWEI/Middlewares/Third_Party/Huawei/iot_link/network/dtls/mbedtls/mbedtls-2.16.2/library\gcm.c **** #endif /* MBEDTLS_SELF_TEST && MBEDTLS_AES_C */
  57:D:/fchai/work/i-cube/I-CUBE-HUAWEI/Middlewares/Third_Party/Huawei/iot_link/network/dtls/mbedtls/mbedtls-2.16.2/library\gcm.c **** 
  58:D:/fchai/work/i-cube/I-CUBE-HUAWEI/Middlewares/Third_Party/Huawei/iot_link/network/dtls/mbedtls/mbedtls-2.16.2/library\gcm.c **** #if !defined(MBEDTLS_GCM_ALT)
  59:D:/fchai/work/i-cube/I-CUBE-HUAWEI/Middlewares/Third_Party/Huawei/iot_link/network/dtls/mbedtls/mbedtls-2.16.2/library\gcm.c **** 
  60:D:/fchai/work/i-cube/I-CUBE-HUAWEI/Middlewares/Third_Party/Huawei/iot_link/network/dtls/mbedtls/mbedtls-2.16.2/library\gcm.c **** /* Parameter validation macros */
  61:D:/fchai/work/i-cube/I-CUBE-HUAWEI/Middlewares/Third_Party/Huawei/iot_link/network/dtls/mbedtls/mbedtls-2.16.2/library\gcm.c **** #define GCM_VALIDATE_RET( cond ) \
  62:D:/fchai/work/i-cube/I-CUBE-HUAWEI/Middlewares/Third_Party/Huawei/iot_link/network/dtls/mbedtls/mbedtls-2.16.2/library\gcm.c ****     MBEDTLS_INTERNAL_VALIDATE_RET( cond, MBEDTLS_ERR_GCM_BAD_INPUT )
  63:D:/fchai/work/i-cube/I-CUBE-HUAWEI/Middlewares/Third_Party/Huawei/iot_link/network/dtls/mbedtls/mbedtls-2.16.2/library\gcm.c **** #define GCM_VALIDATE( cond ) \
  64:D:/fchai/work/i-cube/I-CUBE-HUAWEI/Middlewares/Third_Party/Huawei/iot_link/network/dtls/mbedtls/mbedtls-2.16.2/library\gcm.c ****     MBEDTLS_INTERNAL_VALIDATE( cond )
  65:D:/fchai/work/i-cube/I-CUBE-HUAWEI/Middlewares/Third_Party/Huawei/iot_link/network/dtls/mbedtls/mbedtls-2.16.2/library\gcm.c **** 
  66:D:/fchai/work/i-cube/I-CUBE-HUAWEI/Middlewares/Third_Party/Huawei/iot_link/network/dtls/mbedtls/mbedtls-2.16.2/library\gcm.c **** /*
  67:D:/fchai/work/i-cube/I-CUBE-HUAWEI/Middlewares/Third_Party/Huawei/iot_link/network/dtls/mbedtls/mbedtls-2.16.2/library\gcm.c ****  * 32-bit integer manipulation macros (big endian)
  68:D:/fchai/work/i-cube/I-CUBE-HUAWEI/Middlewares/Third_Party/Huawei/iot_link/network/dtls/mbedtls/mbedtls-2.16.2/library\gcm.c ****  */
  69:D:/fchai/work/i-cube/I-CUBE-HUAWEI/Middlewares/Third_Party/Huawei/iot_link/network/dtls/mbedtls/mbedtls-2.16.2/library\gcm.c **** #ifndef GET_UINT32_BE
  70:D:/fchai/work/i-cube/I-CUBE-HUAWEI/Middlewares/Third_Party/Huawei/iot_link/network/dtls/mbedtls/mbedtls-2.16.2/library\gcm.c **** #define GET_UINT32_BE(n,b,i)                            \
  71:D:/fchai/work/i-cube/I-CUBE-HUAWEI/Middlewares/Third_Party/Huawei/iot_link/network/dtls/mbedtls/mbedtls-2.16.2/library\gcm.c **** {                                                       \
  72:D:/fchai/work/i-cube/I-CUBE-HUAWEI/Middlewares/Third_Party/Huawei/iot_link/network/dtls/mbedtls/mbedtls-2.16.2/library\gcm.c ****     (n) = ( (uint32_t) (b)[(i)    ] << 24 )             \
  73:D:/fchai/work/i-cube/I-CUBE-HUAWEI/Middlewares/Third_Party/Huawei/iot_link/network/dtls/mbedtls/mbedtls-2.16.2/library\gcm.c ****         | ( (uint32_t) (b)[(i) + 1] << 16 )             \
  74:D:/fchai/work/i-cube/I-CUBE-HUAWEI/Middlewares/Third_Party/Huawei/iot_link/network/dtls/mbedtls/mbedtls-2.16.2/library\gcm.c ****         | ( (uint32_t) (b)[(i) + 2] <<  8 )             \
  75:D:/fchai/work/i-cube/I-CUBE-HUAWEI/Middlewares/Third_Party/Huawei/iot_link/network/dtls/mbedtls/mbedtls-2.16.2/library\gcm.c ****         | ( (uint32_t) (b)[(i) + 3]       );            \
  76:D:/fchai/work/i-cube/I-CUBE-HUAWEI/Middlewares/Third_Party/Huawei/iot_link/network/dtls/mbedtls/mbedtls-2.16.2/library\gcm.c **** }
  77:D:/fchai/work/i-cube/I-CUBE-HUAWEI/Middlewares/Third_Party/Huawei/iot_link/network/dtls/mbedtls/mbedtls-2.16.2/library\gcm.c **** #endif
  78:D:/fchai/work/i-cube/I-CUBE-HUAWEI/Middlewares/Third_Party/Huawei/iot_link/network/dtls/mbedtls/mbedtls-2.16.2/library\gcm.c **** 
  79:D:/fchai/work/i-cube/I-CUBE-HUAWEI/Middlewares/Third_Party/Huawei/iot_link/network/dtls/mbedtls/mbedtls-2.16.2/library\gcm.c **** #ifndef PUT_UINT32_BE
  80:D:/fchai/work/i-cube/I-CUBE-HUAWEI/Middlewares/Third_Party/Huawei/iot_link/network/dtls/mbedtls/mbedtls-2.16.2/library\gcm.c **** #define PUT_UINT32_BE(n,b,i)                            \
  81:D:/fchai/work/i-cube/I-CUBE-HUAWEI/Middlewares/Third_Party/Huawei/iot_link/network/dtls/mbedtls/mbedtls-2.16.2/library\gcm.c **** {                                                       \
  82:D:/fchai/work/i-cube/I-CUBE-HUAWEI/Middlewares/Third_Party/Huawei/iot_link/network/dtls/mbedtls/mbedtls-2.16.2/library\gcm.c ****     (b)[(i)    ] = (unsigned char) ( (n) >> 24 );       \
  83:D:/fchai/work/i-cube/I-CUBE-HUAWEI/Middlewares/Third_Party/Huawei/iot_link/network/dtls/mbedtls/mbedtls-2.16.2/library\gcm.c ****     (b)[(i) + 1] = (unsigned char) ( (n) >> 16 );       \
  84:D:/fchai/work/i-cube/I-CUBE-HUAWEI/Middlewares/Third_Party/Huawei/iot_link/network/dtls/mbedtls/mbedtls-2.16.2/library\gcm.c ****     (b)[(i) + 2] = (unsigned char) ( (n) >>  8 );       \
  85:D:/fchai/work/i-cube/I-CUBE-HUAWEI/Middlewares/Third_Party/Huawei/iot_link/network/dtls/mbedtls/mbedtls-2.16.2/library\gcm.c ****     (b)[(i) + 3] = (unsigned char) ( (n)       );       \
  86:D:/fchai/work/i-cube/I-CUBE-HUAWEI/Middlewares/Third_Party/Huawei/iot_link/network/dtls/mbedtls/mbedtls-2.16.2/library\gcm.c **** }
ARM GAS  T:\msys\tmp\ccyunwdQ.s 			page 3


  87:D:/fchai/work/i-cube/I-CUBE-HUAWEI/Middlewares/Third_Party/Huawei/iot_link/network/dtls/mbedtls/mbedtls-2.16.2/library\gcm.c **** #endif
  88:D:/fchai/work/i-cube/I-CUBE-HUAWEI/Middlewares/Third_Party/Huawei/iot_link/network/dtls/mbedtls/mbedtls-2.16.2/library\gcm.c **** 
  89:D:/fchai/work/i-cube/I-CUBE-HUAWEI/Middlewares/Third_Party/Huawei/iot_link/network/dtls/mbedtls/mbedtls-2.16.2/library\gcm.c **** /*
  90:D:/fchai/work/i-cube/I-CUBE-HUAWEI/Middlewares/Third_Party/Huawei/iot_link/network/dtls/mbedtls/mbedtls-2.16.2/library\gcm.c ****  * Initialize a context
  91:D:/fchai/work/i-cube/I-CUBE-HUAWEI/Middlewares/Third_Party/Huawei/iot_link/network/dtls/mbedtls/mbedtls-2.16.2/library\gcm.c ****  */
  92:D:/fchai/work/i-cube/I-CUBE-HUAWEI/Middlewares/Third_Party/Huawei/iot_link/network/dtls/mbedtls/mbedtls-2.16.2/library\gcm.c **** void mbedtls_gcm_init( mbedtls_gcm_context *ctx )
  93:D:/fchai/work/i-cube/I-CUBE-HUAWEI/Middlewares/Third_Party/Huawei/iot_link/network/dtls/mbedtls/mbedtls-2.16.2/library\gcm.c **** {
  94:D:/fchai/work/i-cube/I-CUBE-HUAWEI/Middlewares/Third_Party/Huawei/iot_link/network/dtls/mbedtls/mbedtls-2.16.2/library\gcm.c ****     GCM_VALIDATE( ctx != NULL );
  95:D:/fchai/work/i-cube/I-CUBE-HUAWEI/Middlewares/Third_Party/Huawei/iot_link/network/dtls/mbedtls/mbedtls-2.16.2/library\gcm.c ****     memset( ctx, 0, sizeof( mbedtls_gcm_context ) );
  96:D:/fchai/work/i-cube/I-CUBE-HUAWEI/Middlewares/Third_Party/Huawei/iot_link/network/dtls/mbedtls/mbedtls-2.16.2/library\gcm.c **** }
  97:D:/fchai/work/i-cube/I-CUBE-HUAWEI/Middlewares/Third_Party/Huawei/iot_link/network/dtls/mbedtls/mbedtls-2.16.2/library\gcm.c **** 
  98:D:/fchai/work/i-cube/I-CUBE-HUAWEI/Middlewares/Third_Party/Huawei/iot_link/network/dtls/mbedtls/mbedtls-2.16.2/library\gcm.c **** /*
  99:D:/fchai/work/i-cube/I-CUBE-HUAWEI/Middlewares/Third_Party/Huawei/iot_link/network/dtls/mbedtls/mbedtls-2.16.2/library\gcm.c ****  * Precompute small multiples of H, that is set
 100:D:/fchai/work/i-cube/I-CUBE-HUAWEI/Middlewares/Third_Party/Huawei/iot_link/network/dtls/mbedtls/mbedtls-2.16.2/library\gcm.c ****  *      HH[i] || HL[i] = H times i,
 101:D:/fchai/work/i-cube/I-CUBE-HUAWEI/Middlewares/Third_Party/Huawei/iot_link/network/dtls/mbedtls/mbedtls-2.16.2/library\gcm.c ****  * where i is seen as a field element as in [MGV], ie high-order bits
 102:D:/fchai/work/i-cube/I-CUBE-HUAWEI/Middlewares/Third_Party/Huawei/iot_link/network/dtls/mbedtls/mbedtls-2.16.2/library\gcm.c ****  * correspond to low powers of P. The result is stored in the same way, that
 103:D:/fchai/work/i-cube/I-CUBE-HUAWEI/Middlewares/Third_Party/Huawei/iot_link/network/dtls/mbedtls/mbedtls-2.16.2/library\gcm.c ****  * is the high-order bit of HH corresponds to P^0 and the low-order bit of HL
 104:D:/fchai/work/i-cube/I-CUBE-HUAWEI/Middlewares/Third_Party/Huawei/iot_link/network/dtls/mbedtls/mbedtls-2.16.2/library\gcm.c ****  * corresponds to P^127.
 105:D:/fchai/work/i-cube/I-CUBE-HUAWEI/Middlewares/Third_Party/Huawei/iot_link/network/dtls/mbedtls/mbedtls-2.16.2/library\gcm.c ****  */
 106:D:/fchai/work/i-cube/I-CUBE-HUAWEI/Middlewares/Third_Party/Huawei/iot_link/network/dtls/mbedtls/mbedtls-2.16.2/library\gcm.c **** static int gcm_gen_table( mbedtls_gcm_context *ctx )
 107:D:/fchai/work/i-cube/I-CUBE-HUAWEI/Middlewares/Third_Party/Huawei/iot_link/network/dtls/mbedtls/mbedtls-2.16.2/library\gcm.c **** {
 108:D:/fchai/work/i-cube/I-CUBE-HUAWEI/Middlewares/Third_Party/Huawei/iot_link/network/dtls/mbedtls/mbedtls-2.16.2/library\gcm.c ****     int ret, i, j;
 109:D:/fchai/work/i-cube/I-CUBE-HUAWEI/Middlewares/Third_Party/Huawei/iot_link/network/dtls/mbedtls/mbedtls-2.16.2/library\gcm.c ****     uint64_t hi, lo;
 110:D:/fchai/work/i-cube/I-CUBE-HUAWEI/Middlewares/Third_Party/Huawei/iot_link/network/dtls/mbedtls/mbedtls-2.16.2/library\gcm.c ****     uint64_t vl, vh;
 111:D:/fchai/work/i-cube/I-CUBE-HUAWEI/Middlewares/Third_Party/Huawei/iot_link/network/dtls/mbedtls/mbedtls-2.16.2/library\gcm.c ****     unsigned char h[16];
 112:D:/fchai/work/i-cube/I-CUBE-HUAWEI/Middlewares/Third_Party/Huawei/iot_link/network/dtls/mbedtls/mbedtls-2.16.2/library\gcm.c ****     size_t olen = 0;
 113:D:/fchai/work/i-cube/I-CUBE-HUAWEI/Middlewares/Third_Party/Huawei/iot_link/network/dtls/mbedtls/mbedtls-2.16.2/library\gcm.c **** 
 114:D:/fchai/work/i-cube/I-CUBE-HUAWEI/Middlewares/Third_Party/Huawei/iot_link/network/dtls/mbedtls/mbedtls-2.16.2/library\gcm.c ****     memset( h, 0, 16 );
 115:D:/fchai/work/i-cube/I-CUBE-HUAWEI/Middlewares/Third_Party/Huawei/iot_link/network/dtls/mbedtls/mbedtls-2.16.2/library\gcm.c ****     if( ( ret = mbedtls_cipher_update( &ctx->cipher_ctx, h, 16, h, &olen ) ) != 0 )
 116:D:/fchai/work/i-cube/I-CUBE-HUAWEI/Middlewares/Third_Party/Huawei/iot_link/network/dtls/mbedtls/mbedtls-2.16.2/library\gcm.c ****         return( ret );
 117:D:/fchai/work/i-cube/I-CUBE-HUAWEI/Middlewares/Third_Party/Huawei/iot_link/network/dtls/mbedtls/mbedtls-2.16.2/library\gcm.c **** 
 118:D:/fchai/work/i-cube/I-CUBE-HUAWEI/Middlewares/Third_Party/Huawei/iot_link/network/dtls/mbedtls/mbedtls-2.16.2/library\gcm.c ****     /* pack h as two 64-bits ints, big-endian */
 119:D:/fchai/work/i-cube/I-CUBE-HUAWEI/Middlewares/Third_Party/Huawei/iot_link/network/dtls/mbedtls/mbedtls-2.16.2/library\gcm.c ****     GET_UINT32_BE( hi, h,  0  );
 120:D:/fchai/work/i-cube/I-CUBE-HUAWEI/Middlewares/Third_Party/Huawei/iot_link/network/dtls/mbedtls/mbedtls-2.16.2/library\gcm.c ****     GET_UINT32_BE( lo, h,  4  );
 121:D:/fchai/work/i-cube/I-CUBE-HUAWEI/Middlewares/Third_Party/Huawei/iot_link/network/dtls/mbedtls/mbedtls-2.16.2/library\gcm.c ****     vh = (uint64_t) hi << 32 | lo;
 122:D:/fchai/work/i-cube/I-CUBE-HUAWEI/Middlewares/Third_Party/Huawei/iot_link/network/dtls/mbedtls/mbedtls-2.16.2/library\gcm.c **** 
 123:D:/fchai/work/i-cube/I-CUBE-HUAWEI/Middlewares/Third_Party/Huawei/iot_link/network/dtls/mbedtls/mbedtls-2.16.2/library\gcm.c ****     GET_UINT32_BE( hi, h,  8  );
 124:D:/fchai/work/i-cube/I-CUBE-HUAWEI/Middlewares/Third_Party/Huawei/iot_link/network/dtls/mbedtls/mbedtls-2.16.2/library\gcm.c ****     GET_UINT32_BE( lo, h,  12 );
 125:D:/fchai/work/i-cube/I-CUBE-HUAWEI/Middlewares/Third_Party/Huawei/iot_link/network/dtls/mbedtls/mbedtls-2.16.2/library\gcm.c ****     vl = (uint64_t) hi << 32 | lo;
 126:D:/fchai/work/i-cube/I-CUBE-HUAWEI/Middlewares/Third_Party/Huawei/iot_link/network/dtls/mbedtls/mbedtls-2.16.2/library\gcm.c **** 
 127:D:/fchai/work/i-cube/I-CUBE-HUAWEI/Middlewares/Third_Party/Huawei/iot_link/network/dtls/mbedtls/mbedtls-2.16.2/library\gcm.c ****     /* 8 = 1000 corresponds to 1 in GF(2^128) */
 128:D:/fchai/work/i-cube/I-CUBE-HUAWEI/Middlewares/Third_Party/Huawei/iot_link/network/dtls/mbedtls/mbedtls-2.16.2/library\gcm.c ****     ctx->HL[8] = vl;
 129:D:/fchai/work/i-cube/I-CUBE-HUAWEI/Middlewares/Third_Party/Huawei/iot_link/network/dtls/mbedtls/mbedtls-2.16.2/library\gcm.c ****     ctx->HH[8] = vh;
 130:D:/fchai/work/i-cube/I-CUBE-HUAWEI/Middlewares/Third_Party/Huawei/iot_link/network/dtls/mbedtls/mbedtls-2.16.2/library\gcm.c **** 
 131:D:/fchai/work/i-cube/I-CUBE-HUAWEI/Middlewares/Third_Party/Huawei/iot_link/network/dtls/mbedtls/mbedtls-2.16.2/library\gcm.c **** #if defined(MBEDTLS_AESNI_C) && defined(MBEDTLS_HAVE_X86_64)
 132:D:/fchai/work/i-cube/I-CUBE-HUAWEI/Middlewares/Third_Party/Huawei/iot_link/network/dtls/mbedtls/mbedtls-2.16.2/library\gcm.c ****     /* With CLMUL support, we need only h, not the rest of the table */
 133:D:/fchai/work/i-cube/I-CUBE-HUAWEI/Middlewares/Third_Party/Huawei/iot_link/network/dtls/mbedtls/mbedtls-2.16.2/library\gcm.c ****     if( mbedtls_aesni_has_support( MBEDTLS_AESNI_CLMUL ) )
 134:D:/fchai/work/i-cube/I-CUBE-HUAWEI/Middlewares/Third_Party/Huawei/iot_link/network/dtls/mbedtls/mbedtls-2.16.2/library\gcm.c ****         return( 0 );
 135:D:/fchai/work/i-cube/I-CUBE-HUAWEI/Middlewares/Third_Party/Huawei/iot_link/network/dtls/mbedtls/mbedtls-2.16.2/library\gcm.c **** #endif
 136:D:/fchai/work/i-cube/I-CUBE-HUAWEI/Middlewares/Third_Party/Huawei/iot_link/network/dtls/mbedtls/mbedtls-2.16.2/library\gcm.c **** 
 137:D:/fchai/work/i-cube/I-CUBE-HUAWEI/Middlewares/Third_Party/Huawei/iot_link/network/dtls/mbedtls/mbedtls-2.16.2/library\gcm.c ****     /* 0 corresponds to 0 in GF(2^128) */
 138:D:/fchai/work/i-cube/I-CUBE-HUAWEI/Middlewares/Third_Party/Huawei/iot_link/network/dtls/mbedtls/mbedtls-2.16.2/library\gcm.c ****     ctx->HH[0] = 0;
 139:D:/fchai/work/i-cube/I-CUBE-HUAWEI/Middlewares/Third_Party/Huawei/iot_link/network/dtls/mbedtls/mbedtls-2.16.2/library\gcm.c ****     ctx->HL[0] = 0;
 140:D:/fchai/work/i-cube/I-CUBE-HUAWEI/Middlewares/Third_Party/Huawei/iot_link/network/dtls/mbedtls/mbedtls-2.16.2/library\gcm.c **** 
 141:D:/fchai/work/i-cube/I-CUBE-HUAWEI/Middlewares/Third_Party/Huawei/iot_link/network/dtls/mbedtls/mbedtls-2.16.2/library\gcm.c ****     for( i = 4; i > 0; i >>= 1 )
 142:D:/fchai/work/i-cube/I-CUBE-HUAWEI/Middlewares/Third_Party/Huawei/iot_link/network/dtls/mbedtls/mbedtls-2.16.2/library\gcm.c ****     {
 143:D:/fchai/work/i-cube/I-CUBE-HUAWEI/Middlewares/Third_Party/Huawei/iot_link/network/dtls/mbedtls/mbedtls-2.16.2/library\gcm.c ****         uint32_t T = ( vl & 1 ) * 0xe1000000U;
ARM GAS  T:\msys\tmp\ccyunwdQ.s 			page 4


 144:D:/fchai/work/i-cube/I-CUBE-HUAWEI/Middlewares/Third_Party/Huawei/iot_link/network/dtls/mbedtls/mbedtls-2.16.2/library\gcm.c ****         vl  = ( vh << 63 ) | ( vl >> 1 );
 145:D:/fchai/work/i-cube/I-CUBE-HUAWEI/Middlewares/Third_Party/Huawei/iot_link/network/dtls/mbedtls/mbedtls-2.16.2/library\gcm.c ****         vh  = ( vh >> 1 ) ^ ( (uint64_t) T << 32);
 146:D:/fchai/work/i-cube/I-CUBE-HUAWEI/Middlewares/Third_Party/Huawei/iot_link/network/dtls/mbedtls/mbedtls-2.16.2/library\gcm.c **** 
 147:D:/fchai/work/i-cube/I-CUBE-HUAWEI/Middlewares/Third_Party/Huawei/iot_link/network/dtls/mbedtls/mbedtls-2.16.2/library\gcm.c ****         ctx->HL[i] = vl;
 148:D:/fchai/work/i-cube/I-CUBE-HUAWEI/Middlewares/Third_Party/Huawei/iot_link/network/dtls/mbedtls/mbedtls-2.16.2/library\gcm.c ****         ctx->HH[i] = vh;
 149:D:/fchai/work/i-cube/I-CUBE-HUAWEI/Middlewares/Third_Party/Huawei/iot_link/network/dtls/mbedtls/mbedtls-2.16.2/library\gcm.c ****     }
 150:D:/fchai/work/i-cube/I-CUBE-HUAWEI/Middlewares/Third_Party/Huawei/iot_link/network/dtls/mbedtls/mbedtls-2.16.2/library\gcm.c **** 
 151:D:/fchai/work/i-cube/I-CUBE-HUAWEI/Middlewares/Third_Party/Huawei/iot_link/network/dtls/mbedtls/mbedtls-2.16.2/library\gcm.c ****     for( i = 2; i <= 8; i *= 2 )
 152:D:/fchai/work/i-cube/I-CUBE-HUAWEI/Middlewares/Third_Party/Huawei/iot_link/network/dtls/mbedtls/mbedtls-2.16.2/library\gcm.c ****     {
 153:D:/fchai/work/i-cube/I-CUBE-HUAWEI/Middlewares/Third_Party/Huawei/iot_link/network/dtls/mbedtls/mbedtls-2.16.2/library\gcm.c ****         uint64_t *HiL = ctx->HL + i, *HiH = ctx->HH + i;
 154:D:/fchai/work/i-cube/I-CUBE-HUAWEI/Middlewares/Third_Party/Huawei/iot_link/network/dtls/mbedtls/mbedtls-2.16.2/library\gcm.c ****         vh = *HiH;
 155:D:/fchai/work/i-cube/I-CUBE-HUAWEI/Middlewares/Third_Party/Huawei/iot_link/network/dtls/mbedtls/mbedtls-2.16.2/library\gcm.c ****         vl = *HiL;
 156:D:/fchai/work/i-cube/I-CUBE-HUAWEI/Middlewares/Third_Party/Huawei/iot_link/network/dtls/mbedtls/mbedtls-2.16.2/library\gcm.c ****         for( j = 1; j < i; j++ )
 157:D:/fchai/work/i-cube/I-CUBE-HUAWEI/Middlewares/Third_Party/Huawei/iot_link/network/dtls/mbedtls/mbedtls-2.16.2/library\gcm.c ****         {
 158:D:/fchai/work/i-cube/I-CUBE-HUAWEI/Middlewares/Third_Party/Huawei/iot_link/network/dtls/mbedtls/mbedtls-2.16.2/library\gcm.c ****             HiH[j] = vh ^ ctx->HH[j];
 159:D:/fchai/work/i-cube/I-CUBE-HUAWEI/Middlewares/Third_Party/Huawei/iot_link/network/dtls/mbedtls/mbedtls-2.16.2/library\gcm.c ****             HiL[j] = vl ^ ctx->HL[j];
 160:D:/fchai/work/i-cube/I-CUBE-HUAWEI/Middlewares/Third_Party/Huawei/iot_link/network/dtls/mbedtls/mbedtls-2.16.2/library\gcm.c ****         }
 161:D:/fchai/work/i-cube/I-CUBE-HUAWEI/Middlewares/Third_Party/Huawei/iot_link/network/dtls/mbedtls/mbedtls-2.16.2/library\gcm.c ****     }
 162:D:/fchai/work/i-cube/I-CUBE-HUAWEI/Middlewares/Third_Party/Huawei/iot_link/network/dtls/mbedtls/mbedtls-2.16.2/library\gcm.c **** 
 163:D:/fchai/work/i-cube/I-CUBE-HUAWEI/Middlewares/Third_Party/Huawei/iot_link/network/dtls/mbedtls/mbedtls-2.16.2/library\gcm.c ****     return( 0 );
 164:D:/fchai/work/i-cube/I-CUBE-HUAWEI/Middlewares/Third_Party/Huawei/iot_link/network/dtls/mbedtls/mbedtls-2.16.2/library\gcm.c **** }
 165:D:/fchai/work/i-cube/I-CUBE-HUAWEI/Middlewares/Third_Party/Huawei/iot_link/network/dtls/mbedtls/mbedtls-2.16.2/library\gcm.c **** 
 166:D:/fchai/work/i-cube/I-CUBE-HUAWEI/Middlewares/Third_Party/Huawei/iot_link/network/dtls/mbedtls/mbedtls-2.16.2/library\gcm.c **** int mbedtls_gcm_setkey( mbedtls_gcm_context *ctx,
 167:D:/fchai/work/i-cube/I-CUBE-HUAWEI/Middlewares/Third_Party/Huawei/iot_link/network/dtls/mbedtls/mbedtls-2.16.2/library\gcm.c ****                         mbedtls_cipher_id_t cipher,
 168:D:/fchai/work/i-cube/I-CUBE-HUAWEI/Middlewares/Third_Party/Huawei/iot_link/network/dtls/mbedtls/mbedtls-2.16.2/library\gcm.c ****                         const unsigned char *key,
 169:D:/fchai/work/i-cube/I-CUBE-HUAWEI/Middlewares/Third_Party/Huawei/iot_link/network/dtls/mbedtls/mbedtls-2.16.2/library\gcm.c ****                         unsigned int keybits )
 170:D:/fchai/work/i-cube/I-CUBE-HUAWEI/Middlewares/Third_Party/Huawei/iot_link/network/dtls/mbedtls/mbedtls-2.16.2/library\gcm.c **** {
 171:D:/fchai/work/i-cube/I-CUBE-HUAWEI/Middlewares/Third_Party/Huawei/iot_link/network/dtls/mbedtls/mbedtls-2.16.2/library\gcm.c ****     int ret;
 172:D:/fchai/work/i-cube/I-CUBE-HUAWEI/Middlewares/Third_Party/Huawei/iot_link/network/dtls/mbedtls/mbedtls-2.16.2/library\gcm.c ****     const mbedtls_cipher_info_t *cipher_info;
 173:D:/fchai/work/i-cube/I-CUBE-HUAWEI/Middlewares/Third_Party/Huawei/iot_link/network/dtls/mbedtls/mbedtls-2.16.2/library\gcm.c **** 
 174:D:/fchai/work/i-cube/I-CUBE-HUAWEI/Middlewares/Third_Party/Huawei/iot_link/network/dtls/mbedtls/mbedtls-2.16.2/library\gcm.c ****     GCM_VALIDATE_RET( ctx != NULL );
 175:D:/fchai/work/i-cube/I-CUBE-HUAWEI/Middlewares/Third_Party/Huawei/iot_link/network/dtls/mbedtls/mbedtls-2.16.2/library\gcm.c ****     GCM_VALIDATE_RET( key != NULL );
 176:D:/fchai/work/i-cube/I-CUBE-HUAWEI/Middlewares/Third_Party/Huawei/iot_link/network/dtls/mbedtls/mbedtls-2.16.2/library\gcm.c ****     GCM_VALIDATE_RET( keybits == 128 || keybits == 192 || keybits == 256 );
 177:D:/fchai/work/i-cube/I-CUBE-HUAWEI/Middlewares/Third_Party/Huawei/iot_link/network/dtls/mbedtls/mbedtls-2.16.2/library\gcm.c **** 
 178:D:/fchai/work/i-cube/I-CUBE-HUAWEI/Middlewares/Third_Party/Huawei/iot_link/network/dtls/mbedtls/mbedtls-2.16.2/library\gcm.c ****     cipher_info = mbedtls_cipher_info_from_values( cipher, keybits, MBEDTLS_MODE_ECB );
 179:D:/fchai/work/i-cube/I-CUBE-HUAWEI/Middlewares/Third_Party/Huawei/iot_link/network/dtls/mbedtls/mbedtls-2.16.2/library\gcm.c ****     if( cipher_info == NULL )
 180:D:/fchai/work/i-cube/I-CUBE-HUAWEI/Middlewares/Third_Party/Huawei/iot_link/network/dtls/mbedtls/mbedtls-2.16.2/library\gcm.c ****         return( MBEDTLS_ERR_GCM_BAD_INPUT );
 181:D:/fchai/work/i-cube/I-CUBE-HUAWEI/Middlewares/Third_Party/Huawei/iot_link/network/dtls/mbedtls/mbedtls-2.16.2/library\gcm.c **** 
 182:D:/fchai/work/i-cube/I-CUBE-HUAWEI/Middlewares/Third_Party/Huawei/iot_link/network/dtls/mbedtls/mbedtls-2.16.2/library\gcm.c ****     if( cipher_info->block_size != 16 )
 183:D:/fchai/work/i-cube/I-CUBE-HUAWEI/Middlewares/Third_Party/Huawei/iot_link/network/dtls/mbedtls/mbedtls-2.16.2/library\gcm.c ****         return( MBEDTLS_ERR_GCM_BAD_INPUT );
 184:D:/fchai/work/i-cube/I-CUBE-HUAWEI/Middlewares/Third_Party/Huawei/iot_link/network/dtls/mbedtls/mbedtls-2.16.2/library\gcm.c **** 
 185:D:/fchai/work/i-cube/I-CUBE-HUAWEI/Middlewares/Third_Party/Huawei/iot_link/network/dtls/mbedtls/mbedtls-2.16.2/library\gcm.c ****     mbedtls_cipher_free( &ctx->cipher_ctx );
 186:D:/fchai/work/i-cube/I-CUBE-HUAWEI/Middlewares/Third_Party/Huawei/iot_link/network/dtls/mbedtls/mbedtls-2.16.2/library\gcm.c **** 
 187:D:/fchai/work/i-cube/I-CUBE-HUAWEI/Middlewares/Third_Party/Huawei/iot_link/network/dtls/mbedtls/mbedtls-2.16.2/library\gcm.c ****     if( ( ret = mbedtls_cipher_setup( &ctx->cipher_ctx, cipher_info ) ) != 0 )
 188:D:/fchai/work/i-cube/I-CUBE-HUAWEI/Middlewares/Third_Party/Huawei/iot_link/network/dtls/mbedtls/mbedtls-2.16.2/library\gcm.c ****         return( ret );
 189:D:/fchai/work/i-cube/I-CUBE-HUAWEI/Middlewares/Third_Party/Huawei/iot_link/network/dtls/mbedtls/mbedtls-2.16.2/library\gcm.c **** 
 190:D:/fchai/work/i-cube/I-CUBE-HUAWEI/Middlewares/Third_Party/Huawei/iot_link/network/dtls/mbedtls/mbedtls-2.16.2/library\gcm.c ****     if( ( ret = mbedtls_cipher_setkey( &ctx->cipher_ctx, key, keybits,
 191:D:/fchai/work/i-cube/I-CUBE-HUAWEI/Middlewares/Third_Party/Huawei/iot_link/network/dtls/mbedtls/mbedtls-2.16.2/library\gcm.c ****                                MBEDTLS_ENCRYPT ) ) != 0 )
 192:D:/fchai/work/i-cube/I-CUBE-HUAWEI/Middlewares/Third_Party/Huawei/iot_link/network/dtls/mbedtls/mbedtls-2.16.2/library\gcm.c ****     {
 193:D:/fchai/work/i-cube/I-CUBE-HUAWEI/Middlewares/Third_Party/Huawei/iot_link/network/dtls/mbedtls/mbedtls-2.16.2/library\gcm.c ****         return( ret );
 194:D:/fchai/work/i-cube/I-CUBE-HUAWEI/Middlewares/Third_Party/Huawei/iot_link/network/dtls/mbedtls/mbedtls-2.16.2/library\gcm.c ****     }
 195:D:/fchai/work/i-cube/I-CUBE-HUAWEI/Middlewares/Third_Party/Huawei/iot_link/network/dtls/mbedtls/mbedtls-2.16.2/library\gcm.c **** 
 196:D:/fchai/work/i-cube/I-CUBE-HUAWEI/Middlewares/Third_Party/Huawei/iot_link/network/dtls/mbedtls/mbedtls-2.16.2/library\gcm.c ****     if( ( ret = gcm_gen_table( ctx ) ) != 0 )
 197:D:/fchai/work/i-cube/I-CUBE-HUAWEI/Middlewares/Third_Party/Huawei/iot_link/network/dtls/mbedtls/mbedtls-2.16.2/library\gcm.c ****         return( ret );
 198:D:/fchai/work/i-cube/I-CUBE-HUAWEI/Middlewares/Third_Party/Huawei/iot_link/network/dtls/mbedtls/mbedtls-2.16.2/library\gcm.c **** 
 199:D:/fchai/work/i-cube/I-CUBE-HUAWEI/Middlewares/Third_Party/Huawei/iot_link/network/dtls/mbedtls/mbedtls-2.16.2/library\gcm.c ****     return( 0 );
 200:D:/fchai/work/i-cube/I-CUBE-HUAWEI/Middlewares/Third_Party/Huawei/iot_link/network/dtls/mbedtls/mbedtls-2.16.2/library\gcm.c **** }
ARM GAS  T:\msys\tmp\ccyunwdQ.s 			page 5


 201:D:/fchai/work/i-cube/I-CUBE-HUAWEI/Middlewares/Third_Party/Huawei/iot_link/network/dtls/mbedtls/mbedtls-2.16.2/library\gcm.c **** 
 202:D:/fchai/work/i-cube/I-CUBE-HUAWEI/Middlewares/Third_Party/Huawei/iot_link/network/dtls/mbedtls/mbedtls-2.16.2/library\gcm.c **** /*
 203:D:/fchai/work/i-cube/I-CUBE-HUAWEI/Middlewares/Third_Party/Huawei/iot_link/network/dtls/mbedtls/mbedtls-2.16.2/library\gcm.c ****  * Shoup's method for multiplication use this table with
 204:D:/fchai/work/i-cube/I-CUBE-HUAWEI/Middlewares/Third_Party/Huawei/iot_link/network/dtls/mbedtls/mbedtls-2.16.2/library\gcm.c ****  *      last4[x] = x times P^128
 205:D:/fchai/work/i-cube/I-CUBE-HUAWEI/Middlewares/Third_Party/Huawei/iot_link/network/dtls/mbedtls/mbedtls-2.16.2/library\gcm.c ****  * where x and last4[x] are seen as elements of GF(2^128) as in [MGV]
 206:D:/fchai/work/i-cube/I-CUBE-HUAWEI/Middlewares/Third_Party/Huawei/iot_link/network/dtls/mbedtls/mbedtls-2.16.2/library\gcm.c ****  */
 207:D:/fchai/work/i-cube/I-CUBE-HUAWEI/Middlewares/Third_Party/Huawei/iot_link/network/dtls/mbedtls/mbedtls-2.16.2/library\gcm.c **** static const uint64_t last4[16] =
 208:D:/fchai/work/i-cube/I-CUBE-HUAWEI/Middlewares/Third_Party/Huawei/iot_link/network/dtls/mbedtls/mbedtls-2.16.2/library\gcm.c **** {
 209:D:/fchai/work/i-cube/I-CUBE-HUAWEI/Middlewares/Third_Party/Huawei/iot_link/network/dtls/mbedtls/mbedtls-2.16.2/library\gcm.c ****     0x0000, 0x1c20, 0x3840, 0x2460,
 210:D:/fchai/work/i-cube/I-CUBE-HUAWEI/Middlewares/Third_Party/Huawei/iot_link/network/dtls/mbedtls/mbedtls-2.16.2/library\gcm.c ****     0x7080, 0x6ca0, 0x48c0, 0x54e0,
 211:D:/fchai/work/i-cube/I-CUBE-HUAWEI/Middlewares/Third_Party/Huawei/iot_link/network/dtls/mbedtls/mbedtls-2.16.2/library\gcm.c ****     0xe100, 0xfd20, 0xd940, 0xc560,
 212:D:/fchai/work/i-cube/I-CUBE-HUAWEI/Middlewares/Third_Party/Huawei/iot_link/network/dtls/mbedtls/mbedtls-2.16.2/library\gcm.c ****     0x9180, 0x8da0, 0xa9c0, 0xb5e0
 213:D:/fchai/work/i-cube/I-CUBE-HUAWEI/Middlewares/Third_Party/Huawei/iot_link/network/dtls/mbedtls/mbedtls-2.16.2/library\gcm.c **** };
 214:D:/fchai/work/i-cube/I-CUBE-HUAWEI/Middlewares/Third_Party/Huawei/iot_link/network/dtls/mbedtls/mbedtls-2.16.2/library\gcm.c **** 
 215:D:/fchai/work/i-cube/I-CUBE-HUAWEI/Middlewares/Third_Party/Huawei/iot_link/network/dtls/mbedtls/mbedtls-2.16.2/library\gcm.c **** /*
 216:D:/fchai/work/i-cube/I-CUBE-HUAWEI/Middlewares/Third_Party/Huawei/iot_link/network/dtls/mbedtls/mbedtls-2.16.2/library\gcm.c ****  * Sets output to x times H using the precomputed tables.
 217:D:/fchai/work/i-cube/I-CUBE-HUAWEI/Middlewares/Third_Party/Huawei/iot_link/network/dtls/mbedtls/mbedtls-2.16.2/library\gcm.c ****  * x and output are seen as elements of GF(2^128) as in [MGV].
 218:D:/fchai/work/i-cube/I-CUBE-HUAWEI/Middlewares/Third_Party/Huawei/iot_link/network/dtls/mbedtls/mbedtls-2.16.2/library\gcm.c ****  */
 219:D:/fchai/work/i-cube/I-CUBE-HUAWEI/Middlewares/Third_Party/Huawei/iot_link/network/dtls/mbedtls/mbedtls-2.16.2/library\gcm.c **** static void gcm_mult( mbedtls_gcm_context *ctx, const unsigned char x[16],
 220:D:/fchai/work/i-cube/I-CUBE-HUAWEI/Middlewares/Third_Party/Huawei/iot_link/network/dtls/mbedtls/mbedtls-2.16.2/library\gcm.c ****                       unsigned char output[16] )
 221:D:/fchai/work/i-cube/I-CUBE-HUAWEI/Middlewares/Third_Party/Huawei/iot_link/network/dtls/mbedtls/mbedtls-2.16.2/library\gcm.c **** {
  30              		.loc 1 221 1 view -0
  31              		.cfi_startproc
  32              		@ args = 0, pretend = 0, frame = 8
  33              		@ frame_needed = 0, uses_anonymous_args = 0
  34              		.loc 1 221 1 is_stmt 0 view .LVU1
  35 0000 2DE9F04F 		push	{r4, r5, r6, r7, r8, r9, r10, fp, lr}
  36              	.LCFI0:
  37              		.cfi_def_cfa_offset 36
  38              		.cfi_offset 4, -36
  39              		.cfi_offset 5, -32
  40              		.cfi_offset 6, -28
  41              		.cfi_offset 7, -24
  42              		.cfi_offset 8, -20
  43              		.cfi_offset 9, -16
  44              		.cfi_offset 10, -12
  45              		.cfi_offset 11, -8
  46              		.cfi_offset 14, -4
 222:D:/fchai/work/i-cube/I-CUBE-HUAWEI/Middlewares/Third_Party/Huawei/iot_link/network/dtls/mbedtls/mbedtls-2.16.2/library\gcm.c ****     int i = 0;
 223:D:/fchai/work/i-cube/I-CUBE-HUAWEI/Middlewares/Third_Party/Huawei/iot_link/network/dtls/mbedtls/mbedtls-2.16.2/library\gcm.c ****     unsigned char lo, hi, rem;
 224:D:/fchai/work/i-cube/I-CUBE-HUAWEI/Middlewares/Third_Party/Huawei/iot_link/network/dtls/mbedtls/mbedtls-2.16.2/library\gcm.c ****     uint64_t zh, zl;
 225:D:/fchai/work/i-cube/I-CUBE-HUAWEI/Middlewares/Third_Party/Huawei/iot_link/network/dtls/mbedtls/mbedtls-2.16.2/library\gcm.c **** 
 226:D:/fchai/work/i-cube/I-CUBE-HUAWEI/Middlewares/Third_Party/Huawei/iot_link/network/dtls/mbedtls/mbedtls-2.16.2/library\gcm.c **** #if defined(MBEDTLS_AESNI_C) && defined(MBEDTLS_HAVE_X86_64)
 227:D:/fchai/work/i-cube/I-CUBE-HUAWEI/Middlewares/Third_Party/Huawei/iot_link/network/dtls/mbedtls/mbedtls-2.16.2/library\gcm.c ****     if( mbedtls_aesni_has_support( MBEDTLS_AESNI_CLMUL ) ) {
 228:D:/fchai/work/i-cube/I-CUBE-HUAWEI/Middlewares/Third_Party/Huawei/iot_link/network/dtls/mbedtls/mbedtls-2.16.2/library\gcm.c ****         unsigned char h[16];
 229:D:/fchai/work/i-cube/I-CUBE-HUAWEI/Middlewares/Third_Party/Huawei/iot_link/network/dtls/mbedtls/mbedtls-2.16.2/library\gcm.c **** 
 230:D:/fchai/work/i-cube/I-CUBE-HUAWEI/Middlewares/Third_Party/Huawei/iot_link/network/dtls/mbedtls/mbedtls-2.16.2/library\gcm.c ****         PUT_UINT32_BE( ctx->HH[8] >> 32, h,  0 );
 231:D:/fchai/work/i-cube/I-CUBE-HUAWEI/Middlewares/Third_Party/Huawei/iot_link/network/dtls/mbedtls/mbedtls-2.16.2/library\gcm.c ****         PUT_UINT32_BE( ctx->HH[8],       h,  4 );
 232:D:/fchai/work/i-cube/I-CUBE-HUAWEI/Middlewares/Third_Party/Huawei/iot_link/network/dtls/mbedtls/mbedtls-2.16.2/library\gcm.c ****         PUT_UINT32_BE( ctx->HL[8] >> 32, h,  8 );
 233:D:/fchai/work/i-cube/I-CUBE-HUAWEI/Middlewares/Third_Party/Huawei/iot_link/network/dtls/mbedtls/mbedtls-2.16.2/library\gcm.c ****         PUT_UINT32_BE( ctx->HL[8],       h, 12 );
 234:D:/fchai/work/i-cube/I-CUBE-HUAWEI/Middlewares/Third_Party/Huawei/iot_link/network/dtls/mbedtls/mbedtls-2.16.2/library\gcm.c **** 
 235:D:/fchai/work/i-cube/I-CUBE-HUAWEI/Middlewares/Third_Party/Huawei/iot_link/network/dtls/mbedtls/mbedtls-2.16.2/library\gcm.c ****         mbedtls_aesni_gcm_mult( output, x, h );
 236:D:/fchai/work/i-cube/I-CUBE-HUAWEI/Middlewares/Third_Party/Huawei/iot_link/network/dtls/mbedtls/mbedtls-2.16.2/library\gcm.c ****         return;
 237:D:/fchai/work/i-cube/I-CUBE-HUAWEI/Middlewares/Third_Party/Huawei/iot_link/network/dtls/mbedtls/mbedtls-2.16.2/library\gcm.c ****     }
 238:D:/fchai/work/i-cube/I-CUBE-HUAWEI/Middlewares/Third_Party/Huawei/iot_link/network/dtls/mbedtls/mbedtls-2.16.2/library\gcm.c **** #endif /* MBEDTLS_AESNI_C && MBEDTLS_HAVE_X86_64 */
 239:D:/fchai/work/i-cube/I-CUBE-HUAWEI/Middlewares/Third_Party/Huawei/iot_link/network/dtls/mbedtls/mbedtls-2.16.2/library\gcm.c **** 
 240:D:/fchai/work/i-cube/I-CUBE-HUAWEI/Middlewares/Third_Party/Huawei/iot_link/network/dtls/mbedtls/mbedtls-2.16.2/library\gcm.c ****     lo = x[15] & 0xf;
ARM GAS  T:\msys\tmp\ccyunwdQ.s 			page 6


  47              		.loc 1 240 16 view .LVU2
  48 0004 CB7B     		ldrb	r3, [r1, #15]	@ zero_extendqisi2
  49 0006 DFF804E1 		ldr	lr, .L11
 222:D:/fchai/work/i-cube/I-CUBE-HUAWEI/Middlewares/Third_Party/Huawei/iot_link/network/dtls/mbedtls/mbedtls-2.16.2/library\gcm.c ****     int i = 0;
  50              		.loc 1 222 5 is_stmt 1 view .LVU3
  51              	.LVL1:
 223:D:/fchai/work/i-cube/I-CUBE-HUAWEI/Middlewares/Third_Party/Huawei/iot_link/network/dtls/mbedtls/mbedtls-2.16.2/library\gcm.c ****     uint64_t zh, zl;
  52              		.loc 1 223 5 view .LVU4
 224:D:/fchai/work/i-cube/I-CUBE-HUAWEI/Middlewares/Third_Party/Huawei/iot_link/network/dtls/mbedtls/mbedtls-2.16.2/library\gcm.c **** 
  53              		.loc 1 224 5 view .LVU5
  54              		.loc 1 240 5 view .LVU6
 241:D:/fchai/work/i-cube/I-CUBE-HUAWEI/Middlewares/Third_Party/Huawei/iot_link/network/dtls/mbedtls/mbedtls-2.16.2/library\gcm.c **** 
 242:D:/fchai/work/i-cube/I-CUBE-HUAWEI/Middlewares/Third_Party/Huawei/iot_link/network/dtls/mbedtls/mbedtls-2.16.2/library\gcm.c ****     zh = ctx->HH[lo];
  55              		.loc 1 242 5 view .LVU7
 221:D:/fchai/work/i-cube/I-CUBE-HUAWEI/Middlewares/Third_Party/Huawei/iot_link/network/dtls/mbedtls/mbedtls-2.16.2/library\gcm.c ****     int i = 0;
  56              		.loc 1 221 1 is_stmt 0 view .LVU8
  57 000a 83B0     		sub	sp, sp, #12
  58              	.LCFI1:
  59              		.cfi_def_cfa_offset 48
  60 000c 03F00F04 		and	r4, r3, #15
  61 0010 00EBC404 		add	r4, r0, r4, lsl #3
  62              		.loc 1 242 8 view .LVU9
  63 0014 D4E93056 		ldrd	r5, r6, [r4, #192]
 221:D:/fchai/work/i-cube/I-CUBE-HUAWEI/Middlewares/Third_Party/Huawei/iot_link/network/dtls/mbedtls/mbedtls-2.16.2/library\gcm.c ****     int i = 0;
  64              		.loc 1 221 1 view .LVU10
  65 0018 0192     		str	r2, [sp, #4]
  66              	.LVL2:
 243:D:/fchai/work/i-cube/I-CUBE-HUAWEI/Middlewares/Third_Party/Huawei/iot_link/network/dtls/mbedtls/mbedtls-2.16.2/library\gcm.c ****     zl = ctx->HL[lo];
  67              		.loc 1 243 5 is_stmt 1 view .LVU11
  68              		.loc 1 243 8 is_stmt 0 view .LVU12
  69 001a D4E91024 		ldrd	r2, r4, [r4, #64]
  70              	.LVL3:
 244:D:/fchai/work/i-cube/I-CUBE-HUAWEI/Middlewares/Third_Party/Huawei/iot_link/network/dtls/mbedtls/mbedtls-2.16.2/library\gcm.c **** 
 245:D:/fchai/work/i-cube/I-CUBE-HUAWEI/Middlewares/Third_Party/Huawei/iot_link/network/dtls/mbedtls/mbedtls-2.16.2/library\gcm.c ****     for( i = 15; i >= 0; i-- )
  71              		.loc 1 245 5 is_stmt 1 view .LVU13
  72              		.loc 1 245 18 view .LVU14
 246:D:/fchai/work/i-cube/I-CUBE-HUAWEI/Middlewares/Third_Party/Huawei/iot_link/network/dtls/mbedtls/mbedtls-2.16.2/library\gcm.c ****     {
 247:D:/fchai/work/i-cube/I-CUBE-HUAWEI/Middlewares/Third_Party/Huawei/iot_link/network/dtls/mbedtls/mbedtls-2.16.2/library\gcm.c ****         lo = x[i] & 0xf;
  73              		.loc 1 247 9 view .LVU15
 248:D:/fchai/work/i-cube/I-CUBE-HUAWEI/Middlewares/Third_Party/Huawei/iot_link/network/dtls/mbedtls/mbedtls-2.16.2/library\gcm.c ****         hi = x[i] >> 4;
  74              		.loc 1 248 9 view .LVU16
  75 001e 01F10E07 		add	r7, r1, #14
  76 0022 01F1FF3B 		add	fp, r1, #-1
 249:D:/fchai/work/i-cube/I-CUBE-HUAWEI/Middlewares/Third_Party/Huawei/iot_link/network/dtls/mbedtls/mbedtls-2.16.2/library\gcm.c **** 
 250:D:/fchai/work/i-cube/I-CUBE-HUAWEI/Middlewares/Third_Party/Huawei/iot_link/network/dtls/mbedtls/mbedtls-2.16.2/library\gcm.c ****         if( i != 15 )
  77              		.loc 1 250 11 is_stmt 0 view .LVU17
  78 0026 C1F10101 		rsb	r1, r1, #1
  79              	.LVL4:
 248:D:/fchai/work/i-cube/I-CUBE-HUAWEI/Middlewares/Third_Party/Huawei/iot_link/network/dtls/mbedtls/mbedtls-2.16.2/library\gcm.c ****         hi = x[i] >> 4;
  80              		.loc 1 248 12 view .LVU18
  81 002a 1B09     		lsrs	r3, r3, #4
  82              	.LVL5:
  83              		.loc 1 250 9 is_stmt 1 view .LVU19
  84              		.loc 1 250 11 is_stmt 0 view .LVU20
  85 002c 0091     		str	r1, [sp]
  86              	.LVL6:
  87              	.L2:
ARM GAS  T:\msys\tmp\ccyunwdQ.s 			page 7


 251:D:/fchai/work/i-cube/I-CUBE-HUAWEI/Middlewares/Third_Party/Huawei/iot_link/network/dtls/mbedtls/mbedtls-2.16.2/library\gcm.c ****         {
 252:D:/fchai/work/i-cube/I-CUBE-HUAWEI/Middlewares/Third_Party/Huawei/iot_link/network/dtls/mbedtls/mbedtls-2.16.2/library\gcm.c ****             rem = (unsigned char) zl & 0xf;
  88              		.loc 1 252 13 is_stmt 1 discriminator 2 view .LVU21
 253:D:/fchai/work/i-cube/I-CUBE-HUAWEI/Middlewares/Third_Party/Huawei/iot_link/network/dtls/mbedtls/mbedtls-2.16.2/library\gcm.c ****             zl = ( zh << 60 ) | ( zl >> 4 );
 254:D:/fchai/work/i-cube/I-CUBE-HUAWEI/Middlewares/Third_Party/Huawei/iot_link/network/dtls/mbedtls/mbedtls-2.16.2/library\gcm.c ****             zh = ( zh >> 4 );
 255:D:/fchai/work/i-cube/I-CUBE-HUAWEI/Middlewares/Third_Party/Huawei/iot_link/network/dtls/mbedtls/mbedtls-2.16.2/library\gcm.c ****             zh ^= (uint64_t) last4[rem] << 48;
 256:D:/fchai/work/i-cube/I-CUBE-HUAWEI/Middlewares/Third_Party/Huawei/iot_link/network/dtls/mbedtls/mbedtls-2.16.2/library\gcm.c ****             zh ^= ctx->HH[lo];
 257:D:/fchai/work/i-cube/I-CUBE-HUAWEI/Middlewares/Third_Party/Huawei/iot_link/network/dtls/mbedtls/mbedtls-2.16.2/library\gcm.c ****             zl ^= ctx->HL[lo];
 258:D:/fchai/work/i-cube/I-CUBE-HUAWEI/Middlewares/Third_Party/Huawei/iot_link/network/dtls/mbedtls/mbedtls-2.16.2/library\gcm.c **** 
 259:D:/fchai/work/i-cube/I-CUBE-HUAWEI/Middlewares/Third_Party/Huawei/iot_link/network/dtls/mbedtls/mbedtls-2.16.2/library\gcm.c ****         }
 260:D:/fchai/work/i-cube/I-CUBE-HUAWEI/Middlewares/Third_Party/Huawei/iot_link/network/dtls/mbedtls/mbedtls-2.16.2/library\gcm.c **** 
 261:D:/fchai/work/i-cube/I-CUBE-HUAWEI/Middlewares/Third_Party/Huawei/iot_link/network/dtls/mbedtls/mbedtls-2.16.2/library\gcm.c ****         rem = (unsigned char) zl & 0xf;
  89              		.loc 1 261 9 discriminator 2 view .LVU22
 262:D:/fchai/work/i-cube/I-CUBE-HUAWEI/Middlewares/Third_Party/Huawei/iot_link/network/dtls/mbedtls/mbedtls-2.16.2/library\gcm.c ****         zl = ( zh << 60 ) | ( zl >> 4 );
  90              		.loc 1 262 9 discriminator 2 view .LVU23
 263:D:/fchai/work/i-cube/I-CUBE-HUAWEI/Middlewares/Third_Party/Huawei/iot_link/network/dtls/mbedtls/mbedtls-2.16.2/library\gcm.c ****         zh = ( zh >> 4 );
 264:D:/fchai/work/i-cube/I-CUBE-HUAWEI/Middlewares/Third_Party/Huawei/iot_link/network/dtls/mbedtls/mbedtls-2.16.2/library\gcm.c ****         zh ^= (uint64_t) last4[rem] << 48;
  91              		.loc 1 264 15 is_stmt 0 discriminator 2 view .LVU24
  92 002e 02F00F0C 		and	ip, r2, #15
  93 0032 00EBC303 		add	r3, r0, r3, lsl #3
  94              	.LVL7:
  95              		.loc 1 264 37 discriminator 2 view .LVU25
  96 0036 5EF83CA0 		ldr	r10, [lr, ip, lsl #3]
  97 003a D3F8C410 		ldr	r1, [r3, #196]
  98 003e D3F8C090 		ldr	r9, [r3, #192]
 265:D:/fchai/work/i-cube/I-CUBE-HUAWEI/Middlewares/Third_Party/Huawei/iot_link/network/dtls/mbedtls/mbedtls-2.16.2/library\gcm.c ****         zh ^= ctx->HH[hi];
 266:D:/fchai/work/i-cube/I-CUBE-HUAWEI/Middlewares/Third_Party/Huawei/iot_link/network/dtls/mbedtls/mbedtls-2.16.2/library\gcm.c ****         zl ^= ctx->HL[hi];
  99              		.loc 1 266 12 discriminator 2 view .LVU26
 100 0042 D3E9108C 		ldrd	r8, ip, [r3, #64]
 262:D:/fchai/work/i-cube/I-CUBE-HUAWEI/Middlewares/Third_Party/Huawei/iot_link/network/dtls/mbedtls/mbedtls-2.16.2/library\gcm.c ****         zh = ( zh >> 4 );
 101              		.loc 1 262 34 discriminator 2 view .LVU27
 102 0046 1209     		lsrs	r2, r2, #4
 103              	.LVL8:
 263:D:/fchai/work/i-cube/I-CUBE-HUAWEI/Middlewares/Third_Party/Huawei/iot_link/network/dtls/mbedtls/mbedtls-2.16.2/library\gcm.c ****         zh = ( zh >> 4 );
 104              		.loc 1 263 12 discriminator 2 view .LVU28
 105 0048 2B09     		lsrs	r3, r5, #4
 262:D:/fchai/work/i-cube/I-CUBE-HUAWEI/Middlewares/Third_Party/Huawei/iot_link/network/dtls/mbedtls/mbedtls-2.16.2/library\gcm.c ****         zh = ( zh >> 4 );
 106              		.loc 1 262 34 discriminator 2 view .LVU29
 107 004a 42EA0472 		orr	r2, r2, r4, lsl #28
 262:D:/fchai/work/i-cube/I-CUBE-HUAWEI/Middlewares/Third_Party/Huawei/iot_link/network/dtls/mbedtls/mbedtls-2.16.2/library\gcm.c ****         zh = ( zh >> 4 );
 108              		.loc 1 262 19 discriminator 2 view .LVU30
 109 004e 2D07     		lsls	r5, r5, #28
 263:D:/fchai/work/i-cube/I-CUBE-HUAWEI/Middlewares/Third_Party/Huawei/iot_link/network/dtls/mbedtls/mbedtls-2.16.2/library\gcm.c ****         zh = ( zh >> 4 );
 110              		.loc 1 263 12 discriminator 2 view .LVU31
 111 0050 43EA0673 		orr	r3, r3, r6, lsl #28
 262:D:/fchai/work/i-cube/I-CUBE-HUAWEI/Middlewares/Third_Party/Huawei/iot_link/network/dtls/mbedtls/mbedtls-2.16.2/library\gcm.c ****         zh = ( zh >> 4 );
 112              		.loc 1 262 12 discriminator 2 view .LVU32
 113 0054 45EA1414 		orr	r4, r5, r4, lsr #4
 114              	.LVL9:
 263:D:/fchai/work/i-cube/I-CUBE-HUAWEI/Middlewares/Third_Party/Huawei/iot_link/network/dtls/mbedtls/mbedtls-2.16.2/library\gcm.c ****         zh = ( zh >> 4 );
 115              		.loc 1 263 9 is_stmt 1 discriminator 2 view .LVU33
 264:D:/fchai/work/i-cube/I-CUBE-HUAWEI/Middlewares/Third_Party/Huawei/iot_link/network/dtls/mbedtls/mbedtls-2.16.2/library\gcm.c ****         zh ^= ctx->HH[hi];
 116              		.loc 1 264 9 discriminator 2 view .LVU34
 265:D:/fchai/work/i-cube/I-CUBE-HUAWEI/Middlewares/Third_Party/Huawei/iot_link/network/dtls/mbedtls/mbedtls-2.16.2/library\gcm.c ****         zh ^= ctx->HH[hi];
 117              		.loc 1 265 9 discriminator 2 view .LVU35
 118 0058 81EA1611 		eor	r1, r1, r6, lsr #4
 119              		.loc 1 266 12 is_stmt 0 discriminator 2 view .LVU36
ARM GAS  T:\msys\tmp\ccyunwdQ.s 			page 8


 120 005c 82EA0802 		eor	r2, r2, r8
 121              	.LVL10:
 245:D:/fchai/work/i-cube/I-CUBE-HUAWEI/Middlewares/Third_Party/Huawei/iot_link/network/dtls/mbedtls/mbedtls-2.16.2/library\gcm.c ****     {
 122              		.loc 1 245 5 discriminator 2 view .LVU37
 123 0060 BB45     		cmp	fp, r7
 265:D:/fchai/work/i-cube/I-CUBE-HUAWEI/Middlewares/Third_Party/Huawei/iot_link/network/dtls/mbedtls/mbedtls-2.16.2/library\gcm.c ****         zl ^= ctx->HL[hi];
 124              		.loc 1 265 12 discriminator 2 view .LVU38
 125 0062 81EA0A46 		eor	r6, r1, r10, lsl #16
 126              	.LVL11:
 127              		.loc 1 266 9 is_stmt 1 discriminator 2 view .LVU39
 253:D:/fchai/work/i-cube/I-CUBE-HUAWEI/Middlewares/Third_Party/Huawei/iot_link/network/dtls/mbedtls/mbedtls-2.16.2/library\gcm.c ****             zh = ( zh >> 4 );
 128              		.loc 1 253 13 discriminator 2 view .LVU40
 265:D:/fchai/work/i-cube/I-CUBE-HUAWEI/Middlewares/Third_Party/Huawei/iot_link/network/dtls/mbedtls/mbedtls-2.16.2/library\gcm.c ****         zl ^= ctx->HL[hi];
 129              		.loc 1 265 12 is_stmt 0 discriminator 2 view .LVU41
 130 0066 83EA0905 		eor	r5, r3, r9
 131              	.LVL12:
 255:D:/fchai/work/i-cube/I-CUBE-HUAWEI/Middlewares/Third_Party/Huawei/iot_link/network/dtls/mbedtls/mbedtls-2.16.2/library\gcm.c ****             zh ^= ctx->HH[lo];
 132              		.loc 1 255 19 discriminator 2 view .LVU42
 133 006a 02F00F08 		and	r8, r2, #15
 134              		.loc 1 266 12 discriminator 2 view .LVU43
 135 006e 84EA0C04 		eor	r4, r4, ip
 136              	.LVL13:
 247:D:/fchai/work/i-cube/I-CUBE-HUAWEI/Middlewares/Third_Party/Huawei/iot_link/network/dtls/mbedtls/mbedtls-2.16.2/library\gcm.c ****         hi = x[i] >> 4;
 137              		.loc 1 247 9 is_stmt 1 discriminator 2 view .LVU44
 245:D:/fchai/work/i-cube/I-CUBE-HUAWEI/Middlewares/Third_Party/Huawei/iot_link/network/dtls/mbedtls/mbedtls-2.16.2/library\gcm.c ****     {
 138              		.loc 1 245 26 discriminator 2 view .LVU45
 245:D:/fchai/work/i-cube/I-CUBE-HUAWEI/Middlewares/Third_Party/Huawei/iot_link/network/dtls/mbedtls/mbedtls-2.16.2/library\gcm.c ****     {
 139              		.loc 1 245 18 discriminator 2 view .LVU46
 245:D:/fchai/work/i-cube/I-CUBE-HUAWEI/Middlewares/Third_Party/Huawei/iot_link/network/dtls/mbedtls/mbedtls-2.16.2/library\gcm.c ****     {
 140              		.loc 1 245 5 is_stmt 0 discriminator 2 view .LVU47
 141 0072 2AD0     		beq	.L10
 247:D:/fchai/work/i-cube/I-CUBE-HUAWEI/Middlewares/Third_Party/Huawei/iot_link/network/dtls/mbedtls/mbedtls-2.16.2/library\gcm.c ****         hi = x[i] >> 4;
 142              		.loc 1 247 19 view .LVU48
 143 0074 17F80139 		ldrb	r3, [r7], #-1	@ zero_extendqisi2
 144              	.LVL14:
 250:D:/fchai/work/i-cube/I-CUBE-HUAWEI/Middlewares/Third_Party/Huawei/iot_link/network/dtls/mbedtls/mbedtls-2.16.2/library\gcm.c ****         {
 145              		.loc 1 250 11 view .LVU49
 146 0078 0099     		ldr	r1, [sp]
 147 007a 3944     		add	r1, r1, r7
 247:D:/fchai/work/i-cube/I-CUBE-HUAWEI/Middlewares/Third_Party/Huawei/iot_link/network/dtls/mbedtls/mbedtls-2.16.2/library\gcm.c ****         hi = x[i] >> 4;
 148              		.loc 1 247 12 view .LVU50
 149 007c 03F00F0C 		and	ip, r3, #15
 150              	.LVL15:
 248:D:/fchai/work/i-cube/I-CUBE-HUAWEI/Middlewares/Third_Party/Huawei/iot_link/network/dtls/mbedtls/mbedtls-2.16.2/library\gcm.c **** 
 151              		.loc 1 248 9 is_stmt 1 view .LVU51
 250:D:/fchai/work/i-cube/I-CUBE-HUAWEI/Middlewares/Third_Party/Huawei/iot_link/network/dtls/mbedtls/mbedtls-2.16.2/library\gcm.c ****         {
 152              		.loc 1 250 11 is_stmt 0 view .LVU52
 153 0080 0F29     		cmp	r1, #15
 154 0082 00EBCC0C 		add	ip, r0, ip, lsl #3
 155              	.LVL16:
 248:D:/fchai/work/i-cube/I-CUBE-HUAWEI/Middlewares/Third_Party/Huawei/iot_link/network/dtls/mbedtls/mbedtls-2.16.2/library\gcm.c **** 
 156              		.loc 1 248 12 view .LVU53
 157 0086 4FEA1313 		lsr	r3, r3, #4
 158              	.LVL17:
 250:D:/fchai/work/i-cube/I-CUBE-HUAWEI/Middlewares/Third_Party/Huawei/iot_link/network/dtls/mbedtls/mbedtls-2.16.2/library\gcm.c ****         {
 159              		.loc 1 250 9 is_stmt 1 view .LVU54
 250:D:/fchai/work/i-cube/I-CUBE-HUAWEI/Middlewares/Third_Party/Huawei/iot_link/network/dtls/mbedtls/mbedtls-2.16.2/library\gcm.c ****         {
ARM GAS  T:\msys\tmp\ccyunwdQ.s 			page 9


 160              		.loc 1 250 11 is_stmt 0 view .LVU55
 161 008a D0D0     		beq	.L2
 257:D:/fchai/work/i-cube/I-CUBE-HUAWEI/Middlewares/Third_Party/Huawei/iot_link/network/dtls/mbedtls/mbedtls-2.16.2/library\gcm.c **** 
 162              		.loc 1 257 16 view .LVU56
 163 008c DCF84090 		ldr	r9, [ip, #64]
 164 0090 DCF8C410 		ldr	r1, [ip, #196]
 255:D:/fchai/work/i-cube/I-CUBE-HUAWEI/Middlewares/Third_Party/Huawei/iot_link/network/dtls/mbedtls/mbedtls-2.16.2/library\gcm.c ****             zh ^= ctx->HH[lo];
 165              		.loc 1 255 41 view .LVU57
 166 0094 5EF838A0 		ldr	r10, [lr, r8, lsl #3]
 167 0098 DCF8C080 		ldr	r8, [ip, #192]
 257:D:/fchai/work/i-cube/I-CUBE-HUAWEI/Middlewares/Third_Party/Huawei/iot_link/network/dtls/mbedtls/mbedtls-2.16.2/library\gcm.c **** 
 168              		.loc 1 257 16 view .LVU58
 169 009c DCF844C0 		ldr	ip, [ip, #68]
 253:D:/fchai/work/i-cube/I-CUBE-HUAWEI/Middlewares/Third_Party/Huawei/iot_link/network/dtls/mbedtls/mbedtls-2.16.2/library\gcm.c ****             zh = ( zh >> 4 );
 170              		.loc 1 253 38 view .LVU59
 171 00a0 1209     		lsrs	r2, r2, #4
 172              	.LVL18:
 253:D:/fchai/work/i-cube/I-CUBE-HUAWEI/Middlewares/Third_Party/Huawei/iot_link/network/dtls/mbedtls/mbedtls-2.16.2/library\gcm.c ****             zh = ( zh >> 4 );
 173              		.loc 1 253 38 view .LVU60
 174 00a2 42EA0472 		orr	r2, r2, r4, lsl #28
 257:D:/fchai/work/i-cube/I-CUBE-HUAWEI/Middlewares/Third_Party/Huawei/iot_link/network/dtls/mbedtls/mbedtls-2.16.2/library\gcm.c **** 
 175              		.loc 1 257 16 view .LVU61
 176 00a6 82EA0902 		eor	r2, r2, r9
 254:D:/fchai/work/i-cube/I-CUBE-HUAWEI/Middlewares/Third_Party/Huawei/iot_link/network/dtls/mbedtls/mbedtls-2.16.2/library\gcm.c ****             zh ^= (uint64_t) last4[rem] << 48;
 177              		.loc 1 254 16 view .LVU62
 178 00aa 4FEA1519 		lsr	r9, r5, #4
 253:D:/fchai/work/i-cube/I-CUBE-HUAWEI/Middlewares/Third_Party/Huawei/iot_link/network/dtls/mbedtls/mbedtls-2.16.2/library\gcm.c ****             zh = ( zh >> 4 );
 179              		.loc 1 253 23 view .LVU63
 180 00ae 2D07     		lsls	r5, r5, #28
 181              	.LVL19:
 254:D:/fchai/work/i-cube/I-CUBE-HUAWEI/Middlewares/Third_Party/Huawei/iot_link/network/dtls/mbedtls/mbedtls-2.16.2/library\gcm.c ****             zh ^= (uint64_t) last4[rem] << 48;
 182              		.loc 1 254 16 view .LVU64
 183 00b0 49EA0679 		orr	r9, r9, r6, lsl #28
 253:D:/fchai/work/i-cube/I-CUBE-HUAWEI/Middlewares/Third_Party/Huawei/iot_link/network/dtls/mbedtls/mbedtls-2.16.2/library\gcm.c ****             zh = ( zh >> 4 );
 184              		.loc 1 253 16 view .LVU65
 185 00b4 45EA1414 		orr	r4, r5, r4, lsr #4
 186 00b8 81EA1611 		eor	r1, r1, r6, lsr #4
 254:D:/fchai/work/i-cube/I-CUBE-HUAWEI/Middlewares/Third_Party/Huawei/iot_link/network/dtls/mbedtls/mbedtls-2.16.2/library\gcm.c ****             zh ^= (uint64_t) last4[rem] << 48;
 187              		.loc 1 254 13 is_stmt 1 view .LVU66
 255:D:/fchai/work/i-cube/I-CUBE-HUAWEI/Middlewares/Third_Party/Huawei/iot_link/network/dtls/mbedtls/mbedtls-2.16.2/library\gcm.c ****             zh ^= ctx->HH[lo];
 188              		.loc 1 255 13 view .LVU67
 256:D:/fchai/work/i-cube/I-CUBE-HUAWEI/Middlewares/Third_Party/Huawei/iot_link/network/dtls/mbedtls/mbedtls-2.16.2/library\gcm.c ****             zl ^= ctx->HL[lo];
 189              		.loc 1 256 13 view .LVU68
 256:D:/fchai/work/i-cube/I-CUBE-HUAWEI/Middlewares/Third_Party/Huawei/iot_link/network/dtls/mbedtls/mbedtls-2.16.2/library\gcm.c ****             zl ^= ctx->HL[lo];
 190              		.loc 1 256 16 is_stmt 0 view .LVU69
 191 00bc 81EA0A46 		eor	r6, r1, r10, lsl #16
 192              	.LVL20:
 257:D:/fchai/work/i-cube/I-CUBE-HUAWEI/Middlewares/Third_Party/Huawei/iot_link/network/dtls/mbedtls/mbedtls-2.16.2/library\gcm.c **** 
 193              		.loc 1 257 13 is_stmt 1 view .LVU70
 256:D:/fchai/work/i-cube/I-CUBE-HUAWEI/Middlewares/Third_Party/Huawei/iot_link/network/dtls/mbedtls/mbedtls-2.16.2/library\gcm.c ****             zl ^= ctx->HL[lo];
 194              		.loc 1 256 16 is_stmt 0 view .LVU71
 195 00c0 89EA0805 		eor	r5, r9, r8
 196              	.LVL21:
 257:D:/fchai/work/i-cube/I-CUBE-HUAWEI/Middlewares/Third_Party/Huawei/iot_link/network/dtls/mbedtls/mbedtls-2.16.2/library\gcm.c **** 
 197              		.loc 1 257 16 view .LVU72
 198 00c4 84EA0C04 		eor	r4, r4, ip
 199              	.LVL22:
ARM GAS  T:\msys\tmp\ccyunwdQ.s 			page 10


 257:D:/fchai/work/i-cube/I-CUBE-HUAWEI/Middlewares/Third_Party/Huawei/iot_link/network/dtls/mbedtls/mbedtls-2.16.2/library\gcm.c **** 
 200              		.loc 1 257 16 view .LVU73
 201 00c8 B1E7     		b	.L2
 202              	.LVL23:
 203              	.L10:
 267:D:/fchai/work/i-cube/I-CUBE-HUAWEI/Middlewares/Third_Party/Huawei/iot_link/network/dtls/mbedtls/mbedtls-2.16.2/library\gcm.c ****     }
 268:D:/fchai/work/i-cube/I-CUBE-HUAWEI/Middlewares/Third_Party/Huawei/iot_link/network/dtls/mbedtls/mbedtls-2.16.2/library\gcm.c **** 
 269:D:/fchai/work/i-cube/I-CUBE-HUAWEI/Middlewares/Third_Party/Huawei/iot_link/network/dtls/mbedtls/mbedtls-2.16.2/library\gcm.c ****     PUT_UINT32_BE( zh >> 32, output, 0 );
 204              		.loc 1 269 5 is_stmt 1 view .LVU74
 205 00ca 019F     		ldr	r7, [sp, #4]
 206              	.LVL24:
 207              		.loc 1 269 5 is_stmt 0 view .LVU75
 208 00cc 310E     		lsrs	r1, r6, #24
 209 00ce 330C     		lsrs	r3, r6, #16
 210 00d0 FE70     		strb	r6, [r7, #3]
 211 00d2 3970     		strb	r1, [r7]
 212              		.loc 1 269 5 is_stmt 1 view .LVU76
 213 00d4 360A     		lsrs	r6, r6, #8
 214              	.LVL25:
 270:D:/fchai/work/i-cube/I-CUBE-HUAWEI/Middlewares/Third_Party/Huawei/iot_link/network/dtls/mbedtls/mbedtls-2.16.2/library\gcm.c ****     PUT_UINT32_BE( zh, output, 4 );
 215              		.loc 1 270 5 is_stmt 0 view .LVU77
 216 00d6 290E     		lsrs	r1, r5, #24
 269:D:/fchai/work/i-cube/I-CUBE-HUAWEI/Middlewares/Third_Party/Huawei/iot_link/network/dtls/mbedtls/mbedtls-2.16.2/library\gcm.c ****     PUT_UINT32_BE( zh, output, 4 );
 217              		.loc 1 269 5 view .LVU78
 218 00d8 7B70     		strb	r3, [r7, #1]
 269:D:/fchai/work/i-cube/I-CUBE-HUAWEI/Middlewares/Third_Party/Huawei/iot_link/network/dtls/mbedtls/mbedtls-2.16.2/library\gcm.c ****     PUT_UINT32_BE( zh, output, 4 );
 219              		.loc 1 269 5 is_stmt 1 view .LVU79
 220              		.loc 1 270 5 is_stmt 0 view .LVU80
 221 00da 2B0C     		lsrs	r3, r5, #16
 271:D:/fchai/work/i-cube/I-CUBE-HUAWEI/Middlewares/Third_Party/Huawei/iot_link/network/dtls/mbedtls/mbedtls-2.16.2/library\gcm.c ****     PUT_UINT32_BE( zl >> 32, output, 8 );
 222              		.loc 1 271 5 view .LVU81
 223 00dc 200C     		lsrs	r0, r4, #16
 224              	.LVL26:
 270:D:/fchai/work/i-cube/I-CUBE-HUAWEI/Middlewares/Third_Party/Huawei/iot_link/network/dtls/mbedtls/mbedtls-2.16.2/library\gcm.c ****     PUT_UINT32_BE( zh, output, 4 );
 225              		.loc 1 270 5 view .LVU82
 226 00de FD71     		strb	r5, [r7, #7]
 227              		.loc 1 271 5 view .LVU83
 228 00e0 FC72     		strb	r4, [r7, #11]
 272:D:/fchai/work/i-cube/I-CUBE-HUAWEI/Middlewares/Third_Party/Huawei/iot_link/network/dtls/mbedtls/mbedtls-2.16.2/library\gcm.c ****     PUT_UINT32_BE( zl, output, 12 );
 229              		.loc 1 272 5 view .LVU84
 230 00e2 FA73     		strb	r2, [r7, #15]
 270:D:/fchai/work/i-cube/I-CUBE-HUAWEI/Middlewares/Third_Party/Huawei/iot_link/network/dtls/mbedtls/mbedtls-2.16.2/library\gcm.c ****     PUT_UINT32_BE( zl >> 32, output, 8 );
 231              		.loc 1 270 5 view .LVU85
 232 00e4 2D0A     		lsrs	r5, r5, #8
 269:D:/fchai/work/i-cube/I-CUBE-HUAWEI/Middlewares/Third_Party/Huawei/iot_link/network/dtls/mbedtls/mbedtls-2.16.2/library\gcm.c ****     PUT_UINT32_BE( zh, output, 4 );
 233              		.loc 1 269 5 view .LVU86
 234 00e6 BE70     		strb	r6, [r7, #2]
 269:D:/fchai/work/i-cube/I-CUBE-HUAWEI/Middlewares/Third_Party/Huawei/iot_link/network/dtls/mbedtls/mbedtls-2.16.2/library\gcm.c ****     PUT_UINT32_BE( zh, output, 4 );
 235              		.loc 1 269 5 is_stmt 1 view .LVU87
 269:D:/fchai/work/i-cube/I-CUBE-HUAWEI/Middlewares/Third_Party/Huawei/iot_link/network/dtls/mbedtls/mbedtls-2.16.2/library\gcm.c ****     PUT_UINT32_BE( zh, output, 4 );
 236              		.loc 1 269 41 view .LVU88
 270:D:/fchai/work/i-cube/I-CUBE-HUAWEI/Middlewares/Third_Party/Huawei/iot_link/network/dtls/mbedtls/mbedtls-2.16.2/library\gcm.c ****     PUT_UINT32_BE( zl >> 32, output, 8 );
 237              		.loc 1 270 5 view .LVU89
 238 00e8 3971     		strb	r1, [r7, #4]
 270:D:/fchai/work/i-cube/I-CUBE-HUAWEI/Middlewares/Third_Party/Huawei/iot_link/network/dtls/mbedtls/mbedtls-2.16.2/library\gcm.c ****     PUT_UINT32_BE( zl >> 32, output, 8 );
 239              		.loc 1 270 5 view .LVU90
 271:D:/fchai/work/i-cube/I-CUBE-HUAWEI/Middlewares/Third_Party/Huawei/iot_link/network/dtls/mbedtls/mbedtls-2.16.2/library\gcm.c ****     PUT_UINT32_BE( zl, output, 12 );
ARM GAS  T:\msys\tmp\ccyunwdQ.s 			page 11


 240              		.loc 1 271 5 is_stmt 0 view .LVU91
 241 00ea 260E     		lsrs	r6, r4, #24
 242              		.loc 1 272 5 view .LVU92
 243 00ec 110E     		lsrs	r1, r2, #24
 271:D:/fchai/work/i-cube/I-CUBE-HUAWEI/Middlewares/Third_Party/Huawei/iot_link/network/dtls/mbedtls/mbedtls-2.16.2/library\gcm.c ****     PUT_UINT32_BE( zl, output, 12 );
 244              		.loc 1 271 5 view .LVU93
 245 00ee 240A     		lsrs	r4, r4, #8
 246              	.LVL27:
 270:D:/fchai/work/i-cube/I-CUBE-HUAWEI/Middlewares/Third_Party/Huawei/iot_link/network/dtls/mbedtls/mbedtls-2.16.2/library\gcm.c ****     PUT_UINT32_BE( zl >> 32, output, 8 );
 247              		.loc 1 270 5 view .LVU94
 248 00f0 7B71     		strb	r3, [r7, #5]
 270:D:/fchai/work/i-cube/I-CUBE-HUAWEI/Middlewares/Third_Party/Huawei/iot_link/network/dtls/mbedtls/mbedtls-2.16.2/library\gcm.c ****     PUT_UINT32_BE( zl >> 32, output, 8 );
 249              		.loc 1 270 5 is_stmt 1 view .LVU95
 250              		.loc 1 272 5 is_stmt 0 view .LVU96
 251 00f2 130C     		lsrs	r3, r2, #16
 252 00f4 120A     		lsrs	r2, r2, #8
 253              	.LVL28:
 270:D:/fchai/work/i-cube/I-CUBE-HUAWEI/Middlewares/Third_Party/Huawei/iot_link/network/dtls/mbedtls/mbedtls-2.16.2/library\gcm.c ****     PUT_UINT32_BE( zl >> 32, output, 8 );
 254              		.loc 1 270 5 view .LVU97
 255 00f6 BD71     		strb	r5, [r7, #6]
 270:D:/fchai/work/i-cube/I-CUBE-HUAWEI/Middlewares/Third_Party/Huawei/iot_link/network/dtls/mbedtls/mbedtls-2.16.2/library\gcm.c ****     PUT_UINT32_BE( zl >> 32, output, 8 );
 256              		.loc 1 270 5 is_stmt 1 view .LVU98
 270:D:/fchai/work/i-cube/I-CUBE-HUAWEI/Middlewares/Third_Party/Huawei/iot_link/network/dtls/mbedtls/mbedtls-2.16.2/library\gcm.c ****     PUT_UINT32_BE( zl >> 32, output, 8 );
 257              		.loc 1 270 35 view .LVU99
 271:D:/fchai/work/i-cube/I-CUBE-HUAWEI/Middlewares/Third_Party/Huawei/iot_link/network/dtls/mbedtls/mbedtls-2.16.2/library\gcm.c ****     PUT_UINT32_BE( zl, output, 12 );
 258              		.loc 1 271 5 view .LVU100
 259 00f8 3E72     		strb	r6, [r7, #8]
 271:D:/fchai/work/i-cube/I-CUBE-HUAWEI/Middlewares/Third_Party/Huawei/iot_link/network/dtls/mbedtls/mbedtls-2.16.2/library\gcm.c ****     PUT_UINT32_BE( zl, output, 12 );
 260              		.loc 1 271 5 view .LVU101
 261 00fa 7872     		strb	r0, [r7, #9]
 271:D:/fchai/work/i-cube/I-CUBE-HUAWEI/Middlewares/Third_Party/Huawei/iot_link/network/dtls/mbedtls/mbedtls-2.16.2/library\gcm.c ****     PUT_UINT32_BE( zl, output, 12 );
 262              		.loc 1 271 5 view .LVU102
 263 00fc BC72     		strb	r4, [r7, #10]
 271:D:/fchai/work/i-cube/I-CUBE-HUAWEI/Middlewares/Third_Party/Huawei/iot_link/network/dtls/mbedtls/mbedtls-2.16.2/library\gcm.c ****     PUT_UINT32_BE( zl, output, 12 );
 264              		.loc 1 271 5 view .LVU103
 271:D:/fchai/work/i-cube/I-CUBE-HUAWEI/Middlewares/Third_Party/Huawei/iot_link/network/dtls/mbedtls/mbedtls-2.16.2/library\gcm.c ****     PUT_UINT32_BE( zl, output, 12 );
 265              		.loc 1 271 41 view .LVU104
 266              		.loc 1 272 5 view .LVU105
 267 00fe 3973     		strb	r1, [r7, #12]
 268              		.loc 1 272 5 view .LVU106
 269 0100 7B73     		strb	r3, [r7, #13]
 270              		.loc 1 272 5 view .LVU107
 271 0102 BA73     		strb	r2, [r7, #14]
 272              		.loc 1 272 5 view .LVU108
 273              		.loc 1 272 36 view .LVU109
 273:D:/fchai/work/i-cube/I-CUBE-HUAWEI/Middlewares/Third_Party/Huawei/iot_link/network/dtls/mbedtls/mbedtls-2.16.2/library\gcm.c **** }
 274              		.loc 1 273 1 is_stmt 0 view .LVU110
 275 0104 03B0     		add	sp, sp, #12
 276              	.LCFI2:
 277              		.cfi_def_cfa_offset 36
 278              		@ sp needed
 279 0106 BDE8F08F 		pop	{r4, r5, r6, r7, r8, r9, r10, fp, pc}
 280              	.LVL29:
 281              	.L12:
 282              		.loc 1 273 1 view .LVU111
 283 010a 00BF     		.align	2
 284              	.L11:
ARM GAS  T:\msys\tmp\ccyunwdQ.s 			page 12


 285 010c 00000000 		.word	.LANCHOR0
 286              		.cfi_endproc
 287              	.LFE10:
 289              		.section	.text.mbedtls_gcm_init,"ax",%progbits
 290              		.align	1
 291              		.p2align 2,,3
 292              		.global	mbedtls_gcm_init
 293              		.syntax unified
 294              		.thumb
 295              		.thumb_func
 296              		.fpu fpv4-sp-d16
 298              	mbedtls_gcm_init:
 299              	.LVL30:
 300              	.LFB7:
  93:D:/fchai/work/i-cube/I-CUBE-HUAWEI/Middlewares/Third_Party/Huawei/iot_link/network/dtls/mbedtls/mbedtls-2.16.2/library\gcm.c ****     GCM_VALIDATE( ctx != NULL );
 301              		.loc 1 93 1 is_stmt 1 view -0
 302              		.cfi_startproc
 303              		@ args = 0, pretend = 0, frame = 0
 304              		@ frame_needed = 0, uses_anonymous_args = 0
 305              		@ link register save eliminated.
  94:D:/fchai/work/i-cube/I-CUBE-HUAWEI/Middlewares/Third_Party/Huawei/iot_link/network/dtls/mbedtls/mbedtls-2.16.2/library\gcm.c ****     memset( ctx, 0, sizeof( mbedtls_gcm_context ) );
 306              		.loc 1 94 5 view .LVU113
  94:D:/fchai/work/i-cube/I-CUBE-HUAWEI/Middlewares/Third_Party/Huawei/iot_link/network/dtls/mbedtls/mbedtls-2.16.2/library\gcm.c ****     memset( ctx, 0, sizeof( mbedtls_gcm_context ) );
 307              		.loc 1 94 5 view .LVU114
  94:D:/fchai/work/i-cube/I-CUBE-HUAWEI/Middlewares/Third_Party/Huawei/iot_link/network/dtls/mbedtls/mbedtls-2.16.2/library\gcm.c ****     memset( ctx, 0, sizeof( mbedtls_gcm_context ) );
 308              		.loc 1 94 5 view .LVU115
  95:D:/fchai/work/i-cube/I-CUBE-HUAWEI/Middlewares/Third_Party/Huawei/iot_link/network/dtls/mbedtls/mbedtls-2.16.2/library\gcm.c **** }
 309              		.loc 1 95 5 view .LVU116
 310 0000 4FF4C472 		mov	r2, #392
 311 0004 0021     		movs	r1, #0
 312 0006 FFF7FEBF 		b	memset
 313              	.LVL31:
  95:D:/fchai/work/i-cube/I-CUBE-HUAWEI/Middlewares/Third_Party/Huawei/iot_link/network/dtls/mbedtls/mbedtls-2.16.2/library\gcm.c **** }
 314              		.loc 1 95 5 is_stmt 0 view .LVU117
 315              		.cfi_endproc
 316              	.LFE7:
 318 000a 00BF     		.section	.text.mbedtls_gcm_setkey,"ax",%progbits
 319              		.align	1
 320              		.p2align 2,,3
 321              		.global	mbedtls_gcm_setkey
 322              		.syntax unified
 323              		.thumb
 324              		.thumb_func
 325              		.fpu fpv4-sp-d16
 327              	mbedtls_gcm_setkey:
 328              	.LVL32:
 329              	.LFB9:
 170:D:/fchai/work/i-cube/I-CUBE-HUAWEI/Middlewares/Third_Party/Huawei/iot_link/network/dtls/mbedtls/mbedtls-2.16.2/library\gcm.c ****     int ret;
 330              		.loc 1 170 1 is_stmt 1 view -0
 331              		.cfi_startproc
 332              		@ args = 0, pretend = 0, frame = 40
 333              		@ frame_needed = 0, uses_anonymous_args = 0
 171:D:/fchai/work/i-cube/I-CUBE-HUAWEI/Middlewares/Third_Party/Huawei/iot_link/network/dtls/mbedtls/mbedtls-2.16.2/library\gcm.c ****     const mbedtls_cipher_info_t *cipher_info;
 334              		.loc 1 171 5 view .LVU119
 172:D:/fchai/work/i-cube/I-CUBE-HUAWEI/Middlewares/Third_Party/Huawei/iot_link/network/dtls/mbedtls/mbedtls-2.16.2/library\gcm.c **** 
 335              		.loc 1 172 5 view .LVU120
 174:D:/fchai/work/i-cube/I-CUBE-HUAWEI/Middlewares/Third_Party/Huawei/iot_link/network/dtls/mbedtls/mbedtls-2.16.2/library\gcm.c ****     GCM_VALIDATE_RET( key != NULL );
ARM GAS  T:\msys\tmp\ccyunwdQ.s 			page 13


 336              		.loc 1 174 5 view .LVU121
 174:D:/fchai/work/i-cube/I-CUBE-HUAWEI/Middlewares/Third_Party/Huawei/iot_link/network/dtls/mbedtls/mbedtls-2.16.2/library\gcm.c ****     GCM_VALIDATE_RET( key != NULL );
 337              		.loc 1 174 5 view .LVU122
 174:D:/fchai/work/i-cube/I-CUBE-HUAWEI/Middlewares/Third_Party/Huawei/iot_link/network/dtls/mbedtls/mbedtls-2.16.2/library\gcm.c ****     GCM_VALIDATE_RET( key != NULL );
 338              		.loc 1 174 5 view .LVU123
 175:D:/fchai/work/i-cube/I-CUBE-HUAWEI/Middlewares/Third_Party/Huawei/iot_link/network/dtls/mbedtls/mbedtls-2.16.2/library\gcm.c ****     GCM_VALIDATE_RET( keybits == 128 || keybits == 192 || keybits == 256 );
 339              		.loc 1 175 5 view .LVU124
 175:D:/fchai/work/i-cube/I-CUBE-HUAWEI/Middlewares/Third_Party/Huawei/iot_link/network/dtls/mbedtls/mbedtls-2.16.2/library\gcm.c ****     GCM_VALIDATE_RET( keybits == 128 || keybits == 192 || keybits == 256 );
 340              		.loc 1 175 5 view .LVU125
 175:D:/fchai/work/i-cube/I-CUBE-HUAWEI/Middlewares/Third_Party/Huawei/iot_link/network/dtls/mbedtls/mbedtls-2.16.2/library\gcm.c ****     GCM_VALIDATE_RET( keybits == 128 || keybits == 192 || keybits == 256 );
 341              		.loc 1 175 5 view .LVU126
 176:D:/fchai/work/i-cube/I-CUBE-HUAWEI/Middlewares/Third_Party/Huawei/iot_link/network/dtls/mbedtls/mbedtls-2.16.2/library\gcm.c **** 
 342              		.loc 1 176 5 view .LVU127
 176:D:/fchai/work/i-cube/I-CUBE-HUAWEI/Middlewares/Third_Party/Huawei/iot_link/network/dtls/mbedtls/mbedtls-2.16.2/library\gcm.c **** 
 343              		.loc 1 176 5 view .LVU128
 176:D:/fchai/work/i-cube/I-CUBE-HUAWEI/Middlewares/Third_Party/Huawei/iot_link/network/dtls/mbedtls/mbedtls-2.16.2/library\gcm.c **** 
 344              		.loc 1 176 5 view .LVU129
 178:D:/fchai/work/i-cube/I-CUBE-HUAWEI/Middlewares/Third_Party/Huawei/iot_link/network/dtls/mbedtls/mbedtls-2.16.2/library\gcm.c ****     if( cipher_info == NULL )
 345              		.loc 1 178 5 view .LVU130
 170:D:/fchai/work/i-cube/I-CUBE-HUAWEI/Middlewares/Third_Party/Huawei/iot_link/network/dtls/mbedtls/mbedtls-2.16.2/library\gcm.c ****     int ret;
 346              		.loc 1 170 1 is_stmt 0 view .LVU131
 347 0000 2DE9F04F 		push	{r4, r5, r6, r7, r8, r9, r10, fp, lr}
 348              	.LCFI3:
 349              		.cfi_def_cfa_offset 36
 350              		.cfi_offset 4, -36
 351              		.cfi_offset 5, -32
 352              		.cfi_offset 6, -28
 353              		.cfi_offset 7, -24
 354              		.cfi_offset 8, -20
 355              		.cfi_offset 9, -16
 356              		.cfi_offset 10, -12
 357              		.cfi_offset 11, -8
 358              		.cfi_offset 14, -4
 359 0004 0446     		mov	r4, r0
 360 0006 8DB0     		sub	sp, sp, #52
 361              	.LCFI4:
 362              		.cfi_def_cfa_offset 88
 170:D:/fchai/work/i-cube/I-CUBE-HUAWEI/Middlewares/Third_Party/Huawei/iot_link/network/dtls/mbedtls/mbedtls-2.16.2/library\gcm.c ****     int ret;
 363              		.loc 1 170 1 view .LVU132
 364 0008 1746     		mov	r7, r2
 178:D:/fchai/work/i-cube/I-CUBE-HUAWEI/Middlewares/Third_Party/Huawei/iot_link/network/dtls/mbedtls/mbedtls-2.16.2/library\gcm.c ****     if( cipher_info == NULL )
 365              		.loc 1 178 19 view .LVU133
 366 000a 0846     		mov	r0, r1
 367              	.LVL33:
 178:D:/fchai/work/i-cube/I-CUBE-HUAWEI/Middlewares/Third_Party/Huawei/iot_link/network/dtls/mbedtls/mbedtls-2.16.2/library\gcm.c ****     if( cipher_info == NULL )
 368              		.loc 1 178 19 view .LVU134
 369 000c 0122     		movs	r2, #1
 370              	.LVL34:
 178:D:/fchai/work/i-cube/I-CUBE-HUAWEI/Middlewares/Third_Party/Huawei/iot_link/network/dtls/mbedtls/mbedtls-2.16.2/library\gcm.c ****     if( cipher_info == NULL )
 371              		.loc 1 178 19 view .LVU135
 372 000e 1946     		mov	r1, r3
 373              	.LVL35:
 170:D:/fchai/work/i-cube/I-CUBE-HUAWEI/Middlewares/Third_Party/Huawei/iot_link/network/dtls/mbedtls/mbedtls-2.16.2/library\gcm.c ****     int ret;
 374              		.loc 1 170 1 view .LVU136
 375 0010 1E46     		mov	r6, r3
 178:D:/fchai/work/i-cube/I-CUBE-HUAWEI/Middlewares/Third_Party/Huawei/iot_link/network/dtls/mbedtls/mbedtls-2.16.2/library\gcm.c ****     if( cipher_info == NULL )
 376              		.loc 1 178 19 view .LVU137
ARM GAS  T:\msys\tmp\ccyunwdQ.s 			page 14


 377 0012 FFF7FEFF 		bl	mbedtls_cipher_info_from_values
 378              	.LVL36:
 179:D:/fchai/work/i-cube/I-CUBE-HUAWEI/Middlewares/Third_Party/Huawei/iot_link/network/dtls/mbedtls/mbedtls-2.16.2/library\gcm.c ****         return( MBEDTLS_ERR_GCM_BAD_INPUT );
 379              		.loc 1 179 5 is_stmt 1 view .LVU138
 179:D:/fchai/work/i-cube/I-CUBE-HUAWEI/Middlewares/Third_Party/Huawei/iot_link/network/dtls/mbedtls/mbedtls-2.16.2/library\gcm.c ****         return( MBEDTLS_ERR_GCM_BAD_INPUT );
 380              		.loc 1 179 7 is_stmt 0 view .LVU139
 381 0016 0028     		cmp	r0, #0
 382 0018 00F0A080 		beq	.L22
 182:D:/fchai/work/i-cube/I-CUBE-HUAWEI/Middlewares/Third_Party/Huawei/iot_link/network/dtls/mbedtls/mbedtls-2.16.2/library\gcm.c ****         return( MBEDTLS_ERR_GCM_BAD_INPUT );
 383              		.loc 1 182 7 view .LVU140
 384 001c D0F81480 		ldr	r8, [r0, #20]
 385 0020 B8F1100F 		cmp	r8, #16
 386 0024 0546     		mov	r5, r0
 182:D:/fchai/work/i-cube/I-CUBE-HUAWEI/Middlewares/Third_Party/Huawei/iot_link/network/dtls/mbedtls/mbedtls-2.16.2/library\gcm.c ****         return( MBEDTLS_ERR_GCM_BAD_INPUT );
 387              		.loc 1 182 5 is_stmt 1 view .LVU141
 182:D:/fchai/work/i-cube/I-CUBE-HUAWEI/Middlewares/Third_Party/Huawei/iot_link/network/dtls/mbedtls/mbedtls-2.16.2/library\gcm.c ****         return( MBEDTLS_ERR_GCM_BAD_INPUT );
 388              		.loc 1 182 7 is_stmt 0 view .LVU142
 389 0026 40F09980 		bne	.L22
 185:D:/fchai/work/i-cube/I-CUBE-HUAWEI/Middlewares/Third_Party/Huawei/iot_link/network/dtls/mbedtls/mbedtls-2.16.2/library\gcm.c **** 
 390              		.loc 1 185 5 is_stmt 1 view .LVU143
 391 002a 2046     		mov	r0, r4
 392              	.LVL37:
 185:D:/fchai/work/i-cube/I-CUBE-HUAWEI/Middlewares/Third_Party/Huawei/iot_link/network/dtls/mbedtls/mbedtls-2.16.2/library\gcm.c **** 
 393              		.loc 1 185 5 is_stmt 0 view .LVU144
 394 002c FFF7FEFF 		bl	mbedtls_cipher_free
 395              	.LVL38:
 187:D:/fchai/work/i-cube/I-CUBE-HUAWEI/Middlewares/Third_Party/Huawei/iot_link/network/dtls/mbedtls/mbedtls-2.16.2/library\gcm.c ****         return( ret );
 396              		.loc 1 187 5 is_stmt 1 view .LVU145
 187:D:/fchai/work/i-cube/I-CUBE-HUAWEI/Middlewares/Third_Party/Huawei/iot_link/network/dtls/mbedtls/mbedtls-2.16.2/library\gcm.c ****         return( ret );
 397              		.loc 1 187 17 is_stmt 0 view .LVU146
 398 0030 2946     		mov	r1, r5
 399 0032 2046     		mov	r0, r4
 400 0034 FFF7FEFF 		bl	mbedtls_cipher_setup
 401              	.LVL39:
 187:D:/fchai/work/i-cube/I-CUBE-HUAWEI/Middlewares/Third_Party/Huawei/iot_link/network/dtls/mbedtls/mbedtls-2.16.2/library\gcm.c ****         return( ret );
 402              		.loc 1 187 7 view .LVU147
 403 0038 10B1     		cbz	r0, .L27
 404              	.LVL40:
 405              	.L14:
 200:D:/fchai/work/i-cube/I-CUBE-HUAWEI/Middlewares/Third_Party/Huawei/iot_link/network/dtls/mbedtls/mbedtls-2.16.2/library\gcm.c **** 
 406              		.loc 1 200 1 view .LVU148
 407 003a 0DB0     		add	sp, sp, #52
 408              	.LCFI5:
 409              		.cfi_remember_state
 410              		.cfi_def_cfa_offset 36
 411              		@ sp needed
 412 003c BDE8F08F 		pop	{r4, r5, r6, r7, r8, r9, r10, fp, pc}
 413              	.LVL41:
 414              	.L27:
 415              	.LCFI6:
 416              		.cfi_restore_state
 190:D:/fchai/work/i-cube/I-CUBE-HUAWEI/Middlewares/Third_Party/Huawei/iot_link/network/dtls/mbedtls/mbedtls-2.16.2/library\gcm.c ****                                MBEDTLS_ENCRYPT ) ) != 0 )
 417              		.loc 1 190 5 is_stmt 1 view .LVU149
 190:D:/fchai/work/i-cube/I-CUBE-HUAWEI/Middlewares/Third_Party/Huawei/iot_link/network/dtls/mbedtls/mbedtls-2.16.2/library\gcm.c ****                                MBEDTLS_ENCRYPT ) ) != 0 )
 418              		.loc 1 190 17 is_stmt 0 view .LVU150
 419 0040 3246     		mov	r2, r6
 420 0042 3946     		mov	r1, r7
ARM GAS  T:\msys\tmp\ccyunwdQ.s 			page 15


 421 0044 0123     		movs	r3, #1
 422 0046 2046     		mov	r0, r4
 423              	.LVL42:
 190:D:/fchai/work/i-cube/I-CUBE-HUAWEI/Middlewares/Third_Party/Huawei/iot_link/network/dtls/mbedtls/mbedtls-2.16.2/library\gcm.c ****                                MBEDTLS_ENCRYPT ) ) != 0 )
 424              		.loc 1 190 17 view .LVU151
 425 0048 FFF7FEFF 		bl	mbedtls_cipher_setkey
 426              	.LVL43:
 190:D:/fchai/work/i-cube/I-CUBE-HUAWEI/Middlewares/Third_Party/Huawei/iot_link/network/dtls/mbedtls/mbedtls-2.16.2/library\gcm.c ****                                MBEDTLS_ENCRYPT ) ) != 0 )
 427              		.loc 1 190 7 view .LVU152
 428 004c 0028     		cmp	r0, #0
 429 004e F4D1     		bne	.L14
 196:D:/fchai/work/i-cube/I-CUBE-HUAWEI/Middlewares/Third_Party/Huawei/iot_link/network/dtls/mbedtls/mbedtls-2.16.2/library\gcm.c ****         return( ret );
 430              		.loc 1 196 5 is_stmt 1 view .LVU153
 431              	.LVL44:
 432              	.LBB6:
 433              	.LBI6:
 106:D:/fchai/work/i-cube/I-CUBE-HUAWEI/Middlewares/Third_Party/Huawei/iot_link/network/dtls/mbedtls/mbedtls-2.16.2/library\gcm.c **** {
 434              		.loc 1 106 12 view .LVU154
 435              	.LBB7:
 108:D:/fchai/work/i-cube/I-CUBE-HUAWEI/Middlewares/Third_Party/Huawei/iot_link/network/dtls/mbedtls/mbedtls-2.16.2/library\gcm.c ****     uint64_t hi, lo;
 436              		.loc 1 108 5 view .LVU155
 109:D:/fchai/work/i-cube/I-CUBE-HUAWEI/Middlewares/Third_Party/Huawei/iot_link/network/dtls/mbedtls/mbedtls-2.16.2/library\gcm.c ****     uint64_t vl, vh;
 437              		.loc 1 109 5 view .LVU156
 110:D:/fchai/work/i-cube/I-CUBE-HUAWEI/Middlewares/Third_Party/Huawei/iot_link/network/dtls/mbedtls/mbedtls-2.16.2/library\gcm.c ****     unsigned char h[16];
 438              		.loc 1 110 5 view .LVU157
 111:D:/fchai/work/i-cube/I-CUBE-HUAWEI/Middlewares/Third_Party/Huawei/iot_link/network/dtls/mbedtls/mbedtls-2.16.2/library\gcm.c ****     size_t olen = 0;
 439              		.loc 1 111 5 view .LVU158
 112:D:/fchai/work/i-cube/I-CUBE-HUAWEI/Middlewares/Third_Party/Huawei/iot_link/network/dtls/mbedtls/mbedtls-2.16.2/library\gcm.c **** 
 440              		.loc 1 112 5 view .LVU159
 115:D:/fchai/work/i-cube/I-CUBE-HUAWEI/Middlewares/Third_Party/Huawei/iot_link/network/dtls/mbedtls/mbedtls-2.16.2/library\gcm.c ****         return( ret );
 441              		.loc 1 115 17 is_stmt 0 view .LVU160
 442 0050 07AB     		add	r3, sp, #28
 443 0052 0093     		str	r3, [sp]
 444 0054 08AB     		add	r3, sp, #32
 114:D:/fchai/work/i-cube/I-CUBE-HUAWEI/Middlewares/Third_Party/Huawei/iot_link/network/dtls/mbedtls/mbedtls-2.16.2/library\gcm.c ****     if( ( ret = mbedtls_cipher_update( &ctx->cipher_ctx, h, 16, h, &olen ) ) != 0 )
 445              		.loc 1 114 5 view .LVU161
 446 0056 CDE90700 		strd	r0, r0, [sp, #28]
 447 005a CDE90900 		strd	r0, r0, [sp, #36]
 448 005e 0B90     		str	r0, [sp, #44]
 115:D:/fchai/work/i-cube/I-CUBE-HUAWEI/Middlewares/Third_Party/Huawei/iot_link/network/dtls/mbedtls/mbedtls-2.16.2/library\gcm.c ****         return( ret );
 449              		.loc 1 115 5 is_stmt 1 view .LVU162
 115:D:/fchai/work/i-cube/I-CUBE-HUAWEI/Middlewares/Third_Party/Huawei/iot_link/network/dtls/mbedtls/mbedtls-2.16.2/library\gcm.c ****         return( ret );
 450              		.loc 1 115 17 is_stmt 0 view .LVU163
 451 0060 4246     		mov	r2, r8
 452 0062 1946     		mov	r1, r3
 453 0064 2046     		mov	r0, r4
 454              	.LVL45:
 115:D:/fchai/work/i-cube/I-CUBE-HUAWEI/Middlewares/Third_Party/Huawei/iot_link/network/dtls/mbedtls/mbedtls-2.16.2/library\gcm.c ****         return( ret );
 455              		.loc 1 115 17 view .LVU164
 456 0066 FFF7FEFF 		bl	mbedtls_cipher_update
 457              	.LVL46:
 115:D:/fchai/work/i-cube/I-CUBE-HUAWEI/Middlewares/Third_Party/Huawei/iot_link/network/dtls/mbedtls/mbedtls-2.16.2/library\gcm.c ****         return( ret );
 458              		.loc 1 115 7 view .LVU165
 459 006a 0028     		cmp	r0, #0
 460 006c E5D1     		bne	.L14
 119:D:/fchai/work/i-cube/I-CUBE-HUAWEI/Middlewares/Third_Party/Huawei/iot_link/network/dtls/mbedtls/mbedtls-2.16.2/library\gcm.c ****     GET_UINT32_BE( lo, h,  4  );
 461              		.loc 1 119 5 is_stmt 1 view .LVU166
ARM GAS  T:\msys\tmp\ccyunwdQ.s 			page 16


 462              	.LVL47:
 119:D:/fchai/work/i-cube/I-CUBE-HUAWEI/Middlewares/Third_Party/Huawei/iot_link/network/dtls/mbedtls/mbedtls-2.16.2/library\gcm.c ****     GET_UINT32_BE( lo, h,  4  );
 463              		.loc 1 119 32 view .LVU167
 120:D:/fchai/work/i-cube/I-CUBE-HUAWEI/Middlewares/Third_Party/Huawei/iot_link/network/dtls/mbedtls/mbedtls-2.16.2/library\gcm.c ****     vh = (uint64_t) hi << 32 | lo;
 464              		.loc 1 120 5 view .LVU168
 465 006e DDE90A13 		ldrd	r1, r3, [sp, #40]
 466 0072 DDE90852 		ldrd	r5, r2, [sp, #32]
 467              	.LVL48:
 138:D:/fchai/work/i-cube/I-CUBE-HUAWEI/Middlewares/Third_Party/Huawei/iot_link/network/dtls/mbedtls/mbedtls-2.16.2/library\gcm.c ****     ctx->HL[0] = 0;
 468              		.loc 1 138 16 is_stmt 0 view .LVU169
 469 0076 0027     		movs	r7, #0
 470              	.LVL49:
 138:D:/fchai/work/i-cube/I-CUBE-HUAWEI/Middlewares/Third_Party/Huawei/iot_link/network/dtls/mbedtls/mbedtls-2.16.2/library\gcm.c ****     ctx->HL[0] = 0;
 471              		.loc 1 138 16 view .LVU170
 472 0078 0026     		movs	r6, #0
 473              	.LVL50:
 138:D:/fchai/work/i-cube/I-CUBE-HUAWEI/Middlewares/Third_Party/Huawei/iot_link/network/dtls/mbedtls/mbedtls-2.16.2/library\gcm.c ****     ctx->HL[0] = 0;
 474              		.loc 1 138 16 view .LVU171
 475 007a C4E93067 		strd	r6, [r4, #192]
 139:D:/fchai/work/i-cube/I-CUBE-HUAWEI/Middlewares/Third_Party/Huawei/iot_link/network/dtls/mbedtls/mbedtls-2.16.2/library\gcm.c **** 
 476              		.loc 1 139 16 view .LVU172
 477 007e C4E91067 		strd	r6, [r4, #64]
 478 0082 1BBA     		rev	r3, r3
 479 0084 0FBA     		rev	r7, r1
 480 0086 95FA85FC 		rev	ip, r5
 481              	.LVL51:
 120:D:/fchai/work/i-cube/I-CUBE-HUAWEI/Middlewares/Third_Party/Huawei/iot_link/network/dtls/mbedtls/mbedtls-2.16.2/library\gcm.c ****     vh = (uint64_t) hi << 32 | lo;
 482              		.loc 1 120 32 is_stmt 1 view .LVU173
 121:D:/fchai/work/i-cube/I-CUBE-HUAWEI/Middlewares/Third_Party/Huawei/iot_link/network/dtls/mbedtls/mbedtls-2.16.2/library\gcm.c **** 
 483              		.loc 1 121 5 view .LVU174
 123:D:/fchai/work/i-cube/I-CUBE-HUAWEI/Middlewares/Third_Party/Huawei/iot_link/network/dtls/mbedtls/mbedtls-2.16.2/library\gcm.c ****     GET_UINT32_BE( lo, h,  12 );
 484              		.loc 1 123 5 view .LVU175
 123:D:/fchai/work/i-cube/I-CUBE-HUAWEI/Middlewares/Third_Party/Huawei/iot_link/network/dtls/mbedtls/mbedtls-2.16.2/library\gcm.c ****     GET_UINT32_BE( lo, h,  12 );
 485              		.loc 1 123 32 view .LVU176
 124:D:/fchai/work/i-cube/I-CUBE-HUAWEI/Middlewares/Third_Party/Huawei/iot_link/network/dtls/mbedtls/mbedtls-2.16.2/library\gcm.c ****     vl = (uint64_t) hi << 32 | lo;
 486              		.loc 1 124 5 view .LVU177
 124:D:/fchai/work/i-cube/I-CUBE-HUAWEI/Middlewares/Third_Party/Huawei/iot_link/network/dtls/mbedtls/mbedtls-2.16.2/library\gcm.c ****     vl = (uint64_t) hi << 32 | lo;
 487              		.loc 1 124 32 view .LVU178
 125:D:/fchai/work/i-cube/I-CUBE-HUAWEI/Middlewares/Third_Party/Huawei/iot_link/network/dtls/mbedtls/mbedtls-2.16.2/library\gcm.c **** 
 488              		.loc 1 125 5 view .LVU179
 128:D:/fchai/work/i-cube/I-CUBE-HUAWEI/Middlewares/Third_Party/Huawei/iot_link/network/dtls/mbedtls/mbedtls-2.16.2/library\gcm.c ****     ctx->HH[8] = vh;
 489              		.loc 1 128 5 view .LVU180
 128:D:/fchai/work/i-cube/I-CUBE-HUAWEI/Middlewares/Third_Party/Huawei/iot_link/network/dtls/mbedtls/mbedtls-2.16.2/library\gcm.c ****     ctx->HH[8] = vh;
 490              		.loc 1 128 16 is_stmt 0 view .LVU181
 491 008a C4E92037 		strd	r3, r7, [r4, #128]
 492 008e 92FA82F9 		rev	r9, r2
 141:D:/fchai/work/i-cube/I-CUBE-HUAWEI/Middlewares/Third_Party/Huawei/iot_link/network/dtls/mbedtls/mbedtls-2.16.2/library\gcm.c ****     {
 493              		.loc 1 141 12 view .LVU182
 494 0092 6246     		mov	r2, ip
 129:D:/fchai/work/i-cube/I-CUBE-HUAWEI/Middlewares/Third_Party/Huawei/iot_link/network/dtls/mbedtls/mbedtls-2.16.2/library\gcm.c **** 
 495              		.loc 1 129 16 view .LVU183
 496 0094 C4E9409C 		strd	r9, ip, [r4, #256]
 139:D:/fchai/work/i-cube/I-CUBE-HUAWEI/Middlewares/Third_Party/Huawei/iot_link/network/dtls/mbedtls/mbedtls-2.16.2/library\gcm.c **** 
 497              		.loc 1 139 16 view .LVU184
 498 0098 4FF00308 		mov	r8, #3
 141:D:/fchai/work/i-cube/I-CUBE-HUAWEI/Middlewares/Third_Party/Huawei/iot_link/network/dtls/mbedtls/mbedtls-2.16.2/library\gcm.c ****     {
 499              		.loc 1 141 12 view .LVU185
ARM GAS  T:\msys\tmp\ccyunwdQ.s 			page 17


 500 009c 8446     		mov	ip, r0
 501 009e 4FF0040E 		mov	lr, #4
 502 00a2 1046     		mov	r0, r2
 503              	.LVL52:
 504              	.L17:
 505              	.LBB8:
 143:D:/fchai/work/i-cube/I-CUBE-HUAWEI/Middlewares/Third_Party/Huawei/iot_link/network/dtls/mbedtls/mbedtls-2.16.2/library\gcm.c ****         vl  = ( vh << 63 ) | ( vl >> 1 );
 506              		.loc 1 143 9 is_stmt 1 view .LVU186
 143:D:/fchai/work/i-cube/I-CUBE-HUAWEI/Middlewares/Third_Party/Huawei/iot_link/network/dtls/mbedtls/mbedtls-2.16.2/library\gcm.c ****         vl  = ( vh << 63 ) | ( vl >> 1 );
 507              		.loc 1 143 18 is_stmt 0 view .LVU187
 508 00a4 03F00102 		and	r2, r3, #1
 509 00a8 5101     		lsls	r1, r2, #5
 510 00aa 511A     		subs	r1, r2, r1
 511              	.LVL53:
 144:D:/fchai/work/i-cube/I-CUBE-HUAWEI/Middlewares/Third_Party/Huawei/iot_link/network/dtls/mbedtls/mbedtls-2.16.2/library\gcm.c ****         vh  = ( vh >> 1 ) ^ ( (uint64_t) T << 32);
 512              		.loc 1 144 9 is_stmt 1 view .LVU188
 144:D:/fchai/work/i-cube/I-CUBE-HUAWEI/Middlewares/Third_Party/Huawei/iot_link/network/dtls/mbedtls/mbedtls-2.16.2/library\gcm.c ****         vh  = ( vh >> 1 ) ^ ( (uint64_t) T << 32);
 513              		.loc 1 144 20 is_stmt 0 view .LVU189
 514 00ac 4FEAC975 		lsl	r5, r9, #31
 515 00b0 04EBCE02 		add	r2, r4, lr, lsl #3
 144:D:/fchai/work/i-cube/I-CUBE-HUAWEI/Middlewares/Third_Party/Huawei/iot_link/network/dtls/mbedtls/mbedtls-2.16.2/library\gcm.c ****         vh  = ( vh >> 1 ) ^ ( (uint64_t) T << 32);
 516              		.loc 1 144 35 view .LVU190
 517 00b4 5B08     		lsrs	r3, r3, #1
 518              	.LVL54:
 145:D:/fchai/work/i-cube/I-CUBE-HUAWEI/Middlewares/Third_Party/Huawei/iot_link/network/dtls/mbedtls/mbedtls-2.16.2/library\gcm.c **** 
 519              		.loc 1 145 20 view .LVU191
 520 00b6 4FEA5909 		lsr	r9, r9, #1
 521              	.LVL55:
 145:D:/fchai/work/i-cube/I-CUBE-HUAWEI/Middlewares/Third_Party/Huawei/iot_link/network/dtls/mbedtls/mbedtls-2.16.2/library\gcm.c **** 
 522              		.loc 1 145 20 view .LVU192
 523 00ba 4608     		lsrs	r6, r0, #1
 144:D:/fchai/work/i-cube/I-CUBE-HUAWEI/Middlewares/Third_Party/Huawei/iot_link/network/dtls/mbedtls/mbedtls-2.16.2/library\gcm.c ****         vh  = ( vh >> 1 ) ^ ( (uint64_t) T << 32);
 524              		.loc 1 144 13 view .LVU193
 525 00bc 43EAC773 		orr	r3, r3, r7, lsl #31
 145:D:/fchai/work/i-cube/I-CUBE-HUAWEI/Middlewares/Third_Party/Huawei/iot_link/network/dtls/mbedtls/mbedtls-2.16.2/library\gcm.c **** 
 526              		.loc 1 145 13 view .LVU194
 527 00c0 49EAC079 		orr	r9, r9, r0, lsl #31
 144:D:/fchai/work/i-cube/I-CUBE-HUAWEI/Middlewares/Third_Party/Huawei/iot_link/network/dtls/mbedtls/mbedtls-2.16.2/library\gcm.c ****         vh  = ( vh >> 1 ) ^ ( (uint64_t) T << 32);
 528              		.loc 1 144 13 view .LVU195
 529 00c4 45EA5707 		orr	r7, r5, r7, lsr #1
 530              	.LVL56:
 145:D:/fchai/work/i-cube/I-CUBE-HUAWEI/Middlewares/Third_Party/Huawei/iot_link/network/dtls/mbedtls/mbedtls-2.16.2/library\gcm.c **** 
 531              		.loc 1 145 9 is_stmt 1 view .LVU196
 145:D:/fchai/work/i-cube/I-CUBE-HUAWEI/Middlewares/Third_Party/Huawei/iot_link/network/dtls/mbedtls/mbedtls-2.16.2/library\gcm.c **** 
 532              		.loc 1 145 13 is_stmt 0 view .LVU197
 533 00c8 86EA0160 		eor	r0, r6, r1, lsl #24
 534              	.LVL57:
 147:D:/fchai/work/i-cube/I-CUBE-HUAWEI/Middlewares/Third_Party/Huawei/iot_link/network/dtls/mbedtls/mbedtls-2.16.2/library\gcm.c ****         ctx->HH[i] = vh;
 535              		.loc 1 147 9 is_stmt 1 view .LVU198
 536              	.LBE8:
 141:D:/fchai/work/i-cube/I-CUBE-HUAWEI/Middlewares/Third_Party/Huawei/iot_link/network/dtls/mbedtls/mbedtls-2.16.2/library\gcm.c ****     {
 537              		.loc 1 141 5 is_stmt 0 view .LVU199
 538 00cc B8F10108 		subs	r8, r8, #1
 539              	.LBB9:
 147:D:/fchai/work/i-cube/I-CUBE-HUAWEI/Middlewares/Third_Party/Huawei/iot_link/network/dtls/mbedtls/mbedtls-2.16.2/library\gcm.c ****         ctx->HH[i] = vh;
 540              		.loc 1 147 20 view .LVU200
 541 00d0 C2E91037 		strd	r3, r7, [r2, #64]
ARM GAS  T:\msys\tmp\ccyunwdQ.s 			page 18


 148:D:/fchai/work/i-cube/I-CUBE-HUAWEI/Middlewares/Third_Party/Huawei/iot_link/network/dtls/mbedtls/mbedtls-2.16.2/library\gcm.c ****     }
 542              		.loc 1 148 9 is_stmt 1 view .LVU201
 543              	.LBE9:
 141:D:/fchai/work/i-cube/I-CUBE-HUAWEI/Middlewares/Third_Party/Huawei/iot_link/network/dtls/mbedtls/mbedtls-2.16.2/library\gcm.c ****     {
 544              		.loc 1 141 24 view .LVU202
 545              	.LBB10:
 148:D:/fchai/work/i-cube/I-CUBE-HUAWEI/Middlewares/Third_Party/Huawei/iot_link/network/dtls/mbedtls/mbedtls-2.16.2/library\gcm.c ****     }
 546              		.loc 1 148 20 is_stmt 0 view .LVU203
 547 00d4 C2F8C400 		str	r0, [r2, #196]
 548 00d8 C2F8C090 		str	r9, [r2, #192]
 549              	.LBE10:
 141:D:/fchai/work/i-cube/I-CUBE-HUAWEI/Middlewares/Third_Party/Huawei/iot_link/network/dtls/mbedtls/mbedtls-2.16.2/library\gcm.c ****     {
 550              		.loc 1 141 26 view .LVU204
 551 00dc 4FEA6E0E 		asr	lr, lr, #1
 552              	.LVL58:
 141:D:/fchai/work/i-cube/I-CUBE-HUAWEI/Middlewares/Third_Party/Huawei/iot_link/network/dtls/mbedtls/mbedtls-2.16.2/library\gcm.c ****     {
 553              		.loc 1 141 17 is_stmt 1 view .LVU205
 141:D:/fchai/work/i-cube/I-CUBE-HUAWEI/Middlewares/Third_Party/Huawei/iot_link/network/dtls/mbedtls/mbedtls-2.16.2/library\gcm.c ****     {
 554              		.loc 1 141 5 is_stmt 0 view .LVU206
 555 00e0 E0D1     		bne	.L17
 556 00e2 04F14802 		add	r2, r4, #72
 557 00e6 04F1C003 		add	r3, r4, #192
 558              	.LVL59:
 141:D:/fchai/work/i-cube/I-CUBE-HUAWEI/Middlewares/Third_Party/Huawei/iot_link/network/dtls/mbedtls/mbedtls-2.16.2/library\gcm.c ****     {
 559              		.loc 1 141 5 view .LVU207
 560 00ea 0492     		str	r2, [sp, #16]
 561 00ec 0322     		movs	r2, #3
 562 00ee 04F1400A 		add	r10, r4, #64
 563 00f2 0392     		str	r2, [sp, #12]
 151:D:/fchai/work/i-cube/I-CUBE-HUAWEI/Middlewares/Third_Party/Huawei/iot_link/network/dtls/mbedtls/mbedtls-2.16.2/library\gcm.c ****     {
 564              		.loc 1 151 12 view .LVU208
 565 00f4 0227     		movs	r7, #2
 566 00f6 9946     		mov	r9, r3
 567 00f8 CDF814C0 		str	ip, [sp, #20]
 568              	.LVL60:
 569              	.L19:
 570              	.LBB11:
 153:D:/fchai/work/i-cube/I-CUBE-HUAWEI/Middlewares/Third_Party/Huawei/iot_link/network/dtls/mbedtls/mbedtls-2.16.2/library\gcm.c ****         vh = *HiH;
 571              		.loc 1 153 9 is_stmt 1 view .LVU209
 153:D:/fchai/work/i-cube/I-CUBE-HUAWEI/Middlewares/Third_Party/Huawei/iot_link/network/dtls/mbedtls/mbedtls-2.16.2/library\gcm.c ****         vh = *HiH;
 572              		.loc 1 153 19 is_stmt 0 view .LVU210
 573 00fc 0AEBC703 		add	r3, r10, r7, lsl #3
 153:D:/fchai/work/i-cube/I-CUBE-HUAWEI/Middlewares/Third_Party/Huawei/iot_link/network/dtls/mbedtls/mbedtls-2.16.2/library\gcm.c ****         vh = *HiH;
 574              		.loc 1 153 39 view .LVU211
 575 0100 09EBC700 		add	r0, r9, r7, lsl #3
 154:D:/fchai/work/i-cube/I-CUBE-HUAWEI/Middlewares/Third_Party/Huawei/iot_link/network/dtls/mbedtls/mbedtls-2.16.2/library\gcm.c ****         vl = *HiL;
 576              		.loc 1 154 9 is_stmt 1 view .LVU212
 155:D:/fchai/work/i-cube/I-CUBE-HUAWEI/Middlewares/Third_Party/Huawei/iot_link/network/dtls/mbedtls/mbedtls-2.16.2/library\gcm.c ****         for( j = 1; j < i; j++ )
 577              		.loc 1 155 12 is_stmt 0 view .LVU213
 578 0104 D3F80480 		ldr	r8, [r3, #4]
 154:D:/fchai/work/i-cube/I-CUBE-HUAWEI/Middlewares/Third_Party/Huawei/iot_link/network/dtls/mbedtls/mbedtls-2.16.2/library\gcm.c ****         vl = *HiL;
 579              		.loc 1 154 12 view .LVU214
 580 0108 59F837C0 		ldr	ip, [r9, r7, lsl #3]
 155:D:/fchai/work/i-cube/I-CUBE-HUAWEI/Middlewares/Third_Party/Huawei/iot_link/network/dtls/mbedtls/mbedtls-2.16.2/library\gcm.c ****         for( j = 1; j < i; j++ )
 581              		.loc 1 155 12 view .LVU215
 582 010c 5AF83760 		ldr	r6, [r10, r7, lsl #3]
 583 0110 049A     		ldr	r2, [sp, #16]
ARM GAS  T:\msys\tmp\ccyunwdQ.s 			page 19


 154:D:/fchai/work/i-cube/I-CUBE-HUAWEI/Middlewares/Third_Party/Huawei/iot_link/network/dtls/mbedtls/mbedtls-2.16.2/library\gcm.c ****         vl = *HiL;
 584              		.loc 1 154 12 view .LVU216
 585 0112 D0F804E0 		ldr	lr, [r0, #4]
 586              	.LVL61:
 155:D:/fchai/work/i-cube/I-CUBE-HUAWEI/Middlewares/Third_Party/Huawei/iot_link/network/dtls/mbedtls/mbedtls-2.16.2/library\gcm.c ****         for( j = 1; j < i; j++ )
 587              		.loc 1 155 9 is_stmt 1 view .LVU217
 156:D:/fchai/work/i-cube/I-CUBE-HUAWEI/Middlewares/Third_Party/Huawei/iot_link/network/dtls/mbedtls/mbedtls-2.16.2/library\gcm.c ****         {
 588              		.loc 1 156 9 view .LVU218
 156:D:/fchai/work/i-cube/I-CUBE-HUAWEI/Middlewares/Third_Party/Huawei/iot_link/network/dtls/mbedtls/mbedtls-2.16.2/library\gcm.c ****         {
 589              		.loc 1 156 21 view .LVU219
 590 0116 00F10801 		add	r1, r0, #8
 591 011a 00EBC700 		add	r0, r0, r7, lsl #3
 592              	.LVL62:
 593              	.L18:
 158:D:/fchai/work/i-cube/I-CUBE-HUAWEI/Middlewares/Third_Party/Huawei/iot_link/network/dtls/mbedtls/mbedtls-2.16.2/library\gcm.c ****             HiL[j] = vl ^ ctx->HL[j];
 594              		.loc 1 158 13 view .LVU220
 158:D:/fchai/work/i-cube/I-CUBE-HUAWEI/Middlewares/Third_Party/Huawei/iot_link/network/dtls/mbedtls/mbedtls-2.16.2/library\gcm.c ****             HiL[j] = vl ^ ctx->HL[j];
 595              		.loc 1 158 25 is_stmt 0 view .LVU221
 596 011e D2E92054 		ldrd	r5, r4, [r2, #128]
 597 0122 85EA0C05 		eor	r5, r5, ip
 598 0126 84EA0E04 		eor	r4, r4, lr
 158:D:/fchai/work/i-cube/I-CUBE-HUAWEI/Middlewares/Third_Party/Huawei/iot_link/network/dtls/mbedtls/mbedtls-2.16.2/library\gcm.c ****             HiL[j] = vl ^ ctx->HL[j];
 599              		.loc 1 158 20 view .LVU222
 600 012a C1E90054 		strd	r5, r4, [r1]
 159:D:/fchai/work/i-cube/I-CUBE-HUAWEI/Middlewares/Third_Party/Huawei/iot_link/network/dtls/mbedtls/mbedtls-2.16.2/library\gcm.c ****         }
 601              		.loc 1 159 25 view .LVU223
 602 012e D2E90054 		ldrd	r5, r4, [r2]
 603 0132 7540     		eors	r5, r5, r6
 159:D:/fchai/work/i-cube/I-CUBE-HUAWEI/Middlewares/Third_Party/Huawei/iot_link/network/dtls/mbedtls/mbedtls-2.16.2/library\gcm.c ****         }
 604              		.loc 1 159 20 view .LVU224
 605 0134 43F8085F 		str	r5, [r3, #8]!
 606 0138 0831     		adds	r1, r1, #8
 159:D:/fchai/work/i-cube/I-CUBE-HUAWEI/Middlewares/Third_Party/Huawei/iot_link/network/dtls/mbedtls/mbedtls-2.16.2/library\gcm.c ****         }
 607              		.loc 1 159 13 is_stmt 1 view .LVU225
 159:D:/fchai/work/i-cube/I-CUBE-HUAWEI/Middlewares/Third_Party/Huawei/iot_link/network/dtls/mbedtls/mbedtls-2.16.2/library\gcm.c ****         }
 608              		.loc 1 159 25 is_stmt 0 view .LVU226
 609 013a 84EA0804 		eor	r4, r4, r8
 156:D:/fchai/work/i-cube/I-CUBE-HUAWEI/Middlewares/Third_Party/Huawei/iot_link/network/dtls/mbedtls/mbedtls-2.16.2/library\gcm.c ****         {
 610              		.loc 1 156 9 view .LVU227
 611 013e 8142     		cmp	r1, r0
 612 0140 02F10802 		add	r2, r2, #8
 159:D:/fchai/work/i-cube/I-CUBE-HUAWEI/Middlewares/Third_Party/Huawei/iot_link/network/dtls/mbedtls/mbedtls-2.16.2/library\gcm.c ****         }
 613              		.loc 1 159 20 view .LVU228
 614 0144 5C60     		str	r4, [r3, #4]
 156:D:/fchai/work/i-cube/I-CUBE-HUAWEI/Middlewares/Third_Party/Huawei/iot_link/network/dtls/mbedtls/mbedtls-2.16.2/library\gcm.c ****         {
 615              		.loc 1 156 28 is_stmt 1 view .LVU229
 156:D:/fchai/work/i-cube/I-CUBE-HUAWEI/Middlewares/Third_Party/Huawei/iot_link/network/dtls/mbedtls/mbedtls-2.16.2/library\gcm.c ****         {
 616              		.loc 1 156 21 view .LVU230
 156:D:/fchai/work/i-cube/I-CUBE-HUAWEI/Middlewares/Third_Party/Huawei/iot_link/network/dtls/mbedtls/mbedtls-2.16.2/library\gcm.c ****         {
 617              		.loc 1 156 9 is_stmt 0 view .LVU231
 618 0146 EAD1     		bne	.L18
 619              	.LBE11:
 151:D:/fchai/work/i-cube/I-CUBE-HUAWEI/Middlewares/Third_Party/Huawei/iot_link/network/dtls/mbedtls/mbedtls-2.16.2/library\gcm.c ****     {
 620              		.loc 1 151 25 is_stmt 1 view .LVU232
 151:D:/fchai/work/i-cube/I-CUBE-HUAWEI/Middlewares/Third_Party/Huawei/iot_link/network/dtls/mbedtls/mbedtls-2.16.2/library\gcm.c ****     {
 621              		.loc 1 151 5 is_stmt 0 view .LVU233
 622 0148 039B     		ldr	r3, [sp, #12]
ARM GAS  T:\msys\tmp\ccyunwdQ.s 			page 20


 623 014a 013B     		subs	r3, r3, #1
 151:D:/fchai/work/i-cube/I-CUBE-HUAWEI/Middlewares/Third_Party/Huawei/iot_link/network/dtls/mbedtls/mbedtls-2.16.2/library\gcm.c ****     {
 624              		.loc 1 151 27 view .LVU234
 625 014c 4FEA4707 		lsl	r7, r7, #1
 626              	.LVL63:
 151:D:/fchai/work/i-cube/I-CUBE-HUAWEI/Middlewares/Third_Party/Huawei/iot_link/network/dtls/mbedtls/mbedtls-2.16.2/library\gcm.c ****     {
 627              		.loc 1 151 17 is_stmt 1 view .LVU235
 151:D:/fchai/work/i-cube/I-CUBE-HUAWEI/Middlewares/Third_Party/Huawei/iot_link/network/dtls/mbedtls/mbedtls-2.16.2/library\gcm.c ****     {
 628              		.loc 1 151 5 is_stmt 0 view .LVU236
 629 0150 0393     		str	r3, [sp, #12]
 630 0152 D3D1     		bne	.L19
 631 0154 0598     		ldr	r0, [sp, #20]
 632              	.LBE7:
 633              	.LBE6:
 200:D:/fchai/work/i-cube/I-CUBE-HUAWEI/Middlewares/Third_Party/Huawei/iot_link/network/dtls/mbedtls/mbedtls-2.16.2/library\gcm.c **** 
 634              		.loc 1 200 1 view .LVU237
 635 0156 0DB0     		add	sp, sp, #52
 636              	.LCFI7:
 637              		.cfi_remember_state
 638              		.cfi_def_cfa_offset 36
 639              		@ sp needed
 640 0158 BDE8F08F 		pop	{r4, r5, r6, r7, r8, r9, r10, fp, pc}
 641              	.LVL64:
 642              	.L22:
 643              	.LCFI8:
 644              		.cfi_restore_state
 180:D:/fchai/work/i-cube/I-CUBE-HUAWEI/Middlewares/Third_Party/Huawei/iot_link/network/dtls/mbedtls/mbedtls-2.16.2/library\gcm.c **** 
 645              		.loc 1 180 15 view .LVU238
 646 015c 6FF01300 		mvn	r0, #19
 647              	.LVL65:
 180:D:/fchai/work/i-cube/I-CUBE-HUAWEI/Middlewares/Third_Party/Huawei/iot_link/network/dtls/mbedtls/mbedtls-2.16.2/library\gcm.c **** 
 648              		.loc 1 180 15 view .LVU239
 649 0160 6BE7     		b	.L14
 650              		.cfi_endproc
 651              	.LFE9:
 653 0162 00BF     		.section	.text.mbedtls_gcm_starts,"ax",%progbits
 654              		.align	1
 655              		.p2align 2,,3
 656              		.global	mbedtls_gcm_starts
 657              		.syntax unified
 658              		.thumb
 659              		.thumb_func
 660              		.fpu fpv4-sp-d16
 662              	mbedtls_gcm_starts:
 663              	.LVL66:
 664              	.LFB11:
 274:D:/fchai/work/i-cube/I-CUBE-HUAWEI/Middlewares/Third_Party/Huawei/iot_link/network/dtls/mbedtls/mbedtls-2.16.2/library\gcm.c **** 
 275:D:/fchai/work/i-cube/I-CUBE-HUAWEI/Middlewares/Third_Party/Huawei/iot_link/network/dtls/mbedtls/mbedtls-2.16.2/library\gcm.c **** int mbedtls_gcm_starts( mbedtls_gcm_context *ctx,
 276:D:/fchai/work/i-cube/I-CUBE-HUAWEI/Middlewares/Third_Party/Huawei/iot_link/network/dtls/mbedtls/mbedtls-2.16.2/library\gcm.c ****                 int mode,
 277:D:/fchai/work/i-cube/I-CUBE-HUAWEI/Middlewares/Third_Party/Huawei/iot_link/network/dtls/mbedtls/mbedtls-2.16.2/library\gcm.c ****                 const unsigned char *iv,
 278:D:/fchai/work/i-cube/I-CUBE-HUAWEI/Middlewares/Third_Party/Huawei/iot_link/network/dtls/mbedtls/mbedtls-2.16.2/library\gcm.c ****                 size_t iv_len,
 279:D:/fchai/work/i-cube/I-CUBE-HUAWEI/Middlewares/Third_Party/Huawei/iot_link/network/dtls/mbedtls/mbedtls-2.16.2/library\gcm.c ****                 const unsigned char *add,
 280:D:/fchai/work/i-cube/I-CUBE-HUAWEI/Middlewares/Third_Party/Huawei/iot_link/network/dtls/mbedtls/mbedtls-2.16.2/library\gcm.c ****                 size_t add_len )
 281:D:/fchai/work/i-cube/I-CUBE-HUAWEI/Middlewares/Third_Party/Huawei/iot_link/network/dtls/mbedtls/mbedtls-2.16.2/library\gcm.c **** {
 665              		.loc 1 281 1 is_stmt 1 view -0
 666              		.cfi_startproc
 667              		@ args = 8, pretend = 0, frame = 24
ARM GAS  T:\msys\tmp\ccyunwdQ.s 			page 21


 668              		@ frame_needed = 0, uses_anonymous_args = 0
 669              		.loc 1 281 1 is_stmt 0 view .LVU241
 670 0000 2DE9F04F 		push	{r4, r5, r6, r7, r8, r9, r10, fp, lr}
 671              	.LCFI9:
 672              		.cfi_def_cfa_offset 36
 673              		.cfi_offset 4, -36
 674              		.cfi_offset 5, -32
 675              		.cfi_offset 6, -28
 676              		.cfi_offset 7, -24
 677              		.cfi_offset 8, -20
 678              		.cfi_offset 9, -16
 679              		.cfi_offset 10, -12
 680              		.cfi_offset 11, -8
 681              		.cfi_offset 14, -4
 682 0004 89B0     		sub	sp, sp, #36
 683              	.LCFI10:
 684              		.cfi_def_cfa_offset 72
 282:D:/fchai/work/i-cube/I-CUBE-HUAWEI/Middlewares/Third_Party/Huawei/iot_link/network/dtls/mbedtls/mbedtls-2.16.2/library\gcm.c ****     int ret;
 283:D:/fchai/work/i-cube/I-CUBE-HUAWEI/Middlewares/Third_Party/Huawei/iot_link/network/dtls/mbedtls/mbedtls-2.16.2/library\gcm.c ****     unsigned char work_buf[16];
 284:D:/fchai/work/i-cube/I-CUBE-HUAWEI/Middlewares/Third_Party/Huawei/iot_link/network/dtls/mbedtls/mbedtls-2.16.2/library\gcm.c ****     size_t i;
 285:D:/fchai/work/i-cube/I-CUBE-HUAWEI/Middlewares/Third_Party/Huawei/iot_link/network/dtls/mbedtls/mbedtls-2.16.2/library\gcm.c ****     const unsigned char *p;
 286:D:/fchai/work/i-cube/I-CUBE-HUAWEI/Middlewares/Third_Party/Huawei/iot_link/network/dtls/mbedtls/mbedtls-2.16.2/library\gcm.c ****     size_t use_len, olen = 0;
 685              		.loc 1 286 21 view .LVU242
 686 0006 4FF0000C 		mov	ip, #0
 282:D:/fchai/work/i-cube/I-CUBE-HUAWEI/Middlewares/Third_Party/Huawei/iot_link/network/dtls/mbedtls/mbedtls-2.16.2/library\gcm.c ****     int ret;
 687              		.loc 1 282 5 is_stmt 1 view .LVU243
 283:D:/fchai/work/i-cube/I-CUBE-HUAWEI/Middlewares/Third_Party/Huawei/iot_link/network/dtls/mbedtls/mbedtls-2.16.2/library\gcm.c ****     size_t i;
 688              		.loc 1 283 5 view .LVU244
 284:D:/fchai/work/i-cube/I-CUBE-HUAWEI/Middlewares/Third_Party/Huawei/iot_link/network/dtls/mbedtls/mbedtls-2.16.2/library\gcm.c ****     const unsigned char *p;
 689              		.loc 1 284 5 view .LVU245
 285:D:/fchai/work/i-cube/I-CUBE-HUAWEI/Middlewares/Third_Party/Huawei/iot_link/network/dtls/mbedtls/mbedtls-2.16.2/library\gcm.c ****     size_t use_len, olen = 0;
 690              		.loc 1 285 5 view .LVU246
 691              		.loc 1 286 5 view .LVU247
 281:D:/fchai/work/i-cube/I-CUBE-HUAWEI/Middlewares/Third_Party/Huawei/iot_link/network/dtls/mbedtls/mbedtls-2.16.2/library\gcm.c ****     int ret;
 692              		.loc 1 281 1 is_stmt 0 view .LVU248
 693 000a DDE91276 		ldrd	r7, r6, [sp, #72]
 694              		.loc 1 286 21 view .LVU249
 695 000e CDF80CC0 		str	ip, [sp, #12]
 287:D:/fchai/work/i-cube/I-CUBE-HUAWEI/Middlewares/Third_Party/Huawei/iot_link/network/dtls/mbedtls/mbedtls-2.16.2/library\gcm.c **** 
 288:D:/fchai/work/i-cube/I-CUBE-HUAWEI/Middlewares/Third_Party/Huawei/iot_link/network/dtls/mbedtls/mbedtls-2.16.2/library\gcm.c ****     GCM_VALIDATE_RET( ctx != NULL );
 696              		.loc 1 288 5 is_stmt 1 view .LVU250
 697              		.loc 1 288 5 view .LVU251
 698              		.loc 1 288 5 view .LVU252
 289:D:/fchai/work/i-cube/I-CUBE-HUAWEI/Middlewares/Third_Party/Huawei/iot_link/network/dtls/mbedtls/mbedtls-2.16.2/library\gcm.c ****     GCM_VALIDATE_RET( iv != NULL );
 699              		.loc 1 289 5 view .LVU253
 700              		.loc 1 289 5 view .LVU254
 701              		.loc 1 289 5 view .LVU255
 290:D:/fchai/work/i-cube/I-CUBE-HUAWEI/Middlewares/Third_Party/Huawei/iot_link/network/dtls/mbedtls/mbedtls-2.16.2/library\gcm.c ****     GCM_VALIDATE_RET( add_len == 0 || add != NULL );
 702              		.loc 1 290 5 view .LVU256
 703              		.loc 1 290 5 view .LVU257
 704              		.loc 1 290 5 view .LVU258
 291:D:/fchai/work/i-cube/I-CUBE-HUAWEI/Middlewares/Third_Party/Huawei/iot_link/network/dtls/mbedtls/mbedtls-2.16.2/library\gcm.c **** 
 292:D:/fchai/work/i-cube/I-CUBE-HUAWEI/Middlewares/Third_Party/Huawei/iot_link/network/dtls/mbedtls/mbedtls-2.16.2/library\gcm.c ****     /* IV and AD are limited to 2^64 bits, so 2^61 bytes */
 293:D:/fchai/work/i-cube/I-CUBE-HUAWEI/Middlewares/Third_Party/Huawei/iot_link/network/dtls/mbedtls/mbedtls-2.16.2/library\gcm.c ****     /* IV is not allowed to be zero length */
 294:D:/fchai/work/i-cube/I-CUBE-HUAWEI/Middlewares/Third_Party/Huawei/iot_link/network/dtls/mbedtls/mbedtls-2.16.2/library\gcm.c ****     if( iv_len == 0 ||
 705              		.loc 1 294 5 view .LVU259
 706              		.loc 1 294 7 is_stmt 0 view .LVU260
ARM GAS  T:\msys\tmp\ccyunwdQ.s 			page 22


 707 0012 002B     		cmp	r3, #0
 708 0014 00F0A480 		beq	.L41
 295:D:/fchai/work/i-cube/I-CUBE-HUAWEI/Middlewares/Third_Party/Huawei/iot_link/network/dtls/mbedtls/mbedtls-2.16.2/library\gcm.c ****       ( (uint64_t) iv_len  ) >> 61 != 0 ||
 296:D:/fchai/work/i-cube/I-CUBE-HUAWEI/Middlewares/Third_Party/Huawei/iot_link/network/dtls/mbedtls/mbedtls-2.16.2/library\gcm.c ****       ( (uint64_t) add_len ) >> 61 != 0 )
 297:D:/fchai/work/i-cube/I-CUBE-HUAWEI/Middlewares/Third_Party/Huawei/iot_link/network/dtls/mbedtls/mbedtls-2.16.2/library\gcm.c ****     {
 298:D:/fchai/work/i-cube/I-CUBE-HUAWEI/Middlewares/Third_Party/Huawei/iot_link/network/dtls/mbedtls/mbedtls-2.16.2/library\gcm.c ****         return( MBEDTLS_ERR_GCM_BAD_INPUT );
 299:D:/fchai/work/i-cube/I-CUBE-HUAWEI/Middlewares/Third_Party/Huawei/iot_link/network/dtls/mbedtls/mbedtls-2.16.2/library\gcm.c ****     }
 300:D:/fchai/work/i-cube/I-CUBE-HUAWEI/Middlewares/Third_Party/Huawei/iot_link/network/dtls/mbedtls/mbedtls-2.16.2/library\gcm.c **** 
 301:D:/fchai/work/i-cube/I-CUBE-HUAWEI/Middlewares/Third_Party/Huawei/iot_link/network/dtls/mbedtls/mbedtls-2.16.2/library\gcm.c ****     memset( ctx->y, 0x00, sizeof(ctx->y) );
 302:D:/fchai/work/i-cube/I-CUBE-HUAWEI/Middlewares/Third_Party/Huawei/iot_link/network/dtls/mbedtls/mbedtls-2.16.2/library\gcm.c ****     memset( ctx->buf, 0x00, sizeof(ctx->buf) );
 303:D:/fchai/work/i-cube/I-CUBE-HUAWEI/Middlewares/Third_Party/Huawei/iot_link/network/dtls/mbedtls/mbedtls-2.16.2/library\gcm.c **** 
 304:D:/fchai/work/i-cube/I-CUBE-HUAWEI/Middlewares/Third_Party/Huawei/iot_link/network/dtls/mbedtls/mbedtls-2.16.2/library\gcm.c ****     ctx->mode = mode;
 305:D:/fchai/work/i-cube/I-CUBE-HUAWEI/Middlewares/Third_Party/Huawei/iot_link/network/dtls/mbedtls/mbedtls-2.16.2/library\gcm.c ****     ctx->len = 0;
 709              		.loc 1 305 14 discriminator 1 view .LVU261
 710 0018 4FF00008 		mov	r8, #0
 711 001c 4FF00009 		mov	r9, #0
 306:D:/fchai/work/i-cube/I-CUBE-HUAWEI/Middlewares/Third_Party/Huawei/iot_link/network/dtls/mbedtls/mbedtls-2.16.2/library\gcm.c ****     ctx->add_len = 0;
 307:D:/fchai/work/i-cube/I-CUBE-HUAWEI/Middlewares/Third_Party/Huawei/iot_link/network/dtls/mbedtls/mbedtls-2.16.2/library\gcm.c **** 
 308:D:/fchai/work/i-cube/I-CUBE-HUAWEI/Middlewares/Third_Party/Huawei/iot_link/network/dtls/mbedtls/mbedtls-2.16.2/library\gcm.c ****     if( iv_len == 12 )
 712              		.loc 1 308 7 discriminator 1 view .LVU262
 713 0020 0C2B     		cmp	r3, #12
 305:D:/fchai/work/i-cube/I-CUBE-HUAWEI/Middlewares/Third_Party/Huawei/iot_link/network/dtls/mbedtls/mbedtls-2.16.2/library\gcm.c ****     ctx->add_len = 0;
 714              		.loc 1 305 14 discriminator 1 view .LVU263
 715 0022 C0E95089 		strd	r8, [r0, #320]
 306:D:/fchai/work/i-cube/I-CUBE-HUAWEI/Middlewares/Third_Party/Huawei/iot_link/network/dtls/mbedtls/mbedtls-2.16.2/library\gcm.c ****     ctx->add_len = 0;
 716              		.loc 1 306 18 discriminator 1 view .LVU264
 717 0026 C0E95289 		strd	r8, [r0, #328]
 718 002a 0446     		mov	r4, r0
 719 002c 1D46     		mov	r5, r3
 301:D:/fchai/work/i-cube/I-CUBE-HUAWEI/Middlewares/Third_Party/Huawei/iot_link/network/dtls/mbedtls/mbedtls-2.16.2/library\gcm.c ****     memset( ctx->buf, 0x00, sizeof(ctx->buf) );
 720              		.loc 1 301 5 is_stmt 1 discriminator 1 view .LVU265
 721 002e C0F860C1 		str	ip, [r0, #352]	@ unaligned
 722 0032 C0F864C1 		str	ip, [r0, #356]	@ unaligned
 723 0036 C0F868C1 		str	ip, [r0, #360]	@ unaligned
 724 003a C0F86CC1 		str	ip, [r0, #364]	@ unaligned
 302:D:/fchai/work/i-cube/I-CUBE-HUAWEI/Middlewares/Third_Party/Huawei/iot_link/network/dtls/mbedtls/mbedtls-2.16.2/library\gcm.c **** 
 725              		.loc 1 302 5 discriminator 1 view .LVU266
 726 003e C0F870C1 		str	ip, [r0, #368]	@ unaligned
 727 0042 C0F874C1 		str	ip, [r0, #372]	@ unaligned
 728 0046 C0F878C1 		str	ip, [r0, #376]	@ unaligned
 729 004a C0F87CC1 		str	ip, [r0, #380]	@ unaligned
 304:D:/fchai/work/i-cube/I-CUBE-HUAWEI/Middlewares/Third_Party/Huawei/iot_link/network/dtls/mbedtls/mbedtls-2.16.2/library\gcm.c ****     ctx->len = 0;
 730              		.loc 1 304 5 discriminator 1 view .LVU267
 304:D:/fchai/work/i-cube/I-CUBE-HUAWEI/Middlewares/Third_Party/Huawei/iot_link/network/dtls/mbedtls/mbedtls-2.16.2/library\gcm.c ****     ctx->len = 0;
 731              		.loc 1 304 15 is_stmt 0 discriminator 1 view .LVU268
 732 004e C0F88011 		str	r1, [r0, #384]
 305:D:/fchai/work/i-cube/I-CUBE-HUAWEI/Middlewares/Third_Party/Huawei/iot_link/network/dtls/mbedtls/mbedtls-2.16.2/library\gcm.c ****     ctx->add_len = 0;
 733              		.loc 1 305 5 is_stmt 1 discriminator 1 view .LVU269
 306:D:/fchai/work/i-cube/I-CUBE-HUAWEI/Middlewares/Third_Party/Huawei/iot_link/network/dtls/mbedtls/mbedtls-2.16.2/library\gcm.c **** 
 734              		.loc 1 306 5 discriminator 1 view .LVU270
 735              		.loc 1 308 5 discriminator 1 view .LVU271
 301:D:/fchai/work/i-cube/I-CUBE-HUAWEI/Middlewares/Third_Party/Huawei/iot_link/network/dtls/mbedtls/mbedtls-2.16.2/library\gcm.c ****     memset( ctx->buf, 0x00, sizeof(ctx->buf) );
 736              		.loc 1 301 16 is_stmt 0 discriminator 1 view .LVU272
 737 0052 00F5B07B 		add	fp, r0, #352
 302:D:/fchai/work/i-cube/I-CUBE-HUAWEI/Middlewares/Third_Party/Huawei/iot_link/network/dtls/mbedtls/mbedtls-2.16.2/library\gcm.c **** 
 738              		.loc 1 302 16 discriminator 1 view .LVU273
 739 0056 00F5B878 		add	r8, r0, #368
ARM GAS  T:\msys\tmp\ccyunwdQ.s 			page 23


 740              		.loc 1 308 7 discriminator 1 view .LVU274
 741 005a 74D0     		beq	.L48
 309:D:/fchai/work/i-cube/I-CUBE-HUAWEI/Middlewares/Third_Party/Huawei/iot_link/network/dtls/mbedtls/mbedtls-2.16.2/library\gcm.c ****     {
 310:D:/fchai/work/i-cube/I-CUBE-HUAWEI/Middlewares/Third_Party/Huawei/iot_link/network/dtls/mbedtls/mbedtls-2.16.2/library\gcm.c ****         memcpy( ctx->y, iv, iv_len );
 311:D:/fchai/work/i-cube/I-CUBE-HUAWEI/Middlewares/Third_Party/Huawei/iot_link/network/dtls/mbedtls/mbedtls-2.16.2/library\gcm.c ****         ctx->y[15] = 1;
 312:D:/fchai/work/i-cube/I-CUBE-HUAWEI/Middlewares/Third_Party/Huawei/iot_link/network/dtls/mbedtls/mbedtls-2.16.2/library\gcm.c ****     }
 313:D:/fchai/work/i-cube/I-CUBE-HUAWEI/Middlewares/Third_Party/Huawei/iot_link/network/dtls/mbedtls/mbedtls-2.16.2/library\gcm.c ****     else
 314:D:/fchai/work/i-cube/I-CUBE-HUAWEI/Middlewares/Third_Party/Huawei/iot_link/network/dtls/mbedtls/mbedtls-2.16.2/library\gcm.c ****     {
 315:D:/fchai/work/i-cube/I-CUBE-HUAWEI/Middlewares/Third_Party/Huawei/iot_link/network/dtls/mbedtls/mbedtls-2.16.2/library\gcm.c ****         memset( work_buf, 0x00, 16 );
 742              		.loc 1 315 9 is_stmt 1 view .LVU275
 316:D:/fchai/work/i-cube/I-CUBE-HUAWEI/Middlewares/Third_Party/Huawei/iot_link/network/dtls/mbedtls/mbedtls-2.16.2/library\gcm.c ****         PUT_UINT32_BE( iv_len * 8, work_buf, 12 );
 743              		.loc 1 316 9 is_stmt 0 view .LVU276
 744 005c D800     		lsls	r0, r3, #3
 745              	.LVL67:
 315:D:/fchai/work/i-cube/I-CUBE-HUAWEI/Middlewares/Third_Party/Huawei/iot_link/network/dtls/mbedtls/mbedtls-2.16.2/library\gcm.c ****         PUT_UINT32_BE( iv_len * 8, work_buf, 12 );
 746              		.loc 1 315 9 view .LVU277
 747 005e CDE904CC 		strd	ip, ip, [sp, #16]
 748              		.loc 1 316 9 view .LVU278
 749 0062 C3F34753 		ubfx	r3, r3, #21, #8
 750              	.LVL68:
 751              		.loc 1 316 9 view .LVU279
 752 0066 8DF81F00 		strb	r0, [sp, #31]
 753 006a 8DF81C30 		strb	r3, [sp, #28]
 754 006e C5F34F30 		ubfx	r0, r5, #13, #16
 755 0072 C5F35713 		ubfx	r3, r5, #5, #24
 315:D:/fchai/work/i-cube/I-CUBE-HUAWEI/Middlewares/Third_Party/Huawei/iot_link/network/dtls/mbedtls/mbedtls-2.16.2/library\gcm.c ****         PUT_UINT32_BE( iv_len * 8, work_buf, 12 );
 756              		.loc 1 315 9 view .LVU280
 757 0076 CDF818C0 		str	ip, [sp, #24]
 758              		.loc 1 316 9 is_stmt 1 view .LVU281
 759              		.loc 1 316 9 view .LVU282
 760 007a 6146     		mov	r1, ip
 761              	.LVL69:
 762              		.loc 1 316 9 is_stmt 0 view .LVU283
 763 007c 8DF81D00 		strb	r0, [sp, #29]
 764              		.loc 1 316 9 is_stmt 1 view .LVU284
 765 0080 8DF81E30 		strb	r3, [sp, #30]
 766              		.loc 1 316 9 view .LVU285
 767              		.loc 1 316 50 view .LVU286
 317:D:/fchai/work/i-cube/I-CUBE-HUAWEI/Middlewares/Third_Party/Huawei/iot_link/network/dtls/mbedtls/mbedtls-2.16.2/library\gcm.c **** 
 318:D:/fchai/work/i-cube/I-CUBE-HUAWEI/Middlewares/Third_Party/Huawei/iot_link/network/dtls/mbedtls/mbedtls-2.16.2/library\gcm.c ****         p = iv;
 768              		.loc 1 318 9 view .LVU287
 769              	.LVL70:
 319:D:/fchai/work/i-cube/I-CUBE-HUAWEI/Middlewares/Third_Party/Huawei/iot_link/network/dtls/mbedtls/mbedtls-2.16.2/library\gcm.c ****         while( iv_len > 0 )
 770              		.loc 1 319 9 view .LVU288
 771              		.loc 1 319 14 view .LVU289
 772              	.L36:
 320:D:/fchai/work/i-cube/I-CUBE-HUAWEI/Middlewares/Third_Party/Huawei/iot_link/network/dtls/mbedtls/mbedtls-2.16.2/library\gcm.c ****         {
 321:D:/fchai/work/i-cube/I-CUBE-HUAWEI/Middlewares/Third_Party/Huawei/iot_link/network/dtls/mbedtls/mbedtls-2.16.2/library\gcm.c ****             use_len = ( iv_len < 16 ) ? iv_len : 16;
 773              		.loc 1 321 13 view .LVU290
 774              		.loc 1 321 21 is_stmt 0 view .LVU291
 775 0084 102D     		cmp	r5, #16
 776 0086 A946     		mov	r9, r5
 777 0088 28BF     		it	cs
 778 008a 4FF01009 		movcs	r9, #16
 779              	.LVL71:
 322:D:/fchai/work/i-cube/I-CUBE-HUAWEI/Middlewares/Third_Party/Huawei/iot_link/network/dtls/mbedtls/mbedtls-2.16.2/library\gcm.c **** 
 323:D:/fchai/work/i-cube/I-CUBE-HUAWEI/Middlewares/Third_Party/Huawei/iot_link/network/dtls/mbedtls/mbedtls-2.16.2/library\gcm.c ****             for( i = 0; i < use_len; i++ )
ARM GAS  T:\msys\tmp\ccyunwdQ.s 			page 24


 780              		.loc 1 323 13 is_stmt 1 view .LVU292
 781              		.loc 1 323 25 view .LVU293
 782 008e 02EB090A 		add	r10, r2, r9
 783 0092 531E     		subs	r3, r2, #1
 784 0094 0AF1FF3C 		add	ip, r10, #-1
 785 0098 5A46     		mov	r2, fp
 786 009a 00E0     		b	.L33
 787              	.LVL72:
 788              	.L49:
 789              		.loc 1 323 25 is_stmt 0 view .LVU294
 790 009c 1178     		ldrb	r1, [r2]	@ zero_extendqisi2
 791              	.L33:
 324:D:/fchai/work/i-cube/I-CUBE-HUAWEI/Middlewares/Third_Party/Huawei/iot_link/network/dtls/mbedtls/mbedtls-2.16.2/library\gcm.c ****                 ctx->y[i] ^= p[i];
 792              		.loc 1 324 17 is_stmt 1 discriminator 3 view .LVU295
 793              		.loc 1 324 27 is_stmt 0 discriminator 3 view .LVU296
 794 009e 13F8010F 		ldrb	r0, [r3, #1]!	@ zero_extendqisi2
 795              		.loc 1 324 27 discriminator 3 view .LVU297
 796 00a2 4840     		eors	r0, r0, r1
 323:D:/fchai/work/i-cube/I-CUBE-HUAWEI/Middlewares/Third_Party/Huawei/iot_link/network/dtls/mbedtls/mbedtls-2.16.2/library\gcm.c ****                 ctx->y[i] ^= p[i];
 797              		.loc 1 323 13 discriminator 3 view .LVU298
 798 00a4 6345     		cmp	r3, ip
 799              		.loc 1 324 27 discriminator 3 view .LVU299
 800 00a6 02F8010B 		strb	r0, [r2], #1
 323:D:/fchai/work/i-cube/I-CUBE-HUAWEI/Middlewares/Third_Party/Huawei/iot_link/network/dtls/mbedtls/mbedtls-2.16.2/library\gcm.c ****                 ctx->y[i] ^= p[i];
 801              		.loc 1 323 38 is_stmt 1 discriminator 3 view .LVU300
 323:D:/fchai/work/i-cube/I-CUBE-HUAWEI/Middlewares/Third_Party/Huawei/iot_link/network/dtls/mbedtls/mbedtls-2.16.2/library\gcm.c ****                 ctx->y[i] ^= p[i];
 802              		.loc 1 323 25 discriminator 3 view .LVU301
 323:D:/fchai/work/i-cube/I-CUBE-HUAWEI/Middlewares/Third_Party/Huawei/iot_link/network/dtls/mbedtls/mbedtls-2.16.2/library\gcm.c ****                 ctx->y[i] ^= p[i];
 803              		.loc 1 323 13 is_stmt 0 discriminator 3 view .LVU302
 804 00aa F7D1     		bne	.L49
 325:D:/fchai/work/i-cube/I-CUBE-HUAWEI/Middlewares/Third_Party/Huawei/iot_link/network/dtls/mbedtls/mbedtls-2.16.2/library\gcm.c **** 
 326:D:/fchai/work/i-cube/I-CUBE-HUAWEI/Middlewares/Third_Party/Huawei/iot_link/network/dtls/mbedtls/mbedtls-2.16.2/library\gcm.c ****             gcm_mult( ctx, ctx->y, ctx->y );
 805              		.loc 1 326 13 is_stmt 1 view .LVU303
 806 00ac 5A46     		mov	r2, fp
 807 00ae 5946     		mov	r1, fp
 808 00b0 2046     		mov	r0, r4
 809 00b2 FFF7FEFF 		bl	gcm_mult
 810              	.LVL73:
 327:D:/fchai/work/i-cube/I-CUBE-HUAWEI/Middlewares/Third_Party/Huawei/iot_link/network/dtls/mbedtls/mbedtls-2.16.2/library\gcm.c **** 
 328:D:/fchai/work/i-cube/I-CUBE-HUAWEI/Middlewares/Third_Party/Huawei/iot_link/network/dtls/mbedtls/mbedtls-2.16.2/library\gcm.c ****             iv_len -= use_len;
 811              		.loc 1 328 13 view .LVU304
 329:D:/fchai/work/i-cube/I-CUBE-HUAWEI/Middlewares/Third_Party/Huawei/iot_link/network/dtls/mbedtls/mbedtls-2.16.2/library\gcm.c ****             p += use_len;
 812              		.loc 1 329 13 view .LVU305
 319:D:/fchai/work/i-cube/I-CUBE-HUAWEI/Middlewares/Third_Party/Huawei/iot_link/network/dtls/mbedtls/mbedtls-2.16.2/library\gcm.c ****         {
 813              		.loc 1 319 14 is_stmt 0 view .LVU306
 814 00b6 B5EB0905 		subs	r5, r5, r9
 815              	.LVL74:
 816              		.loc 1 329 15 view .LVU307
 817 00ba 5246     		mov	r2, r10
 319:D:/fchai/work/i-cube/I-CUBE-HUAWEI/Middlewares/Third_Party/Huawei/iot_link/network/dtls/mbedtls/mbedtls-2.16.2/library\gcm.c ****         {
 818              		.loc 1 319 14 is_stmt 1 view .LVU308
 819 00bc 02D0     		beq	.L50
 820              	.LVL75:
 319:D:/fchai/work/i-cube/I-CUBE-HUAWEI/Middlewares/Third_Party/Huawei/iot_link/network/dtls/mbedtls/mbedtls-2.16.2/library\gcm.c ****         {
 821              		.loc 1 319 14 is_stmt 0 view .LVU309
 822 00be 94F86011 		ldrb	r1, [r4, #352]	@ zero_extendqisi2
 823 00c2 DFE7     		b	.L36
ARM GAS  T:\msys\tmp\ccyunwdQ.s 			page 25


 824              	.L50:
 825 00c4 04F25F13 		addw	r3, r4, #351
 826 00c8 0DF11102 		add	r2, sp, #17
 827              	.LVL76:
 319:D:/fchai/work/i-cube/I-CUBE-HUAWEI/Middlewares/Third_Party/Huawei/iot_link/network/dtls/mbedtls/mbedtls-2.16.2/library\gcm.c ****         {
 828              		.loc 1 319 14 view .LVU310
 829 00cc 08A8     		add	r0, sp, #32
 830 00ce 01E0     		b	.L35
 831              	.LVL77:
 832              	.L51:
 319:D:/fchai/work/i-cube/I-CUBE-HUAWEI/Middlewares/Third_Party/Huawei/iot_link/network/dtls/mbedtls/mbedtls-2.16.2/library\gcm.c ****         {
 833              		.loc 1 319 14 view .LVU311
 834 00d0 12F8015B 		ldrb	r5, [r2], #1	@ zero_extendqisi2
 835              	.L35:
 330:D:/fchai/work/i-cube/I-CUBE-HUAWEI/Middlewares/Third_Party/Huawei/iot_link/network/dtls/mbedtls/mbedtls-2.16.2/library\gcm.c ****         }
 331:D:/fchai/work/i-cube/I-CUBE-HUAWEI/Middlewares/Third_Party/Huawei/iot_link/network/dtls/mbedtls/mbedtls-2.16.2/library\gcm.c **** 
 332:D:/fchai/work/i-cube/I-CUBE-HUAWEI/Middlewares/Third_Party/Huawei/iot_link/network/dtls/mbedtls/mbedtls-2.16.2/library\gcm.c ****         for( i = 0; i < 16; i++ )
 333:D:/fchai/work/i-cube/I-CUBE-HUAWEI/Middlewares/Third_Party/Huawei/iot_link/network/dtls/mbedtls/mbedtls-2.16.2/library\gcm.c ****             ctx->y[i] ^= work_buf[i];
 836              		.loc 1 333 13 is_stmt 1 discriminator 3 view .LVU312
 837              		.loc 1 333 23 is_stmt 0 discriminator 3 view .LVU313
 838 00d4 13F8011F 		ldrb	r1, [r3, #1]!	@ zero_extendqisi2
 332:D:/fchai/work/i-cube/I-CUBE-HUAWEI/Middlewares/Third_Party/Huawei/iot_link/network/dtls/mbedtls/mbedtls-2.16.2/library\gcm.c ****             ctx->y[i] ^= work_buf[i];
 839              		.loc 1 332 9 discriminator 3 view .LVU314
 840 00d8 9042     		cmp	r0, r2
 841              		.loc 1 333 23 discriminator 3 view .LVU315
 842 00da 85EA0105 		eor	r5, r5, r1
 843 00de 1D70     		strb	r5, [r3]
 332:D:/fchai/work/i-cube/I-CUBE-HUAWEI/Middlewares/Third_Party/Huawei/iot_link/network/dtls/mbedtls/mbedtls-2.16.2/library\gcm.c ****             ctx->y[i] ^= work_buf[i];
 844              		.loc 1 332 29 is_stmt 1 discriminator 3 view .LVU316
 332:D:/fchai/work/i-cube/I-CUBE-HUAWEI/Middlewares/Third_Party/Huawei/iot_link/network/dtls/mbedtls/mbedtls-2.16.2/library\gcm.c ****             ctx->y[i] ^= work_buf[i];
 845              		.loc 1 332 21 discriminator 3 view .LVU317
 332:D:/fchai/work/i-cube/I-CUBE-HUAWEI/Middlewares/Third_Party/Huawei/iot_link/network/dtls/mbedtls/mbedtls-2.16.2/library\gcm.c ****             ctx->y[i] ^= work_buf[i];
 846              		.loc 1 332 9 is_stmt 0 discriminator 3 view .LVU318
 847 00e0 F6D1     		bne	.L51
 334:D:/fchai/work/i-cube/I-CUBE-HUAWEI/Middlewares/Third_Party/Huawei/iot_link/network/dtls/mbedtls/mbedtls-2.16.2/library\gcm.c **** 
 335:D:/fchai/work/i-cube/I-CUBE-HUAWEI/Middlewares/Third_Party/Huawei/iot_link/network/dtls/mbedtls/mbedtls-2.16.2/library\gcm.c ****         gcm_mult( ctx, ctx->y, ctx->y );
 848              		.loc 1 335 9 is_stmt 1 view .LVU319
 849 00e2 5A46     		mov	r2, fp
 850 00e4 5946     		mov	r1, fp
 851 00e6 2046     		mov	r0, r4
 852 00e8 FFF7FEFF 		bl	gcm_mult
 853              	.LVL78:
 854              	.L31:
 336:D:/fchai/work/i-cube/I-CUBE-HUAWEI/Middlewares/Third_Party/Huawei/iot_link/network/dtls/mbedtls/mbedtls-2.16.2/library\gcm.c ****     }
 337:D:/fchai/work/i-cube/I-CUBE-HUAWEI/Middlewares/Third_Party/Huawei/iot_link/network/dtls/mbedtls/mbedtls-2.16.2/library\gcm.c **** 
 338:D:/fchai/work/i-cube/I-CUBE-HUAWEI/Middlewares/Third_Party/Huawei/iot_link/network/dtls/mbedtls/mbedtls-2.16.2/library\gcm.c ****     if( ( ret = mbedtls_cipher_update( &ctx->cipher_ctx, ctx->y, 16, ctx->base_ectr,
 855              		.loc 1 338 5 view .LVU320
 856              		.loc 1 338 17 is_stmt 0 view .LVU321
 857 00ec 03AB     		add	r3, sp, #12
 858 00ee 0093     		str	r3, [sp]
 859 00f0 5946     		mov	r1, fp
 860 00f2 04F5A873 		add	r3, r4, #336
 861 00f6 1022     		movs	r2, #16
 862 00f8 2046     		mov	r0, r4
 863 00fa FFF7FEFF 		bl	mbedtls_cipher_update
 864              	.LVL79:
 865              		.loc 1 338 7 view .LVU322
ARM GAS  T:\msys\tmp\ccyunwdQ.s 			page 26


 866 00fe 8146     		mov	r9, r0
 867 0100 E8B9     		cbnz	r0, .L28
 339:D:/fchai/work/i-cube/I-CUBE-HUAWEI/Middlewares/Third_Party/Huawei/iot_link/network/dtls/mbedtls/mbedtls-2.16.2/library\gcm.c ****                              &olen ) ) != 0 )
 340:D:/fchai/work/i-cube/I-CUBE-HUAWEI/Middlewares/Third_Party/Huawei/iot_link/network/dtls/mbedtls/mbedtls-2.16.2/library\gcm.c ****     {
 341:D:/fchai/work/i-cube/I-CUBE-HUAWEI/Middlewares/Third_Party/Huawei/iot_link/network/dtls/mbedtls/mbedtls-2.16.2/library\gcm.c ****         return( ret );
 342:D:/fchai/work/i-cube/I-CUBE-HUAWEI/Middlewares/Third_Party/Huawei/iot_link/network/dtls/mbedtls/mbedtls-2.16.2/library\gcm.c ****     }
 343:D:/fchai/work/i-cube/I-CUBE-HUAWEI/Middlewares/Third_Party/Huawei/iot_link/network/dtls/mbedtls/mbedtls-2.16.2/library\gcm.c **** 
 344:D:/fchai/work/i-cube/I-CUBE-HUAWEI/Middlewares/Third_Party/Huawei/iot_link/network/dtls/mbedtls/mbedtls-2.16.2/library\gcm.c ****     ctx->add_len = add_len;
 868              		.loc 1 344 5 is_stmt 1 view .LVU323
 296:D:/fchai/work/i-cube/I-CUBE-HUAWEI/Middlewares/Third_Party/Huawei/iot_link/network/dtls/mbedtls/mbedtls-2.16.2/library\gcm.c ****     {
 869              		.loc 1 296 9 is_stmt 0 view .LVU324
 870 0102 C4E95260 		strd	r6, r0, [r4, #328]
 345:D:/fchai/work/i-cube/I-CUBE-HUAWEI/Middlewares/Third_Party/Huawei/iot_link/network/dtls/mbedtls/mbedtls-2.16.2/library\gcm.c ****     p = add;
 871              		.loc 1 345 5 is_stmt 1 view .LVU325
 872              	.LVL80:
 346:D:/fchai/work/i-cube/I-CUBE-HUAWEI/Middlewares/Third_Party/Huawei/iot_link/network/dtls/mbedtls/mbedtls-2.16.2/library\gcm.c ****     while( add_len > 0 )
 873              		.loc 1 346 5 view .LVU326
 874              		.loc 1 346 10 view .LVU327
 875 0106 D6B1     		cbz	r6, .L28
 876              	.LVL81:
 877              		.loc 1 346 10 is_stmt 0 view .LVU328
 878 0108 04F26F1A 		addw	r10, r4, #367
 879              	.LVL82:
 880              	.L38:
 347:D:/fchai/work/i-cube/I-CUBE-HUAWEI/Middlewares/Third_Party/Huawei/iot_link/network/dtls/mbedtls/mbedtls-2.16.2/library\gcm.c ****     {
 348:D:/fchai/work/i-cube/I-CUBE-HUAWEI/Middlewares/Third_Party/Huawei/iot_link/network/dtls/mbedtls/mbedtls-2.16.2/library\gcm.c ****         use_len = ( add_len < 16 ) ? add_len : 16;
 881              		.loc 1 348 9 is_stmt 1 view .LVU329
 882              		.loc 1 348 17 is_stmt 0 view .LVU330
 883 010c 102E     		cmp	r6, #16
 884 010e 3546     		mov	r5, r6
 885 0110 28BF     		it	cs
 886 0112 1025     		movcs	r5, #16
 887              	.LVL83:
 349:D:/fchai/work/i-cube/I-CUBE-HUAWEI/Middlewares/Third_Party/Huawei/iot_link/network/dtls/mbedtls/mbedtls-2.16.2/library\gcm.c **** 
 350:D:/fchai/work/i-cube/I-CUBE-HUAWEI/Middlewares/Third_Party/Huawei/iot_link/network/dtls/mbedtls/mbedtls-2.16.2/library\gcm.c ****         for( i = 0; i < use_len; i++ )
 888              		.loc 1 350 9 is_stmt 1 view .LVU331
 889              		.loc 1 350 21 view .LVU332
 890 0114 0AEB050C 		add	ip, r10, r5
 891 0118 5346     		mov	r3, r10
 892 011a 791E     		subs	r1, r7, #1
 893              	.LVL84:
 894              	.L39:
 351:D:/fchai/work/i-cube/I-CUBE-HUAWEI/Middlewares/Third_Party/Huawei/iot_link/network/dtls/mbedtls/mbedtls-2.16.2/library\gcm.c ****             ctx->buf[i] ^= p[i];
 895              		.loc 1 351 13 discriminator 3 view .LVU333
 896              		.loc 1 351 25 is_stmt 0 discriminator 3 view .LVU334
 897 011c 13F8012F 		ldrb	r2, [r3, #1]!	@ zero_extendqisi2
 898 0120 11F8010F 		ldrb	r0, [r1, #1]!	@ zero_extendqisi2
 350:D:/fchai/work/i-cube/I-CUBE-HUAWEI/Middlewares/Third_Party/Huawei/iot_link/network/dtls/mbedtls/mbedtls-2.16.2/library\gcm.c ****             ctx->buf[i] ^= p[i];
 899              		.loc 1 350 9 discriminator 3 view .LVU335
 900 0124 9C45     		cmp	ip, r3
 901              		.loc 1 351 25 discriminator 3 view .LVU336
 902 0126 82EA0002 		eor	r2, r2, r0
 903 012a 1A70     		strb	r2, [r3]
 350:D:/fchai/work/i-cube/I-CUBE-HUAWEI/Middlewares/Third_Party/Huawei/iot_link/network/dtls/mbedtls/mbedtls-2.16.2/library\gcm.c ****             ctx->buf[i] ^= p[i];
 904              		.loc 1 350 34 is_stmt 1 discriminator 3 view .LVU337
 350:D:/fchai/work/i-cube/I-CUBE-HUAWEI/Middlewares/Third_Party/Huawei/iot_link/network/dtls/mbedtls/mbedtls-2.16.2/library\gcm.c ****             ctx->buf[i] ^= p[i];
 905              		.loc 1 350 21 discriminator 3 view .LVU338
ARM GAS  T:\msys\tmp\ccyunwdQ.s 			page 27


 350:D:/fchai/work/i-cube/I-CUBE-HUAWEI/Middlewares/Third_Party/Huawei/iot_link/network/dtls/mbedtls/mbedtls-2.16.2/library\gcm.c ****             ctx->buf[i] ^= p[i];
 906              		.loc 1 350 9 is_stmt 0 discriminator 3 view .LVU339
 907 012c F6D1     		bne	.L39
 352:D:/fchai/work/i-cube/I-CUBE-HUAWEI/Middlewares/Third_Party/Huawei/iot_link/network/dtls/mbedtls/mbedtls-2.16.2/library\gcm.c **** 
 353:D:/fchai/work/i-cube/I-CUBE-HUAWEI/Middlewares/Third_Party/Huawei/iot_link/network/dtls/mbedtls/mbedtls-2.16.2/library\gcm.c ****         gcm_mult( ctx, ctx->buf, ctx->buf );
 908              		.loc 1 353 9 is_stmt 1 view .LVU340
 909 012e 4246     		mov	r2, r8
 910 0130 4146     		mov	r1, r8
 911 0132 2046     		mov	r0, r4
 912 0134 FFF7FEFF 		bl	gcm_mult
 913              	.LVL85:
 354:D:/fchai/work/i-cube/I-CUBE-HUAWEI/Middlewares/Third_Party/Huawei/iot_link/network/dtls/mbedtls/mbedtls-2.16.2/library\gcm.c **** 
 355:D:/fchai/work/i-cube/I-CUBE-HUAWEI/Middlewares/Third_Party/Huawei/iot_link/network/dtls/mbedtls/mbedtls-2.16.2/library\gcm.c ****         add_len -= use_len;
 914              		.loc 1 355 9 view .LVU341
 356:D:/fchai/work/i-cube/I-CUBE-HUAWEI/Middlewares/Third_Party/Huawei/iot_link/network/dtls/mbedtls/mbedtls-2.16.2/library\gcm.c ****         p += use_len;
 915              		.loc 1 356 9 view .LVU342
 346:D:/fchai/work/i-cube/I-CUBE-HUAWEI/Middlewares/Third_Party/Huawei/iot_link/network/dtls/mbedtls/mbedtls-2.16.2/library\gcm.c ****     {
 916              		.loc 1 346 10 is_stmt 0 view .LVU343
 917 0138 761B     		subs	r6, r6, r5
 918              	.LVL86:
 919              		.loc 1 356 11 view .LVU344
 920 013a 2F44     		add	r7, r7, r5
 921              	.LVL87:
 346:D:/fchai/work/i-cube/I-CUBE-HUAWEI/Middlewares/Third_Party/Huawei/iot_link/network/dtls/mbedtls/mbedtls-2.16.2/library\gcm.c ****     {
 922              		.loc 1 346 10 is_stmt 1 view .LVU345
 923 013c E6D1     		bne	.L38
 924              	.LVL88:
 925              	.L28:
 357:D:/fchai/work/i-cube/I-CUBE-HUAWEI/Middlewares/Third_Party/Huawei/iot_link/network/dtls/mbedtls/mbedtls-2.16.2/library\gcm.c ****     }
 358:D:/fchai/work/i-cube/I-CUBE-HUAWEI/Middlewares/Third_Party/Huawei/iot_link/network/dtls/mbedtls/mbedtls-2.16.2/library\gcm.c **** 
 359:D:/fchai/work/i-cube/I-CUBE-HUAWEI/Middlewares/Third_Party/Huawei/iot_link/network/dtls/mbedtls/mbedtls-2.16.2/library\gcm.c ****     return( 0 );
 360:D:/fchai/work/i-cube/I-CUBE-HUAWEI/Middlewares/Third_Party/Huawei/iot_link/network/dtls/mbedtls/mbedtls-2.16.2/library\gcm.c **** }
 926              		.loc 1 360 1 is_stmt 0 view .LVU346
 927 013e 4846     		mov	r0, r9
 928 0140 09B0     		add	sp, sp, #36
 929              	.LCFI11:
 930              		.cfi_remember_state
 931              		.cfi_def_cfa_offset 36
 932              		@ sp needed
 933 0142 BDE8F08F 		pop	{r4, r5, r6, r7, r8, r9, r10, fp, pc}
 934              	.LVL89:
 935              	.L48:
 936              	.LCFI12:
 937              		.cfi_restore_state
 310:D:/fchai/work/i-cube/I-CUBE-HUAWEI/Middlewares/Third_Party/Huawei/iot_link/network/dtls/mbedtls/mbedtls-2.16.2/library\gcm.c ****         ctx->y[15] = 1;
 938              		.loc 1 310 9 is_stmt 1 view .LVU347
 939 0146 1368     		ldr	r3, [r2]	@ unaligned
 940              	.LVL90:
 310:D:/fchai/work/i-cube/I-CUBE-HUAWEI/Middlewares/Third_Party/Huawei/iot_link/network/dtls/mbedtls/mbedtls-2.16.2/library\gcm.c ****         ctx->y[15] = 1;
 941              		.loc 1 310 9 is_stmt 0 view .LVU348
 942 0148 5168     		ldr	r1, [r2, #4]	@ unaligned
 943              	.LVL91:
 310:D:/fchai/work/i-cube/I-CUBE-HUAWEI/Middlewares/Third_Party/Huawei/iot_link/network/dtls/mbedtls/mbedtls-2.16.2/library\gcm.c ****         ctx->y[15] = 1;
 944              		.loc 1 310 9 view .LVU349
 945 014a 9268     		ldr	r2, [r2, #8]	@ unaligned
 946              	.LVL92:
 310:D:/fchai/work/i-cube/I-CUBE-HUAWEI/Middlewares/Third_Party/Huawei/iot_link/network/dtls/mbedtls/mbedtls-2.16.2/library\gcm.c ****         ctx->y[15] = 1;
ARM GAS  T:\msys\tmp\ccyunwdQ.s 			page 28


 947              		.loc 1 310 9 view .LVU350
 948 014c C0F86031 		str	r3, [r0, #352]	@ unaligned
 311:D:/fchai/work/i-cube/I-CUBE-HUAWEI/Middlewares/Third_Party/Huawei/iot_link/network/dtls/mbedtls/mbedtls-2.16.2/library\gcm.c ****     }
 949              		.loc 1 311 20 view .LVU351
 950 0150 0123     		movs	r3, #1
 310:D:/fchai/work/i-cube/I-CUBE-HUAWEI/Middlewares/Third_Party/Huawei/iot_link/network/dtls/mbedtls/mbedtls-2.16.2/library\gcm.c ****         ctx->y[15] = 1;
 951              		.loc 1 310 9 view .LVU352
 952 0152 CBF80410 		str	r1, [fp, #4]	@ unaligned
 953 0156 CBF80820 		str	r2, [fp, #8]	@ unaligned
 311:D:/fchai/work/i-cube/I-CUBE-HUAWEI/Middlewares/Third_Party/Huawei/iot_link/network/dtls/mbedtls/mbedtls-2.16.2/library\gcm.c ****     }
 954              		.loc 1 311 9 is_stmt 1 view .LVU353
 311:D:/fchai/work/i-cube/I-CUBE-HUAWEI/Middlewares/Third_Party/Huawei/iot_link/network/dtls/mbedtls/mbedtls-2.16.2/library\gcm.c ****     }
 955              		.loc 1 311 20 is_stmt 0 view .LVU354
 956 015a 80F86F31 		strb	r3, [r0, #367]
 957 015e C5E7     		b	.L31
 958              	.LVL93:
 959              	.L41:
 298:D:/fchai/work/i-cube/I-CUBE-HUAWEI/Middlewares/Third_Party/Huawei/iot_link/network/dtls/mbedtls/mbedtls-2.16.2/library\gcm.c ****     }
 960              		.loc 1 298 15 view .LVU355
 961 0160 6FF01309 		mvn	r9, #19
 962 0164 EBE7     		b	.L28
 963              		.cfi_endproc
 964              	.LFE11:
 966 0166 00BF     		.section	.text.mbedtls_gcm_update,"ax",%progbits
 967              		.align	1
 968              		.p2align 2,,3
 969              		.global	mbedtls_gcm_update
 970              		.syntax unified
 971              		.thumb
 972              		.thumb_func
 973              		.fpu fpv4-sp-d16
 975              	mbedtls_gcm_update:
 976              	.LVL94:
 977              	.LFB12:
 361:D:/fchai/work/i-cube/I-CUBE-HUAWEI/Middlewares/Third_Party/Huawei/iot_link/network/dtls/mbedtls/mbedtls-2.16.2/library\gcm.c **** 
 362:D:/fchai/work/i-cube/I-CUBE-HUAWEI/Middlewares/Third_Party/Huawei/iot_link/network/dtls/mbedtls/mbedtls-2.16.2/library\gcm.c **** int mbedtls_gcm_update( mbedtls_gcm_context *ctx,
 363:D:/fchai/work/i-cube/I-CUBE-HUAWEI/Middlewares/Third_Party/Huawei/iot_link/network/dtls/mbedtls/mbedtls-2.16.2/library\gcm.c ****                 size_t length,
 364:D:/fchai/work/i-cube/I-CUBE-HUAWEI/Middlewares/Third_Party/Huawei/iot_link/network/dtls/mbedtls/mbedtls-2.16.2/library\gcm.c ****                 const unsigned char *input,
 365:D:/fchai/work/i-cube/I-CUBE-HUAWEI/Middlewares/Third_Party/Huawei/iot_link/network/dtls/mbedtls/mbedtls-2.16.2/library\gcm.c ****                 unsigned char *output )
 366:D:/fchai/work/i-cube/I-CUBE-HUAWEI/Middlewares/Third_Party/Huawei/iot_link/network/dtls/mbedtls/mbedtls-2.16.2/library\gcm.c **** {
 978              		.loc 1 366 1 is_stmt 1 view -0
 979              		.cfi_startproc
 980              		@ args = 0, pretend = 0, frame = 32
 981              		@ frame_needed = 0, uses_anonymous_args = 0
 367:D:/fchai/work/i-cube/I-CUBE-HUAWEI/Middlewares/Third_Party/Huawei/iot_link/network/dtls/mbedtls/mbedtls-2.16.2/library\gcm.c ****     int ret;
 982              		.loc 1 367 5 view .LVU357
 368:D:/fchai/work/i-cube/I-CUBE-HUAWEI/Middlewares/Third_Party/Huawei/iot_link/network/dtls/mbedtls/mbedtls-2.16.2/library\gcm.c ****     unsigned char ectr[16];
 983              		.loc 1 368 5 view .LVU358
 369:D:/fchai/work/i-cube/I-CUBE-HUAWEI/Middlewares/Third_Party/Huawei/iot_link/network/dtls/mbedtls/mbedtls-2.16.2/library\gcm.c ****     size_t i;
 984              		.loc 1 369 5 view .LVU359
 370:D:/fchai/work/i-cube/I-CUBE-HUAWEI/Middlewares/Third_Party/Huawei/iot_link/network/dtls/mbedtls/mbedtls-2.16.2/library\gcm.c ****     const unsigned char *p;
 985              		.loc 1 370 5 view .LVU360
 371:D:/fchai/work/i-cube/I-CUBE-HUAWEI/Middlewares/Third_Party/Huawei/iot_link/network/dtls/mbedtls/mbedtls-2.16.2/library\gcm.c ****     unsigned char *out_p = output;
 986              		.loc 1 371 5 view .LVU361
 366:D:/fchai/work/i-cube/I-CUBE-HUAWEI/Middlewares/Third_Party/Huawei/iot_link/network/dtls/mbedtls/mbedtls-2.16.2/library\gcm.c ****     int ret;
 987              		.loc 1 366 1 is_stmt 0 view .LVU362
 988 0000 2DE9F04F 		push	{r4, r5, r6, r7, r8, r9, r10, fp, lr}
ARM GAS  T:\msys\tmp\ccyunwdQ.s 			page 29


 989              	.LCFI13:
 990              		.cfi_def_cfa_offset 36
 991              		.cfi_offset 4, -36
 992              		.cfi_offset 5, -32
 993              		.cfi_offset 6, -28
 994              		.cfi_offset 7, -24
 995              		.cfi_offset 8, -20
 996              		.cfi_offset 9, -16
 997              		.cfi_offset 10, -12
 998              		.cfi_offset 11, -8
 999              		.cfi_offset 14, -4
 1000 0004 2DED028B 		vpush.64	{d8}
 1001              	.LCFI14:
 1002              		.cfi_def_cfa_offset 44
 1003              		.cfi_offset 80, -44
 1004              		.cfi_offset 81, -40
 1005 0008 9846     		mov	r8, r3
 1006              	.LVL95:
 372:D:/fchai/work/i-cube/I-CUBE-HUAWEI/Middlewares/Third_Party/Huawei/iot_link/network/dtls/mbedtls/mbedtls-2.16.2/library\gcm.c ****     size_t use_len, olen = 0;
 1007              		.loc 1 372 5 is_stmt 1 view .LVU363
 366:D:/fchai/work/i-cube/I-CUBE-HUAWEI/Middlewares/Third_Party/Huawei/iot_link/network/dtls/mbedtls/mbedtls-2.16.2/library\gcm.c ****     int ret;
 1008              		.loc 1 366 1 is_stmt 0 view .LVU364
 1009 000a 8BB0     		sub	sp, sp, #44
 1010              	.LCFI15:
 1011              		.cfi_def_cfa_offset 88
 1012              		.loc 1 372 21 view .LVU365
 1013 000c 0023     		movs	r3, #0
 1014              	.LVL96:
 373:D:/fchai/work/i-cube/I-CUBE-HUAWEI/Middlewares/Third_Party/Huawei/iot_link/network/dtls/mbedtls/mbedtls-2.16.2/library\gcm.c **** 
 374:D:/fchai/work/i-cube/I-CUBE-HUAWEI/Middlewares/Third_Party/Huawei/iot_link/network/dtls/mbedtls/mbedtls-2.16.2/library\gcm.c ****     GCM_VALIDATE_RET( ctx != NULL );
 375:D:/fchai/work/i-cube/I-CUBE-HUAWEI/Middlewares/Third_Party/Huawei/iot_link/network/dtls/mbedtls/mbedtls-2.16.2/library\gcm.c ****     GCM_VALIDATE_RET( length == 0 || input != NULL );
 376:D:/fchai/work/i-cube/I-CUBE-HUAWEI/Middlewares/Third_Party/Huawei/iot_link/network/dtls/mbedtls/mbedtls-2.16.2/library\gcm.c ****     GCM_VALIDATE_RET( length == 0 || output != NULL );
 377:D:/fchai/work/i-cube/I-CUBE-HUAWEI/Middlewares/Third_Party/Huawei/iot_link/network/dtls/mbedtls/mbedtls-2.16.2/library\gcm.c **** 
 378:D:/fchai/work/i-cube/I-CUBE-HUAWEI/Middlewares/Third_Party/Huawei/iot_link/network/dtls/mbedtls/mbedtls-2.16.2/library\gcm.c ****     if( output > input && (size_t) ( output - input ) < length )
 1015              		.loc 1 378 7 view .LVU366
 1016 000e 9045     		cmp	r8, r2
 366:D:/fchai/work/i-cube/I-CUBE-HUAWEI/Middlewares/Third_Party/Huawei/iot_link/network/dtls/mbedtls/mbedtls-2.16.2/library\gcm.c ****     int ret;
 1017              		.loc 1 366 1 view .LVU367
 1018 0010 0292     		str	r2, [sp, #8]
 1019 0012 0446     		mov	r4, r0
 1020 0014 0D46     		mov	r5, r1
 372:D:/fchai/work/i-cube/I-CUBE-HUAWEI/Middlewares/Third_Party/Huawei/iot_link/network/dtls/mbedtls/mbedtls-2.16.2/library\gcm.c ****     size_t use_len, olen = 0;
 1021              		.loc 1 372 21 view .LVU368
 1022 0016 0593     		str	r3, [sp, #20]
 374:D:/fchai/work/i-cube/I-CUBE-HUAWEI/Middlewares/Third_Party/Huawei/iot_link/network/dtls/mbedtls/mbedtls-2.16.2/library\gcm.c ****     GCM_VALIDATE_RET( length == 0 || input != NULL );
 1023              		.loc 1 374 5 is_stmt 1 view .LVU369
 374:D:/fchai/work/i-cube/I-CUBE-HUAWEI/Middlewares/Third_Party/Huawei/iot_link/network/dtls/mbedtls/mbedtls-2.16.2/library\gcm.c ****     GCM_VALIDATE_RET( length == 0 || input != NULL );
 1024              		.loc 1 374 5 view .LVU370
 374:D:/fchai/work/i-cube/I-CUBE-HUAWEI/Middlewares/Third_Party/Huawei/iot_link/network/dtls/mbedtls/mbedtls-2.16.2/library\gcm.c ****     GCM_VALIDATE_RET( length == 0 || input != NULL );
 1025              		.loc 1 374 5 view .LVU371
 375:D:/fchai/work/i-cube/I-CUBE-HUAWEI/Middlewares/Third_Party/Huawei/iot_link/network/dtls/mbedtls/mbedtls-2.16.2/library\gcm.c ****     GCM_VALIDATE_RET( length == 0 || output != NULL );
 1026              		.loc 1 375 5 view .LVU372
 375:D:/fchai/work/i-cube/I-CUBE-HUAWEI/Middlewares/Third_Party/Huawei/iot_link/network/dtls/mbedtls/mbedtls-2.16.2/library\gcm.c ****     GCM_VALIDATE_RET( length == 0 || output != NULL );
 1027              		.loc 1 375 5 view .LVU373
 375:D:/fchai/work/i-cube/I-CUBE-HUAWEI/Middlewares/Third_Party/Huawei/iot_link/network/dtls/mbedtls/mbedtls-2.16.2/library\gcm.c ****     GCM_VALIDATE_RET( length == 0 || output != NULL );
 1028              		.loc 1 375 5 view .LVU374
 376:D:/fchai/work/i-cube/I-CUBE-HUAWEI/Middlewares/Third_Party/Huawei/iot_link/network/dtls/mbedtls/mbedtls-2.16.2/library\gcm.c **** 
ARM GAS  T:\msys\tmp\ccyunwdQ.s 			page 30


 1029              		.loc 1 376 5 view .LVU375
 376:D:/fchai/work/i-cube/I-CUBE-HUAWEI/Middlewares/Third_Party/Huawei/iot_link/network/dtls/mbedtls/mbedtls-2.16.2/library\gcm.c **** 
 1030              		.loc 1 376 5 view .LVU376
 376:D:/fchai/work/i-cube/I-CUBE-HUAWEI/Middlewares/Third_Party/Huawei/iot_link/network/dtls/mbedtls/mbedtls-2.16.2/library\gcm.c **** 
 1031              		.loc 1 376 5 view .LVU377
 1032              		.loc 1 378 5 view .LVU378
 1033              		.loc 1 378 7 is_stmt 0 view .LVU379
 1034 0018 03D9     		bls	.L53
 1035              		.loc 1 378 45 discriminator 1 view .LVU380
 1036 001a A8EB0203 		sub	r3, r8, r2
 1037              		.loc 1 378 24 discriminator 1 view .LVU381
 1038 001e 8B42     		cmp	r3, r1
 1039 0020 71D3     		bcc	.L68
 1040              	.L53:
 379:D:/fchai/work/i-cube/I-CUBE-HUAWEI/Middlewares/Third_Party/Huawei/iot_link/network/dtls/mbedtls/mbedtls-2.16.2/library\gcm.c ****         return( MBEDTLS_ERR_GCM_BAD_INPUT );
 380:D:/fchai/work/i-cube/I-CUBE-HUAWEI/Middlewares/Third_Party/Huawei/iot_link/network/dtls/mbedtls/mbedtls-2.16.2/library\gcm.c **** 
 381:D:/fchai/work/i-cube/I-CUBE-HUAWEI/Middlewares/Third_Party/Huawei/iot_link/network/dtls/mbedtls/mbedtls-2.16.2/library\gcm.c ****     /* Total length is restricted to 2^39 - 256 bits, ie 2^36 - 2^5 bytes
 382:D:/fchai/work/i-cube/I-CUBE-HUAWEI/Middlewares/Third_Party/Huawei/iot_link/network/dtls/mbedtls/mbedtls-2.16.2/library\gcm.c ****      * Also check for possible overflow */
 383:D:/fchai/work/i-cube/I-CUBE-HUAWEI/Middlewares/Third_Party/Huawei/iot_link/network/dtls/mbedtls/mbedtls-2.16.2/library\gcm.c ****     if( ctx->len + length < ctx->len ||
 1041              		.loc 1 383 5 is_stmt 1 view .LVU382
 1042 0022 D4E950AB 		ldrd	r10, [r4, #320]
 1043 0026 0023     		movs	r3, #0
 1044 0028 1AEB0500 		adds	r0, r10, r5
 1045              	.LVL97:
 1046              		.loc 1 383 5 is_stmt 0 view .LVU383
 1047 002c 5BEB0301 		adcs	r1, fp, r3
 1048              	.LVL98:
 1049              		.loc 1 383 5 view .LVU384
 1050 0030 4FF00006 		mov	r6, #0
 1051 0034 4FF00007 		mov	r7, #0
 1052 0038 24BF     		itt	cs
 1053 003a 0126     		movcs	r6, #1
 1054 003c 0027     		movcs	r7, #0
 1055              		.loc 1 383 7 view .LVU385
 1056 003e 56EA0703 		orrs	r3, r6, r7
 1057 0042 60D1     		bne	.L68
 1058              		.loc 1 383 38 discriminator 1 view .LVU386
 1059 0044 0F23     		movs	r3, #15
 1060 0046 6FF01F02 		mvn	r2, #31
 1061              	.LVL99:
 1062              		.loc 1 383 38 discriminator 1 view .LVU387
 1063 004a 8B42     		cmp	r3, r1
 1064 004c 08BF     		it	eq
 1065 004e 8242     		cmpeq	r2, r0
 1066 0050 59D3     		bcc	.L68
 384:D:/fchai/work/i-cube/I-CUBE-HUAWEI/Middlewares/Third_Party/Huawei/iot_link/network/dtls/mbedtls/mbedtls-2.16.2/library\gcm.c ****         (uint64_t) ctx->len + length > 0xFFFFFFFE0ull )
 385:D:/fchai/work/i-cube/I-CUBE-HUAWEI/Middlewares/Third_Party/Huawei/iot_link/network/dtls/mbedtls/mbedtls-2.16.2/library\gcm.c ****     {
 386:D:/fchai/work/i-cube/I-CUBE-HUAWEI/Middlewares/Third_Party/Huawei/iot_link/network/dtls/mbedtls/mbedtls-2.16.2/library\gcm.c ****         return( MBEDTLS_ERR_GCM_BAD_INPUT );
 387:D:/fchai/work/i-cube/I-CUBE-HUAWEI/Middlewares/Third_Party/Huawei/iot_link/network/dtls/mbedtls/mbedtls-2.16.2/library\gcm.c ****     }
 388:D:/fchai/work/i-cube/I-CUBE-HUAWEI/Middlewares/Third_Party/Huawei/iot_link/network/dtls/mbedtls/mbedtls-2.16.2/library\gcm.c **** 
 389:D:/fchai/work/i-cube/I-CUBE-HUAWEI/Middlewares/Third_Party/Huawei/iot_link/network/dtls/mbedtls/mbedtls-2.16.2/library\gcm.c ****     ctx->len += length;
 1067              		.loc 1 389 5 is_stmt 1 view .LVU388
 1068              		.loc 1 389 14 is_stmt 0 view .LVU389
 1069 0052 C4E95001 		strd	r0, [r4, #320]
 390:D:/fchai/work/i-cube/I-CUBE-HUAWEI/Middlewares/Third_Party/Huawei/iot_link/network/dtls/mbedtls/mbedtls-2.16.2/library\gcm.c **** 
 391:D:/fchai/work/i-cube/I-CUBE-HUAWEI/Middlewares/Third_Party/Huawei/iot_link/network/dtls/mbedtls/mbedtls-2.16.2/library\gcm.c ****     p = input;
 1070              		.loc 1 391 5 is_stmt 1 view .LVU390
ARM GAS  T:\msys\tmp\ccyunwdQ.s 			page 31


 1071              	.LVL100:
 392:D:/fchai/work/i-cube/I-CUBE-HUAWEI/Middlewares/Third_Party/Huawei/iot_link/network/dtls/mbedtls/mbedtls-2.16.2/library\gcm.c ****     while( length > 0 )
 1072              		.loc 1 392 5 view .LVU391
 1073              		.loc 1 392 10 view .LVU392
 1074 0056 002D     		cmp	r5, #0
 1075 0058 4FD0     		beq	.L65
 1076 005a 04F5B073 		add	r3, r4, #352
 1077 005e 08EE103A 		vmov	s16, r3	@ int
 1078 0062 04F26F13 		addw	r3, r4, #367
 1079 0066 0393     		str	r3, [sp, #12]
 1080 0068 04F26B19 		addw	r9, r4, #363
 1081 006c 04F5B877 		add	r7, r4, #368
 1082              	.LVL101:
 1083              	.L64:
 393:D:/fchai/work/i-cube/I-CUBE-HUAWEI/Middlewares/Third_Party/Huawei/iot_link/network/dtls/mbedtls/mbedtls-2.16.2/library\gcm.c ****     {
 394:D:/fchai/work/i-cube/I-CUBE-HUAWEI/Middlewares/Third_Party/Huawei/iot_link/network/dtls/mbedtls/mbedtls-2.16.2/library\gcm.c ****         use_len = ( length < 16 ) ? length : 16;
 1084              		.loc 1 394 9 view .LVU393
 1085              		.loc 1 394 17 is_stmt 0 view .LVU394
 1086 0070 102D     		cmp	r5, #16
 1087 0072 039A     		ldr	r2, [sp, #12]
 1088 0074 2E46     		mov	r6, r5
 1089 0076 28BF     		it	cs
 1090 0078 1026     		movcs	r6, #16
 1091              	.LVL102:
 395:D:/fchai/work/i-cube/I-CUBE-HUAWEI/Middlewares/Third_Party/Huawei/iot_link/network/dtls/mbedtls/mbedtls-2.16.2/library\gcm.c **** 
 396:D:/fchai/work/i-cube/I-CUBE-HUAWEI/Middlewares/Third_Party/Huawei/iot_link/network/dtls/mbedtls/mbedtls-2.16.2/library\gcm.c ****         for( i = 16; i > 12; i-- )
 1092              		.loc 1 396 9 is_stmt 1 view .LVU395
 1093              		.loc 1 396 22 view .LVU396
 1094              	.L59:
 397:D:/fchai/work/i-cube/I-CUBE-HUAWEI/Middlewares/Third_Party/Huawei/iot_link/network/dtls/mbedtls/mbedtls-2.16.2/library\gcm.c ****             if( ++ctx->y[i - 1] != 0 )
 1095              		.loc 1 397 13 view .LVU397
 396:D:/fchai/work/i-cube/I-CUBE-HUAWEI/Middlewares/Third_Party/Huawei/iot_link/network/dtls/mbedtls/mbedtls-2.16.2/library\gcm.c ****             if( ++ctx->y[i - 1] != 0 )
 1096              		.loc 1 396 22 view .LVU398
 1097              		.loc 1 397 25 is_stmt 0 view .LVU399
 1098 007a 1378     		ldrb	r3, [r2]	@ zero_extendqisi2
 1099              		.loc 1 397 17 view .LVU400
 1100 007c 0133     		adds	r3, r3, #1
 1101 007e DBB2     		uxtb	r3, r3
 1102              		.loc 1 397 15 view .LVU401
 1103 0080 02F80139 		strb	r3, [r2], #-1
 1104 0084 0BB9     		cbnz	r3, .L58
 396:D:/fchai/work/i-cube/I-CUBE-HUAWEI/Middlewares/Third_Party/Huawei/iot_link/network/dtls/mbedtls/mbedtls-2.16.2/library\gcm.c ****             if( ++ctx->y[i - 1] != 0 )
 1105              		.loc 1 396 9 discriminator 1 view .LVU402
 1106 0086 4A45     		cmp	r2, r9
 1107 0088 F7D1     		bne	.L59
 1108              	.L58:
 398:D:/fchai/work/i-cube/I-CUBE-HUAWEI/Middlewares/Third_Party/Huawei/iot_link/network/dtls/mbedtls/mbedtls-2.16.2/library\gcm.c ****                 break;
 399:D:/fchai/work/i-cube/I-CUBE-HUAWEI/Middlewares/Third_Party/Huawei/iot_link/network/dtls/mbedtls/mbedtls-2.16.2/library\gcm.c **** 
 400:D:/fchai/work/i-cube/I-CUBE-HUAWEI/Middlewares/Third_Party/Huawei/iot_link/network/dtls/mbedtls/mbedtls-2.16.2/library\gcm.c ****         if( ( ret = mbedtls_cipher_update( &ctx->cipher_ctx, ctx->y, 16, ectr,
 1109              		.loc 1 400 9 is_stmt 1 view .LVU403
 1110              		.loc 1 400 21 is_stmt 0 view .LVU404
 1111 008a 05AB     		add	r3, sp, #20
 1112 008c 0093     		str	r3, [sp]
 1113 008e 18EE101A 		vmov	r1, s16	@ int
 1114 0092 06AB     		add	r3, sp, #24
 1115 0094 1022     		movs	r2, #16
 1116 0096 2046     		mov	r0, r4
ARM GAS  T:\msys\tmp\ccyunwdQ.s 			page 32


 1117 0098 FFF7FEFF 		bl	mbedtls_cipher_update
 1118              	.LVL103:
 1119              		.loc 1 400 11 view .LVU405
 1120 009c 70BB     		cbnz	r0, .L52
 1121 009e D4F88001 		ldr	r0, [r4, #384]
 1122              	.LVL104:
 1123              		.loc 1 400 11 view .LVU406
 1124 00a2 0299     		ldr	r1, [sp, #8]
 1125 00a4 3A46     		mov	r2, r7
 1126 00a6 0DF1180E 		add	lr, sp, #24
 1127 00aa 08F1FF3C 		add	ip, r8, #-1
 1128 00ae 07EB060A 		add	r10, r7, r6
 1129              	.L63:
 401:D:/fchai/work/i-cube/I-CUBE-HUAWEI/Middlewares/Third_Party/Huawei/iot_link/network/dtls/mbedtls/mbedtls-2.16.2/library\gcm.c ****                                    &olen ) ) != 0 )
 402:D:/fchai/work/i-cube/I-CUBE-HUAWEI/Middlewares/Third_Party/Huawei/iot_link/network/dtls/mbedtls/mbedtls-2.16.2/library\gcm.c ****         {
 403:D:/fchai/work/i-cube/I-CUBE-HUAWEI/Middlewares/Third_Party/Huawei/iot_link/network/dtls/mbedtls/mbedtls-2.16.2/library\gcm.c ****             return( ret );
 404:D:/fchai/work/i-cube/I-CUBE-HUAWEI/Middlewares/Third_Party/Huawei/iot_link/network/dtls/mbedtls/mbedtls-2.16.2/library\gcm.c ****         }
 405:D:/fchai/work/i-cube/I-CUBE-HUAWEI/Middlewares/Third_Party/Huawei/iot_link/network/dtls/mbedtls/mbedtls-2.16.2/library\gcm.c **** 
 406:D:/fchai/work/i-cube/I-CUBE-HUAWEI/Middlewares/Third_Party/Huawei/iot_link/network/dtls/mbedtls/mbedtls-2.16.2/library\gcm.c ****         for( i = 0; i < use_len; i++ )
 407:D:/fchai/work/i-cube/I-CUBE-HUAWEI/Middlewares/Third_Party/Huawei/iot_link/network/dtls/mbedtls/mbedtls-2.16.2/library\gcm.c ****         {
 408:D:/fchai/work/i-cube/I-CUBE-HUAWEI/Middlewares/Third_Party/Huawei/iot_link/network/dtls/mbedtls/mbedtls-2.16.2/library\gcm.c ****             if( ctx->mode == MBEDTLS_GCM_DECRYPT )
 1130              		.loc 1 408 13 is_stmt 1 view .LVU407
 409:D:/fchai/work/i-cube/I-CUBE-HUAWEI/Middlewares/Third_Party/Huawei/iot_link/network/dtls/mbedtls/mbedtls-2.16.2/library\gcm.c ****                 ctx->buf[i] ^= p[i];
 1131              		.loc 1 409 17 view .LVU408
 410:D:/fchai/work/i-cube/I-CUBE-HUAWEI/Middlewares/Third_Party/Huawei/iot_link/network/dtls/mbedtls/mbedtls-2.16.2/library\gcm.c ****             out_p[i] = ectr[i] ^ p[i];
 1132              		.loc 1 410 13 view .LVU409
 406:D:/fchai/work/i-cube/I-CUBE-HUAWEI/Middlewares/Third_Party/Huawei/iot_link/network/dtls/mbedtls/mbedtls-2.16.2/library\gcm.c ****         {
 1133              		.loc 1 406 34 view .LVU410
 406:D:/fchai/work/i-cube/I-CUBE-HUAWEI/Middlewares/Third_Party/Huawei/iot_link/network/dtls/mbedtls/mbedtls-2.16.2/library\gcm.c ****         {
 1134              		.loc 1 406 21 view .LVU411
 408:D:/fchai/work/i-cube/I-CUBE-HUAWEI/Middlewares/Third_Party/Huawei/iot_link/network/dtls/mbedtls/mbedtls-2.16.2/library\gcm.c ****                 ctx->buf[i] ^= p[i];
 1135              		.loc 1 408 15 is_stmt 0 view .LVU412
 1136 00b2 18B9     		cbnz	r0, .L61
 409:D:/fchai/work/i-cube/I-CUBE-HUAWEI/Middlewares/Third_Party/Huawei/iot_link/network/dtls/mbedtls/mbedtls-2.16.2/library\gcm.c ****             out_p[i] = ectr[i] ^ p[i];
 1137              		.loc 1 409 29 view .LVU413
 1138 00b4 1378     		ldrb	r3, [r2]	@ zero_extendqisi2
 1139 00b6 0878     		ldrb	r0, [r1]	@ zero_extendqisi2
 1140 00b8 4340     		eors	r3, r3, r0
 1141 00ba 1370     		strb	r3, [r2]
 1142              	.L61:
 1143              		.loc 1 410 22 view .LVU414
 1144 00bc 0878     		ldrb	r0, [r1]	@ zero_extendqisi2
 1145              		.loc 1 410 28 view .LVU415
 1146 00be 1EF8013B 		ldrb	r3, [lr], #1	@ zero_extendqisi2
 1147              		.loc 1 410 22 view .LVU416
 1148 00c2 4340     		eors	r3, r3, r0
 1149 00c4 0CF8013F 		strb	r3, [ip, #1]!
 411:D:/fchai/work/i-cube/I-CUBE-HUAWEI/Middlewares/Third_Party/Huawei/iot_link/network/dtls/mbedtls/mbedtls-2.16.2/library\gcm.c ****             if( ctx->mode == MBEDTLS_GCM_ENCRYPT )
 1150              		.loc 1 411 13 is_stmt 1 view .LVU417
 1151              		.loc 1 411 20 is_stmt 0 view .LVU418
 1152 00c8 D4F88001 		ldr	r0, [r4, #384]
 1153              		.loc 1 411 15 view .LVU419
 1154 00cc 0128     		cmp	r0, #1
 1155 00ce 01F10101 		add	r1, r1, #1
 1156 00d2 04D1     		bne	.L62
 412:D:/fchai/work/i-cube/I-CUBE-HUAWEI/Middlewares/Third_Party/Huawei/iot_link/network/dtls/mbedtls/mbedtls-2.16.2/library\gcm.c ****                 ctx->buf[i] ^= out_p[i];
 1157              		.loc 1 412 17 is_stmt 1 view .LVU420
ARM GAS  T:\msys\tmp\ccyunwdQ.s 			page 33


 1158              		.loc 1 412 29 is_stmt 0 view .LVU421
 1159 00d4 92F800B0 		ldrb	fp, [r2]	@ zero_extendqisi2
 1160 00d8 83EA0B03 		eor	r3, r3, fp
 1161 00dc 1370     		strb	r3, [r2]
 1162              	.L62:
 1163 00de 0132     		adds	r2, r2, #1
 406:D:/fchai/work/i-cube/I-CUBE-HUAWEI/Middlewares/Third_Party/Huawei/iot_link/network/dtls/mbedtls/mbedtls-2.16.2/library\gcm.c ****         {
 1164              		.loc 1 406 9 discriminator 2 view .LVU422
 1165 00e0 5245     		cmp	r2, r10
 1166 00e2 E6D1     		bne	.L63
 413:D:/fchai/work/i-cube/I-CUBE-HUAWEI/Middlewares/Third_Party/Huawei/iot_link/network/dtls/mbedtls/mbedtls-2.16.2/library\gcm.c ****         }
 414:D:/fchai/work/i-cube/I-CUBE-HUAWEI/Middlewares/Third_Party/Huawei/iot_link/network/dtls/mbedtls/mbedtls-2.16.2/library\gcm.c **** 
 415:D:/fchai/work/i-cube/I-CUBE-HUAWEI/Middlewares/Third_Party/Huawei/iot_link/network/dtls/mbedtls/mbedtls-2.16.2/library\gcm.c ****         gcm_mult( ctx, ctx->buf, ctx->buf );
 1167              		.loc 1 415 9 is_stmt 1 view .LVU423
 416:D:/fchai/work/i-cube/I-CUBE-HUAWEI/Middlewares/Third_Party/Huawei/iot_link/network/dtls/mbedtls/mbedtls-2.16.2/library\gcm.c **** 
 417:D:/fchai/work/i-cube/I-CUBE-HUAWEI/Middlewares/Third_Party/Huawei/iot_link/network/dtls/mbedtls/mbedtls-2.16.2/library\gcm.c ****         length -= use_len;
 418:D:/fchai/work/i-cube/I-CUBE-HUAWEI/Middlewares/Third_Party/Huawei/iot_link/network/dtls/mbedtls/mbedtls-2.16.2/library\gcm.c ****         p += use_len;
 1168              		.loc 1 418 11 is_stmt 0 view .LVU424
 1169 00e4 029B     		ldr	r3, [sp, #8]
 415:D:/fchai/work/i-cube/I-CUBE-HUAWEI/Middlewares/Third_Party/Huawei/iot_link/network/dtls/mbedtls/mbedtls-2.16.2/library\gcm.c **** 
 1170              		.loc 1 415 9 view .LVU425
 1171 00e6 3A46     		mov	r2, r7
 1172              		.loc 1 418 11 view .LVU426
 1173 00e8 3344     		add	r3, r3, r6
 415:D:/fchai/work/i-cube/I-CUBE-HUAWEI/Middlewares/Third_Party/Huawei/iot_link/network/dtls/mbedtls/mbedtls-2.16.2/library\gcm.c **** 
 1174              		.loc 1 415 9 view .LVU427
 1175 00ea 3946     		mov	r1, r7
 1176 00ec 2046     		mov	r0, r4
 1177              		.loc 1 418 11 view .LVU428
 1178 00ee 0293     		str	r3, [sp, #8]
 1179              	.LVL105:
 415:D:/fchai/work/i-cube/I-CUBE-HUAWEI/Middlewares/Third_Party/Huawei/iot_link/network/dtls/mbedtls/mbedtls-2.16.2/library\gcm.c **** 
 1180              		.loc 1 415 9 view .LVU429
 1181 00f0 FFF7FEFF 		bl	gcm_mult
 1182              	.LVL106:
 417:D:/fchai/work/i-cube/I-CUBE-HUAWEI/Middlewares/Third_Party/Huawei/iot_link/network/dtls/mbedtls/mbedtls-2.16.2/library\gcm.c ****         p += use_len;
 1183              		.loc 1 417 9 is_stmt 1 view .LVU430
 1184              		.loc 1 418 9 view .LVU431
 419:D:/fchai/work/i-cube/I-CUBE-HUAWEI/Middlewares/Third_Party/Huawei/iot_link/network/dtls/mbedtls/mbedtls-2.16.2/library\gcm.c ****         out_p += use_len;
 1185              		.loc 1 419 9 view .LVU432
 392:D:/fchai/work/i-cube/I-CUBE-HUAWEI/Middlewares/Third_Party/Huawei/iot_link/network/dtls/mbedtls/mbedtls-2.16.2/library\gcm.c ****     {
 1186              		.loc 1 392 10 is_stmt 0 view .LVU433
 1187 00f4 AD1B     		subs	r5, r5, r6
 1188              	.LVL107:
 1189              		.loc 1 419 15 view .LVU434
 1190 00f6 B044     		add	r8, r8, r6
 1191              	.LVL108:
 392:D:/fchai/work/i-cube/I-CUBE-HUAWEI/Middlewares/Third_Party/Huawei/iot_link/network/dtls/mbedtls/mbedtls-2.16.2/library\gcm.c ****     {
 1192              		.loc 1 392 10 is_stmt 1 view .LVU435
 1193 00f8 BAD1     		bne	.L64
 1194              	.LVL109:
 1195              	.L65:
 420:D:/fchai/work/i-cube/I-CUBE-HUAWEI/Middlewares/Third_Party/Huawei/iot_link/network/dtls/mbedtls/mbedtls-2.16.2/library\gcm.c ****     }
 421:D:/fchai/work/i-cube/I-CUBE-HUAWEI/Middlewares/Third_Party/Huawei/iot_link/network/dtls/mbedtls/mbedtls-2.16.2/library\gcm.c **** 
 422:D:/fchai/work/i-cube/I-CUBE-HUAWEI/Middlewares/Third_Party/Huawei/iot_link/network/dtls/mbedtls/mbedtls-2.16.2/library\gcm.c ****     return( 0 );
 1196              		.loc 1 422 11 is_stmt 0 view .LVU436
 1197 00fa 0020     		movs	r0, #0
ARM GAS  T:\msys\tmp\ccyunwdQ.s 			page 34


 1198              	.LVL110:
 1199              	.L52:
 423:D:/fchai/work/i-cube/I-CUBE-HUAWEI/Middlewares/Third_Party/Huawei/iot_link/network/dtls/mbedtls/mbedtls-2.16.2/library\gcm.c **** }
 1200              		.loc 1 423 1 view .LVU437
 1201 00fc 0BB0     		add	sp, sp, #44
 1202              	.LCFI16:
 1203              		.cfi_remember_state
 1204              		.cfi_def_cfa_offset 44
 1205              		@ sp needed
 1206 00fe BDEC028B 		vldm	sp!, {d8}
 1207              	.LCFI17:
 1208              		.cfi_restore 80
 1209              		.cfi_restore 81
 1210              		.cfi_def_cfa_offset 36
 1211 0102 BDE8F08F 		pop	{r4, r5, r6, r7, r8, r9, r10, fp, pc}
 1212              	.LVL111:
 1213              	.L68:
 1214              	.LCFI18:
 1215              		.cfi_restore_state
 379:D:/fchai/work/i-cube/I-CUBE-HUAWEI/Middlewares/Third_Party/Huawei/iot_link/network/dtls/mbedtls/mbedtls-2.16.2/library\gcm.c **** 
 1216              		.loc 1 379 15 view .LVU438
 1217 0106 6FF01300 		mvn	r0, #19
 1218 010a F7E7     		b	.L52
 1219              		.cfi_endproc
 1220              	.LFE12:
 1222              		.section	.text.mbedtls_gcm_finish,"ax",%progbits
 1223              		.align	1
 1224              		.p2align 2,,3
 1225              		.global	mbedtls_gcm_finish
 1226              		.syntax unified
 1227              		.thumb
 1228              		.thumb_func
 1229              		.fpu fpv4-sp-d16
 1231              	mbedtls_gcm_finish:
 1232              	.LVL112:
 1233              	.LFB13:
 424:D:/fchai/work/i-cube/I-CUBE-HUAWEI/Middlewares/Third_Party/Huawei/iot_link/network/dtls/mbedtls/mbedtls-2.16.2/library\gcm.c **** 
 425:D:/fchai/work/i-cube/I-CUBE-HUAWEI/Middlewares/Third_Party/Huawei/iot_link/network/dtls/mbedtls/mbedtls-2.16.2/library\gcm.c **** int mbedtls_gcm_finish( mbedtls_gcm_context *ctx,
 426:D:/fchai/work/i-cube/I-CUBE-HUAWEI/Middlewares/Third_Party/Huawei/iot_link/network/dtls/mbedtls/mbedtls-2.16.2/library\gcm.c ****                 unsigned char *tag,
 427:D:/fchai/work/i-cube/I-CUBE-HUAWEI/Middlewares/Third_Party/Huawei/iot_link/network/dtls/mbedtls/mbedtls-2.16.2/library\gcm.c ****                 size_t tag_len )
 428:D:/fchai/work/i-cube/I-CUBE-HUAWEI/Middlewares/Third_Party/Huawei/iot_link/network/dtls/mbedtls/mbedtls-2.16.2/library\gcm.c **** {
 1234              		.loc 1 428 1 is_stmt 1 view -0
 1235              		.cfi_startproc
 1236              		@ args = 0, pretend = 0, frame = 16
 1237              		@ frame_needed = 0, uses_anonymous_args = 0
 1238              		.loc 1 428 1 is_stmt 0 view .LVU440
 1239 0000 2DE9F047 		push	{r4, r5, r6, r7, r8, r9, r10, lr}
 1240              	.LCFI19:
 1241              		.cfi_def_cfa_offset 32
 1242              		.cfi_offset 4, -32
 1243              		.cfi_offset 5, -28
 1244              		.cfi_offset 6, -24
 1245              		.cfi_offset 7, -20
 1246              		.cfi_offset 8, -16
 1247              		.cfi_offset 9, -12
 1248              		.cfi_offset 10, -8
 1249              		.cfi_offset 14, -4
ARM GAS  T:\msys\tmp\ccyunwdQ.s 			page 35


 429:D:/fchai/work/i-cube/I-CUBE-HUAWEI/Middlewares/Third_Party/Huawei/iot_link/network/dtls/mbedtls/mbedtls-2.16.2/library\gcm.c ****     unsigned char work_buf[16];
 430:D:/fchai/work/i-cube/I-CUBE-HUAWEI/Middlewares/Third_Party/Huawei/iot_link/network/dtls/mbedtls/mbedtls-2.16.2/library\gcm.c ****     size_t i;
 431:D:/fchai/work/i-cube/I-CUBE-HUAWEI/Middlewares/Third_Party/Huawei/iot_link/network/dtls/mbedtls/mbedtls-2.16.2/library\gcm.c ****     uint64_t orig_len;
 432:D:/fchai/work/i-cube/I-CUBE-HUAWEI/Middlewares/Third_Party/Huawei/iot_link/network/dtls/mbedtls/mbedtls-2.16.2/library\gcm.c ****     uint64_t orig_add_len;
 433:D:/fchai/work/i-cube/I-CUBE-HUAWEI/Middlewares/Third_Party/Huawei/iot_link/network/dtls/mbedtls/mbedtls-2.16.2/library\gcm.c **** 
 434:D:/fchai/work/i-cube/I-CUBE-HUAWEI/Middlewares/Third_Party/Huawei/iot_link/network/dtls/mbedtls/mbedtls-2.16.2/library\gcm.c ****     GCM_VALIDATE_RET( ctx != NULL );
 435:D:/fchai/work/i-cube/I-CUBE-HUAWEI/Middlewares/Third_Party/Huawei/iot_link/network/dtls/mbedtls/mbedtls-2.16.2/library\gcm.c ****     GCM_VALIDATE_RET( tag != NULL );
 436:D:/fchai/work/i-cube/I-CUBE-HUAWEI/Middlewares/Third_Party/Huawei/iot_link/network/dtls/mbedtls/mbedtls-2.16.2/library\gcm.c **** 
 437:D:/fchai/work/i-cube/I-CUBE-HUAWEI/Middlewares/Third_Party/Huawei/iot_link/network/dtls/mbedtls/mbedtls-2.16.2/library\gcm.c ****     orig_len = ctx->len * 8;
 1250              		.loc 1 437 14 view .LVU441
 1251 0004 D0F84451 		ldr	r5, [r0, #324]
 438:D:/fchai/work/i-cube/I-CUBE-HUAWEI/Middlewares/Third_Party/Huawei/iot_link/network/dtls/mbedtls/mbedtls-2.16.2/library\gcm.c ****     orig_add_len = ctx->add_len * 8;
 1252              		.loc 1 438 18 view .LVU442
 1253 0008 D0F84C41 		ldr	r4, [r0, #332]
 437:D:/fchai/work/i-cube/I-CUBE-HUAWEI/Middlewares/Third_Party/Huawei/iot_link/network/dtls/mbedtls/mbedtls-2.16.2/library\gcm.c ****     orig_add_len = ctx->add_len * 8;
 1254              		.loc 1 437 14 view .LVU443
 1255 000c D0F84071 		ldr	r7, [r0, #320]
 428:D:/fchai/work/i-cube/I-CUBE-HUAWEI/Middlewares/Third_Party/Huawei/iot_link/network/dtls/mbedtls/mbedtls-2.16.2/library\gcm.c ****     unsigned char work_buf[16];
 1256              		.loc 1 428 1 view .LVU444
 1257 0010 8146     		mov	r9, r0
 429:D:/fchai/work/i-cube/I-CUBE-HUAWEI/Middlewares/Third_Party/Huawei/iot_link/network/dtls/mbedtls/mbedtls-2.16.2/library\gcm.c ****     size_t i;
 1258              		.loc 1 429 5 is_stmt 1 view .LVU445
 430:D:/fchai/work/i-cube/I-CUBE-HUAWEI/Middlewares/Third_Party/Huawei/iot_link/network/dtls/mbedtls/mbedtls-2.16.2/library\gcm.c ****     uint64_t orig_len;
 1259              		.loc 1 430 5 view .LVU446
 431:D:/fchai/work/i-cube/I-CUBE-HUAWEI/Middlewares/Third_Party/Huawei/iot_link/network/dtls/mbedtls/mbedtls-2.16.2/library\gcm.c ****     uint64_t orig_add_len;
 1260              		.loc 1 431 5 view .LVU447
 432:D:/fchai/work/i-cube/I-CUBE-HUAWEI/Middlewares/Third_Party/Huawei/iot_link/network/dtls/mbedtls/mbedtls-2.16.2/library\gcm.c **** 
 1261              		.loc 1 432 5 view .LVU448
 434:D:/fchai/work/i-cube/I-CUBE-HUAWEI/Middlewares/Third_Party/Huawei/iot_link/network/dtls/mbedtls/mbedtls-2.16.2/library\gcm.c ****     GCM_VALIDATE_RET( tag != NULL );
 1262              		.loc 1 434 5 view .LVU449
 434:D:/fchai/work/i-cube/I-CUBE-HUAWEI/Middlewares/Third_Party/Huawei/iot_link/network/dtls/mbedtls/mbedtls-2.16.2/library\gcm.c ****     GCM_VALIDATE_RET( tag != NULL );
 1263              		.loc 1 434 5 view .LVU450
 434:D:/fchai/work/i-cube/I-CUBE-HUAWEI/Middlewares/Third_Party/Huawei/iot_link/network/dtls/mbedtls/mbedtls-2.16.2/library\gcm.c ****     GCM_VALIDATE_RET( tag != NULL );
 1264              		.loc 1 434 5 view .LVU451
 435:D:/fchai/work/i-cube/I-CUBE-HUAWEI/Middlewares/Third_Party/Huawei/iot_link/network/dtls/mbedtls/mbedtls-2.16.2/library\gcm.c **** 
 1265              		.loc 1 435 5 view .LVU452
 435:D:/fchai/work/i-cube/I-CUBE-HUAWEI/Middlewares/Third_Party/Huawei/iot_link/network/dtls/mbedtls/mbedtls-2.16.2/library\gcm.c **** 
 1266              		.loc 1 435 5 view .LVU453
 435:D:/fchai/work/i-cube/I-CUBE-HUAWEI/Middlewares/Third_Party/Huawei/iot_link/network/dtls/mbedtls/mbedtls-2.16.2/library\gcm.c **** 
 1267              		.loc 1 435 5 view .LVU454
 437:D:/fchai/work/i-cube/I-CUBE-HUAWEI/Middlewares/Third_Party/Huawei/iot_link/network/dtls/mbedtls/mbedtls-2.16.2/library\gcm.c ****     orig_add_len = ctx->add_len * 8;
 1268              		.loc 1 437 5 view .LVU455
 439:D:/fchai/work/i-cube/I-CUBE-HUAWEI/Middlewares/Third_Party/Huawei/iot_link/network/dtls/mbedtls/mbedtls-2.16.2/library\gcm.c **** 
 440:D:/fchai/work/i-cube/I-CUBE-HUAWEI/Middlewares/Third_Party/Huawei/iot_link/network/dtls/mbedtls/mbedtls-2.16.2/library\gcm.c ****     if( tag_len > 16 || tag_len < 4 )
 1269              		.loc 1 440 22 is_stmt 0 view .LVU456
 1270 0012 A2F1040C 		sub	ip, r2, #4
 438:D:/fchai/work/i-cube/I-CUBE-HUAWEI/Middlewares/Third_Party/Huawei/iot_link/network/dtls/mbedtls/mbedtls-2.16.2/library\gcm.c **** 
 1271              		.loc 1 438 18 view .LVU457
 1272 0016 D0F84801 		ldr	r0, [r0, #328]
 1273              	.LVL113:
 437:D:/fchai/work/i-cube/I-CUBE-HUAWEI/Middlewares/Third_Party/Huawei/iot_link/network/dtls/mbedtls/mbedtls-2.16.2/library\gcm.c ****     orig_add_len = ctx->add_len * 8;
 1274              		.loc 1 437 14 view .LVU458
 1275 001a ED00     		lsls	r5, r5, #3
 438:D:/fchai/work/i-cube/I-CUBE-HUAWEI/Middlewares/Third_Party/Huawei/iot_link/network/dtls/mbedtls/mbedtls-2.16.2/library\gcm.c **** 
 1276              		.loc 1 438 18 view .LVU459
 1277 001c E400     		lsls	r4, r4, #3
 1278              		.loc 1 440 7 view .LVU460
ARM GAS  T:\msys\tmp\ccyunwdQ.s 			page 36


 1279 001e BCF10C0F 		cmp	ip, #12
 428:D:/fchai/work/i-cube/I-CUBE-HUAWEI/Middlewares/Third_Party/Huawei/iot_link/network/dtls/mbedtls/mbedtls-2.16.2/library\gcm.c ****     unsigned char work_buf[16];
 1280              		.loc 1 428 1 view .LVU461
 1281 0022 84B0     		sub	sp, sp, #16
 1282              	.LCFI20:
 1283              		.cfi_def_cfa_offset 48
 437:D:/fchai/work/i-cube/I-CUBE-HUAWEI/Middlewares/Third_Party/Huawei/iot_link/network/dtls/mbedtls/mbedtls-2.16.2/library\gcm.c ****     orig_add_len = ctx->add_len * 8;
 1284              		.loc 1 437 14 view .LVU462
 1285 0024 45EA5775 		orr	r5, r5, r7, lsr #29
 1286              	.LVL114:
 438:D:/fchai/work/i-cube/I-CUBE-HUAWEI/Middlewares/Third_Party/Huawei/iot_link/network/dtls/mbedtls/mbedtls-2.16.2/library\gcm.c **** 
 1287              		.loc 1 438 5 is_stmt 1 view .LVU463
 438:D:/fchai/work/i-cube/I-CUBE-HUAWEI/Middlewares/Third_Party/Huawei/iot_link/network/dtls/mbedtls/mbedtls-2.16.2/library\gcm.c **** 
 1288              		.loc 1 438 18 is_stmt 0 view .LVU464
 1289 0028 44EA5074 		orr	r4, r4, r0, lsr #29
 1290              	.LVL115:
 1291              		.loc 1 440 5 is_stmt 1 view .LVU465
 1292              		.loc 1 440 7 is_stmt 0 view .LVU466
 1293 002c 50D8     		bhi	.L81
 441:D:/fchai/work/i-cube/I-CUBE-HUAWEI/Middlewares/Third_Party/Huawei/iot_link/network/dtls/mbedtls/mbedtls-2.16.2/library\gcm.c ****         return( MBEDTLS_ERR_GCM_BAD_INPUT );
 442:D:/fchai/work/i-cube/I-CUBE-HUAWEI/Middlewares/Third_Party/Huawei/iot_link/network/dtls/mbedtls/mbedtls-2.16.2/library\gcm.c **** 
 443:D:/fchai/work/i-cube/I-CUBE-HUAWEI/Middlewares/Third_Party/Huawei/iot_link/network/dtls/mbedtls/mbedtls-2.16.2/library\gcm.c ****     memcpy( tag, ctx->base_ectr, tag_len );
 1294              		.loc 1 443 5 is_stmt 1 view .LVU467
 1295 002e 0E46     		mov	r6, r1
 1296 0030 4FEAC00A 		lsl	r10, r0, #3
 1297              	.LVL116:
 1298              		.loc 1 443 5 is_stmt 0 view .LVU468
 1299 0034 FF00     		lsls	r7, r7, #3
 1300              	.LVL117:
 1301              		.loc 1 443 5 view .LVU469
 1302 0036 09F5A871 		add	r1, r9, #336
 1303              	.LVL118:
 1304              		.loc 1 443 5 view .LVU470
 1305 003a 3046     		mov	r0, r6
 1306 003c 9046     		mov	r8, r2
 1307 003e FFF7FEFF 		bl	memcpy
 1308              	.LVL119:
 444:D:/fchai/work/i-cube/I-CUBE-HUAWEI/Middlewares/Third_Party/Huawei/iot_link/network/dtls/mbedtls/mbedtls-2.16.2/library\gcm.c **** 
 445:D:/fchai/work/i-cube/I-CUBE-HUAWEI/Middlewares/Third_Party/Huawei/iot_link/network/dtls/mbedtls/mbedtls-2.16.2/library\gcm.c ****     if( orig_len || orig_add_len )
 1309              		.loc 1 445 5 is_stmt 1 view .LVU471
 1310              		.loc 1 445 18 is_stmt 0 view .LVU472
 1311 0042 47EA0A02 		orr	r2, r7, r10
 1312 0046 45EA0403 		orr	r3, r5, r4
 1313 004a 1343     		orrs	r3, r2, r3
 1314 004c 3CD0     		beq	.L80
 446:D:/fchai/work/i-cube/I-CUBE-HUAWEI/Middlewares/Third_Party/Huawei/iot_link/network/dtls/mbedtls/mbedtls-2.16.2/library\gcm.c ****     {
 447:D:/fchai/work/i-cube/I-CUBE-HUAWEI/Middlewares/Third_Party/Huawei/iot_link/network/dtls/mbedtls/mbedtls-2.16.2/library\gcm.c ****         memset( work_buf, 0x00, 16 );
 1315              		.loc 1 447 9 is_stmt 1 view .LVU473
 448:D:/fchai/work/i-cube/I-CUBE-HUAWEI/Middlewares/Third_Party/Huawei/iot_link/network/dtls/mbedtls/mbedtls-2.16.2/library\gcm.c **** 
 449:D:/fchai/work/i-cube/I-CUBE-HUAWEI/Middlewares/Third_Party/Huawei/iot_link/network/dtls/mbedtls/mbedtls-2.16.2/library\gcm.c ****         PUT_UINT32_BE( ( orig_add_len >> 32 ), work_buf, 0  );
 1316              		.loc 1 449 9 view .LVU474
 1317 004e 3FBA     		rev	r7, r7
 1318              	.LVL120:
 450:D:/fchai/work/i-cube/I-CUBE-HUAWEI/Middlewares/Third_Party/Huawei/iot_link/network/dtls/mbedtls/mbedtls-2.16.2/library\gcm.c ****         PUT_UINT32_BE( ( orig_add_len       ), work_buf, 4  );
 451:D:/fchai/work/i-cube/I-CUBE-HUAWEI/Middlewares/Third_Party/Huawei/iot_link/network/dtls/mbedtls/mbedtls-2.16.2/library\gcm.c ****         PUT_UINT32_BE( ( orig_len     >> 32 ), work_buf, 8  );
 1319              		.loc 1 451 9 is_stmt 0 view .LVU475
 1320 0050 290E     		lsrs	r1, r5, #24
ARM GAS  T:\msys\tmp\ccyunwdQ.s 			page 37


 1321 0052 9AFA8AF3 		rev	r3, r10
 449:D:/fchai/work/i-cube/I-CUBE-HUAWEI/Middlewares/Third_Party/Huawei/iot_link/network/dtls/mbedtls/mbedtls-2.16.2/library\gcm.c ****         PUT_UINT32_BE( ( orig_add_len       ), work_buf, 4  );
 1322              		.loc 1 449 9 view .LVU476
 1323 0056 4FEA144C 		lsr	ip, r4, #16
 1324 005a 200A     		lsrs	r0, r4, #8
 1325              		.loc 1 451 9 view .LVU477
 1326 005c 2A0C     		lsrs	r2, r5, #16
 452:D:/fchai/work/i-cube/I-CUBE-HUAWEI/Middlewares/Third_Party/Huawei/iot_link/network/dtls/mbedtls/mbedtls-2.16.2/library\gcm.c ****         PUT_UINT32_BE( ( orig_len           ), work_buf, 12 );
 1327              		.loc 1 452 9 view .LVU478
 1328 005e 0397     		str	r7, [sp, #12]
 451:D:/fchai/work/i-cube/I-CUBE-HUAWEI/Middlewares/Third_Party/Huawei/iot_link/network/dtls/mbedtls/mbedtls-2.16.2/library\gcm.c ****         PUT_UINT32_BE( ( orig_len           ), work_buf, 12 );
 1329              		.loc 1 451 9 view .LVU479
 1330 0060 8DF80B50 		strb	r5, [sp, #11]
 1331 0064 09F26F17 		addw	r7, r9, #367
 1332 0068 2D0A     		lsrs	r5, r5, #8
 450:D:/fchai/work/i-cube/I-CUBE-HUAWEI/Middlewares/Third_Party/Huawei/iot_link/network/dtls/mbedtls/mbedtls-2.16.2/library\gcm.c ****         PUT_UINT32_BE( ( orig_len     >> 32 ), work_buf, 8  );
 1333              		.loc 1 450 9 view .LVU480
 1334 006a 0193     		str	r3, [sp, #4]
 449:D:/fchai/work/i-cube/I-CUBE-HUAWEI/Middlewares/Third_Party/Huawei/iot_link/network/dtls/mbedtls/mbedtls-2.16.2/library\gcm.c ****         PUT_UINT32_BE( ( orig_add_len       ), work_buf, 4  );
 1335              		.loc 1 449 9 view .LVU481
 1336 006c 8DF80340 		strb	r4, [sp, #3]
 1337 0070 230E     		lsrs	r3, r4, #24
 449:D:/fchai/work/i-cube/I-CUBE-HUAWEI/Middlewares/Third_Party/Huawei/iot_link/network/dtls/mbedtls/mbedtls-2.16.2/library\gcm.c ****         PUT_UINT32_BE( ( orig_add_len       ), work_buf, 4  );
 1338              		.loc 1 449 9 is_stmt 1 view .LVU482
 449:D:/fchai/work/i-cube/I-CUBE-HUAWEI/Middlewares/Third_Party/Huawei/iot_link/network/dtls/mbedtls/mbedtls-2.16.2/library\gcm.c ****         PUT_UINT32_BE( ( orig_add_len       ), work_buf, 4  );
 1339              		.loc 1 449 9 view .LVU483
 449:D:/fchai/work/i-cube/I-CUBE-HUAWEI/Middlewares/Third_Party/Huawei/iot_link/network/dtls/mbedtls/mbedtls-2.16.2/library\gcm.c ****         PUT_UINT32_BE( ( orig_add_len       ), work_buf, 4  );
 1340              		.loc 1 449 9 view .LVU484
 449:D:/fchai/work/i-cube/I-CUBE-HUAWEI/Middlewares/Third_Party/Huawei/iot_link/network/dtls/mbedtls/mbedtls-2.16.2/library\gcm.c ****         PUT_UINT32_BE( ( orig_add_len       ), work_buf, 4  );
 1341              		.loc 1 449 62 view .LVU485
 450:D:/fchai/work/i-cube/I-CUBE-HUAWEI/Middlewares/Third_Party/Huawei/iot_link/network/dtls/mbedtls/mbedtls-2.16.2/library\gcm.c ****         PUT_UINT32_BE( ( orig_len     >> 32 ), work_buf, 8  );
 1342              		.loc 1 450 9 view .LVU486
 450:D:/fchai/work/i-cube/I-CUBE-HUAWEI/Middlewares/Third_Party/Huawei/iot_link/network/dtls/mbedtls/mbedtls-2.16.2/library\gcm.c ****         PUT_UINT32_BE( ( orig_len     >> 32 ), work_buf, 8  );
 1343              		.loc 1 450 9 view .LVU487
 450:D:/fchai/work/i-cube/I-CUBE-HUAWEI/Middlewares/Third_Party/Huawei/iot_link/network/dtls/mbedtls/mbedtls-2.16.2/library\gcm.c ****         PUT_UINT32_BE( ( orig_len     >> 32 ), work_buf, 8  );
 1344              		.loc 1 450 9 view .LVU488
 450:D:/fchai/work/i-cube/I-CUBE-HUAWEI/Middlewares/Third_Party/Huawei/iot_link/network/dtls/mbedtls/mbedtls-2.16.2/library\gcm.c ****         PUT_UINT32_BE( ( orig_len     >> 32 ), work_buf, 8  );
 1345              		.loc 1 450 9 view .LVU489
 450:D:/fchai/work/i-cube/I-CUBE-HUAWEI/Middlewares/Third_Party/Huawei/iot_link/network/dtls/mbedtls/mbedtls-2.16.2/library\gcm.c ****         PUT_UINT32_BE( ( orig_len     >> 32 ), work_buf, 8  );
 1346              		.loc 1 450 62 view .LVU490
 451:D:/fchai/work/i-cube/I-CUBE-HUAWEI/Middlewares/Third_Party/Huawei/iot_link/network/dtls/mbedtls/mbedtls-2.16.2/library\gcm.c ****         PUT_UINT32_BE( ( orig_len           ), work_buf, 12 );
 1347              		.loc 1 451 9 view .LVU491
 1348 0072 8DF80810 		strb	r1, [sp, #8]
 451:D:/fchai/work/i-cube/I-CUBE-HUAWEI/Middlewares/Third_Party/Huawei/iot_link/network/dtls/mbedtls/mbedtls-2.16.2/library\gcm.c ****         PUT_UINT32_BE( ( orig_len           ), work_buf, 12 );
 1349              		.loc 1 451 9 view .LVU492
 1350 0076 8DF80A50 		strb	r5, [sp, #10]
 449:D:/fchai/work/i-cube/I-CUBE-HUAWEI/Middlewares/Third_Party/Huawei/iot_link/network/dtls/mbedtls/mbedtls-2.16.2/library\gcm.c ****         PUT_UINT32_BE( ( orig_add_len       ), work_buf, 4  );
 1351              		.loc 1 449 9 is_stmt 0 view .LVU493
 1352 007a 8DF801C0 		strb	ip, [sp, #1]
 1353 007e 8DF80200 		strb	r0, [sp, #2]
 451:D:/fchai/work/i-cube/I-CUBE-HUAWEI/Middlewares/Third_Party/Huawei/iot_link/network/dtls/mbedtls/mbedtls-2.16.2/library\gcm.c ****         PUT_UINT32_BE( ( orig_len           ), work_buf, 12 );
 1354              		.loc 1 451 9 view .LVU494
 1355 0082 8DF80920 		strb	r2, [sp, #9]
 451:D:/fchai/work/i-cube/I-CUBE-HUAWEI/Middlewares/Third_Party/Huawei/iot_link/network/dtls/mbedtls/mbedtls-2.16.2/library\gcm.c ****         PUT_UINT32_BE( ( orig_len           ), work_buf, 12 );
 1356              		.loc 1 451 9 is_stmt 1 view .LVU495
 451:D:/fchai/work/i-cube/I-CUBE-HUAWEI/Middlewares/Third_Party/Huawei/iot_link/network/dtls/mbedtls/mbedtls-2.16.2/library\gcm.c ****         PUT_UINT32_BE( ( orig_len           ), work_buf, 12 );
 1357              		.loc 1 451 9 view .LVU496
ARM GAS  T:\msys\tmp\ccyunwdQ.s 			page 38


 451:D:/fchai/work/i-cube/I-CUBE-HUAWEI/Middlewares/Third_Party/Huawei/iot_link/network/dtls/mbedtls/mbedtls-2.16.2/library\gcm.c ****         PUT_UINT32_BE( ( orig_len           ), work_buf, 12 );
 1358              		.loc 1 451 62 view .LVU497
 1359              		.loc 1 452 9 view .LVU498
 1360              		.loc 1 452 9 view .LVU499
 1361              		.loc 1 452 9 view .LVU500
 1362              		.loc 1 452 9 view .LVU501
 1363              		.loc 1 452 62 view .LVU502
 453:D:/fchai/work/i-cube/I-CUBE-HUAWEI/Middlewares/Third_Party/Huawei/iot_link/network/dtls/mbedtls/mbedtls-2.16.2/library\gcm.c **** 
 454:D:/fchai/work/i-cube/I-CUBE-HUAWEI/Middlewares/Third_Party/Huawei/iot_link/network/dtls/mbedtls/mbedtls-2.16.2/library\gcm.c ****         for( i = 0; i < 16; i++ )
 1364              		.loc 1 454 9 view .LVU503
 1365              	.LVL121:
 1366              		.loc 1 454 21 view .LVU504
 452:D:/fchai/work/i-cube/I-CUBE-HUAWEI/Middlewares/Third_Party/Huawei/iot_link/network/dtls/mbedtls/mbedtls-2.16.2/library\gcm.c **** 
 1367              		.loc 1 452 9 is_stmt 0 view .LVU505
 1368 0086 3C46     		mov	r4, r7
 1369              	.LVL122:
 452:D:/fchai/work/i-cube/I-CUBE-HUAWEI/Middlewares/Third_Party/Huawei/iot_link/network/dtls/mbedtls/mbedtls-2.16.2/library\gcm.c **** 
 1370              		.loc 1 452 9 view .LVU506
 1371 0088 0DF10105 		add	r5, sp, #1
 1372 008c 04A9     		add	r1, sp, #16
 1373 008e 01E0     		b	.L78
 1374              	.LVL123:
 1375              	.L85:
 452:D:/fchai/work/i-cube/I-CUBE-HUAWEI/Middlewares/Third_Party/Huawei/iot_link/network/dtls/mbedtls/mbedtls-2.16.2/library\gcm.c **** 
 1376              		.loc 1 452 9 view .LVU507
 1377 0090 15F8013B 		ldrb	r3, [r5], #1	@ zero_extendqisi2
 1378              	.L78:
 455:D:/fchai/work/i-cube/I-CUBE-HUAWEI/Middlewares/Third_Party/Huawei/iot_link/network/dtls/mbedtls/mbedtls-2.16.2/library\gcm.c ****             ctx->buf[i] ^= work_buf[i];
 1379              		.loc 1 455 13 is_stmt 1 discriminator 3 view .LVU508
 1380              		.loc 1 455 25 is_stmt 0 discriminator 3 view .LVU509
 1381 0094 14F8012F 		ldrb	r2, [r4, #1]!	@ zero_extendqisi2
 454:D:/fchai/work/i-cube/I-CUBE-HUAWEI/Middlewares/Third_Party/Huawei/iot_link/network/dtls/mbedtls/mbedtls-2.16.2/library\gcm.c ****             ctx->buf[i] ^= work_buf[i];
 1382              		.loc 1 454 9 discriminator 3 view .LVU510
 1383 0098 8D42     		cmp	r5, r1
 1384              		.loc 1 455 25 discriminator 3 view .LVU511
 1385 009a 83EA0203 		eor	r3, r3, r2
 1386 009e 2370     		strb	r3, [r4]
 454:D:/fchai/work/i-cube/I-CUBE-HUAWEI/Middlewares/Third_Party/Huawei/iot_link/network/dtls/mbedtls/mbedtls-2.16.2/library\gcm.c ****             ctx->buf[i] ^= work_buf[i];
 1387              		.loc 1 454 29 is_stmt 1 discriminator 3 view .LVU512
 454:D:/fchai/work/i-cube/I-CUBE-HUAWEI/Middlewares/Third_Party/Huawei/iot_link/network/dtls/mbedtls/mbedtls-2.16.2/library\gcm.c ****             ctx->buf[i] ^= work_buf[i];
 1388              		.loc 1 454 21 discriminator 3 view .LVU513
 454:D:/fchai/work/i-cube/I-CUBE-HUAWEI/Middlewares/Third_Party/Huawei/iot_link/network/dtls/mbedtls/mbedtls-2.16.2/library\gcm.c ****             ctx->buf[i] ^= work_buf[i];
 1389              		.loc 1 454 9 is_stmt 0 discriminator 3 view .LVU514
 1390 00a0 F6D1     		bne	.L85
 456:D:/fchai/work/i-cube/I-CUBE-HUAWEI/Middlewares/Third_Party/Huawei/iot_link/network/dtls/mbedtls/mbedtls-2.16.2/library\gcm.c **** 
 457:D:/fchai/work/i-cube/I-CUBE-HUAWEI/Middlewares/Third_Party/Huawei/iot_link/network/dtls/mbedtls/mbedtls-2.16.2/library\gcm.c ****         gcm_mult( ctx, ctx->buf, ctx->buf );
 1391              		.loc 1 457 9 is_stmt 1 view .LVU515
 1392              		.loc 1 457 27 is_stmt 0 view .LVU516
 1393 00a2 09F5B872 		add	r2, r9, #368
 1394              		.loc 1 457 9 view .LVU517
 1395 00a6 4846     		mov	r0, r9
 1396 00a8 1146     		mov	r1, r2
 1397 00aa B044     		add	r8, r8, r6
 1398              	.LVL124:
 1399              		.loc 1 457 9 view .LVU518
 1400 00ac FFF7FEFF 		bl	gcm_mult
 1401              	.LVL125:
ARM GAS  T:\msys\tmp\ccyunwdQ.s 			page 39


 458:D:/fchai/work/i-cube/I-CUBE-HUAWEI/Middlewares/Third_Party/Huawei/iot_link/network/dtls/mbedtls/mbedtls-2.16.2/library\gcm.c **** 
 459:D:/fchai/work/i-cube/I-CUBE-HUAWEI/Middlewares/Third_Party/Huawei/iot_link/network/dtls/mbedtls/mbedtls-2.16.2/library\gcm.c ****         for( i = 0; i < tag_len; i++ )
 1402              		.loc 1 459 9 is_stmt 1 view .LVU519
 1403              		.loc 1 459 21 view .LVU520
 1404 00b0 08F1FF38 		add	r8, r8, #-1
 1405 00b4 731E     		subs	r3, r6, #1
 1406              	.LVL126:
 1407              	.L79:
 460:D:/fchai/work/i-cube/I-CUBE-HUAWEI/Middlewares/Third_Party/Huawei/iot_link/network/dtls/mbedtls/mbedtls-2.16.2/library\gcm.c ****             tag[i] ^= ctx->buf[i];
 1408              		.loc 1 460 13 discriminator 3 view .LVU521
 1409              		.loc 1 460 20 is_stmt 0 discriminator 3 view .LVU522
 1410 00b6 13F8012F 		ldrb	r2, [r3, #1]!	@ zero_extendqisi2
 1411              	.LVL127:
 1412              		.loc 1 460 20 discriminator 3 view .LVU523
 1413 00ba 17F8011F 		ldrb	r1, [r7, #1]!	@ zero_extendqisi2
 459:D:/fchai/work/i-cube/I-CUBE-HUAWEI/Middlewares/Third_Party/Huawei/iot_link/network/dtls/mbedtls/mbedtls-2.16.2/library\gcm.c ****             tag[i] ^= ctx->buf[i];
 1414              		.loc 1 459 9 discriminator 3 view .LVU524
 1415 00be 4345     		cmp	r3, r8
 1416              		.loc 1 460 20 discriminator 3 view .LVU525
 1417 00c0 82EA0102 		eor	r2, r2, r1
 1418 00c4 1A70     		strb	r2, [r3]
 459:D:/fchai/work/i-cube/I-CUBE-HUAWEI/Middlewares/Third_Party/Huawei/iot_link/network/dtls/mbedtls/mbedtls-2.16.2/library\gcm.c ****             tag[i] ^= ctx->buf[i];
 1419              		.loc 1 459 34 is_stmt 1 discriminator 3 view .LVU526
 1420              	.LVL128:
 459:D:/fchai/work/i-cube/I-CUBE-HUAWEI/Middlewares/Third_Party/Huawei/iot_link/network/dtls/mbedtls/mbedtls-2.16.2/library\gcm.c ****             tag[i] ^= ctx->buf[i];
 1421              		.loc 1 459 21 discriminator 3 view .LVU527
 459:D:/fchai/work/i-cube/I-CUBE-HUAWEI/Middlewares/Third_Party/Huawei/iot_link/network/dtls/mbedtls/mbedtls-2.16.2/library\gcm.c ****             tag[i] ^= ctx->buf[i];
 1422              		.loc 1 459 9 is_stmt 0 discriminator 3 view .LVU528
 1423 00c6 F6D1     		bne	.L79
 1424              	.LVL129:
 1425              	.L80:
 461:D:/fchai/work/i-cube/I-CUBE-HUAWEI/Middlewares/Third_Party/Huawei/iot_link/network/dtls/mbedtls/mbedtls-2.16.2/library\gcm.c ****     }
 462:D:/fchai/work/i-cube/I-CUBE-HUAWEI/Middlewares/Third_Party/Huawei/iot_link/network/dtls/mbedtls/mbedtls-2.16.2/library\gcm.c **** 
 463:D:/fchai/work/i-cube/I-CUBE-HUAWEI/Middlewares/Third_Party/Huawei/iot_link/network/dtls/mbedtls/mbedtls-2.16.2/library\gcm.c ****     return( 0 );
 1426              		.loc 1 463 11 view .LVU529
 1427 00c8 0020     		movs	r0, #0
 1428              	.LVL130:
 1429              	.L74:
 464:D:/fchai/work/i-cube/I-CUBE-HUAWEI/Middlewares/Third_Party/Huawei/iot_link/network/dtls/mbedtls/mbedtls-2.16.2/library\gcm.c **** }
 1430              		.loc 1 464 1 view .LVU530
 1431 00ca 04B0     		add	sp, sp, #16
 1432              	.LCFI21:
 1433              		.cfi_remember_state
 1434              		.cfi_def_cfa_offset 32
 1435              		@ sp needed
 1436 00cc BDE8F087 		pop	{r4, r5, r6, r7, r8, r9, r10, pc}
 1437              	.LVL131:
 1438              	.L81:
 1439              	.LCFI22:
 1440              		.cfi_restore_state
 441:D:/fchai/work/i-cube/I-CUBE-HUAWEI/Middlewares/Third_Party/Huawei/iot_link/network/dtls/mbedtls/mbedtls-2.16.2/library\gcm.c **** 
 1441              		.loc 1 441 15 view .LVU531
 1442 00d0 6FF01300 		mvn	r0, #19
 1443              	.LVL132:
 441:D:/fchai/work/i-cube/I-CUBE-HUAWEI/Middlewares/Third_Party/Huawei/iot_link/network/dtls/mbedtls/mbedtls-2.16.2/library\gcm.c **** 
 1444              		.loc 1 441 15 view .LVU532
 1445 00d4 F9E7     		b	.L74
ARM GAS  T:\msys\tmp\ccyunwdQ.s 			page 40


 1446              		.cfi_endproc
 1447              	.LFE13:
 1449 00d6 00BF     		.section	.text.mbedtls_gcm_crypt_and_tag,"ax",%progbits
 1450              		.align	1
 1451              		.p2align 2,,3
 1452              		.global	mbedtls_gcm_crypt_and_tag
 1453              		.syntax unified
 1454              		.thumb
 1455              		.thumb_func
 1456              		.fpu fpv4-sp-d16
 1458              	mbedtls_gcm_crypt_and_tag:
 1459              	.LVL133:
 1460              	.LFB14:
 465:D:/fchai/work/i-cube/I-CUBE-HUAWEI/Middlewares/Third_Party/Huawei/iot_link/network/dtls/mbedtls/mbedtls-2.16.2/library\gcm.c **** 
 466:D:/fchai/work/i-cube/I-CUBE-HUAWEI/Middlewares/Third_Party/Huawei/iot_link/network/dtls/mbedtls/mbedtls-2.16.2/library\gcm.c **** int mbedtls_gcm_crypt_and_tag( mbedtls_gcm_context *ctx,
 467:D:/fchai/work/i-cube/I-CUBE-HUAWEI/Middlewares/Third_Party/Huawei/iot_link/network/dtls/mbedtls/mbedtls-2.16.2/library\gcm.c ****                        int mode,
 468:D:/fchai/work/i-cube/I-CUBE-HUAWEI/Middlewares/Third_Party/Huawei/iot_link/network/dtls/mbedtls/mbedtls-2.16.2/library\gcm.c ****                        size_t length,
 469:D:/fchai/work/i-cube/I-CUBE-HUAWEI/Middlewares/Third_Party/Huawei/iot_link/network/dtls/mbedtls/mbedtls-2.16.2/library\gcm.c ****                        const unsigned char *iv,
 470:D:/fchai/work/i-cube/I-CUBE-HUAWEI/Middlewares/Third_Party/Huawei/iot_link/network/dtls/mbedtls/mbedtls-2.16.2/library\gcm.c ****                        size_t iv_len,
 471:D:/fchai/work/i-cube/I-CUBE-HUAWEI/Middlewares/Third_Party/Huawei/iot_link/network/dtls/mbedtls/mbedtls-2.16.2/library\gcm.c ****                        const unsigned char *add,
 472:D:/fchai/work/i-cube/I-CUBE-HUAWEI/Middlewares/Third_Party/Huawei/iot_link/network/dtls/mbedtls/mbedtls-2.16.2/library\gcm.c ****                        size_t add_len,
 473:D:/fchai/work/i-cube/I-CUBE-HUAWEI/Middlewares/Third_Party/Huawei/iot_link/network/dtls/mbedtls/mbedtls-2.16.2/library\gcm.c ****                        const unsigned char *input,
 474:D:/fchai/work/i-cube/I-CUBE-HUAWEI/Middlewares/Third_Party/Huawei/iot_link/network/dtls/mbedtls/mbedtls-2.16.2/library\gcm.c ****                        unsigned char *output,
 475:D:/fchai/work/i-cube/I-CUBE-HUAWEI/Middlewares/Third_Party/Huawei/iot_link/network/dtls/mbedtls/mbedtls-2.16.2/library\gcm.c ****                        size_t tag_len,
 476:D:/fchai/work/i-cube/I-CUBE-HUAWEI/Middlewares/Third_Party/Huawei/iot_link/network/dtls/mbedtls/mbedtls-2.16.2/library\gcm.c ****                        unsigned char *tag )
 477:D:/fchai/work/i-cube/I-CUBE-HUAWEI/Middlewares/Third_Party/Huawei/iot_link/network/dtls/mbedtls/mbedtls-2.16.2/library\gcm.c **** {
 1461              		.loc 1 477 1 is_stmt 1 view -0
 1462              		.cfi_startproc
 1463              		@ args = 28, pretend = 0, frame = 0
 1464              		@ frame_needed = 0, uses_anonymous_args = 0
 1465              		.loc 1 477 1 is_stmt 0 view .LVU534
 1466 0000 2DE9F043 		push	{r4, r5, r6, r7, r8, r9, lr}
 1467              	.LCFI23:
 1468              		.cfi_def_cfa_offset 28
 1469              		.cfi_offset 4, -28
 1470              		.cfi_offset 5, -24
 1471              		.cfi_offset 6, -20
 1472              		.cfi_offset 7, -16
 1473              		.cfi_offset 8, -12
 1474              		.cfi_offset 9, -8
 1475              		.cfi_offset 14, -4
 1476 0004 83B0     		sub	sp, sp, #12
 1477              	.LCFI24:
 1478              		.cfi_def_cfa_offset 40
 1479              		.loc 1 477 1 view .LVU535
 1480 0006 DDE90B54 		ldrd	r5, r4, [sp, #44]
 478:D:/fchai/work/i-cube/I-CUBE-HUAWEI/Middlewares/Third_Party/Huawei/iot_link/network/dtls/mbedtls/mbedtls-2.16.2/library\gcm.c ****     int ret;
 479:D:/fchai/work/i-cube/I-CUBE-HUAWEI/Middlewares/Third_Party/Huawei/iot_link/network/dtls/mbedtls/mbedtls-2.16.2/library\gcm.c **** 
 480:D:/fchai/work/i-cube/I-CUBE-HUAWEI/Middlewares/Third_Party/Huawei/iot_link/network/dtls/mbedtls/mbedtls-2.16.2/library\gcm.c ****     GCM_VALIDATE_RET( ctx != NULL );
 481:D:/fchai/work/i-cube/I-CUBE-HUAWEI/Middlewares/Third_Party/Huawei/iot_link/network/dtls/mbedtls/mbedtls-2.16.2/library\gcm.c ****     GCM_VALIDATE_RET( iv != NULL );
 482:D:/fchai/work/i-cube/I-CUBE-HUAWEI/Middlewares/Third_Party/Huawei/iot_link/network/dtls/mbedtls/mbedtls-2.16.2/library\gcm.c ****     GCM_VALIDATE_RET( add_len == 0 || add != NULL );
 483:D:/fchai/work/i-cube/I-CUBE-HUAWEI/Middlewares/Third_Party/Huawei/iot_link/network/dtls/mbedtls/mbedtls-2.16.2/library\gcm.c ****     GCM_VALIDATE_RET( length == 0 || input != NULL );
 484:D:/fchai/work/i-cube/I-CUBE-HUAWEI/Middlewares/Third_Party/Huawei/iot_link/network/dtls/mbedtls/mbedtls-2.16.2/library\gcm.c ****     GCM_VALIDATE_RET( length == 0 || output != NULL );
 485:D:/fchai/work/i-cube/I-CUBE-HUAWEI/Middlewares/Third_Party/Huawei/iot_link/network/dtls/mbedtls/mbedtls-2.16.2/library\gcm.c ****     GCM_VALIDATE_RET( tag != NULL );
 486:D:/fchai/work/i-cube/I-CUBE-HUAWEI/Middlewares/Third_Party/Huawei/iot_link/network/dtls/mbedtls/mbedtls-2.16.2/library\gcm.c **** 
 487:D:/fchai/work/i-cube/I-CUBE-HUAWEI/Middlewares/Third_Party/Huawei/iot_link/network/dtls/mbedtls/mbedtls-2.16.2/library\gcm.c ****     if( ( ret = mbedtls_gcm_starts( ctx, mode, iv, iv_len, add, add_len ) ) != 0 )
 1481              		.loc 1 487 17 view .LVU536
ARM GAS  T:\msys\tmp\ccyunwdQ.s 			page 41


 1482 000a 0095     		str	r5, [sp]
 1483 000c 0194     		str	r4, [sp, #4]
 477:D:/fchai/work/i-cube/I-CUBE-HUAWEI/Middlewares/Third_Party/Huawei/iot_link/network/dtls/mbedtls/mbedtls-2.16.2/library\gcm.c ****     int ret;
 1484              		.loc 1 477 1 view .LVU537
 1485 000e 1546     		mov	r5, r2
 1486              		.loc 1 487 17 view .LVU538
 1487 0010 1A46     		mov	r2, r3
 1488              	.LVL134:
 1489              		.loc 1 487 17 view .LVU539
 1490 0012 0A9B     		ldr	r3, [sp, #40]
 1491              	.LVL135:
 477:D:/fchai/work/i-cube/I-CUBE-HUAWEI/Middlewares/Third_Party/Huawei/iot_link/network/dtls/mbedtls/mbedtls-2.16.2/library\gcm.c ****     int ret;
 1492              		.loc 1 477 1 view .LVU540
 1493 0014 DDE90D69 		ldrd	r6, r9, [sp, #52]
 1494 0018 DDE90F87 		ldrd	r8, r7, [sp, #60]
 1495 001c 0446     		mov	r4, r0
 478:D:/fchai/work/i-cube/I-CUBE-HUAWEI/Middlewares/Third_Party/Huawei/iot_link/network/dtls/mbedtls/mbedtls-2.16.2/library\gcm.c ****     int ret;
 1496              		.loc 1 478 5 is_stmt 1 view .LVU541
 480:D:/fchai/work/i-cube/I-CUBE-HUAWEI/Middlewares/Third_Party/Huawei/iot_link/network/dtls/mbedtls/mbedtls-2.16.2/library\gcm.c ****     GCM_VALIDATE_RET( iv != NULL );
 1497              		.loc 1 480 5 view .LVU542
 480:D:/fchai/work/i-cube/I-CUBE-HUAWEI/Middlewares/Third_Party/Huawei/iot_link/network/dtls/mbedtls/mbedtls-2.16.2/library\gcm.c ****     GCM_VALIDATE_RET( iv != NULL );
 1498              		.loc 1 480 5 view .LVU543
 480:D:/fchai/work/i-cube/I-CUBE-HUAWEI/Middlewares/Third_Party/Huawei/iot_link/network/dtls/mbedtls/mbedtls-2.16.2/library\gcm.c ****     GCM_VALIDATE_RET( iv != NULL );
 1499              		.loc 1 480 5 view .LVU544
 481:D:/fchai/work/i-cube/I-CUBE-HUAWEI/Middlewares/Third_Party/Huawei/iot_link/network/dtls/mbedtls/mbedtls-2.16.2/library\gcm.c ****     GCM_VALIDATE_RET( add_len == 0 || add != NULL );
 1500              		.loc 1 481 5 view .LVU545
 481:D:/fchai/work/i-cube/I-CUBE-HUAWEI/Middlewares/Third_Party/Huawei/iot_link/network/dtls/mbedtls/mbedtls-2.16.2/library\gcm.c ****     GCM_VALIDATE_RET( add_len == 0 || add != NULL );
 1501              		.loc 1 481 5 view .LVU546
 481:D:/fchai/work/i-cube/I-CUBE-HUAWEI/Middlewares/Third_Party/Huawei/iot_link/network/dtls/mbedtls/mbedtls-2.16.2/library\gcm.c ****     GCM_VALIDATE_RET( add_len == 0 || add != NULL );
 1502              		.loc 1 481 5 view .LVU547
 482:D:/fchai/work/i-cube/I-CUBE-HUAWEI/Middlewares/Third_Party/Huawei/iot_link/network/dtls/mbedtls/mbedtls-2.16.2/library\gcm.c ****     GCM_VALIDATE_RET( length == 0 || input != NULL );
 1503              		.loc 1 482 5 view .LVU548
 482:D:/fchai/work/i-cube/I-CUBE-HUAWEI/Middlewares/Third_Party/Huawei/iot_link/network/dtls/mbedtls/mbedtls-2.16.2/library\gcm.c ****     GCM_VALIDATE_RET( length == 0 || input != NULL );
 1504              		.loc 1 482 5 view .LVU549
 482:D:/fchai/work/i-cube/I-CUBE-HUAWEI/Middlewares/Third_Party/Huawei/iot_link/network/dtls/mbedtls/mbedtls-2.16.2/library\gcm.c ****     GCM_VALIDATE_RET( length == 0 || input != NULL );
 1505              		.loc 1 482 5 view .LVU550
 483:D:/fchai/work/i-cube/I-CUBE-HUAWEI/Middlewares/Third_Party/Huawei/iot_link/network/dtls/mbedtls/mbedtls-2.16.2/library\gcm.c ****     GCM_VALIDATE_RET( length == 0 || output != NULL );
 1506              		.loc 1 483 5 view .LVU551
 483:D:/fchai/work/i-cube/I-CUBE-HUAWEI/Middlewares/Third_Party/Huawei/iot_link/network/dtls/mbedtls/mbedtls-2.16.2/library\gcm.c ****     GCM_VALIDATE_RET( length == 0 || output != NULL );
 1507              		.loc 1 483 5 view .LVU552
 483:D:/fchai/work/i-cube/I-CUBE-HUAWEI/Middlewares/Third_Party/Huawei/iot_link/network/dtls/mbedtls/mbedtls-2.16.2/library\gcm.c ****     GCM_VALIDATE_RET( length == 0 || output != NULL );
 1508              		.loc 1 483 5 view .LVU553
 484:D:/fchai/work/i-cube/I-CUBE-HUAWEI/Middlewares/Third_Party/Huawei/iot_link/network/dtls/mbedtls/mbedtls-2.16.2/library\gcm.c ****     GCM_VALIDATE_RET( tag != NULL );
 1509              		.loc 1 484 5 view .LVU554
 484:D:/fchai/work/i-cube/I-CUBE-HUAWEI/Middlewares/Third_Party/Huawei/iot_link/network/dtls/mbedtls/mbedtls-2.16.2/library\gcm.c ****     GCM_VALIDATE_RET( tag != NULL );
 1510              		.loc 1 484 5 view .LVU555
 484:D:/fchai/work/i-cube/I-CUBE-HUAWEI/Middlewares/Third_Party/Huawei/iot_link/network/dtls/mbedtls/mbedtls-2.16.2/library\gcm.c ****     GCM_VALIDATE_RET( tag != NULL );
 1511              		.loc 1 484 5 view .LVU556
 485:D:/fchai/work/i-cube/I-CUBE-HUAWEI/Middlewares/Third_Party/Huawei/iot_link/network/dtls/mbedtls/mbedtls-2.16.2/library\gcm.c **** 
 1512              		.loc 1 485 5 view .LVU557
 485:D:/fchai/work/i-cube/I-CUBE-HUAWEI/Middlewares/Third_Party/Huawei/iot_link/network/dtls/mbedtls/mbedtls-2.16.2/library\gcm.c **** 
 1513              		.loc 1 485 5 view .LVU558
 485:D:/fchai/work/i-cube/I-CUBE-HUAWEI/Middlewares/Third_Party/Huawei/iot_link/network/dtls/mbedtls/mbedtls-2.16.2/library\gcm.c **** 
 1514              		.loc 1 485 5 view .LVU559
 1515              		.loc 1 487 5 view .LVU560
 1516              		.loc 1 487 17 is_stmt 0 view .LVU561
 1517 001e FFF7FEFF 		bl	mbedtls_gcm_starts
ARM GAS  T:\msys\tmp\ccyunwdQ.s 			page 42


 1518              	.LVL136:
 1519              		.loc 1 487 7 view .LVU562
 1520 0022 10B1     		cbz	r0, .L89
 1521              	.L86:
 488:D:/fchai/work/i-cube/I-CUBE-HUAWEI/Middlewares/Third_Party/Huawei/iot_link/network/dtls/mbedtls/mbedtls-2.16.2/library\gcm.c ****         return( ret );
 489:D:/fchai/work/i-cube/I-CUBE-HUAWEI/Middlewares/Third_Party/Huawei/iot_link/network/dtls/mbedtls/mbedtls-2.16.2/library\gcm.c **** 
 490:D:/fchai/work/i-cube/I-CUBE-HUAWEI/Middlewares/Third_Party/Huawei/iot_link/network/dtls/mbedtls/mbedtls-2.16.2/library\gcm.c ****     if( ( ret = mbedtls_gcm_update( ctx, length, input, output ) ) != 0 )
 491:D:/fchai/work/i-cube/I-CUBE-HUAWEI/Middlewares/Third_Party/Huawei/iot_link/network/dtls/mbedtls/mbedtls-2.16.2/library\gcm.c ****         return( ret );
 492:D:/fchai/work/i-cube/I-CUBE-HUAWEI/Middlewares/Third_Party/Huawei/iot_link/network/dtls/mbedtls/mbedtls-2.16.2/library\gcm.c **** 
 493:D:/fchai/work/i-cube/I-CUBE-HUAWEI/Middlewares/Third_Party/Huawei/iot_link/network/dtls/mbedtls/mbedtls-2.16.2/library\gcm.c ****     if( ( ret = mbedtls_gcm_finish( ctx, tag, tag_len ) ) != 0 )
 494:D:/fchai/work/i-cube/I-CUBE-HUAWEI/Middlewares/Third_Party/Huawei/iot_link/network/dtls/mbedtls/mbedtls-2.16.2/library\gcm.c ****         return( ret );
 495:D:/fchai/work/i-cube/I-CUBE-HUAWEI/Middlewares/Third_Party/Huawei/iot_link/network/dtls/mbedtls/mbedtls-2.16.2/library\gcm.c **** 
 496:D:/fchai/work/i-cube/I-CUBE-HUAWEI/Middlewares/Third_Party/Huawei/iot_link/network/dtls/mbedtls/mbedtls-2.16.2/library\gcm.c ****     return( 0 );
 497:D:/fchai/work/i-cube/I-CUBE-HUAWEI/Middlewares/Third_Party/Huawei/iot_link/network/dtls/mbedtls/mbedtls-2.16.2/library\gcm.c **** }
 1522              		.loc 1 497 1 view .LVU563
 1523 0024 03B0     		add	sp, sp, #12
 1524              	.LCFI25:
 1525              		.cfi_remember_state
 1526              		.cfi_def_cfa_offset 28
 1527              		@ sp needed
 1528 0026 BDE8F083 		pop	{r4, r5, r6, r7, r8, r9, pc}
 1529              	.LVL137:
 1530              	.L89:
 1531              	.LCFI26:
 1532              		.cfi_restore_state
 490:D:/fchai/work/i-cube/I-CUBE-HUAWEI/Middlewares/Third_Party/Huawei/iot_link/network/dtls/mbedtls/mbedtls-2.16.2/library\gcm.c ****         return( ret );
 1533              		.loc 1 490 5 is_stmt 1 view .LVU564
 490:D:/fchai/work/i-cube/I-CUBE-HUAWEI/Middlewares/Third_Party/Huawei/iot_link/network/dtls/mbedtls/mbedtls-2.16.2/library\gcm.c ****         return( ret );
 1534              		.loc 1 490 17 is_stmt 0 view .LVU565
 1535 002a 4B46     		mov	r3, r9
 1536 002c 3246     		mov	r2, r6
 1537 002e 2946     		mov	r1, r5
 1538 0030 2046     		mov	r0, r4
 1539              	.LVL138:
 490:D:/fchai/work/i-cube/I-CUBE-HUAWEI/Middlewares/Third_Party/Huawei/iot_link/network/dtls/mbedtls/mbedtls-2.16.2/library\gcm.c ****         return( ret );
 1540              		.loc 1 490 17 view .LVU566
 1541 0032 FFF7FEFF 		bl	mbedtls_gcm_update
 1542              	.LVL139:
 490:D:/fchai/work/i-cube/I-CUBE-HUAWEI/Middlewares/Third_Party/Huawei/iot_link/network/dtls/mbedtls/mbedtls-2.16.2/library\gcm.c ****         return( ret );
 1543              		.loc 1 490 7 view .LVU567
 1544 0036 0028     		cmp	r0, #0
 1545 0038 F4D1     		bne	.L86
 1546              	.LVL140:
 1547              	.LBB14:
 1548              	.LBI14:
 466:D:/fchai/work/i-cube/I-CUBE-HUAWEI/Middlewares/Third_Party/Huawei/iot_link/network/dtls/mbedtls/mbedtls-2.16.2/library\gcm.c ****                        int mode,
 1549              		.loc 1 466 5 is_stmt 1 view .LVU568
 1550              	.LBB15:
 493:D:/fchai/work/i-cube/I-CUBE-HUAWEI/Middlewares/Third_Party/Huawei/iot_link/network/dtls/mbedtls/mbedtls-2.16.2/library\gcm.c ****         return( ret );
 1551              		.loc 1 493 5 view .LVU569
 493:D:/fchai/work/i-cube/I-CUBE-HUAWEI/Middlewares/Third_Party/Huawei/iot_link/network/dtls/mbedtls/mbedtls-2.16.2/library\gcm.c ****         return( ret );
 1552              		.loc 1 493 17 is_stmt 0 view .LVU570
 1553 003a 4246     		mov	r2, r8
 1554 003c 3946     		mov	r1, r7
 1555 003e 2046     		mov	r0, r4
 1556              	.LVL141:
 493:D:/fchai/work/i-cube/I-CUBE-HUAWEI/Middlewares/Third_Party/Huawei/iot_link/network/dtls/mbedtls/mbedtls-2.16.2/library\gcm.c ****         return( ret );
ARM GAS  T:\msys\tmp\ccyunwdQ.s 			page 43


 1557              		.loc 1 493 17 view .LVU571
 1558              	.LBE15:
 1559              	.LBE14:
 1560              		.loc 1 497 1 view .LVU572
 1561 0040 03B0     		add	sp, sp, #12
 1562              	.LCFI27:
 1563              		.cfi_def_cfa_offset 28
 1564              		@ sp needed
 1565 0042 BDE8F043 		pop	{r4, r5, r6, r7, r8, r9, lr}
 1566              	.LCFI28:
 1567              		.cfi_restore 14
 1568              		.cfi_restore 9
 1569              		.cfi_restore 8
 1570              		.cfi_restore 7
 1571              		.cfi_restore 6
 1572              		.cfi_restore 5
 1573              		.cfi_restore 4
 1574              		.cfi_def_cfa_offset 0
 1575              	.LVL142:
 1576              	.LBB17:
 1577              	.LBB16:
 493:D:/fchai/work/i-cube/I-CUBE-HUAWEI/Middlewares/Third_Party/Huawei/iot_link/network/dtls/mbedtls/mbedtls-2.16.2/library\gcm.c ****         return( ret );
 1578              		.loc 1 493 17 view .LVU573
 1579 0046 FFF7FEBF 		b	mbedtls_gcm_finish
 1580              	.LVL143:
 493:D:/fchai/work/i-cube/I-CUBE-HUAWEI/Middlewares/Third_Party/Huawei/iot_link/network/dtls/mbedtls/mbedtls-2.16.2/library\gcm.c ****         return( ret );
 1581              		.loc 1 493 17 view .LVU574
 1582              	.LBE16:
 1583              	.LBE17:
 1584              		.cfi_endproc
 1585              	.LFE14:
 1587 004a 00BF     		.section	.text.mbedtls_gcm_auth_decrypt,"ax",%progbits
 1588              		.align	1
 1589              		.p2align 2,,3
 1590              		.global	mbedtls_gcm_auth_decrypt
 1591              		.syntax unified
 1592              		.thumb
 1593              		.thumb_func
 1594              		.fpu fpv4-sp-d16
 1596              	mbedtls_gcm_auth_decrypt:
 1597              	.LVL144:
 1598              	.LFB15:
 498:D:/fchai/work/i-cube/I-CUBE-HUAWEI/Middlewares/Third_Party/Huawei/iot_link/network/dtls/mbedtls/mbedtls-2.16.2/library\gcm.c **** 
 499:D:/fchai/work/i-cube/I-CUBE-HUAWEI/Middlewares/Third_Party/Huawei/iot_link/network/dtls/mbedtls/mbedtls-2.16.2/library\gcm.c **** int mbedtls_gcm_auth_decrypt( mbedtls_gcm_context *ctx,
 500:D:/fchai/work/i-cube/I-CUBE-HUAWEI/Middlewares/Third_Party/Huawei/iot_link/network/dtls/mbedtls/mbedtls-2.16.2/library\gcm.c ****                       size_t length,
 501:D:/fchai/work/i-cube/I-CUBE-HUAWEI/Middlewares/Third_Party/Huawei/iot_link/network/dtls/mbedtls/mbedtls-2.16.2/library\gcm.c ****                       const unsigned char *iv,
 502:D:/fchai/work/i-cube/I-CUBE-HUAWEI/Middlewares/Third_Party/Huawei/iot_link/network/dtls/mbedtls/mbedtls-2.16.2/library\gcm.c ****                       size_t iv_len,
 503:D:/fchai/work/i-cube/I-CUBE-HUAWEI/Middlewares/Third_Party/Huawei/iot_link/network/dtls/mbedtls/mbedtls-2.16.2/library\gcm.c ****                       const unsigned char *add,
 504:D:/fchai/work/i-cube/I-CUBE-HUAWEI/Middlewares/Third_Party/Huawei/iot_link/network/dtls/mbedtls/mbedtls-2.16.2/library\gcm.c ****                       size_t add_len,
 505:D:/fchai/work/i-cube/I-CUBE-HUAWEI/Middlewares/Third_Party/Huawei/iot_link/network/dtls/mbedtls/mbedtls-2.16.2/library\gcm.c ****                       const unsigned char *tag,
 506:D:/fchai/work/i-cube/I-CUBE-HUAWEI/Middlewares/Third_Party/Huawei/iot_link/network/dtls/mbedtls/mbedtls-2.16.2/library\gcm.c ****                       size_t tag_len,
 507:D:/fchai/work/i-cube/I-CUBE-HUAWEI/Middlewares/Third_Party/Huawei/iot_link/network/dtls/mbedtls/mbedtls-2.16.2/library\gcm.c ****                       const unsigned char *input,
 508:D:/fchai/work/i-cube/I-CUBE-HUAWEI/Middlewares/Third_Party/Huawei/iot_link/network/dtls/mbedtls/mbedtls-2.16.2/library\gcm.c ****                       unsigned char *output )
 509:D:/fchai/work/i-cube/I-CUBE-HUAWEI/Middlewares/Third_Party/Huawei/iot_link/network/dtls/mbedtls/mbedtls-2.16.2/library\gcm.c **** {
 1599              		.loc 1 509 1 is_stmt 1 view -0
 1600              		.cfi_startproc
 1601              		@ args = 24, pretend = 0, frame = 16
ARM GAS  T:\msys\tmp\ccyunwdQ.s 			page 44


 1602              		@ frame_needed = 0, uses_anonymous_args = 0
 1603              		.loc 1 509 1 is_stmt 0 view .LVU576
 1604 0000 2DE9F043 		push	{r4, r5, r6, r7, r8, r9, lr}
 1605              	.LCFI29:
 1606              		.cfi_def_cfa_offset 28
 1607              		.cfi_offset 4, -28
 1608              		.cfi_offset 5, -24
 1609              		.cfi_offset 6, -20
 1610              		.cfi_offset 7, -16
 1611              		.cfi_offset 8, -12
 1612              		.cfi_offset 9, -8
 1613              		.cfi_offset 14, -4
 1614 0004 8DB0     		sub	sp, sp, #52
 1615              	.LCFI30:
 1616              		.cfi_def_cfa_offset 80
 1617              		.loc 1 509 1 view .LVU577
 1618 0006 0E46     		mov	r6, r1
 1619 0008 159D     		ldr	r5, [sp, #84]
 510:D:/fchai/work/i-cube/I-CUBE-HUAWEI/Middlewares/Third_Party/Huawei/iot_link/network/dtls/mbedtls/mbedtls-2.16.2/library\gcm.c ****     int ret;
 1620              		.loc 1 510 5 is_stmt 1 view .LVU578
 511:D:/fchai/work/i-cube/I-CUBE-HUAWEI/Middlewares/Third_Party/Huawei/iot_link/network/dtls/mbedtls/mbedtls-2.16.2/library\gcm.c ****     unsigned char check_tag[16];
 1621              		.loc 1 511 5 view .LVU579
 512:D:/fchai/work/i-cube/I-CUBE-HUAWEI/Middlewares/Third_Party/Huawei/iot_link/network/dtls/mbedtls/mbedtls-2.16.2/library\gcm.c ****     size_t i;
 1622              		.loc 1 512 5 view .LVU580
 513:D:/fchai/work/i-cube/I-CUBE-HUAWEI/Middlewares/Third_Party/Huawei/iot_link/network/dtls/mbedtls/mbedtls-2.16.2/library\gcm.c ****     int diff;
 1623              		.loc 1 513 5 view .LVU581
 514:D:/fchai/work/i-cube/I-CUBE-HUAWEI/Middlewares/Third_Party/Huawei/iot_link/network/dtls/mbedtls/mbedtls-2.16.2/library\gcm.c **** 
 515:D:/fchai/work/i-cube/I-CUBE-HUAWEI/Middlewares/Third_Party/Huawei/iot_link/network/dtls/mbedtls/mbedtls-2.16.2/library\gcm.c ****     GCM_VALIDATE_RET( ctx != NULL );
 1624              		.loc 1 515 5 view .LVU582
 1625              		.loc 1 515 5 view .LVU583
 1626              		.loc 1 515 5 view .LVU584
 516:D:/fchai/work/i-cube/I-CUBE-HUAWEI/Middlewares/Third_Party/Huawei/iot_link/network/dtls/mbedtls/mbedtls-2.16.2/library\gcm.c ****     GCM_VALIDATE_RET( iv != NULL );
 1627              		.loc 1 516 5 view .LVU585
 1628              		.loc 1 516 5 view .LVU586
 1629              		.loc 1 516 5 view .LVU587
 517:D:/fchai/work/i-cube/I-CUBE-HUAWEI/Middlewares/Third_Party/Huawei/iot_link/network/dtls/mbedtls/mbedtls-2.16.2/library\gcm.c ****     GCM_VALIDATE_RET( add_len == 0 || add != NULL );
 1630              		.loc 1 517 5 view .LVU588
 1631              		.loc 1 517 5 view .LVU589
 1632              		.loc 1 517 5 view .LVU590
 518:D:/fchai/work/i-cube/I-CUBE-HUAWEI/Middlewares/Third_Party/Huawei/iot_link/network/dtls/mbedtls/mbedtls-2.16.2/library\gcm.c ****     GCM_VALIDATE_RET( tag != NULL );
 1633              		.loc 1 518 5 view .LVU591
 1634              		.loc 1 518 5 view .LVU592
 1635              		.loc 1 518 5 view .LVU593
 519:D:/fchai/work/i-cube/I-CUBE-HUAWEI/Middlewares/Third_Party/Huawei/iot_link/network/dtls/mbedtls/mbedtls-2.16.2/library\gcm.c ****     GCM_VALIDATE_RET( length == 0 || input != NULL );
 1636              		.loc 1 519 5 view .LVU594
 1637              		.loc 1 519 5 view .LVU595
 1638              		.loc 1 519 5 view .LVU596
 520:D:/fchai/work/i-cube/I-CUBE-HUAWEI/Middlewares/Third_Party/Huawei/iot_link/network/dtls/mbedtls/mbedtls-2.16.2/library\gcm.c ****     GCM_VALIDATE_RET( length == 0 || output != NULL );
 1639              		.loc 1 520 5 view .LVU597
 1640              		.loc 1 520 5 view .LVU598
 1641              		.loc 1 520 5 view .LVU599
 521:D:/fchai/work/i-cube/I-CUBE-HUAWEI/Middlewares/Third_Party/Huawei/iot_link/network/dtls/mbedtls/mbedtls-2.16.2/library\gcm.c **** 
 522:D:/fchai/work/i-cube/I-CUBE-HUAWEI/Middlewares/Third_Party/Huawei/iot_link/network/dtls/mbedtls/mbedtls-2.16.2/library\gcm.c ****     if( ( ret = mbedtls_gcm_crypt_and_tag( ctx, MBEDTLS_GCM_DECRYPT, length,
 1642              		.loc 1 522 5 view .LVU600
 1643              		.loc 1 522 17 is_stmt 0 view .LVU601
 1644 000a 0093     		str	r3, [sp]
 1645 000c 1346     		mov	r3, r2
ARM GAS  T:\msys\tmp\ccyunwdQ.s 			page 45


 1646              	.LVL145:
 1647              		.loc 1 522 17 view .LVU602
 1648 000e 0A46     		mov	r2, r1
 1649              	.LVL146:
 1650              		.loc 1 522 17 view .LVU603
 1651 0010 1499     		ldr	r1, [sp, #80]
 1652              	.LVL147:
 509:D:/fchai/work/i-cube/I-CUBE-HUAWEI/Middlewares/Third_Party/Huawei/iot_link/network/dtls/mbedtls/mbedtls-2.16.2/library\gcm.c ****     int ret;
 1653              		.loc 1 509 1 view .LVU604
 1654 0012 179C     		ldr	r4, [sp, #92]
 1655              		.loc 1 522 17 view .LVU605
 1656 0014 0594     		str	r4, [sp, #20]
 1657 0016 CDE90115 		strd	r1, r5, [sp, #4]
 1658 001a 1899     		ldr	r1, [sp, #96]
 1659 001c 0391     		str	r1, [sp, #12]
 1660 001e 08AF     		add	r7, sp, #32
 1661 0020 1999     		ldr	r1, [sp, #100]
 1662 0022 0491     		str	r1, [sp, #16]
 1663 0024 0697     		str	r7, [sp, #24]
 1664 0026 0021     		movs	r1, #0
 509:D:/fchai/work/i-cube/I-CUBE-HUAWEI/Middlewares/Third_Party/Huawei/iot_link/network/dtls/mbedtls/mbedtls-2.16.2/library\gcm.c ****     int ret;
 1665              		.loc 1 509 1 view .LVU606
 1666 0028 169D     		ldr	r5, [sp, #88]
 1667              		.loc 1 522 17 view .LVU607
 1668 002a FFF7FEFF 		bl	mbedtls_gcm_crypt_and_tag
 1669              	.LVL148:
 1670              		.loc 1 522 7 view .LVU608
 1671 002e 88B9     		cbnz	r0, .L90
 1672              	.LVL149:
 523:D:/fchai/work/i-cube/I-CUBE-HUAWEI/Middlewares/Third_Party/Huawei/iot_link/network/dtls/mbedtls/mbedtls-2.16.2/library\gcm.c ****                                    iv, iv_len, add, add_len,
 524:D:/fchai/work/i-cube/I-CUBE-HUAWEI/Middlewares/Third_Party/Huawei/iot_link/network/dtls/mbedtls/mbedtls-2.16.2/library\gcm.c ****                                    input, output, tag_len, check_tag ) ) != 0 )
 525:D:/fchai/work/i-cube/I-CUBE-HUAWEI/Middlewares/Third_Party/Huawei/iot_link/network/dtls/mbedtls/mbedtls-2.16.2/library\gcm.c ****     {
 526:D:/fchai/work/i-cube/I-CUBE-HUAWEI/Middlewares/Third_Party/Huawei/iot_link/network/dtls/mbedtls/mbedtls-2.16.2/library\gcm.c ****         return( ret );
 527:D:/fchai/work/i-cube/I-CUBE-HUAWEI/Middlewares/Third_Party/Huawei/iot_link/network/dtls/mbedtls/mbedtls-2.16.2/library\gcm.c ****     }
 528:D:/fchai/work/i-cube/I-CUBE-HUAWEI/Middlewares/Third_Party/Huawei/iot_link/network/dtls/mbedtls/mbedtls-2.16.2/library\gcm.c **** 
 529:D:/fchai/work/i-cube/I-CUBE-HUAWEI/Middlewares/Third_Party/Huawei/iot_link/network/dtls/mbedtls/mbedtls-2.16.2/library\gcm.c ****     /* Check tag in "constant-time" */
 530:D:/fchai/work/i-cube/I-CUBE-HUAWEI/Middlewares/Third_Party/Huawei/iot_link/network/dtls/mbedtls/mbedtls-2.16.2/library\gcm.c ****     for( diff = 0, i = 0; i < tag_len; i++ )
 1673              		.loc 1 530 27 is_stmt 1 view .LVU609
 1674              		.loc 1 530 5 is_stmt 0 view .LVU610
 1675 0030 84B1     		cbz	r4, .L90
 1676 0032 05EB0409 		add	r9, r5, r4
 1677 0036 09F1FF39 		add	r9, r9, #-1
 1678 003a 6A1E     		subs	r2, r5, #1
 1679 003c B846     		mov	r8, r7
 1680              	.LVL150:
 1681              	.L92:
 531:D:/fchai/work/i-cube/I-CUBE-HUAWEI/Middlewares/Third_Party/Huawei/iot_link/network/dtls/mbedtls/mbedtls-2.16.2/library\gcm.c ****         diff |= tag[i] ^ check_tag[i];
 1682              		.loc 1 531 9 is_stmt 1 discriminator 3 view .LVU611
 1683              		.loc 1 531 24 is_stmt 0 discriminator 3 view .LVU612
 1684 003e 12F8011F 		ldrb	r1, [r2, #1]!	@ zero_extendqisi2
 1685              	.LVL151:
 1686              		.loc 1 531 35 discriminator 3 view .LVU613
 1687 0042 18F8013B 		ldrb	r3, [r8], #1	@ zero_extendqisi2
 530:D:/fchai/work/i-cube/I-CUBE-HUAWEI/Middlewares/Third_Party/Huawei/iot_link/network/dtls/mbedtls/mbedtls-2.16.2/library\gcm.c ****         diff |= tag[i] ^ check_tag[i];
 1688              		.loc 1 530 5 discriminator 3 view .LVU614
 1689 0046 4A45     		cmp	r2, r9
 1690              		.loc 1 531 24 discriminator 3 view .LVU615
ARM GAS  T:\msys\tmp\ccyunwdQ.s 			page 46


 1691 0048 83EA0103 		eor	r3, r3, r1
 1692              		.loc 1 531 14 discriminator 3 view .LVU616
 1693 004c 40EA0300 		orr	r0, r0, r3
 1694              	.LVL152:
 530:D:/fchai/work/i-cube/I-CUBE-HUAWEI/Middlewares/Third_Party/Huawei/iot_link/network/dtls/mbedtls/mbedtls-2.16.2/library\gcm.c ****         diff |= tag[i] ^ check_tag[i];
 1695              		.loc 1 530 40 is_stmt 1 discriminator 3 view .LVU617
 530:D:/fchai/work/i-cube/I-CUBE-HUAWEI/Middlewares/Third_Party/Huawei/iot_link/network/dtls/mbedtls/mbedtls-2.16.2/library\gcm.c ****         diff |= tag[i] ^ check_tag[i];
 1696              		.loc 1 530 27 discriminator 3 view .LVU618
 530:D:/fchai/work/i-cube/I-CUBE-HUAWEI/Middlewares/Third_Party/Huawei/iot_link/network/dtls/mbedtls/mbedtls-2.16.2/library\gcm.c ****         diff |= tag[i] ^ check_tag[i];
 1697              		.loc 1 530 5 is_stmt 0 discriminator 3 view .LVU619
 1698 0050 F5D1     		bne	.L92
 532:D:/fchai/work/i-cube/I-CUBE-HUAWEI/Middlewares/Third_Party/Huawei/iot_link/network/dtls/mbedtls/mbedtls-2.16.2/library\gcm.c **** 
 533:D:/fchai/work/i-cube/I-CUBE-HUAWEI/Middlewares/Third_Party/Huawei/iot_link/network/dtls/mbedtls/mbedtls-2.16.2/library\gcm.c ****     if( diff != 0 )
 1699              		.loc 1 533 5 is_stmt 1 view .LVU620
 1700              		.loc 1 533 7 is_stmt 0 view .LVU621
 1701 0052 10B9     		cbnz	r0, .L101
 1702              	.LVL153:
 1703              	.L90:
 534:D:/fchai/work/i-cube/I-CUBE-HUAWEI/Middlewares/Third_Party/Huawei/iot_link/network/dtls/mbedtls/mbedtls-2.16.2/library\gcm.c ****     {
 535:D:/fchai/work/i-cube/I-CUBE-HUAWEI/Middlewares/Third_Party/Huawei/iot_link/network/dtls/mbedtls/mbedtls-2.16.2/library\gcm.c ****         mbedtls_platform_zeroize( output, length );
 536:D:/fchai/work/i-cube/I-CUBE-HUAWEI/Middlewares/Third_Party/Huawei/iot_link/network/dtls/mbedtls/mbedtls-2.16.2/library\gcm.c ****         return( MBEDTLS_ERR_GCM_AUTH_FAILED );
 537:D:/fchai/work/i-cube/I-CUBE-HUAWEI/Middlewares/Third_Party/Huawei/iot_link/network/dtls/mbedtls/mbedtls-2.16.2/library\gcm.c ****     }
 538:D:/fchai/work/i-cube/I-CUBE-HUAWEI/Middlewares/Third_Party/Huawei/iot_link/network/dtls/mbedtls/mbedtls-2.16.2/library\gcm.c **** 
 539:D:/fchai/work/i-cube/I-CUBE-HUAWEI/Middlewares/Third_Party/Huawei/iot_link/network/dtls/mbedtls/mbedtls-2.16.2/library\gcm.c ****     return( 0 );
 540:D:/fchai/work/i-cube/I-CUBE-HUAWEI/Middlewares/Third_Party/Huawei/iot_link/network/dtls/mbedtls/mbedtls-2.16.2/library\gcm.c **** }
 1704              		.loc 1 540 1 view .LVU622
 1705 0054 0DB0     		add	sp, sp, #52
 1706              	.LCFI31:
 1707              		.cfi_remember_state
 1708              		.cfi_def_cfa_offset 28
 1709              		@ sp needed
 1710 0056 BDE8F083 		pop	{r4, r5, r6, r7, r8, r9, pc}
 1711              	.LVL154:
 1712              	.L101:
 1713              	.LCFI32:
 1714              		.cfi_restore_state
 535:D:/fchai/work/i-cube/I-CUBE-HUAWEI/Middlewares/Third_Party/Huawei/iot_link/network/dtls/mbedtls/mbedtls-2.16.2/library\gcm.c ****         return( MBEDTLS_ERR_GCM_AUTH_FAILED );
 1715              		.loc 1 535 9 is_stmt 1 view .LVU623
 1716 005a 1998     		ldr	r0, [sp, #100]
 1717              	.LVL155:
 535:D:/fchai/work/i-cube/I-CUBE-HUAWEI/Middlewares/Third_Party/Huawei/iot_link/network/dtls/mbedtls/mbedtls-2.16.2/library\gcm.c ****         return( MBEDTLS_ERR_GCM_AUTH_FAILED );
 1718              		.loc 1 535 9 is_stmt 0 view .LVU624
 1719 005c 3146     		mov	r1, r6
 1720 005e FFF7FEFF 		bl	mbedtls_platform_zeroize
 1721              	.LVL156:
 536:D:/fchai/work/i-cube/I-CUBE-HUAWEI/Middlewares/Third_Party/Huawei/iot_link/network/dtls/mbedtls/mbedtls-2.16.2/library\gcm.c ****     }
 1722              		.loc 1 536 9 is_stmt 1 view .LVU625
 536:D:/fchai/work/i-cube/I-CUBE-HUAWEI/Middlewares/Third_Party/Huawei/iot_link/network/dtls/mbedtls/mbedtls-2.16.2/library\gcm.c ****     }
 1723              		.loc 1 536 15 is_stmt 0 view .LVU626
 1724 0062 6FF01100 		mvn	r0, #17
 1725 0066 F5E7     		b	.L90
 1726              		.cfi_endproc
 1727              	.LFE15:
 1729              		.section	.text.mbedtls_gcm_free,"ax",%progbits
 1730              		.align	1
 1731              		.p2align 2,,3
 1732              		.global	mbedtls_gcm_free
ARM GAS  T:\msys\tmp\ccyunwdQ.s 			page 47


 1733              		.syntax unified
 1734              		.thumb
 1735              		.thumb_func
 1736              		.fpu fpv4-sp-d16
 1738              	mbedtls_gcm_free:
 1739              	.LVL157:
 1740              	.LFB16:
 541:D:/fchai/work/i-cube/I-CUBE-HUAWEI/Middlewares/Third_Party/Huawei/iot_link/network/dtls/mbedtls/mbedtls-2.16.2/library\gcm.c **** 
 542:D:/fchai/work/i-cube/I-CUBE-HUAWEI/Middlewares/Third_Party/Huawei/iot_link/network/dtls/mbedtls/mbedtls-2.16.2/library\gcm.c **** void mbedtls_gcm_free( mbedtls_gcm_context *ctx )
 543:D:/fchai/work/i-cube/I-CUBE-HUAWEI/Middlewares/Third_Party/Huawei/iot_link/network/dtls/mbedtls/mbedtls-2.16.2/library\gcm.c **** {
 1741              		.loc 1 543 1 is_stmt 1 view -0
 1742              		.cfi_startproc
 1743              		@ args = 0, pretend = 0, frame = 0
 1744              		@ frame_needed = 0, uses_anonymous_args = 0
 544:D:/fchai/work/i-cube/I-CUBE-HUAWEI/Middlewares/Third_Party/Huawei/iot_link/network/dtls/mbedtls/mbedtls-2.16.2/library\gcm.c ****     if( ctx == NULL )
 1745              		.loc 1 544 5 view .LVU628
 1746              		.loc 1 544 7 is_stmt 0 view .LVU629
 1747 0000 50B1     		cbz	r0, .L102
 543:D:/fchai/work/i-cube/I-CUBE-HUAWEI/Middlewares/Third_Party/Huawei/iot_link/network/dtls/mbedtls/mbedtls-2.16.2/library\gcm.c ****     if( ctx == NULL )
 1748              		.loc 1 543 1 view .LVU630
 1749 0002 10B5     		push	{r4, lr}
 1750              	.LCFI33:
 1751              		.cfi_def_cfa_offset 8
 1752              		.cfi_offset 4, -8
 1753              		.cfi_offset 14, -4
 1754 0004 0446     		mov	r4, r0
 545:D:/fchai/work/i-cube/I-CUBE-HUAWEI/Middlewares/Third_Party/Huawei/iot_link/network/dtls/mbedtls/mbedtls-2.16.2/library\gcm.c ****         return;
 546:D:/fchai/work/i-cube/I-CUBE-HUAWEI/Middlewares/Third_Party/Huawei/iot_link/network/dtls/mbedtls/mbedtls-2.16.2/library\gcm.c ****     mbedtls_cipher_free( &ctx->cipher_ctx );
 1755              		.loc 1 546 5 is_stmt 1 view .LVU631
 1756 0006 FFF7FEFF 		bl	mbedtls_cipher_free
 1757              	.LVL158:
 547:D:/fchai/work/i-cube/I-CUBE-HUAWEI/Middlewares/Third_Party/Huawei/iot_link/network/dtls/mbedtls/mbedtls-2.16.2/library\gcm.c ****     mbedtls_platform_zeroize( ctx, sizeof( mbedtls_gcm_context ) );
 1758              		.loc 1 547 5 view .LVU632
 1759 000a 2046     		mov	r0, r4
 1760 000c 4FF4C471 		mov	r1, #392
 548:D:/fchai/work/i-cube/I-CUBE-HUAWEI/Middlewares/Third_Party/Huawei/iot_link/network/dtls/mbedtls/mbedtls-2.16.2/library\gcm.c **** }
 1761              		.loc 1 548 1 is_stmt 0 view .LVU633
 1762 0010 BDE81040 		pop	{r4, lr}
 1763              	.LCFI34:
 1764              		.cfi_restore 14
 1765              		.cfi_restore 4
 1766              		.cfi_def_cfa_offset 0
 1767              	.LVL159:
 547:D:/fchai/work/i-cube/I-CUBE-HUAWEI/Middlewares/Third_Party/Huawei/iot_link/network/dtls/mbedtls/mbedtls-2.16.2/library\gcm.c ****     mbedtls_platform_zeroize( ctx, sizeof( mbedtls_gcm_context ) );
 1768              		.loc 1 547 5 view .LVU634
 1769 0014 FFF7FEBF 		b	mbedtls_platform_zeroize
 1770              	.LVL160:
 1771              	.L102:
 547:D:/fchai/work/i-cube/I-CUBE-HUAWEI/Middlewares/Third_Party/Huawei/iot_link/network/dtls/mbedtls/mbedtls-2.16.2/library\gcm.c ****     mbedtls_platform_zeroize( ctx, sizeof( mbedtls_gcm_context ) );
 1772              		.loc 1 547 5 view .LVU635
 1773 0018 7047     		bx	lr
 1774              		.cfi_endproc
 1775              	.LFE16:
 1777 001a 00BF     		.section	.rodata.last4,"a"
 1778              		.align	3
 1779              		.set	.LANCHOR0,. + 0
 1782              	last4:
ARM GAS  T:\msys\tmp\ccyunwdQ.s 			page 48


 1783 0000 00000000 		.word	0
 1784 0004 00000000 		.word	0
 1785 0008 201C0000 		.word	7200
 1786 000c 00000000 		.word	0
 1787 0010 40380000 		.word	14400
 1788 0014 00000000 		.word	0
 1789 0018 60240000 		.word	9312
 1790 001c 00000000 		.word	0
 1791 0020 80700000 		.word	28800
 1792 0024 00000000 		.word	0
 1793 0028 A06C0000 		.word	27808
 1794 002c 00000000 		.word	0
 1795 0030 C0480000 		.word	18624
 1796 0034 00000000 		.word	0
 1797 0038 E0540000 		.word	21728
 1798 003c 00000000 		.word	0
 1799 0040 00E10000 		.word	57600
 1800 0044 00000000 		.word	0
 1801 0048 20FD0000 		.word	64800
 1802 004c 00000000 		.word	0
 1803 0050 40D90000 		.word	55616
 1804 0054 00000000 		.word	0
 1805 0058 60C50000 		.word	50528
 1806 005c 00000000 		.word	0
 1807 0060 80910000 		.word	37248
 1808 0064 00000000 		.word	0
 1809 0068 A08D0000 		.word	36256
 1810 006c 00000000 		.word	0
 1811 0070 C0A90000 		.word	43456
 1812 0074 00000000 		.word	0
 1813 0078 E0B50000 		.word	46560
 1814 007c 00000000 		.word	0
 1815              		.text
 1816              	.Letext0:
 1817              		.file 2 "t:\\msys\\3rd\\gcc-arm-none-eabi-9-2020-q2-update-win32\\arm-none-eabi\\include\\machine\
 1818              		.file 3 "t:\\msys\\3rd\\gcc-arm-none-eabi-9-2020-q2-update-win32\\lib\\gcc\\arm-none-eabi\\9.3.1\\
 1819              		.file 4 "D:/fchai/work/i-cube/I-CUBE-HUAWEI/Middlewares/Third_Party/Huawei/iot_link/network/dtls/m
 1820              		.file 5 "t:\\msys\\3rd\\gcc-arm-none-eabi-9-2020-q2-update-win32\\arm-none-eabi\\include\\sys\\_st
 1821              		.file 6 "D:/fchai/work/i-cube/I-CUBE-HUAWEI/Middlewares/Third_Party/Huawei/iot_link/network/dtls/m
 1822              		.file 7 "t:\\msys\\3rd\\gcc-arm-none-eabi-9-2020-q2-update-win32\\arm-none-eabi\\include\\sys\\_ty
 1823              		.file 8 "t:\\msys\\3rd\\gcc-arm-none-eabi-9-2020-q2-update-win32\\arm-none-eabi\\include\\sys\\ree
 1824              		.file 9 "t:\\msys\\3rd\\gcc-arm-none-eabi-9-2020-q2-update-win32\\arm-none-eabi\\include\\sys\\loc
 1825              		.file 10 "D:/fchai/work/i-cube/I-CUBE-HUAWEI/Middlewares/Third_Party/Huawei/iot_link/network/dtls/
 1826              		.file 11 "<built-in>"
ARM GAS  T:\msys\tmp\ccyunwdQ.s 			page 49

