ARM GAS  T:\msys\tmp\cc3NNrif.s 			page 1


   1              		.cpu cortex-m4
   2              		.eabi_attribute 27, 1
   3              		.eabi_attribute 28, 1
   4              		.eabi_attribute 20, 1
   5              		.eabi_attribute 21, 1
   6              		.eabi_attribute 23, 3
   7              		.eabi_attribute 24, 1
   8              		.eabi_attribute 25, 1
   9              		.eabi_attribute 26, 1
  10              		.eabi_attribute 30, 2
  11              		.eabi_attribute 34, 1
  12              		.eabi_attribute 18, 4
  13              		.file	"md.c"
  14              		.text
  15              	.Ltext0:
  16              		.cfi_sections	.debug_frame
  17              		.section	.text.mbedtls_md_list,"ax",%progbits
  18              		.align	1
  19              		.p2align 2,,3
  20              		.global	mbedtls_md_list
  21              		.arch armv7e-m
  22              		.syntax unified
  23              		.thumb
  24              		.thumb_func
  25              		.fpu fpv4-sp-d16
  27              	mbedtls_md_list:
  28              	.LFB3:
  29              		.file 1 "D:/fchai/work/i-cube/I-CUBE-HUAWEI/Middlewares/Third_Party/Huawei/iot_link/network/dtls/m
   1:D:/fchai/work/i-cube/I-CUBE-HUAWEI/Middlewares/Third_Party/Huawei/iot_link/network/dtls/mbedtls/mbedtls-2.16.2/library\md.c **** /**
   2:D:/fchai/work/i-cube/I-CUBE-HUAWEI/Middlewares/Third_Party/Huawei/iot_link/network/dtls/mbedtls/mbedtls-2.16.2/library\md.c ****  * \file mbedtls_md.c
   3:D:/fchai/work/i-cube/I-CUBE-HUAWEI/Middlewares/Third_Party/Huawei/iot_link/network/dtls/mbedtls/mbedtls-2.16.2/library\md.c ****  *
   4:D:/fchai/work/i-cube/I-CUBE-HUAWEI/Middlewares/Third_Party/Huawei/iot_link/network/dtls/mbedtls/mbedtls-2.16.2/library\md.c ****  * \brief Generic message digest wrapper for mbed TLS
   5:D:/fchai/work/i-cube/I-CUBE-HUAWEI/Middlewares/Third_Party/Huawei/iot_link/network/dtls/mbedtls/mbedtls-2.16.2/library\md.c ****  *
   6:D:/fchai/work/i-cube/I-CUBE-HUAWEI/Middlewares/Third_Party/Huawei/iot_link/network/dtls/mbedtls/mbedtls-2.16.2/library\md.c ****  * \author Adriaan de Jong <dejong@fox-it.com>
   7:D:/fchai/work/i-cube/I-CUBE-HUAWEI/Middlewares/Third_Party/Huawei/iot_link/network/dtls/mbedtls/mbedtls-2.16.2/library\md.c ****  *
   8:D:/fchai/work/i-cube/I-CUBE-HUAWEI/Middlewares/Third_Party/Huawei/iot_link/network/dtls/mbedtls/mbedtls-2.16.2/library\md.c ****  *  Copyright (C) 2006-2015, ARM Limited, All Rights Reserved
   9:D:/fchai/work/i-cube/I-CUBE-HUAWEI/Middlewares/Third_Party/Huawei/iot_link/network/dtls/mbedtls/mbedtls-2.16.2/library\md.c ****  *  SPDX-License-Identifier: Apache-2.0
  10:D:/fchai/work/i-cube/I-CUBE-HUAWEI/Middlewares/Third_Party/Huawei/iot_link/network/dtls/mbedtls/mbedtls-2.16.2/library\md.c ****  *
  11:D:/fchai/work/i-cube/I-CUBE-HUAWEI/Middlewares/Third_Party/Huawei/iot_link/network/dtls/mbedtls/mbedtls-2.16.2/library\md.c ****  *  Licensed under the Apache License, Version 2.0 (the "License"); you may
  12:D:/fchai/work/i-cube/I-CUBE-HUAWEI/Middlewares/Third_Party/Huawei/iot_link/network/dtls/mbedtls/mbedtls-2.16.2/library\md.c ****  *  not use this file except in compliance with the License.
  13:D:/fchai/work/i-cube/I-CUBE-HUAWEI/Middlewares/Third_Party/Huawei/iot_link/network/dtls/mbedtls/mbedtls-2.16.2/library\md.c ****  *  You may obtain a copy of the License at
  14:D:/fchai/work/i-cube/I-CUBE-HUAWEI/Middlewares/Third_Party/Huawei/iot_link/network/dtls/mbedtls/mbedtls-2.16.2/library\md.c ****  *
  15:D:/fchai/work/i-cube/I-CUBE-HUAWEI/Middlewares/Third_Party/Huawei/iot_link/network/dtls/mbedtls/mbedtls-2.16.2/library\md.c ****  *  http://www.apache.org/licenses/LICENSE-2.0
  16:D:/fchai/work/i-cube/I-CUBE-HUAWEI/Middlewares/Third_Party/Huawei/iot_link/network/dtls/mbedtls/mbedtls-2.16.2/library\md.c ****  *
  17:D:/fchai/work/i-cube/I-CUBE-HUAWEI/Middlewares/Third_Party/Huawei/iot_link/network/dtls/mbedtls/mbedtls-2.16.2/library\md.c ****  *  Unless required by applicable law or agreed to in writing, software
  18:D:/fchai/work/i-cube/I-CUBE-HUAWEI/Middlewares/Third_Party/Huawei/iot_link/network/dtls/mbedtls/mbedtls-2.16.2/library\md.c ****  *  distributed under the License is distributed on an "AS IS" BASIS, WITHOUT
  19:D:/fchai/work/i-cube/I-CUBE-HUAWEI/Middlewares/Third_Party/Huawei/iot_link/network/dtls/mbedtls/mbedtls-2.16.2/library\md.c ****  *  WARRANTIES OR CONDITIONS OF ANY KIND, either express or implied.
  20:D:/fchai/work/i-cube/I-CUBE-HUAWEI/Middlewares/Third_Party/Huawei/iot_link/network/dtls/mbedtls/mbedtls-2.16.2/library\md.c ****  *  See the License for the specific language governing permissions and
  21:D:/fchai/work/i-cube/I-CUBE-HUAWEI/Middlewares/Third_Party/Huawei/iot_link/network/dtls/mbedtls/mbedtls-2.16.2/library\md.c ****  *  limitations under the License.
  22:D:/fchai/work/i-cube/I-CUBE-HUAWEI/Middlewares/Third_Party/Huawei/iot_link/network/dtls/mbedtls/mbedtls-2.16.2/library\md.c ****  *
  23:D:/fchai/work/i-cube/I-CUBE-HUAWEI/Middlewares/Third_Party/Huawei/iot_link/network/dtls/mbedtls/mbedtls-2.16.2/library\md.c ****  *  This file is part of mbed TLS (https://tls.mbed.org)
  24:D:/fchai/work/i-cube/I-CUBE-HUAWEI/Middlewares/Third_Party/Huawei/iot_link/network/dtls/mbedtls/mbedtls-2.16.2/library\md.c ****  */
  25:D:/fchai/work/i-cube/I-CUBE-HUAWEI/Middlewares/Third_Party/Huawei/iot_link/network/dtls/mbedtls/mbedtls-2.16.2/library\md.c **** 
  26:D:/fchai/work/i-cube/I-CUBE-HUAWEI/Middlewares/Third_Party/Huawei/iot_link/network/dtls/mbedtls/mbedtls-2.16.2/library\md.c **** #if !defined(MBEDTLS_CONFIG_FILE)
  27:D:/fchai/work/i-cube/I-CUBE-HUAWEI/Middlewares/Third_Party/Huawei/iot_link/network/dtls/mbedtls/mbedtls-2.16.2/library\md.c **** #include "mbedtls/config.h"
  28:D:/fchai/work/i-cube/I-CUBE-HUAWEI/Middlewares/Third_Party/Huawei/iot_link/network/dtls/mbedtls/mbedtls-2.16.2/library\md.c **** #else
  29:D:/fchai/work/i-cube/I-CUBE-HUAWEI/Middlewares/Third_Party/Huawei/iot_link/network/dtls/mbedtls/mbedtls-2.16.2/library\md.c **** #include MBEDTLS_CONFIG_FILE
ARM GAS  T:\msys\tmp\cc3NNrif.s 			page 2


  30:D:/fchai/work/i-cube/I-CUBE-HUAWEI/Middlewares/Third_Party/Huawei/iot_link/network/dtls/mbedtls/mbedtls-2.16.2/library\md.c **** #endif
  31:D:/fchai/work/i-cube/I-CUBE-HUAWEI/Middlewares/Third_Party/Huawei/iot_link/network/dtls/mbedtls/mbedtls-2.16.2/library\md.c **** 
  32:D:/fchai/work/i-cube/I-CUBE-HUAWEI/Middlewares/Third_Party/Huawei/iot_link/network/dtls/mbedtls/mbedtls-2.16.2/library\md.c **** #if defined(MBEDTLS_MD_C)
  33:D:/fchai/work/i-cube/I-CUBE-HUAWEI/Middlewares/Third_Party/Huawei/iot_link/network/dtls/mbedtls/mbedtls-2.16.2/library\md.c **** 
  34:D:/fchai/work/i-cube/I-CUBE-HUAWEI/Middlewares/Third_Party/Huawei/iot_link/network/dtls/mbedtls/mbedtls-2.16.2/library\md.c **** #include "mbedtls/md.h"
  35:D:/fchai/work/i-cube/I-CUBE-HUAWEI/Middlewares/Third_Party/Huawei/iot_link/network/dtls/mbedtls/mbedtls-2.16.2/library\md.c **** #include "mbedtls/md_internal.h"
  36:D:/fchai/work/i-cube/I-CUBE-HUAWEI/Middlewares/Third_Party/Huawei/iot_link/network/dtls/mbedtls/mbedtls-2.16.2/library\md.c **** #include "mbedtls/platform_util.h"
  37:D:/fchai/work/i-cube/I-CUBE-HUAWEI/Middlewares/Third_Party/Huawei/iot_link/network/dtls/mbedtls/mbedtls-2.16.2/library\md.c **** 
  38:D:/fchai/work/i-cube/I-CUBE-HUAWEI/Middlewares/Third_Party/Huawei/iot_link/network/dtls/mbedtls/mbedtls-2.16.2/library\md.c **** #if defined(MBEDTLS_PLATFORM_C)
  39:D:/fchai/work/i-cube/I-CUBE-HUAWEI/Middlewares/Third_Party/Huawei/iot_link/network/dtls/mbedtls/mbedtls-2.16.2/library\md.c **** #include "mbedtls/platform.h"
  40:D:/fchai/work/i-cube/I-CUBE-HUAWEI/Middlewares/Third_Party/Huawei/iot_link/network/dtls/mbedtls/mbedtls-2.16.2/library\md.c **** #else
  41:D:/fchai/work/i-cube/I-CUBE-HUAWEI/Middlewares/Third_Party/Huawei/iot_link/network/dtls/mbedtls/mbedtls-2.16.2/library\md.c **** #include <stdlib.h>
  42:D:/fchai/work/i-cube/I-CUBE-HUAWEI/Middlewares/Third_Party/Huawei/iot_link/network/dtls/mbedtls/mbedtls-2.16.2/library\md.c **** #define mbedtls_calloc    calloc
  43:D:/fchai/work/i-cube/I-CUBE-HUAWEI/Middlewares/Third_Party/Huawei/iot_link/network/dtls/mbedtls/mbedtls-2.16.2/library\md.c **** #define mbedtls_free       free
  44:D:/fchai/work/i-cube/I-CUBE-HUAWEI/Middlewares/Third_Party/Huawei/iot_link/network/dtls/mbedtls/mbedtls-2.16.2/library\md.c **** #endif
  45:D:/fchai/work/i-cube/I-CUBE-HUAWEI/Middlewares/Third_Party/Huawei/iot_link/network/dtls/mbedtls/mbedtls-2.16.2/library\md.c **** 
  46:D:/fchai/work/i-cube/I-CUBE-HUAWEI/Middlewares/Third_Party/Huawei/iot_link/network/dtls/mbedtls/mbedtls-2.16.2/library\md.c **** #include <string.h>
  47:D:/fchai/work/i-cube/I-CUBE-HUAWEI/Middlewares/Third_Party/Huawei/iot_link/network/dtls/mbedtls/mbedtls-2.16.2/library\md.c **** 
  48:D:/fchai/work/i-cube/I-CUBE-HUAWEI/Middlewares/Third_Party/Huawei/iot_link/network/dtls/mbedtls/mbedtls-2.16.2/library\md.c **** #if defined(MBEDTLS_FS_IO)
  49:D:/fchai/work/i-cube/I-CUBE-HUAWEI/Middlewares/Third_Party/Huawei/iot_link/network/dtls/mbedtls/mbedtls-2.16.2/library\md.c **** #include <stdio.h>
  50:D:/fchai/work/i-cube/I-CUBE-HUAWEI/Middlewares/Third_Party/Huawei/iot_link/network/dtls/mbedtls/mbedtls-2.16.2/library\md.c **** #endif
  51:D:/fchai/work/i-cube/I-CUBE-HUAWEI/Middlewares/Third_Party/Huawei/iot_link/network/dtls/mbedtls/mbedtls-2.16.2/library\md.c **** 
  52:D:/fchai/work/i-cube/I-CUBE-HUAWEI/Middlewares/Third_Party/Huawei/iot_link/network/dtls/mbedtls/mbedtls-2.16.2/library\md.c **** /*
  53:D:/fchai/work/i-cube/I-CUBE-HUAWEI/Middlewares/Third_Party/Huawei/iot_link/network/dtls/mbedtls/mbedtls-2.16.2/library\md.c ****  * Reminder: update profiles in x509_crt.c when adding a new hash!
  54:D:/fchai/work/i-cube/I-CUBE-HUAWEI/Middlewares/Third_Party/Huawei/iot_link/network/dtls/mbedtls/mbedtls-2.16.2/library\md.c ****  */
  55:D:/fchai/work/i-cube/I-CUBE-HUAWEI/Middlewares/Third_Party/Huawei/iot_link/network/dtls/mbedtls/mbedtls-2.16.2/library\md.c **** static const int supported_digests[] = {
  56:D:/fchai/work/i-cube/I-CUBE-HUAWEI/Middlewares/Third_Party/Huawei/iot_link/network/dtls/mbedtls/mbedtls-2.16.2/library\md.c **** 
  57:D:/fchai/work/i-cube/I-CUBE-HUAWEI/Middlewares/Third_Party/Huawei/iot_link/network/dtls/mbedtls/mbedtls-2.16.2/library\md.c **** #if defined(MBEDTLS_SHA512_C)
  58:D:/fchai/work/i-cube/I-CUBE-HUAWEI/Middlewares/Third_Party/Huawei/iot_link/network/dtls/mbedtls/mbedtls-2.16.2/library\md.c ****         MBEDTLS_MD_SHA512,
  59:D:/fchai/work/i-cube/I-CUBE-HUAWEI/Middlewares/Third_Party/Huawei/iot_link/network/dtls/mbedtls/mbedtls-2.16.2/library\md.c ****         MBEDTLS_MD_SHA384,
  60:D:/fchai/work/i-cube/I-CUBE-HUAWEI/Middlewares/Third_Party/Huawei/iot_link/network/dtls/mbedtls/mbedtls-2.16.2/library\md.c **** #endif
  61:D:/fchai/work/i-cube/I-CUBE-HUAWEI/Middlewares/Third_Party/Huawei/iot_link/network/dtls/mbedtls/mbedtls-2.16.2/library\md.c **** 
  62:D:/fchai/work/i-cube/I-CUBE-HUAWEI/Middlewares/Third_Party/Huawei/iot_link/network/dtls/mbedtls/mbedtls-2.16.2/library\md.c **** #if defined(MBEDTLS_SHA256_C)
  63:D:/fchai/work/i-cube/I-CUBE-HUAWEI/Middlewares/Third_Party/Huawei/iot_link/network/dtls/mbedtls/mbedtls-2.16.2/library\md.c ****         MBEDTLS_MD_SHA256,
  64:D:/fchai/work/i-cube/I-CUBE-HUAWEI/Middlewares/Third_Party/Huawei/iot_link/network/dtls/mbedtls/mbedtls-2.16.2/library\md.c ****         MBEDTLS_MD_SHA224,
  65:D:/fchai/work/i-cube/I-CUBE-HUAWEI/Middlewares/Third_Party/Huawei/iot_link/network/dtls/mbedtls/mbedtls-2.16.2/library\md.c **** #endif
  66:D:/fchai/work/i-cube/I-CUBE-HUAWEI/Middlewares/Third_Party/Huawei/iot_link/network/dtls/mbedtls/mbedtls-2.16.2/library\md.c **** 
  67:D:/fchai/work/i-cube/I-CUBE-HUAWEI/Middlewares/Third_Party/Huawei/iot_link/network/dtls/mbedtls/mbedtls-2.16.2/library\md.c **** #if defined(MBEDTLS_SHA1_C)
  68:D:/fchai/work/i-cube/I-CUBE-HUAWEI/Middlewares/Third_Party/Huawei/iot_link/network/dtls/mbedtls/mbedtls-2.16.2/library\md.c ****         MBEDTLS_MD_SHA1,
  69:D:/fchai/work/i-cube/I-CUBE-HUAWEI/Middlewares/Third_Party/Huawei/iot_link/network/dtls/mbedtls/mbedtls-2.16.2/library\md.c **** #endif
  70:D:/fchai/work/i-cube/I-CUBE-HUAWEI/Middlewares/Third_Party/Huawei/iot_link/network/dtls/mbedtls/mbedtls-2.16.2/library\md.c **** 
  71:D:/fchai/work/i-cube/I-CUBE-HUAWEI/Middlewares/Third_Party/Huawei/iot_link/network/dtls/mbedtls/mbedtls-2.16.2/library\md.c **** #if defined(MBEDTLS_RIPEMD160_C)
  72:D:/fchai/work/i-cube/I-CUBE-HUAWEI/Middlewares/Third_Party/Huawei/iot_link/network/dtls/mbedtls/mbedtls-2.16.2/library\md.c ****         MBEDTLS_MD_RIPEMD160,
  73:D:/fchai/work/i-cube/I-CUBE-HUAWEI/Middlewares/Third_Party/Huawei/iot_link/network/dtls/mbedtls/mbedtls-2.16.2/library\md.c **** #endif
  74:D:/fchai/work/i-cube/I-CUBE-HUAWEI/Middlewares/Third_Party/Huawei/iot_link/network/dtls/mbedtls/mbedtls-2.16.2/library\md.c **** 
  75:D:/fchai/work/i-cube/I-CUBE-HUAWEI/Middlewares/Third_Party/Huawei/iot_link/network/dtls/mbedtls/mbedtls-2.16.2/library\md.c **** #if defined(MBEDTLS_MD5_C)
  76:D:/fchai/work/i-cube/I-CUBE-HUAWEI/Middlewares/Third_Party/Huawei/iot_link/network/dtls/mbedtls/mbedtls-2.16.2/library\md.c ****         MBEDTLS_MD_MD5,
  77:D:/fchai/work/i-cube/I-CUBE-HUAWEI/Middlewares/Third_Party/Huawei/iot_link/network/dtls/mbedtls/mbedtls-2.16.2/library\md.c **** #endif
  78:D:/fchai/work/i-cube/I-CUBE-HUAWEI/Middlewares/Third_Party/Huawei/iot_link/network/dtls/mbedtls/mbedtls-2.16.2/library\md.c **** 
  79:D:/fchai/work/i-cube/I-CUBE-HUAWEI/Middlewares/Third_Party/Huawei/iot_link/network/dtls/mbedtls/mbedtls-2.16.2/library\md.c **** #if defined(MBEDTLS_MD4_C)
  80:D:/fchai/work/i-cube/I-CUBE-HUAWEI/Middlewares/Third_Party/Huawei/iot_link/network/dtls/mbedtls/mbedtls-2.16.2/library\md.c ****         MBEDTLS_MD_MD4,
  81:D:/fchai/work/i-cube/I-CUBE-HUAWEI/Middlewares/Third_Party/Huawei/iot_link/network/dtls/mbedtls/mbedtls-2.16.2/library\md.c **** #endif
  82:D:/fchai/work/i-cube/I-CUBE-HUAWEI/Middlewares/Third_Party/Huawei/iot_link/network/dtls/mbedtls/mbedtls-2.16.2/library\md.c **** 
  83:D:/fchai/work/i-cube/I-CUBE-HUAWEI/Middlewares/Third_Party/Huawei/iot_link/network/dtls/mbedtls/mbedtls-2.16.2/library\md.c **** #if defined(MBEDTLS_MD2_C)
  84:D:/fchai/work/i-cube/I-CUBE-HUAWEI/Middlewares/Third_Party/Huawei/iot_link/network/dtls/mbedtls/mbedtls-2.16.2/library\md.c ****         MBEDTLS_MD_MD2,
  85:D:/fchai/work/i-cube/I-CUBE-HUAWEI/Middlewares/Third_Party/Huawei/iot_link/network/dtls/mbedtls/mbedtls-2.16.2/library\md.c **** #endif
  86:D:/fchai/work/i-cube/I-CUBE-HUAWEI/Middlewares/Third_Party/Huawei/iot_link/network/dtls/mbedtls/mbedtls-2.16.2/library\md.c **** 
ARM GAS  T:\msys\tmp\cc3NNrif.s 			page 3


  87:D:/fchai/work/i-cube/I-CUBE-HUAWEI/Middlewares/Third_Party/Huawei/iot_link/network/dtls/mbedtls/mbedtls-2.16.2/library\md.c ****         MBEDTLS_MD_NONE
  88:D:/fchai/work/i-cube/I-CUBE-HUAWEI/Middlewares/Third_Party/Huawei/iot_link/network/dtls/mbedtls/mbedtls-2.16.2/library\md.c **** };
  89:D:/fchai/work/i-cube/I-CUBE-HUAWEI/Middlewares/Third_Party/Huawei/iot_link/network/dtls/mbedtls/mbedtls-2.16.2/library\md.c **** 
  90:D:/fchai/work/i-cube/I-CUBE-HUAWEI/Middlewares/Third_Party/Huawei/iot_link/network/dtls/mbedtls/mbedtls-2.16.2/library\md.c **** const int *mbedtls_md_list( void )
  91:D:/fchai/work/i-cube/I-CUBE-HUAWEI/Middlewares/Third_Party/Huawei/iot_link/network/dtls/mbedtls/mbedtls-2.16.2/library\md.c **** {
  30              		.loc 1 91 1 view -0
  31              		.cfi_startproc
  32              		@ args = 0, pretend = 0, frame = 0
  33              		@ frame_needed = 0, uses_anonymous_args = 0
  34              		@ link register save eliminated.
  92:D:/fchai/work/i-cube/I-CUBE-HUAWEI/Middlewares/Third_Party/Huawei/iot_link/network/dtls/mbedtls/mbedtls-2.16.2/library\md.c ****     return( supported_digests );
  35              		.loc 1 92 5 view .LVU1
  93:D:/fchai/work/i-cube/I-CUBE-HUAWEI/Middlewares/Third_Party/Huawei/iot_link/network/dtls/mbedtls/mbedtls-2.16.2/library\md.c **** }
  36              		.loc 1 93 1 is_stmt 0 view .LVU2
  37 0000 0048     		ldr	r0, .L3
  38 0002 7047     		bx	lr
  39              	.L4:
  40              		.align	2
  41              	.L3:
  42 0004 00000000 		.word	.LANCHOR0
  43              		.cfi_endproc
  44              	.LFE3:
  46              		.section	.rodata.mbedtls_md_info_from_string.str1.4,"aMS",%progbits,1
  47              		.align	2
  48              	.LC0:
  49 0000 53484131 		.ascii	"SHA1\000"
  49      00
  50 0005 000000   		.align	2
  51              	.LC1:
  52 0008 53484100 		.ascii	"SHA\000"
  53              		.align	2
  54              	.LC2:
  55 000c 53484132 		.ascii	"SHA224\000"
  55      323400
  56 0013 00       		.align	2
  57              	.LC3:
  58 0014 53484132 		.ascii	"SHA256\000"
  58      353600
  59              		.section	.text.mbedtls_md_info_from_string,"ax",%progbits
  60              		.align	1
  61              		.p2align 2,,3
  62              		.global	mbedtls_md_info_from_string
  63              		.syntax unified
  64              		.thumb
  65              		.thumb_func
  66              		.fpu fpv4-sp-d16
  68              	mbedtls_md_info_from_string:
  69              	.LVL0:
  70              	.LFB4:
  94:D:/fchai/work/i-cube/I-CUBE-HUAWEI/Middlewares/Third_Party/Huawei/iot_link/network/dtls/mbedtls/mbedtls-2.16.2/library\md.c **** 
  95:D:/fchai/work/i-cube/I-CUBE-HUAWEI/Middlewares/Third_Party/Huawei/iot_link/network/dtls/mbedtls/mbedtls-2.16.2/library\md.c **** const mbedtls_md_info_t *mbedtls_md_info_from_string( const char *md_name )
  96:D:/fchai/work/i-cube/I-CUBE-HUAWEI/Middlewares/Third_Party/Huawei/iot_link/network/dtls/mbedtls/mbedtls-2.16.2/library\md.c **** {
  71              		.loc 1 96 1 is_stmt 1 view -0
  72              		.cfi_startproc
  73              		@ args = 0, pretend = 0, frame = 0
  74              		@ frame_needed = 0, uses_anonymous_args = 0
  97:D:/fchai/work/i-cube/I-CUBE-HUAWEI/Middlewares/Third_Party/Huawei/iot_link/network/dtls/mbedtls/mbedtls-2.16.2/library\md.c ****     if( NULL == md_name )
ARM GAS  T:\msys\tmp\cc3NNrif.s 			page 4


  75              		.loc 1 97 5 view .LVU4
  96:D:/fchai/work/i-cube/I-CUBE-HUAWEI/Middlewares/Third_Party/Huawei/iot_link/network/dtls/mbedtls/mbedtls-2.16.2/library\md.c ****     if( NULL == md_name )
  76              		.loc 1 96 1 is_stmt 0 view .LVU5
  77 0000 10B5     		push	{r4, lr}
  78              	.LCFI0:
  79              		.cfi_def_cfa_offset 8
  80              		.cfi_offset 4, -8
  81              		.cfi_offset 14, -4
  82              		.loc 1 97 7 view .LVU6
  83 0002 0446     		mov	r4, r0
  84 0004 B8B1     		cbz	r0, .L5
  98:D:/fchai/work/i-cube/I-CUBE-HUAWEI/Middlewares/Third_Party/Huawei/iot_link/network/dtls/mbedtls/mbedtls-2.16.2/library\md.c ****         return( NULL );
  99:D:/fchai/work/i-cube/I-CUBE-HUAWEI/Middlewares/Third_Party/Huawei/iot_link/network/dtls/mbedtls/mbedtls-2.16.2/library\md.c **** 
 100:D:/fchai/work/i-cube/I-CUBE-HUAWEI/Middlewares/Third_Party/Huawei/iot_link/network/dtls/mbedtls/mbedtls-2.16.2/library\md.c ****     /* Get the appropriate digest information */
 101:D:/fchai/work/i-cube/I-CUBE-HUAWEI/Middlewares/Third_Party/Huawei/iot_link/network/dtls/mbedtls/mbedtls-2.16.2/library\md.c **** #if defined(MBEDTLS_MD2_C)
 102:D:/fchai/work/i-cube/I-CUBE-HUAWEI/Middlewares/Third_Party/Huawei/iot_link/network/dtls/mbedtls/mbedtls-2.16.2/library\md.c ****     if( !strcmp( "MD2", md_name ) )
 103:D:/fchai/work/i-cube/I-CUBE-HUAWEI/Middlewares/Third_Party/Huawei/iot_link/network/dtls/mbedtls/mbedtls-2.16.2/library\md.c ****         return mbedtls_md_info_from_type( MBEDTLS_MD_MD2 );
 104:D:/fchai/work/i-cube/I-CUBE-HUAWEI/Middlewares/Third_Party/Huawei/iot_link/network/dtls/mbedtls/mbedtls-2.16.2/library\md.c **** #endif
 105:D:/fchai/work/i-cube/I-CUBE-HUAWEI/Middlewares/Third_Party/Huawei/iot_link/network/dtls/mbedtls/mbedtls-2.16.2/library\md.c **** #if defined(MBEDTLS_MD4_C)
 106:D:/fchai/work/i-cube/I-CUBE-HUAWEI/Middlewares/Third_Party/Huawei/iot_link/network/dtls/mbedtls/mbedtls-2.16.2/library\md.c ****     if( !strcmp( "MD4", md_name ) )
 107:D:/fchai/work/i-cube/I-CUBE-HUAWEI/Middlewares/Third_Party/Huawei/iot_link/network/dtls/mbedtls/mbedtls-2.16.2/library\md.c ****         return mbedtls_md_info_from_type( MBEDTLS_MD_MD4 );
 108:D:/fchai/work/i-cube/I-CUBE-HUAWEI/Middlewares/Third_Party/Huawei/iot_link/network/dtls/mbedtls/mbedtls-2.16.2/library\md.c **** #endif
 109:D:/fchai/work/i-cube/I-CUBE-HUAWEI/Middlewares/Third_Party/Huawei/iot_link/network/dtls/mbedtls/mbedtls-2.16.2/library\md.c **** #if defined(MBEDTLS_MD5_C)
 110:D:/fchai/work/i-cube/I-CUBE-HUAWEI/Middlewares/Third_Party/Huawei/iot_link/network/dtls/mbedtls/mbedtls-2.16.2/library\md.c ****     if( !strcmp( "MD5", md_name ) )
 111:D:/fchai/work/i-cube/I-CUBE-HUAWEI/Middlewares/Third_Party/Huawei/iot_link/network/dtls/mbedtls/mbedtls-2.16.2/library\md.c ****         return mbedtls_md_info_from_type( MBEDTLS_MD_MD5 );
 112:D:/fchai/work/i-cube/I-CUBE-HUAWEI/Middlewares/Third_Party/Huawei/iot_link/network/dtls/mbedtls/mbedtls-2.16.2/library\md.c **** #endif
 113:D:/fchai/work/i-cube/I-CUBE-HUAWEI/Middlewares/Third_Party/Huawei/iot_link/network/dtls/mbedtls/mbedtls-2.16.2/library\md.c **** #if defined(MBEDTLS_RIPEMD160_C)
 114:D:/fchai/work/i-cube/I-CUBE-HUAWEI/Middlewares/Third_Party/Huawei/iot_link/network/dtls/mbedtls/mbedtls-2.16.2/library\md.c ****     if( !strcmp( "RIPEMD160", md_name ) )
 115:D:/fchai/work/i-cube/I-CUBE-HUAWEI/Middlewares/Third_Party/Huawei/iot_link/network/dtls/mbedtls/mbedtls-2.16.2/library\md.c ****         return mbedtls_md_info_from_type( MBEDTLS_MD_RIPEMD160 );
 116:D:/fchai/work/i-cube/I-CUBE-HUAWEI/Middlewares/Third_Party/Huawei/iot_link/network/dtls/mbedtls/mbedtls-2.16.2/library\md.c **** #endif
 117:D:/fchai/work/i-cube/I-CUBE-HUAWEI/Middlewares/Third_Party/Huawei/iot_link/network/dtls/mbedtls/mbedtls-2.16.2/library\md.c **** #if defined(MBEDTLS_SHA1_C)
 118:D:/fchai/work/i-cube/I-CUBE-HUAWEI/Middlewares/Third_Party/Huawei/iot_link/network/dtls/mbedtls/mbedtls-2.16.2/library\md.c ****     if( !strcmp( "SHA1", md_name ) || !strcmp( "SHA", md_name ) )
  85              		.loc 1 118 5 is_stmt 1 view .LVU7
  86              		.loc 1 118 10 is_stmt 0 view .LVU8
  87 0006 0146     		mov	r1, r0
  88 0008 0D48     		ldr	r0, .L13
  89              	.LVL1:
  90              		.loc 1 118 10 view .LVU9
  91 000a FFF7FEFF 		bl	strcmp
  92              	.LVL2:
  93              		.loc 1 118 7 view .LVU10
  94 000e 98B1     		cbz	r0, .L9
  95              		.loc 1 118 40 discriminator 1 view .LVU11
  96 0010 0C48     		ldr	r0, .L13+4
  97 0012 2146     		mov	r1, r4
  98 0014 FFF7FEFF 		bl	strcmp
  99              	.LVL3:
 100              		.loc 1 118 36 discriminator 1 view .LVU12
 101 0018 70B1     		cbz	r0, .L9
 119:D:/fchai/work/i-cube/I-CUBE-HUAWEI/Middlewares/Third_Party/Huawei/iot_link/network/dtls/mbedtls/mbedtls-2.16.2/library\md.c ****         return mbedtls_md_info_from_type( MBEDTLS_MD_SHA1 );
 120:D:/fchai/work/i-cube/I-CUBE-HUAWEI/Middlewares/Third_Party/Huawei/iot_link/network/dtls/mbedtls/mbedtls-2.16.2/library\md.c **** #endif
 121:D:/fchai/work/i-cube/I-CUBE-HUAWEI/Middlewares/Third_Party/Huawei/iot_link/network/dtls/mbedtls/mbedtls-2.16.2/library\md.c **** #if defined(MBEDTLS_SHA256_C)
 122:D:/fchai/work/i-cube/I-CUBE-HUAWEI/Middlewares/Third_Party/Huawei/iot_link/network/dtls/mbedtls/mbedtls-2.16.2/library\md.c ****     if( !strcmp( "SHA224", md_name ) )
 102              		.loc 1 122 5 is_stmt 1 view .LVU13
 103              		.loc 1 122 10 is_stmt 0 view .LVU14
 104 001a 0B48     		ldr	r0, .L13+8
 105 001c 2146     		mov	r1, r4
ARM GAS  T:\msys\tmp\cc3NNrif.s 			page 5


 106 001e FFF7FEFF 		bl	strcmp
 107              	.LVL4:
 108              		.loc 1 122 7 view .LVU15
 109 0022 58B1     		cbz	r0, .L10
 123:D:/fchai/work/i-cube/I-CUBE-HUAWEI/Middlewares/Third_Party/Huawei/iot_link/network/dtls/mbedtls/mbedtls-2.16.2/library\md.c ****         return mbedtls_md_info_from_type( MBEDTLS_MD_SHA224 );
 124:D:/fchai/work/i-cube/I-CUBE-HUAWEI/Middlewares/Third_Party/Huawei/iot_link/network/dtls/mbedtls/mbedtls-2.16.2/library\md.c ****     if( !strcmp( "SHA256", md_name ) )
 110              		.loc 1 124 5 is_stmt 1 view .LVU16
 111              		.loc 1 124 10 is_stmt 0 view .LVU17
 112 0024 2146     		mov	r1, r4
 113 0026 0948     		ldr	r0, .L13+12
 125:D:/fchai/work/i-cube/I-CUBE-HUAWEI/Middlewares/Third_Party/Huawei/iot_link/network/dtls/mbedtls/mbedtls-2.16.2/library\md.c ****         return mbedtls_md_info_from_type( MBEDTLS_MD_SHA256 );
 114              		.loc 1 125 16 view .LVU18
 115 0028 094C     		ldr	r4, .L13+16
 116              	.LVL5:
 124:D:/fchai/work/i-cube/I-CUBE-HUAWEI/Middlewares/Third_Party/Huawei/iot_link/network/dtls/mbedtls/mbedtls-2.16.2/library\md.c ****         return mbedtls_md_info_from_type( MBEDTLS_MD_SHA256 );
 117              		.loc 1 124 10 view .LVU19
 118 002a FFF7FEFF 		bl	strcmp
 119              	.LVL6:
 124:D:/fchai/work/i-cube/I-CUBE-HUAWEI/Middlewares/Third_Party/Huawei/iot_link/network/dtls/mbedtls/mbedtls-2.16.2/library\md.c ****         return mbedtls_md_info_from_type( MBEDTLS_MD_SHA256 );
 120              		.loc 1 124 7 view .LVU20
 121 002e 0028     		cmp	r0, #0
 122              		.loc 1 125 16 view .LVU21
 123 0030 0CBF     		ite	eq
 124 0032 2046     		moveq	r0, r4
 125 0034 0020     		movne	r0, #0
 126              	.L5:
 126:D:/fchai/work/i-cube/I-CUBE-HUAWEI/Middlewares/Third_Party/Huawei/iot_link/network/dtls/mbedtls/mbedtls-2.16.2/library\md.c **** #endif
 127:D:/fchai/work/i-cube/I-CUBE-HUAWEI/Middlewares/Third_Party/Huawei/iot_link/network/dtls/mbedtls/mbedtls-2.16.2/library\md.c **** #if defined(MBEDTLS_SHA512_C)
 128:D:/fchai/work/i-cube/I-CUBE-HUAWEI/Middlewares/Third_Party/Huawei/iot_link/network/dtls/mbedtls/mbedtls-2.16.2/library\md.c ****     if( !strcmp( "SHA384", md_name ) )
 129:D:/fchai/work/i-cube/I-CUBE-HUAWEI/Middlewares/Third_Party/Huawei/iot_link/network/dtls/mbedtls/mbedtls-2.16.2/library\md.c ****         return mbedtls_md_info_from_type( MBEDTLS_MD_SHA384 );
 130:D:/fchai/work/i-cube/I-CUBE-HUAWEI/Middlewares/Third_Party/Huawei/iot_link/network/dtls/mbedtls/mbedtls-2.16.2/library\md.c ****     if( !strcmp( "SHA512", md_name ) )
 131:D:/fchai/work/i-cube/I-CUBE-HUAWEI/Middlewares/Third_Party/Huawei/iot_link/network/dtls/mbedtls/mbedtls-2.16.2/library\md.c ****         return mbedtls_md_info_from_type( MBEDTLS_MD_SHA512 );
 132:D:/fchai/work/i-cube/I-CUBE-HUAWEI/Middlewares/Third_Party/Huawei/iot_link/network/dtls/mbedtls/mbedtls-2.16.2/library\md.c **** #endif
 133:D:/fchai/work/i-cube/I-CUBE-HUAWEI/Middlewares/Third_Party/Huawei/iot_link/network/dtls/mbedtls/mbedtls-2.16.2/library\md.c ****     return( NULL );
 134:D:/fchai/work/i-cube/I-CUBE-HUAWEI/Middlewares/Third_Party/Huawei/iot_link/network/dtls/mbedtls/mbedtls-2.16.2/library\md.c **** }
 127              		.loc 1 134 1 view .LVU22
 128 0036 10BD     		pop	{r4, pc}
 129              	.LVL7:
 130              	.L9:
 119:D:/fchai/work/i-cube/I-CUBE-HUAWEI/Middlewares/Third_Party/Huawei/iot_link/network/dtls/mbedtls/mbedtls-2.16.2/library\md.c **** #endif
 131              		.loc 1 119 16 view .LVU23
 132 0038 0648     		ldr	r0, .L13+20
 133              		.loc 1 134 1 view .LVU24
 134 003a 10BD     		pop	{r4, pc}
 135              	.LVL8:
 136              	.L10:
 123:D:/fchai/work/i-cube/I-CUBE-HUAWEI/Middlewares/Third_Party/Huawei/iot_link/network/dtls/mbedtls/mbedtls-2.16.2/library\md.c ****     if( !strcmp( "SHA256", md_name ) )
 137              		.loc 1 123 16 view .LVU25
 138 003c 0648     		ldr	r0, .L13+24
 139              		.loc 1 134 1 view .LVU26
 140 003e 10BD     		pop	{r4, pc}
 141              	.LVL9:
 142              	.L14:
 143              		.loc 1 134 1 view .LVU27
 144              		.align	2
 145              	.L13:
 146 0040 00000000 		.word	.LC0
ARM GAS  T:\msys\tmp\cc3NNrif.s 			page 6


 147 0044 08000000 		.word	.LC1
 148 0048 0C000000 		.word	.LC2
 149 004c 14000000 		.word	.LC3
 150 0050 00000000 		.word	mbedtls_sha256_info
 151 0054 00000000 		.word	mbedtls_sha1_info
 152 0058 00000000 		.word	mbedtls_sha224_info
 153              		.cfi_endproc
 154              	.LFE4:
 156              		.section	.text.mbedtls_md_info_from_type,"ax",%progbits
 157              		.align	1
 158              		.p2align 2,,3
 159              		.global	mbedtls_md_info_from_type
 160              		.syntax unified
 161              		.thumb
 162              		.thumb_func
 163              		.fpu fpv4-sp-d16
 165              	mbedtls_md_info_from_type:
 166              	.LVL10:
 167              	.LFB5:
 135:D:/fchai/work/i-cube/I-CUBE-HUAWEI/Middlewares/Third_Party/Huawei/iot_link/network/dtls/mbedtls/mbedtls-2.16.2/library\md.c **** 
 136:D:/fchai/work/i-cube/I-CUBE-HUAWEI/Middlewares/Third_Party/Huawei/iot_link/network/dtls/mbedtls/mbedtls-2.16.2/library\md.c **** const mbedtls_md_info_t *mbedtls_md_info_from_type( mbedtls_md_type_t md_type )
 137:D:/fchai/work/i-cube/I-CUBE-HUAWEI/Middlewares/Third_Party/Huawei/iot_link/network/dtls/mbedtls/mbedtls-2.16.2/library\md.c **** {
 168              		.loc 1 137 1 is_stmt 1 view -0
 169              		.cfi_startproc
 170              		@ args = 0, pretend = 0, frame = 0
 171              		@ frame_needed = 0, uses_anonymous_args = 0
 172              		@ link register save eliminated.
 138:D:/fchai/work/i-cube/I-CUBE-HUAWEI/Middlewares/Third_Party/Huawei/iot_link/network/dtls/mbedtls/mbedtls-2.16.2/library\md.c ****     switch( md_type )
 173              		.loc 1 138 5 view .LVU29
 174 0000 0438     		subs	r0, r0, #4
 175              	.LVL11:
 176              		.loc 1 138 5 is_stmt 0 view .LVU30
 177 0002 C0B2     		uxtb	r0, r0
 178 0004 0228     		cmp	r0, #2
 179 0006 9ABF     		itte	ls
 180 0008 024B     		ldrls	r3, .L18
 181 000a 53F82000 		ldrls	r0, [r3, r0, lsl #2]
 137:D:/fchai/work/i-cube/I-CUBE-HUAWEI/Middlewares/Third_Party/Huawei/iot_link/network/dtls/mbedtls/mbedtls-2.16.2/library\md.c ****     switch( md_type )
 182              		.loc 1 137 1 view .LVU31
 183 000e 0020     		movhi	r0, #0
 139:D:/fchai/work/i-cube/I-CUBE-HUAWEI/Middlewares/Third_Party/Huawei/iot_link/network/dtls/mbedtls/mbedtls-2.16.2/library\md.c ****     {
 140:D:/fchai/work/i-cube/I-CUBE-HUAWEI/Middlewares/Third_Party/Huawei/iot_link/network/dtls/mbedtls/mbedtls-2.16.2/library\md.c **** #if defined(MBEDTLS_MD2_C)
 141:D:/fchai/work/i-cube/I-CUBE-HUAWEI/Middlewares/Third_Party/Huawei/iot_link/network/dtls/mbedtls/mbedtls-2.16.2/library\md.c ****         case MBEDTLS_MD_MD2:
 142:D:/fchai/work/i-cube/I-CUBE-HUAWEI/Middlewares/Third_Party/Huawei/iot_link/network/dtls/mbedtls/mbedtls-2.16.2/library\md.c ****             return( &mbedtls_md2_info );
 143:D:/fchai/work/i-cube/I-CUBE-HUAWEI/Middlewares/Third_Party/Huawei/iot_link/network/dtls/mbedtls/mbedtls-2.16.2/library\md.c **** #endif
 144:D:/fchai/work/i-cube/I-CUBE-HUAWEI/Middlewares/Third_Party/Huawei/iot_link/network/dtls/mbedtls/mbedtls-2.16.2/library\md.c **** #if defined(MBEDTLS_MD4_C)
 145:D:/fchai/work/i-cube/I-CUBE-HUAWEI/Middlewares/Third_Party/Huawei/iot_link/network/dtls/mbedtls/mbedtls-2.16.2/library\md.c ****         case MBEDTLS_MD_MD4:
 146:D:/fchai/work/i-cube/I-CUBE-HUAWEI/Middlewares/Third_Party/Huawei/iot_link/network/dtls/mbedtls/mbedtls-2.16.2/library\md.c ****             return( &mbedtls_md4_info );
 147:D:/fchai/work/i-cube/I-CUBE-HUAWEI/Middlewares/Third_Party/Huawei/iot_link/network/dtls/mbedtls/mbedtls-2.16.2/library\md.c **** #endif
 148:D:/fchai/work/i-cube/I-CUBE-HUAWEI/Middlewares/Third_Party/Huawei/iot_link/network/dtls/mbedtls/mbedtls-2.16.2/library\md.c **** #if defined(MBEDTLS_MD5_C)
 149:D:/fchai/work/i-cube/I-CUBE-HUAWEI/Middlewares/Third_Party/Huawei/iot_link/network/dtls/mbedtls/mbedtls-2.16.2/library\md.c ****         case MBEDTLS_MD_MD5:
 150:D:/fchai/work/i-cube/I-CUBE-HUAWEI/Middlewares/Third_Party/Huawei/iot_link/network/dtls/mbedtls/mbedtls-2.16.2/library\md.c ****             return( &mbedtls_md5_info );
 151:D:/fchai/work/i-cube/I-CUBE-HUAWEI/Middlewares/Third_Party/Huawei/iot_link/network/dtls/mbedtls/mbedtls-2.16.2/library\md.c **** #endif
 152:D:/fchai/work/i-cube/I-CUBE-HUAWEI/Middlewares/Third_Party/Huawei/iot_link/network/dtls/mbedtls/mbedtls-2.16.2/library\md.c **** #if defined(MBEDTLS_RIPEMD160_C)
 153:D:/fchai/work/i-cube/I-CUBE-HUAWEI/Middlewares/Third_Party/Huawei/iot_link/network/dtls/mbedtls/mbedtls-2.16.2/library\md.c ****         case MBEDTLS_MD_RIPEMD160:
 154:D:/fchai/work/i-cube/I-CUBE-HUAWEI/Middlewares/Third_Party/Huawei/iot_link/network/dtls/mbedtls/mbedtls-2.16.2/library\md.c ****             return( &mbedtls_ripemd160_info );
 155:D:/fchai/work/i-cube/I-CUBE-HUAWEI/Middlewares/Third_Party/Huawei/iot_link/network/dtls/mbedtls/mbedtls-2.16.2/library\md.c **** #endif
ARM GAS  T:\msys\tmp\cc3NNrif.s 			page 7


 156:D:/fchai/work/i-cube/I-CUBE-HUAWEI/Middlewares/Third_Party/Huawei/iot_link/network/dtls/mbedtls/mbedtls-2.16.2/library\md.c **** #if defined(MBEDTLS_SHA1_C)
 157:D:/fchai/work/i-cube/I-CUBE-HUAWEI/Middlewares/Third_Party/Huawei/iot_link/network/dtls/mbedtls/mbedtls-2.16.2/library\md.c ****         case MBEDTLS_MD_SHA1:
 158:D:/fchai/work/i-cube/I-CUBE-HUAWEI/Middlewares/Third_Party/Huawei/iot_link/network/dtls/mbedtls/mbedtls-2.16.2/library\md.c ****             return( &mbedtls_sha1_info );
 159:D:/fchai/work/i-cube/I-CUBE-HUAWEI/Middlewares/Third_Party/Huawei/iot_link/network/dtls/mbedtls/mbedtls-2.16.2/library\md.c **** #endif
 160:D:/fchai/work/i-cube/I-CUBE-HUAWEI/Middlewares/Third_Party/Huawei/iot_link/network/dtls/mbedtls/mbedtls-2.16.2/library\md.c **** #if defined(MBEDTLS_SHA256_C)
 161:D:/fchai/work/i-cube/I-CUBE-HUAWEI/Middlewares/Third_Party/Huawei/iot_link/network/dtls/mbedtls/mbedtls-2.16.2/library\md.c ****         case MBEDTLS_MD_SHA224:
 162:D:/fchai/work/i-cube/I-CUBE-HUAWEI/Middlewares/Third_Party/Huawei/iot_link/network/dtls/mbedtls/mbedtls-2.16.2/library\md.c ****             return( &mbedtls_sha224_info );
 163:D:/fchai/work/i-cube/I-CUBE-HUAWEI/Middlewares/Third_Party/Huawei/iot_link/network/dtls/mbedtls/mbedtls-2.16.2/library\md.c ****         case MBEDTLS_MD_SHA256:
 164:D:/fchai/work/i-cube/I-CUBE-HUAWEI/Middlewares/Third_Party/Huawei/iot_link/network/dtls/mbedtls/mbedtls-2.16.2/library\md.c ****             return( &mbedtls_sha256_info );
 165:D:/fchai/work/i-cube/I-CUBE-HUAWEI/Middlewares/Third_Party/Huawei/iot_link/network/dtls/mbedtls/mbedtls-2.16.2/library\md.c **** #endif
 166:D:/fchai/work/i-cube/I-CUBE-HUAWEI/Middlewares/Third_Party/Huawei/iot_link/network/dtls/mbedtls/mbedtls-2.16.2/library\md.c **** #if defined(MBEDTLS_SHA512_C)
 167:D:/fchai/work/i-cube/I-CUBE-HUAWEI/Middlewares/Third_Party/Huawei/iot_link/network/dtls/mbedtls/mbedtls-2.16.2/library\md.c ****         case MBEDTLS_MD_SHA384:
 168:D:/fchai/work/i-cube/I-CUBE-HUAWEI/Middlewares/Third_Party/Huawei/iot_link/network/dtls/mbedtls/mbedtls-2.16.2/library\md.c ****             return( &mbedtls_sha384_info );
 169:D:/fchai/work/i-cube/I-CUBE-HUAWEI/Middlewares/Third_Party/Huawei/iot_link/network/dtls/mbedtls/mbedtls-2.16.2/library\md.c ****         case MBEDTLS_MD_SHA512:
 170:D:/fchai/work/i-cube/I-CUBE-HUAWEI/Middlewares/Third_Party/Huawei/iot_link/network/dtls/mbedtls/mbedtls-2.16.2/library\md.c ****             return( &mbedtls_sha512_info );
 171:D:/fchai/work/i-cube/I-CUBE-HUAWEI/Middlewares/Third_Party/Huawei/iot_link/network/dtls/mbedtls/mbedtls-2.16.2/library\md.c **** #endif
 172:D:/fchai/work/i-cube/I-CUBE-HUAWEI/Middlewares/Third_Party/Huawei/iot_link/network/dtls/mbedtls/mbedtls-2.16.2/library\md.c ****         default:
 173:D:/fchai/work/i-cube/I-CUBE-HUAWEI/Middlewares/Third_Party/Huawei/iot_link/network/dtls/mbedtls/mbedtls-2.16.2/library\md.c ****             return( NULL );
 174:D:/fchai/work/i-cube/I-CUBE-HUAWEI/Middlewares/Third_Party/Huawei/iot_link/network/dtls/mbedtls/mbedtls-2.16.2/library\md.c ****     }
 175:D:/fchai/work/i-cube/I-CUBE-HUAWEI/Middlewares/Third_Party/Huawei/iot_link/network/dtls/mbedtls/mbedtls-2.16.2/library\md.c **** }
 184              		.loc 1 175 1 view .LVU32
 185 0010 7047     		bx	lr
 186              	.L19:
 187 0012 00BF     		.align	2
 188              	.L18:
 189 0014 00000000 		.word	.LANCHOR1
 190              		.cfi_endproc
 191              	.LFE5:
 193              		.section	.text.mbedtls_md_init,"ax",%progbits
 194              		.align	1
 195              		.p2align 2,,3
 196              		.global	mbedtls_md_init
 197              		.syntax unified
 198              		.thumb
 199              		.thumb_func
 200              		.fpu fpv4-sp-d16
 202              	mbedtls_md_init:
 203              	.LVL12:
 204              	.LFB6:
 176:D:/fchai/work/i-cube/I-CUBE-HUAWEI/Middlewares/Third_Party/Huawei/iot_link/network/dtls/mbedtls/mbedtls-2.16.2/library\md.c **** 
 177:D:/fchai/work/i-cube/I-CUBE-HUAWEI/Middlewares/Third_Party/Huawei/iot_link/network/dtls/mbedtls/mbedtls-2.16.2/library\md.c **** void mbedtls_md_init( mbedtls_md_context_t *ctx )
 178:D:/fchai/work/i-cube/I-CUBE-HUAWEI/Middlewares/Third_Party/Huawei/iot_link/network/dtls/mbedtls/mbedtls-2.16.2/library\md.c **** {
 205              		.loc 1 178 1 is_stmt 1 view -0
 206              		.cfi_startproc
 207              		@ args = 0, pretend = 0, frame = 0
 208              		@ frame_needed = 0, uses_anonymous_args = 0
 209              		@ link register save eliminated.
 179:D:/fchai/work/i-cube/I-CUBE-HUAWEI/Middlewares/Third_Party/Huawei/iot_link/network/dtls/mbedtls/mbedtls-2.16.2/library\md.c ****     memset( ctx, 0, sizeof( mbedtls_md_context_t ) );
 210              		.loc 1 179 5 view .LVU34
 211 0000 0023     		movs	r3, #0
 212 0002 0360     		str	r3, [r0]	@ unaligned
 213 0004 4360     		str	r3, [r0, #4]	@ unaligned
 214 0006 8360     		str	r3, [r0, #8]	@ unaligned
 180:D:/fchai/work/i-cube/I-CUBE-HUAWEI/Middlewares/Third_Party/Huawei/iot_link/network/dtls/mbedtls/mbedtls-2.16.2/library\md.c **** }
 215              		.loc 1 180 1 is_stmt 0 view .LVU35
 216 0008 7047     		bx	lr
 217              		.cfi_endproc
ARM GAS  T:\msys\tmp\cc3NNrif.s 			page 8


 218              	.LFE6:
 220 000a 00BF     		.section	.text.mbedtls_md_free,"ax",%progbits
 221              		.align	1
 222              		.p2align 2,,3
 223              		.global	mbedtls_md_free
 224              		.syntax unified
 225              		.thumb
 226              		.thumb_func
 227              		.fpu fpv4-sp-d16
 229              	mbedtls_md_free:
 230              	.LVL13:
 231              	.LFB7:
 181:D:/fchai/work/i-cube/I-CUBE-HUAWEI/Middlewares/Third_Party/Huawei/iot_link/network/dtls/mbedtls/mbedtls-2.16.2/library\md.c **** 
 182:D:/fchai/work/i-cube/I-CUBE-HUAWEI/Middlewares/Third_Party/Huawei/iot_link/network/dtls/mbedtls/mbedtls-2.16.2/library\md.c **** void mbedtls_md_free( mbedtls_md_context_t *ctx )
 183:D:/fchai/work/i-cube/I-CUBE-HUAWEI/Middlewares/Third_Party/Huawei/iot_link/network/dtls/mbedtls/mbedtls-2.16.2/library\md.c **** {
 232              		.loc 1 183 1 is_stmt 1 view -0
 233              		.cfi_startproc
 234              		@ args = 0, pretend = 0, frame = 0
 235              		@ frame_needed = 0, uses_anonymous_args = 0
 184:D:/fchai/work/i-cube/I-CUBE-HUAWEI/Middlewares/Third_Party/Huawei/iot_link/network/dtls/mbedtls/mbedtls-2.16.2/library\md.c ****     if( ctx == NULL || ctx->md_info == NULL )
 236              		.loc 1 184 5 view .LVU37
 237              		.loc 1 184 7 is_stmt 0 view .LVU38
 238 0000 C0B1     		cbz	r0, .L38
 239              		.loc 1 184 27 discriminator 1 view .LVU39
 240 0002 0368     		ldr	r3, [r0]
 183:D:/fchai/work/i-cube/I-CUBE-HUAWEI/Middlewares/Third_Party/Huawei/iot_link/network/dtls/mbedtls/mbedtls-2.16.2/library\md.c ****     if( ctx == NULL || ctx->md_info == NULL )
 241              		.loc 1 183 1 discriminator 1 view .LVU40
 242 0004 10B5     		push	{r4, lr}
 243              	.LCFI1:
 244              		.cfi_def_cfa_offset 8
 245              		.cfi_offset 4, -8
 246              		.cfi_offset 14, -4
 247 0006 0446     		mov	r4, r0
 248              		.loc 1 184 21 discriminator 1 view .LVU41
 249 0008 9BB1     		cbz	r3, .L21
 185:D:/fchai/work/i-cube/I-CUBE-HUAWEI/Middlewares/Third_Party/Huawei/iot_link/network/dtls/mbedtls/mbedtls-2.16.2/library\md.c ****         return;
 186:D:/fchai/work/i-cube/I-CUBE-HUAWEI/Middlewares/Third_Party/Huawei/iot_link/network/dtls/mbedtls/mbedtls-2.16.2/library\md.c **** 
 187:D:/fchai/work/i-cube/I-CUBE-HUAWEI/Middlewares/Third_Party/Huawei/iot_link/network/dtls/mbedtls/mbedtls-2.16.2/library\md.c ****     if( ctx->md_ctx != NULL )
 250              		.loc 1 187 5 is_stmt 1 view .LVU42
 251              		.loc 1 187 12 is_stmt 0 view .LVU43
 252 000a 4068     		ldr	r0, [r0, #4]
 253              	.LVL14:
 254              		.loc 1 187 7 view .LVU44
 255 000c 08B1     		cbz	r0, .L23
 188:D:/fchai/work/i-cube/I-CUBE-HUAWEI/Middlewares/Third_Party/Huawei/iot_link/network/dtls/mbedtls/mbedtls-2.16.2/library\md.c ****         ctx->md_info->ctx_free_func( ctx->md_ctx );
 256              		.loc 1 188 9 is_stmt 1 view .LVU45
 257 000e 5B6A     		ldr	r3, [r3, #36]
 258 0010 9847     		blx	r3
 259              	.LVL15:
 260              	.L23:
 261              	.LBB14:
 262              	.LBI14:
 182:D:/fchai/work/i-cube/I-CUBE-HUAWEI/Middlewares/Third_Party/Huawei/iot_link/network/dtls/mbedtls/mbedtls-2.16.2/library\md.c **** {
 263              		.loc 1 182 6 view .LVU46
 264              	.LBB15:
 189:D:/fchai/work/i-cube/I-CUBE-HUAWEI/Middlewares/Third_Party/Huawei/iot_link/network/dtls/mbedtls/mbedtls-2.16.2/library\md.c **** 
 190:D:/fchai/work/i-cube/I-CUBE-HUAWEI/Middlewares/Third_Party/Huawei/iot_link/network/dtls/mbedtls/mbedtls-2.16.2/library\md.c ****     if( ctx->hmac_ctx != NULL )
ARM GAS  T:\msys\tmp\cc3NNrif.s 			page 9


 265              		.loc 1 190 5 view .LVU47
 266              		.loc 1 190 12 is_stmt 0 view .LVU48
 267 0012 A068     		ldr	r0, [r4, #8]
 268              		.loc 1 190 7 view .LVU49
 269 0014 38B1     		cbz	r0, .L24
 191:D:/fchai/work/i-cube/I-CUBE-HUAWEI/Middlewares/Third_Party/Huawei/iot_link/network/dtls/mbedtls/mbedtls-2.16.2/library\md.c ****     {
 192:D:/fchai/work/i-cube/I-CUBE-HUAWEI/Middlewares/Third_Party/Huawei/iot_link/network/dtls/mbedtls/mbedtls-2.16.2/library\md.c ****         mbedtls_platform_zeroize( ctx->hmac_ctx,
 270              		.loc 1 192 9 is_stmt 1 view .LVU50
 193:D:/fchai/work/i-cube/I-CUBE-HUAWEI/Middlewares/Third_Party/Huawei/iot_link/network/dtls/mbedtls/mbedtls-2.16.2/library\md.c ****                                   2 * ctx->md_info->block_size );
 271              		.loc 1 193 51 is_stmt 0 view .LVU51
 272 0016 2368     		ldr	r3, [r4]
 273              		.loc 1 193 37 view .LVU52
 274 0018 D968     		ldr	r1, [r3, #12]
 192:D:/fchai/work/i-cube/I-CUBE-HUAWEI/Middlewares/Third_Party/Huawei/iot_link/network/dtls/mbedtls/mbedtls-2.16.2/library\md.c ****                                   2 * ctx->md_info->block_size );
 275              		.loc 1 192 9 view .LVU53
 276 001a 4900     		lsls	r1, r1, #1
 277 001c FFF7FEFF 		bl	mbedtls_platform_zeroize
 278              	.LVL16:
 194:D:/fchai/work/i-cube/I-CUBE-HUAWEI/Middlewares/Third_Party/Huawei/iot_link/network/dtls/mbedtls/mbedtls-2.16.2/library\md.c ****         mbedtls_free( ctx->hmac_ctx );
 279              		.loc 1 194 9 is_stmt 1 view .LVU54
 280 0020 A068     		ldr	r0, [r4, #8]
 281 0022 FFF7FEFF 		bl	mbedtls_free
 282              	.LVL17:
 283              	.L24:
 195:D:/fchai/work/i-cube/I-CUBE-HUAWEI/Middlewares/Third_Party/Huawei/iot_link/network/dtls/mbedtls/mbedtls-2.16.2/library\md.c ****     }
 196:D:/fchai/work/i-cube/I-CUBE-HUAWEI/Middlewares/Third_Party/Huawei/iot_link/network/dtls/mbedtls/mbedtls-2.16.2/library\md.c **** 
 197:D:/fchai/work/i-cube/I-CUBE-HUAWEI/Middlewares/Third_Party/Huawei/iot_link/network/dtls/mbedtls/mbedtls-2.16.2/library\md.c ****     mbedtls_platform_zeroize( ctx, sizeof( mbedtls_md_context_t ) );
 284              		.loc 1 197 5 view .LVU55
 285 0026 2046     		mov	r0, r4
 286 0028 0C21     		movs	r1, #12
 287              	.LBE15:
 288              	.LBE14:
 198:D:/fchai/work/i-cube/I-CUBE-HUAWEI/Middlewares/Third_Party/Huawei/iot_link/network/dtls/mbedtls/mbedtls-2.16.2/library\md.c **** }
 289              		.loc 1 198 1 is_stmt 0 view .LVU56
 290 002a BDE81040 		pop	{r4, lr}
 291              	.LCFI2:
 292              		.cfi_remember_state
 293              		.cfi_restore 14
 294              		.cfi_restore 4
 295              		.cfi_def_cfa_offset 0
 296              	.LVL18:
 297              	.LBB17:
 298              	.LBB16:
 197:D:/fchai/work/i-cube/I-CUBE-HUAWEI/Middlewares/Third_Party/Huawei/iot_link/network/dtls/mbedtls/mbedtls-2.16.2/library\md.c **** }
 299              		.loc 1 197 5 view .LVU57
 300 002e FFF7FEBF 		b	mbedtls_platform_zeroize
 301              	.LVL19:
 302              	.L21:
 303              	.LCFI3:
 304              		.cfi_restore_state
 197:D:/fchai/work/i-cube/I-CUBE-HUAWEI/Middlewares/Third_Party/Huawei/iot_link/network/dtls/mbedtls/mbedtls-2.16.2/library\md.c **** }
 305              		.loc 1 197 5 view .LVU58
 306              	.LBE16:
 307              	.LBE17:
 308              		.loc 1 198 1 view .LVU59
 309 0032 10BD     		pop	{r4, pc}
 310              	.L38:
ARM GAS  T:\msys\tmp\cc3NNrif.s 			page 10


 311              	.LCFI4:
 312              		.cfi_def_cfa_offset 0
 313              		.cfi_restore 4
 314              		.cfi_restore 14
 315 0034 7047     		bx	lr
 316              		.cfi_endproc
 317              	.LFE7:
 319 0036 00BF     		.section	.text.mbedtls_md_clone,"ax",%progbits
 320              		.align	1
 321              		.p2align 2,,3
 322              		.global	mbedtls_md_clone
 323              		.syntax unified
 324              		.thumb
 325              		.thumb_func
 326              		.fpu fpv4-sp-d16
 328              	mbedtls_md_clone:
 329              	.LVL20:
 330              	.LFB8:
 199:D:/fchai/work/i-cube/I-CUBE-HUAWEI/Middlewares/Third_Party/Huawei/iot_link/network/dtls/mbedtls/mbedtls-2.16.2/library\md.c **** 
 200:D:/fchai/work/i-cube/I-CUBE-HUAWEI/Middlewares/Third_Party/Huawei/iot_link/network/dtls/mbedtls/mbedtls-2.16.2/library\md.c **** int mbedtls_md_clone( mbedtls_md_context_t *dst,
 201:D:/fchai/work/i-cube/I-CUBE-HUAWEI/Middlewares/Third_Party/Huawei/iot_link/network/dtls/mbedtls/mbedtls-2.16.2/library\md.c ****                       const mbedtls_md_context_t *src )
 202:D:/fchai/work/i-cube/I-CUBE-HUAWEI/Middlewares/Third_Party/Huawei/iot_link/network/dtls/mbedtls/mbedtls-2.16.2/library\md.c **** {
 331              		.loc 1 202 1 is_stmt 1 view -0
 332              		.cfi_startproc
 333              		@ args = 0, pretend = 0, frame = 0
 334              		@ frame_needed = 0, uses_anonymous_args = 0
 203:D:/fchai/work/i-cube/I-CUBE-HUAWEI/Middlewares/Third_Party/Huawei/iot_link/network/dtls/mbedtls/mbedtls-2.16.2/library\md.c ****     if( dst == NULL || dst->md_info == NULL ||
 335              		.loc 1 203 5 view .LVU61
 336              		.loc 1 203 7 is_stmt 0 view .LVU62
 337 0000 78B1     		cbz	r0, .L43
 202:D:/fchai/work/i-cube/I-CUBE-HUAWEI/Middlewares/Third_Party/Huawei/iot_link/network/dtls/mbedtls/mbedtls-2.16.2/library\md.c ****     if( dst == NULL || dst->md_info == NULL ||
 338              		.loc 1 202 1 discriminator 1 view .LVU63
 339 0002 08B5     		push	{r3, lr}
 340              	.LCFI5:
 341              		.cfi_def_cfa_offset 8
 342              		.cfi_offset 3, -8
 343              		.cfi_offset 14, -4
 344              		.loc 1 203 27 discriminator 1 view .LVU64
 345 0004 0368     		ldr	r3, [r0]
 346              		.loc 1 203 21 discriminator 1 view .LVU65
 347 0006 53B1     		cbz	r3, .L47
 348              		.loc 1 203 45 discriminator 2 view .LVU66
 349 0008 49B1     		cbz	r1, .L47
 204:D:/fchai/work/i-cube/I-CUBE-HUAWEI/Middlewares/Third_Party/Huawei/iot_link/network/dtls/mbedtls/mbedtls-2.16.2/library\md.c ****         src == NULL || src->md_info == NULL ||
 350              		.loc 1 204 27 view .LVU67
 351 000a 0A68     		ldr	r2, [r1]
 352              		.loc 1 204 21 view .LVU68
 353 000c 3AB1     		cbz	r2, .L47
 354              		.loc 1 204 45 discriminator 1 view .LVU69
 355 000e 9342     		cmp	r3, r2
 356 0010 05D1     		bne	.L47
 205:D:/fchai/work/i-cube/I-CUBE-HUAWEI/Middlewares/Third_Party/Huawei/iot_link/network/dtls/mbedtls/mbedtls-2.16.2/library\md.c ****         dst->md_info != src->md_info )
 206:D:/fchai/work/i-cube/I-CUBE-HUAWEI/Middlewares/Third_Party/Huawei/iot_link/network/dtls/mbedtls/mbedtls-2.16.2/library\md.c ****     {
 207:D:/fchai/work/i-cube/I-CUBE-HUAWEI/Middlewares/Third_Party/Huawei/iot_link/network/dtls/mbedtls/mbedtls-2.16.2/library\md.c ****         return( MBEDTLS_ERR_MD_BAD_INPUT_DATA );
 208:D:/fchai/work/i-cube/I-CUBE-HUAWEI/Middlewares/Third_Party/Huawei/iot_link/network/dtls/mbedtls/mbedtls-2.16.2/library\md.c ****     }
 209:D:/fchai/work/i-cube/I-CUBE-HUAWEI/Middlewares/Third_Party/Huawei/iot_link/network/dtls/mbedtls/mbedtls-2.16.2/library\md.c **** 
 210:D:/fchai/work/i-cube/I-CUBE-HUAWEI/Middlewares/Third_Party/Huawei/iot_link/network/dtls/mbedtls/mbedtls-2.16.2/library\md.c ****     dst->md_info->clone_func( dst->md_ctx, src->md_ctx );
ARM GAS  T:\msys\tmp\cc3NNrif.s 			page 11


 357              		.loc 1 210 5 is_stmt 1 view .LVU70
 358 0012 9B6A     		ldr	r3, [r3, #40]
 359 0014 4968     		ldr	r1, [r1, #4]
 360              	.LVL21:
 361              		.loc 1 210 5 is_stmt 0 view .LVU71
 362 0016 4068     		ldr	r0, [r0, #4]
 363              	.LVL22:
 364              		.loc 1 210 5 view .LVU72
 365 0018 9847     		blx	r3
 366              	.LVL23:
 211:D:/fchai/work/i-cube/I-CUBE-HUAWEI/Middlewares/Third_Party/Huawei/iot_link/network/dtls/mbedtls/mbedtls-2.16.2/library\md.c **** 
 212:D:/fchai/work/i-cube/I-CUBE-HUAWEI/Middlewares/Third_Party/Huawei/iot_link/network/dtls/mbedtls/mbedtls-2.16.2/library\md.c ****     return( 0 );
 367              		.loc 1 212 5 is_stmt 1 view .LVU73
 368              		.loc 1 212 11 is_stmt 0 view .LVU74
 369 001a 0020     		movs	r0, #0
 213:D:/fchai/work/i-cube/I-CUBE-HUAWEI/Middlewares/Third_Party/Huawei/iot_link/network/dtls/mbedtls/mbedtls-2.16.2/library\md.c **** }
 370              		.loc 1 213 1 view .LVU75
 371 001c 08BD     		pop	{r3, pc}
 372              	.LVL24:
 373              	.L47:
 207:D:/fchai/work/i-cube/I-CUBE-HUAWEI/Middlewares/Third_Party/Huawei/iot_link/network/dtls/mbedtls/mbedtls-2.16.2/library\md.c ****     }
 374              		.loc 1 207 15 view .LVU76
 375 001e 0248     		ldr	r0, .L52
 376              	.LVL25:
 377              		.loc 1 213 1 view .LVU77
 378 0020 08BD     		pop	{r3, pc}
 379              	.LVL26:
 380              	.L43:
 381              	.LCFI6:
 382              		.cfi_def_cfa_offset 0
 383              		.cfi_restore 3
 384              		.cfi_restore 14
 207:D:/fchai/work/i-cube/I-CUBE-HUAWEI/Middlewares/Third_Party/Huawei/iot_link/network/dtls/mbedtls/mbedtls-2.16.2/library\md.c ****     }
 385              		.loc 1 207 15 view .LVU78
 386 0022 0148     		ldr	r0, .L52
 387              	.LVL27:
 388              		.loc 1 213 1 view .LVU79
 389 0024 7047     		bx	lr
 390              	.L53:
 391 0026 00BF     		.align	2
 392              	.L52:
 393 0028 00AFFFFF 		.word	-20736
 394              		.cfi_endproc
 395              	.LFE8:
 397              		.section	.text.mbedtls_md_setup,"ax",%progbits
 398              		.align	1
 399              		.p2align 2,,3
 400              		.global	mbedtls_md_setup
 401              		.syntax unified
 402              		.thumb
 403              		.thumb_func
 404              		.fpu fpv4-sp-d16
 406              	mbedtls_md_setup:
 407              	.LVL28:
 408              	.LFB10:
 214:D:/fchai/work/i-cube/I-CUBE-HUAWEI/Middlewares/Third_Party/Huawei/iot_link/network/dtls/mbedtls/mbedtls-2.16.2/library\md.c **** 
 215:D:/fchai/work/i-cube/I-CUBE-HUAWEI/Middlewares/Third_Party/Huawei/iot_link/network/dtls/mbedtls/mbedtls-2.16.2/library\md.c **** #if ! defined(MBEDTLS_DEPRECATED_REMOVED)
ARM GAS  T:\msys\tmp\cc3NNrif.s 			page 12


 216:D:/fchai/work/i-cube/I-CUBE-HUAWEI/Middlewares/Third_Party/Huawei/iot_link/network/dtls/mbedtls/mbedtls-2.16.2/library\md.c **** int mbedtls_md_init_ctx( mbedtls_md_context_t *ctx, const mbedtls_md_info_t *md_info )
 217:D:/fchai/work/i-cube/I-CUBE-HUAWEI/Middlewares/Third_Party/Huawei/iot_link/network/dtls/mbedtls/mbedtls-2.16.2/library\md.c **** {
 218:D:/fchai/work/i-cube/I-CUBE-HUAWEI/Middlewares/Third_Party/Huawei/iot_link/network/dtls/mbedtls/mbedtls-2.16.2/library\md.c ****     return mbedtls_md_setup( ctx, md_info, 1 );
 219:D:/fchai/work/i-cube/I-CUBE-HUAWEI/Middlewares/Third_Party/Huawei/iot_link/network/dtls/mbedtls/mbedtls-2.16.2/library\md.c **** }
 220:D:/fchai/work/i-cube/I-CUBE-HUAWEI/Middlewares/Third_Party/Huawei/iot_link/network/dtls/mbedtls/mbedtls-2.16.2/library\md.c **** #endif
 221:D:/fchai/work/i-cube/I-CUBE-HUAWEI/Middlewares/Third_Party/Huawei/iot_link/network/dtls/mbedtls/mbedtls-2.16.2/library\md.c **** 
 222:D:/fchai/work/i-cube/I-CUBE-HUAWEI/Middlewares/Third_Party/Huawei/iot_link/network/dtls/mbedtls/mbedtls-2.16.2/library\md.c **** int mbedtls_md_setup( mbedtls_md_context_t *ctx, const mbedtls_md_info_t *md_info, int hmac )
 223:D:/fchai/work/i-cube/I-CUBE-HUAWEI/Middlewares/Third_Party/Huawei/iot_link/network/dtls/mbedtls/mbedtls-2.16.2/library\md.c **** {
 409              		.loc 1 223 1 is_stmt 1 view -0
 410              		.cfi_startproc
 411              		@ args = 0, pretend = 0, frame = 0
 412              		@ frame_needed = 0, uses_anonymous_args = 0
 224:D:/fchai/work/i-cube/I-CUBE-HUAWEI/Middlewares/Third_Party/Huawei/iot_link/network/dtls/mbedtls/mbedtls-2.16.2/library\md.c ****     if( md_info == NULL || ctx == NULL )
 413              		.loc 1 224 5 view .LVU81
 414              		.loc 1 224 7 is_stmt 0 view .LVU82
 415 0000 E1B1     		cbz	r1, .L57
 223:D:/fchai/work/i-cube/I-CUBE-HUAWEI/Middlewares/Third_Party/Huawei/iot_link/network/dtls/mbedtls/mbedtls-2.16.2/library\md.c ****     if( md_info == NULL || ctx == NULL )
 416              		.loc 1 223 1 discriminator 1 view .LVU83
 417 0002 70B5     		push	{r4, r5, r6, lr}
 418              	.LCFI7:
 419              		.cfi_def_cfa_offset 16
 420              		.cfi_offset 4, -16
 421              		.cfi_offset 5, -12
 422              		.cfi_offset 6, -8
 423              		.cfi_offset 14, -4
 424 0004 0546     		mov	r5, r0
 425              		.loc 1 224 25 discriminator 1 view .LVU84
 426 0006 B8B1     		cbz	r0, .L58
 225:D:/fchai/work/i-cube/I-CUBE-HUAWEI/Middlewares/Third_Party/Huawei/iot_link/network/dtls/mbedtls/mbedtls-2.16.2/library\md.c ****         return( MBEDTLS_ERR_MD_BAD_INPUT_DATA );
 226:D:/fchai/work/i-cube/I-CUBE-HUAWEI/Middlewares/Third_Party/Huawei/iot_link/network/dtls/mbedtls/mbedtls-2.16.2/library\md.c **** 
 227:D:/fchai/work/i-cube/I-CUBE-HUAWEI/Middlewares/Third_Party/Huawei/iot_link/network/dtls/mbedtls/mbedtls-2.16.2/library\md.c ****     if( ( ctx->md_ctx = md_info->ctx_alloc_func() ) == NULL )
 427              		.loc 1 227 5 is_stmt 1 view .LVU85
 428              		.loc 1 227 25 is_stmt 0 view .LVU86
 429 0008 0B6A     		ldr	r3, [r1, #32]
 430 000a 1646     		mov	r6, r2
 431 000c 0C46     		mov	r4, r1
 432 000e 9847     		blx	r3
 433              	.LVL29:
 434              		.loc 1 227 23 view .LVU87
 435 0010 6860     		str	r0, [r5, #4]
 436              		.loc 1 227 7 view .LVU88
 437 0012 78B1     		cbz	r0, .L59
 228:D:/fchai/work/i-cube/I-CUBE-HUAWEI/Middlewares/Third_Party/Huawei/iot_link/network/dtls/mbedtls/mbedtls-2.16.2/library\md.c ****         return( MBEDTLS_ERR_MD_ALLOC_FAILED );
 229:D:/fchai/work/i-cube/I-CUBE-HUAWEI/Middlewares/Third_Party/Huawei/iot_link/network/dtls/mbedtls/mbedtls-2.16.2/library\md.c **** 
 230:D:/fchai/work/i-cube/I-CUBE-HUAWEI/Middlewares/Third_Party/Huawei/iot_link/network/dtls/mbedtls/mbedtls-2.16.2/library\md.c ****     if( hmac != 0 )
 438              		.loc 1 230 5 is_stmt 1 view .LVU89
 439              		.loc 1 230 7 is_stmt 0 view .LVU90
 440 0014 16B9     		cbnz	r6, .L67
 441              	.L56:
 231:D:/fchai/work/i-cube/I-CUBE-HUAWEI/Middlewares/Third_Party/Huawei/iot_link/network/dtls/mbedtls/mbedtls-2.16.2/library\md.c ****     {
 232:D:/fchai/work/i-cube/I-CUBE-HUAWEI/Middlewares/Third_Party/Huawei/iot_link/network/dtls/mbedtls/mbedtls-2.16.2/library\md.c ****         ctx->hmac_ctx = mbedtls_calloc( 2, md_info->block_size );
 233:D:/fchai/work/i-cube/I-CUBE-HUAWEI/Middlewares/Third_Party/Huawei/iot_link/network/dtls/mbedtls/mbedtls-2.16.2/library\md.c ****         if( ctx->hmac_ctx == NULL )
 234:D:/fchai/work/i-cube/I-CUBE-HUAWEI/Middlewares/Third_Party/Huawei/iot_link/network/dtls/mbedtls/mbedtls-2.16.2/library\md.c ****         {
 235:D:/fchai/work/i-cube/I-CUBE-HUAWEI/Middlewares/Third_Party/Huawei/iot_link/network/dtls/mbedtls/mbedtls-2.16.2/library\md.c ****             md_info->ctx_free_func( ctx->md_ctx );
 236:D:/fchai/work/i-cube/I-CUBE-HUAWEI/Middlewares/Third_Party/Huawei/iot_link/network/dtls/mbedtls/mbedtls-2.16.2/library\md.c ****             return( MBEDTLS_ERR_MD_ALLOC_FAILED );
 237:D:/fchai/work/i-cube/I-CUBE-HUAWEI/Middlewares/Third_Party/Huawei/iot_link/network/dtls/mbedtls/mbedtls-2.16.2/library\md.c ****         }
 238:D:/fchai/work/i-cube/I-CUBE-HUAWEI/Middlewares/Third_Party/Huawei/iot_link/network/dtls/mbedtls/mbedtls-2.16.2/library\md.c ****     }
ARM GAS  T:\msys\tmp\cc3NNrif.s 			page 13


 239:D:/fchai/work/i-cube/I-CUBE-HUAWEI/Middlewares/Third_Party/Huawei/iot_link/network/dtls/mbedtls/mbedtls-2.16.2/library\md.c **** 
 240:D:/fchai/work/i-cube/I-CUBE-HUAWEI/Middlewares/Third_Party/Huawei/iot_link/network/dtls/mbedtls/mbedtls-2.16.2/library\md.c ****     ctx->md_info = md_info;
 442              		.loc 1 240 5 is_stmt 1 view .LVU91
 443              		.loc 1 240 18 is_stmt 0 view .LVU92
 444 0016 2C60     		str	r4, [r5]
 241:D:/fchai/work/i-cube/I-CUBE-HUAWEI/Middlewares/Third_Party/Huawei/iot_link/network/dtls/mbedtls/mbedtls-2.16.2/library\md.c **** 
 242:D:/fchai/work/i-cube/I-CUBE-HUAWEI/Middlewares/Third_Party/Huawei/iot_link/network/dtls/mbedtls/mbedtls-2.16.2/library\md.c ****     return( 0 );
 445              		.loc 1 242 5 is_stmt 1 view .LVU93
 446              		.loc 1 242 11 is_stmt 0 view .LVU94
 447 0018 0020     		movs	r0, #0
 243:D:/fchai/work/i-cube/I-CUBE-HUAWEI/Middlewares/Third_Party/Huawei/iot_link/network/dtls/mbedtls/mbedtls-2.16.2/library\md.c **** }
 448              		.loc 1 243 1 view .LVU95
 449 001a 70BD     		pop	{r4, r5, r6, pc}
 450              	.LVL30:
 451              	.L67:
 232:D:/fchai/work/i-cube/I-CUBE-HUAWEI/Middlewares/Third_Party/Huawei/iot_link/network/dtls/mbedtls/mbedtls-2.16.2/library\md.c ****         if( ctx->hmac_ctx == NULL )
 452              		.loc 1 232 9 is_stmt 1 view .LVU96
 232:D:/fchai/work/i-cube/I-CUBE-HUAWEI/Middlewares/Third_Party/Huawei/iot_link/network/dtls/mbedtls/mbedtls-2.16.2/library\md.c ****         if( ctx->hmac_ctx == NULL )
 453              		.loc 1 232 25 is_stmt 0 view .LVU97
 454 001c E168     		ldr	r1, [r4, #12]
 455 001e 0220     		movs	r0, #2
 456 0020 FFF7FEFF 		bl	mbedtls_calloc
 457              	.LVL31:
 232:D:/fchai/work/i-cube/I-CUBE-HUAWEI/Middlewares/Third_Party/Huawei/iot_link/network/dtls/mbedtls/mbedtls-2.16.2/library\md.c ****         if( ctx->hmac_ctx == NULL )
 458              		.loc 1 232 23 view .LVU98
 459 0024 A860     		str	r0, [r5, #8]
 233:D:/fchai/work/i-cube/I-CUBE-HUAWEI/Middlewares/Third_Party/Huawei/iot_link/network/dtls/mbedtls/mbedtls-2.16.2/library\md.c ****         {
 460              		.loc 1 233 9 is_stmt 1 view .LVU99
 233:D:/fchai/work/i-cube/I-CUBE-HUAWEI/Middlewares/Third_Party/Huawei/iot_link/network/dtls/mbedtls/mbedtls-2.16.2/library\md.c ****         {
 461              		.loc 1 233 11 is_stmt 0 view .LVU100
 462 0026 0028     		cmp	r0, #0
 463 0028 F5D1     		bne	.L56
 464              	.LVL32:
 465              	.LBB20:
 466              	.LBI20:
 222:D:/fchai/work/i-cube/I-CUBE-HUAWEI/Middlewares/Third_Party/Huawei/iot_link/network/dtls/mbedtls/mbedtls-2.16.2/library\md.c **** {
 467              		.loc 1 222 5 is_stmt 1 view .LVU101
 468              	.LBB21:
 235:D:/fchai/work/i-cube/I-CUBE-HUAWEI/Middlewares/Third_Party/Huawei/iot_link/network/dtls/mbedtls/mbedtls-2.16.2/library\md.c ****             return( MBEDTLS_ERR_MD_ALLOC_FAILED );
 469              		.loc 1 235 13 view .LVU102
 470 002a 6868     		ldr	r0, [r5, #4]
 471 002c 636A     		ldr	r3, [r4, #36]
 472 002e 9847     		blx	r3
 473              	.LVL33:
 236:D:/fchai/work/i-cube/I-CUBE-HUAWEI/Middlewares/Third_Party/Huawei/iot_link/network/dtls/mbedtls/mbedtls-2.16.2/library\md.c ****         }
 474              		.loc 1 236 13 view .LVU103
 235:D:/fchai/work/i-cube/I-CUBE-HUAWEI/Middlewares/Third_Party/Huawei/iot_link/network/dtls/mbedtls/mbedtls-2.16.2/library\md.c ****             return( MBEDTLS_ERR_MD_ALLOC_FAILED );
 475              		.loc 1 235 13 is_stmt 0 view .LVU104
 476 0030 0348     		ldr	r0, .L68
 477              	.LBE21:
 478              	.LBE20:
 479              		.loc 1 243 1 view .LVU105
 480 0032 70BD     		pop	{r4, r5, r6, pc}
 481              	.LVL34:
 482              	.L59:
 228:D:/fchai/work/i-cube/I-CUBE-HUAWEI/Middlewares/Third_Party/Huawei/iot_link/network/dtls/mbedtls/mbedtls-2.16.2/library\md.c **** 
 483              		.loc 1 228 15 view .LVU106
ARM GAS  T:\msys\tmp\cc3NNrif.s 			page 14


 484 0034 0248     		ldr	r0, .L68
 485              		.loc 1 243 1 view .LVU107
 486 0036 70BD     		pop	{r4, r5, r6, pc}
 487              	.LVL35:
 488              	.L58:
 225:D:/fchai/work/i-cube/I-CUBE-HUAWEI/Middlewares/Third_Party/Huawei/iot_link/network/dtls/mbedtls/mbedtls-2.16.2/library\md.c **** 
 489              		.loc 1 225 15 view .LVU108
 490 0038 0248     		ldr	r0, .L68+4
 491              	.LVL36:
 492              		.loc 1 243 1 view .LVU109
 493 003a 70BD     		pop	{r4, r5, r6, pc}
 494              	.LVL37:
 495              	.L57:
 496              	.LCFI8:
 497              		.cfi_def_cfa_offset 0
 498              		.cfi_restore 4
 499              		.cfi_restore 5
 500              		.cfi_restore 6
 501              		.cfi_restore 14
 225:D:/fchai/work/i-cube/I-CUBE-HUAWEI/Middlewares/Third_Party/Huawei/iot_link/network/dtls/mbedtls/mbedtls-2.16.2/library\md.c **** 
 502              		.loc 1 225 15 view .LVU110
 503 003c 0148     		ldr	r0, .L68+4
 504              	.LVL38:
 505              		.loc 1 243 1 view .LVU111
 506 003e 7047     		bx	lr
 507              	.L69:
 508              		.align	2
 509              	.L68:
 510 0040 80AEFFFF 		.word	-20864
 511 0044 00AFFFFF 		.word	-20736
 512              		.cfi_endproc
 513              	.LFE10:
 515              		.section	.text.mbedtls_md_init_ctx,"ax",%progbits
 516              		.align	1
 517              		.p2align 2,,3
 518              		.global	mbedtls_md_init_ctx
 519              		.syntax unified
 520              		.thumb
 521              		.thumb_func
 522              		.fpu fpv4-sp-d16
 524              	mbedtls_md_init_ctx:
 525              	.LVL39:
 526              	.LFB9:
 217:D:/fchai/work/i-cube/I-CUBE-HUAWEI/Middlewares/Third_Party/Huawei/iot_link/network/dtls/mbedtls/mbedtls-2.16.2/library\md.c ****     return mbedtls_md_setup( ctx, md_info, 1 );
 527              		.loc 1 217 1 is_stmt 1 view -0
 528              		.cfi_startproc
 529              		@ args = 0, pretend = 0, frame = 0
 530              		@ frame_needed = 0, uses_anonymous_args = 0
 531              		@ link register save eliminated.
 218:D:/fchai/work/i-cube/I-CUBE-HUAWEI/Middlewares/Third_Party/Huawei/iot_link/network/dtls/mbedtls/mbedtls-2.16.2/library\md.c **** }
 532              		.loc 1 218 5 view .LVU113
 218:D:/fchai/work/i-cube/I-CUBE-HUAWEI/Middlewares/Third_Party/Huawei/iot_link/network/dtls/mbedtls/mbedtls-2.16.2/library\md.c **** }
 533              		.loc 1 218 12 is_stmt 0 view .LVU114
 534 0000 0122     		movs	r2, #1
 535 0002 FFF7FEBF 		b	mbedtls_md_setup
 536              	.LVL40:
 218:D:/fchai/work/i-cube/I-CUBE-HUAWEI/Middlewares/Third_Party/Huawei/iot_link/network/dtls/mbedtls/mbedtls-2.16.2/library\md.c **** }
ARM GAS  T:\msys\tmp\cc3NNrif.s 			page 15


 537              		.loc 1 218 12 view .LVU115
 538              		.cfi_endproc
 539              	.LFE9:
 541 0006 00BF     		.section	.text.mbedtls_md_starts,"ax",%progbits
 542              		.align	1
 543              		.p2align 2,,3
 544              		.global	mbedtls_md_starts
 545              		.syntax unified
 546              		.thumb
 547              		.thumb_func
 548              		.fpu fpv4-sp-d16
 550              	mbedtls_md_starts:
 551              	.LVL41:
 552              	.LFB11:
 244:D:/fchai/work/i-cube/I-CUBE-HUAWEI/Middlewares/Third_Party/Huawei/iot_link/network/dtls/mbedtls/mbedtls-2.16.2/library\md.c **** 
 245:D:/fchai/work/i-cube/I-CUBE-HUAWEI/Middlewares/Third_Party/Huawei/iot_link/network/dtls/mbedtls/mbedtls-2.16.2/library\md.c **** int mbedtls_md_starts( mbedtls_md_context_t *ctx )
 246:D:/fchai/work/i-cube/I-CUBE-HUAWEI/Middlewares/Third_Party/Huawei/iot_link/network/dtls/mbedtls/mbedtls-2.16.2/library\md.c **** {
 553              		.loc 1 246 1 is_stmt 1 view -0
 554              		.cfi_startproc
 555              		@ args = 0, pretend = 0, frame = 0
 556              		@ frame_needed = 0, uses_anonymous_args = 0
 557              		@ link register save eliminated.
 247:D:/fchai/work/i-cube/I-CUBE-HUAWEI/Middlewares/Third_Party/Huawei/iot_link/network/dtls/mbedtls/mbedtls-2.16.2/library\md.c ****     if( ctx == NULL || ctx->md_info == NULL )
 558              		.loc 1 247 5 view .LVU117
 559              		.loc 1 247 7 is_stmt 0 view .LVU118
 560 0000 20B1     		cbz	r0, .L74
 561              		.loc 1 247 27 discriminator 1 view .LVU119
 562 0002 0368     		ldr	r3, [r0]
 563              		.loc 1 247 21 discriminator 1 view .LVU120
 564 0004 13B1     		cbz	r3, .L74
 248:D:/fchai/work/i-cube/I-CUBE-HUAWEI/Middlewares/Third_Party/Huawei/iot_link/network/dtls/mbedtls/mbedtls-2.16.2/library\md.c ****         return( MBEDTLS_ERR_MD_BAD_INPUT_DATA );
 249:D:/fchai/work/i-cube/I-CUBE-HUAWEI/Middlewares/Third_Party/Huawei/iot_link/network/dtls/mbedtls/mbedtls-2.16.2/library\md.c **** 
 250:D:/fchai/work/i-cube/I-CUBE-HUAWEI/Middlewares/Third_Party/Huawei/iot_link/network/dtls/mbedtls/mbedtls-2.16.2/library\md.c ****     return( ctx->md_info->starts_func( ctx->md_ctx ) );
 565              		.loc 1 250 5 is_stmt 1 view .LVU121
 566              		.loc 1 250 13 is_stmt 0 view .LVU122
 567 0006 1B69     		ldr	r3, [r3, #16]
 568 0008 4068     		ldr	r0, [r0, #4]
 569              	.LVL42:
 570              		.loc 1 250 13 view .LVU123
 571 000a 1847     		bx	r3
 572              	.LVL43:
 573              	.L74:
 248:D:/fchai/work/i-cube/I-CUBE-HUAWEI/Middlewares/Third_Party/Huawei/iot_link/network/dtls/mbedtls/mbedtls-2.16.2/library\md.c ****         return( MBEDTLS_ERR_MD_BAD_INPUT_DATA );
 574              		.loc 1 248 15 view .LVU124
 575 000c 0048     		ldr	r0, .L75
 576              	.LVL44:
 251:D:/fchai/work/i-cube/I-CUBE-HUAWEI/Middlewares/Third_Party/Huawei/iot_link/network/dtls/mbedtls/mbedtls-2.16.2/library\md.c **** }
 577              		.loc 1 251 1 view .LVU125
 578 000e 7047     		bx	lr
 579              	.L76:
 580              		.align	2
 581              	.L75:
 582 0010 00AFFFFF 		.word	-20736
 583              		.cfi_endproc
 584              	.LFE11:
 586              		.section	.text.mbedtls_md_update,"ax",%progbits
 587              		.align	1
ARM GAS  T:\msys\tmp\cc3NNrif.s 			page 16


 588              		.p2align 2,,3
 589              		.global	mbedtls_md_update
 590              		.syntax unified
 591              		.thumb
 592              		.thumb_func
 593              		.fpu fpv4-sp-d16
 595              	mbedtls_md_update:
 596              	.LVL45:
 597              	.LFB12:
 252:D:/fchai/work/i-cube/I-CUBE-HUAWEI/Middlewares/Third_Party/Huawei/iot_link/network/dtls/mbedtls/mbedtls-2.16.2/library\md.c **** 
 253:D:/fchai/work/i-cube/I-CUBE-HUAWEI/Middlewares/Third_Party/Huawei/iot_link/network/dtls/mbedtls/mbedtls-2.16.2/library\md.c **** int mbedtls_md_update( mbedtls_md_context_t *ctx, const unsigned char *input, size_t ilen )
 254:D:/fchai/work/i-cube/I-CUBE-HUAWEI/Middlewares/Third_Party/Huawei/iot_link/network/dtls/mbedtls/mbedtls-2.16.2/library\md.c **** {
 598              		.loc 1 254 1 is_stmt 1 view -0
 599              		.cfi_startproc
 600              		@ args = 0, pretend = 0, frame = 0
 601              		@ frame_needed = 0, uses_anonymous_args = 0
 602              		@ link register save eliminated.
 255:D:/fchai/work/i-cube/I-CUBE-HUAWEI/Middlewares/Third_Party/Huawei/iot_link/network/dtls/mbedtls/mbedtls-2.16.2/library\md.c ****     if( ctx == NULL || ctx->md_info == NULL )
 603              		.loc 1 255 5 view .LVU127
 604              		.loc 1 255 7 is_stmt 0 view .LVU128
 605 0000 20B1     		cbz	r0, .L80
 606              		.loc 1 255 27 discriminator 1 view .LVU129
 607 0002 0368     		ldr	r3, [r0]
 608              		.loc 1 255 21 discriminator 1 view .LVU130
 609 0004 13B1     		cbz	r3, .L80
 256:D:/fchai/work/i-cube/I-CUBE-HUAWEI/Middlewares/Third_Party/Huawei/iot_link/network/dtls/mbedtls/mbedtls-2.16.2/library\md.c ****         return( MBEDTLS_ERR_MD_BAD_INPUT_DATA );
 257:D:/fchai/work/i-cube/I-CUBE-HUAWEI/Middlewares/Third_Party/Huawei/iot_link/network/dtls/mbedtls/mbedtls-2.16.2/library\md.c **** 
 258:D:/fchai/work/i-cube/I-CUBE-HUAWEI/Middlewares/Third_Party/Huawei/iot_link/network/dtls/mbedtls/mbedtls-2.16.2/library\md.c ****     return( ctx->md_info->update_func( ctx->md_ctx, input, ilen ) );
 610              		.loc 1 258 5 is_stmt 1 view .LVU131
 611              		.loc 1 258 13 is_stmt 0 view .LVU132
 612 0006 5B69     		ldr	r3, [r3, #20]
 613 0008 4068     		ldr	r0, [r0, #4]
 614              	.LVL46:
 615              		.loc 1 258 13 view .LVU133
 616 000a 1847     		bx	r3
 617              	.LVL47:
 618              	.L80:
 256:D:/fchai/work/i-cube/I-CUBE-HUAWEI/Middlewares/Third_Party/Huawei/iot_link/network/dtls/mbedtls/mbedtls-2.16.2/library\md.c ****         return( MBEDTLS_ERR_MD_BAD_INPUT_DATA );
 619              		.loc 1 256 15 view .LVU134
 620 000c 0048     		ldr	r0, .L81
 621              	.LVL48:
 259:D:/fchai/work/i-cube/I-CUBE-HUAWEI/Middlewares/Third_Party/Huawei/iot_link/network/dtls/mbedtls/mbedtls-2.16.2/library\md.c **** }
 622              		.loc 1 259 1 view .LVU135
 623 000e 7047     		bx	lr
 624              	.L82:
 625              		.align	2
 626              	.L81:
 627 0010 00AFFFFF 		.word	-20736
 628              		.cfi_endproc
 629              	.LFE12:
 631              		.section	.text.mbedtls_md_finish,"ax",%progbits
 632              		.align	1
 633              		.p2align 2,,3
 634              		.global	mbedtls_md_finish
 635              		.syntax unified
 636              		.thumb
 637              		.thumb_func
ARM GAS  T:\msys\tmp\cc3NNrif.s 			page 17


 638              		.fpu fpv4-sp-d16
 640              	mbedtls_md_finish:
 641              	.LVL49:
 642              	.LFB13:
 260:D:/fchai/work/i-cube/I-CUBE-HUAWEI/Middlewares/Third_Party/Huawei/iot_link/network/dtls/mbedtls/mbedtls-2.16.2/library\md.c **** 
 261:D:/fchai/work/i-cube/I-CUBE-HUAWEI/Middlewares/Third_Party/Huawei/iot_link/network/dtls/mbedtls/mbedtls-2.16.2/library\md.c **** int mbedtls_md_finish( mbedtls_md_context_t *ctx, unsigned char *output )
 262:D:/fchai/work/i-cube/I-CUBE-HUAWEI/Middlewares/Third_Party/Huawei/iot_link/network/dtls/mbedtls/mbedtls-2.16.2/library\md.c **** {
 643              		.loc 1 262 1 is_stmt 1 view -0
 644              		.cfi_startproc
 645              		@ args = 0, pretend = 0, frame = 0
 646              		@ frame_needed = 0, uses_anonymous_args = 0
 647              		@ link register save eliminated.
 263:D:/fchai/work/i-cube/I-CUBE-HUAWEI/Middlewares/Third_Party/Huawei/iot_link/network/dtls/mbedtls/mbedtls-2.16.2/library\md.c ****     if( ctx == NULL || ctx->md_info == NULL )
 648              		.loc 1 263 5 view .LVU137
 649              		.loc 1 263 7 is_stmt 0 view .LVU138
 650 0000 20B1     		cbz	r0, .L86
 651              		.loc 1 263 27 discriminator 1 view .LVU139
 652 0002 0368     		ldr	r3, [r0]
 653              		.loc 1 263 21 discriminator 1 view .LVU140
 654 0004 13B1     		cbz	r3, .L86
 264:D:/fchai/work/i-cube/I-CUBE-HUAWEI/Middlewares/Third_Party/Huawei/iot_link/network/dtls/mbedtls/mbedtls-2.16.2/library\md.c ****         return( MBEDTLS_ERR_MD_BAD_INPUT_DATA );
 265:D:/fchai/work/i-cube/I-CUBE-HUAWEI/Middlewares/Third_Party/Huawei/iot_link/network/dtls/mbedtls/mbedtls-2.16.2/library\md.c **** 
 266:D:/fchai/work/i-cube/I-CUBE-HUAWEI/Middlewares/Third_Party/Huawei/iot_link/network/dtls/mbedtls/mbedtls-2.16.2/library\md.c ****     return( ctx->md_info->finish_func( ctx->md_ctx, output ) );
 655              		.loc 1 266 5 is_stmt 1 view .LVU141
 656              		.loc 1 266 13 is_stmt 0 view .LVU142
 657 0006 9B69     		ldr	r3, [r3, #24]
 658 0008 4068     		ldr	r0, [r0, #4]
 659              	.LVL50:
 660              		.loc 1 266 13 view .LVU143
 661 000a 1847     		bx	r3
 662              	.LVL51:
 663              	.L86:
 264:D:/fchai/work/i-cube/I-CUBE-HUAWEI/Middlewares/Third_Party/Huawei/iot_link/network/dtls/mbedtls/mbedtls-2.16.2/library\md.c ****         return( MBEDTLS_ERR_MD_BAD_INPUT_DATA );
 664              		.loc 1 264 15 view .LVU144
 665 000c 0048     		ldr	r0, .L87
 666              	.LVL52:
 267:D:/fchai/work/i-cube/I-CUBE-HUAWEI/Middlewares/Third_Party/Huawei/iot_link/network/dtls/mbedtls/mbedtls-2.16.2/library\md.c **** }
 667              		.loc 1 267 1 view .LVU145
 668 000e 7047     		bx	lr
 669              	.L88:
 670              		.align	2
 671              	.L87:
 672 0010 00AFFFFF 		.word	-20736
 673              		.cfi_endproc
 674              	.LFE13:
 676              		.section	.text.mbedtls_md,"ax",%progbits
 677              		.align	1
 678              		.p2align 2,,3
 679              		.global	mbedtls_md
 680              		.syntax unified
 681              		.thumb
 682              		.thumb_func
 683              		.fpu fpv4-sp-d16
 685              	mbedtls_md:
 686              	.LVL53:
 687              	.LFB14:
 268:D:/fchai/work/i-cube/I-CUBE-HUAWEI/Middlewares/Third_Party/Huawei/iot_link/network/dtls/mbedtls/mbedtls-2.16.2/library\md.c **** 
ARM GAS  T:\msys\tmp\cc3NNrif.s 			page 18


 269:D:/fchai/work/i-cube/I-CUBE-HUAWEI/Middlewares/Third_Party/Huawei/iot_link/network/dtls/mbedtls/mbedtls-2.16.2/library\md.c **** int mbedtls_md( const mbedtls_md_info_t *md_info, const unsigned char *input, size_t ilen,
 270:D:/fchai/work/i-cube/I-CUBE-HUAWEI/Middlewares/Third_Party/Huawei/iot_link/network/dtls/mbedtls/mbedtls-2.16.2/library\md.c ****             unsigned char *output )
 271:D:/fchai/work/i-cube/I-CUBE-HUAWEI/Middlewares/Third_Party/Huawei/iot_link/network/dtls/mbedtls/mbedtls-2.16.2/library\md.c **** {
 688              		.loc 1 271 1 is_stmt 1 view -0
 689              		.cfi_startproc
 690              		@ args = 0, pretend = 0, frame = 0
 691              		@ frame_needed = 0, uses_anonymous_args = 0
 692              		@ link register save eliminated.
 272:D:/fchai/work/i-cube/I-CUBE-HUAWEI/Middlewares/Third_Party/Huawei/iot_link/network/dtls/mbedtls/mbedtls-2.16.2/library\md.c ****     if( md_info == NULL )
 693              		.loc 1 272 5 view .LVU147
 694              		.loc 1 272 7 is_stmt 0 view .LVU148
 695 0000 40B1     		cbz	r0, .L90
 271:D:/fchai/work/i-cube/I-CUBE-HUAWEI/Middlewares/Third_Party/Huawei/iot_link/network/dtls/mbedtls/mbedtls-2.16.2/library\md.c ****     if( md_info == NULL )
 696              		.loc 1 271 1 view .LVU149
 697 0002 10B4     		push	{r4}
 698              	.LCFI9:
 699              		.cfi_def_cfa_offset 4
 700              		.cfi_offset 4, -4
 701 0004 0C46     		mov	r4, r1
 702 0006 1146     		mov	r1, r2
 703              	.LVL54:
 271:D:/fchai/work/i-cube/I-CUBE-HUAWEI/Middlewares/Third_Party/Huawei/iot_link/network/dtls/mbedtls/mbedtls-2.16.2/library\md.c ****     if( md_info == NULL )
 704              		.loc 1 271 1 view .LVU150
 705 0008 1A46     		mov	r2, r3
 706              	.LVL55:
 273:D:/fchai/work/i-cube/I-CUBE-HUAWEI/Middlewares/Third_Party/Huawei/iot_link/network/dtls/mbedtls/mbedtls-2.16.2/library\md.c ****         return( MBEDTLS_ERR_MD_BAD_INPUT_DATA );
 274:D:/fchai/work/i-cube/I-CUBE-HUAWEI/Middlewares/Third_Party/Huawei/iot_link/network/dtls/mbedtls/mbedtls-2.16.2/library\md.c **** 
 275:D:/fchai/work/i-cube/I-CUBE-HUAWEI/Middlewares/Third_Party/Huawei/iot_link/network/dtls/mbedtls/mbedtls-2.16.2/library\md.c ****     return( md_info->digest_func( input, ilen, output ) );
 707              		.loc 1 275 5 is_stmt 1 view .LVU151
 708              		.loc 1 275 13 is_stmt 0 view .LVU152
 709 000a C369     		ldr	r3, [r0, #28]
 710              	.LVL56:
 711              		.loc 1 275 13 view .LVU153
 712 000c 2046     		mov	r0, r4
 713              	.LVL57:
 276:D:/fchai/work/i-cube/I-CUBE-HUAWEI/Middlewares/Third_Party/Huawei/iot_link/network/dtls/mbedtls/mbedtls-2.16.2/library\md.c **** }
 714              		.loc 1 276 1 view .LVU154
 715 000e 5DF8044B 		ldr	r4, [sp], #4
 716              	.LCFI10:
 717              		.cfi_restore 4
 718              		.cfi_def_cfa_offset 0
 719              	.LVL58:
 275:D:/fchai/work/i-cube/I-CUBE-HUAWEI/Middlewares/Third_Party/Huawei/iot_link/network/dtls/mbedtls/mbedtls-2.16.2/library\md.c **** }
 720              		.loc 1 275 13 view .LVU155
 721 0012 1847     		bx	r3
 722              	.LVL59:
 723              	.L90:
 724              		.loc 1 276 1 view .LVU156
 725 0014 0048     		ldr	r0, .L94
 726              	.LVL60:
 727              		.loc 1 276 1 view .LVU157
 728 0016 7047     		bx	lr
 729              	.L95:
 730              		.align	2
 731              	.L94:
 732 0018 00AFFFFF 		.word	-20736
 733              		.cfi_endproc
ARM GAS  T:\msys\tmp\cc3NNrif.s 			page 19


 734              	.LFE14:
 736              		.section	.text.mbedtls_md_hmac_starts,"ax",%progbits
 737              		.align	1
 738              		.p2align 2,,3
 739              		.global	mbedtls_md_hmac_starts
 740              		.syntax unified
 741              		.thumb
 742              		.thumb_func
 743              		.fpu fpv4-sp-d16
 745              	mbedtls_md_hmac_starts:
 746              	.LVL61:
 747              	.LFB15:
 277:D:/fchai/work/i-cube/I-CUBE-HUAWEI/Middlewares/Third_Party/Huawei/iot_link/network/dtls/mbedtls/mbedtls-2.16.2/library\md.c **** 
 278:D:/fchai/work/i-cube/I-CUBE-HUAWEI/Middlewares/Third_Party/Huawei/iot_link/network/dtls/mbedtls/mbedtls-2.16.2/library\md.c **** #if defined(MBEDTLS_FS_IO)
 279:D:/fchai/work/i-cube/I-CUBE-HUAWEI/Middlewares/Third_Party/Huawei/iot_link/network/dtls/mbedtls/mbedtls-2.16.2/library\md.c **** int mbedtls_md_file( const mbedtls_md_info_t *md_info, const char *path, unsigned char *output )
 280:D:/fchai/work/i-cube/I-CUBE-HUAWEI/Middlewares/Third_Party/Huawei/iot_link/network/dtls/mbedtls/mbedtls-2.16.2/library\md.c **** {
 281:D:/fchai/work/i-cube/I-CUBE-HUAWEI/Middlewares/Third_Party/Huawei/iot_link/network/dtls/mbedtls/mbedtls-2.16.2/library\md.c ****     int ret;
 282:D:/fchai/work/i-cube/I-CUBE-HUAWEI/Middlewares/Third_Party/Huawei/iot_link/network/dtls/mbedtls/mbedtls-2.16.2/library\md.c ****     FILE *f;
 283:D:/fchai/work/i-cube/I-CUBE-HUAWEI/Middlewares/Third_Party/Huawei/iot_link/network/dtls/mbedtls/mbedtls-2.16.2/library\md.c ****     size_t n;
 284:D:/fchai/work/i-cube/I-CUBE-HUAWEI/Middlewares/Third_Party/Huawei/iot_link/network/dtls/mbedtls/mbedtls-2.16.2/library\md.c ****     mbedtls_md_context_t ctx;
 285:D:/fchai/work/i-cube/I-CUBE-HUAWEI/Middlewares/Third_Party/Huawei/iot_link/network/dtls/mbedtls/mbedtls-2.16.2/library\md.c ****     unsigned char buf[1024];
 286:D:/fchai/work/i-cube/I-CUBE-HUAWEI/Middlewares/Third_Party/Huawei/iot_link/network/dtls/mbedtls/mbedtls-2.16.2/library\md.c **** 
 287:D:/fchai/work/i-cube/I-CUBE-HUAWEI/Middlewares/Third_Party/Huawei/iot_link/network/dtls/mbedtls/mbedtls-2.16.2/library\md.c ****     if( md_info == NULL )
 288:D:/fchai/work/i-cube/I-CUBE-HUAWEI/Middlewares/Third_Party/Huawei/iot_link/network/dtls/mbedtls/mbedtls-2.16.2/library\md.c ****         return( MBEDTLS_ERR_MD_BAD_INPUT_DATA );
 289:D:/fchai/work/i-cube/I-CUBE-HUAWEI/Middlewares/Third_Party/Huawei/iot_link/network/dtls/mbedtls/mbedtls-2.16.2/library\md.c **** 
 290:D:/fchai/work/i-cube/I-CUBE-HUAWEI/Middlewares/Third_Party/Huawei/iot_link/network/dtls/mbedtls/mbedtls-2.16.2/library\md.c ****     if( ( f = fopen( path, "rb" ) ) == NULL )
 291:D:/fchai/work/i-cube/I-CUBE-HUAWEI/Middlewares/Third_Party/Huawei/iot_link/network/dtls/mbedtls/mbedtls-2.16.2/library\md.c ****         return( MBEDTLS_ERR_MD_FILE_IO_ERROR );
 292:D:/fchai/work/i-cube/I-CUBE-HUAWEI/Middlewares/Third_Party/Huawei/iot_link/network/dtls/mbedtls/mbedtls-2.16.2/library\md.c **** 
 293:D:/fchai/work/i-cube/I-CUBE-HUAWEI/Middlewares/Third_Party/Huawei/iot_link/network/dtls/mbedtls/mbedtls-2.16.2/library\md.c ****     mbedtls_md_init( &ctx );
 294:D:/fchai/work/i-cube/I-CUBE-HUAWEI/Middlewares/Third_Party/Huawei/iot_link/network/dtls/mbedtls/mbedtls-2.16.2/library\md.c **** 
 295:D:/fchai/work/i-cube/I-CUBE-HUAWEI/Middlewares/Third_Party/Huawei/iot_link/network/dtls/mbedtls/mbedtls-2.16.2/library\md.c ****     if( ( ret = mbedtls_md_setup( &ctx, md_info, 0 ) ) != 0 )
 296:D:/fchai/work/i-cube/I-CUBE-HUAWEI/Middlewares/Third_Party/Huawei/iot_link/network/dtls/mbedtls/mbedtls-2.16.2/library\md.c ****         goto cleanup;
 297:D:/fchai/work/i-cube/I-CUBE-HUAWEI/Middlewares/Third_Party/Huawei/iot_link/network/dtls/mbedtls/mbedtls-2.16.2/library\md.c **** 
 298:D:/fchai/work/i-cube/I-CUBE-HUAWEI/Middlewares/Third_Party/Huawei/iot_link/network/dtls/mbedtls/mbedtls-2.16.2/library\md.c ****     if( ( ret = md_info->starts_func( ctx.md_ctx ) ) != 0 )
 299:D:/fchai/work/i-cube/I-CUBE-HUAWEI/Middlewares/Third_Party/Huawei/iot_link/network/dtls/mbedtls/mbedtls-2.16.2/library\md.c ****         goto cleanup;
 300:D:/fchai/work/i-cube/I-CUBE-HUAWEI/Middlewares/Third_Party/Huawei/iot_link/network/dtls/mbedtls/mbedtls-2.16.2/library\md.c **** 
 301:D:/fchai/work/i-cube/I-CUBE-HUAWEI/Middlewares/Third_Party/Huawei/iot_link/network/dtls/mbedtls/mbedtls-2.16.2/library\md.c ****     while( ( n = fread( buf, 1, sizeof( buf ), f ) ) > 0 )
 302:D:/fchai/work/i-cube/I-CUBE-HUAWEI/Middlewares/Third_Party/Huawei/iot_link/network/dtls/mbedtls/mbedtls-2.16.2/library\md.c ****         if( ( ret = md_info->update_func( ctx.md_ctx, buf, n ) ) != 0 )
 303:D:/fchai/work/i-cube/I-CUBE-HUAWEI/Middlewares/Third_Party/Huawei/iot_link/network/dtls/mbedtls/mbedtls-2.16.2/library\md.c ****             goto cleanup;
 304:D:/fchai/work/i-cube/I-CUBE-HUAWEI/Middlewares/Third_Party/Huawei/iot_link/network/dtls/mbedtls/mbedtls-2.16.2/library\md.c **** 
 305:D:/fchai/work/i-cube/I-CUBE-HUAWEI/Middlewares/Third_Party/Huawei/iot_link/network/dtls/mbedtls/mbedtls-2.16.2/library\md.c ****     if( ferror( f ) != 0 )
 306:D:/fchai/work/i-cube/I-CUBE-HUAWEI/Middlewares/Third_Party/Huawei/iot_link/network/dtls/mbedtls/mbedtls-2.16.2/library\md.c ****         ret = MBEDTLS_ERR_MD_FILE_IO_ERROR;
 307:D:/fchai/work/i-cube/I-CUBE-HUAWEI/Middlewares/Third_Party/Huawei/iot_link/network/dtls/mbedtls/mbedtls-2.16.2/library\md.c ****     else
 308:D:/fchai/work/i-cube/I-CUBE-HUAWEI/Middlewares/Third_Party/Huawei/iot_link/network/dtls/mbedtls/mbedtls-2.16.2/library\md.c ****         ret = md_info->finish_func( ctx.md_ctx, output );
 309:D:/fchai/work/i-cube/I-CUBE-HUAWEI/Middlewares/Third_Party/Huawei/iot_link/network/dtls/mbedtls/mbedtls-2.16.2/library\md.c **** 
 310:D:/fchai/work/i-cube/I-CUBE-HUAWEI/Middlewares/Third_Party/Huawei/iot_link/network/dtls/mbedtls/mbedtls-2.16.2/library\md.c **** cleanup:
 311:D:/fchai/work/i-cube/I-CUBE-HUAWEI/Middlewares/Third_Party/Huawei/iot_link/network/dtls/mbedtls/mbedtls-2.16.2/library\md.c ****     mbedtls_platform_zeroize( buf, sizeof( buf ) );
 312:D:/fchai/work/i-cube/I-CUBE-HUAWEI/Middlewares/Third_Party/Huawei/iot_link/network/dtls/mbedtls/mbedtls-2.16.2/library\md.c ****     fclose( f );
 313:D:/fchai/work/i-cube/I-CUBE-HUAWEI/Middlewares/Third_Party/Huawei/iot_link/network/dtls/mbedtls/mbedtls-2.16.2/library\md.c ****     mbedtls_md_free( &ctx );
 314:D:/fchai/work/i-cube/I-CUBE-HUAWEI/Middlewares/Third_Party/Huawei/iot_link/network/dtls/mbedtls/mbedtls-2.16.2/library\md.c **** 
 315:D:/fchai/work/i-cube/I-CUBE-HUAWEI/Middlewares/Third_Party/Huawei/iot_link/network/dtls/mbedtls/mbedtls-2.16.2/library\md.c ****     return( ret );
 316:D:/fchai/work/i-cube/I-CUBE-HUAWEI/Middlewares/Third_Party/Huawei/iot_link/network/dtls/mbedtls/mbedtls-2.16.2/library\md.c **** }
 317:D:/fchai/work/i-cube/I-CUBE-HUAWEI/Middlewares/Third_Party/Huawei/iot_link/network/dtls/mbedtls/mbedtls-2.16.2/library\md.c **** #endif /* MBEDTLS_FS_IO */
 318:D:/fchai/work/i-cube/I-CUBE-HUAWEI/Middlewares/Third_Party/Huawei/iot_link/network/dtls/mbedtls/mbedtls-2.16.2/library\md.c **** 
 319:D:/fchai/work/i-cube/I-CUBE-HUAWEI/Middlewares/Third_Party/Huawei/iot_link/network/dtls/mbedtls/mbedtls-2.16.2/library\md.c **** int mbedtls_md_hmac_starts( mbedtls_md_context_t *ctx, const unsigned char *key, size_t keylen )
 320:D:/fchai/work/i-cube/I-CUBE-HUAWEI/Middlewares/Third_Party/Huawei/iot_link/network/dtls/mbedtls/mbedtls-2.16.2/library\md.c **** {
 748              		.loc 1 320 1 is_stmt 1 view -0
ARM GAS  T:\msys\tmp\cc3NNrif.s 			page 20


 749              		.cfi_startproc
 750              		@ args = 0, pretend = 0, frame = 32
 751              		@ frame_needed = 0, uses_anonymous_args = 0
 321:D:/fchai/work/i-cube/I-CUBE-HUAWEI/Middlewares/Third_Party/Huawei/iot_link/network/dtls/mbedtls/mbedtls-2.16.2/library\md.c ****     int ret;
 752              		.loc 1 321 5 view .LVU159
 322:D:/fchai/work/i-cube/I-CUBE-HUAWEI/Middlewares/Third_Party/Huawei/iot_link/network/dtls/mbedtls/mbedtls-2.16.2/library\md.c ****     unsigned char sum[MBEDTLS_MD_MAX_SIZE];
 753              		.loc 1 322 5 view .LVU160
 323:D:/fchai/work/i-cube/I-CUBE-HUAWEI/Middlewares/Third_Party/Huawei/iot_link/network/dtls/mbedtls/mbedtls-2.16.2/library\md.c ****     unsigned char *ipad, *opad;
 754              		.loc 1 323 5 view .LVU161
 324:D:/fchai/work/i-cube/I-CUBE-HUAWEI/Middlewares/Third_Party/Huawei/iot_link/network/dtls/mbedtls/mbedtls-2.16.2/library\md.c ****     size_t i;
 755              		.loc 1 324 5 view .LVU162
 325:D:/fchai/work/i-cube/I-CUBE-HUAWEI/Middlewares/Third_Party/Huawei/iot_link/network/dtls/mbedtls/mbedtls-2.16.2/library\md.c **** 
 326:D:/fchai/work/i-cube/I-CUBE-HUAWEI/Middlewares/Third_Party/Huawei/iot_link/network/dtls/mbedtls/mbedtls-2.16.2/library\md.c ****     if( ctx == NULL || ctx->md_info == NULL || ctx->hmac_ctx == NULL )
 756              		.loc 1 326 5 view .LVU163
 320:D:/fchai/work/i-cube/I-CUBE-HUAWEI/Middlewares/Third_Party/Huawei/iot_link/network/dtls/mbedtls/mbedtls-2.16.2/library\md.c ****     int ret;
 757              		.loc 1 320 1 is_stmt 0 view .LVU164
 758 0000 2DE9F043 		push	{r4, r5, r6, r7, r8, r9, lr}
 759              	.LCFI11:
 760              		.cfi_def_cfa_offset 28
 761              		.cfi_offset 4, -28
 762              		.cfi_offset 5, -24
 763              		.cfi_offset 6, -20
 764              		.cfi_offset 7, -16
 765              		.cfi_offset 8, -12
 766              		.cfi_offset 9, -8
 767              		.cfi_offset 14, -4
 768 0004 89B0     		sub	sp, sp, #36
 769              	.LCFI12:
 770              		.cfi_def_cfa_offset 64
 771              		.loc 1 326 7 view .LVU165
 772 0006 0028     		cmp	r0, #0
 773 0008 62D0     		beq	.L106
 774              		.loc 1 326 27 discriminator 1 view .LVU166
 775 000a 0368     		ldr	r3, [r0]
 776 000c 0446     		mov	r4, r0
 777              		.loc 1 326 21 discriminator 1 view .LVU167
 778 000e 002B     		cmp	r3, #0
 779 0010 5ED0     		beq	.L106
 780              		.loc 1 326 51 discriminator 2 view .LVU168
 781 0012 8568     		ldr	r5, [r0, #8]
 782              		.loc 1 326 45 discriminator 2 view .LVU169
 783 0014 002D     		cmp	r5, #0
 784 0016 5BD0     		beq	.L106
 785 0018 9146     		mov	r9, r2
 327:D:/fchai/work/i-cube/I-CUBE-HUAWEI/Middlewares/Third_Party/Huawei/iot_link/network/dtls/mbedtls/mbedtls-2.16.2/library\md.c ****         return( MBEDTLS_ERR_MD_BAD_INPUT_DATA );
 328:D:/fchai/work/i-cube/I-CUBE-HUAWEI/Middlewares/Third_Party/Huawei/iot_link/network/dtls/mbedtls/mbedtls-2.16.2/library\md.c **** 
 329:D:/fchai/work/i-cube/I-CUBE-HUAWEI/Middlewares/Third_Party/Huawei/iot_link/network/dtls/mbedtls/mbedtls-2.16.2/library\md.c ****     if( keylen > (size_t) ctx->md_info->block_size )
 786              		.loc 1 329 5 is_stmt 1 view .LVU170
 787              		.loc 1 329 18 is_stmt 0 view .LVU171
 788 001a DA68     		ldr	r2, [r3, #12]
 789              	.LVL62:
 790              		.loc 1 329 7 view .LVU172
 791 001c 4A45     		cmp	r2, r9
 792 001e 8846     		mov	r8, r1
 793 0020 23D2     		bcs	.L117
 330:D:/fchai/work/i-cube/I-CUBE-HUAWEI/Middlewares/Third_Party/Huawei/iot_link/network/dtls/mbedtls/mbedtls-2.16.2/library\md.c ****     {
 331:D:/fchai/work/i-cube/I-CUBE-HUAWEI/Middlewares/Third_Party/Huawei/iot_link/network/dtls/mbedtls/mbedtls-2.16.2/library\md.c ****         if( ( ret = ctx->md_info->starts_func( ctx->md_ctx ) ) != 0 )
ARM GAS  T:\msys\tmp\cc3NNrif.s 			page 21


 794              		.loc 1 331 9 is_stmt 1 view .LVU173
 795              		.loc 1 331 21 is_stmt 0 view .LVU174
 796 0022 1B69     		ldr	r3, [r3, #16]
 797 0024 4068     		ldr	r0, [r0, #4]
 798              	.LVL63:
 799              		.loc 1 331 21 view .LVU175
 800 0026 9847     		blx	r3
 801              	.LVL64:
 802              		.loc 1 331 11 view .LVU176
 803 0028 0746     		mov	r7, r0
 804 002a A8B9     		cbnz	r0, .L116
 332:D:/fchai/work/i-cube/I-CUBE-HUAWEI/Middlewares/Third_Party/Huawei/iot_link/network/dtls/mbedtls/mbedtls-2.16.2/library\md.c ****             goto cleanup;
 333:D:/fchai/work/i-cube/I-CUBE-HUAWEI/Middlewares/Third_Party/Huawei/iot_link/network/dtls/mbedtls/mbedtls-2.16.2/library\md.c ****         if( ( ret = ctx->md_info->update_func( ctx->md_ctx, key, keylen ) ) != 0 )
 805              		.loc 1 333 9 is_stmt 1 view .LVU177
 806              		.loc 1 333 21 is_stmt 0 view .LVU178
 807 002c D4E90030 		ldrd	r3, r0, [r4]
 808              	.LVL65:
 809              		.loc 1 333 21 view .LVU179
 810 0030 4A46     		mov	r2, r9
 811 0032 5B69     		ldr	r3, [r3, #20]
 812 0034 4146     		mov	r1, r8
 813 0036 9847     		blx	r3
 814              	.LVL66:
 815              		.loc 1 333 11 view .LVU180
 816 0038 0746     		mov	r7, r0
 817 003a 68B9     		cbnz	r0, .L116
 334:D:/fchai/work/i-cube/I-CUBE-HUAWEI/Middlewares/Third_Party/Huawei/iot_link/network/dtls/mbedtls/mbedtls-2.16.2/library\md.c ****             goto cleanup;
 335:D:/fchai/work/i-cube/I-CUBE-HUAWEI/Middlewares/Third_Party/Huawei/iot_link/network/dtls/mbedtls/mbedtls-2.16.2/library\md.c ****         if( ( ret = ctx->md_info->finish_func( ctx->md_ctx, sum ) ) != 0 )
 818              		.loc 1 335 9 is_stmt 1 view .LVU181
 819              		.loc 1 335 21 is_stmt 0 view .LVU182
 820 003c D4E90030 		ldrd	r3, r0, [r4]
 821              	.LVL67:
 822              		.loc 1 335 21 view .LVU183
 823 0040 6E46     		mov	r6, sp
 824 0042 9B69     		ldr	r3, [r3, #24]
 825 0044 3146     		mov	r1, r6
 826 0046 9847     		blx	r3
 827              	.LVL68:
 828              		.loc 1 335 11 view .LVU184
 829 0048 0746     		mov	r7, r0
 830 004a 30B9     		cbnz	r0, .L99
 336:D:/fchai/work/i-cube/I-CUBE-HUAWEI/Middlewares/Third_Party/Huawei/iot_link/network/dtls/mbedtls/mbedtls-2.16.2/library\md.c ****             goto cleanup;
 337:D:/fchai/work/i-cube/I-CUBE-HUAWEI/Middlewares/Third_Party/Huawei/iot_link/network/dtls/mbedtls/mbedtls-2.16.2/library\md.c **** 
 338:D:/fchai/work/i-cube/I-CUBE-HUAWEI/Middlewares/Third_Party/Huawei/iot_link/network/dtls/mbedtls/mbedtls-2.16.2/library\md.c ****         keylen = ctx->md_info->size;
 831              		.loc 1 338 9 is_stmt 1 view .LVU185
 832              		.loc 1 338 21 is_stmt 0 view .LVU186
 833 004c 2368     		ldr	r3, [r4]
 834 004e A568     		ldr	r5, [r4, #8]
 835 0050 D3E90292 		ldrd	r9, r2, [r3, #8]
 836              	.LVL69:
 339:D:/fchai/work/i-cube/I-CUBE-HUAWEI/Middlewares/Third_Party/Huawei/iot_link/network/dtls/mbedtls/mbedtls-2.16.2/library\md.c ****         key = sum;
 837              		.loc 1 339 13 view .LVU187
 838 0054 B046     		mov	r8, r6
 839              	.LVL70:
 840              		.loc 1 339 13 view .LVU188
 841 0056 09E0     		b	.L98
 842              	.LVL71:
ARM GAS  T:\msys\tmp\cc3NNrif.s 			page 22


 843              	.L116:
 844              		.loc 1 339 13 view .LVU189
 845 0058 6E46     		mov	r6, sp
 846              	.LVL72:
 847              	.L99:
 340:D:/fchai/work/i-cube/I-CUBE-HUAWEI/Middlewares/Third_Party/Huawei/iot_link/network/dtls/mbedtls/mbedtls-2.16.2/library\md.c ****     }
 341:D:/fchai/work/i-cube/I-CUBE-HUAWEI/Middlewares/Third_Party/Huawei/iot_link/network/dtls/mbedtls/mbedtls-2.16.2/library\md.c **** 
 342:D:/fchai/work/i-cube/I-CUBE-HUAWEI/Middlewares/Third_Party/Huawei/iot_link/network/dtls/mbedtls/mbedtls-2.16.2/library\md.c ****     ipad = (unsigned char *) ctx->hmac_ctx;
 343:D:/fchai/work/i-cube/I-CUBE-HUAWEI/Middlewares/Third_Party/Huawei/iot_link/network/dtls/mbedtls/mbedtls-2.16.2/library\md.c ****     opad = (unsigned char *) ctx->hmac_ctx + ctx->md_info->block_size;
 344:D:/fchai/work/i-cube/I-CUBE-HUAWEI/Middlewares/Third_Party/Huawei/iot_link/network/dtls/mbedtls/mbedtls-2.16.2/library\md.c **** 
 345:D:/fchai/work/i-cube/I-CUBE-HUAWEI/Middlewares/Third_Party/Huawei/iot_link/network/dtls/mbedtls/mbedtls-2.16.2/library\md.c ****     memset( ipad, 0x36, ctx->md_info->block_size );
 346:D:/fchai/work/i-cube/I-CUBE-HUAWEI/Middlewares/Third_Party/Huawei/iot_link/network/dtls/mbedtls/mbedtls-2.16.2/library\md.c ****     memset( opad, 0x5C, ctx->md_info->block_size );
 347:D:/fchai/work/i-cube/I-CUBE-HUAWEI/Middlewares/Third_Party/Huawei/iot_link/network/dtls/mbedtls/mbedtls-2.16.2/library\md.c **** 
 348:D:/fchai/work/i-cube/I-CUBE-HUAWEI/Middlewares/Third_Party/Huawei/iot_link/network/dtls/mbedtls/mbedtls-2.16.2/library\md.c ****     for( i = 0; i < keylen; i++ )
 349:D:/fchai/work/i-cube/I-CUBE-HUAWEI/Middlewares/Third_Party/Huawei/iot_link/network/dtls/mbedtls/mbedtls-2.16.2/library\md.c ****     {
 350:D:/fchai/work/i-cube/I-CUBE-HUAWEI/Middlewares/Third_Party/Huawei/iot_link/network/dtls/mbedtls/mbedtls-2.16.2/library\md.c ****         ipad[i] = (unsigned char)( ipad[i] ^ key[i] );
 351:D:/fchai/work/i-cube/I-CUBE-HUAWEI/Middlewares/Third_Party/Huawei/iot_link/network/dtls/mbedtls/mbedtls-2.16.2/library\md.c ****         opad[i] = (unsigned char)( opad[i] ^ key[i] );
 352:D:/fchai/work/i-cube/I-CUBE-HUAWEI/Middlewares/Third_Party/Huawei/iot_link/network/dtls/mbedtls/mbedtls-2.16.2/library\md.c ****     }
 353:D:/fchai/work/i-cube/I-CUBE-HUAWEI/Middlewares/Third_Party/Huawei/iot_link/network/dtls/mbedtls/mbedtls-2.16.2/library\md.c **** 
 354:D:/fchai/work/i-cube/I-CUBE-HUAWEI/Middlewares/Third_Party/Huawei/iot_link/network/dtls/mbedtls/mbedtls-2.16.2/library\md.c ****     if( ( ret = ctx->md_info->starts_func( ctx->md_ctx ) ) != 0 )
 355:D:/fchai/work/i-cube/I-CUBE-HUAWEI/Middlewares/Third_Party/Huawei/iot_link/network/dtls/mbedtls/mbedtls-2.16.2/library\md.c ****         goto cleanup;
 356:D:/fchai/work/i-cube/I-CUBE-HUAWEI/Middlewares/Third_Party/Huawei/iot_link/network/dtls/mbedtls/mbedtls-2.16.2/library\md.c ****     if( ( ret = ctx->md_info->update_func( ctx->md_ctx, ipad,
 357:D:/fchai/work/i-cube/I-CUBE-HUAWEI/Middlewares/Third_Party/Huawei/iot_link/network/dtls/mbedtls/mbedtls-2.16.2/library\md.c ****                                            ctx->md_info->block_size ) ) != 0 )
 358:D:/fchai/work/i-cube/I-CUBE-HUAWEI/Middlewares/Third_Party/Huawei/iot_link/network/dtls/mbedtls/mbedtls-2.16.2/library\md.c ****         goto cleanup;
 359:D:/fchai/work/i-cube/I-CUBE-HUAWEI/Middlewares/Third_Party/Huawei/iot_link/network/dtls/mbedtls/mbedtls-2.16.2/library\md.c **** 
 360:D:/fchai/work/i-cube/I-CUBE-HUAWEI/Middlewares/Third_Party/Huawei/iot_link/network/dtls/mbedtls/mbedtls-2.16.2/library\md.c **** cleanup:
 361:D:/fchai/work/i-cube/I-CUBE-HUAWEI/Middlewares/Third_Party/Huawei/iot_link/network/dtls/mbedtls/mbedtls-2.16.2/library\md.c ****     mbedtls_platform_zeroize( sum, sizeof( sum ) );
 848              		.loc 1 361 5 is_stmt 1 view .LVU190
 849 005a 3046     		mov	r0, r6
 850              	.LVL73:
 851              		.loc 1 361 5 is_stmt 0 view .LVU191
 852 005c 2021     		movs	r1, #32
 853 005e FFF7FEFF 		bl	mbedtls_platform_zeroize
 854              	.LVL74:
 362:D:/fchai/work/i-cube/I-CUBE-HUAWEI/Middlewares/Third_Party/Huawei/iot_link/network/dtls/mbedtls/mbedtls-2.16.2/library\md.c **** 
 363:D:/fchai/work/i-cube/I-CUBE-HUAWEI/Middlewares/Third_Party/Huawei/iot_link/network/dtls/mbedtls/mbedtls-2.16.2/library\md.c ****     return( ret );
 855              		.loc 1 363 5 is_stmt 1 view .LVU192
 856              	.L96:
 364:D:/fchai/work/i-cube/I-CUBE-HUAWEI/Middlewares/Third_Party/Huawei/iot_link/network/dtls/mbedtls/mbedtls-2.16.2/library\md.c **** }
 857              		.loc 1 364 1 is_stmt 0 view .LVU193
 858 0062 3846     		mov	r0, r7
 859 0064 09B0     		add	sp, sp, #36
 860              	.LCFI13:
 861              		.cfi_remember_state
 862              		.cfi_def_cfa_offset 28
 863              		@ sp needed
 864 0066 BDE8F083 		pop	{r4, r5, r6, r7, r8, r9, pc}
 865              	.LVL75:
 866              	.L117:
 867              	.LCFI14:
 868              		.cfi_restore_state
 869              		.loc 1 364 1 view .LVU194
 870 006a 6E46     		mov	r6, sp
 871              	.LVL76:
 872              	.L98:
 342:D:/fchai/work/i-cube/I-CUBE-HUAWEI/Middlewares/Third_Party/Huawei/iot_link/network/dtls/mbedtls/mbedtls-2.16.2/library\md.c ****     opad = (unsigned char *) ctx->hmac_ctx + ctx->md_info->block_size;
 873              		.loc 1 342 5 is_stmt 1 view .LVU195
ARM GAS  T:\msys\tmp\cc3NNrif.s 			page 23


 343:D:/fchai/work/i-cube/I-CUBE-HUAWEI/Middlewares/Third_Party/Huawei/iot_link/network/dtls/mbedtls/mbedtls-2.16.2/library\md.c **** 
 874              		.loc 1 343 5 view .LVU196
 345:D:/fchai/work/i-cube/I-CUBE-HUAWEI/Middlewares/Third_Party/Huawei/iot_link/network/dtls/mbedtls/mbedtls-2.16.2/library\md.c ****     memset( opad, 0x5C, ctx->md_info->block_size );
 875              		.loc 1 345 5 is_stmt 0 view .LVU197
 876 006c 3621     		movs	r1, #54
 877 006e 2846     		mov	r0, r5
 343:D:/fchai/work/i-cube/I-CUBE-HUAWEI/Middlewares/Third_Party/Huawei/iot_link/network/dtls/mbedtls/mbedtls-2.16.2/library\md.c **** 
 878              		.loc 1 343 10 view .LVU198
 879 0070 AF18     		adds	r7, r5, r2
 880              	.LVL77:
 345:D:/fchai/work/i-cube/I-CUBE-HUAWEI/Middlewares/Third_Party/Huawei/iot_link/network/dtls/mbedtls/mbedtls-2.16.2/library\md.c ****     memset( opad, 0x5C, ctx->md_info->block_size );
 881              		.loc 1 345 5 is_stmt 1 view .LVU199
 882 0072 FFF7FEFF 		bl	memset
 883              	.LVL78:
 346:D:/fchai/work/i-cube/I-CUBE-HUAWEI/Middlewares/Third_Party/Huawei/iot_link/network/dtls/mbedtls/mbedtls-2.16.2/library\md.c **** 
 884              		.loc 1 346 5 view .LVU200
 346:D:/fchai/work/i-cube/I-CUBE-HUAWEI/Middlewares/Third_Party/Huawei/iot_link/network/dtls/mbedtls/mbedtls-2.16.2/library\md.c **** 
 885              		.loc 1 346 37 is_stmt 0 view .LVU201
 886 0076 2368     		ldr	r3, [r4]
 346:D:/fchai/work/i-cube/I-CUBE-HUAWEI/Middlewares/Third_Party/Huawei/iot_link/network/dtls/mbedtls/mbedtls-2.16.2/library\md.c **** 
 887              		.loc 1 346 5 view .LVU202
 888 0078 3846     		mov	r0, r7
 889 007a DA68     		ldr	r2, [r3, #12]
 890 007c 5C21     		movs	r1, #92
 891 007e FFF7FEFF 		bl	memset
 892              	.LVL79:
 348:D:/fchai/work/i-cube/I-CUBE-HUAWEI/Middlewares/Third_Party/Huawei/iot_link/network/dtls/mbedtls/mbedtls-2.16.2/library\md.c ****     {
 893              		.loc 1 348 5 is_stmt 1 view .LVU203
 348:D:/fchai/work/i-cube/I-CUBE-HUAWEI/Middlewares/Third_Party/Huawei/iot_link/network/dtls/mbedtls/mbedtls-2.16.2/library\md.c ****     {
 894              		.loc 1 348 17 view .LVU204
 348:D:/fchai/work/i-cube/I-CUBE-HUAWEI/Middlewares/Third_Party/Huawei/iot_link/network/dtls/mbedtls/mbedtls-2.16.2/library\md.c ****     {
 895              		.loc 1 348 5 is_stmt 0 view .LVU205
 896 0082 B9F1000F 		cmp	r9, #0
 897 0086 14D0     		beq	.L103
 898 0088 09F1FF3C 		add	ip, r9, #-1
 899 008c AC44     		add	ip, ip, r5
 900 008e 08F1FF31 		add	r1, r8, #-1
 901 0092 781E     		subs	r0, r7, #1
 902 0094 6B1E     		subs	r3, r5, #1
 903              	.LVL80:
 904              	.L102:
 350:D:/fchai/work/i-cube/I-CUBE-HUAWEI/Middlewares/Third_Party/Huawei/iot_link/network/dtls/mbedtls/mbedtls-2.16.2/library\md.c ****         opad[i] = (unsigned char)( opad[i] ^ key[i] );
 905              		.loc 1 350 9 is_stmt 1 discriminator 3 view .LVU206
 350:D:/fchai/work/i-cube/I-CUBE-HUAWEI/Middlewares/Third_Party/Huawei/iot_link/network/dtls/mbedtls/mbedtls-2.16.2/library\md.c ****         opad[i] = (unsigned char)( opad[i] ^ key[i] );
 906              		.loc 1 350 19 is_stmt 0 discriminator 3 view .LVU207
 907 0096 13F8012F 		ldrb	r2, [r3, #1]!	@ zero_extendqisi2
 908 009a 11F8017F 		ldrb	r7, [r1, #1]!	@ zero_extendqisi2
 909 009e 7A40     		eors	r2, r2, r7
 350:D:/fchai/work/i-cube/I-CUBE-HUAWEI/Middlewares/Third_Party/Huawei/iot_link/network/dtls/mbedtls/mbedtls-2.16.2/library\md.c ****         opad[i] = (unsigned char)( opad[i] ^ key[i] );
 910              		.loc 1 350 17 discriminator 3 view .LVU208
 911 00a0 1A70     		strb	r2, [r3]
 351:D:/fchai/work/i-cube/I-CUBE-HUAWEI/Middlewares/Third_Party/Huawei/iot_link/network/dtls/mbedtls/mbedtls-2.16.2/library\md.c ****     }
 912              		.loc 1 351 9 is_stmt 1 discriminator 3 view .LVU209
 351:D:/fchai/work/i-cube/I-CUBE-HUAWEI/Middlewares/Third_Party/Huawei/iot_link/network/dtls/mbedtls/mbedtls-2.16.2/library\md.c ****     }
 913              		.loc 1 351 19 is_stmt 0 discriminator 3 view .LVU210
 914 00a2 10F8012F 		ldrb	r2, [r0, #1]!	@ zero_extendqisi2
 915 00a6 0F78     		ldrb	r7, [r1]	@ zero_extendqisi2
ARM GAS  T:\msys\tmp\cc3NNrif.s 			page 24


 348:D:/fchai/work/i-cube/I-CUBE-HUAWEI/Middlewares/Third_Party/Huawei/iot_link/network/dtls/mbedtls/mbedtls-2.16.2/library\md.c ****     {
 916              		.loc 1 348 5 discriminator 3 view .LVU211
 917 00a8 9C45     		cmp	ip, r3
 351:D:/fchai/work/i-cube/I-CUBE-HUAWEI/Middlewares/Third_Party/Huawei/iot_link/network/dtls/mbedtls/mbedtls-2.16.2/library\md.c ****     }
 918              		.loc 1 351 19 discriminator 3 view .LVU212
 919 00aa 82EA0702 		eor	r2, r2, r7
 351:D:/fchai/work/i-cube/I-CUBE-HUAWEI/Middlewares/Third_Party/Huawei/iot_link/network/dtls/mbedtls/mbedtls-2.16.2/library\md.c ****     }
 920              		.loc 1 351 17 discriminator 3 view .LVU213
 921 00ae 0270     		strb	r2, [r0]
 348:D:/fchai/work/i-cube/I-CUBE-HUAWEI/Middlewares/Third_Party/Huawei/iot_link/network/dtls/mbedtls/mbedtls-2.16.2/library\md.c ****     {
 922              		.loc 1 348 29 is_stmt 1 discriminator 3 view .LVU214
 348:D:/fchai/work/i-cube/I-CUBE-HUAWEI/Middlewares/Third_Party/Huawei/iot_link/network/dtls/mbedtls/mbedtls-2.16.2/library\md.c ****     {
 923              		.loc 1 348 17 discriminator 3 view .LVU215
 348:D:/fchai/work/i-cube/I-CUBE-HUAWEI/Middlewares/Third_Party/Huawei/iot_link/network/dtls/mbedtls/mbedtls-2.16.2/library\md.c ****     {
 924              		.loc 1 348 5 is_stmt 0 discriminator 3 view .LVU216
 925 00b0 F1D1     		bne	.L102
 926              	.L103:
 354:D:/fchai/work/i-cube/I-CUBE-HUAWEI/Middlewares/Third_Party/Huawei/iot_link/network/dtls/mbedtls/mbedtls-2.16.2/library\md.c ****         goto cleanup;
 927              		.loc 1 354 5 is_stmt 1 view .LVU217
 354:D:/fchai/work/i-cube/I-CUBE-HUAWEI/Middlewares/Third_Party/Huawei/iot_link/network/dtls/mbedtls/mbedtls-2.16.2/library\md.c ****         goto cleanup;
 928              		.loc 1 354 17 is_stmt 0 view .LVU218
 929 00b2 D4E90030 		ldrd	r3, r0, [r4]
 930 00b6 1B69     		ldr	r3, [r3, #16]
 931 00b8 9847     		blx	r3
 932              	.LVL81:
 354:D:/fchai/work/i-cube/I-CUBE-HUAWEI/Middlewares/Third_Party/Huawei/iot_link/network/dtls/mbedtls/mbedtls-2.16.2/library\md.c ****         goto cleanup;
 933              		.loc 1 354 7 view .LVU219
 934 00ba 0746     		mov	r7, r0
 935 00bc 0028     		cmp	r0, #0
 936 00be CCD1     		bne	.L99
 356:D:/fchai/work/i-cube/I-CUBE-HUAWEI/Middlewares/Third_Party/Huawei/iot_link/network/dtls/mbedtls/mbedtls-2.16.2/library\md.c ****                                            ctx->md_info->block_size ) ) != 0 )
 937              		.loc 1 356 5 is_stmt 1 view .LVU220
 356:D:/fchai/work/i-cube/I-CUBE-HUAWEI/Middlewares/Third_Party/Huawei/iot_link/network/dtls/mbedtls/mbedtls-2.16.2/library\md.c ****                                            ctx->md_info->block_size ) ) != 0 )
 938              		.loc 1 356 17 is_stmt 0 view .LVU221
 939 00c0 D4E90030 		ldrd	r3, r0, [r4]
 940              	.LVL82:
 356:D:/fchai/work/i-cube/I-CUBE-HUAWEI/Middlewares/Third_Party/Huawei/iot_link/network/dtls/mbedtls/mbedtls-2.16.2/library\md.c ****                                            ctx->md_info->block_size ) ) != 0 )
 941              		.loc 1 356 17 view .LVU222
 942 00c4 2946     		mov	r1, r5
 943 00c6 5C69     		ldr	r4, [r3, #20]
 944              	.LVL83:
 356:D:/fchai/work/i-cube/I-CUBE-HUAWEI/Middlewares/Third_Party/Huawei/iot_link/network/dtls/mbedtls/mbedtls-2.16.2/library\md.c ****                                            ctx->md_info->block_size ) ) != 0 )
 945              		.loc 1 356 17 view .LVU223
 946 00c8 DA68     		ldr	r2, [r3, #12]
 947 00ca A047     		blx	r4
 948              	.LVL84:
 949 00cc 0746     		mov	r7, r0
 950              	.LVL85:
 360:D:/fchai/work/i-cube/I-CUBE-HUAWEI/Middlewares/Third_Party/Huawei/iot_link/network/dtls/mbedtls/mbedtls-2.16.2/library\md.c ****     mbedtls_platform_zeroize( sum, sizeof( sum ) );
 951              		.loc 1 360 1 view .LVU224
 952 00ce C4E7     		b	.L99
 953              	.LVL86:
 954              	.L106:
 327:D:/fchai/work/i-cube/I-CUBE-HUAWEI/Middlewares/Third_Party/Huawei/iot_link/network/dtls/mbedtls/mbedtls-2.16.2/library\md.c **** 
 955              		.loc 1 327 15 view .LVU225
 956 00d0 004F     		ldr	r7, .L118
 957 00d2 C6E7     		b	.L96
ARM GAS  T:\msys\tmp\cc3NNrif.s 			page 25


 958              	.L119:
 959              		.align	2
 960              	.L118:
 961 00d4 00AFFFFF 		.word	-20736
 962              		.cfi_endproc
 963              	.LFE15:
 965              		.section	.text.mbedtls_md_hmac_update,"ax",%progbits
 966              		.align	1
 967              		.p2align 2,,3
 968              		.global	mbedtls_md_hmac_update
 969              		.syntax unified
 970              		.thumb
 971              		.thumb_func
 972              		.fpu fpv4-sp-d16
 974              	mbedtls_md_hmac_update:
 975              	.LVL87:
 976              	.LFB16:
 365:D:/fchai/work/i-cube/I-CUBE-HUAWEI/Middlewares/Third_Party/Huawei/iot_link/network/dtls/mbedtls/mbedtls-2.16.2/library\md.c **** 
 366:D:/fchai/work/i-cube/I-CUBE-HUAWEI/Middlewares/Third_Party/Huawei/iot_link/network/dtls/mbedtls/mbedtls-2.16.2/library\md.c **** int mbedtls_md_hmac_update( mbedtls_md_context_t *ctx, const unsigned char *input, size_t ilen )
 367:D:/fchai/work/i-cube/I-CUBE-HUAWEI/Middlewares/Third_Party/Huawei/iot_link/network/dtls/mbedtls/mbedtls-2.16.2/library\md.c **** {
 977              		.loc 1 367 1 is_stmt 1 view -0
 978              		.cfi_startproc
 979              		@ args = 0, pretend = 0, frame = 0
 980              		@ frame_needed = 0, uses_anonymous_args = 0
 981              		@ link register save eliminated.
 368:D:/fchai/work/i-cube/I-CUBE-HUAWEI/Middlewares/Third_Party/Huawei/iot_link/network/dtls/mbedtls/mbedtls-2.16.2/library\md.c ****     if( ctx == NULL || ctx->md_info == NULL || ctx->hmac_ctx == NULL )
 982              		.loc 1 368 5 view .LVU227
 983              		.loc 1 368 7 is_stmt 0 view .LVU228
 984 0000 48B1     		cbz	r0, .L123
 985              		.loc 1 368 27 discriminator 1 view .LVU229
 986 0002 0368     		ldr	r3, [r0]
 987              		.loc 1 368 21 discriminator 1 view .LVU230
 988 0004 3BB1     		cbz	r3, .L123
 367:D:/fchai/work/i-cube/I-CUBE-HUAWEI/Middlewares/Third_Party/Huawei/iot_link/network/dtls/mbedtls/mbedtls-2.16.2/library\md.c ****     if( ctx == NULL || ctx->md_info == NULL || ctx->hmac_ctx == NULL )
 989              		.loc 1 367 1 discriminator 2 view .LVU231
 990 0006 10B4     		push	{r4}
 991              	.LCFI15:
 992              		.cfi_def_cfa_offset 4
 993              		.cfi_offset 4, -4
 994              		.loc 1 368 45 discriminator 2 view .LVU232
 995 0008 8468     		ldr	r4, [r0, #8]
 996 000a 34B1     		cbz	r4, .L124
 369:D:/fchai/work/i-cube/I-CUBE-HUAWEI/Middlewares/Third_Party/Huawei/iot_link/network/dtls/mbedtls/mbedtls-2.16.2/library\md.c ****         return( MBEDTLS_ERR_MD_BAD_INPUT_DATA );
 370:D:/fchai/work/i-cube/I-CUBE-HUAWEI/Middlewares/Third_Party/Huawei/iot_link/network/dtls/mbedtls/mbedtls-2.16.2/library\md.c **** 
 371:D:/fchai/work/i-cube/I-CUBE-HUAWEI/Middlewares/Third_Party/Huawei/iot_link/network/dtls/mbedtls/mbedtls-2.16.2/library\md.c ****     return( ctx->md_info->update_func( ctx->md_ctx, input, ilen ) );
 997              		.loc 1 371 5 is_stmt 1 view .LVU233
 998              		.loc 1 371 13 is_stmt 0 view .LVU234
 999 000c 5B69     		ldr	r3, [r3, #20]
 1000 000e 4068     		ldr	r0, [r0, #4]
 1001              	.LVL88:
 372:D:/fchai/work/i-cube/I-CUBE-HUAWEI/Middlewares/Third_Party/Huawei/iot_link/network/dtls/mbedtls/mbedtls-2.16.2/library\md.c **** }
 1002              		.loc 1 372 1 view .LVU235
 1003 0010 5DF8044B 		ldr	r4, [sp], #4
 1004              	.LCFI16:
 1005              		.cfi_restore 4
 1006              		.cfi_def_cfa_offset 0
 371:D:/fchai/work/i-cube/I-CUBE-HUAWEI/Middlewares/Third_Party/Huawei/iot_link/network/dtls/mbedtls/mbedtls-2.16.2/library\md.c **** }
ARM GAS  T:\msys\tmp\cc3NNrif.s 			page 26


 1007              		.loc 1 371 13 view .LVU236
 1008 0014 1847     		bx	r3
 1009              	.LVL89:
 1010              	.L123:
 369:D:/fchai/work/i-cube/I-CUBE-HUAWEI/Middlewares/Third_Party/Huawei/iot_link/network/dtls/mbedtls/mbedtls-2.16.2/library\md.c ****         return( MBEDTLS_ERR_MD_BAD_INPUT_DATA );
 1011              		.loc 1 369 15 view .LVU237
 1012 0016 0348     		ldr	r0, .L129
 1013              	.LVL90:
 1014              		.loc 1 372 1 view .LVU238
 1015 0018 7047     		bx	lr
 1016              	.LVL91:
 1017              	.L124:
 1018              	.LCFI17:
 1019              		.cfi_def_cfa_offset 4
 1020              		.cfi_offset 4, -4
 369:D:/fchai/work/i-cube/I-CUBE-HUAWEI/Middlewares/Third_Party/Huawei/iot_link/network/dtls/mbedtls/mbedtls-2.16.2/library\md.c ****         return( MBEDTLS_ERR_MD_BAD_INPUT_DATA );
 1021              		.loc 1 369 15 view .LVU239
 1022 001a 0248     		ldr	r0, .L129
 1023              	.LVL92:
 1024              		.loc 1 372 1 view .LVU240
 1025 001c 5DF8044B 		ldr	r4, [sp], #4
 1026              	.LCFI18:
 1027              		.cfi_restore 4
 1028              		.cfi_def_cfa_offset 0
 1029 0020 7047     		bx	lr
 1030              	.L130:
 1031 0022 00BF     		.align	2
 1032              	.L129:
 1033 0024 00AFFFFF 		.word	-20736
 1034              		.cfi_endproc
 1035              	.LFE16:
 1037              		.section	.text.mbedtls_md_hmac_finish,"ax",%progbits
 1038              		.align	1
 1039              		.p2align 2,,3
 1040              		.global	mbedtls_md_hmac_finish
 1041              		.syntax unified
 1042              		.thumb
 1043              		.thumb_func
 1044              		.fpu fpv4-sp-d16
 1046              	mbedtls_md_hmac_finish:
 1047              	.LVL93:
 1048              	.LFB17:
 373:D:/fchai/work/i-cube/I-CUBE-HUAWEI/Middlewares/Third_Party/Huawei/iot_link/network/dtls/mbedtls/mbedtls-2.16.2/library\md.c **** 
 374:D:/fchai/work/i-cube/I-CUBE-HUAWEI/Middlewares/Third_Party/Huawei/iot_link/network/dtls/mbedtls/mbedtls-2.16.2/library\md.c **** int mbedtls_md_hmac_finish( mbedtls_md_context_t *ctx, unsigned char *output )
 375:D:/fchai/work/i-cube/I-CUBE-HUAWEI/Middlewares/Third_Party/Huawei/iot_link/network/dtls/mbedtls/mbedtls-2.16.2/library\md.c **** {
 1049              		.loc 1 375 1 is_stmt 1 view -0
 1050              		.cfi_startproc
 1051              		@ args = 0, pretend = 0, frame = 32
 1052              		@ frame_needed = 0, uses_anonymous_args = 0
 376:D:/fchai/work/i-cube/I-CUBE-HUAWEI/Middlewares/Third_Party/Huawei/iot_link/network/dtls/mbedtls/mbedtls-2.16.2/library\md.c ****     int ret;
 1053              		.loc 1 376 5 view .LVU242
 377:D:/fchai/work/i-cube/I-CUBE-HUAWEI/Middlewares/Third_Party/Huawei/iot_link/network/dtls/mbedtls/mbedtls-2.16.2/library\md.c ****     unsigned char tmp[MBEDTLS_MD_MAX_SIZE];
 1054              		.loc 1 377 5 view .LVU243
 378:D:/fchai/work/i-cube/I-CUBE-HUAWEI/Middlewares/Third_Party/Huawei/iot_link/network/dtls/mbedtls/mbedtls-2.16.2/library\md.c ****     unsigned char *opad;
 1055              		.loc 1 378 5 view .LVU244
 379:D:/fchai/work/i-cube/I-CUBE-HUAWEI/Middlewares/Third_Party/Huawei/iot_link/network/dtls/mbedtls/mbedtls-2.16.2/library\md.c **** 
 380:D:/fchai/work/i-cube/I-CUBE-HUAWEI/Middlewares/Third_Party/Huawei/iot_link/network/dtls/mbedtls/mbedtls-2.16.2/library\md.c ****     if( ctx == NULL || ctx->md_info == NULL || ctx->hmac_ctx == NULL )
ARM GAS  T:\msys\tmp\cc3NNrif.s 			page 27


 1056              		.loc 1 380 5 view .LVU245
 1057              		.loc 1 380 7 is_stmt 0 view .LVU246
 1058 0000 60B3     		cbz	r0, .L133
 375:D:/fchai/work/i-cube/I-CUBE-HUAWEI/Middlewares/Third_Party/Huawei/iot_link/network/dtls/mbedtls/mbedtls-2.16.2/library\md.c ****     int ret;
 1059              		.loc 1 375 1 discriminator 1 view .LVU247
 1060 0002 2DE9F041 		push	{r4, r5, r6, r7, r8, lr}
 1061              	.LCFI19:
 1062              		.cfi_def_cfa_offset 24
 1063              		.cfi_offset 4, -24
 1064              		.cfi_offset 5, -20
 1065              		.cfi_offset 6, -16
 1066              		.cfi_offset 7, -12
 1067              		.cfi_offset 8, -8
 1068              		.cfi_offset 14, -4
 1069              		.loc 1 380 27 discriminator 1 view .LVU248
 1070 0006 0368     		ldr	r3, [r0]
 375:D:/fchai/work/i-cube/I-CUBE-HUAWEI/Middlewares/Third_Party/Huawei/iot_link/network/dtls/mbedtls/mbedtls-2.16.2/library\md.c ****     int ret;
 1071              		.loc 1 375 1 discriminator 1 view .LVU249
 1072 0008 88B0     		sub	sp, sp, #32
 1073              	.LCFI20:
 1074              		.cfi_def_cfa_offset 56
 1075 000a 0446     		mov	r4, r0
 1076              		.loc 1 380 21 discriminator 1 view .LVU250
 1077 000c 23B3     		cbz	r3, .L135
 1078              		.loc 1 380 51 discriminator 2 view .LVU251
 1079 000e 8668     		ldr	r6, [r0, #8]
 1080              		.loc 1 380 45 discriminator 2 view .LVU252
 1081 0010 16B3     		cbz	r6, .L135
 381:D:/fchai/work/i-cube/I-CUBE-HUAWEI/Middlewares/Third_Party/Huawei/iot_link/network/dtls/mbedtls/mbedtls-2.16.2/library\md.c ****         return( MBEDTLS_ERR_MD_BAD_INPUT_DATA );
 382:D:/fchai/work/i-cube/I-CUBE-HUAWEI/Middlewares/Third_Party/Huawei/iot_link/network/dtls/mbedtls/mbedtls-2.16.2/library\md.c **** 
 383:D:/fchai/work/i-cube/I-CUBE-HUAWEI/Middlewares/Third_Party/Huawei/iot_link/network/dtls/mbedtls/mbedtls-2.16.2/library\md.c ****     opad = (unsigned char *) ctx->hmac_ctx + ctx->md_info->block_size;
 1082              		.loc 1 383 5 is_stmt 1 view .LVU253
 1083 0012 0D46     		mov	r5, r1
 384:D:/fchai/work/i-cube/I-CUBE-HUAWEI/Middlewares/Third_Party/Huawei/iot_link/network/dtls/mbedtls/mbedtls-2.16.2/library\md.c **** 
 385:D:/fchai/work/i-cube/I-CUBE-HUAWEI/Middlewares/Third_Party/Huawei/iot_link/network/dtls/mbedtls/mbedtls-2.16.2/library\md.c ****     if( ( ret = ctx->md_info->finish_func( ctx->md_ctx, tmp ) ) != 0 )
 1084              		.loc 1 385 17 is_stmt 0 view .LVU254
 1085 0014 9A69     		ldr	r2, [r3, #24]
 1086 0016 4068     		ldr	r0, [r0, #4]
 1087              	.LVL94:
 383:D:/fchai/work/i-cube/I-CUBE-HUAWEI/Middlewares/Third_Party/Huawei/iot_link/network/dtls/mbedtls/mbedtls-2.16.2/library\md.c **** 
 1088              		.loc 1 383 58 view .LVU255
 1089 0018 DF68     		ldr	r7, [r3, #12]
 1090              	.LVL95:
 1091              		.loc 1 385 5 is_stmt 1 view .LVU256
 1092              		.loc 1 385 17 is_stmt 0 view .LVU257
 1093 001a 6946     		mov	r1, sp
 1094              	.LVL96:
 1095              		.loc 1 385 17 view .LVU258
 1096 001c 9047     		blx	r2
 1097              	.LVL97:
 1098              		.loc 1 385 7 view .LVU259
 1099 001e C0B9     		cbnz	r0, .L131
 386:D:/fchai/work/i-cube/I-CUBE-HUAWEI/Middlewares/Third_Party/Huawei/iot_link/network/dtls/mbedtls/mbedtls-2.16.2/library\md.c ****         return( ret );
 387:D:/fchai/work/i-cube/I-CUBE-HUAWEI/Middlewares/Third_Party/Huawei/iot_link/network/dtls/mbedtls/mbedtls-2.16.2/library\md.c ****     if( ( ret = ctx->md_info->starts_func( ctx->md_ctx ) ) != 0 )
 1100              		.loc 1 387 5 is_stmt 1 view .LVU260
 1101              		.loc 1 387 17 is_stmt 0 view .LVU261
 1102 0020 D4E90030 		ldrd	r3, r0, [r4]
ARM GAS  T:\msys\tmp\cc3NNrif.s 			page 28


 1103              	.LVL98:
 1104              		.loc 1 387 17 view .LVU262
 1105 0024 1B69     		ldr	r3, [r3, #16]
 1106 0026 9847     		blx	r3
 1107              	.LVL99:
 1108              		.loc 1 387 7 view .LVU263
 1109 0028 98B9     		cbnz	r0, .L131
 388:D:/fchai/work/i-cube/I-CUBE-HUAWEI/Middlewares/Third_Party/Huawei/iot_link/network/dtls/mbedtls/mbedtls-2.16.2/library\md.c ****         return( ret );
 389:D:/fchai/work/i-cube/I-CUBE-HUAWEI/Middlewares/Third_Party/Huawei/iot_link/network/dtls/mbedtls/mbedtls-2.16.2/library\md.c ****     if( ( ret = ctx->md_info->update_func( ctx->md_ctx, opad,
 1110              		.loc 1 389 5 is_stmt 1 view .LVU264
 1111              		.loc 1 389 17 is_stmt 0 view .LVU265
 1112 002a D4E90030 		ldrd	r3, r0, [r4]
 1113              	.LVL100:
 1114              		.loc 1 389 17 view .LVU266
 1115 002e F119     		adds	r1, r6, r7
 1116 0030 D3F81480 		ldr	r8, [r3, #20]
 1117 0034 DA68     		ldr	r2, [r3, #12]
 1118 0036 C047     		blx	r8
 1119              	.LVL101:
 1120              		.loc 1 389 7 view .LVU267
 1121 0038 58B9     		cbnz	r0, .L131
 390:D:/fchai/work/i-cube/I-CUBE-HUAWEI/Middlewares/Third_Party/Huawei/iot_link/network/dtls/mbedtls/mbedtls-2.16.2/library\md.c ****                                            ctx->md_info->block_size ) ) != 0 )
 391:D:/fchai/work/i-cube/I-CUBE-HUAWEI/Middlewares/Third_Party/Huawei/iot_link/network/dtls/mbedtls/mbedtls-2.16.2/library\md.c ****         return( ret );
 392:D:/fchai/work/i-cube/I-CUBE-HUAWEI/Middlewares/Third_Party/Huawei/iot_link/network/dtls/mbedtls/mbedtls-2.16.2/library\md.c ****     if( ( ret = ctx->md_info->update_func( ctx->md_ctx, tmp,
 1122              		.loc 1 392 5 is_stmt 1 view .LVU268
 1123              		.loc 1 392 17 is_stmt 0 view .LVU269
 1124 003a D4E90030 		ldrd	r3, r0, [r4]
 1125              	.LVL102:
 1126              		.loc 1 392 17 view .LVU270
 1127 003e 6946     		mov	r1, sp
 1128 0040 5E69     		ldr	r6, [r3, #20]
 1129              	.LVL103:
 1130              		.loc 1 392 17 view .LVU271
 1131 0042 9A68     		ldr	r2, [r3, #8]
 1132 0044 B047     		blx	r6
 1133              	.LVL104:
 1134              		.loc 1 392 7 view .LVU272
 1135 0046 20B9     		cbnz	r0, .L131
 393:D:/fchai/work/i-cube/I-CUBE-HUAWEI/Middlewares/Third_Party/Huawei/iot_link/network/dtls/mbedtls/mbedtls-2.16.2/library\md.c ****                                            ctx->md_info->size ) ) != 0 )
 394:D:/fchai/work/i-cube/I-CUBE-HUAWEI/Middlewares/Third_Party/Huawei/iot_link/network/dtls/mbedtls/mbedtls-2.16.2/library\md.c ****         return( ret );
 395:D:/fchai/work/i-cube/I-CUBE-HUAWEI/Middlewares/Third_Party/Huawei/iot_link/network/dtls/mbedtls/mbedtls-2.16.2/library\md.c ****     return( ctx->md_info->finish_func( ctx->md_ctx, output ) );
 1136              		.loc 1 395 5 is_stmt 1 view .LVU273
 1137              		.loc 1 395 13 is_stmt 0 view .LVU274
 1138 0048 D4E90030 		ldrd	r3, r0, [r4]
 1139              	.LVL105:
 1140              		.loc 1 395 13 view .LVU275
 1141 004c 2946     		mov	r1, r5
 1142 004e 9B69     		ldr	r3, [r3, #24]
 1143 0050 9847     		blx	r3
 1144              	.LVL106:
 1145              	.L131:
 396:D:/fchai/work/i-cube/I-CUBE-HUAWEI/Middlewares/Third_Party/Huawei/iot_link/network/dtls/mbedtls/mbedtls-2.16.2/library\md.c **** }
 1146              		.loc 1 396 1 view .LVU276
 1147 0052 08B0     		add	sp, sp, #32
 1148              	.LCFI21:
 1149              		.cfi_remember_state
 1150              		.cfi_def_cfa_offset 24
ARM GAS  T:\msys\tmp\cc3NNrif.s 			page 29


 1151              		@ sp needed
 1152 0054 BDE8F081 		pop	{r4, r5, r6, r7, r8, pc}
 1153              	.LVL107:
 1154              	.L135:
 1155              	.LCFI22:
 1156              		.cfi_restore_state
 381:D:/fchai/work/i-cube/I-CUBE-HUAWEI/Middlewares/Third_Party/Huawei/iot_link/network/dtls/mbedtls/mbedtls-2.16.2/library\md.c **** 
 1157              		.loc 1 381 15 view .LVU277
 1158 0058 0148     		ldr	r0, .L140
 1159              	.LVL108:
 381:D:/fchai/work/i-cube/I-CUBE-HUAWEI/Middlewares/Third_Party/Huawei/iot_link/network/dtls/mbedtls/mbedtls-2.16.2/library\md.c **** 
 1160              		.loc 1 381 15 view .LVU278
 1161 005a FAE7     		b	.L131
 1162              	.LVL109:
 1163              	.L133:
 1164              	.LCFI23:
 1165              		.cfi_def_cfa_offset 0
 1166              		.cfi_restore 4
 1167              		.cfi_restore 5
 1168              		.cfi_restore 6
 1169              		.cfi_restore 7
 1170              		.cfi_restore 8
 1171              		.cfi_restore 14
 381:D:/fchai/work/i-cube/I-CUBE-HUAWEI/Middlewares/Third_Party/Huawei/iot_link/network/dtls/mbedtls/mbedtls-2.16.2/library\md.c **** 
 1172              		.loc 1 381 15 view .LVU279
 1173 005c 0048     		ldr	r0, .L140
 1174              	.LVL110:
 1175              		.loc 1 396 1 view .LVU280
 1176 005e 7047     		bx	lr
 1177              	.L141:
 1178              		.align	2
 1179              	.L140:
 1180 0060 00AFFFFF 		.word	-20736
 1181              		.cfi_endproc
 1182              	.LFE17:
 1184              		.section	.text.mbedtls_md_hmac_reset,"ax",%progbits
 1185              		.align	1
 1186              		.p2align 2,,3
 1187              		.global	mbedtls_md_hmac_reset
 1188              		.syntax unified
 1189              		.thumb
 1190              		.thumb_func
 1191              		.fpu fpv4-sp-d16
 1193              	mbedtls_md_hmac_reset:
 1194              	.LVL111:
 1195              	.LFB18:
 397:D:/fchai/work/i-cube/I-CUBE-HUAWEI/Middlewares/Third_Party/Huawei/iot_link/network/dtls/mbedtls/mbedtls-2.16.2/library\md.c **** 
 398:D:/fchai/work/i-cube/I-CUBE-HUAWEI/Middlewares/Third_Party/Huawei/iot_link/network/dtls/mbedtls/mbedtls-2.16.2/library\md.c **** int mbedtls_md_hmac_reset( mbedtls_md_context_t *ctx )
 399:D:/fchai/work/i-cube/I-CUBE-HUAWEI/Middlewares/Third_Party/Huawei/iot_link/network/dtls/mbedtls/mbedtls-2.16.2/library\md.c **** {
 1196              		.loc 1 399 1 is_stmt 1 view -0
 1197              		.cfi_startproc
 1198              		@ args = 0, pretend = 0, frame = 0
 1199              		@ frame_needed = 0, uses_anonymous_args = 0
 400:D:/fchai/work/i-cube/I-CUBE-HUAWEI/Middlewares/Third_Party/Huawei/iot_link/network/dtls/mbedtls/mbedtls-2.16.2/library\md.c ****     int ret;
 1200              		.loc 1 400 5 view .LVU282
 401:D:/fchai/work/i-cube/I-CUBE-HUAWEI/Middlewares/Third_Party/Huawei/iot_link/network/dtls/mbedtls/mbedtls-2.16.2/library\md.c ****     unsigned char *ipad;
 1201              		.loc 1 401 5 view .LVU283
ARM GAS  T:\msys\tmp\cc3NNrif.s 			page 30


 402:D:/fchai/work/i-cube/I-CUBE-HUAWEI/Middlewares/Third_Party/Huawei/iot_link/network/dtls/mbedtls/mbedtls-2.16.2/library\md.c **** 
 403:D:/fchai/work/i-cube/I-CUBE-HUAWEI/Middlewares/Third_Party/Huawei/iot_link/network/dtls/mbedtls/mbedtls-2.16.2/library\md.c ****     if( ctx == NULL || ctx->md_info == NULL || ctx->hmac_ctx == NULL )
 1202              		.loc 1 403 5 view .LVU284
 1203              		.loc 1 403 7 is_stmt 0 view .LVU285
 1204 0000 A0B1     		cbz	r0, .L144
 1205              		.loc 1 403 27 discriminator 1 view .LVU286
 1206 0002 0368     		ldr	r3, [r0]
 399:D:/fchai/work/i-cube/I-CUBE-HUAWEI/Middlewares/Third_Party/Huawei/iot_link/network/dtls/mbedtls/mbedtls-2.16.2/library\md.c ****     int ret;
 1207              		.loc 1 399 1 discriminator 1 view .LVU287
 1208 0004 70B5     		push	{r4, r5, r6, lr}
 1209              	.LCFI24:
 1210              		.cfi_def_cfa_offset 16
 1211              		.cfi_offset 4, -16
 1212              		.cfi_offset 5, -12
 1213              		.cfi_offset 6, -8
 1214              		.cfi_offset 14, -4
 1215 0006 0446     		mov	r4, r0
 1216              		.loc 1 403 21 discriminator 1 view .LVU288
 1217 0008 73B1     		cbz	r3, .L146
 1218              		.loc 1 403 51 discriminator 2 view .LVU289
 1219 000a 8568     		ldr	r5, [r0, #8]
 1220              		.loc 1 403 45 discriminator 2 view .LVU290
 1221 000c 65B1     		cbz	r5, .L146
 404:D:/fchai/work/i-cube/I-CUBE-HUAWEI/Middlewares/Third_Party/Huawei/iot_link/network/dtls/mbedtls/mbedtls-2.16.2/library\md.c ****         return( MBEDTLS_ERR_MD_BAD_INPUT_DATA );
 405:D:/fchai/work/i-cube/I-CUBE-HUAWEI/Middlewares/Third_Party/Huawei/iot_link/network/dtls/mbedtls/mbedtls-2.16.2/library\md.c **** 
 406:D:/fchai/work/i-cube/I-CUBE-HUAWEI/Middlewares/Third_Party/Huawei/iot_link/network/dtls/mbedtls/mbedtls-2.16.2/library\md.c ****     ipad = (unsigned char *) ctx->hmac_ctx;
 1222              		.loc 1 406 5 is_stmt 1 view .LVU291
 1223              	.LVL112:
 407:D:/fchai/work/i-cube/I-CUBE-HUAWEI/Middlewares/Third_Party/Huawei/iot_link/network/dtls/mbedtls/mbedtls-2.16.2/library\md.c **** 
 408:D:/fchai/work/i-cube/I-CUBE-HUAWEI/Middlewares/Third_Party/Huawei/iot_link/network/dtls/mbedtls/mbedtls-2.16.2/library\md.c ****     if( ( ret = ctx->md_info->starts_func( ctx->md_ctx ) ) != 0 )
 1224              		.loc 1 408 5 view .LVU292
 1225              		.loc 1 408 17 is_stmt 0 view .LVU293
 1226 000e 1B69     		ldr	r3, [r3, #16]
 1227 0010 4068     		ldr	r0, [r0, #4]
 1228              	.LVL113:
 1229              		.loc 1 408 17 view .LVU294
 1230 0012 9847     		blx	r3
 1231              	.LVL114:
 1232              		.loc 1 408 7 view .LVU295
 1233 0014 48B9     		cbnz	r0, .L142
 409:D:/fchai/work/i-cube/I-CUBE-HUAWEI/Middlewares/Third_Party/Huawei/iot_link/network/dtls/mbedtls/mbedtls-2.16.2/library\md.c ****         return( ret );
 410:D:/fchai/work/i-cube/I-CUBE-HUAWEI/Middlewares/Third_Party/Huawei/iot_link/network/dtls/mbedtls/mbedtls-2.16.2/library\md.c ****     return( ctx->md_info->update_func( ctx->md_ctx, ipad,
 1234              		.loc 1 410 5 is_stmt 1 view .LVU296
 1235              		.loc 1 410 13 is_stmt 0 view .LVU297
 1236 0016 D4E90030 		ldrd	r3, r0, [r4]
 1237              	.LVL115:
 1238              		.loc 1 410 13 view .LVU298
 1239 001a 5C69     		ldr	r4, [r3, #20]
 1240              	.LVL116:
 1241              		.loc 1 410 13 view .LVU299
 1242 001c DA68     		ldr	r2, [r3, #12]
 1243 001e 2946     		mov	r1, r5
 1244 0020 2346     		mov	r3, r4
 411:D:/fchai/work/i-cube/I-CUBE-HUAWEI/Middlewares/Third_Party/Huawei/iot_link/network/dtls/mbedtls/mbedtls-2.16.2/library\md.c ****                                        ctx->md_info->block_size ) );
 412:D:/fchai/work/i-cube/I-CUBE-HUAWEI/Middlewares/Third_Party/Huawei/iot_link/network/dtls/mbedtls/mbedtls-2.16.2/library\md.c **** }
 1245              		.loc 1 412 1 view .LVU300
 1246 0022 BDE87040 		pop	{r4, r5, r6, lr}
ARM GAS  T:\msys\tmp\cc3NNrif.s 			page 31


 1247              	.LCFI25:
 1248              		.cfi_remember_state
 1249              		.cfi_restore 14
 1250              		.cfi_restore 6
 1251              		.cfi_restore 5
 1252              		.cfi_restore 4
 1253              		.cfi_def_cfa_offset 0
 1254              	.LVL117:
 410:D:/fchai/work/i-cube/I-CUBE-HUAWEI/Middlewares/Third_Party/Huawei/iot_link/network/dtls/mbedtls/mbedtls-2.16.2/library\md.c ****                                        ctx->md_info->block_size ) );
 1255              		.loc 1 410 13 view .LVU301
 1256 0026 1847     		bx	r3
 1257              	.LVL118:
 1258              	.L146:
 1259              	.LCFI26:
 1260              		.cfi_restore_state
 404:D:/fchai/work/i-cube/I-CUBE-HUAWEI/Middlewares/Third_Party/Huawei/iot_link/network/dtls/mbedtls/mbedtls-2.16.2/library\md.c **** 
 1261              		.loc 1 404 15 view .LVU302
 1262 0028 0148     		ldr	r0, .L151
 1263              	.LVL119:
 1264              	.L142:
 1265              		.loc 1 412 1 view .LVU303
 1266 002a 70BD     		pop	{r4, r5, r6, pc}
 1267              	.LVL120:
 1268              	.L144:
 1269              	.LCFI27:
 1270              		.cfi_def_cfa_offset 0
 1271              		.cfi_restore 4
 1272              		.cfi_restore 5
 1273              		.cfi_restore 6
 1274              		.cfi_restore 14
 404:D:/fchai/work/i-cube/I-CUBE-HUAWEI/Middlewares/Third_Party/Huawei/iot_link/network/dtls/mbedtls/mbedtls-2.16.2/library\md.c **** 
 1275              		.loc 1 404 15 view .LVU304
 1276 002c 0048     		ldr	r0, .L151
 1277              	.LVL121:
 1278              		.loc 1 412 1 view .LVU305
 1279 002e 7047     		bx	lr
 1280              	.L152:
 1281              		.align	2
 1282              	.L151:
 1283 0030 00AFFFFF 		.word	-20736
 1284              		.cfi_endproc
 1285              	.LFE18:
 1287              		.section	.text.mbedtls_md_hmac,"ax",%progbits
 1288              		.align	1
 1289              		.p2align 2,,3
 1290              		.global	mbedtls_md_hmac
 1291              		.syntax unified
 1292              		.thumb
 1293              		.thumb_func
 1294              		.fpu fpv4-sp-d16
 1296              	mbedtls_md_hmac:
 1297              	.LVL122:
 1298              	.LFB19:
 413:D:/fchai/work/i-cube/I-CUBE-HUAWEI/Middlewares/Third_Party/Huawei/iot_link/network/dtls/mbedtls/mbedtls-2.16.2/library\md.c **** 
 414:D:/fchai/work/i-cube/I-CUBE-HUAWEI/Middlewares/Third_Party/Huawei/iot_link/network/dtls/mbedtls/mbedtls-2.16.2/library\md.c **** int mbedtls_md_hmac( const mbedtls_md_info_t *md_info,
 415:D:/fchai/work/i-cube/I-CUBE-HUAWEI/Middlewares/Third_Party/Huawei/iot_link/network/dtls/mbedtls/mbedtls-2.16.2/library\md.c ****                      const unsigned char *key, size_t keylen,
 416:D:/fchai/work/i-cube/I-CUBE-HUAWEI/Middlewares/Third_Party/Huawei/iot_link/network/dtls/mbedtls/mbedtls-2.16.2/library\md.c ****                      const unsigned char *input, size_t ilen,
ARM GAS  T:\msys\tmp\cc3NNrif.s 			page 32


 417:D:/fchai/work/i-cube/I-CUBE-HUAWEI/Middlewares/Third_Party/Huawei/iot_link/network/dtls/mbedtls/mbedtls-2.16.2/library\md.c ****                      unsigned char *output )
 418:D:/fchai/work/i-cube/I-CUBE-HUAWEI/Middlewares/Third_Party/Huawei/iot_link/network/dtls/mbedtls/mbedtls-2.16.2/library\md.c **** {
 1299              		.loc 1 418 1 is_stmt 1 view -0
 1300              		.cfi_startproc
 1301              		@ args = 8, pretend = 0, frame = 16
 1302              		@ frame_needed = 0, uses_anonymous_args = 0
 419:D:/fchai/work/i-cube/I-CUBE-HUAWEI/Middlewares/Third_Party/Huawei/iot_link/network/dtls/mbedtls/mbedtls-2.16.2/library\md.c ****     mbedtls_md_context_t ctx;
 1303              		.loc 1 419 5 view .LVU307
 420:D:/fchai/work/i-cube/I-CUBE-HUAWEI/Middlewares/Third_Party/Huawei/iot_link/network/dtls/mbedtls/mbedtls-2.16.2/library\md.c ****     int ret;
 1304              		.loc 1 420 5 view .LVU308
 421:D:/fchai/work/i-cube/I-CUBE-HUAWEI/Middlewares/Third_Party/Huawei/iot_link/network/dtls/mbedtls/mbedtls-2.16.2/library\md.c **** 
 422:D:/fchai/work/i-cube/I-CUBE-HUAWEI/Middlewares/Third_Party/Huawei/iot_link/network/dtls/mbedtls/mbedtls-2.16.2/library\md.c ****     if( md_info == NULL )
 1305              		.loc 1 422 5 view .LVU309
 418:D:/fchai/work/i-cube/I-CUBE-HUAWEI/Middlewares/Third_Party/Huawei/iot_link/network/dtls/mbedtls/mbedtls-2.16.2/library\md.c ****     mbedtls_md_context_t ctx;
 1306              		.loc 1 418 1 is_stmt 0 view .LVU310
 1307 0000 F0B5     		push	{r4, r5, r6, r7, lr}
 1308              	.LCFI28:
 1309              		.cfi_def_cfa_offset 20
 1310              		.cfi_offset 4, -20
 1311              		.cfi_offset 5, -16
 1312              		.cfi_offset 6, -12
 1313              		.cfi_offset 7, -8
 1314              		.cfi_offset 14, -4
 1315 0002 85B0     		sub	sp, sp, #20
 1316              	.LCFI29:
 1317              		.cfi_def_cfa_offset 40
 1318              		.loc 1 422 7 view .LVU311
 1319 0004 68B3     		cbz	r0, .L156
 423:D:/fchai/work/i-cube/I-CUBE-HUAWEI/Middlewares/Third_Party/Huawei/iot_link/network/dtls/mbedtls/mbedtls-2.16.2/library\md.c ****         return( MBEDTLS_ERR_MD_BAD_INPUT_DATA );
 424:D:/fchai/work/i-cube/I-CUBE-HUAWEI/Middlewares/Third_Party/Huawei/iot_link/network/dtls/mbedtls/mbedtls-2.16.2/library\md.c **** 
 425:D:/fchai/work/i-cube/I-CUBE-HUAWEI/Middlewares/Third_Party/Huawei/iot_link/network/dtls/mbedtls/mbedtls-2.16.2/library\md.c ****     mbedtls_md_init( &ctx );
 1320              		.loc 1 425 5 is_stmt 1 view .LVU312
 1321              	.LVL123:
 1322              	.LBB22:
 1323              	.LBI22:
 177:D:/fchai/work/i-cube/I-CUBE-HUAWEI/Middlewares/Third_Party/Huawei/iot_link/network/dtls/mbedtls/mbedtls-2.16.2/library\md.c **** {
 1324              		.loc 1 177 6 view .LVU313
 1325              	.LBB23:
 179:D:/fchai/work/i-cube/I-CUBE-HUAWEI/Middlewares/Third_Party/Huawei/iot_link/network/dtls/mbedtls/mbedtls-2.16.2/library\md.c **** }
 1326              		.loc 1 179 5 view .LVU314
 1327 0006 0024     		movs	r4, #0
 1328 0008 0D46     		mov	r5, r1
 1329 000a 1746     		mov	r7, r2
 1330 000c 0146     		mov	r1, r0
 1331              	.LVL124:
 179:D:/fchai/work/i-cube/I-CUBE-HUAWEI/Middlewares/Third_Party/Huawei/iot_link/network/dtls/mbedtls/mbedtls-2.16.2/library\md.c **** }
 1332              		.loc 1 179 5 is_stmt 0 view .LVU315
 1333              	.LBE23:
 1334              	.LBE22:
 426:D:/fchai/work/i-cube/I-CUBE-HUAWEI/Middlewares/Third_Party/Huawei/iot_link/network/dtls/mbedtls/mbedtls-2.16.2/library\md.c **** 
 427:D:/fchai/work/i-cube/I-CUBE-HUAWEI/Middlewares/Third_Party/Huawei/iot_link/network/dtls/mbedtls/mbedtls-2.16.2/library\md.c ****     if( ( ret = mbedtls_md_setup( &ctx, md_info, 1 ) ) != 0 )
 1335              		.loc 1 427 17 view .LVU316
 1336 000e 0122     		movs	r2, #1
 1337              	.LVL125:
 1338              		.loc 1 427 17 view .LVU317
 1339 0010 01A8     		add	r0, sp, #4
 1340              	.LVL126:
ARM GAS  T:\msys\tmp\cc3NNrif.s 			page 33


 1341              	.LBB25:
 1342              	.LBB24:
 179:D:/fchai/work/i-cube/I-CUBE-HUAWEI/Middlewares/Third_Party/Huawei/iot_link/network/dtls/mbedtls/mbedtls-2.16.2/library\md.c **** }
 1343              		.loc 1 179 5 view .LVU318
 1344 0012 CDE90144 		strd	r4, r4, [sp, #4]
 1345 0016 0394     		str	r4, [sp, #12]
 1346              	.LVL127:
 179:D:/fchai/work/i-cube/I-CUBE-HUAWEI/Middlewares/Third_Party/Huawei/iot_link/network/dtls/mbedtls/mbedtls-2.16.2/library\md.c **** }
 1347              		.loc 1 179 5 view .LVU319
 1348              	.LBE24:
 1349              	.LBE25:
 1350              		.loc 1 427 5 is_stmt 1 view .LVU320
 1351 0018 1E46     		mov	r6, r3
 1352              		.loc 1 427 17 is_stmt 0 view .LVU321
 1353 001a FFF7FEFF 		bl	mbedtls_md_setup
 1354              	.LVL128:
 1355              		.loc 1 427 7 view .LVU322
 1356 001e 0446     		mov	r4, r0
 1357 0020 28B1     		cbz	r0, .L160
 1358              	.L155:
 1359              	.LVL129:
 428:D:/fchai/work/i-cube/I-CUBE-HUAWEI/Middlewares/Third_Party/Huawei/iot_link/network/dtls/mbedtls/mbedtls-2.16.2/library\md.c ****         goto cleanup;
 429:D:/fchai/work/i-cube/I-CUBE-HUAWEI/Middlewares/Third_Party/Huawei/iot_link/network/dtls/mbedtls/mbedtls-2.16.2/library\md.c **** 
 430:D:/fchai/work/i-cube/I-CUBE-HUAWEI/Middlewares/Third_Party/Huawei/iot_link/network/dtls/mbedtls/mbedtls-2.16.2/library\md.c ****     if( ( ret = mbedtls_md_hmac_starts( &ctx, key, keylen ) ) != 0 )
 431:D:/fchai/work/i-cube/I-CUBE-HUAWEI/Middlewares/Third_Party/Huawei/iot_link/network/dtls/mbedtls/mbedtls-2.16.2/library\md.c ****         goto cleanup;
 432:D:/fchai/work/i-cube/I-CUBE-HUAWEI/Middlewares/Third_Party/Huawei/iot_link/network/dtls/mbedtls/mbedtls-2.16.2/library\md.c ****     if( ( ret = mbedtls_md_hmac_update( &ctx, input, ilen ) ) != 0 )
 433:D:/fchai/work/i-cube/I-CUBE-HUAWEI/Middlewares/Third_Party/Huawei/iot_link/network/dtls/mbedtls/mbedtls-2.16.2/library\md.c ****         goto cleanup;
 434:D:/fchai/work/i-cube/I-CUBE-HUAWEI/Middlewares/Third_Party/Huawei/iot_link/network/dtls/mbedtls/mbedtls-2.16.2/library\md.c ****     if( ( ret = mbedtls_md_hmac_finish( &ctx, output ) ) != 0 )
 435:D:/fchai/work/i-cube/I-CUBE-HUAWEI/Middlewares/Third_Party/Huawei/iot_link/network/dtls/mbedtls/mbedtls-2.16.2/library\md.c ****         goto cleanup;
 436:D:/fchai/work/i-cube/I-CUBE-HUAWEI/Middlewares/Third_Party/Huawei/iot_link/network/dtls/mbedtls/mbedtls-2.16.2/library\md.c **** 
 437:D:/fchai/work/i-cube/I-CUBE-HUAWEI/Middlewares/Third_Party/Huawei/iot_link/network/dtls/mbedtls/mbedtls-2.16.2/library\md.c **** cleanup:
 438:D:/fchai/work/i-cube/I-CUBE-HUAWEI/Middlewares/Third_Party/Huawei/iot_link/network/dtls/mbedtls/mbedtls-2.16.2/library\md.c ****     mbedtls_md_free( &ctx );
 1360              		.loc 1 438 5 is_stmt 1 view .LVU323
 1361 0022 01A8     		add	r0, sp, #4
 1362 0024 FFF7FEFF 		bl	mbedtls_md_free
 1363              	.LVL130:
 439:D:/fchai/work/i-cube/I-CUBE-HUAWEI/Middlewares/Third_Party/Huawei/iot_link/network/dtls/mbedtls/mbedtls-2.16.2/library\md.c **** 
 440:D:/fchai/work/i-cube/I-CUBE-HUAWEI/Middlewares/Third_Party/Huawei/iot_link/network/dtls/mbedtls/mbedtls-2.16.2/library\md.c ****     return( ret );
 1364              		.loc 1 440 5 view .LVU324
 1365              	.L153:
 441:D:/fchai/work/i-cube/I-CUBE-HUAWEI/Middlewares/Third_Party/Huawei/iot_link/network/dtls/mbedtls/mbedtls-2.16.2/library\md.c **** }
 1366              		.loc 1 441 1 is_stmt 0 view .LVU325
 1367 0028 2046     		mov	r0, r4
 1368 002a 05B0     		add	sp, sp, #20
 1369              	.LCFI30:
 1370              		.cfi_remember_state
 1371              		.cfi_def_cfa_offset 20
 1372              		@ sp needed
 1373 002c F0BD     		pop	{r4, r5, r6, r7, pc}
 1374              	.LVL131:
 1375              	.L160:
 1376              	.LCFI31:
 1377              		.cfi_restore_state
 430:D:/fchai/work/i-cube/I-CUBE-HUAWEI/Middlewares/Third_Party/Huawei/iot_link/network/dtls/mbedtls/mbedtls-2.16.2/library\md.c ****         goto cleanup;
 1378              		.loc 1 430 5 is_stmt 1 view .LVU326
 430:D:/fchai/work/i-cube/I-CUBE-HUAWEI/Middlewares/Third_Party/Huawei/iot_link/network/dtls/mbedtls/mbedtls-2.16.2/library\md.c ****         goto cleanup;
 1379              		.loc 1 430 17 is_stmt 0 view .LVU327
ARM GAS  T:\msys\tmp\cc3NNrif.s 			page 34


 1380 002e 3A46     		mov	r2, r7
 1381 0030 2946     		mov	r1, r5
 1382 0032 01A8     		add	r0, sp, #4
 1383              	.LVL132:
 430:D:/fchai/work/i-cube/I-CUBE-HUAWEI/Middlewares/Third_Party/Huawei/iot_link/network/dtls/mbedtls/mbedtls-2.16.2/library\md.c ****         goto cleanup;
 1384              		.loc 1 430 17 view .LVU328
 1385 0034 FFF7FEFF 		bl	mbedtls_md_hmac_starts
 1386              	.LVL133:
 430:D:/fchai/work/i-cube/I-CUBE-HUAWEI/Middlewares/Third_Party/Huawei/iot_link/network/dtls/mbedtls/mbedtls-2.16.2/library\md.c ****         goto cleanup;
 1387              		.loc 1 430 7 view .LVU329
 1388 0038 0446     		mov	r4, r0
 1389 003a 0028     		cmp	r0, #0
 1390 003c F1D1     		bne	.L155
 432:D:/fchai/work/i-cube/I-CUBE-HUAWEI/Middlewares/Third_Party/Huawei/iot_link/network/dtls/mbedtls/mbedtls-2.16.2/library\md.c ****         goto cleanup;
 1391              		.loc 1 432 5 is_stmt 1 view .LVU330
 1392              	.LVL134:
 1393              	.LBB26:
 1394              	.LBI26:
 366:D:/fchai/work/i-cube/I-CUBE-HUAWEI/Middlewares/Third_Party/Huawei/iot_link/network/dtls/mbedtls/mbedtls-2.16.2/library\md.c **** {
 1395              		.loc 1 366 5 view .LVU331
 1396              	.LBB27:
 368:D:/fchai/work/i-cube/I-CUBE-HUAWEI/Middlewares/Third_Party/Huawei/iot_link/network/dtls/mbedtls/mbedtls-2.16.2/library\md.c ****         return( MBEDTLS_ERR_MD_BAD_INPUT_DATA );
 1397              		.loc 1 368 5 view .LVU332
 368:D:/fchai/work/i-cube/I-CUBE-HUAWEI/Middlewares/Third_Party/Huawei/iot_link/network/dtls/mbedtls/mbedtls-2.16.2/library\md.c ****         return( MBEDTLS_ERR_MD_BAD_INPUT_DATA );
 1398              		.loc 1 368 27 is_stmt 0 view .LVU333
 1399 003e 019B     		ldr	r3, [sp, #4]
 368:D:/fchai/work/i-cube/I-CUBE-HUAWEI/Middlewares/Third_Party/Huawei/iot_link/network/dtls/mbedtls/mbedtls-2.16.2/library\md.c ****         return( MBEDTLS_ERR_MD_BAD_INPUT_DATA );
 1400              		.loc 1 368 21 view .LVU334
 1401 0040 8BB1     		cbz	r3, .L158
 368:D:/fchai/work/i-cube/I-CUBE-HUAWEI/Middlewares/Third_Party/Huawei/iot_link/network/dtls/mbedtls/mbedtls-2.16.2/library\md.c ****         return( MBEDTLS_ERR_MD_BAD_INPUT_DATA );
 1402              		.loc 1 368 45 view .LVU335
 1403 0042 039A     		ldr	r2, [sp, #12]
 1404 0044 7AB1     		cbz	r2, .L158
 371:D:/fchai/work/i-cube/I-CUBE-HUAWEI/Middlewares/Third_Party/Huawei/iot_link/network/dtls/mbedtls/mbedtls-2.16.2/library\md.c **** }
 1405              		.loc 1 371 5 is_stmt 1 view .LVU336
 371:D:/fchai/work/i-cube/I-CUBE-HUAWEI/Middlewares/Third_Party/Huawei/iot_link/network/dtls/mbedtls/mbedtls-2.16.2/library\md.c **** }
 1406              		.loc 1 371 13 is_stmt 0 view .LVU337
 1407 0046 5B69     		ldr	r3, [r3, #20]
 1408 0048 0298     		ldr	r0, [sp, #8]
 1409              	.LVL135:
 371:D:/fchai/work/i-cube/I-CUBE-HUAWEI/Middlewares/Third_Party/Huawei/iot_link/network/dtls/mbedtls/mbedtls-2.16.2/library\md.c **** }
 1410              		.loc 1 371 13 view .LVU338
 1411 004a 0A9A     		ldr	r2, [sp, #40]
 1412 004c 3146     		mov	r1, r6
 1413 004e 9847     		blx	r3
 1414              	.LVL136:
 371:D:/fchai/work/i-cube/I-CUBE-HUAWEI/Middlewares/Third_Party/Huawei/iot_link/network/dtls/mbedtls/mbedtls-2.16.2/library\md.c **** }
 1415              		.loc 1 371 13 view .LVU339
 1416              	.LBE27:
 1417              	.LBE26:
 432:D:/fchai/work/i-cube/I-CUBE-HUAWEI/Middlewares/Third_Party/Huawei/iot_link/network/dtls/mbedtls/mbedtls-2.16.2/library\md.c ****         goto cleanup;
 1418              		.loc 1 432 7 view .LVU340
 1419 0050 0446     		mov	r4, r0
 1420 0052 0028     		cmp	r0, #0
 1421 0054 E5D1     		bne	.L155
 434:D:/fchai/work/i-cube/I-CUBE-HUAWEI/Middlewares/Third_Party/Huawei/iot_link/network/dtls/mbedtls/mbedtls-2.16.2/library\md.c ****         goto cleanup;
 1422              		.loc 1 434 5 is_stmt 1 view .LVU341
ARM GAS  T:\msys\tmp\cc3NNrif.s 			page 35


 434:D:/fchai/work/i-cube/I-CUBE-HUAWEI/Middlewares/Third_Party/Huawei/iot_link/network/dtls/mbedtls/mbedtls-2.16.2/library\md.c ****         goto cleanup;
 1423              		.loc 1 434 17 is_stmt 0 view .LVU342
 1424 0056 0B99     		ldr	r1, [sp, #44]
 1425 0058 01A8     		add	r0, sp, #4
 1426              	.LVL137:
 434:D:/fchai/work/i-cube/I-CUBE-HUAWEI/Middlewares/Third_Party/Huawei/iot_link/network/dtls/mbedtls/mbedtls-2.16.2/library\md.c ****         goto cleanup;
 1427              		.loc 1 434 17 view .LVU343
 1428 005a FFF7FEFF 		bl	mbedtls_md_hmac_finish
 1429              	.LVL138:
 1430 005e 0446     		mov	r4, r0
 1431              	.LVL139:
 437:D:/fchai/work/i-cube/I-CUBE-HUAWEI/Middlewares/Third_Party/Huawei/iot_link/network/dtls/mbedtls/mbedtls-2.16.2/library\md.c ****     mbedtls_md_free( &ctx );
 1432              		.loc 1 437 1 view .LVU344
 1433 0060 DFE7     		b	.L155
 1434              	.LVL140:
 1435              	.L156:
 423:D:/fchai/work/i-cube/I-CUBE-HUAWEI/Middlewares/Third_Party/Huawei/iot_link/network/dtls/mbedtls/mbedtls-2.16.2/library\md.c **** 
 1436              		.loc 1 423 15 view .LVU345
 1437 0062 024C     		ldr	r4, .L161
 1438 0064 E0E7     		b	.L153
 1439              	.LVL141:
 1440              	.L158:
 1441              	.LBB29:
 1442              	.LBB28:
 369:D:/fchai/work/i-cube/I-CUBE-HUAWEI/Middlewares/Third_Party/Huawei/iot_link/network/dtls/mbedtls/mbedtls-2.16.2/library\md.c **** 
 1443              		.loc 1 369 15 view .LVU346
 1444 0066 014C     		ldr	r4, .L161
 1445 0068 DBE7     		b	.L155
 1446              	.L162:
 1447 006a 00BF     		.align	2
 1448              	.L161:
 1449 006c 00AFFFFF 		.word	-20736
 1450              	.LBE28:
 1451              	.LBE29:
 1452              		.cfi_endproc
 1453              	.LFE19:
 1455              		.section	.text.mbedtls_md_process,"ax",%progbits
 1456              		.align	1
 1457              		.p2align 2,,3
 1458              		.global	mbedtls_md_process
 1459              		.syntax unified
 1460              		.thumb
 1461              		.thumb_func
 1462              		.fpu fpv4-sp-d16
 1464              	mbedtls_md_process:
 1465              	.LVL142:
 1466              	.LFB20:
 442:D:/fchai/work/i-cube/I-CUBE-HUAWEI/Middlewares/Third_Party/Huawei/iot_link/network/dtls/mbedtls/mbedtls-2.16.2/library\md.c **** 
 443:D:/fchai/work/i-cube/I-CUBE-HUAWEI/Middlewares/Third_Party/Huawei/iot_link/network/dtls/mbedtls/mbedtls-2.16.2/library\md.c **** int mbedtls_md_process( mbedtls_md_context_t *ctx, const unsigned char *data )
 444:D:/fchai/work/i-cube/I-CUBE-HUAWEI/Middlewares/Third_Party/Huawei/iot_link/network/dtls/mbedtls/mbedtls-2.16.2/library\md.c **** {
 1467              		.loc 1 444 1 is_stmt 1 view -0
 1468              		.cfi_startproc
 1469              		@ args = 0, pretend = 0, frame = 0
 1470              		@ frame_needed = 0, uses_anonymous_args = 0
 1471              		@ link register save eliminated.
 445:D:/fchai/work/i-cube/I-CUBE-HUAWEI/Middlewares/Third_Party/Huawei/iot_link/network/dtls/mbedtls/mbedtls-2.16.2/library\md.c ****     if( ctx == NULL || ctx->md_info == NULL )
 1472              		.loc 1 445 5 view .LVU348
ARM GAS  T:\msys\tmp\cc3NNrif.s 			page 36


 1473              		.loc 1 445 7 is_stmt 0 view .LVU349
 1474 0000 20B1     		cbz	r0, .L166
 1475              		.loc 1 445 27 discriminator 1 view .LVU350
 1476 0002 0368     		ldr	r3, [r0]
 1477              		.loc 1 445 21 discriminator 1 view .LVU351
 1478 0004 13B1     		cbz	r3, .L166
 446:D:/fchai/work/i-cube/I-CUBE-HUAWEI/Middlewares/Third_Party/Huawei/iot_link/network/dtls/mbedtls/mbedtls-2.16.2/library\md.c ****         return( MBEDTLS_ERR_MD_BAD_INPUT_DATA );
 447:D:/fchai/work/i-cube/I-CUBE-HUAWEI/Middlewares/Third_Party/Huawei/iot_link/network/dtls/mbedtls/mbedtls-2.16.2/library\md.c **** 
 448:D:/fchai/work/i-cube/I-CUBE-HUAWEI/Middlewares/Third_Party/Huawei/iot_link/network/dtls/mbedtls/mbedtls-2.16.2/library\md.c ****     return( ctx->md_info->process_func( ctx->md_ctx, data ) );
 1479              		.loc 1 448 5 is_stmt 1 view .LVU352
 1480              		.loc 1 448 13 is_stmt 0 view .LVU353
 1481 0006 DB6A     		ldr	r3, [r3, #44]
 1482 0008 4068     		ldr	r0, [r0, #4]
 1483              	.LVL143:
 1484              		.loc 1 448 13 view .LVU354
 1485 000a 1847     		bx	r3
 1486              	.LVL144:
 1487              	.L166:
 446:D:/fchai/work/i-cube/I-CUBE-HUAWEI/Middlewares/Third_Party/Huawei/iot_link/network/dtls/mbedtls/mbedtls-2.16.2/library\md.c ****         return( MBEDTLS_ERR_MD_BAD_INPUT_DATA );
 1488              		.loc 1 446 15 view .LVU355
 1489 000c 0048     		ldr	r0, .L167
 1490              	.LVL145:
 449:D:/fchai/work/i-cube/I-CUBE-HUAWEI/Middlewares/Third_Party/Huawei/iot_link/network/dtls/mbedtls/mbedtls-2.16.2/library\md.c **** }
 1491              		.loc 1 449 1 view .LVU356
 1492 000e 7047     		bx	lr
 1493              	.L168:
 1494              		.align	2
 1495              	.L167:
 1496 0010 00AFFFFF 		.word	-20736
 1497              		.cfi_endproc
 1498              	.LFE20:
 1500              		.section	.text.mbedtls_md_get_size,"ax",%progbits
 1501              		.align	1
 1502              		.p2align 2,,3
 1503              		.global	mbedtls_md_get_size
 1504              		.syntax unified
 1505              		.thumb
 1506              		.thumb_func
 1507              		.fpu fpv4-sp-d16
 1509              	mbedtls_md_get_size:
 1510              	.LVL146:
 1511              	.LFB21:
 450:D:/fchai/work/i-cube/I-CUBE-HUAWEI/Middlewares/Third_Party/Huawei/iot_link/network/dtls/mbedtls/mbedtls-2.16.2/library\md.c **** 
 451:D:/fchai/work/i-cube/I-CUBE-HUAWEI/Middlewares/Third_Party/Huawei/iot_link/network/dtls/mbedtls/mbedtls-2.16.2/library\md.c **** unsigned char mbedtls_md_get_size( const mbedtls_md_info_t *md_info )
 452:D:/fchai/work/i-cube/I-CUBE-HUAWEI/Middlewares/Third_Party/Huawei/iot_link/network/dtls/mbedtls/mbedtls-2.16.2/library\md.c **** {
 1512              		.loc 1 452 1 is_stmt 1 view -0
 1513              		.cfi_startproc
 1514              		@ args = 0, pretend = 0, frame = 0
 1515              		@ frame_needed = 0, uses_anonymous_args = 0
 1516              		@ link register save eliminated.
 453:D:/fchai/work/i-cube/I-CUBE-HUAWEI/Middlewares/Third_Party/Huawei/iot_link/network/dtls/mbedtls/mbedtls-2.16.2/library\md.c ****     if( md_info == NULL )
 1517              		.loc 1 453 5 view .LVU358
 1518              		.loc 1 453 7 is_stmt 0 view .LVU359
 1519 0000 00B1     		cbz	r0, .L170
 454:D:/fchai/work/i-cube/I-CUBE-HUAWEI/Middlewares/Third_Party/Huawei/iot_link/network/dtls/mbedtls/mbedtls-2.16.2/library\md.c ****         return( 0 );
 455:D:/fchai/work/i-cube/I-CUBE-HUAWEI/Middlewares/Third_Party/Huawei/iot_link/network/dtls/mbedtls/mbedtls-2.16.2/library\md.c **** 
 456:D:/fchai/work/i-cube/I-CUBE-HUAWEI/Middlewares/Third_Party/Huawei/iot_link/network/dtls/mbedtls/mbedtls-2.16.2/library\md.c ****     return md_info->size;
ARM GAS  T:\msys\tmp\cc3NNrif.s 			page 37


 1520              		.loc 1 456 5 is_stmt 1 view .LVU360
 1521              		.loc 1 456 19 is_stmt 0 view .LVU361
 1522 0002 007A     		ldrb	r0, [r0, #8]	@ zero_extendqisi2
 1523              	.LVL147:
 1524              	.L170:
 457:D:/fchai/work/i-cube/I-CUBE-HUAWEI/Middlewares/Third_Party/Huawei/iot_link/network/dtls/mbedtls/mbedtls-2.16.2/library\md.c **** }
 1525              		.loc 1 457 1 view .LVU362
 1526 0004 7047     		bx	lr
 1527              		.cfi_endproc
 1528              	.LFE21:
 1530 0006 00BF     		.section	.text.mbedtls_md_get_type,"ax",%progbits
 1531              		.align	1
 1532              		.p2align 2,,3
 1533              		.global	mbedtls_md_get_type
 1534              		.syntax unified
 1535              		.thumb
 1536              		.thumb_func
 1537              		.fpu fpv4-sp-d16
 1539              	mbedtls_md_get_type:
 1540              	.LVL148:
 1541              	.LFB22:
 458:D:/fchai/work/i-cube/I-CUBE-HUAWEI/Middlewares/Third_Party/Huawei/iot_link/network/dtls/mbedtls/mbedtls-2.16.2/library\md.c **** 
 459:D:/fchai/work/i-cube/I-CUBE-HUAWEI/Middlewares/Third_Party/Huawei/iot_link/network/dtls/mbedtls/mbedtls-2.16.2/library\md.c **** mbedtls_md_type_t mbedtls_md_get_type( const mbedtls_md_info_t *md_info )
 460:D:/fchai/work/i-cube/I-CUBE-HUAWEI/Middlewares/Third_Party/Huawei/iot_link/network/dtls/mbedtls/mbedtls-2.16.2/library\md.c **** {
 1542              		.loc 1 460 1 is_stmt 1 view -0
 1543              		.cfi_startproc
 1544              		@ args = 0, pretend = 0, frame = 0
 1545              		@ frame_needed = 0, uses_anonymous_args = 0
 1546              		@ link register save eliminated.
 461:D:/fchai/work/i-cube/I-CUBE-HUAWEI/Middlewares/Third_Party/Huawei/iot_link/network/dtls/mbedtls/mbedtls-2.16.2/library\md.c ****     if( md_info == NULL )
 1547              		.loc 1 461 5 view .LVU364
 1548              		.loc 1 461 7 is_stmt 0 view .LVU365
 1549 0000 00B1     		cbz	r0, .L173
 462:D:/fchai/work/i-cube/I-CUBE-HUAWEI/Middlewares/Third_Party/Huawei/iot_link/network/dtls/mbedtls/mbedtls-2.16.2/library\md.c ****         return( MBEDTLS_MD_NONE );
 463:D:/fchai/work/i-cube/I-CUBE-HUAWEI/Middlewares/Third_Party/Huawei/iot_link/network/dtls/mbedtls/mbedtls-2.16.2/library\md.c **** 
 464:D:/fchai/work/i-cube/I-CUBE-HUAWEI/Middlewares/Third_Party/Huawei/iot_link/network/dtls/mbedtls/mbedtls-2.16.2/library\md.c ****     return md_info->type;
 1550              		.loc 1 464 5 is_stmt 1 view .LVU366
 1551              		.loc 1 464 19 is_stmt 0 view .LVU367
 1552 0002 0078     		ldrb	r0, [r0]	@ zero_extendqisi2
 1553              	.LVL149:
 1554              	.L173:
 465:D:/fchai/work/i-cube/I-CUBE-HUAWEI/Middlewares/Third_Party/Huawei/iot_link/network/dtls/mbedtls/mbedtls-2.16.2/library\md.c **** }
 1555              		.loc 1 465 1 view .LVU368
 1556 0004 7047     		bx	lr
 1557              		.cfi_endproc
 1558              	.LFE22:
 1560 0006 00BF     		.section	.text.mbedtls_md_get_name,"ax",%progbits
 1561              		.align	1
 1562              		.p2align 2,,3
 1563              		.global	mbedtls_md_get_name
 1564              		.syntax unified
 1565              		.thumb
 1566              		.thumb_func
 1567              		.fpu fpv4-sp-d16
 1569              	mbedtls_md_get_name:
 1570              	.LVL150:
 1571              	.LFB23:
ARM GAS  T:\msys\tmp\cc3NNrif.s 			page 38


 466:D:/fchai/work/i-cube/I-CUBE-HUAWEI/Middlewares/Third_Party/Huawei/iot_link/network/dtls/mbedtls/mbedtls-2.16.2/library\md.c **** 
 467:D:/fchai/work/i-cube/I-CUBE-HUAWEI/Middlewares/Third_Party/Huawei/iot_link/network/dtls/mbedtls/mbedtls-2.16.2/library\md.c **** const char *mbedtls_md_get_name( const mbedtls_md_info_t *md_info )
 468:D:/fchai/work/i-cube/I-CUBE-HUAWEI/Middlewares/Third_Party/Huawei/iot_link/network/dtls/mbedtls/mbedtls-2.16.2/library\md.c **** {
 1572              		.loc 1 468 1 is_stmt 1 view -0
 1573              		.cfi_startproc
 1574              		@ args = 0, pretend = 0, frame = 0
 1575              		@ frame_needed = 0, uses_anonymous_args = 0
 1576              		@ link register save eliminated.
 469:D:/fchai/work/i-cube/I-CUBE-HUAWEI/Middlewares/Third_Party/Huawei/iot_link/network/dtls/mbedtls/mbedtls-2.16.2/library\md.c ****     if( md_info == NULL )
 1577              		.loc 1 469 5 view .LVU370
 1578              		.loc 1 469 7 is_stmt 0 view .LVU371
 1579 0000 00B1     		cbz	r0, .L175
 470:D:/fchai/work/i-cube/I-CUBE-HUAWEI/Middlewares/Third_Party/Huawei/iot_link/network/dtls/mbedtls/mbedtls-2.16.2/library\md.c ****         return( NULL );
 471:D:/fchai/work/i-cube/I-CUBE-HUAWEI/Middlewares/Third_Party/Huawei/iot_link/network/dtls/mbedtls/mbedtls-2.16.2/library\md.c **** 
 472:D:/fchai/work/i-cube/I-CUBE-HUAWEI/Middlewares/Third_Party/Huawei/iot_link/network/dtls/mbedtls/mbedtls-2.16.2/library\md.c ****     return md_info->name;
 1580              		.loc 1 472 5 is_stmt 1 view .LVU372
 1581              		.loc 1 472 19 is_stmt 0 view .LVU373
 1582 0002 4068     		ldr	r0, [r0, #4]
 1583              	.LVL151:
 1584              	.L175:
 473:D:/fchai/work/i-cube/I-CUBE-HUAWEI/Middlewares/Third_Party/Huawei/iot_link/network/dtls/mbedtls/mbedtls-2.16.2/library\md.c **** }
 1585              		.loc 1 473 1 view .LVU374
 1586 0004 7047     		bx	lr
 1587              		.cfi_endproc
 1588              	.LFE23:
 1590 0006 00BF     		.section	.rodata.CSWTCH.2,"a"
 1591              		.align	2
 1592              		.set	.LANCHOR1,. + 0
 1595              	CSWTCH.2:
 1596 0000 00000000 		.word	mbedtls_sha1_info
 1597 0004 00000000 		.word	mbedtls_sha224_info
 1598 0008 00000000 		.word	mbedtls_sha256_info
 1599              		.section	.rodata.supported_digests,"a"
 1600              		.align	2
 1601              		.set	.LANCHOR0,. + 0
 1604              	supported_digests:
 1605 0000 06000000 		.word	6
 1606 0004 05000000 		.word	5
 1607 0008 04000000 		.word	4
 1608 000c 00000000 		.word	0
 1609              		.text
 1610              	.Letext0:
 1611              		.file 2 "t:\\msys\\3rd\\gcc-arm-none-eabi-9-2020-q2-update-win32\\lib\\gcc\\arm-none-eabi\\9.3.1\\
 1612              		.file 3 "D:/fchai/work/i-cube/I-CUBE-HUAWEI/Middlewares/Third_Party/Huawei/iot_link/network/dtls/m
 1613              		.file 4 "D:/fchai/work/i-cube/I-CUBE-HUAWEI/Middlewares/Third_Party/Huawei/iot_link/network/dtls/m
 1614              		.file 5 "t:\\msys\\3rd\\gcc-arm-none-eabi-9-2020-q2-update-win32\\arm-none-eabi\\include\\sys\\_ty
 1615              		.file 6 "t:\\msys\\3rd\\gcc-arm-none-eabi-9-2020-q2-update-win32\\arm-none-eabi\\include\\sys\\ree
 1616              		.file 7 "t:\\msys\\3rd\\gcc-arm-none-eabi-9-2020-q2-update-win32\\arm-none-eabi\\include\\sys\\loc
 1617              		.file 8 "t:\\msys\\3rd\\gcc-arm-none-eabi-9-2020-q2-update-win32\\arm-none-eabi\\include\\stdlib.h
 1618              		.file 9 "t:\\msys\\3rd\\gcc-arm-none-eabi-9-2020-q2-update-win32\\arm-none-eabi\\include\\time.h"
 1619              		.file 10 "D:/fchai/work/i-cube/I-CUBE-HUAWEI/Middlewares/Third_Party/Huawei/iot_link/network/dtls/
 1620              		.file 11 "D:/fchai/work/i-cube/I-CUBE-HUAWEI/Middlewares/Third_Party/Huawei/iot_link/network/dtls/
 1621              		.file 12 "t:\\msys\\3rd\\gcc-arm-none-eabi-9-2020-q2-update-win32\\arm-none-eabi\\include\\string.
ARM GAS  T:\msys\tmp\cc3NNrif.s 			page 39

