ARM GAS  T:\msys\tmp\cclxXSYZ.s 			page 1


   1              		.cpu cortex-m4
   2              		.eabi_attribute 27, 1
   3              		.eabi_attribute 28, 1
   4              		.eabi_attribute 20, 1
   5              		.eabi_attribute 21, 1
   6              		.eabi_attribute 23, 3
   7              		.eabi_attribute 24, 1
   8              		.eabi_attribute 25, 1
   9              		.eabi_attribute 26, 1
  10              		.eabi_attribute 30, 2
  11              		.eabi_attribute 34, 1
  12              		.eabi_attribute 18, 4
  13              		.file	"oid.c"
  14              		.text
  15              	.Ltext0:
  16              		.cfi_sections	.debug_frame
  17              		.section	.rodata.oid_sig_alg_from_asn1.part.0.str1.4,"aMS",%progbits,1
  18              		.align	2
  19              	.LC0:
  20 0000 2A864886 		.ascii	"*\206H\206\367\015\001\001\005\000"
  20      F70D0101 
  20      0500
  21              		.section	.text.oid_sig_alg_from_asn1.part.0,"ax",%progbits
  22              		.align	1
  23              		.p2align 2,,3
  24              		.arch armv7e-m
  25              		.syntax unified
  26              		.thumb
  27              		.thumb_func
  28              		.fpu fpv4-sp-d16
  30              	oid_sig_alg_from_asn1.part.0:
  31              	.LVL0:
  32              	.LFB39:
  33              		.file 1 "D:/fchai/work/i-cube/I-CUBE-HUAWEI/Middlewares/Third_Party/Huawei/iot_link/network/dtls/m
   1:D:/fchai/work/i-cube/I-CUBE-HUAWEI/Middlewares/Third_Party/Huawei/iot_link/network/dtls/mbedtls/mbedtls-2.16.2/library\oid.c **** /**
   2:D:/fchai/work/i-cube/I-CUBE-HUAWEI/Middlewares/Third_Party/Huawei/iot_link/network/dtls/mbedtls/mbedtls-2.16.2/library\oid.c ****  * \file oid.c
   3:D:/fchai/work/i-cube/I-CUBE-HUAWEI/Middlewares/Third_Party/Huawei/iot_link/network/dtls/mbedtls/mbedtls-2.16.2/library\oid.c ****  *
   4:D:/fchai/work/i-cube/I-CUBE-HUAWEI/Middlewares/Third_Party/Huawei/iot_link/network/dtls/mbedtls/mbedtls-2.16.2/library\oid.c ****  * \brief Object Identifier (OID) database
   5:D:/fchai/work/i-cube/I-CUBE-HUAWEI/Middlewares/Third_Party/Huawei/iot_link/network/dtls/mbedtls/mbedtls-2.16.2/library\oid.c ****  *
   6:D:/fchai/work/i-cube/I-CUBE-HUAWEI/Middlewares/Third_Party/Huawei/iot_link/network/dtls/mbedtls/mbedtls-2.16.2/library\oid.c ****  *  Copyright (C) 2006-2015, ARM Limited, All Rights Reserved
   7:D:/fchai/work/i-cube/I-CUBE-HUAWEI/Middlewares/Third_Party/Huawei/iot_link/network/dtls/mbedtls/mbedtls-2.16.2/library\oid.c ****  *  SPDX-License-Identifier: Apache-2.0
   8:D:/fchai/work/i-cube/I-CUBE-HUAWEI/Middlewares/Third_Party/Huawei/iot_link/network/dtls/mbedtls/mbedtls-2.16.2/library\oid.c ****  *
   9:D:/fchai/work/i-cube/I-CUBE-HUAWEI/Middlewares/Third_Party/Huawei/iot_link/network/dtls/mbedtls/mbedtls-2.16.2/library\oid.c ****  *  Licensed under the Apache License, Version 2.0 (the "License"); you may
  10:D:/fchai/work/i-cube/I-CUBE-HUAWEI/Middlewares/Third_Party/Huawei/iot_link/network/dtls/mbedtls/mbedtls-2.16.2/library\oid.c ****  *  not use this file except in compliance with the License.
  11:D:/fchai/work/i-cube/I-CUBE-HUAWEI/Middlewares/Third_Party/Huawei/iot_link/network/dtls/mbedtls/mbedtls-2.16.2/library\oid.c ****  *  You may obtain a copy of the License at
  12:D:/fchai/work/i-cube/I-CUBE-HUAWEI/Middlewares/Third_Party/Huawei/iot_link/network/dtls/mbedtls/mbedtls-2.16.2/library\oid.c ****  *
  13:D:/fchai/work/i-cube/I-CUBE-HUAWEI/Middlewares/Third_Party/Huawei/iot_link/network/dtls/mbedtls/mbedtls-2.16.2/library\oid.c ****  *  http://www.apache.org/licenses/LICENSE-2.0
  14:D:/fchai/work/i-cube/I-CUBE-HUAWEI/Middlewares/Third_Party/Huawei/iot_link/network/dtls/mbedtls/mbedtls-2.16.2/library\oid.c ****  *
  15:D:/fchai/work/i-cube/I-CUBE-HUAWEI/Middlewares/Third_Party/Huawei/iot_link/network/dtls/mbedtls/mbedtls-2.16.2/library\oid.c ****  *  Unless required by applicable law or agreed to in writing, software
  16:D:/fchai/work/i-cube/I-CUBE-HUAWEI/Middlewares/Third_Party/Huawei/iot_link/network/dtls/mbedtls/mbedtls-2.16.2/library\oid.c ****  *  distributed under the License is distributed on an "AS IS" BASIS, WITHOUT
  17:D:/fchai/work/i-cube/I-CUBE-HUAWEI/Middlewares/Third_Party/Huawei/iot_link/network/dtls/mbedtls/mbedtls-2.16.2/library\oid.c ****  *  WARRANTIES OR CONDITIONS OF ANY KIND, either express or implied.
  18:D:/fchai/work/i-cube/I-CUBE-HUAWEI/Middlewares/Third_Party/Huawei/iot_link/network/dtls/mbedtls/mbedtls-2.16.2/library\oid.c ****  *  See the License for the specific language governing permissions and
  19:D:/fchai/work/i-cube/I-CUBE-HUAWEI/Middlewares/Third_Party/Huawei/iot_link/network/dtls/mbedtls/mbedtls-2.16.2/library\oid.c ****  *  limitations under the License.
  20:D:/fchai/work/i-cube/I-CUBE-HUAWEI/Middlewares/Third_Party/Huawei/iot_link/network/dtls/mbedtls/mbedtls-2.16.2/library\oid.c ****  *
  21:D:/fchai/work/i-cube/I-CUBE-HUAWEI/Middlewares/Third_Party/Huawei/iot_link/network/dtls/mbedtls/mbedtls-2.16.2/library\oid.c ****  *  This file is part of mbed TLS (https://tls.mbed.org)
  22:D:/fchai/work/i-cube/I-CUBE-HUAWEI/Middlewares/Third_Party/Huawei/iot_link/network/dtls/mbedtls/mbedtls-2.16.2/library\oid.c ****  */
  23:D:/fchai/work/i-cube/I-CUBE-HUAWEI/Middlewares/Third_Party/Huawei/iot_link/network/dtls/mbedtls/mbedtls-2.16.2/library\oid.c **** 
ARM GAS  T:\msys\tmp\cclxXSYZ.s 			page 2


  24:D:/fchai/work/i-cube/I-CUBE-HUAWEI/Middlewares/Third_Party/Huawei/iot_link/network/dtls/mbedtls/mbedtls-2.16.2/library\oid.c **** #if !defined(MBEDTLS_CONFIG_FILE)
  25:D:/fchai/work/i-cube/I-CUBE-HUAWEI/Middlewares/Third_Party/Huawei/iot_link/network/dtls/mbedtls/mbedtls-2.16.2/library\oid.c **** #include "mbedtls/config.h"
  26:D:/fchai/work/i-cube/I-CUBE-HUAWEI/Middlewares/Third_Party/Huawei/iot_link/network/dtls/mbedtls/mbedtls-2.16.2/library\oid.c **** #else
  27:D:/fchai/work/i-cube/I-CUBE-HUAWEI/Middlewares/Third_Party/Huawei/iot_link/network/dtls/mbedtls/mbedtls-2.16.2/library\oid.c **** #include MBEDTLS_CONFIG_FILE
  28:D:/fchai/work/i-cube/I-CUBE-HUAWEI/Middlewares/Third_Party/Huawei/iot_link/network/dtls/mbedtls/mbedtls-2.16.2/library\oid.c **** #endif
  29:D:/fchai/work/i-cube/I-CUBE-HUAWEI/Middlewares/Third_Party/Huawei/iot_link/network/dtls/mbedtls/mbedtls-2.16.2/library\oid.c **** 
  30:D:/fchai/work/i-cube/I-CUBE-HUAWEI/Middlewares/Third_Party/Huawei/iot_link/network/dtls/mbedtls/mbedtls-2.16.2/library\oid.c **** #if defined(MBEDTLS_OID_C)
  31:D:/fchai/work/i-cube/I-CUBE-HUAWEI/Middlewares/Third_Party/Huawei/iot_link/network/dtls/mbedtls/mbedtls-2.16.2/library\oid.c **** 
  32:D:/fchai/work/i-cube/I-CUBE-HUAWEI/Middlewares/Third_Party/Huawei/iot_link/network/dtls/mbedtls/mbedtls-2.16.2/library\oid.c **** #include "mbedtls/oid.h"
  33:D:/fchai/work/i-cube/I-CUBE-HUAWEI/Middlewares/Third_Party/Huawei/iot_link/network/dtls/mbedtls/mbedtls-2.16.2/library\oid.c **** #include "mbedtls/rsa.h"
  34:D:/fchai/work/i-cube/I-CUBE-HUAWEI/Middlewares/Third_Party/Huawei/iot_link/network/dtls/mbedtls/mbedtls-2.16.2/library\oid.c **** 
  35:D:/fchai/work/i-cube/I-CUBE-HUAWEI/Middlewares/Third_Party/Huawei/iot_link/network/dtls/mbedtls/mbedtls-2.16.2/library\oid.c **** #include <stdio.h>
  36:D:/fchai/work/i-cube/I-CUBE-HUAWEI/Middlewares/Third_Party/Huawei/iot_link/network/dtls/mbedtls/mbedtls-2.16.2/library\oid.c **** #include <string.h>
  37:D:/fchai/work/i-cube/I-CUBE-HUAWEI/Middlewares/Third_Party/Huawei/iot_link/network/dtls/mbedtls/mbedtls-2.16.2/library\oid.c **** 
  38:D:/fchai/work/i-cube/I-CUBE-HUAWEI/Middlewares/Third_Party/Huawei/iot_link/network/dtls/mbedtls/mbedtls-2.16.2/library\oid.c **** #if defined(MBEDTLS_PLATFORM_C)
  39:D:/fchai/work/i-cube/I-CUBE-HUAWEI/Middlewares/Third_Party/Huawei/iot_link/network/dtls/mbedtls/mbedtls-2.16.2/library\oid.c **** #include "mbedtls/platform.h"
  40:D:/fchai/work/i-cube/I-CUBE-HUAWEI/Middlewares/Third_Party/Huawei/iot_link/network/dtls/mbedtls/mbedtls-2.16.2/library\oid.c **** #else
  41:D:/fchai/work/i-cube/I-CUBE-HUAWEI/Middlewares/Third_Party/Huawei/iot_link/network/dtls/mbedtls/mbedtls-2.16.2/library\oid.c **** #define mbedtls_snprintf snprintf
  42:D:/fchai/work/i-cube/I-CUBE-HUAWEI/Middlewares/Third_Party/Huawei/iot_link/network/dtls/mbedtls/mbedtls-2.16.2/library\oid.c **** #endif
  43:D:/fchai/work/i-cube/I-CUBE-HUAWEI/Middlewares/Third_Party/Huawei/iot_link/network/dtls/mbedtls/mbedtls-2.16.2/library\oid.c **** 
  44:D:/fchai/work/i-cube/I-CUBE-HUAWEI/Middlewares/Third_Party/Huawei/iot_link/network/dtls/mbedtls/mbedtls-2.16.2/library\oid.c **** #if defined(MBEDTLS_X509_USE_C) || defined(MBEDTLS_X509_CREATE_C)
  45:D:/fchai/work/i-cube/I-CUBE-HUAWEI/Middlewares/Third_Party/Huawei/iot_link/network/dtls/mbedtls/mbedtls-2.16.2/library\oid.c **** #include "mbedtls/x509.h"
  46:D:/fchai/work/i-cube/I-CUBE-HUAWEI/Middlewares/Third_Party/Huawei/iot_link/network/dtls/mbedtls/mbedtls-2.16.2/library\oid.c **** #endif
  47:D:/fchai/work/i-cube/I-CUBE-HUAWEI/Middlewares/Third_Party/Huawei/iot_link/network/dtls/mbedtls/mbedtls-2.16.2/library\oid.c **** 
  48:D:/fchai/work/i-cube/I-CUBE-HUAWEI/Middlewares/Third_Party/Huawei/iot_link/network/dtls/mbedtls/mbedtls-2.16.2/library\oid.c **** /*
  49:D:/fchai/work/i-cube/I-CUBE-HUAWEI/Middlewares/Third_Party/Huawei/iot_link/network/dtls/mbedtls/mbedtls-2.16.2/library\oid.c ****  * Macro to automatically add the size of #define'd OIDs
  50:D:/fchai/work/i-cube/I-CUBE-HUAWEI/Middlewares/Third_Party/Huawei/iot_link/network/dtls/mbedtls/mbedtls-2.16.2/library\oid.c ****  */
  51:D:/fchai/work/i-cube/I-CUBE-HUAWEI/Middlewares/Third_Party/Huawei/iot_link/network/dtls/mbedtls/mbedtls-2.16.2/library\oid.c **** #define ADD_LEN(s)      s, MBEDTLS_OID_SIZE(s)
  52:D:/fchai/work/i-cube/I-CUBE-HUAWEI/Middlewares/Third_Party/Huawei/iot_link/network/dtls/mbedtls/mbedtls-2.16.2/library\oid.c **** 
  53:D:/fchai/work/i-cube/I-CUBE-HUAWEI/Middlewares/Third_Party/Huawei/iot_link/network/dtls/mbedtls/mbedtls-2.16.2/library\oid.c **** /*
  54:D:/fchai/work/i-cube/I-CUBE-HUAWEI/Middlewares/Third_Party/Huawei/iot_link/network/dtls/mbedtls/mbedtls-2.16.2/library\oid.c ****  * Macro to generate an internal function for oid_XXX_from_asn1() (used by
  55:D:/fchai/work/i-cube/I-CUBE-HUAWEI/Middlewares/Third_Party/Huawei/iot_link/network/dtls/mbedtls/mbedtls-2.16.2/library\oid.c ****  * the other functions)
  56:D:/fchai/work/i-cube/I-CUBE-HUAWEI/Middlewares/Third_Party/Huawei/iot_link/network/dtls/mbedtls/mbedtls-2.16.2/library\oid.c ****  */
  57:D:/fchai/work/i-cube/I-CUBE-HUAWEI/Middlewares/Third_Party/Huawei/iot_link/network/dtls/mbedtls/mbedtls-2.16.2/library\oid.c **** #define FN_OID_TYPED_FROM_ASN1( TYPE_T, NAME, LIST )                    \
  58:D:/fchai/work/i-cube/I-CUBE-HUAWEI/Middlewares/Third_Party/Huawei/iot_link/network/dtls/mbedtls/mbedtls-2.16.2/library\oid.c ****     static const TYPE_T * oid_ ## NAME ## _from_asn1(                   \
  59:D:/fchai/work/i-cube/I-CUBE-HUAWEI/Middlewares/Third_Party/Huawei/iot_link/network/dtls/mbedtls/mbedtls-2.16.2/library\oid.c ****                                       const mbedtls_asn1_buf *oid )     \
  60:D:/fchai/work/i-cube/I-CUBE-HUAWEI/Middlewares/Third_Party/Huawei/iot_link/network/dtls/mbedtls/mbedtls-2.16.2/library\oid.c ****     {                                                                   \
  61:D:/fchai/work/i-cube/I-CUBE-HUAWEI/Middlewares/Third_Party/Huawei/iot_link/network/dtls/mbedtls/mbedtls-2.16.2/library\oid.c ****         const TYPE_T *p = (LIST);                                       \
  62:D:/fchai/work/i-cube/I-CUBE-HUAWEI/Middlewares/Third_Party/Huawei/iot_link/network/dtls/mbedtls/mbedtls-2.16.2/library\oid.c ****         const mbedtls_oid_descriptor_t *cur =                           \
  63:D:/fchai/work/i-cube/I-CUBE-HUAWEI/Middlewares/Third_Party/Huawei/iot_link/network/dtls/mbedtls/mbedtls-2.16.2/library\oid.c ****             (const mbedtls_oid_descriptor_t *) p;                       \
  64:D:/fchai/work/i-cube/I-CUBE-HUAWEI/Middlewares/Third_Party/Huawei/iot_link/network/dtls/mbedtls/mbedtls-2.16.2/library\oid.c ****         if( p == NULL || oid == NULL ) return( NULL );                  \
  65:D:/fchai/work/i-cube/I-CUBE-HUAWEI/Middlewares/Third_Party/Huawei/iot_link/network/dtls/mbedtls/mbedtls-2.16.2/library\oid.c ****         while( cur->asn1 != NULL ) {                                    \
  66:D:/fchai/work/i-cube/I-CUBE-HUAWEI/Middlewares/Third_Party/Huawei/iot_link/network/dtls/mbedtls/mbedtls-2.16.2/library\oid.c ****             if( cur->asn1_len == oid->len &&                            \
  67:D:/fchai/work/i-cube/I-CUBE-HUAWEI/Middlewares/Third_Party/Huawei/iot_link/network/dtls/mbedtls/mbedtls-2.16.2/library\oid.c ****                 memcmp( cur->asn1, oid->p, oid->len ) == 0 ) {          \
  68:D:/fchai/work/i-cube/I-CUBE-HUAWEI/Middlewares/Third_Party/Huawei/iot_link/network/dtls/mbedtls/mbedtls-2.16.2/library\oid.c ****                 return( p );                                            \
  69:D:/fchai/work/i-cube/I-CUBE-HUAWEI/Middlewares/Third_Party/Huawei/iot_link/network/dtls/mbedtls/mbedtls-2.16.2/library\oid.c ****             }                                                           \
  70:D:/fchai/work/i-cube/I-CUBE-HUAWEI/Middlewares/Third_Party/Huawei/iot_link/network/dtls/mbedtls/mbedtls-2.16.2/library\oid.c ****             p++;                                                        \
  71:D:/fchai/work/i-cube/I-CUBE-HUAWEI/Middlewares/Third_Party/Huawei/iot_link/network/dtls/mbedtls/mbedtls-2.16.2/library\oid.c ****             cur = (const mbedtls_oid_descriptor_t *) p;                 \
  72:D:/fchai/work/i-cube/I-CUBE-HUAWEI/Middlewares/Third_Party/Huawei/iot_link/network/dtls/mbedtls/mbedtls-2.16.2/library\oid.c ****         }                                                               \
  73:D:/fchai/work/i-cube/I-CUBE-HUAWEI/Middlewares/Third_Party/Huawei/iot_link/network/dtls/mbedtls/mbedtls-2.16.2/library\oid.c ****         return( NULL );                                                 \
  74:D:/fchai/work/i-cube/I-CUBE-HUAWEI/Middlewares/Third_Party/Huawei/iot_link/network/dtls/mbedtls/mbedtls-2.16.2/library\oid.c ****     }
  75:D:/fchai/work/i-cube/I-CUBE-HUAWEI/Middlewares/Third_Party/Huawei/iot_link/network/dtls/mbedtls/mbedtls-2.16.2/library\oid.c **** 
  76:D:/fchai/work/i-cube/I-CUBE-HUAWEI/Middlewares/Third_Party/Huawei/iot_link/network/dtls/mbedtls/mbedtls-2.16.2/library\oid.c **** /*
  77:D:/fchai/work/i-cube/I-CUBE-HUAWEI/Middlewares/Third_Party/Huawei/iot_link/network/dtls/mbedtls/mbedtls-2.16.2/library\oid.c ****  * Macro to generate a function for retrieving a single attribute from the
  78:D:/fchai/work/i-cube/I-CUBE-HUAWEI/Middlewares/Third_Party/Huawei/iot_link/network/dtls/mbedtls/mbedtls-2.16.2/library\oid.c ****  * descriptor of an mbedtls_oid_descriptor_t wrapper.
  79:D:/fchai/work/i-cube/I-CUBE-HUAWEI/Middlewares/Third_Party/Huawei/iot_link/network/dtls/mbedtls/mbedtls-2.16.2/library\oid.c ****  */
  80:D:/fchai/work/i-cube/I-CUBE-HUAWEI/Middlewares/Third_Party/Huawei/iot_link/network/dtls/mbedtls/mbedtls-2.16.2/library\oid.c **** #define FN_OID_GET_DESCRIPTOR_ATTR1(FN_NAME, TYPE_T, TYPE_NAME, ATTR1_TYPE, ATTR1) \
ARM GAS  T:\msys\tmp\cclxXSYZ.s 			page 3


  81:D:/fchai/work/i-cube/I-CUBE-HUAWEI/Middlewares/Third_Party/Huawei/iot_link/network/dtls/mbedtls/mbedtls-2.16.2/library\oid.c **** int FN_NAME( const mbedtls_asn1_buf *oid, ATTR1_TYPE * ATTR1 )                  \
  82:D:/fchai/work/i-cube/I-CUBE-HUAWEI/Middlewares/Third_Party/Huawei/iot_link/network/dtls/mbedtls/mbedtls-2.16.2/library\oid.c **** {                                                                       \
  83:D:/fchai/work/i-cube/I-CUBE-HUAWEI/Middlewares/Third_Party/Huawei/iot_link/network/dtls/mbedtls/mbedtls-2.16.2/library\oid.c ****     const TYPE_T *data = oid_ ## TYPE_NAME ## _from_asn1( oid );        \
  84:D:/fchai/work/i-cube/I-CUBE-HUAWEI/Middlewares/Third_Party/Huawei/iot_link/network/dtls/mbedtls/mbedtls-2.16.2/library\oid.c ****     if( data == NULL ) return( MBEDTLS_ERR_OID_NOT_FOUND );            \
  85:D:/fchai/work/i-cube/I-CUBE-HUAWEI/Middlewares/Third_Party/Huawei/iot_link/network/dtls/mbedtls/mbedtls-2.16.2/library\oid.c ****     *ATTR1 = data->descriptor.ATTR1;                                    \
  86:D:/fchai/work/i-cube/I-CUBE-HUAWEI/Middlewares/Third_Party/Huawei/iot_link/network/dtls/mbedtls/mbedtls-2.16.2/library\oid.c ****     return( 0 );                                                        \
  87:D:/fchai/work/i-cube/I-CUBE-HUAWEI/Middlewares/Third_Party/Huawei/iot_link/network/dtls/mbedtls/mbedtls-2.16.2/library\oid.c **** }
  88:D:/fchai/work/i-cube/I-CUBE-HUAWEI/Middlewares/Third_Party/Huawei/iot_link/network/dtls/mbedtls/mbedtls-2.16.2/library\oid.c **** 
  89:D:/fchai/work/i-cube/I-CUBE-HUAWEI/Middlewares/Third_Party/Huawei/iot_link/network/dtls/mbedtls/mbedtls-2.16.2/library\oid.c **** /*
  90:D:/fchai/work/i-cube/I-CUBE-HUAWEI/Middlewares/Third_Party/Huawei/iot_link/network/dtls/mbedtls/mbedtls-2.16.2/library\oid.c ****  * Macro to generate a function for retrieving a single attribute from an
  91:D:/fchai/work/i-cube/I-CUBE-HUAWEI/Middlewares/Third_Party/Huawei/iot_link/network/dtls/mbedtls/mbedtls-2.16.2/library\oid.c ****  * mbedtls_oid_descriptor_t wrapper.
  92:D:/fchai/work/i-cube/I-CUBE-HUAWEI/Middlewares/Third_Party/Huawei/iot_link/network/dtls/mbedtls/mbedtls-2.16.2/library\oid.c ****  */
  93:D:/fchai/work/i-cube/I-CUBE-HUAWEI/Middlewares/Third_Party/Huawei/iot_link/network/dtls/mbedtls/mbedtls-2.16.2/library\oid.c **** #define FN_OID_GET_ATTR1(FN_NAME, TYPE_T, TYPE_NAME, ATTR1_TYPE, ATTR1) \
  94:D:/fchai/work/i-cube/I-CUBE-HUAWEI/Middlewares/Third_Party/Huawei/iot_link/network/dtls/mbedtls/mbedtls-2.16.2/library\oid.c **** int FN_NAME( const mbedtls_asn1_buf *oid, ATTR1_TYPE * ATTR1 )                  \
  95:D:/fchai/work/i-cube/I-CUBE-HUAWEI/Middlewares/Third_Party/Huawei/iot_link/network/dtls/mbedtls/mbedtls-2.16.2/library\oid.c **** {                                                                       \
  96:D:/fchai/work/i-cube/I-CUBE-HUAWEI/Middlewares/Third_Party/Huawei/iot_link/network/dtls/mbedtls/mbedtls-2.16.2/library\oid.c ****     const TYPE_T *data = oid_ ## TYPE_NAME ## _from_asn1( oid );        \
  97:D:/fchai/work/i-cube/I-CUBE-HUAWEI/Middlewares/Third_Party/Huawei/iot_link/network/dtls/mbedtls/mbedtls-2.16.2/library\oid.c ****     if( data == NULL ) return( MBEDTLS_ERR_OID_NOT_FOUND );            \
  98:D:/fchai/work/i-cube/I-CUBE-HUAWEI/Middlewares/Third_Party/Huawei/iot_link/network/dtls/mbedtls/mbedtls-2.16.2/library\oid.c ****     *ATTR1 = data->ATTR1;                                               \
  99:D:/fchai/work/i-cube/I-CUBE-HUAWEI/Middlewares/Third_Party/Huawei/iot_link/network/dtls/mbedtls/mbedtls-2.16.2/library\oid.c ****     return( 0 );                                                        \
 100:D:/fchai/work/i-cube/I-CUBE-HUAWEI/Middlewares/Third_Party/Huawei/iot_link/network/dtls/mbedtls/mbedtls-2.16.2/library\oid.c **** }
 101:D:/fchai/work/i-cube/I-CUBE-HUAWEI/Middlewares/Third_Party/Huawei/iot_link/network/dtls/mbedtls/mbedtls-2.16.2/library\oid.c **** 
 102:D:/fchai/work/i-cube/I-CUBE-HUAWEI/Middlewares/Third_Party/Huawei/iot_link/network/dtls/mbedtls/mbedtls-2.16.2/library\oid.c **** /*
 103:D:/fchai/work/i-cube/I-CUBE-HUAWEI/Middlewares/Third_Party/Huawei/iot_link/network/dtls/mbedtls/mbedtls-2.16.2/library\oid.c ****  * Macro to generate a function for retrieving two attributes from an
 104:D:/fchai/work/i-cube/I-CUBE-HUAWEI/Middlewares/Third_Party/Huawei/iot_link/network/dtls/mbedtls/mbedtls-2.16.2/library\oid.c ****  * mbedtls_oid_descriptor_t wrapper.
 105:D:/fchai/work/i-cube/I-CUBE-HUAWEI/Middlewares/Third_Party/Huawei/iot_link/network/dtls/mbedtls/mbedtls-2.16.2/library\oid.c ****  */
 106:D:/fchai/work/i-cube/I-CUBE-HUAWEI/Middlewares/Third_Party/Huawei/iot_link/network/dtls/mbedtls/mbedtls-2.16.2/library\oid.c **** #define FN_OID_GET_ATTR2(FN_NAME, TYPE_T, TYPE_NAME, ATTR1_TYPE, ATTR1,     \
 107:D:/fchai/work/i-cube/I-CUBE-HUAWEI/Middlewares/Third_Party/Huawei/iot_link/network/dtls/mbedtls/mbedtls-2.16.2/library\oid.c ****                          ATTR2_TYPE, ATTR2)                                 \
 108:D:/fchai/work/i-cube/I-CUBE-HUAWEI/Middlewares/Third_Party/Huawei/iot_link/network/dtls/mbedtls/mbedtls-2.16.2/library\oid.c **** int FN_NAME( const mbedtls_asn1_buf *oid, ATTR1_TYPE * ATTR1,               \
 109:D:/fchai/work/i-cube/I-CUBE-HUAWEI/Middlewares/Third_Party/Huawei/iot_link/network/dtls/mbedtls/mbedtls-2.16.2/library\oid.c ****                                           ATTR2_TYPE * ATTR2 )              \
 110:D:/fchai/work/i-cube/I-CUBE-HUAWEI/Middlewares/Third_Party/Huawei/iot_link/network/dtls/mbedtls/mbedtls-2.16.2/library\oid.c **** {                                                                           \
 111:D:/fchai/work/i-cube/I-CUBE-HUAWEI/Middlewares/Third_Party/Huawei/iot_link/network/dtls/mbedtls/mbedtls-2.16.2/library\oid.c ****     const TYPE_T *data = oid_ ## TYPE_NAME ## _from_asn1( oid );            \
 112:D:/fchai/work/i-cube/I-CUBE-HUAWEI/Middlewares/Third_Party/Huawei/iot_link/network/dtls/mbedtls/mbedtls-2.16.2/library\oid.c ****     if( data == NULL ) return( MBEDTLS_ERR_OID_NOT_FOUND );                 \
 113:D:/fchai/work/i-cube/I-CUBE-HUAWEI/Middlewares/Third_Party/Huawei/iot_link/network/dtls/mbedtls/mbedtls-2.16.2/library\oid.c ****     *(ATTR1) = data->ATTR1;                                                 \
 114:D:/fchai/work/i-cube/I-CUBE-HUAWEI/Middlewares/Third_Party/Huawei/iot_link/network/dtls/mbedtls/mbedtls-2.16.2/library\oid.c ****     *(ATTR2) = data->ATTR2;                                                 \
 115:D:/fchai/work/i-cube/I-CUBE-HUAWEI/Middlewares/Third_Party/Huawei/iot_link/network/dtls/mbedtls/mbedtls-2.16.2/library\oid.c ****     return( 0 );                                                            \
 116:D:/fchai/work/i-cube/I-CUBE-HUAWEI/Middlewares/Third_Party/Huawei/iot_link/network/dtls/mbedtls/mbedtls-2.16.2/library\oid.c **** }
 117:D:/fchai/work/i-cube/I-CUBE-HUAWEI/Middlewares/Third_Party/Huawei/iot_link/network/dtls/mbedtls/mbedtls-2.16.2/library\oid.c **** 
 118:D:/fchai/work/i-cube/I-CUBE-HUAWEI/Middlewares/Third_Party/Huawei/iot_link/network/dtls/mbedtls/mbedtls-2.16.2/library\oid.c **** /*
 119:D:/fchai/work/i-cube/I-CUBE-HUAWEI/Middlewares/Third_Party/Huawei/iot_link/network/dtls/mbedtls/mbedtls-2.16.2/library\oid.c ****  * Macro to generate a function for retrieving the OID based on a single
 120:D:/fchai/work/i-cube/I-CUBE-HUAWEI/Middlewares/Third_Party/Huawei/iot_link/network/dtls/mbedtls/mbedtls-2.16.2/library\oid.c ****  * attribute from a mbedtls_oid_descriptor_t wrapper.
 121:D:/fchai/work/i-cube/I-CUBE-HUAWEI/Middlewares/Third_Party/Huawei/iot_link/network/dtls/mbedtls/mbedtls-2.16.2/library\oid.c ****  */
 122:D:/fchai/work/i-cube/I-CUBE-HUAWEI/Middlewares/Third_Party/Huawei/iot_link/network/dtls/mbedtls/mbedtls-2.16.2/library\oid.c **** #define FN_OID_GET_OID_BY_ATTR1(FN_NAME, TYPE_T, LIST, ATTR1_TYPE, ATTR1)   \
 123:D:/fchai/work/i-cube/I-CUBE-HUAWEI/Middlewares/Third_Party/Huawei/iot_link/network/dtls/mbedtls/mbedtls-2.16.2/library\oid.c **** int FN_NAME( ATTR1_TYPE ATTR1, const char **oid, size_t *olen )             \
 124:D:/fchai/work/i-cube/I-CUBE-HUAWEI/Middlewares/Third_Party/Huawei/iot_link/network/dtls/mbedtls/mbedtls-2.16.2/library\oid.c **** {                                                                           \
 125:D:/fchai/work/i-cube/I-CUBE-HUAWEI/Middlewares/Third_Party/Huawei/iot_link/network/dtls/mbedtls/mbedtls-2.16.2/library\oid.c ****     const TYPE_T *cur = (LIST);                                             \
 126:D:/fchai/work/i-cube/I-CUBE-HUAWEI/Middlewares/Third_Party/Huawei/iot_link/network/dtls/mbedtls/mbedtls-2.16.2/library\oid.c ****     while( cur->descriptor.asn1 != NULL ) {                                 \
 127:D:/fchai/work/i-cube/I-CUBE-HUAWEI/Middlewares/Third_Party/Huawei/iot_link/network/dtls/mbedtls/mbedtls-2.16.2/library\oid.c ****         if( cur->ATTR1 == (ATTR1) ) {                                       \
 128:D:/fchai/work/i-cube/I-CUBE-HUAWEI/Middlewares/Third_Party/Huawei/iot_link/network/dtls/mbedtls/mbedtls-2.16.2/library\oid.c ****             *oid = cur->descriptor.asn1;                                    \
 129:D:/fchai/work/i-cube/I-CUBE-HUAWEI/Middlewares/Third_Party/Huawei/iot_link/network/dtls/mbedtls/mbedtls-2.16.2/library\oid.c ****             *olen = cur->descriptor.asn1_len;                               \
 130:D:/fchai/work/i-cube/I-CUBE-HUAWEI/Middlewares/Third_Party/Huawei/iot_link/network/dtls/mbedtls/mbedtls-2.16.2/library\oid.c ****             return( 0 );                                                    \
 131:D:/fchai/work/i-cube/I-CUBE-HUAWEI/Middlewares/Third_Party/Huawei/iot_link/network/dtls/mbedtls/mbedtls-2.16.2/library\oid.c ****         }                                                                   \
 132:D:/fchai/work/i-cube/I-CUBE-HUAWEI/Middlewares/Third_Party/Huawei/iot_link/network/dtls/mbedtls/mbedtls-2.16.2/library\oid.c ****         cur++;                                                              \
 133:D:/fchai/work/i-cube/I-CUBE-HUAWEI/Middlewares/Third_Party/Huawei/iot_link/network/dtls/mbedtls/mbedtls-2.16.2/library\oid.c ****     }                                                                       \
 134:D:/fchai/work/i-cube/I-CUBE-HUAWEI/Middlewares/Third_Party/Huawei/iot_link/network/dtls/mbedtls/mbedtls-2.16.2/library\oid.c ****     return( MBEDTLS_ERR_OID_NOT_FOUND );                                    \
 135:D:/fchai/work/i-cube/I-CUBE-HUAWEI/Middlewares/Third_Party/Huawei/iot_link/network/dtls/mbedtls/mbedtls-2.16.2/library\oid.c **** }
 136:D:/fchai/work/i-cube/I-CUBE-HUAWEI/Middlewares/Third_Party/Huawei/iot_link/network/dtls/mbedtls/mbedtls-2.16.2/library\oid.c **** 
 137:D:/fchai/work/i-cube/I-CUBE-HUAWEI/Middlewares/Third_Party/Huawei/iot_link/network/dtls/mbedtls/mbedtls-2.16.2/library\oid.c **** /*
ARM GAS  T:\msys\tmp\cclxXSYZ.s 			page 4


 138:D:/fchai/work/i-cube/I-CUBE-HUAWEI/Middlewares/Third_Party/Huawei/iot_link/network/dtls/mbedtls/mbedtls-2.16.2/library\oid.c ****  * Macro to generate a function for retrieving the OID based on two
 139:D:/fchai/work/i-cube/I-CUBE-HUAWEI/Middlewares/Third_Party/Huawei/iot_link/network/dtls/mbedtls/mbedtls-2.16.2/library\oid.c ****  * attributes from a mbedtls_oid_descriptor_t wrapper.
 140:D:/fchai/work/i-cube/I-CUBE-HUAWEI/Middlewares/Third_Party/Huawei/iot_link/network/dtls/mbedtls/mbedtls-2.16.2/library\oid.c ****  */
 141:D:/fchai/work/i-cube/I-CUBE-HUAWEI/Middlewares/Third_Party/Huawei/iot_link/network/dtls/mbedtls/mbedtls-2.16.2/library\oid.c **** #define FN_OID_GET_OID_BY_ATTR2(FN_NAME, TYPE_T, LIST, ATTR1_TYPE, ATTR1,   \
 142:D:/fchai/work/i-cube/I-CUBE-HUAWEI/Middlewares/Third_Party/Huawei/iot_link/network/dtls/mbedtls/mbedtls-2.16.2/library\oid.c ****                                 ATTR2_TYPE, ATTR2)                          \
 143:D:/fchai/work/i-cube/I-CUBE-HUAWEI/Middlewares/Third_Party/Huawei/iot_link/network/dtls/mbedtls/mbedtls-2.16.2/library\oid.c **** int FN_NAME( ATTR1_TYPE ATTR1, ATTR2_TYPE ATTR2, const char **oid ,         \
 144:D:/fchai/work/i-cube/I-CUBE-HUAWEI/Middlewares/Third_Party/Huawei/iot_link/network/dtls/mbedtls/mbedtls-2.16.2/library\oid.c ****              size_t *olen )                                                 \
 145:D:/fchai/work/i-cube/I-CUBE-HUAWEI/Middlewares/Third_Party/Huawei/iot_link/network/dtls/mbedtls/mbedtls-2.16.2/library\oid.c **** {                                                                           \
 146:D:/fchai/work/i-cube/I-CUBE-HUAWEI/Middlewares/Third_Party/Huawei/iot_link/network/dtls/mbedtls/mbedtls-2.16.2/library\oid.c ****     const TYPE_T *cur = (LIST);                                             \
 147:D:/fchai/work/i-cube/I-CUBE-HUAWEI/Middlewares/Third_Party/Huawei/iot_link/network/dtls/mbedtls/mbedtls-2.16.2/library\oid.c ****     while( cur->descriptor.asn1 != NULL ) {                                 \
 148:D:/fchai/work/i-cube/I-CUBE-HUAWEI/Middlewares/Third_Party/Huawei/iot_link/network/dtls/mbedtls/mbedtls-2.16.2/library\oid.c ****         if( cur->ATTR1 == (ATTR1) && cur->ATTR2 == (ATTR2) ) {              \
 149:D:/fchai/work/i-cube/I-CUBE-HUAWEI/Middlewares/Third_Party/Huawei/iot_link/network/dtls/mbedtls/mbedtls-2.16.2/library\oid.c ****             *oid = cur->descriptor.asn1;                                    \
 150:D:/fchai/work/i-cube/I-CUBE-HUAWEI/Middlewares/Third_Party/Huawei/iot_link/network/dtls/mbedtls/mbedtls-2.16.2/library\oid.c ****             *olen = cur->descriptor.asn1_len;                               \
 151:D:/fchai/work/i-cube/I-CUBE-HUAWEI/Middlewares/Third_Party/Huawei/iot_link/network/dtls/mbedtls/mbedtls-2.16.2/library\oid.c ****             return( 0 );                                                    \
 152:D:/fchai/work/i-cube/I-CUBE-HUAWEI/Middlewares/Third_Party/Huawei/iot_link/network/dtls/mbedtls/mbedtls-2.16.2/library\oid.c ****         }                                                                   \
 153:D:/fchai/work/i-cube/I-CUBE-HUAWEI/Middlewares/Third_Party/Huawei/iot_link/network/dtls/mbedtls/mbedtls-2.16.2/library\oid.c ****         cur++;                                                              \
 154:D:/fchai/work/i-cube/I-CUBE-HUAWEI/Middlewares/Third_Party/Huawei/iot_link/network/dtls/mbedtls/mbedtls-2.16.2/library\oid.c ****     }                                                                       \
 155:D:/fchai/work/i-cube/I-CUBE-HUAWEI/Middlewares/Third_Party/Huawei/iot_link/network/dtls/mbedtls/mbedtls-2.16.2/library\oid.c ****     return( MBEDTLS_ERR_OID_NOT_FOUND );                                   \
 156:D:/fchai/work/i-cube/I-CUBE-HUAWEI/Middlewares/Third_Party/Huawei/iot_link/network/dtls/mbedtls/mbedtls-2.16.2/library\oid.c **** }
 157:D:/fchai/work/i-cube/I-CUBE-HUAWEI/Middlewares/Third_Party/Huawei/iot_link/network/dtls/mbedtls/mbedtls-2.16.2/library\oid.c **** 
 158:D:/fchai/work/i-cube/I-CUBE-HUAWEI/Middlewares/Third_Party/Huawei/iot_link/network/dtls/mbedtls/mbedtls-2.16.2/library\oid.c **** #if defined(MBEDTLS_X509_USE_C) || defined(MBEDTLS_X509_CREATE_C)
 159:D:/fchai/work/i-cube/I-CUBE-HUAWEI/Middlewares/Third_Party/Huawei/iot_link/network/dtls/mbedtls/mbedtls-2.16.2/library\oid.c **** /*
 160:D:/fchai/work/i-cube/I-CUBE-HUAWEI/Middlewares/Third_Party/Huawei/iot_link/network/dtls/mbedtls/mbedtls-2.16.2/library\oid.c ****  * For X520 attribute types
 161:D:/fchai/work/i-cube/I-CUBE-HUAWEI/Middlewares/Third_Party/Huawei/iot_link/network/dtls/mbedtls/mbedtls-2.16.2/library\oid.c ****  */
 162:D:/fchai/work/i-cube/I-CUBE-HUAWEI/Middlewares/Third_Party/Huawei/iot_link/network/dtls/mbedtls/mbedtls-2.16.2/library\oid.c **** typedef struct {
 163:D:/fchai/work/i-cube/I-CUBE-HUAWEI/Middlewares/Third_Party/Huawei/iot_link/network/dtls/mbedtls/mbedtls-2.16.2/library\oid.c ****     mbedtls_oid_descriptor_t    descriptor;
 164:D:/fchai/work/i-cube/I-CUBE-HUAWEI/Middlewares/Third_Party/Huawei/iot_link/network/dtls/mbedtls/mbedtls-2.16.2/library\oid.c ****     const char          *short_name;
 165:D:/fchai/work/i-cube/I-CUBE-HUAWEI/Middlewares/Third_Party/Huawei/iot_link/network/dtls/mbedtls/mbedtls-2.16.2/library\oid.c **** } oid_x520_attr_t;
 166:D:/fchai/work/i-cube/I-CUBE-HUAWEI/Middlewares/Third_Party/Huawei/iot_link/network/dtls/mbedtls/mbedtls-2.16.2/library\oid.c **** 
 167:D:/fchai/work/i-cube/I-CUBE-HUAWEI/Middlewares/Third_Party/Huawei/iot_link/network/dtls/mbedtls/mbedtls-2.16.2/library\oid.c **** static const oid_x520_attr_t oid_x520_attr_type[] =
 168:D:/fchai/work/i-cube/I-CUBE-HUAWEI/Middlewares/Third_Party/Huawei/iot_link/network/dtls/mbedtls/mbedtls-2.16.2/library\oid.c **** {
 169:D:/fchai/work/i-cube/I-CUBE-HUAWEI/Middlewares/Third_Party/Huawei/iot_link/network/dtls/mbedtls/mbedtls-2.16.2/library\oid.c ****     {
 170:D:/fchai/work/i-cube/I-CUBE-HUAWEI/Middlewares/Third_Party/Huawei/iot_link/network/dtls/mbedtls/mbedtls-2.16.2/library\oid.c ****         { ADD_LEN( MBEDTLS_OID_AT_CN ),          "id-at-commonName",               "Common Name" },
 171:D:/fchai/work/i-cube/I-CUBE-HUAWEI/Middlewares/Third_Party/Huawei/iot_link/network/dtls/mbedtls/mbedtls-2.16.2/library\oid.c ****         "CN",
 172:D:/fchai/work/i-cube/I-CUBE-HUAWEI/Middlewares/Third_Party/Huawei/iot_link/network/dtls/mbedtls/mbedtls-2.16.2/library\oid.c ****     },
 173:D:/fchai/work/i-cube/I-CUBE-HUAWEI/Middlewares/Third_Party/Huawei/iot_link/network/dtls/mbedtls/mbedtls-2.16.2/library\oid.c ****     {
 174:D:/fchai/work/i-cube/I-CUBE-HUAWEI/Middlewares/Third_Party/Huawei/iot_link/network/dtls/mbedtls/mbedtls-2.16.2/library\oid.c ****         { ADD_LEN( MBEDTLS_OID_AT_COUNTRY ),     "id-at-countryName",              "Country" },
 175:D:/fchai/work/i-cube/I-CUBE-HUAWEI/Middlewares/Third_Party/Huawei/iot_link/network/dtls/mbedtls/mbedtls-2.16.2/library\oid.c ****         "C",
 176:D:/fchai/work/i-cube/I-CUBE-HUAWEI/Middlewares/Third_Party/Huawei/iot_link/network/dtls/mbedtls/mbedtls-2.16.2/library\oid.c ****     },
 177:D:/fchai/work/i-cube/I-CUBE-HUAWEI/Middlewares/Third_Party/Huawei/iot_link/network/dtls/mbedtls/mbedtls-2.16.2/library\oid.c ****     {
 178:D:/fchai/work/i-cube/I-CUBE-HUAWEI/Middlewares/Third_Party/Huawei/iot_link/network/dtls/mbedtls/mbedtls-2.16.2/library\oid.c ****         { ADD_LEN( MBEDTLS_OID_AT_LOCALITY ),    "id-at-locality",                 "Locality" },
 179:D:/fchai/work/i-cube/I-CUBE-HUAWEI/Middlewares/Third_Party/Huawei/iot_link/network/dtls/mbedtls/mbedtls-2.16.2/library\oid.c ****         "L",
 180:D:/fchai/work/i-cube/I-CUBE-HUAWEI/Middlewares/Third_Party/Huawei/iot_link/network/dtls/mbedtls/mbedtls-2.16.2/library\oid.c ****     },
 181:D:/fchai/work/i-cube/I-CUBE-HUAWEI/Middlewares/Third_Party/Huawei/iot_link/network/dtls/mbedtls/mbedtls-2.16.2/library\oid.c ****     {
 182:D:/fchai/work/i-cube/I-CUBE-HUAWEI/Middlewares/Third_Party/Huawei/iot_link/network/dtls/mbedtls/mbedtls-2.16.2/library\oid.c ****         { ADD_LEN( MBEDTLS_OID_AT_STATE ),       "id-at-state",                    "State" },
 183:D:/fchai/work/i-cube/I-CUBE-HUAWEI/Middlewares/Third_Party/Huawei/iot_link/network/dtls/mbedtls/mbedtls-2.16.2/library\oid.c ****         "ST",
 184:D:/fchai/work/i-cube/I-CUBE-HUAWEI/Middlewares/Third_Party/Huawei/iot_link/network/dtls/mbedtls/mbedtls-2.16.2/library\oid.c ****     },
 185:D:/fchai/work/i-cube/I-CUBE-HUAWEI/Middlewares/Third_Party/Huawei/iot_link/network/dtls/mbedtls/mbedtls-2.16.2/library\oid.c ****     {
 186:D:/fchai/work/i-cube/I-CUBE-HUAWEI/Middlewares/Third_Party/Huawei/iot_link/network/dtls/mbedtls/mbedtls-2.16.2/library\oid.c ****         { ADD_LEN( MBEDTLS_OID_AT_ORGANIZATION ),"id-at-organizationName",         "Organization" }
 187:D:/fchai/work/i-cube/I-CUBE-HUAWEI/Middlewares/Third_Party/Huawei/iot_link/network/dtls/mbedtls/mbedtls-2.16.2/library\oid.c ****         "O",
 188:D:/fchai/work/i-cube/I-CUBE-HUAWEI/Middlewares/Third_Party/Huawei/iot_link/network/dtls/mbedtls/mbedtls-2.16.2/library\oid.c ****     },
 189:D:/fchai/work/i-cube/I-CUBE-HUAWEI/Middlewares/Third_Party/Huawei/iot_link/network/dtls/mbedtls/mbedtls-2.16.2/library\oid.c ****     {
 190:D:/fchai/work/i-cube/I-CUBE-HUAWEI/Middlewares/Third_Party/Huawei/iot_link/network/dtls/mbedtls/mbedtls-2.16.2/library\oid.c ****         { ADD_LEN( MBEDTLS_OID_AT_ORG_UNIT ),    "id-at-organizationalUnitName",   "Org Unit" },
 191:D:/fchai/work/i-cube/I-CUBE-HUAWEI/Middlewares/Third_Party/Huawei/iot_link/network/dtls/mbedtls/mbedtls-2.16.2/library\oid.c ****         "OU",
 192:D:/fchai/work/i-cube/I-CUBE-HUAWEI/Middlewares/Third_Party/Huawei/iot_link/network/dtls/mbedtls/mbedtls-2.16.2/library\oid.c ****     },
 193:D:/fchai/work/i-cube/I-CUBE-HUAWEI/Middlewares/Third_Party/Huawei/iot_link/network/dtls/mbedtls/mbedtls-2.16.2/library\oid.c ****     {
 194:D:/fchai/work/i-cube/I-CUBE-HUAWEI/Middlewares/Third_Party/Huawei/iot_link/network/dtls/mbedtls/mbedtls-2.16.2/library\oid.c ****         { ADD_LEN( MBEDTLS_OID_PKCS9_EMAIL ),    "emailAddress",                   "E-mail address"
ARM GAS  T:\msys\tmp\cclxXSYZ.s 			page 5


 195:D:/fchai/work/i-cube/I-CUBE-HUAWEI/Middlewares/Third_Party/Huawei/iot_link/network/dtls/mbedtls/mbedtls-2.16.2/library\oid.c ****         "emailAddress",
 196:D:/fchai/work/i-cube/I-CUBE-HUAWEI/Middlewares/Third_Party/Huawei/iot_link/network/dtls/mbedtls/mbedtls-2.16.2/library\oid.c ****     },
 197:D:/fchai/work/i-cube/I-CUBE-HUAWEI/Middlewares/Third_Party/Huawei/iot_link/network/dtls/mbedtls/mbedtls-2.16.2/library\oid.c ****     {
 198:D:/fchai/work/i-cube/I-CUBE-HUAWEI/Middlewares/Third_Party/Huawei/iot_link/network/dtls/mbedtls/mbedtls-2.16.2/library\oid.c ****         { ADD_LEN( MBEDTLS_OID_AT_SERIAL_NUMBER ),"id-at-serialNumber",            "Serial number" 
 199:D:/fchai/work/i-cube/I-CUBE-HUAWEI/Middlewares/Third_Party/Huawei/iot_link/network/dtls/mbedtls/mbedtls-2.16.2/library\oid.c ****         "serialNumber",
 200:D:/fchai/work/i-cube/I-CUBE-HUAWEI/Middlewares/Third_Party/Huawei/iot_link/network/dtls/mbedtls/mbedtls-2.16.2/library\oid.c ****     },
 201:D:/fchai/work/i-cube/I-CUBE-HUAWEI/Middlewares/Third_Party/Huawei/iot_link/network/dtls/mbedtls/mbedtls-2.16.2/library\oid.c ****     {
 202:D:/fchai/work/i-cube/I-CUBE-HUAWEI/Middlewares/Third_Party/Huawei/iot_link/network/dtls/mbedtls/mbedtls-2.16.2/library\oid.c ****         { ADD_LEN( MBEDTLS_OID_AT_POSTAL_ADDRESS ),"id-at-postalAddress",          "Postal address"
 203:D:/fchai/work/i-cube/I-CUBE-HUAWEI/Middlewares/Third_Party/Huawei/iot_link/network/dtls/mbedtls/mbedtls-2.16.2/library\oid.c ****         "postalAddress",
 204:D:/fchai/work/i-cube/I-CUBE-HUAWEI/Middlewares/Third_Party/Huawei/iot_link/network/dtls/mbedtls/mbedtls-2.16.2/library\oid.c ****     },
 205:D:/fchai/work/i-cube/I-CUBE-HUAWEI/Middlewares/Third_Party/Huawei/iot_link/network/dtls/mbedtls/mbedtls-2.16.2/library\oid.c ****     {
 206:D:/fchai/work/i-cube/I-CUBE-HUAWEI/Middlewares/Third_Party/Huawei/iot_link/network/dtls/mbedtls/mbedtls-2.16.2/library\oid.c ****         { ADD_LEN( MBEDTLS_OID_AT_POSTAL_CODE ), "id-at-postalCode",               "Postal code" },
 207:D:/fchai/work/i-cube/I-CUBE-HUAWEI/Middlewares/Third_Party/Huawei/iot_link/network/dtls/mbedtls/mbedtls-2.16.2/library\oid.c ****         "postalCode",
 208:D:/fchai/work/i-cube/I-CUBE-HUAWEI/Middlewares/Third_Party/Huawei/iot_link/network/dtls/mbedtls/mbedtls-2.16.2/library\oid.c ****     },
 209:D:/fchai/work/i-cube/I-CUBE-HUAWEI/Middlewares/Third_Party/Huawei/iot_link/network/dtls/mbedtls/mbedtls-2.16.2/library\oid.c ****     {
 210:D:/fchai/work/i-cube/I-CUBE-HUAWEI/Middlewares/Third_Party/Huawei/iot_link/network/dtls/mbedtls/mbedtls-2.16.2/library\oid.c ****         { ADD_LEN( MBEDTLS_OID_AT_SUR_NAME ),    "id-at-surName",                  "Surname" },
 211:D:/fchai/work/i-cube/I-CUBE-HUAWEI/Middlewares/Third_Party/Huawei/iot_link/network/dtls/mbedtls/mbedtls-2.16.2/library\oid.c ****         "SN",
 212:D:/fchai/work/i-cube/I-CUBE-HUAWEI/Middlewares/Third_Party/Huawei/iot_link/network/dtls/mbedtls/mbedtls-2.16.2/library\oid.c ****     },
 213:D:/fchai/work/i-cube/I-CUBE-HUAWEI/Middlewares/Third_Party/Huawei/iot_link/network/dtls/mbedtls/mbedtls-2.16.2/library\oid.c ****     {
 214:D:/fchai/work/i-cube/I-CUBE-HUAWEI/Middlewares/Third_Party/Huawei/iot_link/network/dtls/mbedtls/mbedtls-2.16.2/library\oid.c ****         { ADD_LEN( MBEDTLS_OID_AT_GIVEN_NAME ),  "id-at-givenName",                "Given name" },
 215:D:/fchai/work/i-cube/I-CUBE-HUAWEI/Middlewares/Third_Party/Huawei/iot_link/network/dtls/mbedtls/mbedtls-2.16.2/library\oid.c ****         "GN",
 216:D:/fchai/work/i-cube/I-CUBE-HUAWEI/Middlewares/Third_Party/Huawei/iot_link/network/dtls/mbedtls/mbedtls-2.16.2/library\oid.c ****     },
 217:D:/fchai/work/i-cube/I-CUBE-HUAWEI/Middlewares/Third_Party/Huawei/iot_link/network/dtls/mbedtls/mbedtls-2.16.2/library\oid.c ****     {
 218:D:/fchai/work/i-cube/I-CUBE-HUAWEI/Middlewares/Third_Party/Huawei/iot_link/network/dtls/mbedtls/mbedtls-2.16.2/library\oid.c ****         { ADD_LEN( MBEDTLS_OID_AT_INITIALS ),    "id-at-initials",                 "Initials" },
 219:D:/fchai/work/i-cube/I-CUBE-HUAWEI/Middlewares/Third_Party/Huawei/iot_link/network/dtls/mbedtls/mbedtls-2.16.2/library\oid.c ****         "initials",
 220:D:/fchai/work/i-cube/I-CUBE-HUAWEI/Middlewares/Third_Party/Huawei/iot_link/network/dtls/mbedtls/mbedtls-2.16.2/library\oid.c ****     },
 221:D:/fchai/work/i-cube/I-CUBE-HUAWEI/Middlewares/Third_Party/Huawei/iot_link/network/dtls/mbedtls/mbedtls-2.16.2/library\oid.c ****     {
 222:D:/fchai/work/i-cube/I-CUBE-HUAWEI/Middlewares/Third_Party/Huawei/iot_link/network/dtls/mbedtls/mbedtls-2.16.2/library\oid.c ****         { ADD_LEN( MBEDTLS_OID_AT_GENERATION_QUALIFIER ), "id-at-generationQualifier", "Generation 
 223:D:/fchai/work/i-cube/I-CUBE-HUAWEI/Middlewares/Third_Party/Huawei/iot_link/network/dtls/mbedtls/mbedtls-2.16.2/library\oid.c ****         "generationQualifier",
 224:D:/fchai/work/i-cube/I-CUBE-HUAWEI/Middlewares/Third_Party/Huawei/iot_link/network/dtls/mbedtls/mbedtls-2.16.2/library\oid.c ****     },
 225:D:/fchai/work/i-cube/I-CUBE-HUAWEI/Middlewares/Third_Party/Huawei/iot_link/network/dtls/mbedtls/mbedtls-2.16.2/library\oid.c ****     {
 226:D:/fchai/work/i-cube/I-CUBE-HUAWEI/Middlewares/Third_Party/Huawei/iot_link/network/dtls/mbedtls/mbedtls-2.16.2/library\oid.c ****         { ADD_LEN( MBEDTLS_OID_AT_TITLE ),       "id-at-title",                    "Title" },
 227:D:/fchai/work/i-cube/I-CUBE-HUAWEI/Middlewares/Third_Party/Huawei/iot_link/network/dtls/mbedtls/mbedtls-2.16.2/library\oid.c ****         "title",
 228:D:/fchai/work/i-cube/I-CUBE-HUAWEI/Middlewares/Third_Party/Huawei/iot_link/network/dtls/mbedtls/mbedtls-2.16.2/library\oid.c ****     },
 229:D:/fchai/work/i-cube/I-CUBE-HUAWEI/Middlewares/Third_Party/Huawei/iot_link/network/dtls/mbedtls/mbedtls-2.16.2/library\oid.c ****     {
 230:D:/fchai/work/i-cube/I-CUBE-HUAWEI/Middlewares/Third_Party/Huawei/iot_link/network/dtls/mbedtls/mbedtls-2.16.2/library\oid.c ****         { ADD_LEN( MBEDTLS_OID_AT_DN_QUALIFIER ),"id-at-dnQualifier",              "Distinguished N
 231:D:/fchai/work/i-cube/I-CUBE-HUAWEI/Middlewares/Third_Party/Huawei/iot_link/network/dtls/mbedtls/mbedtls-2.16.2/library\oid.c ****         "dnQualifier",
 232:D:/fchai/work/i-cube/I-CUBE-HUAWEI/Middlewares/Third_Party/Huawei/iot_link/network/dtls/mbedtls/mbedtls-2.16.2/library\oid.c ****     },
 233:D:/fchai/work/i-cube/I-CUBE-HUAWEI/Middlewares/Third_Party/Huawei/iot_link/network/dtls/mbedtls/mbedtls-2.16.2/library\oid.c ****     {
 234:D:/fchai/work/i-cube/I-CUBE-HUAWEI/Middlewares/Third_Party/Huawei/iot_link/network/dtls/mbedtls/mbedtls-2.16.2/library\oid.c ****         { ADD_LEN( MBEDTLS_OID_AT_PSEUDONYM ),   "id-at-pseudonym",                "Pseudonym" },
 235:D:/fchai/work/i-cube/I-CUBE-HUAWEI/Middlewares/Third_Party/Huawei/iot_link/network/dtls/mbedtls/mbedtls-2.16.2/library\oid.c ****         "pseudonym",
 236:D:/fchai/work/i-cube/I-CUBE-HUAWEI/Middlewares/Third_Party/Huawei/iot_link/network/dtls/mbedtls/mbedtls-2.16.2/library\oid.c ****     },
 237:D:/fchai/work/i-cube/I-CUBE-HUAWEI/Middlewares/Third_Party/Huawei/iot_link/network/dtls/mbedtls/mbedtls-2.16.2/library\oid.c ****     {
 238:D:/fchai/work/i-cube/I-CUBE-HUAWEI/Middlewares/Third_Party/Huawei/iot_link/network/dtls/mbedtls/mbedtls-2.16.2/library\oid.c ****         { ADD_LEN( MBEDTLS_OID_DOMAIN_COMPONENT ), "id-domainComponent",           "Domain componen
 239:D:/fchai/work/i-cube/I-CUBE-HUAWEI/Middlewares/Third_Party/Huawei/iot_link/network/dtls/mbedtls/mbedtls-2.16.2/library\oid.c ****         "DC",
 240:D:/fchai/work/i-cube/I-CUBE-HUAWEI/Middlewares/Third_Party/Huawei/iot_link/network/dtls/mbedtls/mbedtls-2.16.2/library\oid.c ****     },
 241:D:/fchai/work/i-cube/I-CUBE-HUAWEI/Middlewares/Third_Party/Huawei/iot_link/network/dtls/mbedtls/mbedtls-2.16.2/library\oid.c ****     {
 242:D:/fchai/work/i-cube/I-CUBE-HUAWEI/Middlewares/Third_Party/Huawei/iot_link/network/dtls/mbedtls/mbedtls-2.16.2/library\oid.c ****         { ADD_LEN( MBEDTLS_OID_AT_UNIQUE_IDENTIFIER ), "id-at-uniqueIdentifier",    "Unique Identif
 243:D:/fchai/work/i-cube/I-CUBE-HUAWEI/Middlewares/Third_Party/Huawei/iot_link/network/dtls/mbedtls/mbedtls-2.16.2/library\oid.c ****         "uniqueIdentifier",
 244:D:/fchai/work/i-cube/I-CUBE-HUAWEI/Middlewares/Third_Party/Huawei/iot_link/network/dtls/mbedtls/mbedtls-2.16.2/library\oid.c ****     },
 245:D:/fchai/work/i-cube/I-CUBE-HUAWEI/Middlewares/Third_Party/Huawei/iot_link/network/dtls/mbedtls/mbedtls-2.16.2/library\oid.c ****     {
 246:D:/fchai/work/i-cube/I-CUBE-HUAWEI/Middlewares/Third_Party/Huawei/iot_link/network/dtls/mbedtls/mbedtls-2.16.2/library\oid.c ****         { NULL, 0, NULL, NULL },
 247:D:/fchai/work/i-cube/I-CUBE-HUAWEI/Middlewares/Third_Party/Huawei/iot_link/network/dtls/mbedtls/mbedtls-2.16.2/library\oid.c ****         NULL,
 248:D:/fchai/work/i-cube/I-CUBE-HUAWEI/Middlewares/Third_Party/Huawei/iot_link/network/dtls/mbedtls/mbedtls-2.16.2/library\oid.c ****     }
 249:D:/fchai/work/i-cube/I-CUBE-HUAWEI/Middlewares/Third_Party/Huawei/iot_link/network/dtls/mbedtls/mbedtls-2.16.2/library\oid.c **** };
 250:D:/fchai/work/i-cube/I-CUBE-HUAWEI/Middlewares/Third_Party/Huawei/iot_link/network/dtls/mbedtls/mbedtls-2.16.2/library\oid.c **** 
 251:D:/fchai/work/i-cube/I-CUBE-HUAWEI/Middlewares/Third_Party/Huawei/iot_link/network/dtls/mbedtls/mbedtls-2.16.2/library\oid.c **** FN_OID_TYPED_FROM_ASN1(oid_x520_attr_t, x520_attr, oid_x520_attr_type)
ARM GAS  T:\msys\tmp\cclxXSYZ.s 			page 6


 252:D:/fchai/work/i-cube/I-CUBE-HUAWEI/Middlewares/Third_Party/Huawei/iot_link/network/dtls/mbedtls/mbedtls-2.16.2/library\oid.c **** FN_OID_GET_ATTR1(mbedtls_oid_get_attr_short_name, oid_x520_attr_t, x520_attr, const char *, short_n
 253:D:/fchai/work/i-cube/I-CUBE-HUAWEI/Middlewares/Third_Party/Huawei/iot_link/network/dtls/mbedtls/mbedtls-2.16.2/library\oid.c **** 
 254:D:/fchai/work/i-cube/I-CUBE-HUAWEI/Middlewares/Third_Party/Huawei/iot_link/network/dtls/mbedtls/mbedtls-2.16.2/library\oid.c **** /*
 255:D:/fchai/work/i-cube/I-CUBE-HUAWEI/Middlewares/Third_Party/Huawei/iot_link/network/dtls/mbedtls/mbedtls-2.16.2/library\oid.c ****  * For X509 extensions
 256:D:/fchai/work/i-cube/I-CUBE-HUAWEI/Middlewares/Third_Party/Huawei/iot_link/network/dtls/mbedtls/mbedtls-2.16.2/library\oid.c ****  */
 257:D:/fchai/work/i-cube/I-CUBE-HUAWEI/Middlewares/Third_Party/Huawei/iot_link/network/dtls/mbedtls/mbedtls-2.16.2/library\oid.c **** typedef struct {
 258:D:/fchai/work/i-cube/I-CUBE-HUAWEI/Middlewares/Third_Party/Huawei/iot_link/network/dtls/mbedtls/mbedtls-2.16.2/library\oid.c ****     mbedtls_oid_descriptor_t    descriptor;
 259:D:/fchai/work/i-cube/I-CUBE-HUAWEI/Middlewares/Third_Party/Huawei/iot_link/network/dtls/mbedtls/mbedtls-2.16.2/library\oid.c ****     int                 ext_type;
 260:D:/fchai/work/i-cube/I-CUBE-HUAWEI/Middlewares/Third_Party/Huawei/iot_link/network/dtls/mbedtls/mbedtls-2.16.2/library\oid.c **** } oid_x509_ext_t;
 261:D:/fchai/work/i-cube/I-CUBE-HUAWEI/Middlewares/Third_Party/Huawei/iot_link/network/dtls/mbedtls/mbedtls-2.16.2/library\oid.c **** 
 262:D:/fchai/work/i-cube/I-CUBE-HUAWEI/Middlewares/Third_Party/Huawei/iot_link/network/dtls/mbedtls/mbedtls-2.16.2/library\oid.c **** static const oid_x509_ext_t oid_x509_ext[] =
 263:D:/fchai/work/i-cube/I-CUBE-HUAWEI/Middlewares/Third_Party/Huawei/iot_link/network/dtls/mbedtls/mbedtls-2.16.2/library\oid.c **** {
 264:D:/fchai/work/i-cube/I-CUBE-HUAWEI/Middlewares/Third_Party/Huawei/iot_link/network/dtls/mbedtls/mbedtls-2.16.2/library\oid.c ****     {
 265:D:/fchai/work/i-cube/I-CUBE-HUAWEI/Middlewares/Third_Party/Huawei/iot_link/network/dtls/mbedtls/mbedtls-2.16.2/library\oid.c ****         { ADD_LEN( MBEDTLS_OID_BASIC_CONSTRAINTS ),    "id-ce-basicConstraints",   "Basic Constrain
 266:D:/fchai/work/i-cube/I-CUBE-HUAWEI/Middlewares/Third_Party/Huawei/iot_link/network/dtls/mbedtls/mbedtls-2.16.2/library\oid.c ****         MBEDTLS_X509_EXT_BASIC_CONSTRAINTS,
 267:D:/fchai/work/i-cube/I-CUBE-HUAWEI/Middlewares/Third_Party/Huawei/iot_link/network/dtls/mbedtls/mbedtls-2.16.2/library\oid.c ****     },
 268:D:/fchai/work/i-cube/I-CUBE-HUAWEI/Middlewares/Third_Party/Huawei/iot_link/network/dtls/mbedtls/mbedtls-2.16.2/library\oid.c ****     {
 269:D:/fchai/work/i-cube/I-CUBE-HUAWEI/Middlewares/Third_Party/Huawei/iot_link/network/dtls/mbedtls/mbedtls-2.16.2/library\oid.c ****         { ADD_LEN( MBEDTLS_OID_KEY_USAGE ),            "id-ce-keyUsage",           "Key Usage" },
 270:D:/fchai/work/i-cube/I-CUBE-HUAWEI/Middlewares/Third_Party/Huawei/iot_link/network/dtls/mbedtls/mbedtls-2.16.2/library\oid.c ****         MBEDTLS_X509_EXT_KEY_USAGE,
 271:D:/fchai/work/i-cube/I-CUBE-HUAWEI/Middlewares/Third_Party/Huawei/iot_link/network/dtls/mbedtls/mbedtls-2.16.2/library\oid.c ****     },
 272:D:/fchai/work/i-cube/I-CUBE-HUAWEI/Middlewares/Third_Party/Huawei/iot_link/network/dtls/mbedtls/mbedtls-2.16.2/library\oid.c ****     {
 273:D:/fchai/work/i-cube/I-CUBE-HUAWEI/Middlewares/Third_Party/Huawei/iot_link/network/dtls/mbedtls/mbedtls-2.16.2/library\oid.c ****         { ADD_LEN( MBEDTLS_OID_EXTENDED_KEY_USAGE ),   "id-ce-extKeyUsage",        "Extended Key Us
 274:D:/fchai/work/i-cube/I-CUBE-HUAWEI/Middlewares/Third_Party/Huawei/iot_link/network/dtls/mbedtls/mbedtls-2.16.2/library\oid.c ****         MBEDTLS_X509_EXT_EXTENDED_KEY_USAGE,
 275:D:/fchai/work/i-cube/I-CUBE-HUAWEI/Middlewares/Third_Party/Huawei/iot_link/network/dtls/mbedtls/mbedtls-2.16.2/library\oid.c ****     },
 276:D:/fchai/work/i-cube/I-CUBE-HUAWEI/Middlewares/Third_Party/Huawei/iot_link/network/dtls/mbedtls/mbedtls-2.16.2/library\oid.c ****     {
 277:D:/fchai/work/i-cube/I-CUBE-HUAWEI/Middlewares/Third_Party/Huawei/iot_link/network/dtls/mbedtls/mbedtls-2.16.2/library\oid.c ****         { ADD_LEN( MBEDTLS_OID_SUBJECT_ALT_NAME ),     "id-ce-subjectAltName",     "Subject Alt Nam
 278:D:/fchai/work/i-cube/I-CUBE-HUAWEI/Middlewares/Third_Party/Huawei/iot_link/network/dtls/mbedtls/mbedtls-2.16.2/library\oid.c ****         MBEDTLS_X509_EXT_SUBJECT_ALT_NAME,
 279:D:/fchai/work/i-cube/I-CUBE-HUAWEI/Middlewares/Third_Party/Huawei/iot_link/network/dtls/mbedtls/mbedtls-2.16.2/library\oid.c ****     },
 280:D:/fchai/work/i-cube/I-CUBE-HUAWEI/Middlewares/Third_Party/Huawei/iot_link/network/dtls/mbedtls/mbedtls-2.16.2/library\oid.c ****     {
 281:D:/fchai/work/i-cube/I-CUBE-HUAWEI/Middlewares/Third_Party/Huawei/iot_link/network/dtls/mbedtls/mbedtls-2.16.2/library\oid.c ****         { ADD_LEN( MBEDTLS_OID_NS_CERT_TYPE ),         "id-netscape-certtype",     "Netscape Certif
 282:D:/fchai/work/i-cube/I-CUBE-HUAWEI/Middlewares/Third_Party/Huawei/iot_link/network/dtls/mbedtls/mbedtls-2.16.2/library\oid.c ****         MBEDTLS_X509_EXT_NS_CERT_TYPE,
 283:D:/fchai/work/i-cube/I-CUBE-HUAWEI/Middlewares/Third_Party/Huawei/iot_link/network/dtls/mbedtls/mbedtls-2.16.2/library\oid.c ****     },
 284:D:/fchai/work/i-cube/I-CUBE-HUAWEI/Middlewares/Third_Party/Huawei/iot_link/network/dtls/mbedtls/mbedtls-2.16.2/library\oid.c ****     {
 285:D:/fchai/work/i-cube/I-CUBE-HUAWEI/Middlewares/Third_Party/Huawei/iot_link/network/dtls/mbedtls/mbedtls-2.16.2/library\oid.c ****         { NULL, 0, NULL, NULL },
 286:D:/fchai/work/i-cube/I-CUBE-HUAWEI/Middlewares/Third_Party/Huawei/iot_link/network/dtls/mbedtls/mbedtls-2.16.2/library\oid.c ****         0,
 287:D:/fchai/work/i-cube/I-CUBE-HUAWEI/Middlewares/Third_Party/Huawei/iot_link/network/dtls/mbedtls/mbedtls-2.16.2/library\oid.c ****     },
 288:D:/fchai/work/i-cube/I-CUBE-HUAWEI/Middlewares/Third_Party/Huawei/iot_link/network/dtls/mbedtls/mbedtls-2.16.2/library\oid.c **** };
 289:D:/fchai/work/i-cube/I-CUBE-HUAWEI/Middlewares/Third_Party/Huawei/iot_link/network/dtls/mbedtls/mbedtls-2.16.2/library\oid.c **** 
 290:D:/fchai/work/i-cube/I-CUBE-HUAWEI/Middlewares/Third_Party/Huawei/iot_link/network/dtls/mbedtls/mbedtls-2.16.2/library\oid.c **** FN_OID_TYPED_FROM_ASN1(oid_x509_ext_t, x509_ext, oid_x509_ext)
 291:D:/fchai/work/i-cube/I-CUBE-HUAWEI/Middlewares/Third_Party/Huawei/iot_link/network/dtls/mbedtls/mbedtls-2.16.2/library\oid.c **** FN_OID_GET_ATTR1(mbedtls_oid_get_x509_ext_type, oid_x509_ext_t, x509_ext, int, ext_type)
 292:D:/fchai/work/i-cube/I-CUBE-HUAWEI/Middlewares/Third_Party/Huawei/iot_link/network/dtls/mbedtls/mbedtls-2.16.2/library\oid.c **** 
 293:D:/fchai/work/i-cube/I-CUBE-HUAWEI/Middlewares/Third_Party/Huawei/iot_link/network/dtls/mbedtls/mbedtls-2.16.2/library\oid.c **** static const mbedtls_oid_descriptor_t oid_ext_key_usage[] =
 294:D:/fchai/work/i-cube/I-CUBE-HUAWEI/Middlewares/Third_Party/Huawei/iot_link/network/dtls/mbedtls/mbedtls-2.16.2/library\oid.c **** {
 295:D:/fchai/work/i-cube/I-CUBE-HUAWEI/Middlewares/Third_Party/Huawei/iot_link/network/dtls/mbedtls/mbedtls-2.16.2/library\oid.c ****     { ADD_LEN( MBEDTLS_OID_SERVER_AUTH ),      "id-kp-serverAuth",      "TLS Web Server Authenticat
 296:D:/fchai/work/i-cube/I-CUBE-HUAWEI/Middlewares/Third_Party/Huawei/iot_link/network/dtls/mbedtls/mbedtls-2.16.2/library\oid.c ****     { ADD_LEN( MBEDTLS_OID_CLIENT_AUTH ),      "id-kp-clientAuth",      "TLS Web Client Authenticat
 297:D:/fchai/work/i-cube/I-CUBE-HUAWEI/Middlewares/Third_Party/Huawei/iot_link/network/dtls/mbedtls/mbedtls-2.16.2/library\oid.c ****     { ADD_LEN( MBEDTLS_OID_CODE_SIGNING ),     "id-kp-codeSigning",     "Code Signing" },
 298:D:/fchai/work/i-cube/I-CUBE-HUAWEI/Middlewares/Third_Party/Huawei/iot_link/network/dtls/mbedtls/mbedtls-2.16.2/library\oid.c ****     { ADD_LEN( MBEDTLS_OID_EMAIL_PROTECTION ), "id-kp-emailProtection", "E-mail Protection" },
 299:D:/fchai/work/i-cube/I-CUBE-HUAWEI/Middlewares/Third_Party/Huawei/iot_link/network/dtls/mbedtls/mbedtls-2.16.2/library\oid.c ****     { ADD_LEN( MBEDTLS_OID_TIME_STAMPING ),    "id-kp-timeStamping",    "Time Stamping" },
 300:D:/fchai/work/i-cube/I-CUBE-HUAWEI/Middlewares/Third_Party/Huawei/iot_link/network/dtls/mbedtls/mbedtls-2.16.2/library\oid.c ****     { ADD_LEN( MBEDTLS_OID_OCSP_SIGNING ),     "id-kp-OCSPSigning",     "OCSP Signing" },
 301:D:/fchai/work/i-cube/I-CUBE-HUAWEI/Middlewares/Third_Party/Huawei/iot_link/network/dtls/mbedtls/mbedtls-2.16.2/library\oid.c ****     { NULL, 0, NULL, NULL },
 302:D:/fchai/work/i-cube/I-CUBE-HUAWEI/Middlewares/Third_Party/Huawei/iot_link/network/dtls/mbedtls/mbedtls-2.16.2/library\oid.c **** };
 303:D:/fchai/work/i-cube/I-CUBE-HUAWEI/Middlewares/Third_Party/Huawei/iot_link/network/dtls/mbedtls/mbedtls-2.16.2/library\oid.c **** 
 304:D:/fchai/work/i-cube/I-CUBE-HUAWEI/Middlewares/Third_Party/Huawei/iot_link/network/dtls/mbedtls/mbedtls-2.16.2/library\oid.c **** FN_OID_TYPED_FROM_ASN1(mbedtls_oid_descriptor_t, ext_key_usage, oid_ext_key_usage)
 305:D:/fchai/work/i-cube/I-CUBE-HUAWEI/Middlewares/Third_Party/Huawei/iot_link/network/dtls/mbedtls/mbedtls-2.16.2/library\oid.c **** FN_OID_GET_ATTR1(mbedtls_oid_get_extended_key_usage, mbedtls_oid_descriptor_t, ext_key_usage, const
 306:D:/fchai/work/i-cube/I-CUBE-HUAWEI/Middlewares/Third_Party/Huawei/iot_link/network/dtls/mbedtls/mbedtls-2.16.2/library\oid.c **** #endif /* MBEDTLS_X509_USE_C || MBEDTLS_X509_CREATE_C */
 307:D:/fchai/work/i-cube/I-CUBE-HUAWEI/Middlewares/Third_Party/Huawei/iot_link/network/dtls/mbedtls/mbedtls-2.16.2/library\oid.c **** 
 308:D:/fchai/work/i-cube/I-CUBE-HUAWEI/Middlewares/Third_Party/Huawei/iot_link/network/dtls/mbedtls/mbedtls-2.16.2/library\oid.c **** #if defined(MBEDTLS_MD_C)
ARM GAS  T:\msys\tmp\cclxXSYZ.s 			page 7


 309:D:/fchai/work/i-cube/I-CUBE-HUAWEI/Middlewares/Third_Party/Huawei/iot_link/network/dtls/mbedtls/mbedtls-2.16.2/library\oid.c **** /*
 310:D:/fchai/work/i-cube/I-CUBE-HUAWEI/Middlewares/Third_Party/Huawei/iot_link/network/dtls/mbedtls/mbedtls-2.16.2/library\oid.c ****  * For SignatureAlgorithmIdentifier
 311:D:/fchai/work/i-cube/I-CUBE-HUAWEI/Middlewares/Third_Party/Huawei/iot_link/network/dtls/mbedtls/mbedtls-2.16.2/library\oid.c ****  */
 312:D:/fchai/work/i-cube/I-CUBE-HUAWEI/Middlewares/Third_Party/Huawei/iot_link/network/dtls/mbedtls/mbedtls-2.16.2/library\oid.c **** typedef struct {
 313:D:/fchai/work/i-cube/I-CUBE-HUAWEI/Middlewares/Third_Party/Huawei/iot_link/network/dtls/mbedtls/mbedtls-2.16.2/library\oid.c ****     mbedtls_oid_descriptor_t    descriptor;
 314:D:/fchai/work/i-cube/I-CUBE-HUAWEI/Middlewares/Third_Party/Huawei/iot_link/network/dtls/mbedtls/mbedtls-2.16.2/library\oid.c ****     mbedtls_md_type_t           md_alg;
 315:D:/fchai/work/i-cube/I-CUBE-HUAWEI/Middlewares/Third_Party/Huawei/iot_link/network/dtls/mbedtls/mbedtls-2.16.2/library\oid.c ****     mbedtls_pk_type_t           pk_alg;
 316:D:/fchai/work/i-cube/I-CUBE-HUAWEI/Middlewares/Third_Party/Huawei/iot_link/network/dtls/mbedtls/mbedtls-2.16.2/library\oid.c **** } oid_sig_alg_t;
 317:D:/fchai/work/i-cube/I-CUBE-HUAWEI/Middlewares/Third_Party/Huawei/iot_link/network/dtls/mbedtls/mbedtls-2.16.2/library\oid.c **** 
 318:D:/fchai/work/i-cube/I-CUBE-HUAWEI/Middlewares/Third_Party/Huawei/iot_link/network/dtls/mbedtls/mbedtls-2.16.2/library\oid.c **** static const oid_sig_alg_t oid_sig_alg[] =
 319:D:/fchai/work/i-cube/I-CUBE-HUAWEI/Middlewares/Third_Party/Huawei/iot_link/network/dtls/mbedtls/mbedtls-2.16.2/library\oid.c **** {
 320:D:/fchai/work/i-cube/I-CUBE-HUAWEI/Middlewares/Third_Party/Huawei/iot_link/network/dtls/mbedtls/mbedtls-2.16.2/library\oid.c **** #if defined(MBEDTLS_RSA_C)
 321:D:/fchai/work/i-cube/I-CUBE-HUAWEI/Middlewares/Third_Party/Huawei/iot_link/network/dtls/mbedtls/mbedtls-2.16.2/library\oid.c **** #if defined(MBEDTLS_MD2_C)
 322:D:/fchai/work/i-cube/I-CUBE-HUAWEI/Middlewares/Third_Party/Huawei/iot_link/network/dtls/mbedtls/mbedtls-2.16.2/library\oid.c ****     {
 323:D:/fchai/work/i-cube/I-CUBE-HUAWEI/Middlewares/Third_Party/Huawei/iot_link/network/dtls/mbedtls/mbedtls-2.16.2/library\oid.c ****         { ADD_LEN( MBEDTLS_OID_PKCS1_MD2 ),        "md2WithRSAEncryption",     "RSA with MD2" },
 324:D:/fchai/work/i-cube/I-CUBE-HUAWEI/Middlewares/Third_Party/Huawei/iot_link/network/dtls/mbedtls/mbedtls-2.16.2/library\oid.c ****         MBEDTLS_MD_MD2,      MBEDTLS_PK_RSA,
 325:D:/fchai/work/i-cube/I-CUBE-HUAWEI/Middlewares/Third_Party/Huawei/iot_link/network/dtls/mbedtls/mbedtls-2.16.2/library\oid.c ****     },
 326:D:/fchai/work/i-cube/I-CUBE-HUAWEI/Middlewares/Third_Party/Huawei/iot_link/network/dtls/mbedtls/mbedtls-2.16.2/library\oid.c **** #endif /* MBEDTLS_MD2_C */
 327:D:/fchai/work/i-cube/I-CUBE-HUAWEI/Middlewares/Third_Party/Huawei/iot_link/network/dtls/mbedtls/mbedtls-2.16.2/library\oid.c **** #if defined(MBEDTLS_MD4_C)
 328:D:/fchai/work/i-cube/I-CUBE-HUAWEI/Middlewares/Third_Party/Huawei/iot_link/network/dtls/mbedtls/mbedtls-2.16.2/library\oid.c ****     {
 329:D:/fchai/work/i-cube/I-CUBE-HUAWEI/Middlewares/Third_Party/Huawei/iot_link/network/dtls/mbedtls/mbedtls-2.16.2/library\oid.c ****         { ADD_LEN( MBEDTLS_OID_PKCS1_MD4 ),        "md4WithRSAEncryption",     "RSA with MD4" },
 330:D:/fchai/work/i-cube/I-CUBE-HUAWEI/Middlewares/Third_Party/Huawei/iot_link/network/dtls/mbedtls/mbedtls-2.16.2/library\oid.c ****         MBEDTLS_MD_MD4,      MBEDTLS_PK_RSA,
 331:D:/fchai/work/i-cube/I-CUBE-HUAWEI/Middlewares/Third_Party/Huawei/iot_link/network/dtls/mbedtls/mbedtls-2.16.2/library\oid.c ****     },
 332:D:/fchai/work/i-cube/I-CUBE-HUAWEI/Middlewares/Third_Party/Huawei/iot_link/network/dtls/mbedtls/mbedtls-2.16.2/library\oid.c **** #endif /* MBEDTLS_MD4_C */
 333:D:/fchai/work/i-cube/I-CUBE-HUAWEI/Middlewares/Third_Party/Huawei/iot_link/network/dtls/mbedtls/mbedtls-2.16.2/library\oid.c **** #if defined(MBEDTLS_MD5_C)
 334:D:/fchai/work/i-cube/I-CUBE-HUAWEI/Middlewares/Third_Party/Huawei/iot_link/network/dtls/mbedtls/mbedtls-2.16.2/library\oid.c ****     {
 335:D:/fchai/work/i-cube/I-CUBE-HUAWEI/Middlewares/Third_Party/Huawei/iot_link/network/dtls/mbedtls/mbedtls-2.16.2/library\oid.c ****         { ADD_LEN( MBEDTLS_OID_PKCS1_MD5 ),        "md5WithRSAEncryption",     "RSA with MD5" },
 336:D:/fchai/work/i-cube/I-CUBE-HUAWEI/Middlewares/Third_Party/Huawei/iot_link/network/dtls/mbedtls/mbedtls-2.16.2/library\oid.c ****         MBEDTLS_MD_MD5,      MBEDTLS_PK_RSA,
 337:D:/fchai/work/i-cube/I-CUBE-HUAWEI/Middlewares/Third_Party/Huawei/iot_link/network/dtls/mbedtls/mbedtls-2.16.2/library\oid.c ****     },
 338:D:/fchai/work/i-cube/I-CUBE-HUAWEI/Middlewares/Third_Party/Huawei/iot_link/network/dtls/mbedtls/mbedtls-2.16.2/library\oid.c **** #endif /* MBEDTLS_MD5_C */
 339:D:/fchai/work/i-cube/I-CUBE-HUAWEI/Middlewares/Third_Party/Huawei/iot_link/network/dtls/mbedtls/mbedtls-2.16.2/library\oid.c **** #if defined(MBEDTLS_SHA1_C)
 340:D:/fchai/work/i-cube/I-CUBE-HUAWEI/Middlewares/Third_Party/Huawei/iot_link/network/dtls/mbedtls/mbedtls-2.16.2/library\oid.c ****     {
 341:D:/fchai/work/i-cube/I-CUBE-HUAWEI/Middlewares/Third_Party/Huawei/iot_link/network/dtls/mbedtls/mbedtls-2.16.2/library\oid.c ****         { ADD_LEN( MBEDTLS_OID_PKCS1_SHA1 ),       "sha-1WithRSAEncryption",   "RSA with SHA1" },
 342:D:/fchai/work/i-cube/I-CUBE-HUAWEI/Middlewares/Third_Party/Huawei/iot_link/network/dtls/mbedtls/mbedtls-2.16.2/library\oid.c ****         MBEDTLS_MD_SHA1,     MBEDTLS_PK_RSA,
 343:D:/fchai/work/i-cube/I-CUBE-HUAWEI/Middlewares/Third_Party/Huawei/iot_link/network/dtls/mbedtls/mbedtls-2.16.2/library\oid.c ****     },
 344:D:/fchai/work/i-cube/I-CUBE-HUAWEI/Middlewares/Third_Party/Huawei/iot_link/network/dtls/mbedtls/mbedtls-2.16.2/library\oid.c **** #endif /* MBEDTLS_SHA1_C */
 345:D:/fchai/work/i-cube/I-CUBE-HUAWEI/Middlewares/Third_Party/Huawei/iot_link/network/dtls/mbedtls/mbedtls-2.16.2/library\oid.c **** #if defined(MBEDTLS_SHA256_C)
 346:D:/fchai/work/i-cube/I-CUBE-HUAWEI/Middlewares/Third_Party/Huawei/iot_link/network/dtls/mbedtls/mbedtls-2.16.2/library\oid.c ****     {
 347:D:/fchai/work/i-cube/I-CUBE-HUAWEI/Middlewares/Third_Party/Huawei/iot_link/network/dtls/mbedtls/mbedtls-2.16.2/library\oid.c ****         { ADD_LEN( MBEDTLS_OID_PKCS1_SHA224 ),     "sha224WithRSAEncryption",  "RSA with SHA-224" }
 348:D:/fchai/work/i-cube/I-CUBE-HUAWEI/Middlewares/Third_Party/Huawei/iot_link/network/dtls/mbedtls/mbedtls-2.16.2/library\oid.c ****         MBEDTLS_MD_SHA224,   MBEDTLS_PK_RSA,
 349:D:/fchai/work/i-cube/I-CUBE-HUAWEI/Middlewares/Third_Party/Huawei/iot_link/network/dtls/mbedtls/mbedtls-2.16.2/library\oid.c ****     },
 350:D:/fchai/work/i-cube/I-CUBE-HUAWEI/Middlewares/Third_Party/Huawei/iot_link/network/dtls/mbedtls/mbedtls-2.16.2/library\oid.c ****     {
 351:D:/fchai/work/i-cube/I-CUBE-HUAWEI/Middlewares/Third_Party/Huawei/iot_link/network/dtls/mbedtls/mbedtls-2.16.2/library\oid.c ****         { ADD_LEN( MBEDTLS_OID_PKCS1_SHA256 ),     "sha256WithRSAEncryption",  "RSA with SHA-256" }
 352:D:/fchai/work/i-cube/I-CUBE-HUAWEI/Middlewares/Third_Party/Huawei/iot_link/network/dtls/mbedtls/mbedtls-2.16.2/library\oid.c ****         MBEDTLS_MD_SHA256,   MBEDTLS_PK_RSA,
 353:D:/fchai/work/i-cube/I-CUBE-HUAWEI/Middlewares/Third_Party/Huawei/iot_link/network/dtls/mbedtls/mbedtls-2.16.2/library\oid.c ****     },
 354:D:/fchai/work/i-cube/I-CUBE-HUAWEI/Middlewares/Third_Party/Huawei/iot_link/network/dtls/mbedtls/mbedtls-2.16.2/library\oid.c **** #endif /* MBEDTLS_SHA256_C */
 355:D:/fchai/work/i-cube/I-CUBE-HUAWEI/Middlewares/Third_Party/Huawei/iot_link/network/dtls/mbedtls/mbedtls-2.16.2/library\oid.c **** #if defined(MBEDTLS_SHA512_C)
 356:D:/fchai/work/i-cube/I-CUBE-HUAWEI/Middlewares/Third_Party/Huawei/iot_link/network/dtls/mbedtls/mbedtls-2.16.2/library\oid.c ****     {
 357:D:/fchai/work/i-cube/I-CUBE-HUAWEI/Middlewares/Third_Party/Huawei/iot_link/network/dtls/mbedtls/mbedtls-2.16.2/library\oid.c ****         { ADD_LEN( MBEDTLS_OID_PKCS1_SHA384 ),     "sha384WithRSAEncryption",  "RSA with SHA-384" }
 358:D:/fchai/work/i-cube/I-CUBE-HUAWEI/Middlewares/Third_Party/Huawei/iot_link/network/dtls/mbedtls/mbedtls-2.16.2/library\oid.c ****         MBEDTLS_MD_SHA384,   MBEDTLS_PK_RSA,
 359:D:/fchai/work/i-cube/I-CUBE-HUAWEI/Middlewares/Third_Party/Huawei/iot_link/network/dtls/mbedtls/mbedtls-2.16.2/library\oid.c ****     },
 360:D:/fchai/work/i-cube/I-CUBE-HUAWEI/Middlewares/Third_Party/Huawei/iot_link/network/dtls/mbedtls/mbedtls-2.16.2/library\oid.c ****     {
 361:D:/fchai/work/i-cube/I-CUBE-HUAWEI/Middlewares/Third_Party/Huawei/iot_link/network/dtls/mbedtls/mbedtls-2.16.2/library\oid.c ****         { ADD_LEN( MBEDTLS_OID_PKCS1_SHA512 ),     "sha512WithRSAEncryption",  "RSA with SHA-512" }
 362:D:/fchai/work/i-cube/I-CUBE-HUAWEI/Middlewares/Third_Party/Huawei/iot_link/network/dtls/mbedtls/mbedtls-2.16.2/library\oid.c ****         MBEDTLS_MD_SHA512,   MBEDTLS_PK_RSA,
 363:D:/fchai/work/i-cube/I-CUBE-HUAWEI/Middlewares/Third_Party/Huawei/iot_link/network/dtls/mbedtls/mbedtls-2.16.2/library\oid.c ****     },
 364:D:/fchai/work/i-cube/I-CUBE-HUAWEI/Middlewares/Third_Party/Huawei/iot_link/network/dtls/mbedtls/mbedtls-2.16.2/library\oid.c **** #endif /* MBEDTLS_SHA512_C */
 365:D:/fchai/work/i-cube/I-CUBE-HUAWEI/Middlewares/Third_Party/Huawei/iot_link/network/dtls/mbedtls/mbedtls-2.16.2/library\oid.c **** #if defined(MBEDTLS_SHA1_C)
ARM GAS  T:\msys\tmp\cclxXSYZ.s 			page 8


 366:D:/fchai/work/i-cube/I-CUBE-HUAWEI/Middlewares/Third_Party/Huawei/iot_link/network/dtls/mbedtls/mbedtls-2.16.2/library\oid.c ****     {
 367:D:/fchai/work/i-cube/I-CUBE-HUAWEI/Middlewares/Third_Party/Huawei/iot_link/network/dtls/mbedtls/mbedtls-2.16.2/library\oid.c ****         { ADD_LEN( MBEDTLS_OID_RSA_SHA_OBS ),      "sha-1WithRSAEncryption",   "RSA with SHA1" },
 368:D:/fchai/work/i-cube/I-CUBE-HUAWEI/Middlewares/Third_Party/Huawei/iot_link/network/dtls/mbedtls/mbedtls-2.16.2/library\oid.c ****         MBEDTLS_MD_SHA1,     MBEDTLS_PK_RSA,
 369:D:/fchai/work/i-cube/I-CUBE-HUAWEI/Middlewares/Third_Party/Huawei/iot_link/network/dtls/mbedtls/mbedtls-2.16.2/library\oid.c ****     },
 370:D:/fchai/work/i-cube/I-CUBE-HUAWEI/Middlewares/Third_Party/Huawei/iot_link/network/dtls/mbedtls/mbedtls-2.16.2/library\oid.c **** #endif /* MBEDTLS_SHA1_C */
 371:D:/fchai/work/i-cube/I-CUBE-HUAWEI/Middlewares/Third_Party/Huawei/iot_link/network/dtls/mbedtls/mbedtls-2.16.2/library\oid.c **** #endif /* MBEDTLS_RSA_C */
 372:D:/fchai/work/i-cube/I-CUBE-HUAWEI/Middlewares/Third_Party/Huawei/iot_link/network/dtls/mbedtls/mbedtls-2.16.2/library\oid.c **** #if defined(MBEDTLS_ECDSA_C)
 373:D:/fchai/work/i-cube/I-CUBE-HUAWEI/Middlewares/Third_Party/Huawei/iot_link/network/dtls/mbedtls/mbedtls-2.16.2/library\oid.c **** #if defined(MBEDTLS_SHA1_C)
 374:D:/fchai/work/i-cube/I-CUBE-HUAWEI/Middlewares/Third_Party/Huawei/iot_link/network/dtls/mbedtls/mbedtls-2.16.2/library\oid.c ****     {
 375:D:/fchai/work/i-cube/I-CUBE-HUAWEI/Middlewares/Third_Party/Huawei/iot_link/network/dtls/mbedtls/mbedtls-2.16.2/library\oid.c ****         { ADD_LEN( MBEDTLS_OID_ECDSA_SHA1 ),       "ecdsa-with-SHA1",      "ECDSA with SHA1" },
 376:D:/fchai/work/i-cube/I-CUBE-HUAWEI/Middlewares/Third_Party/Huawei/iot_link/network/dtls/mbedtls/mbedtls-2.16.2/library\oid.c ****         MBEDTLS_MD_SHA1,     MBEDTLS_PK_ECDSA,
 377:D:/fchai/work/i-cube/I-CUBE-HUAWEI/Middlewares/Third_Party/Huawei/iot_link/network/dtls/mbedtls/mbedtls-2.16.2/library\oid.c ****     },
 378:D:/fchai/work/i-cube/I-CUBE-HUAWEI/Middlewares/Third_Party/Huawei/iot_link/network/dtls/mbedtls/mbedtls-2.16.2/library\oid.c **** #endif /* MBEDTLS_SHA1_C */
 379:D:/fchai/work/i-cube/I-CUBE-HUAWEI/Middlewares/Third_Party/Huawei/iot_link/network/dtls/mbedtls/mbedtls-2.16.2/library\oid.c **** #if defined(MBEDTLS_SHA256_C)
 380:D:/fchai/work/i-cube/I-CUBE-HUAWEI/Middlewares/Third_Party/Huawei/iot_link/network/dtls/mbedtls/mbedtls-2.16.2/library\oid.c ****     {
 381:D:/fchai/work/i-cube/I-CUBE-HUAWEI/Middlewares/Third_Party/Huawei/iot_link/network/dtls/mbedtls/mbedtls-2.16.2/library\oid.c ****         { ADD_LEN( MBEDTLS_OID_ECDSA_SHA224 ),     "ecdsa-with-SHA224",    "ECDSA with SHA224" },
 382:D:/fchai/work/i-cube/I-CUBE-HUAWEI/Middlewares/Third_Party/Huawei/iot_link/network/dtls/mbedtls/mbedtls-2.16.2/library\oid.c ****         MBEDTLS_MD_SHA224,   MBEDTLS_PK_ECDSA,
 383:D:/fchai/work/i-cube/I-CUBE-HUAWEI/Middlewares/Third_Party/Huawei/iot_link/network/dtls/mbedtls/mbedtls-2.16.2/library\oid.c ****     },
 384:D:/fchai/work/i-cube/I-CUBE-HUAWEI/Middlewares/Third_Party/Huawei/iot_link/network/dtls/mbedtls/mbedtls-2.16.2/library\oid.c ****     {
 385:D:/fchai/work/i-cube/I-CUBE-HUAWEI/Middlewares/Third_Party/Huawei/iot_link/network/dtls/mbedtls/mbedtls-2.16.2/library\oid.c ****         { ADD_LEN( MBEDTLS_OID_ECDSA_SHA256 ),     "ecdsa-with-SHA256",    "ECDSA with SHA256" },
 386:D:/fchai/work/i-cube/I-CUBE-HUAWEI/Middlewares/Third_Party/Huawei/iot_link/network/dtls/mbedtls/mbedtls-2.16.2/library\oid.c ****         MBEDTLS_MD_SHA256,   MBEDTLS_PK_ECDSA,
 387:D:/fchai/work/i-cube/I-CUBE-HUAWEI/Middlewares/Third_Party/Huawei/iot_link/network/dtls/mbedtls/mbedtls-2.16.2/library\oid.c ****     },
 388:D:/fchai/work/i-cube/I-CUBE-HUAWEI/Middlewares/Third_Party/Huawei/iot_link/network/dtls/mbedtls/mbedtls-2.16.2/library\oid.c **** #endif /* MBEDTLS_SHA256_C */
 389:D:/fchai/work/i-cube/I-CUBE-HUAWEI/Middlewares/Third_Party/Huawei/iot_link/network/dtls/mbedtls/mbedtls-2.16.2/library\oid.c **** #if defined(MBEDTLS_SHA512_C)
 390:D:/fchai/work/i-cube/I-CUBE-HUAWEI/Middlewares/Third_Party/Huawei/iot_link/network/dtls/mbedtls/mbedtls-2.16.2/library\oid.c ****     {
 391:D:/fchai/work/i-cube/I-CUBE-HUAWEI/Middlewares/Third_Party/Huawei/iot_link/network/dtls/mbedtls/mbedtls-2.16.2/library\oid.c ****         { ADD_LEN( MBEDTLS_OID_ECDSA_SHA384 ),     "ecdsa-with-SHA384",    "ECDSA with SHA384" },
 392:D:/fchai/work/i-cube/I-CUBE-HUAWEI/Middlewares/Third_Party/Huawei/iot_link/network/dtls/mbedtls/mbedtls-2.16.2/library\oid.c ****         MBEDTLS_MD_SHA384,   MBEDTLS_PK_ECDSA,
 393:D:/fchai/work/i-cube/I-CUBE-HUAWEI/Middlewares/Third_Party/Huawei/iot_link/network/dtls/mbedtls/mbedtls-2.16.2/library\oid.c ****     },
 394:D:/fchai/work/i-cube/I-CUBE-HUAWEI/Middlewares/Third_Party/Huawei/iot_link/network/dtls/mbedtls/mbedtls-2.16.2/library\oid.c ****     {
 395:D:/fchai/work/i-cube/I-CUBE-HUAWEI/Middlewares/Third_Party/Huawei/iot_link/network/dtls/mbedtls/mbedtls-2.16.2/library\oid.c ****         { ADD_LEN( MBEDTLS_OID_ECDSA_SHA512 ),     "ecdsa-with-SHA512",    "ECDSA with SHA512" },
 396:D:/fchai/work/i-cube/I-CUBE-HUAWEI/Middlewares/Third_Party/Huawei/iot_link/network/dtls/mbedtls/mbedtls-2.16.2/library\oid.c ****         MBEDTLS_MD_SHA512,   MBEDTLS_PK_ECDSA,
 397:D:/fchai/work/i-cube/I-CUBE-HUAWEI/Middlewares/Third_Party/Huawei/iot_link/network/dtls/mbedtls/mbedtls-2.16.2/library\oid.c ****     },
 398:D:/fchai/work/i-cube/I-CUBE-HUAWEI/Middlewares/Third_Party/Huawei/iot_link/network/dtls/mbedtls/mbedtls-2.16.2/library\oid.c **** #endif /* MBEDTLS_SHA512_C */
 399:D:/fchai/work/i-cube/I-CUBE-HUAWEI/Middlewares/Third_Party/Huawei/iot_link/network/dtls/mbedtls/mbedtls-2.16.2/library\oid.c **** #endif /* MBEDTLS_ECDSA_C */
 400:D:/fchai/work/i-cube/I-CUBE-HUAWEI/Middlewares/Third_Party/Huawei/iot_link/network/dtls/mbedtls/mbedtls-2.16.2/library\oid.c **** #if defined(MBEDTLS_RSA_C)
 401:D:/fchai/work/i-cube/I-CUBE-HUAWEI/Middlewares/Third_Party/Huawei/iot_link/network/dtls/mbedtls/mbedtls-2.16.2/library\oid.c ****     {
 402:D:/fchai/work/i-cube/I-CUBE-HUAWEI/Middlewares/Third_Party/Huawei/iot_link/network/dtls/mbedtls/mbedtls-2.16.2/library\oid.c ****         { ADD_LEN( MBEDTLS_OID_RSASSA_PSS ),        "RSASSA-PSS",           "RSASSA-PSS" },
 403:D:/fchai/work/i-cube/I-CUBE-HUAWEI/Middlewares/Third_Party/Huawei/iot_link/network/dtls/mbedtls/mbedtls-2.16.2/library\oid.c ****         MBEDTLS_MD_NONE,     MBEDTLS_PK_RSASSA_PSS,
 404:D:/fchai/work/i-cube/I-CUBE-HUAWEI/Middlewares/Third_Party/Huawei/iot_link/network/dtls/mbedtls/mbedtls-2.16.2/library\oid.c ****     },
 405:D:/fchai/work/i-cube/I-CUBE-HUAWEI/Middlewares/Third_Party/Huawei/iot_link/network/dtls/mbedtls/mbedtls-2.16.2/library\oid.c **** #endif /* MBEDTLS_RSA_C */
 406:D:/fchai/work/i-cube/I-CUBE-HUAWEI/Middlewares/Third_Party/Huawei/iot_link/network/dtls/mbedtls/mbedtls-2.16.2/library\oid.c ****     {
 407:D:/fchai/work/i-cube/I-CUBE-HUAWEI/Middlewares/Third_Party/Huawei/iot_link/network/dtls/mbedtls/mbedtls-2.16.2/library\oid.c ****         { NULL, 0, NULL, NULL },
 408:D:/fchai/work/i-cube/I-CUBE-HUAWEI/Middlewares/Third_Party/Huawei/iot_link/network/dtls/mbedtls/mbedtls-2.16.2/library\oid.c ****         MBEDTLS_MD_NONE, MBEDTLS_PK_NONE,
 409:D:/fchai/work/i-cube/I-CUBE-HUAWEI/Middlewares/Third_Party/Huawei/iot_link/network/dtls/mbedtls/mbedtls-2.16.2/library\oid.c ****     },
 410:D:/fchai/work/i-cube/I-CUBE-HUAWEI/Middlewares/Third_Party/Huawei/iot_link/network/dtls/mbedtls/mbedtls-2.16.2/library\oid.c **** };
 411:D:/fchai/work/i-cube/I-CUBE-HUAWEI/Middlewares/Third_Party/Huawei/iot_link/network/dtls/mbedtls/mbedtls-2.16.2/library\oid.c **** 
 412:D:/fchai/work/i-cube/I-CUBE-HUAWEI/Middlewares/Third_Party/Huawei/iot_link/network/dtls/mbedtls/mbedtls-2.16.2/library\oid.c **** FN_OID_TYPED_FROM_ASN1(oid_sig_alg_t, sig_alg, oid_sig_alg)
  34              		.loc 1 412 1 view -0
  35              		.cfi_startproc
  36              		@ args = 0, pretend = 0, frame = 0
  37              		@ frame_needed = 0, uses_anonymous_args = 0
  38              		.loc 1 412 1 view .LVU1
  39 0000 70B5     		push	{r4, r5, r6, lr}
  40              	.LCFI0:
  41              		.cfi_def_cfa_offset 16
  42              		.cfi_offset 4, -16
  43              		.cfi_offset 5, -12
ARM GAS  T:\msys\tmp\cclxXSYZ.s 			page 9


  44              		.cfi_offset 6, -8
  45              		.cfi_offset 14, -4
  46              		.loc 1 412 1 is_stmt 0 view .LVU2
  47 0002 0923     		movs	r3, #9
  48 0004 4568     		ldr	r5, [r0, #4]
  49 0006 094C     		ldr	r4, .L11
  50 0008 0646     		mov	r6, r0
  51 000a 0948     		ldr	r0, .L11+4
  52              	.LVL1:
  53              		.loc 1 412 1 view .LVU3
  54 000c 03E0     		b	.L4
  55              	.LVL2:
  56              	.L2:
  57              		.loc 1 412 1 is_stmt 1 view .LVU4
  58              		.loc 1 412 1 view .LVU5
  59              		.loc 1 412 1 view .LVU6
  60 000e 54F8140F 		ldr	r0, [r4, #20]!
  61              	.LVL3:
  62              		.loc 1 412 1 is_stmt 0 view .LVU7
  63 0012 48B1     		cbz	r0, .L1
  64 0014 6368     		ldr	r3, [r4, #4]
  65              	.LVL4:
  66              	.L4:
  67              		.loc 1 412 1 is_stmt 1 view .LVU8
  68 0016 9D42     		cmp	r5, r3
  69 0018 F9D1     		bne	.L2
  70 001a B168     		ldr	r1, [r6, #8]
  71 001c 2A46     		mov	r2, r5
  72 001e FFF7FEFF 		bl	memcmp
  73              	.LVL5:
  74 0022 0028     		cmp	r0, #0
  75 0024 F3D1     		bne	.L2
  76 0026 2046     		mov	r0, r4
  77              	.LVL6:
  78              	.L1:
  79              		.loc 1 412 1 is_stmt 0 view .LVU9
  80 0028 70BD     		pop	{r4, r5, r6, pc}
  81              	.LVL7:
  82              	.L12:
  83              		.loc 1 412 1 view .LVU10
  84 002a 00BF     		.align	2
  85              	.L11:
  86 002c 00000000 		.word	.LANCHOR0
  87 0030 00000000 		.word	.LC0
  88              		.cfi_endproc
  89              	.LFE39:
  91              		.section	.rodata.mbedtls_oid_get_attr_short_name.str1.4,"aMS",%progbits,1
  92              		.align	2
  93              	.LC1:
  94 0000 55040300 		.ascii	"U\004\003\000"
  95              		.section	.text.mbedtls_oid_get_attr_short_name,"ax",%progbits
  96              		.align	1
  97              		.p2align 2,,3
  98              		.global	mbedtls_oid_get_attr_short_name
  99              		.syntax unified
 100              		.thumb
 101              		.thumb_func
ARM GAS  T:\msys\tmp\cclxXSYZ.s 			page 10


 102              		.fpu fpv4-sp-d16
 104              	mbedtls_oid_get_attr_short_name:
 105              	.LVL8:
 106              	.LFB14:
 252:D:/fchai/work/i-cube/I-CUBE-HUAWEI/Middlewares/Third_Party/Huawei/iot_link/network/dtls/mbedtls/mbedtls-2.16.2/library\oid.c **** 
 107              		.loc 1 252 1 is_stmt 1 view -0
 108              		.cfi_startproc
 109              		@ args = 0, pretend = 0, frame = 0
 110              		@ frame_needed = 0, uses_anonymous_args = 0
 252:D:/fchai/work/i-cube/I-CUBE-HUAWEI/Middlewares/Third_Party/Huawei/iot_link/network/dtls/mbedtls/mbedtls-2.16.2/library\oid.c **** 
 111              		.loc 1 252 1 view .LVU12
 112              	.LBB8:
 113              	.LBI8:
 251:D:/fchai/work/i-cube/I-CUBE-HUAWEI/Middlewares/Third_Party/Huawei/iot_link/network/dtls/mbedtls/mbedtls-2.16.2/library\oid.c **** FN_OID_GET_ATTR1(mbedtls_oid_get_attr_short_name, oid_x520_attr_t, x520_attr, const char *, short_n
 114              		.loc 1 251 1 view .LVU13
 115              	.LBB9:
 251:D:/fchai/work/i-cube/I-CUBE-HUAWEI/Middlewares/Third_Party/Huawei/iot_link/network/dtls/mbedtls/mbedtls-2.16.2/library\oid.c **** FN_OID_GET_ATTR1(mbedtls_oid_get_attr_short_name, oid_x520_attr_t, x520_attr, const char *, short_n
 116              		.loc 1 251 1 view .LVU14
 251:D:/fchai/work/i-cube/I-CUBE-HUAWEI/Middlewares/Third_Party/Huawei/iot_link/network/dtls/mbedtls/mbedtls-2.16.2/library\oid.c **** FN_OID_GET_ATTR1(mbedtls_oid_get_attr_short_name, oid_x520_attr_t, x520_attr, const char *, short_n
 117              		.loc 1 251 1 view .LVU15
 251:D:/fchai/work/i-cube/I-CUBE-HUAWEI/Middlewares/Third_Party/Huawei/iot_link/network/dtls/mbedtls/mbedtls-2.16.2/library\oid.c **** FN_OID_GET_ATTR1(mbedtls_oid_get_attr_short_name, oid_x520_attr_t, x520_attr, const char *, short_n
 118              		.loc 1 251 1 view .LVU16
 119 0000 C8B1     		cbz	r0, .L18
 120              	.LBE9:
 121              	.LBE8:
 252:D:/fchai/work/i-cube/I-CUBE-HUAWEI/Middlewares/Third_Party/Huawei/iot_link/network/dtls/mbedtls/mbedtls-2.16.2/library\oid.c **** 
 122              		.loc 1 252 1 is_stmt 0 view .LVU17
 123 0002 F8B5     		push	{r3, r4, r5, r6, r7, lr}
 124              	.LCFI1:
 125              		.cfi_def_cfa_offset 24
 126              		.cfi_offset 3, -24
 127              		.cfi_offset 4, -20
 128              		.cfi_offset 5, -16
 129              		.cfi_offset 6, -12
 130              		.cfi_offset 7, -8
 131              		.cfi_offset 14, -4
 132              	.LBB11:
 133              	.LBB10:
 251:D:/fchai/work/i-cube/I-CUBE-HUAWEI/Middlewares/Third_Party/Huawei/iot_link/network/dtls/mbedtls/mbedtls-2.16.2/library\oid.c **** FN_OID_GET_ATTR1(mbedtls_oid_get_attr_short_name, oid_x520_attr_t, x520_attr, const char *, short_n
 134              		.loc 1 251 1 view .LVU18
 135 0004 4768     		ldr	r7, [r0, #4]
 136 0006 0D4D     		ldr	r5, .L24
 137 0008 0446     		mov	r4, r0
 138 000a 0E46     		mov	r6, r1
 139 000c 0C48     		ldr	r0, .L24+4
 140              	.LVL9:
 251:D:/fchai/work/i-cube/I-CUBE-HUAWEI/Middlewares/Third_Party/Huawei/iot_link/network/dtls/mbedtls/mbedtls-2.16.2/library\oid.c **** FN_OID_GET_ATTR1(mbedtls_oid_get_attr_short_name, oid_x520_attr_t, x520_attr, const char *, short_n
 141              		.loc 1 251 1 view .LVU19
 142 000e 0323     		movs	r3, #3
 143 0010 03E0     		b	.L17
 144              	.LVL10:
 145              	.L15:
 251:D:/fchai/work/i-cube/I-CUBE-HUAWEI/Middlewares/Third_Party/Huawei/iot_link/network/dtls/mbedtls/mbedtls-2.16.2/library\oid.c **** FN_OID_GET_ATTR1(mbedtls_oid_get_attr_short_name, oid_x520_attr_t, x520_attr, const char *, short_n
 146              		.loc 1 251 1 is_stmt 1 view .LVU20
 251:D:/fchai/work/i-cube/I-CUBE-HUAWEI/Middlewares/Third_Party/Huawei/iot_link/network/dtls/mbedtls/mbedtls-2.16.2/library\oid.c **** FN_OID_GET_ATTR1(mbedtls_oid_get_attr_short_name, oid_x520_attr_t, x520_attr, const char *, short_n
 147              		.loc 1 251 1 view .LVU21
 251:D:/fchai/work/i-cube/I-CUBE-HUAWEI/Middlewares/Third_Party/Huawei/iot_link/network/dtls/mbedtls/mbedtls-2.16.2/library\oid.c **** FN_OID_GET_ATTR1(mbedtls_oid_get_attr_short_name, oid_x520_attr_t, x520_attr, const char *, short_n
ARM GAS  T:\msys\tmp\cclxXSYZ.s 			page 11


 148              		.loc 1 251 1 view .LVU22
 149 0012 55F8140F 		ldr	r0, [r5, #20]!
 150              	.LVL11:
 251:D:/fchai/work/i-cube/I-CUBE-HUAWEI/Middlewares/Third_Party/Huawei/iot_link/network/dtls/mbedtls/mbedtls-2.16.2/library\oid.c **** FN_OID_GET_ATTR1(mbedtls_oid_get_attr_short_name, oid_x520_attr_t, x520_attr, const char *, short_n
 151              		.loc 1 251 1 is_stmt 0 view .LVU23
 152 0016 58B1     		cbz	r0, .L19
 153 0018 6B68     		ldr	r3, [r5, #4]
 154              	.LVL12:
 155              	.L17:
 251:D:/fchai/work/i-cube/I-CUBE-HUAWEI/Middlewares/Third_Party/Huawei/iot_link/network/dtls/mbedtls/mbedtls-2.16.2/library\oid.c **** FN_OID_GET_ATTR1(mbedtls_oid_get_attr_short_name, oid_x520_attr_t, x520_attr, const char *, short_n
 156              		.loc 1 251 1 is_stmt 1 view .LVU24
 157 001a 9F42     		cmp	r7, r3
 158 001c F9D1     		bne	.L15
 159 001e A168     		ldr	r1, [r4, #8]
 160 0020 3A46     		mov	r2, r7
 161 0022 FFF7FEFF 		bl	memcmp
 162              	.LVL13:
 163 0026 0028     		cmp	r0, #0
 164 0028 F3D1     		bne	.L15
 165              	.LVL14:
 251:D:/fchai/work/i-cube/I-CUBE-HUAWEI/Middlewares/Third_Party/Huawei/iot_link/network/dtls/mbedtls/mbedtls-2.16.2/library\oid.c **** FN_OID_GET_ATTR1(mbedtls_oid_get_attr_short_name, oid_x520_attr_t, x520_attr, const char *, short_n
 166              		.loc 1 251 1 is_stmt 0 view .LVU25
 167              	.LBE10:
 168              	.LBE11:
 252:D:/fchai/work/i-cube/I-CUBE-HUAWEI/Middlewares/Third_Party/Huawei/iot_link/network/dtls/mbedtls/mbedtls-2.16.2/library\oid.c **** 
 169              		.loc 1 252 1 is_stmt 1 view .LVU26
 252:D:/fchai/work/i-cube/I-CUBE-HUAWEI/Middlewares/Third_Party/Huawei/iot_link/network/dtls/mbedtls/mbedtls-2.16.2/library\oid.c **** 
 170              		.loc 1 252 1 view .LVU27
 171 002a 2B69     		ldr	r3, [r5, #16]
 172 002c 3360     		str	r3, [r6]
 252:D:/fchai/work/i-cube/I-CUBE-HUAWEI/Middlewares/Third_Party/Huawei/iot_link/network/dtls/mbedtls/mbedtls-2.16.2/library\oid.c **** 
 173              		.loc 1 252 1 view .LVU28
 174 002e F8BD     		pop	{r3, r4, r5, r6, r7, pc}
 175              	.LVL15:
 176              	.L19:
 252:D:/fchai/work/i-cube/I-CUBE-HUAWEI/Middlewares/Third_Party/Huawei/iot_link/network/dtls/mbedtls/mbedtls-2.16.2/library\oid.c **** 
 177              		.loc 1 252 1 is_stmt 0 view .LVU29
 178 0030 6FF02D00 		mvn	r0, #45
 179              	.LVL16:
 252:D:/fchai/work/i-cube/I-CUBE-HUAWEI/Middlewares/Third_Party/Huawei/iot_link/network/dtls/mbedtls/mbedtls-2.16.2/library\oid.c **** 
 180              		.loc 1 252 1 view .LVU30
 181 0034 F8BD     		pop	{r3, r4, r5, r6, r7, pc}
 182              	.LVL17:
 183              	.L18:
 184              	.LCFI2:
 185              		.cfi_def_cfa_offset 0
 186              		.cfi_restore 3
 187              		.cfi_restore 4
 188              		.cfi_restore 5
 189              		.cfi_restore 6
 190              		.cfi_restore 7
 191              		.cfi_restore 14
 252:D:/fchai/work/i-cube/I-CUBE-HUAWEI/Middlewares/Third_Party/Huawei/iot_link/network/dtls/mbedtls/mbedtls-2.16.2/library\oid.c **** 
 192              		.loc 1 252 1 view .LVU31
 193 0036 6FF02D00 		mvn	r0, #45
 194              	.LVL18:
 252:D:/fchai/work/i-cube/I-CUBE-HUAWEI/Middlewares/Third_Party/Huawei/iot_link/network/dtls/mbedtls/mbedtls-2.16.2/library\oid.c **** 
ARM GAS  T:\msys\tmp\cclxXSYZ.s 			page 12


 195              		.loc 1 252 1 view .LVU32
 196 003a 7047     		bx	lr
 197              	.L25:
 198              		.align	2
 199              	.L24:
 200 003c 00000000 		.word	.LANCHOR1
 201 0040 00000000 		.word	.LC1
 202              		.cfi_endproc
 203              	.LFE14:
 205              		.section	.rodata.mbedtls_oid_get_x509_ext_type.str1.4,"aMS",%progbits,1
 206              		.align	2
 207              	.LC2:
 208 0000 551D1300 		.ascii	"U\035\023\000"
 209              		.section	.text.mbedtls_oid_get_x509_ext_type,"ax",%progbits
 210              		.align	1
 211              		.p2align 2,,3
 212              		.global	mbedtls_oid_get_x509_ext_type
 213              		.syntax unified
 214              		.thumb
 215              		.thumb_func
 216              		.fpu fpv4-sp-d16
 218              	mbedtls_oid_get_x509_ext_type:
 219              	.LVL19:
 220              	.LFB16:
 291:D:/fchai/work/i-cube/I-CUBE-HUAWEI/Middlewares/Third_Party/Huawei/iot_link/network/dtls/mbedtls/mbedtls-2.16.2/library\oid.c **** 
 221              		.loc 1 291 1 is_stmt 1 view -0
 222              		.cfi_startproc
 223              		@ args = 0, pretend = 0, frame = 0
 224              		@ frame_needed = 0, uses_anonymous_args = 0
 291:D:/fchai/work/i-cube/I-CUBE-HUAWEI/Middlewares/Third_Party/Huawei/iot_link/network/dtls/mbedtls/mbedtls-2.16.2/library\oid.c **** 
 225              		.loc 1 291 1 view .LVU34
 226              	.LBB14:
 227              	.LBI14:
 290:D:/fchai/work/i-cube/I-CUBE-HUAWEI/Middlewares/Third_Party/Huawei/iot_link/network/dtls/mbedtls/mbedtls-2.16.2/library\oid.c **** FN_OID_GET_ATTR1(mbedtls_oid_get_x509_ext_type, oid_x509_ext_t, x509_ext, int, ext_type)
 228              		.loc 1 290 1 view .LVU35
 229              	.LBB15:
 290:D:/fchai/work/i-cube/I-CUBE-HUAWEI/Middlewares/Third_Party/Huawei/iot_link/network/dtls/mbedtls/mbedtls-2.16.2/library\oid.c **** FN_OID_GET_ATTR1(mbedtls_oid_get_x509_ext_type, oid_x509_ext_t, x509_ext, int, ext_type)
 230              		.loc 1 290 1 view .LVU36
 290:D:/fchai/work/i-cube/I-CUBE-HUAWEI/Middlewares/Third_Party/Huawei/iot_link/network/dtls/mbedtls/mbedtls-2.16.2/library\oid.c **** FN_OID_GET_ATTR1(mbedtls_oid_get_x509_ext_type, oid_x509_ext_t, x509_ext, int, ext_type)
 231              		.loc 1 290 1 view .LVU37
 290:D:/fchai/work/i-cube/I-CUBE-HUAWEI/Middlewares/Third_Party/Huawei/iot_link/network/dtls/mbedtls/mbedtls-2.16.2/library\oid.c **** FN_OID_GET_ATTR1(mbedtls_oid_get_x509_ext_type, oid_x509_ext_t, x509_ext, int, ext_type)
 232              		.loc 1 290 1 view .LVU38
 233 0000 C8B1     		cbz	r0, .L31
 234              	.LBE15:
 235              	.LBE14:
 291:D:/fchai/work/i-cube/I-CUBE-HUAWEI/Middlewares/Third_Party/Huawei/iot_link/network/dtls/mbedtls/mbedtls-2.16.2/library\oid.c **** 
 236              		.loc 1 291 1 is_stmt 0 view .LVU39
 237 0002 F8B5     		push	{r3, r4, r5, r6, r7, lr}
 238              	.LCFI3:
 239              		.cfi_def_cfa_offset 24
 240              		.cfi_offset 3, -24
 241              		.cfi_offset 4, -20
 242              		.cfi_offset 5, -16
 243              		.cfi_offset 6, -12
 244              		.cfi_offset 7, -8
 245              		.cfi_offset 14, -4
 246              	.LBB17:
ARM GAS  T:\msys\tmp\cclxXSYZ.s 			page 13


 247              	.LBB16:
 290:D:/fchai/work/i-cube/I-CUBE-HUAWEI/Middlewares/Third_Party/Huawei/iot_link/network/dtls/mbedtls/mbedtls-2.16.2/library\oid.c **** FN_OID_GET_ATTR1(mbedtls_oid_get_x509_ext_type, oid_x509_ext_t, x509_ext, int, ext_type)
 248              		.loc 1 290 1 view .LVU40
 249 0004 4768     		ldr	r7, [r0, #4]
 250 0006 0D4D     		ldr	r5, .L37
 251 0008 0446     		mov	r4, r0
 252 000a 0E46     		mov	r6, r1
 253 000c 0C48     		ldr	r0, .L37+4
 254              	.LVL20:
 290:D:/fchai/work/i-cube/I-CUBE-HUAWEI/Middlewares/Third_Party/Huawei/iot_link/network/dtls/mbedtls/mbedtls-2.16.2/library\oid.c **** FN_OID_GET_ATTR1(mbedtls_oid_get_x509_ext_type, oid_x509_ext_t, x509_ext, int, ext_type)
 255              		.loc 1 290 1 view .LVU41
 256 000e 0323     		movs	r3, #3
 257 0010 03E0     		b	.L30
 258              	.LVL21:
 259              	.L28:
 290:D:/fchai/work/i-cube/I-CUBE-HUAWEI/Middlewares/Third_Party/Huawei/iot_link/network/dtls/mbedtls/mbedtls-2.16.2/library\oid.c **** FN_OID_GET_ATTR1(mbedtls_oid_get_x509_ext_type, oid_x509_ext_t, x509_ext, int, ext_type)
 260              		.loc 1 290 1 is_stmt 1 view .LVU42
 290:D:/fchai/work/i-cube/I-CUBE-HUAWEI/Middlewares/Third_Party/Huawei/iot_link/network/dtls/mbedtls/mbedtls-2.16.2/library\oid.c **** FN_OID_GET_ATTR1(mbedtls_oid_get_x509_ext_type, oid_x509_ext_t, x509_ext, int, ext_type)
 261              		.loc 1 290 1 view .LVU43
 290:D:/fchai/work/i-cube/I-CUBE-HUAWEI/Middlewares/Third_Party/Huawei/iot_link/network/dtls/mbedtls/mbedtls-2.16.2/library\oid.c **** FN_OID_GET_ATTR1(mbedtls_oid_get_x509_ext_type, oid_x509_ext_t, x509_ext, int, ext_type)
 262              		.loc 1 290 1 view .LVU44
 263 0012 55F8140F 		ldr	r0, [r5, #20]!
 264              	.LVL22:
 290:D:/fchai/work/i-cube/I-CUBE-HUAWEI/Middlewares/Third_Party/Huawei/iot_link/network/dtls/mbedtls/mbedtls-2.16.2/library\oid.c **** FN_OID_GET_ATTR1(mbedtls_oid_get_x509_ext_type, oid_x509_ext_t, x509_ext, int, ext_type)
 265              		.loc 1 290 1 is_stmt 0 view .LVU45
 266 0016 58B1     		cbz	r0, .L32
 267 0018 6B68     		ldr	r3, [r5, #4]
 268              	.LVL23:
 269              	.L30:
 290:D:/fchai/work/i-cube/I-CUBE-HUAWEI/Middlewares/Third_Party/Huawei/iot_link/network/dtls/mbedtls/mbedtls-2.16.2/library\oid.c **** FN_OID_GET_ATTR1(mbedtls_oid_get_x509_ext_type, oid_x509_ext_t, x509_ext, int, ext_type)
 270              		.loc 1 290 1 is_stmt 1 view .LVU46
 271 001a 9F42     		cmp	r7, r3
 272 001c F9D1     		bne	.L28
 273 001e A168     		ldr	r1, [r4, #8]
 274 0020 3A46     		mov	r2, r7
 275 0022 FFF7FEFF 		bl	memcmp
 276              	.LVL24:
 277 0026 0028     		cmp	r0, #0
 278 0028 F3D1     		bne	.L28
 279              	.LVL25:
 290:D:/fchai/work/i-cube/I-CUBE-HUAWEI/Middlewares/Third_Party/Huawei/iot_link/network/dtls/mbedtls/mbedtls-2.16.2/library\oid.c **** FN_OID_GET_ATTR1(mbedtls_oid_get_x509_ext_type, oid_x509_ext_t, x509_ext, int, ext_type)
 280              		.loc 1 290 1 is_stmt 0 view .LVU47
 281              	.LBE16:
 282              	.LBE17:
 291:D:/fchai/work/i-cube/I-CUBE-HUAWEI/Middlewares/Third_Party/Huawei/iot_link/network/dtls/mbedtls/mbedtls-2.16.2/library\oid.c **** 
 283              		.loc 1 291 1 is_stmt 1 view .LVU48
 291:D:/fchai/work/i-cube/I-CUBE-HUAWEI/Middlewares/Third_Party/Huawei/iot_link/network/dtls/mbedtls/mbedtls-2.16.2/library\oid.c **** 
 284              		.loc 1 291 1 view .LVU49
 285 002a 2B69     		ldr	r3, [r5, #16]
 286 002c 3360     		str	r3, [r6]
 291:D:/fchai/work/i-cube/I-CUBE-HUAWEI/Middlewares/Third_Party/Huawei/iot_link/network/dtls/mbedtls/mbedtls-2.16.2/library\oid.c **** 
 287              		.loc 1 291 1 view .LVU50
 288 002e F8BD     		pop	{r3, r4, r5, r6, r7, pc}
 289              	.LVL26:
 290              	.L32:
 291:D:/fchai/work/i-cube/I-CUBE-HUAWEI/Middlewares/Third_Party/Huawei/iot_link/network/dtls/mbedtls/mbedtls-2.16.2/library\oid.c **** 
 291              		.loc 1 291 1 is_stmt 0 view .LVU51
ARM GAS  T:\msys\tmp\cclxXSYZ.s 			page 14


 292 0030 6FF02D00 		mvn	r0, #45
 293              	.LVL27:
 291:D:/fchai/work/i-cube/I-CUBE-HUAWEI/Middlewares/Third_Party/Huawei/iot_link/network/dtls/mbedtls/mbedtls-2.16.2/library\oid.c **** 
 294              		.loc 1 291 1 view .LVU52
 295 0034 F8BD     		pop	{r3, r4, r5, r6, r7, pc}
 296              	.LVL28:
 297              	.L31:
 298              	.LCFI4:
 299              		.cfi_def_cfa_offset 0
 300              		.cfi_restore 3
 301              		.cfi_restore 4
 302              		.cfi_restore 5
 303              		.cfi_restore 6
 304              		.cfi_restore 7
 305              		.cfi_restore 14
 291:D:/fchai/work/i-cube/I-CUBE-HUAWEI/Middlewares/Third_Party/Huawei/iot_link/network/dtls/mbedtls/mbedtls-2.16.2/library\oid.c **** 
 306              		.loc 1 291 1 view .LVU53
 307 0036 6FF02D00 		mvn	r0, #45
 308              	.LVL29:
 291:D:/fchai/work/i-cube/I-CUBE-HUAWEI/Middlewares/Third_Party/Huawei/iot_link/network/dtls/mbedtls/mbedtls-2.16.2/library\oid.c **** 
 309              		.loc 1 291 1 view .LVU54
 310 003a 7047     		bx	lr
 311              	.L38:
 312              		.align	2
 313              	.L37:
 314 003c 00000000 		.word	.LANCHOR2
 315 0040 00000000 		.word	.LC2
 316              		.cfi_endproc
 317              	.LFE16:
 319              		.section	.rodata.mbedtls_oid_get_extended_key_usage.str1.4,"aMS",%progbits,1
 320              		.align	2
 321              	.LC3:
 322 0000 2B060105 		.ascii	"+\006\001\005\005\007\003\001\000"
 322      05070301 
 322      00
 323              		.section	.text.mbedtls_oid_get_extended_key_usage,"ax",%progbits
 324              		.align	1
 325              		.p2align 2,,3
 326              		.global	mbedtls_oid_get_extended_key_usage
 327              		.syntax unified
 328              		.thumb
 329              		.thumb_func
 330              		.fpu fpv4-sp-d16
 332              	mbedtls_oid_get_extended_key_usage:
 333              	.LVL30:
 334              	.LFB18:
 305:D:/fchai/work/i-cube/I-CUBE-HUAWEI/Middlewares/Third_Party/Huawei/iot_link/network/dtls/mbedtls/mbedtls-2.16.2/library\oid.c **** #endif /* MBEDTLS_X509_USE_C || MBEDTLS_X509_CREATE_C */
 335              		.loc 1 305 1 is_stmt 1 view -0
 336              		.cfi_startproc
 337              		@ args = 0, pretend = 0, frame = 0
 338              		@ frame_needed = 0, uses_anonymous_args = 0
 305:D:/fchai/work/i-cube/I-CUBE-HUAWEI/Middlewares/Third_Party/Huawei/iot_link/network/dtls/mbedtls/mbedtls-2.16.2/library\oid.c **** #endif /* MBEDTLS_X509_USE_C || MBEDTLS_X509_CREATE_C */
 339              		.loc 1 305 1 view .LVU56
 340              	.LBB20:
 341              	.LBI20:
 304:D:/fchai/work/i-cube/I-CUBE-HUAWEI/Middlewares/Third_Party/Huawei/iot_link/network/dtls/mbedtls/mbedtls-2.16.2/library\oid.c **** FN_OID_GET_ATTR1(mbedtls_oid_get_extended_key_usage, mbedtls_oid_descriptor_t, ext_key_usage, const
 342              		.loc 1 304 1 view .LVU57
ARM GAS  T:\msys\tmp\cclxXSYZ.s 			page 15


 343              	.LBB21:
 304:D:/fchai/work/i-cube/I-CUBE-HUAWEI/Middlewares/Third_Party/Huawei/iot_link/network/dtls/mbedtls/mbedtls-2.16.2/library\oid.c **** FN_OID_GET_ATTR1(mbedtls_oid_get_extended_key_usage, mbedtls_oid_descriptor_t, ext_key_usage, const
 344              		.loc 1 304 1 view .LVU58
 304:D:/fchai/work/i-cube/I-CUBE-HUAWEI/Middlewares/Third_Party/Huawei/iot_link/network/dtls/mbedtls/mbedtls-2.16.2/library\oid.c **** FN_OID_GET_ATTR1(mbedtls_oid_get_extended_key_usage, mbedtls_oid_descriptor_t, ext_key_usage, const
 345              		.loc 1 304 1 view .LVU59
 304:D:/fchai/work/i-cube/I-CUBE-HUAWEI/Middlewares/Third_Party/Huawei/iot_link/network/dtls/mbedtls/mbedtls-2.16.2/library\oid.c **** FN_OID_GET_ATTR1(mbedtls_oid_get_extended_key_usage, mbedtls_oid_descriptor_t, ext_key_usage, const
 346              		.loc 1 304 1 view .LVU60
 347 0000 C8B1     		cbz	r0, .L44
 348              	.LBE21:
 349              	.LBE20:
 305:D:/fchai/work/i-cube/I-CUBE-HUAWEI/Middlewares/Third_Party/Huawei/iot_link/network/dtls/mbedtls/mbedtls-2.16.2/library\oid.c **** #endif /* MBEDTLS_X509_USE_C || MBEDTLS_X509_CREATE_C */
 350              		.loc 1 305 1 is_stmt 0 view .LVU61
 351 0002 F8B5     		push	{r3, r4, r5, r6, r7, lr}
 352              	.LCFI5:
 353              		.cfi_def_cfa_offset 24
 354              		.cfi_offset 3, -24
 355              		.cfi_offset 4, -20
 356              		.cfi_offset 5, -16
 357              		.cfi_offset 6, -12
 358              		.cfi_offset 7, -8
 359              		.cfi_offset 14, -4
 360              	.LBB23:
 361              	.LBB22:
 304:D:/fchai/work/i-cube/I-CUBE-HUAWEI/Middlewares/Third_Party/Huawei/iot_link/network/dtls/mbedtls/mbedtls-2.16.2/library\oid.c **** FN_OID_GET_ATTR1(mbedtls_oid_get_extended_key_usage, mbedtls_oid_descriptor_t, ext_key_usage, const
 362              		.loc 1 304 1 view .LVU62
 363 0004 4768     		ldr	r7, [r0, #4]
 364 0006 0D4D     		ldr	r5, .L50
 365 0008 0446     		mov	r4, r0
 366 000a 0E46     		mov	r6, r1
 367 000c 0C48     		ldr	r0, .L50+4
 368              	.LVL31:
 304:D:/fchai/work/i-cube/I-CUBE-HUAWEI/Middlewares/Third_Party/Huawei/iot_link/network/dtls/mbedtls/mbedtls-2.16.2/library\oid.c **** FN_OID_GET_ATTR1(mbedtls_oid_get_extended_key_usage, mbedtls_oid_descriptor_t, ext_key_usage, const
 369              		.loc 1 304 1 view .LVU63
 370 000e 0823     		movs	r3, #8
 371 0010 03E0     		b	.L43
 372              	.LVL32:
 373              	.L41:
 304:D:/fchai/work/i-cube/I-CUBE-HUAWEI/Middlewares/Third_Party/Huawei/iot_link/network/dtls/mbedtls/mbedtls-2.16.2/library\oid.c **** FN_OID_GET_ATTR1(mbedtls_oid_get_extended_key_usage, mbedtls_oid_descriptor_t, ext_key_usage, const
 374              		.loc 1 304 1 is_stmt 1 view .LVU64
 304:D:/fchai/work/i-cube/I-CUBE-HUAWEI/Middlewares/Third_Party/Huawei/iot_link/network/dtls/mbedtls/mbedtls-2.16.2/library\oid.c **** FN_OID_GET_ATTR1(mbedtls_oid_get_extended_key_usage, mbedtls_oid_descriptor_t, ext_key_usage, const
 375              		.loc 1 304 1 view .LVU65
 304:D:/fchai/work/i-cube/I-CUBE-HUAWEI/Middlewares/Third_Party/Huawei/iot_link/network/dtls/mbedtls/mbedtls-2.16.2/library\oid.c **** FN_OID_GET_ATTR1(mbedtls_oid_get_extended_key_usage, mbedtls_oid_descriptor_t, ext_key_usage, const
 376              		.loc 1 304 1 view .LVU66
 377 0012 55F8100F 		ldr	r0, [r5, #16]!
 378              	.LVL33:
 304:D:/fchai/work/i-cube/I-CUBE-HUAWEI/Middlewares/Third_Party/Huawei/iot_link/network/dtls/mbedtls/mbedtls-2.16.2/library\oid.c **** FN_OID_GET_ATTR1(mbedtls_oid_get_extended_key_usage, mbedtls_oid_descriptor_t, ext_key_usage, const
 379              		.loc 1 304 1 is_stmt 0 view .LVU67
 380 0016 58B1     		cbz	r0, .L45
 381 0018 6B68     		ldr	r3, [r5, #4]
 382              	.LVL34:
 383              	.L43:
 304:D:/fchai/work/i-cube/I-CUBE-HUAWEI/Middlewares/Third_Party/Huawei/iot_link/network/dtls/mbedtls/mbedtls-2.16.2/library\oid.c **** FN_OID_GET_ATTR1(mbedtls_oid_get_extended_key_usage, mbedtls_oid_descriptor_t, ext_key_usage, const
 384              		.loc 1 304 1 is_stmt 1 view .LVU68
 385 001a 9F42     		cmp	r7, r3
 386 001c F9D1     		bne	.L41
 387 001e A168     		ldr	r1, [r4, #8]
 388 0020 3A46     		mov	r2, r7
ARM GAS  T:\msys\tmp\cclxXSYZ.s 			page 16


 389 0022 FFF7FEFF 		bl	memcmp
 390              	.LVL35:
 391 0026 0028     		cmp	r0, #0
 392 0028 F3D1     		bne	.L41
 393              	.LVL36:
 304:D:/fchai/work/i-cube/I-CUBE-HUAWEI/Middlewares/Third_Party/Huawei/iot_link/network/dtls/mbedtls/mbedtls-2.16.2/library\oid.c **** FN_OID_GET_ATTR1(mbedtls_oid_get_extended_key_usage, mbedtls_oid_descriptor_t, ext_key_usage, const
 394              		.loc 1 304 1 is_stmt 0 view .LVU69
 395              	.LBE22:
 396              	.LBE23:
 305:D:/fchai/work/i-cube/I-CUBE-HUAWEI/Middlewares/Third_Party/Huawei/iot_link/network/dtls/mbedtls/mbedtls-2.16.2/library\oid.c **** #endif /* MBEDTLS_X509_USE_C || MBEDTLS_X509_CREATE_C */
 397              		.loc 1 305 1 is_stmt 1 view .LVU70
 305:D:/fchai/work/i-cube/I-CUBE-HUAWEI/Middlewares/Third_Party/Huawei/iot_link/network/dtls/mbedtls/mbedtls-2.16.2/library\oid.c **** #endif /* MBEDTLS_X509_USE_C || MBEDTLS_X509_CREATE_C */
 398              		.loc 1 305 1 view .LVU71
 399 002a EB68     		ldr	r3, [r5, #12]
 400 002c 3360     		str	r3, [r6]
 305:D:/fchai/work/i-cube/I-CUBE-HUAWEI/Middlewares/Third_Party/Huawei/iot_link/network/dtls/mbedtls/mbedtls-2.16.2/library\oid.c **** #endif /* MBEDTLS_X509_USE_C || MBEDTLS_X509_CREATE_C */
 401              		.loc 1 305 1 view .LVU72
 402 002e F8BD     		pop	{r3, r4, r5, r6, r7, pc}
 403              	.LVL37:
 404              	.L45:
 305:D:/fchai/work/i-cube/I-CUBE-HUAWEI/Middlewares/Third_Party/Huawei/iot_link/network/dtls/mbedtls/mbedtls-2.16.2/library\oid.c **** #endif /* MBEDTLS_X509_USE_C || MBEDTLS_X509_CREATE_C */
 405              		.loc 1 305 1 is_stmt 0 view .LVU73
 406 0030 6FF02D00 		mvn	r0, #45
 407              	.LVL38:
 305:D:/fchai/work/i-cube/I-CUBE-HUAWEI/Middlewares/Third_Party/Huawei/iot_link/network/dtls/mbedtls/mbedtls-2.16.2/library\oid.c **** #endif /* MBEDTLS_X509_USE_C || MBEDTLS_X509_CREATE_C */
 408              		.loc 1 305 1 view .LVU74
 409 0034 F8BD     		pop	{r3, r4, r5, r6, r7, pc}
 410              	.LVL39:
 411              	.L44:
 412              	.LCFI6:
 413              		.cfi_def_cfa_offset 0
 414              		.cfi_restore 3
 415              		.cfi_restore 4
 416              		.cfi_restore 5
 417              		.cfi_restore 6
 418              		.cfi_restore 7
 419              		.cfi_restore 14
 305:D:/fchai/work/i-cube/I-CUBE-HUAWEI/Middlewares/Third_Party/Huawei/iot_link/network/dtls/mbedtls/mbedtls-2.16.2/library\oid.c **** #endif /* MBEDTLS_X509_USE_C || MBEDTLS_X509_CREATE_C */
 420              		.loc 1 305 1 view .LVU75
 421 0036 6FF02D00 		mvn	r0, #45
 422              	.LVL40:
 305:D:/fchai/work/i-cube/I-CUBE-HUAWEI/Middlewares/Third_Party/Huawei/iot_link/network/dtls/mbedtls/mbedtls-2.16.2/library\oid.c **** #endif /* MBEDTLS_X509_USE_C || MBEDTLS_X509_CREATE_C */
 423              		.loc 1 305 1 view .LVU76
 424 003a 7047     		bx	lr
 425              	.L51:
 426              		.align	2
 427              	.L50:
 428 003c 00000000 		.word	.LANCHOR3
 429 0040 00000000 		.word	.LC3
 430              		.cfi_endproc
 431              	.LFE18:
 433              		.section	.text.mbedtls_oid_get_sig_alg_desc,"ax",%progbits
 434              		.align	1
 435              		.p2align 2,,3
 436              		.global	mbedtls_oid_get_sig_alg_desc
 437              		.syntax unified
 438              		.thumb
ARM GAS  T:\msys\tmp\cclxXSYZ.s 			page 17


 439              		.thumb_func
 440              		.fpu fpv4-sp-d16
 442              	mbedtls_oid_get_sig_alg_desc:
 443              	.LVL41:
 444              	.LFB20:
 413:D:/fchai/work/i-cube/I-CUBE-HUAWEI/Middlewares/Third_Party/Huawei/iot_link/network/dtls/mbedtls/mbedtls-2.16.2/library\oid.c **** FN_OID_GET_DESCRIPTOR_ATTR1(mbedtls_oid_get_sig_alg_desc, oid_sig_alg_t, sig_alg, const char *, des
 445              		.loc 1 413 1 is_stmt 1 view -0
 446              		.cfi_startproc
 447              		@ args = 0, pretend = 0, frame = 0
 448              		@ frame_needed = 0, uses_anonymous_args = 0
 449              		.loc 1 413 1 view .LVU78
 450              	.LBB24:
 451              	.LBI24:
 412:D:/fchai/work/i-cube/I-CUBE-HUAWEI/Middlewares/Third_Party/Huawei/iot_link/network/dtls/mbedtls/mbedtls-2.16.2/library\oid.c **** FN_OID_GET_DESCRIPTOR_ATTR1(mbedtls_oid_get_sig_alg_desc, oid_sig_alg_t, sig_alg, const char *, des
 452              		.loc 1 412 1 view .LVU79
 453              	.LBB25:
 412:D:/fchai/work/i-cube/I-CUBE-HUAWEI/Middlewares/Third_Party/Huawei/iot_link/network/dtls/mbedtls/mbedtls-2.16.2/library\oid.c **** FN_OID_GET_DESCRIPTOR_ATTR1(mbedtls_oid_get_sig_alg_desc, oid_sig_alg_t, sig_alg, const char *, des
 454              		.loc 1 412 1 view .LVU80
 412:D:/fchai/work/i-cube/I-CUBE-HUAWEI/Middlewares/Third_Party/Huawei/iot_link/network/dtls/mbedtls/mbedtls-2.16.2/library\oid.c **** FN_OID_GET_DESCRIPTOR_ATTR1(mbedtls_oid_get_sig_alg_desc, oid_sig_alg_t, sig_alg, const char *, des
 455              		.loc 1 412 1 view .LVU81
 412:D:/fchai/work/i-cube/I-CUBE-HUAWEI/Middlewares/Third_Party/Huawei/iot_link/network/dtls/mbedtls/mbedtls-2.16.2/library\oid.c **** FN_OID_GET_DESCRIPTOR_ATTR1(mbedtls_oid_get_sig_alg_desc, oid_sig_alg_t, sig_alg, const char *, des
 456              		.loc 1 412 1 view .LVU82
 457 0000 40B1     		cbz	r0, .L54
 458              	.LBE25:
 459              	.LBE24:
 460              		.loc 1 413 1 is_stmt 0 view .LVU83
 461 0002 10B5     		push	{r4, lr}
 462              	.LCFI7:
 463              		.cfi_def_cfa_offset 8
 464              		.cfi_offset 4, -8
 465              		.cfi_offset 14, -4
 466 0004 0C46     		mov	r4, r1
 467              	.LBB27:
 468              	.LBB26:
 469 0006 FFF7FEFF 		bl	oid_sig_alg_from_asn1.part.0
 470              	.LVL42:
 471              		.loc 1 413 1 view .LVU84
 472              	.LBE26:
 473              	.LBE27:
 474              		.loc 1 413 1 is_stmt 1 view .LVU85
 475 000a 30B1     		cbz	r0, .L55
 476              		.loc 1 413 1 discriminator 2 view .LVU86
 477 000c C368     		ldr	r3, [r0, #12]
 478 000e 2360     		str	r3, [r4]
 479              		.loc 1 413 1 discriminator 2 view .LVU87
 480 0010 0020     		movs	r0, #0
 481              	.LVL43:
 482              		.loc 1 413 1 is_stmt 0 discriminator 2 view .LVU88
 483 0012 10BD     		pop	{r4, pc}
 484              	.LVL44:
 485              	.L54:
 486              	.LCFI8:
 487              		.cfi_def_cfa_offset 0
 488              		.cfi_restore 4
 489              		.cfi_restore 14
 490              		.loc 1 413 1 view .LVU89
 491 0014 6FF02D00 		mvn	r0, #45
ARM GAS  T:\msys\tmp\cclxXSYZ.s 			page 18


 492              	.LVL45:
 493              		.loc 1 413 1 view .LVU90
 494 0018 7047     		bx	lr
 495              	.LVL46:
 496              	.L55:
 497              	.LCFI9:
 498              		.cfi_def_cfa_offset 8
 499              		.cfi_offset 4, -8
 500              		.cfi_offset 14, -4
 501              		.loc 1 413 1 view .LVU91
 502 001a 6FF02D00 		mvn	r0, #45
 503              	.LVL47:
 504              		.loc 1 413 1 view .LVU92
 505 001e 10BD     		pop	{r4, pc}
 506              		.loc 1 413 1 view .LVU93
 507              		.cfi_endproc
 508              	.LFE20:
 510              		.section	.text.mbedtls_oid_get_sig_alg,"ax",%progbits
 511              		.align	1
 512              		.p2align 2,,3
 513              		.global	mbedtls_oid_get_sig_alg
 514              		.syntax unified
 515              		.thumb
 516              		.thumb_func
 517              		.fpu fpv4-sp-d16
 519              	mbedtls_oid_get_sig_alg:
 520              	.LVL48:
 521              	.LFB21:
 414:D:/fchai/work/i-cube/I-CUBE-HUAWEI/Middlewares/Third_Party/Huawei/iot_link/network/dtls/mbedtls/mbedtls-2.16.2/library\oid.c **** FN_OID_GET_ATTR2(mbedtls_oid_get_sig_alg, oid_sig_alg_t, sig_alg, mbedtls_md_type_t, md_alg, mbedtl
 522              		.loc 1 414 1 is_stmt 1 view -0
 523              		.cfi_startproc
 524              		@ args = 0, pretend = 0, frame = 0
 525              		@ frame_needed = 0, uses_anonymous_args = 0
 526              		.loc 1 414 1 view .LVU95
 527              	.LBB28:
 528              	.LBI28:
 412:D:/fchai/work/i-cube/I-CUBE-HUAWEI/Middlewares/Third_Party/Huawei/iot_link/network/dtls/mbedtls/mbedtls-2.16.2/library\oid.c **** FN_OID_GET_DESCRIPTOR_ATTR1(mbedtls_oid_get_sig_alg_desc, oid_sig_alg_t, sig_alg, const char *, des
 529              		.loc 1 412 1 view .LVU96
 530              	.LBB29:
 412:D:/fchai/work/i-cube/I-CUBE-HUAWEI/Middlewares/Third_Party/Huawei/iot_link/network/dtls/mbedtls/mbedtls-2.16.2/library\oid.c **** FN_OID_GET_DESCRIPTOR_ATTR1(mbedtls_oid_get_sig_alg_desc, oid_sig_alg_t, sig_alg, const char *, des
 531              		.loc 1 412 1 view .LVU97
 412:D:/fchai/work/i-cube/I-CUBE-HUAWEI/Middlewares/Third_Party/Huawei/iot_link/network/dtls/mbedtls/mbedtls-2.16.2/library\oid.c **** FN_OID_GET_DESCRIPTOR_ATTR1(mbedtls_oid_get_sig_alg_desc, oid_sig_alg_t, sig_alg, const char *, des
 532              		.loc 1 412 1 view .LVU98
 412:D:/fchai/work/i-cube/I-CUBE-HUAWEI/Middlewares/Third_Party/Huawei/iot_link/network/dtls/mbedtls/mbedtls-2.16.2/library\oid.c **** FN_OID_GET_DESCRIPTOR_ATTR1(mbedtls_oid_get_sig_alg_desc, oid_sig_alg_t, sig_alg, const char *, des
 533              		.loc 1 412 1 view .LVU99
 534 0000 58B1     		cbz	r0, .L62
 535              	.LBE29:
 536              	.LBE28:
 537              		.loc 1 414 1 is_stmt 0 view .LVU100
 538 0002 38B5     		push	{r3, r4, r5, lr}
 539              	.LCFI10:
 540              		.cfi_def_cfa_offset 16
 541              		.cfi_offset 3, -16
 542              		.cfi_offset 4, -12
 543              		.cfi_offset 5, -8
 544              		.cfi_offset 14, -4
 545 0004 0D46     		mov	r5, r1
ARM GAS  T:\msys\tmp\cclxXSYZ.s 			page 19


 546 0006 1446     		mov	r4, r2
 547              	.LBB31:
 548              	.LBB30:
 549 0008 FFF7FEFF 		bl	oid_sig_alg_from_asn1.part.0
 550              	.LVL49:
 551              		.loc 1 414 1 view .LVU101
 552              	.LBE30:
 553              	.LBE31:
 554              		.loc 1 414 1 is_stmt 1 view .LVU102
 555 000c 40B1     		cbz	r0, .L63
 556              		.loc 1 414 1 discriminator 2 view .LVU103
 557 000e 037C     		ldrb	r3, [r0, #16]	@ zero_extendqisi2
 558 0010 2B70     		strb	r3, [r5]
 559              		.loc 1 414 1 discriminator 2 view .LVU104
 560 0012 437C     		ldrb	r3, [r0, #17]	@ zero_extendqisi2
 561 0014 2370     		strb	r3, [r4]
 562              		.loc 1 414 1 discriminator 2 view .LVU105
 563 0016 0020     		movs	r0, #0
 564              	.LVL50:
 565              		.loc 1 414 1 is_stmt 0 discriminator 2 view .LVU106
 566 0018 38BD     		pop	{r3, r4, r5, pc}
 567              	.LVL51:
 568              	.L62:
 569              	.LCFI11:
 570              		.cfi_def_cfa_offset 0
 571              		.cfi_restore 3
 572              		.cfi_restore 4
 573              		.cfi_restore 5
 574              		.cfi_restore 14
 575              		.loc 1 414 1 view .LVU107
 576 001a 6FF02D00 		mvn	r0, #45
 577              	.LVL52:
 578              		.loc 1 414 1 view .LVU108
 579 001e 7047     		bx	lr
 580              	.LVL53:
 581              	.L63:
 582              	.LCFI12:
 583              		.cfi_def_cfa_offset 16
 584              		.cfi_offset 3, -16
 585              		.cfi_offset 4, -12
 586              		.cfi_offset 5, -8
 587              		.cfi_offset 14, -4
 588              		.loc 1 414 1 view .LVU109
 589 0020 6FF02D00 		mvn	r0, #45
 590              	.LVL54:
 591              		.loc 1 414 1 view .LVU110
 592 0024 38BD     		pop	{r3, r4, r5, pc}
 593              		.loc 1 414 1 view .LVU111
 594              		.cfi_endproc
 595              	.LFE21:
 597 0026 00BF     		.section	.text.mbedtls_oid_get_oid_by_sig_alg,"ax",%progbits
 598              		.align	1
 599              		.p2align 2,,3
 600              		.global	mbedtls_oid_get_oid_by_sig_alg
 601              		.syntax unified
 602              		.thumb
 603              		.thumb_func
ARM GAS  T:\msys\tmp\cclxXSYZ.s 			page 20


 604              		.fpu fpv4-sp-d16
 606              	mbedtls_oid_get_oid_by_sig_alg:
 607              	.LVL55:
 608              	.LFB22:
 415:D:/fchai/work/i-cube/I-CUBE-HUAWEI/Middlewares/Third_Party/Huawei/iot_link/network/dtls/mbedtls/mbedtls-2.16.2/library\oid.c **** FN_OID_GET_OID_BY_ATTR2(mbedtls_oid_get_oid_by_sig_alg, oid_sig_alg_t, oid_sig_alg, mbedtls_pk_type
 609              		.loc 1 415 1 is_stmt 1 view -0
 610              		.cfi_startproc
 611              		@ args = 0, pretend = 0, frame = 0
 612              		@ frame_needed = 0, uses_anonymous_args = 0
 613              		@ link register save eliminated.
 614              		.loc 1 415 1 view .LVU113
 615              		.loc 1 415 1 view .LVU114
 616              		.loc 1 415 1 view .LVU115
 617 0000 70B4     		push	{r4, r5, r6}
 618              	.LCFI13:
 619              		.cfi_def_cfa_offset 12
 620              		.cfi_offset 4, -12
 621              		.cfi_offset 5, -8
 622              		.cfi_offset 6, -4
 623 0002 0B4C     		ldr	r4, .L74
 624              		.loc 1 415 1 is_stmt 0 view .LVU116
 625 0004 0B4D     		ldr	r5, .L74+4
 626 0006 0126     		movs	r6, #1
 627 0008 03E0     		b	.L71
 628              	.LVL56:
 629              	.L69:
 630              		.loc 1 415 1 discriminator 5 view .LVU117
 631 000a 54F8145F 		ldr	r5, [r4, #20]!
 632              	.LVL57:
 633              		.loc 1 415 1 discriminator 5 view .LVU118
 634 000e 5DB1     		cbz	r5, .L72
 635 0010 667C     		ldrb	r6, [r4, #17]	@ zero_extendqisi2
 636              	.LVL58:
 637              	.L71:
 638              		.loc 1 415 1 is_stmt 1 discriminator 7 view .LVU119
 639              		.loc 1 415 1 discriminator 7 view .LVU120
 640              		.loc 1 415 1 discriminator 7 view .LVU121
 641 0012 8642     		cmp	r6, r0
 642 0014 F9D1     		bne	.L69
 643              		.loc 1 415 1 is_stmt 0 discriminator 2 view .LVU122
 644 0016 267C     		ldrb	r6, [r4, #16]	@ zero_extendqisi2
 645 0018 8E42     		cmp	r6, r1
 646 001a F6D1     		bne	.L69
 647              		.loc 1 415 1 is_stmt 1 discriminator 4 view .LVU123
 648 001c 6168     		ldr	r1, [r4, #4]
 649              	.LVL59:
 650              		.loc 1 415 1 is_stmt 0 discriminator 4 view .LVU124
 651 001e 1560     		str	r5, [r2]
 652              		.loc 1 415 1 is_stmt 1 discriminator 4 view .LVU125
 653 0020 0020     		movs	r0, #0
 654              	.LVL60:
 655              		.loc 1 415 1 is_stmt 0 discriminator 4 view .LVU126
 656 0022 70BC     		pop	{r4, r5, r6}
 657              	.LCFI14:
 658              		.cfi_remember_state
 659              		.cfi_restore 6
 660              		.cfi_restore 5
ARM GAS  T:\msys\tmp\cclxXSYZ.s 			page 21


 661              		.cfi_restore 4
 662              		.cfi_def_cfa_offset 0
 663              	.LVL61:
 664              		.loc 1 415 1 discriminator 4 view .LVU127
 665 0024 1960     		str	r1, [r3]
 666              		.loc 1 415 1 is_stmt 1 discriminator 4 view .LVU128
 667 0026 7047     		bx	lr
 668              	.LVL62:
 669              	.L72:
 670              	.LCFI15:
 671              		.cfi_restore_state
 672              		.loc 1 415 1 is_stmt 0 view .LVU129
 673 0028 6FF02D00 		mvn	r0, #45
 674              	.LVL63:
 675              		.loc 1 415 1 view .LVU130
 676 002c 70BC     		pop	{r4, r5, r6}
 677              	.LCFI16:
 678              		.cfi_restore 6
 679              		.cfi_restore 5
 680              		.cfi_restore 4
 681              		.cfi_def_cfa_offset 0
 682              	.LVL64:
 683              		.loc 1 415 1 view .LVU131
 684 002e 7047     		bx	lr
 685              	.L75:
 686              		.align	2
 687              	.L74:
 688 0030 00000000 		.word	.LANCHOR0
 689 0034 00000000 		.word	.LC0
 690              		.cfi_endproc
 691              	.LFE22:
 693              		.section	.rodata.mbedtls_oid_get_pk_alg.str1.4,"aMS",%progbits,1
 694              		.align	2
 695              	.LC4:
 696 0000 2A864886 		.ascii	"*\206H\206\367\015\001\001\001\000"
 696      F70D0101 
 696      0100
 697              		.section	.text.mbedtls_oid_get_pk_alg,"ax",%progbits
 698              		.align	1
 699              		.p2align 2,,3
 700              		.global	mbedtls_oid_get_pk_alg
 701              		.syntax unified
 702              		.thumb
 703              		.thumb_func
 704              		.fpu fpv4-sp-d16
 706              	mbedtls_oid_get_pk_alg:
 707              	.LVL65:
 708              	.LFB24:
 416:D:/fchai/work/i-cube/I-CUBE-HUAWEI/Middlewares/Third_Party/Huawei/iot_link/network/dtls/mbedtls/mbedtls-2.16.2/library\oid.c **** #endif /* MBEDTLS_MD_C */
 417:D:/fchai/work/i-cube/I-CUBE-HUAWEI/Middlewares/Third_Party/Huawei/iot_link/network/dtls/mbedtls/mbedtls-2.16.2/library\oid.c **** 
 418:D:/fchai/work/i-cube/I-CUBE-HUAWEI/Middlewares/Third_Party/Huawei/iot_link/network/dtls/mbedtls/mbedtls-2.16.2/library\oid.c **** /*
 419:D:/fchai/work/i-cube/I-CUBE-HUAWEI/Middlewares/Third_Party/Huawei/iot_link/network/dtls/mbedtls/mbedtls-2.16.2/library\oid.c ****  * For PublicKeyInfo (PKCS1, RFC 5480)
 420:D:/fchai/work/i-cube/I-CUBE-HUAWEI/Middlewares/Third_Party/Huawei/iot_link/network/dtls/mbedtls/mbedtls-2.16.2/library\oid.c ****  */
 421:D:/fchai/work/i-cube/I-CUBE-HUAWEI/Middlewares/Third_Party/Huawei/iot_link/network/dtls/mbedtls/mbedtls-2.16.2/library\oid.c **** typedef struct {
 422:D:/fchai/work/i-cube/I-CUBE-HUAWEI/Middlewares/Third_Party/Huawei/iot_link/network/dtls/mbedtls/mbedtls-2.16.2/library\oid.c ****     mbedtls_oid_descriptor_t    descriptor;
 423:D:/fchai/work/i-cube/I-CUBE-HUAWEI/Middlewares/Third_Party/Huawei/iot_link/network/dtls/mbedtls/mbedtls-2.16.2/library\oid.c ****     mbedtls_pk_type_t           pk_alg;
 424:D:/fchai/work/i-cube/I-CUBE-HUAWEI/Middlewares/Third_Party/Huawei/iot_link/network/dtls/mbedtls/mbedtls-2.16.2/library\oid.c **** } oid_pk_alg_t;
ARM GAS  T:\msys\tmp\cclxXSYZ.s 			page 22


 425:D:/fchai/work/i-cube/I-CUBE-HUAWEI/Middlewares/Third_Party/Huawei/iot_link/network/dtls/mbedtls/mbedtls-2.16.2/library\oid.c **** 
 426:D:/fchai/work/i-cube/I-CUBE-HUAWEI/Middlewares/Third_Party/Huawei/iot_link/network/dtls/mbedtls/mbedtls-2.16.2/library\oid.c **** static const oid_pk_alg_t oid_pk_alg[] =
 427:D:/fchai/work/i-cube/I-CUBE-HUAWEI/Middlewares/Third_Party/Huawei/iot_link/network/dtls/mbedtls/mbedtls-2.16.2/library\oid.c **** {
 428:D:/fchai/work/i-cube/I-CUBE-HUAWEI/Middlewares/Third_Party/Huawei/iot_link/network/dtls/mbedtls/mbedtls-2.16.2/library\oid.c ****     {
 429:D:/fchai/work/i-cube/I-CUBE-HUAWEI/Middlewares/Third_Party/Huawei/iot_link/network/dtls/mbedtls/mbedtls-2.16.2/library\oid.c ****         { ADD_LEN( MBEDTLS_OID_PKCS1_RSA ),      "rsaEncryption",   "RSA" },
 430:D:/fchai/work/i-cube/I-CUBE-HUAWEI/Middlewares/Third_Party/Huawei/iot_link/network/dtls/mbedtls/mbedtls-2.16.2/library\oid.c ****         MBEDTLS_PK_RSA,
 431:D:/fchai/work/i-cube/I-CUBE-HUAWEI/Middlewares/Third_Party/Huawei/iot_link/network/dtls/mbedtls/mbedtls-2.16.2/library\oid.c ****     },
 432:D:/fchai/work/i-cube/I-CUBE-HUAWEI/Middlewares/Third_Party/Huawei/iot_link/network/dtls/mbedtls/mbedtls-2.16.2/library\oid.c ****     {
 433:D:/fchai/work/i-cube/I-CUBE-HUAWEI/Middlewares/Third_Party/Huawei/iot_link/network/dtls/mbedtls/mbedtls-2.16.2/library\oid.c ****         { ADD_LEN( MBEDTLS_OID_EC_ALG_UNRESTRICTED ),  "id-ecPublicKey",   "Generic EC key" },
 434:D:/fchai/work/i-cube/I-CUBE-HUAWEI/Middlewares/Third_Party/Huawei/iot_link/network/dtls/mbedtls/mbedtls-2.16.2/library\oid.c ****         MBEDTLS_PK_ECKEY,
 435:D:/fchai/work/i-cube/I-CUBE-HUAWEI/Middlewares/Third_Party/Huawei/iot_link/network/dtls/mbedtls/mbedtls-2.16.2/library\oid.c ****     },
 436:D:/fchai/work/i-cube/I-CUBE-HUAWEI/Middlewares/Third_Party/Huawei/iot_link/network/dtls/mbedtls/mbedtls-2.16.2/library\oid.c ****     {
 437:D:/fchai/work/i-cube/I-CUBE-HUAWEI/Middlewares/Third_Party/Huawei/iot_link/network/dtls/mbedtls/mbedtls-2.16.2/library\oid.c ****         { ADD_LEN( MBEDTLS_OID_EC_ALG_ECDH ),          "id-ecDH",          "EC key for ECDH" },
 438:D:/fchai/work/i-cube/I-CUBE-HUAWEI/Middlewares/Third_Party/Huawei/iot_link/network/dtls/mbedtls/mbedtls-2.16.2/library\oid.c ****         MBEDTLS_PK_ECKEY_DH,
 439:D:/fchai/work/i-cube/I-CUBE-HUAWEI/Middlewares/Third_Party/Huawei/iot_link/network/dtls/mbedtls/mbedtls-2.16.2/library\oid.c ****     },
 440:D:/fchai/work/i-cube/I-CUBE-HUAWEI/Middlewares/Third_Party/Huawei/iot_link/network/dtls/mbedtls/mbedtls-2.16.2/library\oid.c ****     {
 441:D:/fchai/work/i-cube/I-CUBE-HUAWEI/Middlewares/Third_Party/Huawei/iot_link/network/dtls/mbedtls/mbedtls-2.16.2/library\oid.c ****         { NULL, 0, NULL, NULL },
 442:D:/fchai/work/i-cube/I-CUBE-HUAWEI/Middlewares/Third_Party/Huawei/iot_link/network/dtls/mbedtls/mbedtls-2.16.2/library\oid.c ****         MBEDTLS_PK_NONE,
 443:D:/fchai/work/i-cube/I-CUBE-HUAWEI/Middlewares/Third_Party/Huawei/iot_link/network/dtls/mbedtls/mbedtls-2.16.2/library\oid.c ****     },
 444:D:/fchai/work/i-cube/I-CUBE-HUAWEI/Middlewares/Third_Party/Huawei/iot_link/network/dtls/mbedtls/mbedtls-2.16.2/library\oid.c **** };
 445:D:/fchai/work/i-cube/I-CUBE-HUAWEI/Middlewares/Third_Party/Huawei/iot_link/network/dtls/mbedtls/mbedtls-2.16.2/library\oid.c **** 
 446:D:/fchai/work/i-cube/I-CUBE-HUAWEI/Middlewares/Third_Party/Huawei/iot_link/network/dtls/mbedtls/mbedtls-2.16.2/library\oid.c **** FN_OID_TYPED_FROM_ASN1(oid_pk_alg_t, pk_alg, oid_pk_alg)
 447:D:/fchai/work/i-cube/I-CUBE-HUAWEI/Middlewares/Third_Party/Huawei/iot_link/network/dtls/mbedtls/mbedtls-2.16.2/library\oid.c **** FN_OID_GET_ATTR1(mbedtls_oid_get_pk_alg, oid_pk_alg_t, pk_alg, mbedtls_pk_type_t, pk_alg)
 709              		.loc 1 447 1 is_stmt 1 view -0
 710              		.cfi_startproc
 711              		@ args = 0, pretend = 0, frame = 0
 712              		@ frame_needed = 0, uses_anonymous_args = 0
 713              		.loc 1 447 1 view .LVU133
 714              	.LBB34:
 715              	.LBI34:
 446:D:/fchai/work/i-cube/I-CUBE-HUAWEI/Middlewares/Third_Party/Huawei/iot_link/network/dtls/mbedtls/mbedtls-2.16.2/library\oid.c **** FN_OID_GET_ATTR1(mbedtls_oid_get_pk_alg, oid_pk_alg_t, pk_alg, mbedtls_pk_type_t, pk_alg)
 716              		.loc 1 446 1 view .LVU134
 717              	.LBB35:
 446:D:/fchai/work/i-cube/I-CUBE-HUAWEI/Middlewares/Third_Party/Huawei/iot_link/network/dtls/mbedtls/mbedtls-2.16.2/library\oid.c **** FN_OID_GET_ATTR1(mbedtls_oid_get_pk_alg, oid_pk_alg_t, pk_alg, mbedtls_pk_type_t, pk_alg)
 718              		.loc 1 446 1 view .LVU135
 446:D:/fchai/work/i-cube/I-CUBE-HUAWEI/Middlewares/Third_Party/Huawei/iot_link/network/dtls/mbedtls/mbedtls-2.16.2/library\oid.c **** FN_OID_GET_ATTR1(mbedtls_oid_get_pk_alg, oid_pk_alg_t, pk_alg, mbedtls_pk_type_t, pk_alg)
 719              		.loc 1 446 1 view .LVU136
 446:D:/fchai/work/i-cube/I-CUBE-HUAWEI/Middlewares/Third_Party/Huawei/iot_link/network/dtls/mbedtls/mbedtls-2.16.2/library\oid.c **** FN_OID_GET_ATTR1(mbedtls_oid_get_pk_alg, oid_pk_alg_t, pk_alg, mbedtls_pk_type_t, pk_alg)
 720              		.loc 1 446 1 view .LVU137
 721 0000 C8B1     		cbz	r0, .L81
 722              	.LBE35:
 723              	.LBE34:
 724              		.loc 1 447 1 is_stmt 0 view .LVU138
 725 0002 F8B5     		push	{r3, r4, r5, r6, r7, lr}
 726              	.LCFI17:
 727              		.cfi_def_cfa_offset 24
 728              		.cfi_offset 3, -24
 729              		.cfi_offset 4, -20
 730              		.cfi_offset 5, -16
 731              		.cfi_offset 6, -12
 732              		.cfi_offset 7, -8
 733              		.cfi_offset 14, -4
 734              	.LBB37:
 735              	.LBB36:
 446:D:/fchai/work/i-cube/I-CUBE-HUAWEI/Middlewares/Third_Party/Huawei/iot_link/network/dtls/mbedtls/mbedtls-2.16.2/library\oid.c **** FN_OID_GET_ATTR1(mbedtls_oid_get_pk_alg, oid_pk_alg_t, pk_alg, mbedtls_pk_type_t, pk_alg)
 736              		.loc 1 446 1 view .LVU139
 737 0004 4768     		ldr	r7, [r0, #4]
ARM GAS  T:\msys\tmp\cclxXSYZ.s 			page 23


 738 0006 0D4D     		ldr	r5, .L87
 739 0008 0446     		mov	r4, r0
 740 000a 0E46     		mov	r6, r1
 741 000c 0C48     		ldr	r0, .L87+4
 742              	.LVL66:
 446:D:/fchai/work/i-cube/I-CUBE-HUAWEI/Middlewares/Third_Party/Huawei/iot_link/network/dtls/mbedtls/mbedtls-2.16.2/library\oid.c **** FN_OID_GET_ATTR1(mbedtls_oid_get_pk_alg, oid_pk_alg_t, pk_alg, mbedtls_pk_type_t, pk_alg)
 743              		.loc 1 446 1 view .LVU140
 744 000e 0923     		movs	r3, #9
 745 0010 03E0     		b	.L80
 746              	.LVL67:
 747              	.L78:
 446:D:/fchai/work/i-cube/I-CUBE-HUAWEI/Middlewares/Third_Party/Huawei/iot_link/network/dtls/mbedtls/mbedtls-2.16.2/library\oid.c **** FN_OID_GET_ATTR1(mbedtls_oid_get_pk_alg, oid_pk_alg_t, pk_alg, mbedtls_pk_type_t, pk_alg)
 748              		.loc 1 446 1 is_stmt 1 view .LVU141
 446:D:/fchai/work/i-cube/I-CUBE-HUAWEI/Middlewares/Third_Party/Huawei/iot_link/network/dtls/mbedtls/mbedtls-2.16.2/library\oid.c **** FN_OID_GET_ATTR1(mbedtls_oid_get_pk_alg, oid_pk_alg_t, pk_alg, mbedtls_pk_type_t, pk_alg)
 749              		.loc 1 446 1 view .LVU142
 446:D:/fchai/work/i-cube/I-CUBE-HUAWEI/Middlewares/Third_Party/Huawei/iot_link/network/dtls/mbedtls/mbedtls-2.16.2/library\oid.c **** FN_OID_GET_ATTR1(mbedtls_oid_get_pk_alg, oid_pk_alg_t, pk_alg, mbedtls_pk_type_t, pk_alg)
 750              		.loc 1 446 1 view .LVU143
 751 0012 55F8140F 		ldr	r0, [r5, #20]!
 752              	.LVL68:
 446:D:/fchai/work/i-cube/I-CUBE-HUAWEI/Middlewares/Third_Party/Huawei/iot_link/network/dtls/mbedtls/mbedtls-2.16.2/library\oid.c **** FN_OID_GET_ATTR1(mbedtls_oid_get_pk_alg, oid_pk_alg_t, pk_alg, mbedtls_pk_type_t, pk_alg)
 753              		.loc 1 446 1 is_stmt 0 view .LVU144
 754 0016 58B1     		cbz	r0, .L82
 755 0018 6B68     		ldr	r3, [r5, #4]
 756              	.LVL69:
 757              	.L80:
 446:D:/fchai/work/i-cube/I-CUBE-HUAWEI/Middlewares/Third_Party/Huawei/iot_link/network/dtls/mbedtls/mbedtls-2.16.2/library\oid.c **** FN_OID_GET_ATTR1(mbedtls_oid_get_pk_alg, oid_pk_alg_t, pk_alg, mbedtls_pk_type_t, pk_alg)
 758              		.loc 1 446 1 is_stmt 1 view .LVU145
 759 001a 9F42     		cmp	r7, r3
 760 001c F9D1     		bne	.L78
 761 001e A168     		ldr	r1, [r4, #8]
 762 0020 3A46     		mov	r2, r7
 763 0022 FFF7FEFF 		bl	memcmp
 764              	.LVL70:
 765 0026 0028     		cmp	r0, #0
 766 0028 F3D1     		bne	.L78
 767              	.LVL71:
 446:D:/fchai/work/i-cube/I-CUBE-HUAWEI/Middlewares/Third_Party/Huawei/iot_link/network/dtls/mbedtls/mbedtls-2.16.2/library\oid.c **** FN_OID_GET_ATTR1(mbedtls_oid_get_pk_alg, oid_pk_alg_t, pk_alg, mbedtls_pk_type_t, pk_alg)
 768              		.loc 1 446 1 is_stmt 0 view .LVU146
 769              	.LBE36:
 770              	.LBE37:
 771              		.loc 1 447 1 is_stmt 1 view .LVU147
 772              		.loc 1 447 1 view .LVU148
 773 002a 2B7C     		ldrb	r3, [r5, #16]	@ zero_extendqisi2
 774 002c 3370     		strb	r3, [r6]
 775              		.loc 1 447 1 view .LVU149
 776 002e F8BD     		pop	{r3, r4, r5, r6, r7, pc}
 777              	.LVL72:
 778              	.L82:
 779              		.loc 1 447 1 is_stmt 0 view .LVU150
 780 0030 6FF02D00 		mvn	r0, #45
 781              	.LVL73:
 782              		.loc 1 447 1 view .LVU151
 783 0034 F8BD     		pop	{r3, r4, r5, r6, r7, pc}
 784              	.LVL74:
 785              	.L81:
 786              	.LCFI18:
 787              		.cfi_def_cfa_offset 0
ARM GAS  T:\msys\tmp\cclxXSYZ.s 			page 24


 788              		.cfi_restore 3
 789              		.cfi_restore 4
 790              		.cfi_restore 5
 791              		.cfi_restore 6
 792              		.cfi_restore 7
 793              		.cfi_restore 14
 794              		.loc 1 447 1 view .LVU152
 795 0036 6FF02D00 		mvn	r0, #45
 796              	.LVL75:
 797              		.loc 1 447 1 view .LVU153
 798 003a 7047     		bx	lr
 799              	.L88:
 800              		.align	2
 801              	.L87:
 802 003c 00000000 		.word	.LANCHOR4
 803 0040 00000000 		.word	.LC4
 804              		.cfi_endproc
 805              	.LFE24:
 807              		.section	.text.mbedtls_oid_get_oid_by_pk_alg,"ax",%progbits
 808              		.align	1
 809              		.p2align 2,,3
 810              		.global	mbedtls_oid_get_oid_by_pk_alg
 811              		.syntax unified
 812              		.thumb
 813              		.thumb_func
 814              		.fpu fpv4-sp-d16
 816              	mbedtls_oid_get_oid_by_pk_alg:
 817              	.LVL76:
 818              	.LFB25:
 448:D:/fchai/work/i-cube/I-CUBE-HUAWEI/Middlewares/Third_Party/Huawei/iot_link/network/dtls/mbedtls/mbedtls-2.16.2/library\oid.c **** FN_OID_GET_OID_BY_ATTR1(mbedtls_oid_get_oid_by_pk_alg, oid_pk_alg_t, oid_pk_alg, mbedtls_pk_type_t,
 819              		.loc 1 448 1 is_stmt 1 view -0
 820              		.cfi_startproc
 821              		@ args = 0, pretend = 0, frame = 0
 822              		@ frame_needed = 0, uses_anonymous_args = 0
 823              		@ link register save eliminated.
 824              		.loc 1 448 1 view .LVU155
 825              		.loc 1 448 1 view .LVU156
 826              		.loc 1 448 1 view .LVU157
 827 0000 30B4     		push	{r4, r5}
 828              	.LCFI19:
 829              		.cfi_def_cfa_offset 8
 830              		.cfi_offset 4, -8
 831              		.cfi_offset 5, -4
 832 0002 0A4B     		ldr	r3, .L95
 833              		.loc 1 448 1 is_stmt 0 view .LVU158
 834 0004 0A4C     		ldr	r4, .L95+4
 835 0006 0125     		movs	r5, #1
 836 0008 03E0     		b	.L92
 837              	.LVL77:
 838              	.L90:
 839              		.loc 1 448 1 discriminator 3 view .LVU159
 840 000a 53F8144F 		ldr	r4, [r3, #20]!
 841              	.LVL78:
 842              		.loc 1 448 1 discriminator 3 view .LVU160
 843 000e 44B1     		cbz	r4, .L93
 844 0010 1D7C     		ldrb	r5, [r3, #16]	@ zero_extendqisi2
 845              	.LVL79:
ARM GAS  T:\msys\tmp\cclxXSYZ.s 			page 25


 846              	.L92:
 847              		.loc 1 448 1 is_stmt 1 discriminator 5 view .LVU161
 848              		.loc 1 448 1 discriminator 5 view .LVU162
 849              		.loc 1 448 1 discriminator 5 view .LVU163
 850 0012 8542     		cmp	r5, r0
 851 0014 F9D1     		bne	.L90
 852              		.loc 1 448 1 discriminator 2 view .LVU164
 853 0016 5B68     		ldr	r3, [r3, #4]
 854              	.LVL80:
 855              		.loc 1 448 1 is_stmt 0 discriminator 2 view .LVU165
 856 0018 0C60     		str	r4, [r1]
 857              		.loc 1 448 1 is_stmt 1 discriminator 2 view .LVU166
 858 001a 0020     		movs	r0, #0
 859              	.LVL81:
 860              		.loc 1 448 1 is_stmt 0 discriminator 2 view .LVU167
 861 001c 30BC     		pop	{r4, r5}
 862              	.LCFI20:
 863              		.cfi_remember_state
 864              		.cfi_restore 5
 865              		.cfi_restore 4
 866              		.cfi_def_cfa_offset 0
 867 001e 1360     		str	r3, [r2]
 868              		.loc 1 448 1 is_stmt 1 discriminator 2 view .LVU168
 869 0020 7047     		bx	lr
 870              	.LVL82:
 871              	.L93:
 872              	.LCFI21:
 873              		.cfi_restore_state
 874              		.loc 1 448 1 is_stmt 0 view .LVU169
 875 0022 6FF02D00 		mvn	r0, #45
 876              	.LVL83:
 877              		.loc 1 448 1 view .LVU170
 878 0026 30BC     		pop	{r4, r5}
 879              	.LCFI22:
 880              		.cfi_restore 5
 881              		.cfi_restore 4
 882              		.cfi_def_cfa_offset 0
 883 0028 7047     		bx	lr
 884              	.L96:
 885 002a 00BF     		.align	2
 886              	.L95:
 887 002c 00000000 		.word	.LANCHOR4
 888 0030 00000000 		.word	.LC4
 889              		.cfi_endproc
 890              	.LFE25:
 892              		.section	.rodata.mbedtls_oid_get_ec_grp.str1.4,"aMS",%progbits,1
 893              		.align	2
 894              	.LC5:
 895 0000 2A8648CE 		.ascii	"*\206H\316=\003\001\001\000"
 895      3D030101 
 895      00
 896              		.section	.text.mbedtls_oid_get_ec_grp,"ax",%progbits
 897              		.align	1
 898              		.p2align 2,,3
 899              		.global	mbedtls_oid_get_ec_grp
 900              		.syntax unified
 901              		.thumb
ARM GAS  T:\msys\tmp\cclxXSYZ.s 			page 26


 902              		.thumb_func
 903              		.fpu fpv4-sp-d16
 905              	mbedtls_oid_get_ec_grp:
 906              	.LVL84:
 907              	.LFB27:
 449:D:/fchai/work/i-cube/I-CUBE-HUAWEI/Middlewares/Third_Party/Huawei/iot_link/network/dtls/mbedtls/mbedtls-2.16.2/library\oid.c **** 
 450:D:/fchai/work/i-cube/I-CUBE-HUAWEI/Middlewares/Third_Party/Huawei/iot_link/network/dtls/mbedtls/mbedtls-2.16.2/library\oid.c **** #if defined(MBEDTLS_ECP_C)
 451:D:/fchai/work/i-cube/I-CUBE-HUAWEI/Middlewares/Third_Party/Huawei/iot_link/network/dtls/mbedtls/mbedtls-2.16.2/library\oid.c **** /*
 452:D:/fchai/work/i-cube/I-CUBE-HUAWEI/Middlewares/Third_Party/Huawei/iot_link/network/dtls/mbedtls/mbedtls-2.16.2/library\oid.c ****  * For namedCurve (RFC 5480)
 453:D:/fchai/work/i-cube/I-CUBE-HUAWEI/Middlewares/Third_Party/Huawei/iot_link/network/dtls/mbedtls/mbedtls-2.16.2/library\oid.c ****  */
 454:D:/fchai/work/i-cube/I-CUBE-HUAWEI/Middlewares/Third_Party/Huawei/iot_link/network/dtls/mbedtls/mbedtls-2.16.2/library\oid.c **** typedef struct {
 455:D:/fchai/work/i-cube/I-CUBE-HUAWEI/Middlewares/Third_Party/Huawei/iot_link/network/dtls/mbedtls/mbedtls-2.16.2/library\oid.c ****     mbedtls_oid_descriptor_t    descriptor;
 456:D:/fchai/work/i-cube/I-CUBE-HUAWEI/Middlewares/Third_Party/Huawei/iot_link/network/dtls/mbedtls/mbedtls-2.16.2/library\oid.c ****     mbedtls_ecp_group_id        grp_id;
 457:D:/fchai/work/i-cube/I-CUBE-HUAWEI/Middlewares/Third_Party/Huawei/iot_link/network/dtls/mbedtls/mbedtls-2.16.2/library\oid.c **** } oid_ecp_grp_t;
 458:D:/fchai/work/i-cube/I-CUBE-HUAWEI/Middlewares/Third_Party/Huawei/iot_link/network/dtls/mbedtls/mbedtls-2.16.2/library\oid.c **** 
 459:D:/fchai/work/i-cube/I-CUBE-HUAWEI/Middlewares/Third_Party/Huawei/iot_link/network/dtls/mbedtls/mbedtls-2.16.2/library\oid.c **** static const oid_ecp_grp_t oid_ecp_grp[] =
 460:D:/fchai/work/i-cube/I-CUBE-HUAWEI/Middlewares/Third_Party/Huawei/iot_link/network/dtls/mbedtls/mbedtls-2.16.2/library\oid.c **** {
 461:D:/fchai/work/i-cube/I-CUBE-HUAWEI/Middlewares/Third_Party/Huawei/iot_link/network/dtls/mbedtls/mbedtls-2.16.2/library\oid.c **** #if defined(MBEDTLS_ECP_DP_SECP192R1_ENABLED)
 462:D:/fchai/work/i-cube/I-CUBE-HUAWEI/Middlewares/Third_Party/Huawei/iot_link/network/dtls/mbedtls/mbedtls-2.16.2/library\oid.c ****     {
 463:D:/fchai/work/i-cube/I-CUBE-HUAWEI/Middlewares/Third_Party/Huawei/iot_link/network/dtls/mbedtls/mbedtls-2.16.2/library\oid.c ****         { ADD_LEN( MBEDTLS_OID_EC_GRP_SECP192R1 ), "secp192r1",    "secp192r1" },
 464:D:/fchai/work/i-cube/I-CUBE-HUAWEI/Middlewares/Third_Party/Huawei/iot_link/network/dtls/mbedtls/mbedtls-2.16.2/library\oid.c ****         MBEDTLS_ECP_DP_SECP192R1,
 465:D:/fchai/work/i-cube/I-CUBE-HUAWEI/Middlewares/Third_Party/Huawei/iot_link/network/dtls/mbedtls/mbedtls-2.16.2/library\oid.c ****     },
 466:D:/fchai/work/i-cube/I-CUBE-HUAWEI/Middlewares/Third_Party/Huawei/iot_link/network/dtls/mbedtls/mbedtls-2.16.2/library\oid.c **** #endif /* MBEDTLS_ECP_DP_SECP192R1_ENABLED */
 467:D:/fchai/work/i-cube/I-CUBE-HUAWEI/Middlewares/Third_Party/Huawei/iot_link/network/dtls/mbedtls/mbedtls-2.16.2/library\oid.c **** #if defined(MBEDTLS_ECP_DP_SECP224R1_ENABLED)
 468:D:/fchai/work/i-cube/I-CUBE-HUAWEI/Middlewares/Third_Party/Huawei/iot_link/network/dtls/mbedtls/mbedtls-2.16.2/library\oid.c ****     {
 469:D:/fchai/work/i-cube/I-CUBE-HUAWEI/Middlewares/Third_Party/Huawei/iot_link/network/dtls/mbedtls/mbedtls-2.16.2/library\oid.c ****         { ADD_LEN( MBEDTLS_OID_EC_GRP_SECP224R1 ), "secp224r1",    "secp224r1" },
 470:D:/fchai/work/i-cube/I-CUBE-HUAWEI/Middlewares/Third_Party/Huawei/iot_link/network/dtls/mbedtls/mbedtls-2.16.2/library\oid.c ****         MBEDTLS_ECP_DP_SECP224R1,
 471:D:/fchai/work/i-cube/I-CUBE-HUAWEI/Middlewares/Third_Party/Huawei/iot_link/network/dtls/mbedtls/mbedtls-2.16.2/library\oid.c ****     },
 472:D:/fchai/work/i-cube/I-CUBE-HUAWEI/Middlewares/Third_Party/Huawei/iot_link/network/dtls/mbedtls/mbedtls-2.16.2/library\oid.c **** #endif /* MBEDTLS_ECP_DP_SECP224R1_ENABLED */
 473:D:/fchai/work/i-cube/I-CUBE-HUAWEI/Middlewares/Third_Party/Huawei/iot_link/network/dtls/mbedtls/mbedtls-2.16.2/library\oid.c **** #if defined(MBEDTLS_ECP_DP_SECP256R1_ENABLED)
 474:D:/fchai/work/i-cube/I-CUBE-HUAWEI/Middlewares/Third_Party/Huawei/iot_link/network/dtls/mbedtls/mbedtls-2.16.2/library\oid.c ****     {
 475:D:/fchai/work/i-cube/I-CUBE-HUAWEI/Middlewares/Third_Party/Huawei/iot_link/network/dtls/mbedtls/mbedtls-2.16.2/library\oid.c ****         { ADD_LEN( MBEDTLS_OID_EC_GRP_SECP256R1 ), "secp256r1",    "secp256r1" },
 476:D:/fchai/work/i-cube/I-CUBE-HUAWEI/Middlewares/Third_Party/Huawei/iot_link/network/dtls/mbedtls/mbedtls-2.16.2/library\oid.c ****         MBEDTLS_ECP_DP_SECP256R1,
 477:D:/fchai/work/i-cube/I-CUBE-HUAWEI/Middlewares/Third_Party/Huawei/iot_link/network/dtls/mbedtls/mbedtls-2.16.2/library\oid.c ****     },
 478:D:/fchai/work/i-cube/I-CUBE-HUAWEI/Middlewares/Third_Party/Huawei/iot_link/network/dtls/mbedtls/mbedtls-2.16.2/library\oid.c **** #endif /* MBEDTLS_ECP_DP_SECP256R1_ENABLED */
 479:D:/fchai/work/i-cube/I-CUBE-HUAWEI/Middlewares/Third_Party/Huawei/iot_link/network/dtls/mbedtls/mbedtls-2.16.2/library\oid.c **** #if defined(MBEDTLS_ECP_DP_SECP384R1_ENABLED)
 480:D:/fchai/work/i-cube/I-CUBE-HUAWEI/Middlewares/Third_Party/Huawei/iot_link/network/dtls/mbedtls/mbedtls-2.16.2/library\oid.c ****     {
 481:D:/fchai/work/i-cube/I-CUBE-HUAWEI/Middlewares/Third_Party/Huawei/iot_link/network/dtls/mbedtls/mbedtls-2.16.2/library\oid.c ****         { ADD_LEN( MBEDTLS_OID_EC_GRP_SECP384R1 ), "secp384r1",    "secp384r1" },
 482:D:/fchai/work/i-cube/I-CUBE-HUAWEI/Middlewares/Third_Party/Huawei/iot_link/network/dtls/mbedtls/mbedtls-2.16.2/library\oid.c ****         MBEDTLS_ECP_DP_SECP384R1,
 483:D:/fchai/work/i-cube/I-CUBE-HUAWEI/Middlewares/Third_Party/Huawei/iot_link/network/dtls/mbedtls/mbedtls-2.16.2/library\oid.c ****     },
 484:D:/fchai/work/i-cube/I-CUBE-HUAWEI/Middlewares/Third_Party/Huawei/iot_link/network/dtls/mbedtls/mbedtls-2.16.2/library\oid.c **** #endif /* MBEDTLS_ECP_DP_SECP384R1_ENABLED */
 485:D:/fchai/work/i-cube/I-CUBE-HUAWEI/Middlewares/Third_Party/Huawei/iot_link/network/dtls/mbedtls/mbedtls-2.16.2/library\oid.c **** #if defined(MBEDTLS_ECP_DP_SECP521R1_ENABLED)
 486:D:/fchai/work/i-cube/I-CUBE-HUAWEI/Middlewares/Third_Party/Huawei/iot_link/network/dtls/mbedtls/mbedtls-2.16.2/library\oid.c ****     {
 487:D:/fchai/work/i-cube/I-CUBE-HUAWEI/Middlewares/Third_Party/Huawei/iot_link/network/dtls/mbedtls/mbedtls-2.16.2/library\oid.c ****         { ADD_LEN( MBEDTLS_OID_EC_GRP_SECP521R1 ), "secp521r1",    "secp521r1" },
 488:D:/fchai/work/i-cube/I-CUBE-HUAWEI/Middlewares/Third_Party/Huawei/iot_link/network/dtls/mbedtls/mbedtls-2.16.2/library\oid.c ****         MBEDTLS_ECP_DP_SECP521R1,
 489:D:/fchai/work/i-cube/I-CUBE-HUAWEI/Middlewares/Third_Party/Huawei/iot_link/network/dtls/mbedtls/mbedtls-2.16.2/library\oid.c ****     },
 490:D:/fchai/work/i-cube/I-CUBE-HUAWEI/Middlewares/Third_Party/Huawei/iot_link/network/dtls/mbedtls/mbedtls-2.16.2/library\oid.c **** #endif /* MBEDTLS_ECP_DP_SECP521R1_ENABLED */
 491:D:/fchai/work/i-cube/I-CUBE-HUAWEI/Middlewares/Third_Party/Huawei/iot_link/network/dtls/mbedtls/mbedtls-2.16.2/library\oid.c **** #if defined(MBEDTLS_ECP_DP_SECP192K1_ENABLED)
 492:D:/fchai/work/i-cube/I-CUBE-HUAWEI/Middlewares/Third_Party/Huawei/iot_link/network/dtls/mbedtls/mbedtls-2.16.2/library\oid.c ****     {
 493:D:/fchai/work/i-cube/I-CUBE-HUAWEI/Middlewares/Third_Party/Huawei/iot_link/network/dtls/mbedtls/mbedtls-2.16.2/library\oid.c ****         { ADD_LEN( MBEDTLS_OID_EC_GRP_SECP192K1 ), "secp192k1",    "secp192k1" },
 494:D:/fchai/work/i-cube/I-CUBE-HUAWEI/Middlewares/Third_Party/Huawei/iot_link/network/dtls/mbedtls/mbedtls-2.16.2/library\oid.c ****         MBEDTLS_ECP_DP_SECP192K1,
 495:D:/fchai/work/i-cube/I-CUBE-HUAWEI/Middlewares/Third_Party/Huawei/iot_link/network/dtls/mbedtls/mbedtls-2.16.2/library\oid.c ****     },
 496:D:/fchai/work/i-cube/I-CUBE-HUAWEI/Middlewares/Third_Party/Huawei/iot_link/network/dtls/mbedtls/mbedtls-2.16.2/library\oid.c **** #endif /* MBEDTLS_ECP_DP_SECP192K1_ENABLED */
 497:D:/fchai/work/i-cube/I-CUBE-HUAWEI/Middlewares/Third_Party/Huawei/iot_link/network/dtls/mbedtls/mbedtls-2.16.2/library\oid.c **** #if defined(MBEDTLS_ECP_DP_SECP224K1_ENABLED)
 498:D:/fchai/work/i-cube/I-CUBE-HUAWEI/Middlewares/Third_Party/Huawei/iot_link/network/dtls/mbedtls/mbedtls-2.16.2/library\oid.c ****     {
 499:D:/fchai/work/i-cube/I-CUBE-HUAWEI/Middlewares/Third_Party/Huawei/iot_link/network/dtls/mbedtls/mbedtls-2.16.2/library\oid.c ****         { ADD_LEN( MBEDTLS_OID_EC_GRP_SECP224K1 ), "secp224k1",    "secp224k1" },
 500:D:/fchai/work/i-cube/I-CUBE-HUAWEI/Middlewares/Third_Party/Huawei/iot_link/network/dtls/mbedtls/mbedtls-2.16.2/library\oid.c ****         MBEDTLS_ECP_DP_SECP224K1,
ARM GAS  T:\msys\tmp\cclxXSYZ.s 			page 27


 501:D:/fchai/work/i-cube/I-CUBE-HUAWEI/Middlewares/Third_Party/Huawei/iot_link/network/dtls/mbedtls/mbedtls-2.16.2/library\oid.c ****     },
 502:D:/fchai/work/i-cube/I-CUBE-HUAWEI/Middlewares/Third_Party/Huawei/iot_link/network/dtls/mbedtls/mbedtls-2.16.2/library\oid.c **** #endif /* MBEDTLS_ECP_DP_SECP224K1_ENABLED */
 503:D:/fchai/work/i-cube/I-CUBE-HUAWEI/Middlewares/Third_Party/Huawei/iot_link/network/dtls/mbedtls/mbedtls-2.16.2/library\oid.c **** #if defined(MBEDTLS_ECP_DP_SECP256K1_ENABLED)
 504:D:/fchai/work/i-cube/I-CUBE-HUAWEI/Middlewares/Third_Party/Huawei/iot_link/network/dtls/mbedtls/mbedtls-2.16.2/library\oid.c ****     {
 505:D:/fchai/work/i-cube/I-CUBE-HUAWEI/Middlewares/Third_Party/Huawei/iot_link/network/dtls/mbedtls/mbedtls-2.16.2/library\oid.c ****         { ADD_LEN( MBEDTLS_OID_EC_GRP_SECP256K1 ), "secp256k1",    "secp256k1" },
 506:D:/fchai/work/i-cube/I-CUBE-HUAWEI/Middlewares/Third_Party/Huawei/iot_link/network/dtls/mbedtls/mbedtls-2.16.2/library\oid.c ****         MBEDTLS_ECP_DP_SECP256K1,
 507:D:/fchai/work/i-cube/I-CUBE-HUAWEI/Middlewares/Third_Party/Huawei/iot_link/network/dtls/mbedtls/mbedtls-2.16.2/library\oid.c ****     },
 508:D:/fchai/work/i-cube/I-CUBE-HUAWEI/Middlewares/Third_Party/Huawei/iot_link/network/dtls/mbedtls/mbedtls-2.16.2/library\oid.c **** #endif /* MBEDTLS_ECP_DP_SECP256K1_ENABLED */
 509:D:/fchai/work/i-cube/I-CUBE-HUAWEI/Middlewares/Third_Party/Huawei/iot_link/network/dtls/mbedtls/mbedtls-2.16.2/library\oid.c **** #if defined(MBEDTLS_ECP_DP_BP256R1_ENABLED)
 510:D:/fchai/work/i-cube/I-CUBE-HUAWEI/Middlewares/Third_Party/Huawei/iot_link/network/dtls/mbedtls/mbedtls-2.16.2/library\oid.c ****     {
 511:D:/fchai/work/i-cube/I-CUBE-HUAWEI/Middlewares/Third_Party/Huawei/iot_link/network/dtls/mbedtls/mbedtls-2.16.2/library\oid.c ****         { ADD_LEN( MBEDTLS_OID_EC_GRP_BP256R1 ),   "brainpoolP256r1","brainpool256r1" },
 512:D:/fchai/work/i-cube/I-CUBE-HUAWEI/Middlewares/Third_Party/Huawei/iot_link/network/dtls/mbedtls/mbedtls-2.16.2/library\oid.c ****         MBEDTLS_ECP_DP_BP256R1,
 513:D:/fchai/work/i-cube/I-CUBE-HUAWEI/Middlewares/Third_Party/Huawei/iot_link/network/dtls/mbedtls/mbedtls-2.16.2/library\oid.c ****     },
 514:D:/fchai/work/i-cube/I-CUBE-HUAWEI/Middlewares/Third_Party/Huawei/iot_link/network/dtls/mbedtls/mbedtls-2.16.2/library\oid.c **** #endif /* MBEDTLS_ECP_DP_BP256R1_ENABLED */
 515:D:/fchai/work/i-cube/I-CUBE-HUAWEI/Middlewares/Third_Party/Huawei/iot_link/network/dtls/mbedtls/mbedtls-2.16.2/library\oid.c **** #if defined(MBEDTLS_ECP_DP_BP384R1_ENABLED)
 516:D:/fchai/work/i-cube/I-CUBE-HUAWEI/Middlewares/Third_Party/Huawei/iot_link/network/dtls/mbedtls/mbedtls-2.16.2/library\oid.c ****     {
 517:D:/fchai/work/i-cube/I-CUBE-HUAWEI/Middlewares/Third_Party/Huawei/iot_link/network/dtls/mbedtls/mbedtls-2.16.2/library\oid.c ****         { ADD_LEN( MBEDTLS_OID_EC_GRP_BP384R1 ),   "brainpoolP384r1","brainpool384r1" },
 518:D:/fchai/work/i-cube/I-CUBE-HUAWEI/Middlewares/Third_Party/Huawei/iot_link/network/dtls/mbedtls/mbedtls-2.16.2/library\oid.c ****         MBEDTLS_ECP_DP_BP384R1,
 519:D:/fchai/work/i-cube/I-CUBE-HUAWEI/Middlewares/Third_Party/Huawei/iot_link/network/dtls/mbedtls/mbedtls-2.16.2/library\oid.c ****     },
 520:D:/fchai/work/i-cube/I-CUBE-HUAWEI/Middlewares/Third_Party/Huawei/iot_link/network/dtls/mbedtls/mbedtls-2.16.2/library\oid.c **** #endif /* MBEDTLS_ECP_DP_BP384R1_ENABLED */
 521:D:/fchai/work/i-cube/I-CUBE-HUAWEI/Middlewares/Third_Party/Huawei/iot_link/network/dtls/mbedtls/mbedtls-2.16.2/library\oid.c **** #if defined(MBEDTLS_ECP_DP_BP512R1_ENABLED)
 522:D:/fchai/work/i-cube/I-CUBE-HUAWEI/Middlewares/Third_Party/Huawei/iot_link/network/dtls/mbedtls/mbedtls-2.16.2/library\oid.c ****     {
 523:D:/fchai/work/i-cube/I-CUBE-HUAWEI/Middlewares/Third_Party/Huawei/iot_link/network/dtls/mbedtls/mbedtls-2.16.2/library\oid.c ****         { ADD_LEN( MBEDTLS_OID_EC_GRP_BP512R1 ),   "brainpoolP512r1","brainpool512r1" },
 524:D:/fchai/work/i-cube/I-CUBE-HUAWEI/Middlewares/Third_Party/Huawei/iot_link/network/dtls/mbedtls/mbedtls-2.16.2/library\oid.c ****         MBEDTLS_ECP_DP_BP512R1,
 525:D:/fchai/work/i-cube/I-CUBE-HUAWEI/Middlewares/Third_Party/Huawei/iot_link/network/dtls/mbedtls/mbedtls-2.16.2/library\oid.c ****     },
 526:D:/fchai/work/i-cube/I-CUBE-HUAWEI/Middlewares/Third_Party/Huawei/iot_link/network/dtls/mbedtls/mbedtls-2.16.2/library\oid.c **** #endif /* MBEDTLS_ECP_DP_BP512R1_ENABLED */
 527:D:/fchai/work/i-cube/I-CUBE-HUAWEI/Middlewares/Third_Party/Huawei/iot_link/network/dtls/mbedtls/mbedtls-2.16.2/library\oid.c ****     {
 528:D:/fchai/work/i-cube/I-CUBE-HUAWEI/Middlewares/Third_Party/Huawei/iot_link/network/dtls/mbedtls/mbedtls-2.16.2/library\oid.c ****         { NULL, 0, NULL, NULL },
 529:D:/fchai/work/i-cube/I-CUBE-HUAWEI/Middlewares/Third_Party/Huawei/iot_link/network/dtls/mbedtls/mbedtls-2.16.2/library\oid.c ****         MBEDTLS_ECP_DP_NONE,
 530:D:/fchai/work/i-cube/I-CUBE-HUAWEI/Middlewares/Third_Party/Huawei/iot_link/network/dtls/mbedtls/mbedtls-2.16.2/library\oid.c ****     },
 531:D:/fchai/work/i-cube/I-CUBE-HUAWEI/Middlewares/Third_Party/Huawei/iot_link/network/dtls/mbedtls/mbedtls-2.16.2/library\oid.c **** };
 532:D:/fchai/work/i-cube/I-CUBE-HUAWEI/Middlewares/Third_Party/Huawei/iot_link/network/dtls/mbedtls/mbedtls-2.16.2/library\oid.c **** 
 533:D:/fchai/work/i-cube/I-CUBE-HUAWEI/Middlewares/Third_Party/Huawei/iot_link/network/dtls/mbedtls/mbedtls-2.16.2/library\oid.c **** FN_OID_TYPED_FROM_ASN1(oid_ecp_grp_t, grp_id, oid_ecp_grp)
 534:D:/fchai/work/i-cube/I-CUBE-HUAWEI/Middlewares/Third_Party/Huawei/iot_link/network/dtls/mbedtls/mbedtls-2.16.2/library\oid.c **** FN_OID_GET_ATTR1(mbedtls_oid_get_ec_grp, oid_ecp_grp_t, grp_id, mbedtls_ecp_group_id, grp_id)
 908              		.loc 1 534 1 is_stmt 1 view -0
 909              		.cfi_startproc
 910              		@ args = 0, pretend = 0, frame = 0
 911              		@ frame_needed = 0, uses_anonymous_args = 0
 912              		.loc 1 534 1 view .LVU172
 913              	.LBB40:
 914              	.LBI40:
 533:D:/fchai/work/i-cube/I-CUBE-HUAWEI/Middlewares/Third_Party/Huawei/iot_link/network/dtls/mbedtls/mbedtls-2.16.2/library\oid.c **** FN_OID_GET_ATTR1(mbedtls_oid_get_ec_grp, oid_ecp_grp_t, grp_id, mbedtls_ecp_group_id, grp_id)
 915              		.loc 1 533 1 view .LVU173
 916              	.LBB41:
 533:D:/fchai/work/i-cube/I-CUBE-HUAWEI/Middlewares/Third_Party/Huawei/iot_link/network/dtls/mbedtls/mbedtls-2.16.2/library\oid.c **** FN_OID_GET_ATTR1(mbedtls_oid_get_ec_grp, oid_ecp_grp_t, grp_id, mbedtls_ecp_group_id, grp_id)
 917              		.loc 1 533 1 view .LVU174
 533:D:/fchai/work/i-cube/I-CUBE-HUAWEI/Middlewares/Third_Party/Huawei/iot_link/network/dtls/mbedtls/mbedtls-2.16.2/library\oid.c **** FN_OID_GET_ATTR1(mbedtls_oid_get_ec_grp, oid_ecp_grp_t, grp_id, mbedtls_ecp_group_id, grp_id)
 918              		.loc 1 533 1 view .LVU175
 533:D:/fchai/work/i-cube/I-CUBE-HUAWEI/Middlewares/Third_Party/Huawei/iot_link/network/dtls/mbedtls/mbedtls-2.16.2/library\oid.c **** FN_OID_GET_ATTR1(mbedtls_oid_get_ec_grp, oid_ecp_grp_t, grp_id, mbedtls_ecp_group_id, grp_id)
 919              		.loc 1 533 1 view .LVU176
 920 0000 C8B1     		cbz	r0, .L102
 921              	.LBE41:
 922              	.LBE40:
 923              		.loc 1 534 1 is_stmt 0 view .LVU177
 924 0002 F8B5     		push	{r3, r4, r5, r6, r7, lr}
 925              	.LCFI23:
 926              		.cfi_def_cfa_offset 24
ARM GAS  T:\msys\tmp\cclxXSYZ.s 			page 28


 927              		.cfi_offset 3, -24
 928              		.cfi_offset 4, -20
 929              		.cfi_offset 5, -16
 930              		.cfi_offset 6, -12
 931              		.cfi_offset 7, -8
 932              		.cfi_offset 14, -4
 933              	.LBB43:
 934              	.LBB42:
 533:D:/fchai/work/i-cube/I-CUBE-HUAWEI/Middlewares/Third_Party/Huawei/iot_link/network/dtls/mbedtls/mbedtls-2.16.2/library\oid.c **** FN_OID_GET_ATTR1(mbedtls_oid_get_ec_grp, oid_ecp_grp_t, grp_id, mbedtls_ecp_group_id, grp_id)
 935              		.loc 1 533 1 view .LVU178
 936 0004 4768     		ldr	r7, [r0, #4]
 937 0006 0D4D     		ldr	r5, .L108
 938 0008 0446     		mov	r4, r0
 939 000a 0E46     		mov	r6, r1
 940 000c 0C48     		ldr	r0, .L108+4
 941              	.LVL85:
 533:D:/fchai/work/i-cube/I-CUBE-HUAWEI/Middlewares/Third_Party/Huawei/iot_link/network/dtls/mbedtls/mbedtls-2.16.2/library\oid.c **** FN_OID_GET_ATTR1(mbedtls_oid_get_ec_grp, oid_ecp_grp_t, grp_id, mbedtls_ecp_group_id, grp_id)
 942              		.loc 1 533 1 view .LVU179
 943 000e 0823     		movs	r3, #8
 944 0010 03E0     		b	.L101
 945              	.LVL86:
 946              	.L99:
 533:D:/fchai/work/i-cube/I-CUBE-HUAWEI/Middlewares/Third_Party/Huawei/iot_link/network/dtls/mbedtls/mbedtls-2.16.2/library\oid.c **** FN_OID_GET_ATTR1(mbedtls_oid_get_ec_grp, oid_ecp_grp_t, grp_id, mbedtls_ecp_group_id, grp_id)
 947              		.loc 1 533 1 is_stmt 1 view .LVU180
 533:D:/fchai/work/i-cube/I-CUBE-HUAWEI/Middlewares/Third_Party/Huawei/iot_link/network/dtls/mbedtls/mbedtls-2.16.2/library\oid.c **** FN_OID_GET_ATTR1(mbedtls_oid_get_ec_grp, oid_ecp_grp_t, grp_id, mbedtls_ecp_group_id, grp_id)
 948              		.loc 1 533 1 view .LVU181
 533:D:/fchai/work/i-cube/I-CUBE-HUAWEI/Middlewares/Third_Party/Huawei/iot_link/network/dtls/mbedtls/mbedtls-2.16.2/library\oid.c **** FN_OID_GET_ATTR1(mbedtls_oid_get_ec_grp, oid_ecp_grp_t, grp_id, mbedtls_ecp_group_id, grp_id)
 949              		.loc 1 533 1 view .LVU182
 950 0012 55F8140F 		ldr	r0, [r5, #20]!
 951              	.LVL87:
 533:D:/fchai/work/i-cube/I-CUBE-HUAWEI/Middlewares/Third_Party/Huawei/iot_link/network/dtls/mbedtls/mbedtls-2.16.2/library\oid.c **** FN_OID_GET_ATTR1(mbedtls_oid_get_ec_grp, oid_ecp_grp_t, grp_id, mbedtls_ecp_group_id, grp_id)
 952              		.loc 1 533 1 is_stmt 0 view .LVU183
 953 0016 58B1     		cbz	r0, .L103
 954 0018 6B68     		ldr	r3, [r5, #4]
 955              	.LVL88:
 956              	.L101:
 533:D:/fchai/work/i-cube/I-CUBE-HUAWEI/Middlewares/Third_Party/Huawei/iot_link/network/dtls/mbedtls/mbedtls-2.16.2/library\oid.c **** FN_OID_GET_ATTR1(mbedtls_oid_get_ec_grp, oid_ecp_grp_t, grp_id, mbedtls_ecp_group_id, grp_id)
 957              		.loc 1 533 1 is_stmt 1 view .LVU184
 958 001a 9F42     		cmp	r7, r3
 959 001c F9D1     		bne	.L99
 960 001e A168     		ldr	r1, [r4, #8]
 961 0020 3A46     		mov	r2, r7
 962 0022 FFF7FEFF 		bl	memcmp
 963              	.LVL89:
 964 0026 0028     		cmp	r0, #0
 965 0028 F3D1     		bne	.L99
 966              	.LVL90:
 533:D:/fchai/work/i-cube/I-CUBE-HUAWEI/Middlewares/Third_Party/Huawei/iot_link/network/dtls/mbedtls/mbedtls-2.16.2/library\oid.c **** FN_OID_GET_ATTR1(mbedtls_oid_get_ec_grp, oid_ecp_grp_t, grp_id, mbedtls_ecp_group_id, grp_id)
 967              		.loc 1 533 1 is_stmt 0 view .LVU185
 968              	.LBE42:
 969              	.LBE43:
 970              		.loc 1 534 1 is_stmt 1 view .LVU186
 971              		.loc 1 534 1 view .LVU187
 972 002a 2B7C     		ldrb	r3, [r5, #16]	@ zero_extendqisi2
 973 002c 3370     		strb	r3, [r6]
 974              		.loc 1 534 1 view .LVU188
 975 002e F8BD     		pop	{r3, r4, r5, r6, r7, pc}
ARM GAS  T:\msys\tmp\cclxXSYZ.s 			page 29


 976              	.LVL91:
 977              	.L103:
 978              		.loc 1 534 1 is_stmt 0 view .LVU189
 979 0030 6FF02D00 		mvn	r0, #45
 980              	.LVL92:
 981              		.loc 1 534 1 view .LVU190
 982 0034 F8BD     		pop	{r3, r4, r5, r6, r7, pc}
 983              	.LVL93:
 984              	.L102:
 985              	.LCFI24:
 986              		.cfi_def_cfa_offset 0
 987              		.cfi_restore 3
 988              		.cfi_restore 4
 989              		.cfi_restore 5
 990              		.cfi_restore 6
 991              		.cfi_restore 7
 992              		.cfi_restore 14
 993              		.loc 1 534 1 view .LVU191
 994 0036 6FF02D00 		mvn	r0, #45
 995              	.LVL94:
 996              		.loc 1 534 1 view .LVU192
 997 003a 7047     		bx	lr
 998              	.L109:
 999              		.align	2
 1000              	.L108:
 1001 003c 00000000 		.word	.LANCHOR5
 1002 0040 00000000 		.word	.LC5
 1003              		.cfi_endproc
 1004              	.LFE27:
 1006              		.section	.text.mbedtls_oid_get_oid_by_ec_grp,"ax",%progbits
 1007              		.align	1
 1008              		.p2align 2,,3
 1009              		.global	mbedtls_oid_get_oid_by_ec_grp
 1010              		.syntax unified
 1011              		.thumb
 1012              		.thumb_func
 1013              		.fpu fpv4-sp-d16
 1015              	mbedtls_oid_get_oid_by_ec_grp:
 1016              	.LVL95:
 1017              	.LFB28:
 535:D:/fchai/work/i-cube/I-CUBE-HUAWEI/Middlewares/Third_Party/Huawei/iot_link/network/dtls/mbedtls/mbedtls-2.16.2/library\oid.c **** FN_OID_GET_OID_BY_ATTR1(mbedtls_oid_get_oid_by_ec_grp, oid_ecp_grp_t, oid_ecp_grp, mbedtls_ecp_grou
 1018              		.loc 1 535 1 is_stmt 1 view -0
 1019              		.cfi_startproc
 1020              		@ args = 0, pretend = 0, frame = 0
 1021              		@ frame_needed = 0, uses_anonymous_args = 0
 1022              		@ link register save eliminated.
 1023              		.loc 1 535 1 view .LVU194
 1024              		.loc 1 535 1 view .LVU195
 1025              		.loc 1 535 1 view .LVU196
 1026 0000 30B4     		push	{r4, r5}
 1027              	.LCFI25:
 1028              		.cfi_def_cfa_offset 8
 1029              		.cfi_offset 4, -8
 1030              		.cfi_offset 5, -4
 1031 0002 0A4B     		ldr	r3, .L116
 1032              		.loc 1 535 1 is_stmt 0 view .LVU197
 1033 0004 0A4C     		ldr	r4, .L116+4
ARM GAS  T:\msys\tmp\cclxXSYZ.s 			page 30


 1034 0006 0125     		movs	r5, #1
 1035 0008 03E0     		b	.L113
 1036              	.LVL96:
 1037              	.L111:
 1038              		.loc 1 535 1 discriminator 3 view .LVU198
 1039 000a 53F8144F 		ldr	r4, [r3, #20]!
 1040              	.LVL97:
 1041              		.loc 1 535 1 discriminator 3 view .LVU199
 1042 000e 44B1     		cbz	r4, .L114
 1043 0010 1D7C     		ldrb	r5, [r3, #16]	@ zero_extendqisi2
 1044              	.LVL98:
 1045              	.L113:
 1046              		.loc 1 535 1 is_stmt 1 discriminator 5 view .LVU200
 1047              		.loc 1 535 1 discriminator 5 view .LVU201
 1048              		.loc 1 535 1 discriminator 5 view .LVU202
 1049 0012 8542     		cmp	r5, r0
 1050 0014 F9D1     		bne	.L111
 1051              		.loc 1 535 1 discriminator 2 view .LVU203
 1052 0016 5B68     		ldr	r3, [r3, #4]
 1053              	.LVL99:
 1054              		.loc 1 535 1 is_stmt 0 discriminator 2 view .LVU204
 1055 0018 0C60     		str	r4, [r1]
 1056              		.loc 1 535 1 is_stmt 1 discriminator 2 view .LVU205
 1057 001a 0020     		movs	r0, #0
 1058              	.LVL100:
 1059              		.loc 1 535 1 is_stmt 0 discriminator 2 view .LVU206
 1060 001c 30BC     		pop	{r4, r5}
 1061              	.LCFI26:
 1062              		.cfi_remember_state
 1063              		.cfi_restore 5
 1064              		.cfi_restore 4
 1065              		.cfi_def_cfa_offset 0
 1066 001e 1360     		str	r3, [r2]
 1067              		.loc 1 535 1 is_stmt 1 discriminator 2 view .LVU207
 1068 0020 7047     		bx	lr
 1069              	.LVL101:
 1070              	.L114:
 1071              	.LCFI27:
 1072              		.cfi_restore_state
 1073              		.loc 1 535 1 is_stmt 0 view .LVU208
 1074 0022 6FF02D00 		mvn	r0, #45
 1075              	.LVL102:
 1076              		.loc 1 535 1 view .LVU209
 1077 0026 30BC     		pop	{r4, r5}
 1078              	.LCFI28:
 1079              		.cfi_restore 5
 1080              		.cfi_restore 4
 1081              		.cfi_def_cfa_offset 0
 1082 0028 7047     		bx	lr
 1083              	.L117:
 1084 002a 00BF     		.align	2
 1085              	.L116:
 1086 002c 00000000 		.word	.LANCHOR5
 1087 0030 00000000 		.word	.LC5
 1088              		.cfi_endproc
 1089              	.LFE28:
 1091              		.section	.rodata.mbedtls_oid_get_cipher_alg.str1.4,"aMS",%progbits,1
ARM GAS  T:\msys\tmp\cclxXSYZ.s 			page 31


 1092              		.align	2
 1093              	.LC6:
 1094 0000 2B0E0302 		.ascii	"+\016\003\002\007\000"
 1094      0700
 1095              		.section	.text.mbedtls_oid_get_cipher_alg,"ax",%progbits
 1096              		.align	1
 1097              		.p2align 2,,3
 1098              		.global	mbedtls_oid_get_cipher_alg
 1099              		.syntax unified
 1100              		.thumb
 1101              		.thumb_func
 1102              		.fpu fpv4-sp-d16
 1104              	mbedtls_oid_get_cipher_alg:
 1105              	.LVL103:
 1106              	.LFB30:
 536:D:/fchai/work/i-cube/I-CUBE-HUAWEI/Middlewares/Third_Party/Huawei/iot_link/network/dtls/mbedtls/mbedtls-2.16.2/library\oid.c **** #endif /* MBEDTLS_ECP_C */
 537:D:/fchai/work/i-cube/I-CUBE-HUAWEI/Middlewares/Third_Party/Huawei/iot_link/network/dtls/mbedtls/mbedtls-2.16.2/library\oid.c **** 
 538:D:/fchai/work/i-cube/I-CUBE-HUAWEI/Middlewares/Third_Party/Huawei/iot_link/network/dtls/mbedtls/mbedtls-2.16.2/library\oid.c **** #if defined(MBEDTLS_CIPHER_C)
 539:D:/fchai/work/i-cube/I-CUBE-HUAWEI/Middlewares/Third_Party/Huawei/iot_link/network/dtls/mbedtls/mbedtls-2.16.2/library\oid.c **** /*
 540:D:/fchai/work/i-cube/I-CUBE-HUAWEI/Middlewares/Third_Party/Huawei/iot_link/network/dtls/mbedtls/mbedtls-2.16.2/library\oid.c ****  * For PKCS#5 PBES2 encryption algorithm
 541:D:/fchai/work/i-cube/I-CUBE-HUAWEI/Middlewares/Third_Party/Huawei/iot_link/network/dtls/mbedtls/mbedtls-2.16.2/library\oid.c ****  */
 542:D:/fchai/work/i-cube/I-CUBE-HUAWEI/Middlewares/Third_Party/Huawei/iot_link/network/dtls/mbedtls/mbedtls-2.16.2/library\oid.c **** typedef struct {
 543:D:/fchai/work/i-cube/I-CUBE-HUAWEI/Middlewares/Third_Party/Huawei/iot_link/network/dtls/mbedtls/mbedtls-2.16.2/library\oid.c ****     mbedtls_oid_descriptor_t    descriptor;
 544:D:/fchai/work/i-cube/I-CUBE-HUAWEI/Middlewares/Third_Party/Huawei/iot_link/network/dtls/mbedtls/mbedtls-2.16.2/library\oid.c ****     mbedtls_cipher_type_t       cipher_alg;
 545:D:/fchai/work/i-cube/I-CUBE-HUAWEI/Middlewares/Third_Party/Huawei/iot_link/network/dtls/mbedtls/mbedtls-2.16.2/library\oid.c **** } oid_cipher_alg_t;
 546:D:/fchai/work/i-cube/I-CUBE-HUAWEI/Middlewares/Third_Party/Huawei/iot_link/network/dtls/mbedtls/mbedtls-2.16.2/library\oid.c **** 
 547:D:/fchai/work/i-cube/I-CUBE-HUAWEI/Middlewares/Third_Party/Huawei/iot_link/network/dtls/mbedtls/mbedtls-2.16.2/library\oid.c **** static const oid_cipher_alg_t oid_cipher_alg[] =
 548:D:/fchai/work/i-cube/I-CUBE-HUAWEI/Middlewares/Third_Party/Huawei/iot_link/network/dtls/mbedtls/mbedtls-2.16.2/library\oid.c **** {
 549:D:/fchai/work/i-cube/I-CUBE-HUAWEI/Middlewares/Third_Party/Huawei/iot_link/network/dtls/mbedtls/mbedtls-2.16.2/library\oid.c ****     {
 550:D:/fchai/work/i-cube/I-CUBE-HUAWEI/Middlewares/Third_Party/Huawei/iot_link/network/dtls/mbedtls/mbedtls-2.16.2/library\oid.c ****         { ADD_LEN( MBEDTLS_OID_DES_CBC ),              "desCBC",       "DES-CBC" },
 551:D:/fchai/work/i-cube/I-CUBE-HUAWEI/Middlewares/Third_Party/Huawei/iot_link/network/dtls/mbedtls/mbedtls-2.16.2/library\oid.c ****         MBEDTLS_CIPHER_DES_CBC,
 552:D:/fchai/work/i-cube/I-CUBE-HUAWEI/Middlewares/Third_Party/Huawei/iot_link/network/dtls/mbedtls/mbedtls-2.16.2/library\oid.c ****     },
 553:D:/fchai/work/i-cube/I-CUBE-HUAWEI/Middlewares/Third_Party/Huawei/iot_link/network/dtls/mbedtls/mbedtls-2.16.2/library\oid.c ****     {
 554:D:/fchai/work/i-cube/I-CUBE-HUAWEI/Middlewares/Third_Party/Huawei/iot_link/network/dtls/mbedtls/mbedtls-2.16.2/library\oid.c ****         { ADD_LEN( MBEDTLS_OID_DES_EDE3_CBC ),         "des-ede3-cbc", "DES-EDE3-CBC" },
 555:D:/fchai/work/i-cube/I-CUBE-HUAWEI/Middlewares/Third_Party/Huawei/iot_link/network/dtls/mbedtls/mbedtls-2.16.2/library\oid.c ****         MBEDTLS_CIPHER_DES_EDE3_CBC,
 556:D:/fchai/work/i-cube/I-CUBE-HUAWEI/Middlewares/Third_Party/Huawei/iot_link/network/dtls/mbedtls/mbedtls-2.16.2/library\oid.c ****     },
 557:D:/fchai/work/i-cube/I-CUBE-HUAWEI/Middlewares/Third_Party/Huawei/iot_link/network/dtls/mbedtls/mbedtls-2.16.2/library\oid.c ****     {
 558:D:/fchai/work/i-cube/I-CUBE-HUAWEI/Middlewares/Third_Party/Huawei/iot_link/network/dtls/mbedtls/mbedtls-2.16.2/library\oid.c ****         { NULL, 0, NULL, NULL },
 559:D:/fchai/work/i-cube/I-CUBE-HUAWEI/Middlewares/Third_Party/Huawei/iot_link/network/dtls/mbedtls/mbedtls-2.16.2/library\oid.c ****         MBEDTLS_CIPHER_NONE,
 560:D:/fchai/work/i-cube/I-CUBE-HUAWEI/Middlewares/Third_Party/Huawei/iot_link/network/dtls/mbedtls/mbedtls-2.16.2/library\oid.c ****     },
 561:D:/fchai/work/i-cube/I-CUBE-HUAWEI/Middlewares/Third_Party/Huawei/iot_link/network/dtls/mbedtls/mbedtls-2.16.2/library\oid.c **** };
 562:D:/fchai/work/i-cube/I-CUBE-HUAWEI/Middlewares/Third_Party/Huawei/iot_link/network/dtls/mbedtls/mbedtls-2.16.2/library\oid.c **** 
 563:D:/fchai/work/i-cube/I-CUBE-HUAWEI/Middlewares/Third_Party/Huawei/iot_link/network/dtls/mbedtls/mbedtls-2.16.2/library\oid.c **** FN_OID_TYPED_FROM_ASN1(oid_cipher_alg_t, cipher_alg, oid_cipher_alg)
 564:D:/fchai/work/i-cube/I-CUBE-HUAWEI/Middlewares/Third_Party/Huawei/iot_link/network/dtls/mbedtls/mbedtls-2.16.2/library\oid.c **** FN_OID_GET_ATTR1(mbedtls_oid_get_cipher_alg, oid_cipher_alg_t, cipher_alg, mbedtls_cipher_type_t, c
 1107              		.loc 1 564 1 is_stmt 1 view -0
 1108              		.cfi_startproc
 1109              		@ args = 0, pretend = 0, frame = 0
 1110              		@ frame_needed = 0, uses_anonymous_args = 0
 1111              		.loc 1 564 1 view .LVU211
 1112              	.LBB46:
 1113              	.LBI46:
 563:D:/fchai/work/i-cube/I-CUBE-HUAWEI/Middlewares/Third_Party/Huawei/iot_link/network/dtls/mbedtls/mbedtls-2.16.2/library\oid.c **** FN_OID_GET_ATTR1(mbedtls_oid_get_cipher_alg, oid_cipher_alg_t, cipher_alg, mbedtls_cipher_type_t, c
 1114              		.loc 1 563 1 view .LVU212
 1115              	.LBB47:
 563:D:/fchai/work/i-cube/I-CUBE-HUAWEI/Middlewares/Third_Party/Huawei/iot_link/network/dtls/mbedtls/mbedtls-2.16.2/library\oid.c **** FN_OID_GET_ATTR1(mbedtls_oid_get_cipher_alg, oid_cipher_alg_t, cipher_alg, mbedtls_cipher_type_t, c
 1116              		.loc 1 563 1 view .LVU213
 563:D:/fchai/work/i-cube/I-CUBE-HUAWEI/Middlewares/Third_Party/Huawei/iot_link/network/dtls/mbedtls/mbedtls-2.16.2/library\oid.c **** FN_OID_GET_ATTR1(mbedtls_oid_get_cipher_alg, oid_cipher_alg_t, cipher_alg, mbedtls_cipher_type_t, c
ARM GAS  T:\msys\tmp\cclxXSYZ.s 			page 32


 1117              		.loc 1 563 1 view .LVU214
 563:D:/fchai/work/i-cube/I-CUBE-HUAWEI/Middlewares/Third_Party/Huawei/iot_link/network/dtls/mbedtls/mbedtls-2.16.2/library\oid.c **** FN_OID_GET_ATTR1(mbedtls_oid_get_cipher_alg, oid_cipher_alg_t, cipher_alg, mbedtls_cipher_type_t, c
 1118              		.loc 1 563 1 view .LVU215
 1119 0000 C8B1     		cbz	r0, .L123
 1120              	.LBE47:
 1121              	.LBE46:
 1122              		.loc 1 564 1 is_stmt 0 view .LVU216
 1123 0002 F8B5     		push	{r3, r4, r5, r6, r7, lr}
 1124              	.LCFI29:
 1125              		.cfi_def_cfa_offset 24
 1126              		.cfi_offset 3, -24
 1127              		.cfi_offset 4, -20
 1128              		.cfi_offset 5, -16
 1129              		.cfi_offset 6, -12
 1130              		.cfi_offset 7, -8
 1131              		.cfi_offset 14, -4
 1132              	.LBB49:
 1133              	.LBB48:
 563:D:/fchai/work/i-cube/I-CUBE-HUAWEI/Middlewares/Third_Party/Huawei/iot_link/network/dtls/mbedtls/mbedtls-2.16.2/library\oid.c **** FN_OID_GET_ATTR1(mbedtls_oid_get_cipher_alg, oid_cipher_alg_t, cipher_alg, mbedtls_cipher_type_t, c
 1134              		.loc 1 563 1 view .LVU217
 1135 0004 4768     		ldr	r7, [r0, #4]
 1136 0006 0D4D     		ldr	r5, .L129
 1137 0008 0446     		mov	r4, r0
 1138 000a 0E46     		mov	r6, r1
 1139 000c 0C48     		ldr	r0, .L129+4
 1140              	.LVL104:
 563:D:/fchai/work/i-cube/I-CUBE-HUAWEI/Middlewares/Third_Party/Huawei/iot_link/network/dtls/mbedtls/mbedtls-2.16.2/library\oid.c **** FN_OID_GET_ATTR1(mbedtls_oid_get_cipher_alg, oid_cipher_alg_t, cipher_alg, mbedtls_cipher_type_t, c
 1141              		.loc 1 563 1 view .LVU218
 1142 000e 0523     		movs	r3, #5
 1143 0010 03E0     		b	.L122
 1144              	.LVL105:
 1145              	.L120:
 563:D:/fchai/work/i-cube/I-CUBE-HUAWEI/Middlewares/Third_Party/Huawei/iot_link/network/dtls/mbedtls/mbedtls-2.16.2/library\oid.c **** FN_OID_GET_ATTR1(mbedtls_oid_get_cipher_alg, oid_cipher_alg_t, cipher_alg, mbedtls_cipher_type_t, c
 1146              		.loc 1 563 1 is_stmt 1 view .LVU219
 563:D:/fchai/work/i-cube/I-CUBE-HUAWEI/Middlewares/Third_Party/Huawei/iot_link/network/dtls/mbedtls/mbedtls-2.16.2/library\oid.c **** FN_OID_GET_ATTR1(mbedtls_oid_get_cipher_alg, oid_cipher_alg_t, cipher_alg, mbedtls_cipher_type_t, c
 1147              		.loc 1 563 1 view .LVU220
 563:D:/fchai/work/i-cube/I-CUBE-HUAWEI/Middlewares/Third_Party/Huawei/iot_link/network/dtls/mbedtls/mbedtls-2.16.2/library\oid.c **** FN_OID_GET_ATTR1(mbedtls_oid_get_cipher_alg, oid_cipher_alg_t, cipher_alg, mbedtls_cipher_type_t, c
 1148              		.loc 1 563 1 view .LVU221
 1149 0012 55F8140F 		ldr	r0, [r5, #20]!
 1150              	.LVL106:
 563:D:/fchai/work/i-cube/I-CUBE-HUAWEI/Middlewares/Third_Party/Huawei/iot_link/network/dtls/mbedtls/mbedtls-2.16.2/library\oid.c **** FN_OID_GET_ATTR1(mbedtls_oid_get_cipher_alg, oid_cipher_alg_t, cipher_alg, mbedtls_cipher_type_t, c
 1151              		.loc 1 563 1 is_stmt 0 view .LVU222
 1152 0016 58B1     		cbz	r0, .L124
 1153 0018 6B68     		ldr	r3, [r5, #4]
 1154              	.LVL107:
 1155              	.L122:
 563:D:/fchai/work/i-cube/I-CUBE-HUAWEI/Middlewares/Third_Party/Huawei/iot_link/network/dtls/mbedtls/mbedtls-2.16.2/library\oid.c **** FN_OID_GET_ATTR1(mbedtls_oid_get_cipher_alg, oid_cipher_alg_t, cipher_alg, mbedtls_cipher_type_t, c
 1156              		.loc 1 563 1 is_stmt 1 view .LVU223
 1157 001a 9F42     		cmp	r7, r3
 1158 001c F9D1     		bne	.L120
 1159 001e A168     		ldr	r1, [r4, #8]
 1160 0020 3A46     		mov	r2, r7
 1161 0022 FFF7FEFF 		bl	memcmp
 1162              	.LVL108:
 1163 0026 0028     		cmp	r0, #0
 1164 0028 F3D1     		bne	.L120
 1165              	.LVL109:
ARM GAS  T:\msys\tmp\cclxXSYZ.s 			page 33


 563:D:/fchai/work/i-cube/I-CUBE-HUAWEI/Middlewares/Third_Party/Huawei/iot_link/network/dtls/mbedtls/mbedtls-2.16.2/library\oid.c **** FN_OID_GET_ATTR1(mbedtls_oid_get_cipher_alg, oid_cipher_alg_t, cipher_alg, mbedtls_cipher_type_t, c
 1166              		.loc 1 563 1 is_stmt 0 view .LVU224
 1167              	.LBE48:
 1168              	.LBE49:
 1169              		.loc 1 564 1 is_stmt 1 view .LVU225
 1170              		.loc 1 564 1 view .LVU226
 1171 002a 2B7C     		ldrb	r3, [r5, #16]	@ zero_extendqisi2
 1172 002c 3370     		strb	r3, [r6]
 1173              		.loc 1 564 1 view .LVU227
 1174 002e F8BD     		pop	{r3, r4, r5, r6, r7, pc}
 1175              	.LVL110:
 1176              	.L124:
 1177              		.loc 1 564 1 is_stmt 0 view .LVU228
 1178 0030 6FF02D00 		mvn	r0, #45
 1179              	.LVL111:
 1180              		.loc 1 564 1 view .LVU229
 1181 0034 F8BD     		pop	{r3, r4, r5, r6, r7, pc}
 1182              	.LVL112:
 1183              	.L123:
 1184              	.LCFI30:
 1185              		.cfi_def_cfa_offset 0
 1186              		.cfi_restore 3
 1187              		.cfi_restore 4
 1188              		.cfi_restore 5
 1189              		.cfi_restore 6
 1190              		.cfi_restore 7
 1191              		.cfi_restore 14
 1192              		.loc 1 564 1 view .LVU230
 1193 0036 6FF02D00 		mvn	r0, #45
 1194              	.LVL113:
 1195              		.loc 1 564 1 view .LVU231
 1196 003a 7047     		bx	lr
 1197              	.L130:
 1198              		.align	2
 1199              	.L129:
 1200 003c 00000000 		.word	.LANCHOR6
 1201 0040 00000000 		.word	.LC6
 1202              		.cfi_endproc
 1203              	.LFE30:
 1205              		.section	.rodata.mbedtls_oid_get_md_alg.str1.4,"aMS",%progbits,1
 1206              		.align	2
 1207              	.LC7:
 1208 0000 2B0E0302 		.ascii	"+\016\003\002\032\000"
 1208      1A00
 1209              		.section	.text.mbedtls_oid_get_md_alg,"ax",%progbits
 1210              		.align	1
 1211              		.p2align 2,,3
 1212              		.global	mbedtls_oid_get_md_alg
 1213              		.syntax unified
 1214              		.thumb
 1215              		.thumb_func
 1216              		.fpu fpv4-sp-d16
 1218              	mbedtls_oid_get_md_alg:
 1219              	.LVL114:
 1220              	.LFB32:
 565:D:/fchai/work/i-cube/I-CUBE-HUAWEI/Middlewares/Third_Party/Huawei/iot_link/network/dtls/mbedtls/mbedtls-2.16.2/library\oid.c **** #endif /* MBEDTLS_CIPHER_C */
 566:D:/fchai/work/i-cube/I-CUBE-HUAWEI/Middlewares/Third_Party/Huawei/iot_link/network/dtls/mbedtls/mbedtls-2.16.2/library\oid.c **** 
ARM GAS  T:\msys\tmp\cclxXSYZ.s 			page 34


 567:D:/fchai/work/i-cube/I-CUBE-HUAWEI/Middlewares/Third_Party/Huawei/iot_link/network/dtls/mbedtls/mbedtls-2.16.2/library\oid.c **** #if defined(MBEDTLS_MD_C)
 568:D:/fchai/work/i-cube/I-CUBE-HUAWEI/Middlewares/Third_Party/Huawei/iot_link/network/dtls/mbedtls/mbedtls-2.16.2/library\oid.c **** /*
 569:D:/fchai/work/i-cube/I-CUBE-HUAWEI/Middlewares/Third_Party/Huawei/iot_link/network/dtls/mbedtls/mbedtls-2.16.2/library\oid.c ****  * For digestAlgorithm
 570:D:/fchai/work/i-cube/I-CUBE-HUAWEI/Middlewares/Third_Party/Huawei/iot_link/network/dtls/mbedtls/mbedtls-2.16.2/library\oid.c ****  */
 571:D:/fchai/work/i-cube/I-CUBE-HUAWEI/Middlewares/Third_Party/Huawei/iot_link/network/dtls/mbedtls/mbedtls-2.16.2/library\oid.c **** typedef struct {
 572:D:/fchai/work/i-cube/I-CUBE-HUAWEI/Middlewares/Third_Party/Huawei/iot_link/network/dtls/mbedtls/mbedtls-2.16.2/library\oid.c ****     mbedtls_oid_descriptor_t    descriptor;
 573:D:/fchai/work/i-cube/I-CUBE-HUAWEI/Middlewares/Third_Party/Huawei/iot_link/network/dtls/mbedtls/mbedtls-2.16.2/library\oid.c ****     mbedtls_md_type_t           md_alg;
 574:D:/fchai/work/i-cube/I-CUBE-HUAWEI/Middlewares/Third_Party/Huawei/iot_link/network/dtls/mbedtls/mbedtls-2.16.2/library\oid.c **** } oid_md_alg_t;
 575:D:/fchai/work/i-cube/I-CUBE-HUAWEI/Middlewares/Third_Party/Huawei/iot_link/network/dtls/mbedtls/mbedtls-2.16.2/library\oid.c **** 
 576:D:/fchai/work/i-cube/I-CUBE-HUAWEI/Middlewares/Third_Party/Huawei/iot_link/network/dtls/mbedtls/mbedtls-2.16.2/library\oid.c **** static const oid_md_alg_t oid_md_alg[] =
 577:D:/fchai/work/i-cube/I-CUBE-HUAWEI/Middlewares/Third_Party/Huawei/iot_link/network/dtls/mbedtls/mbedtls-2.16.2/library\oid.c **** {
 578:D:/fchai/work/i-cube/I-CUBE-HUAWEI/Middlewares/Third_Party/Huawei/iot_link/network/dtls/mbedtls/mbedtls-2.16.2/library\oid.c **** #if defined(MBEDTLS_MD2_C)
 579:D:/fchai/work/i-cube/I-CUBE-HUAWEI/Middlewares/Third_Party/Huawei/iot_link/network/dtls/mbedtls/mbedtls-2.16.2/library\oid.c ****     {
 580:D:/fchai/work/i-cube/I-CUBE-HUAWEI/Middlewares/Third_Party/Huawei/iot_link/network/dtls/mbedtls/mbedtls-2.16.2/library\oid.c ****         { ADD_LEN( MBEDTLS_OID_DIGEST_ALG_MD2 ),       "id-md2",       "MD2" },
 581:D:/fchai/work/i-cube/I-CUBE-HUAWEI/Middlewares/Third_Party/Huawei/iot_link/network/dtls/mbedtls/mbedtls-2.16.2/library\oid.c ****         MBEDTLS_MD_MD2,
 582:D:/fchai/work/i-cube/I-CUBE-HUAWEI/Middlewares/Third_Party/Huawei/iot_link/network/dtls/mbedtls/mbedtls-2.16.2/library\oid.c ****     },
 583:D:/fchai/work/i-cube/I-CUBE-HUAWEI/Middlewares/Third_Party/Huawei/iot_link/network/dtls/mbedtls/mbedtls-2.16.2/library\oid.c **** #endif /* MBEDTLS_MD2_C */
 584:D:/fchai/work/i-cube/I-CUBE-HUAWEI/Middlewares/Third_Party/Huawei/iot_link/network/dtls/mbedtls/mbedtls-2.16.2/library\oid.c **** #if defined(MBEDTLS_MD4_C)
 585:D:/fchai/work/i-cube/I-CUBE-HUAWEI/Middlewares/Third_Party/Huawei/iot_link/network/dtls/mbedtls/mbedtls-2.16.2/library\oid.c ****     {
 586:D:/fchai/work/i-cube/I-CUBE-HUAWEI/Middlewares/Third_Party/Huawei/iot_link/network/dtls/mbedtls/mbedtls-2.16.2/library\oid.c ****         { ADD_LEN( MBEDTLS_OID_DIGEST_ALG_MD4 ),       "id-md4",       "MD4" },
 587:D:/fchai/work/i-cube/I-CUBE-HUAWEI/Middlewares/Third_Party/Huawei/iot_link/network/dtls/mbedtls/mbedtls-2.16.2/library\oid.c ****         MBEDTLS_MD_MD4,
 588:D:/fchai/work/i-cube/I-CUBE-HUAWEI/Middlewares/Third_Party/Huawei/iot_link/network/dtls/mbedtls/mbedtls-2.16.2/library\oid.c ****     },
 589:D:/fchai/work/i-cube/I-CUBE-HUAWEI/Middlewares/Third_Party/Huawei/iot_link/network/dtls/mbedtls/mbedtls-2.16.2/library\oid.c **** #endif /* MBEDTLS_MD4_C */
 590:D:/fchai/work/i-cube/I-CUBE-HUAWEI/Middlewares/Third_Party/Huawei/iot_link/network/dtls/mbedtls/mbedtls-2.16.2/library\oid.c **** #if defined(MBEDTLS_MD5_C)
 591:D:/fchai/work/i-cube/I-CUBE-HUAWEI/Middlewares/Third_Party/Huawei/iot_link/network/dtls/mbedtls/mbedtls-2.16.2/library\oid.c ****     {
 592:D:/fchai/work/i-cube/I-CUBE-HUAWEI/Middlewares/Third_Party/Huawei/iot_link/network/dtls/mbedtls/mbedtls-2.16.2/library\oid.c ****         { ADD_LEN( MBEDTLS_OID_DIGEST_ALG_MD5 ),       "id-md5",       "MD5" },
 593:D:/fchai/work/i-cube/I-CUBE-HUAWEI/Middlewares/Third_Party/Huawei/iot_link/network/dtls/mbedtls/mbedtls-2.16.2/library\oid.c ****         MBEDTLS_MD_MD5,
 594:D:/fchai/work/i-cube/I-CUBE-HUAWEI/Middlewares/Third_Party/Huawei/iot_link/network/dtls/mbedtls/mbedtls-2.16.2/library\oid.c ****     },
 595:D:/fchai/work/i-cube/I-CUBE-HUAWEI/Middlewares/Third_Party/Huawei/iot_link/network/dtls/mbedtls/mbedtls-2.16.2/library\oid.c **** #endif /* MBEDTLS_MD5_C */
 596:D:/fchai/work/i-cube/I-CUBE-HUAWEI/Middlewares/Third_Party/Huawei/iot_link/network/dtls/mbedtls/mbedtls-2.16.2/library\oid.c **** #if defined(MBEDTLS_SHA1_C)
 597:D:/fchai/work/i-cube/I-CUBE-HUAWEI/Middlewares/Third_Party/Huawei/iot_link/network/dtls/mbedtls/mbedtls-2.16.2/library\oid.c ****     {
 598:D:/fchai/work/i-cube/I-CUBE-HUAWEI/Middlewares/Third_Party/Huawei/iot_link/network/dtls/mbedtls/mbedtls-2.16.2/library\oid.c ****         { ADD_LEN( MBEDTLS_OID_DIGEST_ALG_SHA1 ),      "id-sha1",      "SHA-1" },
 599:D:/fchai/work/i-cube/I-CUBE-HUAWEI/Middlewares/Third_Party/Huawei/iot_link/network/dtls/mbedtls/mbedtls-2.16.2/library\oid.c ****         MBEDTLS_MD_SHA1,
 600:D:/fchai/work/i-cube/I-CUBE-HUAWEI/Middlewares/Third_Party/Huawei/iot_link/network/dtls/mbedtls/mbedtls-2.16.2/library\oid.c ****     },
 601:D:/fchai/work/i-cube/I-CUBE-HUAWEI/Middlewares/Third_Party/Huawei/iot_link/network/dtls/mbedtls/mbedtls-2.16.2/library\oid.c **** #endif /* MBEDTLS_SHA1_C */
 602:D:/fchai/work/i-cube/I-CUBE-HUAWEI/Middlewares/Third_Party/Huawei/iot_link/network/dtls/mbedtls/mbedtls-2.16.2/library\oid.c **** #if defined(MBEDTLS_SHA256_C)
 603:D:/fchai/work/i-cube/I-CUBE-HUAWEI/Middlewares/Third_Party/Huawei/iot_link/network/dtls/mbedtls/mbedtls-2.16.2/library\oid.c ****     {
 604:D:/fchai/work/i-cube/I-CUBE-HUAWEI/Middlewares/Third_Party/Huawei/iot_link/network/dtls/mbedtls/mbedtls-2.16.2/library\oid.c ****         { ADD_LEN( MBEDTLS_OID_DIGEST_ALG_SHA224 ),    "id-sha224",    "SHA-224" },
 605:D:/fchai/work/i-cube/I-CUBE-HUAWEI/Middlewares/Third_Party/Huawei/iot_link/network/dtls/mbedtls/mbedtls-2.16.2/library\oid.c ****         MBEDTLS_MD_SHA224,
 606:D:/fchai/work/i-cube/I-CUBE-HUAWEI/Middlewares/Third_Party/Huawei/iot_link/network/dtls/mbedtls/mbedtls-2.16.2/library\oid.c ****     },
 607:D:/fchai/work/i-cube/I-CUBE-HUAWEI/Middlewares/Third_Party/Huawei/iot_link/network/dtls/mbedtls/mbedtls-2.16.2/library\oid.c ****     {
 608:D:/fchai/work/i-cube/I-CUBE-HUAWEI/Middlewares/Third_Party/Huawei/iot_link/network/dtls/mbedtls/mbedtls-2.16.2/library\oid.c ****         { ADD_LEN( MBEDTLS_OID_DIGEST_ALG_SHA256 ),    "id-sha256",    "SHA-256" },
 609:D:/fchai/work/i-cube/I-CUBE-HUAWEI/Middlewares/Third_Party/Huawei/iot_link/network/dtls/mbedtls/mbedtls-2.16.2/library\oid.c ****         MBEDTLS_MD_SHA256,
 610:D:/fchai/work/i-cube/I-CUBE-HUAWEI/Middlewares/Third_Party/Huawei/iot_link/network/dtls/mbedtls/mbedtls-2.16.2/library\oid.c ****     },
 611:D:/fchai/work/i-cube/I-CUBE-HUAWEI/Middlewares/Third_Party/Huawei/iot_link/network/dtls/mbedtls/mbedtls-2.16.2/library\oid.c **** #endif /* MBEDTLS_SHA256_C */
 612:D:/fchai/work/i-cube/I-CUBE-HUAWEI/Middlewares/Third_Party/Huawei/iot_link/network/dtls/mbedtls/mbedtls-2.16.2/library\oid.c **** #if defined(MBEDTLS_SHA512_C)
 613:D:/fchai/work/i-cube/I-CUBE-HUAWEI/Middlewares/Third_Party/Huawei/iot_link/network/dtls/mbedtls/mbedtls-2.16.2/library\oid.c ****     {
 614:D:/fchai/work/i-cube/I-CUBE-HUAWEI/Middlewares/Third_Party/Huawei/iot_link/network/dtls/mbedtls/mbedtls-2.16.2/library\oid.c ****         { ADD_LEN( MBEDTLS_OID_DIGEST_ALG_SHA384 ),    "id-sha384",    "SHA-384" },
 615:D:/fchai/work/i-cube/I-CUBE-HUAWEI/Middlewares/Third_Party/Huawei/iot_link/network/dtls/mbedtls/mbedtls-2.16.2/library\oid.c ****         MBEDTLS_MD_SHA384,
 616:D:/fchai/work/i-cube/I-CUBE-HUAWEI/Middlewares/Third_Party/Huawei/iot_link/network/dtls/mbedtls/mbedtls-2.16.2/library\oid.c ****     },
 617:D:/fchai/work/i-cube/I-CUBE-HUAWEI/Middlewares/Third_Party/Huawei/iot_link/network/dtls/mbedtls/mbedtls-2.16.2/library\oid.c ****     {
 618:D:/fchai/work/i-cube/I-CUBE-HUAWEI/Middlewares/Third_Party/Huawei/iot_link/network/dtls/mbedtls/mbedtls-2.16.2/library\oid.c ****         { ADD_LEN( MBEDTLS_OID_DIGEST_ALG_SHA512 ),    "id-sha512",    "SHA-512" },
 619:D:/fchai/work/i-cube/I-CUBE-HUAWEI/Middlewares/Third_Party/Huawei/iot_link/network/dtls/mbedtls/mbedtls-2.16.2/library\oid.c ****         MBEDTLS_MD_SHA512,
 620:D:/fchai/work/i-cube/I-CUBE-HUAWEI/Middlewares/Third_Party/Huawei/iot_link/network/dtls/mbedtls/mbedtls-2.16.2/library\oid.c ****     },
 621:D:/fchai/work/i-cube/I-CUBE-HUAWEI/Middlewares/Third_Party/Huawei/iot_link/network/dtls/mbedtls/mbedtls-2.16.2/library\oid.c **** #endif /* MBEDTLS_SHA512_C */
 622:D:/fchai/work/i-cube/I-CUBE-HUAWEI/Middlewares/Third_Party/Huawei/iot_link/network/dtls/mbedtls/mbedtls-2.16.2/library\oid.c ****     {
 623:D:/fchai/work/i-cube/I-CUBE-HUAWEI/Middlewares/Third_Party/Huawei/iot_link/network/dtls/mbedtls/mbedtls-2.16.2/library\oid.c ****         { NULL, 0, NULL, NULL },
ARM GAS  T:\msys\tmp\cclxXSYZ.s 			page 35


 624:D:/fchai/work/i-cube/I-CUBE-HUAWEI/Middlewares/Third_Party/Huawei/iot_link/network/dtls/mbedtls/mbedtls-2.16.2/library\oid.c ****         MBEDTLS_MD_NONE,
 625:D:/fchai/work/i-cube/I-CUBE-HUAWEI/Middlewares/Third_Party/Huawei/iot_link/network/dtls/mbedtls/mbedtls-2.16.2/library\oid.c ****     },
 626:D:/fchai/work/i-cube/I-CUBE-HUAWEI/Middlewares/Third_Party/Huawei/iot_link/network/dtls/mbedtls/mbedtls-2.16.2/library\oid.c **** };
 627:D:/fchai/work/i-cube/I-CUBE-HUAWEI/Middlewares/Third_Party/Huawei/iot_link/network/dtls/mbedtls/mbedtls-2.16.2/library\oid.c **** 
 628:D:/fchai/work/i-cube/I-CUBE-HUAWEI/Middlewares/Third_Party/Huawei/iot_link/network/dtls/mbedtls/mbedtls-2.16.2/library\oid.c **** FN_OID_TYPED_FROM_ASN1(oid_md_alg_t, md_alg, oid_md_alg)
 629:D:/fchai/work/i-cube/I-CUBE-HUAWEI/Middlewares/Third_Party/Huawei/iot_link/network/dtls/mbedtls/mbedtls-2.16.2/library\oid.c **** FN_OID_GET_ATTR1(mbedtls_oid_get_md_alg, oid_md_alg_t, md_alg, mbedtls_md_type_t, md_alg)
 1221              		.loc 1 629 1 is_stmt 1 view -0
 1222              		.cfi_startproc
 1223              		@ args = 0, pretend = 0, frame = 0
 1224              		@ frame_needed = 0, uses_anonymous_args = 0
 1225              		.loc 1 629 1 view .LVU233
 1226              	.LBB52:
 1227              	.LBI52:
 628:D:/fchai/work/i-cube/I-CUBE-HUAWEI/Middlewares/Third_Party/Huawei/iot_link/network/dtls/mbedtls/mbedtls-2.16.2/library\oid.c **** FN_OID_GET_ATTR1(mbedtls_oid_get_md_alg, oid_md_alg_t, md_alg, mbedtls_md_type_t, md_alg)
 1228              		.loc 1 628 1 view .LVU234
 1229              	.LBB53:
 628:D:/fchai/work/i-cube/I-CUBE-HUAWEI/Middlewares/Third_Party/Huawei/iot_link/network/dtls/mbedtls/mbedtls-2.16.2/library\oid.c **** FN_OID_GET_ATTR1(mbedtls_oid_get_md_alg, oid_md_alg_t, md_alg, mbedtls_md_type_t, md_alg)
 1230              		.loc 1 628 1 view .LVU235
 628:D:/fchai/work/i-cube/I-CUBE-HUAWEI/Middlewares/Third_Party/Huawei/iot_link/network/dtls/mbedtls/mbedtls-2.16.2/library\oid.c **** FN_OID_GET_ATTR1(mbedtls_oid_get_md_alg, oid_md_alg_t, md_alg, mbedtls_md_type_t, md_alg)
 1231              		.loc 1 628 1 view .LVU236
 628:D:/fchai/work/i-cube/I-CUBE-HUAWEI/Middlewares/Third_Party/Huawei/iot_link/network/dtls/mbedtls/mbedtls-2.16.2/library\oid.c **** FN_OID_GET_ATTR1(mbedtls_oid_get_md_alg, oid_md_alg_t, md_alg, mbedtls_md_type_t, md_alg)
 1232              		.loc 1 628 1 view .LVU237
 1233 0000 C8B1     		cbz	r0, .L136
 1234              	.LBE53:
 1235              	.LBE52:
 1236              		.loc 1 629 1 is_stmt 0 view .LVU238
 1237 0002 F8B5     		push	{r3, r4, r5, r6, r7, lr}
 1238              	.LCFI31:
 1239              		.cfi_def_cfa_offset 24
 1240              		.cfi_offset 3, -24
 1241              		.cfi_offset 4, -20
 1242              		.cfi_offset 5, -16
 1243              		.cfi_offset 6, -12
 1244              		.cfi_offset 7, -8
 1245              		.cfi_offset 14, -4
 1246              	.LBB55:
 1247              	.LBB54:
 628:D:/fchai/work/i-cube/I-CUBE-HUAWEI/Middlewares/Third_Party/Huawei/iot_link/network/dtls/mbedtls/mbedtls-2.16.2/library\oid.c **** FN_OID_GET_ATTR1(mbedtls_oid_get_md_alg, oid_md_alg_t, md_alg, mbedtls_md_type_t, md_alg)
 1248              		.loc 1 628 1 view .LVU239
 1249 0004 4768     		ldr	r7, [r0, #4]
 1250 0006 0D4D     		ldr	r5, .L142
 1251 0008 0446     		mov	r4, r0
 1252 000a 0E46     		mov	r6, r1
 1253 000c 0C48     		ldr	r0, .L142+4
 1254              	.LVL115:
 628:D:/fchai/work/i-cube/I-CUBE-HUAWEI/Middlewares/Third_Party/Huawei/iot_link/network/dtls/mbedtls/mbedtls-2.16.2/library\oid.c **** FN_OID_GET_ATTR1(mbedtls_oid_get_md_alg, oid_md_alg_t, md_alg, mbedtls_md_type_t, md_alg)
 1255              		.loc 1 628 1 view .LVU240
 1256 000e 0523     		movs	r3, #5
 1257 0010 03E0     		b	.L135
 1258              	.LVL116:
 1259              	.L133:
 628:D:/fchai/work/i-cube/I-CUBE-HUAWEI/Middlewares/Third_Party/Huawei/iot_link/network/dtls/mbedtls/mbedtls-2.16.2/library\oid.c **** FN_OID_GET_ATTR1(mbedtls_oid_get_md_alg, oid_md_alg_t, md_alg, mbedtls_md_type_t, md_alg)
 1260              		.loc 1 628 1 is_stmt 1 view .LVU241
 628:D:/fchai/work/i-cube/I-CUBE-HUAWEI/Middlewares/Third_Party/Huawei/iot_link/network/dtls/mbedtls/mbedtls-2.16.2/library\oid.c **** FN_OID_GET_ATTR1(mbedtls_oid_get_md_alg, oid_md_alg_t, md_alg, mbedtls_md_type_t, md_alg)
 1261              		.loc 1 628 1 view .LVU242
 628:D:/fchai/work/i-cube/I-CUBE-HUAWEI/Middlewares/Third_Party/Huawei/iot_link/network/dtls/mbedtls/mbedtls-2.16.2/library\oid.c **** FN_OID_GET_ATTR1(mbedtls_oid_get_md_alg, oid_md_alg_t, md_alg, mbedtls_md_type_t, md_alg)
 1262              		.loc 1 628 1 view .LVU243
ARM GAS  T:\msys\tmp\cclxXSYZ.s 			page 36


 1263 0012 55F8140F 		ldr	r0, [r5, #20]!
 1264              	.LVL117:
 628:D:/fchai/work/i-cube/I-CUBE-HUAWEI/Middlewares/Third_Party/Huawei/iot_link/network/dtls/mbedtls/mbedtls-2.16.2/library\oid.c **** FN_OID_GET_ATTR1(mbedtls_oid_get_md_alg, oid_md_alg_t, md_alg, mbedtls_md_type_t, md_alg)
 1265              		.loc 1 628 1 is_stmt 0 view .LVU244
 1266 0016 58B1     		cbz	r0, .L137
 1267 0018 6B68     		ldr	r3, [r5, #4]
 1268              	.LVL118:
 1269              	.L135:
 628:D:/fchai/work/i-cube/I-CUBE-HUAWEI/Middlewares/Third_Party/Huawei/iot_link/network/dtls/mbedtls/mbedtls-2.16.2/library\oid.c **** FN_OID_GET_ATTR1(mbedtls_oid_get_md_alg, oid_md_alg_t, md_alg, mbedtls_md_type_t, md_alg)
 1270              		.loc 1 628 1 is_stmt 1 view .LVU245
 1271 001a 9F42     		cmp	r7, r3
 1272 001c F9D1     		bne	.L133
 1273 001e A168     		ldr	r1, [r4, #8]
 1274 0020 3A46     		mov	r2, r7
 1275 0022 FFF7FEFF 		bl	memcmp
 1276              	.LVL119:
 1277 0026 0028     		cmp	r0, #0
 1278 0028 F3D1     		bne	.L133
 1279              	.LVL120:
 628:D:/fchai/work/i-cube/I-CUBE-HUAWEI/Middlewares/Third_Party/Huawei/iot_link/network/dtls/mbedtls/mbedtls-2.16.2/library\oid.c **** FN_OID_GET_ATTR1(mbedtls_oid_get_md_alg, oid_md_alg_t, md_alg, mbedtls_md_type_t, md_alg)
 1280              		.loc 1 628 1 is_stmt 0 view .LVU246
 1281              	.LBE54:
 1282              	.LBE55:
 1283              		.loc 1 629 1 is_stmt 1 view .LVU247
 1284              		.loc 1 629 1 view .LVU248
 1285 002a 2B7C     		ldrb	r3, [r5, #16]	@ zero_extendqisi2
 1286 002c 3370     		strb	r3, [r6]
 1287              		.loc 1 629 1 view .LVU249
 1288 002e F8BD     		pop	{r3, r4, r5, r6, r7, pc}
 1289              	.LVL121:
 1290              	.L137:
 1291              		.loc 1 629 1 is_stmt 0 view .LVU250
 1292 0030 6FF02D00 		mvn	r0, #45
 1293              	.LVL122:
 1294              		.loc 1 629 1 view .LVU251
 1295 0034 F8BD     		pop	{r3, r4, r5, r6, r7, pc}
 1296              	.LVL123:
 1297              	.L136:
 1298              	.LCFI32:
 1299              		.cfi_def_cfa_offset 0
 1300              		.cfi_restore 3
 1301              		.cfi_restore 4
 1302              		.cfi_restore 5
 1303              		.cfi_restore 6
 1304              		.cfi_restore 7
 1305              		.cfi_restore 14
 1306              		.loc 1 629 1 view .LVU252
 1307 0036 6FF02D00 		mvn	r0, #45
 1308              	.LVL124:
 1309              		.loc 1 629 1 view .LVU253
 1310 003a 7047     		bx	lr
 1311              	.L143:
 1312              		.align	2
 1313              	.L142:
 1314 003c 00000000 		.word	.LANCHOR7
 1315 0040 00000000 		.word	.LC7
 1316              		.cfi_endproc
ARM GAS  T:\msys\tmp\cclxXSYZ.s 			page 37


 1317              	.LFE32:
 1319              		.section	.text.mbedtls_oid_get_oid_by_md,"ax",%progbits
 1320              		.align	1
 1321              		.p2align 2,,3
 1322              		.global	mbedtls_oid_get_oid_by_md
 1323              		.syntax unified
 1324              		.thumb
 1325              		.thumb_func
 1326              		.fpu fpv4-sp-d16
 1328              	mbedtls_oid_get_oid_by_md:
 1329              	.LVL125:
 1330              	.LFB33:
 630:D:/fchai/work/i-cube/I-CUBE-HUAWEI/Middlewares/Third_Party/Huawei/iot_link/network/dtls/mbedtls/mbedtls-2.16.2/library\oid.c **** FN_OID_GET_OID_BY_ATTR1(mbedtls_oid_get_oid_by_md, oid_md_alg_t, oid_md_alg, mbedtls_md_type_t, md_
 1331              		.loc 1 630 1 is_stmt 1 view -0
 1332              		.cfi_startproc
 1333              		@ args = 0, pretend = 0, frame = 0
 1334              		@ frame_needed = 0, uses_anonymous_args = 0
 1335              		@ link register save eliminated.
 1336              		.loc 1 630 1 view .LVU255
 1337              		.loc 1 630 1 view .LVU256
 1338              		.loc 1 630 1 view .LVU257
 1339 0000 30B4     		push	{r4, r5}
 1340              	.LCFI33:
 1341              		.cfi_def_cfa_offset 8
 1342              		.cfi_offset 4, -8
 1343              		.cfi_offset 5, -4
 1344 0002 0A4B     		ldr	r3, .L150
 1345              		.loc 1 630 1 is_stmt 0 view .LVU258
 1346 0004 0A4C     		ldr	r4, .L150+4
 1347 0006 0425     		movs	r5, #4
 1348 0008 03E0     		b	.L147
 1349              	.LVL126:
 1350              	.L145:
 1351              		.loc 1 630 1 discriminator 3 view .LVU259
 1352 000a 53F8144F 		ldr	r4, [r3, #20]!
 1353              	.LVL127:
 1354              		.loc 1 630 1 discriminator 3 view .LVU260
 1355 000e 44B1     		cbz	r4, .L148
 1356 0010 1D7C     		ldrb	r5, [r3, #16]	@ zero_extendqisi2
 1357              	.LVL128:
 1358              	.L147:
 1359              		.loc 1 630 1 is_stmt 1 discriminator 5 view .LVU261
 1360              		.loc 1 630 1 discriminator 5 view .LVU262
 1361              		.loc 1 630 1 discriminator 5 view .LVU263
 1362 0012 8542     		cmp	r5, r0
 1363 0014 F9D1     		bne	.L145
 1364              		.loc 1 630 1 discriminator 2 view .LVU264
 1365 0016 5B68     		ldr	r3, [r3, #4]
 1366              	.LVL129:
 1367              		.loc 1 630 1 is_stmt 0 discriminator 2 view .LVU265
 1368 0018 0C60     		str	r4, [r1]
 1369              		.loc 1 630 1 is_stmt 1 discriminator 2 view .LVU266
 1370 001a 0020     		movs	r0, #0
 1371              	.LVL130:
 1372              		.loc 1 630 1 is_stmt 0 discriminator 2 view .LVU267
 1373 001c 30BC     		pop	{r4, r5}
 1374              	.LCFI34:
ARM GAS  T:\msys\tmp\cclxXSYZ.s 			page 38


 1375              		.cfi_remember_state
 1376              		.cfi_restore 5
 1377              		.cfi_restore 4
 1378              		.cfi_def_cfa_offset 0
 1379 001e 1360     		str	r3, [r2]
 1380              		.loc 1 630 1 is_stmt 1 discriminator 2 view .LVU268
 1381 0020 7047     		bx	lr
 1382              	.LVL131:
 1383              	.L148:
 1384              	.LCFI35:
 1385              		.cfi_restore_state
 1386              		.loc 1 630 1 is_stmt 0 view .LVU269
 1387 0022 6FF02D00 		mvn	r0, #45
 1388              	.LVL132:
 1389              		.loc 1 630 1 view .LVU270
 1390 0026 30BC     		pop	{r4, r5}
 1391              	.LCFI36:
 1392              		.cfi_restore 5
 1393              		.cfi_restore 4
 1394              		.cfi_def_cfa_offset 0
 1395 0028 7047     		bx	lr
 1396              	.L151:
 1397 002a 00BF     		.align	2
 1398              	.L150:
 1399 002c 00000000 		.word	.LANCHOR7
 1400 0030 00000000 		.word	.LC7
 1401              		.cfi_endproc
 1402              	.LFE33:
 1404              		.section	.rodata.mbedtls_oid_get_md_hmac.str1.4,"aMS",%progbits,1
 1405              		.align	2
 1406              	.LC8:
 1407 0000 2A864886 		.ascii	"*\206H\206\367\015\002\007\000"
 1407      F70D0207 
 1407      00
 1408              		.section	.text.mbedtls_oid_get_md_hmac,"ax",%progbits
 1409              		.align	1
 1410              		.p2align 2,,3
 1411              		.global	mbedtls_oid_get_md_hmac
 1412              		.syntax unified
 1413              		.thumb
 1414              		.thumb_func
 1415              		.fpu fpv4-sp-d16
 1417              	mbedtls_oid_get_md_hmac:
 1418              	.LVL133:
 1419              	.LFB35:
 631:D:/fchai/work/i-cube/I-CUBE-HUAWEI/Middlewares/Third_Party/Huawei/iot_link/network/dtls/mbedtls/mbedtls-2.16.2/library\oid.c **** 
 632:D:/fchai/work/i-cube/I-CUBE-HUAWEI/Middlewares/Third_Party/Huawei/iot_link/network/dtls/mbedtls/mbedtls-2.16.2/library\oid.c **** /*
 633:D:/fchai/work/i-cube/I-CUBE-HUAWEI/Middlewares/Third_Party/Huawei/iot_link/network/dtls/mbedtls/mbedtls-2.16.2/library\oid.c ****  * For HMAC digestAlgorithm
 634:D:/fchai/work/i-cube/I-CUBE-HUAWEI/Middlewares/Third_Party/Huawei/iot_link/network/dtls/mbedtls/mbedtls-2.16.2/library\oid.c ****  */
 635:D:/fchai/work/i-cube/I-CUBE-HUAWEI/Middlewares/Third_Party/Huawei/iot_link/network/dtls/mbedtls/mbedtls-2.16.2/library\oid.c **** typedef struct {
 636:D:/fchai/work/i-cube/I-CUBE-HUAWEI/Middlewares/Third_Party/Huawei/iot_link/network/dtls/mbedtls/mbedtls-2.16.2/library\oid.c ****     mbedtls_oid_descriptor_t    descriptor;
 637:D:/fchai/work/i-cube/I-CUBE-HUAWEI/Middlewares/Third_Party/Huawei/iot_link/network/dtls/mbedtls/mbedtls-2.16.2/library\oid.c ****     mbedtls_md_type_t           md_hmac;
 638:D:/fchai/work/i-cube/I-CUBE-HUAWEI/Middlewares/Third_Party/Huawei/iot_link/network/dtls/mbedtls/mbedtls-2.16.2/library\oid.c **** } oid_md_hmac_t;
 639:D:/fchai/work/i-cube/I-CUBE-HUAWEI/Middlewares/Third_Party/Huawei/iot_link/network/dtls/mbedtls/mbedtls-2.16.2/library\oid.c **** 
 640:D:/fchai/work/i-cube/I-CUBE-HUAWEI/Middlewares/Third_Party/Huawei/iot_link/network/dtls/mbedtls/mbedtls-2.16.2/library\oid.c **** static const oid_md_hmac_t oid_md_hmac[] =
 641:D:/fchai/work/i-cube/I-CUBE-HUAWEI/Middlewares/Third_Party/Huawei/iot_link/network/dtls/mbedtls/mbedtls-2.16.2/library\oid.c **** {
 642:D:/fchai/work/i-cube/I-CUBE-HUAWEI/Middlewares/Third_Party/Huawei/iot_link/network/dtls/mbedtls/mbedtls-2.16.2/library\oid.c **** #if defined(MBEDTLS_SHA1_C)
ARM GAS  T:\msys\tmp\cclxXSYZ.s 			page 39


 643:D:/fchai/work/i-cube/I-CUBE-HUAWEI/Middlewares/Third_Party/Huawei/iot_link/network/dtls/mbedtls/mbedtls-2.16.2/library\oid.c ****     {
 644:D:/fchai/work/i-cube/I-CUBE-HUAWEI/Middlewares/Third_Party/Huawei/iot_link/network/dtls/mbedtls/mbedtls-2.16.2/library\oid.c ****         { ADD_LEN( MBEDTLS_OID_HMAC_SHA1 ),      "hmacSHA1",      "HMAC-SHA-1" },
 645:D:/fchai/work/i-cube/I-CUBE-HUAWEI/Middlewares/Third_Party/Huawei/iot_link/network/dtls/mbedtls/mbedtls-2.16.2/library\oid.c ****         MBEDTLS_MD_SHA1,
 646:D:/fchai/work/i-cube/I-CUBE-HUAWEI/Middlewares/Third_Party/Huawei/iot_link/network/dtls/mbedtls/mbedtls-2.16.2/library\oid.c ****     },
 647:D:/fchai/work/i-cube/I-CUBE-HUAWEI/Middlewares/Third_Party/Huawei/iot_link/network/dtls/mbedtls/mbedtls-2.16.2/library\oid.c **** #endif /* MBEDTLS_SHA1_C */
 648:D:/fchai/work/i-cube/I-CUBE-HUAWEI/Middlewares/Third_Party/Huawei/iot_link/network/dtls/mbedtls/mbedtls-2.16.2/library\oid.c **** #if defined(MBEDTLS_SHA256_C)
 649:D:/fchai/work/i-cube/I-CUBE-HUAWEI/Middlewares/Third_Party/Huawei/iot_link/network/dtls/mbedtls/mbedtls-2.16.2/library\oid.c ****     {
 650:D:/fchai/work/i-cube/I-CUBE-HUAWEI/Middlewares/Third_Party/Huawei/iot_link/network/dtls/mbedtls/mbedtls-2.16.2/library\oid.c ****         { ADD_LEN( MBEDTLS_OID_HMAC_SHA224 ),    "hmacSHA224",    "HMAC-SHA-224" },
 651:D:/fchai/work/i-cube/I-CUBE-HUAWEI/Middlewares/Third_Party/Huawei/iot_link/network/dtls/mbedtls/mbedtls-2.16.2/library\oid.c ****         MBEDTLS_MD_SHA224,
 652:D:/fchai/work/i-cube/I-CUBE-HUAWEI/Middlewares/Third_Party/Huawei/iot_link/network/dtls/mbedtls/mbedtls-2.16.2/library\oid.c ****     },
 653:D:/fchai/work/i-cube/I-CUBE-HUAWEI/Middlewares/Third_Party/Huawei/iot_link/network/dtls/mbedtls/mbedtls-2.16.2/library\oid.c ****     {
 654:D:/fchai/work/i-cube/I-CUBE-HUAWEI/Middlewares/Third_Party/Huawei/iot_link/network/dtls/mbedtls/mbedtls-2.16.2/library\oid.c ****         { ADD_LEN( MBEDTLS_OID_HMAC_SHA256 ),    "hmacSHA256",    "HMAC-SHA-256" },
 655:D:/fchai/work/i-cube/I-CUBE-HUAWEI/Middlewares/Third_Party/Huawei/iot_link/network/dtls/mbedtls/mbedtls-2.16.2/library\oid.c ****         MBEDTLS_MD_SHA256,
 656:D:/fchai/work/i-cube/I-CUBE-HUAWEI/Middlewares/Third_Party/Huawei/iot_link/network/dtls/mbedtls/mbedtls-2.16.2/library\oid.c ****     },
 657:D:/fchai/work/i-cube/I-CUBE-HUAWEI/Middlewares/Third_Party/Huawei/iot_link/network/dtls/mbedtls/mbedtls-2.16.2/library\oid.c **** #endif /* MBEDTLS_SHA256_C */
 658:D:/fchai/work/i-cube/I-CUBE-HUAWEI/Middlewares/Third_Party/Huawei/iot_link/network/dtls/mbedtls/mbedtls-2.16.2/library\oid.c **** #if defined(MBEDTLS_SHA512_C)
 659:D:/fchai/work/i-cube/I-CUBE-HUAWEI/Middlewares/Third_Party/Huawei/iot_link/network/dtls/mbedtls/mbedtls-2.16.2/library\oid.c ****     {
 660:D:/fchai/work/i-cube/I-CUBE-HUAWEI/Middlewares/Third_Party/Huawei/iot_link/network/dtls/mbedtls/mbedtls-2.16.2/library\oid.c ****         { ADD_LEN( MBEDTLS_OID_HMAC_SHA384 ),    "hmacSHA384",    "HMAC-SHA-384" },
 661:D:/fchai/work/i-cube/I-CUBE-HUAWEI/Middlewares/Third_Party/Huawei/iot_link/network/dtls/mbedtls/mbedtls-2.16.2/library\oid.c ****         MBEDTLS_MD_SHA384,
 662:D:/fchai/work/i-cube/I-CUBE-HUAWEI/Middlewares/Third_Party/Huawei/iot_link/network/dtls/mbedtls/mbedtls-2.16.2/library\oid.c ****     },
 663:D:/fchai/work/i-cube/I-CUBE-HUAWEI/Middlewares/Third_Party/Huawei/iot_link/network/dtls/mbedtls/mbedtls-2.16.2/library\oid.c ****     {
 664:D:/fchai/work/i-cube/I-CUBE-HUAWEI/Middlewares/Third_Party/Huawei/iot_link/network/dtls/mbedtls/mbedtls-2.16.2/library\oid.c ****         { ADD_LEN( MBEDTLS_OID_HMAC_SHA512 ),    "hmacSHA512",    "HMAC-SHA-512" },
 665:D:/fchai/work/i-cube/I-CUBE-HUAWEI/Middlewares/Third_Party/Huawei/iot_link/network/dtls/mbedtls/mbedtls-2.16.2/library\oid.c ****         MBEDTLS_MD_SHA512,
 666:D:/fchai/work/i-cube/I-CUBE-HUAWEI/Middlewares/Third_Party/Huawei/iot_link/network/dtls/mbedtls/mbedtls-2.16.2/library\oid.c ****     },
 667:D:/fchai/work/i-cube/I-CUBE-HUAWEI/Middlewares/Third_Party/Huawei/iot_link/network/dtls/mbedtls/mbedtls-2.16.2/library\oid.c **** #endif /* MBEDTLS_SHA512_C */
 668:D:/fchai/work/i-cube/I-CUBE-HUAWEI/Middlewares/Third_Party/Huawei/iot_link/network/dtls/mbedtls/mbedtls-2.16.2/library\oid.c ****     {
 669:D:/fchai/work/i-cube/I-CUBE-HUAWEI/Middlewares/Third_Party/Huawei/iot_link/network/dtls/mbedtls/mbedtls-2.16.2/library\oid.c ****         { NULL, 0, NULL, NULL },
 670:D:/fchai/work/i-cube/I-CUBE-HUAWEI/Middlewares/Third_Party/Huawei/iot_link/network/dtls/mbedtls/mbedtls-2.16.2/library\oid.c ****         MBEDTLS_MD_NONE,
 671:D:/fchai/work/i-cube/I-CUBE-HUAWEI/Middlewares/Third_Party/Huawei/iot_link/network/dtls/mbedtls/mbedtls-2.16.2/library\oid.c ****     },
 672:D:/fchai/work/i-cube/I-CUBE-HUAWEI/Middlewares/Third_Party/Huawei/iot_link/network/dtls/mbedtls/mbedtls-2.16.2/library\oid.c **** };
 673:D:/fchai/work/i-cube/I-CUBE-HUAWEI/Middlewares/Third_Party/Huawei/iot_link/network/dtls/mbedtls/mbedtls-2.16.2/library\oid.c **** 
 674:D:/fchai/work/i-cube/I-CUBE-HUAWEI/Middlewares/Third_Party/Huawei/iot_link/network/dtls/mbedtls/mbedtls-2.16.2/library\oid.c **** FN_OID_TYPED_FROM_ASN1(oid_md_hmac_t, md_hmac, oid_md_hmac)
 675:D:/fchai/work/i-cube/I-CUBE-HUAWEI/Middlewares/Third_Party/Huawei/iot_link/network/dtls/mbedtls/mbedtls-2.16.2/library\oid.c **** FN_OID_GET_ATTR1(mbedtls_oid_get_md_hmac, oid_md_hmac_t, md_hmac, mbedtls_md_type_t, md_hmac)
 1420              		.loc 1 675 1 is_stmt 1 view -0
 1421              		.cfi_startproc
 1422              		@ args = 0, pretend = 0, frame = 0
 1423              		@ frame_needed = 0, uses_anonymous_args = 0
 1424              		.loc 1 675 1 view .LVU272
 1425              	.LBB58:
 1426              	.LBI58:
 674:D:/fchai/work/i-cube/I-CUBE-HUAWEI/Middlewares/Third_Party/Huawei/iot_link/network/dtls/mbedtls/mbedtls-2.16.2/library\oid.c **** FN_OID_GET_ATTR1(mbedtls_oid_get_md_hmac, oid_md_hmac_t, md_hmac, mbedtls_md_type_t, md_hmac)
 1427              		.loc 1 674 1 view .LVU273
 1428              	.LBB59:
 674:D:/fchai/work/i-cube/I-CUBE-HUAWEI/Middlewares/Third_Party/Huawei/iot_link/network/dtls/mbedtls/mbedtls-2.16.2/library\oid.c **** FN_OID_GET_ATTR1(mbedtls_oid_get_md_hmac, oid_md_hmac_t, md_hmac, mbedtls_md_type_t, md_hmac)
 1429              		.loc 1 674 1 view .LVU274
 674:D:/fchai/work/i-cube/I-CUBE-HUAWEI/Middlewares/Third_Party/Huawei/iot_link/network/dtls/mbedtls/mbedtls-2.16.2/library\oid.c **** FN_OID_GET_ATTR1(mbedtls_oid_get_md_hmac, oid_md_hmac_t, md_hmac, mbedtls_md_type_t, md_hmac)
 1430              		.loc 1 674 1 view .LVU275
 674:D:/fchai/work/i-cube/I-CUBE-HUAWEI/Middlewares/Third_Party/Huawei/iot_link/network/dtls/mbedtls/mbedtls-2.16.2/library\oid.c **** FN_OID_GET_ATTR1(mbedtls_oid_get_md_hmac, oid_md_hmac_t, md_hmac, mbedtls_md_type_t, md_hmac)
 1431              		.loc 1 674 1 view .LVU276
 1432 0000 C8B1     		cbz	r0, .L157
 1433              	.LBE59:
 1434              	.LBE58:
 1435              		.loc 1 675 1 is_stmt 0 view .LVU277
 1436 0002 F8B5     		push	{r3, r4, r5, r6, r7, lr}
 1437              	.LCFI37:
 1438              		.cfi_def_cfa_offset 24
 1439              		.cfi_offset 3, -24
ARM GAS  T:\msys\tmp\cclxXSYZ.s 			page 40


 1440              		.cfi_offset 4, -20
 1441              		.cfi_offset 5, -16
 1442              		.cfi_offset 6, -12
 1443              		.cfi_offset 7, -8
 1444              		.cfi_offset 14, -4
 1445              	.LBB61:
 1446              	.LBB60:
 674:D:/fchai/work/i-cube/I-CUBE-HUAWEI/Middlewares/Third_Party/Huawei/iot_link/network/dtls/mbedtls/mbedtls-2.16.2/library\oid.c **** FN_OID_GET_ATTR1(mbedtls_oid_get_md_hmac, oid_md_hmac_t, md_hmac, mbedtls_md_type_t, md_hmac)
 1447              		.loc 1 674 1 view .LVU278
 1448 0004 4768     		ldr	r7, [r0, #4]
 1449 0006 0D4D     		ldr	r5, .L163
 1450 0008 0446     		mov	r4, r0
 1451 000a 0E46     		mov	r6, r1
 1452 000c 0C48     		ldr	r0, .L163+4
 1453              	.LVL134:
 674:D:/fchai/work/i-cube/I-CUBE-HUAWEI/Middlewares/Third_Party/Huawei/iot_link/network/dtls/mbedtls/mbedtls-2.16.2/library\oid.c **** FN_OID_GET_ATTR1(mbedtls_oid_get_md_hmac, oid_md_hmac_t, md_hmac, mbedtls_md_type_t, md_hmac)
 1454              		.loc 1 674 1 view .LVU279
 1455 000e 0823     		movs	r3, #8
 1456 0010 03E0     		b	.L156
 1457              	.LVL135:
 1458              	.L154:
 674:D:/fchai/work/i-cube/I-CUBE-HUAWEI/Middlewares/Third_Party/Huawei/iot_link/network/dtls/mbedtls/mbedtls-2.16.2/library\oid.c **** FN_OID_GET_ATTR1(mbedtls_oid_get_md_hmac, oid_md_hmac_t, md_hmac, mbedtls_md_type_t, md_hmac)
 1459              		.loc 1 674 1 is_stmt 1 view .LVU280
 674:D:/fchai/work/i-cube/I-CUBE-HUAWEI/Middlewares/Third_Party/Huawei/iot_link/network/dtls/mbedtls/mbedtls-2.16.2/library\oid.c **** FN_OID_GET_ATTR1(mbedtls_oid_get_md_hmac, oid_md_hmac_t, md_hmac, mbedtls_md_type_t, md_hmac)
 1460              		.loc 1 674 1 view .LVU281
 674:D:/fchai/work/i-cube/I-CUBE-HUAWEI/Middlewares/Third_Party/Huawei/iot_link/network/dtls/mbedtls/mbedtls-2.16.2/library\oid.c **** FN_OID_GET_ATTR1(mbedtls_oid_get_md_hmac, oid_md_hmac_t, md_hmac, mbedtls_md_type_t, md_hmac)
 1461              		.loc 1 674 1 view .LVU282
 1462 0012 55F8140F 		ldr	r0, [r5, #20]!
 1463              	.LVL136:
 674:D:/fchai/work/i-cube/I-CUBE-HUAWEI/Middlewares/Third_Party/Huawei/iot_link/network/dtls/mbedtls/mbedtls-2.16.2/library\oid.c **** FN_OID_GET_ATTR1(mbedtls_oid_get_md_hmac, oid_md_hmac_t, md_hmac, mbedtls_md_type_t, md_hmac)
 1464              		.loc 1 674 1 is_stmt 0 view .LVU283
 1465 0016 58B1     		cbz	r0, .L158
 1466 0018 6B68     		ldr	r3, [r5, #4]
 1467              	.LVL137:
 1468              	.L156:
 674:D:/fchai/work/i-cube/I-CUBE-HUAWEI/Middlewares/Third_Party/Huawei/iot_link/network/dtls/mbedtls/mbedtls-2.16.2/library\oid.c **** FN_OID_GET_ATTR1(mbedtls_oid_get_md_hmac, oid_md_hmac_t, md_hmac, mbedtls_md_type_t, md_hmac)
 1469              		.loc 1 674 1 is_stmt 1 view .LVU284
 1470 001a 9F42     		cmp	r7, r3
 1471 001c F9D1     		bne	.L154
 1472 001e A168     		ldr	r1, [r4, #8]
 1473 0020 3A46     		mov	r2, r7
 1474 0022 FFF7FEFF 		bl	memcmp
 1475              	.LVL138:
 1476 0026 0028     		cmp	r0, #0
 1477 0028 F3D1     		bne	.L154
 1478              	.LVL139:
 674:D:/fchai/work/i-cube/I-CUBE-HUAWEI/Middlewares/Third_Party/Huawei/iot_link/network/dtls/mbedtls/mbedtls-2.16.2/library\oid.c **** FN_OID_GET_ATTR1(mbedtls_oid_get_md_hmac, oid_md_hmac_t, md_hmac, mbedtls_md_type_t, md_hmac)
 1479              		.loc 1 674 1 is_stmt 0 view .LVU285
 1480              	.LBE60:
 1481              	.LBE61:
 1482              		.loc 1 675 1 is_stmt 1 view .LVU286
 1483              		.loc 1 675 1 view .LVU287
 1484 002a 2B7C     		ldrb	r3, [r5, #16]	@ zero_extendqisi2
 1485 002c 3370     		strb	r3, [r6]
 1486              		.loc 1 675 1 view .LVU288
 1487 002e F8BD     		pop	{r3, r4, r5, r6, r7, pc}
 1488              	.LVL140:
ARM GAS  T:\msys\tmp\cclxXSYZ.s 			page 41


 1489              	.L158:
 1490              		.loc 1 675 1 is_stmt 0 view .LVU289
 1491 0030 6FF02D00 		mvn	r0, #45
 1492              	.LVL141:
 1493              		.loc 1 675 1 view .LVU290
 1494 0034 F8BD     		pop	{r3, r4, r5, r6, r7, pc}
 1495              	.LVL142:
 1496              	.L157:
 1497              	.LCFI38:
 1498              		.cfi_def_cfa_offset 0
 1499              		.cfi_restore 3
 1500              		.cfi_restore 4
 1501              		.cfi_restore 5
 1502              		.cfi_restore 6
 1503              		.cfi_restore 7
 1504              		.cfi_restore 14
 1505              		.loc 1 675 1 view .LVU291
 1506 0036 6FF02D00 		mvn	r0, #45
 1507              	.LVL143:
 1508              		.loc 1 675 1 view .LVU292
 1509 003a 7047     		bx	lr
 1510              	.L164:
 1511              		.align	2
 1512              	.L163:
 1513 003c 00000000 		.word	.LANCHOR8
 1514 0040 00000000 		.word	.LC8
 1515              		.cfi_endproc
 1516              	.LFE35:
 1518              		.section	.rodata.mbedtls_oid_get_pkcs12_pbe_alg.str1.4,"aMS",%progbits,1
 1519              		.align	2
 1520              	.LC9:
 1521 0000 2A864886 		.ascii	"*\206H\206\367\015\001\014\001\003\000"
 1521      F70D010C 
 1521      010300
 1522              		.section	.text.mbedtls_oid_get_pkcs12_pbe_alg,"ax",%progbits
 1523              		.align	1
 1524              		.p2align 2,,3
 1525              		.global	mbedtls_oid_get_pkcs12_pbe_alg
 1526              		.syntax unified
 1527              		.thumb
 1528              		.thumb_func
 1529              		.fpu fpv4-sp-d16
 1531              	mbedtls_oid_get_pkcs12_pbe_alg:
 1532              	.LVL144:
 1533              	.LFB37:
 676:D:/fchai/work/i-cube/I-CUBE-HUAWEI/Middlewares/Third_Party/Huawei/iot_link/network/dtls/mbedtls/mbedtls-2.16.2/library\oid.c **** #endif /* MBEDTLS_MD_C */
 677:D:/fchai/work/i-cube/I-CUBE-HUAWEI/Middlewares/Third_Party/Huawei/iot_link/network/dtls/mbedtls/mbedtls-2.16.2/library\oid.c **** 
 678:D:/fchai/work/i-cube/I-CUBE-HUAWEI/Middlewares/Third_Party/Huawei/iot_link/network/dtls/mbedtls/mbedtls-2.16.2/library\oid.c **** #if defined(MBEDTLS_PKCS12_C)
 679:D:/fchai/work/i-cube/I-CUBE-HUAWEI/Middlewares/Third_Party/Huawei/iot_link/network/dtls/mbedtls/mbedtls-2.16.2/library\oid.c **** /*
 680:D:/fchai/work/i-cube/I-CUBE-HUAWEI/Middlewares/Third_Party/Huawei/iot_link/network/dtls/mbedtls/mbedtls-2.16.2/library\oid.c ****  * For PKCS#12 PBEs
 681:D:/fchai/work/i-cube/I-CUBE-HUAWEI/Middlewares/Third_Party/Huawei/iot_link/network/dtls/mbedtls/mbedtls-2.16.2/library\oid.c ****  */
 682:D:/fchai/work/i-cube/I-CUBE-HUAWEI/Middlewares/Third_Party/Huawei/iot_link/network/dtls/mbedtls/mbedtls-2.16.2/library\oid.c **** typedef struct {
 683:D:/fchai/work/i-cube/I-CUBE-HUAWEI/Middlewares/Third_Party/Huawei/iot_link/network/dtls/mbedtls/mbedtls-2.16.2/library\oid.c ****     mbedtls_oid_descriptor_t    descriptor;
 684:D:/fchai/work/i-cube/I-CUBE-HUAWEI/Middlewares/Third_Party/Huawei/iot_link/network/dtls/mbedtls/mbedtls-2.16.2/library\oid.c ****     mbedtls_md_type_t           md_alg;
 685:D:/fchai/work/i-cube/I-CUBE-HUAWEI/Middlewares/Third_Party/Huawei/iot_link/network/dtls/mbedtls/mbedtls-2.16.2/library\oid.c ****     mbedtls_cipher_type_t       cipher_alg;
 686:D:/fchai/work/i-cube/I-CUBE-HUAWEI/Middlewares/Third_Party/Huawei/iot_link/network/dtls/mbedtls/mbedtls-2.16.2/library\oid.c **** } oid_pkcs12_pbe_alg_t;
 687:D:/fchai/work/i-cube/I-CUBE-HUAWEI/Middlewares/Third_Party/Huawei/iot_link/network/dtls/mbedtls/mbedtls-2.16.2/library\oid.c **** 
ARM GAS  T:\msys\tmp\cclxXSYZ.s 			page 42


 688:D:/fchai/work/i-cube/I-CUBE-HUAWEI/Middlewares/Third_Party/Huawei/iot_link/network/dtls/mbedtls/mbedtls-2.16.2/library\oid.c **** static const oid_pkcs12_pbe_alg_t oid_pkcs12_pbe_alg[] =
 689:D:/fchai/work/i-cube/I-CUBE-HUAWEI/Middlewares/Third_Party/Huawei/iot_link/network/dtls/mbedtls/mbedtls-2.16.2/library\oid.c **** {
 690:D:/fchai/work/i-cube/I-CUBE-HUAWEI/Middlewares/Third_Party/Huawei/iot_link/network/dtls/mbedtls/mbedtls-2.16.2/library\oid.c ****     {
 691:D:/fchai/work/i-cube/I-CUBE-HUAWEI/Middlewares/Third_Party/Huawei/iot_link/network/dtls/mbedtls/mbedtls-2.16.2/library\oid.c ****         { ADD_LEN( MBEDTLS_OID_PKCS12_PBE_SHA1_DES3_EDE_CBC ), "pbeWithSHAAnd3-KeyTripleDES-CBC", "
 692:D:/fchai/work/i-cube/I-CUBE-HUAWEI/Middlewares/Third_Party/Huawei/iot_link/network/dtls/mbedtls/mbedtls-2.16.2/library\oid.c ****         MBEDTLS_MD_SHA1,      MBEDTLS_CIPHER_DES_EDE3_CBC,
 693:D:/fchai/work/i-cube/I-CUBE-HUAWEI/Middlewares/Third_Party/Huawei/iot_link/network/dtls/mbedtls/mbedtls-2.16.2/library\oid.c ****     },
 694:D:/fchai/work/i-cube/I-CUBE-HUAWEI/Middlewares/Third_Party/Huawei/iot_link/network/dtls/mbedtls/mbedtls-2.16.2/library\oid.c ****     {
 695:D:/fchai/work/i-cube/I-CUBE-HUAWEI/Middlewares/Third_Party/Huawei/iot_link/network/dtls/mbedtls/mbedtls-2.16.2/library\oid.c ****         { ADD_LEN( MBEDTLS_OID_PKCS12_PBE_SHA1_DES2_EDE_CBC ), "pbeWithSHAAnd2-KeyTripleDES-CBC", "
 696:D:/fchai/work/i-cube/I-CUBE-HUAWEI/Middlewares/Third_Party/Huawei/iot_link/network/dtls/mbedtls/mbedtls-2.16.2/library\oid.c ****         MBEDTLS_MD_SHA1,      MBEDTLS_CIPHER_DES_EDE_CBC,
 697:D:/fchai/work/i-cube/I-CUBE-HUAWEI/Middlewares/Third_Party/Huawei/iot_link/network/dtls/mbedtls/mbedtls-2.16.2/library\oid.c ****     },
 698:D:/fchai/work/i-cube/I-CUBE-HUAWEI/Middlewares/Third_Party/Huawei/iot_link/network/dtls/mbedtls/mbedtls-2.16.2/library\oid.c ****     {
 699:D:/fchai/work/i-cube/I-CUBE-HUAWEI/Middlewares/Third_Party/Huawei/iot_link/network/dtls/mbedtls/mbedtls-2.16.2/library\oid.c ****         { NULL, 0, NULL, NULL },
 700:D:/fchai/work/i-cube/I-CUBE-HUAWEI/Middlewares/Third_Party/Huawei/iot_link/network/dtls/mbedtls/mbedtls-2.16.2/library\oid.c ****         MBEDTLS_MD_NONE, MBEDTLS_CIPHER_NONE,
 701:D:/fchai/work/i-cube/I-CUBE-HUAWEI/Middlewares/Third_Party/Huawei/iot_link/network/dtls/mbedtls/mbedtls-2.16.2/library\oid.c ****     },
 702:D:/fchai/work/i-cube/I-CUBE-HUAWEI/Middlewares/Third_Party/Huawei/iot_link/network/dtls/mbedtls/mbedtls-2.16.2/library\oid.c **** };
 703:D:/fchai/work/i-cube/I-CUBE-HUAWEI/Middlewares/Third_Party/Huawei/iot_link/network/dtls/mbedtls/mbedtls-2.16.2/library\oid.c **** 
 704:D:/fchai/work/i-cube/I-CUBE-HUAWEI/Middlewares/Third_Party/Huawei/iot_link/network/dtls/mbedtls/mbedtls-2.16.2/library\oid.c **** FN_OID_TYPED_FROM_ASN1(oid_pkcs12_pbe_alg_t, pkcs12_pbe_alg, oid_pkcs12_pbe_alg)
 705:D:/fchai/work/i-cube/I-CUBE-HUAWEI/Middlewares/Third_Party/Huawei/iot_link/network/dtls/mbedtls/mbedtls-2.16.2/library\oid.c **** FN_OID_GET_ATTR2(mbedtls_oid_get_pkcs12_pbe_alg, oid_pkcs12_pbe_alg_t, pkcs12_pbe_alg, mbedtls_md_t
 1534              		.loc 1 705 1 is_stmt 1 view -0
 1535              		.cfi_startproc
 1536              		@ args = 0, pretend = 0, frame = 0
 1537              		@ frame_needed = 0, uses_anonymous_args = 0
 1538              		.loc 1 705 1 view .LVU294
 1539              	.LBB64:
 1540              	.LBI64:
 704:D:/fchai/work/i-cube/I-CUBE-HUAWEI/Middlewares/Third_Party/Huawei/iot_link/network/dtls/mbedtls/mbedtls-2.16.2/library\oid.c **** FN_OID_GET_ATTR2(mbedtls_oid_get_pkcs12_pbe_alg, oid_pkcs12_pbe_alg_t, pkcs12_pbe_alg, mbedtls_md_t
 1541              		.loc 1 704 1 view .LVU295
 1542              	.LBB65:
 704:D:/fchai/work/i-cube/I-CUBE-HUAWEI/Middlewares/Third_Party/Huawei/iot_link/network/dtls/mbedtls/mbedtls-2.16.2/library\oid.c **** FN_OID_GET_ATTR2(mbedtls_oid_get_pkcs12_pbe_alg, oid_pkcs12_pbe_alg_t, pkcs12_pbe_alg, mbedtls_md_t
 1543              		.loc 1 704 1 view .LVU296
 704:D:/fchai/work/i-cube/I-CUBE-HUAWEI/Middlewares/Third_Party/Huawei/iot_link/network/dtls/mbedtls/mbedtls-2.16.2/library\oid.c **** FN_OID_GET_ATTR2(mbedtls_oid_get_pkcs12_pbe_alg, oid_pkcs12_pbe_alg_t, pkcs12_pbe_alg, mbedtls_md_t
 1544              		.loc 1 704 1 view .LVU297
 704:D:/fchai/work/i-cube/I-CUBE-HUAWEI/Middlewares/Third_Party/Huawei/iot_link/network/dtls/mbedtls/mbedtls-2.16.2/library\oid.c **** FN_OID_GET_ATTR2(mbedtls_oid_get_pkcs12_pbe_alg, oid_pkcs12_pbe_alg_t, pkcs12_pbe_alg, mbedtls_md_t
 1545              		.loc 1 704 1 view .LVU298
 1546 0000 00B3     		cbz	r0, .L170
 1547              	.LBE65:
 1548              	.LBE64:
 1549              		.loc 1 705 1 is_stmt 0 view .LVU299
 1550 0002 2DE9F041 		push	{r4, r5, r6, r7, r8, lr}
 1551              	.LCFI39:
 1552              		.cfi_def_cfa_offset 24
 1553              		.cfi_offset 4, -24
 1554              		.cfi_offset 5, -20
 1555              		.cfi_offset 6, -16
 1556              		.cfi_offset 7, -12
 1557              		.cfi_offset 8, -8
 1558              		.cfi_offset 14, -4
 1559              	.LBB67:
 1560              	.LBB66:
 704:D:/fchai/work/i-cube/I-CUBE-HUAWEI/Middlewares/Third_Party/Huawei/iot_link/network/dtls/mbedtls/mbedtls-2.16.2/library\oid.c **** FN_OID_GET_ATTR2(mbedtls_oid_get_pkcs12_pbe_alg, oid_pkcs12_pbe_alg_t, pkcs12_pbe_alg, mbedtls_md_t
 1561              		.loc 1 704 1 view .LVU300
 1562 0006 0A23     		movs	r3, #10
 1563 0008 D0F80480 		ldr	r8, [r0, #4]
 1564 000c 0F4D     		ldr	r5, .L176
 1565 000e 0446     		mov	r4, r0
 1566 0010 0F46     		mov	r7, r1
 1567 0012 0F48     		ldr	r0, .L176+4
ARM GAS  T:\msys\tmp\cclxXSYZ.s 			page 43


 1568              	.LVL145:
 704:D:/fchai/work/i-cube/I-CUBE-HUAWEI/Middlewares/Third_Party/Huawei/iot_link/network/dtls/mbedtls/mbedtls-2.16.2/library\oid.c **** FN_OID_GET_ATTR2(mbedtls_oid_get_pkcs12_pbe_alg, oid_pkcs12_pbe_alg_t, pkcs12_pbe_alg, mbedtls_md_t
 1569              		.loc 1 704 1 view .LVU301
 1570 0014 1646     		mov	r6, r2
 1571 0016 03E0     		b	.L169
 1572              	.LVL146:
 1573              	.L167:
 704:D:/fchai/work/i-cube/I-CUBE-HUAWEI/Middlewares/Third_Party/Huawei/iot_link/network/dtls/mbedtls/mbedtls-2.16.2/library\oid.c **** FN_OID_GET_ATTR2(mbedtls_oid_get_pkcs12_pbe_alg, oid_pkcs12_pbe_alg_t, pkcs12_pbe_alg, mbedtls_md_t
 1574              		.loc 1 704 1 is_stmt 1 view .LVU302
 704:D:/fchai/work/i-cube/I-CUBE-HUAWEI/Middlewares/Third_Party/Huawei/iot_link/network/dtls/mbedtls/mbedtls-2.16.2/library\oid.c **** FN_OID_GET_ATTR2(mbedtls_oid_get_pkcs12_pbe_alg, oid_pkcs12_pbe_alg_t, pkcs12_pbe_alg, mbedtls_md_t
 1575              		.loc 1 704 1 view .LVU303
 704:D:/fchai/work/i-cube/I-CUBE-HUAWEI/Middlewares/Third_Party/Huawei/iot_link/network/dtls/mbedtls/mbedtls-2.16.2/library\oid.c **** FN_OID_GET_ATTR2(mbedtls_oid_get_pkcs12_pbe_alg, oid_pkcs12_pbe_alg_t, pkcs12_pbe_alg, mbedtls_md_t
 1576              		.loc 1 704 1 view .LVU304
 1577 0018 55F8140F 		ldr	r0, [r5, #20]!
 1578              	.LVL147:
 704:D:/fchai/work/i-cube/I-CUBE-HUAWEI/Middlewares/Third_Party/Huawei/iot_link/network/dtls/mbedtls/mbedtls-2.16.2/library\oid.c **** FN_OID_GET_ATTR2(mbedtls_oid_get_pkcs12_pbe_alg, oid_pkcs12_pbe_alg_t, pkcs12_pbe_alg, mbedtls_md_t
 1579              		.loc 1 704 1 is_stmt 0 view .LVU305
 1580 001c 70B1     		cbz	r0, .L171
 1581 001e 6B68     		ldr	r3, [r5, #4]
 1582              	.LVL148:
 1583              	.L169:
 704:D:/fchai/work/i-cube/I-CUBE-HUAWEI/Middlewares/Third_Party/Huawei/iot_link/network/dtls/mbedtls/mbedtls-2.16.2/library\oid.c **** FN_OID_GET_ATTR2(mbedtls_oid_get_pkcs12_pbe_alg, oid_pkcs12_pbe_alg_t, pkcs12_pbe_alg, mbedtls_md_t
 1584              		.loc 1 704 1 is_stmt 1 view .LVU306
 1585 0020 9845     		cmp	r8, r3
 1586 0022 F9D1     		bne	.L167
 1587 0024 A168     		ldr	r1, [r4, #8]
 1588 0026 4246     		mov	r2, r8
 1589 0028 FFF7FEFF 		bl	memcmp
 1590              	.LVL149:
 1591 002c 0028     		cmp	r0, #0
 1592 002e F3D1     		bne	.L167
 1593              	.LVL150:
 704:D:/fchai/work/i-cube/I-CUBE-HUAWEI/Middlewares/Third_Party/Huawei/iot_link/network/dtls/mbedtls/mbedtls-2.16.2/library\oid.c **** FN_OID_GET_ATTR2(mbedtls_oid_get_pkcs12_pbe_alg, oid_pkcs12_pbe_alg_t, pkcs12_pbe_alg, mbedtls_md_t
 1594              		.loc 1 704 1 is_stmt 0 view .LVU307
 1595              	.LBE66:
 1596              	.LBE67:
 1597              		.loc 1 705 1 is_stmt 1 view .LVU308
 1598              		.loc 1 705 1 view .LVU309
 1599 0030 2B7C     		ldrb	r3, [r5, #16]	@ zero_extendqisi2
 1600 0032 3B70     		strb	r3, [r7]
 1601              		.loc 1 705 1 view .LVU310
 1602 0034 6B7C     		ldrb	r3, [r5, #17]	@ zero_extendqisi2
 1603 0036 3370     		strb	r3, [r6]
 1604              		.loc 1 705 1 view .LVU311
 1605 0038 BDE8F081 		pop	{r4, r5, r6, r7, r8, pc}
 1606              	.LVL151:
 1607              	.L171:
 1608              		.loc 1 705 1 is_stmt 0 view .LVU312
 1609 003c 6FF02D00 		mvn	r0, #45
 1610              	.LVL152:
 1611              		.loc 1 705 1 view .LVU313
 1612 0040 BDE8F081 		pop	{r4, r5, r6, r7, r8, pc}
 1613              	.LVL153:
 1614              	.L170:
 1615              	.LCFI40:
 1616              		.cfi_def_cfa_offset 0
 1617              		.cfi_restore 4
ARM GAS  T:\msys\tmp\cclxXSYZ.s 			page 44


 1618              		.cfi_restore 5
 1619              		.cfi_restore 6
 1620              		.cfi_restore 7
 1621              		.cfi_restore 8
 1622              		.cfi_restore 14
 1623              		.loc 1 705 1 view .LVU314
 1624 0044 6FF02D00 		mvn	r0, #45
 1625              	.LVL154:
 1626              		.loc 1 705 1 view .LVU315
 1627 0048 7047     		bx	lr
 1628              	.L177:
 1629 004a 00BF     		.align	2
 1630              	.L176:
 1631 004c 00000000 		.word	.LANCHOR9
 1632 0050 00000000 		.word	.LC9
 1633              		.cfi_endproc
 1634              	.LFE37:
 1636              		.section	.rodata.mbedtls_oid_get_numeric_string.str1.4,"aMS",%progbits,1
 1637              		.align	2
 1638              	.LC10:
 1639 0000 25642E25 		.ascii	"%d.%d\000"
 1639      6400
 1640 0006 0000     		.align	2
 1641              	.LC11:
 1642 0008 2E256400 		.ascii	".%d\000"
 1643              		.section	.text.mbedtls_oid_get_numeric_string,"ax",%progbits
 1644              		.align	1
 1645              		.p2align 2,,3
 1646              		.global	mbedtls_oid_get_numeric_string
 1647              		.syntax unified
 1648              		.thumb
 1649              		.thumb_func
 1650              		.fpu fpv4-sp-d16
 1652              	mbedtls_oid_get_numeric_string:
 1653              	.LVL155:
 1654              	.LFB38:
 706:D:/fchai/work/i-cube/I-CUBE-HUAWEI/Middlewares/Third_Party/Huawei/iot_link/network/dtls/mbedtls/mbedtls-2.16.2/library\oid.c **** #endif /* MBEDTLS_PKCS12_C */
 707:D:/fchai/work/i-cube/I-CUBE-HUAWEI/Middlewares/Third_Party/Huawei/iot_link/network/dtls/mbedtls/mbedtls-2.16.2/library\oid.c **** 
 708:D:/fchai/work/i-cube/I-CUBE-HUAWEI/Middlewares/Third_Party/Huawei/iot_link/network/dtls/mbedtls/mbedtls-2.16.2/library\oid.c **** #define OID_SAFE_SNPRINTF                               \
 709:D:/fchai/work/i-cube/I-CUBE-HUAWEI/Middlewares/Third_Party/Huawei/iot_link/network/dtls/mbedtls/mbedtls-2.16.2/library\oid.c ****     do {                                                \
 710:D:/fchai/work/i-cube/I-CUBE-HUAWEI/Middlewares/Third_Party/Huawei/iot_link/network/dtls/mbedtls/mbedtls-2.16.2/library\oid.c ****         if( ret < 0 || (size_t) ret >= n )              \
 711:D:/fchai/work/i-cube/I-CUBE-HUAWEI/Middlewares/Third_Party/Huawei/iot_link/network/dtls/mbedtls/mbedtls-2.16.2/library\oid.c ****             return( MBEDTLS_ERR_OID_BUF_TOO_SMALL );    \
 712:D:/fchai/work/i-cube/I-CUBE-HUAWEI/Middlewares/Third_Party/Huawei/iot_link/network/dtls/mbedtls/mbedtls-2.16.2/library\oid.c ****                                                         \
 713:D:/fchai/work/i-cube/I-CUBE-HUAWEI/Middlewares/Third_Party/Huawei/iot_link/network/dtls/mbedtls/mbedtls-2.16.2/library\oid.c ****         n -= (size_t) ret;                              \
 714:D:/fchai/work/i-cube/I-CUBE-HUAWEI/Middlewares/Third_Party/Huawei/iot_link/network/dtls/mbedtls/mbedtls-2.16.2/library\oid.c ****         p += (size_t) ret;                              \
 715:D:/fchai/work/i-cube/I-CUBE-HUAWEI/Middlewares/Third_Party/Huawei/iot_link/network/dtls/mbedtls/mbedtls-2.16.2/library\oid.c ****     } while( 0 )
 716:D:/fchai/work/i-cube/I-CUBE-HUAWEI/Middlewares/Third_Party/Huawei/iot_link/network/dtls/mbedtls/mbedtls-2.16.2/library\oid.c **** 
 717:D:/fchai/work/i-cube/I-CUBE-HUAWEI/Middlewares/Third_Party/Huawei/iot_link/network/dtls/mbedtls/mbedtls-2.16.2/library\oid.c **** /* Return the x.y.z.... style numeric string for the given OID */
 718:D:/fchai/work/i-cube/I-CUBE-HUAWEI/Middlewares/Third_Party/Huawei/iot_link/network/dtls/mbedtls/mbedtls-2.16.2/library\oid.c **** int mbedtls_oid_get_numeric_string( char *buf, size_t size,
 719:D:/fchai/work/i-cube/I-CUBE-HUAWEI/Middlewares/Third_Party/Huawei/iot_link/network/dtls/mbedtls/mbedtls-2.16.2/library\oid.c ****                             const mbedtls_asn1_buf *oid )
 720:D:/fchai/work/i-cube/I-CUBE-HUAWEI/Middlewares/Third_Party/Huawei/iot_link/network/dtls/mbedtls/mbedtls-2.16.2/library\oid.c **** {
 1655              		.loc 1 720 1 is_stmt 1 view -0
 1656              		.cfi_startproc
 1657              		@ args = 0, pretend = 0, frame = 8
 1658              		@ frame_needed = 0, uses_anonymous_args = 0
 721:D:/fchai/work/i-cube/I-CUBE-HUAWEI/Middlewares/Third_Party/Huawei/iot_link/network/dtls/mbedtls/mbedtls-2.16.2/library\oid.c ****     int ret;
 1659              		.loc 1 721 5 view .LVU317
ARM GAS  T:\msys\tmp\cclxXSYZ.s 			page 45


 722:D:/fchai/work/i-cube/I-CUBE-HUAWEI/Middlewares/Third_Party/Huawei/iot_link/network/dtls/mbedtls/mbedtls-2.16.2/library\oid.c ****     size_t i, n;
 1660              		.loc 1 722 5 view .LVU318
 723:D:/fchai/work/i-cube/I-CUBE-HUAWEI/Middlewares/Third_Party/Huawei/iot_link/network/dtls/mbedtls/mbedtls-2.16.2/library\oid.c ****     unsigned int value;
 1661              		.loc 1 723 5 view .LVU319
 724:D:/fchai/work/i-cube/I-CUBE-HUAWEI/Middlewares/Third_Party/Huawei/iot_link/network/dtls/mbedtls/mbedtls-2.16.2/library\oid.c ****     char *p;
 1662              		.loc 1 724 5 view .LVU320
 725:D:/fchai/work/i-cube/I-CUBE-HUAWEI/Middlewares/Third_Party/Huawei/iot_link/network/dtls/mbedtls/mbedtls-2.16.2/library\oid.c **** 
 726:D:/fchai/work/i-cube/I-CUBE-HUAWEI/Middlewares/Third_Party/Huawei/iot_link/network/dtls/mbedtls/mbedtls-2.16.2/library\oid.c ****     p = buf;
 1663              		.loc 1 726 5 view .LVU321
 720:D:/fchai/work/i-cube/I-CUBE-HUAWEI/Middlewares/Third_Party/Huawei/iot_link/network/dtls/mbedtls/mbedtls-2.16.2/library\oid.c ****     int ret;
 1664              		.loc 1 720 1 is_stmt 0 view .LVU322
 1665 0000 2DE9F04F 		push	{r4, r5, r6, r7, r8, r9, r10, fp, lr}
 1666              	.LCFI41:
 1667              		.cfi_def_cfa_offset 36
 1668              		.cfi_offset 4, -36
 1669              		.cfi_offset 5, -32
 1670              		.cfi_offset 6, -28
 1671              		.cfi_offset 7, -24
 1672              		.cfi_offset 8, -20
 1673              		.cfi_offset 9, -16
 1674              		.cfi_offset 10, -12
 1675              		.cfi_offset 11, -8
 1676              		.cfi_offset 14, -4
 727:D:/fchai/work/i-cube/I-CUBE-HUAWEI/Middlewares/Third_Party/Huawei/iot_link/network/dtls/mbedtls/mbedtls-2.16.2/library\oid.c ****     n = size;
 728:D:/fchai/work/i-cube/I-CUBE-HUAWEI/Middlewares/Third_Party/Huawei/iot_link/network/dtls/mbedtls/mbedtls-2.16.2/library\oid.c **** 
 729:D:/fchai/work/i-cube/I-CUBE-HUAWEI/Middlewares/Third_Party/Huawei/iot_link/network/dtls/mbedtls/mbedtls-2.16.2/library\oid.c ****     /* First byte contains first two dots */
 730:D:/fchai/work/i-cube/I-CUBE-HUAWEI/Middlewares/Third_Party/Huawei/iot_link/network/dtls/mbedtls/mbedtls-2.16.2/library\oid.c ****     if( oid->len > 0 )
 1677              		.loc 1 730 7 view .LVU323
 1678 0004 5368     		ldr	r3, [r2, #4]
 1679              	.LVL156:
 727:D:/fchai/work/i-cube/I-CUBE-HUAWEI/Middlewares/Third_Party/Huawei/iot_link/network/dtls/mbedtls/mbedtls-2.16.2/library\oid.c ****     n = size;
 1680              		.loc 1 727 5 is_stmt 1 view .LVU324
 720:D:/fchai/work/i-cube/I-CUBE-HUAWEI/Middlewares/Third_Party/Huawei/iot_link/network/dtls/mbedtls/mbedtls-2.16.2/library\oid.c ****     int ret;
 1681              		.loc 1 720 1 is_stmt 0 view .LVU325
 1682 0006 85B0     		sub	sp, sp, #20
 1683              	.LCFI42:
 1684              		.cfi_def_cfa_offset 56
 720:D:/fchai/work/i-cube/I-CUBE-HUAWEI/Middlewares/Third_Party/Huawei/iot_link/network/dtls/mbedtls/mbedtls-2.16.2/library\oid.c ****     int ret;
 1685              		.loc 1 720 1 view .LVU326
 1686 0008 0391     		str	r1, [sp, #12]
 1687              	.LVL157:
 1688              		.loc 1 730 5 is_stmt 1 view .LVU327
 1689              		.loc 1 730 7 is_stmt 0 view .LVU328
 1690 000a 002B     		cmp	r3, #0
 1691 000c 54D0     		beq	.L188
 731:D:/fchai/work/i-cube/I-CUBE-HUAWEI/Middlewares/Third_Party/Huawei/iot_link/network/dtls/mbedtls/mbedtls-2.16.2/library\oid.c ****     {
 732:D:/fchai/work/i-cube/I-CUBE-HUAWEI/Middlewares/Third_Party/Huawei/iot_link/network/dtls/mbedtls/mbedtls-2.16.2/library\oid.c ****         ret = mbedtls_snprintf( p, n, "%d.%d", oid->p[0] / 40, oid->p[0] % 40 );
 1692              		.loc 1 732 9 is_stmt 1 view .LVU329
 1693 000e 9046     		mov	r8, r2
 1694              		.loc 1 732 54 is_stmt 0 view .LVU330
 1695 0010 9268     		ldr	r2, [r2, #8]
 1696              	.LVL158:
 1697              		.loc 1 732 15 view .LVU331
 1698 0012 314B     		ldr	r3, .L193
 1699              		.loc 1 732 54 view .LVU332
 1700 0014 1478     		ldrb	r4, [r2]	@ zero_extendqisi2
 1701              		.loc 1 732 15 view .LVU333
ARM GAS  T:\msys\tmp\cclxXSYZ.s 			page 46


 1702 0016 DFF8C8A0 		ldr	r10, .L193+8
 1703 001a 304A     		ldr	r2, .L193+4
 1704 001c A3FB0453 		umull	r5, r3, r3, r4
 1705 0020 5D09     		lsrs	r5, r3, #5
 1706 0022 05EB8505 		add	r5, r5, r5, lsl #2
 1707 0026 A4EBC504 		sub	r4, r4, r5, lsl #3
 1708 002a E4B2     		uxtb	r4, r4
 1709 002c 0094     		str	r4, [sp]
 1710 002e 5B09     		lsrs	r3, r3, #5
 1711 0030 DAF80040 		ldr	r4, [r10]
 1712 0034 0646     		mov	r6, r0
 1713 0036 A047     		blx	r4
 1714              	.LVL159:
 733:D:/fchai/work/i-cube/I-CUBE-HUAWEI/Middlewares/Third_Party/Huawei/iot_link/network/dtls/mbedtls/mbedtls-2.16.2/library\oid.c ****         OID_SAFE_SNPRINTF;
 1715              		.loc 1 733 9 is_stmt 1 view .LVU334
 1716              		.loc 1 733 9 view .LVU335
 1717 0038 0028     		cmp	r0, #0
 1718              		.loc 1 733 9 is_stmt 0 view .LVU336
 1719 003a 38DB     		blt	.L182
 1720              		.loc 1 733 9 discriminator 2 view .LVU337
 1721 003c 039B     		ldr	r3, [sp, #12]
 1722 003e 9842     		cmp	r0, r3
 1723 0040 35D2     		bcs	.L182
 1724              		.loc 1 733 9 is_stmt 1 discriminator 4 view .LVU338
 734:D:/fchai/work/i-cube/I-CUBE-HUAWEI/Middlewares/Third_Party/Huawei/iot_link/network/dtls/mbedtls/mbedtls-2.16.2/library\oid.c ****     }
 735:D:/fchai/work/i-cube/I-CUBE-HUAWEI/Middlewares/Third_Party/Huawei/iot_link/network/dtls/mbedtls/mbedtls-2.16.2/library\oid.c **** 
 736:D:/fchai/work/i-cube/I-CUBE-HUAWEI/Middlewares/Third_Party/Huawei/iot_link/network/dtls/mbedtls/mbedtls-2.16.2/library\oid.c ****     value = 0;
 737:D:/fchai/work/i-cube/I-CUBE-HUAWEI/Middlewares/Third_Party/Huawei/iot_link/network/dtls/mbedtls/mbedtls-2.16.2/library\oid.c ****     for( i = 1; i < oid->len; i++ )
 1725              		.loc 1 737 5 is_stmt 0 discriminator 4 view .LVU339
 1726 0042 D8F804C0 		ldr	ip, [r8, #4]
 1727 0046 BCF1010F 		cmp	ip, #1
 733:D:/fchai/work/i-cube/I-CUBE-HUAWEI/Middlewares/Third_Party/Huawei/iot_link/network/dtls/mbedtls/mbedtls-2.16.2/library\oid.c ****         OID_SAFE_SNPRINTF;
 1728              		.loc 1 733 9 discriminator 4 view .LVU340
 1729 004a 0644     		add	r6, r6, r0
 1730              	.LVL160:
 733:D:/fchai/work/i-cube/I-CUBE-HUAWEI/Middlewares/Third_Party/Huawei/iot_link/network/dtls/mbedtls/mbedtls-2.16.2/library\oid.c ****         OID_SAFE_SNPRINTF;
 1731              		.loc 1 733 9 discriminator 4 view .LVU341
 1732 004c A3EB0005 		sub	r5, r3, r0
 1733              	.LVL161:
 733:D:/fchai/work/i-cube/I-CUBE-HUAWEI/Middlewares/Third_Party/Huawei/iot_link/network/dtls/mbedtls/mbedtls-2.16.2/library\oid.c ****         OID_SAFE_SNPRINTF;
 1734              		.loc 1 733 9 is_stmt 1 discriminator 4 view .LVU342
 1735              		.loc 1 737 17 discriminator 4 view .LVU343
 1736              		.loc 1 737 5 is_stmt 0 discriminator 4 view .LVU344
 1737 0050 2FD9     		bls	.L178
 1738 0052 D8F808E0 		ldr	lr, [r8, #8]
 738:D:/fchai/work/i-cube/I-CUBE-HUAWEI/Middlewares/Third_Party/Huawei/iot_link/network/dtls/mbedtls/mbedtls-2.16.2/library\oid.c ****     {
 739:D:/fchai/work/i-cube/I-CUBE-HUAWEI/Middlewares/Third_Party/Huawei/iot_link/network/dtls/mbedtls/mbedtls-2.16.2/library\oid.c ****         /* Prevent overflow in value. */
 740:D:/fchai/work/i-cube/I-CUBE-HUAWEI/Middlewares/Third_Party/Huawei/iot_link/network/dtls/mbedtls/mbedtls-2.16.2/library\oid.c ****         if( ( ( value << 7 ) >> 7 ) != value )
 741:D:/fchai/work/i-cube/I-CUBE-HUAWEI/Middlewares/Third_Party/Huawei/iot_link/network/dtls/mbedtls/mbedtls-2.16.2/library\oid.c ****             return( MBEDTLS_ERR_OID_BUF_TOO_SMALL );
 742:D:/fchai/work/i-cube/I-CUBE-HUAWEI/Middlewares/Third_Party/Huawei/iot_link/network/dtls/mbedtls/mbedtls-2.16.2/library\oid.c **** 
 743:D:/fchai/work/i-cube/I-CUBE-HUAWEI/Middlewares/Third_Party/Huawei/iot_link/network/dtls/mbedtls/mbedtls-2.16.2/library\oid.c ****         value <<= 7;
 744:D:/fchai/work/i-cube/I-CUBE-HUAWEI/Middlewares/Third_Party/Huawei/iot_link/network/dtls/mbedtls/mbedtls-2.16.2/library\oid.c ****         value += oid->p[i] & 0x7F;
 745:D:/fchai/work/i-cube/I-CUBE-HUAWEI/Middlewares/Third_Party/Huawei/iot_link/network/dtls/mbedtls/mbedtls-2.16.2/library\oid.c **** 
 746:D:/fchai/work/i-cube/I-CUBE-HUAWEI/Middlewares/Third_Party/Huawei/iot_link/network/dtls/mbedtls/mbedtls-2.16.2/library\oid.c ****         if( !( oid->p[i] & 0x80 ) )
 747:D:/fchai/work/i-cube/I-CUBE-HUAWEI/Middlewares/Third_Party/Huawei/iot_link/network/dtls/mbedtls/mbedtls-2.16.2/library\oid.c ****         {
 748:D:/fchai/work/i-cube/I-CUBE-HUAWEI/Middlewares/Third_Party/Huawei/iot_link/network/dtls/mbedtls/mbedtls-2.16.2/library\oid.c ****             /* Last byte */
 749:D:/fchai/work/i-cube/I-CUBE-HUAWEI/Middlewares/Third_Party/Huawei/iot_link/network/dtls/mbedtls/mbedtls-2.16.2/library\oid.c ****             ret = mbedtls_snprintf( p, n, ".%d", value );
ARM GAS  T:\msys\tmp\cclxXSYZ.s 			page 47


 1739              		.loc 1 749 19 view .LVU345
 1740 0056 DFF88C90 		ldr	r9, .L193+12
 737:D:/fchai/work/i-cube/I-CUBE-HUAWEI/Middlewares/Third_Party/Huawei/iot_link/network/dtls/mbedtls/mbedtls-2.16.2/library\oid.c ****     {
 1741              		.loc 1 737 5 view .LVU346
 1742 005a 0224     		movs	r4, #2
 1743 005c 0023     		movs	r3, #0
 1744 005e 6746     		mov	r7, ip
 1745 0060 12E0     		b	.L183
 1746              	.LVL162:
 1747              	.L191:
 1748              		.loc 1 749 19 view .LVU347
 1749 0062 DAF80070 		ldr	r7, [r10]
 1750 0066 B847     		blx	r7
 1751              	.LVL163:
 750:D:/fchai/work/i-cube/I-CUBE-HUAWEI/Middlewares/Third_Party/Huawei/iot_link/network/dtls/mbedtls/mbedtls-2.16.2/library\oid.c ****             OID_SAFE_SNPRINTF;
 1752              		.loc 1 750 13 is_stmt 1 view .LVU348
 1753              		.loc 1 750 13 view .LVU349
 1754              		.loc 1 750 13 view .LVU350
 1755 0068 0028     		cmp	r0, #0
 1756              		.loc 1 750 13 is_stmt 0 view .LVU351
 1757 006a A5EB0003 		sub	r3, r5, r0
 1758              	.LVL164:
 1759              		.loc 1 750 13 is_stmt 1 view .LVU352
 1760 006e 0644     		add	r6, r6, r0
 1761              	.LVL165:
 1762              		.loc 1 750 13 view .LVU353
 751:D:/fchai/work/i-cube/I-CUBE-HUAWEI/Middlewares/Third_Party/Huawei/iot_link/network/dtls/mbedtls/mbedtls-2.16.2/library\oid.c ****             value = 0;
 1763              		.loc 1 751 13 view .LVU354
 737:D:/fchai/work/i-cube/I-CUBE-HUAWEI/Middlewares/Third_Party/Huawei/iot_link/network/dtls/mbedtls/mbedtls-2.16.2/library\oid.c ****     {
 1764              		.loc 1 737 31 view .LVU355
 737:D:/fchai/work/i-cube/I-CUBE-HUAWEI/Middlewares/Third_Party/Huawei/iot_link/network/dtls/mbedtls/mbedtls-2.16.2/library\oid.c ****     {
 1765              		.loc 1 737 17 view .LVU356
 750:D:/fchai/work/i-cube/I-CUBE-HUAWEI/Middlewares/Third_Party/Huawei/iot_link/network/dtls/mbedtls/mbedtls-2.16.2/library\oid.c ****             OID_SAFE_SNPRINTF;
 1766              		.loc 1 750 13 is_stmt 0 view .LVU357
 1767 0070 1DDB     		blt	.L182
 750:D:/fchai/work/i-cube/I-CUBE-HUAWEI/Middlewares/Third_Party/Huawei/iot_link/network/dtls/mbedtls/mbedtls-2.16.2/library\oid.c ****             OID_SAFE_SNPRINTF;
 1768              		.loc 1 750 13 discriminator 2 view .LVU358
 1769 0072 A842     		cmp	r0, r5
 1770 0074 1BD2     		bcs	.L182
 737:D:/fchai/work/i-cube/I-CUBE-HUAWEI/Middlewares/Third_Party/Huawei/iot_link/network/dtls/mbedtls/mbedtls-2.16.2/library\oid.c ****     {
 1771              		.loc 1 737 5 discriminator 4 view .LVU359
 1772 0076 D8F80470 		ldr	r7, [r8, #4]
 1773 007a A742     		cmp	r7, r4
 1774 007c 20D9     		bls	.L190
 1775 007e D8F808E0 		ldr	lr, [r8, #8]
 750:D:/fchai/work/i-cube/I-CUBE-HUAWEI/Middlewares/Third_Party/Huawei/iot_link/network/dtls/mbedtls/mbedtls-2.16.2/library\oid.c ****             OID_SAFE_SNPRINTF;
 1776              		.loc 1 750 13 view .LVU360
 1777 0082 1D46     		mov	r5, r3
 1778              		.loc 1 751 19 view .LVU361
 1779 0084 0023     		movs	r3, #0
 1780              	.LVL166:
 1781              	.L186:
 1782              		.loc 1 751 19 view .LVU362
 1783 0086 0134     		adds	r4, r4, #1
 1784              	.LVL167:
 1785              	.L183:
 743:D:/fchai/work/i-cube/I-CUBE-HUAWEI/Middlewares/Third_Party/Huawei/iot_link/network/dtls/mbedtls/mbedtls-2.16.2/library\oid.c ****         value += oid->p[i] & 0x7F;
ARM GAS  T:\msys\tmp\cclxXSYZ.s 			page 48


 1786              		.loc 1 743 9 is_stmt 1 view .LVU363
 744:D:/fchai/work/i-cube/I-CUBE-HUAWEI/Middlewares/Third_Party/Huawei/iot_link/network/dtls/mbedtls/mbedtls-2.16.2/library\oid.c **** 
 1787              		.loc 1 744 9 view .LVU364
 749:D:/fchai/work/i-cube/I-CUBE-HUAWEI/Middlewares/Third_Party/Huawei/iot_link/network/dtls/mbedtls/mbedtls-2.16.2/library\oid.c ****             OID_SAFE_SNPRINTF;
 1788              		.loc 1 749 13 view .LVU365
 744:D:/fchai/work/i-cube/I-CUBE-HUAWEI/Middlewares/Third_Party/Huawei/iot_link/network/dtls/mbedtls/mbedtls-2.16.2/library\oid.c **** 
 1789              		.loc 1 744 24 is_stmt 0 view .LVU366
 1790 0088 0EEB0402 		add	r2, lr, r4
 749:D:/fchai/work/i-cube/I-CUBE-HUAWEI/Middlewares/Third_Party/Huawei/iot_link/network/dtls/mbedtls/mbedtls-2.16.2/library\oid.c ****             OID_SAFE_SNPRINTF;
 1791              		.loc 1 749 19 view .LVU367
 1792 008c 2946     		mov	r1, r5
 744:D:/fchai/work/i-cube/I-CUBE-HUAWEI/Middlewares/Third_Party/Huawei/iot_link/network/dtls/mbedtls/mbedtls-2.16.2/library\oid.c **** 
 1793              		.loc 1 744 24 view .LVU368
 1794 008e 12F801CC 		ldrb	ip, [r2, #-1]	@ zero_extendqisi2
 744:D:/fchai/work/i-cube/I-CUBE-HUAWEI/Middlewares/Third_Party/Huawei/iot_link/network/dtls/mbedtls/mbedtls-2.16.2/library\oid.c **** 
 1795              		.loc 1 744 28 view .LVU369
 1796 0092 0CF07F0B 		and	fp, ip, #127
 746:D:/fchai/work/i-cube/I-CUBE-HUAWEI/Middlewares/Third_Party/Huawei/iot_link/network/dtls/mbedtls/mbedtls-2.16.2/library\oid.c ****         {
 1797              		.loc 1 746 11 view .LVU370
 1798 0096 1CF0800F 		tst	ip, #128
 749:D:/fchai/work/i-cube/I-CUBE-HUAWEI/Middlewares/Third_Party/Huawei/iot_link/network/dtls/mbedtls/mbedtls-2.16.2/library\oid.c ****             OID_SAFE_SNPRINTF;
 1799              		.loc 1 749 19 view .LVU371
 1800 009a 4A46     		mov	r2, r9
 1801 009c 3046     		mov	r0, r6
 744:D:/fchai/work/i-cube/I-CUBE-HUAWEI/Middlewares/Third_Party/Huawei/iot_link/network/dtls/mbedtls/mbedtls-2.16.2/library\oid.c **** 
 1802              		.loc 1 744 15 view .LVU372
 1803 009e 0BEBC313 		add	r3, fp, r3, lsl #7
 1804              	.LVL168:
 746:D:/fchai/work/i-cube/I-CUBE-HUAWEI/Middlewares/Third_Party/Huawei/iot_link/network/dtls/mbedtls/mbedtls-2.16.2/library\oid.c ****         {
 1805              		.loc 1 746 9 is_stmt 1 view .LVU373
 737:D:/fchai/work/i-cube/I-CUBE-HUAWEI/Middlewares/Third_Party/Huawei/iot_link/network/dtls/mbedtls/mbedtls-2.16.2/library\oid.c ****     {
 1806              		.loc 1 737 31 view .LVU374
 737:D:/fchai/work/i-cube/I-CUBE-HUAWEI/Middlewares/Third_Party/Huawei/iot_link/network/dtls/mbedtls/mbedtls-2.16.2/library\oid.c ****     {
 1807              		.loc 1 737 17 view .LVU375
 746:D:/fchai/work/i-cube/I-CUBE-HUAWEI/Middlewares/Third_Party/Huawei/iot_link/network/dtls/mbedtls/mbedtls-2.16.2/library\oid.c ****         {
 1808              		.loc 1 746 11 is_stmt 0 view .LVU376
 1809 00a2 DED0     		beq	.L191
 1810              	.LVL169:
 740:D:/fchai/work/i-cube/I-CUBE-HUAWEI/Middlewares/Third_Party/Huawei/iot_link/network/dtls/mbedtls/mbedtls-2.16.2/library\oid.c ****             return( MBEDTLS_ERR_OID_BUF_TOO_SMALL );
 1811              		.loc 1 740 9 is_stmt 1 discriminator 2 view .LVU377
 737:D:/fchai/work/i-cube/I-CUBE-HUAWEI/Middlewares/Third_Party/Huawei/iot_link/network/dtls/mbedtls/mbedtls-2.16.2/library\oid.c ****     {
 1812              		.loc 1 737 5 is_stmt 0 discriminator 2 view .LVU378
 1813 00a4 A742     		cmp	r7, r4
 1814 00a6 11D9     		bls	.L192
 740:D:/fchai/work/i-cube/I-CUBE-HUAWEI/Middlewares/Third_Party/Huawei/iot_link/network/dtls/mbedtls/mbedtls-2.16.2/library\oid.c ****             return( MBEDTLS_ERR_OID_BUF_TOO_SMALL );
 1815              		.loc 1 740 11 view .LVU379
 1816 00a8 13F07E4F 		tst	r3, #-33554432
 1817 00ac EBD0     		beq	.L186
 1818              	.LVL170:
 1819              	.L182:
 733:D:/fchai/work/i-cube/I-CUBE-HUAWEI/Middlewares/Third_Party/Huawei/iot_link/network/dtls/mbedtls/mbedtls-2.16.2/library\oid.c ****     }
 1820              		.loc 1 733 9 view .LVU380
 1821 00ae 6FF00A00 		mvn	r0, #10
 1822              	.L178:
 752:D:/fchai/work/i-cube/I-CUBE-HUAWEI/Middlewares/Third_Party/Huawei/iot_link/network/dtls/mbedtls/mbedtls-2.16.2/library\oid.c ****         }
 753:D:/fchai/work/i-cube/I-CUBE-HUAWEI/Middlewares/Third_Party/Huawei/iot_link/network/dtls/mbedtls/mbedtls-2.16.2/library\oid.c ****     }
 754:D:/fchai/work/i-cube/I-CUBE-HUAWEI/Middlewares/Third_Party/Huawei/iot_link/network/dtls/mbedtls/mbedtls-2.16.2/library\oid.c **** 
ARM GAS  T:\msys\tmp\cclxXSYZ.s 			page 49


 755:D:/fchai/work/i-cube/I-CUBE-HUAWEI/Middlewares/Third_Party/Huawei/iot_link/network/dtls/mbedtls/mbedtls-2.16.2/library\oid.c ****     return( (int) ( size - n ) );
 756:D:/fchai/work/i-cube/I-CUBE-HUAWEI/Middlewares/Third_Party/Huawei/iot_link/network/dtls/mbedtls/mbedtls-2.16.2/library\oid.c **** }
 1823              		.loc 1 756 1 view .LVU381
 1824 00b2 05B0     		add	sp, sp, #20
 1825              	.LCFI43:
 1826              		.cfi_remember_state
 1827              		.cfi_def_cfa_offset 36
 1828              		@ sp needed
 1829 00b4 BDE8F08F 		pop	{r4, r5, r6, r7, r8, r9, r10, fp, pc}
 1830              	.LVL171:
 1831              	.L188:
 1832              	.LCFI44:
 1833              		.cfi_restore_state
 1834              		.loc 1 756 1 view .LVU382
 1835 00b8 1846     		mov	r0, r3
 1836              	.LVL172:
 755:D:/fchai/work/i-cube/I-CUBE-HUAWEI/Middlewares/Third_Party/Huawei/iot_link/network/dtls/mbedtls/mbedtls-2.16.2/library\oid.c **** }
 1837              		.loc 1 755 5 is_stmt 1 view .LVU383
 1838              		.loc 1 756 1 is_stmt 0 view .LVU384
 1839 00ba 05B0     		add	sp, sp, #20
 1840              	.LCFI45:
 1841              		.cfi_remember_state
 1842              		.cfi_def_cfa_offset 36
 1843              		@ sp needed
 1844 00bc BDE8F08F 		pop	{r4, r5, r6, r7, r8, r9, r10, fp, pc}
 1845              	.LVL173:
 1846              	.L190:
 1847              	.LCFI46:
 1848              		.cfi_restore_state
 1849              		.loc 1 756 1 view .LVU385
 1850 00c0 039B     		ldr	r3, [sp, #12]
 1851              	.LVL174:
 1852              		.loc 1 756 1 view .LVU386
 1853 00c2 401B     		subs	r0, r0, r5
 1854              	.LVL175:
 1855              		.loc 1 756 1 view .LVU387
 1856 00c4 1844     		add	r0, r0, r3
 1857 00c6 05B0     		add	sp, sp, #20
 1858              	.LCFI47:
 1859              		.cfi_remember_state
 1860              		.cfi_def_cfa_offset 36
 1861              		@ sp needed
 1862 00c8 BDE8F08F 		pop	{r4, r5, r6, r7, r8, r9, r10, fp, pc}
 1863              	.LVL176:
 1864              	.L192:
 1865              	.LCFI48:
 1866              		.cfi_restore_state
 1867              		.loc 1 756 1 view .LVU388
 1868 00cc 039B     		ldr	r3, [sp, #12]
 1869              	.LVL177:
 1870              		.loc 1 756 1 view .LVU389
 1871 00ce 581B     		subs	r0, r3, r5
 1872              	.LVL178:
 1873              		.loc 1 756 1 view .LVU390
 1874 00d0 05B0     		add	sp, sp, #20
 1875              	.LCFI49:
 1876              		.cfi_def_cfa_offset 36
ARM GAS  T:\msys\tmp\cclxXSYZ.s 			page 50


 1877              		@ sp needed
 1878 00d2 BDE8F08F 		pop	{r4, r5, r6, r7, r8, r9, r10, fp, pc}
 1879              	.LVL179:
 1880              	.L194:
 1881              		.loc 1 756 1 view .LVU391
 1882 00d6 00BF     		.align	2
 1883              	.L193:
 1884 00d8 CDCCCCCC 		.word	-858993459
 1885 00dc 00000000 		.word	.LC10
 1886 00e0 00000000 		.word	mbedtls_snprintf
 1887 00e4 08000000 		.word	.LC11
 1888              		.cfi_endproc
 1889              	.LFE38:
 1891              		.section	.rodata.str1.4,"aMS",%progbits,1
 1892              		.align	2
 1893              	.LC12:
 1894 0000 70626557 		.ascii	"pbeWithSHAAnd3-KeyTripleDES-CBC\000"
 1894      69746853 
 1894      4841416E 
 1894      64332D4B 
 1894      65795472 
 1895              		.align	2
 1896              	.LC13:
 1897 0020 50424520 		.ascii	"PBE with SHA1 and 3-Key 3DES\000"
 1897      77697468 
 1897      20534841 
 1897      3120616E 
 1897      6420332D 
 1898 003d 000000   		.align	2
 1899              	.LC14:
 1900 0040 2A864886 		.ascii	"*\206H\206\367\015\001\014\001\004\000"
 1900      F70D010C 
 1900      010400
 1901 004b 00       		.align	2
 1902              	.LC15:
 1903 004c 70626557 		.ascii	"pbeWithSHAAnd2-KeyTripleDES-CBC\000"
 1903      69746853 
 1903      4841416E 
 1903      64322D4B 
 1903      65795472 
 1904              		.align	2
 1905              	.LC16:
 1906 006c 50424520 		.ascii	"PBE with SHA1 and 2-Key 3DES\000"
 1906      77697468 
 1906      20534841 
 1906      3120616E 
 1906      6420322D 
 1907 0089 000000   		.align	2
 1908              	.LC17:
 1909 008c 686D6163 		.ascii	"hmacSHA1\000"
 1909      53484131 
 1909      00
 1910 0095 000000   		.align	2
 1911              	.LC18:
 1912 0098 484D4143 		.ascii	"HMAC-SHA-1\000"
 1912      2D534841 
 1912      2D3100
ARM GAS  T:\msys\tmp\cclxXSYZ.s 			page 51


 1913 00a3 00       		.align	2
 1914              	.LC19:
 1915 00a4 2A864886 		.ascii	"*\206H\206\367\015\002\010\000"
 1915      F70D0208 
 1915      00
 1916 00ad 000000   		.align	2
 1917              	.LC20:
 1918 00b0 686D6163 		.ascii	"hmacSHA224\000"
 1918      53484132 
 1918      323400
 1919 00bb 00       		.align	2
 1920              	.LC21:
 1921 00bc 484D4143 		.ascii	"HMAC-SHA-224\000"
 1921      2D534841 
 1921      2D323234 
 1921      00
 1922 00c9 000000   		.align	2
 1923              	.LC22:
 1924 00cc 2A864886 		.ascii	"*\206H\206\367\015\002\011\000"
 1924      F70D0209 
 1924      00
 1925 00d5 000000   		.align	2
 1926              	.LC23:
 1927 00d8 686D6163 		.ascii	"hmacSHA256\000"
 1927      53484132 
 1927      353600
 1928 00e3 00       		.align	2
 1929              	.LC24:
 1930 00e4 484D4143 		.ascii	"HMAC-SHA-256\000"
 1930      2D534841 
 1930      2D323536 
 1930      00
 1931 00f1 000000   		.align	2
 1932              	.LC25:
 1933 00f4 69642D73 		.ascii	"id-sha1\000"
 1933      68613100 
 1934              		.align	2
 1935              	.LC26:
 1936 00fc 5348412D 		.ascii	"SHA-1\000"
 1936      3100
 1937 0102 0000     		.align	2
 1938              	.LC27:
 1939 0104 60864801 		.ascii	"`\206H\001e\003\004\002\004\000"
 1939      65030402 
 1939      0400
 1940 010e 0000     		.align	2
 1941              	.LC28:
 1942 0110 69642D73 		.ascii	"id-sha224\000"
 1942      68613232 
 1942      3400
 1943 011a 0000     		.align	2
 1944              	.LC29:
 1945 011c 5348412D 		.ascii	"SHA-224\000"
 1945      32323400 
 1946              		.align	2
 1947              	.LC30:
 1948 0124 60864801 		.ascii	"`\206H\001e\003\004\002\001\000"
ARM GAS  T:\msys\tmp\cclxXSYZ.s 			page 52


 1948      65030402 
 1948      0100
 1949 012e 0000     		.align	2
 1950              	.LC31:
 1951 0130 69642D73 		.ascii	"id-sha256\000"
 1951      68613235 
 1951      3600
 1952 013a 0000     		.align	2
 1953              	.LC32:
 1954 013c 5348412D 		.ascii	"SHA-256\000"
 1954      32353600 
 1955              		.align	2
 1956              	.LC33:
 1957 0144 64657343 		.ascii	"desCBC\000"
 1957      424300
 1958 014b 00       		.align	2
 1959              	.LC34:
 1960 014c 4445532D 		.ascii	"DES-CBC\000"
 1960      43424300 
 1961              		.align	2
 1962              	.LC35:
 1963 0154 2A864886 		.ascii	"*\206H\206\367\015\003\007\000"
 1963      F70D0307 
 1963      00
 1964 015d 000000   		.align	2
 1965              	.LC36:
 1966 0160 6465732D 		.ascii	"des-ede3-cbc\000"
 1966      65646533 
 1966      2D636263 
 1966      00
 1967 016d 000000   		.align	2
 1968              	.LC37:
 1969 0170 4445532D 		.ascii	"DES-EDE3-CBC\000"
 1969      45444533 
 1969      2D434243 
 1969      00
 1970 017d 000000   		.align	2
 1971              	.LC38:
 1972 0180 73656370 		.ascii	"secp192r1\000"
 1972      31393272 
 1972      3100
 1973 018a 0000     		.align	2
 1974              	.LC40:
 1975 018c 73656370 		.ascii	"secp224r1\000"
 1975      32323472 
 1975      3100
 1976 0196 0000     		.align	2
 1977              	.LC41:
 1978 0198 2A8648CE 		.ascii	"*\206H\316=\003\001\007\000"
 1978      3D030107 
 1978      00
 1979 01a1 000000   		.align	2
 1980              	.LC42:
 1981 01a4 73656370 		.ascii	"secp256r1\000"
 1981      32353672 
 1981      3100
 1982 01ae 0000     		.align	2
ARM GAS  T:\msys\tmp\cclxXSYZ.s 			page 53


 1983              	.LC44:
 1984 01b0 73656370 		.ascii	"secp384r1\000"
 1984      33383472 
 1984      3100
 1985 01ba 0000     		.align	2
 1986              	.LC46:
 1987 01bc 73656370 		.ascii	"secp521r1\000"
 1987      35323172 
 1987      3100
 1988 01c6 0000     		.align	2
 1989              	.LC48:
 1990 01c8 73656370 		.ascii	"secp192k1\000"
 1990      3139326B 
 1990      3100
 1991 01d2 0000     		.align	2
 1992              	.LC50:
 1993 01d4 73656370 		.ascii	"secp224k1\000"
 1993      3232346B 
 1993      3100
 1994 01de 0000     		.align	2
 1995              	.LC52:
 1996 01e0 73656370 		.ascii	"secp256k1\000"
 1996      3235366B 
 1996      3100
 1997 01ea 0000     		.align	2
 1998              	.LC53:
 1999 01ec 72736145 		.ascii	"rsaEncryption\000"
 1999      6E637279 
 1999      7074696F 
 1999      6E00
 2000 01fa 0000     		.align	2
 2001              	.LC54:
 2002 01fc 52534100 		.ascii	"RSA\000"
 2003              		.align	2
 2004              	.LC55:
 2005 0200 2A8648CE 		.ascii	"*\206H\316=\002\001\000"
 2005      3D020100 
 2006              		.align	2
 2007              	.LC56:
 2008 0208 69642D65 		.ascii	"id-ecPublicKey\000"
 2008      63507562 
 2008      6C69634B 
 2008      657900
 2009 0217 00       		.align	2
 2010              	.LC57:
 2011 0218 47656E65 		.ascii	"Generic EC key\000"
 2011      72696320 
 2011      4543206B 
 2011      657900
 2012 0227 00       		.align	2
 2013              	.LC58:
 2014 0228 2B810401 		.ascii	"+\201\004\001\014\000"
 2014      0C00
 2015 022e 0000     		.align	2
 2016              	.LC59:
 2017 0230 69642D65 		.ascii	"id-ecDH\000"
 2017      63444800 
ARM GAS  T:\msys\tmp\cclxXSYZ.s 			page 54


 2018              		.align	2
 2019              	.LC60:
 2020 0238 4543206B 		.ascii	"EC key for ECDH\000"
 2020      65792066 
 2020      6F722045 
 2020      43444800 
 2021              		.align	2
 2022              	.LC61:
 2023 0248 7368612D 		.ascii	"sha-1WithRSAEncryption\000"
 2023      31576974 
