ARM GAS  T:\msys\tmp\ccxhCqM9.s 			page 1


   1              		.cpu cortex-m4
   2              		.eabi_attribute 27, 1
   3              		.eabi_attribute 28, 1
   4              		.eabi_attribute 20, 1
   5              		.eabi_attribute 21, 1
   6              		.eabi_attribute 23, 3
   7              		.eabi_attribute 24, 1
   8              		.eabi_attribute 25, 1
   9              		.eabi_attribute 26, 1
  10              		.eabi_attribute 30, 2
  11              		.eabi_attribute 34, 1
  12              		.eabi_attribute 18, 4
  13              		.file	"pem.c"
  14              		.text
  15              	.Ltext0:
  16              		.cfi_sections	.debug_frame
  17              		.section	.text.mbedtls_pem_init,"ax",%progbits
  18              		.align	1
  19              		.p2align 2,,3
  20              		.global	mbedtls_pem_init
  21              		.arch armv7e-m
  22              		.syntax unified
  23              		.thumb
  24              		.thumb_func
  25              		.fpu fpv4-sp-d16
  27              	mbedtls_pem_init:
  28              	.LVL0:
  29              	.LFB10:
  30              		.file 1 "D:/fchai/work/i-cube/I-CUBE-HUAWEI/Middlewares/Third_Party/Huawei/iot_link/network/dtls/m
   1:D:/fchai/work/i-cube/I-CUBE-HUAWEI/Middlewares/Third_Party/Huawei/iot_link/network/dtls/mbedtls/mbedtls-2.16.2/library\pem.c **** /*
   2:D:/fchai/work/i-cube/I-CUBE-HUAWEI/Middlewares/Third_Party/Huawei/iot_link/network/dtls/mbedtls/mbedtls-2.16.2/library\pem.c ****  *  Privacy Enhanced Mail (PEM) decoding
   3:D:/fchai/work/i-cube/I-CUBE-HUAWEI/Middlewares/Third_Party/Huawei/iot_link/network/dtls/mbedtls/mbedtls-2.16.2/library\pem.c ****  *
   4:D:/fchai/work/i-cube/I-CUBE-HUAWEI/Middlewares/Third_Party/Huawei/iot_link/network/dtls/mbedtls/mbedtls-2.16.2/library\pem.c ****  *  Copyright (C) 2006-2015, ARM Limited, All Rights Reserved
   5:D:/fchai/work/i-cube/I-CUBE-HUAWEI/Middlewares/Third_Party/Huawei/iot_link/network/dtls/mbedtls/mbedtls-2.16.2/library\pem.c ****  *  SPDX-License-Identifier: Apache-2.0
   6:D:/fchai/work/i-cube/I-CUBE-HUAWEI/Middlewares/Third_Party/Huawei/iot_link/network/dtls/mbedtls/mbedtls-2.16.2/library\pem.c ****  *
   7:D:/fchai/work/i-cube/I-CUBE-HUAWEI/Middlewares/Third_Party/Huawei/iot_link/network/dtls/mbedtls/mbedtls-2.16.2/library\pem.c ****  *  Licensed under the Apache License, Version 2.0 (the "License"); you may
   8:D:/fchai/work/i-cube/I-CUBE-HUAWEI/Middlewares/Third_Party/Huawei/iot_link/network/dtls/mbedtls/mbedtls-2.16.2/library\pem.c ****  *  not use this file except in compliance with the License.
   9:D:/fchai/work/i-cube/I-CUBE-HUAWEI/Middlewares/Third_Party/Huawei/iot_link/network/dtls/mbedtls/mbedtls-2.16.2/library\pem.c ****  *  You may obtain a copy of the License at
  10:D:/fchai/work/i-cube/I-CUBE-HUAWEI/Middlewares/Third_Party/Huawei/iot_link/network/dtls/mbedtls/mbedtls-2.16.2/library\pem.c ****  *
  11:D:/fchai/work/i-cube/I-CUBE-HUAWEI/Middlewares/Third_Party/Huawei/iot_link/network/dtls/mbedtls/mbedtls-2.16.2/library\pem.c ****  *  http://www.apache.org/licenses/LICENSE-2.0
  12:D:/fchai/work/i-cube/I-CUBE-HUAWEI/Middlewares/Third_Party/Huawei/iot_link/network/dtls/mbedtls/mbedtls-2.16.2/library\pem.c ****  *
  13:D:/fchai/work/i-cube/I-CUBE-HUAWEI/Middlewares/Third_Party/Huawei/iot_link/network/dtls/mbedtls/mbedtls-2.16.2/library\pem.c ****  *  Unless required by applicable law or agreed to in writing, software
  14:D:/fchai/work/i-cube/I-CUBE-HUAWEI/Middlewares/Third_Party/Huawei/iot_link/network/dtls/mbedtls/mbedtls-2.16.2/library\pem.c ****  *  distributed under the License is distributed on an "AS IS" BASIS, WITHOUT
  15:D:/fchai/work/i-cube/I-CUBE-HUAWEI/Middlewares/Third_Party/Huawei/iot_link/network/dtls/mbedtls/mbedtls-2.16.2/library\pem.c ****  *  WARRANTIES OR CONDITIONS OF ANY KIND, either express or implied.
  16:D:/fchai/work/i-cube/I-CUBE-HUAWEI/Middlewares/Third_Party/Huawei/iot_link/network/dtls/mbedtls/mbedtls-2.16.2/library\pem.c ****  *  See the License for the specific language governing permissions and
  17:D:/fchai/work/i-cube/I-CUBE-HUAWEI/Middlewares/Third_Party/Huawei/iot_link/network/dtls/mbedtls/mbedtls-2.16.2/library\pem.c ****  *  limitations under the License.
  18:D:/fchai/work/i-cube/I-CUBE-HUAWEI/Middlewares/Third_Party/Huawei/iot_link/network/dtls/mbedtls/mbedtls-2.16.2/library\pem.c ****  *
  19:D:/fchai/work/i-cube/I-CUBE-HUAWEI/Middlewares/Third_Party/Huawei/iot_link/network/dtls/mbedtls/mbedtls-2.16.2/library\pem.c ****  *  This file is part of mbed TLS (https://tls.mbed.org)
  20:D:/fchai/work/i-cube/I-CUBE-HUAWEI/Middlewares/Third_Party/Huawei/iot_link/network/dtls/mbedtls/mbedtls-2.16.2/library\pem.c ****  */
  21:D:/fchai/work/i-cube/I-CUBE-HUAWEI/Middlewares/Third_Party/Huawei/iot_link/network/dtls/mbedtls/mbedtls-2.16.2/library\pem.c **** 
  22:D:/fchai/work/i-cube/I-CUBE-HUAWEI/Middlewares/Third_Party/Huawei/iot_link/network/dtls/mbedtls/mbedtls-2.16.2/library\pem.c **** #if !defined(MBEDTLS_CONFIG_FILE)
  23:D:/fchai/work/i-cube/I-CUBE-HUAWEI/Middlewares/Third_Party/Huawei/iot_link/network/dtls/mbedtls/mbedtls-2.16.2/library\pem.c **** #include "mbedtls/config.h"
  24:D:/fchai/work/i-cube/I-CUBE-HUAWEI/Middlewares/Third_Party/Huawei/iot_link/network/dtls/mbedtls/mbedtls-2.16.2/library\pem.c **** #else
  25:D:/fchai/work/i-cube/I-CUBE-HUAWEI/Middlewares/Third_Party/Huawei/iot_link/network/dtls/mbedtls/mbedtls-2.16.2/library\pem.c **** #include MBEDTLS_CONFIG_FILE
  26:D:/fchai/work/i-cube/I-CUBE-HUAWEI/Middlewares/Third_Party/Huawei/iot_link/network/dtls/mbedtls/mbedtls-2.16.2/library\pem.c **** #endif
  27:D:/fchai/work/i-cube/I-CUBE-HUAWEI/Middlewares/Third_Party/Huawei/iot_link/network/dtls/mbedtls/mbedtls-2.16.2/library\pem.c **** 
  28:D:/fchai/work/i-cube/I-CUBE-HUAWEI/Middlewares/Third_Party/Huawei/iot_link/network/dtls/mbedtls/mbedtls-2.16.2/library\pem.c **** #if defined(MBEDTLS_PEM_PARSE_C) || defined(MBEDTLS_PEM_WRITE_C)
ARM GAS  T:\msys\tmp\ccxhCqM9.s 			page 2


  29:D:/fchai/work/i-cube/I-CUBE-HUAWEI/Middlewares/Third_Party/Huawei/iot_link/network/dtls/mbedtls/mbedtls-2.16.2/library\pem.c **** 
  30:D:/fchai/work/i-cube/I-CUBE-HUAWEI/Middlewares/Third_Party/Huawei/iot_link/network/dtls/mbedtls/mbedtls-2.16.2/library\pem.c **** #include "mbedtls/pem.h"
  31:D:/fchai/work/i-cube/I-CUBE-HUAWEI/Middlewares/Third_Party/Huawei/iot_link/network/dtls/mbedtls/mbedtls-2.16.2/library\pem.c **** #include "mbedtls/base64.h"
  32:D:/fchai/work/i-cube/I-CUBE-HUAWEI/Middlewares/Third_Party/Huawei/iot_link/network/dtls/mbedtls/mbedtls-2.16.2/library\pem.c **** #include "mbedtls/des.h"
  33:D:/fchai/work/i-cube/I-CUBE-HUAWEI/Middlewares/Third_Party/Huawei/iot_link/network/dtls/mbedtls/mbedtls-2.16.2/library\pem.c **** #include "mbedtls/aes.h"
  34:D:/fchai/work/i-cube/I-CUBE-HUAWEI/Middlewares/Third_Party/Huawei/iot_link/network/dtls/mbedtls/mbedtls-2.16.2/library\pem.c **** #include "mbedtls/md5.h"
  35:D:/fchai/work/i-cube/I-CUBE-HUAWEI/Middlewares/Third_Party/Huawei/iot_link/network/dtls/mbedtls/mbedtls-2.16.2/library\pem.c **** #include "mbedtls/cipher.h"
  36:D:/fchai/work/i-cube/I-CUBE-HUAWEI/Middlewares/Third_Party/Huawei/iot_link/network/dtls/mbedtls/mbedtls-2.16.2/library\pem.c **** #include "mbedtls/platform_util.h"
  37:D:/fchai/work/i-cube/I-CUBE-HUAWEI/Middlewares/Third_Party/Huawei/iot_link/network/dtls/mbedtls/mbedtls-2.16.2/library\pem.c **** 
  38:D:/fchai/work/i-cube/I-CUBE-HUAWEI/Middlewares/Third_Party/Huawei/iot_link/network/dtls/mbedtls/mbedtls-2.16.2/library\pem.c **** #include <string.h>
  39:D:/fchai/work/i-cube/I-CUBE-HUAWEI/Middlewares/Third_Party/Huawei/iot_link/network/dtls/mbedtls/mbedtls-2.16.2/library\pem.c **** 
  40:D:/fchai/work/i-cube/I-CUBE-HUAWEI/Middlewares/Third_Party/Huawei/iot_link/network/dtls/mbedtls/mbedtls-2.16.2/library\pem.c **** #if defined(MBEDTLS_PLATFORM_C)
  41:D:/fchai/work/i-cube/I-CUBE-HUAWEI/Middlewares/Third_Party/Huawei/iot_link/network/dtls/mbedtls/mbedtls-2.16.2/library\pem.c **** #include "mbedtls/platform.h"
  42:D:/fchai/work/i-cube/I-CUBE-HUAWEI/Middlewares/Third_Party/Huawei/iot_link/network/dtls/mbedtls/mbedtls-2.16.2/library\pem.c **** #else
  43:D:/fchai/work/i-cube/I-CUBE-HUAWEI/Middlewares/Third_Party/Huawei/iot_link/network/dtls/mbedtls/mbedtls-2.16.2/library\pem.c **** #include <stdlib.h>
  44:D:/fchai/work/i-cube/I-CUBE-HUAWEI/Middlewares/Third_Party/Huawei/iot_link/network/dtls/mbedtls/mbedtls-2.16.2/library\pem.c **** #define mbedtls_calloc    calloc
  45:D:/fchai/work/i-cube/I-CUBE-HUAWEI/Middlewares/Third_Party/Huawei/iot_link/network/dtls/mbedtls/mbedtls-2.16.2/library\pem.c **** #define mbedtls_free       free
  46:D:/fchai/work/i-cube/I-CUBE-HUAWEI/Middlewares/Third_Party/Huawei/iot_link/network/dtls/mbedtls/mbedtls-2.16.2/library\pem.c **** #endif
  47:D:/fchai/work/i-cube/I-CUBE-HUAWEI/Middlewares/Third_Party/Huawei/iot_link/network/dtls/mbedtls/mbedtls-2.16.2/library\pem.c **** 
  48:D:/fchai/work/i-cube/I-CUBE-HUAWEI/Middlewares/Third_Party/Huawei/iot_link/network/dtls/mbedtls/mbedtls-2.16.2/library\pem.c **** #if defined(MBEDTLS_PEM_PARSE_C)
  49:D:/fchai/work/i-cube/I-CUBE-HUAWEI/Middlewares/Third_Party/Huawei/iot_link/network/dtls/mbedtls/mbedtls-2.16.2/library\pem.c **** void mbedtls_pem_init( mbedtls_pem_context *ctx )
  50:D:/fchai/work/i-cube/I-CUBE-HUAWEI/Middlewares/Third_Party/Huawei/iot_link/network/dtls/mbedtls/mbedtls-2.16.2/library\pem.c **** {
  31              		.loc 1 50 1 view -0
  32              		.cfi_startproc
  33              		@ args = 0, pretend = 0, frame = 0
  34              		@ frame_needed = 0, uses_anonymous_args = 0
  35              		@ link register save eliminated.
  51:D:/fchai/work/i-cube/I-CUBE-HUAWEI/Middlewares/Third_Party/Huawei/iot_link/network/dtls/mbedtls/mbedtls-2.16.2/library\pem.c ****     memset( ctx, 0, sizeof( mbedtls_pem_context ) );
  36              		.loc 1 51 5 view .LVU1
  37 0000 0023     		movs	r3, #0
  38 0002 0360     		str	r3, [r0]	@ unaligned
  39 0004 4360     		str	r3, [r0, #4]	@ unaligned
  40 0006 8360     		str	r3, [r0, #8]	@ unaligned
  52:D:/fchai/work/i-cube/I-CUBE-HUAWEI/Middlewares/Third_Party/Huawei/iot_link/network/dtls/mbedtls/mbedtls-2.16.2/library\pem.c **** }
  41              		.loc 1 52 1 is_stmt 0 view .LVU2
  42 0008 7047     		bx	lr
  43              		.cfi_endproc
  44              	.LFE10:
  46 000a 00BF     		.section	.rodata.mbedtls_pem_read_buffer.str1.4,"aMS",%progbits,1
  47              		.align	2
  48              	.LC0:
  49 0000 50726F63 		.ascii	"Proc-Type: 4,ENCRYPTED\000"
  49      2D547970 
  49      653A2034 
  49      2C454E43 
  49      52595054 
  50              		.section	.text.mbedtls_pem_read_buffer,"ax",%progbits
  51              		.align	1
  52              		.p2align 2,,3
  53              		.global	mbedtls_pem_read_buffer
  54              		.syntax unified
  55              		.thumb
  56              		.thumb_func
  57              		.fpu fpv4-sp-d16
  59              	mbedtls_pem_read_buffer:
  60              	.LVL1:
  61              	.LFB11:
ARM GAS  T:\msys\tmp\ccxhCqM9.s 			page 3


  53:D:/fchai/work/i-cube/I-CUBE-HUAWEI/Middlewares/Third_Party/Huawei/iot_link/network/dtls/mbedtls/mbedtls-2.16.2/library\pem.c **** 
  54:D:/fchai/work/i-cube/I-CUBE-HUAWEI/Middlewares/Third_Party/Huawei/iot_link/network/dtls/mbedtls/mbedtls-2.16.2/library\pem.c **** #if defined(MBEDTLS_MD5_C) && defined(MBEDTLS_CIPHER_MODE_CBC) &&         \
  55:D:/fchai/work/i-cube/I-CUBE-HUAWEI/Middlewares/Third_Party/Huawei/iot_link/network/dtls/mbedtls/mbedtls-2.16.2/library\pem.c ****     ( defined(MBEDTLS_DES_C) || defined(MBEDTLS_AES_C) )
  56:D:/fchai/work/i-cube/I-CUBE-HUAWEI/Middlewares/Third_Party/Huawei/iot_link/network/dtls/mbedtls/mbedtls-2.16.2/library\pem.c **** /*
  57:D:/fchai/work/i-cube/I-CUBE-HUAWEI/Middlewares/Third_Party/Huawei/iot_link/network/dtls/mbedtls/mbedtls-2.16.2/library\pem.c ****  * Read a 16-byte hex string and convert it to binary
  58:D:/fchai/work/i-cube/I-CUBE-HUAWEI/Middlewares/Third_Party/Huawei/iot_link/network/dtls/mbedtls/mbedtls-2.16.2/library\pem.c ****  */
  59:D:/fchai/work/i-cube/I-CUBE-HUAWEI/Middlewares/Third_Party/Huawei/iot_link/network/dtls/mbedtls/mbedtls-2.16.2/library\pem.c **** static int pem_get_iv( const unsigned char *s, unsigned char *iv,
  60:D:/fchai/work/i-cube/I-CUBE-HUAWEI/Middlewares/Third_Party/Huawei/iot_link/network/dtls/mbedtls/mbedtls-2.16.2/library\pem.c ****                        size_t iv_len )
  61:D:/fchai/work/i-cube/I-CUBE-HUAWEI/Middlewares/Third_Party/Huawei/iot_link/network/dtls/mbedtls/mbedtls-2.16.2/library\pem.c **** {
  62:D:/fchai/work/i-cube/I-CUBE-HUAWEI/Middlewares/Third_Party/Huawei/iot_link/network/dtls/mbedtls/mbedtls-2.16.2/library\pem.c ****     size_t i, j, k;
  63:D:/fchai/work/i-cube/I-CUBE-HUAWEI/Middlewares/Third_Party/Huawei/iot_link/network/dtls/mbedtls/mbedtls-2.16.2/library\pem.c **** 
  64:D:/fchai/work/i-cube/I-CUBE-HUAWEI/Middlewares/Third_Party/Huawei/iot_link/network/dtls/mbedtls/mbedtls-2.16.2/library\pem.c ****     memset( iv, 0, iv_len );
  65:D:/fchai/work/i-cube/I-CUBE-HUAWEI/Middlewares/Third_Party/Huawei/iot_link/network/dtls/mbedtls/mbedtls-2.16.2/library\pem.c **** 
  66:D:/fchai/work/i-cube/I-CUBE-HUAWEI/Middlewares/Third_Party/Huawei/iot_link/network/dtls/mbedtls/mbedtls-2.16.2/library\pem.c ****     for( i = 0; i < iv_len * 2; i++, s++ )
  67:D:/fchai/work/i-cube/I-CUBE-HUAWEI/Middlewares/Third_Party/Huawei/iot_link/network/dtls/mbedtls/mbedtls-2.16.2/library\pem.c ****     {
  68:D:/fchai/work/i-cube/I-CUBE-HUAWEI/Middlewares/Third_Party/Huawei/iot_link/network/dtls/mbedtls/mbedtls-2.16.2/library\pem.c ****         if( *s >= '0' && *s <= '9' ) j = *s - '0'; else
  69:D:/fchai/work/i-cube/I-CUBE-HUAWEI/Middlewares/Third_Party/Huawei/iot_link/network/dtls/mbedtls/mbedtls-2.16.2/library\pem.c ****         if( *s >= 'A' && *s <= 'F' ) j = *s - '7'; else
  70:D:/fchai/work/i-cube/I-CUBE-HUAWEI/Middlewares/Third_Party/Huawei/iot_link/network/dtls/mbedtls/mbedtls-2.16.2/library\pem.c ****         if( *s >= 'a' && *s <= 'f' ) j = *s - 'W'; else
  71:D:/fchai/work/i-cube/I-CUBE-HUAWEI/Middlewares/Third_Party/Huawei/iot_link/network/dtls/mbedtls/mbedtls-2.16.2/library\pem.c ****             return( MBEDTLS_ERR_PEM_INVALID_ENC_IV );
  72:D:/fchai/work/i-cube/I-CUBE-HUAWEI/Middlewares/Third_Party/Huawei/iot_link/network/dtls/mbedtls/mbedtls-2.16.2/library\pem.c **** 
  73:D:/fchai/work/i-cube/I-CUBE-HUAWEI/Middlewares/Third_Party/Huawei/iot_link/network/dtls/mbedtls/mbedtls-2.16.2/library\pem.c ****         k = ( ( i & 1 ) != 0 ) ? j : j << 4;
  74:D:/fchai/work/i-cube/I-CUBE-HUAWEI/Middlewares/Third_Party/Huawei/iot_link/network/dtls/mbedtls/mbedtls-2.16.2/library\pem.c **** 
  75:D:/fchai/work/i-cube/I-CUBE-HUAWEI/Middlewares/Third_Party/Huawei/iot_link/network/dtls/mbedtls/mbedtls-2.16.2/library\pem.c ****         iv[i >> 1] = (unsigned char)( iv[i >> 1] | k );
  76:D:/fchai/work/i-cube/I-CUBE-HUAWEI/Middlewares/Third_Party/Huawei/iot_link/network/dtls/mbedtls/mbedtls-2.16.2/library\pem.c ****     }
  77:D:/fchai/work/i-cube/I-CUBE-HUAWEI/Middlewares/Third_Party/Huawei/iot_link/network/dtls/mbedtls/mbedtls-2.16.2/library\pem.c **** 
  78:D:/fchai/work/i-cube/I-CUBE-HUAWEI/Middlewares/Third_Party/Huawei/iot_link/network/dtls/mbedtls/mbedtls-2.16.2/library\pem.c ****     return( 0 );
  79:D:/fchai/work/i-cube/I-CUBE-HUAWEI/Middlewares/Third_Party/Huawei/iot_link/network/dtls/mbedtls/mbedtls-2.16.2/library\pem.c **** }
  80:D:/fchai/work/i-cube/I-CUBE-HUAWEI/Middlewares/Third_Party/Huawei/iot_link/network/dtls/mbedtls/mbedtls-2.16.2/library\pem.c **** 
  81:D:/fchai/work/i-cube/I-CUBE-HUAWEI/Middlewares/Third_Party/Huawei/iot_link/network/dtls/mbedtls/mbedtls-2.16.2/library\pem.c **** static int pem_pbkdf1( unsigned char *key, size_t keylen,
  82:D:/fchai/work/i-cube/I-CUBE-HUAWEI/Middlewares/Third_Party/Huawei/iot_link/network/dtls/mbedtls/mbedtls-2.16.2/library\pem.c ****                        unsigned char *iv,
  83:D:/fchai/work/i-cube/I-CUBE-HUAWEI/Middlewares/Third_Party/Huawei/iot_link/network/dtls/mbedtls/mbedtls-2.16.2/library\pem.c ****                        const unsigned char *pwd, size_t pwdlen )
  84:D:/fchai/work/i-cube/I-CUBE-HUAWEI/Middlewares/Third_Party/Huawei/iot_link/network/dtls/mbedtls/mbedtls-2.16.2/library\pem.c **** {
  85:D:/fchai/work/i-cube/I-CUBE-HUAWEI/Middlewares/Third_Party/Huawei/iot_link/network/dtls/mbedtls/mbedtls-2.16.2/library\pem.c ****     mbedtls_md5_context md5_ctx;
  86:D:/fchai/work/i-cube/I-CUBE-HUAWEI/Middlewares/Third_Party/Huawei/iot_link/network/dtls/mbedtls/mbedtls-2.16.2/library\pem.c ****     unsigned char md5sum[16];
  87:D:/fchai/work/i-cube/I-CUBE-HUAWEI/Middlewares/Third_Party/Huawei/iot_link/network/dtls/mbedtls/mbedtls-2.16.2/library\pem.c ****     size_t use_len;
  88:D:/fchai/work/i-cube/I-CUBE-HUAWEI/Middlewares/Third_Party/Huawei/iot_link/network/dtls/mbedtls/mbedtls-2.16.2/library\pem.c ****     int ret;
  89:D:/fchai/work/i-cube/I-CUBE-HUAWEI/Middlewares/Third_Party/Huawei/iot_link/network/dtls/mbedtls/mbedtls-2.16.2/library\pem.c **** 
  90:D:/fchai/work/i-cube/I-CUBE-HUAWEI/Middlewares/Third_Party/Huawei/iot_link/network/dtls/mbedtls/mbedtls-2.16.2/library\pem.c ****     mbedtls_md5_init( &md5_ctx );
  91:D:/fchai/work/i-cube/I-CUBE-HUAWEI/Middlewares/Third_Party/Huawei/iot_link/network/dtls/mbedtls/mbedtls-2.16.2/library\pem.c **** 
  92:D:/fchai/work/i-cube/I-CUBE-HUAWEI/Middlewares/Third_Party/Huawei/iot_link/network/dtls/mbedtls/mbedtls-2.16.2/library\pem.c ****     /*
  93:D:/fchai/work/i-cube/I-CUBE-HUAWEI/Middlewares/Third_Party/Huawei/iot_link/network/dtls/mbedtls/mbedtls-2.16.2/library\pem.c ****      * key[ 0..15] = MD5(pwd || IV)
  94:D:/fchai/work/i-cube/I-CUBE-HUAWEI/Middlewares/Third_Party/Huawei/iot_link/network/dtls/mbedtls/mbedtls-2.16.2/library\pem.c ****      */
  95:D:/fchai/work/i-cube/I-CUBE-HUAWEI/Middlewares/Third_Party/Huawei/iot_link/network/dtls/mbedtls/mbedtls-2.16.2/library\pem.c ****     if( ( ret = mbedtls_md5_starts_ret( &md5_ctx ) ) != 0 )
  96:D:/fchai/work/i-cube/I-CUBE-HUAWEI/Middlewares/Third_Party/Huawei/iot_link/network/dtls/mbedtls/mbedtls-2.16.2/library\pem.c ****         goto exit;
  97:D:/fchai/work/i-cube/I-CUBE-HUAWEI/Middlewares/Third_Party/Huawei/iot_link/network/dtls/mbedtls/mbedtls-2.16.2/library\pem.c ****     if( ( ret = mbedtls_md5_update_ret( &md5_ctx, pwd, pwdlen ) ) != 0 )
  98:D:/fchai/work/i-cube/I-CUBE-HUAWEI/Middlewares/Third_Party/Huawei/iot_link/network/dtls/mbedtls/mbedtls-2.16.2/library\pem.c ****         goto exit;
  99:D:/fchai/work/i-cube/I-CUBE-HUAWEI/Middlewares/Third_Party/Huawei/iot_link/network/dtls/mbedtls/mbedtls-2.16.2/library\pem.c ****     if( ( ret = mbedtls_md5_update_ret( &md5_ctx, iv,  8 ) ) != 0 )
 100:D:/fchai/work/i-cube/I-CUBE-HUAWEI/Middlewares/Third_Party/Huawei/iot_link/network/dtls/mbedtls/mbedtls-2.16.2/library\pem.c ****         goto exit;
 101:D:/fchai/work/i-cube/I-CUBE-HUAWEI/Middlewares/Third_Party/Huawei/iot_link/network/dtls/mbedtls/mbedtls-2.16.2/library\pem.c ****     if( ( ret = mbedtls_md5_finish_ret( &md5_ctx, md5sum ) ) != 0 )
 102:D:/fchai/work/i-cube/I-CUBE-HUAWEI/Middlewares/Third_Party/Huawei/iot_link/network/dtls/mbedtls/mbedtls-2.16.2/library\pem.c ****         goto exit;
 103:D:/fchai/work/i-cube/I-CUBE-HUAWEI/Middlewares/Third_Party/Huawei/iot_link/network/dtls/mbedtls/mbedtls-2.16.2/library\pem.c **** 
 104:D:/fchai/work/i-cube/I-CUBE-HUAWEI/Middlewares/Third_Party/Huawei/iot_link/network/dtls/mbedtls/mbedtls-2.16.2/library\pem.c ****     if( keylen <= 16 )
 105:D:/fchai/work/i-cube/I-CUBE-HUAWEI/Middlewares/Third_Party/Huawei/iot_link/network/dtls/mbedtls/mbedtls-2.16.2/library\pem.c ****     {
 106:D:/fchai/work/i-cube/I-CUBE-HUAWEI/Middlewares/Third_Party/Huawei/iot_link/network/dtls/mbedtls/mbedtls-2.16.2/library\pem.c ****         memcpy( key, md5sum, keylen );
 107:D:/fchai/work/i-cube/I-CUBE-HUAWEI/Middlewares/Third_Party/Huawei/iot_link/network/dtls/mbedtls/mbedtls-2.16.2/library\pem.c ****         goto exit;
 108:D:/fchai/work/i-cube/I-CUBE-HUAWEI/Middlewares/Third_Party/Huawei/iot_link/network/dtls/mbedtls/mbedtls-2.16.2/library\pem.c ****     }
 109:D:/fchai/work/i-cube/I-CUBE-HUAWEI/Middlewares/Third_Party/Huawei/iot_link/network/dtls/mbedtls/mbedtls-2.16.2/library\pem.c **** 
ARM GAS  T:\msys\tmp\ccxhCqM9.s 			page 4


 110:D:/fchai/work/i-cube/I-CUBE-HUAWEI/Middlewares/Third_Party/Huawei/iot_link/network/dtls/mbedtls/mbedtls-2.16.2/library\pem.c ****     memcpy( key, md5sum, 16 );
 111:D:/fchai/work/i-cube/I-CUBE-HUAWEI/Middlewares/Third_Party/Huawei/iot_link/network/dtls/mbedtls/mbedtls-2.16.2/library\pem.c **** 
 112:D:/fchai/work/i-cube/I-CUBE-HUAWEI/Middlewares/Third_Party/Huawei/iot_link/network/dtls/mbedtls/mbedtls-2.16.2/library\pem.c ****     /*
 113:D:/fchai/work/i-cube/I-CUBE-HUAWEI/Middlewares/Third_Party/Huawei/iot_link/network/dtls/mbedtls/mbedtls-2.16.2/library\pem.c ****      * key[16..23] = MD5(key[ 0..15] || pwd || IV])
 114:D:/fchai/work/i-cube/I-CUBE-HUAWEI/Middlewares/Third_Party/Huawei/iot_link/network/dtls/mbedtls/mbedtls-2.16.2/library\pem.c ****      */
 115:D:/fchai/work/i-cube/I-CUBE-HUAWEI/Middlewares/Third_Party/Huawei/iot_link/network/dtls/mbedtls/mbedtls-2.16.2/library\pem.c ****     if( ( ret = mbedtls_md5_starts_ret( &md5_ctx ) ) != 0 )
 116:D:/fchai/work/i-cube/I-CUBE-HUAWEI/Middlewares/Third_Party/Huawei/iot_link/network/dtls/mbedtls/mbedtls-2.16.2/library\pem.c ****         goto exit;
 117:D:/fchai/work/i-cube/I-CUBE-HUAWEI/Middlewares/Third_Party/Huawei/iot_link/network/dtls/mbedtls/mbedtls-2.16.2/library\pem.c ****     if( ( ret = mbedtls_md5_update_ret( &md5_ctx, md5sum, 16 ) ) != 0 )
 118:D:/fchai/work/i-cube/I-CUBE-HUAWEI/Middlewares/Third_Party/Huawei/iot_link/network/dtls/mbedtls/mbedtls-2.16.2/library\pem.c ****         goto exit;
 119:D:/fchai/work/i-cube/I-CUBE-HUAWEI/Middlewares/Third_Party/Huawei/iot_link/network/dtls/mbedtls/mbedtls-2.16.2/library\pem.c ****     if( ( ret = mbedtls_md5_update_ret( &md5_ctx, pwd, pwdlen ) ) != 0 )
 120:D:/fchai/work/i-cube/I-CUBE-HUAWEI/Middlewares/Third_Party/Huawei/iot_link/network/dtls/mbedtls/mbedtls-2.16.2/library\pem.c ****         goto exit;
 121:D:/fchai/work/i-cube/I-CUBE-HUAWEI/Middlewares/Third_Party/Huawei/iot_link/network/dtls/mbedtls/mbedtls-2.16.2/library\pem.c ****     if( ( ret = mbedtls_md5_update_ret( &md5_ctx, iv, 8 ) ) != 0 )
 122:D:/fchai/work/i-cube/I-CUBE-HUAWEI/Middlewares/Third_Party/Huawei/iot_link/network/dtls/mbedtls/mbedtls-2.16.2/library\pem.c ****         goto exit;
 123:D:/fchai/work/i-cube/I-CUBE-HUAWEI/Middlewares/Third_Party/Huawei/iot_link/network/dtls/mbedtls/mbedtls-2.16.2/library\pem.c ****     if( ( ret = mbedtls_md5_finish_ret( &md5_ctx, md5sum ) ) != 0 )
 124:D:/fchai/work/i-cube/I-CUBE-HUAWEI/Middlewares/Third_Party/Huawei/iot_link/network/dtls/mbedtls/mbedtls-2.16.2/library\pem.c ****         goto exit;
 125:D:/fchai/work/i-cube/I-CUBE-HUAWEI/Middlewares/Third_Party/Huawei/iot_link/network/dtls/mbedtls/mbedtls-2.16.2/library\pem.c **** 
 126:D:/fchai/work/i-cube/I-CUBE-HUAWEI/Middlewares/Third_Party/Huawei/iot_link/network/dtls/mbedtls/mbedtls-2.16.2/library\pem.c ****     use_len = 16;
 127:D:/fchai/work/i-cube/I-CUBE-HUAWEI/Middlewares/Third_Party/Huawei/iot_link/network/dtls/mbedtls/mbedtls-2.16.2/library\pem.c ****     if( keylen < 32 )
 128:D:/fchai/work/i-cube/I-CUBE-HUAWEI/Middlewares/Third_Party/Huawei/iot_link/network/dtls/mbedtls/mbedtls-2.16.2/library\pem.c ****         use_len = keylen - 16;
 129:D:/fchai/work/i-cube/I-CUBE-HUAWEI/Middlewares/Third_Party/Huawei/iot_link/network/dtls/mbedtls/mbedtls-2.16.2/library\pem.c **** 
 130:D:/fchai/work/i-cube/I-CUBE-HUAWEI/Middlewares/Third_Party/Huawei/iot_link/network/dtls/mbedtls/mbedtls-2.16.2/library\pem.c ****     memcpy( key + 16, md5sum, use_len );
 131:D:/fchai/work/i-cube/I-CUBE-HUAWEI/Middlewares/Third_Party/Huawei/iot_link/network/dtls/mbedtls/mbedtls-2.16.2/library\pem.c **** 
 132:D:/fchai/work/i-cube/I-CUBE-HUAWEI/Middlewares/Third_Party/Huawei/iot_link/network/dtls/mbedtls/mbedtls-2.16.2/library\pem.c **** exit:
 133:D:/fchai/work/i-cube/I-CUBE-HUAWEI/Middlewares/Third_Party/Huawei/iot_link/network/dtls/mbedtls/mbedtls-2.16.2/library\pem.c ****     mbedtls_md5_free( &md5_ctx );
 134:D:/fchai/work/i-cube/I-CUBE-HUAWEI/Middlewares/Third_Party/Huawei/iot_link/network/dtls/mbedtls/mbedtls-2.16.2/library\pem.c ****     mbedtls_platform_zeroize( md5sum, 16 );
 135:D:/fchai/work/i-cube/I-CUBE-HUAWEI/Middlewares/Third_Party/Huawei/iot_link/network/dtls/mbedtls/mbedtls-2.16.2/library\pem.c **** 
 136:D:/fchai/work/i-cube/I-CUBE-HUAWEI/Middlewares/Third_Party/Huawei/iot_link/network/dtls/mbedtls/mbedtls-2.16.2/library\pem.c ****     return( ret );
 137:D:/fchai/work/i-cube/I-CUBE-HUAWEI/Middlewares/Third_Party/Huawei/iot_link/network/dtls/mbedtls/mbedtls-2.16.2/library\pem.c **** }
 138:D:/fchai/work/i-cube/I-CUBE-HUAWEI/Middlewares/Third_Party/Huawei/iot_link/network/dtls/mbedtls/mbedtls-2.16.2/library\pem.c **** 
 139:D:/fchai/work/i-cube/I-CUBE-HUAWEI/Middlewares/Third_Party/Huawei/iot_link/network/dtls/mbedtls/mbedtls-2.16.2/library\pem.c **** #if defined(MBEDTLS_DES_C)
 140:D:/fchai/work/i-cube/I-CUBE-HUAWEI/Middlewares/Third_Party/Huawei/iot_link/network/dtls/mbedtls/mbedtls-2.16.2/library\pem.c **** /*
 141:D:/fchai/work/i-cube/I-CUBE-HUAWEI/Middlewares/Third_Party/Huawei/iot_link/network/dtls/mbedtls/mbedtls-2.16.2/library\pem.c ****  * Decrypt with DES-CBC, using PBKDF1 for key derivation
 142:D:/fchai/work/i-cube/I-CUBE-HUAWEI/Middlewares/Third_Party/Huawei/iot_link/network/dtls/mbedtls/mbedtls-2.16.2/library\pem.c ****  */
 143:D:/fchai/work/i-cube/I-CUBE-HUAWEI/Middlewares/Third_Party/Huawei/iot_link/network/dtls/mbedtls/mbedtls-2.16.2/library\pem.c **** static int pem_des_decrypt( unsigned char des_iv[8],
 144:D:/fchai/work/i-cube/I-CUBE-HUAWEI/Middlewares/Third_Party/Huawei/iot_link/network/dtls/mbedtls/mbedtls-2.16.2/library\pem.c ****                             unsigned char *buf, size_t buflen,
 145:D:/fchai/work/i-cube/I-CUBE-HUAWEI/Middlewares/Third_Party/Huawei/iot_link/network/dtls/mbedtls/mbedtls-2.16.2/library\pem.c ****                             const unsigned char *pwd, size_t pwdlen )
 146:D:/fchai/work/i-cube/I-CUBE-HUAWEI/Middlewares/Third_Party/Huawei/iot_link/network/dtls/mbedtls/mbedtls-2.16.2/library\pem.c **** {
 147:D:/fchai/work/i-cube/I-CUBE-HUAWEI/Middlewares/Third_Party/Huawei/iot_link/network/dtls/mbedtls/mbedtls-2.16.2/library\pem.c ****     mbedtls_des_context des_ctx;
 148:D:/fchai/work/i-cube/I-CUBE-HUAWEI/Middlewares/Third_Party/Huawei/iot_link/network/dtls/mbedtls/mbedtls-2.16.2/library\pem.c ****     unsigned char des_key[8];
 149:D:/fchai/work/i-cube/I-CUBE-HUAWEI/Middlewares/Third_Party/Huawei/iot_link/network/dtls/mbedtls/mbedtls-2.16.2/library\pem.c ****     int ret;
 150:D:/fchai/work/i-cube/I-CUBE-HUAWEI/Middlewares/Third_Party/Huawei/iot_link/network/dtls/mbedtls/mbedtls-2.16.2/library\pem.c **** 
 151:D:/fchai/work/i-cube/I-CUBE-HUAWEI/Middlewares/Third_Party/Huawei/iot_link/network/dtls/mbedtls/mbedtls-2.16.2/library\pem.c ****     mbedtls_des_init( &des_ctx );
 152:D:/fchai/work/i-cube/I-CUBE-HUAWEI/Middlewares/Third_Party/Huawei/iot_link/network/dtls/mbedtls/mbedtls-2.16.2/library\pem.c **** 
 153:D:/fchai/work/i-cube/I-CUBE-HUAWEI/Middlewares/Third_Party/Huawei/iot_link/network/dtls/mbedtls/mbedtls-2.16.2/library\pem.c ****     if( ( ret = pem_pbkdf1( des_key, 8, des_iv, pwd, pwdlen ) ) != 0 )
 154:D:/fchai/work/i-cube/I-CUBE-HUAWEI/Middlewares/Third_Party/Huawei/iot_link/network/dtls/mbedtls/mbedtls-2.16.2/library\pem.c ****         goto exit;
 155:D:/fchai/work/i-cube/I-CUBE-HUAWEI/Middlewares/Third_Party/Huawei/iot_link/network/dtls/mbedtls/mbedtls-2.16.2/library\pem.c **** 
 156:D:/fchai/work/i-cube/I-CUBE-HUAWEI/Middlewares/Third_Party/Huawei/iot_link/network/dtls/mbedtls/mbedtls-2.16.2/library\pem.c ****     if( ( ret = mbedtls_des_setkey_dec( &des_ctx, des_key ) ) != 0 )
 157:D:/fchai/work/i-cube/I-CUBE-HUAWEI/Middlewares/Third_Party/Huawei/iot_link/network/dtls/mbedtls/mbedtls-2.16.2/library\pem.c ****         goto exit;
 158:D:/fchai/work/i-cube/I-CUBE-HUAWEI/Middlewares/Third_Party/Huawei/iot_link/network/dtls/mbedtls/mbedtls-2.16.2/library\pem.c ****     ret = mbedtls_des_crypt_cbc( &des_ctx, MBEDTLS_DES_DECRYPT, buflen,
 159:D:/fchai/work/i-cube/I-CUBE-HUAWEI/Middlewares/Third_Party/Huawei/iot_link/network/dtls/mbedtls/mbedtls-2.16.2/library\pem.c ****                      des_iv, buf, buf );
 160:D:/fchai/work/i-cube/I-CUBE-HUAWEI/Middlewares/Third_Party/Huawei/iot_link/network/dtls/mbedtls/mbedtls-2.16.2/library\pem.c **** 
 161:D:/fchai/work/i-cube/I-CUBE-HUAWEI/Middlewares/Third_Party/Huawei/iot_link/network/dtls/mbedtls/mbedtls-2.16.2/library\pem.c **** exit:
 162:D:/fchai/work/i-cube/I-CUBE-HUAWEI/Middlewares/Third_Party/Huawei/iot_link/network/dtls/mbedtls/mbedtls-2.16.2/library\pem.c ****     mbedtls_des_free( &des_ctx );
 163:D:/fchai/work/i-cube/I-CUBE-HUAWEI/Middlewares/Third_Party/Huawei/iot_link/network/dtls/mbedtls/mbedtls-2.16.2/library\pem.c ****     mbedtls_platform_zeroize( des_key, 8 );
 164:D:/fchai/work/i-cube/I-CUBE-HUAWEI/Middlewares/Third_Party/Huawei/iot_link/network/dtls/mbedtls/mbedtls-2.16.2/library\pem.c **** 
 165:D:/fchai/work/i-cube/I-CUBE-HUAWEI/Middlewares/Third_Party/Huawei/iot_link/network/dtls/mbedtls/mbedtls-2.16.2/library\pem.c ****     return( ret );
 166:D:/fchai/work/i-cube/I-CUBE-HUAWEI/Middlewares/Third_Party/Huawei/iot_link/network/dtls/mbedtls/mbedtls-2.16.2/library\pem.c **** }
ARM GAS  T:\msys\tmp\ccxhCqM9.s 			page 5


 167:D:/fchai/work/i-cube/I-CUBE-HUAWEI/Middlewares/Third_Party/Huawei/iot_link/network/dtls/mbedtls/mbedtls-2.16.2/library\pem.c **** 
 168:D:/fchai/work/i-cube/I-CUBE-HUAWEI/Middlewares/Third_Party/Huawei/iot_link/network/dtls/mbedtls/mbedtls-2.16.2/library\pem.c **** /*
 169:D:/fchai/work/i-cube/I-CUBE-HUAWEI/Middlewares/Third_Party/Huawei/iot_link/network/dtls/mbedtls/mbedtls-2.16.2/library\pem.c ****  * Decrypt with 3DES-CBC, using PBKDF1 for key derivation
 170:D:/fchai/work/i-cube/I-CUBE-HUAWEI/Middlewares/Third_Party/Huawei/iot_link/network/dtls/mbedtls/mbedtls-2.16.2/library\pem.c ****  */
 171:D:/fchai/work/i-cube/I-CUBE-HUAWEI/Middlewares/Third_Party/Huawei/iot_link/network/dtls/mbedtls/mbedtls-2.16.2/library\pem.c **** static int pem_des3_decrypt( unsigned char des3_iv[8],
 172:D:/fchai/work/i-cube/I-CUBE-HUAWEI/Middlewares/Third_Party/Huawei/iot_link/network/dtls/mbedtls/mbedtls-2.16.2/library\pem.c ****                              unsigned char *buf, size_t buflen,
 173:D:/fchai/work/i-cube/I-CUBE-HUAWEI/Middlewares/Third_Party/Huawei/iot_link/network/dtls/mbedtls/mbedtls-2.16.2/library\pem.c ****                              const unsigned char *pwd, size_t pwdlen )
 174:D:/fchai/work/i-cube/I-CUBE-HUAWEI/Middlewares/Third_Party/Huawei/iot_link/network/dtls/mbedtls/mbedtls-2.16.2/library\pem.c **** {
 175:D:/fchai/work/i-cube/I-CUBE-HUAWEI/Middlewares/Third_Party/Huawei/iot_link/network/dtls/mbedtls/mbedtls-2.16.2/library\pem.c ****     mbedtls_des3_context des3_ctx;
 176:D:/fchai/work/i-cube/I-CUBE-HUAWEI/Middlewares/Third_Party/Huawei/iot_link/network/dtls/mbedtls/mbedtls-2.16.2/library\pem.c ****     unsigned char des3_key[24];
 177:D:/fchai/work/i-cube/I-CUBE-HUAWEI/Middlewares/Third_Party/Huawei/iot_link/network/dtls/mbedtls/mbedtls-2.16.2/library\pem.c ****     int ret;
 178:D:/fchai/work/i-cube/I-CUBE-HUAWEI/Middlewares/Third_Party/Huawei/iot_link/network/dtls/mbedtls/mbedtls-2.16.2/library\pem.c **** 
 179:D:/fchai/work/i-cube/I-CUBE-HUAWEI/Middlewares/Third_Party/Huawei/iot_link/network/dtls/mbedtls/mbedtls-2.16.2/library\pem.c ****     mbedtls_des3_init( &des3_ctx );
 180:D:/fchai/work/i-cube/I-CUBE-HUAWEI/Middlewares/Third_Party/Huawei/iot_link/network/dtls/mbedtls/mbedtls-2.16.2/library\pem.c **** 
 181:D:/fchai/work/i-cube/I-CUBE-HUAWEI/Middlewares/Third_Party/Huawei/iot_link/network/dtls/mbedtls/mbedtls-2.16.2/library\pem.c ****     if( ( ret = pem_pbkdf1( des3_key, 24, des3_iv, pwd, pwdlen ) ) != 0 )
 182:D:/fchai/work/i-cube/I-CUBE-HUAWEI/Middlewares/Third_Party/Huawei/iot_link/network/dtls/mbedtls/mbedtls-2.16.2/library\pem.c ****         goto exit;
 183:D:/fchai/work/i-cube/I-CUBE-HUAWEI/Middlewares/Third_Party/Huawei/iot_link/network/dtls/mbedtls/mbedtls-2.16.2/library\pem.c **** 
 184:D:/fchai/work/i-cube/I-CUBE-HUAWEI/Middlewares/Third_Party/Huawei/iot_link/network/dtls/mbedtls/mbedtls-2.16.2/library\pem.c ****     if( ( ret = mbedtls_des3_set3key_dec( &des3_ctx, des3_key ) ) != 0 )
 185:D:/fchai/work/i-cube/I-CUBE-HUAWEI/Middlewares/Third_Party/Huawei/iot_link/network/dtls/mbedtls/mbedtls-2.16.2/library\pem.c ****         goto exit;
 186:D:/fchai/work/i-cube/I-CUBE-HUAWEI/Middlewares/Third_Party/Huawei/iot_link/network/dtls/mbedtls/mbedtls-2.16.2/library\pem.c ****     ret = mbedtls_des3_crypt_cbc( &des3_ctx, MBEDTLS_DES_DECRYPT, buflen,
 187:D:/fchai/work/i-cube/I-CUBE-HUAWEI/Middlewares/Third_Party/Huawei/iot_link/network/dtls/mbedtls/mbedtls-2.16.2/library\pem.c ****                      des3_iv, buf, buf );
 188:D:/fchai/work/i-cube/I-CUBE-HUAWEI/Middlewares/Third_Party/Huawei/iot_link/network/dtls/mbedtls/mbedtls-2.16.2/library\pem.c **** 
 189:D:/fchai/work/i-cube/I-CUBE-HUAWEI/Middlewares/Third_Party/Huawei/iot_link/network/dtls/mbedtls/mbedtls-2.16.2/library\pem.c **** exit:
 190:D:/fchai/work/i-cube/I-CUBE-HUAWEI/Middlewares/Third_Party/Huawei/iot_link/network/dtls/mbedtls/mbedtls-2.16.2/library\pem.c ****     mbedtls_des3_free( &des3_ctx );
 191:D:/fchai/work/i-cube/I-CUBE-HUAWEI/Middlewares/Third_Party/Huawei/iot_link/network/dtls/mbedtls/mbedtls-2.16.2/library\pem.c ****     mbedtls_platform_zeroize( des3_key, 24 );
 192:D:/fchai/work/i-cube/I-CUBE-HUAWEI/Middlewares/Third_Party/Huawei/iot_link/network/dtls/mbedtls/mbedtls-2.16.2/library\pem.c **** 
 193:D:/fchai/work/i-cube/I-CUBE-HUAWEI/Middlewares/Third_Party/Huawei/iot_link/network/dtls/mbedtls/mbedtls-2.16.2/library\pem.c ****     return( ret );
 194:D:/fchai/work/i-cube/I-CUBE-HUAWEI/Middlewares/Third_Party/Huawei/iot_link/network/dtls/mbedtls/mbedtls-2.16.2/library\pem.c **** }
 195:D:/fchai/work/i-cube/I-CUBE-HUAWEI/Middlewares/Third_Party/Huawei/iot_link/network/dtls/mbedtls/mbedtls-2.16.2/library\pem.c **** #endif /* MBEDTLS_DES_C */
 196:D:/fchai/work/i-cube/I-CUBE-HUAWEI/Middlewares/Third_Party/Huawei/iot_link/network/dtls/mbedtls/mbedtls-2.16.2/library\pem.c **** 
 197:D:/fchai/work/i-cube/I-CUBE-HUAWEI/Middlewares/Third_Party/Huawei/iot_link/network/dtls/mbedtls/mbedtls-2.16.2/library\pem.c **** #if defined(MBEDTLS_AES_C)
 198:D:/fchai/work/i-cube/I-CUBE-HUAWEI/Middlewares/Third_Party/Huawei/iot_link/network/dtls/mbedtls/mbedtls-2.16.2/library\pem.c **** /*
 199:D:/fchai/work/i-cube/I-CUBE-HUAWEI/Middlewares/Third_Party/Huawei/iot_link/network/dtls/mbedtls/mbedtls-2.16.2/library\pem.c ****  * Decrypt with AES-XXX-CBC, using PBKDF1 for key derivation
 200:D:/fchai/work/i-cube/I-CUBE-HUAWEI/Middlewares/Third_Party/Huawei/iot_link/network/dtls/mbedtls/mbedtls-2.16.2/library\pem.c ****  */
 201:D:/fchai/work/i-cube/I-CUBE-HUAWEI/Middlewares/Third_Party/Huawei/iot_link/network/dtls/mbedtls/mbedtls-2.16.2/library\pem.c **** static int pem_aes_decrypt( unsigned char aes_iv[16], unsigned int keylen,
 202:D:/fchai/work/i-cube/I-CUBE-HUAWEI/Middlewares/Third_Party/Huawei/iot_link/network/dtls/mbedtls/mbedtls-2.16.2/library\pem.c ****                             unsigned char *buf, size_t buflen,
 203:D:/fchai/work/i-cube/I-CUBE-HUAWEI/Middlewares/Third_Party/Huawei/iot_link/network/dtls/mbedtls/mbedtls-2.16.2/library\pem.c ****                             const unsigned char *pwd, size_t pwdlen )
 204:D:/fchai/work/i-cube/I-CUBE-HUAWEI/Middlewares/Third_Party/Huawei/iot_link/network/dtls/mbedtls/mbedtls-2.16.2/library\pem.c **** {
 205:D:/fchai/work/i-cube/I-CUBE-HUAWEI/Middlewares/Third_Party/Huawei/iot_link/network/dtls/mbedtls/mbedtls-2.16.2/library\pem.c ****     mbedtls_aes_context aes_ctx;
 206:D:/fchai/work/i-cube/I-CUBE-HUAWEI/Middlewares/Third_Party/Huawei/iot_link/network/dtls/mbedtls/mbedtls-2.16.2/library\pem.c ****     unsigned char aes_key[32];
 207:D:/fchai/work/i-cube/I-CUBE-HUAWEI/Middlewares/Third_Party/Huawei/iot_link/network/dtls/mbedtls/mbedtls-2.16.2/library\pem.c ****     int ret;
 208:D:/fchai/work/i-cube/I-CUBE-HUAWEI/Middlewares/Third_Party/Huawei/iot_link/network/dtls/mbedtls/mbedtls-2.16.2/library\pem.c **** 
 209:D:/fchai/work/i-cube/I-CUBE-HUAWEI/Middlewares/Third_Party/Huawei/iot_link/network/dtls/mbedtls/mbedtls-2.16.2/library\pem.c ****     mbedtls_aes_init( &aes_ctx );
 210:D:/fchai/work/i-cube/I-CUBE-HUAWEI/Middlewares/Third_Party/Huawei/iot_link/network/dtls/mbedtls/mbedtls-2.16.2/library\pem.c **** 
 211:D:/fchai/work/i-cube/I-CUBE-HUAWEI/Middlewares/Third_Party/Huawei/iot_link/network/dtls/mbedtls/mbedtls-2.16.2/library\pem.c ****     if( ( ret = pem_pbkdf1( aes_key, keylen, aes_iv, pwd, pwdlen ) ) != 0 )
 212:D:/fchai/work/i-cube/I-CUBE-HUAWEI/Middlewares/Third_Party/Huawei/iot_link/network/dtls/mbedtls/mbedtls-2.16.2/library\pem.c ****         goto exit;
 213:D:/fchai/work/i-cube/I-CUBE-HUAWEI/Middlewares/Third_Party/Huawei/iot_link/network/dtls/mbedtls/mbedtls-2.16.2/library\pem.c **** 
 214:D:/fchai/work/i-cube/I-CUBE-HUAWEI/Middlewares/Third_Party/Huawei/iot_link/network/dtls/mbedtls/mbedtls-2.16.2/library\pem.c ****     if( ( ret = mbedtls_aes_setkey_dec( &aes_ctx, aes_key, keylen * 8 ) ) != 0 )
 215:D:/fchai/work/i-cube/I-CUBE-HUAWEI/Middlewares/Third_Party/Huawei/iot_link/network/dtls/mbedtls/mbedtls-2.16.2/library\pem.c ****         goto exit;
 216:D:/fchai/work/i-cube/I-CUBE-HUAWEI/Middlewares/Third_Party/Huawei/iot_link/network/dtls/mbedtls/mbedtls-2.16.2/library\pem.c ****     ret = mbedtls_aes_crypt_cbc( &aes_ctx, MBEDTLS_AES_DECRYPT, buflen,
 217:D:/fchai/work/i-cube/I-CUBE-HUAWEI/Middlewares/Third_Party/Huawei/iot_link/network/dtls/mbedtls/mbedtls-2.16.2/library\pem.c ****                      aes_iv, buf, buf );
 218:D:/fchai/work/i-cube/I-CUBE-HUAWEI/Middlewares/Third_Party/Huawei/iot_link/network/dtls/mbedtls/mbedtls-2.16.2/library\pem.c **** 
 219:D:/fchai/work/i-cube/I-CUBE-HUAWEI/Middlewares/Third_Party/Huawei/iot_link/network/dtls/mbedtls/mbedtls-2.16.2/library\pem.c **** exit:
 220:D:/fchai/work/i-cube/I-CUBE-HUAWEI/Middlewares/Third_Party/Huawei/iot_link/network/dtls/mbedtls/mbedtls-2.16.2/library\pem.c ****     mbedtls_aes_free( &aes_ctx );
 221:D:/fchai/work/i-cube/I-CUBE-HUAWEI/Middlewares/Third_Party/Huawei/iot_link/network/dtls/mbedtls/mbedtls-2.16.2/library\pem.c ****     mbedtls_platform_zeroize( aes_key, keylen );
 222:D:/fchai/work/i-cube/I-CUBE-HUAWEI/Middlewares/Third_Party/Huawei/iot_link/network/dtls/mbedtls/mbedtls-2.16.2/library\pem.c **** 
 223:D:/fchai/work/i-cube/I-CUBE-HUAWEI/Middlewares/Third_Party/Huawei/iot_link/network/dtls/mbedtls/mbedtls-2.16.2/library\pem.c ****     return( ret );
ARM GAS  T:\msys\tmp\ccxhCqM9.s 			page 6


 224:D:/fchai/work/i-cube/I-CUBE-HUAWEI/Middlewares/Third_Party/Huawei/iot_link/network/dtls/mbedtls/mbedtls-2.16.2/library\pem.c **** }
 225:D:/fchai/work/i-cube/I-CUBE-HUAWEI/Middlewares/Third_Party/Huawei/iot_link/network/dtls/mbedtls/mbedtls-2.16.2/library\pem.c **** #endif /* MBEDTLS_AES_C */
 226:D:/fchai/work/i-cube/I-CUBE-HUAWEI/Middlewares/Third_Party/Huawei/iot_link/network/dtls/mbedtls/mbedtls-2.16.2/library\pem.c **** 
 227:D:/fchai/work/i-cube/I-CUBE-HUAWEI/Middlewares/Third_Party/Huawei/iot_link/network/dtls/mbedtls/mbedtls-2.16.2/library\pem.c **** #endif /* MBEDTLS_MD5_C && MBEDTLS_CIPHER_MODE_CBC &&
 228:D:/fchai/work/i-cube/I-CUBE-HUAWEI/Middlewares/Third_Party/Huawei/iot_link/network/dtls/mbedtls/mbedtls-2.16.2/library\pem.c ****           ( MBEDTLS_AES_C || MBEDTLS_DES_C ) */
 229:D:/fchai/work/i-cube/I-CUBE-HUAWEI/Middlewares/Third_Party/Huawei/iot_link/network/dtls/mbedtls/mbedtls-2.16.2/library\pem.c **** 
 230:D:/fchai/work/i-cube/I-CUBE-HUAWEI/Middlewares/Third_Party/Huawei/iot_link/network/dtls/mbedtls/mbedtls-2.16.2/library\pem.c **** int mbedtls_pem_read_buffer( mbedtls_pem_context *ctx, const char *header, const char *footer,
 231:D:/fchai/work/i-cube/I-CUBE-HUAWEI/Middlewares/Third_Party/Huawei/iot_link/network/dtls/mbedtls/mbedtls-2.16.2/library\pem.c ****                      const unsigned char *data, const unsigned char *pwd,
 232:D:/fchai/work/i-cube/I-CUBE-HUAWEI/Middlewares/Third_Party/Huawei/iot_link/network/dtls/mbedtls/mbedtls-2.16.2/library\pem.c ****                      size_t pwdlen, size_t *use_len )
 233:D:/fchai/work/i-cube/I-CUBE-HUAWEI/Middlewares/Third_Party/Huawei/iot_link/network/dtls/mbedtls/mbedtls-2.16.2/library\pem.c **** {
  62              		.loc 1 233 1 is_stmt 1 view -0
  63              		.cfi_startproc
  64              		@ args = 12, pretend = 0, frame = 8
  65              		@ frame_needed = 0, uses_anonymous_args = 0
 234:D:/fchai/work/i-cube/I-CUBE-HUAWEI/Middlewares/Third_Party/Huawei/iot_link/network/dtls/mbedtls/mbedtls-2.16.2/library\pem.c ****     int ret, enc;
  66              		.loc 1 234 5 view .LVU4
 235:D:/fchai/work/i-cube/I-CUBE-HUAWEI/Middlewares/Third_Party/Huawei/iot_link/network/dtls/mbedtls/mbedtls-2.16.2/library\pem.c ****     size_t len;
  67              		.loc 1 235 5 view .LVU5
 236:D:/fchai/work/i-cube/I-CUBE-HUAWEI/Middlewares/Third_Party/Huawei/iot_link/network/dtls/mbedtls/mbedtls-2.16.2/library\pem.c ****     unsigned char *buf;
  68              		.loc 1 236 5 view .LVU6
 237:D:/fchai/work/i-cube/I-CUBE-HUAWEI/Middlewares/Third_Party/Huawei/iot_link/network/dtls/mbedtls/mbedtls-2.16.2/library\pem.c ****     const unsigned char *s1, *s2, *end;
  69              		.loc 1 237 5 view .LVU7
 238:D:/fchai/work/i-cube/I-CUBE-HUAWEI/Middlewares/Third_Party/Huawei/iot_link/network/dtls/mbedtls/mbedtls-2.16.2/library\pem.c **** #if defined(MBEDTLS_MD5_C) && defined(MBEDTLS_CIPHER_MODE_CBC) &&         \
 239:D:/fchai/work/i-cube/I-CUBE-HUAWEI/Middlewares/Third_Party/Huawei/iot_link/network/dtls/mbedtls/mbedtls-2.16.2/library\pem.c ****     ( defined(MBEDTLS_DES_C) || defined(MBEDTLS_AES_C) )
 240:D:/fchai/work/i-cube/I-CUBE-HUAWEI/Middlewares/Third_Party/Huawei/iot_link/network/dtls/mbedtls/mbedtls-2.16.2/library\pem.c ****     unsigned char pem_iv[16];
 241:D:/fchai/work/i-cube/I-CUBE-HUAWEI/Middlewares/Third_Party/Huawei/iot_link/network/dtls/mbedtls/mbedtls-2.16.2/library\pem.c ****     mbedtls_cipher_type_t enc_alg = MBEDTLS_CIPHER_NONE;
 242:D:/fchai/work/i-cube/I-CUBE-HUAWEI/Middlewares/Third_Party/Huawei/iot_link/network/dtls/mbedtls/mbedtls-2.16.2/library\pem.c **** #else
 243:D:/fchai/work/i-cube/I-CUBE-HUAWEI/Middlewares/Third_Party/Huawei/iot_link/network/dtls/mbedtls/mbedtls-2.16.2/library\pem.c ****     ((void) pwd);
  70              		.loc 1 243 5 view .LVU8
 244:D:/fchai/work/i-cube/I-CUBE-HUAWEI/Middlewares/Third_Party/Huawei/iot_link/network/dtls/mbedtls/mbedtls-2.16.2/library\pem.c ****     ((void) pwdlen);
  71              		.loc 1 244 5 view .LVU9
 245:D:/fchai/work/i-cube/I-CUBE-HUAWEI/Middlewares/Third_Party/Huawei/iot_link/network/dtls/mbedtls/mbedtls-2.16.2/library\pem.c **** #endif /* MBEDTLS_MD5_C && MBEDTLS_CIPHER_MODE_CBC &&
 246:D:/fchai/work/i-cube/I-CUBE-HUAWEI/Middlewares/Third_Party/Huawei/iot_link/network/dtls/mbedtls/mbedtls-2.16.2/library\pem.c ****           ( MBEDTLS_AES_C || MBEDTLS_DES_C ) */
 247:D:/fchai/work/i-cube/I-CUBE-HUAWEI/Middlewares/Third_Party/Huawei/iot_link/network/dtls/mbedtls/mbedtls-2.16.2/library\pem.c **** 
 248:D:/fchai/work/i-cube/I-CUBE-HUAWEI/Middlewares/Third_Party/Huawei/iot_link/network/dtls/mbedtls/mbedtls-2.16.2/library\pem.c ****     if( ctx == NULL )
  72              		.loc 1 248 5 view .LVU10
 233:D:/fchai/work/i-cube/I-CUBE-HUAWEI/Middlewares/Third_Party/Huawei/iot_link/network/dtls/mbedtls/mbedtls-2.16.2/library\pem.c ****     int ret, enc;
  73              		.loc 1 233 1 is_stmt 0 view .LVU11
  74 0000 2DE9F043 		push	{r4, r5, r6, r7, r8, r9, lr}
  75              	.LCFI0:
  76              		.cfi_def_cfa_offset 28
  77              		.cfi_offset 4, -28
  78              		.cfi_offset 5, -24
  79              		.cfi_offset 6, -20
  80              		.cfi_offset 7, -16
  81              		.cfi_offset 8, -12
  82              		.cfi_offset 9, -8
  83              		.cfi_offset 14, -4
  84 0004 85B0     		sub	sp, sp, #20
  85              	.LCFI1:
  86              		.cfi_def_cfa_offset 48
  87              		.loc 1 248 7 view .LVU12
  88 0006 0028     		cmp	r0, #0
  89 0008 78D0     		beq	.L12
 249:D:/fchai/work/i-cube/I-CUBE-HUAWEI/Middlewares/Third_Party/Huawei/iot_link/network/dtls/mbedtls/mbedtls-2.16.2/library\pem.c ****         return( MBEDTLS_ERR_PEM_BAD_INPUT_DATA );
 250:D:/fchai/work/i-cube/I-CUBE-HUAWEI/Middlewares/Third_Party/Huawei/iot_link/network/dtls/mbedtls/mbedtls-2.16.2/library\pem.c **** 
 251:D:/fchai/work/i-cube/I-CUBE-HUAWEI/Middlewares/Third_Party/Huawei/iot_link/network/dtls/mbedtls/mbedtls-2.16.2/library\pem.c ****     s1 = (unsigned char *) strstr( (const char *) data, header );
ARM GAS  T:\msys\tmp\ccxhCqM9.s 			page 7


  90              		.loc 1 251 5 is_stmt 1 view .LVU13
  91 000a 8046     		mov	r8, r0
  92              		.loc 1 251 28 is_stmt 0 view .LVU14
  93 000c 1846     		mov	r0, r3
  94              	.LVL2:
  95              		.loc 1 251 28 view .LVU15
  96 000e 9146     		mov	r9, r2
  97 0010 1F46     		mov	r7, r3
  98 0012 0C46     		mov	r4, r1
  99 0014 FFF7FEFF 		bl	strstr
 100              	.LVL3:
 252:D:/fchai/work/i-cube/I-CUBE-HUAWEI/Middlewares/Third_Party/Huawei/iot_link/network/dtls/mbedtls/mbedtls-2.16.2/library\pem.c **** 
 253:D:/fchai/work/i-cube/I-CUBE-HUAWEI/Middlewares/Third_Party/Huawei/iot_link/network/dtls/mbedtls/mbedtls-2.16.2/library\pem.c ****     if( s1 == NULL )
 101              		.loc 1 253 5 is_stmt 1 view .LVU16
 102              		.loc 1 253 7 is_stmt 0 view .LVU17
 103 0018 0646     		mov	r6, r0
 104 001a 0028     		cmp	r0, #0
 105 001c 66D0     		beq	.L16
 254:D:/fchai/work/i-cube/I-CUBE-HUAWEI/Middlewares/Third_Party/Huawei/iot_link/network/dtls/mbedtls/mbedtls-2.16.2/library\pem.c ****         return( MBEDTLS_ERR_PEM_NO_HEADER_FOOTER_PRESENT );
 255:D:/fchai/work/i-cube/I-CUBE-HUAWEI/Middlewares/Third_Party/Huawei/iot_link/network/dtls/mbedtls/mbedtls-2.16.2/library\pem.c **** 
 256:D:/fchai/work/i-cube/I-CUBE-HUAWEI/Middlewares/Third_Party/Huawei/iot_link/network/dtls/mbedtls/mbedtls-2.16.2/library\pem.c ****     s2 = (unsigned char *) strstr( (const char *) data, footer );
 106              		.loc 1 256 5 is_stmt 1 view .LVU18
 107              		.loc 1 256 28 is_stmt 0 view .LVU19
 108 001e 4946     		mov	r1, r9
 109 0020 3846     		mov	r0, r7
 110              	.LVL4:
 111              		.loc 1 256 28 view .LVU20
 112 0022 FFF7FEFF 		bl	strstr
 113              	.LVL5:
 257:D:/fchai/work/i-cube/I-CUBE-HUAWEI/Middlewares/Third_Party/Huawei/iot_link/network/dtls/mbedtls/mbedtls-2.16.2/library\pem.c **** 
 258:D:/fchai/work/i-cube/I-CUBE-HUAWEI/Middlewares/Third_Party/Huawei/iot_link/network/dtls/mbedtls/mbedtls-2.16.2/library\pem.c ****     if( s2 == NULL || s2 <= s1 )
 114              		.loc 1 258 5 is_stmt 1 view .LVU21
 115              		.loc 1 258 7 is_stmt 0 view .LVU22
 116 0026 0546     		mov	r5, r0
 117 0028 0028     		cmp	r0, #0
 118 002a 5FD0     		beq	.L16
 119              		.loc 1 258 20 discriminator 1 view .LVU23
 120 002c 8642     		cmp	r6, r0
 121 002e 5DD2     		bcs	.L16
 259:D:/fchai/work/i-cube/I-CUBE-HUAWEI/Middlewares/Third_Party/Huawei/iot_link/network/dtls/mbedtls/mbedtls-2.16.2/library\pem.c ****         return( MBEDTLS_ERR_PEM_NO_HEADER_FOOTER_PRESENT );
 260:D:/fchai/work/i-cube/I-CUBE-HUAWEI/Middlewares/Third_Party/Huawei/iot_link/network/dtls/mbedtls/mbedtls-2.16.2/library\pem.c **** 
 261:D:/fchai/work/i-cube/I-CUBE-HUAWEI/Middlewares/Third_Party/Huawei/iot_link/network/dtls/mbedtls/mbedtls-2.16.2/library\pem.c ****     s1 += strlen( header );
 122              		.loc 1 261 5 is_stmt 1 view .LVU24
 123              		.loc 1 261 11 is_stmt 0 view .LVU25
 124 0030 2046     		mov	r0, r4
 125              	.LVL6:
 126              		.loc 1 261 11 view .LVU26
 127 0032 FFF7FEFF 		bl	strlen
 128              	.LVL7:
 262:D:/fchai/work/i-cube/I-CUBE-HUAWEI/Middlewares/Third_Party/Huawei/iot_link/network/dtls/mbedtls/mbedtls-2.16.2/library\pem.c ****     if( *s1 == ' '  ) s1++;
 129              		.loc 1 262 9 view .LVU27
 130 0036 325C     		ldrb	r2, [r6, r0]	@ zero_extendqisi2
 261:D:/fchai/work/i-cube/I-CUBE-HUAWEI/Middlewares/Third_Party/Huawei/iot_link/network/dtls/mbedtls/mbedtls-2.16.2/library\pem.c ****     if( *s1 == ' '  ) s1++;
 131              		.loc 1 261 8 view .LVU28
 132 0038 3418     		adds	r4, r6, r0
 133              	.LVL8:
 134              		.loc 1 262 5 is_stmt 1 view .LVU29
ARM GAS  T:\msys\tmp\ccxhCqM9.s 			page 8


 135              		.loc 1 262 23 view .LVU30
 136              		.loc 1 262 7 is_stmt 0 view .LVU31
 137 003a 202A     		cmp	r2, #32
 138 003c 04BF     		itt	eq
 139 003e 6278     		ldrbeq	r2, [r4, #1]	@ zero_extendqisi2
 140              		.loc 1 262 25 view .LVU32
 141 0040 0134     		addeq	r4, r4, #1
 142              	.LVL9:
 263:D:/fchai/work/i-cube/I-CUBE-HUAWEI/Middlewares/Third_Party/Huawei/iot_link/network/dtls/mbedtls/mbedtls-2.16.2/library\pem.c ****     if( *s1 == '\r' ) s1++;
 143              		.loc 1 263 5 is_stmt 1 view .LVU33
 144              		.loc 1 263 23 view .LVU34
 145              		.loc 1 263 7 is_stmt 0 view .LVU35
 146 0042 0D2A     		cmp	r2, #13
 147 0044 04BF     		itt	eq
 148 0046 6278     		ldrbeq	r2, [r4, #1]	@ zero_extendqisi2
 149              		.loc 1 263 25 view .LVU36
 150 0048 0134     		addeq	r4, r4, #1
 151              	.LVL10:
 264:D:/fchai/work/i-cube/I-CUBE-HUAWEI/Middlewares/Third_Party/Huawei/iot_link/network/dtls/mbedtls/mbedtls-2.16.2/library\pem.c ****     if( *s1 == '\n' ) s1++;
 152              		.loc 1 264 5 is_stmt 1 view .LVU37
 153              		.loc 1 264 7 is_stmt 0 view .LVU38
 154 004a 0A2A     		cmp	r2, #10
 155 004c 4ED1     		bne	.L16
 156              		.loc 1 264 23 is_stmt 1 discriminator 1 view .LVU39
 265:D:/fchai/work/i-cube/I-CUBE-HUAWEI/Middlewares/Third_Party/Huawei/iot_link/network/dtls/mbedtls/mbedtls-2.16.2/library\pem.c ****     else return( MBEDTLS_ERR_PEM_NO_HEADER_FOOTER_PRESENT );
 266:D:/fchai/work/i-cube/I-CUBE-HUAWEI/Middlewares/Third_Party/Huawei/iot_link/network/dtls/mbedtls/mbedtls-2.16.2/library\pem.c **** 
 267:D:/fchai/work/i-cube/I-CUBE-HUAWEI/Middlewares/Third_Party/Huawei/iot_link/network/dtls/mbedtls/mbedtls-2.16.2/library\pem.c ****     end = s2;
 268:D:/fchai/work/i-cube/I-CUBE-HUAWEI/Middlewares/Third_Party/Huawei/iot_link/network/dtls/mbedtls/mbedtls-2.16.2/library\pem.c ****     end += strlen( footer );
 157              		.loc 1 268 12 is_stmt 0 discriminator 1 view .LVU40
 158 004e 4846     		mov	r0, r9
 159 0050 FFF7FEFF 		bl	strlen
 160              	.LVL11:
 269:D:/fchai/work/i-cube/I-CUBE-HUAWEI/Middlewares/Third_Party/Huawei/iot_link/network/dtls/mbedtls/mbedtls-2.16.2/library\pem.c ****     if( *end == ' '  ) end++;
 161              		.loc 1 269 9 discriminator 1 view .LVU41
 162 0054 2B5C     		ldrb	r3, [r5, r0]	@ zero_extendqisi2
 268:D:/fchai/work/i-cube/I-CUBE-HUAWEI/Middlewares/Third_Party/Huawei/iot_link/network/dtls/mbedtls/mbedtls-2.16.2/library\pem.c ****     if( *end == ' '  ) end++;
 163              		.loc 1 268 9 discriminator 1 view .LVU42
 164 0056 2A18     		adds	r2, r5, r0
 165              		.loc 1 269 7 discriminator 1 view .LVU43
 166 0058 202B     		cmp	r3, #32
 167 005a 04BF     		itt	eq
 168 005c 5378     		ldrbeq	r3, [r2, #1]	@ zero_extendqisi2
 169              		.loc 1 269 27 discriminator 1 view .LVU44
 170 005e 0132     		addeq	r2, r2, #1
 270:D:/fchai/work/i-cube/I-CUBE-HUAWEI/Middlewares/Third_Party/Huawei/iot_link/network/dtls/mbedtls/mbedtls-2.16.2/library\pem.c ****     if( *end == '\r' ) end++;
 171              		.loc 1 270 7 discriminator 1 view .LVU45
 172 0060 0D2B     		cmp	r3, #13
 173 0062 08BF     		it	eq
 174 0064 5378     		ldrbeq	r3, [r2, #1]	@ zero_extendqisi2
 264:D:/fchai/work/i-cube/I-CUBE-HUAWEI/Middlewares/Third_Party/Huawei/iot_link/network/dtls/mbedtls/mbedtls-2.16.2/library\pem.c ****     else return( MBEDTLS_ERR_PEM_NO_HEADER_FOOTER_PRESENT );
 175              		.loc 1 264 25 discriminator 1 view .LVU46
 176 0066 04F10104 		add	r4, r4, #1
 177              	.LVL12:
 267:D:/fchai/work/i-cube/I-CUBE-HUAWEI/Middlewares/Third_Party/Huawei/iot_link/network/dtls/mbedtls/mbedtls-2.16.2/library\pem.c ****     end += strlen( footer );
 178              		.loc 1 267 5 is_stmt 1 discriminator 1 view .LVU47
 268:D:/fchai/work/i-cube/I-CUBE-HUAWEI/Middlewares/Third_Party/Huawei/iot_link/network/dtls/mbedtls/mbedtls-2.16.2/library\pem.c ****     if( *end == ' '  ) end++;
 179              		.loc 1 268 5 discriminator 1 view .LVU48
ARM GAS  T:\msys\tmp\ccxhCqM9.s 			page 9


 269:D:/fchai/work/i-cube/I-CUBE-HUAWEI/Middlewares/Third_Party/Huawei/iot_link/network/dtls/mbedtls/mbedtls-2.16.2/library\pem.c ****     if( *end == '\r' ) end++;
 180              		.loc 1 269 5 discriminator 1 view .LVU49
 269:D:/fchai/work/i-cube/I-CUBE-HUAWEI/Middlewares/Third_Party/Huawei/iot_link/network/dtls/mbedtls/mbedtls-2.16.2/library\pem.c ****     if( *end == '\r' ) end++;
 181              		.loc 1 269 24 discriminator 1 view .LVU50
 182              		.loc 1 270 5 discriminator 1 view .LVU51
 183              		.loc 1 270 24 discriminator 1 view .LVU52
 184              		.loc 1 270 27 is_stmt 0 discriminator 1 view .LVU53
 185 006a 08BF     		it	eq
 186 006c 0132     		addeq	r2, r2, #1
 187              	.LVL13:
 271:D:/fchai/work/i-cube/I-CUBE-HUAWEI/Middlewares/Third_Party/Huawei/iot_link/network/dtls/mbedtls/mbedtls-2.16.2/library\pem.c ****     if( *end == '\n' ) end++;
 188              		.loc 1 271 5 is_stmt 1 discriminator 1 view .LVU54
 189              		.loc 1 271 7 is_stmt 0 discriminator 1 view .LVU55
 190 006e 0A2B     		cmp	r3, #10
 191              		.loc 1 271 24 is_stmt 1 discriminator 1 view .LVU56
 192              		.loc 1 271 27 is_stmt 0 discriminator 1 view .LVU57
 193 0070 08BF     		it	eq
 194 0072 0132     		addeq	r2, r2, #1
 195              	.LVL14:
 272:D:/fchai/work/i-cube/I-CUBE-HUAWEI/Middlewares/Third_Party/Huawei/iot_link/network/dtls/mbedtls/mbedtls-2.16.2/library\pem.c ****     *use_len = end - data;
 196              		.loc 1 272 5 is_stmt 1 discriminator 1 view .LVU58
 197              		.loc 1 272 14 is_stmt 0 discriminator 1 view .LVU59
 198 0074 0E9B     		ldr	r3, [sp, #56]
 273:D:/fchai/work/i-cube/I-CUBE-HUAWEI/Middlewares/Third_Party/Huawei/iot_link/network/dtls/mbedtls/mbedtls-2.16.2/library\pem.c **** 
 274:D:/fchai/work/i-cube/I-CUBE-HUAWEI/Middlewares/Third_Party/Huawei/iot_link/network/dtls/mbedtls/mbedtls-2.16.2/library\pem.c ****     enc = 0;
 275:D:/fchai/work/i-cube/I-CUBE-HUAWEI/Middlewares/Third_Party/Huawei/iot_link/network/dtls/mbedtls/mbedtls-2.16.2/library\pem.c **** 
 276:D:/fchai/work/i-cube/I-CUBE-HUAWEI/Middlewares/Third_Party/Huawei/iot_link/network/dtls/mbedtls/mbedtls-2.16.2/library\pem.c ****     if( s2 - s1 >= 22 && memcmp( s1, "Proc-Type: 4,ENCRYPTED", 22 ) == 0 )
 199              		.loc 1 276 12 discriminator 1 view .LVU60
 200 0076 2E1B     		subs	r6, r5, r4
 272:D:/fchai/work/i-cube/I-CUBE-HUAWEI/Middlewares/Third_Party/Huawei/iot_link/network/dtls/mbedtls/mbedtls-2.16.2/library\pem.c ****     *use_len = end - data;
 201              		.loc 1 272 20 discriminator 1 view .LVU61
 202 0078 D21B     		subs	r2, r2, r7
 203              	.LVL15:
 204              		.loc 1 276 7 discriminator 1 view .LVU62
 205 007a 152E     		cmp	r6, #21
 206              	.LVL16:
 272:D:/fchai/work/i-cube/I-CUBE-HUAWEI/Middlewares/Third_Party/Huawei/iot_link/network/dtls/mbedtls/mbedtls-2.16.2/library\pem.c ****     *use_len = end - data;
 207              		.loc 1 272 14 discriminator 1 view .LVU63
 208 007c 1A60     		str	r2, [r3]
 209              	.LVL17:
 274:D:/fchai/work/i-cube/I-CUBE-HUAWEI/Middlewares/Third_Party/Huawei/iot_link/network/dtls/mbedtls/mbedtls-2.16.2/library\pem.c **** 
 210              		.loc 1 274 5 is_stmt 1 discriminator 1 view .LVU64
 211              		.loc 1 276 5 discriminator 1 view .LVU65
 212              		.loc 1 276 7 is_stmt 0 discriminator 1 view .LVU66
 213 007e 1FDC     		bgt	.L22
 214              	.L10:
 277:D:/fchai/work/i-cube/I-CUBE-HUAWEI/Middlewares/Third_Party/Huawei/iot_link/network/dtls/mbedtls/mbedtls-2.16.2/library\pem.c ****     {
 278:D:/fchai/work/i-cube/I-CUBE-HUAWEI/Middlewares/Third_Party/Huawei/iot_link/network/dtls/mbedtls/mbedtls-2.16.2/library\pem.c **** #if defined(MBEDTLS_MD5_C) && defined(MBEDTLS_CIPHER_MODE_CBC) &&         \
 279:D:/fchai/work/i-cube/I-CUBE-HUAWEI/Middlewares/Third_Party/Huawei/iot_link/network/dtls/mbedtls/mbedtls-2.16.2/library\pem.c ****     ( defined(MBEDTLS_DES_C) || defined(MBEDTLS_AES_C) )
 280:D:/fchai/work/i-cube/I-CUBE-HUAWEI/Middlewares/Third_Party/Huawei/iot_link/network/dtls/mbedtls/mbedtls-2.16.2/library\pem.c ****         enc++;
 281:D:/fchai/work/i-cube/I-CUBE-HUAWEI/Middlewares/Third_Party/Huawei/iot_link/network/dtls/mbedtls/mbedtls-2.16.2/library\pem.c **** 
 282:D:/fchai/work/i-cube/I-CUBE-HUAWEI/Middlewares/Third_Party/Huawei/iot_link/network/dtls/mbedtls/mbedtls-2.16.2/library\pem.c ****         s1 += 22;
 283:D:/fchai/work/i-cube/I-CUBE-HUAWEI/Middlewares/Third_Party/Huawei/iot_link/network/dtls/mbedtls/mbedtls-2.16.2/library\pem.c ****         if( *s1 == '\r' ) s1++;
 284:D:/fchai/work/i-cube/I-CUBE-HUAWEI/Middlewares/Third_Party/Huawei/iot_link/network/dtls/mbedtls/mbedtls-2.16.2/library\pem.c ****         if( *s1 == '\n' ) s1++;
 285:D:/fchai/work/i-cube/I-CUBE-HUAWEI/Middlewares/Third_Party/Huawei/iot_link/network/dtls/mbedtls/mbedtls-2.16.2/library\pem.c ****         else return( MBEDTLS_ERR_PEM_INVALID_DATA );
 286:D:/fchai/work/i-cube/I-CUBE-HUAWEI/Middlewares/Third_Party/Huawei/iot_link/network/dtls/mbedtls/mbedtls-2.16.2/library\pem.c **** 
 287:D:/fchai/work/i-cube/I-CUBE-HUAWEI/Middlewares/Third_Party/Huawei/iot_link/network/dtls/mbedtls/mbedtls-2.16.2/library\pem.c **** 
ARM GAS  T:\msys\tmp\ccxhCqM9.s 			page 10


 288:D:/fchai/work/i-cube/I-CUBE-HUAWEI/Middlewares/Third_Party/Huawei/iot_link/network/dtls/mbedtls/mbedtls-2.16.2/library\pem.c **** #if defined(MBEDTLS_DES_C)
 289:D:/fchai/work/i-cube/I-CUBE-HUAWEI/Middlewares/Third_Party/Huawei/iot_link/network/dtls/mbedtls/mbedtls-2.16.2/library\pem.c ****         if( s2 - s1 >= 23 && memcmp( s1, "DEK-Info: DES-EDE3-CBC,", 23 ) == 0 )
 290:D:/fchai/work/i-cube/I-CUBE-HUAWEI/Middlewares/Third_Party/Huawei/iot_link/network/dtls/mbedtls/mbedtls-2.16.2/library\pem.c ****         {
 291:D:/fchai/work/i-cube/I-CUBE-HUAWEI/Middlewares/Third_Party/Huawei/iot_link/network/dtls/mbedtls/mbedtls-2.16.2/library\pem.c ****             enc_alg = MBEDTLS_CIPHER_DES_EDE3_CBC;
 292:D:/fchai/work/i-cube/I-CUBE-HUAWEI/Middlewares/Third_Party/Huawei/iot_link/network/dtls/mbedtls/mbedtls-2.16.2/library\pem.c **** 
 293:D:/fchai/work/i-cube/I-CUBE-HUAWEI/Middlewares/Third_Party/Huawei/iot_link/network/dtls/mbedtls/mbedtls-2.16.2/library\pem.c ****             s1 += 23;
 294:D:/fchai/work/i-cube/I-CUBE-HUAWEI/Middlewares/Third_Party/Huawei/iot_link/network/dtls/mbedtls/mbedtls-2.16.2/library\pem.c ****             if( s2 - s1 < 16 || pem_get_iv( s1, pem_iv, 8 ) != 0 )
 295:D:/fchai/work/i-cube/I-CUBE-HUAWEI/Middlewares/Third_Party/Huawei/iot_link/network/dtls/mbedtls/mbedtls-2.16.2/library\pem.c ****                 return( MBEDTLS_ERR_PEM_INVALID_ENC_IV );
 296:D:/fchai/work/i-cube/I-CUBE-HUAWEI/Middlewares/Third_Party/Huawei/iot_link/network/dtls/mbedtls/mbedtls-2.16.2/library\pem.c **** 
 297:D:/fchai/work/i-cube/I-CUBE-HUAWEI/Middlewares/Third_Party/Huawei/iot_link/network/dtls/mbedtls/mbedtls-2.16.2/library\pem.c ****             s1 += 16;
 298:D:/fchai/work/i-cube/I-CUBE-HUAWEI/Middlewares/Third_Party/Huawei/iot_link/network/dtls/mbedtls/mbedtls-2.16.2/library\pem.c ****         }
 299:D:/fchai/work/i-cube/I-CUBE-HUAWEI/Middlewares/Third_Party/Huawei/iot_link/network/dtls/mbedtls/mbedtls-2.16.2/library\pem.c ****         else if( s2 - s1 >= 18 && memcmp( s1, "DEK-Info: DES-CBC,", 18 ) == 0 )
 300:D:/fchai/work/i-cube/I-CUBE-HUAWEI/Middlewares/Third_Party/Huawei/iot_link/network/dtls/mbedtls/mbedtls-2.16.2/library\pem.c ****         {
 301:D:/fchai/work/i-cube/I-CUBE-HUAWEI/Middlewares/Third_Party/Huawei/iot_link/network/dtls/mbedtls/mbedtls-2.16.2/library\pem.c ****             enc_alg = MBEDTLS_CIPHER_DES_CBC;
 302:D:/fchai/work/i-cube/I-CUBE-HUAWEI/Middlewares/Third_Party/Huawei/iot_link/network/dtls/mbedtls/mbedtls-2.16.2/library\pem.c **** 
 303:D:/fchai/work/i-cube/I-CUBE-HUAWEI/Middlewares/Third_Party/Huawei/iot_link/network/dtls/mbedtls/mbedtls-2.16.2/library\pem.c ****             s1 += 18;
 304:D:/fchai/work/i-cube/I-CUBE-HUAWEI/Middlewares/Third_Party/Huawei/iot_link/network/dtls/mbedtls/mbedtls-2.16.2/library\pem.c ****             if( s2 - s1 < 16 || pem_get_iv( s1, pem_iv, 8) != 0 )
 305:D:/fchai/work/i-cube/I-CUBE-HUAWEI/Middlewares/Third_Party/Huawei/iot_link/network/dtls/mbedtls/mbedtls-2.16.2/library\pem.c ****                 return( MBEDTLS_ERR_PEM_INVALID_ENC_IV );
 306:D:/fchai/work/i-cube/I-CUBE-HUAWEI/Middlewares/Third_Party/Huawei/iot_link/network/dtls/mbedtls/mbedtls-2.16.2/library\pem.c **** 
 307:D:/fchai/work/i-cube/I-CUBE-HUAWEI/Middlewares/Third_Party/Huawei/iot_link/network/dtls/mbedtls/mbedtls-2.16.2/library\pem.c ****             s1 += 16;
 308:D:/fchai/work/i-cube/I-CUBE-HUAWEI/Middlewares/Third_Party/Huawei/iot_link/network/dtls/mbedtls/mbedtls-2.16.2/library\pem.c ****         }
 309:D:/fchai/work/i-cube/I-CUBE-HUAWEI/Middlewares/Third_Party/Huawei/iot_link/network/dtls/mbedtls/mbedtls-2.16.2/library\pem.c **** #endif /* MBEDTLS_DES_C */
 310:D:/fchai/work/i-cube/I-CUBE-HUAWEI/Middlewares/Third_Party/Huawei/iot_link/network/dtls/mbedtls/mbedtls-2.16.2/library\pem.c **** 
 311:D:/fchai/work/i-cube/I-CUBE-HUAWEI/Middlewares/Third_Party/Huawei/iot_link/network/dtls/mbedtls/mbedtls-2.16.2/library\pem.c **** #if defined(MBEDTLS_AES_C)
 312:D:/fchai/work/i-cube/I-CUBE-HUAWEI/Middlewares/Third_Party/Huawei/iot_link/network/dtls/mbedtls/mbedtls-2.16.2/library\pem.c ****         if( s2 - s1 >= 14 && memcmp( s1, "DEK-Info: AES-", 14 ) == 0 )
 313:D:/fchai/work/i-cube/I-CUBE-HUAWEI/Middlewares/Third_Party/Huawei/iot_link/network/dtls/mbedtls/mbedtls-2.16.2/library\pem.c ****         {
 314:D:/fchai/work/i-cube/I-CUBE-HUAWEI/Middlewares/Third_Party/Huawei/iot_link/network/dtls/mbedtls/mbedtls-2.16.2/library\pem.c ****             if( s2 - s1 < 22 )
 315:D:/fchai/work/i-cube/I-CUBE-HUAWEI/Middlewares/Third_Party/Huawei/iot_link/network/dtls/mbedtls/mbedtls-2.16.2/library\pem.c ****                 return( MBEDTLS_ERR_PEM_UNKNOWN_ENC_ALG );
 316:D:/fchai/work/i-cube/I-CUBE-HUAWEI/Middlewares/Third_Party/Huawei/iot_link/network/dtls/mbedtls/mbedtls-2.16.2/library\pem.c ****             else if( memcmp( s1, "DEK-Info: AES-128-CBC,", 22 ) == 0 )
 317:D:/fchai/work/i-cube/I-CUBE-HUAWEI/Middlewares/Third_Party/Huawei/iot_link/network/dtls/mbedtls/mbedtls-2.16.2/library\pem.c ****                 enc_alg = MBEDTLS_CIPHER_AES_128_CBC;
 318:D:/fchai/work/i-cube/I-CUBE-HUAWEI/Middlewares/Third_Party/Huawei/iot_link/network/dtls/mbedtls/mbedtls-2.16.2/library\pem.c ****             else if( memcmp( s1, "DEK-Info: AES-192-CBC,", 22 ) == 0 )
 319:D:/fchai/work/i-cube/I-CUBE-HUAWEI/Middlewares/Third_Party/Huawei/iot_link/network/dtls/mbedtls/mbedtls-2.16.2/library\pem.c ****                 enc_alg = MBEDTLS_CIPHER_AES_192_CBC;
 320:D:/fchai/work/i-cube/I-CUBE-HUAWEI/Middlewares/Third_Party/Huawei/iot_link/network/dtls/mbedtls/mbedtls-2.16.2/library\pem.c ****             else if( memcmp( s1, "DEK-Info: AES-256-CBC,", 22 ) == 0 )
 321:D:/fchai/work/i-cube/I-CUBE-HUAWEI/Middlewares/Third_Party/Huawei/iot_link/network/dtls/mbedtls/mbedtls-2.16.2/library\pem.c ****                 enc_alg = MBEDTLS_CIPHER_AES_256_CBC;
 322:D:/fchai/work/i-cube/I-CUBE-HUAWEI/Middlewares/Third_Party/Huawei/iot_link/network/dtls/mbedtls/mbedtls-2.16.2/library\pem.c ****             else
 323:D:/fchai/work/i-cube/I-CUBE-HUAWEI/Middlewares/Third_Party/Huawei/iot_link/network/dtls/mbedtls/mbedtls-2.16.2/library\pem.c ****                 return( MBEDTLS_ERR_PEM_UNKNOWN_ENC_ALG );
 324:D:/fchai/work/i-cube/I-CUBE-HUAWEI/Middlewares/Third_Party/Huawei/iot_link/network/dtls/mbedtls/mbedtls-2.16.2/library\pem.c **** 
 325:D:/fchai/work/i-cube/I-CUBE-HUAWEI/Middlewares/Third_Party/Huawei/iot_link/network/dtls/mbedtls/mbedtls-2.16.2/library\pem.c ****             s1 += 22;
 326:D:/fchai/work/i-cube/I-CUBE-HUAWEI/Middlewares/Third_Party/Huawei/iot_link/network/dtls/mbedtls/mbedtls-2.16.2/library\pem.c ****             if( s2 - s1 < 32 || pem_get_iv( s1, pem_iv, 16 ) != 0 )
 327:D:/fchai/work/i-cube/I-CUBE-HUAWEI/Middlewares/Third_Party/Huawei/iot_link/network/dtls/mbedtls/mbedtls-2.16.2/library\pem.c ****                 return( MBEDTLS_ERR_PEM_INVALID_ENC_IV );
 328:D:/fchai/work/i-cube/I-CUBE-HUAWEI/Middlewares/Third_Party/Huawei/iot_link/network/dtls/mbedtls/mbedtls-2.16.2/library\pem.c **** 
 329:D:/fchai/work/i-cube/I-CUBE-HUAWEI/Middlewares/Third_Party/Huawei/iot_link/network/dtls/mbedtls/mbedtls-2.16.2/library\pem.c ****             s1 += 32;
 330:D:/fchai/work/i-cube/I-CUBE-HUAWEI/Middlewares/Third_Party/Huawei/iot_link/network/dtls/mbedtls/mbedtls-2.16.2/library\pem.c ****         }
 331:D:/fchai/work/i-cube/I-CUBE-HUAWEI/Middlewares/Third_Party/Huawei/iot_link/network/dtls/mbedtls/mbedtls-2.16.2/library\pem.c **** #endif /* MBEDTLS_AES_C */
 332:D:/fchai/work/i-cube/I-CUBE-HUAWEI/Middlewares/Third_Party/Huawei/iot_link/network/dtls/mbedtls/mbedtls-2.16.2/library\pem.c **** 
 333:D:/fchai/work/i-cube/I-CUBE-HUAWEI/Middlewares/Third_Party/Huawei/iot_link/network/dtls/mbedtls/mbedtls-2.16.2/library\pem.c ****         if( enc_alg == MBEDTLS_CIPHER_NONE )
 334:D:/fchai/work/i-cube/I-CUBE-HUAWEI/Middlewares/Third_Party/Huawei/iot_link/network/dtls/mbedtls/mbedtls-2.16.2/library\pem.c ****             return( MBEDTLS_ERR_PEM_UNKNOWN_ENC_ALG );
 335:D:/fchai/work/i-cube/I-CUBE-HUAWEI/Middlewares/Third_Party/Huawei/iot_link/network/dtls/mbedtls/mbedtls-2.16.2/library\pem.c **** 
 336:D:/fchai/work/i-cube/I-CUBE-HUAWEI/Middlewares/Third_Party/Huawei/iot_link/network/dtls/mbedtls/mbedtls-2.16.2/library\pem.c ****         if( *s1 == '\r' ) s1++;
 337:D:/fchai/work/i-cube/I-CUBE-HUAWEI/Middlewares/Third_Party/Huawei/iot_link/network/dtls/mbedtls/mbedtls-2.16.2/library\pem.c ****         if( *s1 == '\n' ) s1++;
 338:D:/fchai/work/i-cube/I-CUBE-HUAWEI/Middlewares/Third_Party/Huawei/iot_link/network/dtls/mbedtls/mbedtls-2.16.2/library\pem.c ****         else return( MBEDTLS_ERR_PEM_INVALID_DATA );
 339:D:/fchai/work/i-cube/I-CUBE-HUAWEI/Middlewares/Third_Party/Huawei/iot_link/network/dtls/mbedtls/mbedtls-2.16.2/library\pem.c **** #else
 340:D:/fchai/work/i-cube/I-CUBE-HUAWEI/Middlewares/Third_Party/Huawei/iot_link/network/dtls/mbedtls/mbedtls-2.16.2/library\pem.c ****         return( MBEDTLS_ERR_PEM_FEATURE_UNAVAILABLE );
 341:D:/fchai/work/i-cube/I-CUBE-HUAWEI/Middlewares/Third_Party/Huawei/iot_link/network/dtls/mbedtls/mbedtls-2.16.2/library\pem.c **** #endif /* MBEDTLS_MD5_C && MBEDTLS_CIPHER_MODE_CBC &&
 342:D:/fchai/work/i-cube/I-CUBE-HUAWEI/Middlewares/Third_Party/Huawei/iot_link/network/dtls/mbedtls/mbedtls-2.16.2/library\pem.c ****           ( MBEDTLS_AES_C || MBEDTLS_DES_C ) */
 343:D:/fchai/work/i-cube/I-CUBE-HUAWEI/Middlewares/Third_Party/Huawei/iot_link/network/dtls/mbedtls/mbedtls-2.16.2/library\pem.c ****     }
 344:D:/fchai/work/i-cube/I-CUBE-HUAWEI/Middlewares/Third_Party/Huawei/iot_link/network/dtls/mbedtls/mbedtls-2.16.2/library\pem.c **** 
ARM GAS  T:\msys\tmp\ccxhCqM9.s 			page 11


 345:D:/fchai/work/i-cube/I-CUBE-HUAWEI/Middlewares/Third_Party/Huawei/iot_link/network/dtls/mbedtls/mbedtls-2.16.2/library\pem.c ****     if( s1 >= s2 )
 215              		.loc 1 345 5 is_stmt 1 view .LVU67
 216              		.loc 1 345 7 is_stmt 0 view .LVU68
 217 0080 A542     		cmp	r5, r4
 218 0082 35D9     		bls	.L18
 346:D:/fchai/work/i-cube/I-CUBE-HUAWEI/Middlewares/Third_Party/Huawei/iot_link/network/dtls/mbedtls/mbedtls-2.16.2/library\pem.c ****         return( MBEDTLS_ERR_PEM_INVALID_DATA );
 347:D:/fchai/work/i-cube/I-CUBE-HUAWEI/Middlewares/Third_Party/Huawei/iot_link/network/dtls/mbedtls/mbedtls-2.16.2/library\pem.c **** 
 348:D:/fchai/work/i-cube/I-CUBE-HUAWEI/Middlewares/Third_Party/Huawei/iot_link/network/dtls/mbedtls/mbedtls-2.16.2/library\pem.c ****     ret = mbedtls_base64_decode( NULL, 0, &len, s1, s2 - s1 );
 219              		.loc 1 348 5 is_stmt 1 view .LVU69
 220              		.loc 1 348 11 is_stmt 0 view .LVU70
 221 0084 0021     		movs	r1, #0
 222 0086 0096     		str	r6, [sp]
 223 0088 03AA     		add	r2, sp, #12
 224 008a 0846     		mov	r0, r1
 225 008c 2346     		mov	r3, r4
 226 008e FFF7FEFF 		bl	mbedtls_base64_decode
 227              	.LVL18:
 349:D:/fchai/work/i-cube/I-CUBE-HUAWEI/Middlewares/Third_Party/Huawei/iot_link/network/dtls/mbedtls/mbedtls-2.16.2/library\pem.c **** 
 350:D:/fchai/work/i-cube/I-CUBE-HUAWEI/Middlewares/Third_Party/Huawei/iot_link/network/dtls/mbedtls/mbedtls-2.16.2/library\pem.c ****     if( ret == MBEDTLS_ERR_BASE64_INVALID_CHARACTER )
 228              		.loc 1 350 5 is_stmt 1 view .LVU71
 229              		.loc 1 350 7 is_stmt 0 view .LVU72
 230 0092 2C30     		adds	r0, r0, #44
 231              	.LVL19:
 232              		.loc 1 350 7 view .LVU73
 233 0094 2ED0     		beq	.L19
 351:D:/fchai/work/i-cube/I-CUBE-HUAWEI/Middlewares/Third_Party/Huawei/iot_link/network/dtls/mbedtls/mbedtls-2.16.2/library\pem.c ****         return( MBEDTLS_ERR_PEM_INVALID_DATA + ret );
 352:D:/fchai/work/i-cube/I-CUBE-HUAWEI/Middlewares/Third_Party/Huawei/iot_link/network/dtls/mbedtls/mbedtls-2.16.2/library\pem.c **** 
 353:D:/fchai/work/i-cube/I-CUBE-HUAWEI/Middlewares/Third_Party/Huawei/iot_link/network/dtls/mbedtls/mbedtls-2.16.2/library\pem.c ****     if( ( buf = mbedtls_calloc( 1, len ) ) == NULL )
 234              		.loc 1 353 5 is_stmt 1 view .LVU74
 235              		.loc 1 353 17 is_stmt 0 view .LVU75
 236 0096 0399     		ldr	r1, [sp, #12]
 237 0098 0120     		movs	r0, #1
 238              	.LVL20:
 239              		.loc 1 353 17 view .LVU76
 240 009a FFF7FEFF 		bl	mbedtls_calloc
 241              	.LVL21:
 242              		.loc 1 353 7 view .LVU77
 243 009e 0546     		mov	r5, r0
 244              	.LVL22:
 245              		.loc 1 353 7 view .LVU78
 246 00a0 50B3     		cbz	r0, .L20
 354:D:/fchai/work/i-cube/I-CUBE-HUAWEI/Middlewares/Third_Party/Huawei/iot_link/network/dtls/mbedtls/mbedtls-2.16.2/library\pem.c ****         return( MBEDTLS_ERR_PEM_ALLOC_FAILED );
 355:D:/fchai/work/i-cube/I-CUBE-HUAWEI/Middlewares/Third_Party/Huawei/iot_link/network/dtls/mbedtls/mbedtls-2.16.2/library\pem.c **** 
 356:D:/fchai/work/i-cube/I-CUBE-HUAWEI/Middlewares/Third_Party/Huawei/iot_link/network/dtls/mbedtls/mbedtls-2.16.2/library\pem.c ****     if( ( ret = mbedtls_base64_decode( buf, len, &len, s1, s2 - s1 ) ) != 0 )
 247              		.loc 1 356 5 is_stmt 1 view .LVU79
 248              		.loc 1 356 17 is_stmt 0 view .LVU80
 249 00a2 2346     		mov	r3, r4
 250 00a4 0399     		ldr	r1, [sp, #12]
 251 00a6 0096     		str	r6, [sp]
 252 00a8 03AA     		add	r2, sp, #12
 253 00aa FFF7FEFF 		bl	mbedtls_base64_decode
 254              	.LVL23:
 255              		.loc 1 356 7 view .LVU81
 256 00ae 0446     		mov	r4, r0
 257              	.LVL24:
 258              		.loc 1 356 7 view .LVU82
 259 00b0 78B9     		cbnz	r0, .L23
ARM GAS  T:\msys\tmp\ccxhCqM9.s 			page 12


 357:D:/fchai/work/i-cube/I-CUBE-HUAWEI/Middlewares/Third_Party/Huawei/iot_link/network/dtls/mbedtls/mbedtls-2.16.2/library\pem.c ****     {
 358:D:/fchai/work/i-cube/I-CUBE-HUAWEI/Middlewares/Third_Party/Huawei/iot_link/network/dtls/mbedtls/mbedtls-2.16.2/library\pem.c ****         mbedtls_platform_zeroize( buf, len );
 359:D:/fchai/work/i-cube/I-CUBE-HUAWEI/Middlewares/Third_Party/Huawei/iot_link/network/dtls/mbedtls/mbedtls-2.16.2/library\pem.c ****         mbedtls_free( buf );
 360:D:/fchai/work/i-cube/I-CUBE-HUAWEI/Middlewares/Third_Party/Huawei/iot_link/network/dtls/mbedtls/mbedtls-2.16.2/library\pem.c ****         return( MBEDTLS_ERR_PEM_INVALID_DATA + ret );
 361:D:/fchai/work/i-cube/I-CUBE-HUAWEI/Middlewares/Third_Party/Huawei/iot_link/network/dtls/mbedtls/mbedtls-2.16.2/library\pem.c ****     }
 362:D:/fchai/work/i-cube/I-CUBE-HUAWEI/Middlewares/Third_Party/Huawei/iot_link/network/dtls/mbedtls/mbedtls-2.16.2/library\pem.c **** 
 363:D:/fchai/work/i-cube/I-CUBE-HUAWEI/Middlewares/Third_Party/Huawei/iot_link/network/dtls/mbedtls/mbedtls-2.16.2/library\pem.c ****     if( enc != 0 )
 260              		.loc 1 363 5 is_stmt 1 view .LVU83
 364:D:/fchai/work/i-cube/I-CUBE-HUAWEI/Middlewares/Third_Party/Huawei/iot_link/network/dtls/mbedtls/mbedtls-2.16.2/library\pem.c ****     {
 365:D:/fchai/work/i-cube/I-CUBE-HUAWEI/Middlewares/Third_Party/Huawei/iot_link/network/dtls/mbedtls/mbedtls-2.16.2/library\pem.c **** #if defined(MBEDTLS_MD5_C) && defined(MBEDTLS_CIPHER_MODE_CBC) &&         \
 366:D:/fchai/work/i-cube/I-CUBE-HUAWEI/Middlewares/Third_Party/Huawei/iot_link/network/dtls/mbedtls/mbedtls-2.16.2/library\pem.c ****     ( defined(MBEDTLS_DES_C) || defined(MBEDTLS_AES_C) )
 367:D:/fchai/work/i-cube/I-CUBE-HUAWEI/Middlewares/Third_Party/Huawei/iot_link/network/dtls/mbedtls/mbedtls-2.16.2/library\pem.c ****         if( pwd == NULL )
 368:D:/fchai/work/i-cube/I-CUBE-HUAWEI/Middlewares/Third_Party/Huawei/iot_link/network/dtls/mbedtls/mbedtls-2.16.2/library\pem.c ****         {
 369:D:/fchai/work/i-cube/I-CUBE-HUAWEI/Middlewares/Third_Party/Huawei/iot_link/network/dtls/mbedtls/mbedtls-2.16.2/library\pem.c ****             mbedtls_platform_zeroize( buf, len );
 370:D:/fchai/work/i-cube/I-CUBE-HUAWEI/Middlewares/Third_Party/Huawei/iot_link/network/dtls/mbedtls/mbedtls-2.16.2/library\pem.c ****             mbedtls_free( buf );
 371:D:/fchai/work/i-cube/I-CUBE-HUAWEI/Middlewares/Third_Party/Huawei/iot_link/network/dtls/mbedtls/mbedtls-2.16.2/library\pem.c ****             return( MBEDTLS_ERR_PEM_PASSWORD_REQUIRED );
 372:D:/fchai/work/i-cube/I-CUBE-HUAWEI/Middlewares/Third_Party/Huawei/iot_link/network/dtls/mbedtls/mbedtls-2.16.2/library\pem.c ****         }
 373:D:/fchai/work/i-cube/I-CUBE-HUAWEI/Middlewares/Third_Party/Huawei/iot_link/network/dtls/mbedtls/mbedtls-2.16.2/library\pem.c **** 
 374:D:/fchai/work/i-cube/I-CUBE-HUAWEI/Middlewares/Third_Party/Huawei/iot_link/network/dtls/mbedtls/mbedtls-2.16.2/library\pem.c ****         ret = 0;
 375:D:/fchai/work/i-cube/I-CUBE-HUAWEI/Middlewares/Third_Party/Huawei/iot_link/network/dtls/mbedtls/mbedtls-2.16.2/library\pem.c **** 
 376:D:/fchai/work/i-cube/I-CUBE-HUAWEI/Middlewares/Third_Party/Huawei/iot_link/network/dtls/mbedtls/mbedtls-2.16.2/library\pem.c **** #if defined(MBEDTLS_DES_C)
 377:D:/fchai/work/i-cube/I-CUBE-HUAWEI/Middlewares/Third_Party/Huawei/iot_link/network/dtls/mbedtls/mbedtls-2.16.2/library\pem.c ****         if( enc_alg == MBEDTLS_CIPHER_DES_EDE3_CBC )
 378:D:/fchai/work/i-cube/I-CUBE-HUAWEI/Middlewares/Third_Party/Huawei/iot_link/network/dtls/mbedtls/mbedtls-2.16.2/library\pem.c ****             ret = pem_des3_decrypt( pem_iv, buf, len, pwd, pwdlen );
 379:D:/fchai/work/i-cube/I-CUBE-HUAWEI/Middlewares/Third_Party/Huawei/iot_link/network/dtls/mbedtls/mbedtls-2.16.2/library\pem.c ****         else if( enc_alg == MBEDTLS_CIPHER_DES_CBC )
 380:D:/fchai/work/i-cube/I-CUBE-HUAWEI/Middlewares/Third_Party/Huawei/iot_link/network/dtls/mbedtls/mbedtls-2.16.2/library\pem.c ****             ret = pem_des_decrypt( pem_iv, buf, len, pwd, pwdlen );
 381:D:/fchai/work/i-cube/I-CUBE-HUAWEI/Middlewares/Third_Party/Huawei/iot_link/network/dtls/mbedtls/mbedtls-2.16.2/library\pem.c **** #endif /* MBEDTLS_DES_C */
 382:D:/fchai/work/i-cube/I-CUBE-HUAWEI/Middlewares/Third_Party/Huawei/iot_link/network/dtls/mbedtls/mbedtls-2.16.2/library\pem.c **** 
 383:D:/fchai/work/i-cube/I-CUBE-HUAWEI/Middlewares/Third_Party/Huawei/iot_link/network/dtls/mbedtls/mbedtls-2.16.2/library\pem.c **** #if defined(MBEDTLS_AES_C)
 384:D:/fchai/work/i-cube/I-CUBE-HUAWEI/Middlewares/Third_Party/Huawei/iot_link/network/dtls/mbedtls/mbedtls-2.16.2/library\pem.c ****         if( enc_alg == MBEDTLS_CIPHER_AES_128_CBC )
 385:D:/fchai/work/i-cube/I-CUBE-HUAWEI/Middlewares/Third_Party/Huawei/iot_link/network/dtls/mbedtls/mbedtls-2.16.2/library\pem.c ****             ret = pem_aes_decrypt( pem_iv, 16, buf, len, pwd, pwdlen );
 386:D:/fchai/work/i-cube/I-CUBE-HUAWEI/Middlewares/Third_Party/Huawei/iot_link/network/dtls/mbedtls/mbedtls-2.16.2/library\pem.c ****         else if( enc_alg == MBEDTLS_CIPHER_AES_192_CBC )
 387:D:/fchai/work/i-cube/I-CUBE-HUAWEI/Middlewares/Third_Party/Huawei/iot_link/network/dtls/mbedtls/mbedtls-2.16.2/library\pem.c ****             ret = pem_aes_decrypt( pem_iv, 24, buf, len, pwd, pwdlen );
 388:D:/fchai/work/i-cube/I-CUBE-HUAWEI/Middlewares/Third_Party/Huawei/iot_link/network/dtls/mbedtls/mbedtls-2.16.2/library\pem.c ****         else if( enc_alg == MBEDTLS_CIPHER_AES_256_CBC )
 389:D:/fchai/work/i-cube/I-CUBE-HUAWEI/Middlewares/Third_Party/Huawei/iot_link/network/dtls/mbedtls/mbedtls-2.16.2/library\pem.c ****             ret = pem_aes_decrypt( pem_iv, 32, buf, len, pwd, pwdlen );
 390:D:/fchai/work/i-cube/I-CUBE-HUAWEI/Middlewares/Third_Party/Huawei/iot_link/network/dtls/mbedtls/mbedtls-2.16.2/library\pem.c **** #endif /* MBEDTLS_AES_C */
 391:D:/fchai/work/i-cube/I-CUBE-HUAWEI/Middlewares/Third_Party/Huawei/iot_link/network/dtls/mbedtls/mbedtls-2.16.2/library\pem.c **** 
 392:D:/fchai/work/i-cube/I-CUBE-HUAWEI/Middlewares/Third_Party/Huawei/iot_link/network/dtls/mbedtls/mbedtls-2.16.2/library\pem.c ****         if( ret != 0 )
 393:D:/fchai/work/i-cube/I-CUBE-HUAWEI/Middlewares/Third_Party/Huawei/iot_link/network/dtls/mbedtls/mbedtls-2.16.2/library\pem.c ****         {
 394:D:/fchai/work/i-cube/I-CUBE-HUAWEI/Middlewares/Third_Party/Huawei/iot_link/network/dtls/mbedtls/mbedtls-2.16.2/library\pem.c ****             mbedtls_free( buf );
 395:D:/fchai/work/i-cube/I-CUBE-HUAWEI/Middlewares/Third_Party/Huawei/iot_link/network/dtls/mbedtls/mbedtls-2.16.2/library\pem.c ****             return( ret );
 396:D:/fchai/work/i-cube/I-CUBE-HUAWEI/Middlewares/Third_Party/Huawei/iot_link/network/dtls/mbedtls/mbedtls-2.16.2/library\pem.c ****         }
 397:D:/fchai/work/i-cube/I-CUBE-HUAWEI/Middlewares/Third_Party/Huawei/iot_link/network/dtls/mbedtls/mbedtls-2.16.2/library\pem.c **** 
 398:D:/fchai/work/i-cube/I-CUBE-HUAWEI/Middlewares/Third_Party/Huawei/iot_link/network/dtls/mbedtls/mbedtls-2.16.2/library\pem.c ****         /*
 399:D:/fchai/work/i-cube/I-CUBE-HUAWEI/Middlewares/Third_Party/Huawei/iot_link/network/dtls/mbedtls/mbedtls-2.16.2/library\pem.c ****          * The result will be ASN.1 starting with a SEQUENCE tag, with 1 to 3
 400:D:/fchai/work/i-cube/I-CUBE-HUAWEI/Middlewares/Third_Party/Huawei/iot_link/network/dtls/mbedtls/mbedtls-2.16.2/library\pem.c ****          * length bytes (allow 4 to be sure) in all known use cases.
 401:D:/fchai/work/i-cube/I-CUBE-HUAWEI/Middlewares/Third_Party/Huawei/iot_link/network/dtls/mbedtls/mbedtls-2.16.2/library\pem.c ****          *
 402:D:/fchai/work/i-cube/I-CUBE-HUAWEI/Middlewares/Third_Party/Huawei/iot_link/network/dtls/mbedtls/mbedtls-2.16.2/library\pem.c ****          * Use that as a heuristic to try to detect password mismatches.
 403:D:/fchai/work/i-cube/I-CUBE-HUAWEI/Middlewares/Third_Party/Huawei/iot_link/network/dtls/mbedtls/mbedtls-2.16.2/library\pem.c ****          */
 404:D:/fchai/work/i-cube/I-CUBE-HUAWEI/Middlewares/Third_Party/Huawei/iot_link/network/dtls/mbedtls/mbedtls-2.16.2/library\pem.c ****         if( len <= 2 || buf[0] != 0x30 || buf[1] > 0x83 )
 405:D:/fchai/work/i-cube/I-CUBE-HUAWEI/Middlewares/Third_Party/Huawei/iot_link/network/dtls/mbedtls/mbedtls-2.16.2/library\pem.c ****         {
 406:D:/fchai/work/i-cube/I-CUBE-HUAWEI/Middlewares/Third_Party/Huawei/iot_link/network/dtls/mbedtls/mbedtls-2.16.2/library\pem.c ****             mbedtls_platform_zeroize( buf, len );
 407:D:/fchai/work/i-cube/I-CUBE-HUAWEI/Middlewares/Third_Party/Huawei/iot_link/network/dtls/mbedtls/mbedtls-2.16.2/library\pem.c ****             mbedtls_free( buf );
 408:D:/fchai/work/i-cube/I-CUBE-HUAWEI/Middlewares/Third_Party/Huawei/iot_link/network/dtls/mbedtls/mbedtls-2.16.2/library\pem.c ****             return( MBEDTLS_ERR_PEM_PASSWORD_MISMATCH );
 409:D:/fchai/work/i-cube/I-CUBE-HUAWEI/Middlewares/Third_Party/Huawei/iot_link/network/dtls/mbedtls/mbedtls-2.16.2/library\pem.c ****         }
 410:D:/fchai/work/i-cube/I-CUBE-HUAWEI/Middlewares/Third_Party/Huawei/iot_link/network/dtls/mbedtls/mbedtls-2.16.2/library\pem.c **** #else
 411:D:/fchai/work/i-cube/I-CUBE-HUAWEI/Middlewares/Third_Party/Huawei/iot_link/network/dtls/mbedtls/mbedtls-2.16.2/library\pem.c ****         mbedtls_platform_zeroize( buf, len );
 412:D:/fchai/work/i-cube/I-CUBE-HUAWEI/Middlewares/Third_Party/Huawei/iot_link/network/dtls/mbedtls/mbedtls-2.16.2/library\pem.c ****         mbedtls_free( buf );
ARM GAS  T:\msys\tmp\ccxhCqM9.s 			page 13


 413:D:/fchai/work/i-cube/I-CUBE-HUAWEI/Middlewares/Third_Party/Huawei/iot_link/network/dtls/mbedtls/mbedtls-2.16.2/library\pem.c ****         return( MBEDTLS_ERR_PEM_FEATURE_UNAVAILABLE );
 414:D:/fchai/work/i-cube/I-CUBE-HUAWEI/Middlewares/Third_Party/Huawei/iot_link/network/dtls/mbedtls/mbedtls-2.16.2/library\pem.c **** #endif /* MBEDTLS_MD5_C && MBEDTLS_CIPHER_MODE_CBC &&
 415:D:/fchai/work/i-cube/I-CUBE-HUAWEI/Middlewares/Third_Party/Huawei/iot_link/network/dtls/mbedtls/mbedtls-2.16.2/library\pem.c ****           ( MBEDTLS_AES_C || MBEDTLS_DES_C ) */
 416:D:/fchai/work/i-cube/I-CUBE-HUAWEI/Middlewares/Third_Party/Huawei/iot_link/network/dtls/mbedtls/mbedtls-2.16.2/library\pem.c ****     }
 417:D:/fchai/work/i-cube/I-CUBE-HUAWEI/Middlewares/Third_Party/Huawei/iot_link/network/dtls/mbedtls/mbedtls-2.16.2/library\pem.c **** 
 418:D:/fchai/work/i-cube/I-CUBE-HUAWEI/Middlewares/Third_Party/Huawei/iot_link/network/dtls/mbedtls/mbedtls-2.16.2/library\pem.c ****     ctx->buf = buf;
 261              		.loc 1 418 5 view .LVU84
 419:D:/fchai/work/i-cube/I-CUBE-HUAWEI/Middlewares/Third_Party/Huawei/iot_link/network/dtls/mbedtls/mbedtls-2.16.2/library\pem.c ****     ctx->buflen = len;
 262              		.loc 1 419 17 is_stmt 0 view .LVU85
 263 00b2 039B     		ldr	r3, [sp, #12]
 264 00b4 C8E90053 		strd	r5, r3, [r8]
 420:D:/fchai/work/i-cube/I-CUBE-HUAWEI/Middlewares/Third_Party/Huawei/iot_link/network/dtls/mbedtls/mbedtls-2.16.2/library\pem.c **** 
 421:D:/fchai/work/i-cube/I-CUBE-HUAWEI/Middlewares/Third_Party/Huawei/iot_link/network/dtls/mbedtls/mbedtls-2.16.2/library\pem.c ****     return( 0 );
 265              		.loc 1 421 5 is_stmt 1 view .LVU86
 266              	.LVL25:
 267              	.L3:
 422:D:/fchai/work/i-cube/I-CUBE-HUAWEI/Middlewares/Third_Party/Huawei/iot_link/network/dtls/mbedtls/mbedtls-2.16.2/library\pem.c **** }
 268              		.loc 1 422 1 is_stmt 0 view .LVU87
 269 00b8 2046     		mov	r0, r4
 270 00ba 05B0     		add	sp, sp, #20
 271              	.LCFI2:
 272              		.cfi_remember_state
 273              		.cfi_def_cfa_offset 28
 274              		@ sp needed
 275 00bc BDE8F083 		pop	{r4, r5, r6, r7, r8, r9, pc}
 276              	.LVL26:
 277              	.L22:
 278              	.LCFI3:
 279              		.cfi_restore_state
 276:D:/fchai/work/i-cube/I-CUBE-HUAWEI/Middlewares/Third_Party/Huawei/iot_link/network/dtls/mbedtls/mbedtls-2.16.2/library\pem.c ****     {
 280              		.loc 1 276 26 discriminator 1 view .LVU88
 281 00c0 0F49     		ldr	r1, .L24
 282 00c2 1622     		movs	r2, #22
 283 00c4 2046     		mov	r0, r4
 284 00c6 FFF7FEFF 		bl	memcmp
 285              	.LVL27:
 276:D:/fchai/work/i-cube/I-CUBE-HUAWEI/Middlewares/Third_Party/Huawei/iot_link/network/dtls/mbedtls/mbedtls-2.16.2/library\pem.c ****     {
 286              		.loc 1 276 23 discriminator 1 view .LVU89
 287 00ca 0028     		cmp	r0, #0
 288 00cc D8D1     		bne	.L10
 340:D:/fchai/work/i-cube/I-CUBE-HUAWEI/Middlewares/Third_Party/Huawei/iot_link/network/dtls/mbedtls/mbedtls-2.16.2/library\pem.c **** #endif /* MBEDTLS_MD5_C && MBEDTLS_CIPHER_MODE_CBC &&
 289              		.loc 1 340 15 view .LVU90
 290 00ce 0D4C     		ldr	r4, .L24+4
 291              	.LVL28:
 340:D:/fchai/work/i-cube/I-CUBE-HUAWEI/Middlewares/Third_Party/Huawei/iot_link/network/dtls/mbedtls/mbedtls-2.16.2/library\pem.c **** #endif /* MBEDTLS_MD5_C && MBEDTLS_CIPHER_MODE_CBC &&
 292              		.loc 1 340 15 view .LVU91
 293 00d0 F2E7     		b	.L3
 294              	.LVL29:
 295              	.L23:
 358:D:/fchai/work/i-cube/I-CUBE-HUAWEI/Middlewares/Third_Party/Huawei/iot_link/network/dtls/mbedtls/mbedtls-2.16.2/library\pem.c ****         mbedtls_free( buf );
 296              		.loc 1 358 9 is_stmt 1 view .LVU92
 297 00d2 0399     		ldr	r1, [sp, #12]
 298 00d4 2846     		mov	r0, r5
 299              	.LVL30:
 358:D:/fchai/work/i-cube/I-CUBE-HUAWEI/Middlewares/Third_Party/Huawei/iot_link/network/dtls/mbedtls/mbedtls-2.16.2/library\pem.c ****         mbedtls_free( buf );
 300              		.loc 1 358 9 is_stmt 0 view .LVU93
 301 00d6 FFF7FEFF 		bl	mbedtls_platform_zeroize
ARM GAS  T:\msys\tmp\ccxhCqM9.s 			page 14


 302              	.LVL31:
 359:D:/fchai/work/i-cube/I-CUBE-HUAWEI/Middlewares/Third_Party/Huawei/iot_link/network/dtls/mbedtls/mbedtls-2.16.2/library\pem.c ****         return( MBEDTLS_ERR_PEM_INVALID_DATA + ret );
 303              		.loc 1 359 9 is_stmt 1 view .LVU94
 304 00da 2846     		mov	r0, r5
 305 00dc FFF7FEFF 		bl	mbedtls_free
 306              	.LVL32:
 360:D:/fchai/work/i-cube/I-CUBE-HUAWEI/Middlewares/Third_Party/Huawei/iot_link/network/dtls/mbedtls/mbedtls-2.16.2/library\pem.c ****     }
 307              		.loc 1 360 9 view .LVU95
 360:D:/fchai/work/i-cube/I-CUBE-HUAWEI/Middlewares/Third_Party/Huawei/iot_link/network/dtls/mbedtls/mbedtls-2.16.2/library\pem.c ****     }
 308              		.loc 1 360 46 is_stmt 0 view .LVU96
 309 00e0 A4F58854 		sub	r4, r4, #4352
 310              	.LVL33:
 311              		.loc 1 422 1 view .LVU97
 312 00e4 2046     		mov	r0, r4
 313 00e6 05B0     		add	sp, sp, #20
 314              	.LCFI4:
 315              		.cfi_remember_state
 316              		.cfi_def_cfa_offset 28
 317              		@ sp needed
 318 00e8 BDE8F083 		pop	{r4, r5, r6, r7, r8, r9, pc}
 319              	.LVL34:
 320              	.L16:
 321              	.LCFI5:
 322              		.cfi_restore_state
 254:D:/fchai/work/i-cube/I-CUBE-HUAWEI/Middlewares/Third_Party/Huawei/iot_link/network/dtls/mbedtls/mbedtls-2.16.2/library\pem.c **** 
 323              		.loc 1 254 15 view .LVU98
 324 00ec 064C     		ldr	r4, .L24+8
 325 00ee E3E7     		b	.L3
 326              	.LVL35:
 327              	.L18:
 346:D:/fchai/work/i-cube/I-CUBE-HUAWEI/Middlewares/Third_Party/Huawei/iot_link/network/dtls/mbedtls/mbedtls-2.16.2/library\pem.c **** 
 328              		.loc 1 346 15 view .LVU99
 329 00f0 064C     		ldr	r4, .L24+12
 330              	.LVL36:
 346:D:/fchai/work/i-cube/I-CUBE-HUAWEI/Middlewares/Third_Party/Huawei/iot_link/network/dtls/mbedtls/mbedtls-2.16.2/library\pem.c **** 
 331              		.loc 1 346 15 view .LVU100
 332 00f2 E1E7     		b	.L3
 333              	.LVL37:
 334              	.L19:
 351:D:/fchai/work/i-cube/I-CUBE-HUAWEI/Middlewares/Third_Party/Huawei/iot_link/network/dtls/mbedtls/mbedtls-2.16.2/library\pem.c **** 
 335              		.loc 1 351 46 view .LVU101
 336 00f4 064C     		ldr	r4, .L24+16
 337              	.LVL38:
 351:D:/fchai/work/i-cube/I-CUBE-HUAWEI/Middlewares/Third_Party/Huawei/iot_link/network/dtls/mbedtls/mbedtls-2.16.2/library\pem.c **** 
 338              		.loc 1 351 46 view .LVU102
 339 00f6 DFE7     		b	.L3
 340              	.LVL39:
 341              	.L20:
 354:D:/fchai/work/i-cube/I-CUBE-HUAWEI/Middlewares/Third_Party/Huawei/iot_link/network/dtls/mbedtls/mbedtls-2.16.2/library\pem.c **** 
 342              		.loc 1 354 15 view .LVU103
 343 00f8 064C     		ldr	r4, .L24+20
 344              	.LVL40:
 354:D:/fchai/work/i-cube/I-CUBE-HUAWEI/Middlewares/Third_Party/Huawei/iot_link/network/dtls/mbedtls/mbedtls-2.16.2/library\pem.c **** 
 345              		.loc 1 354 15 view .LVU104
 346 00fa DDE7     		b	.L3
 347              	.LVL41:
 348              	.L12:
ARM GAS  T:\msys\tmp\ccxhCqM9.s 			page 15


 249:D:/fchai/work/i-cube/I-CUBE-HUAWEI/Middlewares/Third_Party/Huawei/iot_link/network/dtls/mbedtls/mbedtls-2.16.2/library\pem.c **** 
 349              		.loc 1 249 15 view .LVU105
 350 00fc 064C     		ldr	r4, .L24+24
 351 00fe DBE7     		b	.L3
 352              	.L25:
 353              		.align	2
 354              	.L24:
 355 0100 00000000 		.word	.LC0
 356 0104 00ECFFFF 		.word	-5120
 357 0108 80EFFFFF 		.word	-4224
 358 010c 00EFFFFF 		.word	-4352
 359 0110 D4EEFFFF 		.word	-4396
 360 0114 80EEFFFF 		.word	-4480
 361 0118 80EBFFFF 		.word	-5248
 362              		.cfi_endproc
 363              	.LFE11:
 365              		.section	.text.mbedtls_pem_free,"ax",%progbits
 366              		.align	1
 367              		.p2align 2,,3
 368              		.global	mbedtls_pem_free
 369              		.syntax unified
 370              		.thumb
 371              		.thumb_func
 372              		.fpu fpv4-sp-d16
 374              	mbedtls_pem_free:
 375              	.LVL42:
 376              	.LFB12:
 423:D:/fchai/work/i-cube/I-CUBE-HUAWEI/Middlewares/Third_Party/Huawei/iot_link/network/dtls/mbedtls/mbedtls-2.16.2/library\pem.c **** 
 424:D:/fchai/work/i-cube/I-CUBE-HUAWEI/Middlewares/Third_Party/Huawei/iot_link/network/dtls/mbedtls/mbedtls-2.16.2/library\pem.c **** void mbedtls_pem_free( mbedtls_pem_context *ctx )
 425:D:/fchai/work/i-cube/I-CUBE-HUAWEI/Middlewares/Third_Party/Huawei/iot_link/network/dtls/mbedtls/mbedtls-2.16.2/library\pem.c **** {
 377              		.loc 1 425 1 is_stmt 1 view -0
 378              		.cfi_startproc
 379              		@ args = 0, pretend = 0, frame = 0
 380              		@ frame_needed = 0, uses_anonymous_args = 0
 426:D:/fchai/work/i-cube/I-CUBE-HUAWEI/Middlewares/Third_Party/Huawei/iot_link/network/dtls/mbedtls/mbedtls-2.16.2/library\pem.c ****     if ( ctx->buf != NULL )
 381              		.loc 1 426 5 view .LVU107
 425:D:/fchai/work/i-cube/I-CUBE-HUAWEI/Middlewares/Third_Party/Huawei/iot_link/network/dtls/mbedtls/mbedtls-2.16.2/library\pem.c ****     if ( ctx->buf != NULL )
 382              		.loc 1 425 1 is_stmt 0 view .LVU108
 383 0000 10B5     		push	{r4, lr}
 384              	.LCFI6:
 385              		.cfi_def_cfa_offset 8
 386              		.cfi_offset 4, -8
 387              		.cfi_offset 14, -4
 425:D:/fchai/work/i-cube/I-CUBE-HUAWEI/Middlewares/Third_Party/Huawei/iot_link/network/dtls/mbedtls/mbedtls-2.16.2/library\pem.c ****     if ( ctx->buf != NULL )
 388              		.loc 1 425 1 view .LVU109
 389 0002 0446     		mov	r4, r0
 390              		.loc 1 426 13 view .LVU110
 391 0004 0068     		ldr	r0, [r0]
 392              	.LVL43:
 393              		.loc 1 426 8 view .LVU111
 394 0006 28B1     		cbz	r0, .L27
 427:D:/fchai/work/i-cube/I-CUBE-HUAWEI/Middlewares/Third_Party/Huawei/iot_link/network/dtls/mbedtls/mbedtls-2.16.2/library\pem.c ****     {
 428:D:/fchai/work/i-cube/I-CUBE-HUAWEI/Middlewares/Third_Party/Huawei/iot_link/network/dtls/mbedtls/mbedtls-2.16.2/library\pem.c ****         mbedtls_platform_zeroize( ctx->buf, ctx->buflen );
 395              		.loc 1 428 9 is_stmt 1 view .LVU112
 396 0008 6168     		ldr	r1, [r4, #4]
 397 000a FFF7FEFF 		bl	mbedtls_platform_zeroize
 398              	.LVL44:
ARM GAS  T:\msys\tmp\ccxhCqM9.s 			page 16


 429:D:/fchai/work/i-cube/I-CUBE-HUAWEI/Middlewares/Third_Party/Huawei/iot_link/network/dtls/mbedtls/mbedtls-2.16.2/library\pem.c ****         mbedtls_free( ctx->buf );
 399              		.loc 1 429 9 view .LVU113
 400 000e 2068     		ldr	r0, [r4]
 401 0010 FFF7FEFF 		bl	mbedtls_free
 402              	.LVL45:
 403              	.L27:
 430:D:/fchai/work/i-cube/I-CUBE-HUAWEI/Middlewares/Third_Party/Huawei/iot_link/network/dtls/mbedtls/mbedtls-2.16.2/library\pem.c ****     }
 431:D:/fchai/work/i-cube/I-CUBE-HUAWEI/Middlewares/Third_Party/Huawei/iot_link/network/dtls/mbedtls/mbedtls-2.16.2/library\pem.c ****     mbedtls_free( ctx->info );
 404              		.loc 1 431 5 view .LVU114
 405 0014 A068     		ldr	r0, [r4, #8]
 406 0016 FFF7FEFF 		bl	mbedtls_free
 407              	.LVL46:
 432:D:/fchai/work/i-cube/I-CUBE-HUAWEI/Middlewares/Third_Party/Huawei/iot_link/network/dtls/mbedtls/mbedtls-2.16.2/library\pem.c **** 
 433:D:/fchai/work/i-cube/I-CUBE-HUAWEI/Middlewares/Third_Party/Huawei/iot_link/network/dtls/mbedtls/mbedtls-2.16.2/library\pem.c ****     mbedtls_platform_zeroize( ctx, sizeof( mbedtls_pem_context ) );
 408              		.loc 1 433 5 view .LVU115
 409 001a 2046     		mov	r0, r4
 410 001c 0C21     		movs	r1, #12
 434:D:/fchai/work/i-cube/I-CUBE-HUAWEI/Middlewares/Third_Party/Huawei/iot_link/network/dtls/mbedtls/mbedtls-2.16.2/library\pem.c **** }
 411              		.loc 1 434 1 is_stmt 0 view .LVU116
 412 001e BDE81040 		pop	{r4, lr}
 413              	.LCFI7:
 414              		.cfi_restore 14
 415              		.cfi_restore 4
 416              		.cfi_def_cfa_offset 0
 417              	.LVL47:
 433:D:/fchai/work/i-cube/I-CUBE-HUAWEI/Middlewares/Third_Party/Huawei/iot_link/network/dtls/mbedtls/mbedtls-2.16.2/library\pem.c **** }
 418              		.loc 1 433 5 view .LVU117
 419 0022 FFF7FEBF 		b	mbedtls_platform_zeroize
 420              	.LVL48:
 433:D:/fchai/work/i-cube/I-CUBE-HUAWEI/Middlewares/Third_Party/Huawei/iot_link/network/dtls/mbedtls/mbedtls-2.16.2/library\pem.c **** }
 421              		.loc 1 433 5 view .LVU118
 422              		.cfi_endproc
 423              	.LFE12:
 425 0026 00BF     		.section	.text.mbedtls_pem_write_buffer,"ax",%progbits
 426              		.align	1
 427              		.p2align 2,,3
 428              		.global	mbedtls_pem_write_buffer
 429              		.syntax unified
 430              		.thumb
 431              		.thumb_func
 432              		.fpu fpv4-sp-d16
 434              	mbedtls_pem_write_buffer:
 435              	.LVL49:
 436              	.LFB13:
 435:D:/fchai/work/i-cube/I-CUBE-HUAWEI/Middlewares/Third_Party/Huawei/iot_link/network/dtls/mbedtls/mbedtls-2.16.2/library\pem.c **** #endif /* MBEDTLS_PEM_PARSE_C */
 436:D:/fchai/work/i-cube/I-CUBE-HUAWEI/Middlewares/Third_Party/Huawei/iot_link/network/dtls/mbedtls/mbedtls-2.16.2/library\pem.c **** 
 437:D:/fchai/work/i-cube/I-CUBE-HUAWEI/Middlewares/Third_Party/Huawei/iot_link/network/dtls/mbedtls/mbedtls-2.16.2/library\pem.c **** #if defined(MBEDTLS_PEM_WRITE_C)
 438:D:/fchai/work/i-cube/I-CUBE-HUAWEI/Middlewares/Third_Party/Huawei/iot_link/network/dtls/mbedtls/mbedtls-2.16.2/library\pem.c **** int mbedtls_pem_write_buffer( const char *header, const char *footer,
 439:D:/fchai/work/i-cube/I-CUBE-HUAWEI/Middlewares/Third_Party/Huawei/iot_link/network/dtls/mbedtls/mbedtls-2.16.2/library\pem.c ****                       const unsigned char *der_data, size_t der_len,
 440:D:/fchai/work/i-cube/I-CUBE-HUAWEI/Middlewares/Third_Party/Huawei/iot_link/network/dtls/mbedtls/mbedtls-2.16.2/library\pem.c ****                       unsigned char *buf, size_t buf_len, size_t *olen )
 441:D:/fchai/work/i-cube/I-CUBE-HUAWEI/Middlewares/Third_Party/Huawei/iot_link/network/dtls/mbedtls/mbedtls-2.16.2/library\pem.c **** {
 437              		.loc 1 441 1 is_stmt 1 view -0
 438              		.cfi_startproc
 439              		@ args = 12, pretend = 0, frame = 16
 440              		@ frame_needed = 0, uses_anonymous_args = 0
 442:D:/fchai/work/i-cube/I-CUBE-HUAWEI/Middlewares/Third_Party/Huawei/iot_link/network/dtls/mbedtls/mbedtls-2.16.2/library\pem.c ****     int ret;
 441              		.loc 1 442 5 view .LVU120
ARM GAS  T:\msys\tmp\ccxhCqM9.s 			page 17


 443:D:/fchai/work/i-cube/I-CUBE-HUAWEI/Middlewares/Third_Party/Huawei/iot_link/network/dtls/mbedtls/mbedtls-2.16.2/library\pem.c ****     unsigned char *encode_buf = NULL, *c, *p = buf;
 442              		.loc 1 443 5 view .LVU121
 441:D:/fchai/work/i-cube/I-CUBE-HUAWEI/Middlewares/Third_Party/Huawei/iot_link/network/dtls/mbedtls/mbedtls-2.16.2/library\pem.c ****     int ret;
 443              		.loc 1 441 1 is_stmt 0 view .LVU122
 444 0000 2DE9F04F 		push	{r4, r5, r6, r7, r8, r9, r10, fp, lr}
 445              	.LCFI8:
 446              		.cfi_def_cfa_offset 36
 447              		.cfi_offset 4, -36
 448              		.cfi_offset 5, -32
 449              		.cfi_offset 6, -28
 450              		.cfi_offset 7, -24
 451              		.cfi_offset 8, -20
 452              		.cfi_offset 9, -16
 453              		.cfi_offset 10, -12
 454              		.cfi_offset 11, -8
 455              		.cfi_offset 14, -4
 456 0004 87B0     		sub	sp, sp, #28
 457              	.LCFI9:
 458              		.cfi_def_cfa_offset 64
 459              	.LVL50:
 444:D:/fchai/work/i-cube/I-CUBE-HUAWEI/Middlewares/Third_Party/Huawei/iot_link/network/dtls/mbedtls/mbedtls-2.16.2/library\pem.c ****     size_t len = 0, use_len, add_len = 0;
 460              		.loc 1 444 5 is_stmt 1 view .LVU123
 445:D:/fchai/work/i-cube/I-CUBE-HUAWEI/Middlewares/Third_Party/Huawei/iot_link/network/dtls/mbedtls/mbedtls-2.16.2/library\pem.c **** 
 446:D:/fchai/work/i-cube/I-CUBE-HUAWEI/Middlewares/Third_Party/Huawei/iot_link/network/dtls/mbedtls/mbedtls-2.16.2/library\pem.c ****     mbedtls_base64_encode( NULL, 0, &use_len, der_data, der_len );
 461              		.loc 1 446 5 view .LVU124
 441:D:/fchai/work/i-cube/I-CUBE-HUAWEI/Middlewares/Third_Party/Huawei/iot_link/network/dtls/mbedtls/mbedtls-2.16.2/library\pem.c ****     int ret;
 462              		.loc 1 441 1 is_stmt 0 view .LVU125
 463 0006 1D46     		mov	r5, r3
 464 0008 0F46     		mov	r7, r1
 465              		.loc 1 446 5 view .LVU126
 466 000a 0021     		movs	r1, #0
 467              	.LVL51:
 441:D:/fchai/work/i-cube/I-CUBE-HUAWEI/Middlewares/Third_Party/Huawei/iot_link/network/dtls/mbedtls/mbedtls-2.16.2/library\pem.c ****     int ret;
 468              		.loc 1 441 1 view .LVU127
 469 000c 1346     		mov	r3, r2
 470              	.LVL52:
 441:D:/fchai/work/i-cube/I-CUBE-HUAWEI/Middlewares/Third_Party/Huawei/iot_link/network/dtls/mbedtls/mbedtls-2.16.2/library\pem.c ****     int ret;
 471              		.loc 1 441 1 view .LVU128
 472 000e 8046     		mov	r8, r0
 473              		.loc 1 446 5 view .LVU129
 474 0010 0392     		str	r2, [sp, #12]
 475 0012 0846     		mov	r0, r1
 476              	.LVL53:
 477              		.loc 1 446 5 view .LVU130
 478 0014 05AA     		add	r2, sp, #20
 479              	.LVL54:
 480              		.loc 1 446 5 view .LVU131
 481 0016 0095     		str	r5, [sp]
 441:D:/fchai/work/i-cube/I-CUBE-HUAWEI/Middlewares/Third_Party/Huawei/iot_link/network/dtls/mbedtls/mbedtls-2.16.2/library\pem.c ****     int ret;
 482              		.loc 1 441 1 view .LVU132
 483 0018 119C     		ldr	r4, [sp, #68]
 484              		.loc 1 446 5 view .LVU133
 485 001a FFF7FEFF 		bl	mbedtls_base64_encode
 486              	.LVL55:
 447:D:/fchai/work/i-cube/I-CUBE-HUAWEI/Middlewares/Third_Party/Huawei/iot_link/network/dtls/mbedtls/mbedtls-2.16.2/library\pem.c ****     add_len = strlen( header ) + strlen( footer ) + ( use_len / 64 ) + 1;
 487              		.loc 1 447 5 is_stmt 1 view .LVU134
 488              		.loc 1 447 15 is_stmt 0 view .LVU135
ARM GAS  T:\msys\tmp\ccxhCqM9.s 			page 18


 489 001e 4046     		mov	r0, r8
 490 0020 FFF7FEFF 		bl	strlen
 491              	.LVL56:
 492 0024 0646     		mov	r6, r0
 493              		.loc 1 447 34 view .LVU136
 494 0026 3846     		mov	r0, r7
 495 0028 FFF7FEFF 		bl	strlen
 496              	.LVL57:
 497              		.loc 1 447 63 view .LVU137
 498 002c 0599     		ldr	r1, [sp, #20]
 499              	.LVL58:
 448:D:/fchai/work/i-cube/I-CUBE-HUAWEI/Middlewares/Third_Party/Huawei/iot_link/network/dtls/mbedtls/mbedtls-2.16.2/library\pem.c **** 
 449:D:/fchai/work/i-cube/I-CUBE-HUAWEI/Middlewares/Third_Party/Huawei/iot_link/network/dtls/mbedtls/mbedtls-2.16.2/library\pem.c ****     if( use_len + add_len > buf_len )
 500              		.loc 1 449 5 is_stmt 1 view .LVU138
 501              		.loc 1 449 7 is_stmt 0 view .LVU139
 502 002e 039B     		ldr	r3, [sp, #12]
 503              		.loc 1 449 17 view .LVU140
 504 0030 4A1C     		adds	r2, r1, #1
 505 0032 02EB9112 		add	r2, r2, r1, lsr #6
 506 0036 1644     		add	r6, r6, r2
 507              	.LVL59:
 508              		.loc 1 449 17 view .LVU141
 509 0038 3044     		add	r0, r0, r6
 510              		.loc 1 449 7 view .LVU142
 511 003a A042     		cmp	r0, r4
 512 003c 58D8     		bhi	.L46
 450:D:/fchai/work/i-cube/I-CUBE-HUAWEI/Middlewares/Third_Party/Huawei/iot_link/network/dtls/mbedtls/mbedtls-2.16.2/library\pem.c ****     {
 451:D:/fchai/work/i-cube/I-CUBE-HUAWEI/Middlewares/Third_Party/Huawei/iot_link/network/dtls/mbedtls/mbedtls-2.16.2/library\pem.c ****         *olen = use_len + add_len;
 452:D:/fchai/work/i-cube/I-CUBE-HUAWEI/Middlewares/Third_Party/Huawei/iot_link/network/dtls/mbedtls/mbedtls-2.16.2/library\pem.c ****         return( MBEDTLS_ERR_BASE64_BUFFER_TOO_SMALL );
 453:D:/fchai/work/i-cube/I-CUBE-HUAWEI/Middlewares/Third_Party/Huawei/iot_link/network/dtls/mbedtls/mbedtls-2.16.2/library\pem.c ****     }
 454:D:/fchai/work/i-cube/I-CUBE-HUAWEI/Middlewares/Third_Party/Huawei/iot_link/network/dtls/mbedtls/mbedtls-2.16.2/library\pem.c **** 
 455:D:/fchai/work/i-cube/I-CUBE-HUAWEI/Middlewares/Third_Party/Huawei/iot_link/network/dtls/mbedtls/mbedtls-2.16.2/library\pem.c ****     if( use_len != 0 &&
 513              		.loc 1 455 5 is_stmt 1 view .LVU143
 514              		.loc 1 455 7 is_stmt 0 view .LVU144
 515 003e 0029     		cmp	r1, #0
 516 0040 46D1     		bne	.L47
 443:D:/fchai/work/i-cube/I-CUBE-HUAWEI/Middlewares/Third_Party/Huawei/iot_link/network/dtls/mbedtls/mbedtls-2.16.2/library\pem.c ****     size_t len = 0, use_len, add_len = 0;
 517              		.loc 1 443 20 view .LVU145
 518 0042 8946     		mov	r9, r1
 519              	.LVL60:
 520              	.L35:
 456:D:/fchai/work/i-cube/I-CUBE-HUAWEI/Middlewares/Third_Party/Huawei/iot_link/network/dtls/mbedtls/mbedtls-2.16.2/library\pem.c ****         ( ( encode_buf = mbedtls_calloc( 1, use_len ) ) == NULL ) )
 457:D:/fchai/work/i-cube/I-CUBE-HUAWEI/Middlewares/Third_Party/Huawei/iot_link/network/dtls/mbedtls/mbedtls-2.16.2/library\pem.c ****         return( MBEDTLS_ERR_PEM_ALLOC_FAILED );
 458:D:/fchai/work/i-cube/I-CUBE-HUAWEI/Middlewares/Third_Party/Huawei/iot_link/network/dtls/mbedtls/mbedtls-2.16.2/library\pem.c **** 
 459:D:/fchai/work/i-cube/I-CUBE-HUAWEI/Middlewares/Third_Party/Huawei/iot_link/network/dtls/mbedtls/mbedtls-2.16.2/library\pem.c ****     if( ( ret = mbedtls_base64_encode( encode_buf, use_len, &use_len, der_data,
 521              		.loc 1 459 5 is_stmt 1 view .LVU146
 522              		.loc 1 459 17 is_stmt 0 view .LVU147
 523 0044 0095     		str	r5, [sp]
 524 0046 05AA     		add	r2, sp, #20
 525 0048 4846     		mov	r0, r9
 526 004a FFF7FEFF 		bl	mbedtls_base64_encode
 527              	.LVL61:
 528              		.loc 1 459 7 view .LVU148
 529 004e 8246     		mov	r10, r0
 530 0050 0028     		cmp	r0, #0
 531 0052 46D1     		bne	.L48
 460:D:/fchai/work/i-cube/I-CUBE-HUAWEI/Middlewares/Third_Party/Huawei/iot_link/network/dtls/mbedtls/mbedtls-2.16.2/library\pem.c ****                                der_len ) ) != 0 )
ARM GAS  T:\msys\tmp\ccxhCqM9.s 			page 19


 461:D:/fchai/work/i-cube/I-CUBE-HUAWEI/Middlewares/Third_Party/Huawei/iot_link/network/dtls/mbedtls/mbedtls-2.16.2/library\pem.c ****     {
 462:D:/fchai/work/i-cube/I-CUBE-HUAWEI/Middlewares/Third_Party/Huawei/iot_link/network/dtls/mbedtls/mbedtls-2.16.2/library\pem.c ****         mbedtls_free( encode_buf );
 463:D:/fchai/work/i-cube/I-CUBE-HUAWEI/Middlewares/Third_Party/Huawei/iot_link/network/dtls/mbedtls/mbedtls-2.16.2/library\pem.c ****         return( ret );
 464:D:/fchai/work/i-cube/I-CUBE-HUAWEI/Middlewares/Third_Party/Huawei/iot_link/network/dtls/mbedtls/mbedtls-2.16.2/library\pem.c ****     }
 465:D:/fchai/work/i-cube/I-CUBE-HUAWEI/Middlewares/Third_Party/Huawei/iot_link/network/dtls/mbedtls/mbedtls-2.16.2/library\pem.c **** 
 466:D:/fchai/work/i-cube/I-CUBE-HUAWEI/Middlewares/Third_Party/Huawei/iot_link/network/dtls/mbedtls/mbedtls-2.16.2/library\pem.c ****     memcpy( p, header, strlen( header ) );
 532              		.loc 1 466 5 is_stmt 1 view .LVU149
 533 0054 4046     		mov	r0, r8
 534              	.LVL62:
 535              		.loc 1 466 5 is_stmt 0 view .LVU150
 536 0056 FFF7FEFF 		bl	strlen
 537              	.LVL63:
 538 005a 4146     		mov	r1, r8
 539 005c 0246     		mov	r2, r0
 540 005e 1098     		ldr	r0, [sp, #64]
 541 0060 FFF7FEFF 		bl	memcpy
 542              	.LVL64:
 467:D:/fchai/work/i-cube/I-CUBE-HUAWEI/Middlewares/Third_Party/Huawei/iot_link/network/dtls/mbedtls/mbedtls-2.16.2/library\pem.c ****     p += strlen( header );
 543              		.loc 1 467 5 is_stmt 1 view .LVU151
 544              		.loc 1 467 10 is_stmt 0 view .LVU152
 545 0064 4046     		mov	r0, r8
 546 0066 FFF7FEFF 		bl	strlen
 547              	.LVL65:
 548              		.loc 1 467 7 view .LVU153
 549 006a 109B     		ldr	r3, [sp, #64]
 468:D:/fchai/work/i-cube/I-CUBE-HUAWEI/Middlewares/Third_Party/Huawei/iot_link/network/dtls/mbedtls/mbedtls-2.16.2/library\pem.c ****     c = encode_buf;
 469:D:/fchai/work/i-cube/I-CUBE-HUAWEI/Middlewares/Third_Party/Huawei/iot_link/network/dtls/mbedtls/mbedtls-2.16.2/library\pem.c **** 
 470:D:/fchai/work/i-cube/I-CUBE-HUAWEI/Middlewares/Third_Party/Huawei/iot_link/network/dtls/mbedtls/mbedtls-2.16.2/library\pem.c ****     while( use_len )
 550              		.loc 1 470 12 view .LVU154
 551 006c 059D     		ldr	r5, [sp, #20]
 552              	.LVL66:
 467:D:/fchai/work/i-cube/I-CUBE-HUAWEI/Middlewares/Third_Party/Huawei/iot_link/network/dtls/mbedtls/mbedtls-2.16.2/library\pem.c ****     p += strlen( header );
 553              		.loc 1 467 7 view .LVU155
 554 006e 1C18     		adds	r4, r3, r0
 555              	.LVL67:
 468:D:/fchai/work/i-cube/I-CUBE-HUAWEI/Middlewares/Third_Party/Huawei/iot_link/network/dtls/mbedtls/mbedtls-2.16.2/library\pem.c ****     c = encode_buf;
 556              		.loc 1 468 5 is_stmt 1 view .LVU156
 557              		.loc 1 470 5 view .LVU157
 558              		.loc 1 470 10 view .LVU158
 559 0070 9DB1     		cbz	r5, .L37
 468:D:/fchai/work/i-cube/I-CUBE-HUAWEI/Middlewares/Third_Party/Huawei/iot_link/network/dtls/mbedtls/mbedtls-2.16.2/library\pem.c ****     c = encode_buf;
 560              		.loc 1 468 7 is_stmt 0 view .LVU159
 561 0072 CB46     		mov	fp, r9
 471:D:/fchai/work/i-cube/I-CUBE-HUAWEI/Middlewares/Third_Party/Huawei/iot_link/network/dtls/mbedtls/mbedtls-2.16.2/library\pem.c ****     {
 472:D:/fchai/work/i-cube/I-CUBE-HUAWEI/Middlewares/Third_Party/Huawei/iot_link/network/dtls/mbedtls/mbedtls-2.16.2/library\pem.c ****         len = ( use_len > 64 ) ? 64 : use_len;
 473:D:/fchai/work/i-cube/I-CUBE-HUAWEI/Middlewares/Third_Party/Huawei/iot_link/network/dtls/mbedtls/mbedtls-2.16.2/library\pem.c ****         memcpy( p, c, len );
 474:D:/fchai/work/i-cube/I-CUBE-HUAWEI/Middlewares/Third_Party/Huawei/iot_link/network/dtls/mbedtls/mbedtls-2.16.2/library\pem.c ****         use_len -= len;
 475:D:/fchai/work/i-cube/I-CUBE-HUAWEI/Middlewares/Third_Party/Huawei/iot_link/network/dtls/mbedtls/mbedtls-2.16.2/library\pem.c ****         p += len;
 476:D:/fchai/work/i-cube/I-CUBE-HUAWEI/Middlewares/Third_Party/Huawei/iot_link/network/dtls/mbedtls/mbedtls-2.16.2/library\pem.c ****         c += len;
 477:D:/fchai/work/i-cube/I-CUBE-HUAWEI/Middlewares/Third_Party/Huawei/iot_link/network/dtls/mbedtls/mbedtls-2.16.2/library\pem.c ****         *p++ = '\n';
 562              		.loc 1 477 14 view .LVU160
 563 0074 4FF00A08 		mov	r8, #10
 564              	.LVL68:
 565              	.L38:
 472:D:/fchai/work/i-cube/I-CUBE-HUAWEI/Middlewares/Third_Party/Huawei/iot_link/network/dtls/mbedtls/mbedtls-2.16.2/library\pem.c ****         memcpy( p, c, len );
 566              		.loc 1 472 9 is_stmt 1 view .LVU161
 472:D:/fchai/work/i-cube/I-CUBE-HUAWEI/Middlewares/Third_Party/Huawei/iot_link/network/dtls/mbedtls/mbedtls-2.16.2/library\pem.c ****         memcpy( p, c, len );
ARM GAS  T:\msys\tmp\ccxhCqM9.s 			page 20


 567              		.loc 1 472 13 is_stmt 0 view .LVU162
 568 0078 402D     		cmp	r5, #64
 569 007a 2E46     		mov	r6, r5
 570 007c 28BF     		it	cs
 571 007e 4026     		movcs	r6, #64
 572              	.LVL69:
 473:D:/fchai/work/i-cube/I-CUBE-HUAWEI/Middlewares/Third_Party/Huawei/iot_link/network/dtls/mbedtls/mbedtls-2.16.2/library\pem.c ****         use_len -= len;
 573              		.loc 1 473 9 is_stmt 1 view .LVU163
 574 0080 2046     		mov	r0, r4
 575              		.loc 1 477 11 is_stmt 0 view .LVU164
 576 0082 3444     		add	r4, r4, r6
 577              	.LVL70:
 473:D:/fchai/work/i-cube/I-CUBE-HUAWEI/Middlewares/Third_Party/Huawei/iot_link/network/dtls/mbedtls/mbedtls-2.16.2/library\pem.c ****         use_len -= len;
 578              		.loc 1 473 9 view .LVU165
 579 0084 5946     		mov	r1, fp
 474:D:/fchai/work/i-cube/I-CUBE-HUAWEI/Middlewares/Third_Party/Huawei/iot_link/network/dtls/mbedtls/mbedtls-2.16.2/library\pem.c ****         p += len;
 580              		.loc 1 474 17 view .LVU166
 581 0086 AD1B     		subs	r5, r5, r6
 473:D:/fchai/work/i-cube/I-CUBE-HUAWEI/Middlewares/Third_Party/Huawei/iot_link/network/dtls/mbedtls/mbedtls-2.16.2/library\pem.c ****         use_len -= len;
 582              		.loc 1 473 9 view .LVU167
 583 0088 3246     		mov	r2, r6
 584 008a FFF7FEFF 		bl	memcpy
 585              	.LVL71:
 474:D:/fchai/work/i-cube/I-CUBE-HUAWEI/Middlewares/Third_Party/Huawei/iot_link/network/dtls/mbedtls/mbedtls-2.16.2/library\pem.c ****         p += len;
 586              		.loc 1 474 9 is_stmt 1 view .LVU168
 476:D:/fchai/work/i-cube/I-CUBE-HUAWEI/Middlewares/Third_Party/Huawei/iot_link/network/dtls/mbedtls/mbedtls-2.16.2/library\pem.c ****         *p++ = '\n';
 587              		.loc 1 476 11 is_stmt 0 view .LVU169
 588 008e B344     		add	fp, fp, r6
 589              	.LVL72:
 590              		.loc 1 477 14 view .LVU170
 591 0090 04F8018B 		strb	r8, [r4], #1
 474:D:/fchai/work/i-cube/I-CUBE-HUAWEI/Middlewares/Third_Party/Huawei/iot_link/network/dtls/mbedtls/mbedtls-2.16.2/library\pem.c ****         p += len;
 592              		.loc 1 474 17 view .LVU171
 593 0094 0595     		str	r5, [sp, #20]
 475:D:/fchai/work/i-cube/I-CUBE-HUAWEI/Middlewares/Third_Party/Huawei/iot_link/network/dtls/mbedtls/mbedtls-2.16.2/library\pem.c ****         c += len;
 594              		.loc 1 475 9 is_stmt 1 view .LVU172
 476:D:/fchai/work/i-cube/I-CUBE-HUAWEI/Middlewares/Third_Party/Huawei/iot_link/network/dtls/mbedtls/mbedtls-2.16.2/library\pem.c ****         *p++ = '\n';
 595              		.loc 1 476 9 view .LVU173
 596              	.LVL73:
 597              		.loc 1 477 9 view .LVU174
 470:D:/fchai/work/i-cube/I-CUBE-HUAWEI/Middlewares/Third_Party/Huawei/iot_link/network/dtls/mbedtls/mbedtls-2.16.2/library\pem.c ****     {
 598              		.loc 1 470 10 view .LVU175
 599 0096 002D     		cmp	r5, #0
 600 0098 EED1     		bne	.L38
 601              	.LVL74:
 602              	.L37:
 478:D:/fchai/work/i-cube/I-CUBE-HUAWEI/Middlewares/Third_Party/Huawei/iot_link/network/dtls/mbedtls/mbedtls-2.16.2/library\pem.c ****     }
 479:D:/fchai/work/i-cube/I-CUBE-HUAWEI/Middlewares/Third_Party/Huawei/iot_link/network/dtls/mbedtls/mbedtls-2.16.2/library\pem.c **** 
 480:D:/fchai/work/i-cube/I-CUBE-HUAWEI/Middlewares/Third_Party/Huawei/iot_link/network/dtls/mbedtls/mbedtls-2.16.2/library\pem.c ****     memcpy( p, footer, strlen( footer ) );
 603              		.loc 1 480 5 view .LVU176
 604 009a 3846     		mov	r0, r7
 605 009c FFF7FEFF 		bl	strlen
 606              	.LVL75:
 607 00a0 3946     		mov	r1, r7
 608 00a2 0246     		mov	r2, r0
 609 00a4 2046     		mov	r0, r4
 610 00a6 FFF7FEFF 		bl	memcpy
ARM GAS  T:\msys\tmp\ccxhCqM9.s 			page 21


 611              	.LVL76:
 481:D:/fchai/work/i-cube/I-CUBE-HUAWEI/Middlewares/Third_Party/Huawei/iot_link/network/dtls/mbedtls/mbedtls-2.16.2/library\pem.c ****     p += strlen( footer );
 612              		.loc 1 481 5 view .LVU177
 613              		.loc 1 481 10 is_stmt 0 view .LVU178
 614 00aa 3846     		mov	r0, r7
 615 00ac FFF7FEFF 		bl	strlen
 616              	.LVL77:
 617 00b0 0246     		mov	r2, r0
 618              		.loc 1 481 7 view .LVU179
 619 00b2 2318     		adds	r3, r4, r0
 620              	.LVL78:
 482:D:/fchai/work/i-cube/I-CUBE-HUAWEI/Middlewares/Third_Party/Huawei/iot_link/network/dtls/mbedtls/mbedtls-2.16.2/library\pem.c **** 
 483:D:/fchai/work/i-cube/I-CUBE-HUAWEI/Middlewares/Third_Party/Huawei/iot_link/network/dtls/mbedtls/mbedtls-2.16.2/library\pem.c ****     *p++ = '\0';
 621              		.loc 1 483 5 is_stmt 1 view .LVU180
 622              		.loc 1 483 10 is_stmt 0 view .LVU181
 623 00b4 0021     		movs	r1, #0
 484:D:/fchai/work/i-cube/I-CUBE-HUAWEI/Middlewares/Third_Party/Huawei/iot_link/network/dtls/mbedtls/mbedtls-2.16.2/library\pem.c ****     *olen = p - buf;
 624              		.loc 1 484 15 view .LVU182
 625 00b6 1098     		ldr	r0, [sp, #64]
 483:D:/fchai/work/i-cube/I-CUBE-HUAWEI/Middlewares/Third_Party/Huawei/iot_link/network/dtls/mbedtls/mbedtls-2.16.2/library\pem.c ****     *olen = p - buf;
 626              		.loc 1 483 10 view .LVU183
 627 00b8 A154     		strb	r1, [r4, r2]
 628              		.loc 1 484 5 is_stmt 1 view .LVU184
 483:D:/fchai/work/i-cube/I-CUBE-HUAWEI/Middlewares/Third_Party/Huawei/iot_link/network/dtls/mbedtls/mbedtls-2.16.2/library\pem.c ****     *olen = p - buf;
 629              		.loc 1 483 7 is_stmt 0 view .LVU185
 630 00ba 0133     		adds	r3, r3, #1
 631              	.LVL79:
 632              		.loc 1 484 11 view .LVU186
 633 00bc 129A     		ldr	r2, [sp, #72]
 634              		.loc 1 484 15 view .LVU187
 635 00be 1B1A     		subs	r3, r3, r0
 636              	.LVL80:
 637              		.loc 1 484 11 view .LVU188
 638 00c0 1360     		str	r3, [r2]
 485:D:/fchai/work/i-cube/I-CUBE-HUAWEI/Middlewares/Third_Party/Huawei/iot_link/network/dtls/mbedtls/mbedtls-2.16.2/library\pem.c **** 
 486:D:/fchai/work/i-cube/I-CUBE-HUAWEI/Middlewares/Third_Party/Huawei/iot_link/network/dtls/mbedtls/mbedtls-2.16.2/library\pem.c ****     mbedtls_free( encode_buf );
 639              		.loc 1 486 5 is_stmt 1 view .LVU189
 640 00c2 4846     		mov	r0, r9
 641 00c4 FFF7FEFF 		bl	mbedtls_free
 642              	.LVL81:
 487:D:/fchai/work/i-cube/I-CUBE-HUAWEI/Middlewares/Third_Party/Huawei/iot_link/network/dtls/mbedtls/mbedtls-2.16.2/library\pem.c ****     return( 0 );
 643              		.loc 1 487 5 view .LVU190
 644              	.L32:
 488:D:/fchai/work/i-cube/I-CUBE-HUAWEI/Middlewares/Third_Party/Huawei/iot_link/network/dtls/mbedtls/mbedtls-2.16.2/library\pem.c **** }
 645              		.loc 1 488 1 is_stmt 0 view .LVU191
 646 00c8 5046     		mov	r0, r10
 647 00ca 07B0     		add	sp, sp, #28
 648              	.LCFI10:
 649              		.cfi_remember_state
 650              		.cfi_def_cfa_offset 36
 651              		@ sp needed
 652 00cc BDE8F08F 		pop	{r4, r5, r6, r7, r8, r9, r10, fp, pc}
 653              	.LVL82:
 654              	.L47:
 655              	.LCFI11:
 656              		.cfi_restore_state
 456:D:/fchai/work/i-cube/I-CUBE-HUAWEI/Middlewares/Third_Party/Huawei/iot_link/network/dtls/mbedtls/mbedtls-2.16.2/library\pem.c ****         return( MBEDTLS_ERR_PEM_ALLOC_FAILED );
ARM GAS  T:\msys\tmp\ccxhCqM9.s 			page 22


 657              		.loc 1 456 26 discriminator 1 view .LVU192
 658 00d0 0120     		movs	r0, #1
 659 00d2 0393     		str	r3, [sp, #12]
 660              	.LVL83:
 456:D:/fchai/work/i-cube/I-CUBE-HUAWEI/Middlewares/Third_Party/Huawei/iot_link/network/dtls/mbedtls/mbedtls-2.16.2/library\pem.c ****         return( MBEDTLS_ERR_PEM_ALLOC_FAILED );
 661              		.loc 1 456 26 discriminator 1 view .LVU193
 662 00d4 FFF7FEFF 		bl	mbedtls_calloc
 663              	.LVL84:
 455:D:/fchai/work/i-cube/I-CUBE-HUAWEI/Middlewares/Third_Party/Huawei/iot_link/network/dtls/mbedtls/mbedtls-2.16.2/library\pem.c ****         ( ( encode_buf = mbedtls_calloc( 1, use_len ) ) == NULL ) )
 664              		.loc 1 455 22 discriminator 1 view .LVU194
 665 00d8 8146     		mov	r9, r0
 666 00da 70B1     		cbz	r0, .L40
 667 00dc 0599     		ldr	r1, [sp, #20]
 668 00de 039B     		ldr	r3, [sp, #12]
 669 00e0 B0E7     		b	.L35
 670              	.LVL85:
 671              	.L48:
 462:D:/fchai/work/i-cube/I-CUBE-HUAWEI/Middlewares/Third_Party/Huawei/iot_link/network/dtls/mbedtls/mbedtls-2.16.2/library\pem.c ****         return( ret );
 672              		.loc 1 462 9 is_stmt 1 view .LVU195
 673 00e2 4846     		mov	r0, r9
 674              	.LVL86:
 462:D:/fchai/work/i-cube/I-CUBE-HUAWEI/Middlewares/Third_Party/Huawei/iot_link/network/dtls/mbedtls/mbedtls-2.16.2/library\pem.c ****         return( ret );
 675              		.loc 1 462 9 is_stmt 0 view .LVU196
 676 00e4 FFF7FEFF 		bl	mbedtls_free
 677              	.LVL87:
 463:D:/fchai/work/i-cube/I-CUBE-HUAWEI/Middlewares/Third_Party/Huawei/iot_link/network/dtls/mbedtls/mbedtls-2.16.2/library\pem.c ****     }
 678              		.loc 1 463 9 is_stmt 1 view .LVU197
 679              		.loc 1 488 1 is_stmt 0 view .LVU198
 680 00e8 5046     		mov	r0, r10
 681 00ea 07B0     		add	sp, sp, #28
 682              	.LCFI12:
 683              		.cfi_remember_state
 684              		.cfi_def_cfa_offset 36
 685              		@ sp needed
 686 00ec BDE8F08F 		pop	{r4, r5, r6, r7, r8, r9, r10, fp, pc}
 687              	.LVL88:
 688              	.L46:
 689              	.LCFI13:
 690              		.cfi_restore_state
 451:D:/fchai/work/i-cube/I-CUBE-HUAWEI/Middlewares/Third_Party/Huawei/iot_link/network/dtls/mbedtls/mbedtls-2.16.2/library\pem.c ****         return( MBEDTLS_ERR_BASE64_BUFFER_TOO_SMALL );
 691              		.loc 1 451 9 is_stmt 1 view .LVU199
 451:D:/fchai/work/i-cube/I-CUBE-HUAWEI/Middlewares/Third_Party/Huawei/iot_link/network/dtls/mbedtls/mbedtls-2.16.2/library\pem.c ****         return( MBEDTLS_ERR_BASE64_BUFFER_TOO_SMALL );
 692              		.loc 1 451 15 is_stmt 0 view .LVU200
 693 00f0 129B     		ldr	r3, [sp, #72]
 452:D:/fchai/work/i-cube/I-CUBE-HUAWEI/Middlewares/Third_Party/Huawei/iot_link/network/dtls/mbedtls/mbedtls-2.16.2/library\pem.c ****     }
 694              		.loc 1 452 15 view .LVU201
 695 00f2 6FF0290A 		mvn	r10, #41
 451:D:/fchai/work/i-cube/I-CUBE-HUAWEI/Middlewares/Third_Party/Huawei/iot_link/network/dtls/mbedtls/mbedtls-2.16.2/library\pem.c ****         return( MBEDTLS_ERR_BASE64_BUFFER_TOO_SMALL );
 696              		.loc 1 451 15 view .LVU202
 697 00f6 1860     		str	r0, [r3]
 452:D:/fchai/work/i-cube/I-CUBE-HUAWEI/Middlewares/Third_Party/Huawei/iot_link/network/dtls/mbedtls/mbedtls-2.16.2/library\pem.c ****     }
 698              		.loc 1 452 9 is_stmt 1 view .LVU203
 452:D:/fchai/work/i-cube/I-CUBE-HUAWEI/Middlewares/Third_Party/Huawei/iot_link/network/dtls/mbedtls/mbedtls-2.16.2/library\pem.c ****     }
 699              		.loc 1 452 15 is_stmt 0 view .LVU204
 700 00f8 E6E7     		b	.L32
 701              	.LVL89:
 702              	.L40:
ARM GAS  T:\msys\tmp\ccxhCqM9.s 			page 23


 457:D:/fchai/work/i-cube/I-CUBE-HUAWEI/Middlewares/Third_Party/Huawei/iot_link/network/dtls/mbedtls/mbedtls-2.16.2/library\pem.c **** 
 703              		.loc 1 457 15 view .LVU205
 704 00fa DFF804A0 		ldr	r10, .L49
 705 00fe E3E7     		b	.L32
 706              	.L50:
 707              		.align	2
 708              	.L49:
 709 0100 80EEFFFF 		.word	-4480
 710              		.cfi_endproc
 711              	.LFE13:
 713              		.text
 714              	.Letext0:
 715              		.file 2 "D:/fchai/work/i-cube/I-CUBE-HUAWEI/Middlewares/Third_Party/Huawei/iot_link/network/dtls/m
 716              		.file 3 "t:\\msys\\3rd\\gcc-arm-none-eabi-9-2020-q2-update-win32\\lib\\gcc\\arm-none-eabi\\9.3.1\\
 717              		.file 4 "t:\\msys\\3rd\\gcc-arm-none-eabi-9-2020-q2-update-win32\\arm-none-eabi\\include\\sys\\_ty
 718              		.file 5 "t:\\msys\\3rd\\gcc-arm-none-eabi-9-2020-q2-update-win32\\arm-none-eabi\\include\\sys\\ree
 719              		.file 6 "t:\\msys\\3rd\\gcc-arm-none-eabi-9-2020-q2-update-win32\\arm-none-eabi\\include\\sys\\loc
 720              		.file 7 "t:\\msys\\3rd\\gcc-arm-none-eabi-9-2020-q2-update-win32\\arm-none-eabi\\include\\stdlib.h
 721              		.file 8 "t:\\msys\\3rd\\gcc-arm-none-eabi-9-2020-q2-update-win32\\arm-none-eabi\\include\\time.h"
 722              		.file 9 "D:/fchai/work/i-cube/I-CUBE-HUAWEI/Middlewares/Third_Party/Huawei/iot_link/network/dtls/m
 723              		.file 10 "D:/fchai/work/i-cube/I-CUBE-HUAWEI/Middlewares/Third_Party/Huawei/iot_link/network/dtls/
 724              		.file 11 "t:\\msys\\3rd\\gcc-arm-none-eabi-9-2020-q2-update-win32\\arm-none-eabi\\include\\string.
 725              		.file 12 "D:/fchai/work/i-cube/I-CUBE-HUAWEI/Middlewares/Third_Party/Huawei/iot_link/network/dtls/
 726              		.file 13 "<built-in>"
ARM GAS  T:\msys\tmp\ccxhCqM9.s 			page 24

