ARM GAS  T:\msys\tmp\ccGVICEu.s 			page 1


   1              		.cpu cortex-m4
   2              		.eabi_attribute 27, 1
   3              		.eabi_attribute 28, 1
   4              		.eabi_attribute 20, 1
   5              		.eabi_attribute 21, 1
   6              		.eabi_attribute 23, 3
   7              		.eabi_attribute 24, 1
   8              		.eabi_attribute 25, 1
   9              		.eabi_attribute 26, 1
  10              		.eabi_attribute 30, 2
  11              		.eabi_attribute 34, 1
  12              		.eabi_attribute 18, 4
  13              		.file	"pkcs5.c"
  14              		.text
  15              	.Ltext0:
  16              		.cfi_sections	.debug_frame
  17              		.section	.text.mbedtls_pkcs5_pbkdf2_hmac,"ax",%progbits
  18              		.align	1
  19              		.p2align 2,,3
  20              		.global	mbedtls_pkcs5_pbkdf2_hmac
  21              		.arch armv7e-m
  22              		.syntax unified
  23              		.thumb
  24              		.thumb_func
  25              		.fpu fpv4-sp-d16
  27              	mbedtls_pkcs5_pbkdf2_hmac:
  28              	.LVL0:
  29              	.LFB15:
  30              		.file 1 "D:/fchai/work/i-cube/I-CUBE-HUAWEI/Middlewares/Third_Party/Huawei/iot_link/network/dtls/m
   1:D:/fchai/work/i-cube/I-CUBE-HUAWEI/Middlewares/Third_Party/Huawei/iot_link/network/dtls/mbedtls/mbedtls-2.16.2/library\pkcs5.c **** /**
   2:D:/fchai/work/i-cube/I-CUBE-HUAWEI/Middlewares/Third_Party/Huawei/iot_link/network/dtls/mbedtls/mbedtls-2.16.2/library\pkcs5.c ****  * \file pkcs5.c
   3:D:/fchai/work/i-cube/I-CUBE-HUAWEI/Middlewares/Third_Party/Huawei/iot_link/network/dtls/mbedtls/mbedtls-2.16.2/library\pkcs5.c ****  *
   4:D:/fchai/work/i-cube/I-CUBE-HUAWEI/Middlewares/Third_Party/Huawei/iot_link/network/dtls/mbedtls/mbedtls-2.16.2/library\pkcs5.c ****  * \brief PKCS#5 functions
   5:D:/fchai/work/i-cube/I-CUBE-HUAWEI/Middlewares/Third_Party/Huawei/iot_link/network/dtls/mbedtls/mbedtls-2.16.2/library\pkcs5.c ****  *
   6:D:/fchai/work/i-cube/I-CUBE-HUAWEI/Middlewares/Third_Party/Huawei/iot_link/network/dtls/mbedtls/mbedtls-2.16.2/library\pkcs5.c ****  * \author Mathias Olsson <mathias@kompetensum.com>
   7:D:/fchai/work/i-cube/I-CUBE-HUAWEI/Middlewares/Third_Party/Huawei/iot_link/network/dtls/mbedtls/mbedtls-2.16.2/library\pkcs5.c ****  *
   8:D:/fchai/work/i-cube/I-CUBE-HUAWEI/Middlewares/Third_Party/Huawei/iot_link/network/dtls/mbedtls/mbedtls-2.16.2/library\pkcs5.c ****  *  Copyright (C) 2006-2015, ARM Limited, All Rights Reserved
   9:D:/fchai/work/i-cube/I-CUBE-HUAWEI/Middlewares/Third_Party/Huawei/iot_link/network/dtls/mbedtls/mbedtls-2.16.2/library\pkcs5.c ****  *  SPDX-License-Identifier: Apache-2.0
  10:D:/fchai/work/i-cube/I-CUBE-HUAWEI/Middlewares/Third_Party/Huawei/iot_link/network/dtls/mbedtls/mbedtls-2.16.2/library\pkcs5.c ****  *
  11:D:/fchai/work/i-cube/I-CUBE-HUAWEI/Middlewares/Third_Party/Huawei/iot_link/network/dtls/mbedtls/mbedtls-2.16.2/library\pkcs5.c ****  *  Licensed under the Apache License, Version 2.0 (the "License"); you may
  12:D:/fchai/work/i-cube/I-CUBE-HUAWEI/Middlewares/Third_Party/Huawei/iot_link/network/dtls/mbedtls/mbedtls-2.16.2/library\pkcs5.c ****  *  not use this file except in compliance with the License.
  13:D:/fchai/work/i-cube/I-CUBE-HUAWEI/Middlewares/Third_Party/Huawei/iot_link/network/dtls/mbedtls/mbedtls-2.16.2/library\pkcs5.c ****  *  You may obtain a copy of the License at
  14:D:/fchai/work/i-cube/I-CUBE-HUAWEI/Middlewares/Third_Party/Huawei/iot_link/network/dtls/mbedtls/mbedtls-2.16.2/library\pkcs5.c ****  *
  15:D:/fchai/work/i-cube/I-CUBE-HUAWEI/Middlewares/Third_Party/Huawei/iot_link/network/dtls/mbedtls/mbedtls-2.16.2/library\pkcs5.c ****  *  http://www.apache.org/licenses/LICENSE-2.0
  16:D:/fchai/work/i-cube/I-CUBE-HUAWEI/Middlewares/Third_Party/Huawei/iot_link/network/dtls/mbedtls/mbedtls-2.16.2/library\pkcs5.c ****  *
  17:D:/fchai/work/i-cube/I-CUBE-HUAWEI/Middlewares/Third_Party/Huawei/iot_link/network/dtls/mbedtls/mbedtls-2.16.2/library\pkcs5.c ****  *  Unless required by applicable law or agreed to in writing, software
  18:D:/fchai/work/i-cube/I-CUBE-HUAWEI/Middlewares/Third_Party/Huawei/iot_link/network/dtls/mbedtls/mbedtls-2.16.2/library\pkcs5.c ****  *  distributed under the License is distributed on an "AS IS" BASIS, WITHOUT
  19:D:/fchai/work/i-cube/I-CUBE-HUAWEI/Middlewares/Third_Party/Huawei/iot_link/network/dtls/mbedtls/mbedtls-2.16.2/library\pkcs5.c ****  *  WARRANTIES OR CONDITIONS OF ANY KIND, either express or implied.
  20:D:/fchai/work/i-cube/I-CUBE-HUAWEI/Middlewares/Third_Party/Huawei/iot_link/network/dtls/mbedtls/mbedtls-2.16.2/library\pkcs5.c ****  *  See the License for the specific language governing permissions and
  21:D:/fchai/work/i-cube/I-CUBE-HUAWEI/Middlewares/Third_Party/Huawei/iot_link/network/dtls/mbedtls/mbedtls-2.16.2/library\pkcs5.c ****  *  limitations under the License.
  22:D:/fchai/work/i-cube/I-CUBE-HUAWEI/Middlewares/Third_Party/Huawei/iot_link/network/dtls/mbedtls/mbedtls-2.16.2/library\pkcs5.c ****  *
  23:D:/fchai/work/i-cube/I-CUBE-HUAWEI/Middlewares/Third_Party/Huawei/iot_link/network/dtls/mbedtls/mbedtls-2.16.2/library\pkcs5.c ****  *  This file is part of mbed TLS (https://tls.mbed.org)
  24:D:/fchai/work/i-cube/I-CUBE-HUAWEI/Middlewares/Third_Party/Huawei/iot_link/network/dtls/mbedtls/mbedtls-2.16.2/library\pkcs5.c ****  */
  25:D:/fchai/work/i-cube/I-CUBE-HUAWEI/Middlewares/Third_Party/Huawei/iot_link/network/dtls/mbedtls/mbedtls-2.16.2/library\pkcs5.c **** /*
  26:D:/fchai/work/i-cube/I-CUBE-HUAWEI/Middlewares/Third_Party/Huawei/iot_link/network/dtls/mbedtls/mbedtls-2.16.2/library\pkcs5.c ****  * PKCS#5 includes PBKDF2 and more
  27:D:/fchai/work/i-cube/I-CUBE-HUAWEI/Middlewares/Third_Party/Huawei/iot_link/network/dtls/mbedtls/mbedtls-2.16.2/library\pkcs5.c ****  *
  28:D:/fchai/work/i-cube/I-CUBE-HUAWEI/Middlewares/Third_Party/Huawei/iot_link/network/dtls/mbedtls/mbedtls-2.16.2/library\pkcs5.c ****  * http://tools.ietf.org/html/rfc2898 (Specification)
ARM GAS  T:\msys\tmp\ccGVICEu.s 			page 2


  29:D:/fchai/work/i-cube/I-CUBE-HUAWEI/Middlewares/Third_Party/Huawei/iot_link/network/dtls/mbedtls/mbedtls-2.16.2/library\pkcs5.c ****  * http://tools.ietf.org/html/rfc6070 (Test vectors)
  30:D:/fchai/work/i-cube/I-CUBE-HUAWEI/Middlewares/Third_Party/Huawei/iot_link/network/dtls/mbedtls/mbedtls-2.16.2/library\pkcs5.c ****  */
  31:D:/fchai/work/i-cube/I-CUBE-HUAWEI/Middlewares/Third_Party/Huawei/iot_link/network/dtls/mbedtls/mbedtls-2.16.2/library\pkcs5.c **** 
  32:D:/fchai/work/i-cube/I-CUBE-HUAWEI/Middlewares/Third_Party/Huawei/iot_link/network/dtls/mbedtls/mbedtls-2.16.2/library\pkcs5.c **** #if !defined(MBEDTLS_CONFIG_FILE)
  33:D:/fchai/work/i-cube/I-CUBE-HUAWEI/Middlewares/Third_Party/Huawei/iot_link/network/dtls/mbedtls/mbedtls-2.16.2/library\pkcs5.c **** #include "mbedtls/config.h"
  34:D:/fchai/work/i-cube/I-CUBE-HUAWEI/Middlewares/Third_Party/Huawei/iot_link/network/dtls/mbedtls/mbedtls-2.16.2/library\pkcs5.c **** #else
  35:D:/fchai/work/i-cube/I-CUBE-HUAWEI/Middlewares/Third_Party/Huawei/iot_link/network/dtls/mbedtls/mbedtls-2.16.2/library\pkcs5.c **** #include MBEDTLS_CONFIG_FILE
  36:D:/fchai/work/i-cube/I-CUBE-HUAWEI/Middlewares/Third_Party/Huawei/iot_link/network/dtls/mbedtls/mbedtls-2.16.2/library\pkcs5.c **** #endif
  37:D:/fchai/work/i-cube/I-CUBE-HUAWEI/Middlewares/Third_Party/Huawei/iot_link/network/dtls/mbedtls/mbedtls-2.16.2/library\pkcs5.c **** 
  38:D:/fchai/work/i-cube/I-CUBE-HUAWEI/Middlewares/Third_Party/Huawei/iot_link/network/dtls/mbedtls/mbedtls-2.16.2/library\pkcs5.c **** #if defined(MBEDTLS_PKCS5_C)
  39:D:/fchai/work/i-cube/I-CUBE-HUAWEI/Middlewares/Third_Party/Huawei/iot_link/network/dtls/mbedtls/mbedtls-2.16.2/library\pkcs5.c **** 
  40:D:/fchai/work/i-cube/I-CUBE-HUAWEI/Middlewares/Third_Party/Huawei/iot_link/network/dtls/mbedtls/mbedtls-2.16.2/library\pkcs5.c **** #include "mbedtls/pkcs5.h"
  41:D:/fchai/work/i-cube/I-CUBE-HUAWEI/Middlewares/Third_Party/Huawei/iot_link/network/dtls/mbedtls/mbedtls-2.16.2/library\pkcs5.c **** 
  42:D:/fchai/work/i-cube/I-CUBE-HUAWEI/Middlewares/Third_Party/Huawei/iot_link/network/dtls/mbedtls/mbedtls-2.16.2/library\pkcs5.c **** #if defined(MBEDTLS_ASN1_PARSE_C)
  43:D:/fchai/work/i-cube/I-CUBE-HUAWEI/Middlewares/Third_Party/Huawei/iot_link/network/dtls/mbedtls/mbedtls-2.16.2/library\pkcs5.c **** #include "mbedtls/asn1.h"
  44:D:/fchai/work/i-cube/I-CUBE-HUAWEI/Middlewares/Third_Party/Huawei/iot_link/network/dtls/mbedtls/mbedtls-2.16.2/library\pkcs5.c **** #include "mbedtls/cipher.h"
  45:D:/fchai/work/i-cube/I-CUBE-HUAWEI/Middlewares/Third_Party/Huawei/iot_link/network/dtls/mbedtls/mbedtls-2.16.2/library\pkcs5.c **** #include "mbedtls/oid.h"
  46:D:/fchai/work/i-cube/I-CUBE-HUAWEI/Middlewares/Third_Party/Huawei/iot_link/network/dtls/mbedtls/mbedtls-2.16.2/library\pkcs5.c **** #endif /* MBEDTLS_ASN1_PARSE_C */
  47:D:/fchai/work/i-cube/I-CUBE-HUAWEI/Middlewares/Third_Party/Huawei/iot_link/network/dtls/mbedtls/mbedtls-2.16.2/library\pkcs5.c **** 
  48:D:/fchai/work/i-cube/I-CUBE-HUAWEI/Middlewares/Third_Party/Huawei/iot_link/network/dtls/mbedtls/mbedtls-2.16.2/library\pkcs5.c **** #include <string.h>
  49:D:/fchai/work/i-cube/I-CUBE-HUAWEI/Middlewares/Third_Party/Huawei/iot_link/network/dtls/mbedtls/mbedtls-2.16.2/library\pkcs5.c **** 
  50:D:/fchai/work/i-cube/I-CUBE-HUAWEI/Middlewares/Third_Party/Huawei/iot_link/network/dtls/mbedtls/mbedtls-2.16.2/library\pkcs5.c **** #if defined(MBEDTLS_PLATFORM_C)
  51:D:/fchai/work/i-cube/I-CUBE-HUAWEI/Middlewares/Third_Party/Huawei/iot_link/network/dtls/mbedtls/mbedtls-2.16.2/library\pkcs5.c **** #include "mbedtls/platform.h"
  52:D:/fchai/work/i-cube/I-CUBE-HUAWEI/Middlewares/Third_Party/Huawei/iot_link/network/dtls/mbedtls/mbedtls-2.16.2/library\pkcs5.c **** #else
  53:D:/fchai/work/i-cube/I-CUBE-HUAWEI/Middlewares/Third_Party/Huawei/iot_link/network/dtls/mbedtls/mbedtls-2.16.2/library\pkcs5.c **** #include <stdio.h>
  54:D:/fchai/work/i-cube/I-CUBE-HUAWEI/Middlewares/Third_Party/Huawei/iot_link/network/dtls/mbedtls/mbedtls-2.16.2/library\pkcs5.c **** #define mbedtls_printf printf
  55:D:/fchai/work/i-cube/I-CUBE-HUAWEI/Middlewares/Third_Party/Huawei/iot_link/network/dtls/mbedtls/mbedtls-2.16.2/library\pkcs5.c **** #endif
  56:D:/fchai/work/i-cube/I-CUBE-HUAWEI/Middlewares/Third_Party/Huawei/iot_link/network/dtls/mbedtls/mbedtls-2.16.2/library\pkcs5.c **** 
  57:D:/fchai/work/i-cube/I-CUBE-HUAWEI/Middlewares/Third_Party/Huawei/iot_link/network/dtls/mbedtls/mbedtls-2.16.2/library\pkcs5.c **** #if defined(MBEDTLS_ASN1_PARSE_C)
  58:D:/fchai/work/i-cube/I-CUBE-HUAWEI/Middlewares/Third_Party/Huawei/iot_link/network/dtls/mbedtls/mbedtls-2.16.2/library\pkcs5.c **** static int pkcs5_parse_pbkdf2_params( const mbedtls_asn1_buf *params,
  59:D:/fchai/work/i-cube/I-CUBE-HUAWEI/Middlewares/Third_Party/Huawei/iot_link/network/dtls/mbedtls/mbedtls-2.16.2/library\pkcs5.c ****                                       mbedtls_asn1_buf *salt, int *iterations,
  60:D:/fchai/work/i-cube/I-CUBE-HUAWEI/Middlewares/Third_Party/Huawei/iot_link/network/dtls/mbedtls/mbedtls-2.16.2/library\pkcs5.c ****                                       int *keylen, mbedtls_md_type_t *md_type )
  61:D:/fchai/work/i-cube/I-CUBE-HUAWEI/Middlewares/Third_Party/Huawei/iot_link/network/dtls/mbedtls/mbedtls-2.16.2/library\pkcs5.c **** {
  62:D:/fchai/work/i-cube/I-CUBE-HUAWEI/Middlewares/Third_Party/Huawei/iot_link/network/dtls/mbedtls/mbedtls-2.16.2/library\pkcs5.c ****     int ret;
  63:D:/fchai/work/i-cube/I-CUBE-HUAWEI/Middlewares/Third_Party/Huawei/iot_link/network/dtls/mbedtls/mbedtls-2.16.2/library\pkcs5.c ****     mbedtls_asn1_buf prf_alg_oid;
  64:D:/fchai/work/i-cube/I-CUBE-HUAWEI/Middlewares/Third_Party/Huawei/iot_link/network/dtls/mbedtls/mbedtls-2.16.2/library\pkcs5.c ****     unsigned char *p = params->p;
  65:D:/fchai/work/i-cube/I-CUBE-HUAWEI/Middlewares/Third_Party/Huawei/iot_link/network/dtls/mbedtls/mbedtls-2.16.2/library\pkcs5.c ****     const unsigned char *end = params->p + params->len;
  66:D:/fchai/work/i-cube/I-CUBE-HUAWEI/Middlewares/Third_Party/Huawei/iot_link/network/dtls/mbedtls/mbedtls-2.16.2/library\pkcs5.c **** 
  67:D:/fchai/work/i-cube/I-CUBE-HUAWEI/Middlewares/Third_Party/Huawei/iot_link/network/dtls/mbedtls/mbedtls-2.16.2/library\pkcs5.c ****     if( params->tag != ( MBEDTLS_ASN1_CONSTRUCTED | MBEDTLS_ASN1_SEQUENCE ) )
  68:D:/fchai/work/i-cube/I-CUBE-HUAWEI/Middlewares/Third_Party/Huawei/iot_link/network/dtls/mbedtls/mbedtls-2.16.2/library\pkcs5.c ****         return( MBEDTLS_ERR_PKCS5_INVALID_FORMAT +
  69:D:/fchai/work/i-cube/I-CUBE-HUAWEI/Middlewares/Third_Party/Huawei/iot_link/network/dtls/mbedtls/mbedtls-2.16.2/library\pkcs5.c ****                 MBEDTLS_ERR_ASN1_UNEXPECTED_TAG );
  70:D:/fchai/work/i-cube/I-CUBE-HUAWEI/Middlewares/Third_Party/Huawei/iot_link/network/dtls/mbedtls/mbedtls-2.16.2/library\pkcs5.c ****     /*
  71:D:/fchai/work/i-cube/I-CUBE-HUAWEI/Middlewares/Third_Party/Huawei/iot_link/network/dtls/mbedtls/mbedtls-2.16.2/library\pkcs5.c ****      *  PBKDF2-params ::= SEQUENCE {
  72:D:/fchai/work/i-cube/I-CUBE-HUAWEI/Middlewares/Third_Party/Huawei/iot_link/network/dtls/mbedtls/mbedtls-2.16.2/library\pkcs5.c ****      *    salt              OCTET STRING,
  73:D:/fchai/work/i-cube/I-CUBE-HUAWEI/Middlewares/Third_Party/Huawei/iot_link/network/dtls/mbedtls/mbedtls-2.16.2/library\pkcs5.c ****      *    iterationCount    INTEGER,
  74:D:/fchai/work/i-cube/I-CUBE-HUAWEI/Middlewares/Third_Party/Huawei/iot_link/network/dtls/mbedtls/mbedtls-2.16.2/library\pkcs5.c ****      *    keyLength         INTEGER OPTIONAL
  75:D:/fchai/work/i-cube/I-CUBE-HUAWEI/Middlewares/Third_Party/Huawei/iot_link/network/dtls/mbedtls/mbedtls-2.16.2/library\pkcs5.c ****      *    prf               AlgorithmIdentifier DEFAULT algid-hmacWithSHA1
  76:D:/fchai/work/i-cube/I-CUBE-HUAWEI/Middlewares/Third_Party/Huawei/iot_link/network/dtls/mbedtls/mbedtls-2.16.2/library\pkcs5.c ****      *  }
  77:D:/fchai/work/i-cube/I-CUBE-HUAWEI/Middlewares/Third_Party/Huawei/iot_link/network/dtls/mbedtls/mbedtls-2.16.2/library\pkcs5.c ****      *
  78:D:/fchai/work/i-cube/I-CUBE-HUAWEI/Middlewares/Third_Party/Huawei/iot_link/network/dtls/mbedtls/mbedtls-2.16.2/library\pkcs5.c ****      */
  79:D:/fchai/work/i-cube/I-CUBE-HUAWEI/Middlewares/Third_Party/Huawei/iot_link/network/dtls/mbedtls/mbedtls-2.16.2/library\pkcs5.c ****     if( ( ret = mbedtls_asn1_get_tag( &p, end, &salt->len, MBEDTLS_ASN1_OCTET_STRING ) ) != 0 )
  80:D:/fchai/work/i-cube/I-CUBE-HUAWEI/Middlewares/Third_Party/Huawei/iot_link/network/dtls/mbedtls/mbedtls-2.16.2/library\pkcs5.c ****         return( MBEDTLS_ERR_PKCS5_INVALID_FORMAT + ret );
  81:D:/fchai/work/i-cube/I-CUBE-HUAWEI/Middlewares/Third_Party/Huawei/iot_link/network/dtls/mbedtls/mbedtls-2.16.2/library\pkcs5.c **** 
  82:D:/fchai/work/i-cube/I-CUBE-HUAWEI/Middlewares/Third_Party/Huawei/iot_link/network/dtls/mbedtls/mbedtls-2.16.2/library\pkcs5.c ****     salt->p = p;
  83:D:/fchai/work/i-cube/I-CUBE-HUAWEI/Middlewares/Third_Party/Huawei/iot_link/network/dtls/mbedtls/mbedtls-2.16.2/library\pkcs5.c ****     p += salt->len;
  84:D:/fchai/work/i-cube/I-CUBE-HUAWEI/Middlewares/Third_Party/Huawei/iot_link/network/dtls/mbedtls/mbedtls-2.16.2/library\pkcs5.c **** 
  85:D:/fchai/work/i-cube/I-CUBE-HUAWEI/Middlewares/Third_Party/Huawei/iot_link/network/dtls/mbedtls/mbedtls-2.16.2/library\pkcs5.c ****     if( ( ret = mbedtls_asn1_get_int( &p, end, iterations ) ) != 0 )
ARM GAS  T:\msys\tmp\ccGVICEu.s 			page 3


  86:D:/fchai/work/i-cube/I-CUBE-HUAWEI/Middlewares/Third_Party/Huawei/iot_link/network/dtls/mbedtls/mbedtls-2.16.2/library\pkcs5.c ****         return( MBEDTLS_ERR_PKCS5_INVALID_FORMAT + ret );
  87:D:/fchai/work/i-cube/I-CUBE-HUAWEI/Middlewares/Third_Party/Huawei/iot_link/network/dtls/mbedtls/mbedtls-2.16.2/library\pkcs5.c **** 
  88:D:/fchai/work/i-cube/I-CUBE-HUAWEI/Middlewares/Third_Party/Huawei/iot_link/network/dtls/mbedtls/mbedtls-2.16.2/library\pkcs5.c ****     if( p == end )
  89:D:/fchai/work/i-cube/I-CUBE-HUAWEI/Middlewares/Third_Party/Huawei/iot_link/network/dtls/mbedtls/mbedtls-2.16.2/library\pkcs5.c ****         return( 0 );
  90:D:/fchai/work/i-cube/I-CUBE-HUAWEI/Middlewares/Third_Party/Huawei/iot_link/network/dtls/mbedtls/mbedtls-2.16.2/library\pkcs5.c **** 
  91:D:/fchai/work/i-cube/I-CUBE-HUAWEI/Middlewares/Third_Party/Huawei/iot_link/network/dtls/mbedtls/mbedtls-2.16.2/library\pkcs5.c ****     if( ( ret = mbedtls_asn1_get_int( &p, end, keylen ) ) != 0 )
  92:D:/fchai/work/i-cube/I-CUBE-HUAWEI/Middlewares/Third_Party/Huawei/iot_link/network/dtls/mbedtls/mbedtls-2.16.2/library\pkcs5.c ****     {
  93:D:/fchai/work/i-cube/I-CUBE-HUAWEI/Middlewares/Third_Party/Huawei/iot_link/network/dtls/mbedtls/mbedtls-2.16.2/library\pkcs5.c ****         if( ret != MBEDTLS_ERR_ASN1_UNEXPECTED_TAG )
  94:D:/fchai/work/i-cube/I-CUBE-HUAWEI/Middlewares/Third_Party/Huawei/iot_link/network/dtls/mbedtls/mbedtls-2.16.2/library\pkcs5.c ****             return( MBEDTLS_ERR_PKCS5_INVALID_FORMAT + ret );
  95:D:/fchai/work/i-cube/I-CUBE-HUAWEI/Middlewares/Third_Party/Huawei/iot_link/network/dtls/mbedtls/mbedtls-2.16.2/library\pkcs5.c ****     }
  96:D:/fchai/work/i-cube/I-CUBE-HUAWEI/Middlewares/Third_Party/Huawei/iot_link/network/dtls/mbedtls/mbedtls-2.16.2/library\pkcs5.c **** 
  97:D:/fchai/work/i-cube/I-CUBE-HUAWEI/Middlewares/Third_Party/Huawei/iot_link/network/dtls/mbedtls/mbedtls-2.16.2/library\pkcs5.c ****     if( p == end )
  98:D:/fchai/work/i-cube/I-CUBE-HUAWEI/Middlewares/Third_Party/Huawei/iot_link/network/dtls/mbedtls/mbedtls-2.16.2/library\pkcs5.c ****         return( 0 );
  99:D:/fchai/work/i-cube/I-CUBE-HUAWEI/Middlewares/Third_Party/Huawei/iot_link/network/dtls/mbedtls/mbedtls-2.16.2/library\pkcs5.c **** 
 100:D:/fchai/work/i-cube/I-CUBE-HUAWEI/Middlewares/Third_Party/Huawei/iot_link/network/dtls/mbedtls/mbedtls-2.16.2/library\pkcs5.c ****     if( ( ret = mbedtls_asn1_get_alg_null( &p, end, &prf_alg_oid ) ) != 0 )
 101:D:/fchai/work/i-cube/I-CUBE-HUAWEI/Middlewares/Third_Party/Huawei/iot_link/network/dtls/mbedtls/mbedtls-2.16.2/library\pkcs5.c ****         return( MBEDTLS_ERR_PKCS5_INVALID_FORMAT + ret );
 102:D:/fchai/work/i-cube/I-CUBE-HUAWEI/Middlewares/Third_Party/Huawei/iot_link/network/dtls/mbedtls/mbedtls-2.16.2/library\pkcs5.c **** 
 103:D:/fchai/work/i-cube/I-CUBE-HUAWEI/Middlewares/Third_Party/Huawei/iot_link/network/dtls/mbedtls/mbedtls-2.16.2/library\pkcs5.c ****     if( mbedtls_oid_get_md_hmac( &prf_alg_oid, md_type ) != 0 )
 104:D:/fchai/work/i-cube/I-CUBE-HUAWEI/Middlewares/Third_Party/Huawei/iot_link/network/dtls/mbedtls/mbedtls-2.16.2/library\pkcs5.c ****         return( MBEDTLS_ERR_PKCS5_FEATURE_UNAVAILABLE );
 105:D:/fchai/work/i-cube/I-CUBE-HUAWEI/Middlewares/Third_Party/Huawei/iot_link/network/dtls/mbedtls/mbedtls-2.16.2/library\pkcs5.c **** 
 106:D:/fchai/work/i-cube/I-CUBE-HUAWEI/Middlewares/Third_Party/Huawei/iot_link/network/dtls/mbedtls/mbedtls-2.16.2/library\pkcs5.c ****     if( p != end )
 107:D:/fchai/work/i-cube/I-CUBE-HUAWEI/Middlewares/Third_Party/Huawei/iot_link/network/dtls/mbedtls/mbedtls-2.16.2/library\pkcs5.c ****         return( MBEDTLS_ERR_PKCS5_INVALID_FORMAT +
 108:D:/fchai/work/i-cube/I-CUBE-HUAWEI/Middlewares/Third_Party/Huawei/iot_link/network/dtls/mbedtls/mbedtls-2.16.2/library\pkcs5.c ****                 MBEDTLS_ERR_ASN1_LENGTH_MISMATCH );
 109:D:/fchai/work/i-cube/I-CUBE-HUAWEI/Middlewares/Third_Party/Huawei/iot_link/network/dtls/mbedtls/mbedtls-2.16.2/library\pkcs5.c **** 
 110:D:/fchai/work/i-cube/I-CUBE-HUAWEI/Middlewares/Third_Party/Huawei/iot_link/network/dtls/mbedtls/mbedtls-2.16.2/library\pkcs5.c ****     return( 0 );
 111:D:/fchai/work/i-cube/I-CUBE-HUAWEI/Middlewares/Third_Party/Huawei/iot_link/network/dtls/mbedtls/mbedtls-2.16.2/library\pkcs5.c **** }
 112:D:/fchai/work/i-cube/I-CUBE-HUAWEI/Middlewares/Third_Party/Huawei/iot_link/network/dtls/mbedtls/mbedtls-2.16.2/library\pkcs5.c **** 
 113:D:/fchai/work/i-cube/I-CUBE-HUAWEI/Middlewares/Third_Party/Huawei/iot_link/network/dtls/mbedtls/mbedtls-2.16.2/library\pkcs5.c **** int mbedtls_pkcs5_pbes2( const mbedtls_asn1_buf *pbe_params, int mode,
 114:D:/fchai/work/i-cube/I-CUBE-HUAWEI/Middlewares/Third_Party/Huawei/iot_link/network/dtls/mbedtls/mbedtls-2.16.2/library\pkcs5.c ****                  const unsigned char *pwd,  size_t pwdlen,
 115:D:/fchai/work/i-cube/I-CUBE-HUAWEI/Middlewares/Third_Party/Huawei/iot_link/network/dtls/mbedtls/mbedtls-2.16.2/library\pkcs5.c ****                  const unsigned char *data, size_t datalen,
 116:D:/fchai/work/i-cube/I-CUBE-HUAWEI/Middlewares/Third_Party/Huawei/iot_link/network/dtls/mbedtls/mbedtls-2.16.2/library\pkcs5.c ****                  unsigned char *output )
 117:D:/fchai/work/i-cube/I-CUBE-HUAWEI/Middlewares/Third_Party/Huawei/iot_link/network/dtls/mbedtls/mbedtls-2.16.2/library\pkcs5.c **** {
 118:D:/fchai/work/i-cube/I-CUBE-HUAWEI/Middlewares/Third_Party/Huawei/iot_link/network/dtls/mbedtls/mbedtls-2.16.2/library\pkcs5.c ****     int ret, iterations = 0, keylen = 0;
 119:D:/fchai/work/i-cube/I-CUBE-HUAWEI/Middlewares/Third_Party/Huawei/iot_link/network/dtls/mbedtls/mbedtls-2.16.2/library\pkcs5.c ****     unsigned char *p, *end;
 120:D:/fchai/work/i-cube/I-CUBE-HUAWEI/Middlewares/Third_Party/Huawei/iot_link/network/dtls/mbedtls/mbedtls-2.16.2/library\pkcs5.c ****     mbedtls_asn1_buf kdf_alg_oid, enc_scheme_oid, kdf_alg_params, enc_scheme_params;
 121:D:/fchai/work/i-cube/I-CUBE-HUAWEI/Middlewares/Third_Party/Huawei/iot_link/network/dtls/mbedtls/mbedtls-2.16.2/library\pkcs5.c ****     mbedtls_asn1_buf salt;
 122:D:/fchai/work/i-cube/I-CUBE-HUAWEI/Middlewares/Third_Party/Huawei/iot_link/network/dtls/mbedtls/mbedtls-2.16.2/library\pkcs5.c ****     mbedtls_md_type_t md_type = MBEDTLS_MD_SHA1;
 123:D:/fchai/work/i-cube/I-CUBE-HUAWEI/Middlewares/Third_Party/Huawei/iot_link/network/dtls/mbedtls/mbedtls-2.16.2/library\pkcs5.c ****     unsigned char key[32], iv[32];
 124:D:/fchai/work/i-cube/I-CUBE-HUAWEI/Middlewares/Third_Party/Huawei/iot_link/network/dtls/mbedtls/mbedtls-2.16.2/library\pkcs5.c ****     size_t olen = 0;
 125:D:/fchai/work/i-cube/I-CUBE-HUAWEI/Middlewares/Third_Party/Huawei/iot_link/network/dtls/mbedtls/mbedtls-2.16.2/library\pkcs5.c ****     const mbedtls_md_info_t *md_info;
 126:D:/fchai/work/i-cube/I-CUBE-HUAWEI/Middlewares/Third_Party/Huawei/iot_link/network/dtls/mbedtls/mbedtls-2.16.2/library\pkcs5.c ****     const mbedtls_cipher_info_t *cipher_info;
 127:D:/fchai/work/i-cube/I-CUBE-HUAWEI/Middlewares/Third_Party/Huawei/iot_link/network/dtls/mbedtls/mbedtls-2.16.2/library\pkcs5.c ****     mbedtls_md_context_t md_ctx;
 128:D:/fchai/work/i-cube/I-CUBE-HUAWEI/Middlewares/Third_Party/Huawei/iot_link/network/dtls/mbedtls/mbedtls-2.16.2/library\pkcs5.c ****     mbedtls_cipher_type_t cipher_alg;
 129:D:/fchai/work/i-cube/I-CUBE-HUAWEI/Middlewares/Third_Party/Huawei/iot_link/network/dtls/mbedtls/mbedtls-2.16.2/library\pkcs5.c ****     mbedtls_cipher_context_t cipher_ctx;
 130:D:/fchai/work/i-cube/I-CUBE-HUAWEI/Middlewares/Third_Party/Huawei/iot_link/network/dtls/mbedtls/mbedtls-2.16.2/library\pkcs5.c **** 
 131:D:/fchai/work/i-cube/I-CUBE-HUAWEI/Middlewares/Third_Party/Huawei/iot_link/network/dtls/mbedtls/mbedtls-2.16.2/library\pkcs5.c ****     p = pbe_params->p;
 132:D:/fchai/work/i-cube/I-CUBE-HUAWEI/Middlewares/Third_Party/Huawei/iot_link/network/dtls/mbedtls/mbedtls-2.16.2/library\pkcs5.c ****     end = p + pbe_params->len;
 133:D:/fchai/work/i-cube/I-CUBE-HUAWEI/Middlewares/Third_Party/Huawei/iot_link/network/dtls/mbedtls/mbedtls-2.16.2/library\pkcs5.c **** 
 134:D:/fchai/work/i-cube/I-CUBE-HUAWEI/Middlewares/Third_Party/Huawei/iot_link/network/dtls/mbedtls/mbedtls-2.16.2/library\pkcs5.c ****     /*
 135:D:/fchai/work/i-cube/I-CUBE-HUAWEI/Middlewares/Third_Party/Huawei/iot_link/network/dtls/mbedtls/mbedtls-2.16.2/library\pkcs5.c ****      *  PBES2-params ::= SEQUENCE {
 136:D:/fchai/work/i-cube/I-CUBE-HUAWEI/Middlewares/Third_Party/Huawei/iot_link/network/dtls/mbedtls/mbedtls-2.16.2/library\pkcs5.c ****      *    keyDerivationFunc AlgorithmIdentifier {{PBES2-KDFs}},
 137:D:/fchai/work/i-cube/I-CUBE-HUAWEI/Middlewares/Third_Party/Huawei/iot_link/network/dtls/mbedtls/mbedtls-2.16.2/library\pkcs5.c ****      *    encryptionScheme AlgorithmIdentifier {{PBES2-Encs}}
 138:D:/fchai/work/i-cube/I-CUBE-HUAWEI/Middlewares/Third_Party/Huawei/iot_link/network/dtls/mbedtls/mbedtls-2.16.2/library\pkcs5.c ****      *  }
 139:D:/fchai/work/i-cube/I-CUBE-HUAWEI/Middlewares/Third_Party/Huawei/iot_link/network/dtls/mbedtls/mbedtls-2.16.2/library\pkcs5.c ****      */
 140:D:/fchai/work/i-cube/I-CUBE-HUAWEI/Middlewares/Third_Party/Huawei/iot_link/network/dtls/mbedtls/mbedtls-2.16.2/library\pkcs5.c ****     if( pbe_params->tag != ( MBEDTLS_ASN1_CONSTRUCTED | MBEDTLS_ASN1_SEQUENCE ) )
 141:D:/fchai/work/i-cube/I-CUBE-HUAWEI/Middlewares/Third_Party/Huawei/iot_link/network/dtls/mbedtls/mbedtls-2.16.2/library\pkcs5.c ****         return( MBEDTLS_ERR_PKCS5_INVALID_FORMAT +
 142:D:/fchai/work/i-cube/I-CUBE-HUAWEI/Middlewares/Third_Party/Huawei/iot_link/network/dtls/mbedtls/mbedtls-2.16.2/library\pkcs5.c ****                 MBEDTLS_ERR_ASN1_UNEXPECTED_TAG );
ARM GAS  T:\msys\tmp\ccGVICEu.s 			page 4


 143:D:/fchai/work/i-cube/I-CUBE-HUAWEI/Middlewares/Third_Party/Huawei/iot_link/network/dtls/mbedtls/mbedtls-2.16.2/library\pkcs5.c **** 
 144:D:/fchai/work/i-cube/I-CUBE-HUAWEI/Middlewares/Third_Party/Huawei/iot_link/network/dtls/mbedtls/mbedtls-2.16.2/library\pkcs5.c ****     if( ( ret = mbedtls_asn1_get_alg( &p, end, &kdf_alg_oid, &kdf_alg_params ) ) != 0 )
 145:D:/fchai/work/i-cube/I-CUBE-HUAWEI/Middlewares/Third_Party/Huawei/iot_link/network/dtls/mbedtls/mbedtls-2.16.2/library\pkcs5.c ****         return( MBEDTLS_ERR_PKCS5_INVALID_FORMAT + ret );
 146:D:/fchai/work/i-cube/I-CUBE-HUAWEI/Middlewares/Third_Party/Huawei/iot_link/network/dtls/mbedtls/mbedtls-2.16.2/library\pkcs5.c **** 
 147:D:/fchai/work/i-cube/I-CUBE-HUAWEI/Middlewares/Third_Party/Huawei/iot_link/network/dtls/mbedtls/mbedtls-2.16.2/library\pkcs5.c ****     // Only PBKDF2 supported at the moment
 148:D:/fchai/work/i-cube/I-CUBE-HUAWEI/Middlewares/Third_Party/Huawei/iot_link/network/dtls/mbedtls/mbedtls-2.16.2/library\pkcs5.c ****     //
 149:D:/fchai/work/i-cube/I-CUBE-HUAWEI/Middlewares/Third_Party/Huawei/iot_link/network/dtls/mbedtls/mbedtls-2.16.2/library\pkcs5.c ****     if( MBEDTLS_OID_CMP( MBEDTLS_OID_PKCS5_PBKDF2, &kdf_alg_oid ) != 0 )
 150:D:/fchai/work/i-cube/I-CUBE-HUAWEI/Middlewares/Third_Party/Huawei/iot_link/network/dtls/mbedtls/mbedtls-2.16.2/library\pkcs5.c ****         return( MBEDTLS_ERR_PKCS5_FEATURE_UNAVAILABLE );
 151:D:/fchai/work/i-cube/I-CUBE-HUAWEI/Middlewares/Third_Party/Huawei/iot_link/network/dtls/mbedtls/mbedtls-2.16.2/library\pkcs5.c **** 
 152:D:/fchai/work/i-cube/I-CUBE-HUAWEI/Middlewares/Third_Party/Huawei/iot_link/network/dtls/mbedtls/mbedtls-2.16.2/library\pkcs5.c ****     if( ( ret = pkcs5_parse_pbkdf2_params( &kdf_alg_params,
 153:D:/fchai/work/i-cube/I-CUBE-HUAWEI/Middlewares/Third_Party/Huawei/iot_link/network/dtls/mbedtls/mbedtls-2.16.2/library\pkcs5.c ****                                            &salt, &iterations, &keylen,
 154:D:/fchai/work/i-cube/I-CUBE-HUAWEI/Middlewares/Third_Party/Huawei/iot_link/network/dtls/mbedtls/mbedtls-2.16.2/library\pkcs5.c ****                                            &md_type ) ) != 0 )
 155:D:/fchai/work/i-cube/I-CUBE-HUAWEI/Middlewares/Third_Party/Huawei/iot_link/network/dtls/mbedtls/mbedtls-2.16.2/library\pkcs5.c ****     {
 156:D:/fchai/work/i-cube/I-CUBE-HUAWEI/Middlewares/Third_Party/Huawei/iot_link/network/dtls/mbedtls/mbedtls-2.16.2/library\pkcs5.c ****         return( ret );
 157:D:/fchai/work/i-cube/I-CUBE-HUAWEI/Middlewares/Third_Party/Huawei/iot_link/network/dtls/mbedtls/mbedtls-2.16.2/library\pkcs5.c ****     }
 158:D:/fchai/work/i-cube/I-CUBE-HUAWEI/Middlewares/Third_Party/Huawei/iot_link/network/dtls/mbedtls/mbedtls-2.16.2/library\pkcs5.c **** 
 159:D:/fchai/work/i-cube/I-CUBE-HUAWEI/Middlewares/Third_Party/Huawei/iot_link/network/dtls/mbedtls/mbedtls-2.16.2/library\pkcs5.c ****     md_info = mbedtls_md_info_from_type( md_type );
 160:D:/fchai/work/i-cube/I-CUBE-HUAWEI/Middlewares/Third_Party/Huawei/iot_link/network/dtls/mbedtls/mbedtls-2.16.2/library\pkcs5.c ****     if( md_info == NULL )
 161:D:/fchai/work/i-cube/I-CUBE-HUAWEI/Middlewares/Third_Party/Huawei/iot_link/network/dtls/mbedtls/mbedtls-2.16.2/library\pkcs5.c ****         return( MBEDTLS_ERR_PKCS5_FEATURE_UNAVAILABLE );
 162:D:/fchai/work/i-cube/I-CUBE-HUAWEI/Middlewares/Third_Party/Huawei/iot_link/network/dtls/mbedtls/mbedtls-2.16.2/library\pkcs5.c **** 
 163:D:/fchai/work/i-cube/I-CUBE-HUAWEI/Middlewares/Third_Party/Huawei/iot_link/network/dtls/mbedtls/mbedtls-2.16.2/library\pkcs5.c ****     if( ( ret = mbedtls_asn1_get_alg( &p, end, &enc_scheme_oid,
 164:D:/fchai/work/i-cube/I-CUBE-HUAWEI/Middlewares/Third_Party/Huawei/iot_link/network/dtls/mbedtls/mbedtls-2.16.2/library\pkcs5.c ****                               &enc_scheme_params ) ) != 0 )
 165:D:/fchai/work/i-cube/I-CUBE-HUAWEI/Middlewares/Third_Party/Huawei/iot_link/network/dtls/mbedtls/mbedtls-2.16.2/library\pkcs5.c ****     {
 166:D:/fchai/work/i-cube/I-CUBE-HUAWEI/Middlewares/Third_Party/Huawei/iot_link/network/dtls/mbedtls/mbedtls-2.16.2/library\pkcs5.c ****         return( MBEDTLS_ERR_PKCS5_INVALID_FORMAT + ret );
 167:D:/fchai/work/i-cube/I-CUBE-HUAWEI/Middlewares/Third_Party/Huawei/iot_link/network/dtls/mbedtls/mbedtls-2.16.2/library\pkcs5.c ****     }
 168:D:/fchai/work/i-cube/I-CUBE-HUAWEI/Middlewares/Third_Party/Huawei/iot_link/network/dtls/mbedtls/mbedtls-2.16.2/library\pkcs5.c **** 
 169:D:/fchai/work/i-cube/I-CUBE-HUAWEI/Middlewares/Third_Party/Huawei/iot_link/network/dtls/mbedtls/mbedtls-2.16.2/library\pkcs5.c ****     if( mbedtls_oid_get_cipher_alg( &enc_scheme_oid, &cipher_alg ) != 0 )
 170:D:/fchai/work/i-cube/I-CUBE-HUAWEI/Middlewares/Third_Party/Huawei/iot_link/network/dtls/mbedtls/mbedtls-2.16.2/library\pkcs5.c ****         return( MBEDTLS_ERR_PKCS5_FEATURE_UNAVAILABLE );
 171:D:/fchai/work/i-cube/I-CUBE-HUAWEI/Middlewares/Third_Party/Huawei/iot_link/network/dtls/mbedtls/mbedtls-2.16.2/library\pkcs5.c **** 
 172:D:/fchai/work/i-cube/I-CUBE-HUAWEI/Middlewares/Third_Party/Huawei/iot_link/network/dtls/mbedtls/mbedtls-2.16.2/library\pkcs5.c ****     cipher_info = mbedtls_cipher_info_from_type( cipher_alg );
 173:D:/fchai/work/i-cube/I-CUBE-HUAWEI/Middlewares/Third_Party/Huawei/iot_link/network/dtls/mbedtls/mbedtls-2.16.2/library\pkcs5.c ****     if( cipher_info == NULL )
 174:D:/fchai/work/i-cube/I-CUBE-HUAWEI/Middlewares/Third_Party/Huawei/iot_link/network/dtls/mbedtls/mbedtls-2.16.2/library\pkcs5.c ****         return( MBEDTLS_ERR_PKCS5_FEATURE_UNAVAILABLE );
 175:D:/fchai/work/i-cube/I-CUBE-HUAWEI/Middlewares/Third_Party/Huawei/iot_link/network/dtls/mbedtls/mbedtls-2.16.2/library\pkcs5.c **** 
 176:D:/fchai/work/i-cube/I-CUBE-HUAWEI/Middlewares/Third_Party/Huawei/iot_link/network/dtls/mbedtls/mbedtls-2.16.2/library\pkcs5.c ****     /*
 177:D:/fchai/work/i-cube/I-CUBE-HUAWEI/Middlewares/Third_Party/Huawei/iot_link/network/dtls/mbedtls/mbedtls-2.16.2/library\pkcs5.c ****      * The value of keylen from pkcs5_parse_pbkdf2_params() is ignored
 178:D:/fchai/work/i-cube/I-CUBE-HUAWEI/Middlewares/Third_Party/Huawei/iot_link/network/dtls/mbedtls/mbedtls-2.16.2/library\pkcs5.c ****      * since it is optional and we don't know if it was set or not
 179:D:/fchai/work/i-cube/I-CUBE-HUAWEI/Middlewares/Third_Party/Huawei/iot_link/network/dtls/mbedtls/mbedtls-2.16.2/library\pkcs5.c ****      */
 180:D:/fchai/work/i-cube/I-CUBE-HUAWEI/Middlewares/Third_Party/Huawei/iot_link/network/dtls/mbedtls/mbedtls-2.16.2/library\pkcs5.c ****     keylen = cipher_info->key_bitlen / 8;
 181:D:/fchai/work/i-cube/I-CUBE-HUAWEI/Middlewares/Third_Party/Huawei/iot_link/network/dtls/mbedtls/mbedtls-2.16.2/library\pkcs5.c **** 
 182:D:/fchai/work/i-cube/I-CUBE-HUAWEI/Middlewares/Third_Party/Huawei/iot_link/network/dtls/mbedtls/mbedtls-2.16.2/library\pkcs5.c ****     if( enc_scheme_params.tag != MBEDTLS_ASN1_OCTET_STRING ||
 183:D:/fchai/work/i-cube/I-CUBE-HUAWEI/Middlewares/Third_Party/Huawei/iot_link/network/dtls/mbedtls/mbedtls-2.16.2/library\pkcs5.c ****         enc_scheme_params.len != cipher_info->iv_size )
 184:D:/fchai/work/i-cube/I-CUBE-HUAWEI/Middlewares/Third_Party/Huawei/iot_link/network/dtls/mbedtls/mbedtls-2.16.2/library\pkcs5.c ****     {
 185:D:/fchai/work/i-cube/I-CUBE-HUAWEI/Middlewares/Third_Party/Huawei/iot_link/network/dtls/mbedtls/mbedtls-2.16.2/library\pkcs5.c ****         return( MBEDTLS_ERR_PKCS5_INVALID_FORMAT );
 186:D:/fchai/work/i-cube/I-CUBE-HUAWEI/Middlewares/Third_Party/Huawei/iot_link/network/dtls/mbedtls/mbedtls-2.16.2/library\pkcs5.c ****     }
 187:D:/fchai/work/i-cube/I-CUBE-HUAWEI/Middlewares/Third_Party/Huawei/iot_link/network/dtls/mbedtls/mbedtls-2.16.2/library\pkcs5.c **** 
 188:D:/fchai/work/i-cube/I-CUBE-HUAWEI/Middlewares/Third_Party/Huawei/iot_link/network/dtls/mbedtls/mbedtls-2.16.2/library\pkcs5.c ****     mbedtls_md_init( &md_ctx );
 189:D:/fchai/work/i-cube/I-CUBE-HUAWEI/Middlewares/Third_Party/Huawei/iot_link/network/dtls/mbedtls/mbedtls-2.16.2/library\pkcs5.c ****     mbedtls_cipher_init( &cipher_ctx );
 190:D:/fchai/work/i-cube/I-CUBE-HUAWEI/Middlewares/Third_Party/Huawei/iot_link/network/dtls/mbedtls/mbedtls-2.16.2/library\pkcs5.c **** 
 191:D:/fchai/work/i-cube/I-CUBE-HUAWEI/Middlewares/Third_Party/Huawei/iot_link/network/dtls/mbedtls/mbedtls-2.16.2/library\pkcs5.c ****     memcpy( iv, enc_scheme_params.p, enc_scheme_params.len );
 192:D:/fchai/work/i-cube/I-CUBE-HUAWEI/Middlewares/Third_Party/Huawei/iot_link/network/dtls/mbedtls/mbedtls-2.16.2/library\pkcs5.c **** 
 193:D:/fchai/work/i-cube/I-CUBE-HUAWEI/Middlewares/Third_Party/Huawei/iot_link/network/dtls/mbedtls/mbedtls-2.16.2/library\pkcs5.c ****     if( ( ret = mbedtls_md_setup( &md_ctx, md_info, 1 ) ) != 0 )
 194:D:/fchai/work/i-cube/I-CUBE-HUAWEI/Middlewares/Third_Party/Huawei/iot_link/network/dtls/mbedtls/mbedtls-2.16.2/library\pkcs5.c ****         goto exit;
 195:D:/fchai/work/i-cube/I-CUBE-HUAWEI/Middlewares/Third_Party/Huawei/iot_link/network/dtls/mbedtls/mbedtls-2.16.2/library\pkcs5.c **** 
 196:D:/fchai/work/i-cube/I-CUBE-HUAWEI/Middlewares/Third_Party/Huawei/iot_link/network/dtls/mbedtls/mbedtls-2.16.2/library\pkcs5.c ****     if( ( ret = mbedtls_pkcs5_pbkdf2_hmac( &md_ctx, pwd, pwdlen, salt.p, salt.len,
 197:D:/fchai/work/i-cube/I-CUBE-HUAWEI/Middlewares/Third_Party/Huawei/iot_link/network/dtls/mbedtls/mbedtls-2.16.2/library\pkcs5.c ****                                    iterations, keylen, key ) ) != 0 )
 198:D:/fchai/work/i-cube/I-CUBE-HUAWEI/Middlewares/Third_Party/Huawei/iot_link/network/dtls/mbedtls/mbedtls-2.16.2/library\pkcs5.c ****     {
 199:D:/fchai/work/i-cube/I-CUBE-HUAWEI/Middlewares/Third_Party/Huawei/iot_link/network/dtls/mbedtls/mbedtls-2.16.2/library\pkcs5.c ****         goto exit;
ARM GAS  T:\msys\tmp\ccGVICEu.s 			page 5


 200:D:/fchai/work/i-cube/I-CUBE-HUAWEI/Middlewares/Third_Party/Huawei/iot_link/network/dtls/mbedtls/mbedtls-2.16.2/library\pkcs5.c ****     }
 201:D:/fchai/work/i-cube/I-CUBE-HUAWEI/Middlewares/Third_Party/Huawei/iot_link/network/dtls/mbedtls/mbedtls-2.16.2/library\pkcs5.c **** 
 202:D:/fchai/work/i-cube/I-CUBE-HUAWEI/Middlewares/Third_Party/Huawei/iot_link/network/dtls/mbedtls/mbedtls-2.16.2/library\pkcs5.c ****     if( ( ret = mbedtls_cipher_setup( &cipher_ctx, cipher_info ) ) != 0 )
 203:D:/fchai/work/i-cube/I-CUBE-HUAWEI/Middlewares/Third_Party/Huawei/iot_link/network/dtls/mbedtls/mbedtls-2.16.2/library\pkcs5.c ****         goto exit;
 204:D:/fchai/work/i-cube/I-CUBE-HUAWEI/Middlewares/Third_Party/Huawei/iot_link/network/dtls/mbedtls/mbedtls-2.16.2/library\pkcs5.c **** 
 205:D:/fchai/work/i-cube/I-CUBE-HUAWEI/Middlewares/Third_Party/Huawei/iot_link/network/dtls/mbedtls/mbedtls-2.16.2/library\pkcs5.c ****     if( ( ret = mbedtls_cipher_setkey( &cipher_ctx, key, 8 * keylen, (mbedtls_operation_t) mode ) )
 206:D:/fchai/work/i-cube/I-CUBE-HUAWEI/Middlewares/Third_Party/Huawei/iot_link/network/dtls/mbedtls/mbedtls-2.16.2/library\pkcs5.c ****         goto exit;
 207:D:/fchai/work/i-cube/I-CUBE-HUAWEI/Middlewares/Third_Party/Huawei/iot_link/network/dtls/mbedtls/mbedtls-2.16.2/library\pkcs5.c **** 
 208:D:/fchai/work/i-cube/I-CUBE-HUAWEI/Middlewares/Third_Party/Huawei/iot_link/network/dtls/mbedtls/mbedtls-2.16.2/library\pkcs5.c ****     if( ( ret = mbedtls_cipher_crypt( &cipher_ctx, iv, enc_scheme_params.len,
 209:D:/fchai/work/i-cube/I-CUBE-HUAWEI/Middlewares/Third_Party/Huawei/iot_link/network/dtls/mbedtls/mbedtls-2.16.2/library\pkcs5.c ****                               data, datalen, output, &olen ) ) != 0 )
 210:D:/fchai/work/i-cube/I-CUBE-HUAWEI/Middlewares/Third_Party/Huawei/iot_link/network/dtls/mbedtls/mbedtls-2.16.2/library\pkcs5.c ****         ret = MBEDTLS_ERR_PKCS5_PASSWORD_MISMATCH;
 211:D:/fchai/work/i-cube/I-CUBE-HUAWEI/Middlewares/Third_Party/Huawei/iot_link/network/dtls/mbedtls/mbedtls-2.16.2/library\pkcs5.c **** 
 212:D:/fchai/work/i-cube/I-CUBE-HUAWEI/Middlewares/Third_Party/Huawei/iot_link/network/dtls/mbedtls/mbedtls-2.16.2/library\pkcs5.c **** exit:
 213:D:/fchai/work/i-cube/I-CUBE-HUAWEI/Middlewares/Third_Party/Huawei/iot_link/network/dtls/mbedtls/mbedtls-2.16.2/library\pkcs5.c ****     mbedtls_md_free( &md_ctx );
 214:D:/fchai/work/i-cube/I-CUBE-HUAWEI/Middlewares/Third_Party/Huawei/iot_link/network/dtls/mbedtls/mbedtls-2.16.2/library\pkcs5.c ****     mbedtls_cipher_free( &cipher_ctx );
 215:D:/fchai/work/i-cube/I-CUBE-HUAWEI/Middlewares/Third_Party/Huawei/iot_link/network/dtls/mbedtls/mbedtls-2.16.2/library\pkcs5.c **** 
 216:D:/fchai/work/i-cube/I-CUBE-HUAWEI/Middlewares/Third_Party/Huawei/iot_link/network/dtls/mbedtls/mbedtls-2.16.2/library\pkcs5.c ****     return( ret );
 217:D:/fchai/work/i-cube/I-CUBE-HUAWEI/Middlewares/Third_Party/Huawei/iot_link/network/dtls/mbedtls/mbedtls-2.16.2/library\pkcs5.c **** }
 218:D:/fchai/work/i-cube/I-CUBE-HUAWEI/Middlewares/Third_Party/Huawei/iot_link/network/dtls/mbedtls/mbedtls-2.16.2/library\pkcs5.c **** #endif /* MBEDTLS_ASN1_PARSE_C */
 219:D:/fchai/work/i-cube/I-CUBE-HUAWEI/Middlewares/Third_Party/Huawei/iot_link/network/dtls/mbedtls/mbedtls-2.16.2/library\pkcs5.c **** 
 220:D:/fchai/work/i-cube/I-CUBE-HUAWEI/Middlewares/Third_Party/Huawei/iot_link/network/dtls/mbedtls/mbedtls-2.16.2/library\pkcs5.c **** int mbedtls_pkcs5_pbkdf2_hmac( mbedtls_md_context_t *ctx, const unsigned char *password,
 221:D:/fchai/work/i-cube/I-CUBE-HUAWEI/Middlewares/Third_Party/Huawei/iot_link/network/dtls/mbedtls/mbedtls-2.16.2/library\pkcs5.c ****                        size_t plen, const unsigned char *salt, size_t slen,
 222:D:/fchai/work/i-cube/I-CUBE-HUAWEI/Middlewares/Third_Party/Huawei/iot_link/network/dtls/mbedtls/mbedtls-2.16.2/library\pkcs5.c ****                        unsigned int iteration_count,
 223:D:/fchai/work/i-cube/I-CUBE-HUAWEI/Middlewares/Third_Party/Huawei/iot_link/network/dtls/mbedtls/mbedtls-2.16.2/library\pkcs5.c ****                        uint32_t key_length, unsigned char *output )
 224:D:/fchai/work/i-cube/I-CUBE-HUAWEI/Middlewares/Third_Party/Huawei/iot_link/network/dtls/mbedtls/mbedtls-2.16.2/library\pkcs5.c **** {
  31              		.loc 1 224 1 view -0
  32              		.cfi_startproc
  33              		@ args = 16, pretend = 0, frame = 72
  34              		@ frame_needed = 0, uses_anonymous_args = 0
 225:D:/fchai/work/i-cube/I-CUBE-HUAWEI/Middlewares/Third_Party/Huawei/iot_link/network/dtls/mbedtls/mbedtls-2.16.2/library\pkcs5.c ****     int ret, j;
  35              		.loc 1 225 5 view .LVU1
 226:D:/fchai/work/i-cube/I-CUBE-HUAWEI/Middlewares/Third_Party/Huawei/iot_link/network/dtls/mbedtls/mbedtls-2.16.2/library\pkcs5.c ****     unsigned int i;
  36              		.loc 1 226 5 view .LVU2
 227:D:/fchai/work/i-cube/I-CUBE-HUAWEI/Middlewares/Third_Party/Huawei/iot_link/network/dtls/mbedtls/mbedtls-2.16.2/library\pkcs5.c ****     unsigned char md1[MBEDTLS_MD_MAX_SIZE];
  37              		.loc 1 227 5 view .LVU3
 228:D:/fchai/work/i-cube/I-CUBE-HUAWEI/Middlewares/Third_Party/Huawei/iot_link/network/dtls/mbedtls/mbedtls-2.16.2/library\pkcs5.c ****     unsigned char work[MBEDTLS_MD_MAX_SIZE];
  38              		.loc 1 228 5 view .LVU4
 229:D:/fchai/work/i-cube/I-CUBE-HUAWEI/Middlewares/Third_Party/Huawei/iot_link/network/dtls/mbedtls/mbedtls-2.16.2/library\pkcs5.c ****     unsigned char md_size = mbedtls_md_get_size( ctx->md_info );
  39              		.loc 1 229 5 view .LVU5
 224:D:/fchai/work/i-cube/I-CUBE-HUAWEI/Middlewares/Third_Party/Huawei/iot_link/network/dtls/mbedtls/mbedtls-2.16.2/library\pkcs5.c ****     int ret, j;
  40              		.loc 1 224 1 is_stmt 0 view .LVU6
  41 0000 2DE9F04F 		push	{r4, r5, r6, r7, r8, r9, r10, fp, lr}
  42              	.LCFI0:
  43              		.cfi_def_cfa_offset 36
  44              		.cfi_offset 4, -36
  45              		.cfi_offset 5, -32
  46              		.cfi_offset 6, -28
  47              		.cfi_offset 7, -24
  48              		.cfi_offset 8, -20
  49              		.cfi_offset 9, -16
  50              		.cfi_offset 10, -12
  51              		.cfi_offset 11, -8
  52              		.cfi_offset 14, -4
  53 0004 2DED028B 		vpush.64	{d8}
  54              	.LCFI1:
  55              		.cfi_def_cfa_offset 44
  56              		.cfi_offset 80, -44
ARM GAS  T:\msys\tmp\ccGVICEu.s 			page 6


  57              		.cfi_offset 81, -40
  58 0008 93B0     		sub	sp, sp, #76
  59              	.LCFI2:
  60              		.cfi_def_cfa_offset 120
 224:D:/fchai/work/i-cube/I-CUBE-HUAWEI/Middlewares/Third_Party/Huawei/iot_link/network/dtls/mbedtls/mbedtls-2.16.2/library\pkcs5.c ****     int ret, j;
  61              		.loc 1 224 1 view .LVU7
  62 000a 0446     		mov	r4, r0
 230:D:/fchai/work/i-cube/I-CUBE-HUAWEI/Middlewares/Third_Party/Huawei/iot_link/network/dtls/mbedtls/mbedtls-2.16.2/library\pkcs5.c ****     size_t use_len;
 231:D:/fchai/work/i-cube/I-CUBE-HUAWEI/Middlewares/Third_Party/Huawei/iot_link/network/dtls/mbedtls/mbedtls-2.16.2/library\pkcs5.c ****     unsigned char *out_p = output;
 232:D:/fchai/work/i-cube/I-CUBE-HUAWEI/Middlewares/Third_Party/Huawei/iot_link/network/dtls/mbedtls/mbedtls-2.16.2/library\pkcs5.c ****     unsigned char counter[4];
 233:D:/fchai/work/i-cube/I-CUBE-HUAWEI/Middlewares/Third_Party/Huawei/iot_link/network/dtls/mbedtls/mbedtls-2.16.2/library\pkcs5.c **** 
 234:D:/fchai/work/i-cube/I-CUBE-HUAWEI/Middlewares/Third_Party/Huawei/iot_link/network/dtls/mbedtls/mbedtls-2.16.2/library\pkcs5.c ****     memset( counter, 0, 4 );
  63              		.loc 1 234 5 view .LVU8
  64 000c 0DF1040B 		add	fp, sp, #4
 229:D:/fchai/work/i-cube/I-CUBE-HUAWEI/Middlewares/Third_Party/Huawei/iot_link/network/dtls/mbedtls/mbedtls-2.16.2/library\pkcs5.c ****     size_t use_len;
  65              		.loc 1 229 29 view .LVU9
  66 0010 0068     		ldr	r0, [r0]
  67              	.LVL1:
 224:D:/fchai/work/i-cube/I-CUBE-HUAWEI/Middlewares/Third_Party/Huawei/iot_link/network/dtls/mbedtls/mbedtls-2.16.2/library\pkcs5.c ****     int ret, j;
  68              		.loc 1 224 1 view .LVU10
  69 0012 DDF87C90 		ldr	r9, [sp, #124]
  70 0016 08EE103A 		vmov	s16, r3	@ int
  71 001a 9046     		mov	r8, r2
  72 001c 0F46     		mov	r7, r1
 229:D:/fchai/work/i-cube/I-CUBE-HUAWEI/Middlewares/Third_Party/Huawei/iot_link/network/dtls/mbedtls/mbedtls-2.16.2/library\pkcs5.c ****     size_t use_len;
  73              		.loc 1 229 29 view .LVU11
  74 001e FFF7FEFF 		bl	mbedtls_md_get_size
  75              	.LVL2:
  76              		.loc 1 234 5 view .LVU12
  77 0022 0023     		movs	r3, #0
  78 0024 8BF80230 		strb	r3, [fp, #2]
  79 0028 ADF80430 		strh	r3, [sp, #4]	@ movhi
 235:D:/fchai/work/i-cube/I-CUBE-HUAWEI/Middlewares/Third_Party/Huawei/iot_link/network/dtls/mbedtls/mbedtls-2.16.2/library\pkcs5.c ****     counter[3] = 1;
 236:D:/fchai/work/i-cube/I-CUBE-HUAWEI/Middlewares/Third_Party/Huawei/iot_link/network/dtls/mbedtls/mbedtls-2.16.2/library\pkcs5.c **** 
 237:D:/fchai/work/i-cube/I-CUBE-HUAWEI/Middlewares/Third_Party/Huawei/iot_link/network/dtls/mbedtls/mbedtls-2.16.2/library\pkcs5.c **** #if UINT_MAX > 0xFFFFFFFF
 238:D:/fchai/work/i-cube/I-CUBE-HUAWEI/Middlewares/Third_Party/Huawei/iot_link/network/dtls/mbedtls/mbedtls-2.16.2/library\pkcs5.c ****     if( iteration_count > 0xFFFFFFFF )
 239:D:/fchai/work/i-cube/I-CUBE-HUAWEI/Middlewares/Third_Party/Huawei/iot_link/network/dtls/mbedtls/mbedtls-2.16.2/library\pkcs5.c ****         return( MBEDTLS_ERR_PKCS5_BAD_INPUT_DATA );
 240:D:/fchai/work/i-cube/I-CUBE-HUAWEI/Middlewares/Third_Party/Huawei/iot_link/network/dtls/mbedtls/mbedtls-2.16.2/library\pkcs5.c **** #endif
 241:D:/fchai/work/i-cube/I-CUBE-HUAWEI/Middlewares/Third_Party/Huawei/iot_link/network/dtls/mbedtls/mbedtls-2.16.2/library\pkcs5.c **** 
 242:D:/fchai/work/i-cube/I-CUBE-HUAWEI/Middlewares/Third_Party/Huawei/iot_link/network/dtls/mbedtls/mbedtls-2.16.2/library\pkcs5.c ****     while( key_length )
  80              		.loc 1 242 10 view .LVU13
  81 002c 209B     		ldr	r3, [sp, #128]
 235:D:/fchai/work/i-cube/I-CUBE-HUAWEI/Middlewares/Third_Party/Huawei/iot_link/network/dtls/mbedtls/mbedtls-2.16.2/library\pkcs5.c ****     counter[3] = 1;
  82              		.loc 1 235 16 view .LVU14
  83 002e 0122     		movs	r2, #1
  84              	.LVL3:
 230:D:/fchai/work/i-cube/I-CUBE-HUAWEI/Middlewares/Third_Party/Huawei/iot_link/network/dtls/mbedtls/mbedtls-2.16.2/library\pkcs5.c ****     unsigned char *out_p = output;
  85              		.loc 1 230 5 is_stmt 1 view .LVU15
 231:D:/fchai/work/i-cube/I-CUBE-HUAWEI/Middlewares/Third_Party/Huawei/iot_link/network/dtls/mbedtls/mbedtls-2.16.2/library\pkcs5.c ****     unsigned char counter[4];
  86              		.loc 1 231 5 view .LVU16
 232:D:/fchai/work/i-cube/I-CUBE-HUAWEI/Middlewares/Third_Party/Huawei/iot_link/network/dtls/mbedtls/mbedtls-2.16.2/library\pkcs5.c **** 
  87              		.loc 1 232 5 view .LVU17
 234:D:/fchai/work/i-cube/I-CUBE-HUAWEI/Middlewares/Third_Party/Huawei/iot_link/network/dtls/mbedtls/mbedtls-2.16.2/library\pkcs5.c ****     counter[3] = 1;
  88              		.loc 1 234 5 view .LVU18
 235:D:/fchai/work/i-cube/I-CUBE-HUAWEI/Middlewares/Third_Party/Huawei/iot_link/network/dtls/mbedtls/mbedtls-2.16.2/library\pkcs5.c **** 
  89              		.loc 1 235 5 view .LVU19
 235:D:/fchai/work/i-cube/I-CUBE-HUAWEI/Middlewares/Third_Party/Huawei/iot_link/network/dtls/mbedtls/mbedtls-2.16.2/library\pkcs5.c **** 
ARM GAS  T:\msys\tmp\ccGVICEu.s 			page 7


  90              		.loc 1 235 16 is_stmt 0 view .LVU20
  91 0030 8DF80720 		strb	r2, [sp, #7]
  92              		.loc 1 242 5 is_stmt 1 view .LVU21
  93              	.LVL4:
  94              		.loc 1 242 10 view .LVU22
  95 0034 002B     		cmp	r3, #0
  96 0036 66D0     		beq	.L2
  97 0038 0AAB     		add	r3, sp, #40
  98              	.LVL5:
  99              		.loc 1 242 10 is_stmt 0 view .LVU23
 100 003a 0646     		mov	r6, r0
 101 003c 03EB000A 		add	r10, r3, r0
 102              	.LVL6:
 103              	.L10:
 243:D:/fchai/work/i-cube/I-CUBE-HUAWEI/Middlewares/Third_Party/Huawei/iot_link/network/dtls/mbedtls/mbedtls-2.16.2/library\pkcs5.c ****     {
 244:D:/fchai/work/i-cube/I-CUBE-HUAWEI/Middlewares/Third_Party/Huawei/iot_link/network/dtls/mbedtls/mbedtls-2.16.2/library\pkcs5.c ****         // U1 ends up in work
 245:D:/fchai/work/i-cube/I-CUBE-HUAWEI/Middlewares/Third_Party/Huawei/iot_link/network/dtls/mbedtls/mbedtls-2.16.2/library\pkcs5.c ****         //
 246:D:/fchai/work/i-cube/I-CUBE-HUAWEI/Middlewares/Third_Party/Huawei/iot_link/network/dtls/mbedtls/mbedtls-2.16.2/library\pkcs5.c ****         if( ( ret = mbedtls_md_hmac_starts( ctx, password, plen ) ) != 0 )
 104              		.loc 1 246 9 is_stmt 1 view .LVU24
 105              		.loc 1 246 21 is_stmt 0 view .LVU25
 106 0040 4246     		mov	r2, r8
 107 0042 3946     		mov	r1, r7
 108 0044 2046     		mov	r0, r4
 109 0046 FFF7FEFF 		bl	mbedtls_md_hmac_starts
 110              	.LVL7:
 111              		.loc 1 246 11 view .LVU26
 112 004a 0028     		cmp	r0, #0
 113 004c 5CD1     		bne	.L1
 247:D:/fchai/work/i-cube/I-CUBE-HUAWEI/Middlewares/Third_Party/Huawei/iot_link/network/dtls/mbedtls/mbedtls-2.16.2/library\pkcs5.c ****             return( ret );
 248:D:/fchai/work/i-cube/I-CUBE-HUAWEI/Middlewares/Third_Party/Huawei/iot_link/network/dtls/mbedtls/mbedtls-2.16.2/library\pkcs5.c **** 
 249:D:/fchai/work/i-cube/I-CUBE-HUAWEI/Middlewares/Third_Party/Huawei/iot_link/network/dtls/mbedtls/mbedtls-2.16.2/library\pkcs5.c ****         if( ( ret = mbedtls_md_hmac_update( ctx, salt, slen ) ) != 0 )
 114              		.loc 1 249 9 is_stmt 1 view .LVU27
 115              		.loc 1 249 21 is_stmt 0 view .LVU28
 116 004e 1E9A     		ldr	r2, [sp, #120]
 117 0050 18EE101A 		vmov	r1, s16	@ int
 118 0054 2046     		mov	r0, r4
 119              	.LVL8:
 120              		.loc 1 249 21 view .LVU29
 121 0056 FFF7FEFF 		bl	mbedtls_md_hmac_update
 122              	.LVL9:
 123              		.loc 1 249 11 view .LVU30
 124 005a 0028     		cmp	r0, #0
 125 005c 54D1     		bne	.L1
 250:D:/fchai/work/i-cube/I-CUBE-HUAWEI/Middlewares/Third_Party/Huawei/iot_link/network/dtls/mbedtls/mbedtls-2.16.2/library\pkcs5.c ****             return( ret );
 251:D:/fchai/work/i-cube/I-CUBE-HUAWEI/Middlewares/Third_Party/Huawei/iot_link/network/dtls/mbedtls/mbedtls-2.16.2/library\pkcs5.c **** 
 252:D:/fchai/work/i-cube/I-CUBE-HUAWEI/Middlewares/Third_Party/Huawei/iot_link/network/dtls/mbedtls/mbedtls-2.16.2/library\pkcs5.c ****         if( ( ret = mbedtls_md_hmac_update( ctx, counter, 4 ) ) != 0 )
 126              		.loc 1 252 9 is_stmt 1 view .LVU31
 127              		.loc 1 252 21 is_stmt 0 view .LVU32
 128 005e 0422     		movs	r2, #4
 129 0060 5946     		mov	r1, fp
 130 0062 2046     		mov	r0, r4
 131              	.LVL10:
 132              		.loc 1 252 21 view .LVU33
 133 0064 FFF7FEFF 		bl	mbedtls_md_hmac_update
 134              	.LVL11:
 135              		.loc 1 252 11 view .LVU34
 136 0068 0028     		cmp	r0, #0
ARM GAS  T:\msys\tmp\ccGVICEu.s 			page 8


 137 006a 4DD1     		bne	.L1
 253:D:/fchai/work/i-cube/I-CUBE-HUAWEI/Middlewares/Third_Party/Huawei/iot_link/network/dtls/mbedtls/mbedtls-2.16.2/library\pkcs5.c ****             return( ret );
 254:D:/fchai/work/i-cube/I-CUBE-HUAWEI/Middlewares/Third_Party/Huawei/iot_link/network/dtls/mbedtls/mbedtls-2.16.2/library\pkcs5.c **** 
 255:D:/fchai/work/i-cube/I-CUBE-HUAWEI/Middlewares/Third_Party/Huawei/iot_link/network/dtls/mbedtls/mbedtls-2.16.2/library\pkcs5.c ****         if( ( ret = mbedtls_md_hmac_finish( ctx, work ) ) != 0 )
 138              		.loc 1 255 9 is_stmt 1 view .LVU35
 139              		.loc 1 255 21 is_stmt 0 view .LVU36
 140 006c 0AA9     		add	r1, sp, #40
 141 006e 2046     		mov	r0, r4
 142              	.LVL12:
 143              		.loc 1 255 21 view .LVU37
 144 0070 FFF7FEFF 		bl	mbedtls_md_hmac_finish
 145              	.LVL13:
 146              		.loc 1 255 11 view .LVU38
 147 0074 0028     		cmp	r0, #0
 148 0076 47D1     		bne	.L1
 256:D:/fchai/work/i-cube/I-CUBE-HUAWEI/Middlewares/Third_Party/Huawei/iot_link/network/dtls/mbedtls/mbedtls-2.16.2/library\pkcs5.c ****             return( ret );
 257:D:/fchai/work/i-cube/I-CUBE-HUAWEI/Middlewares/Third_Party/Huawei/iot_link/network/dtls/mbedtls/mbedtls-2.16.2/library\pkcs5.c **** 
 258:D:/fchai/work/i-cube/I-CUBE-HUAWEI/Middlewares/Third_Party/Huawei/iot_link/network/dtls/mbedtls/mbedtls-2.16.2/library\pkcs5.c ****         memcpy( md1, work, md_size );
 149              		.loc 1 258 9 is_stmt 1 view .LVU39
 150 0078 02A8     		add	r0, sp, #8
 151              	.LVL14:
 152              		.loc 1 258 9 is_stmt 0 view .LVU40
 153 007a 3246     		mov	r2, r6
 154 007c 0AA9     		add	r1, sp, #40
 155 007e FFF7FEFF 		bl	memcpy
 156              	.LVL15:
 259:D:/fchai/work/i-cube/I-CUBE-HUAWEI/Middlewares/Third_Party/Huawei/iot_link/network/dtls/mbedtls/mbedtls-2.16.2/library\pkcs5.c **** 
 260:D:/fchai/work/i-cube/I-CUBE-HUAWEI/Middlewares/Third_Party/Huawei/iot_link/network/dtls/mbedtls/mbedtls-2.16.2/library\pkcs5.c ****         for( i = 1; i < iteration_count; i++ )
 157              		.loc 1 260 9 is_stmt 1 view .LVU41
 158              		.loc 1 260 21 view .LVU42
 159              		.loc 1 260 9 is_stmt 0 view .LVU43
 160 0082 B9F1010F 		cmp	r9, #1
 161 0086 20D9     		bls	.L4
 162              		.loc 1 260 16 view .LVU44
 163 0088 0125     		movs	r5, #1
 164              	.LVL16:
 165              	.L7:
 261:D:/fchai/work/i-cube/I-CUBE-HUAWEI/Middlewares/Third_Party/Huawei/iot_link/network/dtls/mbedtls/mbedtls-2.16.2/library\pkcs5.c ****         {
 262:D:/fchai/work/i-cube/I-CUBE-HUAWEI/Middlewares/Third_Party/Huawei/iot_link/network/dtls/mbedtls/mbedtls-2.16.2/library\pkcs5.c ****             // U2 ends up in md1
 263:D:/fchai/work/i-cube/I-CUBE-HUAWEI/Middlewares/Third_Party/Huawei/iot_link/network/dtls/mbedtls/mbedtls-2.16.2/library\pkcs5.c ****             //
 264:D:/fchai/work/i-cube/I-CUBE-HUAWEI/Middlewares/Third_Party/Huawei/iot_link/network/dtls/mbedtls/mbedtls-2.16.2/library\pkcs5.c ****             if( ( ret = mbedtls_md_hmac_starts( ctx, password, plen ) ) != 0 )
 166              		.loc 1 264 13 is_stmt 1 view .LVU45
 167              		.loc 1 264 25 is_stmt 0 view .LVU46
 168 008a 4246     		mov	r2, r8
 169 008c 3946     		mov	r1, r7
 170 008e 2046     		mov	r0, r4
 171 0090 FFF7FEFF 		bl	mbedtls_md_hmac_starts
 172              	.LVL17:
 173              		.loc 1 264 15 view .LVU47
 174 0094 0028     		cmp	r0, #0
 175 0096 37D1     		bne	.L1
 265:D:/fchai/work/i-cube/I-CUBE-HUAWEI/Middlewares/Third_Party/Huawei/iot_link/network/dtls/mbedtls/mbedtls-2.16.2/library\pkcs5.c ****                 return( ret );
 266:D:/fchai/work/i-cube/I-CUBE-HUAWEI/Middlewares/Third_Party/Huawei/iot_link/network/dtls/mbedtls/mbedtls-2.16.2/library\pkcs5.c **** 
 267:D:/fchai/work/i-cube/I-CUBE-HUAWEI/Middlewares/Third_Party/Huawei/iot_link/network/dtls/mbedtls/mbedtls-2.16.2/library\pkcs5.c ****             if( ( ret = mbedtls_md_hmac_update( ctx, md1, md_size ) ) != 0 )
 176              		.loc 1 267 13 is_stmt 1 view .LVU48
 177              		.loc 1 267 25 is_stmt 0 view .LVU49
 178 0098 3246     		mov	r2, r6
ARM GAS  T:\msys\tmp\ccGVICEu.s 			page 9


 179 009a 02A9     		add	r1, sp, #8
 180 009c 2046     		mov	r0, r4
 181              	.LVL18:
 182              		.loc 1 267 25 view .LVU50
 183 009e FFF7FEFF 		bl	mbedtls_md_hmac_update
 184              	.LVL19:
 185              		.loc 1 267 15 view .LVU51
 186 00a2 88BB     		cbnz	r0, .L1
 268:D:/fchai/work/i-cube/I-CUBE-HUAWEI/Middlewares/Third_Party/Huawei/iot_link/network/dtls/mbedtls/mbedtls-2.16.2/library\pkcs5.c ****                 return( ret );
 269:D:/fchai/work/i-cube/I-CUBE-HUAWEI/Middlewares/Third_Party/Huawei/iot_link/network/dtls/mbedtls/mbedtls-2.16.2/library\pkcs5.c **** 
 270:D:/fchai/work/i-cube/I-CUBE-HUAWEI/Middlewares/Third_Party/Huawei/iot_link/network/dtls/mbedtls/mbedtls-2.16.2/library\pkcs5.c ****             if( ( ret = mbedtls_md_hmac_finish( ctx, md1 ) ) != 0 )
 187              		.loc 1 270 13 is_stmt 1 view .LVU52
 188              		.loc 1 270 25 is_stmt 0 view .LVU53
 189 00a4 02A9     		add	r1, sp, #8
 190 00a6 2046     		mov	r0, r4
 191              	.LVL20:
 192              		.loc 1 270 25 view .LVU54
 193 00a8 FFF7FEFF 		bl	mbedtls_md_hmac_finish
 194              	.LVL21:
 195              		.loc 1 270 15 view .LVU55
 196 00ac 60BB     		cbnz	r0, .L1
 197              	.LVL22:
 271:D:/fchai/work/i-cube/I-CUBE-HUAWEI/Middlewares/Third_Party/Huawei/iot_link/network/dtls/mbedtls/mbedtls-2.16.2/library\pkcs5.c ****                 return( ret );
 272:D:/fchai/work/i-cube/I-CUBE-HUAWEI/Middlewares/Third_Party/Huawei/iot_link/network/dtls/mbedtls/mbedtls-2.16.2/library\pkcs5.c **** 
 273:D:/fchai/work/i-cube/I-CUBE-HUAWEI/Middlewares/Third_Party/Huawei/iot_link/network/dtls/mbedtls/mbedtls-2.16.2/library\pkcs5.c ****             // U1 xor U2
 274:D:/fchai/work/i-cube/I-CUBE-HUAWEI/Middlewares/Third_Party/Huawei/iot_link/network/dtls/mbedtls/mbedtls-2.16.2/library\pkcs5.c ****             //
 275:D:/fchai/work/i-cube/I-CUBE-HUAWEI/Middlewares/Third_Party/Huawei/iot_link/network/dtls/mbedtls/mbedtls-2.16.2/library\pkcs5.c ****             for( j = 0; j < md_size; j++ )
 198              		.loc 1 275 25 is_stmt 1 view .LVU56
 199              		.loc 1 275 13 is_stmt 0 view .LVU57
 200 00ae 4EB1     		cbz	r6, .L5
 201 00b0 0AAB     		add	r3, sp, #40
 202 00b2 02A9     		add	r1, sp, #8
 203              	.LVL23:
 204              	.L6:
 276:D:/fchai/work/i-cube/I-CUBE-HUAWEI/Middlewares/Third_Party/Huawei/iot_link/network/dtls/mbedtls/mbedtls-2.16.2/library\pkcs5.c ****                 work[j] ^= md1[j];
 205              		.loc 1 276 17 is_stmt 1 discriminator 3 view .LVU58
 206              		.loc 1 276 25 is_stmt 0 discriminator 3 view .LVU59
 207 00b4 1A78     		ldrb	r2, [r3]	@ zero_extendqisi2
 208              		.loc 1 276 31 discriminator 3 view .LVU60
 209 00b6 11F8010B 		ldrb	r0, [r1], #1	@ zero_extendqisi2
 210              		.loc 1 276 25 discriminator 3 view .LVU61
 211 00ba 4240     		eors	r2, r2, r0
 212 00bc 03F8012B 		strb	r2, [r3], #1
 213              	.LVL24:
 275:D:/fchai/work/i-cube/I-CUBE-HUAWEI/Middlewares/Third_Party/Huawei/iot_link/network/dtls/mbedtls/mbedtls-2.16.2/library\pkcs5.c ****                 work[j] ^= md1[j];
 214              		.loc 1 275 38 is_stmt 1 discriminator 3 view .LVU62
 275:D:/fchai/work/i-cube/I-CUBE-HUAWEI/Middlewares/Third_Party/Huawei/iot_link/network/dtls/mbedtls/mbedtls-2.16.2/library\pkcs5.c ****                 work[j] ^= md1[j];
 215              		.loc 1 275 25 discriminator 3 view .LVU63
 275:D:/fchai/work/i-cube/I-CUBE-HUAWEI/Middlewares/Third_Party/Huawei/iot_link/network/dtls/mbedtls/mbedtls-2.16.2/library\pkcs5.c ****                 work[j] ^= md1[j];
 216              		.loc 1 275 13 is_stmt 0 discriminator 3 view .LVU64
 217 00c0 5345     		cmp	r3, r10
 218 00c2 F7D1     		bne	.L6
 219              	.LVL25:
 220              	.L5:
 260:D:/fchai/work/i-cube/I-CUBE-HUAWEI/Middlewares/Third_Party/Huawei/iot_link/network/dtls/mbedtls/mbedtls-2.16.2/library\pkcs5.c ****         {
 221              		.loc 1 260 42 is_stmt 1 view .LVU65
 260:D:/fchai/work/i-cube/I-CUBE-HUAWEI/Middlewares/Third_Party/Huawei/iot_link/network/dtls/mbedtls/mbedtls-2.16.2/library\pkcs5.c ****         {
ARM GAS  T:\msys\tmp\ccGVICEu.s 			page 10


 222              		.loc 1 260 43 is_stmt 0 view .LVU66
 223 00c4 0135     		adds	r5, r5, #1
 224              	.LVL26:
 260:D:/fchai/work/i-cube/I-CUBE-HUAWEI/Middlewares/Third_Party/Huawei/iot_link/network/dtls/mbedtls/mbedtls-2.16.2/library\pkcs5.c ****         {
 225              		.loc 1 260 21 is_stmt 1 view .LVU67
 260:D:/fchai/work/i-cube/I-CUBE-HUAWEI/Middlewares/Third_Party/Huawei/iot_link/network/dtls/mbedtls/mbedtls-2.16.2/library\pkcs5.c ****         {
 226              		.loc 1 260 9 is_stmt 0 view .LVU68
 227 00c6 A945     		cmp	r9, r5
 228 00c8 DFD1     		bne	.L7
 229              	.LVL27:
 230              	.L4:
 277:D:/fchai/work/i-cube/I-CUBE-HUAWEI/Middlewares/Third_Party/Huawei/iot_link/network/dtls/mbedtls/mbedtls-2.16.2/library\pkcs5.c ****         }
 278:D:/fchai/work/i-cube/I-CUBE-HUAWEI/Middlewares/Third_Party/Huawei/iot_link/network/dtls/mbedtls/mbedtls-2.16.2/library\pkcs5.c **** 
 279:D:/fchai/work/i-cube/I-CUBE-HUAWEI/Middlewares/Third_Party/Huawei/iot_link/network/dtls/mbedtls/mbedtls-2.16.2/library\pkcs5.c ****         use_len = ( key_length < md_size ) ? key_length : md_size;
 231              		.loc 1 279 9 is_stmt 1 view .LVU69
 232              		.loc 1 279 17 is_stmt 0 view .LVU70
 233 00ca 209B     		ldr	r3, [sp, #128]
 234 00cc B342     		cmp	r3, r6
 235 00ce 28BF     		it	cs
 236 00d0 3346     		movcs	r3, r6
 237 00d2 1D46     		mov	r5, r3
 238              	.LVL28:
 280:D:/fchai/work/i-cube/I-CUBE-HUAWEI/Middlewares/Third_Party/Huawei/iot_link/network/dtls/mbedtls/mbedtls-2.16.2/library\pkcs5.c ****         memcpy( out_p, work, use_len );
 239              		.loc 1 280 9 is_stmt 1 view .LVU71
 240 00d4 1A46     		mov	r2, r3
 281:D:/fchai/work/i-cube/I-CUBE-HUAWEI/Middlewares/Third_Party/Huawei/iot_link/network/dtls/mbedtls/mbedtls-2.16.2/library\pkcs5.c **** 
 282:D:/fchai/work/i-cube/I-CUBE-HUAWEI/Middlewares/Third_Party/Huawei/iot_link/network/dtls/mbedtls/mbedtls-2.16.2/library\pkcs5.c ****         key_length -= (uint32_t) use_len;
 241              		.loc 1 282 20 is_stmt 0 view .LVU72
 242 00d6 DDE92030 		ldrd	r3, r0, [sp, #128]
 243              	.LVL29:
 280:D:/fchai/work/i-cube/I-CUBE-HUAWEI/Middlewares/Third_Party/Huawei/iot_link/network/dtls/mbedtls/mbedtls-2.16.2/library\pkcs5.c ****         memcpy( out_p, work, use_len );
 244              		.loc 1 280 9 view .LVU73
 245 00da 0AA9     		add	r1, sp, #40
 246              		.loc 1 282 20 view .LVU74
 247 00dc 5B1B     		subs	r3, r3, r5
 248 00de 2093     		str	r3, [sp, #128]
 249              	.LVL30:
 280:D:/fchai/work/i-cube/I-CUBE-HUAWEI/Middlewares/Third_Party/Huawei/iot_link/network/dtls/mbedtls/mbedtls-2.16.2/library\pkcs5.c ****         memcpy( out_p, work, use_len );
 250              		.loc 1 280 9 view .LVU75
 251 00e0 FFF7FEFF 		bl	memcpy
 252              	.LVL31:
 253              		.loc 1 282 9 is_stmt 1 view .LVU76
 283:D:/fchai/work/i-cube/I-CUBE-HUAWEI/Middlewares/Third_Party/Huawei/iot_link/network/dtls/mbedtls/mbedtls-2.16.2/library\pkcs5.c ****         out_p += use_len;
 254              		.loc 1 283 9 view .LVU77
 255              		.loc 1 283 15 is_stmt 0 view .LVU78
 256 00e4 219B     		ldr	r3, [sp, #132]
 257 00e6 2B44     		add	r3, r3, r5
 258 00e8 2193     		str	r3, [sp, #132]
 259              	.LVL32:
 284:D:/fchai/work/i-cube/I-CUBE-HUAWEI/Middlewares/Third_Party/Huawei/iot_link/network/dtls/mbedtls/mbedtls-2.16.2/library\pkcs5.c **** 
 285:D:/fchai/work/i-cube/I-CUBE-HUAWEI/Middlewares/Third_Party/Huawei/iot_link/network/dtls/mbedtls/mbedtls-2.16.2/library\pkcs5.c ****         for( i = 4; i > 0; i-- )
 260              		.loc 1 285 9 is_stmt 1 view .LVU79
 261              		.loc 1 285 21 view .LVU80
 262 00ea 0DF10701 		add	r1, sp, #7
 263              	.LVL33:
 264              	.L9:
 286:D:/fchai/work/i-cube/I-CUBE-HUAWEI/Middlewares/Third_Party/Huawei/iot_link/network/dtls/mbedtls/mbedtls-2.16.2/library\pkcs5.c ****             if( ++counter[i - 1] != 0 )
ARM GAS  T:\msys\tmp\ccGVICEu.s 			page 11


 265              		.loc 1 286 13 view .LVU81
 266              		.loc 1 286 26 is_stmt 0 view .LVU82
 267 00ee 0B78     		ldrb	r3, [r1]	@ zero_extendqisi2
 268              		.loc 1 286 17 view .LVU83
 269 00f0 0133     		adds	r3, r3, #1
 270 00f2 DBB2     		uxtb	r3, r3
 271 00f4 0A46     		mov	r2, r1
 272              	.LVL34:
 285:D:/fchai/work/i-cube/I-CUBE-HUAWEI/Middlewares/Third_Party/Huawei/iot_link/network/dtls/mbedtls/mbedtls-2.16.2/library\pkcs5.c ****             if( ++counter[i - 1] != 0 )
 273              		.loc 1 285 21 is_stmt 1 view .LVU84
 274              		.loc 1 286 15 is_stmt 0 view .LVU85
 275 00f6 01F80139 		strb	r3, [r1], #-1
 276              	.LVL35:
 277              		.loc 1 286 15 view .LVU86
 278 00fa 0BB9     		cbnz	r3, .L8
 285:D:/fchai/work/i-cube/I-CUBE-HUAWEI/Middlewares/Third_Party/Huawei/iot_link/network/dtls/mbedtls/mbedtls-2.16.2/library\pkcs5.c ****             if( ++counter[i - 1] != 0 )
 279              		.loc 1 285 9 discriminator 1 view .LVU87
 280 00fc 9345     		cmp	fp, r2
 281 00fe F6D1     		bne	.L9
 282              	.L8:
 242:D:/fchai/work/i-cube/I-CUBE-HUAWEI/Middlewares/Third_Party/Huawei/iot_link/network/dtls/mbedtls/mbedtls-2.16.2/library\pkcs5.c ****     {
 283              		.loc 1 242 10 is_stmt 1 view .LVU88
 284 0100 209B     		ldr	r3, [sp, #128]
 285 0102 002B     		cmp	r3, #0
 286 0104 9CD1     		bne	.L10
 287              	.LVL36:
 288              	.L2:
 287:D:/fchai/work/i-cube/I-CUBE-HUAWEI/Middlewares/Third_Party/Huawei/iot_link/network/dtls/mbedtls/mbedtls-2.16.2/library\pkcs5.c ****                 break;
 288:D:/fchai/work/i-cube/I-CUBE-HUAWEI/Middlewares/Third_Party/Huawei/iot_link/network/dtls/mbedtls/mbedtls-2.16.2/library\pkcs5.c ****     }
 289:D:/fchai/work/i-cube/I-CUBE-HUAWEI/Middlewares/Third_Party/Huawei/iot_link/network/dtls/mbedtls/mbedtls-2.16.2/library\pkcs5.c **** 
 290:D:/fchai/work/i-cube/I-CUBE-HUAWEI/Middlewares/Third_Party/Huawei/iot_link/network/dtls/mbedtls/mbedtls-2.16.2/library\pkcs5.c ****     return( 0 );
 289              		.loc 1 290 11 is_stmt 0 view .LVU89
 290 0106 0020     		movs	r0, #0
 291              	.LVL37:
 292              	.L1:
 291:D:/fchai/work/i-cube/I-CUBE-HUAWEI/Middlewares/Third_Party/Huawei/iot_link/network/dtls/mbedtls/mbedtls-2.16.2/library\pkcs5.c **** }
 293              		.loc 1 291 1 view .LVU90
 294 0108 13B0     		add	sp, sp, #76
 295              	.LCFI3:
 296              		.cfi_def_cfa_offset 44
 297              		@ sp needed
 298 010a BDEC028B 		vldm	sp!, {d8}
 299              	.LCFI4:
 300              		.cfi_restore 80
 301              		.cfi_restore 81
 302              		.cfi_def_cfa_offset 36
 303              	.LVL38:
 304              		.loc 1 291 1 view .LVU91
 305 010e BDE8F08F 		pop	{r4, r5, r6, r7, r8, r9, r10, fp, pc}
 306              		.loc 1 291 1 view .LVU92
 307              		.cfi_endproc
 308              	.LFE15:
 310 0112 00BF     		.section	.rodata.mbedtls_pkcs5_pbes2.str1.4,"aMS",%progbits,1
 311              		.align	2
 312              	.LC0:
 313 0000 2A864886 		.ascii	"*\206H\206\367\015\001\005\014\000"
 313      F70D0105 
ARM GAS  T:\msys\tmp\ccGVICEu.s 			page 12


 313      0C00
 314              		.section	.text.mbedtls_pkcs5_pbes2,"ax",%progbits
 315              		.align	1
 316              		.p2align 2,,3
 317              		.global	mbedtls_pkcs5_pbes2
 318              		.syntax unified
 319              		.thumb
 320              		.thumb_func
 321              		.fpu fpv4-sp-d16
 323              	mbedtls_pkcs5_pbes2:
 324              	.LVL39:
 325              	.LFB14:
 117:D:/fchai/work/i-cube/I-CUBE-HUAWEI/Middlewares/Third_Party/Huawei/iot_link/network/dtls/mbedtls/mbedtls-2.16.2/library\pkcs5.c ****     int ret, iterations = 0, keylen = 0;
 326              		.loc 1 117 1 is_stmt 1 view -0
 327              		.cfi_startproc
 328              		@ args = 12, pretend = 0, frame = 224
 329              		@ frame_needed = 0, uses_anonymous_args = 0
 118:D:/fchai/work/i-cube/I-CUBE-HUAWEI/Middlewares/Third_Party/Huawei/iot_link/network/dtls/mbedtls/mbedtls-2.16.2/library\pkcs5.c ****     unsigned char *p, *end;
 330              		.loc 1 118 5 view .LVU94
 117:D:/fchai/work/i-cube/I-CUBE-HUAWEI/Middlewares/Third_Party/Huawei/iot_link/network/dtls/mbedtls/mbedtls-2.16.2/library\pkcs5.c ****     int ret, iterations = 0, keylen = 0;
 331              		.loc 1 117 1 is_stmt 0 view .LVU95
 332 0000 2DE9F043 		push	{r4, r5, r6, r7, r8, r9, lr}
 333              	.LCFI5:
 334              		.cfi_def_cfa_offset 28
 335              		.cfi_offset 4, -28
 336              		.cfi_offset 5, -24
 337              		.cfi_offset 6, -20
 338              		.cfi_offset 7, -16
 339              		.cfi_offset 8, -12
 340              		.cfi_offset 9, -8
 341              		.cfi_offset 14, -4
 132:D:/fchai/work/i-cube/I-CUBE-HUAWEI/Middlewares/Third_Party/Huawei/iot_link/network/dtls/mbedtls/mbedtls-2.16.2/library\pkcs5.c **** 
 342              		.loc 1 132 9 view .LVU96
 343 0004 D0E90187 		ldrd	r8, r7, [r0, #4]
 117:D:/fchai/work/i-cube/I-CUBE-HUAWEI/Middlewares/Third_Party/Huawei/iot_link/network/dtls/mbedtls/mbedtls-2.16.2/library\pkcs5.c ****     int ret, iterations = 0, keylen = 0;
 344              		.loc 1 117 1 view .LVU97
 345 0008 BDB0     		sub	sp, sp, #244
 346              	.LCFI6:
 347              		.cfi_def_cfa_offset 272
 140:D:/fchai/work/i-cube/I-CUBE-HUAWEI/Middlewares/Third_Party/Huawei/iot_link/network/dtls/mbedtls/mbedtls-2.16.2/library\pkcs5.c ****         return( MBEDTLS_ERR_PKCS5_INVALID_FORMAT +
 348              		.loc 1 140 7 view .LVU98
 349 000a D0F800C0 		ldr	ip, [r0]
 131:D:/fchai/work/i-cube/I-CUBE-HUAWEI/Middlewares/Third_Party/Huawei/iot_link/network/dtls/mbedtls/mbedtls-2.16.2/library\pkcs5.c ****     end = p + pbe_params->len;
 350              		.loc 1 131 7 view .LVU99
 351 000e 0897     		str	r7, [sp, #32]
 118:D:/fchai/work/i-cube/I-CUBE-HUAWEI/Middlewares/Third_Party/Huawei/iot_link/network/dtls/mbedtls/mbedtls-2.16.2/library\pkcs5.c ****     unsigned char *p, *end;
 352              		.loc 1 118 14 view .LVU100
 353 0010 0020     		movs	r0, #0
 354              	.LVL40:
 132:D:/fchai/work/i-cube/I-CUBE-HUAWEI/Middlewares/Third_Party/Huawei/iot_link/network/dtls/mbedtls/mbedtls-2.16.2/library\pkcs5.c **** 
 355              		.loc 1 132 9 view .LVU101
 356 0012 B844     		add	r8, r8, r7
 140:D:/fchai/work/i-cube/I-CUBE-HUAWEI/Middlewares/Third_Party/Huawei/iot_link/network/dtls/mbedtls/mbedtls-2.16.2/library\pkcs5.c ****         return( MBEDTLS_ERR_PKCS5_INVALID_FORMAT +
 357              		.loc 1 140 7 view .LVU102
 358 0014 BCF1300F 		cmp	ip, #48
 122:D:/fchai/work/i-cube/I-CUBE-HUAWEI/Middlewares/Third_Party/Huawei/iot_link/network/dtls/mbedtls/mbedtls-2.16.2/library\pkcs5.c ****     unsigned char key[32], iv[32];
 359              		.loc 1 122 23 view .LVU103
ARM GAS  T:\msys\tmp\ccGVICEu.s 			page 13


 360 0018 4FF00407 		mov	r7, #4
 118:D:/fchai/work/i-cube/I-CUBE-HUAWEI/Middlewares/Third_Party/Huawei/iot_link/network/dtls/mbedtls/mbedtls-2.16.2/library\pkcs5.c ****     unsigned char *p, *end;
 361              		.loc 1 118 30 view .LVU104
 362 001c CDE90600 		strd	r0, r0, [sp, #24]
 119:D:/fchai/work/i-cube/I-CUBE-HUAWEI/Middlewares/Third_Party/Huawei/iot_link/network/dtls/mbedtls/mbedtls-2.16.2/library\pkcs5.c ****     mbedtls_asn1_buf kdf_alg_oid, enc_scheme_oid, kdf_alg_params, enc_scheme_params;
 363              		.loc 1 119 5 is_stmt 1 view .LVU105
 120:D:/fchai/work/i-cube/I-CUBE-HUAWEI/Middlewares/Third_Party/Huawei/iot_link/network/dtls/mbedtls/mbedtls-2.16.2/library\pkcs5.c ****     mbedtls_asn1_buf salt;
 364              		.loc 1 120 5 view .LVU106
 121:D:/fchai/work/i-cube/I-CUBE-HUAWEI/Middlewares/Third_Party/Huawei/iot_link/network/dtls/mbedtls/mbedtls-2.16.2/library\pkcs5.c ****     mbedtls_md_type_t md_type = MBEDTLS_MD_SHA1;
 365              		.loc 1 121 5 view .LVU107
 122:D:/fchai/work/i-cube/I-CUBE-HUAWEI/Middlewares/Third_Party/Huawei/iot_link/network/dtls/mbedtls/mbedtls-2.16.2/library\pkcs5.c ****     unsigned char key[32], iv[32];
 366              		.loc 1 122 5 view .LVU108
 124:D:/fchai/work/i-cube/I-CUBE-HUAWEI/Middlewares/Third_Party/Huawei/iot_link/network/dtls/mbedtls/mbedtls-2.16.2/library\pkcs5.c ****     const mbedtls_md_info_t *md_info;
 367              		.loc 1 124 12 is_stmt 0 view .LVU109
 368 0020 0990     		str	r0, [sp, #36]
 122:D:/fchai/work/i-cube/I-CUBE-HUAWEI/Middlewares/Third_Party/Huawei/iot_link/network/dtls/mbedtls/mbedtls-2.16.2/library\pkcs5.c ****     unsigned char key[32], iv[32];
 369              		.loc 1 122 23 view .LVU110
 370 0022 8DF81670 		strb	r7, [sp, #22]
 123:D:/fchai/work/i-cube/I-CUBE-HUAWEI/Middlewares/Third_Party/Huawei/iot_link/network/dtls/mbedtls/mbedtls-2.16.2/library\pkcs5.c ****     size_t olen = 0;
 371              		.loc 1 123 5 is_stmt 1 view .LVU111
 124:D:/fchai/work/i-cube/I-CUBE-HUAWEI/Middlewares/Third_Party/Huawei/iot_link/network/dtls/mbedtls/mbedtls-2.16.2/library\pkcs5.c ****     const mbedtls_md_info_t *md_info;
 372              		.loc 1 124 5 view .LVU112
 125:D:/fchai/work/i-cube/I-CUBE-HUAWEI/Middlewares/Third_Party/Huawei/iot_link/network/dtls/mbedtls/mbedtls-2.16.2/library\pkcs5.c ****     const mbedtls_cipher_info_t *cipher_info;
 373              		.loc 1 125 5 view .LVU113
 126:D:/fchai/work/i-cube/I-CUBE-HUAWEI/Middlewares/Third_Party/Huawei/iot_link/network/dtls/mbedtls/mbedtls-2.16.2/library\pkcs5.c ****     mbedtls_md_context_t md_ctx;
 374              		.loc 1 126 5 view .LVU114
 127:D:/fchai/work/i-cube/I-CUBE-HUAWEI/Middlewares/Third_Party/Huawei/iot_link/network/dtls/mbedtls/mbedtls-2.16.2/library\pkcs5.c ****     mbedtls_cipher_type_t cipher_alg;
 375              		.loc 1 127 5 view .LVU115
 128:D:/fchai/work/i-cube/I-CUBE-HUAWEI/Middlewares/Third_Party/Huawei/iot_link/network/dtls/mbedtls/mbedtls-2.16.2/library\pkcs5.c ****     mbedtls_cipher_context_t cipher_ctx;
 376              		.loc 1 128 5 view .LVU116
 129:D:/fchai/work/i-cube/I-CUBE-HUAWEI/Middlewares/Third_Party/Huawei/iot_link/network/dtls/mbedtls/mbedtls-2.16.2/library\pkcs5.c **** 
 377              		.loc 1 129 5 view .LVU117
 131:D:/fchai/work/i-cube/I-CUBE-HUAWEI/Middlewares/Third_Party/Huawei/iot_link/network/dtls/mbedtls/mbedtls-2.16.2/library\pkcs5.c ****     end = p + pbe_params->len;
 378              		.loc 1 131 5 view .LVU118
 132:D:/fchai/work/i-cube/I-CUBE-HUAWEI/Middlewares/Third_Party/Huawei/iot_link/network/dtls/mbedtls/mbedtls-2.16.2/library\pkcs5.c **** 
 379              		.loc 1 132 5 view .LVU119
 380              	.LVL41:
 140:D:/fchai/work/i-cube/I-CUBE-HUAWEI/Middlewares/Third_Party/Huawei/iot_link/network/dtls/mbedtls/mbedtls-2.16.2/library\pkcs5.c ****         return( MBEDTLS_ERR_PKCS5_INVALID_FORMAT +
 381              		.loc 1 140 5 view .LVU120
 140:D:/fchai/work/i-cube/I-CUBE-HUAWEI/Middlewares/Third_Party/Huawei/iot_link/network/dtls/mbedtls/mbedtls-2.16.2/library\pkcs5.c ****         return( MBEDTLS_ERR_PKCS5_INVALID_FORMAT +
 382              		.loc 1 140 7 is_stmt 0 view .LVU121
 383 0026 40F0B780 		bne	.L46
 144:D:/fchai/work/i-cube/I-CUBE-HUAWEI/Middlewares/Third_Party/Huawei/iot_link/network/dtls/mbedtls/mbedtls-2.16.2/library\pkcs5.c ****         return( MBEDTLS_ERR_PKCS5_INVALID_FORMAT + ret );
 384              		.loc 1 144 5 is_stmt 1 view .LVU122
 385 002a 0E46     		mov	r6, r1
 386 002c 1446     		mov	r4, r2
 387 002e 1D46     		mov	r5, r3
 144:D:/fchai/work/i-cube/I-CUBE-HUAWEI/Middlewares/Third_Party/Huawei/iot_link/network/dtls/mbedtls/mbedtls-2.16.2/library\pkcs5.c ****         return( MBEDTLS_ERR_PKCS5_INVALID_FORMAT + ret );
 388              		.loc 1 144 17 is_stmt 0 view .LVU123
 389 0030 08A8     		add	r0, sp, #32
 390 0032 10AB     		add	r3, sp, #64
 391              	.LVL42:
 144:D:/fchai/work/i-cube/I-CUBE-HUAWEI/Middlewares/Third_Party/Huawei/iot_link/network/dtls/mbedtls/mbedtls-2.16.2/library\pkcs5.c ****         return( MBEDTLS_ERR_PKCS5_INVALID_FORMAT + ret );
 392              		.loc 1 144 17 view .LVU124
 393 0034 0AAA     		add	r2, sp, #40
 394              	.LVL43:
 144:D:/fchai/work/i-cube/I-CUBE-HUAWEI/Middlewares/Third_Party/Huawei/iot_link/network/dtls/mbedtls/mbedtls-2.16.2/library\pkcs5.c ****         return( MBEDTLS_ERR_PKCS5_INVALID_FORMAT + ret );
ARM GAS  T:\msys\tmp\ccGVICEu.s 			page 14


 395              		.loc 1 144 17 view .LVU125
 396 0036 4146     		mov	r1, r8
 397              	.LVL44:
 144:D:/fchai/work/i-cube/I-CUBE-HUAWEI/Middlewares/Third_Party/Huawei/iot_link/network/dtls/mbedtls/mbedtls-2.16.2/library\pkcs5.c ****         return( MBEDTLS_ERR_PKCS5_INVALID_FORMAT + ret );
 398              		.loc 1 144 17 view .LVU126
 399 0038 FFF7FEFF 		bl	mbedtls_asn1_get_alg
 400              	.LVL45:
 144:D:/fchai/work/i-cube/I-CUBE-HUAWEI/Middlewares/Third_Party/Huawei/iot_link/network/dtls/mbedtls/mbedtls-2.16.2/library\pkcs5.c ****         return( MBEDTLS_ERR_PKCS5_INVALID_FORMAT + ret );
 401              		.loc 1 144 7 view .LVU127
 402 003c 0028     		cmp	r0, #0
 403 003e 5FD1     		bne	.L64
 149:D:/fchai/work/i-cube/I-CUBE-HUAWEI/Middlewares/Third_Party/Huawei/iot_link/network/dtls/mbedtls/mbedtls-2.16.2/library\pkcs5.c ****         return( MBEDTLS_ERR_PKCS5_FEATURE_UNAVAILABLE );
 404              		.loc 1 149 5 is_stmt 1 view .LVU128
 149:D:/fchai/work/i-cube/I-CUBE-HUAWEI/Middlewares/Third_Party/Huawei/iot_link/network/dtls/mbedtls/mbedtls-2.16.2/library\pkcs5.c ****         return( MBEDTLS_ERR_PKCS5_FEATURE_UNAVAILABLE );
 405              		.loc 1 149 9 is_stmt 0 view .LVU129
 406 0040 0B9A     		ldr	r2, [sp, #44]
 407 0042 092A     		cmp	r2, #9
 408 0044 40F0CC80 		bne	.L42
 149:D:/fchai/work/i-cube/I-CUBE-HUAWEI/Middlewares/Third_Party/Huawei/iot_link/network/dtls/mbedtls/mbedtls-2.16.2/library\pkcs5.c ****         return( MBEDTLS_ERR_PKCS5_FEATURE_UNAVAILABLE );
 409              		.loc 1 149 9 discriminator 2 view .LVU130
 410 0048 0C99     		ldr	r1, [sp, #48]
 411 004a 6748     		ldr	r0, .L66
 412              	.LVL46:
 149:D:/fchai/work/i-cube/I-CUBE-HUAWEI/Middlewares/Third_Party/Huawei/iot_link/network/dtls/mbedtls/mbedtls-2.16.2/library\pkcs5.c ****         return( MBEDTLS_ERR_PKCS5_FEATURE_UNAVAILABLE );
 413              		.loc 1 149 9 discriminator 2 view .LVU131
 414 004c FFF7FEFF 		bl	memcmp
 415              	.LVL47:
 416 0050 0028     		cmp	r0, #0
 417 0052 40F0C580 		bne	.L42
 152:D:/fchai/work/i-cube/I-CUBE-HUAWEI/Middlewares/Third_Party/Huawei/iot_link/network/dtls/mbedtls/mbedtls-2.16.2/library\pkcs5.c ****                                            &salt, &iterations, &keylen,
 418              		.loc 1 152 5 is_stmt 1 view .LVU132
 419              	.LVL48:
 420              	.LBB4:
 421              	.LBI4:
  58:D:/fchai/work/i-cube/I-CUBE-HUAWEI/Middlewares/Third_Party/Huawei/iot_link/network/dtls/mbedtls/mbedtls-2.16.2/library\pkcs5.c ****                                       mbedtls_asn1_buf *salt, int *iterations,
 422              		.loc 1 58 12 view .LVU133
 423              	.LBB5:
  62:D:/fchai/work/i-cube/I-CUBE-HUAWEI/Middlewares/Third_Party/Huawei/iot_link/network/dtls/mbedtls/mbedtls-2.16.2/library\pkcs5.c ****     mbedtls_asn1_buf prf_alg_oid;
 424              		.loc 1 62 5 view .LVU134
  63:D:/fchai/work/i-cube/I-CUBE-HUAWEI/Middlewares/Third_Party/Huawei/iot_link/network/dtls/mbedtls/mbedtls-2.16.2/library\pkcs5.c ****     unsigned char *p = params->p;
 425              		.loc 1 63 5 view .LVU135
  64:D:/fchai/work/i-cube/I-CUBE-HUAWEI/Middlewares/Third_Party/Huawei/iot_link/network/dtls/mbedtls/mbedtls-2.16.2/library\pkcs5.c ****     const unsigned char *end = params->p + params->len;
 426              		.loc 1 64 5 view .LVU136
  65:D:/fchai/work/i-cube/I-CUBE-HUAWEI/Middlewares/Third_Party/Huawei/iot_link/network/dtls/mbedtls/mbedtls-2.16.2/library\pkcs5.c **** 
 427              		.loc 1 65 26 is_stmt 0 view .LVU137
 428 0056 DDE91113 		ldrd	r1, r3, [sp, #68]
  67:D:/fchai/work/i-cube/I-CUBE-HUAWEI/Middlewares/Third_Party/Huawei/iot_link/network/dtls/mbedtls/mbedtls-2.16.2/library\pkcs5.c ****         return( MBEDTLS_ERR_PKCS5_INVALID_FORMAT +
 429              		.loc 1 67 7 view .LVU138
 430 005a 109A     		ldr	r2, [sp, #64]
  64:D:/fchai/work/i-cube/I-CUBE-HUAWEI/Middlewares/Third_Party/Huawei/iot_link/network/dtls/mbedtls/mbedtls-2.16.2/library\pkcs5.c ****     const unsigned char *end = params->p + params->len;
 431              		.loc 1 64 20 view .LVU139
 432 005c 2493     		str	r3, [sp, #144]
  65:D:/fchai/work/i-cube/I-CUBE-HUAWEI/Middlewares/Third_Party/Huawei/iot_link/network/dtls/mbedtls/mbedtls-2.16.2/library\pkcs5.c **** 
 433              		.loc 1 65 5 is_stmt 1 view .LVU140
  67:D:/fchai/work/i-cube/I-CUBE-HUAWEI/Middlewares/Third_Party/Huawei/iot_link/network/dtls/mbedtls/mbedtls-2.16.2/library\pkcs5.c ****         return( MBEDTLS_ERR_PKCS5_INVALID_FORMAT +
 434              		.loc 1 67 7 is_stmt 0 view .LVU141
 435 005e 302A     		cmp	r2, #48
ARM GAS  T:\msys\tmp\ccGVICEu.s 			page 15


  65:D:/fchai/work/i-cube/I-CUBE-HUAWEI/Middlewares/Third_Party/Huawei/iot_link/network/dtls/mbedtls/mbedtls-2.16.2/library\pkcs5.c **** 
 436              		.loc 1 65 26 view .LVU142
 437 0060 03EB0109 		add	r9, r3, r1
 438              	.LVL49:
  67:D:/fchai/work/i-cube/I-CUBE-HUAWEI/Middlewares/Third_Party/Huawei/iot_link/network/dtls/mbedtls/mbedtls-2.16.2/library\pkcs5.c ****         return( MBEDTLS_ERR_PKCS5_INVALID_FORMAT +
 439              		.loc 1 67 5 is_stmt 1 view .LVU143
  67:D:/fchai/work/i-cube/I-CUBE-HUAWEI/Middlewares/Third_Party/Huawei/iot_link/network/dtls/mbedtls/mbedtls-2.16.2/library\pkcs5.c ****         return( MBEDTLS_ERR_PKCS5_INVALID_FORMAT +
 440              		.loc 1 67 7 is_stmt 0 view .LVU144
 441 0064 40F09880 		bne	.L46
  79:D:/fchai/work/i-cube/I-CUBE-HUAWEI/Middlewares/Third_Party/Huawei/iot_link/network/dtls/mbedtls/mbedtls-2.16.2/library\pkcs5.c ****         return( MBEDTLS_ERR_PKCS5_INVALID_FORMAT + ret );
 442              		.loc 1 79 5 is_stmt 1 view .LVU145
  79:D:/fchai/work/i-cube/I-CUBE-HUAWEI/Middlewares/Third_Party/Huawei/iot_link/network/dtls/mbedtls/mbedtls-2.16.2/library\pkcs5.c ****         return( MBEDTLS_ERR_PKCS5_INVALID_FORMAT + ret );
 443              		.loc 1 79 17 is_stmt 0 view .LVU146
 444 0068 3B46     		mov	r3, r7
 445 006a 24A8     		add	r0, sp, #144
 446 006c 17AA     		add	r2, sp, #92
 447 006e 4946     		mov	r1, r9
 448 0070 FFF7FEFF 		bl	mbedtls_asn1_get_tag
 449              	.LVL50:
  79:D:/fchai/work/i-cube/I-CUBE-HUAWEI/Middlewares/Third_Party/Huawei/iot_link/network/dtls/mbedtls/mbedtls-2.16.2/library\pkcs5.c ****         return( MBEDTLS_ERR_PKCS5_INVALID_FORMAT + ret );
 450              		.loc 1 79 7 view .LVU147
 451 0074 38B1     		cbz	r0, .L36
 452              	.L63:
 101:D:/fchai/work/i-cube/I-CUBE-HUAWEI/Middlewares/Third_Party/Huawei/iot_link/network/dtls/mbedtls/mbedtls-2.16.2/library\pkcs5.c **** 
 453              		.loc 1 101 9 is_stmt 1 view .LVU148
 454              	.LVL51:
 101:D:/fchai/work/i-cube/I-CUBE-HUAWEI/Middlewares/Third_Party/Huawei/iot_link/network/dtls/mbedtls/mbedtls-2.16.2/library\pkcs5.c **** 
 455              		.loc 1 101 50 is_stmt 0 view .LVU149
 456 0076 A0F53C57 		sub	r7, r0, #12032
 457              	.LVL52:
 101:D:/fchai/work/i-cube/I-CUBE-HUAWEI/Middlewares/Third_Party/Huawei/iot_link/network/dtls/mbedtls/mbedtls-2.16.2/library\pkcs5.c **** 
 458              		.loc 1 101 50 view .LVU150
 459              	.LBE5:
 460              	.LBE4:
 152:D:/fchai/work/i-cube/I-CUBE-HUAWEI/Middlewares/Third_Party/Huawei/iot_link/network/dtls/mbedtls/mbedtls-2.16.2/library\pkcs5.c ****                                            &salt, &iterations, &keylen,
 461              		.loc 1 152 7 view .LVU151
 462 007a 002F     		cmp	r7, #0
 463 007c 32D0     		beq	.L43
 464              	.LVL53:
 465              	.L30:
 217:D:/fchai/work/i-cube/I-CUBE-HUAWEI/Middlewares/Third_Party/Huawei/iot_link/network/dtls/mbedtls/mbedtls-2.16.2/library\pkcs5.c **** #endif /* MBEDTLS_ASN1_PARSE_C */
 466              		.loc 1 217 1 view .LVU152
 467 007e 3846     		mov	r0, r7
 468 0080 3DB0     		add	sp, sp, #244
 469              	.LCFI7:
 470              		.cfi_remember_state
 471              		.cfi_def_cfa_offset 28
 472              		@ sp needed
 473 0082 BDE8F083 		pop	{r4, r5, r6, r7, r8, r9, pc}
 474              	.LVL54:
 475              	.L36:
 476              	.LCFI8:
 477              		.cfi_restore_state
 478              	.LBB8:
 479              	.LBB6:
  82:D:/fchai/work/i-cube/I-CUBE-HUAWEI/Middlewares/Third_Party/Huawei/iot_link/network/dtls/mbedtls/mbedtls-2.16.2/library\pkcs5.c ****     p += salt->len;
 480              		.loc 1 82 5 is_stmt 1 view .LVU153
ARM GAS  T:\msys\tmp\ccGVICEu.s 			page 16


  82:D:/fchai/work/i-cube/I-CUBE-HUAWEI/Middlewares/Third_Party/Huawei/iot_link/network/dtls/mbedtls/mbedtls-2.16.2/library\pkcs5.c ****     p += salt->len;
 481              		.loc 1 82 13 is_stmt 0 view .LVU154
 482 0086 249B     		ldr	r3, [sp, #144]
  83:D:/fchai/work/i-cube/I-CUBE-HUAWEI/Middlewares/Third_Party/Huawei/iot_link/network/dtls/mbedtls/mbedtls-2.16.2/library\pkcs5.c **** 
 483              		.loc 1 83 7 view .LVU155
 484 0088 179A     		ldr	r2, [sp, #92]
  82:D:/fchai/work/i-cube/I-CUBE-HUAWEI/Middlewares/Third_Party/Huawei/iot_link/network/dtls/mbedtls/mbedtls-2.16.2/library\pkcs5.c ****     p += salt->len;
 485              		.loc 1 82 13 view .LVU156
 486 008a 1893     		str	r3, [sp, #96]
  83:D:/fchai/work/i-cube/I-CUBE-HUAWEI/Middlewares/Third_Party/Huawei/iot_link/network/dtls/mbedtls/mbedtls-2.16.2/library\pkcs5.c **** 
 487              		.loc 1 83 5 is_stmt 1 view .LVU157
  85:D:/fchai/work/i-cube/I-CUBE-HUAWEI/Middlewares/Third_Party/Huawei/iot_link/network/dtls/mbedtls/mbedtls-2.16.2/library\pkcs5.c ****         return( MBEDTLS_ERR_PKCS5_INVALID_FORMAT + ret );
 488              		.loc 1 85 17 is_stmt 0 view .LVU158
 489 008c 4946     		mov	r1, r9
  83:D:/fchai/work/i-cube/I-CUBE-HUAWEI/Middlewares/Third_Party/Huawei/iot_link/network/dtls/mbedtls/mbedtls-2.16.2/library\pkcs5.c **** 
 490              		.loc 1 83 7 view .LVU159
 491 008e 1344     		add	r3, r3, r2
  85:D:/fchai/work/i-cube/I-CUBE-HUAWEI/Middlewares/Third_Party/Huawei/iot_link/network/dtls/mbedtls/mbedtls-2.16.2/library\pkcs5.c ****         return( MBEDTLS_ERR_PKCS5_INVALID_FORMAT + ret );
 492              		.loc 1 85 17 view .LVU160
 493 0090 24A8     		add	r0, sp, #144
 494              	.LVL55:
  85:D:/fchai/work/i-cube/I-CUBE-HUAWEI/Middlewares/Third_Party/Huawei/iot_link/network/dtls/mbedtls/mbedtls-2.16.2/library\pkcs5.c ****         return( MBEDTLS_ERR_PKCS5_INVALID_FORMAT + ret );
 495              		.loc 1 85 17 view .LVU161
 496 0092 06AA     		add	r2, sp, #24
 497              	.LVL56:
  83:D:/fchai/work/i-cube/I-CUBE-HUAWEI/Middlewares/Third_Party/Huawei/iot_link/network/dtls/mbedtls/mbedtls-2.16.2/library\pkcs5.c **** 
 498              		.loc 1 83 7 view .LVU162
 499 0094 2493     		str	r3, [sp, #144]
  85:D:/fchai/work/i-cube/I-CUBE-HUAWEI/Middlewares/Third_Party/Huawei/iot_link/network/dtls/mbedtls/mbedtls-2.16.2/library\pkcs5.c ****         return( MBEDTLS_ERR_PKCS5_INVALID_FORMAT + ret );
 500              		.loc 1 85 5 is_stmt 1 view .LVU163
  85:D:/fchai/work/i-cube/I-CUBE-HUAWEI/Middlewares/Third_Party/Huawei/iot_link/network/dtls/mbedtls/mbedtls-2.16.2/library\pkcs5.c ****         return( MBEDTLS_ERR_PKCS5_INVALID_FORMAT + ret );
 501              		.loc 1 85 17 is_stmt 0 view .LVU164
 502 0096 FFF7FEFF 		bl	mbedtls_asn1_get_int
 503              	.LVL57:
  85:D:/fchai/work/i-cube/I-CUBE-HUAWEI/Middlewares/Third_Party/Huawei/iot_link/network/dtls/mbedtls/mbedtls-2.16.2/library\pkcs5.c ****         return( MBEDTLS_ERR_PKCS5_INVALID_FORMAT + ret );
 504              		.loc 1 85 7 view .LVU165
 505 009a 0028     		cmp	r0, #0
 506 009c EBD1     		bne	.L63
  88:D:/fchai/work/i-cube/I-CUBE-HUAWEI/Middlewares/Third_Party/Huawei/iot_link/network/dtls/mbedtls/mbedtls-2.16.2/library\pkcs5.c ****         return( 0 );
 507              		.loc 1 88 5 is_stmt 1 view .LVU166
  88:D:/fchai/work/i-cube/I-CUBE-HUAWEI/Middlewares/Third_Party/Huawei/iot_link/network/dtls/mbedtls/mbedtls-2.16.2/library\pkcs5.c ****         return( 0 );
 508              		.loc 1 88 7 is_stmt 0 view .LVU167
 509 009e 249B     		ldr	r3, [sp, #144]
 510 00a0 9945     		cmp	r9, r3
 511 00a2 1FD0     		beq	.L43
  91:D:/fchai/work/i-cube/I-CUBE-HUAWEI/Middlewares/Third_Party/Huawei/iot_link/network/dtls/mbedtls/mbedtls-2.16.2/library\pkcs5.c ****     {
 512              		.loc 1 91 5 is_stmt 1 view .LVU168
  91:D:/fchai/work/i-cube/I-CUBE-HUAWEI/Middlewares/Third_Party/Huawei/iot_link/network/dtls/mbedtls/mbedtls-2.16.2/library\pkcs5.c ****     {
 513              		.loc 1 91 17 is_stmt 0 view .LVU169
 514 00a4 07AA     		add	r2, sp, #28
 515              	.LVL58:
  91:D:/fchai/work/i-cube/I-CUBE-HUAWEI/Middlewares/Third_Party/Huawei/iot_link/network/dtls/mbedtls/mbedtls-2.16.2/library\pkcs5.c ****     {
 516              		.loc 1 91 17 view .LVU170
 517 00a6 4946     		mov	r1, r9
 518 00a8 24A8     		add	r0, sp, #144
 519              	.LVL59:
  91:D:/fchai/work/i-cube/I-CUBE-HUAWEI/Middlewares/Third_Party/Huawei/iot_link/network/dtls/mbedtls/mbedtls-2.16.2/library\pkcs5.c ****     {
ARM GAS  T:\msys\tmp\ccGVICEu.s 			page 17


 520              		.loc 1 91 17 view .LVU171
 521 00aa FFF7FEFF 		bl	mbedtls_asn1_get_int
 522              	.LVL60:
  91:D:/fchai/work/i-cube/I-CUBE-HUAWEI/Middlewares/Third_Party/Huawei/iot_link/network/dtls/mbedtls/mbedtls-2.16.2/library\pkcs5.c ****     {
 523              		.loc 1 91 7 view .LVU172
 524 00ae 10B1     		cbz	r0, .L40
  93:D:/fchai/work/i-cube/I-CUBE-HUAWEI/Middlewares/Third_Party/Huawei/iot_link/network/dtls/mbedtls/mbedtls-2.16.2/library\pkcs5.c ****             return( MBEDTLS_ERR_PKCS5_INVALID_FORMAT + ret );
 525              		.loc 1 93 9 is_stmt 1 view .LVU173
  93:D:/fchai/work/i-cube/I-CUBE-HUAWEI/Middlewares/Third_Party/Huawei/iot_link/network/dtls/mbedtls/mbedtls-2.16.2/library\pkcs5.c ****             return( MBEDTLS_ERR_PKCS5_INVALID_FORMAT + ret );
 526              		.loc 1 93 11 is_stmt 0 view .LVU174
 527 00b0 10F1620F 		cmn	r0, #98
 528 00b4 DFD1     		bne	.L63
 529              	.L40:
  97:D:/fchai/work/i-cube/I-CUBE-HUAWEI/Middlewares/Third_Party/Huawei/iot_link/network/dtls/mbedtls/mbedtls-2.16.2/library\pkcs5.c ****         return( 0 );
 530              		.loc 1 97 5 is_stmt 1 view .LVU175
  97:D:/fchai/work/i-cube/I-CUBE-HUAWEI/Middlewares/Third_Party/Huawei/iot_link/network/dtls/mbedtls/mbedtls-2.16.2/library\pkcs5.c ****         return( 0 );
 531              		.loc 1 97 7 is_stmt 0 view .LVU176
 532 00b6 249B     		ldr	r3, [sp, #144]
 533 00b8 9945     		cmp	r9, r3
 534 00ba 13D0     		beq	.L43
 100:D:/fchai/work/i-cube/I-CUBE-HUAWEI/Middlewares/Third_Party/Huawei/iot_link/network/dtls/mbedtls/mbedtls-2.16.2/library\pkcs5.c ****         return( MBEDTLS_ERR_PKCS5_INVALID_FORMAT + ret );
 535              		.loc 1 100 5 is_stmt 1 view .LVU177
 100:D:/fchai/work/i-cube/I-CUBE-HUAWEI/Middlewares/Third_Party/Huawei/iot_link/network/dtls/mbedtls/mbedtls-2.16.2/library\pkcs5.c ****         return( MBEDTLS_ERR_PKCS5_INVALID_FORMAT + ret );
 536              		.loc 1 100 17 is_stmt 0 view .LVU178
 537 00bc 2CAA     		add	r2, sp, #176
 538 00be 4946     		mov	r1, r9
 539 00c0 24A8     		add	r0, sp, #144
 540              	.LVL61:
 100:D:/fchai/work/i-cube/I-CUBE-HUAWEI/Middlewares/Third_Party/Huawei/iot_link/network/dtls/mbedtls/mbedtls-2.16.2/library\pkcs5.c ****         return( MBEDTLS_ERR_PKCS5_INVALID_FORMAT + ret );
 541              		.loc 1 100 17 view .LVU179
 542 00c2 FFF7FEFF 		bl	mbedtls_asn1_get_alg_null
 543              	.LVL62:
 100:D:/fchai/work/i-cube/I-CUBE-HUAWEI/Middlewares/Third_Party/Huawei/iot_link/network/dtls/mbedtls/mbedtls-2.16.2/library\pkcs5.c ****         return( MBEDTLS_ERR_PKCS5_INVALID_FORMAT + ret );
 544              		.loc 1 100 7 view .LVU180
 545 00c6 0028     		cmp	r0, #0
 546 00c8 D5D1     		bne	.L63
 103:D:/fchai/work/i-cube/I-CUBE-HUAWEI/Middlewares/Third_Party/Huawei/iot_link/network/dtls/mbedtls/mbedtls-2.16.2/library\pkcs5.c ****         return( MBEDTLS_ERR_PKCS5_FEATURE_UNAVAILABLE );
 547              		.loc 1 103 5 is_stmt 1 view .LVU181
 103:D:/fchai/work/i-cube/I-CUBE-HUAWEI/Middlewares/Third_Party/Huawei/iot_link/network/dtls/mbedtls/mbedtls-2.16.2/library\pkcs5.c ****         return( MBEDTLS_ERR_PKCS5_FEATURE_UNAVAILABLE );
 548              		.loc 1 103 9 is_stmt 0 view .LVU182
 549 00ca 2CA8     		add	r0, sp, #176
 550              	.LVL63:
 103:D:/fchai/work/i-cube/I-CUBE-HUAWEI/Middlewares/Third_Party/Huawei/iot_link/network/dtls/mbedtls/mbedtls-2.16.2/library\pkcs5.c ****         return( MBEDTLS_ERR_PKCS5_FEATURE_UNAVAILABLE );
 551              		.loc 1 103 9 view .LVU183
 552 00cc 0DF11601 		add	r1, sp, #22
 553              	.LVL64:
 103:D:/fchai/work/i-cube/I-CUBE-HUAWEI/Middlewares/Third_Party/Huawei/iot_link/network/dtls/mbedtls/mbedtls-2.16.2/library\pkcs5.c ****         return( MBEDTLS_ERR_PKCS5_FEATURE_UNAVAILABLE );
 554              		.loc 1 103 9 view .LVU184
 555 00d0 FFF7FEFF 		bl	mbedtls_oid_get_md_hmac
 556              	.LVL65:
 103:D:/fchai/work/i-cube/I-CUBE-HUAWEI/Middlewares/Third_Party/Huawei/iot_link/network/dtls/mbedtls/mbedtls-2.16.2/library\pkcs5.c ****         return( MBEDTLS_ERR_PKCS5_FEATURE_UNAVAILABLE );
 557              		.loc 1 103 7 view .LVU185
 558 00d4 0028     		cmp	r0, #0
 559 00d6 40F08380 		bne	.L42
 106:D:/fchai/work/i-cube/I-CUBE-HUAWEI/Middlewares/Third_Party/Huawei/iot_link/network/dtls/mbedtls/mbedtls-2.16.2/library\pkcs5.c ****         return( MBEDTLS_ERR_PKCS5_INVALID_FORMAT +
 560              		.loc 1 106 5 is_stmt 1 view .LVU186
 106:D:/fchai/work/i-cube/I-CUBE-HUAWEI/Middlewares/Third_Party/Huawei/iot_link/network/dtls/mbedtls/mbedtls-2.16.2/library\pkcs5.c ****         return( MBEDTLS_ERR_PKCS5_INVALID_FORMAT +
ARM GAS  T:\msys\tmp\ccGVICEu.s 			page 18


 561              		.loc 1 106 7 is_stmt 0 view .LVU187
 562 00da 249B     		ldr	r3, [sp, #144]
 563 00dc 9945     		cmp	r9, r3
 564 00de 01D0     		beq	.L43
 107:D:/fchai/work/i-cube/I-CUBE-HUAWEI/Middlewares/Third_Party/Huawei/iot_link/network/dtls/mbedtls/mbedtls-2.16.2/library\pkcs5.c ****                 MBEDTLS_ERR_ASN1_LENGTH_MISMATCH );
 565              		.loc 1 107 9 is_stmt 1 view .LVU188
 566              	.LVL66:
 107:D:/fchai/work/i-cube/I-CUBE-HUAWEI/Middlewares/Third_Party/Huawei/iot_link/network/dtls/mbedtls/mbedtls-2.16.2/library\pkcs5.c ****                 MBEDTLS_ERR_ASN1_LENGTH_MISMATCH );
 567              		.loc 1 107 15 is_stmt 0 view .LVU189
 568 00e0 424F     		ldr	r7, .L66+4
 569 00e2 CCE7     		b	.L30
 570              	.LVL67:
 571              	.L43:
 107:D:/fchai/work/i-cube/I-CUBE-HUAWEI/Middlewares/Third_Party/Huawei/iot_link/network/dtls/mbedtls/mbedtls-2.16.2/library\pkcs5.c ****                 MBEDTLS_ERR_ASN1_LENGTH_MISMATCH );
 572              		.loc 1 107 15 view .LVU190
 573              	.LBE6:
 574              	.LBE8:
 159:D:/fchai/work/i-cube/I-CUBE-HUAWEI/Middlewares/Third_Party/Huawei/iot_link/network/dtls/mbedtls/mbedtls-2.16.2/library\pkcs5.c ****     if( md_info == NULL )
 575              		.loc 1 159 5 is_stmt 1 view .LVU191
 159:D:/fchai/work/i-cube/I-CUBE-HUAWEI/Middlewares/Third_Party/Huawei/iot_link/network/dtls/mbedtls/mbedtls-2.16.2/library\pkcs5.c ****     if( md_info == NULL )
 576              		.loc 1 159 15 is_stmt 0 view .LVU192
 577 00e4 9DF81600 		ldrb	r0, [sp, #22]	@ zero_extendqisi2
 578 00e8 FFF7FEFF 		bl	mbedtls_md_info_from_type
 579              	.LVL68:
 160:D:/fchai/work/i-cube/I-CUBE-HUAWEI/Middlewares/Third_Party/Huawei/iot_link/network/dtls/mbedtls/mbedtls-2.16.2/library\pkcs5.c ****         return( MBEDTLS_ERR_PKCS5_FEATURE_UNAVAILABLE );
 580              		.loc 1 160 5 is_stmt 1 view .LVU193
 160:D:/fchai/work/i-cube/I-CUBE-HUAWEI/Middlewares/Third_Party/Huawei/iot_link/network/dtls/mbedtls/mbedtls-2.16.2/library\pkcs5.c ****         return( MBEDTLS_ERR_PKCS5_FEATURE_UNAVAILABLE );
 581              		.loc 1 160 7 is_stmt 0 view .LVU194
 582 00ec 0746     		mov	r7, r0
 583 00ee 0028     		cmp	r0, #0
 584 00f0 76D0     		beq	.L42
 163:D:/fchai/work/i-cube/I-CUBE-HUAWEI/Middlewares/Third_Party/Huawei/iot_link/network/dtls/mbedtls/mbedtls-2.16.2/library\pkcs5.c ****                               &enc_scheme_params ) ) != 0 )
 585              		.loc 1 163 5 is_stmt 1 view .LVU195
 163:D:/fchai/work/i-cube/I-CUBE-HUAWEI/Middlewares/Third_Party/Huawei/iot_link/network/dtls/mbedtls/mbedtls-2.16.2/library\pkcs5.c ****                               &enc_scheme_params ) ) != 0 )
 586              		.loc 1 163 17 is_stmt 0 view .LVU196
 587 00f2 4146     		mov	r1, r8
 588 00f4 08A8     		add	r0, sp, #32
 589              	.LVL69:
 163:D:/fchai/work/i-cube/I-CUBE-HUAWEI/Middlewares/Third_Party/Huawei/iot_link/network/dtls/mbedtls/mbedtls-2.16.2/library\pkcs5.c ****                               &enc_scheme_params ) ) != 0 )
 590              		.loc 1 163 17 view .LVU197
 591 00f6 0DAA     		add	r2, sp, #52
 592 00f8 13AB     		add	r3, sp, #76
 593 00fa FFF7FEFF 		bl	mbedtls_asn1_get_alg
 594              	.LVL70:
 163:D:/fchai/work/i-cube/I-CUBE-HUAWEI/Middlewares/Third_Party/Huawei/iot_link/network/dtls/mbedtls/mbedtls-2.16.2/library\pkcs5.c ****                               &enc_scheme_params ) ) != 0 )
 595              		.loc 1 163 7 view .LVU198
 596 00fe 28B1     		cbz	r0, .L44
 597              	.LVL71:
 598              	.L64:
 166:D:/fchai/work/i-cube/I-CUBE-HUAWEI/Middlewares/Third_Party/Huawei/iot_link/network/dtls/mbedtls/mbedtls-2.16.2/library\pkcs5.c ****     }
 599              		.loc 1 166 9 is_stmt 1 view .LVU199
 166:D:/fchai/work/i-cube/I-CUBE-HUAWEI/Middlewares/Third_Party/Huawei/iot_link/network/dtls/mbedtls/mbedtls-2.16.2/library\pkcs5.c ****     }
 600              		.loc 1 166 50 is_stmt 0 view .LVU200
 601 0100 A0F53C57 		sub	r7, r0, #12032
 217:D:/fchai/work/i-cube/I-CUBE-HUAWEI/Middlewares/Third_Party/Huawei/iot_link/network/dtls/mbedtls/mbedtls-2.16.2/library\pkcs5.c **** #endif /* MBEDTLS_ASN1_PARSE_C */
 602              		.loc 1 217 1 view .LVU201
 603 0104 3846     		mov	r0, r7
ARM GAS  T:\msys\tmp\ccGVICEu.s 			page 19


 604              	.LVL72:
 217:D:/fchai/work/i-cube/I-CUBE-HUAWEI/Middlewares/Third_Party/Huawei/iot_link/network/dtls/mbedtls/mbedtls-2.16.2/library\pkcs5.c **** #endif /* MBEDTLS_ASN1_PARSE_C */
 605              		.loc 1 217 1 view .LVU202
 606 0106 3DB0     		add	sp, sp, #244
 607              	.LCFI9:
 608              		.cfi_remember_state
 609              		.cfi_def_cfa_offset 28
 610              		@ sp needed
 611 0108 BDE8F083 		pop	{r4, r5, r6, r7, r8, r9, pc}
 612              	.LVL73:
 613              	.L44:
 614              	.LCFI10:
 615              		.cfi_restore_state
 169:D:/fchai/work/i-cube/I-CUBE-HUAWEI/Middlewares/Third_Party/Huawei/iot_link/network/dtls/mbedtls/mbedtls-2.16.2/library\pkcs5.c ****         return( MBEDTLS_ERR_PKCS5_FEATURE_UNAVAILABLE );
 616              		.loc 1 169 5 is_stmt 1 view .LVU203
 169:D:/fchai/work/i-cube/I-CUBE-HUAWEI/Middlewares/Third_Party/Huawei/iot_link/network/dtls/mbedtls/mbedtls-2.16.2/library\pkcs5.c ****         return( MBEDTLS_ERR_PKCS5_FEATURE_UNAVAILABLE );
 617              		.loc 1 169 9 is_stmt 0 view .LVU204
 618 010c 0DA8     		add	r0, sp, #52
 619              	.LVL74:
 169:D:/fchai/work/i-cube/I-CUBE-HUAWEI/Middlewares/Third_Party/Huawei/iot_link/network/dtls/mbedtls/mbedtls-2.16.2/library\pkcs5.c ****         return( MBEDTLS_ERR_PKCS5_FEATURE_UNAVAILABLE );
 620              		.loc 1 169 9 view .LVU205
 621 010e 0DF11701 		add	r1, sp, #23
 622 0112 FFF7FEFF 		bl	mbedtls_oid_get_cipher_alg
 623              	.LVL75:
 169:D:/fchai/work/i-cube/I-CUBE-HUAWEI/Middlewares/Third_Party/Huawei/iot_link/network/dtls/mbedtls/mbedtls-2.16.2/library\pkcs5.c ****         return( MBEDTLS_ERR_PKCS5_FEATURE_UNAVAILABLE );
 624              		.loc 1 169 7 view .LVU206
 625 0116 0028     		cmp	r0, #0
 626 0118 62D1     		bne	.L42
 172:D:/fchai/work/i-cube/I-CUBE-HUAWEI/Middlewares/Third_Party/Huawei/iot_link/network/dtls/mbedtls/mbedtls-2.16.2/library\pkcs5.c ****     if( cipher_info == NULL )
 627              		.loc 1 172 5 is_stmt 1 view .LVU207
 172:D:/fchai/work/i-cube/I-CUBE-HUAWEI/Middlewares/Third_Party/Huawei/iot_link/network/dtls/mbedtls/mbedtls-2.16.2/library\pkcs5.c ****     if( cipher_info == NULL )
 628              		.loc 1 172 19 is_stmt 0 view .LVU208
 629 011a 9DF81700 		ldrb	r0, [sp, #23]	@ zero_extendqisi2
 630 011e FFF7FEFF 		bl	mbedtls_cipher_info_from_type
 631              	.LVL76:
 173:D:/fchai/work/i-cube/I-CUBE-HUAWEI/Middlewares/Third_Party/Huawei/iot_link/network/dtls/mbedtls/mbedtls-2.16.2/library\pkcs5.c ****         return( MBEDTLS_ERR_PKCS5_FEATURE_UNAVAILABLE );
 632              		.loc 1 173 5 is_stmt 1 view .LVU209
 173:D:/fchai/work/i-cube/I-CUBE-HUAWEI/Middlewares/Third_Party/Huawei/iot_link/network/dtls/mbedtls/mbedtls-2.16.2/library\pkcs5.c ****         return( MBEDTLS_ERR_PKCS5_FEATURE_UNAVAILABLE );
 633              		.loc 1 173 7 is_stmt 0 view .LVU210
 634 0122 8046     		mov	r8, r0
 635              	.LVL77:
 173:D:/fchai/work/i-cube/I-CUBE-HUAWEI/Middlewares/Third_Party/Huawei/iot_link/network/dtls/mbedtls/mbedtls-2.16.2/library\pkcs5.c ****         return( MBEDTLS_ERR_PKCS5_FEATURE_UNAVAILABLE );
 636              		.loc 1 173 7 view .LVU211
 637 0124 0028     		cmp	r0, #0
 638 0126 5BD0     		beq	.L42
 180:D:/fchai/work/i-cube/I-CUBE-HUAWEI/Middlewares/Third_Party/Huawei/iot_link/network/dtls/mbedtls/mbedtls-2.16.2/library\pkcs5.c **** 
 639              		.loc 1 180 5 is_stmt 1 view .LVU212
 180:D:/fchai/work/i-cube/I-CUBE-HUAWEI/Middlewares/Third_Party/Huawei/iot_link/network/dtls/mbedtls/mbedtls-2.16.2/library\pkcs5.c **** 
 640              		.loc 1 180 38 is_stmt 0 view .LVU213
 641 0128 4368     		ldr	r3, [r0, #4]
 182:D:/fchai/work/i-cube/I-CUBE-HUAWEI/Middlewares/Third_Party/Huawei/iot_link/network/dtls/mbedtls/mbedtls-2.16.2/library\pkcs5.c ****         enc_scheme_params.len != cipher_info->iv_size )
 642              		.loc 1 182 7 view .LVU214
 643 012a 139A     		ldr	r2, [sp, #76]
 180:D:/fchai/work/i-cube/I-CUBE-HUAWEI/Middlewares/Third_Party/Huawei/iot_link/network/dtls/mbedtls/mbedtls-2.16.2/library\pkcs5.c **** 
 644              		.loc 1 180 38 view .LVU215
 645 012c DB08     		lsrs	r3, r3, #3
 182:D:/fchai/work/i-cube/I-CUBE-HUAWEI/Middlewares/Third_Party/Huawei/iot_link/network/dtls/mbedtls/mbedtls-2.16.2/library\pkcs5.c ****         enc_scheme_params.len != cipher_info->iv_size )
ARM GAS  T:\msys\tmp\ccGVICEu.s 			page 20


 646              		.loc 1 182 7 view .LVU216
 647 012e 042A     		cmp	r2, #4
 180:D:/fchai/work/i-cube/I-CUBE-HUAWEI/Middlewares/Third_Party/Huawei/iot_link/network/dtls/mbedtls/mbedtls-2.16.2/library\pkcs5.c **** 
 648              		.loc 1 180 12 view .LVU217
 649 0130 0793     		str	r3, [sp, #28]
 182:D:/fchai/work/i-cube/I-CUBE-HUAWEI/Middlewares/Third_Party/Huawei/iot_link/network/dtls/mbedtls/mbedtls-2.16.2/library\pkcs5.c ****         enc_scheme_params.len != cipher_info->iv_size )
 650              		.loc 1 182 5 is_stmt 1 view .LVU218
 182:D:/fchai/work/i-cube/I-CUBE-HUAWEI/Middlewares/Third_Party/Huawei/iot_link/network/dtls/mbedtls/mbedtls-2.16.2/library\pkcs5.c ****         enc_scheme_params.len != cipher_info->iv_size )
 651              		.loc 1 182 7 is_stmt 0 view .LVU219
 652 0132 57D1     		bne	.L48
 182:D:/fchai/work/i-cube/I-CUBE-HUAWEI/Middlewares/Third_Party/Huawei/iot_link/network/dtls/mbedtls/mbedtls-2.16.2/library\pkcs5.c ****         enc_scheme_params.len != cipher_info->iv_size )
 653              		.loc 1 182 60 discriminator 1 view .LVU220
 654 0134 149A     		ldr	r2, [sp, #80]
 655 0136 C368     		ldr	r3, [r0, #12]
 656 0138 9A42     		cmp	r2, r3
 657 013a 53D1     		bne	.L48
 188:D:/fchai/work/i-cube/I-CUBE-HUAWEI/Middlewares/Third_Party/Huawei/iot_link/network/dtls/mbedtls/mbedtls-2.16.2/library\pkcs5.c ****     mbedtls_cipher_init( &cipher_ctx );
 658              		.loc 1 188 5 is_stmt 1 view .LVU221
 659 013c 19A8     		add	r0, sp, #100
 660              	.LVL78:
 188:D:/fchai/work/i-cube/I-CUBE-HUAWEI/Middlewares/Third_Party/Huawei/iot_link/network/dtls/mbedtls/mbedtls-2.16.2/library\pkcs5.c ****     mbedtls_cipher_init( &cipher_ctx );
 661              		.loc 1 188 5 is_stmt 0 view .LVU222
 662 013e FFF7FEFF 		bl	mbedtls_md_init
 663              	.LVL79:
 189:D:/fchai/work/i-cube/I-CUBE-HUAWEI/Middlewares/Third_Party/Huawei/iot_link/network/dtls/mbedtls/mbedtls-2.16.2/library\pkcs5.c **** 
 664              		.loc 1 189 5 is_stmt 1 view .LVU223
 665 0142 2CA8     		add	r0, sp, #176
 666 0144 FFF7FEFF 		bl	mbedtls_cipher_init
 667              	.LVL80:
 191:D:/fchai/work/i-cube/I-CUBE-HUAWEI/Middlewares/Third_Party/Huawei/iot_link/network/dtls/mbedtls/mbedtls-2.16.2/library\pkcs5.c **** 
 668              		.loc 1 191 5 view .LVU224
 669 0148 DDE91421 		ldrd	r2, r1, [sp, #80]
 670 014c 24A8     		add	r0, sp, #144
 671 014e FFF7FEFF 		bl	memcpy
 672              	.LVL81:
 193:D:/fchai/work/i-cube/I-CUBE-HUAWEI/Middlewares/Third_Party/Huawei/iot_link/network/dtls/mbedtls/mbedtls-2.16.2/library\pkcs5.c ****         goto exit;
 673              		.loc 1 193 5 view .LVU225
 193:D:/fchai/work/i-cube/I-CUBE-HUAWEI/Middlewares/Third_Party/Huawei/iot_link/network/dtls/mbedtls/mbedtls-2.16.2/library\pkcs5.c ****         goto exit;
 674              		.loc 1 193 17 is_stmt 0 view .LVU226
 675 0152 3946     		mov	r1, r7
 676 0154 19A8     		add	r0, sp, #100
 677 0156 0122     		movs	r2, #1
 678 0158 FFF7FEFF 		bl	mbedtls_md_setup
 679              	.LVL82:
 193:D:/fchai/work/i-cube/I-CUBE-HUAWEI/Middlewares/Third_Party/Huawei/iot_link/network/dtls/mbedtls/mbedtls-2.16.2/library\pkcs5.c ****         goto exit;
 680              		.loc 1 193 7 view .LVU227
 681 015c 0746     		mov	r7, r0
 682              	.LVL83:
 193:D:/fchai/work/i-cube/I-CUBE-HUAWEI/Middlewares/Third_Party/Huawei/iot_link/network/dtls/mbedtls/mbedtls-2.16.2/library\pkcs5.c ****         goto exit;
 683              		.loc 1 193 7 view .LVU228
 684 015e 88B9     		cbnz	r0, .L45
 196:D:/fchai/work/i-cube/I-CUBE-HUAWEI/Middlewares/Third_Party/Huawei/iot_link/network/dtls/mbedtls/mbedtls-2.16.2/library\pkcs5.c ****                                    iterations, keylen, key ) ) != 0 )
 685              		.loc 1 196 5 is_stmt 1 view .LVU229
 196:D:/fchai/work/i-cube/I-CUBE-HUAWEI/Middlewares/Third_Party/Huawei/iot_link/network/dtls/mbedtls/mbedtls-2.16.2/library\pkcs5.c ****                                    iterations, keylen, key ) ) != 0 )
 686              		.loc 1 196 17 is_stmt 0 view .LVU230
 687 0160 069F     		ldr	r7, [sp, #24]
 688 0162 0798     		ldr	r0, [sp, #28]
ARM GAS  T:\msys\tmp\ccGVICEu.s 			page 21


 689              	.LVL84:
 196:D:/fchai/work/i-cube/I-CUBE-HUAWEI/Middlewares/Third_Party/Huawei/iot_link/network/dtls/mbedtls/mbedtls-2.16.2/library\pkcs5.c ****                                    iterations, keylen, key ) ) != 0 )
 690              		.loc 1 196 17 view .LVU231
 691 0164 179B     		ldr	r3, [sp, #92]
 692 0166 0093     		str	r3, [sp]
 693 0168 0DF17009 		add	r9, sp, #112
 694 016c CDE90170 		strd	r7, r0, [sp, #4]
 695 0170 189B     		ldr	r3, [sp, #96]
 696 0172 CDF80C90 		str	r9, [sp, #12]
 697 0176 2A46     		mov	r2, r5
 698 0178 2146     		mov	r1, r4
 699 017a 19A8     		add	r0, sp, #100
 700 017c FFF7FEFF 		bl	mbedtls_pkcs5_pbkdf2_hmac
 701              	.LVL85:
 196:D:/fchai/work/i-cube/I-CUBE-HUAWEI/Middlewares/Third_Party/Huawei/iot_link/network/dtls/mbedtls/mbedtls-2.16.2/library\pkcs5.c ****                                    iterations, keylen, key ) ) != 0 )
 702              		.loc 1 196 7 view .LVU232
 703 0180 0746     		mov	r7, r0
 704 0182 58B1     		cbz	r0, .L65
 705              	.L45:
 706              	.LVL86:
 213:D:/fchai/work/i-cube/I-CUBE-HUAWEI/Middlewares/Third_Party/Huawei/iot_link/network/dtls/mbedtls/mbedtls-2.16.2/library\pkcs5.c ****     mbedtls_cipher_free( &cipher_ctx );
 707              		.loc 1 213 5 is_stmt 1 view .LVU233
 708 0184 19A8     		add	r0, sp, #100
 709 0186 FFF7FEFF 		bl	mbedtls_md_free
 710              	.LVL87:
 214:D:/fchai/work/i-cube/I-CUBE-HUAWEI/Middlewares/Third_Party/Huawei/iot_link/network/dtls/mbedtls/mbedtls-2.16.2/library\pkcs5.c **** 
 711              		.loc 1 214 5 view .LVU234
 712 018a 2CA8     		add	r0, sp, #176
 713 018c FFF7FEFF 		bl	mbedtls_cipher_free
 714              	.LVL88:
 216:D:/fchai/work/i-cube/I-CUBE-HUAWEI/Middlewares/Third_Party/Huawei/iot_link/network/dtls/mbedtls/mbedtls-2.16.2/library\pkcs5.c **** }
 715              		.loc 1 216 5 view .LVU235
 217:D:/fchai/work/i-cube/I-CUBE-HUAWEI/Middlewares/Third_Party/Huawei/iot_link/network/dtls/mbedtls/mbedtls-2.16.2/library\pkcs5.c **** #endif /* MBEDTLS_ASN1_PARSE_C */
 716              		.loc 1 217 1 is_stmt 0 view .LVU236
 717 0190 3846     		mov	r0, r7
 718 0192 3DB0     		add	sp, sp, #244
 719              	.LCFI11:
 720              		.cfi_remember_state
 721              		.cfi_def_cfa_offset 28
 722              		@ sp needed
 723 0194 BDE8F083 		pop	{r4, r5, r6, r7, r8, r9, pc}
 724              	.LVL89:
 725              	.L46:
 726              	.LCFI12:
 727              		.cfi_restore_state
 141:D:/fchai/work/i-cube/I-CUBE-HUAWEI/Middlewares/Third_Party/Huawei/iot_link/network/dtls/mbedtls/mbedtls-2.16.2/library\pkcs5.c ****                 MBEDTLS_ERR_ASN1_UNEXPECTED_TAG );
 728              		.loc 1 141 15 view .LVU237
 729 0198 154F     		ldr	r7, .L66+8
 730 019a 70E7     		b	.L30
 731              	.LVL90:
 732              	.L65:
 202:D:/fchai/work/i-cube/I-CUBE-HUAWEI/Middlewares/Third_Party/Huawei/iot_link/network/dtls/mbedtls/mbedtls-2.16.2/library\pkcs5.c ****         goto exit;
 733              		.loc 1 202 5 is_stmt 1 view .LVU238
 202:D:/fchai/work/i-cube/I-CUBE-HUAWEI/Middlewares/Third_Party/Huawei/iot_link/network/dtls/mbedtls/mbedtls-2.16.2/library\pkcs5.c ****         goto exit;
 734              		.loc 1 202 17 is_stmt 0 view .LVU239
 735 019c 4146     		mov	r1, r8
 736 019e 2CA8     		add	r0, sp, #176
ARM GAS  T:\msys\tmp\ccGVICEu.s 			page 22


 737              	.LVL91:
 202:D:/fchai/work/i-cube/I-CUBE-HUAWEI/Middlewares/Third_Party/Huawei/iot_link/network/dtls/mbedtls/mbedtls-2.16.2/library\pkcs5.c ****         goto exit;
 738              		.loc 1 202 17 view .LVU240
 739 01a0 FFF7FEFF 		bl	mbedtls_cipher_setup
 740              	.LVL92:
 202:D:/fchai/work/i-cube/I-CUBE-HUAWEI/Middlewares/Third_Party/Huawei/iot_link/network/dtls/mbedtls/mbedtls-2.16.2/library\pkcs5.c ****         goto exit;
 741              		.loc 1 202 7 view .LVU241
 742 01a4 0746     		mov	r7, r0
 743 01a6 0028     		cmp	r0, #0
 744 01a8 ECD1     		bne	.L45
 205:D:/fchai/work/i-cube/I-CUBE-HUAWEI/Middlewares/Third_Party/Huawei/iot_link/network/dtls/mbedtls/mbedtls-2.16.2/library\pkcs5.c ****         goto exit;
 745              		.loc 1 205 5 is_stmt 1 view .LVU242
 205:D:/fchai/work/i-cube/I-CUBE-HUAWEI/Middlewares/Third_Party/Huawei/iot_link/network/dtls/mbedtls/mbedtls-2.16.2/library\pkcs5.c ****         goto exit;
 746              		.loc 1 205 17 is_stmt 0 view .LVU243
 747 01aa 079A     		ldr	r2, [sp, #28]
 748 01ac 73B2     		sxtb	r3, r6
 749 01ae 4946     		mov	r1, r9
 750 01b0 D200     		lsls	r2, r2, #3
 751 01b2 2CA8     		add	r0, sp, #176
 752              	.LVL93:
 205:D:/fchai/work/i-cube/I-CUBE-HUAWEI/Middlewares/Third_Party/Huawei/iot_link/network/dtls/mbedtls/mbedtls-2.16.2/library\pkcs5.c ****         goto exit;
 753              		.loc 1 205 17 view .LVU244
 754 01b4 FFF7FEFF 		bl	mbedtls_cipher_setkey
 755              	.LVL94:
 205:D:/fchai/work/i-cube/I-CUBE-HUAWEI/Middlewares/Third_Party/Huawei/iot_link/network/dtls/mbedtls/mbedtls-2.16.2/library\pkcs5.c ****         goto exit;
 756              		.loc 1 205 7 view .LVU245
 757 01b8 0746     		mov	r7, r0
 758 01ba 0028     		cmp	r0, #0
 759 01bc E2D1     		bne	.L45
 208:D:/fchai/work/i-cube/I-CUBE-HUAWEI/Middlewares/Third_Party/Huawei/iot_link/network/dtls/mbedtls/mbedtls-2.16.2/library\pkcs5.c ****                               data, datalen, output, &olen ) ) != 0 )
 760              		.loc 1 208 5 is_stmt 1 view .LVU246
 208:D:/fchai/work/i-cube/I-CUBE-HUAWEI/Middlewares/Third_Party/Huawei/iot_link/network/dtls/mbedtls/mbedtls-2.16.2/library\pkcs5.c ****                               data, datalen, output, &olen ) ) != 0 )
 761              		.loc 1 208 17 is_stmt 0 view .LVU247
 762 01be 469A     		ldr	r2, [sp, #280]
 763 01c0 0192     		str	r2, [sp, #4]
 764 01c2 09AB     		add	r3, sp, #36
 765 01c4 459A     		ldr	r2, [sp, #276]
 766 01c6 0092     		str	r2, [sp]
 767 01c8 0293     		str	r3, [sp, #8]
 768 01ca 149A     		ldr	r2, [sp, #80]
 769 01cc 449B     		ldr	r3, [sp, #272]
 770 01ce 24A9     		add	r1, sp, #144
 771 01d0 2CA8     		add	r0, sp, #176
 772              	.LVL95:
 208:D:/fchai/work/i-cube/I-CUBE-HUAWEI/Middlewares/Third_Party/Huawei/iot_link/network/dtls/mbedtls/mbedtls-2.16.2/library\pkcs5.c ****                               data, datalen, output, &olen ) ) != 0 )
 773              		.loc 1 208 17 view .LVU248
 774 01d2 FFF7FEFF 		bl	mbedtls_cipher_crypt
 775              	.LVL96:
 210:D:/fchai/work/i-cube/I-CUBE-HUAWEI/Middlewares/Third_Party/Huawei/iot_link/network/dtls/mbedtls/mbedtls-2.16.2/library\pkcs5.c **** 
 776              		.loc 1 210 13 view .LVU249
 777 01d6 074B     		ldr	r3, .L66+12
 778 01d8 071E     		subs	r7, r0, #0
 779 01da 18BF     		it	ne
 780 01dc 1F46     		movne	r7, r3
 781 01de D1E7     		b	.L45
 782              	.LVL97:
 783              	.L42:
ARM GAS  T:\msys\tmp\ccGVICEu.s 			page 23


 784              	.LBB9:
 785              	.LBB7:
 104:D:/fchai/work/i-cube/I-CUBE-HUAWEI/Middlewares/Third_Party/Huawei/iot_link/network/dtls/mbedtls/mbedtls-2.16.2/library\pkcs5.c **** 
 786              		.loc 1 104 15 view .LVU250
 787 01e0 054F     		ldr	r7, .L66+16
 788 01e2 4CE7     		b	.L30
 789              	.LVL98:
 790              	.L48:
 104:D:/fchai/work/i-cube/I-CUBE-HUAWEI/Middlewares/Third_Party/Huawei/iot_link/network/dtls/mbedtls/mbedtls-2.16.2/library\pkcs5.c **** 
 791              		.loc 1 104 15 view .LVU251
 792              	.LBE7:
 793              	.LBE9:
 185:D:/fchai/work/i-cube/I-CUBE-HUAWEI/Middlewares/Third_Party/Huawei/iot_link/network/dtls/mbedtls/mbedtls-2.16.2/library\pkcs5.c ****     }
 794              		.loc 1 185 15 view .LVU252
 795 01e4 054F     		ldr	r7, .L66+20
 796              	.LVL99:
 185:D:/fchai/work/i-cube/I-CUBE-HUAWEI/Middlewares/Third_Party/Huawei/iot_link/network/dtls/mbedtls/mbedtls-2.16.2/library\pkcs5.c ****     }
 797              		.loc 1 185 15 view .LVU253
 798 01e6 4AE7     		b	.L30
 799              	.L67:
 800              		.align	2
 801              	.L66:
 802 01e8 00000000 		.word	.LC0
 803 01ec 9AD0FFFF 		.word	-12134
 804 01f0 9ED0FFFF 		.word	-12130
 805 01f4 00D2FFFF 		.word	-11776
 806 01f8 80D1FFFF 		.word	-11904
 807 01fc 00D1FFFF 		.word	-12032
 808              		.cfi_endproc
 809              	.LFE14:
 811              		.text
 812              	.Letext0:
 813              		.file 2 "t:\\msys\\3rd\\gcc-arm-none-eabi-9-2020-q2-update-win32\\arm-none-eabi\\include\\machine\
 814              		.file 3 "t:\\msys\\3rd\\gcc-arm-none-eabi-9-2020-q2-update-win32\\lib\\gcc\\arm-none-eabi\\9.3.1\\
 815              		.file 4 "t:\\msys\\3rd\\gcc-arm-none-eabi-9-2020-q2-update-win32\\arm-none-eabi\\include\\sys\\_st
 816              		.file 5 "D:/fchai/work/i-cube/I-CUBE-HUAWEI/Middlewares/Third_Party/Huawei/iot_link/network/dtls/m
 817              		.file 6 "D:/fchai/work/i-cube/I-CUBE-HUAWEI/Middlewares/Third_Party/Huawei/iot_link/network/dtls/m
 818              		.file 7 "D:/fchai/work/i-cube/I-CUBE-HUAWEI/Middlewares/Third_Party/Huawei/iot_link/network/dtls/m
 819              		.file 8 "t:\\msys\\3rd\\gcc-arm-none-eabi-9-2020-q2-update-win32\\arm-none-eabi\\include\\sys\\_ty
 820              		.file 9 "t:\\msys\\3rd\\gcc-arm-none-eabi-9-2020-q2-update-win32\\arm-none-eabi\\include\\sys\\ree
 821              		.file 10 "t:\\msys\\3rd\\gcc-arm-none-eabi-9-2020-q2-update-win32\\arm-none-eabi\\include\\sys\\lo
 822              		.file 11 "t:\\msys\\3rd\\gcc-arm-none-eabi-9-2020-q2-update-win32\\arm-none-eabi\\include\\stdlib.
 823              		.file 12 "t:\\msys\\3rd\\gcc-arm-none-eabi-9-2020-q2-update-win32\\arm-none-eabi\\include\\time.h"
 824              		.file 13 "D:/fchai/work/i-cube/I-CUBE-HUAWEI/Middlewares/Third_Party/Huawei/iot_link/network/dtls/
 825              		.file 14 "D:/fchai/work/i-cube/I-CUBE-HUAWEI/Middlewares/Third_Party/Huawei/iot_link/network/dtls/
 826              		.file 15 "<built-in>"
ARM GAS  T:\msys\tmp\ccGVICEu.s 			page 24

