ARM GAS  T:\msys\tmp\cc83OHoG.s 			page 1


   1              		.cpu cortex-m4
   2              		.eabi_attribute 27, 1
   3              		.eabi_attribute 28, 1
   4              		.eabi_attribute 20, 1
   5              		.eabi_attribute 21, 1
   6              		.eabi_attribute 23, 3
   7              		.eabi_attribute 24, 1
   8              		.eabi_attribute 25, 1
   9              		.eabi_attribute 26, 1
  10              		.eabi_attribute 30, 2
  11              		.eabi_attribute 34, 1
  12              		.eabi_attribute 18, 4
  13              		.file	"pkparse.c"
  14              		.text
  15              	.Ltext0:
  16              		.cfi_sections	.debug_frame
  17              		.section	.text.pk_get_rsapubkey,"ax",%progbits
  18              		.align	1
  19              		.p2align 2,,3
  20              		.arch armv7e-m
  21              		.syntax unified
  22              		.thumb
  23              		.thumb_func
  24              		.fpu fpv4-sp-d16
  26              	pk_get_rsapubkey:
  27              	.LVL0:
  28              	.LFB19:
  29              		.file 1 "D:/fchai/work/i-cube/I-CUBE-HUAWEI/Middlewares/Third_Party/Huawei/iot_link/network/dtls/m
   1:D:/fchai/work/i-cube/I-CUBE-HUAWEI/Middlewares/Third_Party/Huawei/iot_link/network/dtls/mbedtls/mbedtls-2.16.2/library\pkparse.c **** /*
   2:D:/fchai/work/i-cube/I-CUBE-HUAWEI/Middlewares/Third_Party/Huawei/iot_link/network/dtls/mbedtls/mbedtls-2.16.2/library\pkparse.c ****  *  Public Key layer for parsing key files and structures
   3:D:/fchai/work/i-cube/I-CUBE-HUAWEI/Middlewares/Third_Party/Huawei/iot_link/network/dtls/mbedtls/mbedtls-2.16.2/library\pkparse.c ****  *
   4:D:/fchai/work/i-cube/I-CUBE-HUAWEI/Middlewares/Third_Party/Huawei/iot_link/network/dtls/mbedtls/mbedtls-2.16.2/library\pkparse.c ****  *  Copyright (C) 2006-2015, ARM Limited, All Rights Reserved
   5:D:/fchai/work/i-cube/I-CUBE-HUAWEI/Middlewares/Third_Party/Huawei/iot_link/network/dtls/mbedtls/mbedtls-2.16.2/library\pkparse.c ****  *  SPDX-License-Identifier: Apache-2.0
   6:D:/fchai/work/i-cube/I-CUBE-HUAWEI/Middlewares/Third_Party/Huawei/iot_link/network/dtls/mbedtls/mbedtls-2.16.2/library\pkparse.c ****  *
   7:D:/fchai/work/i-cube/I-CUBE-HUAWEI/Middlewares/Third_Party/Huawei/iot_link/network/dtls/mbedtls/mbedtls-2.16.2/library\pkparse.c ****  *  Licensed under the Apache License, Version 2.0 (the "License"); you may
   8:D:/fchai/work/i-cube/I-CUBE-HUAWEI/Middlewares/Third_Party/Huawei/iot_link/network/dtls/mbedtls/mbedtls-2.16.2/library\pkparse.c ****  *  not use this file except in compliance with the License.
   9:D:/fchai/work/i-cube/I-CUBE-HUAWEI/Middlewares/Third_Party/Huawei/iot_link/network/dtls/mbedtls/mbedtls-2.16.2/library\pkparse.c ****  *  You may obtain a copy of the License at
  10:D:/fchai/work/i-cube/I-CUBE-HUAWEI/Middlewares/Third_Party/Huawei/iot_link/network/dtls/mbedtls/mbedtls-2.16.2/library\pkparse.c ****  *
  11:D:/fchai/work/i-cube/I-CUBE-HUAWEI/Middlewares/Third_Party/Huawei/iot_link/network/dtls/mbedtls/mbedtls-2.16.2/library\pkparse.c ****  *  http://www.apache.org/licenses/LICENSE-2.0
  12:D:/fchai/work/i-cube/I-CUBE-HUAWEI/Middlewares/Third_Party/Huawei/iot_link/network/dtls/mbedtls/mbedtls-2.16.2/library\pkparse.c ****  *
  13:D:/fchai/work/i-cube/I-CUBE-HUAWEI/Middlewares/Third_Party/Huawei/iot_link/network/dtls/mbedtls/mbedtls-2.16.2/library\pkparse.c ****  *  Unless required by applicable law or agreed to in writing, software
  14:D:/fchai/work/i-cube/I-CUBE-HUAWEI/Middlewares/Third_Party/Huawei/iot_link/network/dtls/mbedtls/mbedtls-2.16.2/library\pkparse.c ****  *  distributed under the License is distributed on an "AS IS" BASIS, WITHOUT
  15:D:/fchai/work/i-cube/I-CUBE-HUAWEI/Middlewares/Third_Party/Huawei/iot_link/network/dtls/mbedtls/mbedtls-2.16.2/library\pkparse.c ****  *  WARRANTIES OR CONDITIONS OF ANY KIND, either express or implied.
  16:D:/fchai/work/i-cube/I-CUBE-HUAWEI/Middlewares/Third_Party/Huawei/iot_link/network/dtls/mbedtls/mbedtls-2.16.2/library\pkparse.c ****  *  See the License for the specific language governing permissions and
  17:D:/fchai/work/i-cube/I-CUBE-HUAWEI/Middlewares/Third_Party/Huawei/iot_link/network/dtls/mbedtls/mbedtls-2.16.2/library\pkparse.c ****  *  limitations under the License.
  18:D:/fchai/work/i-cube/I-CUBE-HUAWEI/Middlewares/Third_Party/Huawei/iot_link/network/dtls/mbedtls/mbedtls-2.16.2/library\pkparse.c ****  *
  19:D:/fchai/work/i-cube/I-CUBE-HUAWEI/Middlewares/Third_Party/Huawei/iot_link/network/dtls/mbedtls/mbedtls-2.16.2/library\pkparse.c ****  *  This file is part of mbed TLS (https://tls.mbed.org)
  20:D:/fchai/work/i-cube/I-CUBE-HUAWEI/Middlewares/Third_Party/Huawei/iot_link/network/dtls/mbedtls/mbedtls-2.16.2/library\pkparse.c ****  */
  21:D:/fchai/work/i-cube/I-CUBE-HUAWEI/Middlewares/Third_Party/Huawei/iot_link/network/dtls/mbedtls/mbedtls-2.16.2/library\pkparse.c **** 
  22:D:/fchai/work/i-cube/I-CUBE-HUAWEI/Middlewares/Third_Party/Huawei/iot_link/network/dtls/mbedtls/mbedtls-2.16.2/library\pkparse.c **** #if !defined(MBEDTLS_CONFIG_FILE)
  23:D:/fchai/work/i-cube/I-CUBE-HUAWEI/Middlewares/Third_Party/Huawei/iot_link/network/dtls/mbedtls/mbedtls-2.16.2/library\pkparse.c **** #include "mbedtls/config.h"
  24:D:/fchai/work/i-cube/I-CUBE-HUAWEI/Middlewares/Third_Party/Huawei/iot_link/network/dtls/mbedtls/mbedtls-2.16.2/library\pkparse.c **** #else
  25:D:/fchai/work/i-cube/I-CUBE-HUAWEI/Middlewares/Third_Party/Huawei/iot_link/network/dtls/mbedtls/mbedtls-2.16.2/library\pkparse.c **** #include MBEDTLS_CONFIG_FILE
  26:D:/fchai/work/i-cube/I-CUBE-HUAWEI/Middlewares/Third_Party/Huawei/iot_link/network/dtls/mbedtls/mbedtls-2.16.2/library\pkparse.c **** #endif
  27:D:/fchai/work/i-cube/I-CUBE-HUAWEI/Middlewares/Third_Party/Huawei/iot_link/network/dtls/mbedtls/mbedtls-2.16.2/library\pkparse.c **** 
  28:D:/fchai/work/i-cube/I-CUBE-HUAWEI/Middlewares/Third_Party/Huawei/iot_link/network/dtls/mbedtls/mbedtls-2.16.2/library\pkparse.c **** #if defined(MBEDTLS_PK_PARSE_C)
  29:D:/fchai/work/i-cube/I-CUBE-HUAWEI/Middlewares/Third_Party/Huawei/iot_link/network/dtls/mbedtls/mbedtls-2.16.2/library\pkparse.c **** 
ARM GAS  T:\msys\tmp\cc83OHoG.s 			page 2


  30:D:/fchai/work/i-cube/I-CUBE-HUAWEI/Middlewares/Third_Party/Huawei/iot_link/network/dtls/mbedtls/mbedtls-2.16.2/library\pkparse.c **** #include "mbedtls/pk.h"
  31:D:/fchai/work/i-cube/I-CUBE-HUAWEI/Middlewares/Third_Party/Huawei/iot_link/network/dtls/mbedtls/mbedtls-2.16.2/library\pkparse.c **** #include "mbedtls/asn1.h"
  32:D:/fchai/work/i-cube/I-CUBE-HUAWEI/Middlewares/Third_Party/Huawei/iot_link/network/dtls/mbedtls/mbedtls-2.16.2/library\pkparse.c **** #include "mbedtls/oid.h"
  33:D:/fchai/work/i-cube/I-CUBE-HUAWEI/Middlewares/Third_Party/Huawei/iot_link/network/dtls/mbedtls/mbedtls-2.16.2/library\pkparse.c **** #include "mbedtls/platform_util.h"
  34:D:/fchai/work/i-cube/I-CUBE-HUAWEI/Middlewares/Third_Party/Huawei/iot_link/network/dtls/mbedtls/mbedtls-2.16.2/library\pkparse.c **** 
  35:D:/fchai/work/i-cube/I-CUBE-HUAWEI/Middlewares/Third_Party/Huawei/iot_link/network/dtls/mbedtls/mbedtls-2.16.2/library\pkparse.c **** #include <string.h>
  36:D:/fchai/work/i-cube/I-CUBE-HUAWEI/Middlewares/Third_Party/Huawei/iot_link/network/dtls/mbedtls/mbedtls-2.16.2/library\pkparse.c **** 
  37:D:/fchai/work/i-cube/I-CUBE-HUAWEI/Middlewares/Third_Party/Huawei/iot_link/network/dtls/mbedtls/mbedtls-2.16.2/library\pkparse.c **** #if defined(MBEDTLS_RSA_C)
  38:D:/fchai/work/i-cube/I-CUBE-HUAWEI/Middlewares/Third_Party/Huawei/iot_link/network/dtls/mbedtls/mbedtls-2.16.2/library\pkparse.c **** #include "mbedtls/rsa.h"
  39:D:/fchai/work/i-cube/I-CUBE-HUAWEI/Middlewares/Third_Party/Huawei/iot_link/network/dtls/mbedtls/mbedtls-2.16.2/library\pkparse.c **** #endif
  40:D:/fchai/work/i-cube/I-CUBE-HUAWEI/Middlewares/Third_Party/Huawei/iot_link/network/dtls/mbedtls/mbedtls-2.16.2/library\pkparse.c **** #if defined(MBEDTLS_ECP_C)
  41:D:/fchai/work/i-cube/I-CUBE-HUAWEI/Middlewares/Third_Party/Huawei/iot_link/network/dtls/mbedtls/mbedtls-2.16.2/library\pkparse.c **** #include "mbedtls/ecp.h"
  42:D:/fchai/work/i-cube/I-CUBE-HUAWEI/Middlewares/Third_Party/Huawei/iot_link/network/dtls/mbedtls/mbedtls-2.16.2/library\pkparse.c **** #endif
  43:D:/fchai/work/i-cube/I-CUBE-HUAWEI/Middlewares/Third_Party/Huawei/iot_link/network/dtls/mbedtls/mbedtls-2.16.2/library\pkparse.c **** #if defined(MBEDTLS_ECDSA_C)
  44:D:/fchai/work/i-cube/I-CUBE-HUAWEI/Middlewares/Third_Party/Huawei/iot_link/network/dtls/mbedtls/mbedtls-2.16.2/library\pkparse.c **** #include "mbedtls/ecdsa.h"
  45:D:/fchai/work/i-cube/I-CUBE-HUAWEI/Middlewares/Third_Party/Huawei/iot_link/network/dtls/mbedtls/mbedtls-2.16.2/library\pkparse.c **** #endif
  46:D:/fchai/work/i-cube/I-CUBE-HUAWEI/Middlewares/Third_Party/Huawei/iot_link/network/dtls/mbedtls/mbedtls-2.16.2/library\pkparse.c **** #if defined(MBEDTLS_PEM_PARSE_C)
  47:D:/fchai/work/i-cube/I-CUBE-HUAWEI/Middlewares/Third_Party/Huawei/iot_link/network/dtls/mbedtls/mbedtls-2.16.2/library\pkparse.c **** #include "mbedtls/pem.h"
  48:D:/fchai/work/i-cube/I-CUBE-HUAWEI/Middlewares/Third_Party/Huawei/iot_link/network/dtls/mbedtls/mbedtls-2.16.2/library\pkparse.c **** #endif
  49:D:/fchai/work/i-cube/I-CUBE-HUAWEI/Middlewares/Third_Party/Huawei/iot_link/network/dtls/mbedtls/mbedtls-2.16.2/library\pkparse.c **** #if defined(MBEDTLS_PKCS5_C)
  50:D:/fchai/work/i-cube/I-CUBE-HUAWEI/Middlewares/Third_Party/Huawei/iot_link/network/dtls/mbedtls/mbedtls-2.16.2/library\pkparse.c **** #include "mbedtls/pkcs5.h"
  51:D:/fchai/work/i-cube/I-CUBE-HUAWEI/Middlewares/Third_Party/Huawei/iot_link/network/dtls/mbedtls/mbedtls-2.16.2/library\pkparse.c **** #endif
  52:D:/fchai/work/i-cube/I-CUBE-HUAWEI/Middlewares/Third_Party/Huawei/iot_link/network/dtls/mbedtls/mbedtls-2.16.2/library\pkparse.c **** #if defined(MBEDTLS_PKCS12_C)
  53:D:/fchai/work/i-cube/I-CUBE-HUAWEI/Middlewares/Third_Party/Huawei/iot_link/network/dtls/mbedtls/mbedtls-2.16.2/library\pkparse.c **** #include "mbedtls/pkcs12.h"
  54:D:/fchai/work/i-cube/I-CUBE-HUAWEI/Middlewares/Third_Party/Huawei/iot_link/network/dtls/mbedtls/mbedtls-2.16.2/library\pkparse.c **** #endif
  55:D:/fchai/work/i-cube/I-CUBE-HUAWEI/Middlewares/Third_Party/Huawei/iot_link/network/dtls/mbedtls/mbedtls-2.16.2/library\pkparse.c **** 
  56:D:/fchai/work/i-cube/I-CUBE-HUAWEI/Middlewares/Third_Party/Huawei/iot_link/network/dtls/mbedtls/mbedtls-2.16.2/library\pkparse.c **** #if defined(MBEDTLS_PLATFORM_C)
  57:D:/fchai/work/i-cube/I-CUBE-HUAWEI/Middlewares/Third_Party/Huawei/iot_link/network/dtls/mbedtls/mbedtls-2.16.2/library\pkparse.c **** #include "mbedtls/platform.h"
  58:D:/fchai/work/i-cube/I-CUBE-HUAWEI/Middlewares/Third_Party/Huawei/iot_link/network/dtls/mbedtls/mbedtls-2.16.2/library\pkparse.c **** #else
  59:D:/fchai/work/i-cube/I-CUBE-HUAWEI/Middlewares/Third_Party/Huawei/iot_link/network/dtls/mbedtls/mbedtls-2.16.2/library\pkparse.c **** #include <stdlib.h>
  60:D:/fchai/work/i-cube/I-CUBE-HUAWEI/Middlewares/Third_Party/Huawei/iot_link/network/dtls/mbedtls/mbedtls-2.16.2/library\pkparse.c **** #define mbedtls_calloc    calloc
  61:D:/fchai/work/i-cube/I-CUBE-HUAWEI/Middlewares/Third_Party/Huawei/iot_link/network/dtls/mbedtls/mbedtls-2.16.2/library\pkparse.c **** #define mbedtls_free       free
  62:D:/fchai/work/i-cube/I-CUBE-HUAWEI/Middlewares/Third_Party/Huawei/iot_link/network/dtls/mbedtls/mbedtls-2.16.2/library\pkparse.c **** #endif
  63:D:/fchai/work/i-cube/I-CUBE-HUAWEI/Middlewares/Third_Party/Huawei/iot_link/network/dtls/mbedtls/mbedtls-2.16.2/library\pkparse.c **** 
  64:D:/fchai/work/i-cube/I-CUBE-HUAWEI/Middlewares/Third_Party/Huawei/iot_link/network/dtls/mbedtls/mbedtls-2.16.2/library\pkparse.c **** /* Parameter validation macros based on platform_util.h */
  65:D:/fchai/work/i-cube/I-CUBE-HUAWEI/Middlewares/Third_Party/Huawei/iot_link/network/dtls/mbedtls/mbedtls-2.16.2/library\pkparse.c **** #define PK_VALIDATE_RET( cond )    \
  66:D:/fchai/work/i-cube/I-CUBE-HUAWEI/Middlewares/Third_Party/Huawei/iot_link/network/dtls/mbedtls/mbedtls-2.16.2/library\pkparse.c ****     MBEDTLS_INTERNAL_VALIDATE_RET( cond, MBEDTLS_ERR_PK_BAD_INPUT_DATA )
  67:D:/fchai/work/i-cube/I-CUBE-HUAWEI/Middlewares/Third_Party/Huawei/iot_link/network/dtls/mbedtls/mbedtls-2.16.2/library\pkparse.c **** #define PK_VALIDATE( cond )        \
  68:D:/fchai/work/i-cube/I-CUBE-HUAWEI/Middlewares/Third_Party/Huawei/iot_link/network/dtls/mbedtls/mbedtls-2.16.2/library\pkparse.c ****     MBEDTLS_INTERNAL_VALIDATE( cond )
  69:D:/fchai/work/i-cube/I-CUBE-HUAWEI/Middlewares/Third_Party/Huawei/iot_link/network/dtls/mbedtls/mbedtls-2.16.2/library\pkparse.c **** 
  70:D:/fchai/work/i-cube/I-CUBE-HUAWEI/Middlewares/Third_Party/Huawei/iot_link/network/dtls/mbedtls/mbedtls-2.16.2/library\pkparse.c **** #if defined(MBEDTLS_FS_IO)
  71:D:/fchai/work/i-cube/I-CUBE-HUAWEI/Middlewares/Third_Party/Huawei/iot_link/network/dtls/mbedtls/mbedtls-2.16.2/library\pkparse.c **** /*
  72:D:/fchai/work/i-cube/I-CUBE-HUAWEI/Middlewares/Third_Party/Huawei/iot_link/network/dtls/mbedtls/mbedtls-2.16.2/library\pkparse.c ****  * Load all data from a file into a given buffer.
  73:D:/fchai/work/i-cube/I-CUBE-HUAWEI/Middlewares/Third_Party/Huawei/iot_link/network/dtls/mbedtls/mbedtls-2.16.2/library\pkparse.c ****  *
  74:D:/fchai/work/i-cube/I-CUBE-HUAWEI/Middlewares/Third_Party/Huawei/iot_link/network/dtls/mbedtls/mbedtls-2.16.2/library\pkparse.c ****  * The file is expected to contain either PEM or DER encoded data.
  75:D:/fchai/work/i-cube/I-CUBE-HUAWEI/Middlewares/Third_Party/Huawei/iot_link/network/dtls/mbedtls/mbedtls-2.16.2/library\pkparse.c ****  * A terminating null byte is always appended. It is included in the announced
  76:D:/fchai/work/i-cube/I-CUBE-HUAWEI/Middlewares/Third_Party/Huawei/iot_link/network/dtls/mbedtls/mbedtls-2.16.2/library\pkparse.c ****  * length only if the data looks like it is PEM encoded.
  77:D:/fchai/work/i-cube/I-CUBE-HUAWEI/Middlewares/Third_Party/Huawei/iot_link/network/dtls/mbedtls/mbedtls-2.16.2/library\pkparse.c ****  */
  78:D:/fchai/work/i-cube/I-CUBE-HUAWEI/Middlewares/Third_Party/Huawei/iot_link/network/dtls/mbedtls/mbedtls-2.16.2/library\pkparse.c **** int mbedtls_pk_load_file( const char *path, unsigned char **buf, size_t *n )
  79:D:/fchai/work/i-cube/I-CUBE-HUAWEI/Middlewares/Third_Party/Huawei/iot_link/network/dtls/mbedtls/mbedtls-2.16.2/library\pkparse.c **** {
  80:D:/fchai/work/i-cube/I-CUBE-HUAWEI/Middlewares/Third_Party/Huawei/iot_link/network/dtls/mbedtls/mbedtls-2.16.2/library\pkparse.c ****     FILE *f;
  81:D:/fchai/work/i-cube/I-CUBE-HUAWEI/Middlewares/Third_Party/Huawei/iot_link/network/dtls/mbedtls/mbedtls-2.16.2/library\pkparse.c ****     long size;
  82:D:/fchai/work/i-cube/I-CUBE-HUAWEI/Middlewares/Third_Party/Huawei/iot_link/network/dtls/mbedtls/mbedtls-2.16.2/library\pkparse.c **** 
  83:D:/fchai/work/i-cube/I-CUBE-HUAWEI/Middlewares/Third_Party/Huawei/iot_link/network/dtls/mbedtls/mbedtls-2.16.2/library\pkparse.c ****     PK_VALIDATE_RET( path != NULL );
  84:D:/fchai/work/i-cube/I-CUBE-HUAWEI/Middlewares/Third_Party/Huawei/iot_link/network/dtls/mbedtls/mbedtls-2.16.2/library\pkparse.c ****     PK_VALIDATE_RET( buf != NULL );
  85:D:/fchai/work/i-cube/I-CUBE-HUAWEI/Middlewares/Third_Party/Huawei/iot_link/network/dtls/mbedtls/mbedtls-2.16.2/library\pkparse.c ****     PK_VALIDATE_RET( n != NULL );
  86:D:/fchai/work/i-cube/I-CUBE-HUAWEI/Middlewares/Third_Party/Huawei/iot_link/network/dtls/mbedtls/mbedtls-2.16.2/library\pkparse.c **** 
ARM GAS  T:\msys\tmp\cc83OHoG.s 			page 3


  87:D:/fchai/work/i-cube/I-CUBE-HUAWEI/Middlewares/Third_Party/Huawei/iot_link/network/dtls/mbedtls/mbedtls-2.16.2/library\pkparse.c ****     if( ( f = fopen( path, "rb" ) ) == NULL )
  88:D:/fchai/work/i-cube/I-CUBE-HUAWEI/Middlewares/Third_Party/Huawei/iot_link/network/dtls/mbedtls/mbedtls-2.16.2/library\pkparse.c ****         return( MBEDTLS_ERR_PK_FILE_IO_ERROR );
  89:D:/fchai/work/i-cube/I-CUBE-HUAWEI/Middlewares/Third_Party/Huawei/iot_link/network/dtls/mbedtls/mbedtls-2.16.2/library\pkparse.c **** 
  90:D:/fchai/work/i-cube/I-CUBE-HUAWEI/Middlewares/Third_Party/Huawei/iot_link/network/dtls/mbedtls/mbedtls-2.16.2/library\pkparse.c ****     fseek( f, 0, SEEK_END );
  91:D:/fchai/work/i-cube/I-CUBE-HUAWEI/Middlewares/Third_Party/Huawei/iot_link/network/dtls/mbedtls/mbedtls-2.16.2/library\pkparse.c ****     if( ( size = ftell( f ) ) == -1 )
  92:D:/fchai/work/i-cube/I-CUBE-HUAWEI/Middlewares/Third_Party/Huawei/iot_link/network/dtls/mbedtls/mbedtls-2.16.2/library\pkparse.c ****     {
  93:D:/fchai/work/i-cube/I-CUBE-HUAWEI/Middlewares/Third_Party/Huawei/iot_link/network/dtls/mbedtls/mbedtls-2.16.2/library\pkparse.c ****         fclose( f );
  94:D:/fchai/work/i-cube/I-CUBE-HUAWEI/Middlewares/Third_Party/Huawei/iot_link/network/dtls/mbedtls/mbedtls-2.16.2/library\pkparse.c ****         return( MBEDTLS_ERR_PK_FILE_IO_ERROR );
  95:D:/fchai/work/i-cube/I-CUBE-HUAWEI/Middlewares/Third_Party/Huawei/iot_link/network/dtls/mbedtls/mbedtls-2.16.2/library\pkparse.c ****     }
  96:D:/fchai/work/i-cube/I-CUBE-HUAWEI/Middlewares/Third_Party/Huawei/iot_link/network/dtls/mbedtls/mbedtls-2.16.2/library\pkparse.c ****     fseek( f, 0, SEEK_SET );
  97:D:/fchai/work/i-cube/I-CUBE-HUAWEI/Middlewares/Third_Party/Huawei/iot_link/network/dtls/mbedtls/mbedtls-2.16.2/library\pkparse.c **** 
  98:D:/fchai/work/i-cube/I-CUBE-HUAWEI/Middlewares/Third_Party/Huawei/iot_link/network/dtls/mbedtls/mbedtls-2.16.2/library\pkparse.c ****     *n = (size_t) size;
  99:D:/fchai/work/i-cube/I-CUBE-HUAWEI/Middlewares/Third_Party/Huawei/iot_link/network/dtls/mbedtls/mbedtls-2.16.2/library\pkparse.c **** 
 100:D:/fchai/work/i-cube/I-CUBE-HUAWEI/Middlewares/Third_Party/Huawei/iot_link/network/dtls/mbedtls/mbedtls-2.16.2/library\pkparse.c ****     if( *n + 1 == 0 ||
 101:D:/fchai/work/i-cube/I-CUBE-HUAWEI/Middlewares/Third_Party/Huawei/iot_link/network/dtls/mbedtls/mbedtls-2.16.2/library\pkparse.c ****         ( *buf = mbedtls_calloc( 1, *n + 1 ) ) == NULL )
 102:D:/fchai/work/i-cube/I-CUBE-HUAWEI/Middlewares/Third_Party/Huawei/iot_link/network/dtls/mbedtls/mbedtls-2.16.2/library\pkparse.c ****     {
 103:D:/fchai/work/i-cube/I-CUBE-HUAWEI/Middlewares/Third_Party/Huawei/iot_link/network/dtls/mbedtls/mbedtls-2.16.2/library\pkparse.c ****         fclose( f );
 104:D:/fchai/work/i-cube/I-CUBE-HUAWEI/Middlewares/Third_Party/Huawei/iot_link/network/dtls/mbedtls/mbedtls-2.16.2/library\pkparse.c ****         return( MBEDTLS_ERR_PK_ALLOC_FAILED );
 105:D:/fchai/work/i-cube/I-CUBE-HUAWEI/Middlewares/Third_Party/Huawei/iot_link/network/dtls/mbedtls/mbedtls-2.16.2/library\pkparse.c ****     }
 106:D:/fchai/work/i-cube/I-CUBE-HUAWEI/Middlewares/Third_Party/Huawei/iot_link/network/dtls/mbedtls/mbedtls-2.16.2/library\pkparse.c **** 
 107:D:/fchai/work/i-cube/I-CUBE-HUAWEI/Middlewares/Third_Party/Huawei/iot_link/network/dtls/mbedtls/mbedtls-2.16.2/library\pkparse.c ****     if( fread( *buf, 1, *n, f ) != *n )
 108:D:/fchai/work/i-cube/I-CUBE-HUAWEI/Middlewares/Third_Party/Huawei/iot_link/network/dtls/mbedtls/mbedtls-2.16.2/library\pkparse.c ****     {
 109:D:/fchai/work/i-cube/I-CUBE-HUAWEI/Middlewares/Third_Party/Huawei/iot_link/network/dtls/mbedtls/mbedtls-2.16.2/library\pkparse.c ****         fclose( f );
 110:D:/fchai/work/i-cube/I-CUBE-HUAWEI/Middlewares/Third_Party/Huawei/iot_link/network/dtls/mbedtls/mbedtls-2.16.2/library\pkparse.c **** 
 111:D:/fchai/work/i-cube/I-CUBE-HUAWEI/Middlewares/Third_Party/Huawei/iot_link/network/dtls/mbedtls/mbedtls-2.16.2/library\pkparse.c ****         mbedtls_platform_zeroize( *buf, *n );
 112:D:/fchai/work/i-cube/I-CUBE-HUAWEI/Middlewares/Third_Party/Huawei/iot_link/network/dtls/mbedtls/mbedtls-2.16.2/library\pkparse.c ****         mbedtls_free( *buf );
 113:D:/fchai/work/i-cube/I-CUBE-HUAWEI/Middlewares/Third_Party/Huawei/iot_link/network/dtls/mbedtls/mbedtls-2.16.2/library\pkparse.c **** 
 114:D:/fchai/work/i-cube/I-CUBE-HUAWEI/Middlewares/Third_Party/Huawei/iot_link/network/dtls/mbedtls/mbedtls-2.16.2/library\pkparse.c ****         return( MBEDTLS_ERR_PK_FILE_IO_ERROR );
 115:D:/fchai/work/i-cube/I-CUBE-HUAWEI/Middlewares/Third_Party/Huawei/iot_link/network/dtls/mbedtls/mbedtls-2.16.2/library\pkparse.c ****     }
 116:D:/fchai/work/i-cube/I-CUBE-HUAWEI/Middlewares/Third_Party/Huawei/iot_link/network/dtls/mbedtls/mbedtls-2.16.2/library\pkparse.c **** 
 117:D:/fchai/work/i-cube/I-CUBE-HUAWEI/Middlewares/Third_Party/Huawei/iot_link/network/dtls/mbedtls/mbedtls-2.16.2/library\pkparse.c ****     fclose( f );
 118:D:/fchai/work/i-cube/I-CUBE-HUAWEI/Middlewares/Third_Party/Huawei/iot_link/network/dtls/mbedtls/mbedtls-2.16.2/library\pkparse.c **** 
 119:D:/fchai/work/i-cube/I-CUBE-HUAWEI/Middlewares/Third_Party/Huawei/iot_link/network/dtls/mbedtls/mbedtls-2.16.2/library\pkparse.c ****     (*buf)[*n] = '\0';
 120:D:/fchai/work/i-cube/I-CUBE-HUAWEI/Middlewares/Third_Party/Huawei/iot_link/network/dtls/mbedtls/mbedtls-2.16.2/library\pkparse.c **** 
 121:D:/fchai/work/i-cube/I-CUBE-HUAWEI/Middlewares/Third_Party/Huawei/iot_link/network/dtls/mbedtls/mbedtls-2.16.2/library\pkparse.c ****     if( strstr( (const char *) *buf, "-----BEGIN " ) != NULL )
 122:D:/fchai/work/i-cube/I-CUBE-HUAWEI/Middlewares/Third_Party/Huawei/iot_link/network/dtls/mbedtls/mbedtls-2.16.2/library\pkparse.c ****         ++*n;
 123:D:/fchai/work/i-cube/I-CUBE-HUAWEI/Middlewares/Third_Party/Huawei/iot_link/network/dtls/mbedtls/mbedtls-2.16.2/library\pkparse.c **** 
 124:D:/fchai/work/i-cube/I-CUBE-HUAWEI/Middlewares/Third_Party/Huawei/iot_link/network/dtls/mbedtls/mbedtls-2.16.2/library\pkparse.c ****     return( 0 );
 125:D:/fchai/work/i-cube/I-CUBE-HUAWEI/Middlewares/Third_Party/Huawei/iot_link/network/dtls/mbedtls/mbedtls-2.16.2/library\pkparse.c **** }
 126:D:/fchai/work/i-cube/I-CUBE-HUAWEI/Middlewares/Third_Party/Huawei/iot_link/network/dtls/mbedtls/mbedtls-2.16.2/library\pkparse.c **** 
 127:D:/fchai/work/i-cube/I-CUBE-HUAWEI/Middlewares/Third_Party/Huawei/iot_link/network/dtls/mbedtls/mbedtls-2.16.2/library\pkparse.c **** /*
 128:D:/fchai/work/i-cube/I-CUBE-HUAWEI/Middlewares/Third_Party/Huawei/iot_link/network/dtls/mbedtls/mbedtls-2.16.2/library\pkparse.c ****  * Load and parse a private key
 129:D:/fchai/work/i-cube/I-CUBE-HUAWEI/Middlewares/Third_Party/Huawei/iot_link/network/dtls/mbedtls/mbedtls-2.16.2/library\pkparse.c ****  */
 130:D:/fchai/work/i-cube/I-CUBE-HUAWEI/Middlewares/Third_Party/Huawei/iot_link/network/dtls/mbedtls/mbedtls-2.16.2/library\pkparse.c **** int mbedtls_pk_parse_keyfile( mbedtls_pk_context *ctx,
 131:D:/fchai/work/i-cube/I-CUBE-HUAWEI/Middlewares/Third_Party/Huawei/iot_link/network/dtls/mbedtls/mbedtls-2.16.2/library\pkparse.c ****                       const char *path, const char *pwd )
 132:D:/fchai/work/i-cube/I-CUBE-HUAWEI/Middlewares/Third_Party/Huawei/iot_link/network/dtls/mbedtls/mbedtls-2.16.2/library\pkparse.c **** {
 133:D:/fchai/work/i-cube/I-CUBE-HUAWEI/Middlewares/Third_Party/Huawei/iot_link/network/dtls/mbedtls/mbedtls-2.16.2/library\pkparse.c ****     int ret;
 134:D:/fchai/work/i-cube/I-CUBE-HUAWEI/Middlewares/Third_Party/Huawei/iot_link/network/dtls/mbedtls/mbedtls-2.16.2/library\pkparse.c ****     size_t n;
 135:D:/fchai/work/i-cube/I-CUBE-HUAWEI/Middlewares/Third_Party/Huawei/iot_link/network/dtls/mbedtls/mbedtls-2.16.2/library\pkparse.c ****     unsigned char *buf;
 136:D:/fchai/work/i-cube/I-CUBE-HUAWEI/Middlewares/Third_Party/Huawei/iot_link/network/dtls/mbedtls/mbedtls-2.16.2/library\pkparse.c **** 
 137:D:/fchai/work/i-cube/I-CUBE-HUAWEI/Middlewares/Third_Party/Huawei/iot_link/network/dtls/mbedtls/mbedtls-2.16.2/library\pkparse.c ****     PK_VALIDATE_RET( ctx != NULL );
 138:D:/fchai/work/i-cube/I-CUBE-HUAWEI/Middlewares/Third_Party/Huawei/iot_link/network/dtls/mbedtls/mbedtls-2.16.2/library\pkparse.c ****     PK_VALIDATE_RET( path != NULL );
 139:D:/fchai/work/i-cube/I-CUBE-HUAWEI/Middlewares/Third_Party/Huawei/iot_link/network/dtls/mbedtls/mbedtls-2.16.2/library\pkparse.c **** 
 140:D:/fchai/work/i-cube/I-CUBE-HUAWEI/Middlewares/Third_Party/Huawei/iot_link/network/dtls/mbedtls/mbedtls-2.16.2/library\pkparse.c ****     if( ( ret = mbedtls_pk_load_file( path, &buf, &n ) ) != 0 )
 141:D:/fchai/work/i-cube/I-CUBE-HUAWEI/Middlewares/Third_Party/Huawei/iot_link/network/dtls/mbedtls/mbedtls-2.16.2/library\pkparse.c ****         return( ret );
 142:D:/fchai/work/i-cube/I-CUBE-HUAWEI/Middlewares/Third_Party/Huawei/iot_link/network/dtls/mbedtls/mbedtls-2.16.2/library\pkparse.c **** 
 143:D:/fchai/work/i-cube/I-CUBE-HUAWEI/Middlewares/Third_Party/Huawei/iot_link/network/dtls/mbedtls/mbedtls-2.16.2/library\pkparse.c ****     if( pwd == NULL )
ARM GAS  T:\msys\tmp\cc83OHoG.s 			page 4


 144:D:/fchai/work/i-cube/I-CUBE-HUAWEI/Middlewares/Third_Party/Huawei/iot_link/network/dtls/mbedtls/mbedtls-2.16.2/library\pkparse.c ****         ret = mbedtls_pk_parse_key( ctx, buf, n, NULL, 0 );
 145:D:/fchai/work/i-cube/I-CUBE-HUAWEI/Middlewares/Third_Party/Huawei/iot_link/network/dtls/mbedtls/mbedtls-2.16.2/library\pkparse.c ****     else
 146:D:/fchai/work/i-cube/I-CUBE-HUAWEI/Middlewares/Third_Party/Huawei/iot_link/network/dtls/mbedtls/mbedtls-2.16.2/library\pkparse.c ****         ret = mbedtls_pk_parse_key( ctx, buf, n,
 147:D:/fchai/work/i-cube/I-CUBE-HUAWEI/Middlewares/Third_Party/Huawei/iot_link/network/dtls/mbedtls/mbedtls-2.16.2/library\pkparse.c ****                 (const unsigned char *) pwd, strlen( pwd ) );
 148:D:/fchai/work/i-cube/I-CUBE-HUAWEI/Middlewares/Third_Party/Huawei/iot_link/network/dtls/mbedtls/mbedtls-2.16.2/library\pkparse.c **** 
 149:D:/fchai/work/i-cube/I-CUBE-HUAWEI/Middlewares/Third_Party/Huawei/iot_link/network/dtls/mbedtls/mbedtls-2.16.2/library\pkparse.c ****     mbedtls_platform_zeroize( buf, n );
 150:D:/fchai/work/i-cube/I-CUBE-HUAWEI/Middlewares/Third_Party/Huawei/iot_link/network/dtls/mbedtls/mbedtls-2.16.2/library\pkparse.c ****     mbedtls_free( buf );
 151:D:/fchai/work/i-cube/I-CUBE-HUAWEI/Middlewares/Third_Party/Huawei/iot_link/network/dtls/mbedtls/mbedtls-2.16.2/library\pkparse.c **** 
 152:D:/fchai/work/i-cube/I-CUBE-HUAWEI/Middlewares/Third_Party/Huawei/iot_link/network/dtls/mbedtls/mbedtls-2.16.2/library\pkparse.c ****     return( ret );
 153:D:/fchai/work/i-cube/I-CUBE-HUAWEI/Middlewares/Third_Party/Huawei/iot_link/network/dtls/mbedtls/mbedtls-2.16.2/library\pkparse.c **** }
 154:D:/fchai/work/i-cube/I-CUBE-HUAWEI/Middlewares/Third_Party/Huawei/iot_link/network/dtls/mbedtls/mbedtls-2.16.2/library\pkparse.c **** 
 155:D:/fchai/work/i-cube/I-CUBE-HUAWEI/Middlewares/Third_Party/Huawei/iot_link/network/dtls/mbedtls/mbedtls-2.16.2/library\pkparse.c **** /*
 156:D:/fchai/work/i-cube/I-CUBE-HUAWEI/Middlewares/Third_Party/Huawei/iot_link/network/dtls/mbedtls/mbedtls-2.16.2/library\pkparse.c ****  * Load and parse a public key
 157:D:/fchai/work/i-cube/I-CUBE-HUAWEI/Middlewares/Third_Party/Huawei/iot_link/network/dtls/mbedtls/mbedtls-2.16.2/library\pkparse.c ****  */
 158:D:/fchai/work/i-cube/I-CUBE-HUAWEI/Middlewares/Third_Party/Huawei/iot_link/network/dtls/mbedtls/mbedtls-2.16.2/library\pkparse.c **** int mbedtls_pk_parse_public_keyfile( mbedtls_pk_context *ctx, const char *path )
 159:D:/fchai/work/i-cube/I-CUBE-HUAWEI/Middlewares/Third_Party/Huawei/iot_link/network/dtls/mbedtls/mbedtls-2.16.2/library\pkparse.c **** {
 160:D:/fchai/work/i-cube/I-CUBE-HUAWEI/Middlewares/Third_Party/Huawei/iot_link/network/dtls/mbedtls/mbedtls-2.16.2/library\pkparse.c ****     int ret;
 161:D:/fchai/work/i-cube/I-CUBE-HUAWEI/Middlewares/Third_Party/Huawei/iot_link/network/dtls/mbedtls/mbedtls-2.16.2/library\pkparse.c ****     size_t n;
 162:D:/fchai/work/i-cube/I-CUBE-HUAWEI/Middlewares/Third_Party/Huawei/iot_link/network/dtls/mbedtls/mbedtls-2.16.2/library\pkparse.c ****     unsigned char *buf;
 163:D:/fchai/work/i-cube/I-CUBE-HUAWEI/Middlewares/Third_Party/Huawei/iot_link/network/dtls/mbedtls/mbedtls-2.16.2/library\pkparse.c **** 
 164:D:/fchai/work/i-cube/I-CUBE-HUAWEI/Middlewares/Third_Party/Huawei/iot_link/network/dtls/mbedtls/mbedtls-2.16.2/library\pkparse.c ****     PK_VALIDATE_RET( ctx != NULL );
 165:D:/fchai/work/i-cube/I-CUBE-HUAWEI/Middlewares/Third_Party/Huawei/iot_link/network/dtls/mbedtls/mbedtls-2.16.2/library\pkparse.c ****     PK_VALIDATE_RET( path != NULL );
 166:D:/fchai/work/i-cube/I-CUBE-HUAWEI/Middlewares/Third_Party/Huawei/iot_link/network/dtls/mbedtls/mbedtls-2.16.2/library\pkparse.c **** 
 167:D:/fchai/work/i-cube/I-CUBE-HUAWEI/Middlewares/Third_Party/Huawei/iot_link/network/dtls/mbedtls/mbedtls-2.16.2/library\pkparse.c ****     if( ( ret = mbedtls_pk_load_file( path, &buf, &n ) ) != 0 )
 168:D:/fchai/work/i-cube/I-CUBE-HUAWEI/Middlewares/Third_Party/Huawei/iot_link/network/dtls/mbedtls/mbedtls-2.16.2/library\pkparse.c ****         return( ret );
 169:D:/fchai/work/i-cube/I-CUBE-HUAWEI/Middlewares/Third_Party/Huawei/iot_link/network/dtls/mbedtls/mbedtls-2.16.2/library\pkparse.c **** 
 170:D:/fchai/work/i-cube/I-CUBE-HUAWEI/Middlewares/Third_Party/Huawei/iot_link/network/dtls/mbedtls/mbedtls-2.16.2/library\pkparse.c ****     ret = mbedtls_pk_parse_public_key( ctx, buf, n );
 171:D:/fchai/work/i-cube/I-CUBE-HUAWEI/Middlewares/Third_Party/Huawei/iot_link/network/dtls/mbedtls/mbedtls-2.16.2/library\pkparse.c **** 
 172:D:/fchai/work/i-cube/I-CUBE-HUAWEI/Middlewares/Third_Party/Huawei/iot_link/network/dtls/mbedtls/mbedtls-2.16.2/library\pkparse.c ****     mbedtls_platform_zeroize( buf, n );
 173:D:/fchai/work/i-cube/I-CUBE-HUAWEI/Middlewares/Third_Party/Huawei/iot_link/network/dtls/mbedtls/mbedtls-2.16.2/library\pkparse.c ****     mbedtls_free( buf );
 174:D:/fchai/work/i-cube/I-CUBE-HUAWEI/Middlewares/Third_Party/Huawei/iot_link/network/dtls/mbedtls/mbedtls-2.16.2/library\pkparse.c **** 
 175:D:/fchai/work/i-cube/I-CUBE-HUAWEI/Middlewares/Third_Party/Huawei/iot_link/network/dtls/mbedtls/mbedtls-2.16.2/library\pkparse.c ****     return( ret );
 176:D:/fchai/work/i-cube/I-CUBE-HUAWEI/Middlewares/Third_Party/Huawei/iot_link/network/dtls/mbedtls/mbedtls-2.16.2/library\pkparse.c **** }
 177:D:/fchai/work/i-cube/I-CUBE-HUAWEI/Middlewares/Third_Party/Huawei/iot_link/network/dtls/mbedtls/mbedtls-2.16.2/library\pkparse.c **** #endif /* MBEDTLS_FS_IO */
 178:D:/fchai/work/i-cube/I-CUBE-HUAWEI/Middlewares/Third_Party/Huawei/iot_link/network/dtls/mbedtls/mbedtls-2.16.2/library\pkparse.c **** 
 179:D:/fchai/work/i-cube/I-CUBE-HUAWEI/Middlewares/Third_Party/Huawei/iot_link/network/dtls/mbedtls/mbedtls-2.16.2/library\pkparse.c **** #if defined(MBEDTLS_ECP_C)
 180:D:/fchai/work/i-cube/I-CUBE-HUAWEI/Middlewares/Third_Party/Huawei/iot_link/network/dtls/mbedtls/mbedtls-2.16.2/library\pkparse.c **** /* Minimally parse an ECParameters buffer to and mbedtls_asn1_buf
 181:D:/fchai/work/i-cube/I-CUBE-HUAWEI/Middlewares/Third_Party/Huawei/iot_link/network/dtls/mbedtls/mbedtls-2.16.2/library\pkparse.c ****  *
 182:D:/fchai/work/i-cube/I-CUBE-HUAWEI/Middlewares/Third_Party/Huawei/iot_link/network/dtls/mbedtls/mbedtls-2.16.2/library\pkparse.c ****  * ECParameters ::= CHOICE {
 183:D:/fchai/work/i-cube/I-CUBE-HUAWEI/Middlewares/Third_Party/Huawei/iot_link/network/dtls/mbedtls/mbedtls-2.16.2/library\pkparse.c ****  *   namedCurve         OBJECT IDENTIFIER
 184:D:/fchai/work/i-cube/I-CUBE-HUAWEI/Middlewares/Third_Party/Huawei/iot_link/network/dtls/mbedtls/mbedtls-2.16.2/library\pkparse.c ****  *   specifiedCurve     SpecifiedECDomain -- = SEQUENCE { ... }
 185:D:/fchai/work/i-cube/I-CUBE-HUAWEI/Middlewares/Third_Party/Huawei/iot_link/network/dtls/mbedtls/mbedtls-2.16.2/library\pkparse.c ****  *   -- implicitCurve   NULL
 186:D:/fchai/work/i-cube/I-CUBE-HUAWEI/Middlewares/Third_Party/Huawei/iot_link/network/dtls/mbedtls/mbedtls-2.16.2/library\pkparse.c ****  * }
 187:D:/fchai/work/i-cube/I-CUBE-HUAWEI/Middlewares/Third_Party/Huawei/iot_link/network/dtls/mbedtls/mbedtls-2.16.2/library\pkparse.c ****  */
 188:D:/fchai/work/i-cube/I-CUBE-HUAWEI/Middlewares/Third_Party/Huawei/iot_link/network/dtls/mbedtls/mbedtls-2.16.2/library\pkparse.c **** static int pk_get_ecparams( unsigned char **p, const unsigned char *end,
 189:D:/fchai/work/i-cube/I-CUBE-HUAWEI/Middlewares/Third_Party/Huawei/iot_link/network/dtls/mbedtls/mbedtls-2.16.2/library\pkparse.c ****                             mbedtls_asn1_buf *params )
 190:D:/fchai/work/i-cube/I-CUBE-HUAWEI/Middlewares/Third_Party/Huawei/iot_link/network/dtls/mbedtls/mbedtls-2.16.2/library\pkparse.c **** {
 191:D:/fchai/work/i-cube/I-CUBE-HUAWEI/Middlewares/Third_Party/Huawei/iot_link/network/dtls/mbedtls/mbedtls-2.16.2/library\pkparse.c ****     int ret;
 192:D:/fchai/work/i-cube/I-CUBE-HUAWEI/Middlewares/Third_Party/Huawei/iot_link/network/dtls/mbedtls/mbedtls-2.16.2/library\pkparse.c **** 
 193:D:/fchai/work/i-cube/I-CUBE-HUAWEI/Middlewares/Third_Party/Huawei/iot_link/network/dtls/mbedtls/mbedtls-2.16.2/library\pkparse.c ****     if ( end - *p < 1 )
 194:D:/fchai/work/i-cube/I-CUBE-HUAWEI/Middlewares/Third_Party/Huawei/iot_link/network/dtls/mbedtls/mbedtls-2.16.2/library\pkparse.c ****         return( MBEDTLS_ERR_PK_KEY_INVALID_FORMAT +
 195:D:/fchai/work/i-cube/I-CUBE-HUAWEI/Middlewares/Third_Party/Huawei/iot_link/network/dtls/mbedtls/mbedtls-2.16.2/library\pkparse.c ****                 MBEDTLS_ERR_ASN1_OUT_OF_DATA );
 196:D:/fchai/work/i-cube/I-CUBE-HUAWEI/Middlewares/Third_Party/Huawei/iot_link/network/dtls/mbedtls/mbedtls-2.16.2/library\pkparse.c **** 
 197:D:/fchai/work/i-cube/I-CUBE-HUAWEI/Middlewares/Third_Party/Huawei/iot_link/network/dtls/mbedtls/mbedtls-2.16.2/library\pkparse.c ****     /* Tag may be either OID or SEQUENCE */
 198:D:/fchai/work/i-cube/I-CUBE-HUAWEI/Middlewares/Third_Party/Huawei/iot_link/network/dtls/mbedtls/mbedtls-2.16.2/library\pkparse.c ****     params->tag = **p;
 199:D:/fchai/work/i-cube/I-CUBE-HUAWEI/Middlewares/Third_Party/Huawei/iot_link/network/dtls/mbedtls/mbedtls-2.16.2/library\pkparse.c ****     if( params->tag != MBEDTLS_ASN1_OID
 200:D:/fchai/work/i-cube/I-CUBE-HUAWEI/Middlewares/Third_Party/Huawei/iot_link/network/dtls/mbedtls/mbedtls-2.16.2/library\pkparse.c **** #if defined(MBEDTLS_PK_PARSE_EC_EXTENDED)
ARM GAS  T:\msys\tmp\cc83OHoG.s 			page 5


 201:D:/fchai/work/i-cube/I-CUBE-HUAWEI/Middlewares/Third_Party/Huawei/iot_link/network/dtls/mbedtls/mbedtls-2.16.2/library\pkparse.c ****             && params->tag != ( MBEDTLS_ASN1_CONSTRUCTED | MBEDTLS_ASN1_SEQUENCE )
 202:D:/fchai/work/i-cube/I-CUBE-HUAWEI/Middlewares/Third_Party/Huawei/iot_link/network/dtls/mbedtls/mbedtls-2.16.2/library\pkparse.c **** #endif
 203:D:/fchai/work/i-cube/I-CUBE-HUAWEI/Middlewares/Third_Party/Huawei/iot_link/network/dtls/mbedtls/mbedtls-2.16.2/library\pkparse.c ****             )
 204:D:/fchai/work/i-cube/I-CUBE-HUAWEI/Middlewares/Third_Party/Huawei/iot_link/network/dtls/mbedtls/mbedtls-2.16.2/library\pkparse.c ****     {
 205:D:/fchai/work/i-cube/I-CUBE-HUAWEI/Middlewares/Third_Party/Huawei/iot_link/network/dtls/mbedtls/mbedtls-2.16.2/library\pkparse.c ****         return( MBEDTLS_ERR_PK_KEY_INVALID_FORMAT +
 206:D:/fchai/work/i-cube/I-CUBE-HUAWEI/Middlewares/Third_Party/Huawei/iot_link/network/dtls/mbedtls/mbedtls-2.16.2/library\pkparse.c ****                 MBEDTLS_ERR_ASN1_UNEXPECTED_TAG );
 207:D:/fchai/work/i-cube/I-CUBE-HUAWEI/Middlewares/Third_Party/Huawei/iot_link/network/dtls/mbedtls/mbedtls-2.16.2/library\pkparse.c ****     }
 208:D:/fchai/work/i-cube/I-CUBE-HUAWEI/Middlewares/Third_Party/Huawei/iot_link/network/dtls/mbedtls/mbedtls-2.16.2/library\pkparse.c **** 
 209:D:/fchai/work/i-cube/I-CUBE-HUAWEI/Middlewares/Third_Party/Huawei/iot_link/network/dtls/mbedtls/mbedtls-2.16.2/library\pkparse.c ****     if( ( ret = mbedtls_asn1_get_tag( p, end, &params->len, params->tag ) ) != 0 )
 210:D:/fchai/work/i-cube/I-CUBE-HUAWEI/Middlewares/Third_Party/Huawei/iot_link/network/dtls/mbedtls/mbedtls-2.16.2/library\pkparse.c ****     {
 211:D:/fchai/work/i-cube/I-CUBE-HUAWEI/Middlewares/Third_Party/Huawei/iot_link/network/dtls/mbedtls/mbedtls-2.16.2/library\pkparse.c ****         return( MBEDTLS_ERR_PK_KEY_INVALID_FORMAT + ret );
 212:D:/fchai/work/i-cube/I-CUBE-HUAWEI/Middlewares/Third_Party/Huawei/iot_link/network/dtls/mbedtls/mbedtls-2.16.2/library\pkparse.c ****     }
 213:D:/fchai/work/i-cube/I-CUBE-HUAWEI/Middlewares/Third_Party/Huawei/iot_link/network/dtls/mbedtls/mbedtls-2.16.2/library\pkparse.c **** 
 214:D:/fchai/work/i-cube/I-CUBE-HUAWEI/Middlewares/Third_Party/Huawei/iot_link/network/dtls/mbedtls/mbedtls-2.16.2/library\pkparse.c ****     params->p = *p;
 215:D:/fchai/work/i-cube/I-CUBE-HUAWEI/Middlewares/Third_Party/Huawei/iot_link/network/dtls/mbedtls/mbedtls-2.16.2/library\pkparse.c ****     *p += params->len;
 216:D:/fchai/work/i-cube/I-CUBE-HUAWEI/Middlewares/Third_Party/Huawei/iot_link/network/dtls/mbedtls/mbedtls-2.16.2/library\pkparse.c **** 
 217:D:/fchai/work/i-cube/I-CUBE-HUAWEI/Middlewares/Third_Party/Huawei/iot_link/network/dtls/mbedtls/mbedtls-2.16.2/library\pkparse.c ****     if( *p != end )
 218:D:/fchai/work/i-cube/I-CUBE-HUAWEI/Middlewares/Third_Party/Huawei/iot_link/network/dtls/mbedtls/mbedtls-2.16.2/library\pkparse.c ****         return( MBEDTLS_ERR_PK_KEY_INVALID_FORMAT +
 219:D:/fchai/work/i-cube/I-CUBE-HUAWEI/Middlewares/Third_Party/Huawei/iot_link/network/dtls/mbedtls/mbedtls-2.16.2/library\pkparse.c ****                 MBEDTLS_ERR_ASN1_LENGTH_MISMATCH );
 220:D:/fchai/work/i-cube/I-CUBE-HUAWEI/Middlewares/Third_Party/Huawei/iot_link/network/dtls/mbedtls/mbedtls-2.16.2/library\pkparse.c **** 
 221:D:/fchai/work/i-cube/I-CUBE-HUAWEI/Middlewares/Third_Party/Huawei/iot_link/network/dtls/mbedtls/mbedtls-2.16.2/library\pkparse.c ****     return( 0 );
 222:D:/fchai/work/i-cube/I-CUBE-HUAWEI/Middlewares/Third_Party/Huawei/iot_link/network/dtls/mbedtls/mbedtls-2.16.2/library\pkparse.c **** }
 223:D:/fchai/work/i-cube/I-CUBE-HUAWEI/Middlewares/Third_Party/Huawei/iot_link/network/dtls/mbedtls/mbedtls-2.16.2/library\pkparse.c **** 
 224:D:/fchai/work/i-cube/I-CUBE-HUAWEI/Middlewares/Third_Party/Huawei/iot_link/network/dtls/mbedtls/mbedtls-2.16.2/library\pkparse.c **** #if defined(MBEDTLS_PK_PARSE_EC_EXTENDED)
 225:D:/fchai/work/i-cube/I-CUBE-HUAWEI/Middlewares/Third_Party/Huawei/iot_link/network/dtls/mbedtls/mbedtls-2.16.2/library\pkparse.c **** /*
 226:D:/fchai/work/i-cube/I-CUBE-HUAWEI/Middlewares/Third_Party/Huawei/iot_link/network/dtls/mbedtls/mbedtls-2.16.2/library\pkparse.c ****  * Parse a SpecifiedECDomain (SEC 1 C.2) and (mostly) fill the group with it.
 227:D:/fchai/work/i-cube/I-CUBE-HUAWEI/Middlewares/Third_Party/Huawei/iot_link/network/dtls/mbedtls/mbedtls-2.16.2/library\pkparse.c ****  * WARNING: the resulting group should only be used with
 228:D:/fchai/work/i-cube/I-CUBE-HUAWEI/Middlewares/Third_Party/Huawei/iot_link/network/dtls/mbedtls/mbedtls-2.16.2/library\pkparse.c ****  * pk_group_id_from_specified(), since its base point may not be set correctly
 229:D:/fchai/work/i-cube/I-CUBE-HUAWEI/Middlewares/Third_Party/Huawei/iot_link/network/dtls/mbedtls/mbedtls-2.16.2/library\pkparse.c ****  * if it was encoded compressed.
 230:D:/fchai/work/i-cube/I-CUBE-HUAWEI/Middlewares/Third_Party/Huawei/iot_link/network/dtls/mbedtls/mbedtls-2.16.2/library\pkparse.c ****  *
 231:D:/fchai/work/i-cube/I-CUBE-HUAWEI/Middlewares/Third_Party/Huawei/iot_link/network/dtls/mbedtls/mbedtls-2.16.2/library\pkparse.c ****  *  SpecifiedECDomain ::= SEQUENCE {
 232:D:/fchai/work/i-cube/I-CUBE-HUAWEI/Middlewares/Third_Party/Huawei/iot_link/network/dtls/mbedtls/mbedtls-2.16.2/library\pkparse.c ****  *      version SpecifiedECDomainVersion(ecdpVer1 | ecdpVer2 | ecdpVer3, ...),
 233:D:/fchai/work/i-cube/I-CUBE-HUAWEI/Middlewares/Third_Party/Huawei/iot_link/network/dtls/mbedtls/mbedtls-2.16.2/library\pkparse.c ****  *      fieldID FieldID {{FieldTypes}},
 234:D:/fchai/work/i-cube/I-CUBE-HUAWEI/Middlewares/Third_Party/Huawei/iot_link/network/dtls/mbedtls/mbedtls-2.16.2/library\pkparse.c ****  *      curve Curve,
 235:D:/fchai/work/i-cube/I-CUBE-HUAWEI/Middlewares/Third_Party/Huawei/iot_link/network/dtls/mbedtls/mbedtls-2.16.2/library\pkparse.c ****  *      base ECPoint,
 236:D:/fchai/work/i-cube/I-CUBE-HUAWEI/Middlewares/Third_Party/Huawei/iot_link/network/dtls/mbedtls/mbedtls-2.16.2/library\pkparse.c ****  *      order INTEGER,
 237:D:/fchai/work/i-cube/I-CUBE-HUAWEI/Middlewares/Third_Party/Huawei/iot_link/network/dtls/mbedtls/mbedtls-2.16.2/library\pkparse.c ****  *      cofactor INTEGER OPTIONAL,
 238:D:/fchai/work/i-cube/I-CUBE-HUAWEI/Middlewares/Third_Party/Huawei/iot_link/network/dtls/mbedtls/mbedtls-2.16.2/library\pkparse.c ****  *      hash HashAlgorithm OPTIONAL,
 239:D:/fchai/work/i-cube/I-CUBE-HUAWEI/Middlewares/Third_Party/Huawei/iot_link/network/dtls/mbedtls/mbedtls-2.16.2/library\pkparse.c ****  *      ...
 240:D:/fchai/work/i-cube/I-CUBE-HUAWEI/Middlewares/Third_Party/Huawei/iot_link/network/dtls/mbedtls/mbedtls-2.16.2/library\pkparse.c ****  *  }
 241:D:/fchai/work/i-cube/I-CUBE-HUAWEI/Middlewares/Third_Party/Huawei/iot_link/network/dtls/mbedtls/mbedtls-2.16.2/library\pkparse.c ****  *
 242:D:/fchai/work/i-cube/I-CUBE-HUAWEI/Middlewares/Third_Party/Huawei/iot_link/network/dtls/mbedtls/mbedtls-2.16.2/library\pkparse.c ****  * We only support prime-field as field type, and ignore hash and cofactor.
 243:D:/fchai/work/i-cube/I-CUBE-HUAWEI/Middlewares/Third_Party/Huawei/iot_link/network/dtls/mbedtls/mbedtls-2.16.2/library\pkparse.c ****  */
 244:D:/fchai/work/i-cube/I-CUBE-HUAWEI/Middlewares/Third_Party/Huawei/iot_link/network/dtls/mbedtls/mbedtls-2.16.2/library\pkparse.c **** static int pk_group_from_specified( const mbedtls_asn1_buf *params, mbedtls_ecp_group *grp )
 245:D:/fchai/work/i-cube/I-CUBE-HUAWEI/Middlewares/Third_Party/Huawei/iot_link/network/dtls/mbedtls/mbedtls-2.16.2/library\pkparse.c **** {
 246:D:/fchai/work/i-cube/I-CUBE-HUAWEI/Middlewares/Third_Party/Huawei/iot_link/network/dtls/mbedtls/mbedtls-2.16.2/library\pkparse.c ****     int ret;
 247:D:/fchai/work/i-cube/I-CUBE-HUAWEI/Middlewares/Third_Party/Huawei/iot_link/network/dtls/mbedtls/mbedtls-2.16.2/library\pkparse.c ****     unsigned char *p = params->p;
 248:D:/fchai/work/i-cube/I-CUBE-HUAWEI/Middlewares/Third_Party/Huawei/iot_link/network/dtls/mbedtls/mbedtls-2.16.2/library\pkparse.c ****     const unsigned char * const end = params->p + params->len;
 249:D:/fchai/work/i-cube/I-CUBE-HUAWEI/Middlewares/Third_Party/Huawei/iot_link/network/dtls/mbedtls/mbedtls-2.16.2/library\pkparse.c ****     const unsigned char *end_field, *end_curve;
 250:D:/fchai/work/i-cube/I-CUBE-HUAWEI/Middlewares/Third_Party/Huawei/iot_link/network/dtls/mbedtls/mbedtls-2.16.2/library\pkparse.c ****     size_t len;
 251:D:/fchai/work/i-cube/I-CUBE-HUAWEI/Middlewares/Third_Party/Huawei/iot_link/network/dtls/mbedtls/mbedtls-2.16.2/library\pkparse.c ****     int ver;
 252:D:/fchai/work/i-cube/I-CUBE-HUAWEI/Middlewares/Third_Party/Huawei/iot_link/network/dtls/mbedtls/mbedtls-2.16.2/library\pkparse.c **** 
 253:D:/fchai/work/i-cube/I-CUBE-HUAWEI/Middlewares/Third_Party/Huawei/iot_link/network/dtls/mbedtls/mbedtls-2.16.2/library\pkparse.c ****     /* SpecifiedECDomainVersion ::= INTEGER { 1, 2, 3 } */
 254:D:/fchai/work/i-cube/I-CUBE-HUAWEI/Middlewares/Third_Party/Huawei/iot_link/network/dtls/mbedtls/mbedtls-2.16.2/library\pkparse.c ****     if( ( ret = mbedtls_asn1_get_int( &p, end, &ver ) ) != 0 )
 255:D:/fchai/work/i-cube/I-CUBE-HUAWEI/Middlewares/Third_Party/Huawei/iot_link/network/dtls/mbedtls/mbedtls-2.16.2/library\pkparse.c ****         return( MBEDTLS_ERR_PK_KEY_INVALID_FORMAT + ret );
 256:D:/fchai/work/i-cube/I-CUBE-HUAWEI/Middlewares/Third_Party/Huawei/iot_link/network/dtls/mbedtls/mbedtls-2.16.2/library\pkparse.c **** 
 257:D:/fchai/work/i-cube/I-CUBE-HUAWEI/Middlewares/Third_Party/Huawei/iot_link/network/dtls/mbedtls/mbedtls-2.16.2/library\pkparse.c ****     if( ver < 1 || ver > 3 )
ARM GAS  T:\msys\tmp\cc83OHoG.s 			page 6


 258:D:/fchai/work/i-cube/I-CUBE-HUAWEI/Middlewares/Third_Party/Huawei/iot_link/network/dtls/mbedtls/mbedtls-2.16.2/library\pkparse.c ****         return( MBEDTLS_ERR_PK_KEY_INVALID_FORMAT );
 259:D:/fchai/work/i-cube/I-CUBE-HUAWEI/Middlewares/Third_Party/Huawei/iot_link/network/dtls/mbedtls/mbedtls-2.16.2/library\pkparse.c **** 
 260:D:/fchai/work/i-cube/I-CUBE-HUAWEI/Middlewares/Third_Party/Huawei/iot_link/network/dtls/mbedtls/mbedtls-2.16.2/library\pkparse.c ****     /*
 261:D:/fchai/work/i-cube/I-CUBE-HUAWEI/Middlewares/Third_Party/Huawei/iot_link/network/dtls/mbedtls/mbedtls-2.16.2/library\pkparse.c ****      * FieldID { FIELD-ID:IOSet } ::= SEQUENCE { -- Finite field
 262:D:/fchai/work/i-cube/I-CUBE-HUAWEI/Middlewares/Third_Party/Huawei/iot_link/network/dtls/mbedtls/mbedtls-2.16.2/library\pkparse.c ****      *       fieldType FIELD-ID.&id({IOSet}),
 263:D:/fchai/work/i-cube/I-CUBE-HUAWEI/Middlewares/Third_Party/Huawei/iot_link/network/dtls/mbedtls/mbedtls-2.16.2/library\pkparse.c ****      *       parameters FIELD-ID.&Type({IOSet}{@fieldType})
 264:D:/fchai/work/i-cube/I-CUBE-HUAWEI/Middlewares/Third_Party/Huawei/iot_link/network/dtls/mbedtls/mbedtls-2.16.2/library\pkparse.c ****      * }
 265:D:/fchai/work/i-cube/I-CUBE-HUAWEI/Middlewares/Third_Party/Huawei/iot_link/network/dtls/mbedtls/mbedtls-2.16.2/library\pkparse.c ****      */
 266:D:/fchai/work/i-cube/I-CUBE-HUAWEI/Middlewares/Third_Party/Huawei/iot_link/network/dtls/mbedtls/mbedtls-2.16.2/library\pkparse.c ****     if( ( ret = mbedtls_asn1_get_tag( &p, end, &len,
 267:D:/fchai/work/i-cube/I-CUBE-HUAWEI/Middlewares/Third_Party/Huawei/iot_link/network/dtls/mbedtls/mbedtls-2.16.2/library\pkparse.c ****             MBEDTLS_ASN1_CONSTRUCTED | MBEDTLS_ASN1_SEQUENCE ) ) != 0 )
 268:D:/fchai/work/i-cube/I-CUBE-HUAWEI/Middlewares/Third_Party/Huawei/iot_link/network/dtls/mbedtls/mbedtls-2.16.2/library\pkparse.c ****         return( ret );
 269:D:/fchai/work/i-cube/I-CUBE-HUAWEI/Middlewares/Third_Party/Huawei/iot_link/network/dtls/mbedtls/mbedtls-2.16.2/library\pkparse.c **** 
 270:D:/fchai/work/i-cube/I-CUBE-HUAWEI/Middlewares/Third_Party/Huawei/iot_link/network/dtls/mbedtls/mbedtls-2.16.2/library\pkparse.c ****     end_field = p + len;
 271:D:/fchai/work/i-cube/I-CUBE-HUAWEI/Middlewares/Third_Party/Huawei/iot_link/network/dtls/mbedtls/mbedtls-2.16.2/library\pkparse.c **** 
 272:D:/fchai/work/i-cube/I-CUBE-HUAWEI/Middlewares/Third_Party/Huawei/iot_link/network/dtls/mbedtls/mbedtls-2.16.2/library\pkparse.c ****     /*
 273:D:/fchai/work/i-cube/I-CUBE-HUAWEI/Middlewares/Third_Party/Huawei/iot_link/network/dtls/mbedtls/mbedtls-2.16.2/library\pkparse.c ****      * FIELD-ID ::= TYPE-IDENTIFIER
 274:D:/fchai/work/i-cube/I-CUBE-HUAWEI/Middlewares/Third_Party/Huawei/iot_link/network/dtls/mbedtls/mbedtls-2.16.2/library\pkparse.c ****      * FieldTypes FIELD-ID ::= {
 275:D:/fchai/work/i-cube/I-CUBE-HUAWEI/Middlewares/Third_Party/Huawei/iot_link/network/dtls/mbedtls/mbedtls-2.16.2/library\pkparse.c ****      *       { Prime-p IDENTIFIED BY prime-field } |
 276:D:/fchai/work/i-cube/I-CUBE-HUAWEI/Middlewares/Third_Party/Huawei/iot_link/network/dtls/mbedtls/mbedtls-2.16.2/library\pkparse.c ****      *       { Characteristic-two IDENTIFIED BY characteristic-two-field }
 277:D:/fchai/work/i-cube/I-CUBE-HUAWEI/Middlewares/Third_Party/Huawei/iot_link/network/dtls/mbedtls/mbedtls-2.16.2/library\pkparse.c ****      * }
 278:D:/fchai/work/i-cube/I-CUBE-HUAWEI/Middlewares/Third_Party/Huawei/iot_link/network/dtls/mbedtls/mbedtls-2.16.2/library\pkparse.c ****      * prime-field OBJECT IDENTIFIER ::= { id-fieldType 1 }
 279:D:/fchai/work/i-cube/I-CUBE-HUAWEI/Middlewares/Third_Party/Huawei/iot_link/network/dtls/mbedtls/mbedtls-2.16.2/library\pkparse.c ****      */
 280:D:/fchai/work/i-cube/I-CUBE-HUAWEI/Middlewares/Third_Party/Huawei/iot_link/network/dtls/mbedtls/mbedtls-2.16.2/library\pkparse.c ****     if( ( ret = mbedtls_asn1_get_tag( &p, end_field, &len, MBEDTLS_ASN1_OID ) ) != 0 )
 281:D:/fchai/work/i-cube/I-CUBE-HUAWEI/Middlewares/Third_Party/Huawei/iot_link/network/dtls/mbedtls/mbedtls-2.16.2/library\pkparse.c ****         return( ret );
 282:D:/fchai/work/i-cube/I-CUBE-HUAWEI/Middlewares/Third_Party/Huawei/iot_link/network/dtls/mbedtls/mbedtls-2.16.2/library\pkparse.c **** 
 283:D:/fchai/work/i-cube/I-CUBE-HUAWEI/Middlewares/Third_Party/Huawei/iot_link/network/dtls/mbedtls/mbedtls-2.16.2/library\pkparse.c ****     if( len != MBEDTLS_OID_SIZE( MBEDTLS_OID_ANSI_X9_62_PRIME_FIELD ) ||
 284:D:/fchai/work/i-cube/I-CUBE-HUAWEI/Middlewares/Third_Party/Huawei/iot_link/network/dtls/mbedtls/mbedtls-2.16.2/library\pkparse.c ****         memcmp( p, MBEDTLS_OID_ANSI_X9_62_PRIME_FIELD, len ) != 0 )
 285:D:/fchai/work/i-cube/I-CUBE-HUAWEI/Middlewares/Third_Party/Huawei/iot_link/network/dtls/mbedtls/mbedtls-2.16.2/library\pkparse.c ****     {
 286:D:/fchai/work/i-cube/I-CUBE-HUAWEI/Middlewares/Third_Party/Huawei/iot_link/network/dtls/mbedtls/mbedtls-2.16.2/library\pkparse.c ****         return( MBEDTLS_ERR_PK_FEATURE_UNAVAILABLE );
 287:D:/fchai/work/i-cube/I-CUBE-HUAWEI/Middlewares/Third_Party/Huawei/iot_link/network/dtls/mbedtls/mbedtls-2.16.2/library\pkparse.c ****     }
 288:D:/fchai/work/i-cube/I-CUBE-HUAWEI/Middlewares/Third_Party/Huawei/iot_link/network/dtls/mbedtls/mbedtls-2.16.2/library\pkparse.c **** 
 289:D:/fchai/work/i-cube/I-CUBE-HUAWEI/Middlewares/Third_Party/Huawei/iot_link/network/dtls/mbedtls/mbedtls-2.16.2/library\pkparse.c ****     p += len;
 290:D:/fchai/work/i-cube/I-CUBE-HUAWEI/Middlewares/Third_Party/Huawei/iot_link/network/dtls/mbedtls/mbedtls-2.16.2/library\pkparse.c **** 
 291:D:/fchai/work/i-cube/I-CUBE-HUAWEI/Middlewares/Third_Party/Huawei/iot_link/network/dtls/mbedtls/mbedtls-2.16.2/library\pkparse.c ****     /* Prime-p ::= INTEGER -- Field of size p. */
 292:D:/fchai/work/i-cube/I-CUBE-HUAWEI/Middlewares/Third_Party/Huawei/iot_link/network/dtls/mbedtls/mbedtls-2.16.2/library\pkparse.c ****     if( ( ret = mbedtls_asn1_get_mpi( &p, end_field, &grp->P ) ) != 0 )
 293:D:/fchai/work/i-cube/I-CUBE-HUAWEI/Middlewares/Third_Party/Huawei/iot_link/network/dtls/mbedtls/mbedtls-2.16.2/library\pkparse.c ****         return( MBEDTLS_ERR_PK_KEY_INVALID_FORMAT + ret );
 294:D:/fchai/work/i-cube/I-CUBE-HUAWEI/Middlewares/Third_Party/Huawei/iot_link/network/dtls/mbedtls/mbedtls-2.16.2/library\pkparse.c **** 
 295:D:/fchai/work/i-cube/I-CUBE-HUAWEI/Middlewares/Third_Party/Huawei/iot_link/network/dtls/mbedtls/mbedtls-2.16.2/library\pkparse.c ****     grp->pbits = mbedtls_mpi_bitlen( &grp->P );
 296:D:/fchai/work/i-cube/I-CUBE-HUAWEI/Middlewares/Third_Party/Huawei/iot_link/network/dtls/mbedtls/mbedtls-2.16.2/library\pkparse.c **** 
 297:D:/fchai/work/i-cube/I-CUBE-HUAWEI/Middlewares/Third_Party/Huawei/iot_link/network/dtls/mbedtls/mbedtls-2.16.2/library\pkparse.c ****     if( p != end_field )
 298:D:/fchai/work/i-cube/I-CUBE-HUAWEI/Middlewares/Third_Party/Huawei/iot_link/network/dtls/mbedtls/mbedtls-2.16.2/library\pkparse.c ****         return( MBEDTLS_ERR_PK_KEY_INVALID_FORMAT +
 299:D:/fchai/work/i-cube/I-CUBE-HUAWEI/Middlewares/Third_Party/Huawei/iot_link/network/dtls/mbedtls/mbedtls-2.16.2/library\pkparse.c ****                 MBEDTLS_ERR_ASN1_LENGTH_MISMATCH );
 300:D:/fchai/work/i-cube/I-CUBE-HUAWEI/Middlewares/Third_Party/Huawei/iot_link/network/dtls/mbedtls/mbedtls-2.16.2/library\pkparse.c **** 
 301:D:/fchai/work/i-cube/I-CUBE-HUAWEI/Middlewares/Third_Party/Huawei/iot_link/network/dtls/mbedtls/mbedtls-2.16.2/library\pkparse.c ****     /*
 302:D:/fchai/work/i-cube/I-CUBE-HUAWEI/Middlewares/Third_Party/Huawei/iot_link/network/dtls/mbedtls/mbedtls-2.16.2/library\pkparse.c ****      * Curve ::= SEQUENCE {
 303:D:/fchai/work/i-cube/I-CUBE-HUAWEI/Middlewares/Third_Party/Huawei/iot_link/network/dtls/mbedtls/mbedtls-2.16.2/library\pkparse.c ****      *       a FieldElement,
 304:D:/fchai/work/i-cube/I-CUBE-HUAWEI/Middlewares/Third_Party/Huawei/iot_link/network/dtls/mbedtls/mbedtls-2.16.2/library\pkparse.c ****      *       b FieldElement,
 305:D:/fchai/work/i-cube/I-CUBE-HUAWEI/Middlewares/Third_Party/Huawei/iot_link/network/dtls/mbedtls/mbedtls-2.16.2/library\pkparse.c ****      *       seed BIT STRING OPTIONAL
 306:D:/fchai/work/i-cube/I-CUBE-HUAWEI/Middlewares/Third_Party/Huawei/iot_link/network/dtls/mbedtls/mbedtls-2.16.2/library\pkparse.c ****      *       -- Shall be present if used in SpecifiedECDomain
 307:D:/fchai/work/i-cube/I-CUBE-HUAWEI/Middlewares/Third_Party/Huawei/iot_link/network/dtls/mbedtls/mbedtls-2.16.2/library\pkparse.c ****      *       -- with version equal to ecdpVer2 or ecdpVer3
 308:D:/fchai/work/i-cube/I-CUBE-HUAWEI/Middlewares/Third_Party/Huawei/iot_link/network/dtls/mbedtls/mbedtls-2.16.2/library\pkparse.c ****      * }
 309:D:/fchai/work/i-cube/I-CUBE-HUAWEI/Middlewares/Third_Party/Huawei/iot_link/network/dtls/mbedtls/mbedtls-2.16.2/library\pkparse.c ****      */
 310:D:/fchai/work/i-cube/I-CUBE-HUAWEI/Middlewares/Third_Party/Huawei/iot_link/network/dtls/mbedtls/mbedtls-2.16.2/library\pkparse.c ****     if( ( ret = mbedtls_asn1_get_tag( &p, end, &len,
 311:D:/fchai/work/i-cube/I-CUBE-HUAWEI/Middlewares/Third_Party/Huawei/iot_link/network/dtls/mbedtls/mbedtls-2.16.2/library\pkparse.c ****             MBEDTLS_ASN1_CONSTRUCTED | MBEDTLS_ASN1_SEQUENCE ) ) != 0 )
 312:D:/fchai/work/i-cube/I-CUBE-HUAWEI/Middlewares/Third_Party/Huawei/iot_link/network/dtls/mbedtls/mbedtls-2.16.2/library\pkparse.c ****         return( ret );
 313:D:/fchai/work/i-cube/I-CUBE-HUAWEI/Middlewares/Third_Party/Huawei/iot_link/network/dtls/mbedtls/mbedtls-2.16.2/library\pkparse.c **** 
 314:D:/fchai/work/i-cube/I-CUBE-HUAWEI/Middlewares/Third_Party/Huawei/iot_link/network/dtls/mbedtls/mbedtls-2.16.2/library\pkparse.c ****     end_curve = p + len;
ARM GAS  T:\msys\tmp\cc83OHoG.s 			page 7


 315:D:/fchai/work/i-cube/I-CUBE-HUAWEI/Middlewares/Third_Party/Huawei/iot_link/network/dtls/mbedtls/mbedtls-2.16.2/library\pkparse.c **** 
 316:D:/fchai/work/i-cube/I-CUBE-HUAWEI/Middlewares/Third_Party/Huawei/iot_link/network/dtls/mbedtls/mbedtls-2.16.2/library\pkparse.c ****     /*
 317:D:/fchai/work/i-cube/I-CUBE-HUAWEI/Middlewares/Third_Party/Huawei/iot_link/network/dtls/mbedtls/mbedtls-2.16.2/library\pkparse.c ****      * FieldElement ::= OCTET STRING
 318:D:/fchai/work/i-cube/I-CUBE-HUAWEI/Middlewares/Third_Party/Huawei/iot_link/network/dtls/mbedtls/mbedtls-2.16.2/library\pkparse.c ****      * containing an integer in the case of a prime field
 319:D:/fchai/work/i-cube/I-CUBE-HUAWEI/Middlewares/Third_Party/Huawei/iot_link/network/dtls/mbedtls/mbedtls-2.16.2/library\pkparse.c ****      */
 320:D:/fchai/work/i-cube/I-CUBE-HUAWEI/Middlewares/Third_Party/Huawei/iot_link/network/dtls/mbedtls/mbedtls-2.16.2/library\pkparse.c ****     if( ( ret = mbedtls_asn1_get_tag( &p, end_curve, &len, MBEDTLS_ASN1_OCTET_STRING ) ) != 0 ||
 321:D:/fchai/work/i-cube/I-CUBE-HUAWEI/Middlewares/Third_Party/Huawei/iot_link/network/dtls/mbedtls/mbedtls-2.16.2/library\pkparse.c ****         ( ret = mbedtls_mpi_read_binary( &grp->A, p, len ) ) != 0 )
 322:D:/fchai/work/i-cube/I-CUBE-HUAWEI/Middlewares/Third_Party/Huawei/iot_link/network/dtls/mbedtls/mbedtls-2.16.2/library\pkparse.c ****     {
 323:D:/fchai/work/i-cube/I-CUBE-HUAWEI/Middlewares/Third_Party/Huawei/iot_link/network/dtls/mbedtls/mbedtls-2.16.2/library\pkparse.c ****         return( MBEDTLS_ERR_PK_KEY_INVALID_FORMAT + ret );
 324:D:/fchai/work/i-cube/I-CUBE-HUAWEI/Middlewares/Third_Party/Huawei/iot_link/network/dtls/mbedtls/mbedtls-2.16.2/library\pkparse.c ****     }
 325:D:/fchai/work/i-cube/I-CUBE-HUAWEI/Middlewares/Third_Party/Huawei/iot_link/network/dtls/mbedtls/mbedtls-2.16.2/library\pkparse.c **** 
 326:D:/fchai/work/i-cube/I-CUBE-HUAWEI/Middlewares/Third_Party/Huawei/iot_link/network/dtls/mbedtls/mbedtls-2.16.2/library\pkparse.c ****     p += len;
 327:D:/fchai/work/i-cube/I-CUBE-HUAWEI/Middlewares/Third_Party/Huawei/iot_link/network/dtls/mbedtls/mbedtls-2.16.2/library\pkparse.c **** 
 328:D:/fchai/work/i-cube/I-CUBE-HUAWEI/Middlewares/Third_Party/Huawei/iot_link/network/dtls/mbedtls/mbedtls-2.16.2/library\pkparse.c ****     if( ( ret = mbedtls_asn1_get_tag( &p, end_curve, &len, MBEDTLS_ASN1_OCTET_STRING ) ) != 0 ||
 329:D:/fchai/work/i-cube/I-CUBE-HUAWEI/Middlewares/Third_Party/Huawei/iot_link/network/dtls/mbedtls/mbedtls-2.16.2/library\pkparse.c ****         ( ret = mbedtls_mpi_read_binary( &grp->B, p, len ) ) != 0 )
 330:D:/fchai/work/i-cube/I-CUBE-HUAWEI/Middlewares/Third_Party/Huawei/iot_link/network/dtls/mbedtls/mbedtls-2.16.2/library\pkparse.c ****     {
 331:D:/fchai/work/i-cube/I-CUBE-HUAWEI/Middlewares/Third_Party/Huawei/iot_link/network/dtls/mbedtls/mbedtls-2.16.2/library\pkparse.c ****         return( MBEDTLS_ERR_PK_KEY_INVALID_FORMAT + ret );
 332:D:/fchai/work/i-cube/I-CUBE-HUAWEI/Middlewares/Third_Party/Huawei/iot_link/network/dtls/mbedtls/mbedtls-2.16.2/library\pkparse.c ****     }
 333:D:/fchai/work/i-cube/I-CUBE-HUAWEI/Middlewares/Third_Party/Huawei/iot_link/network/dtls/mbedtls/mbedtls-2.16.2/library\pkparse.c **** 
 334:D:/fchai/work/i-cube/I-CUBE-HUAWEI/Middlewares/Third_Party/Huawei/iot_link/network/dtls/mbedtls/mbedtls-2.16.2/library\pkparse.c ****     p += len;
 335:D:/fchai/work/i-cube/I-CUBE-HUAWEI/Middlewares/Third_Party/Huawei/iot_link/network/dtls/mbedtls/mbedtls-2.16.2/library\pkparse.c **** 
 336:D:/fchai/work/i-cube/I-CUBE-HUAWEI/Middlewares/Third_Party/Huawei/iot_link/network/dtls/mbedtls/mbedtls-2.16.2/library\pkparse.c ****     /* Ignore seed BIT STRING OPTIONAL */
 337:D:/fchai/work/i-cube/I-CUBE-HUAWEI/Middlewares/Third_Party/Huawei/iot_link/network/dtls/mbedtls/mbedtls-2.16.2/library\pkparse.c ****     if( ( ret = mbedtls_asn1_get_tag( &p, end_curve, &len, MBEDTLS_ASN1_BIT_STRING ) ) == 0 )
 338:D:/fchai/work/i-cube/I-CUBE-HUAWEI/Middlewares/Third_Party/Huawei/iot_link/network/dtls/mbedtls/mbedtls-2.16.2/library\pkparse.c ****         p += len;
 339:D:/fchai/work/i-cube/I-CUBE-HUAWEI/Middlewares/Third_Party/Huawei/iot_link/network/dtls/mbedtls/mbedtls-2.16.2/library\pkparse.c **** 
 340:D:/fchai/work/i-cube/I-CUBE-HUAWEI/Middlewares/Third_Party/Huawei/iot_link/network/dtls/mbedtls/mbedtls-2.16.2/library\pkparse.c ****     if( p != end_curve )
 341:D:/fchai/work/i-cube/I-CUBE-HUAWEI/Middlewares/Third_Party/Huawei/iot_link/network/dtls/mbedtls/mbedtls-2.16.2/library\pkparse.c ****         return( MBEDTLS_ERR_PK_KEY_INVALID_FORMAT +
 342:D:/fchai/work/i-cube/I-CUBE-HUAWEI/Middlewares/Third_Party/Huawei/iot_link/network/dtls/mbedtls/mbedtls-2.16.2/library\pkparse.c ****                 MBEDTLS_ERR_ASN1_LENGTH_MISMATCH );
 343:D:/fchai/work/i-cube/I-CUBE-HUAWEI/Middlewares/Third_Party/Huawei/iot_link/network/dtls/mbedtls/mbedtls-2.16.2/library\pkparse.c **** 
 344:D:/fchai/work/i-cube/I-CUBE-HUAWEI/Middlewares/Third_Party/Huawei/iot_link/network/dtls/mbedtls/mbedtls-2.16.2/library\pkparse.c ****     /*
 345:D:/fchai/work/i-cube/I-CUBE-HUAWEI/Middlewares/Third_Party/Huawei/iot_link/network/dtls/mbedtls/mbedtls-2.16.2/library\pkparse.c ****      * ECPoint ::= OCTET STRING
 346:D:/fchai/work/i-cube/I-CUBE-HUAWEI/Middlewares/Third_Party/Huawei/iot_link/network/dtls/mbedtls/mbedtls-2.16.2/library\pkparse.c ****      */
 347:D:/fchai/work/i-cube/I-CUBE-HUAWEI/Middlewares/Third_Party/Huawei/iot_link/network/dtls/mbedtls/mbedtls-2.16.2/library\pkparse.c ****     if( ( ret = mbedtls_asn1_get_tag( &p, end, &len, MBEDTLS_ASN1_OCTET_STRING ) ) != 0 )
 348:D:/fchai/work/i-cube/I-CUBE-HUAWEI/Middlewares/Third_Party/Huawei/iot_link/network/dtls/mbedtls/mbedtls-2.16.2/library\pkparse.c ****         return( MBEDTLS_ERR_PK_KEY_INVALID_FORMAT + ret );
 349:D:/fchai/work/i-cube/I-CUBE-HUAWEI/Middlewares/Third_Party/Huawei/iot_link/network/dtls/mbedtls/mbedtls-2.16.2/library\pkparse.c **** 
 350:D:/fchai/work/i-cube/I-CUBE-HUAWEI/Middlewares/Third_Party/Huawei/iot_link/network/dtls/mbedtls/mbedtls-2.16.2/library\pkparse.c ****     if( ( ret = mbedtls_ecp_point_read_binary( grp, &grp->G,
 351:D:/fchai/work/i-cube/I-CUBE-HUAWEI/Middlewares/Third_Party/Huawei/iot_link/network/dtls/mbedtls/mbedtls-2.16.2/library\pkparse.c ****                                       ( const unsigned char *) p, len ) ) != 0 )
 352:D:/fchai/work/i-cube/I-CUBE-HUAWEI/Middlewares/Third_Party/Huawei/iot_link/network/dtls/mbedtls/mbedtls-2.16.2/library\pkparse.c ****     {
 353:D:/fchai/work/i-cube/I-CUBE-HUAWEI/Middlewares/Third_Party/Huawei/iot_link/network/dtls/mbedtls/mbedtls-2.16.2/library\pkparse.c ****         /*
 354:D:/fchai/work/i-cube/I-CUBE-HUAWEI/Middlewares/Third_Party/Huawei/iot_link/network/dtls/mbedtls/mbedtls-2.16.2/library\pkparse.c ****          * If we can't read the point because it's compressed, cheat by
 355:D:/fchai/work/i-cube/I-CUBE-HUAWEI/Middlewares/Third_Party/Huawei/iot_link/network/dtls/mbedtls/mbedtls-2.16.2/library\pkparse.c ****          * reading only the X coordinate and the parity bit of Y.
 356:D:/fchai/work/i-cube/I-CUBE-HUAWEI/Middlewares/Third_Party/Huawei/iot_link/network/dtls/mbedtls/mbedtls-2.16.2/library\pkparse.c ****          */
 357:D:/fchai/work/i-cube/I-CUBE-HUAWEI/Middlewares/Third_Party/Huawei/iot_link/network/dtls/mbedtls/mbedtls-2.16.2/library\pkparse.c ****         if( ret != MBEDTLS_ERR_ECP_FEATURE_UNAVAILABLE ||
 358:D:/fchai/work/i-cube/I-CUBE-HUAWEI/Middlewares/Third_Party/Huawei/iot_link/network/dtls/mbedtls/mbedtls-2.16.2/library\pkparse.c ****             ( p[0] != 0x02 && p[0] != 0x03 ) ||
 359:D:/fchai/work/i-cube/I-CUBE-HUAWEI/Middlewares/Third_Party/Huawei/iot_link/network/dtls/mbedtls/mbedtls-2.16.2/library\pkparse.c ****             len != mbedtls_mpi_size( &grp->P ) + 1 ||
 360:D:/fchai/work/i-cube/I-CUBE-HUAWEI/Middlewares/Third_Party/Huawei/iot_link/network/dtls/mbedtls/mbedtls-2.16.2/library\pkparse.c ****             mbedtls_mpi_read_binary( &grp->G.X, p + 1, len - 1 ) != 0 ||
 361:D:/fchai/work/i-cube/I-CUBE-HUAWEI/Middlewares/Third_Party/Huawei/iot_link/network/dtls/mbedtls/mbedtls-2.16.2/library\pkparse.c ****             mbedtls_mpi_lset( &grp->G.Y, p[0] - 2 ) != 0 ||
 362:D:/fchai/work/i-cube/I-CUBE-HUAWEI/Middlewares/Third_Party/Huawei/iot_link/network/dtls/mbedtls/mbedtls-2.16.2/library\pkparse.c ****             mbedtls_mpi_lset( &grp->G.Z, 1 ) != 0 )
 363:D:/fchai/work/i-cube/I-CUBE-HUAWEI/Middlewares/Third_Party/Huawei/iot_link/network/dtls/mbedtls/mbedtls-2.16.2/library\pkparse.c ****         {
 364:D:/fchai/work/i-cube/I-CUBE-HUAWEI/Middlewares/Third_Party/Huawei/iot_link/network/dtls/mbedtls/mbedtls-2.16.2/library\pkparse.c ****             return( MBEDTLS_ERR_PK_KEY_INVALID_FORMAT );
 365:D:/fchai/work/i-cube/I-CUBE-HUAWEI/Middlewares/Third_Party/Huawei/iot_link/network/dtls/mbedtls/mbedtls-2.16.2/library\pkparse.c ****         }
 366:D:/fchai/work/i-cube/I-CUBE-HUAWEI/Middlewares/Third_Party/Huawei/iot_link/network/dtls/mbedtls/mbedtls-2.16.2/library\pkparse.c ****     }
 367:D:/fchai/work/i-cube/I-CUBE-HUAWEI/Middlewares/Third_Party/Huawei/iot_link/network/dtls/mbedtls/mbedtls-2.16.2/library\pkparse.c **** 
 368:D:/fchai/work/i-cube/I-CUBE-HUAWEI/Middlewares/Third_Party/Huawei/iot_link/network/dtls/mbedtls/mbedtls-2.16.2/library\pkparse.c ****     p += len;
 369:D:/fchai/work/i-cube/I-CUBE-HUAWEI/Middlewares/Third_Party/Huawei/iot_link/network/dtls/mbedtls/mbedtls-2.16.2/library\pkparse.c **** 
 370:D:/fchai/work/i-cube/I-CUBE-HUAWEI/Middlewares/Third_Party/Huawei/iot_link/network/dtls/mbedtls/mbedtls-2.16.2/library\pkparse.c ****     /*
 371:D:/fchai/work/i-cube/I-CUBE-HUAWEI/Middlewares/Third_Party/Huawei/iot_link/network/dtls/mbedtls/mbedtls-2.16.2/library\pkparse.c ****      * order INTEGER
ARM GAS  T:\msys\tmp\cc83OHoG.s 			page 8


 372:D:/fchai/work/i-cube/I-CUBE-HUAWEI/Middlewares/Third_Party/Huawei/iot_link/network/dtls/mbedtls/mbedtls-2.16.2/library\pkparse.c ****      */
 373:D:/fchai/work/i-cube/I-CUBE-HUAWEI/Middlewares/Third_Party/Huawei/iot_link/network/dtls/mbedtls/mbedtls-2.16.2/library\pkparse.c ****     if( ( ret = mbedtls_asn1_get_mpi( &p, end, &grp->N ) ) != 0 )
 374:D:/fchai/work/i-cube/I-CUBE-HUAWEI/Middlewares/Third_Party/Huawei/iot_link/network/dtls/mbedtls/mbedtls-2.16.2/library\pkparse.c ****         return( MBEDTLS_ERR_PK_KEY_INVALID_FORMAT + ret );
 375:D:/fchai/work/i-cube/I-CUBE-HUAWEI/Middlewares/Third_Party/Huawei/iot_link/network/dtls/mbedtls/mbedtls-2.16.2/library\pkparse.c **** 
 376:D:/fchai/work/i-cube/I-CUBE-HUAWEI/Middlewares/Third_Party/Huawei/iot_link/network/dtls/mbedtls/mbedtls-2.16.2/library\pkparse.c ****     grp->nbits = mbedtls_mpi_bitlen( &grp->N );
 377:D:/fchai/work/i-cube/I-CUBE-HUAWEI/Middlewares/Third_Party/Huawei/iot_link/network/dtls/mbedtls/mbedtls-2.16.2/library\pkparse.c **** 
 378:D:/fchai/work/i-cube/I-CUBE-HUAWEI/Middlewares/Third_Party/Huawei/iot_link/network/dtls/mbedtls/mbedtls-2.16.2/library\pkparse.c ****     /*
 379:D:/fchai/work/i-cube/I-CUBE-HUAWEI/Middlewares/Third_Party/Huawei/iot_link/network/dtls/mbedtls/mbedtls-2.16.2/library\pkparse.c ****      * Allow optional elements by purposefully not enforcing p == end here.
 380:D:/fchai/work/i-cube/I-CUBE-HUAWEI/Middlewares/Third_Party/Huawei/iot_link/network/dtls/mbedtls/mbedtls-2.16.2/library\pkparse.c ****      */
 381:D:/fchai/work/i-cube/I-CUBE-HUAWEI/Middlewares/Third_Party/Huawei/iot_link/network/dtls/mbedtls/mbedtls-2.16.2/library\pkparse.c **** 
 382:D:/fchai/work/i-cube/I-CUBE-HUAWEI/Middlewares/Third_Party/Huawei/iot_link/network/dtls/mbedtls/mbedtls-2.16.2/library\pkparse.c ****     return( 0 );
 383:D:/fchai/work/i-cube/I-CUBE-HUAWEI/Middlewares/Third_Party/Huawei/iot_link/network/dtls/mbedtls/mbedtls-2.16.2/library\pkparse.c **** }
 384:D:/fchai/work/i-cube/I-CUBE-HUAWEI/Middlewares/Third_Party/Huawei/iot_link/network/dtls/mbedtls/mbedtls-2.16.2/library\pkparse.c **** 
 385:D:/fchai/work/i-cube/I-CUBE-HUAWEI/Middlewares/Third_Party/Huawei/iot_link/network/dtls/mbedtls/mbedtls-2.16.2/library\pkparse.c **** /*
 386:D:/fchai/work/i-cube/I-CUBE-HUAWEI/Middlewares/Third_Party/Huawei/iot_link/network/dtls/mbedtls/mbedtls-2.16.2/library\pkparse.c ****  * Find the group id associated with an (almost filled) group as generated by
 387:D:/fchai/work/i-cube/I-CUBE-HUAWEI/Middlewares/Third_Party/Huawei/iot_link/network/dtls/mbedtls/mbedtls-2.16.2/library\pkparse.c ****  * pk_group_from_specified(), or return an error if unknown.
 388:D:/fchai/work/i-cube/I-CUBE-HUAWEI/Middlewares/Third_Party/Huawei/iot_link/network/dtls/mbedtls/mbedtls-2.16.2/library\pkparse.c ****  */
 389:D:/fchai/work/i-cube/I-CUBE-HUAWEI/Middlewares/Third_Party/Huawei/iot_link/network/dtls/mbedtls/mbedtls-2.16.2/library\pkparse.c **** static int pk_group_id_from_group( const mbedtls_ecp_group *grp, mbedtls_ecp_group_id *grp_id )
 390:D:/fchai/work/i-cube/I-CUBE-HUAWEI/Middlewares/Third_Party/Huawei/iot_link/network/dtls/mbedtls/mbedtls-2.16.2/library\pkparse.c **** {
 391:D:/fchai/work/i-cube/I-CUBE-HUAWEI/Middlewares/Third_Party/Huawei/iot_link/network/dtls/mbedtls/mbedtls-2.16.2/library\pkparse.c ****     int ret = 0;
 392:D:/fchai/work/i-cube/I-CUBE-HUAWEI/Middlewares/Third_Party/Huawei/iot_link/network/dtls/mbedtls/mbedtls-2.16.2/library\pkparse.c ****     mbedtls_ecp_group ref;
 393:D:/fchai/work/i-cube/I-CUBE-HUAWEI/Middlewares/Third_Party/Huawei/iot_link/network/dtls/mbedtls/mbedtls-2.16.2/library\pkparse.c ****     const mbedtls_ecp_group_id *id;
 394:D:/fchai/work/i-cube/I-CUBE-HUAWEI/Middlewares/Third_Party/Huawei/iot_link/network/dtls/mbedtls/mbedtls-2.16.2/library\pkparse.c **** 
 395:D:/fchai/work/i-cube/I-CUBE-HUAWEI/Middlewares/Third_Party/Huawei/iot_link/network/dtls/mbedtls/mbedtls-2.16.2/library\pkparse.c ****     mbedtls_ecp_group_init( &ref );
 396:D:/fchai/work/i-cube/I-CUBE-HUAWEI/Middlewares/Third_Party/Huawei/iot_link/network/dtls/mbedtls/mbedtls-2.16.2/library\pkparse.c **** 
 397:D:/fchai/work/i-cube/I-CUBE-HUAWEI/Middlewares/Third_Party/Huawei/iot_link/network/dtls/mbedtls/mbedtls-2.16.2/library\pkparse.c ****     for( id = mbedtls_ecp_grp_id_list(); *id != MBEDTLS_ECP_DP_NONE; id++ )
 398:D:/fchai/work/i-cube/I-CUBE-HUAWEI/Middlewares/Third_Party/Huawei/iot_link/network/dtls/mbedtls/mbedtls-2.16.2/library\pkparse.c ****     {
 399:D:/fchai/work/i-cube/I-CUBE-HUAWEI/Middlewares/Third_Party/Huawei/iot_link/network/dtls/mbedtls/mbedtls-2.16.2/library\pkparse.c ****         /* Load the group associated to that id */
 400:D:/fchai/work/i-cube/I-CUBE-HUAWEI/Middlewares/Third_Party/Huawei/iot_link/network/dtls/mbedtls/mbedtls-2.16.2/library\pkparse.c ****         mbedtls_ecp_group_free( &ref );
 401:D:/fchai/work/i-cube/I-CUBE-HUAWEI/Middlewares/Third_Party/Huawei/iot_link/network/dtls/mbedtls/mbedtls-2.16.2/library\pkparse.c ****         MBEDTLS_MPI_CHK( mbedtls_ecp_group_load( &ref, *id ) );
 402:D:/fchai/work/i-cube/I-CUBE-HUAWEI/Middlewares/Third_Party/Huawei/iot_link/network/dtls/mbedtls/mbedtls-2.16.2/library\pkparse.c **** 
 403:D:/fchai/work/i-cube/I-CUBE-HUAWEI/Middlewares/Third_Party/Huawei/iot_link/network/dtls/mbedtls/mbedtls-2.16.2/library\pkparse.c ****         /* Compare to the group we were given, starting with easy tests */
 404:D:/fchai/work/i-cube/I-CUBE-HUAWEI/Middlewares/Third_Party/Huawei/iot_link/network/dtls/mbedtls/mbedtls-2.16.2/library\pkparse.c ****         if( grp->pbits == ref.pbits && grp->nbits == ref.nbits &&
 405:D:/fchai/work/i-cube/I-CUBE-HUAWEI/Middlewares/Third_Party/Huawei/iot_link/network/dtls/mbedtls/mbedtls-2.16.2/library\pkparse.c ****             mbedtls_mpi_cmp_mpi( &grp->P, &ref.P ) == 0 &&
 406:D:/fchai/work/i-cube/I-CUBE-HUAWEI/Middlewares/Third_Party/Huawei/iot_link/network/dtls/mbedtls/mbedtls-2.16.2/library\pkparse.c ****             mbedtls_mpi_cmp_mpi( &grp->A, &ref.A ) == 0 &&
 407:D:/fchai/work/i-cube/I-CUBE-HUAWEI/Middlewares/Third_Party/Huawei/iot_link/network/dtls/mbedtls/mbedtls-2.16.2/library\pkparse.c ****             mbedtls_mpi_cmp_mpi( &grp->B, &ref.B ) == 0 &&
 408:D:/fchai/work/i-cube/I-CUBE-HUAWEI/Middlewares/Third_Party/Huawei/iot_link/network/dtls/mbedtls/mbedtls-2.16.2/library\pkparse.c ****             mbedtls_mpi_cmp_mpi( &grp->N, &ref.N ) == 0 &&
 409:D:/fchai/work/i-cube/I-CUBE-HUAWEI/Middlewares/Third_Party/Huawei/iot_link/network/dtls/mbedtls/mbedtls-2.16.2/library\pkparse.c ****             mbedtls_mpi_cmp_mpi( &grp->G.X, &ref.G.X ) == 0 &&
 410:D:/fchai/work/i-cube/I-CUBE-HUAWEI/Middlewares/Third_Party/Huawei/iot_link/network/dtls/mbedtls/mbedtls-2.16.2/library\pkparse.c ****             mbedtls_mpi_cmp_mpi( &grp->G.Z, &ref.G.Z ) == 0 &&
 411:D:/fchai/work/i-cube/I-CUBE-HUAWEI/Middlewares/Third_Party/Huawei/iot_link/network/dtls/mbedtls/mbedtls-2.16.2/library\pkparse.c ****             /* For Y we may only know the parity bit, so compare only that */
 412:D:/fchai/work/i-cube/I-CUBE-HUAWEI/Middlewares/Third_Party/Huawei/iot_link/network/dtls/mbedtls/mbedtls-2.16.2/library\pkparse.c ****             mbedtls_mpi_get_bit( &grp->G.Y, 0 ) == mbedtls_mpi_get_bit( &ref.G.Y, 0 ) )
 413:D:/fchai/work/i-cube/I-CUBE-HUAWEI/Middlewares/Third_Party/Huawei/iot_link/network/dtls/mbedtls/mbedtls-2.16.2/library\pkparse.c ****         {
 414:D:/fchai/work/i-cube/I-CUBE-HUAWEI/Middlewares/Third_Party/Huawei/iot_link/network/dtls/mbedtls/mbedtls-2.16.2/library\pkparse.c ****             break;
 415:D:/fchai/work/i-cube/I-CUBE-HUAWEI/Middlewares/Third_Party/Huawei/iot_link/network/dtls/mbedtls/mbedtls-2.16.2/library\pkparse.c ****         }
 416:D:/fchai/work/i-cube/I-CUBE-HUAWEI/Middlewares/Third_Party/Huawei/iot_link/network/dtls/mbedtls/mbedtls-2.16.2/library\pkparse.c **** 
 417:D:/fchai/work/i-cube/I-CUBE-HUAWEI/Middlewares/Third_Party/Huawei/iot_link/network/dtls/mbedtls/mbedtls-2.16.2/library\pkparse.c ****     }
 418:D:/fchai/work/i-cube/I-CUBE-HUAWEI/Middlewares/Third_Party/Huawei/iot_link/network/dtls/mbedtls/mbedtls-2.16.2/library\pkparse.c **** 
 419:D:/fchai/work/i-cube/I-CUBE-HUAWEI/Middlewares/Third_Party/Huawei/iot_link/network/dtls/mbedtls/mbedtls-2.16.2/library\pkparse.c **** cleanup:
 420:D:/fchai/work/i-cube/I-CUBE-HUAWEI/Middlewares/Third_Party/Huawei/iot_link/network/dtls/mbedtls/mbedtls-2.16.2/library\pkparse.c ****     mbedtls_ecp_group_free( &ref );
 421:D:/fchai/work/i-cube/I-CUBE-HUAWEI/Middlewares/Third_Party/Huawei/iot_link/network/dtls/mbedtls/mbedtls-2.16.2/library\pkparse.c **** 
 422:D:/fchai/work/i-cube/I-CUBE-HUAWEI/Middlewares/Third_Party/Huawei/iot_link/network/dtls/mbedtls/mbedtls-2.16.2/library\pkparse.c ****     *grp_id = *id;
 423:D:/fchai/work/i-cube/I-CUBE-HUAWEI/Middlewares/Third_Party/Huawei/iot_link/network/dtls/mbedtls/mbedtls-2.16.2/library\pkparse.c **** 
 424:D:/fchai/work/i-cube/I-CUBE-HUAWEI/Middlewares/Third_Party/Huawei/iot_link/network/dtls/mbedtls/mbedtls-2.16.2/library\pkparse.c ****     if( ret == 0 && *id == MBEDTLS_ECP_DP_NONE )
 425:D:/fchai/work/i-cube/I-CUBE-HUAWEI/Middlewares/Third_Party/Huawei/iot_link/network/dtls/mbedtls/mbedtls-2.16.2/library\pkparse.c ****         ret = MBEDTLS_ERR_ECP_FEATURE_UNAVAILABLE;
 426:D:/fchai/work/i-cube/I-CUBE-HUAWEI/Middlewares/Third_Party/Huawei/iot_link/network/dtls/mbedtls/mbedtls-2.16.2/library\pkparse.c **** 
 427:D:/fchai/work/i-cube/I-CUBE-HUAWEI/Middlewares/Third_Party/Huawei/iot_link/network/dtls/mbedtls/mbedtls-2.16.2/library\pkparse.c ****     return( ret );
 428:D:/fchai/work/i-cube/I-CUBE-HUAWEI/Middlewares/Third_Party/Huawei/iot_link/network/dtls/mbedtls/mbedtls-2.16.2/library\pkparse.c **** }
ARM GAS  T:\msys\tmp\cc83OHoG.s 			page 9


 429:D:/fchai/work/i-cube/I-CUBE-HUAWEI/Middlewares/Third_Party/Huawei/iot_link/network/dtls/mbedtls/mbedtls-2.16.2/library\pkparse.c **** 
 430:D:/fchai/work/i-cube/I-CUBE-HUAWEI/Middlewares/Third_Party/Huawei/iot_link/network/dtls/mbedtls/mbedtls-2.16.2/library\pkparse.c **** /*
 431:D:/fchai/work/i-cube/I-CUBE-HUAWEI/Middlewares/Third_Party/Huawei/iot_link/network/dtls/mbedtls/mbedtls-2.16.2/library\pkparse.c ****  * Parse a SpecifiedECDomain (SEC 1 C.2) and find the associated group ID
 432:D:/fchai/work/i-cube/I-CUBE-HUAWEI/Middlewares/Third_Party/Huawei/iot_link/network/dtls/mbedtls/mbedtls-2.16.2/library\pkparse.c ****  */
 433:D:/fchai/work/i-cube/I-CUBE-HUAWEI/Middlewares/Third_Party/Huawei/iot_link/network/dtls/mbedtls/mbedtls-2.16.2/library\pkparse.c **** static int pk_group_id_from_specified( const mbedtls_asn1_buf *params,
 434:D:/fchai/work/i-cube/I-CUBE-HUAWEI/Middlewares/Third_Party/Huawei/iot_link/network/dtls/mbedtls/mbedtls-2.16.2/library\pkparse.c ****                                        mbedtls_ecp_group_id *grp_id )
 435:D:/fchai/work/i-cube/I-CUBE-HUAWEI/Middlewares/Third_Party/Huawei/iot_link/network/dtls/mbedtls/mbedtls-2.16.2/library\pkparse.c **** {
 436:D:/fchai/work/i-cube/I-CUBE-HUAWEI/Middlewares/Third_Party/Huawei/iot_link/network/dtls/mbedtls/mbedtls-2.16.2/library\pkparse.c ****     int ret;
 437:D:/fchai/work/i-cube/I-CUBE-HUAWEI/Middlewares/Third_Party/Huawei/iot_link/network/dtls/mbedtls/mbedtls-2.16.2/library\pkparse.c ****     mbedtls_ecp_group grp;
 438:D:/fchai/work/i-cube/I-CUBE-HUAWEI/Middlewares/Third_Party/Huawei/iot_link/network/dtls/mbedtls/mbedtls-2.16.2/library\pkparse.c **** 
 439:D:/fchai/work/i-cube/I-CUBE-HUAWEI/Middlewares/Third_Party/Huawei/iot_link/network/dtls/mbedtls/mbedtls-2.16.2/library\pkparse.c ****     mbedtls_ecp_group_init( &grp );
 440:D:/fchai/work/i-cube/I-CUBE-HUAWEI/Middlewares/Third_Party/Huawei/iot_link/network/dtls/mbedtls/mbedtls-2.16.2/library\pkparse.c **** 
 441:D:/fchai/work/i-cube/I-CUBE-HUAWEI/Middlewares/Third_Party/Huawei/iot_link/network/dtls/mbedtls/mbedtls-2.16.2/library\pkparse.c ****     if( ( ret = pk_group_from_specified( params, &grp ) ) != 0 )
 442:D:/fchai/work/i-cube/I-CUBE-HUAWEI/Middlewares/Third_Party/Huawei/iot_link/network/dtls/mbedtls/mbedtls-2.16.2/library\pkparse.c ****         goto cleanup;
 443:D:/fchai/work/i-cube/I-CUBE-HUAWEI/Middlewares/Third_Party/Huawei/iot_link/network/dtls/mbedtls/mbedtls-2.16.2/library\pkparse.c **** 
 444:D:/fchai/work/i-cube/I-CUBE-HUAWEI/Middlewares/Third_Party/Huawei/iot_link/network/dtls/mbedtls/mbedtls-2.16.2/library\pkparse.c ****     ret = pk_group_id_from_group( &grp, grp_id );
 445:D:/fchai/work/i-cube/I-CUBE-HUAWEI/Middlewares/Third_Party/Huawei/iot_link/network/dtls/mbedtls/mbedtls-2.16.2/library\pkparse.c **** 
 446:D:/fchai/work/i-cube/I-CUBE-HUAWEI/Middlewares/Third_Party/Huawei/iot_link/network/dtls/mbedtls/mbedtls-2.16.2/library\pkparse.c **** cleanup:
 447:D:/fchai/work/i-cube/I-CUBE-HUAWEI/Middlewares/Third_Party/Huawei/iot_link/network/dtls/mbedtls/mbedtls-2.16.2/library\pkparse.c ****     mbedtls_ecp_group_free( &grp );
 448:D:/fchai/work/i-cube/I-CUBE-HUAWEI/Middlewares/Third_Party/Huawei/iot_link/network/dtls/mbedtls/mbedtls-2.16.2/library\pkparse.c **** 
 449:D:/fchai/work/i-cube/I-CUBE-HUAWEI/Middlewares/Third_Party/Huawei/iot_link/network/dtls/mbedtls/mbedtls-2.16.2/library\pkparse.c ****     return( ret );
 450:D:/fchai/work/i-cube/I-CUBE-HUAWEI/Middlewares/Third_Party/Huawei/iot_link/network/dtls/mbedtls/mbedtls-2.16.2/library\pkparse.c **** }
 451:D:/fchai/work/i-cube/I-CUBE-HUAWEI/Middlewares/Third_Party/Huawei/iot_link/network/dtls/mbedtls/mbedtls-2.16.2/library\pkparse.c **** #endif /* MBEDTLS_PK_PARSE_EC_EXTENDED */
 452:D:/fchai/work/i-cube/I-CUBE-HUAWEI/Middlewares/Third_Party/Huawei/iot_link/network/dtls/mbedtls/mbedtls-2.16.2/library\pkparse.c **** 
 453:D:/fchai/work/i-cube/I-CUBE-HUAWEI/Middlewares/Third_Party/Huawei/iot_link/network/dtls/mbedtls/mbedtls-2.16.2/library\pkparse.c **** /*
 454:D:/fchai/work/i-cube/I-CUBE-HUAWEI/Middlewares/Third_Party/Huawei/iot_link/network/dtls/mbedtls/mbedtls-2.16.2/library\pkparse.c ****  * Use EC parameters to initialise an EC group
 455:D:/fchai/work/i-cube/I-CUBE-HUAWEI/Middlewares/Third_Party/Huawei/iot_link/network/dtls/mbedtls/mbedtls-2.16.2/library\pkparse.c ****  *
 456:D:/fchai/work/i-cube/I-CUBE-HUAWEI/Middlewares/Third_Party/Huawei/iot_link/network/dtls/mbedtls/mbedtls-2.16.2/library\pkparse.c ****  * ECParameters ::= CHOICE {
 457:D:/fchai/work/i-cube/I-CUBE-HUAWEI/Middlewares/Third_Party/Huawei/iot_link/network/dtls/mbedtls/mbedtls-2.16.2/library\pkparse.c ****  *   namedCurve         OBJECT IDENTIFIER
 458:D:/fchai/work/i-cube/I-CUBE-HUAWEI/Middlewares/Third_Party/Huawei/iot_link/network/dtls/mbedtls/mbedtls-2.16.2/library\pkparse.c ****  *   specifiedCurve     SpecifiedECDomain -- = SEQUENCE { ... }
 459:D:/fchai/work/i-cube/I-CUBE-HUAWEI/Middlewares/Third_Party/Huawei/iot_link/network/dtls/mbedtls/mbedtls-2.16.2/library\pkparse.c ****  *   -- implicitCurve   NULL
 460:D:/fchai/work/i-cube/I-CUBE-HUAWEI/Middlewares/Third_Party/Huawei/iot_link/network/dtls/mbedtls/mbedtls-2.16.2/library\pkparse.c ****  */
 461:D:/fchai/work/i-cube/I-CUBE-HUAWEI/Middlewares/Third_Party/Huawei/iot_link/network/dtls/mbedtls/mbedtls-2.16.2/library\pkparse.c **** static int pk_use_ecparams( const mbedtls_asn1_buf *params, mbedtls_ecp_group *grp )
 462:D:/fchai/work/i-cube/I-CUBE-HUAWEI/Middlewares/Third_Party/Huawei/iot_link/network/dtls/mbedtls/mbedtls-2.16.2/library\pkparse.c **** {
 463:D:/fchai/work/i-cube/I-CUBE-HUAWEI/Middlewares/Third_Party/Huawei/iot_link/network/dtls/mbedtls/mbedtls-2.16.2/library\pkparse.c ****     int ret;
 464:D:/fchai/work/i-cube/I-CUBE-HUAWEI/Middlewares/Third_Party/Huawei/iot_link/network/dtls/mbedtls/mbedtls-2.16.2/library\pkparse.c ****     mbedtls_ecp_group_id grp_id;
 465:D:/fchai/work/i-cube/I-CUBE-HUAWEI/Middlewares/Third_Party/Huawei/iot_link/network/dtls/mbedtls/mbedtls-2.16.2/library\pkparse.c **** 
 466:D:/fchai/work/i-cube/I-CUBE-HUAWEI/Middlewares/Third_Party/Huawei/iot_link/network/dtls/mbedtls/mbedtls-2.16.2/library\pkparse.c ****     if( params->tag == MBEDTLS_ASN1_OID )
 467:D:/fchai/work/i-cube/I-CUBE-HUAWEI/Middlewares/Third_Party/Huawei/iot_link/network/dtls/mbedtls/mbedtls-2.16.2/library\pkparse.c ****     {
 468:D:/fchai/work/i-cube/I-CUBE-HUAWEI/Middlewares/Third_Party/Huawei/iot_link/network/dtls/mbedtls/mbedtls-2.16.2/library\pkparse.c ****         if( mbedtls_oid_get_ec_grp( params, &grp_id ) != 0 )
 469:D:/fchai/work/i-cube/I-CUBE-HUAWEI/Middlewares/Third_Party/Huawei/iot_link/network/dtls/mbedtls/mbedtls-2.16.2/library\pkparse.c ****             return( MBEDTLS_ERR_PK_UNKNOWN_NAMED_CURVE );
 470:D:/fchai/work/i-cube/I-CUBE-HUAWEI/Middlewares/Third_Party/Huawei/iot_link/network/dtls/mbedtls/mbedtls-2.16.2/library\pkparse.c ****     }
 471:D:/fchai/work/i-cube/I-CUBE-HUAWEI/Middlewares/Third_Party/Huawei/iot_link/network/dtls/mbedtls/mbedtls-2.16.2/library\pkparse.c ****     else
 472:D:/fchai/work/i-cube/I-CUBE-HUAWEI/Middlewares/Third_Party/Huawei/iot_link/network/dtls/mbedtls/mbedtls-2.16.2/library\pkparse.c ****     {
 473:D:/fchai/work/i-cube/I-CUBE-HUAWEI/Middlewares/Third_Party/Huawei/iot_link/network/dtls/mbedtls/mbedtls-2.16.2/library\pkparse.c **** #if defined(MBEDTLS_PK_PARSE_EC_EXTENDED)
 474:D:/fchai/work/i-cube/I-CUBE-HUAWEI/Middlewares/Third_Party/Huawei/iot_link/network/dtls/mbedtls/mbedtls-2.16.2/library\pkparse.c ****         if( ( ret = pk_group_id_from_specified( params, &grp_id ) ) != 0 )
 475:D:/fchai/work/i-cube/I-CUBE-HUAWEI/Middlewares/Third_Party/Huawei/iot_link/network/dtls/mbedtls/mbedtls-2.16.2/library\pkparse.c ****             return( ret );
 476:D:/fchai/work/i-cube/I-CUBE-HUAWEI/Middlewares/Third_Party/Huawei/iot_link/network/dtls/mbedtls/mbedtls-2.16.2/library\pkparse.c **** #else
 477:D:/fchai/work/i-cube/I-CUBE-HUAWEI/Middlewares/Third_Party/Huawei/iot_link/network/dtls/mbedtls/mbedtls-2.16.2/library\pkparse.c ****         return( MBEDTLS_ERR_PK_KEY_INVALID_FORMAT );
 478:D:/fchai/work/i-cube/I-CUBE-HUAWEI/Middlewares/Third_Party/Huawei/iot_link/network/dtls/mbedtls/mbedtls-2.16.2/library\pkparse.c **** #endif
 479:D:/fchai/work/i-cube/I-CUBE-HUAWEI/Middlewares/Third_Party/Huawei/iot_link/network/dtls/mbedtls/mbedtls-2.16.2/library\pkparse.c ****     }
 480:D:/fchai/work/i-cube/I-CUBE-HUAWEI/Middlewares/Third_Party/Huawei/iot_link/network/dtls/mbedtls/mbedtls-2.16.2/library\pkparse.c **** 
 481:D:/fchai/work/i-cube/I-CUBE-HUAWEI/Middlewares/Third_Party/Huawei/iot_link/network/dtls/mbedtls/mbedtls-2.16.2/library\pkparse.c ****     /*
 482:D:/fchai/work/i-cube/I-CUBE-HUAWEI/Middlewares/Third_Party/Huawei/iot_link/network/dtls/mbedtls/mbedtls-2.16.2/library\pkparse.c ****      * grp may already be initilialized; if so, make sure IDs match
 483:D:/fchai/work/i-cube/I-CUBE-HUAWEI/Middlewares/Third_Party/Huawei/iot_link/network/dtls/mbedtls/mbedtls-2.16.2/library\pkparse.c ****      */
 484:D:/fchai/work/i-cube/I-CUBE-HUAWEI/Middlewares/Third_Party/Huawei/iot_link/network/dtls/mbedtls/mbedtls-2.16.2/library\pkparse.c ****     if( grp->id != MBEDTLS_ECP_DP_NONE && grp->id != grp_id )
 485:D:/fchai/work/i-cube/I-CUBE-HUAWEI/Middlewares/Third_Party/Huawei/iot_link/network/dtls/mbedtls/mbedtls-2.16.2/library\pkparse.c ****         return( MBEDTLS_ERR_PK_KEY_INVALID_FORMAT );
ARM GAS  T:\msys\tmp\cc83OHoG.s 			page 10


 486:D:/fchai/work/i-cube/I-CUBE-HUAWEI/Middlewares/Third_Party/Huawei/iot_link/network/dtls/mbedtls/mbedtls-2.16.2/library\pkparse.c **** 
 487:D:/fchai/work/i-cube/I-CUBE-HUAWEI/Middlewares/Third_Party/Huawei/iot_link/network/dtls/mbedtls/mbedtls-2.16.2/library\pkparse.c ****     if( ( ret = mbedtls_ecp_group_load( grp, grp_id ) ) != 0 )
 488:D:/fchai/work/i-cube/I-CUBE-HUAWEI/Middlewares/Third_Party/Huawei/iot_link/network/dtls/mbedtls/mbedtls-2.16.2/library\pkparse.c ****         return( ret );
 489:D:/fchai/work/i-cube/I-CUBE-HUAWEI/Middlewares/Third_Party/Huawei/iot_link/network/dtls/mbedtls/mbedtls-2.16.2/library\pkparse.c **** 
 490:D:/fchai/work/i-cube/I-CUBE-HUAWEI/Middlewares/Third_Party/Huawei/iot_link/network/dtls/mbedtls/mbedtls-2.16.2/library\pkparse.c ****     return( 0 );
 491:D:/fchai/work/i-cube/I-CUBE-HUAWEI/Middlewares/Third_Party/Huawei/iot_link/network/dtls/mbedtls/mbedtls-2.16.2/library\pkparse.c **** }
 492:D:/fchai/work/i-cube/I-CUBE-HUAWEI/Middlewares/Third_Party/Huawei/iot_link/network/dtls/mbedtls/mbedtls-2.16.2/library\pkparse.c **** 
 493:D:/fchai/work/i-cube/I-CUBE-HUAWEI/Middlewares/Third_Party/Huawei/iot_link/network/dtls/mbedtls/mbedtls-2.16.2/library\pkparse.c **** /*
 494:D:/fchai/work/i-cube/I-CUBE-HUAWEI/Middlewares/Third_Party/Huawei/iot_link/network/dtls/mbedtls/mbedtls-2.16.2/library\pkparse.c ****  * EC public key is an EC point
 495:D:/fchai/work/i-cube/I-CUBE-HUAWEI/Middlewares/Third_Party/Huawei/iot_link/network/dtls/mbedtls/mbedtls-2.16.2/library\pkparse.c ****  *
 496:D:/fchai/work/i-cube/I-CUBE-HUAWEI/Middlewares/Third_Party/Huawei/iot_link/network/dtls/mbedtls/mbedtls-2.16.2/library\pkparse.c ****  * The caller is responsible for clearing the structure upon failure if
 497:D:/fchai/work/i-cube/I-CUBE-HUAWEI/Middlewares/Third_Party/Huawei/iot_link/network/dtls/mbedtls/mbedtls-2.16.2/library\pkparse.c ****  * desired. Take care to pass along the possible ECP_FEATURE_UNAVAILABLE
 498:D:/fchai/work/i-cube/I-CUBE-HUAWEI/Middlewares/Third_Party/Huawei/iot_link/network/dtls/mbedtls/mbedtls-2.16.2/library\pkparse.c ****  * return code of mbedtls_ecp_point_read_binary() and leave p in a usable state.
 499:D:/fchai/work/i-cube/I-CUBE-HUAWEI/Middlewares/Third_Party/Huawei/iot_link/network/dtls/mbedtls/mbedtls-2.16.2/library\pkparse.c ****  */
 500:D:/fchai/work/i-cube/I-CUBE-HUAWEI/Middlewares/Third_Party/Huawei/iot_link/network/dtls/mbedtls/mbedtls-2.16.2/library\pkparse.c **** static int pk_get_ecpubkey( unsigned char **p, const unsigned char *end,
 501:D:/fchai/work/i-cube/I-CUBE-HUAWEI/Middlewares/Third_Party/Huawei/iot_link/network/dtls/mbedtls/mbedtls-2.16.2/library\pkparse.c ****                             mbedtls_ecp_keypair *key )
 502:D:/fchai/work/i-cube/I-CUBE-HUAWEI/Middlewares/Third_Party/Huawei/iot_link/network/dtls/mbedtls/mbedtls-2.16.2/library\pkparse.c **** {
 503:D:/fchai/work/i-cube/I-CUBE-HUAWEI/Middlewares/Third_Party/Huawei/iot_link/network/dtls/mbedtls/mbedtls-2.16.2/library\pkparse.c ****     int ret;
 504:D:/fchai/work/i-cube/I-CUBE-HUAWEI/Middlewares/Third_Party/Huawei/iot_link/network/dtls/mbedtls/mbedtls-2.16.2/library\pkparse.c **** 
 505:D:/fchai/work/i-cube/I-CUBE-HUAWEI/Middlewares/Third_Party/Huawei/iot_link/network/dtls/mbedtls/mbedtls-2.16.2/library\pkparse.c ****     if( ( ret = mbedtls_ecp_point_read_binary( &key->grp, &key->Q,
 506:D:/fchai/work/i-cube/I-CUBE-HUAWEI/Middlewares/Third_Party/Huawei/iot_link/network/dtls/mbedtls/mbedtls-2.16.2/library\pkparse.c ****                     (const unsigned char *) *p, end - *p ) ) == 0 )
 507:D:/fchai/work/i-cube/I-CUBE-HUAWEI/Middlewares/Third_Party/Huawei/iot_link/network/dtls/mbedtls/mbedtls-2.16.2/library\pkparse.c ****     {
 508:D:/fchai/work/i-cube/I-CUBE-HUAWEI/Middlewares/Third_Party/Huawei/iot_link/network/dtls/mbedtls/mbedtls-2.16.2/library\pkparse.c ****         ret = mbedtls_ecp_check_pubkey( &key->grp, &key->Q );
 509:D:/fchai/work/i-cube/I-CUBE-HUAWEI/Middlewares/Third_Party/Huawei/iot_link/network/dtls/mbedtls/mbedtls-2.16.2/library\pkparse.c ****     }
 510:D:/fchai/work/i-cube/I-CUBE-HUAWEI/Middlewares/Third_Party/Huawei/iot_link/network/dtls/mbedtls/mbedtls-2.16.2/library\pkparse.c **** 
 511:D:/fchai/work/i-cube/I-CUBE-HUAWEI/Middlewares/Third_Party/Huawei/iot_link/network/dtls/mbedtls/mbedtls-2.16.2/library\pkparse.c ****     /*
 512:D:/fchai/work/i-cube/I-CUBE-HUAWEI/Middlewares/Third_Party/Huawei/iot_link/network/dtls/mbedtls/mbedtls-2.16.2/library\pkparse.c ****      * We know mbedtls_ecp_point_read_binary consumed all bytes or failed
 513:D:/fchai/work/i-cube/I-CUBE-HUAWEI/Middlewares/Third_Party/Huawei/iot_link/network/dtls/mbedtls/mbedtls-2.16.2/library\pkparse.c ****      */
 514:D:/fchai/work/i-cube/I-CUBE-HUAWEI/Middlewares/Third_Party/Huawei/iot_link/network/dtls/mbedtls/mbedtls-2.16.2/library\pkparse.c ****     *p = (unsigned char *) end;
 515:D:/fchai/work/i-cube/I-CUBE-HUAWEI/Middlewares/Third_Party/Huawei/iot_link/network/dtls/mbedtls/mbedtls-2.16.2/library\pkparse.c **** 
 516:D:/fchai/work/i-cube/I-CUBE-HUAWEI/Middlewares/Third_Party/Huawei/iot_link/network/dtls/mbedtls/mbedtls-2.16.2/library\pkparse.c ****     return( ret );
 517:D:/fchai/work/i-cube/I-CUBE-HUAWEI/Middlewares/Third_Party/Huawei/iot_link/network/dtls/mbedtls/mbedtls-2.16.2/library\pkparse.c **** }
 518:D:/fchai/work/i-cube/I-CUBE-HUAWEI/Middlewares/Third_Party/Huawei/iot_link/network/dtls/mbedtls/mbedtls-2.16.2/library\pkparse.c **** #endif /* MBEDTLS_ECP_C */
 519:D:/fchai/work/i-cube/I-CUBE-HUAWEI/Middlewares/Third_Party/Huawei/iot_link/network/dtls/mbedtls/mbedtls-2.16.2/library\pkparse.c **** 
 520:D:/fchai/work/i-cube/I-CUBE-HUAWEI/Middlewares/Third_Party/Huawei/iot_link/network/dtls/mbedtls/mbedtls-2.16.2/library\pkparse.c **** #if defined(MBEDTLS_RSA_C)
 521:D:/fchai/work/i-cube/I-CUBE-HUAWEI/Middlewares/Third_Party/Huawei/iot_link/network/dtls/mbedtls/mbedtls-2.16.2/library\pkparse.c **** /*
 522:D:/fchai/work/i-cube/I-CUBE-HUAWEI/Middlewares/Third_Party/Huawei/iot_link/network/dtls/mbedtls/mbedtls-2.16.2/library\pkparse.c ****  *  RSAPublicKey ::= SEQUENCE {
 523:D:/fchai/work/i-cube/I-CUBE-HUAWEI/Middlewares/Third_Party/Huawei/iot_link/network/dtls/mbedtls/mbedtls-2.16.2/library\pkparse.c ****  *      modulus           INTEGER,  -- n
 524:D:/fchai/work/i-cube/I-CUBE-HUAWEI/Middlewares/Third_Party/Huawei/iot_link/network/dtls/mbedtls/mbedtls-2.16.2/library\pkparse.c ****  *      publicExponent    INTEGER   -- e
 525:D:/fchai/work/i-cube/I-CUBE-HUAWEI/Middlewares/Third_Party/Huawei/iot_link/network/dtls/mbedtls/mbedtls-2.16.2/library\pkparse.c ****  *  }
 526:D:/fchai/work/i-cube/I-CUBE-HUAWEI/Middlewares/Third_Party/Huawei/iot_link/network/dtls/mbedtls/mbedtls-2.16.2/library\pkparse.c ****  */
 527:D:/fchai/work/i-cube/I-CUBE-HUAWEI/Middlewares/Third_Party/Huawei/iot_link/network/dtls/mbedtls/mbedtls-2.16.2/library\pkparse.c **** static int pk_get_rsapubkey( unsigned char **p,
 528:D:/fchai/work/i-cube/I-CUBE-HUAWEI/Middlewares/Third_Party/Huawei/iot_link/network/dtls/mbedtls/mbedtls-2.16.2/library\pkparse.c ****                              const unsigned char *end,
 529:D:/fchai/work/i-cube/I-CUBE-HUAWEI/Middlewares/Third_Party/Huawei/iot_link/network/dtls/mbedtls/mbedtls-2.16.2/library\pkparse.c ****                              mbedtls_rsa_context *rsa )
 530:D:/fchai/work/i-cube/I-CUBE-HUAWEI/Middlewares/Third_Party/Huawei/iot_link/network/dtls/mbedtls/mbedtls-2.16.2/library\pkparse.c **** {
  30              		.loc 1 530 1 view -0
  31              		.cfi_startproc
  32              		@ args = 0, pretend = 0, frame = 8
  33              		@ frame_needed = 0, uses_anonymous_args = 0
 531:D:/fchai/work/i-cube/I-CUBE-HUAWEI/Middlewares/Third_Party/Huawei/iot_link/network/dtls/mbedtls/mbedtls-2.16.2/library\pkparse.c ****     int ret;
  34              		.loc 1 531 5 view .LVU1
 532:D:/fchai/work/i-cube/I-CUBE-HUAWEI/Middlewares/Third_Party/Huawei/iot_link/network/dtls/mbedtls/mbedtls-2.16.2/library\pkparse.c ****     size_t len;
  35              		.loc 1 532 5 view .LVU2
 533:D:/fchai/work/i-cube/I-CUBE-HUAWEI/Middlewares/Third_Party/Huawei/iot_link/network/dtls/mbedtls/mbedtls-2.16.2/library\pkparse.c **** 
 534:D:/fchai/work/i-cube/I-CUBE-HUAWEI/Middlewares/Third_Party/Huawei/iot_link/network/dtls/mbedtls/mbedtls-2.16.2/library\pkparse.c ****     if( ( ret = mbedtls_asn1_get_tag( p, end, &len,
  36              		.loc 1 534 5 view .LVU3
 530:D:/fchai/work/i-cube/I-CUBE-HUAWEI/Middlewares/Third_Party/Huawei/iot_link/network/dtls/mbedtls/mbedtls-2.16.2/library\pkparse.c ****     int ret;
ARM GAS  T:\msys\tmp\cc83OHoG.s 			page 11


  37              		.loc 1 530 1 is_stmt 0 view .LVU4
  38 0000 70B5     		push	{r4, r5, r6, lr}
  39              	.LCFI0:
  40              		.cfi_def_cfa_offset 16
  41              		.cfi_offset 4, -16
  42              		.cfi_offset 5, -12
  43              		.cfi_offset 6, -8
  44              		.cfi_offset 14, -4
  45 0002 8AB0     		sub	sp, sp, #40
  46              	.LCFI1:
  47              		.cfi_def_cfa_offset 56
 530:D:/fchai/work/i-cube/I-CUBE-HUAWEI/Middlewares/Third_Party/Huawei/iot_link/network/dtls/mbedtls/mbedtls-2.16.2/library\pkparse.c ****     int ret;
  48              		.loc 1 530 1 view .LVU5
  49 0004 1646     		mov	r6, r2
  50              		.loc 1 534 17 view .LVU6
  51 0006 3023     		movs	r3, #48
  52 0008 09AA     		add	r2, sp, #36
  53              	.LVL1:
 530:D:/fchai/work/i-cube/I-CUBE-HUAWEI/Middlewares/Third_Party/Huawei/iot_link/network/dtls/mbedtls/mbedtls-2.16.2/library\pkparse.c ****     int ret;
  54              		.loc 1 530 1 view .LVU7
  55 000a 0446     		mov	r4, r0
  56 000c 0D46     		mov	r5, r1
  57              		.loc 1 534 17 view .LVU8
  58 000e FFF7FEFF 		bl	mbedtls_asn1_get_tag
  59              	.LVL2:
  60              		.loc 1 534 7 view .LVU9
  61 0012 58B9     		cbnz	r0, .L11
 535:D:/fchai/work/i-cube/I-CUBE-HUAWEI/Middlewares/Third_Party/Huawei/iot_link/network/dtls/mbedtls/mbedtls-2.16.2/library\pkparse.c ****             MBEDTLS_ASN1_CONSTRUCTED | MBEDTLS_ASN1_SEQUENCE ) ) != 0 )
 536:D:/fchai/work/i-cube/I-CUBE-HUAWEI/Middlewares/Third_Party/Huawei/iot_link/network/dtls/mbedtls/mbedtls-2.16.2/library\pkparse.c ****         return( MBEDTLS_ERR_PK_INVALID_PUBKEY + ret );
 537:D:/fchai/work/i-cube/I-CUBE-HUAWEI/Middlewares/Third_Party/Huawei/iot_link/network/dtls/mbedtls/mbedtls-2.16.2/library\pkparse.c **** 
 538:D:/fchai/work/i-cube/I-CUBE-HUAWEI/Middlewares/Third_Party/Huawei/iot_link/network/dtls/mbedtls/mbedtls-2.16.2/library\pkparse.c ****     if( *p + len != end )
  62              		.loc 1 538 5 is_stmt 1 view .LVU10
  63              		.loc 1 538 12 is_stmt 0 view .LVU11
  64 0014 2368     		ldr	r3, [r4]
  65 0016 099A     		ldr	r2, [sp, #36]
  66 0018 1344     		add	r3, r3, r2
  67              		.loc 1 538 7 view .LVU12
  68 001a 9D42     		cmp	r5, r3
  69 001c 43D1     		bne	.L4
 539:D:/fchai/work/i-cube/I-CUBE-HUAWEI/Middlewares/Third_Party/Huawei/iot_link/network/dtls/mbedtls/mbedtls-2.16.2/library\pkparse.c ****         return( MBEDTLS_ERR_PK_INVALID_PUBKEY +
 540:D:/fchai/work/i-cube/I-CUBE-HUAWEI/Middlewares/Third_Party/Huawei/iot_link/network/dtls/mbedtls/mbedtls-2.16.2/library\pkparse.c ****                 MBEDTLS_ERR_ASN1_LENGTH_MISMATCH );
 541:D:/fchai/work/i-cube/I-CUBE-HUAWEI/Middlewares/Third_Party/Huawei/iot_link/network/dtls/mbedtls/mbedtls-2.16.2/library\pkparse.c **** 
 542:D:/fchai/work/i-cube/I-CUBE-HUAWEI/Middlewares/Third_Party/Huawei/iot_link/network/dtls/mbedtls/mbedtls-2.16.2/library\pkparse.c ****     /* Import N */
 543:D:/fchai/work/i-cube/I-CUBE-HUAWEI/Middlewares/Third_Party/Huawei/iot_link/network/dtls/mbedtls/mbedtls-2.16.2/library\pkparse.c ****     if( ( ret = mbedtls_asn1_get_tag( p, end, &len, MBEDTLS_ASN1_INTEGER ) ) != 0 )
  70              		.loc 1 543 5 is_stmt 1 view .LVU13
  71              		.loc 1 543 17 is_stmt 0 view .LVU14
  72 001e 0223     		movs	r3, #2
  73 0020 09AA     		add	r2, sp, #36
  74 0022 2946     		mov	r1, r5
  75 0024 2046     		mov	r0, r4
  76              	.LVL3:
  77              		.loc 1 543 17 view .LVU15
  78 0026 FFF7FEFF 		bl	mbedtls_asn1_get_tag
  79              	.LVL4:
  80              		.loc 1 543 7 view .LVU16
  81 002a 18B1     		cbz	r0, .L5
  82              	.L11:
ARM GAS  T:\msys\tmp\cc83OHoG.s 			page 12


 544:D:/fchai/work/i-cube/I-CUBE-HUAWEI/Middlewares/Third_Party/Huawei/iot_link/network/dtls/mbedtls/mbedtls-2.16.2/library\pkparse.c ****         return( MBEDTLS_ERR_PK_INVALID_PUBKEY + ret );
 545:D:/fchai/work/i-cube/I-CUBE-HUAWEI/Middlewares/Third_Party/Huawei/iot_link/network/dtls/mbedtls/mbedtls-2.16.2/library\pkparse.c **** 
 546:D:/fchai/work/i-cube/I-CUBE-HUAWEI/Middlewares/Third_Party/Huawei/iot_link/network/dtls/mbedtls/mbedtls-2.16.2/library\pkparse.c ****     if( ( ret = mbedtls_rsa_import_raw( rsa, *p, len, NULL, 0, NULL, 0,
 547:D:/fchai/work/i-cube/I-CUBE-HUAWEI/Middlewares/Third_Party/Huawei/iot_link/network/dtls/mbedtls/mbedtls-2.16.2/library\pkparse.c ****                                         NULL, 0, NULL, 0 ) ) != 0 )
 548:D:/fchai/work/i-cube/I-CUBE-HUAWEI/Middlewares/Third_Party/Huawei/iot_link/network/dtls/mbedtls/mbedtls-2.16.2/library\pkparse.c ****         return( MBEDTLS_ERR_PK_INVALID_PUBKEY );
 549:D:/fchai/work/i-cube/I-CUBE-HUAWEI/Middlewares/Third_Party/Huawei/iot_link/network/dtls/mbedtls/mbedtls-2.16.2/library\pkparse.c **** 
 550:D:/fchai/work/i-cube/I-CUBE-HUAWEI/Middlewares/Third_Party/Huawei/iot_link/network/dtls/mbedtls/mbedtls-2.16.2/library\pkparse.c ****     *p += len;
 551:D:/fchai/work/i-cube/I-CUBE-HUAWEI/Middlewares/Third_Party/Huawei/iot_link/network/dtls/mbedtls/mbedtls-2.16.2/library\pkparse.c **** 
 552:D:/fchai/work/i-cube/I-CUBE-HUAWEI/Middlewares/Third_Party/Huawei/iot_link/network/dtls/mbedtls/mbedtls-2.16.2/library\pkparse.c ****     /* Import E */
 553:D:/fchai/work/i-cube/I-CUBE-HUAWEI/Middlewares/Third_Party/Huawei/iot_link/network/dtls/mbedtls/mbedtls-2.16.2/library\pkparse.c ****     if( ( ret = mbedtls_asn1_get_tag( p, end, &len, MBEDTLS_ASN1_INTEGER ) ) != 0 )
 554:D:/fchai/work/i-cube/I-CUBE-HUAWEI/Middlewares/Third_Party/Huawei/iot_link/network/dtls/mbedtls/mbedtls-2.16.2/library\pkparse.c ****         return( MBEDTLS_ERR_PK_INVALID_PUBKEY + ret );
  83              		.loc 1 554 9 is_stmt 1 view .LVU17
  84              		.loc 1 554 47 is_stmt 0 view .LVU18
  85 002c A0F56C50 		sub	r0, r0, #15104
  86              	.LVL5:
  87              	.L1:
 555:D:/fchai/work/i-cube/I-CUBE-HUAWEI/Middlewares/Third_Party/Huawei/iot_link/network/dtls/mbedtls/mbedtls-2.16.2/library\pkparse.c **** 
 556:D:/fchai/work/i-cube/I-CUBE-HUAWEI/Middlewares/Third_Party/Huawei/iot_link/network/dtls/mbedtls/mbedtls-2.16.2/library\pkparse.c ****     if( ( ret = mbedtls_rsa_import_raw( rsa, NULL, 0, NULL, 0, NULL, 0,
 557:D:/fchai/work/i-cube/I-CUBE-HUAWEI/Middlewares/Third_Party/Huawei/iot_link/network/dtls/mbedtls/mbedtls-2.16.2/library\pkparse.c ****                                         NULL, 0, *p, len ) ) != 0 )
 558:D:/fchai/work/i-cube/I-CUBE-HUAWEI/Middlewares/Third_Party/Huawei/iot_link/network/dtls/mbedtls/mbedtls-2.16.2/library\pkparse.c ****         return( MBEDTLS_ERR_PK_INVALID_PUBKEY );
 559:D:/fchai/work/i-cube/I-CUBE-HUAWEI/Middlewares/Third_Party/Huawei/iot_link/network/dtls/mbedtls/mbedtls-2.16.2/library\pkparse.c **** 
 560:D:/fchai/work/i-cube/I-CUBE-HUAWEI/Middlewares/Third_Party/Huawei/iot_link/network/dtls/mbedtls/mbedtls-2.16.2/library\pkparse.c ****     *p += len;
 561:D:/fchai/work/i-cube/I-CUBE-HUAWEI/Middlewares/Third_Party/Huawei/iot_link/network/dtls/mbedtls/mbedtls-2.16.2/library\pkparse.c **** 
 562:D:/fchai/work/i-cube/I-CUBE-HUAWEI/Middlewares/Third_Party/Huawei/iot_link/network/dtls/mbedtls/mbedtls-2.16.2/library\pkparse.c ****     if( mbedtls_rsa_complete( rsa ) != 0 ||
 563:D:/fchai/work/i-cube/I-CUBE-HUAWEI/Middlewares/Third_Party/Huawei/iot_link/network/dtls/mbedtls/mbedtls-2.16.2/library\pkparse.c ****         mbedtls_rsa_check_pubkey( rsa ) != 0 )
 564:D:/fchai/work/i-cube/I-CUBE-HUAWEI/Middlewares/Third_Party/Huawei/iot_link/network/dtls/mbedtls/mbedtls-2.16.2/library\pkparse.c ****     {
 565:D:/fchai/work/i-cube/I-CUBE-HUAWEI/Middlewares/Third_Party/Huawei/iot_link/network/dtls/mbedtls/mbedtls-2.16.2/library\pkparse.c ****         return( MBEDTLS_ERR_PK_INVALID_PUBKEY );
 566:D:/fchai/work/i-cube/I-CUBE-HUAWEI/Middlewares/Third_Party/Huawei/iot_link/network/dtls/mbedtls/mbedtls-2.16.2/library\pkparse.c ****     }
 567:D:/fchai/work/i-cube/I-CUBE-HUAWEI/Middlewares/Third_Party/Huawei/iot_link/network/dtls/mbedtls/mbedtls-2.16.2/library\pkparse.c **** 
 568:D:/fchai/work/i-cube/I-CUBE-HUAWEI/Middlewares/Third_Party/Huawei/iot_link/network/dtls/mbedtls/mbedtls-2.16.2/library\pkparse.c ****     if( *p != end )
 569:D:/fchai/work/i-cube/I-CUBE-HUAWEI/Middlewares/Third_Party/Huawei/iot_link/network/dtls/mbedtls/mbedtls-2.16.2/library\pkparse.c ****         return( MBEDTLS_ERR_PK_INVALID_PUBKEY +
 570:D:/fchai/work/i-cube/I-CUBE-HUAWEI/Middlewares/Third_Party/Huawei/iot_link/network/dtls/mbedtls/mbedtls-2.16.2/library\pkparse.c ****                 MBEDTLS_ERR_ASN1_LENGTH_MISMATCH );
 571:D:/fchai/work/i-cube/I-CUBE-HUAWEI/Middlewares/Third_Party/Huawei/iot_link/network/dtls/mbedtls/mbedtls-2.16.2/library\pkparse.c **** 
 572:D:/fchai/work/i-cube/I-CUBE-HUAWEI/Middlewares/Third_Party/Huawei/iot_link/network/dtls/mbedtls/mbedtls-2.16.2/library\pkparse.c ****     return( 0 );
 573:D:/fchai/work/i-cube/I-CUBE-HUAWEI/Middlewares/Third_Party/Huawei/iot_link/network/dtls/mbedtls/mbedtls-2.16.2/library\pkparse.c **** }
  88              		.loc 1 573 1 view .LVU19
  89 0030 0AB0     		add	sp, sp, #40
  90              	.LCFI2:
  91              		.cfi_remember_state
  92              		.cfi_def_cfa_offset 16
  93              		@ sp needed
  94 0032 70BD     		pop	{r4, r5, r6, pc}
  95              	.LVL6:
  96              	.L5:
  97              	.LCFI3:
  98              		.cfi_restore_state
 546:D:/fchai/work/i-cube/I-CUBE-HUAWEI/Middlewares/Third_Party/Huawei/iot_link/network/dtls/mbedtls/mbedtls-2.16.2/library\pkparse.c ****                                         NULL, 0, NULL, 0 ) ) != 0 )
  99              		.loc 1 546 5 is_stmt 1 view .LVU20
 546:D:/fchai/work/i-cube/I-CUBE-HUAWEI/Middlewares/Third_Party/Huawei/iot_link/network/dtls/mbedtls/mbedtls-2.16.2/library\pkparse.c ****                                         NULL, 0, NULL, 0 ) ) != 0 )
 100              		.loc 1 546 17 is_stmt 0 view .LVU21
 101 0034 CDE90500 		strd	r0, r0, [sp, #20]
 102 0038 CDE90300 		strd	r0, r0, [sp, #12]
 103 003c CDE90100 		strd	r0, r0, [sp, #4]
 104 0040 0090     		str	r0, [sp]
 105 0042 0346     		mov	r3, r0
 106 0044 099A     		ldr	r2, [sp, #36]
 107 0046 2168     		ldr	r1, [r4]
ARM GAS  T:\msys\tmp\cc83OHoG.s 			page 13


 108 0048 3046     		mov	r0, r6
 109              	.LVL7:
 546:D:/fchai/work/i-cube/I-CUBE-HUAWEI/Middlewares/Third_Party/Huawei/iot_link/network/dtls/mbedtls/mbedtls-2.16.2/library\pkparse.c ****                                         NULL, 0, NULL, 0 ) ) != 0 )
 110              		.loc 1 546 17 view .LVU22
 111 004a FFF7FEFF 		bl	mbedtls_rsa_import_raw
 112              	.LVL8:
 546:D:/fchai/work/i-cube/I-CUBE-HUAWEI/Middlewares/Third_Party/Huawei/iot_link/network/dtls/mbedtls/mbedtls-2.16.2/library\pkparse.c ****                                         NULL, 0, NULL, 0 ) ) != 0 )
 113              		.loc 1 546 7 view .LVU23
 114 004e 60BB     		cbnz	r0, .L8
 550:D:/fchai/work/i-cube/I-CUBE-HUAWEI/Middlewares/Third_Party/Huawei/iot_link/network/dtls/mbedtls/mbedtls-2.16.2/library\pkparse.c **** 
 115              		.loc 1 550 5 is_stmt 1 view .LVU24
 550:D:/fchai/work/i-cube/I-CUBE-HUAWEI/Middlewares/Third_Party/Huawei/iot_link/network/dtls/mbedtls/mbedtls-2.16.2/library\pkparse.c **** 
 116              		.loc 1 550 8 is_stmt 0 view .LVU25
 117 0050 2368     		ldr	r3, [r4]
 118 0052 099A     		ldr	r2, [sp, #36]
 119 0054 1344     		add	r3, r3, r2
 120 0056 2360     		str	r3, [r4]
 553:D:/fchai/work/i-cube/I-CUBE-HUAWEI/Middlewares/Third_Party/Huawei/iot_link/network/dtls/mbedtls/mbedtls-2.16.2/library\pkparse.c ****         return( MBEDTLS_ERR_PK_INVALID_PUBKEY + ret );
 121              		.loc 1 553 5 is_stmt 1 view .LVU26
 553:D:/fchai/work/i-cube/I-CUBE-HUAWEI/Middlewares/Third_Party/Huawei/iot_link/network/dtls/mbedtls/mbedtls-2.16.2/library\pkparse.c ****         return( MBEDTLS_ERR_PK_INVALID_PUBKEY + ret );
 122              		.loc 1 553 17 is_stmt 0 view .LVU27
 123 0058 09AA     		add	r2, sp, #36
 124 005a 0223     		movs	r3, #2
 125 005c 2946     		mov	r1, r5
 126 005e 2046     		mov	r0, r4
 127              	.LVL9:
 553:D:/fchai/work/i-cube/I-CUBE-HUAWEI/Middlewares/Third_Party/Huawei/iot_link/network/dtls/mbedtls/mbedtls-2.16.2/library\pkparse.c ****         return( MBEDTLS_ERR_PK_INVALID_PUBKEY + ret );
 128              		.loc 1 553 17 view .LVU28
 129 0060 FFF7FEFF 		bl	mbedtls_asn1_get_tag
 130              	.LVL10:
 553:D:/fchai/work/i-cube/I-CUBE-HUAWEI/Middlewares/Third_Party/Huawei/iot_link/network/dtls/mbedtls/mbedtls-2.16.2/library\pkparse.c ****         return( MBEDTLS_ERR_PK_INVALID_PUBKEY + ret );
 131              		.loc 1 553 7 view .LVU29
 132 0064 0028     		cmp	r0, #0
 133 0066 E1D1     		bne	.L11
 556:D:/fchai/work/i-cube/I-CUBE-HUAWEI/Middlewares/Third_Party/Huawei/iot_link/network/dtls/mbedtls/mbedtls-2.16.2/library\pkparse.c ****                                         NULL, 0, *p, len ) ) != 0 )
 134              		.loc 1 556 5 is_stmt 1 view .LVU30
 556:D:/fchai/work/i-cube/I-CUBE-HUAWEI/Middlewares/Third_Party/Huawei/iot_link/network/dtls/mbedtls/mbedtls-2.16.2/library\pkparse.c ****                                         NULL, 0, *p, len ) ) != 0 )
 135              		.loc 1 556 17 is_stmt 0 view .LVU31
 136 0068 2268     		ldr	r2, [r4]
 137 006a 0999     		ldr	r1, [sp, #36]
 138 006c 0090     		str	r0, [sp]
 139 006e CDE90521 		strd	r2, r1, [sp, #20]
 140 0072 CDE90300 		strd	r0, r0, [sp, #12]
 141 0076 CDE90100 		strd	r0, r0, [sp, #4]
 142 007a 0346     		mov	r3, r0
 143 007c 0246     		mov	r2, r0
 144 007e 0146     		mov	r1, r0
 145 0080 3046     		mov	r0, r6
 146              	.LVL11:
 556:D:/fchai/work/i-cube/I-CUBE-HUAWEI/Middlewares/Third_Party/Huawei/iot_link/network/dtls/mbedtls/mbedtls-2.16.2/library\pkparse.c ****                                         NULL, 0, *p, len ) ) != 0 )
 147              		.loc 1 556 17 view .LVU32
 148 0082 FFF7FEFF 		bl	mbedtls_rsa_import_raw
 149              	.LVL12:
 556:D:/fchai/work/i-cube/I-CUBE-HUAWEI/Middlewares/Third_Party/Huawei/iot_link/network/dtls/mbedtls/mbedtls-2.16.2/library\pkparse.c ****                                         NULL, 0, *p, len ) ) != 0 )
 150              		.loc 1 556 7 view .LVU33
 151 0086 80B9     		cbnz	r0, .L8
 560:D:/fchai/work/i-cube/I-CUBE-HUAWEI/Middlewares/Third_Party/Huawei/iot_link/network/dtls/mbedtls/mbedtls-2.16.2/library\pkparse.c **** 
ARM GAS  T:\msys\tmp\cc83OHoG.s 			page 14


 152              		.loc 1 560 5 is_stmt 1 view .LVU34
 560:D:/fchai/work/i-cube/I-CUBE-HUAWEI/Middlewares/Third_Party/Huawei/iot_link/network/dtls/mbedtls/mbedtls-2.16.2/library\pkparse.c **** 
 153              		.loc 1 560 8 is_stmt 0 view .LVU35
 154 0088 2368     		ldr	r3, [r4]
 155 008a 099A     		ldr	r2, [sp, #36]
 156 008c 1344     		add	r3, r3, r2
 157 008e 2360     		str	r3, [r4]
 562:D:/fchai/work/i-cube/I-CUBE-HUAWEI/Middlewares/Third_Party/Huawei/iot_link/network/dtls/mbedtls/mbedtls-2.16.2/library\pkparse.c ****         mbedtls_rsa_check_pubkey( rsa ) != 0 )
 158              		.loc 1 562 5 is_stmt 1 view .LVU36
 562:D:/fchai/work/i-cube/I-CUBE-HUAWEI/Middlewares/Third_Party/Huawei/iot_link/network/dtls/mbedtls/mbedtls-2.16.2/library\pkparse.c ****         mbedtls_rsa_check_pubkey( rsa ) != 0 )
 159              		.loc 1 562 9 is_stmt 0 view .LVU37
 160 0090 3046     		mov	r0, r6
 161              	.LVL13:
 562:D:/fchai/work/i-cube/I-CUBE-HUAWEI/Middlewares/Third_Party/Huawei/iot_link/network/dtls/mbedtls/mbedtls-2.16.2/library\pkparse.c ****         mbedtls_rsa_check_pubkey( rsa ) != 0 )
 162              		.loc 1 562 9 view .LVU38
 163 0092 FFF7FEFF 		bl	mbedtls_rsa_complete
 164              	.LVL14:
 562:D:/fchai/work/i-cube/I-CUBE-HUAWEI/Middlewares/Third_Party/Huawei/iot_link/network/dtls/mbedtls/mbedtls-2.16.2/library\pkparse.c ****         mbedtls_rsa_check_pubkey( rsa ) != 0 )
 165              		.loc 1 562 7 view .LVU39
 166 0096 40B9     		cbnz	r0, .L8
 563:D:/fchai/work/i-cube/I-CUBE-HUAWEI/Middlewares/Third_Party/Huawei/iot_link/network/dtls/mbedtls/mbedtls-2.16.2/library\pkparse.c ****     {
 167              		.loc 1 563 9 discriminator 1 view .LVU40
 168 0098 3046     		mov	r0, r6
 169 009a FFF7FEFF 		bl	mbedtls_rsa_check_pubkey
 170              	.LVL15:
 562:D:/fchai/work/i-cube/I-CUBE-HUAWEI/Middlewares/Third_Party/Huawei/iot_link/network/dtls/mbedtls/mbedtls-2.16.2/library\pkparse.c ****         mbedtls_rsa_check_pubkey( rsa ) != 0 )
 171              		.loc 1 562 42 discriminator 1 view .LVU41
 172 009e 20B9     		cbnz	r0, .L8
 568:D:/fchai/work/i-cube/I-CUBE-HUAWEI/Middlewares/Third_Party/Huawei/iot_link/network/dtls/mbedtls/mbedtls-2.16.2/library\pkparse.c ****         return( MBEDTLS_ERR_PK_INVALID_PUBKEY +
 173              		.loc 1 568 5 is_stmt 1 view .LVU42
 568:D:/fchai/work/i-cube/I-CUBE-HUAWEI/Middlewares/Third_Party/Huawei/iot_link/network/dtls/mbedtls/mbedtls-2.16.2/library\pkparse.c ****         return( MBEDTLS_ERR_PK_INVALID_PUBKEY +
 174              		.loc 1 568 7 is_stmt 0 view .LVU43
 175 00a0 2368     		ldr	r3, [r4]
 176 00a2 AB42     		cmp	r3, r5
 177 00a4 C4D0     		beq	.L1
 178              	.L4:
 569:D:/fchai/work/i-cube/I-CUBE-HUAWEI/Middlewares/Third_Party/Huawei/iot_link/network/dtls/mbedtls/mbedtls-2.16.2/library\pkparse.c ****                 MBEDTLS_ERR_ASN1_LENGTH_MISMATCH );
 179              		.loc 1 569 9 is_stmt 1 view .LVU44
 569:D:/fchai/work/i-cube/I-CUBE-HUAWEI/Middlewares/Third_Party/Huawei/iot_link/network/dtls/mbedtls/mbedtls-2.16.2/library\pkparse.c ****                 MBEDTLS_ERR_ASN1_LENGTH_MISMATCH );
 180              		.loc 1 569 15 is_stmt 0 view .LVU45
 181 00a6 0248     		ldr	r0, .L13
 182 00a8 C2E7     		b	.L1
 183              	.L8:
 548:D:/fchai/work/i-cube/I-CUBE-HUAWEI/Middlewares/Third_Party/Huawei/iot_link/network/dtls/mbedtls/mbedtls-2.16.2/library\pkparse.c **** 
 184              		.loc 1 548 15 view .LVU46
 185 00aa 0248     		ldr	r0, .L13+4
 186 00ac C0E7     		b	.L1
 187              	.L14:
 188 00ae 00BF     		.align	2
 189              	.L13:
 190 00b0 9AC4FFFF 		.word	-15206
 191 00b4 00C5FFFF 		.word	-15104
 192              		.cfi_endproc
 193              	.LFE19:
 195              		.section	.text.pk_parse_key_pkcs1_der,"ax",%progbits
 196              		.align	1
 197              		.p2align 2,,3
ARM GAS  T:\msys\tmp\cc83OHoG.s 			page 15


 198              		.syntax unified
 199              		.thumb
 200              		.thumb_func
 201              		.fpu fpv4-sp-d16
 203              	pk_parse_key_pkcs1_der:
 204              	.LVL16:
 205              	.LFB22:
 574:D:/fchai/work/i-cube/I-CUBE-HUAWEI/Middlewares/Third_Party/Huawei/iot_link/network/dtls/mbedtls/mbedtls-2.16.2/library\pkparse.c **** #endif /* MBEDTLS_RSA_C */
 575:D:/fchai/work/i-cube/I-CUBE-HUAWEI/Middlewares/Third_Party/Huawei/iot_link/network/dtls/mbedtls/mbedtls-2.16.2/library\pkparse.c **** 
 576:D:/fchai/work/i-cube/I-CUBE-HUAWEI/Middlewares/Third_Party/Huawei/iot_link/network/dtls/mbedtls/mbedtls-2.16.2/library\pkparse.c **** /* Get a PK algorithm identifier
 577:D:/fchai/work/i-cube/I-CUBE-HUAWEI/Middlewares/Third_Party/Huawei/iot_link/network/dtls/mbedtls/mbedtls-2.16.2/library\pkparse.c ****  *
 578:D:/fchai/work/i-cube/I-CUBE-HUAWEI/Middlewares/Third_Party/Huawei/iot_link/network/dtls/mbedtls/mbedtls-2.16.2/library\pkparse.c ****  *  AlgorithmIdentifier  ::=  SEQUENCE  {
 579:D:/fchai/work/i-cube/I-CUBE-HUAWEI/Middlewares/Third_Party/Huawei/iot_link/network/dtls/mbedtls/mbedtls-2.16.2/library\pkparse.c ****  *       algorithm               OBJECT IDENTIFIER,
 580:D:/fchai/work/i-cube/I-CUBE-HUAWEI/Middlewares/Third_Party/Huawei/iot_link/network/dtls/mbedtls/mbedtls-2.16.2/library\pkparse.c ****  *       parameters              ANY DEFINED BY algorithm OPTIONAL  }
 581:D:/fchai/work/i-cube/I-CUBE-HUAWEI/Middlewares/Third_Party/Huawei/iot_link/network/dtls/mbedtls/mbedtls-2.16.2/library\pkparse.c ****  */
 582:D:/fchai/work/i-cube/I-CUBE-HUAWEI/Middlewares/Third_Party/Huawei/iot_link/network/dtls/mbedtls/mbedtls-2.16.2/library\pkparse.c **** static int pk_get_pk_alg( unsigned char **p,
 583:D:/fchai/work/i-cube/I-CUBE-HUAWEI/Middlewares/Third_Party/Huawei/iot_link/network/dtls/mbedtls/mbedtls-2.16.2/library\pkparse.c ****                           const unsigned char *end,
 584:D:/fchai/work/i-cube/I-CUBE-HUAWEI/Middlewares/Third_Party/Huawei/iot_link/network/dtls/mbedtls/mbedtls-2.16.2/library\pkparse.c ****                           mbedtls_pk_type_t *pk_alg, mbedtls_asn1_buf *params )
 585:D:/fchai/work/i-cube/I-CUBE-HUAWEI/Middlewares/Third_Party/Huawei/iot_link/network/dtls/mbedtls/mbedtls-2.16.2/library\pkparse.c **** {
 586:D:/fchai/work/i-cube/I-CUBE-HUAWEI/Middlewares/Third_Party/Huawei/iot_link/network/dtls/mbedtls/mbedtls-2.16.2/library\pkparse.c ****     int ret;
 587:D:/fchai/work/i-cube/I-CUBE-HUAWEI/Middlewares/Third_Party/Huawei/iot_link/network/dtls/mbedtls/mbedtls-2.16.2/library\pkparse.c ****     mbedtls_asn1_buf alg_oid;
 588:D:/fchai/work/i-cube/I-CUBE-HUAWEI/Middlewares/Third_Party/Huawei/iot_link/network/dtls/mbedtls/mbedtls-2.16.2/library\pkparse.c **** 
 589:D:/fchai/work/i-cube/I-CUBE-HUAWEI/Middlewares/Third_Party/Huawei/iot_link/network/dtls/mbedtls/mbedtls-2.16.2/library\pkparse.c ****     memset( params, 0, sizeof(mbedtls_asn1_buf) );
 590:D:/fchai/work/i-cube/I-CUBE-HUAWEI/Middlewares/Third_Party/Huawei/iot_link/network/dtls/mbedtls/mbedtls-2.16.2/library\pkparse.c **** 
 591:D:/fchai/work/i-cube/I-CUBE-HUAWEI/Middlewares/Third_Party/Huawei/iot_link/network/dtls/mbedtls/mbedtls-2.16.2/library\pkparse.c ****     if( ( ret = mbedtls_asn1_get_alg( p, end, &alg_oid, params ) ) != 0 )
 592:D:/fchai/work/i-cube/I-CUBE-HUAWEI/Middlewares/Third_Party/Huawei/iot_link/network/dtls/mbedtls/mbedtls-2.16.2/library\pkparse.c ****         return( MBEDTLS_ERR_PK_INVALID_ALG + ret );
 593:D:/fchai/work/i-cube/I-CUBE-HUAWEI/Middlewares/Third_Party/Huawei/iot_link/network/dtls/mbedtls/mbedtls-2.16.2/library\pkparse.c **** 
 594:D:/fchai/work/i-cube/I-CUBE-HUAWEI/Middlewares/Third_Party/Huawei/iot_link/network/dtls/mbedtls/mbedtls-2.16.2/library\pkparse.c ****     if( mbedtls_oid_get_pk_alg( &alg_oid, pk_alg ) != 0 )
 595:D:/fchai/work/i-cube/I-CUBE-HUAWEI/Middlewares/Third_Party/Huawei/iot_link/network/dtls/mbedtls/mbedtls-2.16.2/library\pkparse.c ****         return( MBEDTLS_ERR_PK_UNKNOWN_PK_ALG );
 596:D:/fchai/work/i-cube/I-CUBE-HUAWEI/Middlewares/Third_Party/Huawei/iot_link/network/dtls/mbedtls/mbedtls-2.16.2/library\pkparse.c **** 
 597:D:/fchai/work/i-cube/I-CUBE-HUAWEI/Middlewares/Third_Party/Huawei/iot_link/network/dtls/mbedtls/mbedtls-2.16.2/library\pkparse.c ****     /*
 598:D:/fchai/work/i-cube/I-CUBE-HUAWEI/Middlewares/Third_Party/Huawei/iot_link/network/dtls/mbedtls/mbedtls-2.16.2/library\pkparse.c ****      * No parameters with RSA (only for EC)
 599:D:/fchai/work/i-cube/I-CUBE-HUAWEI/Middlewares/Third_Party/Huawei/iot_link/network/dtls/mbedtls/mbedtls-2.16.2/library\pkparse.c ****      */
 600:D:/fchai/work/i-cube/I-CUBE-HUAWEI/Middlewares/Third_Party/Huawei/iot_link/network/dtls/mbedtls/mbedtls-2.16.2/library\pkparse.c ****     if( *pk_alg == MBEDTLS_PK_RSA &&
 601:D:/fchai/work/i-cube/I-CUBE-HUAWEI/Middlewares/Third_Party/Huawei/iot_link/network/dtls/mbedtls/mbedtls-2.16.2/library\pkparse.c ****             ( ( params->tag != MBEDTLS_ASN1_NULL && params->tag != 0 ) ||
 602:D:/fchai/work/i-cube/I-CUBE-HUAWEI/Middlewares/Third_Party/Huawei/iot_link/network/dtls/mbedtls/mbedtls-2.16.2/library\pkparse.c ****                 params->len != 0 ) )
 603:D:/fchai/work/i-cube/I-CUBE-HUAWEI/Middlewares/Third_Party/Huawei/iot_link/network/dtls/mbedtls/mbedtls-2.16.2/library\pkparse.c ****     {
 604:D:/fchai/work/i-cube/I-CUBE-HUAWEI/Middlewares/Third_Party/Huawei/iot_link/network/dtls/mbedtls/mbedtls-2.16.2/library\pkparse.c ****         return( MBEDTLS_ERR_PK_INVALID_ALG );
 605:D:/fchai/work/i-cube/I-CUBE-HUAWEI/Middlewares/Third_Party/Huawei/iot_link/network/dtls/mbedtls/mbedtls-2.16.2/library\pkparse.c ****     }
 606:D:/fchai/work/i-cube/I-CUBE-HUAWEI/Middlewares/Third_Party/Huawei/iot_link/network/dtls/mbedtls/mbedtls-2.16.2/library\pkparse.c **** 
 607:D:/fchai/work/i-cube/I-CUBE-HUAWEI/Middlewares/Third_Party/Huawei/iot_link/network/dtls/mbedtls/mbedtls-2.16.2/library\pkparse.c ****     return( 0 );
 608:D:/fchai/work/i-cube/I-CUBE-HUAWEI/Middlewares/Third_Party/Huawei/iot_link/network/dtls/mbedtls/mbedtls-2.16.2/library\pkparse.c **** }
 609:D:/fchai/work/i-cube/I-CUBE-HUAWEI/Middlewares/Third_Party/Huawei/iot_link/network/dtls/mbedtls/mbedtls-2.16.2/library\pkparse.c **** 
 610:D:/fchai/work/i-cube/I-CUBE-HUAWEI/Middlewares/Third_Party/Huawei/iot_link/network/dtls/mbedtls/mbedtls-2.16.2/library\pkparse.c **** /*
 611:D:/fchai/work/i-cube/I-CUBE-HUAWEI/Middlewares/Third_Party/Huawei/iot_link/network/dtls/mbedtls/mbedtls-2.16.2/library\pkparse.c ****  *  SubjectPublicKeyInfo  ::=  SEQUENCE  {
 612:D:/fchai/work/i-cube/I-CUBE-HUAWEI/Middlewares/Third_Party/Huawei/iot_link/network/dtls/mbedtls/mbedtls-2.16.2/library\pkparse.c ****  *       algorithm            AlgorithmIdentifier,
 613:D:/fchai/work/i-cube/I-CUBE-HUAWEI/Middlewares/Third_Party/Huawei/iot_link/network/dtls/mbedtls/mbedtls-2.16.2/library\pkparse.c ****  *       subjectPublicKey     BIT STRING }
 614:D:/fchai/work/i-cube/I-CUBE-HUAWEI/Middlewares/Third_Party/Huawei/iot_link/network/dtls/mbedtls/mbedtls-2.16.2/library\pkparse.c ****  */
 615:D:/fchai/work/i-cube/I-CUBE-HUAWEI/Middlewares/Third_Party/Huawei/iot_link/network/dtls/mbedtls/mbedtls-2.16.2/library\pkparse.c **** int mbedtls_pk_parse_subpubkey( unsigned char **p, const unsigned char *end,
 616:D:/fchai/work/i-cube/I-CUBE-HUAWEI/Middlewares/Third_Party/Huawei/iot_link/network/dtls/mbedtls/mbedtls-2.16.2/library\pkparse.c ****                         mbedtls_pk_context *pk )
 617:D:/fchai/work/i-cube/I-CUBE-HUAWEI/Middlewares/Third_Party/Huawei/iot_link/network/dtls/mbedtls/mbedtls-2.16.2/library\pkparse.c **** {
 618:D:/fchai/work/i-cube/I-CUBE-HUAWEI/Middlewares/Third_Party/Huawei/iot_link/network/dtls/mbedtls/mbedtls-2.16.2/library\pkparse.c ****     int ret;
 619:D:/fchai/work/i-cube/I-CUBE-HUAWEI/Middlewares/Third_Party/Huawei/iot_link/network/dtls/mbedtls/mbedtls-2.16.2/library\pkparse.c ****     size_t len;
 620:D:/fchai/work/i-cube/I-CUBE-HUAWEI/Middlewares/Third_Party/Huawei/iot_link/network/dtls/mbedtls/mbedtls-2.16.2/library\pkparse.c ****     mbedtls_asn1_buf alg_params;
 621:D:/fchai/work/i-cube/I-CUBE-HUAWEI/Middlewares/Third_Party/Huawei/iot_link/network/dtls/mbedtls/mbedtls-2.16.2/library\pkparse.c ****     mbedtls_pk_type_t pk_alg = MBEDTLS_PK_NONE;
 622:D:/fchai/work/i-cube/I-CUBE-HUAWEI/Middlewares/Third_Party/Huawei/iot_link/network/dtls/mbedtls/mbedtls-2.16.2/library\pkparse.c ****     const mbedtls_pk_info_t *pk_info;
 623:D:/fchai/work/i-cube/I-CUBE-HUAWEI/Middlewares/Third_Party/Huawei/iot_link/network/dtls/mbedtls/mbedtls-2.16.2/library\pkparse.c **** 
ARM GAS  T:\msys\tmp\cc83OHoG.s 			page 16


 624:D:/fchai/work/i-cube/I-CUBE-HUAWEI/Middlewares/Third_Party/Huawei/iot_link/network/dtls/mbedtls/mbedtls-2.16.2/library\pkparse.c ****     PK_VALIDATE_RET( p != NULL );
 625:D:/fchai/work/i-cube/I-CUBE-HUAWEI/Middlewares/Third_Party/Huawei/iot_link/network/dtls/mbedtls/mbedtls-2.16.2/library\pkparse.c ****     PK_VALIDATE_RET( *p != NULL );
 626:D:/fchai/work/i-cube/I-CUBE-HUAWEI/Middlewares/Third_Party/Huawei/iot_link/network/dtls/mbedtls/mbedtls-2.16.2/library\pkparse.c ****     PK_VALIDATE_RET( end != NULL );
 627:D:/fchai/work/i-cube/I-CUBE-HUAWEI/Middlewares/Third_Party/Huawei/iot_link/network/dtls/mbedtls/mbedtls-2.16.2/library\pkparse.c ****     PK_VALIDATE_RET( pk != NULL );
 628:D:/fchai/work/i-cube/I-CUBE-HUAWEI/Middlewares/Third_Party/Huawei/iot_link/network/dtls/mbedtls/mbedtls-2.16.2/library\pkparse.c **** 
 629:D:/fchai/work/i-cube/I-CUBE-HUAWEI/Middlewares/Third_Party/Huawei/iot_link/network/dtls/mbedtls/mbedtls-2.16.2/library\pkparse.c ****     if( ( ret = mbedtls_asn1_get_tag( p, end, &len,
 630:D:/fchai/work/i-cube/I-CUBE-HUAWEI/Middlewares/Third_Party/Huawei/iot_link/network/dtls/mbedtls/mbedtls-2.16.2/library\pkparse.c ****                     MBEDTLS_ASN1_CONSTRUCTED | MBEDTLS_ASN1_SEQUENCE ) ) != 0 )
 631:D:/fchai/work/i-cube/I-CUBE-HUAWEI/Middlewares/Third_Party/Huawei/iot_link/network/dtls/mbedtls/mbedtls-2.16.2/library\pkparse.c ****     {
 632:D:/fchai/work/i-cube/I-CUBE-HUAWEI/Middlewares/Third_Party/Huawei/iot_link/network/dtls/mbedtls/mbedtls-2.16.2/library\pkparse.c ****         return( MBEDTLS_ERR_PK_KEY_INVALID_FORMAT + ret );
 633:D:/fchai/work/i-cube/I-CUBE-HUAWEI/Middlewares/Third_Party/Huawei/iot_link/network/dtls/mbedtls/mbedtls-2.16.2/library\pkparse.c ****     }
 634:D:/fchai/work/i-cube/I-CUBE-HUAWEI/Middlewares/Third_Party/Huawei/iot_link/network/dtls/mbedtls/mbedtls-2.16.2/library\pkparse.c **** 
 635:D:/fchai/work/i-cube/I-CUBE-HUAWEI/Middlewares/Third_Party/Huawei/iot_link/network/dtls/mbedtls/mbedtls-2.16.2/library\pkparse.c ****     end = *p + len;
 636:D:/fchai/work/i-cube/I-CUBE-HUAWEI/Middlewares/Third_Party/Huawei/iot_link/network/dtls/mbedtls/mbedtls-2.16.2/library\pkparse.c **** 
 637:D:/fchai/work/i-cube/I-CUBE-HUAWEI/Middlewares/Third_Party/Huawei/iot_link/network/dtls/mbedtls/mbedtls-2.16.2/library\pkparse.c ****     if( ( ret = pk_get_pk_alg( p, end, &pk_alg, &alg_params ) ) != 0 )
 638:D:/fchai/work/i-cube/I-CUBE-HUAWEI/Middlewares/Third_Party/Huawei/iot_link/network/dtls/mbedtls/mbedtls-2.16.2/library\pkparse.c ****         return( ret );
 639:D:/fchai/work/i-cube/I-CUBE-HUAWEI/Middlewares/Third_Party/Huawei/iot_link/network/dtls/mbedtls/mbedtls-2.16.2/library\pkparse.c **** 
 640:D:/fchai/work/i-cube/I-CUBE-HUAWEI/Middlewares/Third_Party/Huawei/iot_link/network/dtls/mbedtls/mbedtls-2.16.2/library\pkparse.c ****     if( ( ret = mbedtls_asn1_get_bitstring_null( p, end, &len ) ) != 0 )
 641:D:/fchai/work/i-cube/I-CUBE-HUAWEI/Middlewares/Third_Party/Huawei/iot_link/network/dtls/mbedtls/mbedtls-2.16.2/library\pkparse.c ****         return( MBEDTLS_ERR_PK_INVALID_PUBKEY + ret );
 642:D:/fchai/work/i-cube/I-CUBE-HUAWEI/Middlewares/Third_Party/Huawei/iot_link/network/dtls/mbedtls/mbedtls-2.16.2/library\pkparse.c **** 
 643:D:/fchai/work/i-cube/I-CUBE-HUAWEI/Middlewares/Third_Party/Huawei/iot_link/network/dtls/mbedtls/mbedtls-2.16.2/library\pkparse.c ****     if( *p + len != end )
 644:D:/fchai/work/i-cube/I-CUBE-HUAWEI/Middlewares/Third_Party/Huawei/iot_link/network/dtls/mbedtls/mbedtls-2.16.2/library\pkparse.c ****         return( MBEDTLS_ERR_PK_INVALID_PUBKEY +
 645:D:/fchai/work/i-cube/I-CUBE-HUAWEI/Middlewares/Third_Party/Huawei/iot_link/network/dtls/mbedtls/mbedtls-2.16.2/library\pkparse.c ****                 MBEDTLS_ERR_ASN1_LENGTH_MISMATCH );
 646:D:/fchai/work/i-cube/I-CUBE-HUAWEI/Middlewares/Third_Party/Huawei/iot_link/network/dtls/mbedtls/mbedtls-2.16.2/library\pkparse.c **** 
 647:D:/fchai/work/i-cube/I-CUBE-HUAWEI/Middlewares/Third_Party/Huawei/iot_link/network/dtls/mbedtls/mbedtls-2.16.2/library\pkparse.c ****     if( ( pk_info = mbedtls_pk_info_from_type( pk_alg ) ) == NULL )
 648:D:/fchai/work/i-cube/I-CUBE-HUAWEI/Middlewares/Third_Party/Huawei/iot_link/network/dtls/mbedtls/mbedtls-2.16.2/library\pkparse.c ****         return( MBEDTLS_ERR_PK_UNKNOWN_PK_ALG );
 649:D:/fchai/work/i-cube/I-CUBE-HUAWEI/Middlewares/Third_Party/Huawei/iot_link/network/dtls/mbedtls/mbedtls-2.16.2/library\pkparse.c **** 
 650:D:/fchai/work/i-cube/I-CUBE-HUAWEI/Middlewares/Third_Party/Huawei/iot_link/network/dtls/mbedtls/mbedtls-2.16.2/library\pkparse.c ****     if( ( ret = mbedtls_pk_setup( pk, pk_info ) ) != 0 )
 651:D:/fchai/work/i-cube/I-CUBE-HUAWEI/Middlewares/Third_Party/Huawei/iot_link/network/dtls/mbedtls/mbedtls-2.16.2/library\pkparse.c ****         return( ret );
 652:D:/fchai/work/i-cube/I-CUBE-HUAWEI/Middlewares/Third_Party/Huawei/iot_link/network/dtls/mbedtls/mbedtls-2.16.2/library\pkparse.c **** 
 653:D:/fchai/work/i-cube/I-CUBE-HUAWEI/Middlewares/Third_Party/Huawei/iot_link/network/dtls/mbedtls/mbedtls-2.16.2/library\pkparse.c **** #if defined(MBEDTLS_RSA_C)
 654:D:/fchai/work/i-cube/I-CUBE-HUAWEI/Middlewares/Third_Party/Huawei/iot_link/network/dtls/mbedtls/mbedtls-2.16.2/library\pkparse.c ****     if( pk_alg == MBEDTLS_PK_RSA )
 655:D:/fchai/work/i-cube/I-CUBE-HUAWEI/Middlewares/Third_Party/Huawei/iot_link/network/dtls/mbedtls/mbedtls-2.16.2/library\pkparse.c ****     {
 656:D:/fchai/work/i-cube/I-CUBE-HUAWEI/Middlewares/Third_Party/Huawei/iot_link/network/dtls/mbedtls/mbedtls-2.16.2/library\pkparse.c ****         ret = pk_get_rsapubkey( p, end, mbedtls_pk_rsa( *pk ) );
 657:D:/fchai/work/i-cube/I-CUBE-HUAWEI/Middlewares/Third_Party/Huawei/iot_link/network/dtls/mbedtls/mbedtls-2.16.2/library\pkparse.c ****     } else
 658:D:/fchai/work/i-cube/I-CUBE-HUAWEI/Middlewares/Third_Party/Huawei/iot_link/network/dtls/mbedtls/mbedtls-2.16.2/library\pkparse.c **** #endif /* MBEDTLS_RSA_C */
 659:D:/fchai/work/i-cube/I-CUBE-HUAWEI/Middlewares/Third_Party/Huawei/iot_link/network/dtls/mbedtls/mbedtls-2.16.2/library\pkparse.c **** #if defined(MBEDTLS_ECP_C)
 660:D:/fchai/work/i-cube/I-CUBE-HUAWEI/Middlewares/Third_Party/Huawei/iot_link/network/dtls/mbedtls/mbedtls-2.16.2/library\pkparse.c ****     if( pk_alg == MBEDTLS_PK_ECKEY_DH || pk_alg == MBEDTLS_PK_ECKEY )
 661:D:/fchai/work/i-cube/I-CUBE-HUAWEI/Middlewares/Third_Party/Huawei/iot_link/network/dtls/mbedtls/mbedtls-2.16.2/library\pkparse.c ****     {
 662:D:/fchai/work/i-cube/I-CUBE-HUAWEI/Middlewares/Third_Party/Huawei/iot_link/network/dtls/mbedtls/mbedtls-2.16.2/library\pkparse.c ****         ret = pk_use_ecparams( &alg_params, &mbedtls_pk_ec( *pk )->grp );
 663:D:/fchai/work/i-cube/I-CUBE-HUAWEI/Middlewares/Third_Party/Huawei/iot_link/network/dtls/mbedtls/mbedtls-2.16.2/library\pkparse.c ****         if( ret == 0 )
 664:D:/fchai/work/i-cube/I-CUBE-HUAWEI/Middlewares/Third_Party/Huawei/iot_link/network/dtls/mbedtls/mbedtls-2.16.2/library\pkparse.c ****             ret = pk_get_ecpubkey( p, end, mbedtls_pk_ec( *pk ) );
 665:D:/fchai/work/i-cube/I-CUBE-HUAWEI/Middlewares/Third_Party/Huawei/iot_link/network/dtls/mbedtls/mbedtls-2.16.2/library\pkparse.c ****     } else
 666:D:/fchai/work/i-cube/I-CUBE-HUAWEI/Middlewares/Third_Party/Huawei/iot_link/network/dtls/mbedtls/mbedtls-2.16.2/library\pkparse.c **** #endif /* MBEDTLS_ECP_C */
 667:D:/fchai/work/i-cube/I-CUBE-HUAWEI/Middlewares/Third_Party/Huawei/iot_link/network/dtls/mbedtls/mbedtls-2.16.2/library\pkparse.c ****         ret = MBEDTLS_ERR_PK_UNKNOWN_PK_ALG;
 668:D:/fchai/work/i-cube/I-CUBE-HUAWEI/Middlewares/Third_Party/Huawei/iot_link/network/dtls/mbedtls/mbedtls-2.16.2/library\pkparse.c **** 
 669:D:/fchai/work/i-cube/I-CUBE-HUAWEI/Middlewares/Third_Party/Huawei/iot_link/network/dtls/mbedtls/mbedtls-2.16.2/library\pkparse.c ****     if( ret == 0 && *p != end )
 670:D:/fchai/work/i-cube/I-CUBE-HUAWEI/Middlewares/Third_Party/Huawei/iot_link/network/dtls/mbedtls/mbedtls-2.16.2/library\pkparse.c ****         ret = MBEDTLS_ERR_PK_INVALID_PUBKEY
 671:D:/fchai/work/i-cube/I-CUBE-HUAWEI/Middlewares/Third_Party/Huawei/iot_link/network/dtls/mbedtls/mbedtls-2.16.2/library\pkparse.c ****               MBEDTLS_ERR_ASN1_LENGTH_MISMATCH;
 672:D:/fchai/work/i-cube/I-CUBE-HUAWEI/Middlewares/Third_Party/Huawei/iot_link/network/dtls/mbedtls/mbedtls-2.16.2/library\pkparse.c **** 
 673:D:/fchai/work/i-cube/I-CUBE-HUAWEI/Middlewares/Third_Party/Huawei/iot_link/network/dtls/mbedtls/mbedtls-2.16.2/library\pkparse.c ****     if( ret != 0 )
 674:D:/fchai/work/i-cube/I-CUBE-HUAWEI/Middlewares/Third_Party/Huawei/iot_link/network/dtls/mbedtls/mbedtls-2.16.2/library\pkparse.c ****         mbedtls_pk_free( pk );
 675:D:/fchai/work/i-cube/I-CUBE-HUAWEI/Middlewares/Third_Party/Huawei/iot_link/network/dtls/mbedtls/mbedtls-2.16.2/library\pkparse.c **** 
 676:D:/fchai/work/i-cube/I-CUBE-HUAWEI/Middlewares/Third_Party/Huawei/iot_link/network/dtls/mbedtls/mbedtls-2.16.2/library\pkparse.c ****     return( ret );
 677:D:/fchai/work/i-cube/I-CUBE-HUAWEI/Middlewares/Third_Party/Huawei/iot_link/network/dtls/mbedtls/mbedtls-2.16.2/library\pkparse.c **** }
 678:D:/fchai/work/i-cube/I-CUBE-HUAWEI/Middlewares/Third_Party/Huawei/iot_link/network/dtls/mbedtls/mbedtls-2.16.2/library\pkparse.c **** 
 679:D:/fchai/work/i-cube/I-CUBE-HUAWEI/Middlewares/Third_Party/Huawei/iot_link/network/dtls/mbedtls/mbedtls-2.16.2/library\pkparse.c **** #if defined(MBEDTLS_RSA_C)
 680:D:/fchai/work/i-cube/I-CUBE-HUAWEI/Middlewares/Third_Party/Huawei/iot_link/network/dtls/mbedtls/mbedtls-2.16.2/library\pkparse.c **** /*
ARM GAS  T:\msys\tmp\cc83OHoG.s 			page 17


 681:D:/fchai/work/i-cube/I-CUBE-HUAWEI/Middlewares/Third_Party/Huawei/iot_link/network/dtls/mbedtls/mbedtls-2.16.2/library\pkparse.c ****  * Parse a PKCS#1 encoded private RSA key
 682:D:/fchai/work/i-cube/I-CUBE-HUAWEI/Middlewares/Third_Party/Huawei/iot_link/network/dtls/mbedtls/mbedtls-2.16.2/library\pkparse.c ****  */
 683:D:/fchai/work/i-cube/I-CUBE-HUAWEI/Middlewares/Third_Party/Huawei/iot_link/network/dtls/mbedtls/mbedtls-2.16.2/library\pkparse.c **** static int pk_parse_key_pkcs1_der( mbedtls_rsa_context *rsa,
 684:D:/fchai/work/i-cube/I-CUBE-HUAWEI/Middlewares/Third_Party/Huawei/iot_link/network/dtls/mbedtls/mbedtls-2.16.2/library\pkparse.c ****                                    const unsigned char *key,
 685:D:/fchai/work/i-cube/I-CUBE-HUAWEI/Middlewares/Third_Party/Huawei/iot_link/network/dtls/mbedtls/mbedtls-2.16.2/library\pkparse.c ****                                    size_t keylen )
 686:D:/fchai/work/i-cube/I-CUBE-HUAWEI/Middlewares/Third_Party/Huawei/iot_link/network/dtls/mbedtls/mbedtls-2.16.2/library\pkparse.c **** {
 206              		.loc 1 686 1 is_stmt 1 view -0
 207              		.cfi_startproc
 208              		@ args = 0, pretend = 0, frame = 24
 209              		@ frame_needed = 0, uses_anonymous_args = 0
 687:D:/fchai/work/i-cube/I-CUBE-HUAWEI/Middlewares/Third_Party/Huawei/iot_link/network/dtls/mbedtls/mbedtls-2.16.2/library\pkparse.c ****     int ret, version;
 210              		.loc 1 687 5 view .LVU48
 688:D:/fchai/work/i-cube/I-CUBE-HUAWEI/Middlewares/Third_Party/Huawei/iot_link/network/dtls/mbedtls/mbedtls-2.16.2/library\pkparse.c ****     size_t len;
 211              		.loc 1 688 5 view .LVU49
 689:D:/fchai/work/i-cube/I-CUBE-HUAWEI/Middlewares/Third_Party/Huawei/iot_link/network/dtls/mbedtls/mbedtls-2.16.2/library\pkparse.c ****     unsigned char *p, *end;
 212              		.loc 1 689 5 view .LVU50
 690:D:/fchai/work/i-cube/I-CUBE-HUAWEI/Middlewares/Third_Party/Huawei/iot_link/network/dtls/mbedtls/mbedtls-2.16.2/library\pkparse.c **** 
 691:D:/fchai/work/i-cube/I-CUBE-HUAWEI/Middlewares/Third_Party/Huawei/iot_link/network/dtls/mbedtls/mbedtls-2.16.2/library\pkparse.c ****     mbedtls_mpi T;
 213              		.loc 1 691 5 view .LVU51
 692:D:/fchai/work/i-cube/I-CUBE-HUAWEI/Middlewares/Third_Party/Huawei/iot_link/network/dtls/mbedtls/mbedtls-2.16.2/library\pkparse.c ****     mbedtls_mpi_init( &T );
 214              		.loc 1 692 5 view .LVU52
 686:D:/fchai/work/i-cube/I-CUBE-HUAWEI/Middlewares/Third_Party/Huawei/iot_link/network/dtls/mbedtls/mbedtls-2.16.2/library\pkparse.c ****     int ret, version;
 215              		.loc 1 686 1 is_stmt 0 view .LVU53
 216 0000 70B5     		push	{r4, r5, r6, lr}
 217              	.LCFI4:
 218              		.cfi_def_cfa_offset 16
 219              		.cfi_offset 4, -16
 220              		.cfi_offset 5, -12
 221              		.cfi_offset 6, -8
 222              		.cfi_offset 14, -4
 223 0002 8EB0     		sub	sp, sp, #56
 224              	.LCFI5:
 225              		.cfi_def_cfa_offset 72
 686:D:/fchai/work/i-cube/I-CUBE-HUAWEI/Middlewares/Third_Party/Huawei/iot_link/network/dtls/mbedtls/mbedtls-2.16.2/library\pkparse.c ****     int ret, version;
 226              		.loc 1 686 1 view .LVU54
 227 0004 0C46     		mov	r4, r1
 228 0006 1646     		mov	r6, r2
 229 0008 0546     		mov	r5, r0
 230              		.loc 1 692 5 view .LVU55
 231 000a 0BA8     		add	r0, sp, #44
 232              	.LVL17:
 233              		.loc 1 692 5 view .LVU56
 234 000c FFF7FEFF 		bl	mbedtls_mpi_init
 235              	.LVL18:
 693:D:/fchai/work/i-cube/I-CUBE-HUAWEI/Middlewares/Third_Party/Huawei/iot_link/network/dtls/mbedtls/mbedtls-2.16.2/library\pkparse.c **** 
 694:D:/fchai/work/i-cube/I-CUBE-HUAWEI/Middlewares/Third_Party/Huawei/iot_link/network/dtls/mbedtls/mbedtls-2.16.2/library\pkparse.c ****     p = (unsigned char *) key;
 236              		.loc 1 694 5 is_stmt 1 view .LVU57
 695:D:/fchai/work/i-cube/I-CUBE-HUAWEI/Middlewares/Third_Party/Huawei/iot_link/network/dtls/mbedtls/mbedtls-2.16.2/library\pkparse.c ****     end = p + keylen;
 696:D:/fchai/work/i-cube/I-CUBE-HUAWEI/Middlewares/Third_Party/Huawei/iot_link/network/dtls/mbedtls/mbedtls-2.16.2/library\pkparse.c **** 
 697:D:/fchai/work/i-cube/I-CUBE-HUAWEI/Middlewares/Third_Party/Huawei/iot_link/network/dtls/mbedtls/mbedtls-2.16.2/library\pkparse.c ****     /*
 698:D:/fchai/work/i-cube/I-CUBE-HUAWEI/Middlewares/Third_Party/Huawei/iot_link/network/dtls/mbedtls/mbedtls-2.16.2/library\pkparse.c ****      * This function parses the RSAPrivateKey (PKCS#1)
 699:D:/fchai/work/i-cube/I-CUBE-HUAWEI/Middlewares/Third_Party/Huawei/iot_link/network/dtls/mbedtls/mbedtls-2.16.2/library\pkparse.c ****      *
 700:D:/fchai/work/i-cube/I-CUBE-HUAWEI/Middlewares/Third_Party/Huawei/iot_link/network/dtls/mbedtls/mbedtls-2.16.2/library\pkparse.c ****      *  RSAPrivateKey ::= SEQUENCE {
 701:D:/fchai/work/i-cube/I-CUBE-HUAWEI/Middlewares/Third_Party/Huawei/iot_link/network/dtls/mbedtls/mbedtls-2.16.2/library\pkparse.c ****      *      version           Version,
 702:D:/fchai/work/i-cube/I-CUBE-HUAWEI/Middlewares/Third_Party/Huawei/iot_link/network/dtls/mbedtls/mbedtls-2.16.2/library\pkparse.c ****      *      modulus           INTEGER,  -- n
 703:D:/fchai/work/i-cube/I-CUBE-HUAWEI/Middlewares/Third_Party/Huawei/iot_link/network/dtls/mbedtls/mbedtls-2.16.2/library\pkparse.c ****      *      publicExponent    INTEGER,  -- e
 704:D:/fchai/work/i-cube/I-CUBE-HUAWEI/Middlewares/Third_Party/Huawei/iot_link/network/dtls/mbedtls/mbedtls-2.16.2/library\pkparse.c ****      *      privateExponent   INTEGER,  -- d
ARM GAS  T:\msys\tmp\cc83OHoG.s 			page 18


 705:D:/fchai/work/i-cube/I-CUBE-HUAWEI/Middlewares/Third_Party/Huawei/iot_link/network/dtls/mbedtls/mbedtls-2.16.2/library\pkparse.c ****      *      prime1            INTEGER,  -- p
 706:D:/fchai/work/i-cube/I-CUBE-HUAWEI/Middlewares/Third_Party/Huawei/iot_link/network/dtls/mbedtls/mbedtls-2.16.2/library\pkparse.c ****      *      prime2            INTEGER,  -- q
 707:D:/fchai/work/i-cube/I-CUBE-HUAWEI/Middlewares/Third_Party/Huawei/iot_link/network/dtls/mbedtls/mbedtls-2.16.2/library\pkparse.c ****      *      exponent1         INTEGER,  -- d mod (p-1)
 708:D:/fchai/work/i-cube/I-CUBE-HUAWEI/Middlewares/Third_Party/Huawei/iot_link/network/dtls/mbedtls/mbedtls-2.16.2/library\pkparse.c ****      *      exponent2         INTEGER,  -- d mod (q-1)
 709:D:/fchai/work/i-cube/I-CUBE-HUAWEI/Middlewares/Third_Party/Huawei/iot_link/network/dtls/mbedtls/mbedtls-2.16.2/library\pkparse.c ****      *      coefficient       INTEGER,  -- (inverse of q) mod p
 710:D:/fchai/work/i-cube/I-CUBE-HUAWEI/Middlewares/Third_Party/Huawei/iot_link/network/dtls/mbedtls/mbedtls-2.16.2/library\pkparse.c ****      *      otherPrimeInfos   OtherPrimeInfos OPTIONAL
 711:D:/fchai/work/i-cube/I-CUBE-HUAWEI/Middlewares/Third_Party/Huawei/iot_link/network/dtls/mbedtls/mbedtls-2.16.2/library\pkparse.c ****      *  }
 712:D:/fchai/work/i-cube/I-CUBE-HUAWEI/Middlewares/Third_Party/Huawei/iot_link/network/dtls/mbedtls/mbedtls-2.16.2/library\pkparse.c ****      */
 713:D:/fchai/work/i-cube/I-CUBE-HUAWEI/Middlewares/Third_Party/Huawei/iot_link/network/dtls/mbedtls/mbedtls-2.16.2/library\pkparse.c ****     if( ( ret = mbedtls_asn1_get_tag( &p, end, &len,
 237              		.loc 1 713 17 is_stmt 0 view .LVU58
 238 0010 A119     		adds	r1, r4, r6
 239 0012 09AA     		add	r2, sp, #36
 240 0014 0AA8     		add	r0, sp, #40
 241 0016 3023     		movs	r3, #48
 694:D:/fchai/work/i-cube/I-CUBE-HUAWEI/Middlewares/Third_Party/Huawei/iot_link/network/dtls/mbedtls/mbedtls-2.16.2/library\pkparse.c ****     end = p + keylen;
 242              		.loc 1 694 7 view .LVU59
 243 0018 0A94     		str	r4, [sp, #40]
 695:D:/fchai/work/i-cube/I-CUBE-HUAWEI/Middlewares/Third_Party/Huawei/iot_link/network/dtls/mbedtls/mbedtls-2.16.2/library\pkparse.c ****     end = p + keylen;
 244              		.loc 1 695 5 is_stmt 1 view .LVU60
 245              	.LVL19:
 246              		.loc 1 713 5 view .LVU61
 247              		.loc 1 713 17 is_stmt 0 view .LVU62
 248 001a FFF7FEFF 		bl	mbedtls_asn1_get_tag
 249              	.LVL20:
 250              		.loc 1 713 7 view .LVU63
 251 001e 20B1     		cbz	r0, .L16
 714:D:/fchai/work/i-cube/I-CUBE-HUAWEI/Middlewares/Third_Party/Huawei/iot_link/network/dtls/mbedtls/mbedtls-2.16.2/library\pkparse.c ****             MBEDTLS_ASN1_CONSTRUCTED | MBEDTLS_ASN1_SEQUENCE ) ) != 0 )
 715:D:/fchai/work/i-cube/I-CUBE-HUAWEI/Middlewares/Third_Party/Huawei/iot_link/network/dtls/mbedtls/mbedtls-2.16.2/library\pkparse.c ****     {
 716:D:/fchai/work/i-cube/I-CUBE-HUAWEI/Middlewares/Third_Party/Huawei/iot_link/network/dtls/mbedtls/mbedtls-2.16.2/library\pkparse.c ****         return( MBEDTLS_ERR_PK_KEY_INVALID_FORMAT + ret );
 252              		.loc 1 716 9 is_stmt 1 view .LVU64
 253              		.loc 1 716 51 is_stmt 0 view .LVU65
 254 0020 A0F57454 		sub	r4, r0, #15616
 255              	.LVL21:
 256              	.L15:
 717:D:/fchai/work/i-cube/I-CUBE-HUAWEI/Middlewares/Third_Party/Huawei/iot_link/network/dtls/mbedtls/mbedtls-2.16.2/library\pkparse.c ****     }
 718:D:/fchai/work/i-cube/I-CUBE-HUAWEI/Middlewares/Third_Party/Huawei/iot_link/network/dtls/mbedtls/mbedtls-2.16.2/library\pkparse.c **** 
 719:D:/fchai/work/i-cube/I-CUBE-HUAWEI/Middlewares/Third_Party/Huawei/iot_link/network/dtls/mbedtls/mbedtls-2.16.2/library\pkparse.c ****     end = p + len;
 720:D:/fchai/work/i-cube/I-CUBE-HUAWEI/Middlewares/Third_Party/Huawei/iot_link/network/dtls/mbedtls/mbedtls-2.16.2/library\pkparse.c **** 
 721:D:/fchai/work/i-cube/I-CUBE-HUAWEI/Middlewares/Third_Party/Huawei/iot_link/network/dtls/mbedtls/mbedtls-2.16.2/library\pkparse.c ****     if( ( ret = mbedtls_asn1_get_int( &p, end, &version ) ) != 0 )
 722:D:/fchai/work/i-cube/I-CUBE-HUAWEI/Middlewares/Third_Party/Huawei/iot_link/network/dtls/mbedtls/mbedtls-2.16.2/library\pkparse.c ****     {
 723:D:/fchai/work/i-cube/I-CUBE-HUAWEI/Middlewares/Third_Party/Huawei/iot_link/network/dtls/mbedtls/mbedtls-2.16.2/library\pkparse.c ****         return( MBEDTLS_ERR_PK_KEY_INVALID_FORMAT + ret );
 724:D:/fchai/work/i-cube/I-CUBE-HUAWEI/Middlewares/Third_Party/Huawei/iot_link/network/dtls/mbedtls/mbedtls-2.16.2/library\pkparse.c ****     }
 725:D:/fchai/work/i-cube/I-CUBE-HUAWEI/Middlewares/Third_Party/Huawei/iot_link/network/dtls/mbedtls/mbedtls-2.16.2/library\pkparse.c **** 
 726:D:/fchai/work/i-cube/I-CUBE-HUAWEI/Middlewares/Third_Party/Huawei/iot_link/network/dtls/mbedtls/mbedtls-2.16.2/library\pkparse.c ****     if( version != 0 )
 727:D:/fchai/work/i-cube/I-CUBE-HUAWEI/Middlewares/Third_Party/Huawei/iot_link/network/dtls/mbedtls/mbedtls-2.16.2/library\pkparse.c ****     {
 728:D:/fchai/work/i-cube/I-CUBE-HUAWEI/Middlewares/Third_Party/Huawei/iot_link/network/dtls/mbedtls/mbedtls-2.16.2/library\pkparse.c ****         return( MBEDTLS_ERR_PK_KEY_INVALID_VERSION );
 729:D:/fchai/work/i-cube/I-CUBE-HUAWEI/Middlewares/Third_Party/Huawei/iot_link/network/dtls/mbedtls/mbedtls-2.16.2/library\pkparse.c ****     }
 730:D:/fchai/work/i-cube/I-CUBE-HUAWEI/Middlewares/Third_Party/Huawei/iot_link/network/dtls/mbedtls/mbedtls-2.16.2/library\pkparse.c **** 
 731:D:/fchai/work/i-cube/I-CUBE-HUAWEI/Middlewares/Third_Party/Huawei/iot_link/network/dtls/mbedtls/mbedtls-2.16.2/library\pkparse.c ****     /* Import N */
 732:D:/fchai/work/i-cube/I-CUBE-HUAWEI/Middlewares/Third_Party/Huawei/iot_link/network/dtls/mbedtls/mbedtls-2.16.2/library\pkparse.c ****     if( ( ret = mbedtls_asn1_get_tag( &p, end, &len,
 733:D:/fchai/work/i-cube/I-CUBE-HUAWEI/Middlewares/Third_Party/Huawei/iot_link/network/dtls/mbedtls/mbedtls-2.16.2/library\pkparse.c ****                                       MBEDTLS_ASN1_INTEGER ) ) != 0 ||
 734:D:/fchai/work/i-cube/I-CUBE-HUAWEI/Middlewares/Third_Party/Huawei/iot_link/network/dtls/mbedtls/mbedtls-2.16.2/library\pkparse.c ****         ( ret = mbedtls_rsa_import_raw( rsa, p, len, NULL, 0, NULL, 0,
 735:D:/fchai/work/i-cube/I-CUBE-HUAWEI/Middlewares/Third_Party/Huawei/iot_link/network/dtls/mbedtls/mbedtls-2.16.2/library\pkparse.c ****                                         NULL, 0, NULL, 0 ) ) != 0 )
 736:D:/fchai/work/i-cube/I-CUBE-HUAWEI/Middlewares/Third_Party/Huawei/iot_link/network/dtls/mbedtls/mbedtls-2.16.2/library\pkparse.c ****         goto cleanup;
 737:D:/fchai/work/i-cube/I-CUBE-HUAWEI/Middlewares/Third_Party/Huawei/iot_link/network/dtls/mbedtls/mbedtls-2.16.2/library\pkparse.c ****     p += len;
 738:D:/fchai/work/i-cube/I-CUBE-HUAWEI/Middlewares/Third_Party/Huawei/iot_link/network/dtls/mbedtls/mbedtls-2.16.2/library\pkparse.c **** 
 739:D:/fchai/work/i-cube/I-CUBE-HUAWEI/Middlewares/Third_Party/Huawei/iot_link/network/dtls/mbedtls/mbedtls-2.16.2/library\pkparse.c ****     /* Import E */
ARM GAS  T:\msys\tmp\cc83OHoG.s 			page 19


 740:D:/fchai/work/i-cube/I-CUBE-HUAWEI/Middlewares/Third_Party/Huawei/iot_link/network/dtls/mbedtls/mbedtls-2.16.2/library\pkparse.c ****     if( ( ret = mbedtls_asn1_get_tag( &p, end, &len,
 741:D:/fchai/work/i-cube/I-CUBE-HUAWEI/Middlewares/Third_Party/Huawei/iot_link/network/dtls/mbedtls/mbedtls-2.16.2/library\pkparse.c ****                                       MBEDTLS_ASN1_INTEGER ) ) != 0 ||
 742:D:/fchai/work/i-cube/I-CUBE-HUAWEI/Middlewares/Third_Party/Huawei/iot_link/network/dtls/mbedtls/mbedtls-2.16.2/library\pkparse.c ****         ( ret = mbedtls_rsa_import_raw( rsa, NULL, 0, NULL, 0, NULL, 0,
 743:D:/fchai/work/i-cube/I-CUBE-HUAWEI/Middlewares/Third_Party/Huawei/iot_link/network/dtls/mbedtls/mbedtls-2.16.2/library\pkparse.c ****                                         NULL, 0, p, len ) ) != 0 )
 744:D:/fchai/work/i-cube/I-CUBE-HUAWEI/Middlewares/Third_Party/Huawei/iot_link/network/dtls/mbedtls/mbedtls-2.16.2/library\pkparse.c ****         goto cleanup;
 745:D:/fchai/work/i-cube/I-CUBE-HUAWEI/Middlewares/Third_Party/Huawei/iot_link/network/dtls/mbedtls/mbedtls-2.16.2/library\pkparse.c ****     p += len;
 746:D:/fchai/work/i-cube/I-CUBE-HUAWEI/Middlewares/Third_Party/Huawei/iot_link/network/dtls/mbedtls/mbedtls-2.16.2/library\pkparse.c **** 
 747:D:/fchai/work/i-cube/I-CUBE-HUAWEI/Middlewares/Third_Party/Huawei/iot_link/network/dtls/mbedtls/mbedtls-2.16.2/library\pkparse.c ****     /* Import D */
 748:D:/fchai/work/i-cube/I-CUBE-HUAWEI/Middlewares/Third_Party/Huawei/iot_link/network/dtls/mbedtls/mbedtls-2.16.2/library\pkparse.c ****     if( ( ret = mbedtls_asn1_get_tag( &p, end, &len,
 749:D:/fchai/work/i-cube/I-CUBE-HUAWEI/Middlewares/Third_Party/Huawei/iot_link/network/dtls/mbedtls/mbedtls-2.16.2/library\pkparse.c ****                                       MBEDTLS_ASN1_INTEGER ) ) != 0 ||
 750:D:/fchai/work/i-cube/I-CUBE-HUAWEI/Middlewares/Third_Party/Huawei/iot_link/network/dtls/mbedtls/mbedtls-2.16.2/library\pkparse.c ****         ( ret = mbedtls_rsa_import_raw( rsa, NULL, 0, NULL, 0, NULL, 0,
 751:D:/fchai/work/i-cube/I-CUBE-HUAWEI/Middlewares/Third_Party/Huawei/iot_link/network/dtls/mbedtls/mbedtls-2.16.2/library\pkparse.c ****                                         p, len, NULL, 0 ) ) != 0 )
 752:D:/fchai/work/i-cube/I-CUBE-HUAWEI/Middlewares/Third_Party/Huawei/iot_link/network/dtls/mbedtls/mbedtls-2.16.2/library\pkparse.c ****         goto cleanup;
 753:D:/fchai/work/i-cube/I-CUBE-HUAWEI/Middlewares/Third_Party/Huawei/iot_link/network/dtls/mbedtls/mbedtls-2.16.2/library\pkparse.c ****     p += len;
 754:D:/fchai/work/i-cube/I-CUBE-HUAWEI/Middlewares/Third_Party/Huawei/iot_link/network/dtls/mbedtls/mbedtls-2.16.2/library\pkparse.c **** 
 755:D:/fchai/work/i-cube/I-CUBE-HUAWEI/Middlewares/Third_Party/Huawei/iot_link/network/dtls/mbedtls/mbedtls-2.16.2/library\pkparse.c ****     /* Import P */
 756:D:/fchai/work/i-cube/I-CUBE-HUAWEI/Middlewares/Third_Party/Huawei/iot_link/network/dtls/mbedtls/mbedtls-2.16.2/library\pkparse.c ****     if( ( ret = mbedtls_asn1_get_tag( &p, end, &len,
 757:D:/fchai/work/i-cube/I-CUBE-HUAWEI/Middlewares/Third_Party/Huawei/iot_link/network/dtls/mbedtls/mbedtls-2.16.2/library\pkparse.c ****                                       MBEDTLS_ASN1_INTEGER ) ) != 0 ||
 758:D:/fchai/work/i-cube/I-CUBE-HUAWEI/Middlewares/Third_Party/Huawei/iot_link/network/dtls/mbedtls/mbedtls-2.16.2/library\pkparse.c ****         ( ret = mbedtls_rsa_import_raw( rsa, NULL, 0, p, len, NULL, 0,
 759:D:/fchai/work/i-cube/I-CUBE-HUAWEI/Middlewares/Third_Party/Huawei/iot_link/network/dtls/mbedtls/mbedtls-2.16.2/library\pkparse.c ****                                         NULL, 0, NULL, 0 ) ) != 0 )
 760:D:/fchai/work/i-cube/I-CUBE-HUAWEI/Middlewares/Third_Party/Huawei/iot_link/network/dtls/mbedtls/mbedtls-2.16.2/library\pkparse.c ****         goto cleanup;
 761:D:/fchai/work/i-cube/I-CUBE-HUAWEI/Middlewares/Third_Party/Huawei/iot_link/network/dtls/mbedtls/mbedtls-2.16.2/library\pkparse.c ****     p += len;
 762:D:/fchai/work/i-cube/I-CUBE-HUAWEI/Middlewares/Third_Party/Huawei/iot_link/network/dtls/mbedtls/mbedtls-2.16.2/library\pkparse.c **** 
 763:D:/fchai/work/i-cube/I-CUBE-HUAWEI/Middlewares/Third_Party/Huawei/iot_link/network/dtls/mbedtls/mbedtls-2.16.2/library\pkparse.c ****     /* Import Q */
 764:D:/fchai/work/i-cube/I-CUBE-HUAWEI/Middlewares/Third_Party/Huawei/iot_link/network/dtls/mbedtls/mbedtls-2.16.2/library\pkparse.c ****     if( ( ret = mbedtls_asn1_get_tag( &p, end, &len,
 765:D:/fchai/work/i-cube/I-CUBE-HUAWEI/Middlewares/Third_Party/Huawei/iot_link/network/dtls/mbedtls/mbedtls-2.16.2/library\pkparse.c ****                                       MBEDTLS_ASN1_INTEGER ) ) != 0 ||
 766:D:/fchai/work/i-cube/I-CUBE-HUAWEI/Middlewares/Third_Party/Huawei/iot_link/network/dtls/mbedtls/mbedtls-2.16.2/library\pkparse.c ****         ( ret = mbedtls_rsa_import_raw( rsa, NULL, 0, NULL, 0, p, len,
 767:D:/fchai/work/i-cube/I-CUBE-HUAWEI/Middlewares/Third_Party/Huawei/iot_link/network/dtls/mbedtls/mbedtls-2.16.2/library\pkparse.c ****                                         NULL, 0, NULL, 0 ) ) != 0 )
 768:D:/fchai/work/i-cube/I-CUBE-HUAWEI/Middlewares/Third_Party/Huawei/iot_link/network/dtls/mbedtls/mbedtls-2.16.2/library\pkparse.c ****         goto cleanup;
 769:D:/fchai/work/i-cube/I-CUBE-HUAWEI/Middlewares/Third_Party/Huawei/iot_link/network/dtls/mbedtls/mbedtls-2.16.2/library\pkparse.c ****     p += len;
 770:D:/fchai/work/i-cube/I-CUBE-HUAWEI/Middlewares/Third_Party/Huawei/iot_link/network/dtls/mbedtls/mbedtls-2.16.2/library\pkparse.c **** 
 771:D:/fchai/work/i-cube/I-CUBE-HUAWEI/Middlewares/Third_Party/Huawei/iot_link/network/dtls/mbedtls/mbedtls-2.16.2/library\pkparse.c ****     /* Complete the RSA private key */
 772:D:/fchai/work/i-cube/I-CUBE-HUAWEI/Middlewares/Third_Party/Huawei/iot_link/network/dtls/mbedtls/mbedtls-2.16.2/library\pkparse.c ****     if( ( ret = mbedtls_rsa_complete( rsa ) ) != 0 )
 773:D:/fchai/work/i-cube/I-CUBE-HUAWEI/Middlewares/Third_Party/Huawei/iot_link/network/dtls/mbedtls/mbedtls-2.16.2/library\pkparse.c ****         goto cleanup;
 774:D:/fchai/work/i-cube/I-CUBE-HUAWEI/Middlewares/Third_Party/Huawei/iot_link/network/dtls/mbedtls/mbedtls-2.16.2/library\pkparse.c **** 
 775:D:/fchai/work/i-cube/I-CUBE-HUAWEI/Middlewares/Third_Party/Huawei/iot_link/network/dtls/mbedtls/mbedtls-2.16.2/library\pkparse.c ****     /* Check optional parameters */
 776:D:/fchai/work/i-cube/I-CUBE-HUAWEI/Middlewares/Third_Party/Huawei/iot_link/network/dtls/mbedtls/mbedtls-2.16.2/library\pkparse.c ****     if( ( ret = mbedtls_asn1_get_mpi( &p, end, &T ) ) != 0 ||
 777:D:/fchai/work/i-cube/I-CUBE-HUAWEI/Middlewares/Third_Party/Huawei/iot_link/network/dtls/mbedtls/mbedtls-2.16.2/library\pkparse.c ****         ( ret = mbedtls_asn1_get_mpi( &p, end, &T ) ) != 0 ||
 778:D:/fchai/work/i-cube/I-CUBE-HUAWEI/Middlewares/Third_Party/Huawei/iot_link/network/dtls/mbedtls/mbedtls-2.16.2/library\pkparse.c ****         ( ret = mbedtls_asn1_get_mpi( &p, end, &T ) ) != 0 )
 779:D:/fchai/work/i-cube/I-CUBE-HUAWEI/Middlewares/Third_Party/Huawei/iot_link/network/dtls/mbedtls/mbedtls-2.16.2/library\pkparse.c ****         goto cleanup;
 780:D:/fchai/work/i-cube/I-CUBE-HUAWEI/Middlewares/Third_Party/Huawei/iot_link/network/dtls/mbedtls/mbedtls-2.16.2/library\pkparse.c **** 
 781:D:/fchai/work/i-cube/I-CUBE-HUAWEI/Middlewares/Third_Party/Huawei/iot_link/network/dtls/mbedtls/mbedtls-2.16.2/library\pkparse.c ****     if( p != end )
 782:D:/fchai/work/i-cube/I-CUBE-HUAWEI/Middlewares/Third_Party/Huawei/iot_link/network/dtls/mbedtls/mbedtls-2.16.2/library\pkparse.c ****     {
 783:D:/fchai/work/i-cube/I-CUBE-HUAWEI/Middlewares/Third_Party/Huawei/iot_link/network/dtls/mbedtls/mbedtls-2.16.2/library\pkparse.c ****         ret = MBEDTLS_ERR_PK_KEY_INVALID_FORMAT +
 784:D:/fchai/work/i-cube/I-CUBE-HUAWEI/Middlewares/Third_Party/Huawei/iot_link/network/dtls/mbedtls/mbedtls-2.16.2/library\pkparse.c ****               MBEDTLS_ERR_ASN1_LENGTH_MISMATCH ;
 785:D:/fchai/work/i-cube/I-CUBE-HUAWEI/Middlewares/Third_Party/Huawei/iot_link/network/dtls/mbedtls/mbedtls-2.16.2/library\pkparse.c ****     }
 786:D:/fchai/work/i-cube/I-CUBE-HUAWEI/Middlewares/Third_Party/Huawei/iot_link/network/dtls/mbedtls/mbedtls-2.16.2/library\pkparse.c **** 
 787:D:/fchai/work/i-cube/I-CUBE-HUAWEI/Middlewares/Third_Party/Huawei/iot_link/network/dtls/mbedtls/mbedtls-2.16.2/library\pkparse.c **** cleanup:
 788:D:/fchai/work/i-cube/I-CUBE-HUAWEI/Middlewares/Third_Party/Huawei/iot_link/network/dtls/mbedtls/mbedtls-2.16.2/library\pkparse.c **** 
 789:D:/fchai/work/i-cube/I-CUBE-HUAWEI/Middlewares/Third_Party/Huawei/iot_link/network/dtls/mbedtls/mbedtls-2.16.2/library\pkparse.c ****     mbedtls_mpi_free( &T );
 790:D:/fchai/work/i-cube/I-CUBE-HUAWEI/Middlewares/Third_Party/Huawei/iot_link/network/dtls/mbedtls/mbedtls-2.16.2/library\pkparse.c **** 
 791:D:/fchai/work/i-cube/I-CUBE-HUAWEI/Middlewares/Third_Party/Huawei/iot_link/network/dtls/mbedtls/mbedtls-2.16.2/library\pkparse.c ****     if( ret != 0 )
 792:D:/fchai/work/i-cube/I-CUBE-HUAWEI/Middlewares/Third_Party/Huawei/iot_link/network/dtls/mbedtls/mbedtls-2.16.2/library\pkparse.c ****     {
 793:D:/fchai/work/i-cube/I-CUBE-HUAWEI/Middlewares/Third_Party/Huawei/iot_link/network/dtls/mbedtls/mbedtls-2.16.2/library\pkparse.c ****         /* Wrap error code if it's coming from a lower level */
 794:D:/fchai/work/i-cube/I-CUBE-HUAWEI/Middlewares/Third_Party/Huawei/iot_link/network/dtls/mbedtls/mbedtls-2.16.2/library\pkparse.c ****         if( ( ret & 0xff80 ) == 0 )
 795:D:/fchai/work/i-cube/I-CUBE-HUAWEI/Middlewares/Third_Party/Huawei/iot_link/network/dtls/mbedtls/mbedtls-2.16.2/library\pkparse.c ****             ret = MBEDTLS_ERR_PK_KEY_INVALID_FORMAT + ret;
 796:D:/fchai/work/i-cube/I-CUBE-HUAWEI/Middlewares/Third_Party/Huawei/iot_link/network/dtls/mbedtls/mbedtls-2.16.2/library\pkparse.c ****         else
ARM GAS  T:\msys\tmp\cc83OHoG.s 			page 20


 797:D:/fchai/work/i-cube/I-CUBE-HUAWEI/Middlewares/Third_Party/Huawei/iot_link/network/dtls/mbedtls/mbedtls-2.16.2/library\pkparse.c ****             ret = MBEDTLS_ERR_PK_KEY_INVALID_FORMAT;
 798:D:/fchai/work/i-cube/I-CUBE-HUAWEI/Middlewares/Third_Party/Huawei/iot_link/network/dtls/mbedtls/mbedtls-2.16.2/library\pkparse.c **** 
 799:D:/fchai/work/i-cube/I-CUBE-HUAWEI/Middlewares/Third_Party/Huawei/iot_link/network/dtls/mbedtls/mbedtls-2.16.2/library\pkparse.c ****         mbedtls_rsa_free( rsa );
 800:D:/fchai/work/i-cube/I-CUBE-HUAWEI/Middlewares/Third_Party/Huawei/iot_link/network/dtls/mbedtls/mbedtls-2.16.2/library\pkparse.c ****     }
 801:D:/fchai/work/i-cube/I-CUBE-HUAWEI/Middlewares/Third_Party/Huawei/iot_link/network/dtls/mbedtls/mbedtls-2.16.2/library\pkparse.c **** 
 802:D:/fchai/work/i-cube/I-CUBE-HUAWEI/Middlewares/Third_Party/Huawei/iot_link/network/dtls/mbedtls/mbedtls-2.16.2/library\pkparse.c ****     return( ret );
 803:D:/fchai/work/i-cube/I-CUBE-HUAWEI/Middlewares/Third_Party/Huawei/iot_link/network/dtls/mbedtls/mbedtls-2.16.2/library\pkparse.c **** }
 257              		.loc 1 803 1 view .LVU66
 258 0024 2046     		mov	r0, r4
 259 0026 0EB0     		add	sp, sp, #56
 260              	.LCFI6:
 261              		.cfi_remember_state
 262              		.cfi_def_cfa_offset 16
 263              		@ sp needed
 264 0028 70BD     		pop	{r4, r5, r6, pc}
 265              	.LVL22:
 266              	.L16:
 267              	.LCFI7:
 268              		.cfi_restore_state
 719:D:/fchai/work/i-cube/I-CUBE-HUAWEI/Middlewares/Third_Party/Huawei/iot_link/network/dtls/mbedtls/mbedtls-2.16.2/library\pkparse.c **** 
 269              		.loc 1 719 5 is_stmt 1 view .LVU67
 719:D:/fchai/work/i-cube/I-CUBE-HUAWEI/Middlewares/Third_Party/Huawei/iot_link/network/dtls/mbedtls/mbedtls-2.16.2/library\pkparse.c **** 
 270              		.loc 1 719 9 is_stmt 0 view .LVU68
 271 002a DDE90936 		ldrd	r3, r6, [sp, #36]
 272              	.LVL23:
 719:D:/fchai/work/i-cube/I-CUBE-HUAWEI/Middlewares/Third_Party/Huawei/iot_link/network/dtls/mbedtls/mbedtls-2.16.2/library\pkparse.c **** 
 273              		.loc 1 719 9 view .LVU69
 274 002e 1E44     		add	r6, r6, r3
 275              	.LVL24:
 721:D:/fchai/work/i-cube/I-CUBE-HUAWEI/Middlewares/Third_Party/Huawei/iot_link/network/dtls/mbedtls/mbedtls-2.16.2/library\pkparse.c ****     {
 276              		.loc 1 721 5 is_stmt 1 view .LVU70
 721:D:/fchai/work/i-cube/I-CUBE-HUAWEI/Middlewares/Third_Party/Huawei/iot_link/network/dtls/mbedtls/mbedtls-2.16.2/library\pkparse.c ****     {
 277              		.loc 1 721 17 is_stmt 0 view .LVU71
 278 0030 3146     		mov	r1, r6
 279 0032 08AA     		add	r2, sp, #32
 280 0034 0AA8     		add	r0, sp, #40
 281              	.LVL25:
 721:D:/fchai/work/i-cube/I-CUBE-HUAWEI/Middlewares/Third_Party/Huawei/iot_link/network/dtls/mbedtls/mbedtls-2.16.2/library\pkparse.c ****     {
 282              		.loc 1 721 17 view .LVU72
 283 0036 FFF7FEFF 		bl	mbedtls_asn1_get_int
 284              	.LVL26:
 721:D:/fchai/work/i-cube/I-CUBE-HUAWEI/Middlewares/Third_Party/Huawei/iot_link/network/dtls/mbedtls/mbedtls-2.16.2/library\pkparse.c ****     {
 285              		.loc 1 721 7 view .LVU73
 286 003a 0028     		cmp	r0, #0
 287 003c 40F0D680 		bne	.L25
 726:D:/fchai/work/i-cube/I-CUBE-HUAWEI/Middlewares/Third_Party/Huawei/iot_link/network/dtls/mbedtls/mbedtls-2.16.2/library\pkparse.c ****     {
 288              		.loc 1 726 5 is_stmt 1 view .LVU74
 726:D:/fchai/work/i-cube/I-CUBE-HUAWEI/Middlewares/Third_Party/Huawei/iot_link/network/dtls/mbedtls/mbedtls-2.16.2/library\pkparse.c ****     {
 289              		.loc 1 726 7 is_stmt 0 view .LVU75
 290 0040 089B     		ldr	r3, [sp, #32]
 291 0042 002B     		cmp	r3, #0
 292 0044 40F0DA80 		bne	.L23
 732:D:/fchai/work/i-cube/I-CUBE-HUAWEI/Middlewares/Third_Party/Huawei/iot_link/network/dtls/mbedtls/mbedtls-2.16.2/library\pkparse.c ****                                       MBEDTLS_ASN1_INTEGER ) ) != 0 ||
 293              		.loc 1 732 5 is_stmt 1 view .LVU76
 732:D:/fchai/work/i-cube/I-CUBE-HUAWEI/Middlewares/Third_Party/Huawei/iot_link/network/dtls/mbedtls/mbedtls-2.16.2/library\pkparse.c ****                                       MBEDTLS_ASN1_INTEGER ) ) != 0 ||
 294              		.loc 1 732 17 is_stmt 0 view .LVU77
 295 0048 0223     		movs	r3, #2
ARM GAS  T:\msys\tmp\cc83OHoG.s 			page 21


 296 004a 09AA     		add	r2, sp, #36
 297 004c 3146     		mov	r1, r6
 298 004e 0AA8     		add	r0, sp, #40
 299              	.LVL27:
 732:D:/fchai/work/i-cube/I-CUBE-HUAWEI/Middlewares/Third_Party/Huawei/iot_link/network/dtls/mbedtls/mbedtls-2.16.2/library\pkparse.c ****                                       MBEDTLS_ASN1_INTEGER ) ) != 0 ||
 300              		.loc 1 732 17 view .LVU78
 301 0050 FFF7FEFF 		bl	mbedtls_asn1_get_tag
 302              	.LVL28:
 732:D:/fchai/work/i-cube/I-CUBE-HUAWEI/Middlewares/Third_Party/Huawei/iot_link/network/dtls/mbedtls/mbedtls-2.16.2/library\pkparse.c ****                                       MBEDTLS_ASN1_INTEGER ) ) != 0 ||
 303              		.loc 1 732 7 view .LVU79
 304 0054 0446     		mov	r4, r0
 305              	.LVL29:
 732:D:/fchai/work/i-cube/I-CUBE-HUAWEI/Middlewares/Third_Party/Huawei/iot_link/network/dtls/mbedtls/mbedtls-2.16.2/library\pkparse.c ****                                       MBEDTLS_ASN1_INTEGER ) ) != 0 ||
 306              		.loc 1 732 7 view .LVU80
 307 0056 70B1     		cbz	r0, .L26
 308              	.L19:
 789:D:/fchai/work/i-cube/I-CUBE-HUAWEI/Middlewares/Third_Party/Huawei/iot_link/network/dtls/mbedtls/mbedtls-2.16.2/library\pkparse.c **** 
 309              		.loc 1 789 5 is_stmt 1 view .LVU81
 310 0058 0BA8     		add	r0, sp, #44
 311              	.LVL30:
 789:D:/fchai/work/i-cube/I-CUBE-HUAWEI/Middlewares/Third_Party/Huawei/iot_link/network/dtls/mbedtls/mbedtls-2.16.2/library\pkparse.c **** 
 312              		.loc 1 789 5 is_stmt 0 view .LVU82
 313 005a FFF7FEFF 		bl	mbedtls_mpi_free
 314              	.LVL31:
 791:D:/fchai/work/i-cube/I-CUBE-HUAWEI/Middlewares/Third_Party/Huawei/iot_link/network/dtls/mbedtls/mbedtls-2.16.2/library\pkparse.c ****     {
 315              		.loc 1 791 5 is_stmt 1 view .LVU83
 794:D:/fchai/work/i-cube/I-CUBE-HUAWEI/Middlewares/Third_Party/Huawei/iot_link/network/dtls/mbedtls/mbedtls-2.16.2/library\pkparse.c ****             ret = MBEDTLS_ERR_PK_KEY_INVALID_FORMAT + ret;
 316              		.loc 1 794 9 view .LVU84
 794:D:/fchai/work/i-cube/I-CUBE-HUAWEI/Middlewares/Third_Party/Huawei/iot_link/network/dtls/mbedtls/mbedtls-2.16.2/library\pkparse.c ****             ret = MBEDTLS_ERR_PK_KEY_INVALID_FORMAT + ret;
 317              		.loc 1 794 19 is_stmt 0 view .LVU85
 318 005e 4FF68073 		movw	r3, #65408
 794:D:/fchai/work/i-cube/I-CUBE-HUAWEI/Middlewares/Third_Party/Huawei/iot_link/network/dtls/mbedtls/mbedtls-2.16.2/library\pkparse.c ****             ret = MBEDTLS_ERR_PK_KEY_INVALID_FORMAT + ret;
 319              		.loc 1 794 11 view .LVU86
 320 0062 1C42     		tst	r4, r3
 321 0064 00F0C780 		beq	.L22
 797:D:/fchai/work/i-cube/I-CUBE-HUAWEI/Middlewares/Third_Party/Huawei/iot_link/network/dtls/mbedtls/mbedtls-2.16.2/library\pkparse.c **** 
 322              		.loc 1 797 17 view .LVU87
 323 0068 674C     		ldr	r4, .L28
 324              	.LVL32:
 325              	.L21:
 799:D:/fchai/work/i-cube/I-CUBE-HUAWEI/Middlewares/Third_Party/Huawei/iot_link/network/dtls/mbedtls/mbedtls-2.16.2/library\pkparse.c ****     }
 326              		.loc 1 799 9 is_stmt 1 view .LVU88
 327 006a 2846     		mov	r0, r5
 328 006c FFF7FEFF 		bl	mbedtls_rsa_free
 329              	.LVL33:
 330              		.loc 1 803 1 is_stmt 0 view .LVU89
 331 0070 2046     		mov	r0, r4
 332 0072 0EB0     		add	sp, sp, #56
 333              	.LCFI8:
 334              		.cfi_remember_state
 335              		.cfi_def_cfa_offset 16
 336              		@ sp needed
 337 0074 70BD     		pop	{r4, r5, r6, pc}
 338              	.LVL34:
 339              	.L26:
 340              	.LCFI9:
 341              		.cfi_restore_state
ARM GAS  T:\msys\tmp\cc83OHoG.s 			page 22


 734:D:/fchai/work/i-cube/I-CUBE-HUAWEI/Middlewares/Third_Party/Huawei/iot_link/network/dtls/mbedtls/mbedtls-2.16.2/library\pkparse.c ****                                         NULL, 0, NULL, 0 ) ) != 0 )
 342              		.loc 1 734 17 view .LVU90
 343 0076 CDE90500 		strd	r0, r0, [sp, #20]
 344 007a CDE90300 		strd	r0, r0, [sp, #12]
 345 007e CDE90100 		strd	r0, r0, [sp, #4]
 346 0082 0090     		str	r0, [sp]
 347 0084 0346     		mov	r3, r0
 348 0086 DDE90921 		ldrd	r2, r1, [sp, #36]
 349 008a 2846     		mov	r0, r5
 350              	.LVL35:
 734:D:/fchai/work/i-cube/I-CUBE-HUAWEI/Middlewares/Third_Party/Huawei/iot_link/network/dtls/mbedtls/mbedtls-2.16.2/library\pkparse.c ****                                         NULL, 0, NULL, 0 ) ) != 0 )
 351              		.loc 1 734 17 view .LVU91
 352 008c FFF7FEFF 		bl	mbedtls_rsa_import_raw
 353              	.LVL36:
 733:D:/fchai/work/i-cube/I-CUBE-HUAWEI/Middlewares/Third_Party/Huawei/iot_link/network/dtls/mbedtls/mbedtls-2.16.2/library\pkparse.c ****         ( ret = mbedtls_rsa_import_raw( rsa, p, len, NULL, 0, NULL, 0,
 354              		.loc 1 733 69 view .LVU92
 355 0090 0446     		mov	r4, r0
 356 0092 0028     		cmp	r0, #0
 357 0094 E0D1     		bne	.L19
 737:D:/fchai/work/i-cube/I-CUBE-HUAWEI/Middlewares/Third_Party/Huawei/iot_link/network/dtls/mbedtls/mbedtls-2.16.2/library\pkparse.c **** 
 358              		.loc 1 737 5 is_stmt 1 view .LVU93
 737:D:/fchai/work/i-cube/I-CUBE-HUAWEI/Middlewares/Third_Party/Huawei/iot_link/network/dtls/mbedtls/mbedtls-2.16.2/library\pkparse.c **** 
 359              		.loc 1 737 7 is_stmt 0 view .LVU94
 360 0096 DDE90942 		ldrd	r4, r2, [sp, #36]
 740:D:/fchai/work/i-cube/I-CUBE-HUAWEI/Middlewares/Third_Party/Huawei/iot_link/network/dtls/mbedtls/mbedtls-2.16.2/library\pkparse.c ****                                       MBEDTLS_ASN1_INTEGER ) ) != 0 ||
 361              		.loc 1 740 17 view .LVU95
 362 009a 0223     		movs	r3, #2
 737:D:/fchai/work/i-cube/I-CUBE-HUAWEI/Middlewares/Third_Party/Huawei/iot_link/network/dtls/mbedtls/mbedtls-2.16.2/library\pkparse.c **** 
 363              		.loc 1 737 7 view .LVU96
 364 009c 1444     		add	r4, r4, r2
 740:D:/fchai/work/i-cube/I-CUBE-HUAWEI/Middlewares/Third_Party/Huawei/iot_link/network/dtls/mbedtls/mbedtls-2.16.2/library\pkparse.c ****                                       MBEDTLS_ASN1_INTEGER ) ) != 0 ||
 365              		.loc 1 740 17 view .LVU97
 366 009e 3146     		mov	r1, r6
 367 00a0 09AA     		add	r2, sp, #36
 368 00a2 0AA8     		add	r0, sp, #40
 369              	.LVL37:
 737:D:/fchai/work/i-cube/I-CUBE-HUAWEI/Middlewares/Third_Party/Huawei/iot_link/network/dtls/mbedtls/mbedtls-2.16.2/library\pkparse.c **** 
 370              		.loc 1 737 7 view .LVU98
 371 00a4 0A94     		str	r4, [sp, #40]
 740:D:/fchai/work/i-cube/I-CUBE-HUAWEI/Middlewares/Third_Party/Huawei/iot_link/network/dtls/mbedtls/mbedtls-2.16.2/library\pkparse.c ****                                       MBEDTLS_ASN1_INTEGER ) ) != 0 ||
 372              		.loc 1 740 5 is_stmt 1 view .LVU99
 740:D:/fchai/work/i-cube/I-CUBE-HUAWEI/Middlewares/Third_Party/Huawei/iot_link/network/dtls/mbedtls/mbedtls-2.16.2/library\pkparse.c ****                                       MBEDTLS_ASN1_INTEGER ) ) != 0 ||
 373              		.loc 1 740 17 is_stmt 0 view .LVU100
 374 00a6 FFF7FEFF 		bl	mbedtls_asn1_get_tag
 375              	.LVL38:
 740:D:/fchai/work/i-cube/I-CUBE-HUAWEI/Middlewares/Third_Party/Huawei/iot_link/network/dtls/mbedtls/mbedtls-2.16.2/library\pkparse.c ****                                       MBEDTLS_ASN1_INTEGER ) ) != 0 ||
 376              		.loc 1 740 7 view .LVU101
 377 00aa 0446     		mov	r4, r0
 378 00ac 0028     		cmp	r0, #0
 379 00ae D3D1     		bne	.L19
 742:D:/fchai/work/i-cube/I-CUBE-HUAWEI/Middlewares/Third_Party/Huawei/iot_link/network/dtls/mbedtls/mbedtls-2.16.2/library\pkparse.c ****                                         NULL, 0, p, len ) ) != 0 )
 380              		.loc 1 742 17 view .LVU102
 381 00b0 DDE90923 		ldrd	r2, r3, [sp, #36]
 382 00b4 CDE90300 		strd	r0, r0, [sp, #12]
 383 00b8 CDE90532 		strd	r3, r2, [sp, #20]
 384 00bc CDE90100 		strd	r0, r0, [sp, #4]
 385 00c0 0090     		str	r0, [sp]
ARM GAS  T:\msys\tmp\cc83OHoG.s 			page 23


 386 00c2 0346     		mov	r3, r0
 387 00c4 0246     		mov	r2, r0
 388 00c6 0146     		mov	r1, r0
 389 00c8 2846     		mov	r0, r5
 390              	.LVL39:
 742:D:/fchai/work/i-cube/I-CUBE-HUAWEI/Middlewares/Third_Party/Huawei/iot_link/network/dtls/mbedtls/mbedtls-2.16.2/library\pkparse.c ****                                         NULL, 0, p, len ) ) != 0 )
 391              		.loc 1 742 17 view .LVU103
 392 00ca FFF7FEFF 		bl	mbedtls_rsa_import_raw
 393              	.LVL40:
 741:D:/fchai/work/i-cube/I-CUBE-HUAWEI/Middlewares/Third_Party/Huawei/iot_link/network/dtls/mbedtls/mbedtls-2.16.2/library\pkparse.c ****         ( ret = mbedtls_rsa_import_raw( rsa, NULL, 0, NULL, 0, NULL, 0,
 394              		.loc 1 741 69 view .LVU104
 395 00ce 0446     		mov	r4, r0
 396 00d0 0028     		cmp	r0, #0
 397 00d2 C1D1     		bne	.L19
 745:D:/fchai/work/i-cube/I-CUBE-HUAWEI/Middlewares/Third_Party/Huawei/iot_link/network/dtls/mbedtls/mbedtls-2.16.2/library\pkparse.c **** 
 398              		.loc 1 745 5 is_stmt 1 view .LVU105
 745:D:/fchai/work/i-cube/I-CUBE-HUAWEI/Middlewares/Third_Party/Huawei/iot_link/network/dtls/mbedtls/mbedtls-2.16.2/library\pkparse.c **** 
 399              		.loc 1 745 7 is_stmt 0 view .LVU106
 400 00d4 DDE90942 		ldrd	r4, r2, [sp, #36]
 748:D:/fchai/work/i-cube/I-CUBE-HUAWEI/Middlewares/Third_Party/Huawei/iot_link/network/dtls/mbedtls/mbedtls-2.16.2/library\pkparse.c ****                                       MBEDTLS_ASN1_INTEGER ) ) != 0 ||
 401              		.loc 1 748 17 view .LVU107
 402 00d8 0223     		movs	r3, #2
 745:D:/fchai/work/i-cube/I-CUBE-HUAWEI/Middlewares/Third_Party/Huawei/iot_link/network/dtls/mbedtls/mbedtls-2.16.2/library\pkparse.c **** 
 403              		.loc 1 745 7 view .LVU108
 404 00da 1444     		add	r4, r4, r2
 748:D:/fchai/work/i-cube/I-CUBE-HUAWEI/Middlewares/Third_Party/Huawei/iot_link/network/dtls/mbedtls/mbedtls-2.16.2/library\pkparse.c ****                                       MBEDTLS_ASN1_INTEGER ) ) != 0 ||
 405              		.loc 1 748 17 view .LVU109
 406 00dc 3146     		mov	r1, r6
 407 00de 09AA     		add	r2, sp, #36
 408 00e0 0AA8     		add	r0, sp, #40
 409              	.LVL41:
 745:D:/fchai/work/i-cube/I-CUBE-HUAWEI/Middlewares/Third_Party/Huawei/iot_link/network/dtls/mbedtls/mbedtls-2.16.2/library\pkparse.c **** 
 410              		.loc 1 745 7 view .LVU110
 411 00e2 0A94     		str	r4, [sp, #40]
 748:D:/fchai/work/i-cube/I-CUBE-HUAWEI/Middlewares/Third_Party/Huawei/iot_link/network/dtls/mbedtls/mbedtls-2.16.2/library\pkparse.c ****                                       MBEDTLS_ASN1_INTEGER ) ) != 0 ||
 412              		.loc 1 748 5 is_stmt 1 view .LVU111
 748:D:/fchai/work/i-cube/I-CUBE-HUAWEI/Middlewares/Third_Party/Huawei/iot_link/network/dtls/mbedtls/mbedtls-2.16.2/library\pkparse.c ****                                       MBEDTLS_ASN1_INTEGER ) ) != 0 ||
 413              		.loc 1 748 17 is_stmt 0 view .LVU112
 414 00e4 FFF7FEFF 		bl	mbedtls_asn1_get_tag
 415              	.LVL42:
 748:D:/fchai/work/i-cube/I-CUBE-HUAWEI/Middlewares/Third_Party/Huawei/iot_link/network/dtls/mbedtls/mbedtls-2.16.2/library\pkparse.c ****                                       MBEDTLS_ASN1_INTEGER ) ) != 0 ||
 416              		.loc 1 748 7 view .LVU113
 417 00e8 0446     		mov	r4, r0
 418 00ea 0028     		cmp	r0, #0
 419 00ec B4D1     		bne	.L19
 750:D:/fchai/work/i-cube/I-CUBE-HUAWEI/Middlewares/Third_Party/Huawei/iot_link/network/dtls/mbedtls/mbedtls-2.16.2/library\pkparse.c ****                                         p, len, NULL, 0 ) ) != 0 )
 420              		.loc 1 750 17 view .LVU114
 421 00ee DDE90923 		ldrd	r2, r3, [sp, #36]
 422 00f2 CDE90500 		strd	r0, r0, [sp, #20]
 423 00f6 CDE90332 		strd	r3, r2, [sp, #12]
 424 00fa CDE90100 		strd	r0, r0, [sp, #4]
 425 00fe 0090     		str	r0, [sp]
 426 0100 0346     		mov	r3, r0
 427 0102 0246     		mov	r2, r0
 428 0104 0146     		mov	r1, r0
 429 0106 2846     		mov	r0, r5
 430              	.LVL43:
ARM GAS  T:\msys\tmp\cc83OHoG.s 			page 24


 750:D:/fchai/work/i-cube/I-CUBE-HUAWEI/Middlewares/Third_Party/Huawei/iot_link/network/dtls/mbedtls/mbedtls-2.16.2/library\pkparse.c ****                                         p, len, NULL, 0 ) ) != 0 )
 431              		.loc 1 750 17 view .LVU115
 432 0108 FFF7FEFF 		bl	mbedtls_rsa_import_raw
 433              	.LVL44:
 749:D:/fchai/work/i-cube/I-CUBE-HUAWEI/Middlewares/Third_Party/Huawei/iot_link/network/dtls/mbedtls/mbedtls-2.16.2/library\pkparse.c ****         ( ret = mbedtls_rsa_import_raw( rsa, NULL, 0, NULL, 0, NULL, 0,
 434              		.loc 1 749 69 view .LVU116
 435 010c 0446     		mov	r4, r0
 436 010e 0028     		cmp	r0, #0
 437 0110 A2D1     		bne	.L19
 753:D:/fchai/work/i-cube/I-CUBE-HUAWEI/Middlewares/Third_Party/Huawei/iot_link/network/dtls/mbedtls/mbedtls-2.16.2/library\pkparse.c **** 
 438              		.loc 1 753 5 is_stmt 1 view .LVU117
 753:D:/fchai/work/i-cube/I-CUBE-HUAWEI/Middlewares/Third_Party/Huawei/iot_link/network/dtls/mbedtls/mbedtls-2.16.2/library\pkparse.c **** 
 439              		.loc 1 753 7 is_stmt 0 view .LVU118
 440 0112 DDE90942 		ldrd	r4, r2, [sp, #36]
 756:D:/fchai/work/i-cube/I-CUBE-HUAWEI/Middlewares/Third_Party/Huawei/iot_link/network/dtls/mbedtls/mbedtls-2.16.2/library\pkparse.c ****                                       MBEDTLS_ASN1_INTEGER ) ) != 0 ||
 441              		.loc 1 756 17 view .LVU119
 442 0116 0223     		movs	r3, #2
 753:D:/fchai/work/i-cube/I-CUBE-HUAWEI/Middlewares/Third_Party/Huawei/iot_link/network/dtls/mbedtls/mbedtls-2.16.2/library\pkparse.c **** 
 443              		.loc 1 753 7 view .LVU120
 444 0118 1444     		add	r4, r4, r2
 756:D:/fchai/work/i-cube/I-CUBE-HUAWEI/Middlewares/Third_Party/Huawei/iot_link/network/dtls/mbedtls/mbedtls-2.16.2/library\pkparse.c ****                                       MBEDTLS_ASN1_INTEGER ) ) != 0 ||
 445              		.loc 1 756 17 view .LVU121
 446 011a 3146     		mov	r1, r6
 447 011c 09AA     		add	r2, sp, #36
 448 011e 0AA8     		add	r0, sp, #40
 449              	.LVL45:
 753:D:/fchai/work/i-cube/I-CUBE-HUAWEI/Middlewares/Third_Party/Huawei/iot_link/network/dtls/mbedtls/mbedtls-2.16.2/library\pkparse.c **** 
 450              		.loc 1 753 7 view .LVU122
 451 0120 0A94     		str	r4, [sp, #40]
 756:D:/fchai/work/i-cube/I-CUBE-HUAWEI/Middlewares/Third_Party/Huawei/iot_link/network/dtls/mbedtls/mbedtls-2.16.2/library\pkparse.c ****                                       MBEDTLS_ASN1_INTEGER ) ) != 0 ||
 452              		.loc 1 756 5 is_stmt 1 view .LVU123
 756:D:/fchai/work/i-cube/I-CUBE-HUAWEI/Middlewares/Third_Party/Huawei/iot_link/network/dtls/mbedtls/mbedtls-2.16.2/library\pkparse.c ****                                       MBEDTLS_ASN1_INTEGER ) ) != 0 ||
 453              		.loc 1 756 17 is_stmt 0 view .LVU124
 454 0122 FFF7FEFF 		bl	mbedtls_asn1_get_tag
 455              	.LVL46:
 756:D:/fchai/work/i-cube/I-CUBE-HUAWEI/Middlewares/Third_Party/Huawei/iot_link/network/dtls/mbedtls/mbedtls-2.16.2/library\pkparse.c ****                                       MBEDTLS_ASN1_INTEGER ) ) != 0 ||
 456              		.loc 1 756 7 view .LVU125
 457 0126 0446     		mov	r4, r0
 458 0128 0028     		cmp	r0, #0
 459 012a 95D1     		bne	.L19
 758:D:/fchai/work/i-cube/I-CUBE-HUAWEI/Middlewares/Third_Party/Huawei/iot_link/network/dtls/mbedtls/mbedtls-2.16.2/library\pkparse.c ****                                         NULL, 0, NULL, 0 ) ) != 0 )
 460              		.loc 1 758 17 view .LVU126
 461 012c 0022     		movs	r2, #0
 462 012e 099B     		ldr	r3, [sp, #36]
 463 0130 0093     		str	r3, [sp]
 464 0132 CDE90522 		strd	r2, r2, [sp, #20]
 465 0136 CDE90322 		strd	r2, r2, [sp, #12]
 466 013a CDE90122 		strd	r2, r2, [sp, #4]
 467 013e 0A9B     		ldr	r3, [sp, #40]
 468 0140 1146     		mov	r1, r2
 469 0142 2846     		mov	r0, r5
 470              	.LVL47:
 758:D:/fchai/work/i-cube/I-CUBE-HUAWEI/Middlewares/Third_Party/Huawei/iot_link/network/dtls/mbedtls/mbedtls-2.16.2/library\pkparse.c ****                                         NULL, 0, NULL, 0 ) ) != 0 )
 471              		.loc 1 758 17 view .LVU127
 472 0144 FFF7FEFF 		bl	mbedtls_rsa_import_raw
 473              	.LVL48:
 757:D:/fchai/work/i-cube/I-CUBE-HUAWEI/Middlewares/Third_Party/Huawei/iot_link/network/dtls/mbedtls/mbedtls-2.16.2/library\pkparse.c ****         ( ret = mbedtls_rsa_import_raw( rsa, NULL, 0, p, len, NULL, 0,
ARM GAS  T:\msys\tmp\cc83OHoG.s 			page 25


 474              		.loc 1 757 69 view .LVU128
 475 0148 0446     		mov	r4, r0
 476 014a 0028     		cmp	r0, #0
 477 014c 84D1     		bne	.L19
 761:D:/fchai/work/i-cube/I-CUBE-HUAWEI/Middlewares/Third_Party/Huawei/iot_link/network/dtls/mbedtls/mbedtls-2.16.2/library\pkparse.c **** 
 478              		.loc 1 761 5 is_stmt 1 view .LVU129
 761:D:/fchai/work/i-cube/I-CUBE-HUAWEI/Middlewares/Third_Party/Huawei/iot_link/network/dtls/mbedtls/mbedtls-2.16.2/library\pkparse.c **** 
 479              		.loc 1 761 7 is_stmt 0 view .LVU130
 480 014e DDE90943 		ldrd	r4, r3, [sp, #36]
 764:D:/fchai/work/i-cube/I-CUBE-HUAWEI/Middlewares/Third_Party/Huawei/iot_link/network/dtls/mbedtls/mbedtls-2.16.2/library\pkparse.c ****                                       MBEDTLS_ASN1_INTEGER ) ) != 0 ||
 481              		.loc 1 764 17 view .LVU131
 482 0152 09AA     		add	r2, sp, #36
 761:D:/fchai/work/i-cube/I-CUBE-HUAWEI/Middlewares/Third_Party/Huawei/iot_link/network/dtls/mbedtls/mbedtls-2.16.2/library\pkparse.c **** 
 483              		.loc 1 761 7 view .LVU132
 484 0154 1C44     		add	r4, r4, r3
 764:D:/fchai/work/i-cube/I-CUBE-HUAWEI/Middlewares/Third_Party/Huawei/iot_link/network/dtls/mbedtls/mbedtls-2.16.2/library\pkparse.c ****                                       MBEDTLS_ASN1_INTEGER ) ) != 0 ||
 485              		.loc 1 764 17 view .LVU133
 486 0156 3146     		mov	r1, r6
 487 0158 0223     		movs	r3, #2
 488 015a 0AA8     		add	r0, sp, #40
 489              	.LVL49:
 761:D:/fchai/work/i-cube/I-CUBE-HUAWEI/Middlewares/Third_Party/Huawei/iot_link/network/dtls/mbedtls/mbedtls-2.16.2/library\pkparse.c **** 
 490              		.loc 1 761 7 view .LVU134
 491 015c 0A94     		str	r4, [sp, #40]
 764:D:/fchai/work/i-cube/I-CUBE-HUAWEI/Middlewares/Third_Party/Huawei/iot_link/network/dtls/mbedtls/mbedtls-2.16.2/library\pkparse.c ****                                       MBEDTLS_ASN1_INTEGER ) ) != 0 ||
 492              		.loc 1 764 5 is_stmt 1 view .LVU135
 764:D:/fchai/work/i-cube/I-CUBE-HUAWEI/Middlewares/Third_Party/Huawei/iot_link/network/dtls/mbedtls/mbedtls-2.16.2/library\pkparse.c ****                                       MBEDTLS_ASN1_INTEGER ) ) != 0 ||
 493              		.loc 1 764 17 is_stmt 0 view .LVU136
 494 015e FFF7FEFF 		bl	mbedtls_asn1_get_tag
 495              	.LVL50:
 764:D:/fchai/work/i-cube/I-CUBE-HUAWEI/Middlewares/Third_Party/Huawei/iot_link/network/dtls/mbedtls/mbedtls-2.16.2/library\pkparse.c ****                                       MBEDTLS_ASN1_INTEGER ) ) != 0 ||
 496              		.loc 1 764 7 view .LVU137
 497 0162 0446     		mov	r4, r0
 498 0164 0028     		cmp	r0, #0
 499 0166 7FF477AF 		bne	.L19
 766:D:/fchai/work/i-cube/I-CUBE-HUAWEI/Middlewares/Third_Party/Huawei/iot_link/network/dtls/mbedtls/mbedtls-2.16.2/library\pkparse.c ****                                         NULL, 0, NULL, 0 ) ) != 0 )
 500              		.loc 1 766 17 view .LVU138
 501 016a DDE90923 		ldrd	r2, r3, [sp, #36]
 502 016e CDE90500 		strd	r0, r0, [sp, #20]
 503 0172 CDE90132 		strd	r3, r2, [sp, #4]
 504 0176 CDE90300 		strd	r0, r0, [sp, #12]
 505 017a 0090     		str	r0, [sp]
 506 017c 0346     		mov	r3, r0
 507 017e 0246     		mov	r2, r0
 508 0180 0146     		mov	r1, r0
 509 0182 2846     		mov	r0, r5
 510              	.LVL51:
 766:D:/fchai/work/i-cube/I-CUBE-HUAWEI/Middlewares/Third_Party/Huawei/iot_link/network/dtls/mbedtls/mbedtls-2.16.2/library\pkparse.c ****                                         NULL, 0, NULL, 0 ) ) != 0 )
 511              		.loc 1 766 17 view .LVU139
 512 0184 FFF7FEFF 		bl	mbedtls_rsa_import_raw
 513              	.LVL52:
 765:D:/fchai/work/i-cube/I-CUBE-HUAWEI/Middlewares/Third_Party/Huawei/iot_link/network/dtls/mbedtls/mbedtls-2.16.2/library\pkparse.c ****         ( ret = mbedtls_rsa_import_raw( rsa, NULL, 0, NULL, 0, p, len,
 514              		.loc 1 765 69 view .LVU140
 515 0188 0446     		mov	r4, r0
 516 018a 0028     		cmp	r0, #0
 517 018c 7FF464AF 		bne	.L19
 769:D:/fchai/work/i-cube/I-CUBE-HUAWEI/Middlewares/Third_Party/Huawei/iot_link/network/dtls/mbedtls/mbedtls-2.16.2/library\pkparse.c **** 
ARM GAS  T:\msys\tmp\cc83OHoG.s 			page 26


 518              		.loc 1 769 5 is_stmt 1 view .LVU141
 769:D:/fchai/work/i-cube/I-CUBE-HUAWEI/Middlewares/Third_Party/Huawei/iot_link/network/dtls/mbedtls/mbedtls-2.16.2/library\pkparse.c **** 
 519              		.loc 1 769 7 is_stmt 0 view .LVU142
 520 0190 DDE90923 		ldrd	r2, r3, [sp, #36]
 772:D:/fchai/work/i-cube/I-CUBE-HUAWEI/Middlewares/Third_Party/Huawei/iot_link/network/dtls/mbedtls/mbedtls-2.16.2/library\pkparse.c ****         goto cleanup;
 521              		.loc 1 772 17 view .LVU143
 522 0194 2846     		mov	r0, r5
 523              	.LVL53:
 769:D:/fchai/work/i-cube/I-CUBE-HUAWEI/Middlewares/Third_Party/Huawei/iot_link/network/dtls/mbedtls/mbedtls-2.16.2/library\pkparse.c **** 
 524              		.loc 1 769 7 view .LVU144
 525 0196 1344     		add	r3, r3, r2
 526 0198 0A93     		str	r3, [sp, #40]
 772:D:/fchai/work/i-cube/I-CUBE-HUAWEI/Middlewares/Third_Party/Huawei/iot_link/network/dtls/mbedtls/mbedtls-2.16.2/library\pkparse.c ****         goto cleanup;
 527              		.loc 1 772 5 is_stmt 1 view .LVU145
 772:D:/fchai/work/i-cube/I-CUBE-HUAWEI/Middlewares/Third_Party/Huawei/iot_link/network/dtls/mbedtls/mbedtls-2.16.2/library\pkparse.c ****         goto cleanup;
 528              		.loc 1 772 17 is_stmt 0 view .LVU146
 529 019a FFF7FEFF 		bl	mbedtls_rsa_complete
 530              	.LVL54:
 772:D:/fchai/work/i-cube/I-CUBE-HUAWEI/Middlewares/Third_Party/Huawei/iot_link/network/dtls/mbedtls/mbedtls-2.16.2/library\pkparse.c ****         goto cleanup;
 531              		.loc 1 772 7 view .LVU147
 532 019e 0446     		mov	r4, r0
 533 01a0 0028     		cmp	r0, #0
 534 01a2 7FF459AF 		bne	.L19
 776:D:/fchai/work/i-cube/I-CUBE-HUAWEI/Middlewares/Third_Party/Huawei/iot_link/network/dtls/mbedtls/mbedtls-2.16.2/library\pkparse.c ****         ( ret = mbedtls_asn1_get_mpi( &p, end, &T ) ) != 0 ||
 535              		.loc 1 776 5 is_stmt 1 view .LVU148
 776:D:/fchai/work/i-cube/I-CUBE-HUAWEI/Middlewares/Third_Party/Huawei/iot_link/network/dtls/mbedtls/mbedtls-2.16.2/library\pkparse.c ****         ( ret = mbedtls_asn1_get_mpi( &p, end, &T ) ) != 0 ||
 536              		.loc 1 776 17 is_stmt 0 view .LVU149
 537 01a6 0BAA     		add	r2, sp, #44
 538 01a8 3146     		mov	r1, r6
 539 01aa 0AA8     		add	r0, sp, #40
 540              	.LVL55:
 776:D:/fchai/work/i-cube/I-CUBE-HUAWEI/Middlewares/Third_Party/Huawei/iot_link/network/dtls/mbedtls/mbedtls-2.16.2/library\pkparse.c ****         ( ret = mbedtls_asn1_get_mpi( &p, end, &T ) ) != 0 ||
 541              		.loc 1 776 17 view .LVU150
 542 01ac FFF7FEFF 		bl	mbedtls_asn1_get_mpi
 543              	.LVL56:
 776:D:/fchai/work/i-cube/I-CUBE-HUAWEI/Middlewares/Third_Party/Huawei/iot_link/network/dtls/mbedtls/mbedtls-2.16.2/library\pkparse.c ****         ( ret = mbedtls_asn1_get_mpi( &p, end, &T ) ) != 0 ||
 544              		.loc 1 776 7 view .LVU151
 545 01b0 0446     		mov	r4, r0
 546 01b2 0028     		cmp	r0, #0
 547 01b4 7FF450AF 		bne	.L19
 777:D:/fchai/work/i-cube/I-CUBE-HUAWEI/Middlewares/Third_Party/Huawei/iot_link/network/dtls/mbedtls/mbedtls-2.16.2/library\pkparse.c ****         ( ret = mbedtls_asn1_get_mpi( &p, end, &T ) ) != 0 )
 548              		.loc 1 777 17 discriminator 1 view .LVU152
 549 01b8 0BAA     		add	r2, sp, #44
 550 01ba 3146     		mov	r1, r6
 551 01bc 0AA8     		add	r0, sp, #40
 552              	.LVL57:
 777:D:/fchai/work/i-cube/I-CUBE-HUAWEI/Middlewares/Third_Party/Huawei/iot_link/network/dtls/mbedtls/mbedtls-2.16.2/library\pkparse.c ****         ( ret = mbedtls_asn1_get_mpi( &p, end, &T ) ) != 0 )
 553              		.loc 1 777 17 discriminator 1 view .LVU153
 554 01be FFF7FEFF 		bl	mbedtls_asn1_get_mpi
 555              	.LVL58:
 776:D:/fchai/work/i-cube/I-CUBE-HUAWEI/Middlewares/Third_Party/Huawei/iot_link/network/dtls/mbedtls/mbedtls-2.16.2/library\pkparse.c ****         ( ret = mbedtls_asn1_get_mpi( &p, end, &T ) ) != 0 ||
 556              		.loc 1 776 60 discriminator 1 view .LVU154
 557 01c2 0446     		mov	r4, r0
 558 01c4 0028     		cmp	r0, #0
 559 01c6 7FF447AF 		bne	.L19
 778:D:/fchai/work/i-cube/I-CUBE-HUAWEI/Middlewares/Third_Party/Huawei/iot_link/network/dtls/mbedtls/mbedtls-2.16.2/library\pkparse.c ****         goto cleanup;
 560              		.loc 1 778 17 view .LVU155
ARM GAS  T:\msys\tmp\cc83OHoG.s 			page 27


 561 01ca 0AA8     		add	r0, sp, #40
 562              	.LVL59:
 778:D:/fchai/work/i-cube/I-CUBE-HUAWEI/Middlewares/Third_Party/Huawei/iot_link/network/dtls/mbedtls/mbedtls-2.16.2/library\pkparse.c ****         goto cleanup;
 563              		.loc 1 778 17 view .LVU156
 564 01cc 0BAA     		add	r2, sp, #44
 565 01ce 3146     		mov	r1, r6
 566 01d0 FFF7FEFF 		bl	mbedtls_asn1_get_mpi
 567              	.LVL60:
 777:D:/fchai/work/i-cube/I-CUBE-HUAWEI/Middlewares/Third_Party/Huawei/iot_link/network/dtls/mbedtls/mbedtls-2.16.2/library\pkparse.c ****         ( ret = mbedtls_asn1_get_mpi( &p, end, &T ) ) != 0 )
 568              		.loc 1 777 60 view .LVU157
 569 01d4 0446     		mov	r4, r0
 570 01d6 0028     		cmp	r0, #0
 571 01d8 7FF43EAF 		bne	.L19
 781:D:/fchai/work/i-cube/I-CUBE-HUAWEI/Middlewares/Third_Party/Huawei/iot_link/network/dtls/mbedtls/mbedtls-2.16.2/library\pkparse.c ****     {
 572              		.loc 1 781 5 is_stmt 1 view .LVU158
 781:D:/fchai/work/i-cube/I-CUBE-HUAWEI/Middlewares/Third_Party/Huawei/iot_link/network/dtls/mbedtls/mbedtls-2.16.2/library\pkparse.c ****     {
 573              		.loc 1 781 7 is_stmt 0 view .LVU159
 574 01dc 0A9B     		ldr	r3, [sp, #40]
 575 01de B342     		cmp	r3, r6
 789:D:/fchai/work/i-cube/I-CUBE-HUAWEI/Middlewares/Third_Party/Huawei/iot_link/network/dtls/mbedtls/mbedtls-2.16.2/library\pkparse.c **** 
 576              		.loc 1 789 5 view .LVU160
 577 01e0 0BA8     		add	r0, sp, #44
 578              	.LVL61:
 781:D:/fchai/work/i-cube/I-CUBE-HUAWEI/Middlewares/Third_Party/Huawei/iot_link/network/dtls/mbedtls/mbedtls-2.16.2/library\pkparse.c ****     {
 579              		.loc 1 781 7 view .LVU161
 580 01e2 0DD0     		beq	.L27
 783:D:/fchai/work/i-cube/I-CUBE-HUAWEI/Middlewares/Third_Party/Huawei/iot_link/network/dtls/mbedtls/mbedtls-2.16.2/library\pkparse.c ****               MBEDTLS_ERR_ASN1_LENGTH_MISMATCH ;
 581              		.loc 1 783 9 is_stmt 1 view .LVU162
 582              	.LVL62:
 789:D:/fchai/work/i-cube/I-CUBE-HUAWEI/Middlewares/Third_Party/Huawei/iot_link/network/dtls/mbedtls/mbedtls-2.16.2/library\pkparse.c **** 
 583              		.loc 1 789 5 view .LVU163
 584 01e4 FFF7FEFF 		bl	mbedtls_mpi_free
 585              	.LVL63:
 791:D:/fchai/work/i-cube/I-CUBE-HUAWEI/Middlewares/Third_Party/Huawei/iot_link/network/dtls/mbedtls/mbedtls-2.16.2/library\pkparse.c ****     {
 586              		.loc 1 791 5 view .LVU164
 794:D:/fchai/work/i-cube/I-CUBE-HUAWEI/Middlewares/Third_Party/Huawei/iot_link/network/dtls/mbedtls/mbedtls-2.16.2/library\pkparse.c ****             ret = MBEDTLS_ERR_PK_KEY_INVALID_FORMAT + ret;
 587              		.loc 1 794 9 view .LVU165
 797:D:/fchai/work/i-cube/I-CUBE-HUAWEI/Middlewares/Third_Party/Huawei/iot_link/network/dtls/mbedtls/mbedtls-2.16.2/library\pkparse.c **** 
 588              		.loc 1 797 17 is_stmt 0 view .LVU166
 589 01e8 074C     		ldr	r4, .L28
 590 01ea 3EE7     		b	.L21
 591              	.LVL64:
 592              	.L25:
 723:D:/fchai/work/i-cube/I-CUBE-HUAWEI/Middlewares/Third_Party/Huawei/iot_link/network/dtls/mbedtls/mbedtls-2.16.2/library\pkparse.c ****     }
 593              		.loc 1 723 9 is_stmt 1 view .LVU167
 723:D:/fchai/work/i-cube/I-CUBE-HUAWEI/Middlewares/Third_Party/Huawei/iot_link/network/dtls/mbedtls/mbedtls-2.16.2/library\pkparse.c ****     }
 594              		.loc 1 723 51 is_stmt 0 view .LVU168
 595 01ec A0F57454 		sub	r4, r0, #15616
 596              	.LVL65:
 597              		.loc 1 803 1 view .LVU169
 598 01f0 2046     		mov	r0, r4
 599              	.LVL66:
 600              		.loc 1 803 1 view .LVU170
 601 01f2 0EB0     		add	sp, sp, #56
 602              	.LCFI10:
 603              		.cfi_remember_state
 604              		.cfi_def_cfa_offset 16
ARM GAS  T:\msys\tmp\cc83OHoG.s 			page 28


 605              		@ sp needed
 606 01f4 70BD     		pop	{r4, r5, r6, pc}
 607              	.LVL67:
 608              	.L22:
 609              	.LCFI11:
 610              		.cfi_restore_state
 795:D:/fchai/work/i-cube/I-CUBE-HUAWEI/Middlewares/Third_Party/Huawei/iot_link/network/dtls/mbedtls/mbedtls-2.16.2/library\pkparse.c ****         else
 611              		.loc 1 795 13 is_stmt 1 view .LVU171
 795:D:/fchai/work/i-cube/I-CUBE-HUAWEI/Middlewares/Third_Party/Huawei/iot_link/network/dtls/mbedtls/mbedtls-2.16.2/library\pkparse.c ****         else
 612              		.loc 1 795 17 is_stmt 0 view .LVU172
 613 01f6 A4F57454 		sub	r4, r4, #15616
 614              	.LVL68:
 795:D:/fchai/work/i-cube/I-CUBE-HUAWEI/Middlewares/Third_Party/Huawei/iot_link/network/dtls/mbedtls/mbedtls-2.16.2/library\pkparse.c ****         else
 615              		.loc 1 795 17 view .LVU173
 616 01fa 36E7     		b	.L21
 617              	.LVL69:
 618              	.L23:
 728:D:/fchai/work/i-cube/I-CUBE-HUAWEI/Middlewares/Third_Party/Huawei/iot_link/network/dtls/mbedtls/mbedtls-2.16.2/library\pkparse.c ****     }
 619              		.loc 1 728 15 view .LVU174
 620 01fc 034C     		ldr	r4, .L28+4
 621              	.LVL70:
 728:D:/fchai/work/i-cube/I-CUBE-HUAWEI/Middlewares/Third_Party/Huawei/iot_link/network/dtls/mbedtls/mbedtls-2.16.2/library\pkparse.c ****     }
 622              		.loc 1 728 15 view .LVU175
 623 01fe 11E7     		b	.L15
 624              	.LVL71:
 625              	.L27:
 789:D:/fchai/work/i-cube/I-CUBE-HUAWEI/Middlewares/Third_Party/Huawei/iot_link/network/dtls/mbedtls/mbedtls-2.16.2/library\pkparse.c **** 
 626              		.loc 1 789 5 is_stmt 1 view .LVU176
 627 0200 FFF7FEFF 		bl	mbedtls_mpi_free
 628              	.LVL72:
 791:D:/fchai/work/i-cube/I-CUBE-HUAWEI/Middlewares/Third_Party/Huawei/iot_link/network/dtls/mbedtls/mbedtls-2.16.2/library\pkparse.c ****     {
 629              		.loc 1 791 5 view .LVU177
 630 0204 0EE7     		b	.L15
 631              	.L29:
 632 0206 00BF     		.align	2
 633              	.L28:
 634 0208 00C3FFFF 		.word	-15616
 635 020c 80C2FFFF 		.word	-15744
 636              		.cfi_endproc
 637              	.LFE22:
 639              		.section	.text.pk_get_pk_alg,"ax",%progbits
 640              		.align	1
 641              		.p2align 2,,3
 642              		.syntax unified
 643              		.thumb
 644              		.thumb_func
 645              		.fpu fpv4-sp-d16
 647              	pk_get_pk_alg:
 648              	.LVL73:
 649              	.LFB20:
 585:D:/fchai/work/i-cube/I-CUBE-HUAWEI/Middlewares/Third_Party/Huawei/iot_link/network/dtls/mbedtls/mbedtls-2.16.2/library\pkparse.c ****     int ret;
 650              		.loc 1 585 1 view -0
 651              		.cfi_startproc
 652              		@ args = 0, pretend = 0, frame = 16
 653              		@ frame_needed = 0, uses_anonymous_args = 0
 586:D:/fchai/work/i-cube/I-CUBE-HUAWEI/Middlewares/Third_Party/Huawei/iot_link/network/dtls/mbedtls/mbedtls-2.16.2/library\pkparse.c ****     mbedtls_asn1_buf alg_oid;
 654              		.loc 1 586 5 view .LVU179
ARM GAS  T:\msys\tmp\cc83OHoG.s 			page 29


 587:D:/fchai/work/i-cube/I-CUBE-HUAWEI/Middlewares/Third_Party/Huawei/iot_link/network/dtls/mbedtls/mbedtls-2.16.2/library\pkparse.c **** 
 655              		.loc 1 587 5 view .LVU180
 589:D:/fchai/work/i-cube/I-CUBE-HUAWEI/Middlewares/Third_Party/Huawei/iot_link/network/dtls/mbedtls/mbedtls-2.16.2/library\pkparse.c **** 
 656              		.loc 1 589 5 view .LVU181
 585:D:/fchai/work/i-cube/I-CUBE-HUAWEI/Middlewares/Third_Party/Huawei/iot_link/network/dtls/mbedtls/mbedtls-2.16.2/library\pkparse.c ****     int ret;
 657              		.loc 1 585 1 is_stmt 0 view .LVU182
 658 0000 70B5     		push	{r4, r5, r6, lr}
 659              	.LCFI12:
 660              		.cfi_def_cfa_offset 16
 661              		.cfi_offset 4, -16
 662              		.cfi_offset 5, -12
 663              		.cfi_offset 6, -8
 664              		.cfi_offset 14, -4
 589:D:/fchai/work/i-cube/I-CUBE-HUAWEI/Middlewares/Third_Party/Huawei/iot_link/network/dtls/mbedtls/mbedtls-2.16.2/library\pkparse.c **** 
 665              		.loc 1 589 5 view .LVU183
 666 0002 0025     		movs	r5, #0
 585:D:/fchai/work/i-cube/I-CUBE-HUAWEI/Middlewares/Third_Party/Huawei/iot_link/network/dtls/mbedtls/mbedtls-2.16.2/library\pkparse.c ****     int ret;
 667              		.loc 1 585 1 view .LVU184
 668 0004 84B0     		sub	sp, sp, #16
 669              	.LCFI13:
 670              		.cfi_def_cfa_offset 32
 585:D:/fchai/work/i-cube/I-CUBE-HUAWEI/Middlewares/Third_Party/Huawei/iot_link/network/dtls/mbedtls/mbedtls-2.16.2/library\pkparse.c ****     int ret;
 671              		.loc 1 585 1 view .LVU185
 672 0006 1646     		mov	r6, r2
 589:D:/fchai/work/i-cube/I-CUBE-HUAWEI/Middlewares/Third_Party/Huawei/iot_link/network/dtls/mbedtls/mbedtls-2.16.2/library\pkparse.c **** 
 673              		.loc 1 589 5 view .LVU186
 674 0008 C3E90055 		strd	r5, r5, [r3]
 675 000c 9D60     		str	r5, [r3, #8]
 591:D:/fchai/work/i-cube/I-CUBE-HUAWEI/Middlewares/Third_Party/Huawei/iot_link/network/dtls/mbedtls/mbedtls-2.16.2/library\pkparse.c ****         return( MBEDTLS_ERR_PK_INVALID_ALG + ret );
 676              		.loc 1 591 5 is_stmt 1 view .LVU187
 591:D:/fchai/work/i-cube/I-CUBE-HUAWEI/Middlewares/Third_Party/Huawei/iot_link/network/dtls/mbedtls/mbedtls-2.16.2/library\pkparse.c ****         return( MBEDTLS_ERR_PK_INVALID_ALG + ret );
 677              		.loc 1 591 17 is_stmt 0 view .LVU188
 678 000e 01AA     		add	r2, sp, #4
 679              	.LVL74:
 585:D:/fchai/work/i-cube/I-CUBE-HUAWEI/Middlewares/Third_Party/Huawei/iot_link/network/dtls/mbedtls/mbedtls-2.16.2/library\pkparse.c ****     int ret;
 680              		.loc 1 585 1 view .LVU189
 681 0010 1C46     		mov	r4, r3
 591:D:/fchai/work/i-cube/I-CUBE-HUAWEI/Middlewares/Third_Party/Huawei/iot_link/network/dtls/mbedtls/mbedtls-2.16.2/library\pkparse.c ****         return( MBEDTLS_ERR_PK_INVALID_ALG + ret );
 682              		.loc 1 591 17 view .LVU190
 683 0012 FFF7FEFF 		bl	mbedtls_asn1_get_alg
 684              	.LVL75:
 591:D:/fchai/work/i-cube/I-CUBE-HUAWEI/Middlewares/Third_Party/Huawei/iot_link/network/dtls/mbedtls/mbedtls-2.16.2/library\pkparse.c ****         return( MBEDTLS_ERR_PK_INVALID_ALG + ret );
 685              		.loc 1 591 7 view .LVU191
 686 0016 18B1     		cbz	r0, .L31
 592:D:/fchai/work/i-cube/I-CUBE-HUAWEI/Middlewares/Third_Party/Huawei/iot_link/network/dtls/mbedtls/mbedtls-2.16.2/library\pkparse.c **** 
 687              		.loc 1 592 9 is_stmt 1 view .LVU192
 592:D:/fchai/work/i-cube/I-CUBE-HUAWEI/Middlewares/Third_Party/Huawei/iot_link/network/dtls/mbedtls/mbedtls-2.16.2/library\pkparse.c **** 
 688              		.loc 1 592 44 is_stmt 0 view .LVU193
 689 0018 A0F56A50 		sub	r0, r0, #14976
 690              	.LVL76:
 691              	.L30:
 608:D:/fchai/work/i-cube/I-CUBE-HUAWEI/Middlewares/Third_Party/Huawei/iot_link/network/dtls/mbedtls/mbedtls-2.16.2/library\pkparse.c **** 
 692              		.loc 1 608 1 view .LVU194
 693 001c 04B0     		add	sp, sp, #16
 694              	.LCFI14:
 695              		.cfi_remember_state
 696              		.cfi_def_cfa_offset 16
ARM GAS  T:\msys\tmp\cc83OHoG.s 			page 30


 697              		@ sp needed
 698 001e 70BD     		pop	{r4, r5, r6, pc}
 699              	.LVL77:
 700              	.L31:
 701              	.LCFI15:
 702              		.cfi_restore_state
 594:D:/fchai/work/i-cube/I-CUBE-HUAWEI/Middlewares/Third_Party/Huawei/iot_link/network/dtls/mbedtls/mbedtls-2.16.2/library\pkparse.c ****         return( MBEDTLS_ERR_PK_UNKNOWN_PK_ALG );
 703              		.loc 1 594 5 is_stmt 1 view .LVU195
 594:D:/fchai/work/i-cube/I-CUBE-HUAWEI/Middlewares/Third_Party/Huawei/iot_link/network/dtls/mbedtls/mbedtls-2.16.2/library\pkparse.c ****         return( MBEDTLS_ERR_PK_UNKNOWN_PK_ALG );
 704              		.loc 1 594 9 is_stmt 0 view .LVU196
 705 0020 01A8     		add	r0, sp, #4
 706              	.LVL78:
 594:D:/fchai/work/i-cube/I-CUBE-HUAWEI/Middlewares/Third_Party/Huawei/iot_link/network/dtls/mbedtls/mbedtls-2.16.2/library\pkparse.c ****         return( MBEDTLS_ERR_PK_UNKNOWN_PK_ALG );
 707              		.loc 1 594 9 view .LVU197
 708 0022 3146     		mov	r1, r6
 709 0024 FFF7FEFF 		bl	mbedtls_oid_get_pk_alg
 710              	.LVL79:
 594:D:/fchai/work/i-cube/I-CUBE-HUAWEI/Middlewares/Third_Party/Huawei/iot_link/network/dtls/mbedtls/mbedtls-2.16.2/library\pkparse.c ****         return( MBEDTLS_ERR_PK_UNKNOWN_PK_ALG );
 711              		.loc 1 594 7 view .LVU198
 712 0028 68B9     		cbnz	r0, .L34
 600:D:/fchai/work/i-cube/I-CUBE-HUAWEI/Middlewares/Third_Party/Huawei/iot_link/network/dtls/mbedtls/mbedtls-2.16.2/library\pkparse.c ****             ( ( params->tag != MBEDTLS_ASN1_NULL && params->tag != 0 ) ||
 713              		.loc 1 600 5 is_stmt 1 view .LVU199
 600:D:/fchai/work/i-cube/I-CUBE-HUAWEI/Middlewares/Third_Party/Huawei/iot_link/network/dtls/mbedtls/mbedtls-2.16.2/library\pkparse.c ****             ( ( params->tag != MBEDTLS_ASN1_NULL && params->tag != 0 ) ||
 714              		.loc 1 600 7 is_stmt 0 view .LVU200
 715 002a 3378     		ldrb	r3, [r6]	@ zero_extendqisi2
 716 002c 012B     		cmp	r3, #1
 717 002e F5D1     		bne	.L30
 718              	.LVL80:
 719              	.LBB29:
 720              	.LBI29:
 582:D:/fchai/work/i-cube/I-CUBE-HUAWEI/Middlewares/Third_Party/Huawei/iot_link/network/dtls/mbedtls/mbedtls-2.16.2/library\pkparse.c ****                           const unsigned char *end,
 721              		.loc 1 582 12 is_stmt 1 view .LVU201
 722              	.LBB30:
 601:D:/fchai/work/i-cube/I-CUBE-HUAWEI/Middlewares/Third_Party/Huawei/iot_link/network/dtls/mbedtls/mbedtls-2.16.2/library\pkparse.c ****                 params->len != 0 ) )
 723              		.loc 1 601 23 is_stmt 0 view .LVU202
 724 0030 2368     		ldr	r3, [r4]
 600:D:/fchai/work/i-cube/I-CUBE-HUAWEI/Middlewares/Third_Party/Huawei/iot_link/network/dtls/mbedtls/mbedtls-2.16.2/library\pkparse.c ****             ( ( params->tag != MBEDTLS_ASN1_NULL && params->tag != 0 ) ||
 725              		.loc 1 600 35 view .LVU203
 726 0032 052B     		cmp	r3, #5
 727 0034 00D0     		beq	.L33
 601:D:/fchai/work/i-cube/I-CUBE-HUAWEI/Middlewares/Third_Party/Huawei/iot_link/network/dtls/mbedtls/mbedtls-2.16.2/library\pkparse.c ****                 params->len != 0 ) )
 728              		.loc 1 601 50 view .LVU204
 729 0036 43B9     		cbnz	r3, .L35
 730              	.L33:
 601:D:/fchai/work/i-cube/I-CUBE-HUAWEI/Middlewares/Third_Party/Huawei/iot_link/network/dtls/mbedtls/mbedtls-2.16.2/library\pkparse.c ****                 params->len != 0 ) )
 731              		.loc 1 601 72 view .LVU205
 732 0038 6268     		ldr	r2, [r4, #4]
 604:D:/fchai/work/i-cube/I-CUBE-HUAWEI/Middlewares/Third_Party/Huawei/iot_link/network/dtls/mbedtls/mbedtls-2.16.2/library\pkparse.c ****     }
 733              		.loc 1 604 15 view .LVU206
 734 003a 054B     		ldr	r3, .L42
 735 003c 002A     		cmp	r2, #0
 736 003e 18BF     		it	ne
 737 0040 1846     		movne	r0, r3
 738              	.LBE30:
 739              	.LBE29:
 608:D:/fchai/work/i-cube/I-CUBE-HUAWEI/Middlewares/Third_Party/Huawei/iot_link/network/dtls/mbedtls/mbedtls-2.16.2/library\pkparse.c **** 
 740              		.loc 1 608 1 view .LVU207
ARM GAS  T:\msys\tmp\cc83OHoG.s 			page 31


 741 0042 04B0     		add	sp, sp, #16
 742              	.LCFI16:
 743              		.cfi_remember_state
 744              		.cfi_def_cfa_offset 16
 745              		@ sp needed
 746 0044 70BD     		pop	{r4, r5, r6, pc}
 747              	.LVL81:
 748              	.L34:
 749              	.LCFI17:
 750              		.cfi_restore_state
 595:D:/fchai/work/i-cube/I-CUBE-HUAWEI/Middlewares/Third_Party/Huawei/iot_link/network/dtls/mbedtls/mbedtls-2.16.2/library\pkparse.c **** 
 751              		.loc 1 595 15 view .LVU208
 752 0046 0348     		ldr	r0, .L42+4
 753 0048 E8E7     		b	.L30
 754              	.LVL82:
 755              	.L35:
 756              	.LBB32:
 757              	.LBB31:
 604:D:/fchai/work/i-cube/I-CUBE-HUAWEI/Middlewares/Third_Party/Huawei/iot_link/network/dtls/mbedtls/mbedtls-2.16.2/library\pkparse.c ****     }
 758              		.loc 1 604 15 view .LVU209
 759 004a 0148     		ldr	r0, .L42
 760              	.LVL83:
 604:D:/fchai/work/i-cube/I-CUBE-HUAWEI/Middlewares/Third_Party/Huawei/iot_link/network/dtls/mbedtls/mbedtls-2.16.2/library\pkparse.c ****     }
 761              		.loc 1 604 15 view .LVU210
 762 004c E6E7     		b	.L30
 763              	.L43:
 764 004e 00BF     		.align	2
 765              	.L42:
 766 0050 80C5FFFF 		.word	-14976
 767 0054 80C3FFFF 		.word	-15488
 768              	.LBE31:
 769              	.LBE32:
 770              		.cfi_endproc
 771              	.LFE20:
 773              		.section	.rodata.pk_use_ecparams.str1.4,"aMS",%progbits,1
 774              		.align	2
 775              	.LC0:
 776 0000 2A8648CE 		.ascii	"*\206H\316=\001\001\000"
 776      3D010100 
 777              		.section	.text.pk_use_ecparams,"ax",%progbits
 778              		.align	1
 779              		.p2align 2,,3
 780              		.syntax unified
 781              		.thumb
 782              		.thumb_func
 783              		.fpu fpv4-sp-d16
 785              	pk_use_ecparams:
 786              	.LVL84:
 787              	.LFB17:
 462:D:/fchai/work/i-cube/I-CUBE-HUAWEI/Middlewares/Third_Party/Huawei/iot_link/network/dtls/mbedtls/mbedtls-2.16.2/library\pkparse.c ****     int ret;
 788              		.loc 1 462 1 is_stmt 1 view -0
 789              		.cfi_startproc
 790              		@ args = 0, pretend = 0, frame = 264
 791              		@ frame_needed = 0, uses_anonymous_args = 0
 463:D:/fchai/work/i-cube/I-CUBE-HUAWEI/Middlewares/Third_Party/Huawei/iot_link/network/dtls/mbedtls/mbedtls-2.16.2/library\pkparse.c ****     mbedtls_ecp_group_id grp_id;
 792              		.loc 1 463 5 view .LVU212
 464:D:/fchai/work/i-cube/I-CUBE-HUAWEI/Middlewares/Third_Party/Huawei/iot_link/network/dtls/mbedtls/mbedtls-2.16.2/library\pkparse.c **** 
ARM GAS  T:\msys\tmp\cc83OHoG.s 			page 32


 793              		.loc 1 464 5 view .LVU213
 466:D:/fchai/work/i-cube/I-CUBE-HUAWEI/Middlewares/Third_Party/Huawei/iot_link/network/dtls/mbedtls/mbedtls-2.16.2/library\pkparse.c ****     {
 794              		.loc 1 466 5 view .LVU214
 462:D:/fchai/work/i-cube/I-CUBE-HUAWEI/Middlewares/Third_Party/Huawei/iot_link/network/dtls/mbedtls/mbedtls-2.16.2/library\pkparse.c ****     int ret;
 795              		.loc 1 462 1 is_stmt 0 view .LVU215
 796 0000 F0B5     		push	{r4, r5, r6, r7, lr}
 797              	.LCFI18:
 798              		.cfi_def_cfa_offset 20
 799              		.cfi_offset 4, -20
 800              		.cfi_offset 5, -16
 801              		.cfi_offset 6, -12
 802              		.cfi_offset 7, -8
 803              		.cfi_offset 14, -4
 466:D:/fchai/work/i-cube/I-CUBE-HUAWEI/Middlewares/Third_Party/Huawei/iot_link/network/dtls/mbedtls/mbedtls-2.16.2/library\pkparse.c ****     {
 804              		.loc 1 466 7 view .LVU216
 805 0002 0368     		ldr	r3, [r0]
 806 0004 062B     		cmp	r3, #6
 462:D:/fchai/work/i-cube/I-CUBE-HUAWEI/Middlewares/Third_Party/Huawei/iot_link/network/dtls/mbedtls/mbedtls-2.16.2/library\pkparse.c ****     int ret;
 807              		.loc 1 462 1 view .LVU217
 808 0006 C3B0     		sub	sp, sp, #268
 809              	.LCFI19:
 810              		.cfi_def_cfa_offset 288
 462:D:/fchai/work/i-cube/I-CUBE-HUAWEI/Middlewares/Third_Party/Huawei/iot_link/network/dtls/mbedtls/mbedtls-2.16.2/library\pkparse.c ****     int ret;
 811              		.loc 1 462 1 view .LVU218
 812 0008 0D46     		mov	r5, r1
 466:D:/fchai/work/i-cube/I-CUBE-HUAWEI/Middlewares/Third_Party/Huawei/iot_link/network/dtls/mbedtls/mbedtls-2.16.2/library\pkparse.c ****     {
 813              		.loc 1 466 7 view .LVU219
 814 000a 00F0B380 		beq	.L92
 474:D:/fchai/work/i-cube/I-CUBE-HUAWEI/Middlewares/Third_Party/Huawei/iot_link/network/dtls/mbedtls/mbedtls-2.16.2/library\pkparse.c ****             return( ret );
 815              		.loc 1 474 9 is_stmt 1 view .LVU220
 816              	.LVL85:
 817              	.LBB39:
 818              	.LBI39:
 433:D:/fchai/work/i-cube/I-CUBE-HUAWEI/Middlewares/Third_Party/Huawei/iot_link/network/dtls/mbedtls/mbedtls-2.16.2/library\pkparse.c ****                                        mbedtls_ecp_group_id *grp_id )
 819              		.loc 1 433 12 view .LVU221
 820              	.LBB40:
 436:D:/fchai/work/i-cube/I-CUBE-HUAWEI/Middlewares/Third_Party/Huawei/iot_link/network/dtls/mbedtls/mbedtls-2.16.2/library\pkparse.c ****     mbedtls_ecp_group grp;
 821              		.loc 1 436 5 view .LVU222
 437:D:/fchai/work/i-cube/I-CUBE-HUAWEI/Middlewares/Third_Party/Huawei/iot_link/network/dtls/mbedtls/mbedtls-2.16.2/library\pkparse.c **** 
 822              		.loc 1 437 5 view .LVU223
 439:D:/fchai/work/i-cube/I-CUBE-HUAWEI/Middlewares/Third_Party/Huawei/iot_link/network/dtls/mbedtls/mbedtls-2.16.2/library\pkparse.c **** 
 823              		.loc 1 439 5 view .LVU224
 824 000e 0446     		mov	r4, r0
 825 0010 04A8     		add	r0, sp, #16
 826              	.LVL86:
 439:D:/fchai/work/i-cube/I-CUBE-HUAWEI/Middlewares/Third_Party/Huawei/iot_link/network/dtls/mbedtls/mbedtls-2.16.2/library\pkparse.c **** 
 827              		.loc 1 439 5 is_stmt 0 view .LVU225
 828 0012 FFF7FEFF 		bl	mbedtls_ecp_group_init
 829              	.LVL87:
 441:D:/fchai/work/i-cube/I-CUBE-HUAWEI/Middlewares/Third_Party/Huawei/iot_link/network/dtls/mbedtls/mbedtls-2.16.2/library\pkparse.c ****         goto cleanup;
 830              		.loc 1 441 5 is_stmt 1 view .LVU226
 441:D:/fchai/work/i-cube/I-CUBE-HUAWEI/Middlewares/Third_Party/Huawei/iot_link/network/dtls/mbedtls/mbedtls-2.16.2/library\pkparse.c ****         goto cleanup;
 831              		.loc 1 441 17 is_stmt 0 view .LVU227
 832 0016 D4E90163 		ldrd	r6, r3, [r4, #4]
 833              	.LVL88:
 834              	.LBB41:
 835              	.LBI41:
ARM GAS  T:\msys\tmp\cc83OHoG.s 			page 33


 244:D:/fchai/work/i-cube/I-CUBE-HUAWEI/Middlewares/Third_Party/Huawei/iot_link/network/dtls/mbedtls/mbedtls-2.16.2/library\pkparse.c **** {
 836              		.loc 1 244 12 is_stmt 1 view .LVU228
 837              	.LBB42:
 246:D:/fchai/work/i-cube/I-CUBE-HUAWEI/Middlewares/Third_Party/Huawei/iot_link/network/dtls/mbedtls/mbedtls-2.16.2/library\pkparse.c ****     unsigned char *p = params->p;
 838              		.loc 1 246 5 view .LVU229
 247:D:/fchai/work/i-cube/I-CUBE-HUAWEI/Middlewares/Third_Party/Huawei/iot_link/network/dtls/mbedtls/mbedtls-2.16.2/library\pkparse.c ****     const unsigned char * const end = params->p + params->len;
 839              		.loc 1 247 5 view .LVU230
 248:D:/fchai/work/i-cube/I-CUBE-HUAWEI/Middlewares/Third_Party/Huawei/iot_link/network/dtls/mbedtls/mbedtls-2.16.2/library\pkparse.c ****     const unsigned char *end_field, *end_curve;
 840              		.loc 1 248 33 is_stmt 0 view .LVU231
 841 001a 1E44     		add	r6, r6, r3
 254:D:/fchai/work/i-cube/I-CUBE-HUAWEI/Middlewares/Third_Party/Huawei/iot_link/network/dtls/mbedtls/mbedtls-2.16.2/library\pkparse.c ****         return( MBEDTLS_ERR_PK_KEY_INVALID_FORMAT + ret );
 842              		.loc 1 254 17 view .LVU232
 843 001c 3146     		mov	r1, r6
 844 001e 02A8     		add	r0, sp, #8
 845 0020 23AA     		add	r2, sp, #140
 247:D:/fchai/work/i-cube/I-CUBE-HUAWEI/Middlewares/Third_Party/Huawei/iot_link/network/dtls/mbedtls/mbedtls-2.16.2/library\pkparse.c ****     const unsigned char * const end = params->p + params->len;
 846              		.loc 1 247 20 view .LVU233
 847 0022 0293     		str	r3, [sp, #8]
 248:D:/fchai/work/i-cube/I-CUBE-HUAWEI/Middlewares/Third_Party/Huawei/iot_link/network/dtls/mbedtls/mbedtls-2.16.2/library\pkparse.c ****     const unsigned char *end_field, *end_curve;
 848              		.loc 1 248 5 is_stmt 1 view .LVU234
 849              	.LVL89:
 249:D:/fchai/work/i-cube/I-CUBE-HUAWEI/Middlewares/Third_Party/Huawei/iot_link/network/dtls/mbedtls/mbedtls-2.16.2/library\pkparse.c ****     size_t len;
 850              		.loc 1 249 5 view .LVU235
 250:D:/fchai/work/i-cube/I-CUBE-HUAWEI/Middlewares/Third_Party/Huawei/iot_link/network/dtls/mbedtls/mbedtls-2.16.2/library\pkparse.c ****     int ver;
 851              		.loc 1 250 5 view .LVU236
 251:D:/fchai/work/i-cube/I-CUBE-HUAWEI/Middlewares/Third_Party/Huawei/iot_link/network/dtls/mbedtls/mbedtls-2.16.2/library\pkparse.c **** 
 852              		.loc 1 251 5 view .LVU237
 254:D:/fchai/work/i-cube/I-CUBE-HUAWEI/Middlewares/Third_Party/Huawei/iot_link/network/dtls/mbedtls/mbedtls-2.16.2/library\pkparse.c ****         return( MBEDTLS_ERR_PK_KEY_INVALID_FORMAT + ret );
 853              		.loc 1 254 5 view .LVU238
 254:D:/fchai/work/i-cube/I-CUBE-HUAWEI/Middlewares/Third_Party/Huawei/iot_link/network/dtls/mbedtls/mbedtls-2.16.2/library\pkparse.c ****         return( MBEDTLS_ERR_PK_KEY_INVALID_FORMAT + ret );
 854              		.loc 1 254 17 is_stmt 0 view .LVU239
 855 0024 FFF7FEFF 		bl	mbedtls_asn1_get_int
 856              	.LVL90:
 254:D:/fchai/work/i-cube/I-CUBE-HUAWEI/Middlewares/Third_Party/Huawei/iot_link/network/dtls/mbedtls/mbedtls-2.16.2/library\pkparse.c ****         return( MBEDTLS_ERR_PK_KEY_INVALID_FORMAT + ret );
 857              		.loc 1 254 7 view .LVU240
 858 0028 0028     		cmp	r0, #0
 859 002a 43D1     		bne	.L91
 257:D:/fchai/work/i-cube/I-CUBE-HUAWEI/Middlewares/Third_Party/Huawei/iot_link/network/dtls/mbedtls/mbedtls-2.16.2/library\pkparse.c ****         return( MBEDTLS_ERR_PK_KEY_INVALID_FORMAT );
 860              		.loc 1 257 5 is_stmt 1 view .LVU241
 257:D:/fchai/work/i-cube/I-CUBE-HUAWEI/Middlewares/Third_Party/Huawei/iot_link/network/dtls/mbedtls/mbedtls-2.16.2/library\pkparse.c ****         return( MBEDTLS_ERR_PK_KEY_INVALID_FORMAT );
 861              		.loc 1 257 17 is_stmt 0 view .LVU242
 862 002c 239B     		ldr	r3, [sp, #140]
 863 002e 013B     		subs	r3, r3, #1
 257:D:/fchai/work/i-cube/I-CUBE-HUAWEI/Middlewares/Third_Party/Huawei/iot_link/network/dtls/mbedtls/mbedtls-2.16.2/library\pkparse.c ****         return( MBEDTLS_ERR_PK_KEY_INVALID_FORMAT );
 864              		.loc 1 257 7 view .LVU243
 865 0030 022B     		cmp	r3, #2
 866 0032 00F23B81 		bhi	.L93
 266:D:/fchai/work/i-cube/I-CUBE-HUAWEI/Middlewares/Third_Party/Huawei/iot_link/network/dtls/mbedtls/mbedtls-2.16.2/library\pkparse.c ****             MBEDTLS_ASN1_CONSTRUCTED | MBEDTLS_ASN1_SEQUENCE ) ) != 0 )
 867              		.loc 1 266 5 is_stmt 1 view .LVU244
 266:D:/fchai/work/i-cube/I-CUBE-HUAWEI/Middlewares/Third_Party/Huawei/iot_link/network/dtls/mbedtls/mbedtls-2.16.2/library\pkparse.c ****             MBEDTLS_ASN1_CONSTRUCTED | MBEDTLS_ASN1_SEQUENCE ) ) != 0 )
 868              		.loc 1 266 17 is_stmt 0 view .LVU245
 869 0036 03AA     		add	r2, sp, #12
 870              	.LVL91:
 266:D:/fchai/work/i-cube/I-CUBE-HUAWEI/Middlewares/Third_Party/Huawei/iot_link/network/dtls/mbedtls/mbedtls-2.16.2/library\pkparse.c ****             MBEDTLS_ASN1_CONSTRUCTED | MBEDTLS_ASN1_SEQUENCE ) ) != 0 )
 871              		.loc 1 266 17 view .LVU246
 872 0038 3023     		movs	r3, #48
 873 003a 3146     		mov	r1, r6
ARM GAS  T:\msys\tmp\cc83OHoG.s 			page 34


 874 003c 02A8     		add	r0, sp, #8
 875              	.LVL92:
 266:D:/fchai/work/i-cube/I-CUBE-HUAWEI/Middlewares/Third_Party/Huawei/iot_link/network/dtls/mbedtls/mbedtls-2.16.2/library\pkparse.c ****             MBEDTLS_ASN1_CONSTRUCTED | MBEDTLS_ASN1_SEQUENCE ) ) != 0 )
 876              		.loc 1 266 17 view .LVU247
 877 003e FFF7FEFF 		bl	mbedtls_asn1_get_tag
 878              	.LVL93:
 266:D:/fchai/work/i-cube/I-CUBE-HUAWEI/Middlewares/Third_Party/Huawei/iot_link/network/dtls/mbedtls/mbedtls-2.16.2/library\pkparse.c ****             MBEDTLS_ASN1_CONSTRUCTED | MBEDTLS_ASN1_SEQUENCE ) ) != 0 )
 879              		.loc 1 266 7 view .LVU248
 880 0042 0446     		mov	r4, r0
 881              	.LVL94:
 266:D:/fchai/work/i-cube/I-CUBE-HUAWEI/Middlewares/Third_Party/Huawei/iot_link/network/dtls/mbedtls/mbedtls-2.16.2/library\pkparse.c ****             MBEDTLS_ASN1_CONSTRUCTED | MBEDTLS_ASN1_SEQUENCE ) ) != 0 )
 882              		.loc 1 266 7 view .LVU249
 883 0044 80BB     		cbnz	r0, .L51
 270:D:/fchai/work/i-cube/I-CUBE-HUAWEI/Middlewares/Third_Party/Huawei/iot_link/network/dtls/mbedtls/mbedtls-2.16.2/library\pkparse.c **** 
 884              		.loc 1 270 5 is_stmt 1 view .LVU250
 270:D:/fchai/work/i-cube/I-CUBE-HUAWEI/Middlewares/Third_Party/Huawei/iot_link/network/dtls/mbedtls/mbedtls-2.16.2/library\pkparse.c **** 
 885              		.loc 1 270 15 is_stmt 0 view .LVU251
 886 0046 DDE90273 		ldrd	r7, r3, [sp, #8]
 887 004a 1F44     		add	r7, r7, r3
 888              	.LVL95:
 280:D:/fchai/work/i-cube/I-CUBE-HUAWEI/Middlewares/Third_Party/Huawei/iot_link/network/dtls/mbedtls/mbedtls-2.16.2/library\pkparse.c ****         return( ret );
 889              		.loc 1 280 5 is_stmt 1 view .LVU252
 280:D:/fchai/work/i-cube/I-CUBE-HUAWEI/Middlewares/Third_Party/Huawei/iot_link/network/dtls/mbedtls/mbedtls-2.16.2/library\pkparse.c ****         return( ret );
 890              		.loc 1 280 17 is_stmt 0 view .LVU253
 891 004c 3946     		mov	r1, r7
 892 004e 0623     		movs	r3, #6
 893 0050 03AA     		add	r2, sp, #12
 894              	.LVL96:
 280:D:/fchai/work/i-cube/I-CUBE-HUAWEI/Middlewares/Third_Party/Huawei/iot_link/network/dtls/mbedtls/mbedtls-2.16.2/library\pkparse.c ****         return( ret );
 895              		.loc 1 280 17 view .LVU254
 896 0052 02A8     		add	r0, sp, #8
 897              	.LVL97:
 280:D:/fchai/work/i-cube/I-CUBE-HUAWEI/Middlewares/Third_Party/Huawei/iot_link/network/dtls/mbedtls/mbedtls-2.16.2/library\pkparse.c ****         return( ret );
 898              		.loc 1 280 17 view .LVU255
 899 0054 FFF7FEFF 		bl	mbedtls_asn1_get_tag
 900              	.LVL98:
 280:D:/fchai/work/i-cube/I-CUBE-HUAWEI/Middlewares/Third_Party/Huawei/iot_link/network/dtls/mbedtls/mbedtls-2.16.2/library\pkparse.c ****         return( ret );
 901              		.loc 1 280 7 view .LVU256
 902 0058 0446     		mov	r4, r0
 903 005a 28BB     		cbnz	r0, .L51
 283:D:/fchai/work/i-cube/I-CUBE-HUAWEI/Middlewares/Third_Party/Huawei/iot_link/network/dtls/mbedtls/mbedtls-2.16.2/library\pkparse.c ****         memcmp( p, MBEDTLS_OID_ANSI_X9_62_PRIME_FIELD, len ) != 0 )
 904              		.loc 1 283 5 is_stmt 1 view .LVU257
 283:D:/fchai/work/i-cube/I-CUBE-HUAWEI/Middlewares/Third_Party/Huawei/iot_link/network/dtls/mbedtls/mbedtls-2.16.2/library\pkparse.c ****         memcmp( p, MBEDTLS_OID_ANSI_X9_62_PRIME_FIELD, len ) != 0 )
 905              		.loc 1 283 7 is_stmt 0 view .LVU258
 906 005c 039A     		ldr	r2, [sp, #12]
 907 005e 072A     		cmp	r2, #7
 908 0060 40F02681 		bne	.L54
 284:D:/fchai/work/i-cube/I-CUBE-HUAWEI/Middlewares/Third_Party/Huawei/iot_link/network/dtls/mbedtls/mbedtls-2.16.2/library\pkparse.c ****     {
 909              		.loc 1 284 9 view .LVU259
 910 0064 029C     		ldr	r4, [sp, #8]
 911 0066 9D49     		ldr	r1, .L97
 912 0068 2046     		mov	r0, r4
 913              	.LVL99:
 284:D:/fchai/work/i-cube/I-CUBE-HUAWEI/Middlewares/Third_Party/Huawei/iot_link/network/dtls/mbedtls/mbedtls-2.16.2/library\pkparse.c ****     {
 914              		.loc 1 284 9 view .LVU260
 915 006a FFF7FEFF 		bl	memcmp
 916              	.LVL100:
ARM GAS  T:\msys\tmp\cc83OHoG.s 			page 35


 283:D:/fchai/work/i-cube/I-CUBE-HUAWEI/Middlewares/Third_Party/Huawei/iot_link/network/dtls/mbedtls/mbedtls-2.16.2/library\pkparse.c ****         memcmp( p, MBEDTLS_OID_ANSI_X9_62_PRIME_FIELD, len ) != 0 )
 917              		.loc 1 283 71 view .LVU261
 918 006e 0028     		cmp	r0, #0
 919 0070 40F01E81 		bne	.L54
 289:D:/fchai/work/i-cube/I-CUBE-HUAWEI/Middlewares/Third_Party/Huawei/iot_link/network/dtls/mbedtls/mbedtls-2.16.2/library\pkparse.c **** 
 920              		.loc 1 289 5 is_stmt 1 view .LVU262
 289:D:/fchai/work/i-cube/I-CUBE-HUAWEI/Middlewares/Third_Party/Huawei/iot_link/network/dtls/mbedtls/mbedtls-2.16.2/library\pkparse.c **** 
 921              		.loc 1 289 7 is_stmt 0 view .LVU263
 922 0074 0734     		adds	r4, r4, #7
 292:D:/fchai/work/i-cube/I-CUBE-HUAWEI/Middlewares/Third_Party/Huawei/iot_link/network/dtls/mbedtls/mbedtls-2.16.2/library\pkparse.c ****         return( MBEDTLS_ERR_PK_KEY_INVALID_FORMAT + ret );
 923              		.loc 1 292 17 view .LVU264
 924 0076 05AA     		add	r2, sp, #20
 925 0078 3946     		mov	r1, r7
 926 007a 02A8     		add	r0, sp, #8
 289:D:/fchai/work/i-cube/I-CUBE-HUAWEI/Middlewares/Third_Party/Huawei/iot_link/network/dtls/mbedtls/mbedtls-2.16.2/library\pkparse.c **** 
 927              		.loc 1 289 7 view .LVU265
 928 007c 0294     		str	r4, [sp, #8]
 292:D:/fchai/work/i-cube/I-CUBE-HUAWEI/Middlewares/Third_Party/Huawei/iot_link/network/dtls/mbedtls/mbedtls-2.16.2/library\pkparse.c ****         return( MBEDTLS_ERR_PK_KEY_INVALID_FORMAT + ret );
 929              		.loc 1 292 5 is_stmt 1 view .LVU266
 292:D:/fchai/work/i-cube/I-CUBE-HUAWEI/Middlewares/Third_Party/Huawei/iot_link/network/dtls/mbedtls/mbedtls-2.16.2/library\pkparse.c ****         return( MBEDTLS_ERR_PK_KEY_INVALID_FORMAT + ret );
 930              		.loc 1 292 17 is_stmt 0 view .LVU267
 931 007e FFF7FEFF 		bl	mbedtls_asn1_get_mpi
 932              	.LVL101:
 292:D:/fchai/work/i-cube/I-CUBE-HUAWEI/Middlewares/Third_Party/Huawei/iot_link/network/dtls/mbedtls/mbedtls-2.16.2/library\pkparse.c ****         return( MBEDTLS_ERR_PK_KEY_INVALID_FORMAT + ret );
 933              		.loc 1 292 7 view .LVU268
 934 0082 B8B9     		cbnz	r0, .L91
 295:D:/fchai/work/i-cube/I-CUBE-HUAWEI/Middlewares/Third_Party/Huawei/iot_link/network/dtls/mbedtls/mbedtls-2.16.2/library\pkparse.c **** 
 935              		.loc 1 295 5 is_stmt 1 view .LVU269
 295:D:/fchai/work/i-cube/I-CUBE-HUAWEI/Middlewares/Third_Party/Huawei/iot_link/network/dtls/mbedtls/mbedtls-2.16.2/library\pkparse.c **** 
 936              		.loc 1 295 18 is_stmt 0 view .LVU270
 937 0084 05A8     		add	r0, sp, #20
 938              	.LVL102:
 295:D:/fchai/work/i-cube/I-CUBE-HUAWEI/Middlewares/Third_Party/Huawei/iot_link/network/dtls/mbedtls/mbedtls-2.16.2/library\pkparse.c **** 
 939              		.loc 1 295 18 view .LVU271
 940 0086 FFF7FEFF 		bl	mbedtls_mpi_bitlen
 941              	.LVL103:
 297:D:/fchai/work/i-cube/I-CUBE-HUAWEI/Middlewares/Third_Party/Huawei/iot_link/network/dtls/mbedtls/mbedtls-2.16.2/library\pkparse.c ****         return( MBEDTLS_ERR_PK_KEY_INVALID_FORMAT +
 942              		.loc 1 297 7 view .LVU272
 943 008a 029B     		ldr	r3, [sp, #8]
 295:D:/fchai/work/i-cube/I-CUBE-HUAWEI/Middlewares/Third_Party/Huawei/iot_link/network/dtls/mbedtls/mbedtls-2.16.2/library\pkparse.c **** 
 944              		.loc 1 295 16 view .LVU273
 945 008c 1A90     		str	r0, [sp, #104]
 297:D:/fchai/work/i-cube/I-CUBE-HUAWEI/Middlewares/Third_Party/Huawei/iot_link/network/dtls/mbedtls/mbedtls-2.16.2/library\pkparse.c ****         return( MBEDTLS_ERR_PK_KEY_INVALID_FORMAT +
 946              		.loc 1 297 5 is_stmt 1 view .LVU274
 297:D:/fchai/work/i-cube/I-CUBE-HUAWEI/Middlewares/Third_Party/Huawei/iot_link/network/dtls/mbedtls/mbedtls-2.16.2/library\pkparse.c ****         return( MBEDTLS_ERR_PK_KEY_INVALID_FORMAT +
 947              		.loc 1 297 7 is_stmt 0 view .LVU275
 948 008e 9F42     		cmp	r7, r3
 949 0090 40F01A81 		bne	.L77
 310:D:/fchai/work/i-cube/I-CUBE-HUAWEI/Middlewares/Third_Party/Huawei/iot_link/network/dtls/mbedtls/mbedtls-2.16.2/library\pkparse.c ****             MBEDTLS_ASN1_CONSTRUCTED | MBEDTLS_ASN1_SEQUENCE ) ) != 0 )
 950              		.loc 1 310 5 is_stmt 1 view .LVU276
 310:D:/fchai/work/i-cube/I-CUBE-HUAWEI/Middlewares/Third_Party/Huawei/iot_link/network/dtls/mbedtls/mbedtls-2.16.2/library\pkparse.c ****             MBEDTLS_ASN1_CONSTRUCTED | MBEDTLS_ASN1_SEQUENCE ) ) != 0 )
 951              		.loc 1 310 17 is_stmt 0 view .LVU277
 952 0094 3023     		movs	r3, #48
 953 0096 03AA     		add	r2, sp, #12
 954              	.LVL104:
 310:D:/fchai/work/i-cube/I-CUBE-HUAWEI/Middlewares/Third_Party/Huawei/iot_link/network/dtls/mbedtls/mbedtls-2.16.2/library\pkparse.c ****             MBEDTLS_ASN1_CONSTRUCTED | MBEDTLS_ASN1_SEQUENCE ) ) != 0 )
 955              		.loc 1 310 17 view .LVU278
ARM GAS  T:\msys\tmp\cc83OHoG.s 			page 36


 956 0098 3146     		mov	r1, r6
 957 009a 02A8     		add	r0, sp, #8
 958 009c FFF7FEFF 		bl	mbedtls_asn1_get_tag
 959              	.LVL105:
 310:D:/fchai/work/i-cube/I-CUBE-HUAWEI/Middlewares/Third_Party/Huawei/iot_link/network/dtls/mbedtls/mbedtls-2.16.2/library\pkparse.c ****             MBEDTLS_ASN1_CONSTRUCTED | MBEDTLS_ASN1_SEQUENCE ) ) != 0 )
 960              		.loc 1 310 7 view .LVU279
 961 00a0 0446     		mov	r4, r0
 962 00a2 0028     		cmp	r0, #0
 963 00a4 00F08180 		beq	.L94
 964              	.LVL106:
 965              	.L51:
 310:D:/fchai/work/i-cube/I-CUBE-HUAWEI/Middlewares/Third_Party/Huawei/iot_link/network/dtls/mbedtls/mbedtls-2.16.2/library\pkparse.c ****             MBEDTLS_ASN1_CONSTRUCTED | MBEDTLS_ASN1_SEQUENCE ) ) != 0 )
 966              		.loc 1 310 7 view .LVU280
 967              	.LBE42:
 968              	.LBE41:
 447:D:/fchai/work/i-cube/I-CUBE-HUAWEI/Middlewares/Third_Party/Huawei/iot_link/network/dtls/mbedtls/mbedtls-2.16.2/library\pkparse.c **** 
 969              		.loc 1 447 5 is_stmt 1 view .LVU281
 970 00a8 04A8     		add	r0, sp, #16
 971 00aa FFF7FEFF 		bl	mbedtls_ecp_group_free
 972              	.LVL107:
 449:D:/fchai/work/i-cube/I-CUBE-HUAWEI/Middlewares/Third_Party/Huawei/iot_link/network/dtls/mbedtls/mbedtls-2.16.2/library\pkparse.c **** }
 973              		.loc 1 449 5 view .LVU282
 974              	.L44:
 449:D:/fchai/work/i-cube/I-CUBE-HUAWEI/Middlewares/Third_Party/Huawei/iot_link/network/dtls/mbedtls/mbedtls-2.16.2/library\pkparse.c **** }
 975              		.loc 1 449 5 is_stmt 0 view .LVU283
 976              	.LBE40:
 977              	.LBE39:
 491:D:/fchai/work/i-cube/I-CUBE-HUAWEI/Middlewares/Third_Party/Huawei/iot_link/network/dtls/mbedtls/mbedtls-2.16.2/library\pkparse.c **** 
 978              		.loc 1 491 1 view .LVU284
 979 00ae 2046     		mov	r0, r4
 980 00b0 43B0     		add	sp, sp, #268
 981              	.LCFI20:
 982              		.cfi_remember_state
 983              		.cfi_def_cfa_offset 20
 984              		@ sp needed
 985 00b2 F0BD     		pop	{r4, r5, r6, r7, pc}
 986              	.LVL108:
 987              	.L91:
 988              	.LCFI21:
 989              		.cfi_restore_state
 990              	.LBB67:
 991              	.LBB63:
 992              	.LBB49:
 993              	.LBB43:
 374:D:/fchai/work/i-cube/I-CUBE-HUAWEI/Middlewares/Third_Party/Huawei/iot_link/network/dtls/mbedtls/mbedtls-2.16.2/library\pkparse.c **** 
 994              		.loc 1 374 9 is_stmt 1 view .LVU285
 374:D:/fchai/work/i-cube/I-CUBE-HUAWEI/Middlewares/Third_Party/Huawei/iot_link/network/dtls/mbedtls/mbedtls-2.16.2/library\pkparse.c **** 
 995              		.loc 1 374 51 is_stmt 0 view .LVU286
 996 00b4 A0F57454 		sub	r4, r0, #15616
 997              	.LVL109:
 374:D:/fchai/work/i-cube/I-CUBE-HUAWEI/Middlewares/Third_Party/Huawei/iot_link/network/dtls/mbedtls/mbedtls-2.16.2/library\pkparse.c **** 
 998              		.loc 1 374 51 view .LVU287
 999              	.LBE43:
 1000              	.LBE49:
 441:D:/fchai/work/i-cube/I-CUBE-HUAWEI/Middlewares/Third_Party/Huawei/iot_link/network/dtls/mbedtls/mbedtls-2.16.2/library\pkparse.c ****         goto cleanup;
 1001              		.loc 1 441 7 view .LVU288
 1002 00b8 002C     		cmp	r4, #0
ARM GAS  T:\msys\tmp\cc83OHoG.s 			page 37


 1003 00ba F5D1     		bne	.L51
 1004              	.LVL110:
 1005              	.L67:
 444:D:/fchai/work/i-cube/I-CUBE-HUAWEI/Middlewares/Third_Party/Huawei/iot_link/network/dtls/mbedtls/mbedtls-2.16.2/library\pkparse.c **** 
 1006              		.loc 1 444 5 is_stmt 1 view .LVU289
 1007              	.LBB50:
 1008              	.LBI50:
 389:D:/fchai/work/i-cube/I-CUBE-HUAWEI/Middlewares/Third_Party/Huawei/iot_link/network/dtls/mbedtls/mbedtls-2.16.2/library\pkparse.c **** {
 1009              		.loc 1 389 12 view .LVU290
 1010              	.LBB51:
 391:D:/fchai/work/i-cube/I-CUBE-HUAWEI/Middlewares/Third_Party/Huawei/iot_link/network/dtls/mbedtls/mbedtls-2.16.2/library\pkparse.c ****     mbedtls_ecp_group ref;
 1011              		.loc 1 391 5 view .LVU291
 392:D:/fchai/work/i-cube/I-CUBE-HUAWEI/Middlewares/Third_Party/Huawei/iot_link/network/dtls/mbedtls/mbedtls-2.16.2/library\pkparse.c ****     const mbedtls_ecp_group_id *id;
 1012              		.loc 1 392 5 view .LVU292
 393:D:/fchai/work/i-cube/I-CUBE-HUAWEI/Middlewares/Third_Party/Huawei/iot_link/network/dtls/mbedtls/mbedtls-2.16.2/library\pkparse.c **** 
 1013              		.loc 1 393 5 view .LVU293
 395:D:/fchai/work/i-cube/I-CUBE-HUAWEI/Middlewares/Third_Party/Huawei/iot_link/network/dtls/mbedtls/mbedtls-2.16.2/library\pkparse.c **** 
 1014              		.loc 1 395 5 view .LVU294
 1015 00bc 23A8     		add	r0, sp, #140
 1016 00be FFF7FEFF 		bl	mbedtls_ecp_group_init
 1017              	.LVL111:
 397:D:/fchai/work/i-cube/I-CUBE-HUAWEI/Middlewares/Third_Party/Huawei/iot_link/network/dtls/mbedtls/mbedtls-2.16.2/library\pkparse.c ****     {
 1018              		.loc 1 397 5 view .LVU295
 397:D:/fchai/work/i-cube/I-CUBE-HUAWEI/Middlewares/Third_Party/Huawei/iot_link/network/dtls/mbedtls/mbedtls-2.16.2/library\pkparse.c ****     {
 1019              		.loc 1 397 15 is_stmt 0 view .LVU296
 1020 00c2 FFF7FEFF 		bl	mbedtls_ecp_grp_id_list
 1021              	.LVL112:
 397:D:/fchai/work/i-cube/I-CUBE-HUAWEI/Middlewares/Third_Party/Huawei/iot_link/network/dtls/mbedtls/mbedtls-2.16.2/library\pkparse.c ****     {
 1022              		.loc 1 397 5 view .LVU297
 1023 00c6 0378     		ldrb	r3, [r0]	@ zero_extendqisi2
 397:D:/fchai/work/i-cube/I-CUBE-HUAWEI/Middlewares/Third_Party/Huawei/iot_link/network/dtls/mbedtls/mbedtls-2.16.2/library\pkparse.c ****     {
 1024              		.loc 1 397 15 view .LVU298
 1025 00c8 0646     		mov	r6, r0
 1026              	.LVL113:
 397:D:/fchai/work/i-cube/I-CUBE-HUAWEI/Middlewares/Third_Party/Huawei/iot_link/network/dtls/mbedtls/mbedtls-2.16.2/library\pkparse.c ****     {
 1027              		.loc 1 397 42 is_stmt 1 view .LVU299
 397:D:/fchai/work/i-cube/I-CUBE-HUAWEI/Middlewares/Third_Party/Huawei/iot_link/network/dtls/mbedtls/mbedtls-2.16.2/library\pkparse.c ****     {
 1028              		.loc 1 397 5 is_stmt 0 view .LVU300
 1029 00ca 23B9     		cbnz	r3, .L71
 1030 00cc 45E0     		b	.L68
 1031              	.LVL114:
 1032              	.L72:
 397:D:/fchai/work/i-cube/I-CUBE-HUAWEI/Middlewares/Third_Party/Huawei/iot_link/network/dtls/mbedtls/mbedtls-2.16.2/library\pkparse.c ****     {
 1033              		.loc 1 397 70 is_stmt 1 view .LVU301
 397:D:/fchai/work/i-cube/I-CUBE-HUAWEI/Middlewares/Third_Party/Huawei/iot_link/network/dtls/mbedtls/mbedtls-2.16.2/library\pkparse.c ****     {
 1034              		.loc 1 397 42 view .LVU302
 397:D:/fchai/work/i-cube/I-CUBE-HUAWEI/Middlewares/Third_Party/Huawei/iot_link/network/dtls/mbedtls/mbedtls-2.16.2/library\pkparse.c ****     {
 1035              		.loc 1 397 5 is_stmt 0 view .LVU303
 1036 00ce 16F8013F 		ldrb	r3, [r6, #1]!	@ zero_extendqisi2
 1037              	.LVL115:
 397:D:/fchai/work/i-cube/I-CUBE-HUAWEI/Middlewares/Third_Party/Huawei/iot_link/network/dtls/mbedtls/mbedtls-2.16.2/library\pkparse.c ****     {
 1038              		.loc 1 397 5 view .LVU304
 1039 00d2 002B     		cmp	r3, #0
 1040 00d4 41D0     		beq	.L68
 1041              	.L71:
 400:D:/fchai/work/i-cube/I-CUBE-HUAWEI/Middlewares/Third_Party/Huawei/iot_link/network/dtls/mbedtls/mbedtls-2.16.2/library\pkparse.c ****         MBEDTLS_MPI_CHK( mbedtls_ecp_group_load( &ref, *id ) );
 1042              		.loc 1 400 9 is_stmt 1 view .LVU305
ARM GAS  T:\msys\tmp\cc83OHoG.s 			page 38


 1043 00d6 23A8     		add	r0, sp, #140
 1044 00d8 FFF7FEFF 		bl	mbedtls_ecp_group_free
 1045              	.LVL116:
 401:D:/fchai/work/i-cube/I-CUBE-HUAWEI/Middlewares/Third_Party/Huawei/iot_link/network/dtls/mbedtls/mbedtls-2.16.2/library\pkparse.c **** 
 1046              		.loc 1 401 9 view .LVU306
 401:D:/fchai/work/i-cube/I-CUBE-HUAWEI/Middlewares/Third_Party/Huawei/iot_link/network/dtls/mbedtls/mbedtls-2.16.2/library\pkparse.c **** 
 1047              		.loc 1 401 9 view .LVU307
 1048 00dc 3178     		ldrb	r1, [r6]	@ zero_extendqisi2
 1049 00de 23A8     		add	r0, sp, #140
 1050 00e0 FFF7FEFF 		bl	mbedtls_ecp_group_load
 1051              	.LVL117:
 401:D:/fchai/work/i-cube/I-CUBE-HUAWEI/Middlewares/Third_Party/Huawei/iot_link/network/dtls/mbedtls/mbedtls-2.16.2/library\pkparse.c **** 
 1052              		.loc 1 401 9 is_stmt 0 view .LVU308
 1053 00e4 0446     		mov	r4, r0
 1054 00e6 0028     		cmp	r0, #0
 1055 00e8 58D1     		bne	.L69
 401:D:/fchai/work/i-cube/I-CUBE-HUAWEI/Middlewares/Third_Party/Huawei/iot_link/network/dtls/mbedtls/mbedtls-2.16.2/library\pkparse.c **** 
 1056              		.loc 1 401 9 is_stmt 1 view .LVU309
 404:D:/fchai/work/i-cube/I-CUBE-HUAWEI/Middlewares/Third_Party/Huawei/iot_link/network/dtls/mbedtls/mbedtls-2.16.2/library\pkparse.c ****             mbedtls_mpi_cmp_mpi( &grp->P, &ref.P ) == 0 &&
 1057              		.loc 1 404 9 view .LVU310
 404:D:/fchai/work/i-cube/I-CUBE-HUAWEI/Middlewares/Third_Party/Huawei/iot_link/network/dtls/mbedtls/mbedtls-2.16.2/library\pkparse.c ****             mbedtls_mpi_cmp_mpi( &grp->P, &ref.P ) == 0 &&
 1058              		.loc 1 404 11 is_stmt 0 view .LVU311
 1059 00ea 1A9A     		ldr	r2, [sp, #104]
 1060 00ec 399B     		ldr	r3, [sp, #228]
 1061 00ee 9A42     		cmp	r2, r3
 1062 00f0 EDD1     		bne	.L72
 404:D:/fchai/work/i-cube/I-CUBE-HUAWEI/Middlewares/Third_Party/Huawei/iot_link/network/dtls/mbedtls/mbedtls-2.16.2/library\pkparse.c ****             mbedtls_mpi_cmp_mpi( &grp->P, &ref.P ) == 0 &&
 1063              		.loc 1 404 37 view .LVU312
 1064 00f2 1B9A     		ldr	r2, [sp, #108]
 1065 00f4 3A9B     		ldr	r3, [sp, #232]
 1066 00f6 9A42     		cmp	r2, r3
 1067 00f8 E9D1     		bne	.L72
 405:D:/fchai/work/i-cube/I-CUBE-HUAWEI/Middlewares/Third_Party/Huawei/iot_link/network/dtls/mbedtls/mbedtls-2.16.2/library\pkparse.c ****             mbedtls_mpi_cmp_mpi( &grp->A, &ref.A ) == 0 &&
 1068              		.loc 1 405 13 view .LVU313
 1069 00fa 24A9     		add	r1, sp, #144
 1070 00fc 05A8     		add	r0, sp, #20
 1071              	.LVL118:
 405:D:/fchai/work/i-cube/I-CUBE-HUAWEI/Middlewares/Third_Party/Huawei/iot_link/network/dtls/mbedtls/mbedtls-2.16.2/library\pkparse.c ****             mbedtls_mpi_cmp_mpi( &grp->A, &ref.A ) == 0 &&
 1072              		.loc 1 405 13 view .LVU314
 1073 00fe FFF7FEFF 		bl	mbedtls_mpi_cmp_mpi
 1074              	.LVL119:
 404:D:/fchai/work/i-cube/I-CUBE-HUAWEI/Middlewares/Third_Party/Huawei/iot_link/network/dtls/mbedtls/mbedtls-2.16.2/library\pkparse.c ****             mbedtls_mpi_cmp_mpi( &grp->P, &ref.P ) == 0 &&
 1075              		.loc 1 404 64 view .LVU315
 1076 0102 0028     		cmp	r0, #0
 1077 0104 E3D1     		bne	.L72
 406:D:/fchai/work/i-cube/I-CUBE-HUAWEI/Middlewares/Third_Party/Huawei/iot_link/network/dtls/mbedtls/mbedtls-2.16.2/library\pkparse.c ****             mbedtls_mpi_cmp_mpi( &grp->B, &ref.B ) == 0 &&
 1078              		.loc 1 406 13 view .LVU316
 1079 0106 27A9     		add	r1, sp, #156
 1080 0108 08A8     		add	r0, sp, #32
 1081 010a FFF7FEFF 		bl	mbedtls_mpi_cmp_mpi
 1082              	.LVL120:
 405:D:/fchai/work/i-cube/I-CUBE-HUAWEI/Middlewares/Third_Party/Huawei/iot_link/network/dtls/mbedtls/mbedtls-2.16.2/library\pkparse.c ****             mbedtls_mpi_cmp_mpi( &grp->A, &ref.A ) == 0 &&
 1083              		.loc 1 405 57 view .LVU317
 1084 010e 0028     		cmp	r0, #0
 1085 0110 DDD1     		bne	.L72
 407:D:/fchai/work/i-cube/I-CUBE-HUAWEI/Middlewares/Third_Party/Huawei/iot_link/network/dtls/mbedtls/mbedtls-2.16.2/library\pkparse.c ****             mbedtls_mpi_cmp_mpi( &grp->N, &ref.N ) == 0 &&
 1086              		.loc 1 407 13 view .LVU318
ARM GAS  T:\msys\tmp\cc83OHoG.s 			page 39


 1087 0112 2AA9     		add	r1, sp, #168
 1088 0114 0BA8     		add	r0, sp, #44
 1089 0116 FFF7FEFF 		bl	mbedtls_mpi_cmp_mpi
 1090              	.LVL121:
 406:D:/fchai/work/i-cube/I-CUBE-HUAWEI/Middlewares/Third_Party/Huawei/iot_link/network/dtls/mbedtls/mbedtls-2.16.2/library\pkparse.c ****             mbedtls_mpi_cmp_mpi( &grp->B, &ref.B ) == 0 &&
 1091              		.loc 1 406 57 view .LVU319
 1092 011a 0028     		cmp	r0, #0
 1093 011c D7D1     		bne	.L72
 408:D:/fchai/work/i-cube/I-CUBE-HUAWEI/Middlewares/Third_Party/Huawei/iot_link/network/dtls/mbedtls/mbedtls-2.16.2/library\pkparse.c ****             mbedtls_mpi_cmp_mpi( &grp->G.X, &ref.G.X ) == 0 &&
 1094              		.loc 1 408 13 view .LVU320
 1095 011e 36A9     		add	r1, sp, #216
 1096 0120 17A8     		add	r0, sp, #92
 1097 0122 FFF7FEFF 		bl	mbedtls_mpi_cmp_mpi
 1098              	.LVL122:
 407:D:/fchai/work/i-cube/I-CUBE-HUAWEI/Middlewares/Third_Party/Huawei/iot_link/network/dtls/mbedtls/mbedtls-2.16.2/library\pkparse.c ****             mbedtls_mpi_cmp_mpi( &grp->N, &ref.N ) == 0 &&
 1099              		.loc 1 407 57 view .LVU321
 1100 0126 0028     		cmp	r0, #0
 1101 0128 D1D1     		bne	.L72
 409:D:/fchai/work/i-cube/I-CUBE-HUAWEI/Middlewares/Third_Party/Huawei/iot_link/network/dtls/mbedtls/mbedtls-2.16.2/library\pkparse.c ****             mbedtls_mpi_cmp_mpi( &grp->G.Z, &ref.G.Z ) == 0 &&
 1102              		.loc 1 409 13 view .LVU322
 1103 012a 2DA9     		add	r1, sp, #180
 1104 012c 0EA8     		add	r0, sp, #56
 1105 012e FFF7FEFF 		bl	mbedtls_mpi_cmp_mpi
 1106              	.LVL123:
 408:D:/fchai/work/i-cube/I-CUBE-HUAWEI/Middlewares/Third_Party/Huawei/iot_link/network/dtls/mbedtls/mbedtls-2.16.2/library\pkparse.c ****             mbedtls_mpi_cmp_mpi( &grp->G.X, &ref.G.X ) == 0 &&
 1107              		.loc 1 408 57 view .LVU323
 1108 0132 0028     		cmp	r0, #0
 1109 0134 CBD1     		bne	.L72
 410:D:/fchai/work/i-cube/I-CUBE-HUAWEI/Middlewares/Third_Party/Huawei/iot_link/network/dtls/mbedtls/mbedtls-2.16.2/library\pkparse.c ****             /* For Y we may only know the parity bit, so compare only that */
 1110              		.loc 1 410 13 view .LVU324
 1111 0136 33A9     		add	r1, sp, #204
 1112 0138 14A8     		add	r0, sp, #80
 1113 013a FFF7FEFF 		bl	mbedtls_mpi_cmp_mpi
 1114              	.LVL124:
 409:D:/fchai/work/i-cube/I-CUBE-HUAWEI/Middlewares/Third_Party/Huawei/iot_link/network/dtls/mbedtls/mbedtls-2.16.2/library\pkparse.c ****             mbedtls_mpi_cmp_mpi( &grp->G.Z, &ref.G.Z ) == 0 &&
 1115              		.loc 1 409 61 view .LVU325
 1116 013e 0146     		mov	r1, r0
 1117 0140 0028     		cmp	r0, #0
 1118 0142 C4D1     		bne	.L72
 412:D:/fchai/work/i-cube/I-CUBE-HUAWEI/Middlewares/Third_Party/Huawei/iot_link/network/dtls/mbedtls/mbedtls-2.16.2/library\pkparse.c ****         {
 1119              		.loc 1 412 13 view .LVU326
 1120 0144 0190     		str	r0, [sp, #4]
 1121 0146 11A8     		add	r0, sp, #68
 1122 0148 FFF7FEFF 		bl	mbedtls_mpi_get_bit
 1123              	.LVL125:
 412:D:/fchai/work/i-cube/I-CUBE-HUAWEI/Middlewares/Third_Party/Huawei/iot_link/network/dtls/mbedtls/mbedtls-2.16.2/library\pkparse.c ****         {
 1124              		.loc 1 412 52 view .LVU327
 1125 014c 0199     		ldr	r1, [sp, #4]
 412:D:/fchai/work/i-cube/I-CUBE-HUAWEI/Middlewares/Third_Party/Huawei/iot_link/network/dtls/mbedtls/mbedtls-2.16.2/library\pkparse.c ****         {
 1126              		.loc 1 412 13 view .LVU328
 1127 014e 0446     		mov	r4, r0
 1128              	.LVL126:
 412:D:/fchai/work/i-cube/I-CUBE-HUAWEI/Middlewares/Third_Party/Huawei/iot_link/network/dtls/mbedtls/mbedtls-2.16.2/library\pkparse.c ****         {
 1129              		.loc 1 412 52 view .LVU329
 1130 0150 30A8     		add	r0, sp, #192
 1131 0152 FFF7FEFF 		bl	mbedtls_mpi_get_bit
 1132              	.LVL127:
ARM GAS  T:\msys\tmp\cc83OHoG.s 			page 40


 410:D:/fchai/work/i-cube/I-CUBE-HUAWEI/Middlewares/Third_Party/Huawei/iot_link/network/dtls/mbedtls/mbedtls-2.16.2/library\pkparse.c ****             /* For Y we may only know the parity bit, so compare only that */
 1133              		.loc 1 410 61 view .LVU330
 1134 0156 8442     		cmp	r4, r0
 1135 0158 B9D1     		bne	.L72
 1136              	.L68:
 1137              	.LVL128:
 420:D:/fchai/work/i-cube/I-CUBE-HUAWEI/Middlewares/Third_Party/Huawei/iot_link/network/dtls/mbedtls/mbedtls-2.16.2/library\pkparse.c **** 
 1138              		.loc 1 420 5 is_stmt 1 view .LVU331
 1139 015a 23A8     		add	r0, sp, #140
 1140 015c FFF7FEFF 		bl	mbedtls_ecp_group_free
 1141              	.LVL129:
 422:D:/fchai/work/i-cube/I-CUBE-HUAWEI/Middlewares/Third_Party/Huawei/iot_link/network/dtls/mbedtls/mbedtls-2.16.2/library\pkparse.c **** 
 1142              		.loc 1 422 5 view .LVU332
 422:D:/fchai/work/i-cube/I-CUBE-HUAWEI/Middlewares/Third_Party/Huawei/iot_link/network/dtls/mbedtls/mbedtls-2.16.2/library\pkparse.c **** 
 1143              		.loc 1 422 15 is_stmt 0 view .LVU333
 1144 0160 3378     		ldrb	r3, [r6]	@ zero_extendqisi2
 422:D:/fchai/work/i-cube/I-CUBE-HUAWEI/Middlewares/Third_Party/Huawei/iot_link/network/dtls/mbedtls/mbedtls-2.16.2/library\pkparse.c **** 
 1145              		.loc 1 422 13 view .LVU334
 1146 0162 8DF80C30 		strb	r3, [sp, #12]
 424:D:/fchai/work/i-cube/I-CUBE-HUAWEI/Middlewares/Third_Party/Huawei/iot_link/network/dtls/mbedtls/mbedtls-2.16.2/library\pkparse.c ****         ret = MBEDTLS_ERR_ECP_FEATURE_UNAVAILABLE;
 1147              		.loc 1 424 5 is_stmt 1 view .LVU335
 424:D:/fchai/work/i-cube/I-CUBE-HUAWEI/Middlewares/Third_Party/Huawei/iot_link/network/dtls/mbedtls/mbedtls-2.16.2/library\pkparse.c ****         ret = MBEDTLS_ERR_ECP_FEATURE_UNAVAILABLE;
 1148              		.loc 1 424 18 is_stmt 0 view .LVU336
 1149 0166 002B     		cmp	r3, #0
 1150 0168 00F0A980 		beq	.L95
 427:D:/fchai/work/i-cube/I-CUBE-HUAWEI/Middlewares/Third_Party/Huawei/iot_link/network/dtls/mbedtls/mbedtls-2.16.2/library\pkparse.c **** }
 1151              		.loc 1 427 5 is_stmt 1 view .LVU337
 1152              	.LVL130:
 427:D:/fchai/work/i-cube/I-CUBE-HUAWEI/Middlewares/Third_Party/Huawei/iot_link/network/dtls/mbedtls/mbedtls-2.16.2/library\pkparse.c **** }
 1153              		.loc 1 427 5 is_stmt 0 view .LVU338
 1154              	.LBE51:
 1155              	.LBE50:
 447:D:/fchai/work/i-cube/I-CUBE-HUAWEI/Middlewares/Third_Party/Huawei/iot_link/network/dtls/mbedtls/mbedtls-2.16.2/library\pkparse.c **** 
 1156              		.loc 1 447 5 is_stmt 1 view .LVU339
 1157 016c 04A8     		add	r0, sp, #16
 1158 016e FFF7FEFF 		bl	mbedtls_ecp_group_free
 1159              	.LVL131:
 449:D:/fchai/work/i-cube/I-CUBE-HUAWEI/Middlewares/Third_Party/Huawei/iot_link/network/dtls/mbedtls/mbedtls-2.16.2/library\pkparse.c **** }
 1160              		.loc 1 449 5 view .LVU340
 449:D:/fchai/work/i-cube/I-CUBE-HUAWEI/Middlewares/Third_Party/Huawei/iot_link/network/dtls/mbedtls/mbedtls-2.16.2/library\pkparse.c **** }
 1161              		.loc 1 449 5 is_stmt 0 view .LVU341
 1162 0172 05E0     		b	.L47
 1163              	.LVL132:
 1164              	.L92:
 449:D:/fchai/work/i-cube/I-CUBE-HUAWEI/Middlewares/Third_Party/Huawei/iot_link/network/dtls/mbedtls/mbedtls-2.16.2/library\pkparse.c **** }
 1165              		.loc 1 449 5 view .LVU342
 1166              	.LBE63:
 1167              	.LBE67:
 468:D:/fchai/work/i-cube/I-CUBE-HUAWEI/Middlewares/Third_Party/Huawei/iot_link/network/dtls/mbedtls/mbedtls-2.16.2/library\pkparse.c ****             return( MBEDTLS_ERR_PK_UNKNOWN_NAMED_CURVE );
 1168              		.loc 1 468 9 is_stmt 1 view .LVU343
 468:D:/fchai/work/i-cube/I-CUBE-HUAWEI/Middlewares/Third_Party/Huawei/iot_link/network/dtls/mbedtls/mbedtls-2.16.2/library\pkparse.c ****             return( MBEDTLS_ERR_PK_UNKNOWN_NAMED_CURVE );
 1169              		.loc 1 468 13 is_stmt 0 view .LVU344
 1170 0174 03A9     		add	r1, sp, #12
 1171              	.LVL133:
 468:D:/fchai/work/i-cube/I-CUBE-HUAWEI/Middlewares/Third_Party/Huawei/iot_link/network/dtls/mbedtls/mbedtls-2.16.2/library\pkparse.c ****             return( MBEDTLS_ERR_PK_UNKNOWN_NAMED_CURVE );
 1172              		.loc 1 468 13 view .LVU345
 1173 0176 FFF7FEFF 		bl	mbedtls_oid_get_ec_grp
ARM GAS  T:\msys\tmp\cc83OHoG.s 			page 41


 1174              	.LVL134:
 468:D:/fchai/work/i-cube/I-CUBE-HUAWEI/Middlewares/Third_Party/Huawei/iot_link/network/dtls/mbedtls/mbedtls-2.16.2/library\pkparse.c ****             return( MBEDTLS_ERR_PK_UNKNOWN_NAMED_CURVE );
 1175              		.loc 1 468 11 view .LVU346
 1176 017a 0028     		cmp	r0, #0
 1177 017c 40F09D80 		bne	.L96
 1178              	.L47:
 484:D:/fchai/work/i-cube/I-CUBE-HUAWEI/Middlewares/Third_Party/Huawei/iot_link/network/dtls/mbedtls/mbedtls-2.16.2/library\pkparse.c ****         return( MBEDTLS_ERR_PK_KEY_INVALID_FORMAT );
 1179              		.loc 1 484 5 is_stmt 1 view .LVU347
 484:D:/fchai/work/i-cube/I-CUBE-HUAWEI/Middlewares/Third_Party/Huawei/iot_link/network/dtls/mbedtls/mbedtls-2.16.2/library\pkparse.c ****         return( MBEDTLS_ERR_PK_KEY_INVALID_FORMAT );
 1180              		.loc 1 484 12 is_stmt 0 view .LVU348
 1181 0180 2B78     		ldrb	r3, [r5]	@ zero_extendqisi2
 484:D:/fchai/work/i-cube/I-CUBE-HUAWEI/Middlewares/Third_Party/Huawei/iot_link/network/dtls/mbedtls/mbedtls-2.16.2/library\pkparse.c ****         return( MBEDTLS_ERR_PK_KEY_INVALID_FORMAT );
 1182              		.loc 1 484 51 view .LVU349
 1183 0182 9DF80C10 		ldrb	r1, [sp, #12]	@ zero_extendqisi2
 484:D:/fchai/work/i-cube/I-CUBE-HUAWEI/Middlewares/Third_Party/Huawei/iot_link/network/dtls/mbedtls/mbedtls-2.16.2/library\pkparse.c ****         return( MBEDTLS_ERR_PK_KEY_INVALID_FORMAT );
 1184              		.loc 1 484 7 view .LVU350
 1185 0186 13B1     		cbz	r3, .L74
 484:D:/fchai/work/i-cube/I-CUBE-HUAWEI/Middlewares/Third_Party/Huawei/iot_link/network/dtls/mbedtls/mbedtls-2.16.2/library\pkparse.c ****         return( MBEDTLS_ERR_PK_KEY_INVALID_FORMAT );
 1186              		.loc 1 484 40 discriminator 1 view .LVU351
 1187 0188 8B42     		cmp	r3, r1
 1188 018a 40F08D80 		bne	.L80
 1189              	.L74:
 487:D:/fchai/work/i-cube/I-CUBE-HUAWEI/Middlewares/Third_Party/Huawei/iot_link/network/dtls/mbedtls/mbedtls-2.16.2/library\pkparse.c ****         return( ret );
 1190              		.loc 1 487 5 is_stmt 1 view .LVU352
 487:D:/fchai/work/i-cube/I-CUBE-HUAWEI/Middlewares/Third_Party/Huawei/iot_link/network/dtls/mbedtls/mbedtls-2.16.2/library\pkparse.c ****         return( ret );
 1191              		.loc 1 487 17 is_stmt 0 view .LVU353
 1192 018e 2846     		mov	r0, r5
 1193 0190 FFF7FEFF 		bl	mbedtls_ecp_group_load
 1194              	.LVL135:
 1195 0194 0446     		mov	r4, r0
 1196              	.LVL136:
 491:D:/fchai/work/i-cube/I-CUBE-HUAWEI/Middlewares/Third_Party/Huawei/iot_link/network/dtls/mbedtls/mbedtls-2.16.2/library\pkparse.c **** 
 1197              		.loc 1 491 1 view .LVU354
 1198 0196 2046     		mov	r0, r4
 491:D:/fchai/work/i-cube/I-CUBE-HUAWEI/Middlewares/Third_Party/Huawei/iot_link/network/dtls/mbedtls/mbedtls-2.16.2/library\pkparse.c **** 
 1199              		.loc 1 491 1 view .LVU355
 1200 0198 43B0     		add	sp, sp, #268
 1201              	.LCFI22:
 1202              		.cfi_remember_state
 1203              		.cfi_def_cfa_offset 20
 1204              		@ sp needed
 1205 019a F0BD     		pop	{r4, r5, r6, r7, pc}
 1206              	.LVL137:
 1207              	.L69:
 1208              	.LCFI23:
 1209              		.cfi_restore_state
 1210              	.LBB68:
 1211              	.LBB64:
 1212              	.LBB55:
 1213              	.LBB52:
 420:D:/fchai/work/i-cube/I-CUBE-HUAWEI/Middlewares/Third_Party/Huawei/iot_link/network/dtls/mbedtls/mbedtls-2.16.2/library\pkparse.c **** 
 1214              		.loc 1 420 5 is_stmt 1 view .LVU356
 1215 019c 23A8     		add	r0, sp, #140
 1216              	.LVL138:
 420:D:/fchai/work/i-cube/I-CUBE-HUAWEI/Middlewares/Third_Party/Huawei/iot_link/network/dtls/mbedtls/mbedtls-2.16.2/library\pkparse.c **** 
 1217              		.loc 1 420 5 is_stmt 0 view .LVU357
 1218 019e FFF7FEFF 		bl	mbedtls_ecp_group_free
ARM GAS  T:\msys\tmp\cc83OHoG.s 			page 42


 1219              	.LVL139:
 422:D:/fchai/work/i-cube/I-CUBE-HUAWEI/Middlewares/Third_Party/Huawei/iot_link/network/dtls/mbedtls/mbedtls-2.16.2/library\pkparse.c **** 
 1220              		.loc 1 422 5 is_stmt 1 view .LVU358
 422:D:/fchai/work/i-cube/I-CUBE-HUAWEI/Middlewares/Third_Party/Huawei/iot_link/network/dtls/mbedtls/mbedtls-2.16.2/library\pkparse.c **** 
 1221              		.loc 1 422 15 is_stmt 0 view .LVU359
 1222 01a2 3378     		ldrb	r3, [r6]	@ zero_extendqisi2
 422:D:/fchai/work/i-cube/I-CUBE-HUAWEI/Middlewares/Third_Party/Huawei/iot_link/network/dtls/mbedtls/mbedtls-2.16.2/library\pkparse.c **** 
 1223              		.loc 1 422 13 view .LVU360
 1224 01a4 8DF80C30 		strb	r3, [sp, #12]
 424:D:/fchai/work/i-cube/I-CUBE-HUAWEI/Middlewares/Third_Party/Huawei/iot_link/network/dtls/mbedtls/mbedtls-2.16.2/library\pkparse.c ****         ret = MBEDTLS_ERR_ECP_FEATURE_UNAVAILABLE;
 1225              		.loc 1 424 5 is_stmt 1 view .LVU361
 427:D:/fchai/work/i-cube/I-CUBE-HUAWEI/Middlewares/Third_Party/Huawei/iot_link/network/dtls/mbedtls/mbedtls-2.16.2/library\pkparse.c **** }
 1226              		.loc 1 427 5 view .LVU362
 1227              	.LVL140:
 427:D:/fchai/work/i-cube/I-CUBE-HUAWEI/Middlewares/Third_Party/Huawei/iot_link/network/dtls/mbedtls/mbedtls-2.16.2/library\pkparse.c **** }
 1228              		.loc 1 427 5 is_stmt 0 view .LVU363
 1229 01a8 7EE7     		b	.L51
 1230              	.LVL141:
 1231              	.L94:
 427:D:/fchai/work/i-cube/I-CUBE-HUAWEI/Middlewares/Third_Party/Huawei/iot_link/network/dtls/mbedtls/mbedtls-2.16.2/library\pkparse.c **** }
 1232              		.loc 1 427 5 view .LVU364
 1233              	.LBE52:
 1234              	.LBE55:
 1235              	.LBB56:
 1236              	.LBB44:
 314:D:/fchai/work/i-cube/I-CUBE-HUAWEI/Middlewares/Third_Party/Huawei/iot_link/network/dtls/mbedtls/mbedtls-2.16.2/library\pkparse.c **** 
 1237              		.loc 1 314 5 is_stmt 1 view .LVU365
 314:D:/fchai/work/i-cube/I-CUBE-HUAWEI/Middlewares/Third_Party/Huawei/iot_link/network/dtls/mbedtls/mbedtls-2.16.2/library\pkparse.c **** 
 1238              		.loc 1 314 15 is_stmt 0 view .LVU366
 1239 01aa DDE90273 		ldrd	r7, r3, [sp, #8]
 1240              	.LVL142:
 314:D:/fchai/work/i-cube/I-CUBE-HUAWEI/Middlewares/Third_Party/Huawei/iot_link/network/dtls/mbedtls/mbedtls-2.16.2/library\pkparse.c **** 
 1241              		.loc 1 314 15 view .LVU367
 1242 01ae 1F44     		add	r7, r7, r3
 1243              	.LVL143:
 320:D:/fchai/work/i-cube/I-CUBE-HUAWEI/Middlewares/Third_Party/Huawei/iot_link/network/dtls/mbedtls/mbedtls-2.16.2/library\pkparse.c ****         ( ret = mbedtls_mpi_read_binary( &grp->A, p, len ) ) != 0 )
 1244              		.loc 1 320 5 is_stmt 1 view .LVU368
 320:D:/fchai/work/i-cube/I-CUBE-HUAWEI/Middlewares/Third_Party/Huawei/iot_link/network/dtls/mbedtls/mbedtls-2.16.2/library\pkparse.c ****         ( ret = mbedtls_mpi_read_binary( &grp->A, p, len ) ) != 0 )
 1245              		.loc 1 320 17 is_stmt 0 view .LVU369
 1246 01b0 3946     		mov	r1, r7
 1247 01b2 0423     		movs	r3, #4
 1248 01b4 03AA     		add	r2, sp, #12
 1249              	.LVL144:
 320:D:/fchai/work/i-cube/I-CUBE-HUAWEI/Middlewares/Third_Party/Huawei/iot_link/network/dtls/mbedtls/mbedtls-2.16.2/library\pkparse.c ****         ( ret = mbedtls_mpi_read_binary( &grp->A, p, len ) ) != 0 )
 1250              		.loc 1 320 17 view .LVU370
 1251 01b6 02A8     		add	r0, sp, #8
 1252              	.LVL145:
 320:D:/fchai/work/i-cube/I-CUBE-HUAWEI/Middlewares/Third_Party/Huawei/iot_link/network/dtls/mbedtls/mbedtls-2.16.2/library\pkparse.c ****         ( ret = mbedtls_mpi_read_binary( &grp->A, p, len ) ) != 0 )
 1253              		.loc 1 320 17 view .LVU371
 1254 01b8 FFF7FEFF 		bl	mbedtls_asn1_get_tag
 1255              	.LVL146:
 320:D:/fchai/work/i-cube/I-CUBE-HUAWEI/Middlewares/Third_Party/Huawei/iot_link/network/dtls/mbedtls/mbedtls-2.16.2/library\pkparse.c ****         ( ret = mbedtls_mpi_read_binary( &grp->A, p, len ) ) != 0 )
 1256              		.loc 1 320 7 view .LVU372
 1257 01bc 0028     		cmp	r0, #0
 1258 01be 7FF479AF 		bne	.L91
 321:D:/fchai/work/i-cube/I-CUBE-HUAWEI/Middlewares/Third_Party/Huawei/iot_link/network/dtls/mbedtls/mbedtls-2.16.2/library\pkparse.c ****     {
 1259              		.loc 1 321 17 view .LVU373
ARM GAS  T:\msys\tmp\cc83OHoG.s 			page 43


 1260 01c2 DDE90212 		ldrd	r1, r2, [sp, #8]
 1261 01c6 08A8     		add	r0, sp, #32
 1262              	.LVL147:
 321:D:/fchai/work/i-cube/I-CUBE-HUAWEI/Middlewares/Third_Party/Huawei/iot_link/network/dtls/mbedtls/mbedtls-2.16.2/library\pkparse.c ****     {
 1263              		.loc 1 321 17 view .LVU374
 1264 01c8 FFF7FEFF 		bl	mbedtls_mpi_read_binary
 1265              	.LVL148:
 320:D:/fchai/work/i-cube/I-CUBE-HUAWEI/Middlewares/Third_Party/Huawei/iot_link/network/dtls/mbedtls/mbedtls-2.16.2/library\pkparse.c ****         ( ret = mbedtls_mpi_read_binary( &grp->A, p, len ) ) != 0 )
 1266              		.loc 1 320 95 view .LVU375
 1267 01cc 0028     		cmp	r0, #0
 1268 01ce 7FF471AF 		bne	.L91
 326:D:/fchai/work/i-cube/I-CUBE-HUAWEI/Middlewares/Third_Party/Huawei/iot_link/network/dtls/mbedtls/mbedtls-2.16.2/library\pkparse.c **** 
 1269              		.loc 1 326 5 is_stmt 1 view .LVU376
 326:D:/fchai/work/i-cube/I-CUBE-HUAWEI/Middlewares/Third_Party/Huawei/iot_link/network/dtls/mbedtls/mbedtls-2.16.2/library\pkparse.c **** 
 1270              		.loc 1 326 7 is_stmt 0 view .LVU377
 1271 01d2 DDE90224 		ldrd	r2, r4, [sp, #8]
 328:D:/fchai/work/i-cube/I-CUBE-HUAWEI/Middlewares/Third_Party/Huawei/iot_link/network/dtls/mbedtls/mbedtls-2.16.2/library\pkparse.c ****         ( ret = mbedtls_mpi_read_binary( &grp->B, p, len ) ) != 0 )
 1272              		.loc 1 328 17 view .LVU378
 1273 01d6 0423     		movs	r3, #4
 326:D:/fchai/work/i-cube/I-CUBE-HUAWEI/Middlewares/Third_Party/Huawei/iot_link/network/dtls/mbedtls/mbedtls-2.16.2/library\pkparse.c **** 
 1274              		.loc 1 326 7 view .LVU379
 1275 01d8 1444     		add	r4, r4, r2
 328:D:/fchai/work/i-cube/I-CUBE-HUAWEI/Middlewares/Third_Party/Huawei/iot_link/network/dtls/mbedtls/mbedtls-2.16.2/library\pkparse.c ****         ( ret = mbedtls_mpi_read_binary( &grp->B, p, len ) ) != 0 )
 1276              		.loc 1 328 17 view .LVU380
 1277 01da 3946     		mov	r1, r7
 1278 01dc 03AA     		add	r2, sp, #12
 1279              	.LVL149:
 328:D:/fchai/work/i-cube/I-CUBE-HUAWEI/Middlewares/Third_Party/Huawei/iot_link/network/dtls/mbedtls/mbedtls-2.16.2/library\pkparse.c ****         ( ret = mbedtls_mpi_read_binary( &grp->B, p, len ) ) != 0 )
 1280              		.loc 1 328 17 view .LVU381
 1281 01de 02A8     		add	r0, sp, #8
 1282              	.LVL150:
 326:D:/fchai/work/i-cube/I-CUBE-HUAWEI/Middlewares/Third_Party/Huawei/iot_link/network/dtls/mbedtls/mbedtls-2.16.2/library\pkparse.c **** 
 1283              		.loc 1 326 7 view .LVU382
 1284 01e0 0294     		str	r4, [sp, #8]
 328:D:/fchai/work/i-cube/I-CUBE-HUAWEI/Middlewares/Third_Party/Huawei/iot_link/network/dtls/mbedtls/mbedtls-2.16.2/library\pkparse.c ****         ( ret = mbedtls_mpi_read_binary( &grp->B, p, len ) ) != 0 )
 1285              		.loc 1 328 5 is_stmt 1 view .LVU383
 328:D:/fchai/work/i-cube/I-CUBE-HUAWEI/Middlewares/Third_Party/Huawei/iot_link/network/dtls/mbedtls/mbedtls-2.16.2/library\pkparse.c ****         ( ret = mbedtls_mpi_read_binary( &grp->B, p, len ) ) != 0 )
 1286              		.loc 1 328 17 is_stmt 0 view .LVU384
 1287 01e2 FFF7FEFF 		bl	mbedtls_asn1_get_tag
 1288              	.LVL151:
