ARM GAS  T:\msys\tmp\cc83OHoG.s 			page 1


   1              		.cpu cortex-m4
   2              		.eabi_attribute 27, 1
   3              		.eabi_attribute 28, 1
   4              		.eabi_attribute 20, 1
   5              		.eabi_attribute 21, 1
   6              		.eabi_attribute 23, 3
   7              		.eabi_attribute 24, 1
   8              		.eabi_attribute 25, 1
   9              		.eabi_attribute 26, 1
  10              		.eabi_attribute 30, 2
  11              		.eabi_attribute 34, 1
  12              		.eabi_attribute 18, 4
  13              		.file	"pkparse.c"
  14              		.text
  15              	.Ltext0:
  16              		.cfi_sections	.debug_frame
  17              		.section	.text.pk_get_rsapubkey,"ax",%progbits
  18              		.align	1
  19              		.p2align 2,,3
  20              		.arch armv7e-m
  21              		.syntax unified
  22              		.thumb
  23              		.thumb_func
  24              		.fpu fpv4-sp-d16
  26              	pk_get_rsapubkey:
  27              	.LVL0:
  28              	.LFB19:
  29              		.file 1 "D:/fchai/work/i-cube/I-CUBE-HUAWEI/Middlewares/Third_Party/Huawei/iot_link/network/dtls/m
   1:D:/fchai/work/i-cube/I-CUBE-HUAWEI/Middlewares/Third_Party/Huawei/iot_link/network/dtls/mbedtls/mbedtls-2.16.2/library\pkparse.c **** /*
   2:D:/fchai/work/i-cube/I-CUBE-HUAWEI/Middlewares/Third_Party/Huawei/iot_link/network/dtls/mbedtls/mbedtls-2.16.2/library\pkparse.c ****  *  Public Key layer for parsing key files and structures
   3:D:/fchai/work/i-cube/I-CUBE-HUAWEI/Middlewares/Third_Party/Huawei/iot_link/network/dtls/mbedtls/mbedtls-2.16.2/library\pkparse.c ****  *
   4:D:/fchai/work/i-cube/I-CUBE-HUAWEI/Middlewares/Third_Party/Huawei/iot_link/network/dtls/mbedtls/mbedtls-2.16.2/library\pkparse.c ****  *  Copyright (C) 2006-2015, ARM Limited, All Rights Reserved
   5:D:/fchai/work/i-cube/I-CUBE-HUAWEI/Middlewares/Third_Party/Huawei/iot_link/network/dtls/mbedtls/mbedtls-2.16.2/library\pkparse.c ****  *  SPDX-License-Identifier: Apache-2.0
   6:D:/fchai/work/i-cube/I-CUBE-HUAWEI/Middlewares/Third_Party/Huawei/iot_link/network/dtls/mbedtls/mbedtls-2.16.2/library\pkparse.c ****  *
   7:D:/fchai/work/i-cube/I-CUBE-HUAWEI/Middlewares/Third_Party/Huawei/iot_link/network/dtls/mbedtls/mbedtls-2.16.2/library\pkparse.c ****  *  Licensed under the Apache License, Version 2.0 (the "License"); you may
   8:D:/fchai/work/i-cube/I-CUBE-HUAWEI/Middlewares/Third_Party/Huawei/iot_link/network/dtls/mbedtls/mbedtls-2.16.2/library\pkparse.c ****  *  not use this file except in compliance with the License.
   9:D:/fchai/work/i-cube/I-CUBE-HUAWEI/Middlewares/Third_Party/Huawei/iot_link/network/dtls/mbedtls/mbedtls-2.16.2/library\pkparse.c ****  *  You may obtain a copy of the License at
  10:D:/fchai/work/i-cube/I-CUBE-HUAWEI/Middlewares/Third_Party/Huawei/iot_link/network/dtls/mbedtls/mbedtls-2.16.2/library\pkparse.c ****  *
  11:D:/fchai/work/i-cube/I-CUBE-HUAWEI/Middlewares/Third_Party/Huawei/iot_link/network/dtls/mbedtls/mbedtls-2.16.2/library\pkparse.c ****  *  http://www.apache.org/licenses/LICENSE-2.0
  12:D:/fchai/work/i-cube/I-CUBE-HUAWEI/Middlewares/Third_Party/Huawei/iot_link/network/dtls/mbedtls/mbedtls-2.16.2/library\pkparse.c ****  *
  13:D:/fchai/work/i-cube/I-CUBE-HUAWEI/Middlewares/Third_Party/Huawei/iot_link/network/dtls/mbedtls/mbedtls-2.16.2/library\pkparse.c ****  *  Unless required by applicable law or agreed to in writing, software
  14:D:/fchai/work/i-cube/I-CUBE-HUAWEI/Middlewares/Third_Party/Huawei/iot_link/network/dtls/mbedtls/mbedtls-2.16.2/library\pkparse.c ****  *  distributed under the License is distributed on an "AS IS" BASIS, WITHOUT
  15:D:/fchai/work/i-cube/I-CUBE-HUAWEI/Middlewares/Third_Party/Huawei/iot_link/network/dtls/mbedtls/mbedtls-2.16.2/library\pkparse.c ****  *  WARRANTIES OR CONDITIONS OF ANY KIND, either express or implied.
  16:D:/fchai/work/i-cube/I-CUBE-HUAWEI/Middlewares/Third_Party/Huawei/iot_link/network/dtls/mbedtls/mbedtls-2.16.2/library\pkparse.c ****  *  See the License for the specific language governing permissions and
  17:D:/fchai/work/i-cube/I-CUBE-HUAWEI/Middlewares/Third_Party/Huawei/iot_link/network/dtls/mbedtls/mbedtls-2.16.2/library\pkparse.c ****  *  limitations under the License.
  18:D:/fchai/work/i-cube/I-CUBE-HUAWEI/Middlewares/Third_Party/Huawei/iot_link/network/dtls/mbedtls/mbedtls-2.16.2/library\pkparse.c ****  *
  19:D:/fchai/work/i-cube/I-CUBE-HUAWEI/Middlewares/Third_Party/Huawei/iot_link/network/dtls/mbedtls/mbedtls-2.16.2/library\pkparse.c ****  *  This file is part of mbed TLS (https://tls.mbed.org)
  20:D:/fchai/work/i-cube/I-CUBE-HUAWEI/Middlewares/Third_Party/Huawei/iot_link/network/dtls/mbedtls/mbedtls-2.16.2/library\pkparse.c ****  */
  21:D:/fchai/work/i-cube/I-CUBE-HUAWEI/Middlewares/Third_Party/Huawei/iot_link/network/dtls/mbedtls/mbedtls-2.16.2/library\pkparse.c **** 
  22:D:/fchai/work/i-cube/I-CUBE-HUAWEI/Middlewares/Third_Party/Huawei/iot_link/network/dtls/mbedtls/mbedtls-2.16.2/library\pkparse.c **** #if !defined(MBEDTLS_CONFIG_FILE)
  23:D:/fchai/work/i-cube/I-CUBE-HUAWEI/Middlewares/Third_Party/Huawei/iot_link/network/dtls/mbedtls/mbedtls-2.16.2/library\pkparse.c **** #include "mbedtls/config.h"
  24:D:/fchai/work/i-cube/I-CUBE-HUAWEI/Middlewares/Third_Party/Huawei/iot_link/network/dtls/mbedtls/mbedtls-2.16.2/library\pkparse.c **** #else
  25:D:/fchai/work/i-cube/I-CUBE-HUAWEI/Middlewares/Third_Party/Huawei/iot_link/network/dtls/mbedtls/mbedtls-2.16.2/library\pkparse.c **** #include MBEDTLS_CONFIG_FILE
  26:D:/fchai/work/i-cube/I-CUBE-HUAWEI/Middlewares/Third_Party/Huawei/iot_link/network/dtls/mbedtls/mbedtls-2.16.2/library\pkparse.c **** #endif
  27:D:/fchai/work/i-cube/I-CUBE-HUAWEI/Middlewares/Third_Party/Huawei/iot_link/network/dtls/mbedtls/mbedtls-2.16.2/library\pkparse.c **** 
  28:D:/fchai/work/i-cube/I-CUBE-HUAWEI/Middlewares/Third_Party/Huawei/iot_link/network/dtls/mbedtls/mbedtls-2.16.2/library\pkparse.c **** #if defined(MBEDTLS_PK_PARSE_C)
  29:D:/fchai/work/i-cube/I-CUBE-HUAWEI/Middlewares/Third_Party/Huawei/iot_link/network/dtls/mbedtls/mbedtls-2.16.2/library\pkparse.c **** 
ARM GAS  T:\msys\tmp\cc83OHoG.s 			page 2


  30:D:/fchai/work/i-cube/I-CUBE-HUAWEI/Middlewares/Third_Party/Huawei/iot_link/network/dtls/mbedtls/mbedtls-2.16.2/library\pkparse.c **** #include "mbedtls/pk.h"
  31:D:/fchai/work/i-cube/I-CUBE-HUAWEI/Middlewares/Third_Party/Huawei/iot_link/network/dtls/mbedtls/mbedtls-2.16.2/library\pkparse.c **** #include "mbedtls/asn1.h"
  32:D:/fchai/work/i-cube/I-CUBE-HUAWEI/Middlewares/Third_Party/Huawei/iot_link/network/dtls/mbedtls/mbedtls-2.16.2/library\pkparse.c **** #include "mbedtls/oid.h"
  33:D:/fchai/work/i-cube/I-CUBE-HUAWEI/Middlewares/Third_Party/Huawei/iot_link/network/dtls/mbedtls/mbedtls-2.16.2/library\pkparse.c **** #include "mbedtls/platform_util.h"
  34:D:/fchai/work/i-cube/I-CUBE-HUAWEI/Middlewares/Third_Party/Huawei/iot_link/network/dtls/mbedtls/mbedtls-2.16.2/library\pkparse.c **** 
  35:D:/fchai/work/i-cube/I-CUBE-HUAWEI/Middlewares/Third_Party/Huawei/iot_link/network/dtls/mbedtls/mbedtls-2.16.2/library\pkparse.c **** #include <string.h>
  36:D:/fchai/work/i-cube/I-CUBE-HUAWEI/Middlewares/Third_Party/Huawei/iot_link/network/dtls/mbedtls/mbedtls-2.16.2/library\pkparse.c **** 
  37:D:/fchai/work/i-cube/I-CUBE-HUAWEI/Middlewares/Third_Party/Huawei/iot_link/network/dtls/mbedtls/mbedtls-2.16.2/library\pkparse.c **** #if defined(MBEDTLS_RSA_C)
  38:D:/fchai/work/i-cube/I-CUBE-HUAWEI/Middlewares/Third_Party/Huawei/iot_link/network/dtls/mbedtls/mbedtls-2.16.2/library\pkparse.c **** #include "mbedtls/rsa.h"
  39:D:/fchai/work/i-cube/I-CUBE-HUAWEI/Middlewares/Third_Party/Huawei/iot_link/network/dtls/mbedtls/mbedtls-2.16.2/library\pkparse.c **** #endif
  40:D:/fchai/work/i-cube/I-CUBE-HUAWEI/Middlewares/Third_Party/Huawei/iot_link/network/dtls/mbedtls/mbedtls-2.16.2/library\pkparse.c **** #if defined(MBEDTLS_ECP_C)
  41:D:/fchai/work/i-cube/I-CUBE-HUAWEI/Middlewares/Third_Party/Huawei/iot_link/network/dtls/mbedtls/mbedtls-2.16.2/library\pkparse.c **** #include "mbedtls/ecp.h"
  42:D:/fchai/work/i-cube/I-CUBE-HUAWEI/Middlewares/Third_Party/Huawei/iot_link/network/dtls/mbedtls/mbedtls-2.16.2/library\pkparse.c **** #endif
  43:D:/fchai/work/i-cube/I-CUBE-HUAWEI/Middlewares/Third_Party/Huawei/iot_link/network/dtls/mbedtls/mbedtls-2.16.2/library\pkparse.c **** #if defined(MBEDTLS_ECDSA_C)
  44:D:/fchai/work/i-cube/I-CUBE-HUAWEI/Middlewares/Third_Party/Huawei/iot_link/network/dtls/mbedtls/mbedtls-2.16.2/library\pkparse.c **** #include "mbedtls/ecdsa.h"
  45:D:/fchai/work/i-cube/I-CUBE-HUAWEI/Middlewares/Third_Party/Huawei/iot_link/network/dtls/mbedtls/mbedtls-2.16.2/library\pkparse.c **** #endif
  46:D:/fchai/work/i-cube/I-CUBE-HUAWEI/Middlewares/Third_Party/Huawei/iot_link/network/dtls/mbedtls/mbedtls-2.16.2/library\pkparse.c **** #if defined(MBEDTLS_PEM_PARSE_C)
  47:D:/fchai/work/i-cube/I-CUBE-HUAWEI/Middlewares/Third_Party/Huawei/iot_link/network/dtls/mbedtls/mbedtls-2.16.2/library\pkparse.c **** #include "mbedtls/pem.h"
  48:D:/fchai/work/i-cube/I-CUBE-HUAWEI/Middlewares/Third_Party/Huawei/iot_link/network/dtls/mbedtls/mbedtls-2.16.2/library\pkparse.c **** #endif
  49:D:/fchai/work/i-cube/I-CUBE-HUAWEI/Middlewares/Third_Party/Huawei/iot_link/network/dtls/mbedtls/mbedtls-2.16.2/library\pkparse.c **** #if defined(MBEDTLS_PKCS5_C)
  50:D:/fchai/work/i-cube/I-CUBE-HUAWEI/Middlewares/Third_Party/Huawei/iot_link/network/dtls/mbedtls/mbedtls-2.16.2/library\pkparse.c **** #include "mbedtls/pkcs5.h"
  51:D:/fchai/work/i-cube/I-CUBE-HUAWEI/Middlewares/Third_Party/Huawei/iot_link/network/dtls/mbedtls/mbedtls-2.16.2/library\pkparse.c **** #endif
  52:D:/fchai/work/i-cube/I-CUBE-HUAWEI/Middlewares/Third_Party/Huawei/iot_link/network/dtls/mbedtls/mbedtls-2.16.2/library\pkparse.c **** #if defined(MBEDTLS_PKCS12_C)
  53:D:/fchai/work/i-cube/I-CUBE-HUAWEI/Middlewares/Third_Party/Huawei/iot_link/network/dtls/mbedtls/mbedtls-2.16.2/library\pkparse.c **** #include "mbedtls/pkcs12.h"
  54:D:/fchai/work/i-cube/I-CUBE-HUAWEI/Middlewares/Third_Party/Huawei/iot_link/network/dtls/mbedtls/mbedtls-2.16.2/library\pkparse.c **** #endif
  55:D:/fchai/work/i-cube/I-CUBE-HUAWEI/Middlewares/Third_Party/Huawei/iot_link/network/dtls/mbedtls/mbedtls-2.16.2/library\pkparse.c **** 
  56:D:/fchai/work/i-cube/I-CUBE-HUAWEI/Middlewares/Third_Party/Huawei/iot_link/network/dtls/mbedtls/mbedtls-2.16.2/library\pkparse.c **** #if defined(MBEDTLS_PLATFORM_C)
  57:D:/fchai/work/i-cube/I-CUBE-HUAWEI/Middlewares/Third_Party/Huawei/iot_link/network/dtls/mbedtls/mbedtls-2.16.2/library\pkparse.c **** #include "mbedtls/platform.h"
  58:D:/fchai/work/i-cube/I-CUBE-HUAWEI/Middlewares/Third_Party/Huawei/iot_link/network/dtls/mbedtls/mbedtls-2.16.2/library\pkparse.c **** #else
  59:D:/fchai/work/i-cube/I-CUBE-HUAWEI/Middlewares/Third_Party/Huawei/iot_link/network/dtls/mbedtls/mbedtls-2.16.2/library\pkparse.c **** #include <stdlib.h>
  60:D:/fchai/work/i-cube/I-CUBE-HUAWEI/Middlewares/Third_Party/Huawei/iot_link/network/dtls/mbedtls/mbedtls-2.16.2/library\pkparse.c **** #define mbedtls_calloc    calloc
  61:D:/fchai/work/i-cube/I-CUBE-HUAWEI/Middlewares/Third_Party/Huawei/iot_link/network/dtls/mbedtls/mbedtls-2.16.2/library\pkparse.c **** #define mbedtls_free       free
  62:D:/fchai/work/i-cube/I-CUBE-HUAWEI/Middlewares/Third_Party/Huawei/iot_link/network/dtls/mbedtls/mbedtls-2.16.2/library\pkparse.c **** #endif
  63:D:/fchai/work/i-cube/I-CUBE-HUAWEI/Middlewares/Third_Party/Huawei/iot_link/network/dtls/mbedtls/mbedtls-2.16.2/library\pkparse.c **** 
  64:D:/fchai/work/i-cube/I-CUBE-HUAWEI/Middlewares/Third_Party/Huawei/iot_link/network/dtls/mbedtls/mbedtls-2.16.2/library\pkparse.c **** /* Parameter validation macros based on platform_util.h */
  65:D:/fchai/work/i-cube/I-CUBE-HUAWEI/Middlewares/Third_Party/Huawei/iot_link/network/dtls/mbedtls/mbedtls-2.16.2/library\pkparse.c **** #define PK_VALIDATE_RET( cond )    \
  66:D:/fchai/work/i-cube/I-CUBE-HUAWEI/Middlewares/Third_Party/Huawei/iot_link/network/dtls/mbedtls/mbedtls-2.16.2/library\pkparse.c ****     MBEDTLS_INTERNAL_VALIDATE_RET( cond, MBEDTLS_ERR_PK_BAD_INPUT_DATA )
  67:D:/fchai/work/i-cube/I-CUBE-HUAWEI/Middlewares/Third_Party/Huawei/iot_link/network/dtls/mbedtls/mbedtls-2.16.2/library\pkparse.c **** #define PK_VALIDATE( cond )        \
  68:D:/fchai/work/i-cube/I-CUBE-HUAWEI/Middlewares/Third_Party/Huawei/iot_link/network/dtls/mbedtls/mbedtls-2.16.2/library\pkparse.c ****     MBEDTLS_INTERNAL_VALIDATE( cond )
  69:D:/fchai/work/i-cube/I-CUBE-HUAWEI/Middlewares/Third_Party/Huawei/iot_link/network/dtls/mbedtls/mbedtls-2.16.2/library\pkparse.c **** 
  70:D:/fchai/work/i-cube/I-CUBE-HUAWEI/Middlewares/Third_Party/Huawei/iot_link/network/dtls/mbedtls/mbedtls-2.16.2/library\pkparse.c **** #if defined(MBEDTLS_FS_IO)
  71:D:/fchai/work/i-cube/I-CUBE-HUAWEI/Middlewares/Third_Party/Huawei/iot_link/network/dtls/mbedtls/mbedtls-2.16.2/library\pkparse.c **** /*
  72:D:/fchai/work/i-cube/I-CUBE-HUAWEI/Middlewares/Third_Party/Huawei/iot_link/network/dtls/mbedtls/mbedtls-2.16.2/library\pkparse.c ****  * Load all data from a file into a given buffer.
  73:D:/fchai/work/i-cube/I-CUBE-HUAWEI/Middlewares/Third_Party/Huawei/iot_link/network/dtls/mbedtls/mbedtls-2.16.2/library\pkparse.c ****  *
  74:D:/fchai/work/i-cube/I-CUBE-HUAWEI/Middlewares/Third_Party/Huawei/iot_link/network/dtls/mbedtls/mbedtls-2.16.2/library\pkparse.c ****  * The file is expected to contain either PEM or DER encoded data.
  75:D:/fchai/work/i-cube/I-CUBE-HUAWEI/Middlewares/Third_Party/Huawei/iot_link/network/dtls/mbedtls/mbedtls-2.16.2/library\pkparse.c ****  * A terminating null byte is always appended. It is included in the announced
  76:D:/fchai/work/i-cube/I-CUBE-HUAWEI/Middlewares/Third_Party/Huawei/iot_link/network/dtls/mbedtls/mbedtls-2.16.2/library\pkparse.c ****  * length only if the data looks like it is PEM encoded.
  77:D:/fchai/work/i-cube/I-CUBE-HUAWEI/Middlewares/Third_Party/Huawei/iot_link/network/dtls/mbedtls/mbedtls-2.16.2/library\pkparse.c ****  */
  78:D:/fchai/work/i-cube/I-CUBE-HUAWEI/Middlewares/Third_Party/Huawei/iot_link/network/dtls/mbedtls/mbedtls-2.16.2/library\pkparse.c **** int mbedtls_pk_load_file( const char *path, unsigned char **buf, size_t *n )
  79:D:/fchai/work/i-cube/I-CUBE-HUAWEI/Middlewares/Third_Party/Huawei/iot_link/network/dtls/mbedtls/mbedtls-2.16.2/library\pkparse.c **** {
  80:D:/fchai/work/i-cube/I-CUBE-HUAWEI/Middlewares/Third_Party/Huawei/iot_link/network/dtls/mbedtls/mbedtls-2.16.2/library\pkparse.c ****     FILE *f;
  81:D:/fchai/work/i-cube/I-CUBE-HUAWEI/Middlewares/Third_Party/Huawei/iot_link/network/dtls/mbedtls/mbedtls-2.16.2/library\pkparse.c ****     long size;
  82:D:/fchai/work/i-cube/I-CUBE-HUAWEI/Middlewares/Third_Party/Huawei/iot_link/network/dtls/mbedtls/mbedtls-2.16.2/library\pkparse.c **** 
  83:D:/fchai/work/i-cube/I-CUBE-HUAWEI/Middlewares/Third_Party/Huawei/iot_link/network/dtls/mbedtls/mbedtls-2.16.2/library\pkparse.c ****     PK_VALIDATE_RET( path != NULL );
  84:D:/fchai/work/i-cube/I-CUBE-HUAWEI/Middlewares/Third_Party/Huawei/iot_link/network/dtls/mbedtls/mbedtls-2.16.2/library\pkparse.c ****     PK_VALIDATE_RET( buf != NULL );
  85:D:/fchai/work/i-cube/I-CUBE-HUAWEI/Middlewares/Third_Party/Huawei/iot_link/network/dtls/mbedtls/mbedtls-2.16.2/library\pkparse.c ****     PK_VALIDATE_RET( n != NULL );
  86:D:/fchai/work/i-cube/I-CUBE-HUAWEI/Middlewares/Third_Party/Huawei/iot_link/network/dtls/mbedtls/mbedtls-2.16.2/library\pkparse.c **** 
ARM GAS  T:\msys\tmp\cc83OHoG.s 			page 3


  87:D:/fchai/work/i-cube/I-CUBE-HUAWEI/Middlewares/Third_Party/Huawei/iot_link/network/dtls/mbedtls/mbedtls-2.16.2/library\pkparse.c ****     if( ( f = fopen( path, "rb" ) ) == NULL )
  88:D:/fchai/work/i-cube/I-CUBE-HUAWEI/Middlewares/Third_Party/Huawei/iot_link/network/dtls/mbedtls/mbedtls-2.16.2/library\pkparse.c ****         return( MBEDTLS_ERR_PK_FILE_IO_ERROR );
  89:D:/fchai/work/i-cube/I-CUBE-HUAWEI/Middlewares/Third_Party/Huawei/iot_link/network/dtls/mbedtls/mbedtls-2.16.2/library\pkparse.c **** 
  90:D:/fchai/work/i-cube/I-CUBE-HUAWEI/Middlewares/Third_Party/Huawei/iot_link/network/dtls/mbedtls/mbedtls-2.16.2/library\pkparse.c ****     fseek( f, 0, SEEK_END );
  91:D:/fchai/work/i-cube/I-CUBE-HUAWEI/Middlewares/Third_Party/Huawei/iot_link/network/dtls/mbedtls/mbedtls-2.16.2/library\pkparse.c ****     if( ( size = ftell( f ) ) == -1 )
  92:D:/fchai/work/i-cube/I-CUBE-HUAWEI/Middlewares/Third_Party/Huawei/iot_link/network/dtls/mbedtls/mbedtls-2.16.2/library\pkparse.c ****     {
  93:D:/fchai/work/i-cube/I-CUBE-HUAWEI/Middlewares/Third_Party/Huawei/iot_link/network/dtls/mbedtls/mbedtls-2.16.2/library\pkparse.c ****         fclose( f );
  94:D:/fchai/work/i-cube/I-CUBE-HUAWEI/Middlewares/Third_Party/Huawei/iot_link/network/dtls/mbedtls/mbedtls-2.16.2/library\pkparse.c ****         return( MBEDTLS_ERR_PK_FILE_IO_ERROR );
  95:D:/fchai/work/i-cube/I-CUBE-HUAWEI/Middlewares/Third_Party/Huawei/iot_link/network/dtls/mbedtls/mbedtls-2.16.2/library\pkparse.c ****     }
  96:D:/fchai/work/i-cube/I-CUBE-HUAWEI/Middlewares/Third_Party/Huawei/iot_link/network/dtls/mbedtls/mbedtls-2.16.2/library\pkparse.c ****     fseek( f, 0, SEEK_SET );
  97:D:/fchai/work/i-cube/I-CUBE-HUAWEI/Middlewares/Third_Party/Huawei/iot_link/network/dtls/mbedtls/mbedtls-2.16.2/library\pkparse.c **** 
  98:D:/fchai/work/i-cube/I-CUBE-HUAWEI/Middlewares/Third_Party/Huawei/iot_link/network/dtls/mbedtls/mbedtls-2.16.2/library\pkparse.c ****     *n = (size_t) size;
  99:D:/fchai/work/i-cube/I-CUBE-HUAWEI/Middlewares/Third_Party/Huawei/iot_link/network/dtls/mbedtls/mbedtls-2.16.2/library\pkparse.c **** 
 100:D:/fchai/work/i-cube/I-CUBE-HUAWEI/Middlewares/Third_Party/Huawei/iot_link/network/dtls/mbedtls/mbedtls-2.16.2/library\pkparse.c ****     if( *n + 1 == 0 ||
 101:D:/fchai/work/i-cube/I-CUBE-HUAWEI/Middlewares/Third_Party/Huawei/iot_link/network/dtls/mbedtls/mbedtls-2.16.2/library\pkparse.c ****         ( *buf = mbedtls_calloc( 1, *n + 1 ) ) == NULL )
 102:D:/fchai/work/i-cube/I-CUBE-HUAWEI/Middlewares/Third_Party/Huawei/iot_link/network/dtls/mbedtls/mbedtls-2.16.2/library\pkparse.c ****     {
 103:D:/fchai/work/i-cube/I-CUBE-HUAWEI/Middlewares/Third_Party/Huawei/iot_link/network/dtls/mbedtls/mbedtls-2.16.2/library\pkparse.c ****         fclose( f );
 104:D:/fchai/work/i-cube/I-CUBE-HUAWEI/Middlewares/Third_Party/Huawei/iot_link/network/dtls/mbedtls/mbedtls-2.16.2/library\pkparse.c ****         return( MBEDTLS_ERR_PK_ALLOC_FAILED );
 105:D:/fchai/work/i-cube/I-CUBE-HUAWEI/Middlewares/Third_Party/Huawei/iot_link/network/dtls/mbedtls/mbedtls-2.16.2/library\pkparse.c ****     }
 106:D:/fchai/work/i-cube/I-CUBE-HUAWEI/Middlewares/Third_Party/Huawei/iot_link/network/dtls/mbedtls/mbedtls-2.16.2/library\pkparse.c **** 
 107:D:/fchai/work/i-cube/I-CUBE-HUAWEI/Middlewares/Third_Party/Huawei/iot_link/network/dtls/mbedtls/mbedtls-2.16.2/library\pkparse.c ****     if( fread( *buf, 1, *n, f ) != *n )
 108:D:/fchai/work/i-cube/I-CUBE-HUAWEI/Middlewares/Third_Party/Huawei/iot_link/network/dtls/mbedtls/mbedtls-2.16.2/library\pkparse.c ****     {
 109:D:/fchai/work/i-cube/I-CUBE-HUAWEI/Middlewares/Third_Party/Huawei/iot_link/network/dtls/mbedtls/mbedtls-2.16.2/library\pkparse.c ****         fclose( f );
 110:D:/fchai/work/i-cube/I-CUBE-HUAWEI/Middlewares/Third_Party/Huawei/iot_link/network/dtls/mbedtls/mbedtls-2.16.2/library\pkparse.c **** 
 111:D:/fchai/work/i-cube/I-CUBE-HUAWEI/Middlewares/Third_Party/Huawei/iot_link/network/dtls/mbedtls/mbedtls-2.16.2/library\pkparse.c ****         mbedtls_platform_zeroize( *buf, *n );
 112:D:/fchai/work/i-cube/I-CUBE-HUAWEI/Middlewares/Third_Party/Huawei/iot_link/network/dtls/mbedtls/mbedtls-2.16.2/library\pkparse.c ****         mbedtls_free( *buf );
 113:D:/fchai/work/i-cube/I-CUBE-HUAWEI/Middlewares/Third_Party/Huawei/iot_link/network/dtls/mbedtls/mbedtls-2.16.2/library\pkparse.c **** 
 114:D:/fchai/work/i-cube/I-CUBE-HUAWEI/Middlewares/Third_Party/Huawei/iot_link/network/dtls/mbedtls/mbedtls-2.16.2/library\pkparse.c ****         return( MBEDTLS_ERR_PK_FILE_IO_ERROR );
 115:D:/fchai/work/i-cube/I-CUBE-HUAWEI/Middlewares/Third_Party/Huawei/iot_link/network/dtls/mbedtls/mbedtls-2.16.2/library\pkparse.c ****     }
 116:D:/fchai/work/i-cube/I-CUBE-HUAWEI/Middlewares/Third_Party/Huawei/iot_link/network/dtls/mbedtls/mbedtls-2.16.2/library\pkparse.c **** 
 117:D:/fchai/work/i-cube/I-CUBE-HUAWEI/Middlewares/Third_Party/Huawei/iot_link/network/dtls/mbedtls/mbedtls-2.16.2/library\pkparse.c ****     fclose( f );
 118:D:/fchai/work/i-cube/I-CUBE-HUAWEI/Middlewares/Third_Party/Huawei/iot_link/network/dtls/mbedtls/mbedtls-2.16.2/library\pkparse.c **** 
 119:D:/fchai/work/i-cube/I-CUBE-HUAWEI/Middlewares/Third_Party/Huawei/iot_link/network/dtls/mbedtls/mbedtls-2.16.2/library\pkparse.c ****     (*buf)[*n] = '\0';
 120:D:/fchai/work/i-cube/I-CUBE-HUAWEI/Middlewares/Third_Party/Huawei/iot_link/network/dtls/mbedtls/mbedtls-2.16.2/library\pkparse.c **** 
 121:D:/fchai/work/i-cube/I-CUBE-HUAWEI/Middlewares/Third_Party/Huawei/iot_link/network/dtls/mbedtls/mbedtls-2.16.2/library\pkparse.c ****     if( strstr( (const char *) *buf, "-----BEGIN " ) != NULL )
 122:D:/fchai/work/i-cube/I-CUBE-HUAWEI/Middlewares/Third_Party/Huawei/iot_link/network/dtls/mbedtls/mbedtls-2.16.2/library\pkparse.c ****         ++*n;
 123:D:/fchai/work/i-cube/I-CUBE-HUAWEI/Middlewares/Third_Party/Huawei/iot_link/network/dtls/mbedtls/mbedtls-2.16.2/library\pkparse.c **** 
 124:D:/fchai/work/i-cube/I-CUBE-HUAWEI/Middlewares/Third_Party/Huawei/iot_link/network/dtls/mbedtls/mbedtls-2.16.2/library\pkparse.c ****     return( 0 );
 125:D:/fchai/work/i-cube/I-CUBE-HUAWEI/Middlewares/Third_Party/Huawei/iot_link/network/dtls/mbedtls/mbedtls-2.16.2/library\pkparse.c **** }
 126:D:/fchai/work/i-cube/I-CUBE-HUAWEI/Middlewares/Third_Party/Huawei/iot_link/network/dtls/mbedtls/mbedtls-2.16.2/library\pkparse.c **** 
 127:D:/fchai/work/i-cube/I-CUBE-HUAWEI/Middlewares/Third_Party/Huawei/iot_link/network/dtls/mbedtls/mbedtls-2.16.2/library\pkparse.c **** /*
 128:D:/fchai/work/i-cube/I-CUBE-HUAWEI/Middlewares/Third_Party/Huawei/iot_link/network/dtls/mbedtls/mbedtls-2.16.2/library\pkparse.c ****  * Load and parse a private key
 129:D:/fchai/work/i-cube/I-CUBE-HUAWEI/Middlewares/Third_Party/Huawei/iot_link/network/dtls/mbedtls/mbedtls-2.16.2/library\pkparse.c ****  */
 130:D:/fchai/work/i-cube/I-CUBE-HUAWEI/Middlewares/Third_Party/Huawei/iot_link/network/dtls/mbedtls/mbedtls-2.16.2/library\pkparse.c **** int mbedtls_pk_parse_keyfile( mbedtls_pk_context *ctx,
 131:D:/fchai/work/i-cube/I-CUBE-HUAWEI/Middlewares/Third_Party/Huawei/iot_link/network/dtls/mbedtls/mbedtls-2.16.2/library\pkparse.c ****                       const char *path, const char *pwd )
 132:D:/fchai/work/i-cube/I-CUBE-HUAWEI/Middlewares/Third_Party/Huawei/iot_link/network/dtls/mbedtls/mbedtls-2.16.2/library\pkparse.c **** {
 133:D:/fchai/work/i-cube/I-CUBE-HUAWEI/Middlewares/Third_Party/Huawei/iot_link/network/dtls/mbedtls/mbedtls-2.16.2/library\pkparse.c ****     int ret;
 134:D:/fchai/work/i-cube/I-CUBE-HUAWEI/Middlewares/Third_Party/Huawei/iot_link/network/dtls/mbedtls/mbedtls-2.16.2/library\pkparse.c ****     size_t n;
 135:D:/fchai/work/i-cube/I-CUBE-HUAWEI/Middlewares/Third_Party/Huawei/iot_link/network/dtls/mbedtls/mbedtls-2.16.2/library\pkparse.c ****     unsigned char *buf;
 136:D:/fchai/work/i-cube/I-CUBE-HUAWEI/Middlewares/Third_Party/Huawei/iot_link/network/dtls/mbedtls/mbedtls-2.16.2/library\pkparse.c **** 
 137:D:/fchai/work/i-cube/I-CUBE-HUAWEI/Middlewares/Third_Party/Huawei/iot_link/network/dtls/mbedtls/mbedtls-2.16.2/library\pkparse.c ****     PK_VALIDATE_RET( ctx != NULL );
 138:D:/fchai/work/i-cube/I-CUBE-HUAWEI/Middlewares/Third_Party/Huawei/iot_link/network/dtls/mbedtls/mbedtls-2.16.2/library\pkparse.c ****     PK_VALIDATE_RET( path != NULL );
 139:D:/fchai/work/i-cube/I-CUBE-HUAWEI/Middlewares/Third_Party/Huawei/iot_link/network/dtls/mbedtls/mbedtls-2.16.2/library\pkparse.c **** 
 140:D:/fchai/work/i-cube/I-CUBE-HUAWEI/Middlewares/Third_Party/Huawei/iot_link/network/dtls/mbedtls/mbedtls-2.16.2/library\pkparse.c ****     if( ( ret = mbedtls_pk_load_file( path, &buf, &n ) ) != 0 )
 141:D:/fchai/work/i-cube/I-CUBE-HUAWEI/Middlewares/Third_Party/Huawei/iot_link/network/dtls/mbedtls/mbedtls-2.16.2/library\pkparse.c ****         return( ret );
 142:D:/fchai/work/i-cube/I-CUBE-HUAWEI/Middlewares/Third_Party/Huawei/iot_link/network/dtls/mbedtls/mbedtls-2.16.2/library\pkparse.c **** 
 143:D:/fchai/work/i-cube/I-CUBE-HUAWEI/Middlewares/Third_Party/Huawei/iot_link/network/dtls/mbedtls/mbedtls-2.16.2/library\pkparse.c ****     if( pwd == NULL )
ARM GAS  T:\msys\tmp\cc83OHoG.s 			page 4


 144:D:/fchai/work/i-cube/I-CUBE-HUAWEI/Middlewares/Third_Party/Huawei/iot_link/network/dtls/mbedtls/mbedtls-2.16.2/library\pkparse.c ****         ret = mbedtls_pk_parse_key( ctx, buf, n, NULL, 0 );
 145:D:/fchai/work/i-cube/I-CUBE-HUAWEI/Middlewares/Third_Party/Huawei/iot_link/network/dtls/mbedtls/mbedtls-2.16.2/library\pkparse.c ****     else
 146:D:/fchai/work/i-cube/I-CUBE-HUAWEI/Middlewares/Third_Party/Huawei/iot_link/network/dtls/mbedtls/mbedtls-2.16.2/library\pkparse.c ****         ret = mbedtls_pk_parse_key( ctx, buf, n,
 147:D:/fchai/work/i-cube/I-CUBE-HUAWEI/Middlewares/Third_Party/Huawei/iot_link/network/dtls/mbedtls/mbedtls-2.16.2/library\pkparse.c ****                 (const unsigned char *) pwd, strlen( pwd ) );
 148:D:/fchai/work/i-cube/I-CUBE-HUAWEI/Middlewares/Third_Party/Huawei/iot_link/network/dtls/mbedtls/mbedtls-2.16.2/library\pkparse.c **** 
 149:D:/fchai/work/i-cube/I-CUBE-HUAWEI/Middlewares/Third_Party/Huawei/iot_link/network/dtls/mbedtls/mbedtls-2.16.2/library\pkparse.c ****     mbedtls_platform_zeroize( buf, n );
 150:D:/fchai/work/i-cube/I-CUBE-HUAWEI/Middlewares/Third_Party/Huawei/iot_link/network/dtls/mbedtls/mbedtls-2.16.2/library\pkparse.c ****     mbedtls_free( buf );
 151:D:/fchai/work/i-cube/I-CUBE-HUAWEI/Middlewares/Third_Party/Huawei/iot_link/network/dtls/mbedtls/mbedtls-2.16.2/library\pkparse.c **** 
 152:D:/fchai/work/i-cube/I-CUBE-HUAWEI/Middlewares/Third_Party/Huawei/iot_link/network/dtls/mbedtls/mbedtls-2.16.2/library\pkparse.c ****     return( ret );
 153:D:/fchai/work/i-cube/I-CUBE-HUAWEI/Middlewares/Third_Party/Huawei/iot_link/network/dtls/mbedtls/mbedtls-2.16.2/library\pkparse.c **** }
 154:D:/fchai/work/i-cube/I-CUBE-HUAWEI/Middlewares/Third_Party/Huawei/iot_link/network/dtls/mbedtls/mbedtls-2.16.2/library\pkparse.c **** 
 155:D:/fchai/work/i-cube/I-CUBE-HUAWEI/Middlewares/Third_Party/Huawei/iot_link/network/dtls/mbedtls/mbedtls-2.16.2/library\pkparse.c **** /*
 156:D:/fchai/work/i-cube/I-CUBE-HUAWEI/Middlewares/Third_Party/Huawei/iot_link/network/dtls/mbedtls/mbedtls-2.16.2/library\pkparse.c ****  * Load and parse a public key
 157:D:/fchai/work/i-cube/I-CUBE-HUAWEI/Middlewares/Third_Party/Huawei/iot_link/network/dtls/mbedtls/mbedtls-2.16.2/library\pkparse.c ****  */
 158:D:/fchai/work/i-cube/I-CUBE-HUAWEI/Middlewares/Third_Party/Huawei/iot_link/network/dtls/mbedtls/mbedtls-2.16.2/library\pkparse.c **** int mbedtls_pk_parse_public_keyfile( mbedtls_pk_context *ctx, const char *path )
 159:D:/fchai/work/i-cube/I-CUBE-HUAWEI/Middlewares/Third_Party/Huawei/iot_link/network/dtls/mbedtls/mbedtls-2.16.2/library\pkparse.c **** {
 160:D:/fchai/work/i-cube/I-CUBE-HUAWEI/Middlewares/Third_Party/Huawei/iot_link/network/dtls/mbedtls/mbedtls-2.16.2/library\pkparse.c ****     int ret;
 161:D:/fchai/work/i-cube/I-CUBE-HUAWEI/Middlewares/Third_Party/Huawei/iot_link/network/dtls/mbedtls/mbedtls-2.16.2/library\pkparse.c ****     size_t n;
 162:D:/fchai/work/i-cube/I-CUBE-HUAWEI/Middlewares/Third_Party/Huawei/iot_link/network/dtls/mbedtls/mbedtls-2.16.2/library\pkparse.c ****     unsigned char *buf;
 163:D:/fchai/work/i-cube/I-CUBE-HUAWEI/Middlewares/Third_Party/Huawei/iot_link/network/dtls/mbedtls/mbedtls-2.16.2/library\pkparse.c **** 
 164:D:/fchai/work/i-cube/I-CUBE-HUAWEI/Middlewares/Third_Party/Huawei/iot_link/network/dtls/mbedtls/mbedtls-2.16.2/library\pkparse.c ****     PK_VALIDATE_RET( ctx != NULL );
 165:D:/fchai/work/i-cube/I-CUBE-HUAWEI/Middlewares/Third_Party/Huawei/iot_link/network/dtls/mbedtls/mbedtls-2.16.2/library\pkparse.c ****     PK_VALIDATE_RET( path != NULL );
 166:D:/fchai/work/i-cube/I-CUBE-HUAWEI/Middlewares/Third_Party/Huawei/iot_link/network/dtls/mbedtls/mbedtls-2.16.2/library\pkparse.c **** 
 167:D:/fchai/work/i-cube/I-CUBE-HUAWEI/Middlewares/Third_Party/Huawei/iot_link/network/dtls/mbedtls/mbedtls-2.16.2/library\pkparse.c ****     if( ( ret = mbedtls_pk_load_file( path, &buf, &n ) ) != 0 )
 168:D:/fchai/work/i-cube/I-CUBE-HUAWEI/Middlewares/Third_Party/Huawei/iot_link/network/dtls/mbedtls/mbedtls-2.16.2/library\pkparse.c ****         return( ret );
 169:D:/fchai/work/i-cube/I-CUBE-HUAWEI/Middlewares/Third_Party/Huawei/iot_link/network/dtls/mbedtls/mbedtls-2.16.2/library\pkparse.c **** 
 170:D:/fchai/work/i-cube/I-CUBE-HUAWEI/Middlewares/Third_Party/Huawei/iot_link/network/dtls/mbedtls/mbedtls-2.16.2/library\pkparse.c ****     ret = mbedtls_pk_parse_public_key( ctx, buf, n );
 171:D:/fchai/work/i-cube/I-CUBE-HUAWEI/Middlewares/Third_Party/Huawei/iot_link/network/dtls/mbedtls/mbedtls-2.16.2/library\pkparse.c **** 
 172:D:/fchai/work/i-cube/I-CUBE-HUAWEI/Middlewares/Third_Party/Huawei/iot_link/network/dtls/mbedtls/mbedtls-2.16.2/library\pkparse.c ****     mbedtls_platform_zeroize( buf, n );
 173:D:/fchai/work/i-cube/I-CUBE-HUAWEI/Middlewares/Third_Party/Huawei/iot_link/network/dtls/mbedtls/mbedtls-2.16.2/library\pkparse.c ****     mbedtls_free( buf );
 174:D:/fchai/work/i-cube/I-CUBE-HUAWEI/Middlewares/Third_Party/Huawei/iot_link/network/dtls/mbedtls/mbedtls-2.16.2/library\pkparse.c **** 
 175:D:/fchai/work/i-cube/I-CUBE-HUAWEI/Middlewares/Third_Party/Huawei/iot_link/network/dtls/mbedtls/mbedtls-2.16.2/library\pkparse.c ****     return( ret );
 176:D:/fchai/work/i-cube/I-CUBE-HUAWEI/Middlewares/Third_Party/Huawei/iot_link/network/dtls/mbedtls/mbedtls-2.16.2/library\pkparse.c **** }
 177:D:/fchai/work/i-cube/I-CUBE-HUAWEI/Middlewares/Third_Party/Huawei/iot_link/network/dtls/mbedtls/mbedtls-2.16.2/library\pkparse.c **** #endif /* MBEDTLS_FS_IO */
 178:D:/fchai/work/i-cube/I-CUBE-HUAWEI/Middlewares/Third_Party/Huawei/iot_link/network/dtls/mbedtls/mbedtls-2.16.2/library\pkparse.c **** 
 179:D:/fchai/work/i-cube/I-CUBE-HUAWEI/Middlewares/Third_Party/Huawei/iot_link/network/dtls/mbedtls/mbedtls-2.16.2/library\pkparse.c **** #if defined(MBEDTLS_ECP_C)
 180:D:/fchai/work/i-cube/I-CUBE-HUAWEI/Middlewares/Third_Party/Huawei/iot_link/network/dtls/mbedtls/mbedtls-2.16.2/library\pkparse.c **** /* Minimally parse an ECParameters buffer to and mbedtls_asn1_buf
 181:D:/fchai/work/i-cube/I-CUBE-HUAWEI/Middlewares/Third_Party/Huawei/iot_link/network/dtls/mbedtls/mbedtls-2.16.2/library\pkparse.c ****  *
 182:D:/fchai/work/i-cube/I-CUBE-HUAWEI/Middlewares/Third_Party/Huawei/iot_link/network/dtls/mbedtls/mbedtls-2.16.2/library\pkparse.c ****  * ECParameters ::= CHOICE {
 183:D:/fchai/work/i-cube/I-CUBE-HUAWEI/Middlewares/Third_Party/Huawei/iot_link/network/dtls/mbedtls/mbedtls-2.16.2/library\pkparse.c ****  *   namedCurve         OBJECT IDENTIFIER
 184:D:/fchai/work/i-cube/I-CUBE-HUAWEI/Middlewares/Third_Party/Huawei/iot_link/network/dtls/mbedtls/mbedtls-2.16.2/library\pkparse.c ****  *   specifiedCurve     SpecifiedECDomain -- = SEQUENCE { ... }
 185:D:/fchai/work/i-cube/I-CUBE-HUAWEI/Middlewares/Third_Party/Huawei/iot_link/network/dtls/mbedtls/mbedtls-2.16.2/library\pkparse.c ****  *   -- implicitCurve   NULL
 186:D:/fchai/work/i-cube/I-CUBE-HUAWEI/Middlewares/Third_Party/Huawei/iot_link/network/dtls/mbedtls/mbedtls-2.16.2/library\pkparse.c ****  * }
 187:D:/fchai/work/i-cube/I-CUBE-HUAWEI/Middlewares/Third_Party/Huawei/iot_link/network/dtls/mbedtls/mbedtls-2.16.2/library\pkparse.c ****  */
 188:D:/fchai/work/i-cube/I-CUBE-HUAWEI/Middlewares/Third_Party/Huawei/iot_link/network/dtls/mbedtls/mbedtls-2.16.2/library\pkparse.c **** static int pk_get_ecparams( unsigned char **p, const unsigned char *end,
 189:D:/fchai/work/i-cube/I-CUBE-HUAWEI/Middlewares/Third_Party/Huawei/iot_link/network/dtls/mbedtls/mbedtls-2.16.2/library\pkparse.c ****                             mbedtls_asn1_buf *params )
 190:D:/fchai/work/i-cube/I-CUBE-HUAWEI/Middlewares/Third_Party/Huawei/iot_link/network/dtls/mbedtls/mbedtls-2.16.2/library\pkparse.c **** {
 191:D:/fchai/work/i-cube/I-CUBE-HUAWEI/Middlewares/Third_Party/Huawei/iot_link/network/dtls/mbedtls/mbedtls-2.16.2/library\pkparse.c ****     int ret;
 192:D:/fchai/work/i-cube/I-CUBE-HUAWEI/Middlewares/Third_Party/Huawei/iot_link/network/dtls/mbedtls/mbedtls-2.16.2/library\pkparse.c **** 
 193:D:/fchai/work/i-cube/I-CUBE-HUAWEI/Middlewares/Third_Party/Huawei/iot_link/network/dtls/mbedtls/mbedtls-2.16.2/library\pkparse.c ****     if ( end - *p < 1 )
 194:D:/fchai/work/i-cube/I-CUBE-HUAWEI/Middlewares/Third_Party/Huawei/iot_link/network/dtls/mbedtls/mbedtls-2.16.2/library\pkparse.c ****         return( MBEDTLS_ERR_PK_KEY_INVALID_FORMAT +
 195:D:/fchai/work/i-cube/I-CUBE-HUAWEI/Middlewares/Third_Party/Huawei/iot_link/network/dtls/mbedtls/mbedtls-2.16.2/library\pkparse.c ****                 MBEDTLS_ERR_ASN1_OUT_OF_DATA );
 196:D:/fchai/work/i-cube/I-CUBE-HUAWEI/Middlewares/Third_Party/Huawei/iot_link/network/dtls/mbedtls/mbedtls-2.16.2/library\pkparse.c **** 
 197:D:/fchai/work/i-cube/I-CUBE-HUAWEI/Middlewares/Third_Party/Huawei/iot_link/network/dtls/mbedtls/mbedtls-2.16.2/library\pkparse.c ****     /* Tag may be either OID or SEQUENCE */
 198:D:/fchai/work/i-cube/I-CUBE-HUAWEI/Middlewares/Third_Party/Huawei/iot_link/network/dtls/mbedtls/mbedtls-2.16.2/library\pkparse.c ****     params->tag = **p;
 199:D:/fchai/work/i-cube/I-CUBE-HUAWEI/Middlewares/Third_Party/Huawei/iot_link/network/dtls/mbedtls/mbedtls-2.16.2/library\pkparse.c ****     if( params->tag != MBEDTLS_ASN1_OID
 200:D:/fchai/work/i-cube/I-CUBE-HUAWEI/Middlewares/Third_Party/Huawei/iot_link/network/dtls/mbedtls/mbedtls-2.16.2/library\pkparse.c **** #if defined(MBEDTLS_PK_PARSE_EC_EXTENDED)
ARM GAS  T:\msys\tmp\cc83OHoG.s 			page 5


 201:D:/fchai/work/i-cube/I-CUBE-HUAWEI/Middlewares/Third_Party/Huawei/iot_link/network/dtls/mbedtls/mbedtls-2.16.2/library\pkparse.c ****             && params->tag != ( MBEDTLS_ASN1_CONSTRUCTED | MBEDTLS_ASN1_SEQUENCE )
 202:D:/fchai/work/i-cube/I-CUBE-HUAWEI/Middlewares/Third_Party/Huawei/iot_link/network/dtls/mbedtls/mbedtls-2.16.2/library\pkparse.c **** #endif
 203:D:/fchai/work/i-cube/I-CUBE-HUAWEI/Middlewares/Third_Party/Huawei/iot_link/network/dtls/mbedtls/mbedtls-2.16.2/library\pkparse.c ****             )
 204:D:/fchai/work/i-cube/I-CUBE-HUAWEI/Middlewares/Third_Party/Huawei/iot_link/network/dtls/mbedtls/mbedtls-2.16.2/library\pkparse.c ****     {
 205:D:/fchai/work/i-cube/I-CUBE-HUAWEI/Middlewares/Third_Party/Huawei/iot_link/network/dtls/mbedtls/mbedtls-2.16.2/library\pkparse.c ****         return( MBEDTLS_ERR_PK_KEY_INVALID_FORMAT +
 206:D:/fchai/work/i-cube/I-CUBE-HUAWEI/Middlewares/Third_Party/Huawei/iot_link/network/dtls/mbedtls/mbedtls-2.16.2/library\pkparse.c ****                 MBEDTLS_ERR_ASN1_UNEXPECTED_TAG );
 207:D:/fchai/work/i-cube/I-CUBE-HUAWEI/Middlewares/Third_Party/Huawei/iot_link/network/dtls/mbedtls/mbedtls-2.16.2/library\pkparse.c ****     }
 208:D:/fchai/work/i-cube/I-CUBE-HUAWEI/Middlewares/Third_Party/Huawei/iot_link/network/dtls/mbedtls/mbedtls-2.16.2/library\pkparse.c **** 
 209:D:/fchai/work/i-cube/I-CUBE-HUAWEI/Middlewares/Third_Party/Huawei/iot_link/network/dtls/mbedtls/mbedtls-2.16.2/library\pkparse.c ****     if( ( ret = mbedtls_asn1_get_tag( p, end, &params->len, params->tag ) ) != 0 )
 210:D:/fchai/work/i-cube/I-CUBE-HUAWEI/Middlewares/Third_Party/Huawei/iot_link/network/dtls/mbedtls/mbedtls-2.16.2/library\pkparse.c ****     {
 211:D:/fchai/work/i-cube/I-CUBE-HUAWEI/Middlewares/Third_Party/Huawei/iot_link/network/dtls/mbedtls/mbedtls-2.16.2/library\pkparse.c ****         return( MBEDTLS_ERR_PK_KEY_INVALID_FORMAT + ret );
 212:D:/fchai/work/i-cube/I-CUBE-HUAWEI/Middlewares/Third_Party/Huawei/iot_link/network/dtls/mbedtls/mbedtls-2.16.2/library\pkparse.c ****     }
 213:D:/fchai/work/i-cube/I-CUBE-HUAWEI/Middlewares/Third_Party/Huawei/iot_link/network/dtls/mbedtls/mbedtls-2.16.2/library\pkparse.c **** 
 214:D:/fchai/work/i-cube/I-CUBE-HUAWEI/Middlewares/Third_Party/Huawei/iot_link/network/dtls/mbedtls/mbedtls-2.16.2/library\pkparse.c ****     params->p = *p;
 215:D:/fchai/work/i-cube/I-CUBE-HUAWEI/Middlewares/Third_Party/Huawei/iot_link/network/dtls/mbedtls/mbedtls-2.16.2/library\pkparse.c ****     *p += params->len;
 216:D:/fchai/work/i-cube/I-CUBE-HUAWEI/Middlewares/Third_Party/Huawei/iot_link/network/dtls/mbedtls/mbedtls-2.16.2/library\pkparse.c **** 
 217:D:/fchai/work/i-cube/I-CUBE-HUAWEI/Middlewares/Third_Party/Huawei/iot_link/network/dtls/mbedtls/mbedtls-2.16.2/library\pkparse.c ****     if( *p != end )
 218:D:/fchai/work/i-cube/I-CUBE-HUAWEI/Middlewares/Third_Party/Huawei/iot_link/network/dtls/mbedtls/mbedtls-2.16.2/library\pkparse.c ****         return( MBEDTLS_ERR_PK_KEY_INVALID_FORMAT +
 219:D:/fchai/work/i-cube/I-CUBE-HUAWEI/Middlewares/Third_Party/Huawei/iot_link/network/dtls/mbedtls/mbedtls-2.16.2/library\pkparse.c ****                 MBEDTLS_ERR_ASN1_LENGTH_MISMATCH );
 220:D:/fchai/work/i-cube/I-CUBE-HUAWEI/Middlewares/Third_Party/Huawei/iot_link/network/dtls/mbedtls/mbedtls-2.16.2/library\pkparse.c **** 
 221:D:/fchai/work/i-cube/I-CUBE-HUAWEI/Middlewares/Third_Party/Huawei/iot_link/network/dtls/mbedtls/mbedtls-2.16.2/library\pkparse.c ****     return( 0 );
 222:D:/fchai/work/i-cube/I-CUBE-HUAWEI/Middlewares/Third_Party/Huawei/iot_link/network/dtls/mbedtls/mbedtls-2.16.2/library\pkparse.c **** }
 223:D:/fchai/work/i-cube/I-CUBE-HUAWEI/Middlewares/Third_Party/Huawei/iot_link/network/dtls/mbedtls/mbedtls-2.16.2/library\pkparse.c **** 
 224:D:/fchai/work/i-cube/I-CUBE-HUAWEI/Middlewares/Third_Party/Huawei/iot_link/network/dtls/mbedtls/mbedtls-2.16.2/library\pkparse.c **** #if defined(MBEDTLS_PK_PARSE_EC_EXTENDED)
 225:D:/fchai/work/i-cube/I-CUBE-HUAWEI/Middlewares/Third_Party/Huawei/iot_link/network/dtls/mbedtls/mbedtls-2.16.2/library\pkparse.c **** /*
 226:D:/fchai/work/i-cube/I-CUBE-HUAWEI/Middlewares/Third_Party/Huawei/iot_link/network/dtls/mbedtls/mbedtls-2.16.2/library\pkparse.c ****  * Parse a SpecifiedECDomain (SEC 1 C.2) and (mostly) fill the group with it.
 227:D:/fchai/work/i-cube/I-CUBE-HUAWEI/Middlewares/Third_Party/Huawei/iot_link/network/dtls/mbedtls/mbedtls-2.16.2/library\pkparse.c ****  * WARNING: the resulting group should only be used with
 228:D:/fchai/work/i-cube/I-CUBE-HUAWEI/Middlewares/Third_Party/Huawei/iot_link/network/dtls/mbedtls/mbedtls-2.16.2/library\pkparse.c ****  * pk_group_id_from_specified(), since its base point may not be set correctly
 229:D:/fchai/work/i-cube/I-CUBE-HUAWEI/Middlewares/Third_Party/Huawei/iot_link/network/dtls/mbedtls/mbedtls-2.16.2/library\pkparse.c ****  * if it was encoded compressed.
 230:D:/fchai/work/i-cube/I-CUBE-HUAWEI/Middlewares/Third_Party/Huawei/iot_link/network/dtls/mbedtls/mbedtls-2.16.2/library\pkparse.c ****  *
 231:D:/fchai/work/i-cube/I-CUBE-HUAWEI/Middlewares/Third_Party/Huawei/iot_link/network/dtls/mbedtls/mbedtls-2.16.2/library\pkparse.c ****  *  SpecifiedECDomain ::= SEQUENCE {
 232:D:/fchai/work/i-cube/I-CUBE-HUAWEI/Middlewares/Third_Party/Huawei/iot_link/network/dtls/mbedtls/mbedtls-2.16.2/library\pkparse.c ****  *      version SpecifiedECDomainVersion(ecdpVer1 | ecdpVer2 | ecdpVer3, ...),
 233:D:/fchai/work/i-cube/I-CUBE-HUAWEI/Middlewares/Third_Party/Huawei/iot_link/network/dtls/mbedtls/mbedtls-2.16.2/library\pkparse.c ****  *      fieldID FieldID {{FieldTypes}},
 234:D:/fchai/work/i-cube/I-CUBE-HUAWEI/Middlewares/Third_Party/Huawei/iot_link/network/dtls/mbedtls/mbedtls-2.16.2/library\pkparse.c ****  *      curve Curve,
 235:D:/fchai/work/i-cube/I-CUBE-HUAWEI/Middlewares/Third_Party/Huawei/iot_link/network/dtls/mbedtls/mbedtls-2.16.2/library\pkparse.c ****  *      base ECPoint,
 236:D:/fchai/work/i-cube/I-CUBE-HUAWEI/Middlewares/Third_Party/Huawei/iot_link/network/dtls/mbedtls/mbedtls-2.16.2/library\pkparse.c ****  *      order INTEGER,
 237:D:/fchai/work/i-cube/I-CUBE-HUAWEI/Middlewares/Third_Party/Huawei/iot_link/network/dtls/mbedtls/mbedtls-2.16.2/library\pkparse.c ****  *      cofactor INTEGER OPTIONAL,
 238:D:/fchai/work/i-cube/I-CUBE-HUAWEI/Middlewares/Third_Party/Huawei/iot_link/network/dtls/mbedtls/mbedtls-2.16.2/library\pkparse.c ****  *      hash HashAlgorithm OPTIONAL,
 239:D:/fchai/work/i-cube/I-CUBE-HUAWEI/Middlewares/Third_Party/Huawei/iot_link/network/dtls/mbedtls/mbedtls-2.16.2/library\pkparse.c ****  *      ...
 240:D:/fchai/work/i-cube/I-CUBE-HUAWEI/Middlewares/Third_Party/Huawei/iot_link/network/dtls/mbedtls/mbedtls-2.16.2/library\pkparse.c ****  *  }
 241:D:/fchai/work/i-cube/I-CUBE-HUAWEI/Middlewares/Third_Party/Huawei/iot_link/network/dtls/mbedtls/mbedtls-2.16.2/library\pkparse.c ****  *
 242:D:/fchai/work/i-cube/I-CUBE-HUAWEI/Middlewares/Third_Party/Huawei/iot_link/network/dtls/mbedtls/mbedtls-2.16.2/library\pkparse.c ****  * We only support prime-field as field type, and ignore hash and cofactor.
 243:D:/fchai/work/i-cube/I-CUBE-HUAWEI/Middlewares/Third_Party/Huawei/iot_link/network/dtls/mbedtls/mbedtls-2.16.2/library\pkparse.c ****  */
 244:D:/fchai/work/i-cube/I-CUBE-HUAWEI/Middlewares/Third_Party/Huawei/iot_link/network/dtls/mbedtls/mbedtls-2.16.2/library\pkparse.c **** static int pk_group_from_specified( const mbedtls_asn1_buf *params, mbedtls_ecp_group *grp )
 245:D:/fchai/work/i-cube/I-CUBE-HUAWEI/Middlewares/Third_Party/Huawei/iot_link/network/dtls/mbedtls/mbedtls-2.16.2/library\pkparse.c **** {
 246:D:/fchai/work/i-cube/I-CUBE-HUAWEI/Middlewares/Third_Party/Huawei/iot_link/network/dtls/mbedtls/mbedtls-2.16.2/library\pkparse.c ****     int ret;
 247:D:/fchai/work/i-cube/I-CUBE-HUAWEI/Middlewares/Third_Party/Huawei/iot_link/network/dtls/mbedtls/mbedtls-2.16.2/library\pkparse.c ****     unsigned char *p = params->p;
 248:D:/fchai/work/i-cube/I-CUBE-HUAWEI/Middlewares/Third_Party/Huawei/iot_link/network/dtls/mbedtls/mbedtls-2.16.2/library\pkparse.c ****     const unsigned char * const end = params->p + params->len;
 249:D:/fchai/work/i-cube/I-CUBE-HUAWEI/Middlewares/Third_Party/Huawei/iot_link/network/dtls/mbedtls/mbedtls-2.16.2/library\pkparse.c ****     const unsigned char *end_field, *end_curve;
 250:D:/fchai/work/i-cube/I-CUBE-HUAWEI/Middlewares/Third_Party/Huawei/iot_link/network/dtls/mbedtls/mbedtls-2.16.2/library\pkparse.c ****     size_t len;
 251:D:/fchai/work/i-cube/I-CUBE-HUAWEI/Middlewares/Third_Party/Huawei/iot_link/network/dtls/mbedtls/mbedtls-2.16.2/library\pkparse.c ****     int ver;
 252:D:/fchai/work/i-cube/I-CUBE-HUAWEI/Middlewares/Third_Party/Huawei/iot_link/network/dtls/mbedtls/mbedtls-2.16.2/library\pkparse.c **** 
 253:D:/fchai/work/i-cube/I-CUBE-HUAWEI/Middlewares/Third_Party/Huawei/iot_link/network/dtls/mbedtls/mbedtls-2.16.2/library\pkparse.c ****     /* SpecifiedECDomainVersion ::= INTEGER { 1, 2, 3 } */
 254:D:/fchai/work/i-cube/I-CUBE-HUAWEI/Middlewares/Third_Party/Huawei/iot_link/network/dtls/mbedtls/mbedtls-2.16.2/library\pkparse.c ****     if( ( ret = mbedtls_asn1_get_int( &p, end, &ver ) ) != 0 )
 255:D:/fchai/work/i-cube/I-CUBE-HUAWEI/Middlewares/Third_Party/Huawei/iot_link/network/dtls/mbedtls/mbedtls-2.16.2/library\pkparse.c ****         return( MBEDTLS_ERR_PK_KEY_INVALID_FORMAT + ret );
 256:D:/fchai/work/i-cube/I-CUBE-HUAWEI/Middlewares/Third_Party/Huawei/iot_link/network/dtls/mbedtls/mbedtls-2.16.2/library\pkparse.c **** 
 257:D:/fchai/work/i-cube/I-CUBE-HUAWEI/Middlewares/Third_Party/Huawei/iot_link/network/dtls/mbedtls/mbedtls-2.16.2/library\pkparse.c ****     if( ver < 1 || ver > 3 )
ARM GAS  T:\msys\tmp\cc83OHoG.s 			page 6


 258:D:/fchai/work/i-cube/I-CUBE-HUAWEI/Middlewares/Third_Party/Huawei/iot_link/network/dtls/mbedtls/mbedtls-2.16.2/library\pkparse.c ****         return( MBEDTLS_ERR_PK_KEY_INVALID_FORMAT );
 259:D:/fchai/work/i-cube/I-CUBE-HUAWEI/Middlewares/Third_Party/Huawei/iot_link/network/dtls/mbedtls/mbedtls-2.16.2/library\pkparse.c **** 
 260:D:/fchai/work/i-cube/I-CUBE-HUAWEI/Middlewares/Third_Party/Huawei/iot_link/network/dtls/mbedtls/mbedtls-2.16.2/library\pkparse.c ****     /*
 261:D:/fchai/work/i-cube/I-CUBE-HUAWEI/Middlewares/Third_Party/Huawei/iot_link/network/dtls/mbedtls/mbedtls-2.16.2/library\pkparse.c ****      * FieldID { FIELD-ID:IOSet } ::= SEQUENCE { -- Finite field
 262:D:/fchai/work/i-cube/I-CUBE-HUAWEI/Middlewares/Third_Party/Huawei/iot_link/network/dtls/mbedtls/mbedtls-2.16.2/library\pkparse.c ****      *       fieldType FIELD-ID.&id({IOSet}),
 263:D:/fchai/work/i-cube/I-CUBE-HUAWEI/Middlewares/Third_Party/Huawei/iot_link/network/dtls/mbedtls/mbedtls-2.16.2/library\pkparse.c ****      *       parameters FIELD-ID.&Type({IOSet}{@fieldType})
 264:D:/fchai/work/i-cube/I-CUBE-HUAWEI/Middlewares/Third_Party/Huawei/iot_link/network/dtls/mbedtls/mbedtls-2.16.2/library\pkparse.c ****      * }
 265:D:/fchai/work/i-cube/I-CUBE-HUAWEI/Middlewares/Third_Party/Huawei/iot_link/network/dtls/mbedtls/mbedtls-2.16.2/library\pkparse.c ****      */
 266:D:/fchai/work/i-cube/I-CUBE-HUAWEI/Middlewares/Third_Party/Huawei/iot_link/network/dtls/mbedtls/mbedtls-2.16.2/library\pkparse.c ****     if( ( ret = mbedtls_asn1_get_tag( &p, end, &len,
 267:D:/fchai/work/i-cube/I-CUBE-HUAWEI/Middlewares/Third_Party/Huawei/iot_link/network/dtls/mbedtls/mbedtls-2.16.2/library\pkparse.c ****             MBEDTLS_ASN1_CONSTRUCTED | MBEDTLS_ASN1_SEQUENCE ) ) != 0 )
 268:D:/fchai/work/i-cube/I-CUBE-HUAWEI/Middlewares/Third_Party/Huawei/iot_link/network/dtls/mbedtls/mbedtls-2.16.2/library\pkparse.c ****         return( ret );
 269:D:/fchai/work/i-cube/I-CUBE-HUAWEI/Middlewares/Third_Party/Huawei/iot_link/network/dtls/mbedtls/mbedtls-2.16.2/library\pkparse.c **** 
 270:D:/fchai/work/i-cube/I-CUBE-HUAWEI/Middlewares/Third_Party/Huawei/iot_link/network/dtls/mbedtls/mbedtls-2.16.2/library\pkparse.c ****     end_field = p + len;
 271:D:/fchai/work/i-cube/I-CUBE-HUAWEI/Middlewares/Third_Party/Huawei/iot_link/network/dtls/mbedtls/mbedtls-2.16.2/library\pkparse.c **** 
 272:D:/fchai/work/i-cube/I-CUBE-HUAWEI/Middlewares/Third_Party/Huawei/iot_link/network/dtls/mbedtls/mbedtls-2.16.2/library\pkparse.c ****     /*
 273:D:/fchai/work/i-cube/I-CUBE-HUAWEI/Middlewares/Third_Party/Huawei/iot_link/network/dtls/mbedtls/mbedtls-2.16.2/library\pkparse.c ****      * FIELD-ID ::= TYPE-IDENTIFIER
 274:D:/fchai/work/i-cube/I-CUBE-HUAWEI/Middlewares/Third_Party/Huawei/iot_link/network/dtls/mbedtls/mbedtls-2.16.2/library\pkparse.c ****      * FieldTypes FIELD-ID ::= {
 275:D:/fchai/work/i-cube/I-CUBE-HUAWEI/Middlewares/Third_Party/Huawei/iot_link/network/dtls/mbedtls/mbedtls-2.16.2/library\pkparse.c ****      *       { Prime-p IDENTIFIED BY prime-field } |
 276:D:/fchai/work/i-cube/I-CUBE-HUAWEI/Middlewares/Third_Party/Huawei/iot_link/network/dtls/mbedtls/mbedtls-2.16.2/library\pkparse.c ****      *       { Characteristic-two IDENTIFIED BY characteristic-two-field }
 277:D:/fchai/work/i-cube/I-CUBE-HUAWEI/Middlewares/Third_Party/Huawei/iot_link/network/dtls/mbedtls/mbedtls-2.16.2/library\pkparse.c ****      * }
 278:D:/fchai/work/i-cube/I-CUBE-HUAWEI/Middlewares/Third_Party/Huawei/iot_link/network/dtls/mbedtls/mbedtls-2.16.2/library\pkparse.c ****      * prime-field OBJECT IDENTIFIER ::= { id-fieldType 1 }
 279:D:/fchai/work/i-cube/I-CUBE-HUAWEI/Middlewares/Third_Party/Huawei/iot_link/network/dtls/mbedtls/mbedtls-2.16.2/library\pkparse.c ****      */
 280:D:/fchai/work/i-cube/I-CUBE-HUAWEI/Middlewares/Third_Party/Huawei/iot_link/network/dtls/mbedtls/mbedtls-2.16.2/library\pkparse.c ****     if( ( ret = mbedtls_asn1_get_tag( &p, end_field, &len, MBEDTLS_ASN1_OID ) ) != 0 )
 281:D:/fchai/work/i-cube/I-CUBE-HUAWEI/Middlewares/Third_Party/Huawei/iot_link/network/dtls/mbedtls/mbedtls-2.16.2/library\pkparse.c ****         return( ret );
 282:D:/fchai/work/i-cube/I-CUBE-HUAWEI/Middlewares/Third_Party/Huawei/iot_link/network/dtls/mbedtls/mbedtls-2.16.2/library\pkparse.c **** 
 283:D:/fchai/work/i-cube/I-CUBE-HUAWEI/Middlewares/Third_Party/Huawei/iot_link/network/dtls/mbedtls/mbedtls-2.16.2/library\pkparse.c ****     if( len != MBEDTLS_OID_SIZE( MBEDTLS_OID_ANSI_X9_62_PRIME_FIELD ) ||
 284:D:/fchai/work/i-cube/I-CUBE-HUAWEI/Middlewares/Third_Party/Huawei/iot_link/network/dtls/mbedtls/mbedtls-2.16.2/library\pkparse.c ****         memcmp( p, MBEDTLS_OID_ANSI_X9_62_PRIME_FIELD, len ) != 0 )
 285:D:/fchai/work/i-cube/I-CUBE-HUAWEI/Middlewares/Third_Party/Huawei/iot_link/network/dtls/mbedtls/mbedtls-2.16.2/library\pkparse.c ****     {
 286:D:/fchai/work/i-cube/I-CUBE-HUAWEI/Middlewares/Third_Party/Huawei/iot_link/network/dtls/mbedtls/mbedtls-2.16.2/library\pkparse.c ****         return( MBEDTLS_ERR_PK_FEATURE_UNAVAILABLE );
 287:D:/fchai/work/i-cube/I-CUBE-HUAWEI/Middlewares/Third_Party/Huawei/iot_link/network/dtls/mbedtls/mbedtls-2.16.2/library\pkparse.c ****     }
 288:D:/fchai/work/i-cube/I-CUBE-HUAWEI/Middlewares/Third_Party/Huawei/iot_link/network/dtls/mbedtls/mbedtls-2.16.2/library\pkparse.c **** 
 289:D:/fchai/work/i-cube/I-CUBE-HUAWEI/Middlewares/Third_Party/Huawei/iot_link/network/dtls/mbedtls/mbedtls-2.16.2/library\pkparse.c ****     p += len;
 290:D:/fchai/work/i-cube/I-CUBE-HUAWEI/Middlewares/Third_Party/Huawei/iot_link/network/dtls/mbedtls/mbedtls-2.16.2/library\pkparse.c **** 
 291:D:/fchai/work/i-cube/I-CUBE-HUAWEI/Middlewares/Third_Party/Huawei/iot_link/network/dtls/mbedtls/mbedtls-2.16.2/library\pkparse.c ****     /* Prime-p ::= INTEGER -- Field of size p. */
 292:D:/fchai/work/i-cube/I-CUBE-HUAWEI/Middlewares/Third_Party/Huawei/iot_link/network/dtls/mbedtls/mbedtls-2.16.2/library\pkparse.c ****     if( ( ret = mbedtls_asn1_get_mpi( &p, end_field, &grp->P ) ) != 0 )
 293:D:/fchai/work/i-cube/I-CUBE-HUAWEI/Middlewares/Third_Party/Huawei/iot_link/network/dtls/mbedtls/mbedtls-2.16.2/library\pkparse.c ****         return( MBEDTLS_ERR_PK_KEY_INVALID_FORMAT + ret );
 294:D:/fchai/work/i-cube/I-CUBE-HUAWEI/Middlewares/Third_Party/Huawei/iot_link/network/dtls/mbedtls/mbedtls-2.16.2/library\pkparse.c **** 
 295:D:/fchai/work/i-cube/I-CUBE-HUAWEI/Middlewares/Third_Party/Huawei/iot_link/network/dtls/mbedtls/mbedtls-2.16.2/library\pkparse.c ****     grp->pbits = mbedtls_mpi_bitlen( &grp->P );
 296:D:/fchai/work/i-cube/I-CUBE-HUAWEI/Middlewares/Third_Party/Huawei/iot_link/network/dtls/mbedtls/mbedtls-2.16.2/library\pkparse.c **** 
 297:D:/fchai/work/i-cube/I-CUBE-HUAWEI/Middlewares/Third_Party/Huawei/iot_link/network/dtls/mbedtls/mbedtls-2.16.2/library\pkparse.c ****     if( p != end_field )
 298:D:/fchai/work/i-cube/I-CUBE-HUAWEI/Middlewares/Third_Party/Huawei/iot_link/network/dtls/mbedtls/mbedtls-2.16.2/library\pkparse.c ****         return( MBEDTLS_ERR_PK_KEY_INVALID_FORMAT +
 299:D:/fchai/work/i-cube/I-CUBE-HUAWEI/Middlewares/Third_Party/Huawei/iot_link/network/dtls/mbedtls/mbedtls-2.16.2/library\pkparse.c ****                 MBEDTLS_ERR_ASN1_LENGTH_MISMATCH );
 300:D:/fchai/work/i-cube/I-CUBE-HUAWEI/Middlewares/Third_Party/Huawei/iot_link/network/dtls/mbedtls/mbedtls-2.16.2/library\pkparse.c **** 
 301:D:/fchai/work/i-cube/I-CUBE-HUAWEI/Middlewares/Third_Party/Huawei/iot_link/network/dtls/mbedtls/mbedtls-2.16.2/library\pkparse.c ****     /*
 302:D:/fchai/work/i-cube/I-CUBE-HUAWEI/Middlewares/Third_Party/Huawei/iot_link/network/dtls/mbedtls/mbedtls-2.16.2/library\pkparse.c ****      * Curve ::= SEQUENCE {
 303:D:/fchai/work/i-cube/I-CUBE-HUAWEI/Middlewares/Third_Party/Huawei/iot_link/network/dtls/mbedtls/mbedtls-2.16.2/library\pkparse.c ****      *       a FieldElement,
 304:D:/fchai/work/i-cube/I-CUBE-HUAWEI/Middlewares/Third_Party/Huawei/iot_link/network/dtls/mbedtls/mbedtls-2.16.2/library\pkparse.c ****      *       b FieldElement,
 305:D:/fchai/work/i-cube/I-CUBE-HUAWEI/Middlewares/Third_Party/Huawei/iot_link/network/dtls/mbedtls/mbedtls-2.16.2/library\pkparse.c ****      *       seed BIT STRING OPTIONAL
 306:D:/fchai/work/i-cube/I-CUBE-HUAWEI/Middlewares/Third_Party/Huawei/iot_link/network/dtls/mbedtls/mbedtls-2.16.2/library\pkparse.c ****      *       -- Shall be present if used in SpecifiedECDomain
 307:D:/fchai/work/i-cube/I-CUBE-HUAWEI/Middlewares/Third_Party/Huawei/iot_link/network/dtls/mbedtls/mbedtls-2.16.2/library\pkparse.c ****      *       -- with version equal to ecdpVer2 or ecdpVer3
 308:D:/fchai/work/i-cube/I-CUBE-HUAWEI/Middlewares/Third_Party/Huawei/iot_link/network/dtls/mbedtls/mbedtls-2.16.2/library\pkparse.c ****      * }
 309:D:/fchai/work/i-cube/I-CUBE-HUAWEI/Middlewares/Third_Party/Huawei/iot_link/network/dtls/mbedtls/mbedtls-2.16.2/library\pkparse.c ****      */
 310:D:/fchai/work/i-cube/I-CUBE-HUAWEI/Middlewares/Third_Party/Huawei/iot_link/network/dtls/mbedtls/mbedtls-2.16.2/library\pkparse.c ****     if( ( ret = mbedtls_asn1_get_tag( &p, end, &len,
 311:D:/fchai/work/i-cube/I-CUBE-HUAWEI/Middlewares/Third_Party/Huawei/iot_link/network/dtls/mbedtls/mbedtls-2.16.2/library\pkparse.c ****             MBEDTLS_ASN1_CONSTRUCTED | MBEDTLS_ASN1_SEQUENCE ) ) != 0 )
 312:D:/fchai/work/i-cube/I-CUBE-HUAWEI/Middlewares/Third_Party/Huawei/iot_link/network/dtls/mbedtls/mbedtls-2.16.2/library\pkparse.c ****         return( ret );
 313:D:/fchai/work/i-cube/I-CUBE-HUAWEI/Middlewares/Third_Party/Huawei/iot_link/network/dtls/mbedtls/mbedtls-2.16.2/library\pkparse.c **** 
 314:D:/fchai/work/i-cube/I-CUBE-HUAWEI/Middlewares/Third_Party/Huawei/iot_link/network/dtls/mbedtls/mbedtls-2.16.2/library\pkparse.c ****     end_curve = p + len;
ARM GAS  T:\msys\tmp\cc83OHoG.s 			page 7


 315:D:/fchai/work/i-cube/I-CUBE-HUAWEI/Middlewares/Third_Party/Huawei/iot_link/network/dtls/mbedtls/mbedtls-2.16.2/library\pkparse.c **** 
 316:D:/fchai/work/i-cube/I-CUBE-HUAWEI/Middlewares/Third_Party/Huawei/iot_link/network/dtls/mbedtls/mbedtls-2.16.2/library\pkparse.c ****     /*
 317:D:/fchai/work/i-cube/I-CUBE-HUAWEI/Middlewares/Third_Party/Huawei/iot_link/network/dtls/mbedtls/mbedtls-2.16.2/library\pkparse.c ****      * FieldElement ::= OCTET STRING
 318:D:/fchai/work/i-cube/I-CUBE-HUAWEI/Middlewares/Third_Party/Huawei/iot_link/network/dtls/mbedtls/mbedtls-2.16.2/library\pkparse.c ****      * containing an integer in the case of a prime field
 319:D:/fchai/work/i-cube/I-CUBE-HUAWEI/Middlewares/Third_Party/Huawei/iot_link/network/dtls/mbedtls/mbedtls-2.16.2/library\pkparse.c ****      */
 320:D:/fchai/work/i-cube/I-CUBE-HUAWEI/Middlewares/Third_Party/Huawei/iot_link/network/dtls/mbedtls/mbedtls-2.16.2/library\pkparse.c ****     if( ( ret = mbedtls_asn1_get_tag( &p, end_curve, &len, MBEDTLS_ASN1_OCTET_STRING ) ) != 0 ||
 321:D:/fchai/work/i-cube/I-CUBE-HUAWEI/Middlewares/Third_Party/Huawei/iot_link/network/dtls/mbedtls/mbedtls-2.16.2/library\pkparse.c ****         ( ret = mbedtls_mpi_read_binary( &grp->A, p, len ) ) != 0 )
 322:D:/fchai/work/i-cube/I-CUBE-HUAWEI/Middlewares/Third_Party/Huawei/iot_link/network/dtls/mbedtls/mbedtls-2.16.2/library\pkparse.c ****     {
 323:D:/fchai/work/i-cube/I-CUBE-HUAWEI/Middlewares/Third_Party/Huawei/iot_link/network/dtls/mbedtls/mbedtls-2.16.2/library\pkparse.c ****         return( MBEDTLS_ERR_PK_KEY_INVALID_FORMAT + ret );
 324:D:/fchai/work/i-cube/I-CUBE-HUAWEI/Middlewares/Third_Party/Huawei/iot_link/network/dtls/mbedtls/mbedtls-2.16.2/library\pkparse.c ****     }
 325:D:/fchai/work/i-cube/I-CUBE-HUAWEI/Middlewares/Third_Party/Huawei/iot_link/network/dtls/mbedtls/mbedtls-2.16.2/library\pkparse.c **** 
 326:D:/fchai/work/i-cube/I-CUBE-HUAWEI/Middlewares/Third_Party/Huawei/iot_link/network/dtls/mbedtls/mbedtls-2.16.2/library\pkparse.c ****     p += len;
 327:D:/fchai/work/i-cube/I-CUBE-HUAWEI/Middlewares/Third_Party/Huawei/iot_link/network/dtls/mbedtls/mbedtls-2.16.2/library\pkparse.c **** 
 328:D:/fchai/work/i-cube/I-CUBE-HUAWEI/Middlewares/Third_Party/Huawei/iot_link/network/dtls/mbedtls/mbedtls-2.16.2/library\pkparse.c ****     if( ( ret = mbedtls_asn1_get_tag( &p, end_curve, &len, MBEDTLS_ASN1_OCTET_STRING ) ) != 0 ||
 329:D:/fchai/work/i-cube/I-CUBE-HUAWEI/Middlewares/Third_Party/Huawei/iot_link/network/dtls/mbedtls/mbedtls-2.16.2/library\pkparse.c ****         ( ret = mbedtls_mpi_read_binary( &grp->B, p, len ) ) != 0 )
 330:D:/fchai/work/i-cube/I-CUBE-HUAWEI/Middlewares/Third_Party/Huawei/iot_link/network/dtls/mbedtls/mbedtls-2.16.2/library\pkparse.c ****     {
 331:D:/fchai/work/i-cube/I-CUBE-HUAWEI/Middlewares/Third_Party/Huawei/iot_link/network/dtls/mbedtls/mbedtls-2.16.2/library\pkparse.c ****         return( MBEDTLS_ERR_PK_KEY_INVALID_FORMAT + ret );
 332:D:/fchai/work/i-cube/I-CUBE-HUAWEI/Middlewares/Third_Party/Huawei/iot_link/network/dtls/mbedtls/mbedtls-2.16.2/library\pkparse.c ****     }
 333:D:/fchai/work/i-cube/I-CUBE-HUAWEI/Middlewares/Third_Party/Huawei/iot_link/network/dtls/mbedtls/mbedtls-2.16.2/library\pkparse.c **** 
 334:D:/fchai/work/i-cube/I-CUBE-HUAWEI/Middlewares/Third_Party/Huawei/iot_link/network/dtls/mbedtls/mbedtls-2.16.2/library\pkparse.c ****     p += len;
 335:D:/fchai/work/i-cube/I-CUBE-HUAWEI/Middlewares/Third_Party/Huawei/iot_link/network/dtls/mbedtls/mbedtls-2.16.2/library\pkparse.c **** 
 336:D:/fchai/work/i-cube/I-CUBE-HUAWEI/Middlewares/Third_Party/Huawei/iot_link/network/dtls/mbedtls/mbedtls-2.16.2/library\pkparse.c ****     /* Ignore seed BIT STRING OPTIONAL */
 337:D:/fchai/work/i-cube/I-CUBE-HUAWEI/Middlewares/Third_Party/Huawei/iot_link/network/dtls/mbedtls/mbedtls-2.16.2/library\pkparse.c ****     if( ( ret = mbedtls_asn1_get_tag( &p, end_curve, &len, MBEDTLS_ASN1_BIT_STRING ) ) == 0 )
 338:D:/fchai/work/i-cube/I-CUBE-HUAWEI/Middlewares/Third_Party/Huawei/iot_link/network/dtls/mbedtls/mbedtls-2.16.2/library\pkparse.c ****         p += len;
 339:D:/fchai/work/i-cube/I-CUBE-HUAWEI/Middlewares/Third_Party/Huawei/iot_link/network/dtls/mbedtls/mbedtls-2.16.2/library\pkparse.c **** 
 340:D:/fchai/work/i-cube/I-CUBE-HUAWEI/Middlewares/Third_Party/Huawei/iot_link/network/dtls/mbedtls/mbedtls-2.16.2/library\pkparse.c ****     if( p != end_curve )
 341:D:/fchai/work/i-cube/I-CUBE-HUAWEI/Middlewares/Third_Party/Huawei/iot_link/network/dtls/mbedtls/mbedtls-2.16.2/library\pkparse.c ****         return( MBEDTLS_ERR_PK_KEY_INVALID_FORMAT +
 342:D:/fchai/work/i-cube/I-CUBE-HUAWEI/Middlewares/Third_Party/Huawei/iot_link/network/dtls/mbedtls/mbedtls-2.16.2/library\pkparse.c ****                 MBEDTLS_ERR_ASN1_LENGTH_MISMATCH );
 343:D:/fchai/work/i-cube/I-CUBE-HUAWEI/Middlewares/Third_Party/Huawei/iot_link/network/dtls/mbedtls/mbedtls-2.16.2/library\pkparse.c **** 
 344:D:/fchai/work/i-cube/I-CUBE-HUAWEI/Middlewares/Third_Party/Huawei/iot_link/network/dtls/mbedtls/mbedtls-2.16.2/library\pkparse.c ****     /*
 345:D:/fchai/work/i-cube/I-CUBE-HUAWEI/Middlewares/Third_Party/Huawei/iot_link/network/dtls/mbedtls/mbedtls-2.16.2/library\pkparse.c ****      * ECPoint ::= OCTET STRING
 346:D:/fchai/work/i-cube/I-CUBE-HUAWEI/Middlewares/Third_Party/Huawei/iot_link/network/dtls/mbedtls/mbedtls-2.16.2/library\pkparse.c ****      */
 347:D:/fchai/work/i-cube/I-CUBE-HUAWEI/Middlewares/Third_Party/Huawei/iot_link/network/dtls/mbedtls/mbedtls-2.16.2/library\pkparse.c ****     if( ( ret = mbedtls_asn1_get_tag( &p, end, &len, MBEDTLS_ASN1_OCTET_STRING ) ) != 0 )
 348:D:/fchai/work/i-cube/I-CUBE-HUAWEI/Middlewares/Third_Party/Huawei/iot_link/network/dtls/mbedtls/mbedtls-2.16.2/library\pkparse.c ****         return( MBEDTLS_ERR_PK_KEY_INVALID_FORMAT + ret );
 349:D:/fchai/work/i-cube/I-CUBE-HUAWEI/Middlewares/Third_Party/Huawei/iot_link/network/dtls/mbedtls/mbedtls-2.16.2/library\pkparse.c **** 
 350:D:/fchai/work/i-cube/I-CUBE-HUAWEI/Middlewares/Third_Party/Huawei/iot_link/network/dtls/mbedtls/mbedtls-2.16.2/library\pkparse.c ****     if( ( ret = mbedtls_ecp_point_read_binary( grp, &grp->G,
 351:D:/fchai/work/i-cube/I-CUBE-HUAWEI/Middlewares/Third_Party/Huawei/iot_link/network/dtls/mbedtls/mbedtls-2.16.2/library\pkparse.c ****                                       ( const unsigned char *) p, len ) ) != 0 )
 352:D:/fchai/work/i-cube/I-CUBE-HUAWEI/Middlewares/Third_Party/Huawei/iot_link/network/dtls/mbedtls/mbedtls-2.16.2/library\pkparse.c ****     {
 353:D:/fchai/work/i-cube/I-CUBE-HUAWEI/Middlewares/Third_Party/Huawei/iot_link/network/dtls/mbedtls/mbedtls-2.16.2/library\pkparse.c ****         /*
 354:D:/fchai/work/i-cube/I-CUBE-HUAWEI/Middlewares/Third_Party/Huawei/iot_link/network/dtls/mbedtls/mbedtls-2.16.2/library\pkparse.c ****          * If we can't read the point because it's compressed, cheat by
 355:D:/fchai/work/i-cube/I-CUBE-HUAWEI/Middlewares/Third_Party/Huawei/iot_link/network/dtls/mbedtls/mbedtls-2.16.2/library\pkparse.c ****          * reading only the X coordinate and the parity bit of Y.
 356:D:/fchai/work/i-cube/I-CUBE-HUAWEI/Middlewares/Third_Party/Huawei/iot_link/network/dtls/mbedtls/mbedtls-2.16.2/library\pkparse.c ****          */
 357:D:/fchai/work/i-cube/I-CUBE-HUAWEI/Middlewares/Third_Party/Huawei/iot_link/network/dtls/mbedtls/mbedtls-2.16.2/library\pkparse.c ****         if( ret != MBEDTLS_ERR_ECP_FEATURE_UNAVAILABLE ||
 358:D:/fchai/work/i-cube/I-CUBE-HUAWEI/Middlewares/Third_Party/Huawei/iot_link/network/dtls/mbedtls/mbedtls-2.16.2/library\pkparse.c ****             ( p[0] != 0x02 && p[0] != 0x03 ) ||
 359:D:/fchai/work/i-cube/I-CUBE-HUAWEI/Middlewares/Third_Party/Huawei/iot_link/network/dtls/mbedtls/mbedtls-2.16.2/library\pkparse.c ****             len != mbedtls_mpi_size( &grp->P ) + 1 ||
 360:D:/fchai/work/i-cube/I-CUBE-HUAWEI/Middlewares/Third_Party/Huawei/iot_link/network/dtls/mbedtls/mbedtls-2.16.2/library\pkparse.c ****             mbedtls_mpi_read_binary( &grp->G.X, p + 1, len - 1 ) != 0 ||
 361:D:/fchai/work/i-cube/I-CUBE-HUAWEI/Middlewares/Third_Party/Huawei/iot_link/network/dtls/mbedtls/mbedtls-2.16.2/library\pkparse.c ****             mbedtls_mpi_lset( &grp->G.Y, p[0] - 2 ) != 0 ||
 362:D:/fchai/work/i-cube/I-CUBE-HUAWEI/Middlewares/Third_Party/Huawei/iot_link/network/dtls/mbedtls/mbedtls-2.16.2/library\pkparse.c ****             mbedtls_mpi_lset( &grp->G.Z, 1 ) != 0 )
 363:D:/fchai/work/i-cube/I-CUBE-HUAWEI/Middlewares/Third_Party/Huawei/iot_link/network/dtls/mbedtls/mbedtls-2.16.2/library\pkparse.c ****         {
 364:D:/fchai/work/i-cube/I-CUBE-HUAWEI/Middlewares/Third_Party/Huawei/iot_link/network/dtls/mbedtls/mbedtls-2.16.2/library\pkparse.c ****             return( MBEDTLS_ERR_PK_KEY_INVALID_FORMAT );
 365:D:/fchai/work/i-cube/I-CUBE-HUAWEI/Middlewares/Third_Party/Huawei/iot_link/network/dtls/mbedtls/mbedtls-2.16.2/library\pkparse.c ****         }
 366:D:/fchai/work/i-cube/I-CUBE-HUAWEI/Middlewares/Third_Party/Huawei/iot_link/network/dtls/mbedtls/mbedtls-2.16.2/library\pkparse.c ****     }
 367:D:/fchai/work/i-cube/I-CUBE-HUAWEI/Middlewares/Third_Party/Huawei/iot_link/network/dtls/mbedtls/mbedtls-2.16.2/library\pkparse.c **** 
 368:D:/fchai/work/i-cube/I-CUBE-HUAWEI/Middlewares/Third_Party/Huawei/iot_link/network/dtls/mbedtls/mbedtls-2.16.2/library\pkparse.c ****     p += len;
 369:D:/fchai/work/i-cube/I-CUBE-HUAWEI/Middlewares/Third_Party/Huawei/iot_link/network/dtls/mbedtls/mbedtls-2.16.2/library\pkparse.c **** 
 370:D:/fchai/work/i-cube/I-CUBE-HUAWEI/Middlewares/Third_Party/Huawei/iot_link/network/dtls/mbedtls/mbedtls-2.16.2/library\pkparse.c ****     /*
 371:D:/fchai/work/i-cube/I-CUBE-HUAWEI/Middlewares/Third_Party/Huawei/iot_link/network/dtls/mbedtls/mbedtls-2.16.2/library\pkparse.c ****      * order INTEGER
ARM GAS  T:\msys\tmp\cc83OHoG.s 			page 8


 372:D:/fchai/work/i-cube/I-CUBE-HUAWEI/Middlewares/Third_Party/Huawei/iot_link/network/dtls/mbedtls/mbedtls-2.16.2/library\pkparse.c ****      */
 373:D:/fchai/work/i-cube/I-CUBE-HUAWEI/Middlewares/Third_Party/Huawei/iot_link/network/dtls/mbedtls/mbedtls-2.16.2/library\pkparse.c ****     if( ( ret = mbedtls_asn1_get_mpi( &p, end, &grp->N ) ) != 0 )
 374:D:/fchai/work/i-cube/I-CUBE-HUAWEI/Middlewares/Third_Party/Huawei/iot_link/network/dtls/mbedtls/mbedtls-2.16.2/library\pkparse.c ****         return( MBEDTLS_ERR_PK_KEY_INVALID_FORMAT + ret );
 375:D:/fchai/work/i-cube/I-CUBE-HUAWEI/Middlewares/Third_Party/Huawei/iot_link/network/dtls/mbedtls/mbedtls-2.16.2/library\pkparse.c **** 
 376:D:/fchai/work/i-cube/I-CUBE-HUAWEI/Middlewares/Third_Party/Huawei/iot_link/network/dtls/mbedtls/mbedtls-2.16.2/library\pkparse.c ****     grp->nbits = mbedtls_mpi_bitlen( &grp->N );
 377:D:/fchai/work/i-cube/I-CUBE-HUAWEI/Middlewares/Third_Party/Huawei/iot_link/network/dtls/mbedtls/mbedtls-2.16.2/library\pkparse.c **** 
 378:D:/fchai/work/i-cube/I-CUBE-HUAWEI/Middlewares/Third_Party/Huawei/iot_link/network/dtls/mbedtls/mbedtls-2.16.2/library\pkparse.c ****     /*
 379:D:/fchai/work/i-cube/I-CUBE-HUAWEI/Middlewares/Third_Party/Huawei/iot_link/network/dtls/mbedtls/mbedtls-2.16.2/library\pkparse.c ****      * Allow optional elements by purposefully not enforcing p == end here.
 380:D:/fchai/work/i-cube/I-CUBE-HUAWEI/Middlewares/Third_Party/Huawei/iot_link/network/dtls/mbedtls/mbedtls-2.16.2/library\pkparse.c ****      */
 381:D:/fchai/work/i-cube/I-CUBE-HUAWEI/Middlewares/Third_Party/Huawei/iot_link/network/dtls/mbedtls/mbedtls-2.16.2/library\pkparse.c **** 
 382:D:/fchai/work/i-cube/I-CUBE-HUAWEI/Middlewares/Third_Party/Huawei/iot_link/network/dtls/mbedtls/mbedtls-2.16.2/library\pkparse.c ****     return( 0 );
 383:D:/fchai/work/i-cube/I-CUBE-HUAWEI/Middlewares/Third_Party/Huawei/iot_link/network/dtls/mbedtls/mbedtls-2.16.2/library\pkparse.c **** }
 384:D:/fchai/work/i-cube/I-CUBE-HUAWEI/Middlewares/Third_Party/Huawei/iot_link/network/dtls/mbedtls/mbedtls-2.16.2/library\pkparse.c **** 
 385:D:/fchai/work/i-cube/I-CUBE-HUAWEI/Middlewares/Third_Party/Huawei/iot_link/network/dtls/mbedtls/mbedtls-2.16.2/library\pkparse.c **** /*
 386:D:/fchai/work/i-cube/I-CUBE-HUAWEI/Middlewares/Third_Party/Huawei/iot_link/network/dtls/mbedtls/mbedtls-2.16.2/library\pkparse.c ****  * Find the group id associated with an (almost filled) group as generated by
 387:D:/fchai/work/i-cube/I-CUBE-HUAWEI/Middlewares/Third_Party/Huawei/iot_link/network/dtls/mbedtls/mbedtls-2.16.2/library\pkparse.c ****  * pk_group_from_specified(), or return an error if unknown.
 388:D:/fchai/work/i-cube/I-CUBE-HUAWEI/Middlewares/Third_Party/Huawei/iot_link/network/dtls/mbedtls/mbedtls-2.16.2/library\pkparse.c ****  */
 389:D:/fchai/work/i-cube/I-CUBE-HUAWEI/Middlewares/Third_Party/Huawei/iot_link/network/dtls/mbedtls/mbedtls-2.16.2/library\pkparse.c **** static int pk_group_id_from_group( const mbedtls_ecp_group *grp, mbedtls_ecp_group_id *grp_id )
 390:D:/fchai/work/i-cube/I-CUBE-HUAWEI/Middlewares/Third_Party/Huawei/iot_link/network/dtls/mbedtls/mbedtls-2.16.2/library\pkparse.c **** {
 391:D:/fchai/work/i-cube/I-CUBE-HUAWEI/Middlewares/Third_Party/Huawei/iot_link/network/dtls/mbedtls/mbedtls-2.16.2/library\pkparse.c ****     int ret = 0;
 392:D:/fchai/work/i-cube/I-CUBE-HUAWEI/Middlewares/Third_Party/Huawei/iot_link/network/dtls/mbedtls/mbedtls-2.16.2/library\pkparse.c ****     mbedtls_ecp_group ref;
 393:D:/fchai/work/i-cube/I-CUBE-HUAWEI/Middlewares/Third_Party/Huawei/iot_link/network/dtls/mbedtls/mbedtls-2.16.2/library\pkparse.c ****     const mbedtls_ecp_group_id *id;
 394:D:/fchai/work/i-cube/I-CUBE-HUAWEI/Middlewares/Third_Party/Huawei/iot_link/network/dtls/mbedtls/mbedtls-2.16.2/library\pkparse.c **** 
 395:D:/fchai/work/i-cube/I-CUBE-HUAWEI/Middlewares/Third_Party/Huawei/iot_link/network/dtls/mbedtls/mbedtls-2.16.2/library\pkparse.c ****     mbedtls_ecp_group_init( &ref );
 396:D:/fchai/work/i-cube/I-CUBE-HUAWEI/Middlewares/Third_Party/Huawei/iot_link/network/dtls/mbedtls/mbedtls-2.16.2/library\pkparse.c **** 
 397:D:/fchai/work/i-cube/I-CUBE-HUAWEI/Middlewares/Third_Party/Huawei/iot_link/network/dtls/mbedtls/mbedtls-2.16.2/library\pkparse.c ****     for( id = mbedtls_ecp_grp_id_list(); *id != MBEDTLS_ECP_DP_NONE; id++ )
 398:D:/fchai/work/i-cube/I-CUBE-HUAWEI/Middlewares/Third_Party/Huawei/iot_link/network/dtls/mbedtls/mbedtls-2.16.2/library\pkparse.c ****     {
 399:D:/fchai/work/i-cube/I-CUBE-HUAWEI/Middlewares/Third_Party/Huawei/iot_link/network/dtls/mbedtls/mbedtls-2.16.2/library\pkparse.c ****         /* Load the group associated to that id */
 400:D:/fchai/work/i-cube/I-CUBE-HUAWEI/Middlewares/Third_Party/Huawei/iot_link/network/dtls/mbedtls/mbedtls-2.16.2/library\pkparse.c ****         mbedtls_ecp_group_free( &ref );
 401:D:/fchai/work/i-cube/I-CUBE-HUAWEI/Middlewares/Third_Party/Huawei/iot_link/network/dtls/mbedtls/mbedtls-2.16.2/library\pkparse.c ****         MBEDTLS_MPI_CHK( mbedtls_ecp_group_load( &ref, *id ) );
 402:D:/fchai/work/i-cube/I-CUBE-HUAWEI/Middlewares/Third_Party/Huawei/iot_link/network/dtls/mbedtls/mbedtls-2.16.2/library\pkparse.c **** 
 403:D:/fchai/work/i-cube/I-CUBE-HUAWEI/Middlewares/Third_Party/Huawei/iot_link/network/dtls/mbedtls/mbedtls-2.16.2/library\pkparse.c ****         /* Compare to the group we were given, starting with easy tests */
 404:D:/fchai/work/i-cube/I-CUBE-HUAWEI/Middlewares/Third_Party/Huawei/iot_link/network/dtls/mbedtls/mbedtls-2.16.2/library\pkparse.c ****         if( grp->pbits == ref.pbits && grp->nbits == ref.nbits &&
 405:D:/fchai/work/i-cube/I-CUBE-HUAWEI/Middlewares/Third_Party/Huawei/iot_link/network/dtls/mbedtls/mbedtls-2.16.2/library\pkparse.c ****             mbedtls_mpi_cmp_mpi( &grp->P, &ref.P ) == 0 &&
 406:D:/fchai/work/i-cube/I-CUBE-HUAWEI/Middlewares/Third_Party/Huawei/iot_link/network/dtls/mbedtls/mbedtls-2.16.2/library\pkparse.c ****             mbedtls_mpi_cmp_mpi( &grp->A, &ref.A ) == 0 &&
 407:D:/fchai/work/i-cube/I-CUBE-HUAWEI/Middlewares/Third_Party/Huawei/iot_link/network/dtls/mbedtls/mbedtls-2.16.2/library\pkparse.c ****             mbedtls_mpi_cmp_mpi( &grp->B, &ref.B ) == 0 &&
 408:D:/fchai/work/i-cube/I-CUBE-HUAWEI/Middlewares/Third_Party/Huawei/iot_link/network/dtls/mbedtls/mbedtls-2.16.2/library\pkparse.c ****             mbedtls_mpi_cmp_mpi( &grp->N, &ref.N ) == 0 &&
 409:D:/fchai/work/i-cube/I-CUBE-HUAWEI/Middlewares/Third_Party/Huawei/iot_link/network/dtls/mbedtls/mbedtls-2.16.2/library\pkparse.c ****             mbedtls_mpi_cmp_mpi( &grp->G.X, &ref.G.X ) == 0 &&
 410:D:/fchai/work/i-cube/I-CUBE-HUAWEI/Middlewares/Third_Party/Huawei/iot_link/network/dtls/mbedtls/mbedtls-2.16.2/library\pkparse.c ****             mbedtls_mpi_cmp_mpi( &grp->G.Z, &ref.G.Z ) == 0 &&
 411:D:/fchai/work/i-cube/I-CUBE-HUAWEI/Middlewares/Third_Party/Huawei/iot_link/network/dtls/mbedtls/mbedtls-2.16.2/library\pkparse.c ****             /* For Y we may only know the parity bit, so compare only that */
 412:D:/fchai/work/i-cube/I-CUBE-HUAWEI/Middlewares/Third_Party/Huawei/iot_link/network/dtls/mbedtls/mbedtls-2.16.2/library\pkparse.c ****             mbedtls_mpi_get_bit( &grp->G.Y, 0 ) == mbedtls_mpi_get_bit( &ref.G.Y, 0 ) )
 413:D:/fchai/work/i-cube/I-CUBE-HUAWEI/Middlewares/Third_Party/Huawei/iot_link/network/dtls/mbedtls/mbedtls-2.16.2/library\pkparse.c ****         {
 414:D:/fchai/work/i-cube/I-CUBE-HUAWEI/Middlewares/Third_Party/Huawei/iot_link/network/dtls/mbedtls/mbedtls-2.16.2/library\pkparse.c ****             break;
 415:D:/fchai/work/i-cube/I-CUBE-HUAWEI/Middlewares/Third_Party/Huawei/iot_link/network/dtls/mbedtls/mbedtls-2.16.2/library\pkparse.c ****         }
 416:D:/fchai/work/i-cube/I-CUBE-HUAWEI/Middlewares/Third_Party/Huawei/iot_link/network/dtls/mbedtls/mbedtls-2.16.2/library\pkparse.c **** 
 417:D:/fchai/work/i-cube/I-CUBE-HUAWEI/Middlewares/Third_Party/Huawei/iot_link/network/dtls/mbedtls/mbedtls-2.16.2/library\pkparse.c ****     }
 418:D:/fchai/work/i-cube/I-CUBE-HUAWEI/Middlewares/Third_Party/Huawei/iot_link/network/dtls/mbedtls/mbedtls-2.16.2/library\pkparse.c **** 
 419:D:/fchai/work/i-cube/I-CUBE-HUAWEI/Middlewares/Third_Party/Huawei/iot_link/network/dtls/mbedtls/mbedtls-2.16.2/library\pkparse.c **** cleanup:
 420:D:/fchai/work/i-cube/I-CUBE-HUAWEI/Middlewares/Third_Party/Huawei/iot_link/network/dtls/mbedtls/mbedtls-2.16.2/library\pkparse.c ****     mbedtls_ecp_group_free( &ref );
 421:D:/fchai/work/i-cube/I-CUBE-HUAWEI/Middlewares/Third_Party/Huawei/iot_link/network/dtls/mbedtls/mbedtls-2.16.2/library\pkparse.c **** 
 422:D:/fchai/work/i-cube/I-CUBE-HUAWEI/Middlewares/Third_Party/Huawei/iot_link/network/dtls/mbedtls/mbedtls-2.16.2/library\pkparse.c ****     *grp_id = *id;
 423:D:/fchai/work/i-cube/I-CUBE-HUAWEI/Middlewares/Third_Party/Huawei/iot_link/network/dtls/mbedtls/mbedtls-2.16.2/library\pkparse.c **** 
 424:D:/fchai/work/i-cube/I-CUBE-HUAWEI/Middlewares/Third_Party/Huawei/iot_link/network/dtls/mbedtls/mbedtls-2.16.2/library\pkparse.c ****     if( ret == 0 && *id == MBEDTLS_ECP_DP_NONE )
 425:D:/fchai/work/i-cube/I-CUBE-HUAWEI/Middlewares/Third_Party/Huawei/iot_link/network/dtls/mbedtls/mbedtls-2.16.2/library\pkparse.c ****         ret = MBEDTLS_ERR_ECP_FEATURE_UNAVAILABLE;
 426:D:/fchai/work/i-cube/I-CUBE-HUAWEI/Middlewares/Third_Party/Huawei/iot_link/network/dtls/mbedtls/mbedtls-2.16.2/library\pkparse.c **** 
 427:D:/fchai/work/i-cube/I-CUBE-HUAWEI/Middlewares/Third_Party/Huawei/iot_link/network/dtls/mbedtls/mbedtls-2.16.2/library\pkparse.c ****     return( ret );
 428:D:/fchai/work/i-cube/I-CUBE-HUAWEI/Middlewares/Third_Party/Huawei/iot_link/network/dtls/mbedtls/mbedtls-2.16.2/library\pkparse.c **** }
ARM GAS  T:\msys\tmp\cc83OHoG.s 			page 9


 429:D:/fchai/work/i-cube/I-CUBE-HUAWEI/Middlewares/Third_Party/Huawei/iot_link/network/dtls/mbedtls/mbedtls-2.16.2/library\pkparse.c **** 
 430:D:/fchai/work/i-cube/I-CUBE-HUAWEI/Middlewares/Third_Party/Huawei/iot_link/network/dtls/mbedtls/mbedtls-2.16.2/library\pkparse.c **** /*
 431:D:/fchai/work/i-cube/I-CUBE-HUAWEI/Middlewares/Third_Party/Huawei/iot_link/network/dtls/mbedtls/mbedtls-2.16.2/library\pkparse.c ****  * Parse a SpecifiedECDomain (SEC 1 C.2) and find the associated group ID
 432:D:/fchai/work/i-cube/I-CUBE-HUAWEI/Middlewares/Third_Party/Huawei/iot_link/network/dtls/mbedtls/mbedtls-2.16.2/library\pkparse.c ****  */
 433:D:/fchai/work/i-cube/I-CUBE-HUAWEI/Middlewares/Third_Party/Huawei/iot_link/network/dtls/mbedtls/mbedtls-2.16.2/library\pkparse.c **** static int pk_group_id_from_specified( const mbedtls_asn1_buf *params,
 434:D:/fchai/work/i-cube/I-CUBE-HUAWEI/Middlewares/Third_Party/Huawei/iot_link/network/dtls/mbedtls/mbedtls-2.16.2/library\pkparse.c ****                                        mbedtls_ecp_group_id *grp_id )
 435:D:/fchai/work/i-cube/I-CUBE-HUAWEI/Middlewares/Third_Party/Huawei/iot_link/network/dtls/mbedtls/mbedtls-2.16.2/library\pkparse.c **** {
 436:D:/fchai/work/i-cube/I-CUBE-HUAWEI/Middlewares/Third_Party/Huawei/iot_link/network/dtls/mbedtls/mbedtls-2.16.2/library\pkparse.c ****     int ret;
 437:D:/fchai/work/i-cube/I-CUBE-HUAWEI/Middlewares/Third_Party/Huawei/iot_link/network/dtls/mbedtls/mbedtls-2.16.2/library\pkparse.c ****     mbedtls_ecp_group grp;
 438:D:/fchai/work/i-cube/I-CUBE-HUAWEI/Middlewares/Third_Party/Huawei/iot_link/network/dtls/mbedtls/mbedtls-2.16.2/library\pkparse.c **** 
 439:D:/fchai/work/i-cube/I-CUBE-HUAWEI/Middlewares/Third_Party/Huawei/iot_link/network/dtls/mbedtls/mbedtls-2.16.2/library\pkparse.c ****     mbedtls_ecp_group_init( &grp );
 440:D:/fchai/work/i-cube/I-CUBE-HUAWEI/Middlewares/Third_Party/Huawei/iot_link/network/dtls/mbedtls/mbedtls-2.16.2/library\pkparse.c **** 
 441:D:/fchai/work/i-cube/I-CUBE-HUAWEI/Middlewares/Third_Party/Huawei/iot_link/network/dtls/mbedtls/mbedtls-2.16.2/library\pkparse.c ****     if( ( ret = pk_group_from_specified( params, &grp ) ) != 0 )
 442:D:/fchai/work/i-cube/I-CUBE-HUAWEI/Middlewares/Third_Party/Huawei/iot_link/network/dtls/mbedtls/mbedtls-2.16.2/library\pkparse.c ****         goto cleanup;
 443:D:/fchai/work/i-cube/I-CUBE-HUAWEI/Middlewares/Third_Party/Huawei/iot_link/network/dtls/mbedtls/mbedtls-2.16.2/library\pkparse.c **** 
 444:D:/fchai/work/i-cube/I-CUBE-HUAWEI/Middlewares/Third_Party/Huawei/iot_link/network/dtls/mbedtls/mbedtls-2.16.2/library\pkparse.c ****     ret = pk_group_id_from_group( &grp, grp_id );
 445:D:/fchai/work/i-cube/I-CUBE-HUAWEI/Middlewares/Third_Party/Huawei/iot_link/network/dtls/mbedtls/mbedtls-2.16.2/library\pkparse.c **** 
 446:D:/fchai/work/i-cube/I-CUBE-HUAWEI/Middlewares/Third_Party/Huawei/iot_link/network/dtls/mbedtls/mbedtls-2.16.2/library\pkparse.c **** cleanup:
 447:D:/fchai/work/i-cube/I-CUBE-HUAWEI/Middlewares/Third_Party/Huawei/iot_link/network/dtls/mbedtls/mbedtls-2.16.2/library\pkparse.c ****     mbedtls_ecp_group_free( &grp );
 448:D:/fchai/work/i-cube/I-CUBE-HUAWEI/Middlewares/Third_Party/Huawei/iot_link/network/dtls/mbedtls/mbedtls-2.16.2/library\pkparse.c **** 
 449:D:/fchai/work/i-cube/I-CUBE-HUAWEI/Middlewares/Third_Party/Huawei/iot_link/network/dtls/mbedtls/mbedtls-2.16.2/library\pkparse.c ****     return( ret );
 450:D:/fchai/work/i-cube/I-CUBE-HUAWEI/Middlewares/Third_Party/Huawei/iot_link/network/dtls/mbedtls/mbedtls-2.16.2/library\pkparse.c **** }
 451:D:/fchai/work/i-cube/I-CUBE-HUAWEI/Middlewares/Third_Party/Huawei/iot_link/network/dtls/mbedtls/mbedtls-2.16.2/library\pkparse.c **** #endif /* MBEDTLS_PK_PARSE_EC_EXTENDED */
 452:D:/fchai/work/i-cube/I-CUBE-HUAWEI/Middlewares/Third_Party/Huawei/iot_link/network/dtls/mbedtls/mbedtls-2.16.2/library\pkparse.c **** 
 453:D:/fchai/work/i-cube/I-CUBE-HUAWEI/Middlewares/Third_Party/Huawei/iot_link/network/dtls/mbedtls/mbedtls-2.16.2/library\pkparse.c **** /*
 454:D:/fchai/work/i-cube/I-CUBE-HUAWEI/Middlewares/Third_Party/Huawei/iot_link/network/dtls/mbedtls/mbedtls-2.16.2/library\pkparse.c ****  * Use EC parameters to initialise an EC group
 455:D:/fchai/work/i-cube/I-CUBE-HUAWEI/Middlewares/Third_Party/Huawei/iot_link/network/dtls/mbedtls/mbedtls-2.16.2/library\pkparse.c ****  *
 456:D:/fchai/work/i-cube/I-CUBE-HUAWEI/Middlewares/Third_Party/Huawei/iot_link/network/dtls/mbedtls/mbedtls-2.16.2/library\pkparse.c ****  * ECParameters ::= CHOICE {
 457:D:/fchai/work/i-cube/I-CUBE-HUAWEI/Middlewares/Third_Party/Huawei/iot_link/network/dtls/mbedtls/mbedtls-2.16.2/library\pkparse.c ****  *   namedCurve         OBJECT IDENTIFIER
 458:D:/fchai/work/i-cube/I-CUBE-HUAWEI/Middlewares/Third_Party/Huawei/iot_link/network/dtls/mbedtls/mbedtls-2.16.2/library\pkparse.c ****  *   specifiedCurve     SpecifiedECDomain -- = SEQUENCE { ... }
 459:D:/fchai/work/i-cube/I-CUBE-HUAWEI/Middlewares/Third_Party/Huawei/iot_link/network/dtls/mbedtls/mbedtls-2.16.2/library\pkparse.c ****  *   -- implicitCurve   NULL
 460:D:/fchai/work/i-cube/I-CUBE-HUAWEI/Middlewares/Third_Party/Huawei/iot_link/network/dtls/mbedtls/mbedtls-2.16.2/library\pkparse.c ****  */
 461:D:/fchai/work/i-cube/I-CUBE-HUAWEI/Middlewares/Third_Party/Huawei/iot_link/network/dtls/mbedtls/mbedtls-2.16.2/library\pkparse.c **** static int pk_use_ecparams( const mbedtls_asn1_buf *params, mbedtls_ecp_group *grp )
 462:D:/fchai/work/i-cube/I-CUBE-HUAWEI/Middlewares/Third_Party/Huawei/iot_link/network/dtls/mbedtls/mbedtls-2.16.2/library\pkparse.c **** {
 463:D:/fchai/work/i-cube/I-CUBE-HUAWEI/Middlewares/Third_Party/Huawei/iot_link/network/dtls/mbedtls/mbedtls-2.16.2/library\pkparse.c ****     int ret;
 464:D:/fchai/work/i-cube/I-CUBE-HUAWEI/Middlewares/Third_Party/Huawei/iot_link/network/dtls/mbedtls/mbedtls-2.16.2/library\pkparse.c ****     mbedtls_ecp_group_id grp_id;
 465:D:/fchai/work/i-cube/I-CUBE-HUAWEI/Middlewares/Third_Party/Huawei/iot_link/network/dtls/mbedtls/mbedtls-2.16.2/library\pkparse.c **** 
 466:D:/fchai/work/i-cube/I-CUBE-HUAWEI/Middlewares/Third_Party/Huawei/iot_link/network/dtls/mbedtls/mbedtls-2.16.2/library\pkparse.c ****     if( params->tag == MBEDTLS_ASN1_OID )
 467:D:/fchai/work/i-cube/I-CUBE-HUAWEI/Middlewares/Third_Party/Huawei/iot_link/network/dtls/mbedtls/mbedtls-2.16.2/library\pkparse.c ****     {
 468:D:/fchai/work/i-cube/I-CUBE-HUAWEI/Middlewares/Third_Party/Huawei/iot_link/network/dtls/mbedtls/mbedtls-2.16.2/library\pkparse.c ****         if( mbedtls_oid_get_ec_grp( params, &grp_id ) != 0 )
 469:D:/fchai/work/i-cube/I-CUBE-HUAWEI/Middlewares/Third_Party/Huawei/iot_link/network/dtls/mbedtls/mbedtls-2.16.2/library\pkparse.c ****             return( MBEDTLS_ERR_PK_UNKNOWN_NAMED_CURVE );
 470:D:/fchai/work/i-cube/I-CUBE-HUAWEI/Middlewares/Third_Party/Huawei/iot_link/network/dtls/mbedtls/mbedtls-2.16.2/library\pkparse.c ****     }
 471:D:/fchai/work/i-cube/I-CUBE-HUAWEI/Middlewares/Third_Party/Huawei/iot_link/network/dtls/mbedtls/mbedtls-2.16.2/library\pkparse.c ****     else
 472:D:/fchai/work/i-cube/I-CUBE-HUAWEI/Middlewares/Third_Party/Huawei/iot_link/network/dtls/mbedtls/mbedtls-2.16.2/library\pkparse.c ****     {
 473:D:/fchai/work/i-cube/I-CUBE-HUAWEI/Middlewares/Third_Party/Huawei/iot_link/network/dtls/mbedtls/mbedtls-2.16.2/library\pkparse.c **** #if defined(MBEDTLS_PK_PARSE_EC_EXTENDED)
 474:D:/fchai/work/i-cube/I-CUBE-HUAWEI/Middlewares/Third_Party/Huawei/iot_link/network/dtls/mbedtls/mbedtls-2.16.2/library\pkparse.c ****         if( ( ret = pk_group_id_from_specified( params, &grp_id ) ) != 0 )
 475:D:/fchai/work/i-cube/I-CUBE-HUAWEI/Middlewares/Third_Party/Huawei/iot_link/network/dtls/mbedtls/mbedtls-2.16.2/library\pkparse.c ****             return( ret );
 476:D:/fchai/work/i-cube/I-CUBE-HUAWEI/Middlewares/Third_Party/Huawei/iot_link/network/dtls/mbedtls/mbedtls-2.16.2/library\pkparse.c **** #else
 477:D:/fchai/work/i-cube/I-CUBE-HUAWEI/Middlewares/Third_Party/Huawei/iot_link/network/dtls/mbedtls/mbedtls-2.16.2/library\pkparse.c ****         return( MBEDTLS_ERR_PK_KEY_INVALID_FORMAT );
 478:D:/fchai/work/i-cube/I-CUBE-HUAWEI/Middlewares/Third_Party/Huawei/iot_link/network/dtls/mbedtls/mbedtls-2.16.2/library\pkparse.c **** #endif
 479:D:/fchai/work/i-cube/I-CUBE-HUAWEI/Middlewares/Third_Party/Huawei/iot_link/network/dtls/mbedtls/mbedtls-2.16.2/library\pkparse.c ****     }
 480:D:/fchai/work/i-cube/I-CUBE-HUAWEI/Middlewares/Third_Party/Huawei/iot_link/network/dtls/mbedtls/mbedtls-2.16.2/library\pkparse.c **** 
 481:D:/fchai/work/i-cube/I-CUBE-HUAWEI/Middlewares/Third_Party/Huawei/iot_link/network/dtls/mbedtls/mbedtls-2.16.2/library\pkparse.c ****     /*
 482:D:/fchai/work/i-cube/I-CUBE-HUAWEI/Middlewares/Third_Party/Huawei/iot_link/network/dtls/mbedtls/mbedtls-2.16.2/library\pkparse.c ****      * grp may already be initilialized; if so, make sure IDs match
 483:D:/fchai/work/i-cube/I-CUBE-HUAWEI/Middlewares/Third_Party/Huawei/iot_link/network/dtls/mbedtls/mbedtls-2.16.2/library\pkparse.c ****      */
 484:D:/fchai/work/i-cube/I-CUBE-HUAWEI/Middlewares/Third_Party/Huawei/iot_link/network/dtls/mbedtls/mbedtls-2.16.2/library\pkparse.c ****     if( grp->id != MBEDTLS_ECP_DP_NONE && grp->id != grp_id )
 485:D:/fchai/work/i-cube/I-CUBE-HUAWEI/Middlewares/Third_Party/Huawei/iot_link/network/dtls/mbedtls/mbedtls-2.16.2/library\pkparse.c ****         return( MBEDTLS_ERR_PK_KEY_INVALID_FORMAT );
ARM GAS  T:\msys\tmp\cc83OHoG.s 			page 10


 486:D:/fchai/work/i-cube/I-CUBE-HUAWEI/Middlewares/Third_Party/Huawei/iot_link/network/dtls/mbedtls/mbedtls-2.16.2/library\pkparse.c **** 
 487:D:/fchai/work/i-cube/I-CUBE-HUAWEI/Middlewares/Third_Party/Huawei/iot_link/network/dtls/mbedtls/mbedtls-2.16.2/library\pkparse.c ****     if( ( ret = mbedtls_ecp_group_load( grp, grp_id ) ) != 0 )
 488:D:/fchai/work/i-cube/I-CUBE-HUAWEI/Middlewares/Third_Party/Huawei/iot_link/network/dtls/mbedtls/mbedtls-2.16.2/library\pkparse.c ****         return( ret );
 489:D:/fchai/work/i-cube/I-CUBE-HUAWEI/Middlewares/Third_Party/Huawei/iot_link/network/dtls/mbedtls/mbedtls-2.16.2/library\pkparse.c **** 
 490:D:/fchai/work/i-cube/I-CUBE-HUAWEI/Middlewares/Third_Party/Huawei/iot_link/network/dtls/mbedtls/mbedtls-2.16.2/library\pkparse.c ****     return( 0 );
 491:D:/fchai/work/i-cube/I-CUBE-HUAWEI/Middlewares/Third_Party/Huawei/iot_link/network/dtls/mbedtls/mbedtls-2.16.2/library\pkparse.c **** }
 492:D:/fchai/work/i-cube/I-CUBE-HUAWEI/Middlewares/Third_Party/Huawei/iot_link/network/dtls/mbedtls/mbedtls-2.16.2/library\pkparse.c **** 
 493:D:/fchai/work/i-cube/I-CUBE-HUAWEI/Middlewares/Third_Party/Huawei/iot_link/network/dtls/mbedtls/mbedtls-2.16.2/library\pkparse.c **** /*
 494:D:/fchai/work/i-cube/I-CUBE-HUAWEI/Middlewares/Third_Party/Huawei/iot_link/network/dtls/mbedtls/mbedtls-2.16.2/library\pkparse.c ****  * EC public key is an EC point
 495:D:/fchai/work/i-cube/I-CUBE-HUAWEI/Middlewares/Third_Party/Huawei/iot_link/network/dtls/mbedtls/mbedtls-2.16.2/library\pkparse.c ****  *
 496:D:/fchai/work/i-cube/I-CUBE-HUAWEI/Middlewares/Third_Party/Huawei/iot_link/network/dtls/mbedtls/mbedtls-2.16.2/library\pkparse.c ****  * The caller is responsible for clearing the structure upon failure if
 497:D:/fchai/work/i-cube/I-CUBE-HUAWEI/Middlewares/Third_Party/Huawei/iot_link/network/dtls/mbedtls/mbedtls-2.16.2/library\pkparse.c ****  * desired. Take care to pass along the possible ECP_FEATURE_UNAVAILABLE
 498:D:/fchai/work/i-cube/I-CUBE-HUAWEI/Middlewares/Third_Party/Huawei/iot_link/network/dtls/mbedtls/mbedtls-2.16.2/library\pkparse.c ****  * return code of mbedtls_ecp_point_read_binary() and leave p in a usable state.
 499:D:/fchai/work/i-cube/I-CUBE-HUAWEI/Middlewares/Third_Party/Huawei/iot_link/network/dtls/mbedtls/mbedtls-2.16.2/library\pkparse.c ****  */
 500:D:/fchai/work/i-cube/I-CUBE-HUAWEI/Middlewares/Third_Party/Huawei/iot_link/network/dtls/mbedtls/mbedtls-2.16.2/library\pkparse.c **** static int pk_get_ecpubkey( unsigned char **p, const unsigned char *end,
 501:D:/fchai/work/i-cube/I-CUBE-HUAWEI/Middlewares/Third_Party/Huawei/iot_link/network/dtls/mbedtls/mbedtls-2.16.2/library\pkparse.c ****                             mbedtls_ecp_keypair *key )
 502:D:/fchai/work/i-cube/I-CUBE-HUAWEI/Middlewares/Third_Party/Huawei/iot_link/network/dtls/mbedtls/mbedtls-2.16.2/library\pkparse.c **** {
 503:D:/fchai/work/i-cube/I-CUBE-HUAWEI/Middlewares/Third_Party/Huawei/iot_link/network/dtls/mbedtls/mbedtls-2.16.2/library\pkparse.c ****     int ret;
 504:D:/fchai/work/i-cube/I-CUBE-HUAWEI/Middlewares/Third_Party/Huawei/iot_link/network/dtls/mbedtls/mbedtls-2.16.2/library\pkparse.c **** 
 505:D:/fchai/work/i-cube/I-CUBE-HUAWEI/Middlewares/Third_Party/Huawei/iot_link/network/dtls/mbedtls/mbedtls-2.16.2/library\pkparse.c ****     if( ( ret = mbedtls_ecp_point_read_binary( &key->grp, &key->Q,
 506:D:/fchai/work/i-cube/I-CUBE-HUAWEI/Middlewares/Third_Party/Huawei/iot_link/network/dtls/mbedtls/mbedtls-2.16.2/library\pkparse.c ****                     (const unsigned char *) *p, end - *p ) ) == 0 )
 507:D:/fchai/work/i-cube/I-CUBE-HUAWEI/Middlewares/Third_Party/Huawei/iot_link/network/dtls/mbedtls/mbedtls-2.16.2/library\pkparse.c ****     {
 508:D:/fchai/work/i-cube/I-CUBE-HUAWEI/Middlewares/Third_Party/Huawei/iot_link/network/dtls/mbedtls/mbedtls-2.16.2/library\pkparse.c ****         ret = mbedtls_ecp_check_pubkey( &key->grp, &key->Q );
 509:D:/fchai/work/i-cube/I-CUBE-HUAWEI/Middlewares/Third_Party/Huawei/iot_link/network/dtls/mbedtls/mbedtls-2.16.2/library\pkparse.c ****     }
 510:D:/fchai/work/i-cube/I-CUBE-HUAWEI/Middlewares/Third_Party/Huawei/iot_link/network/dtls/mbedtls/mbedtls-2.16.2/library\pkparse.c **** 
 511:D:/fchai/work/i-cube/I-CUBE-HUAWEI/Middlewares/Third_Party/Huawei/iot_link/network/dtls/mbedtls/mbedtls-2.16.2/library\pkparse.c ****     /*
 512:D:/fchai/work/i-cube/I-CUBE-HUAWEI/Middlewares/Third_Party/Huawei/iot_link/network/dtls/mbedtls/mbedtls-2.16.2/library\pkparse.c ****      * We know mbedtls_ecp_point_read_binary consumed all bytes or failed
 513:D:/fchai/work/i-cube/I-CUBE-HUAWEI/Middlewares/Third_Party/Huawei/iot_link/network/dtls/mbedtls/mbedtls-2.16.2/library\pkparse.c ****      */
 514:D:/fchai/work/i-cube/I-CUBE-HUAWEI/Middlewares/Third_Party/Huawei/iot_link/network/dtls/mbedtls/mbedtls-2.16.2/library\pkparse.c ****     *p = (unsigned char *) end;
 515:D:/fchai/work/i-cube/I-CUBE-HUAWEI/Middlewares/Third_Party/Huawei/iot_link/network/dtls/mbedtls/mbedtls-2.16.2/library\pkparse.c **** 
 516:D:/fchai/work/i-cube/I-CUBE-HUAWEI/Middlewares/Third_Party/Huawei/iot_link/network/dtls/mbedtls/mbedtls-2.16.2/library\pkparse.c ****     return( ret );
 517:D:/fchai/work/i-cube/I-CUBE-HUAWEI/Middlewares/Third_Party/Huawei/iot_link/network/dtls/mbedtls/mbedtls-2.16.2/library\pkparse.c **** }
 518:D:/fchai/work/i-cube/I-CUBE-HUAWEI/Middlewares/Third_Party/Huawei/iot_link/network/dtls/mbedtls/mbedtls-2.16.2/library\pkparse.c **** #endif /* MBEDTLS_ECP_C */
 519:D:/fchai/work/i-cube/I-CUBE-HUAWEI/Middlewares/Third_Party/Huawei/iot_link/network/dtls/mbedtls/mbedtls-2.16.2/library\pkparse.c **** 
 520:D:/fchai/work/i-cube/I-CUBE-HUAWEI/Middlewares/Third_Party/Huawei/iot_link/network/dtls/mbedtls/mbedtls-2.16.2/library\pkparse.c **** #if defined(MBEDTLS_RSA_C)
 521:D:/fchai/work/i-cube/I-CUBE-HUAWEI/Middlewares/Third_Party/Huawei/iot_link/network/dtls/mbedtls/mbedtls-2.16.2/library\pkparse.c **** /*
 522:D:/fchai/work/i-cube/I-CUBE-HUAWEI/Middlewares/Third_Party/Huawei/iot_link/network/dtls/mbedtls/mbedtls-2.16.2/library\pkparse.c ****  *  RSAPublicKey ::= SEQUENCE {
 523:D:/fchai/work/i-cube/I-CUBE-HUAWEI/Middlewares/Third_Party/Huawei/iot_link/network/dtls/mbedtls/mbedtls-2.16.2/library\pkparse.c ****  *      modulus           INTEGER,  -- n
 524:D:/fchai/work/i-cube/I-CUBE-HUAWEI/Middlewares/Third_Party/Huawei/iot_link/network/dtls/mbedtls/mbedtls-2.16.2/library\pkparse.c ****  *      publicExponent    INTEGER   -- e
 525:D:/fchai/work/i-cube/I-CUBE-HUAWEI/Middlewares/Third_Party/Huawei/iot_link/network/dtls/mbedtls/mbedtls-2.16.2/library\pkparse.c ****  *  }
 526:D:/fchai/work/i-cube/I-CUBE-HUAWEI/Middlewares/Third_Party/Huawei/iot_link/network/dtls/mbedtls/mbedtls-2.16.2/library\pkparse.c ****  */
 527:D:/fchai/work/i-cube/I-CUBE-HUAWEI/Middlewares/Third_Party/Huawei/iot_link/network/dtls/mbedtls/mbedtls-2.16.2/library\pkparse.c **** static int pk_get_rsapubkey( unsigned char **p,
 528:D:/fchai/work/i-cube/I-CUBE-HUAWEI/Middlewares/Third_Party/Huawei/iot_link/network/dtls/mbedtls/mbedtls-2.16.2/library\pkparse.c ****                              const unsigned char *end,
 529:D:/fchai/work/i-cube/I-CUBE-HUAWEI/Middlewares/Third_Party/Huawei/iot_link/network/dtls/mbedtls/mbedtls-2.16.2/library\pkparse.c ****                              mbedtls_rsa_context *rsa )
 530:D:/fchai/work/i-cube/I-CUBE-HUAWEI/Middlewares/Third_Party/Huawei/iot_link/network/dtls/mbedtls/mbedtls-2.16.2/library\pkparse.c **** {
  30              		.loc 1 530 1 view -0
  31              		.cfi_startproc
  32              		@ args = 0, pretend = 0, frame = 8
  33              		@ frame_needed = 0, uses_anonymous_args = 0
 531:D:/fchai/work/i-cube/I-CUBE-HUAWEI/Middlewares/Third_Party/Huawei/iot_link/network/dtls/mbedtls/mbedtls-2.16.2/library\pkparse.c ****     int ret;
  34              		.loc 1 531 5 view .LVU1
 532:D:/fchai/work/i-cube/I-CUBE-HUAWEI/Middlewares/Third_Party/Huawei/iot_link/network/dtls/mbedtls/mbedtls-2.16.2/library\pkparse.c ****     size_t len;
  35              		.loc 1 532 5 view .LVU2
 533:D:/fchai/work/i-cube/I-CUBE-HUAWEI/Middlewares/Third_Party/Huawei/iot_link/network/dtls/mbedtls/mbedtls-2.16.2/library\pkparse.c **** 
 534:D:/fchai/work/i-cube/I-CUBE-HUAWEI/Middlewares/Third_Party/Huawei/iot_link/network/dtls/mbedtls/mbedtls-2.16.2/library\pkparse.c ****     if( ( ret = mbedtls_asn1_get_tag( p, end, &len,
  36              		.loc 1 534 5 view .LVU3
 530:D:/fchai/work/i-cube/I-CUBE-HUAWEI/Middlewares/Third_Party/Huawei/iot_link/network/dtls/mbedtls/mbedtls-2.16.2/library\pkparse.c ****     int ret;
ARM GAS  T:\msys\tmp\cc83OHoG.s 			page 11


  37              		.loc 1 530 1 is_stmt 0 view .LVU4
  38 0000 70B5     		push	{r4, r5, r6, lr}
  39              	.LCFI0:
  40              		.cfi_def_cfa_offset 16
  41              		.cfi_offset 4, -16
  42              		.cfi_offset 5, -12
  43              		.cfi_offset 6, -8
  44              		.cfi_offset 14, -4
  45 0002 8AB0     		sub	sp, sp, #40
  46              	.LCFI1:
  47              		.cfi_def_cfa_offset 56
 530:D:/fchai/work/i-cube/I-CUBE-HUAWEI/Middlewares/Third_Party/Huawei/iot_link/network/dtls/mbedtls/mbedtls-2.16.2/library\pkparse.c ****     int ret;
  48              		.loc 1 530 1 view .LVU5
  49 0004 1646     		mov	r6, r2
  50              		.loc 1 534 17 view .LVU6
  51 0006 3023     		movs	r3, #48
  52 0008 09AA     		add	r2, sp, #36
  53              	.LVL1:
 530:D:/fchai/work/i-cube/I-CUBE-HUAWEI/Middlewares/Third_Party/Huawei/iot_link/network/dtls/mbedtls/mbedtls-2.16.2/library\pkparse.c ****     int ret;
  54              		.loc 1 530 1 view .LVU7
  55 000a 0446     		mov	r4, r0
  56 000c 0D46     		mov	r5, r1
  57              		.loc 1 534 17 view .LVU8
  58 000e FFF7FEFF 		bl	mbedtls_asn1_get_tag
  59              	.LVL2:
  60              		.loc 1 534 7 view .LVU9
  61 0012 58B9     		cbnz	r0, .L11
 535:D:/fchai/work/i-cube/I-CUBE-HUAWEI/Middlewares/Third_Party/Huawei/iot_link/network/dtls/mbedtls/mbedtls-2.16.2/library\pkparse.c ****             MBEDTLS_ASN1_CONSTRUCTED | MBEDTLS_ASN1_SEQUENCE ) ) != 0 )
 536:D:/fchai/work/i-cube/I-CUBE-HUAWEI/Middlewares/Third_Party/Huawei/iot_link/network/dtls/mbedtls/mbedtls-2.16.2/library\pkparse.c ****         return( MBEDTLS_ERR_PK_INVALID_PUBKEY + ret );
 537:D:/fchai/work/i-cube/I-CUBE-HUAWEI/Middlewares/Third_Party/Huawei/iot_link/network/dtls/mbedtls/mbedtls-2.16.2/library\pkparse.c **** 
 538:D:/fchai/work/i-cube/I-CUBE-HUAWEI/Middlewares/Third_Party/Huawei/iot_link/network/dtls/mbedtls/mbedtls-2.16.2/library\pkparse.c ****     if( *p + len != end )
  62              		.loc 1 538 5 is_stmt 1 view .LVU10
  63              		.loc 1 538 12 is_stmt 0 view .LVU11
  64 0014 2368     		ldr	r3, [r4]
  65 0016 099A     		ldr	r2, [sp, #36]
  66 0018 1344     		add	r3, r3, r2
  67              		.loc 1 538 7 view .LVU12
  68 001a 9D42     		cmp	r5, r3
  69 001c 43D1     		bne	.L4
 539:D:/fchai/work/i-cube/I-CUBE-HUAWEI/Middlewares/Third_Party/Huawei/iot_link/network/dtls/mbedtls/mbedtls-2.16.2/library\pkparse.c ****         return( MBEDTLS_ERR_PK_INVALID_PUBKEY +
 540:D:/fchai/work/i-cube/I-CUBE-HUAWEI/Middlewares/Third_Party/Huawei/iot_link/network/dtls/mbedtls/mbedtls-2.16.2/library\pkparse.c ****                 MBEDTLS_ERR_ASN1_LENGTH_MISMATCH );
 541:D:/fchai/work/i-cube/I-CUBE-HUAWEI/Middlewares/Third_Party/Huawei/iot_link/network/dtls/mbedtls/mbedtls-2.16.2/library\pkparse.c **** 
 542:D:/fchai/work/i-cube/I-CUBE-HUAWEI/Middlewares/Third_Party/Huawei/iot_link/network/dtls/mbedtls/mbedtls-2.16.2/library\pkparse.c ****     /* Import N */
 543:D:/fchai/work/i-cube/I-CUBE-HUAWEI/Middlewares/Third_Party/Huawei/iot_link/network/dtls/mbedtls/mbedtls-2.16.2/library\pkparse.c ****     if( ( ret = mbedtls_asn1_get_tag( p, end, &len, MBEDTLS_ASN1_INTEGER ) ) != 0 )
  70              		.loc 1 543 5 is_stmt 1 view .LVU13
  71              		.loc 1 543 17 is_stmt 0 view .LVU14
  72 001e 0223     		movs	r3, #2
  73 0020 09AA     		add	r2, sp, #36
  74 0022 2946     		mov	r1, r5
  75 0024 2046     		mov	r0, r4
  76              	.LVL3:
  77              		.loc 1 543 17 view .LVU15
  78 0026 FFF7FEFF 		bl	mbedtls_asn1_get_tag
  79              	.LVL4:
  80              		.loc 1 543 7 view .LVU16
  81 002a 18B1     		cbz	r0, .L5
  82              	.L11:
ARM GAS  T:\msys\tmp\cc83OHoG.s 			page 12


 544:D:/fchai/work/i-cube/I-CUBE-HUAWEI/Middlewares/Third_Party/Huawei/iot_link/network/dtls/mbedtls/mbedtls-2.16.2/library\pkparse.c ****         return( MBEDTLS_ERR_PK_INVALID_PUBKEY + ret );
 545:D:/fchai/work/i-cube/I-CUBE-HUAWEI/Middlewares/Third_Party/Huawei/iot_link/network/dtls/mbedtls/mbedtls-2.16.2/library\pkparse.c **** 
 546:D:/fchai/work/i-cube/I-CUBE-HUAWEI/Middlewares/Third_Party/Huawei/iot_link/network/dtls/mbedtls/mbedtls-2.16.2/library\pkparse.c ****     if( ( ret = mbedtls_rsa_import_raw( rsa, *p, len, NULL, 0, NULL, 0,
 547:D:/fchai/work/i-cube/I-CUBE-HUAWEI/Middlewares/Third_Party/Huawei/iot_link/network/dtls/mbedtls/mbedtls-2.16.2/library\pkparse.c ****                                         NULL, 0, NULL, 0 ) ) != 0 )
 548:D:/fchai/work/i-cube/I-CUBE-HUAWEI/Middlewares/Third_Party/Huawei/iot_link/network/dtls/mbedtls/mbedtls-2.16.2/library\pkparse.c ****         return( MBEDTLS_ERR_PK_INVALID_PUBKEY );
 549:D:/fchai/work/i-cube/I-CUBE-HUAWEI/Middlewares/Third_Party/Huawei/iot_link/network/dtls/mbedtls/mbedtls-2.16.2/library\pkparse.c **** 
 550:D:/fchai/work/i-cube/I-CUBE-HUAWEI/Middlewares/Third_Party/Huawei/iot_link/network/dtls/mbedtls/mbedtls-2.16.2/library\pkparse.c ****     *p += len;
 551:D:/fchai/work/i-cube/I-CUBE-HUAWEI/Middlewares/Third_Party/Huawei/iot_link/network/dtls/mbedtls/mbedtls-2.16.2/library\pkparse.c **** 
 552:D:/fchai/work/i-cube/I-CUBE-HUAWEI/Middlewares/Third_Party/Huawei/iot_link/network/dtls/mbedtls/mbedtls-2.16.2/library\pkparse.c ****     /* Import E */
 553:D:/fchai/work/i-cube/I-CUBE-HUAWEI/Middlewares/Third_Party/Huawei/iot_link/network/dtls/mbedtls/mbedtls-2.16.2/library\pkparse.c ****     if( ( ret = mbedtls_asn1_get_tag( p, end, &len, MBEDTLS_ASN1_INTEGER ) ) != 0 )
 554:D:/fchai/work/i-cube/I-CUBE-HUAWEI/Middlewares/Third_Party/Huawei/iot_link/network/dtls/mbedtls/mbedtls-2.16.2/library\pkparse.c ****         return( MBEDTLS_ERR_PK_INVALID_PUBKEY + ret );
  83              		.loc 1 554 9 is_stmt 1 view .LVU17
  84              		.loc 1 554 47 is_stmt 0 view .LVU18
  85 002c A0F56C50 		sub	r0, r0, #15104
  86              	.LVL5:
  87              	.L1:
 555:D:/fchai/work/i-cube/I-CUBE-HUAWEI/Middlewares/Third_Party/Huawei/iot_link/network/dtls/mbedtls/mbedtls-2.16.2/library\pkparse.c **** 
 556:D:/fchai/work/i-cube/I-CUBE-HUAWEI/Middlewares/Third_Party/Huawei/iot_link/network/dtls/mbedtls/mbedtls-2.16.2/library\pkparse.c ****     if( ( ret = mbedtls_rsa_import_raw( rsa, NULL, 0, NULL, 0, NULL, 0,
 557:D:/fchai/work/i-cube/I-CUBE-HUAWEI/Middlewares/Third_Party/Huawei/iot_link/network/dtls/mbedtls/mbedtls-2.16.2/library\pkparse.c ****                                         NULL, 0, *p, len ) ) != 0 )
 558:D:/fchai/work/i-cube/I-CUBE-HUAWEI/Middlewares/Third_Party/Huawei/iot_link/network/dtls/mbedtls/mbedtls-2.16.2/library\pkparse.c ****         return( MBEDTLS_ERR_PK_INVALID_PUBKEY );
 559:D:/fchai/work/i-cube/I-CUBE-HUAWEI/Middlewares/Third_Party/Huawei/iot_link/network/dtls/mbedtls/mbedtls-2.16.2/library\pkparse.c **** 
 560:D:/fchai/work/i-cube/I-CUBE-HUAWEI/Middlewares/Third_Party/Huawei/iot_link/network/dtls/mbedtls/mbedtls-2.16.2/library\pkparse.c ****     *p += len;
 561:D:/fchai/work/i-cube/I-CUBE-HUAWEI/Middlewares/Third_Party/Huawei/iot_link/network/dtls/mbedtls/mbedtls-2.16.2/library\pkparse.c **** 
 562:D:/fchai/work/i-cube/I-CUBE-HUAWEI/Middlewares/Third_Party/Huawei/iot_link/network/dtls/mbedtls/mbedtls-2.16.2/library\pkparse.c ****     if( mbedtls_rsa_complete( rsa ) != 0 ||
 563:D:/fchai/work/i-cube/I-CUBE-HUAWEI/Middlewares/Third_Party/Huawei/iot_link/network/dtls/mbedtls/mbedtls-2.16.2/library\pkparse.c ****         mbedtls_rsa_check_pubkey( rsa ) != 0 )
 564:D:/fchai/work/i-cube/I-CUBE-HUAWEI/Middlewares/Third_Party/Huawei/iot_link/network/dtls/mbedtls/mbedtls-2.16.2/library\pkparse.c ****     {
 565:D:/fchai/work/i-cube/I-CUBE-HUAWEI/Middlewares/Third_Party/Huawei/iot_link/network/dtls/mbedtls/mbedtls-2.16.2/library\pkparse.c ****         return( MBEDTLS_ERR_PK_INVALID_PUBKEY );
 566:D:/fchai/work/i-cube/I-CUBE-HUAWEI/Middlewares/Third_Party/Huawei/iot_link/network/dtls/mbedtls/mbedtls-2.16.2/library\pkparse.c ****     }
 567:D:/fchai/work/i-cube/I-CUBE-HUAWEI/Middlewares/Third_Party/Huawei/iot_link/network/dtls/mbedtls/mbedtls-2.16.2/library\pkparse.c **** 
 568:D:/fchai/work/i-cube/I-CUBE-HUAWEI/Middlewares/Third_Party/Huawei/iot_link/network/dtls/mbedtls/mbedtls-2.16.2/library\pkparse.c ****     if( *p != end )
 569:D:/fchai/work/i-cube/I-CUBE-HUAWEI/Middlewares/Third_Party/Huawei/iot_link/network/dtls/mbedtls/mbedtls-2.16.2/library\pkparse.c ****         return( MBEDTLS_ERR_PK_INVALID_PUBKEY +
 570:D:/fchai/work/i-cube/I-CUBE-HUAWEI/Middlewares/Third_Party/Huawei/iot_link/network/dtls/mbedtls/mbedtls-2.16.2/library\pkparse.c ****                 MBEDTLS_ERR_ASN1_LENGTH_MISMATCH );
 571:D:/fchai/work/i-cube/I-CUBE-HUAWEI/Middlewares/Third_Party/Huawei/iot_link/network/dtls/mbedtls/mbedtls-2.16.2/library\pkparse.c **** 
 572:D:/fchai/work/i-cube/I-CUBE-HUAWEI/Middlewares/Third_Party/Huawei/iot_link/network/dtls/mbedtls/mbedtls-2.16.2/library\pkparse.c ****     return( 0 );
 573:D:/fchai/work/i-cube/I-CUBE-HUAWEI/Middlewares/Third_Party/Huawei/iot_link/network/dtls/mbedtls/mbedtls-2.16.2/library\pkparse.c **** }
  88              		.loc 1 573 1 view .LVU19
  89 0030 0AB0     		add	sp, sp, #40
  90              	.LCFI2:
  91              		.cfi_remember_state
  92              		.cfi_def_cfa_offset 16
  93              		@ sp needed
  94 0032 70BD     		pop	{r4, r5, r6, pc}
  95              	.LVL6:
  96              	.L5:
  97              	.LCFI3:
  98              		.cfi_restore_state
 546:D:/fchai/work/i-cube/I-CUBE-HUAWEI/Middlewares/Third_Party/Huawei/iot_link/network/dtls/mbedtls/mbedtls-2.16.2/library\pkparse.c ****                                         NULL, 0, NULL, 0 ) ) != 0 )
  99              		.loc 1 546 5 is_stmt 1 view .LVU20
 546:D:/fchai/work/i-cube/I-CUBE-HUAWEI/Middlewares/Third_Party/Huawei/iot_link/network/dtls/mbedtls/mbedtls-2.16.2/library\pkparse.c ****                                         NULL, 0, NULL, 0 ) ) != 0 )
 100              		.loc 1 546 17 is_stmt 0 view .LVU21
 101 0034 CDE90500 		strd	r0, r0, [sp, #20]
 102 0038 CDE90300 		strd	r0, r0, [sp, #12]
 103 003c CDE90100 		strd	r0, r0, [sp, #4]
 104 0040 0090     		str	r0, [sp]
 105 0042 0346     		mov	r3, r0
 106 0044 099A     		ldr	r2, [sp, #36]
 107 0046 2168     		ldr	r1, [r4]
ARM GAS  T:\msys\tmp\cc83OHoG.s 			page 13


 108 0048 3046     		mov	r0, r6
 109              	.LVL7:
 546:D:/fchai/work/i-cube/I-CUBE-HUAWEI/Middlewares/Third_Party/Huawei/iot_link/network/dtls/mbedtls/mbedtls-2.16.2/library\pkparse.c ****                                         NULL, 0, NULL, 0 ) ) != 0 )
 110              		.loc 1 546 17 view .LVU22
 111 004a FFF7FEFF 		bl	mbedtls_rsa_import_raw
 112              	.LVL8:
 546:D:/fchai/work/i-cube/I-CUBE-HUAWEI/Middlewares/Third_Party/Huawei/iot_link/network/dtls/mbedtls/mbedtls-2.16.2/library\pkparse.c ****                                         NULL, 0, NULL, 0 ) ) != 0 )
 113              		.loc 1 546 7 view .LVU23
 114 004e 60BB     		cbnz	r0, .L8
 550:D:/fchai/work/i-cube/I-CUBE-HUAWEI/Middlewares/Third_Party/Huawei/iot_link/network/dtls/mbedtls/mbedtls-2.16.2/library\pkparse.c **** 
 115              		.loc 1 550 5 is_stmt 1 view .LVU24
 550:D:/fchai/work/i-cube/I-CUBE-HUAWEI/Middlewares/Third_Party/Huawei/iot_link/network/dtls/mbedtls/mbedtls-2.16.2/library\pkparse.c **** 
 116              		.loc 1 550 8 is_stmt 0 view .LVU25
 117 0050 2368     		ldr	r3, [r4]
 118 0052 099A     		ldr	r2, [sp, #36]
 119 0054 1344     		add	r3, r3, r2
 120 0056 2360     		str	r3, [r4]
 553:D:/fchai/work/i-cube/I-CUBE-HUAWEI/Middlewares/Third_Party/Huawei/iot_link/network/dtls/mbedtls/mbedtls-2.16.2/library\pkparse.c ****         return( MBEDTLS_ERR_PK_INVALID_PUBKEY + ret );
 121              		.loc 1 553 5 is_stmt 1 view .LVU26
 553:D:/fchai/work/i-cube/I-CUBE-HUAWEI/Middlewares/Third_Party/Huawei/iot_link/network/dtls/mbedtls/mbedtls-2.16.2/library\pkparse.c ****         return( MBEDTLS_ERR_PK_INVALID_PUBKEY + ret );
 122              		.loc 1 553 17 is_stmt 0 view .LVU27
 123 0058 09AA     		add	r2, sp, #36
 124 005a 0223     		movs	r3, #2
 125 005c 2946     		mov	r1, r5
 126 005e 2046     		mov	r0, r4
 127              	.LVL9:
 553:D:/fchai/work/i-cube/I-CUBE-HUAWEI/Middlewares/Third_Party/Huawei/iot_link/network/dtls/mbedtls/mbedtls-2.16.2/library\pkparse.c ****         return( MBEDTLS_ERR_PK_INVALID_PUBKEY + ret );
 128              		.loc 1 553 17 view .LVU28
 129 0060 FFF7FEFF 		bl	mbedtls_asn1_get_tag
 130              	.LVL10:
 553:D:/fchai/work/i-cube/I-CUBE-HUAWEI/Middlewares/Third_Party/Huawei/iot_link/network/dtls/mbedtls/mbedtls-2.16.2/library\pkparse.c ****         return( MBEDTLS_ERR_PK_INVALID_PUBKEY + ret );
 131              		.loc 1 553 7 view .LVU29
 132 0064 0028     		cmp	r0, #0
 133 0066 E1D1     		bne	.L11
 556:D:/fchai/work/i-cube/I-CUBE-HUAWEI/Middlewares/Third_Party/Huawei/iot_link/network/dtls/mbedtls/mbedtls-2.16.2/library\pkparse.c ****                                         NULL, 0, *p, len ) ) != 0 )
 134              		.loc 1 556 5 is_stmt 1 view .LVU30
 556:D:/fchai/work/i-cube/I-CUBE-HUAWEI/Middlewares/Third_Party/Huawei/iot_link/network/dtls/mbedtls/mbedtls-2.16.2/library\pkparse.c ****                                         NULL, 0, *p, len ) ) != 0 )
 135              		.loc 1 556 17 is_stmt 0 view .LVU31
 136 0068 2268     		ldr	r2, [r4]
 137 006a 0999     		ldr	r1, [sp, #36]
 138 006c 0090     		str	r0, [sp]
 139 006e CDE90521 		strd	r2, r1, [sp, #20]
 140 0072 CDE90300 		strd	r0, r0, [sp, #12]
 141 0076 CDE90100 		strd	r0, r0, [sp, #4]
 142 007a 0346     		mov	r3, r0
 143 007c 0246     		mov	r2, r0
 144 007e 0146     		mov	r1, r0
 145 0080 3046     		mov	r0, r6
 146              	.LVL11:
 556:D:/fchai/work/i-cube/I-CUBE-HUAWEI/Middlewares/Third_Party/Huawei/iot_link/network/dtls/mbedtls/mbedtls-2.16.2/library\pkparse.c ****                                         NULL, 0, *p, len ) ) != 0 )
 147              		.loc 1 556 17 view .LVU32
 148 0082 FFF7FEFF 		bl	mbedtls_rsa_import_raw
 149              	.LVL12:
 556:D:/fchai/work/i-cube/I-CUBE-HUAWEI/Middlewares/Third_Party/Huawei/iot_link/network/dtls/mbedtls/mbedtls-2.16.2/library\pkparse.c ****                                         NULL, 0, *p, len ) ) != 0 )
 150              		.loc 1 556 7 view .LVU33
 151 0086 80B9     		cbnz	r0, .L8
 560:D:/fchai/work/i-cube/I-CUBE-HUAWEI/Middlewares/Third_Party/Huawei/iot_link/network/dtls/mbedtls/mbedtls-2.16.2/library\pkparse.c **** 
ARM GAS  T:\msys\tmp\cc83OHoG.s 			page 14


 152              		.loc 1 560 5 is_stmt 1 view .LVU34
 560:D:/fchai/work/i-cube/I-CUBE-HUAWEI/Middlewares/Third_Party/Huawei/iot_link/network/dtls/mbedtls/mbedtls-2.16.2/library\pkparse.c **** 
 153              		.loc 1 560 8 is_stmt 0 view .LVU35
 154 0088 2368     		ldr	r3, [r4]
 155 008a 099A     		ldr	r2, [sp, #36]
 156 008c 1344     		add	r3, r3, r2
 157 008e 2360     		str	r3, [r4]
 562:D:/fchai/work/i-cube/I-CUBE-HUAWEI/Middlewares/Third_Party/Huawei/iot_link/network/dtls/mbedtls/mbedtls-2.16.2/library\pkparse.c ****         mbedtls_rsa_check_pubkey( rsa ) != 0 )
 158              		.loc 1 562 5 is_stmt 1 view .LVU36
 562:D:/fchai/work/i-cube/I-CUBE-HUAWEI/Middlewares/Third_Party/Huawei/iot_link/network/dtls/mbedtls/mbedtls-2.16.2/library\pkparse.c ****         mbedtls_rsa_check_pubkey( rsa ) != 0 )
 159              		.loc 1 562 9 is_stmt 0 view .LVU37
 160 0090 3046     		mov	r0, r6
 161              	.LVL13:
 562:D:/fchai/work/i-cube/I-CUBE-HUAWEI/Middlewares/Third_Party/Huawei/iot_link/network/dtls/mbedtls/mbedtls-2.16.2/library\pkparse.c ****         mbedtls_rsa_check_pubkey( rsa ) != 0 )
 162              		.loc 1 562 9 view .LVU38
 163 0092 FFF7FEFF 		bl	mbedtls_rsa_complete
 164              	.LVL14:
 562:D:/fchai/work/i-cube/I-CUBE-HUAWEI/Middlewares/Third_Party/Huawei/iot_link/network/dtls/mbedtls/mbedtls-2.16.2/library\pkparse.c ****         mbedtls_rsa_check_pubkey( rsa ) != 0 )
 165              		.loc 1 562 7 view .LVU39
 166 0096 40B9     		cbnz	r0, .L8
 563:D:/fchai/work/i-cube/I-CUBE-HUAWEI/Middlewares/Third_Party/Huawei/iot_link/network/dtls/mbedtls/mbedtls-2.16.2/library\pkparse.c ****     {
 167              		.loc 1 563 9 discriminator 1 view .LVU40
 168 0098 3046     		mov	r0, r6
 169 009a FFF7FEFF 		bl	mbedtls_rsa_check_pubkey
 170              	.LVL15:
 562:D:/fchai/work/i-cube/I-CUBE-HUAWEI/Middlewares/Third_Party/Huawei/iot_link/network/dtls/mbedtls/mbedtls-2.16.2/library\pkparse.c ****         mbedtls_rsa_check_pubkey( rsa ) != 0 )
 171              		.loc 1 562 42 discriminator 1 view .LVU41
 172 009e 20B9     		cbnz	r0, .L8
 568:D:/fchai/work/i-cube/I-CUBE-HUAWEI/Middlewares/Third_Party/Huawei/iot_link/network/dtls/mbedtls/mbedtls-2.16.2/library\pkparse.c ****         return( MBEDTLS_ERR_PK_INVALID_PUBKEY +
 173              		.loc 1 568 5 is_stmt 1 view .LVU42
 568:D:/fchai/work/i-cube/I-CUBE-HUAWEI/Middlewares/Third_Party/Huawei/iot_link/network/dtls/mbedtls/mbedtls-2.16.2/library\pkparse.c ****         return( MBEDTLS_ERR_PK_INVALID_PUBKEY +
 174              		.loc 1 568 7 is_stmt 0 view .LVU43
 175 00a0 2368     		ldr	r3, [r4]
 176 00a2 AB42     		cmp	r3, r5
 177 00a4 C4D0     		beq	.L1
 178              	.L4:
 569:D:/fchai/work/i-cube/I-CUBE-HUAWEI/Middlewares/Third_Party/Huawei/iot_link/network/dtls/mbedtls/mbedtls-2.16.2/library\pkparse.c ****                 MBEDTLS_ERR_ASN1_LENGTH_MISMATCH );
 179              		.loc 1 569 9 is_stmt 1 view .LVU44
 569:D:/fchai/work/i-cube/I-CUBE-HUAWEI/Middlewares/Third_Party/Huawei/iot_link/network/dtls/mbedtls/mbedtls-2.16.2/library\pkparse.c ****                 MBEDTLS_ERR_ASN1_LENGTH_MISMATCH );
 180              		.loc 1 569 15 is_stmt 0 view .LVU45
 181 00a6 0248     		ldr	r0, .L13
 182 00a8 C2E7     		b	.L1
 183              	.L8:
 548:D:/fchai/work/i-cube/I-CUBE-HUAWEI/Middlewares/Third_Party/Huawei/iot_link/network/dtls/mbedtls/mbedtls-2.16.2/library\pkparse.c **** 
 184              		.loc 1 548 15 view .LVU46
 185 00aa 0248     		ldr	r0, .L13+4
 186 00ac C0E7     		b	.L1
 187              	.L14:
 188 00ae 00BF     		.align	2
 189              	.L13:
 190 00b0 9AC4FFFF 		.word	-15206
 191 00b4 00C5FFFF 		.word	-15104
 192              		.cfi_endproc
 193              	.LFE19:
 195              		.section	.text.pk_parse_key_pkcs1_der,"ax",%progbits
 196              		.align	1
 197              		.p2align 2,,3
ARM GAS  T:\msys\tmp\cc83OHoG.s 			page 15


 198              		.syntax unified
 199              		.thumb
 200              		.thumb_func
 201              		.fpu fpv4-sp-d16
 203              	pk_parse_key_pkcs1_der:
 204              	.LVL16:
 205              	.LFB22:
 574:D:/fchai/work/i-cube/I-CUBE-HUAWEI/Middlewares/Third_Party/Huawei/iot_link/network/dtls/mbedtls/mbedtls-2.16.2/library\pkparse.c **** #endif /* MBEDTLS_RSA_C */
 575:D:/fchai/work/i-cube/I-CUBE-HUAWEI/Middlewares/Third_Party/Huawei/iot_link/network/dtls/mbedtls/mbedtls-2.16.2/library\pkparse.c **** 
 576:D:/fchai/work/i-cube/I-CUBE-HUAWEI/Middlewares/Third_Party/Huawei/iot_link/network/dtls/mbedtls/mbedtls-2.16.2/library\pkparse.c **** /* Get a PK algorithm identifier
 577:D:/fchai/work/i-cube/I-CUBE-HUAWEI/Middlewares/Third_Party/Huawei/iot_link/network/dtls/mbedtls/mbedtls-2.16.2/library\pkparse.c ****  *
 578:D:/fchai/work/i-cube/I-CUBE-HUAWEI/Middlewares/Third_Party/Huawei/iot_link/network/dtls/mbedtls/mbedtls-2.16.2/library\pkparse.c ****  *  AlgorithmIdentifier  ::=  SEQUENCE  {
 579:D:/fchai/work/i-cube/I-CUBE-HUAWEI/Middlewares/Third_Party/Huawei/iot_link/network/dtls/mbedtls/mbedtls-2.16.2/library\pkparse.c ****  *       algorithm               OBJECT IDENTIFIER,
 580:D:/fchai/work/i-cube/I-CUBE-HUAWEI/Middlewares/Third_Party/Huawei/iot_link/network/dtls/mbedtls/mbedtls-2.16.2/library\pkparse.c ****  *       parameters              ANY DEFINED BY algorithm OPTIONAL  }
 581:D:/fchai/work/i-cube/I-CUBE-HUAWEI/Middlewares/Third_Party/Huawei/iot_link/network/dtls/mbedtls/mbedtls-2.16.2/library\pkparse.c ****  */
 582:D:/fchai/work/i-cube/I-CUBE-HUAWEI/Middlewares/Third_Party/Huawei/iot_link/network/dtls/mbedtls/mbedtls-2.16.2/library\pkparse.c **** static int pk_get_pk_alg( unsigned char **p,
 583:D:/fchai/work/i-cube/I-CUBE-HUAWEI/Middlewares/Third_Party/Huawei/iot_link/network/dtls/mbedtls/mbedtls-2.16.2/library\pkparse.c ****                           const unsigned char *end,
 584:D:/fchai/work/i-cube/I-CUBE-HUAWEI/Middlewares/Third_Party/Huawei/iot_link/network/dtls/mbedtls/mbedtls-2.16.2/library\pkparse.c ****                           mbedtls_pk_type_t *pk_alg, mbedtls_asn1_buf *params )
 585:D:/fchai/work/i-cube/I-CUBE-HUAWEI/Middlewares/Third_Party/Huawei/iot_link/network/dtls/mbedtls/mbedtls-2.16.2/library\pkparse.c **** {
 586:D:/fchai/work/i-cube/I-CUBE-HUAWEI/Middlewares/Third_Party/Huawei/iot_link/network/dtls/mbedtls/mbedtls-2.16.2/library\pkparse.c ****     int ret;
 587:D:/fchai/work/i-cube/I-CUBE-HUAWEI/Middlewares/Third_Party/Huawei/iot_link/network/dtls/mbedtls/mbedtls-2.16.2/library\pkparse.c ****     mbedtls_asn1_buf alg_oid;
 588:D:/fchai/work/i-cube/I-CUBE-HUAWEI/Middlewares/Third_Party/Huawei/iot_link/network/dtls/mbedtls/mbedtls-2.16.2/library\pkparse.c **** 
 589:D:/fchai/work/i-cube/I-CUBE-HUAWEI/Middlewares/Third_Party/Huawei/iot_link/network/dtls/mbedtls/mbedtls-2.16.2/library\pkparse.c ****     memset( params, 0, sizeof(mbedtls_asn1_buf) );
 590:D:/fchai/work/i-cube/I-CUBE-HUAWEI/Middlewares/Third_Party/Huawei/iot_link/network/dtls/mbedtls/mbedtls-2.16.2/library\pkparse.c **** 
 591:D:/fchai/work/i-cube/I-CUBE-HUAWEI/Middlewares/Third_Party/Huawei/iot_link/network/dtls/mbedtls/mbedtls-2.16.2/library\pkparse.c ****     if( ( ret = mbedtls_asn1_get_alg( p, end, &alg_oid, params ) ) != 0 )
 592:D:/fchai/work/i-cube/I-CUBE-HUAWEI/Middlewares/Third_Party/Huawei/iot_link/network/dtls/mbedtls/mbedtls-2.16.2/library\pkparse.c ****         return( MBEDTLS_ERR_PK_INVALID_ALG + ret );
 593:D:/fchai/work/i-cube/I-CUBE-HUAWEI/Middlewares/Third_Party/Huawei/iot_link/network/dtls/mbedtls/mbedtls-2.16.2/library\pkparse.c **** 
 594:D:/fchai/work/i-cube/I-CUBE-HUAWEI/Middlewares/Third_Party/Huawei/iot_link/network/dtls/mbedtls/mbedtls-2.16.2/library\pkparse.c ****     if( mbedtls_oid_get_pk_alg( &alg_oid, pk_alg ) != 0 )
 595:D:/fchai/work/i-cube/I-CUBE-HUAWEI/Middlewares/Third_Party/Huawei/iot_link/network/dtls/mbedtls/mbedtls-2.16.2/library\pkparse.c ****         return( MBEDTLS_ERR_PK_UNKNOWN_PK_ALG );
 596:D:/fchai/work/i-cube/I-CUBE-HUAWEI/Middlewares/Third_Party/Huawei/iot_link/network/dtls/mbedtls/mbedtls-2.16.2/library\pkparse.c **** 
 597:D:/fchai/work/i-cube/I-CUBE-HUAWEI/Middlewares/Third_Party/Huawei/iot_link/network/dtls/mbedtls/mbedtls-2.16.2/library\pkparse.c ****     /*
 598:D:/fchai/work/i-cube/I-CUBE-HUAWEI/Middlewares/Third_Party/Huawei/iot_link/network/dtls/mbedtls/mbedtls-2.16.2/library\pkparse.c ****      * No parameters with RSA (only for EC)
 599:D:/fchai/work/i-cube/I-CUBE-HUAWEI/Middlewares/Third_Party/Huawei/iot_link/network/dtls/mbedtls/mbedtls-2.16.2/library\pkparse.c ****      */
 600:D:/fchai/work/i-cube/I-CUBE-HUAWEI/Middlewares/Third_Party/Huawei/iot_link/network/dtls/mbedtls/mbedtls-2.16.2/library\pkparse.c ****     if( *pk_alg == MBEDTLS_PK_RSA &&
 601:D:/fchai/work/i-cube/I-CUBE-HUAWEI/Middlewares/Third_Party/Huawei/iot_link/network/dtls/mbedtls/mbedtls-2.16.2/library\pkparse.c ****             ( ( params->tag != MBEDTLS_ASN1_NULL && params->tag != 0 ) ||
 602:D:/fchai/work/i-cube/I-CUBE-HUAWEI/Middlewares/Third_Party/Huawei/iot_link/network/dtls/mbedtls/mbedtls-2.16.2/library\pkparse.c ****                 params->len != 0 ) )
 603:D:/fchai/work/i-cube/I-CUBE-HUAWEI/Middlewares/Third_Party/Huawei/iot_link/network/dtls/mbedtls/mbedtls-2.16.2/library\pkparse.c ****     {
 604:D:/fchai/work/i-cube/I-CUBE-HUAWEI/Middlewares/Third_Party/Huawei/iot_link/network/dtls/mbedtls/mbedtls-2.16.2/library\pkparse.c ****         return( MBEDTLS_ERR_PK_INVALID_ALG );
 605:D:/fchai/work/i-cube/I-CUBE-HUAWEI/Middlewares/Third_Party/Huawei/iot_link/network/dtls/mbedtls/mbedtls-2.16.2/library\pkparse.c ****     }
 606:D:/fchai/work/i-cube/I-CUBE-HUAWEI/Middlewares/Third_Party/Huawei/iot_link/network/dtls/mbedtls/mbedtls-2.16.2/library\pkparse.c **** 
 607:D:/fchai/work/i-cube/I-CUBE-HUAWEI/Middlewares/Third_Party/Huawei/iot_link/network/dtls/mbedtls/mbedtls-2.16.2/library\pkparse.c ****     return( 0 );
 608:D:/fchai/work/i-cube/I-CUBE-HUAWEI/Middlewares/Third_Party/Huawei/iot_link/network/dtls/mbedtls/mbedtls-2.16.2/library\pkparse.c **** }
 609:D:/fchai/work/i-cube/I-CUBE-HUAWEI/Middlewares/Third_Party/Huawei/iot_link/network/dtls/mbedtls/mbedtls-2.16.2/library\pkparse.c **** 
 610:D:/fchai/work/i-cube/I-CUBE-HUAWEI/Middlewares/Third_Party/Huawei/iot_link/network/dtls/mbedtls/mbedtls-2.16.2/library\pkparse.c **** /*
 611:D:/fchai/work/i-cube/I-CUBE-HUAWEI/Middlewares/Third_Party/Huawei/iot_link/network/dtls/mbedtls/mbedtls-2.16.2/library\pkparse.c ****  *  SubjectPublicKeyInfo  ::=  SEQUENCE  {
 612:D:/fchai/work/i-cube/I-CUBE-HUAWEI/Middlewares/Third_Party/Huawei/iot_link/network/dtls/mbedtls/mbedtls-2.16.2/library\pkparse.c ****  *       algorithm            AlgorithmIdentifier,
 613:D:/fchai/work/i-cube/I-CUBE-HUAWEI/Middlewares/Third_Party/Huawei/iot_link/network/dtls/mbedtls/mbedtls-2.16.2/library\pkparse.c ****  *       subjectPublicKey     BIT STRING }
 614:D:/fchai/work/i-cube/I-CUBE-HUAWEI/Middlewares/Third_Party/Huawei/iot_link/network/dtls/mbedtls/mbedtls-2.16.2/library\pkparse.c ****  */
 615:D:/fchai/work/i-cube/I-CUBE-HUAWEI/Middlewares/Third_Party/Huawei/iot_link/network/dtls/mbedtls/mbedtls-2.16.2/library\pkparse.c **** int mbedtls_pk_parse_subpubkey( unsigned char **p, const unsigned char *end,
 616:D:/fchai/work/i-cube/I-CUBE-HUAWEI/Middlewares/Third_Party/Huawei/iot_link/network/dtls/mbedtls/mbedtls-2.16.2/library\pkparse.c ****                         mbedtls_pk_context *pk )
 617:D:/fchai/work/i-cube/I-CUBE-HUAWEI/Middlewares/Third_Party/Huawei/iot_link/network/dtls/mbedtls/mbedtls-2.16.2/library\pkparse.c **** {
 618:D:/fchai/work/i-cube/I-CUBE-HUAWEI/Middlewares/Third_Party/Huawei/iot_link/network/dtls/mbedtls/mbedtls-2.16.2/library\pkparse.c ****     int ret;
 619:D:/fchai/work/i-cube/I-CUBE-HUAWEI/Middlewares/Third_Party/Huawei/iot_link/network/dtls/mbedtls/mbedtls-2.16.2/library\pkparse.c ****     size_t len;
 620:D:/fchai/work/i-cube/I-CUBE-HUAWEI/Middlewares/Third_Party/Huawei/iot_link/network/dtls/mbedtls/mbedtls-2.16.2/library\pkparse.c ****     mbedtls_asn1_buf alg_params;
 621:D:/fchai/work/i-cube/I-CUBE-HUAWEI/Middlewares/Third_Party/Huawei/iot_link/network/dtls/mbedtls/mbedtls-2.16.2/library\pkparse.c ****     mbedtls_pk_type_t pk_alg = MBEDTLS_PK_NONE;
 622:D:/fchai/work/i-cube/I-CUBE-HUAWEI/Middlewares/Third_Party/Huawei/iot_link/network/dtls/mbedtls/mbedtls-2.16.2/library\pkparse.c ****     const mbedtls_pk_info_t *pk_info;
 623:D:/fchai/work/i-cube/I-CUBE-HUAWEI/Middlewares/Third_Party/Huawei/iot_link/network/dtls/mbedtls/mbedtls-2.16.2/library\pkparse.c **** 
ARM GAS  T:\msys\tmp\cc83OHoG.s 			page 16


 624:D:/fchai/work/i-cube/I-CUBE-HUAWEI/Middlewares/Third_Party/Huawei/iot_link/network/dtls/mbedtls/mbedtls-2.16.2/library\pkparse.c ****     PK_VALIDATE_RET( p != NULL );
 625:D:/fchai/work/i-cube/I-CUBE-HUAWEI/Middlewares/Third_Party/Huawei/iot_link/network/dtls/mbedtls/mbedtls-2.16.2/library\pkparse.c ****     PK_VALIDATE_RET( *p != NULL );
 626:D:/fchai/work/i-cube/I-CUBE-HUAWEI/Middlewares/Third_Party/Huawei/iot_link/network/dtls/mbedtls/mbedtls-2.16.2/library\pkparse.c ****     PK_VALIDATE_RET( end != NULL );
 627:D:/fchai/work/i-cube/I-CUBE-HUAWEI/Middlewares/Third_Party/Huawei/iot_link/network/dtls/mbedtls/mbedtls-2.16.2/library\pkparse.c ****     PK_VALIDATE_RET( pk != NULL );
 628:D:/fchai/work/i-cube/I-CUBE-HUAWEI/Middlewares/Third_Party/Huawei/iot_link/network/dtls/mbedtls/mbedtls-2.16.2/library\pkparse.c **** 
 629:D:/fchai/work/i-cube/I-CUBE-HUAWEI/Middlewares/Third_Party/Huawei/iot_link/network/dtls/mbedtls/mbedtls-2.16.2/library\pkparse.c ****     if( ( ret = mbedtls_asn1_get_tag( p, end, &len,
 630:D:/fchai/work/i-cube/I-CUBE-HUAWEI/Middlewares/Third_Party/Huawei/iot_link/network/dtls/mbedtls/mbedtls-2.16.2/library\pkparse.c ****                     MBEDTLS_ASN1_CONSTRUCTED | MBEDTLS_ASN1_SEQUENCE ) ) != 0 )
 631:D:/fchai/work/i-cube/I-CUBE-HUAWEI/Middlewares/Third_Party/Huawei/iot_link/network/dtls/mbedtls/mbedtls-2.16.2/library\pkparse.c ****     {
 632:D:/fchai/work/i-cube/I-CUBE-HUAWEI/Middlewares/Third_Party/Huawei/iot_link/network/dtls/mbedtls/mbedtls-2.16.2/library\pkparse.c ****         return( MBEDTLS_ERR_PK_KEY_INVALID_FORMAT + ret );
 633:D:/fchai/work/i-cube/I-CUBE-HUAWEI/Middlewares/Third_Party/Huawei/iot_link/network/dtls/mbedtls/mbedtls-2.16.2/library\pkparse.c ****     }
 634:D:/fchai/work/i-cube/I-CUBE-HUAWEI/Middlewares/Third_Party/Huawei/iot_link/network/dtls/mbedtls/mbedtls-2.16.2/library\pkparse.c **** 
 635:D:/fchai/work/i-cube/I-CUBE-HUAWEI/Middlewares/Third_Party/Huawei/iot_link/network/dtls/mbedtls/mbedtls-2.16.2/library\pkparse.c ****     end = *p + len;
 636:D:/fchai/work/i-cube/I-CUBE-HUAWEI/Middlewares/Third_Party/Huawei/iot_link/network/dtls/mbedtls/mbedtls-2.16.2/library\pkparse.c **** 
 637:D:/fchai/work/i-cube/I-CUBE-HUAWEI/Middlewares/Third_Party/Huawei/iot_link/network/dtls/mbedtls/mbedtls-2.16.2/library\pkparse.c ****     if( ( ret = pk_get_pk_alg( p, end, &pk_alg, &alg_params ) ) != 0 )
 638:D:/fchai/work/i-cube/I-CUBE-HUAWEI/Middlewares/Third_Party/Huawei/iot_link/network/dtls/mbedtls/mbedtls-2.16.2/library\pkparse.c ****         return( ret );
 639:D:/fchai/work/i-cube/I-CUBE-HUAWEI/Middlewares/Third_Party/Huawei/iot_link/network/dtls/mbedtls/mbedtls-2.16.2/library\pkparse.c **** 
 640:D:/fchai/work/i-cube/I-CUBE-HUAWEI/Middlewares/Third_Party/Huawei/iot_link/network/dtls/mbedtls/mbedtls-2.16.2/library\pkparse.c ****     if( ( ret = mbedtls_asn1_get_bitstring_null( p, end, &len ) ) != 0 )
 641:D:/fchai/work/i-cube/I-CUBE-HUAWEI/Middlewares/Third_Party/Huawei/iot_link/network/dtls/mbedtls/mbedtls-2.16.2/library\pkparse.c ****         return( MBEDTLS_ERR_PK_INVALID_PUBKEY + ret );
 642:D:/fchai/work/i-cube/I-CUBE-HUAWEI/Middlewares/Third_Party/Huawei/iot_link/network/dtls/mbedtls/mbedtls-2.16.2/library\pkparse.c **** 
 643:D:/fchai/work/i-cube/I-CUBE-HUAWEI/Middlewares/Third_Party/Huawei/iot_link/network/dtls/mbedtls/mbedtls-2.16.2/library\pkparse.c ****     if( *p + len != end )
 644:D:/fchai/work/i-cube/I-CUBE-HUAWEI/Middlewares/Third_Party/Huawei/iot_link/network/dtls/mbedtls/mbedtls-2.16.2/library\pkparse.c ****         return( MBEDTLS_ERR_PK_INVALID_PUBKEY +
 645:D:/fchai/work/i-cube/I-CUBE-HUAWEI/Middlewares/Third_Party/Huawei/iot_link/network/dtls/mbedtls/mbedtls-2.16.2/library\pkparse.c ****                 MBEDTLS_ERR_ASN1_LENGTH_MISMATCH );
 646:D:/fchai/work/i-cube/I-CUBE-HUAWEI/Middlewares/Third_Party/Huawei/iot_link/network/dtls/mbedtls/mbedtls-2.16.2/library\pkparse.c **** 
 647:D:/fchai/work/i-cube/I-CUBE-HUAWEI/Middlewares/Third_Party/Huawei/iot_link/network/dtls/mbedtls/mbedtls-2.16.2/library\pkparse.c ****     if( ( pk_info = mbedtls_pk_info_from_type( pk_alg ) ) == NULL )
 648:D:/fchai/work/i-cube/I-CUBE-HUAWEI/Middlewares/Third_Party/Huawei/iot_link/network/dtls/mbedtls/mbedtls-2.16.2/library\pkparse.c ****         return( MBEDTLS_ERR_PK_UNKNOWN_PK_ALG );
 649:D:/fchai/work/i-cube/I-CUBE-HUAWEI/Middlewares/Third_Party/Huawei/iot_link/network/dtls/mbedtls/mbedtls-2.16.2/library\pkparse.c **** 
 650:D:/fchai/work/i-cube/I-CUBE-HUAWEI/Middlewares/Third_Party/Huawei/iot_link/network/dtls/mbedtls/mbedtls-2.16.2/library\pkparse.c ****     if( ( ret = mbedtls_pk_setup( pk, pk_info ) ) != 0 )
 651:D:/fchai/work/i-cube/I-CUBE-HUAWEI/Middlewares/Third_Party/Huawei/iot_link/network/dtls/mbedtls/mbedtls-2.16.2/library\pkparse.c ****         return( ret );
 652:D:/fchai/work/i-cube/I-CUBE-HUAWEI/Middlewares/Third_Party/Huawei/iot_link/network/dtls/mbedtls/mbedtls-2.16.2/library\pkparse.c **** 
 653:D:/fchai/work/i-cube/I-CUBE-HUAWEI/Middlewares/Third_Party/Huawei/iot_link/network/dtls/mbedtls/mbedtls-2.16.2/library\pkparse.c **** #if defined(MBEDTLS_RSA_C)
 654:D:/fchai/work/i-cube/I-CUBE-HUAWEI/Middlewares/Third_Party/Huawei/iot_link/network/dtls/mbedtls/mbedtls-2.16.2/library\pkparse.c ****     if( pk_alg == MBEDTLS_PK_RSA )
 655:D:/fchai/work/i-cube/I-CUBE-HUAWEI/Middlewares/Third_Party/Huawei/iot_link/network/dtls/mbedtls/mbedtls-2.16.2/library\pkparse.c ****     {
 656:D:/fchai/work/i-cube/I-CUBE-HUAWEI/Middlewares/Third_Party/Huawei/iot_link/network/dtls/mbedtls/mbedtls-2.16.2/library\pkparse.c ****         ret = pk_get_rsapubkey( p, end, mbedtls_pk_rsa( *pk ) );
 657:D:/fchai/work/i-cube/I-CUBE-HUAWEI/Middlewares/Third_Party/Huawei/iot_link/network/dtls/mbedtls/mbedtls-2.16.2/library\pkparse.c ****     } else
 658:D:/fchai/work/i-cube/I-CUBE-HUAWEI/Middlewares/Third_Party/Huawei/iot_link/network/dtls/mbedtls/mbedtls-2.16.2/library\pkparse.c **** #endif /* MBEDTLS_RSA_C */
 659:D:/fchai/work/i-cube/I-CUBE-HUAWEI/Middlewares/Third_Party/Huawei/iot_link/network/dtls/mbedtls/mbedtls-2.16.2/library\pkparse.c **** #if defined(MBEDTLS_ECP_C)
 660:D:/fchai/work/i-cube/I-CUBE-HUAWEI/Middlewares/Third_Party/Huawei/iot_link/network/dtls/mbedtls/mbedtls-2.16.2/library\pkparse.c ****     if( pk_alg == MBEDTLS_PK_ECKEY_DH || pk_alg == MBEDTLS_PK_ECKEY )
 661:D:/fchai/work/i-cube/I-CUBE-HUAWEI/Middlewares/Third_Party/Huawei/iot_link/network/dtls/mbedtls/mbedtls-2.16.2/library\pkparse.c ****     {
 662:D:/fchai/work/i-cube/I-CUBE-HUAWEI/Middlewares/Third_Party/Huawei/iot_link/network/dtls/mbedtls/mbedtls-2.16.2/library\pkparse.c ****         ret = pk_use_ecparams( &alg_params, &mbedtls_pk_ec( *pk )->grp );
 663:D:/fchai/work/i-cube/I-CUBE-HUAWEI/Middlewares/Third_Party/Huawei/iot_link/network/dtls/mbedtls/mbedtls-2.16.2/library\pkparse.c ****         if( ret == 0 )
 664:D:/fchai/work/i-cube/I-CUBE-HUAWEI/Middlewares/Third_Party/Huawei/iot_link/network/dtls/mbedtls/mbedtls-2.16.2/library\pkparse.c ****             ret = pk_get_ecpubkey( p, end, mbedtls_pk_ec( *pk ) );
 665:D:/fchai/work/i-cube/I-CUBE-HUAWEI/Middlewares/Third_Party/Huawei/iot_link/network/dtls/mbedtls/mbedtls-2.16.2/library\pkparse.c ****     } else
 666:D:/fchai/work/i-cube/I-CUBE-HUAWEI/Middlewares/Third_Party/Huawei/iot_link/network/dtls/mbedtls/mbedtls-2.16.2/library\pkparse.c **** #endif /* MBEDTLS_ECP_C */
 667:D:/fchai/work/i-cube/I-CUBE-HUAWEI/Middlewares/Third_Party/Huawei/iot_link/network/dtls/mbedtls/mbedtls-2.16.2/library\pkparse.c ****         ret = MBEDTLS_ERR_PK_UNKNOWN_PK_ALG;
 668:D:/fchai/work/i-cube/I-CUBE-HUAWEI/Middlewares/Third_Party/Huawei/iot_link/network/dtls/mbedtls/mbedtls-2.16.2/library\pkparse.c **** 
 669:D:/fchai/work/i-cube/I-CUBE-HUAWEI/Middlewares/Third_Party/Huawei/iot_link/network/dtls/mbedtls/mbedtls-2.16.2/library\pkparse.c ****     if( ret == 0 && *p != end )
 670:D:/fchai/work/i-cube/I-CUBE-HUAWEI/Middlewares/Third_Party/Huawei/iot_link/network/dtls/mbedtls/mbedtls-2.16.2/library\pkparse.c ****         ret = MBEDTLS_ERR_PK_INVALID_PUBKEY
 671:D:/fchai/work/i-cube/I-CUBE-HUAWEI/Middlewares/Third_Party/Huawei/iot_link/network/dtls/mbedtls/mbedtls-2.16.2/library\pkparse.c ****               MBEDTLS_ERR_ASN1_LENGTH_MISMATCH;
 672:D:/fchai/work/i-cube/I-CUBE-HUAWEI/Middlewares/Third_Party/Huawei/iot_link/network/dtls/mbedtls/mbedtls-2.16.2/library\pkparse.c **** 
 673:D:/fchai/work/i-cube/I-CUBE-HUAWEI/Middlewares/Third_Party/Huawei/iot_link/network/dtls/mbedtls/mbedtls-2.16.2/library\pkparse.c ****     if( ret != 0 )
 674:D:/fchai/work/i-cube/I-CUBE-HUAWEI/Middlewares/Third_Party/Huawei/iot_link/network/dtls/mbedtls/mbedtls-2.16.2/library\pkparse.c ****         mbedtls_pk_free( pk );
 675:D:/fchai/work/i-cube/I-CUBE-HUAWEI/Middlewares/Third_Party/Huawei/iot_link/network/dtls/mbedtls/mbedtls-2.16.2/library\pkparse.c **** 
 676:D:/fchai/work/i-cube/I-CUBE-HUAWEI/Middlewares/Third_Party/Huawei/iot_link/network/dtls/mbedtls/mbedtls-2.16.2/library\pkparse.c ****     return( ret );
 677:D:/fchai/work/i-cube/I-CUBE-HUAWEI/Middlewares/Third_Party/Huawei/iot_link/network/dtls/mbedtls/mbedtls-2.16.2/library\pkparse.c **** }
 678:D:/fchai/work/i-cube/I-CUBE-HUAWEI/Middlewares/Third_Party/Huawei/iot_link/network/dtls/mbedtls/mbedtls-2.16.2/library\pkparse.c **** 
 679:D:/fchai/work/i-cube/I-CUBE-HUAWEI/Middlewares/Third_Party/Huawei/iot_link/network/dtls/mbedtls/mbedtls-2.16.2/library\pkparse.c **** #if defined(MBEDTLS_RSA_C)
 680:D:/fchai/work/i-cube/I-CUBE-HUAWEI/Middlewares/Third_Party/Huawei/iot_link/network/dtls/mbedtls/mbedtls-2.16.2/library\pkparse.c **** /*
ARM GAS  T:\msys\tmp\cc83OHoG.s 			page 17


 681:D:/fchai/work/i-cube/I-CUBE-HUAWEI/Middlewares/Third_Party/Huawei/iot_link/network/dtls/mbedtls/mbedtls-2.16.2/library\pkparse.c ****  * Parse a PKCS#1 encoded private RSA key
 682:D:/fchai/work/i-cube/I-CUBE-HUAWEI/Middlewares/Third_Party/Huawei/iot_link/network/dtls/mbedtls/mbedtls-2.16.2/library\pkparse.c ****  */
 683:D:/fchai/work/i-cube/I-CUBE-HUAWEI/Middlewares/Third_Party/Huawei/iot_link/network/dtls/mbedtls/mbedtls-2.16.2/library\pkparse.c **** static int pk_parse_key_pkcs1_der( mbedtls_rsa_context *rsa,
 684:D:/fchai/work/i-cube/I-CUBE-HUAWEI/Middlewares/Third_Party/Huawei/iot_link/network/dtls/mbedtls/mbedtls-2.16.2/library\pkparse.c ****                                    const unsigned char *key,
 685:D:/fchai/work/i-cube/I-CUBE-HUAWEI/Middlewares/Third_Party/Huawei/iot_link/network/dtls/mbedtls/mbedtls-2.16.2/library\pkparse.c ****                                    size_t keylen )
 686:D:/fchai/work/i-cube/I-CUBE-HUAWEI/Middlewares/Third_Party/Huawei/iot_link/network/dtls/mbedtls/mbedtls-2.16.2/library\pkparse.c **** {
 206              		.loc 1 686 1 is_stmt 1 view -0
 207              		.cfi_startproc
 208              		@ args = 0, pretend = 0, frame = 24
 209              		@ frame_needed = 0, uses_anonymous_args = 0
 687:D:/fchai/work/i-cube/I-CUBE-HUAWEI/Middlewares/Third_Party/Huawei/iot_link/network/dtls/mbedtls/mbedtls-2.16.2/library\pkparse.c ****     int ret, version;
 210              		.loc 1 687 5 view .LVU48
 688:D:/fchai/work/i-cube/I-CUBE-HUAWEI/Middlewares/Third_Party/Huawei/iot_link/network/dtls/mbedtls/mbedtls-2.16.2/library\pkparse.c ****     size_t len;
 211              		.loc 1 688 5 view .LVU49
 689:D:/fchai/work/i-cube/I-CUBE-HUAWEI/Middlewares/Third_Party/Huawei/iot_link/network/dtls/mbedtls/mbedtls-2.16.2/library\pkparse.c ****     unsigned char *p, *end;
 212              		.loc 1 689 5 view .LVU50
 690:D:/fchai/work/i-cube/I-CUBE-HUAWEI/Middlewares/Third_Party/Huawei/iot_link/network/dtls/mbedtls/mbedtls-2.16.2/library\pkparse.c **** 
 691:D:/fchai/work/i-cube/I-CUBE-HUAWEI/Middlewares/Third_Party/Huawei/iot_link/network/dtls/mbedtls/mbedtls-2.16.2/library\pkparse.c ****     mbedtls_mpi T;
 213              		.loc 1 691 5 view .LVU51
 692:D:/fchai/work/i-cube/I-CUBE-HUAWEI/Middlewares/Third_Party/Huawei/iot_link/network/dtls/mbedtls/mbedtls-2.16.2/library\pkparse.c ****     mbedtls_mpi_init( &T );
 214              		.loc 1 692 5 view .LVU52
 686:D:/fchai/work/i-cube/I-CUBE-HUAWEI/Middlewares/Third_Party/Huawei/iot_link/network/dtls/mbedtls/mbedtls-2.16.2/library\pkparse.c ****     int ret, version;
 215              		.loc 1 686 1 is_stmt 0 view .LVU53
 216 0000 70B5     		push	{r4, r5, r6, lr}
 217              	.LCFI4:
 218              		.cfi_def_cfa_offset 16
 219              		.cfi_offset 4, -16
 220              		.cfi_offset 5, -12
 221              		.cfi_offset 6, -8
 222              		.cfi_offset 14, -4
 223 0002 8EB0     		sub	sp, sp, #56
 224              	.LCFI5:
 225              		.cfi_def_cfa_offset 72
 686:D:/fchai/work/i-cube/I-CUBE-HUAWEI/Middlewares/Third_Party/Huawei/iot_link/network/dtls/mbedtls/mbedtls-2.16.2/library\pkparse.c ****     int ret, version;
 226              		.loc 1 686 1 view .LVU54
 227 0004 0C46     		mov	r4, r1
 228 0006 1646     		mov	r6, r2
 229 0008 0546     		mov	r5, r0
 230              		.loc 1 692 5 view .LVU55
 231 000a 0BA8     		add	r0, sp, #44
 232              	.LVL17:
 233              		.loc 1 692 5 view .LVU56
 234 000c FFF7FEFF 		bl	mbedtls_mpi_init
 235              	.LVL18:
 693:D:/fchai/work/i-cube/I-CUBE-HUAWEI/Middlewares/Third_Party/Huawei/iot_link/network/dtls/mbedtls/mbedtls-2.16.2/library\pkparse.c **** 
 694:D:/fchai/work/i-cube/I-CUBE-HUAWEI/Middlewares/Third_Party/Huawei/iot_link/network/dtls/mbedtls/mbedtls-2.16.2/library\pkparse.c ****     p = (unsigned char *) key;
 236              		.loc 1 694 5 is_stmt 1 view .LVU57
 695:D:/fchai/work/i-cube/I-CUBE-HUAWEI/Middlewares/Third_Party/Huawei/iot_link/network/dtls/mbedtls/mbedtls-2.16.2/library\pkparse.c ****     end = p + keylen;
 696:D:/fchai/work/i-cube/I-CUBE-HUAWEI/Middlewares/Third_Party/Huawei/iot_link/network/dtls/mbedtls/mbedtls-2.16.2/library\pkparse.c **** 
 697:D:/fchai/work/i-cube/I-CUBE-HUAWEI/Middlewares/Third_Party/Huawei/iot_link/network/dtls/mbedtls/mbedtls-2.16.2/library\pkparse.c ****     /*
 698:D:/fchai/work/i-cube/I-CUBE-HUAWEI/Middlewares/Third_Party/Huawei/iot_link/network/dtls/mbedtls/mbedtls-2.16.2/library\pkparse.c ****      * This function parses the RSAPrivateKey (PKCS#1)
 699:D:/fchai/work/i-cube/I-CUBE-HUAWEI/Middlewares/Third_Party/Huawei/iot_link/network/dtls/mbedtls/mbedtls-2.16.2/library\pkparse.c ****      *
 700:D:/fchai/work/i-cube/I-CUBE-HUAWEI/Middlewares/Third_Party/Huawei/iot_link/network/dtls/mbedtls/mbedtls-2.16.2/library\pkparse.c ****      *  RSAPrivateKey ::= SEQUENCE {
 701:D:/fchai/work/i-cube/I-CUBE-HUAWEI/Middlewares/Third_Party/Huawei/iot_link/network/dtls/mbedtls/mbedtls-2.16.2/library\pkparse.c ****      *      version           Version,
 702:D:/fchai/work/i-cube/I-CUBE-HUAWEI/Middlewares/Third_Party/Huawei/iot_link/network/dtls/mbedtls/mbedtls-2.16.2/library\pkparse.c ****      *      modulus           INTEGER,  -- n
 703:D:/fchai/work/i-cube/I-CUBE-HUAWEI/Middlewares/Third_Party/Huawei/iot_link/network/dtls/mbedtls/mbedtls-2.16.2/library\pkparse.c ****      *      publicExponent    INTEGER,  -- e
 704:D:/fchai/work/i-cube/I-CUBE-HUAWEI/Middlewares/Third_Party/Huawei/iot_link/network/dtls/mbedtls/mbedtls-2.16.2/library\pkparse.c ****      *      privateExponent   INTEGER,  -- d
ARM GAS  T:\msys\tmp\cc83OHoG.s 			page 18


 705:D:/fchai/work/i-cube/I-CUBE-HUAWEI/Middlewares/Third_Party/Huawei/iot_link/network/dtls/mbedtls/mbedtls-2.16.2/library\pkparse.c ****      *      prime1            INTEGER,  -- p
 706:D:/fchai/work/i-cube/I-CUBE-HUAWEI/Middlewares/Third_Party/Huawei/iot_link/network/dtls/mbedtls/mbedtls-2.16.2/library\pkparse.c ****      *      prime2            INTEGER,  -- q
 707:D:/fchai/work/i-cube/I-CUBE-HUAWEI/Middlewares/Third_Party/Huawei/iot_link/network/dtls/mbedtls/mbedtls-2.16.2/library\pkparse.c ****      *      exponent1         INTEGER,  -- d mod (p-1)
 708:D:/fchai/work/i-cube/I-CUBE-HUAWEI/Middlewares/Third_Party/Huawei/iot_link/network/dtls/mbedtls/mbedtls-2.16.2/library\pkparse.c ****      *      exponent2         INTEGER,  -- d mod (q-1)
 709:D:/fchai/work/i-cube/I-CUBE-HUAWEI/Middlewares/Third_Party/Huawei/iot_link/network/dtls/mbedtls/mbedtls-2.16.2/library\pkparse.c ****      *      coefficient       INTEGER,  -- (inverse of q) mod p
 710:D:/fchai/work/i-cube/I-CUBE-HUAWEI/Middlewares/Third_Party/Huawei/iot_link/network/dtls/mbedtls/mbedtls-2.16.2/library\pkparse.c ****      *      otherPrimeInfos   OtherPrimeInfos OPTIONAL
 711:D:/fchai/work/i-cube/I-CUBE-HUAWEI/Middlewares/Third_Party/Huawei/iot_link/network/dtls/mbedtls/mbedtls-2.16.2/library\pkparse.c ****      *  }
 712:D:/fchai/work/i-cube/I-CUBE-HUAWEI/Middlewares/Third_Party/Huawei/iot_link/network/dtls/mbedtls/mbedtls-2.16.2/library\pkparse.c ****      */
 713:D:/fchai/work/i-cube/I-CUBE-HUAWEI/Middlewares/Third_Party/Huawei/iot_link/network/dtls/mbedtls/mbedtls-2.16.2/library\pkparse.c ****     if( ( ret = mbedtls_asn1_get_tag( &p, end, &len,
 237              		.loc 1 713 17 is_stmt 0 view .LVU58
 238 0010 A119     		adds	r1, r4, r6
 239 0012 09AA     		add	r2, sp, #36
 240 0014 0AA8     		add	r0, sp, #40
 241 0016 3023     		movs	r3, #48
 694:D:/fchai/work/i-cube/I-CUBE-HUAWEI/Middlewares/Third_Party/Huawei/iot_link/network/dtls/mbedtls/mbedtls-2.16.2/library\pkparse.c ****     end = p + keylen;
 242              		.loc 1 694 7 view .LVU59
 243 0018 0A94     		str	r4, [sp, #40]
 695:D:/fchai/work/i-cube/I-CUBE-HUAWEI/Middlewares/Third_Party/Huawei/iot_link/network/dtls/mbedtls/mbedtls-2.16.2/library\pkparse.c ****     end = p + keylen;
 244              		.loc 1 695 5 is_stmt 1 view .LVU60
 245              	.LVL19:
 246              		.loc 1 713 5 view .LVU61
 247              		.loc 1 713 17 is_stmt 0 view .LVU62
 248 001a FFF7FEFF 		bl	mbedtls_asn1_get_tag
 249              	.LVL20:
 250              		.loc 1 713 7 view .LVU63
 251 001e 20B1     		cbz	r0, .L16
 714:D:/fchai/work/i-cube/I-CUBE-HUAWEI/Middlewares/Third_Party/Huawei/iot_link/network/dtls/mbedtls/mbedtls-2.16.2/library\pkparse.c ****             MBEDTLS_ASN1_CONSTRUCTED | MBEDTLS_ASN1_SEQUENCE ) ) != 0 )
 715:D:/fchai/work/i-cube/I-CUBE-HUAWEI/Middlewares/Third_Party/Huawei/iot_link/network/dtls/mbedtls/mbedtls-2.16.2/library\pkparse.c ****     {
 716:D:/fchai/work/i-cube/I-CUBE-HUAWEI/Middlewares/Third_Party/Huawei/iot_link/network/dtls/mbedtls/mbedtls-2.16.2/library\pkparse.c ****         return( MBEDTLS_ERR_PK_KEY_INVALID_FORMAT + ret );
 252              		.loc 1 716 9 is_stmt 1 view .LVU64
 253              		.loc 1 716 51 is_stmt 0 view .LVU65
 254 0020 A0F57454 		sub	r4, r0, #15616
 255              	.LVL21:
 256              	.L15:
 717:D:/fchai/work/i-cube/I-CUBE-HUAWEI/Middlewares/Third_Party/Huawei/iot_link/network/dtls/mbedtls/mbedtls-2.16.2/library\pkparse.c ****     }
 718:D:/fchai/work/i-cube/I-CUBE-HUAWEI/Middlewares/Third_Party/Huawei/iot_link/network/dtls/mbedtls/mbedtls-2.16.2/library\pkparse.c **** 
 719:D:/fchai/work/i-cube/I-CUBE-HUAWEI/Middlewares/Third_Party/Huawei/iot_link/network/dtls/mbedtls/mbedtls-2.16.2/library\pkparse.c ****     end = p + len;
 720:D:/fchai/work/i-cube/I-CUBE-HUAWEI/Middlewares/Third_Party/Huawei/iot_link/network/dtls/mbedtls/mbedtls-2.16.2/library\pkparse.c **** 
 721:D:/fchai/work/i-cube/I-CUBE-HUAWEI/Middlewares/Third_Party/Huawei/iot_link/network/dtls/mbedtls/mbedtls-2.16.2/library\pkparse.c ****     if( ( ret = mbedtls_asn1_get_int( &p, end, &version ) ) != 0 )
 722:D:/fchai/work/i-cube/I-CUBE-HUAWEI/Middlewares/Third_Party/Huawei/iot_link/network/dtls/mbedtls/mbedtls-2.16.2/library\pkparse.c ****     {
 723:D:/fchai/work/i-cube/I-CUBE-HUAWEI/Middlewares/Third_Party/Huawei/iot_link/network/dtls/mbedtls/mbedtls-2.16.2/library\pkparse.c ****         return( MBEDTLS_ERR_PK_KEY_INVALID_FORMAT + ret );
 724:D:/fchai/work/i-cube/I-CUBE-HUAWEI/Middlewares/Third_Party/Huawei/iot_link/network/dtls/mbedtls/mbedtls-2.16.2/library\pkparse.c ****     }
 725:D:/fchai/work/i-cube/I-CUBE-HUAWEI/Middlewares/Third_Party/Huawei/iot_link/network/dtls/mbedtls/mbedtls-2.16.2/library\pkparse.c **** 
 726:D:/fchai/work/i-cube/I-CUBE-HUAWEI/Middlewares/Third_Party/Huawei/iot_link/network/dtls/mbedtls/mbedtls-2.16.2/library\pkparse.c ****     if( version != 0 )
 727:D:/fchai/work/i-cube/I-CUBE-HUAWEI/Middlewares/Third_Party/Huawei/iot_link/network/dtls/mbedtls/mbedtls-2.16.2/library\pkparse.c ****     {
 728:D:/fchai/work/i-cube/I-CUBE-HUAWEI/Middlewares/Third_Party/Huawei/iot_link/network/dtls/mbedtls/mbedtls-2.16.2/library\pkparse.c ****         return( MBEDTLS_ERR_PK_KEY_INVALID_VERSION );
 729:D:/fchai/work/i-cube/I-CUBE-HUAWEI/Middlewares/Third_Party/Huawei/iot_link/network/dtls/mbedtls/mbedtls-2.16.2/library\pkparse.c ****     }
 730:D:/fchai/work/i-cube/I-CUBE-HUAWEI/Middlewares/Third_Party/Huawei/iot_link/network/dtls/mbedtls/mbedtls-2.16.2/library\pkparse.c **** 
 731:D:/fchai/work/i-cube/I-CUBE-HUAWEI/Middlewares/Third_Party/Huawei/iot_link/network/dtls/mbedtls/mbedtls-2.16.2/library\pkparse.c ****     /* Import N */
 732:D:/fchai/work/i-cube/I-CUBE-HUAWEI/Middlewares/Third_Party/Huawei/iot_link/network/dtls/mbedtls/mbedtls-2.16.2/library\pkparse.c ****     if( ( ret = mbedtls_asn1_get_tag( &p, end, &len,
 733:D:/fchai/work/i-cube/I-CUBE-HUAWEI/Middlewares/Third_Party/Huawei/iot_link/network/dtls/mbedtls/mbedtls-2.16.2/library\pkparse.c ****                                       MBEDTLS_ASN1_INTEGER ) ) != 0 ||
 734:D:/fchai/work/i-cube/I-CUBE-HUAWEI/Middlewares/Third_Party/Huawei/iot_link/network/dtls/mbedtls/mbedtls-2.16.2/library\pkparse.c ****         ( ret = mbedtls_rsa_import_raw( rsa, p, len, NULL, 0, NULL, 0,
 735:D:/fchai/work/i-cube/I-CUBE-HUAWEI/Middlewares/Third_Party/Huawei/iot_link/network/dtls/mbedtls/mbedtls-2.16.2/library\pkparse.c ****                                         NULL, 0, NULL, 0 ) ) != 0 )
 736:D:/fchai/work/i-cube/I-CUBE-HUAWEI/Middlewares/Third_Party/Huawei/iot_link/network/dtls/mbedtls/mbedtls-2.16.2/library\pkparse.c ****         goto cleanup;
 737:D:/fchai/work/i-cube/I-CUBE-HUAWEI/Middlewares/Third_Party/Huawei/iot_link/network/dtls/mbedtls/mbedtls-2.16.2/library\pkparse.c ****     p += len;
 738:D:/fchai/work/i-cube/I-CUBE-HUAWEI/Middlewares/Third_Party/Huawei/iot_link/network/dtls/mbedtls/mbedtls-2.16.2/library\pkparse.c **** 
 739:D:/fchai/work/i-cube/I-CUBE-HUAWEI/Middlewares/Third_Party/Huawei/iot_link/network/dtls/mbedtls/mbedtls-2.16.2/library\pkparse.c ****     /* Import E */
ARM GAS  T:\msys\tmp\cc83OHoG.s 			page 19


 740:D:/fchai/work/i-cube/I-CUBE-HUAWEI/Middlewares/Third_Party/Huawei/iot_link/network/dtls/mbedtls/mbedtls-2.16.2/library\pkparse.c ****     if( ( ret = mbedtls_asn1_get_tag( &p, end, &len,
 741:D:/fchai/work/i-cube/I-CUBE-HUAWEI/Middlewares/Third_Party/Huawei/iot_link/network/dtls/mbedtls/mbedtls-2.16.2/library\pkparse.c ****                                       MBEDTLS_ASN1_INTEGER ) ) != 0 ||
 742:D:/fchai/work/i-cube/I-CUBE-HUAWEI/Middlewares/Third_Party/Huawei/iot_link/network/dtls/mbedtls/mbedtls-2.16.2/library\pkparse.c ****         ( ret = mbedtls_rsa_import_raw( rsa, NULL, 0, NULL, 0, NULL, 0,
 743:D:/fchai/work/i-cube/I-CUBE-HUAWEI/Middlewares/Third_Party/Huawei/iot_link/network/dtls/mbedtls/mbedtls-2.16.2/library\pkparse.c ****                                         NULL, 0, p, len ) ) != 0 )
 744:D:/fchai/work/i-cube/I-CUBE-HUAWEI/Middlewares/Third_Party/Huawei/iot_link/network/dtls/mbedtls/mbedtls-2.16.2/library\pkparse.c ****         goto cleanup;
 745:D:/fchai/work/i-cube/I-CUBE-HUAWEI/Middlewares/Third_Party/Huawei/iot_link/network/dtls/mbedtls/mbedtls-2.16.2/library\pkparse.c ****     p += len;
 746:D:/fchai/work/i-cube/I-CUBE-HUAWEI/Middlewares/Third_Party/Huawei/iot_link/network/dtls/mbedtls/mbedtls-2.16.2/library\pkparse.c **** 
 747:D:/fchai/work/i-cube/I-CUBE-HUAWEI/Middlewares/Third_Party/Huawei/iot_link/network/dtls/mbedtls/mbedtls-2.16.2/library\pkparse.c ****     /* Import D */
 748:D:/fchai/work/i-cube/I-CUBE-HUAWEI/Middlewares/Third_Party/Huawei/iot_link/network/dtls/mbedtls/mbedtls-2.16.2/library\pkparse.c ****     if( ( ret = mbedtls_asn1_get_tag( &p, end, &len,
 749:D:/fchai/work/i-cube/I-CUBE-HUAWEI/Middlewares/Third_Party/Huawei/iot_link/network/dtls/mbedtls/mbedtls-2.16.2/library\pkparse.c ****                                       MBEDTLS_ASN1_INTEGER ) ) != 0 ||
 750:D:/fchai/work/i-cube/I-CUBE-HUAWEI/Middlewares/Third_Party/Huawei/iot_link/network/dtls/mbedtls/mbedtls-2.16.2/library\pkparse.c ****         ( ret = mbedtls_rsa_import_raw( rsa, NULL, 0, NULL, 0, NULL, 0,
 751:D:/fchai/work/i-cube/I-CUBE-HUAWEI/Middlewares/Third_Party/Huawei/iot_link/network/dtls/mbedtls/mbedtls-2.16.2/library\pkparse.c ****                                         p, len, NULL, 0 ) ) != 0 )
 752:D:/fchai/work/i-cube/I-CUBE-HUAWEI/Middlewares/Third_Party/Huawei/iot_link/network/dtls/mbedtls/mbedtls-2.16.2/library\pkparse.c ****         goto cleanup;
 753:D:/fchai/work/i-cube/I-CUBE-HUAWEI/Middlewares/Third_Party/Huawei/iot_link/network/dtls/mbedtls/mbedtls-2.16.2/library\pkparse.c ****     p += len;
 754:D:/fchai/work/i-cube/I-CUBE-HUAWEI/Middlewares/Third_Party/Huawei/iot_link/network/dtls/mbedtls/mbedtls-2.16.2/library\pkparse.c **** 
 755:D:/fchai/work/i-cube/I-CUBE-HUAWEI/Middlewares/Third_Party/Huawei/iot_link/network/dtls/mbedtls/mbedtls-2.16.2/library\pkparse.c ****     /* Import P */
 756:D:/fchai/work/i-cube/I-CUBE-HUAWEI/Middlewares/Third_Party/Huawei/iot_link/network/dtls/mbedtls/mbedtls-2.16.2/library\pkparse.c ****     if( ( ret = mbedtls_asn1_get_tag( &p, end, &len,
 757:D:/fchai/work/i-cube/I-CUBE-HUAWEI/Middlewares/Third_Party/Huawei/iot_link/network/dtls/mbedtls/mbedtls-2.16.2/library\pkparse.c ****                                       MBEDTLS_ASN1_INTEGER ) ) != 0 ||
 758:D:/fchai/work/i-cube/I-CUBE-HUAWEI/Middlewares/Third_Party/Huawei/iot_link/network/dtls/mbedtls/mbedtls-2.16.2/library\pkparse.c ****         ( ret = mbedtls_rsa_import_raw( rsa, NULL, 0, p, len, NULL, 0,
 759:D:/fchai/work/i-cube/I-CUBE-HUAWEI/Middlewares/Third_Party/Huawei/iot_link/network/dtls/mbedtls/mbedtls-2.16.2/library\pkparse.c ****                                         NULL, 0, NULL, 0 ) ) != 0 )
 760:D:/fchai/work/i-cube/I-CUBE-HUAWEI/Middlewares/Third_Party/Huawei/iot_link/network/dtls/mbedtls/mbedtls-2.16.2/library\pkparse.c ****         goto cleanup;
 761:D:/fchai/work/i-cube/I-CUBE-HUAWEI/Middlewares/Third_Party/Huawei/iot_link/network/dtls/mbedtls/mbedtls-2.16.2/library\pkparse.c ****     p += len;
 762:D:/fchai/work/i-cube/I-CUBE-HUAWEI/Middlewares/Third_Party/Huawei/iot_link/network/dtls/mbedtls/mbedtls-2.16.2/library\pkparse.c **** 
 763:D:/fchai/work/i-cube/I-CUBE-HUAWEI/Middlewares/Third_Party/Huawei/iot_link/network/dtls/mbedtls/mbedtls-2.16.2/library\pkparse.c ****     /* Import Q */
 764:D:/fchai/work/i-cube/I-CUBE-HUAWEI/Middlewares/Third_Party/Huawei/iot_link/network/dtls/mbedtls/mbedtls-2.16.2/library\pkparse.c ****     if( ( ret = mbedtls_asn1_get_tag( &p, end, &len,
 765:D:/fchai/work/i-cube/I-CUBE-HUAWEI/Middlewares/Third_Party/Huawei/iot_link/network/dtls/mbedtls/mbedtls-2.16.2/library\pkparse.c ****                                       MBEDTLS_ASN1_INTEGER ) ) != 0 ||
 766:D:/fchai/work/i-cube/I-CUBE-HUAWEI/Middlewares/Third_Party/Huawei/iot_link/network/dtls/mbedtls/mbedtls-2.16.2/library\pkparse.c ****         ( ret = mbedtls_rsa_import_raw( rsa, NULL, 0, NULL, 0, p, len,
 767:D:/fchai/work/i-cube/I-CUBE-HUAWEI/Middlewares/Third_Party/Huawei/iot_link/network/dtls/mbedtls/mbedtls-2.16.2/library\pkparse.c ****                                         NULL, 0, NULL, 0 ) ) != 0 )
 768:D:/fchai/work/i-cube/I-CUBE-HUAWEI/Middlewares/Third_Party/Huawei/iot_link/network/dtls/mbedtls/mbedtls-2.16.2/library\pkparse.c ****         goto cleanup;
 769:D:/fchai/work/i-cube/I-CUBE-HUAWEI/Middlewares/Third_Party/Huawei/iot_link/network/dtls/mbedtls/mbedtls-2.16.2/library\pkparse.c ****     p += len;
 770:D:/fchai/work/i-cube/I-CUBE-HUAWEI/Middlewares/Third_Party/Huawei/iot_link/network/dtls/mbedtls/mbedtls-2.16.2/library\pkparse.c **** 
 771:D:/fchai/work/i-cube/I-CUBE-HUAWEI/Middlewares/Third_Party/Huawei/iot_link/network/dtls/mbedtls/mbedtls-2.16.2/library\pkparse.c ****     /* Complete the RSA private key */
 772:D:/fchai/work/i-cube/I-CUBE-HUAWEI/Middlewares/Third_Party/Huawei/iot_link/network/dtls/mbedtls/mbedtls-2.16.2/library\pkparse.c ****     if( ( ret = mbedtls_rsa_complete( rsa ) ) != 0 )
 773:D:/fchai/work/i-cube/I-CUBE-HUAWEI/Middlewares/Third_Party/Huawei/iot_link/network/dtls/mbedtls/mbedtls-2.16.2/library\pkparse.c ****         goto cleanup;
 774:D:/fchai/work/i-cube/I-CUBE-HUAWEI/Middlewares/Third_Party/Huawei/iot_link/network/dtls/mbedtls/mbedtls-2.16.2/library\pkparse.c **** 
 775:D:/fchai/work/i-cube/I-CUBE-HUAWEI/Middlewares/Third_Party/Huawei/iot_link/network/dtls/mbedtls/mbedtls-2.16.2/library\pkparse.c ****     /* Check optional parameters */
 776:D:/fchai/work/i-cube/I-CUBE-HUAWEI/Middlewares/Third_Party/Huawei/iot_link/network/dtls/mbedtls/mbedtls-2.16.2/library\pkparse.c ****     if( ( ret = mbedtls_asn1_get_mpi( &p, end, &T ) ) != 0 ||
 777:D:/fchai/work/i-cube/I-CUBE-HUAWEI/Middlewares/Third_Party/Huawei/iot_link/network/dtls/mbedtls/mbedtls-2.16.2/library\pkparse.c ****         ( ret = mbedtls_asn1_get_mpi( &p, end, &T ) ) != 0 ||
 778:D:/fchai/work/i-cube/I-CUBE-HUAWEI/Middlewares/Third_Party/Huawei/iot_link/network/dtls/mbedtls/mbedtls-2.16.2/library\pkparse.c ****         ( ret = mbedtls_asn1_get_mpi( &p, end, &T ) ) != 0 )
 779:D:/fchai/work/i-cube/I-CUBE-HUAWEI/Middlewares/Third_Party/Huawei/iot_link/network/dtls/mbedtls/mbedtls-2.16.2/library\pkparse.c ****         goto cleanup;
 780:D:/fchai/work/i-cube/I-CUBE-HUAWEI/Middlewares/Third_Party/Huawei/iot_link/network/dtls/mbedtls/mbedtls-2.16.2/library\pkparse.c **** 
 781:D:/fchai/work/i-cube/I-CUBE-HUAWEI/Middlewares/Third_Party/Huawei/iot_link/network/dtls/mbedtls/mbedtls-2.16.2/library\pkparse.c ****     if( p != end )
 782:D:/fchai/work/i-cube/I-CUBE-HUAWEI/Middlewares/Third_Party/Huawei/iot_link/network/dtls/mbedtls/mbedtls-2.16.2/library\pkparse.c ****     {
 783:D:/fchai/work/i-cube/I-CUBE-HUAWEI/Middlewares/Third_Party/Huawei/iot_link/network/dtls/mbedtls/mbedtls-2.16.2/library\pkparse.c ****         ret = MBEDTLS_ERR_PK_KEY_INVALID_FORMAT +
 784:D:/fchai/work/i-cube/I-CUBE-HUAWEI/Middlewares/Third_Party/Huawei/iot_link/network/dtls/mbedtls/mbedtls-2.16.2/library\pkparse.c ****               MBEDTLS_ERR_ASN1_LENGTH_MISMATCH ;
 785:D:/fchai/work/i-cube/I-CUBE-HUAWEI/Middlewares/Third_Party/Huawei/iot_link/network/dtls/mbedtls/mbedtls-2.16.2/library\pkparse.c ****     }
 786:D:/fchai/work/i-cube/I-CUBE-HUAWEI/Middlewares/Third_Party/Huawei/iot_link/network/dtls/mbedtls/mbedtls-2.16.2/library\pkparse.c **** 
 787:D:/fchai/work/i-cube/I-CUBE-HUAWEI/Middlewares/Third_Party/Huawei/iot_link/network/dtls/mbedtls/mbedtls-2.16.2/library\pkparse.c **** cleanup:
 788:D:/fchai/work/i-cube/I-CUBE-HUAWEI/Middlewares/Third_Party/Huawei/iot_link/network/dtls/mbedtls/mbedtls-2.16.2/library\pkparse.c **** 
 789:D:/fchai/work/i-cube/I-CUBE-HUAWEI/Middlewares/Third_Party/Huawei/iot_link/network/dtls/mbedtls/mbedtls-2.16.2/library\pkparse.c ****     mbedtls_mpi_free( &T );
 790:D:/fchai/work/i-cube/I-CUBE-HUAWEI/Middlewares/Third_Party/Huawei/iot_link/network/dtls/mbedtls/mbedtls-2.16.2/library\pkparse.c **** 
 791:D:/fchai/work/i-cube/I-CUBE-HUAWEI/Middlewares/Third_Party/Huawei/iot_link/network/dtls/mbedtls/mbedtls-2.16.2/library\pkparse.c ****     if( ret != 0 )
 792:D:/fchai/work/i-cube/I-CUBE-HUAWEI/Middlewares/Third_Party/Huawei/iot_link/network/dtls/mbedtls/mbedtls-2.16.2/library\pkparse.c ****     {
 793:D:/fchai/work/i-cube/I-CUBE-HUAWEI/Middlewares/Third_Party/Huawei/iot_link/network/dtls/mbedtls/mbedtls-2.16.2/library\pkparse.c ****         /* Wrap error code if it's coming from a lower level */
 794:D:/fchai/work/i-cube/I-CUBE-HUAWEI/Middlewares/Third_Party/Huawei/iot_link/network/dtls/mbedtls/mbedtls-2.16.2/library\pkparse.c ****         if( ( ret & 0xff80 ) == 0 )
 795:D:/fchai/work/i-cube/I-CUBE-HUAWEI/Middlewares/Third_Party/Huawei/iot_link/network/dtls/mbedtls/mbedtls-2.16.2/library\pkparse.c ****             ret = MBEDTLS_ERR_PK_KEY_INVALID_FORMAT + ret;
 796:D:/fchai/work/i-cube/I-CUBE-HUAWEI/Middlewares/Third_Party/Huawei/iot_link/network/dtls/mbedtls/mbedtls-2.16.2/library\pkparse.c ****         else
ARM GAS  T:\msys\tmp\cc83OHoG.s 			page 20


 797:D:/fchai/work/i-cube/I-CUBE-HUAWEI/Middlewares/Third_Party/Huawei/iot_link/network/dtls/mbedtls/mbedtls-2.16.2/library\pkparse.c ****             ret = MBEDTLS_ERR_PK_KEY_INVALID_FORMAT;
 798:D:/fchai/work/i-cube/I-CUBE-HUAWEI/Middlewares/Third_Party/Huawei/iot_link/network/dtls/mbedtls/mbedtls-2.16.2/library\pkparse.c **** 
 799:D:/fchai/work/i-cube/I-CUBE-HUAWEI/Middlewares/Third_Party/Huawei/iot_link/network/dtls/mbedtls/mbedtls-2.16.2/library\pkparse.c ****         mbedtls_rsa_free( rsa );
 800:D:/fchai/work/i-cube/I-CUBE-HUAWEI/Middlewares/Third_Party/Huawei/iot_link/network/dtls/mbedtls/mbedtls-2.16.2/library\pkparse.c ****     }
 801:D:/fchai/work/i-cube/I-CUBE-HUAWEI/Middlewares/Third_Party/Huawei/iot_link/network/dtls/mbedtls/mbedtls-2.16.2/library\pkparse.c **** 
 802:D:/fchai/work/i-cube/I-CUBE-HUAWEI/Middlewares/Third_Party/Huawei/iot_link/network/dtls/mbedtls/mbedtls-2.16.2/library\pkparse.c ****     return( ret );
 803:D:/fchai/work/i-cube/I-CUBE-HUAWEI/Middlewares/Third_Party/Huawei/iot_link/network/dtls/mbedtls/mbedtls-2.16.2/library\pkparse.c **** }
 257              		.loc 1 803 1 view .LVU66
 258 0024 2046     		mov	r0, r4
 259 0026 0EB0     		add	sp, sp, #56
 260              	.LCFI6:
 261              		.cfi_remember_state
 262              		.cfi_def_cfa_offset 16
 263              		@ sp needed
 264 0028 70BD     		pop	{r4, r5, r6, pc}
 265              	.LVL22:
 266              	.L16:
 267              	.LCFI7:
 268              		.cfi_restore_state
 719:D:/fchai/work/i-cube/I-CUBE-HUAWEI/Middlewares/Third_Party/Huawei/iot_link/network/dtls/mbedtls/mbedtls-2.16.2/library\pkparse.c **** 
 269              		.loc 1 719 5 is_stmt 1 view .LVU67
 719:D:/fchai/work/i-cube/I-CUBE-HUAWEI/Middlewares/Third_Party/Huawei/iot_link/network/dtls/mbedtls/mbedtls-2.16.2/library\pkparse.c **** 
 270              		.loc 1 719 9 is_stmt 0 view .LVU68
 271 002a DDE90936 		ldrd	r3, r6, [sp, #36]
 272              	.LVL23:
 719:D:/fchai/work/i-cube/I-CUBE-HUAWEI/Middlewares/Third_Party/Huawei/iot_link/network/dtls/mbedtls/mbedtls-2.16.2/library\pkparse.c **** 
 273              		.loc 1 719 9 view .LVU69
 274 002e 1E44     		add	r6, r6, r3
 275              	.LVL24:
 721:D:/fchai/work/i-cube/I-CUBE-HUAWEI/Middlewares/Third_Party/Huawei/iot_link/network/dtls/mbedtls/mbedtls-2.16.2/library\pkparse.c ****     {
 276              		.loc 1 721 5 is_stmt 1 view .LVU70
 721:D:/fchai/work/i-cube/I-CUBE-HUAWEI/Middlewares/Third_Party/Huawei/iot_link/network/dtls/mbedtls/mbedtls-2.16.2/library\pkparse.c ****     {
 277              		.loc 1 721 17 is_stmt 0 view .LVU71
 278 0030 3146     		mov	r1, r6
 279 0032 08AA     		add	r2, sp, #32
 280 0034 0AA8     		add	r0, sp, #40
 281              	.LVL25:
 721:D:/fchai/work/i-cube/I-CUBE-HUAWEI/Middlewares/Third_Party/Huawei/iot_link/network/dtls/mbedtls/mbedtls-2.16.2/library\pkparse.c ****     {
 282              		.loc 1 721 17 view .LVU72
 283 0036 FFF7FEFF 		bl	mbedtls_asn1_get_int
 284              	.LVL26:
 721:D:/fchai/work/i-cube/I-CUBE-HUAWEI/Middlewares/Third_Party/Huawei/iot_link/network/dtls/mbedtls/mbedtls-2.16.2/library\pkparse.c ****     {
 285              		.loc 1 721 7 view .LVU73
 286 003a 0028     		cmp	r0, #0
 287 003c 40F0D680 		bne	.L25
 726:D:/fchai/work/i-cube/I-CUBE-HUAWEI/Middlewares/Third_Party/Huawei/iot_link/network/dtls/mbedtls/mbedtls-2.16.2/library\pkparse.c ****     {
 288              		.loc 1 726 5 is_stmt 1 view .LVU74
 726:D:/fchai/work/i-cube/I-CUBE-HUAWEI/Middlewares/Third_Party/Huawei/iot_link/network/dtls/mbedtls/mbedtls-2.16.2/library\pkparse.c ****     {
 289              		.loc 1 726 7 is_stmt 0 view .LVU75
 290 0040 089B     		ldr	r3, [sp, #32]
 291 0042 002B     		cmp	r3, #0
 292 0044 40F0DA80 		bne	.L23
 732:D:/fchai/work/i-cube/I-CUBE-HUAWEI/Middlewares/Third_Party/Huawei/iot_link/network/dtls/mbedtls/mbedtls-2.16.2/library\pkparse.c ****                                       MBEDTLS_ASN1_INTEGER ) ) != 0 ||
 293              		.loc 1 732 5 is_stmt 1 view .LVU76
 732:D:/fchai/work/i-cube/I-CUBE-HUAWEI/Middlewares/Third_Party/Huawei/iot_link/network/dtls/mbedtls/mbedtls-2.16.2/library\pkparse.c ****                                       MBEDTLS_ASN1_INTEGER ) ) != 0 ||
 294              		.loc 1 732 17 is_stmt 0 view .LVU77
 295 0048 0223     		movs	r3, #2
ARM GAS  T:\msys\tmp\cc83OHoG.s 			page 21


 296 004a 09AA     		add	r2, sp, #36
 297 004c 3146     		mov	r1, r6
 298 004e 0AA8     		add	r0, sp, #40
 299              	.LVL27:
 732:D:/fchai/work/i-cube/I-CUBE-HUAWEI/Middlewares/Third_Party/Huawei/iot_link/network/dtls/mbedtls/mbedtls-2.16.2/library\pkparse.c ****                                       MBEDTLS_ASN1_INTEGER ) ) != 0 ||
 300              		.loc 1 732 17 view .LVU78
 301 0050 FFF7FEFF 		bl	mbedtls_asn1_get_tag
 302              	.LVL28:
 732:D:/fchai/work/i-cube/I-CUBE-HUAWEI/Middlewares/Third_Party/Huawei/iot_link/network/dtls/mbedtls/mbedtls-2.16.2/library\pkparse.c ****                                       MBEDTLS_ASN1_INTEGER ) ) != 0 ||
 303              		.loc 1 732 7 view .LVU79
 304 0054 0446     		mov	r4, r0
 305              	.LVL29:
 732:D:/fchai/work/i-cube/I-CUBE-HUAWEI/Middlewares/Third_Party/Huawei/iot_link/network/dtls/mbedtls/mbedtls-2.16.2/library\pkparse.c ****                                       MBEDTLS_ASN1_INTEGER ) ) != 0 ||
 306              		.loc 1 732 7 view .LVU80
 307 0056 70B1     		cbz	r0, .L26
 308              	.L19:
 789:D:/fchai/work/i-cube/I-CUBE-HUAWEI/Middlewares/Third_Party/Huawei/iot_link/network/dtls/mbedtls/mbedtls-2.16.2/library\pkparse.c **** 
 309              		.loc 1 789 5 is_stmt 1 view .LVU81
 310 0058 0BA8     		add	r0, sp, #44
 311              	.LVL30:
 789:D:/fchai/work/i-cube/I-CUBE-HUAWEI/Middlewares/Third_Party/Huawei/iot_link/network/dtls/mbedtls/mbedtls-2.16.2/library\pkparse.c **** 
 312              		.loc 1 789 5 is_stmt 0 view .LVU82
 313 005a FFF7FEFF 		bl	mbedtls_mpi_free
 314              	.LVL31:
 791:D:/fchai/work/i-cube/I-CUBE-HUAWEI/Middlewares/Third_Party/Huawei/iot_link/network/dtls/mbedtls/mbedtls-2.16.2/library\pkparse.c ****     {
 315              		.loc 1 791 5 is_stmt 1 view .LVU83
 794:D:/fchai/work/i-cube/I-CUBE-HUAWEI/Middlewares/Third_Party/Huawei/iot_link/network/dtls/mbedtls/mbedtls-2.16.2/library\pkparse.c ****             ret = MBEDTLS_ERR_PK_KEY_INVALID_FORMAT + ret;
 316              		.loc 1 794 9 view .LVU84
 794:D:/fchai/work/i-cube/I-CUBE-HUAWEI/Middlewares/Third_Party/Huawei/iot_link/network/dtls/mbedtls/mbedtls-2.16.2/library\pkparse.c ****             ret = MBEDTLS_ERR_PK_KEY_INVALID_FORMAT + ret;
 317              		.loc 1 794 19 is_stmt 0 view .LVU85
 318 005e 4FF68073 		movw	r3, #65408
 794:D:/fchai/work/i-cube/I-CUBE-HUAWEI/Middlewares/Third_Party/Huawei/iot_link/network/dtls/mbedtls/mbedtls-2.16.2/library\pkparse.c ****             ret = MBEDTLS_ERR_PK_KEY_INVALID_FORMAT + ret;
 319              		.loc 1 794 11 view .LVU86
 320 0062 1C42     		tst	r4, r3
 321 0064 00F0C780 		beq	.L22
 797:D:/fchai/work/i-cube/I-CUBE-HUAWEI/Middlewares/Third_Party/Huawei/iot_link/network/dtls/mbedtls/mbedtls-2.16.2/library\pkparse.c **** 
 322              		.loc 1 797 17 view .LVU87
 323 0068 674C     		ldr	r4, .L28
 324              	.LVL32:
 325              	.L21:
 799:D:/fchai/work/i-cube/I-CUBE-HUAWEI/Middlewares/Third_Party/Huawei/iot_link/network/dtls/mbedtls/mbedtls-2.16.2/library\pkparse.c ****     }
 326              		.loc 1 799 9 is_stmt 1 view .LVU88
 327 006a 2846     		mov	r0, r5
 328 006c FFF7FEFF 		bl	mbedtls_rsa_free
 329              	.LVL33:
 330              		.loc 1 803 1 is_stmt 0 view .LVU89
 331 0070 2046     		mov	r0, r4
 332 0072 0EB0     		add	sp, sp, #56
 333              	.LCFI8:
 334              		.cfi_remember_state
 335              		.cfi_def_cfa_offset 16
 336              		@ sp needed
 337 0074 70BD     		pop	{r4, r5, r6, pc}
 338              	.LVL34:
 339              	.L26:
 340              	.LCFI9:
 341              		.cfi_restore_state
ARM GAS  T:\msys\tmp\cc83OHoG.s 			page 22


 734:D:/fchai/work/i-cube/I-CUBE-HUAWEI/Middlewares/Third_Party/Huawei/iot_link/network/dtls/mbedtls/mbedtls-2.16.2/library\pkparse.c ****                                         NULL, 0, NULL, 0 ) ) != 0 )
 342              		.loc 1 734 17 view .LVU90
 343 0076 CDE90500 		strd	r0, r0, [sp, #20]
 344 007a CDE90300 		strd	r0, r0, [sp, #12]
 345 007e CDE90100 		strd	r0, r0, [sp, #4]
 346 0082 0090     		str	r0, [sp]
 347 0084 0346     		mov	r3, r0
 348 0086 DDE90921 		ldrd	r2, r1, [sp, #36]
 349 008a 2846     		mov	r0, r5
 350              	.LVL35:
 734:D:/fchai/work/i-cube/I-CUBE-HUAWEI/Middlewares/Third_Party/Huawei/iot_link/network/dtls/mbedtls/mbedtls-2.16.2/library\pkparse.c ****                                         NULL, 0, NULL, 0 ) ) != 0 )
 351              		.loc 1 734 17 view .LVU91
 352 008c FFF7FEFF 		bl	mbedtls_rsa_import_raw
 353              	.LVL36:
 733:D:/fchai/work/i-cube/I-CUBE-HUAWEI/Middlewares/Third_Party/Huawei/iot_link/network/dtls/mbedtls/mbedtls-2.16.2/library\pkparse.c ****         ( ret = mbedtls_rsa_import_raw( rsa, p, len, NULL, 0, NULL, 0,
 354              		.loc 1 733 69 view .LVU92
 355 0090 0446     		mov	r4, r0
 356 0092 0028     		cmp	r0, #0
 357 0094 E0D1     		bne	.L19
 737:D:/fchai/work/i-cube/I-CUBE-HUAWEI/Middlewares/Third_Party/Huawei/iot_link/network/dtls/mbedtls/mbedtls-2.16.2/library\pkparse.c **** 
 358              		.loc 1 737 5 is_stmt 1 view .LVU93
 737:D:/fchai/work/i-cube/I-CUBE-HUAWEI/Middlewares/Third_Party/Huawei/iot_link/network/dtls/mbedtls/mbedtls-2.16.2/library\pkparse.c **** 
 359              		.loc 1 737 7 is_stmt 0 view .LVU94
 360 0096 DDE90942 		ldrd	r4, r2, [sp, #36]
 740:D:/fchai/work/i-cube/I-CUBE-HUAWEI/Middlewares/Third_Party/Huawei/iot_link/network/dtls/mbedtls/mbedtls-2.16.2/library\pkparse.c ****                                       MBEDTLS_ASN1_INTEGER ) ) != 0 ||
 361              		.loc 1 740 17 view .LVU95
 362 009a 0223     		movs	r3, #2
 737:D:/fchai/work/i-cube/I-CUBE-HUAWEI/Middlewares/Third_Party/Huawei/iot_link/network/dtls/mbedtls/mbedtls-2.16.2/library\pkparse.c **** 
 363              		.loc 1 737 7 view .LVU96
 364 009c 1444     		add	r4, r4, r2
 740:D:/fchai/work/i-cube/I-CUBE-HUAWEI/Middlewares/Third_Party/Huawei/iot_link/network/dtls/mbedtls/mbedtls-2.16.2/library\pkparse.c ****                                       MBEDTLS_ASN1_INTEGER ) ) != 0 ||
 365              		.loc 1 740 17 view .LVU97
 366 009e 3146     		mov	r1, r6
 367 00a0 09AA     		add	r2, sp, #36
 368 00a2 0AA8     		add	r0, sp, #40
 369              	.LVL37:
 737:D:/fchai/work/i-cube/I-CUBE-HUAWEI/Middlewares/Third_Party/Huawei/iot_link/network/dtls/mbedtls/mbedtls-2.16.2/library\pkparse.c **** 
 370              		.loc 1 737 7 view .LVU98
 371 00a4 0A94     		str	r4, [sp, #40]
 740:D:/fchai/work/i-cube/I-CUBE-HUAWEI/Middlewares/Third_Party/Huawei/iot_link/network/dtls/mbedtls/mbedtls-2.16.2/library\pkparse.c ****                                       MBEDTLS_ASN1_INTEGER ) ) != 0 ||
 372              		.loc 1 740 5 is_stmt 1 view .LVU99
 740:D:/fchai/work/i-cube/I-CUBE-HUAWEI/Middlewares/Third_Party/Huawei/iot_link/network/dtls/mbedtls/mbedtls-2.16.2/library\pkparse.c ****                                       MBEDTLS_ASN1_INTEGER ) ) != 0 ||
 373              		.loc 1 740 17 is_stmt 0 view .LVU100
 374 00a6 FFF7FEFF 		bl	mbedtls_asn1_get_tag
 375              	.LVL38:
 740:D:/fchai/work/i-cube/I-CUBE-HUAWEI/Middlewares/Third_Party/Huawei/iot_link/network/dtls/mbedtls/mbedtls-2.16.2/library\pkparse.c ****                                       MBEDTLS_ASN1_INTEGER ) ) != 0 ||
 376              		.loc 1 740 7 view .LVU101
 377 00aa 0446     		mov	r4, r0
 378 00ac 0028     		cmp	r0, #0
 379 00ae D3D1     		bne	.L19
 742:D:/fchai/work/i-cube/I-CUBE-HUAWEI/Middlewares/Third_Party/Huawei/iot_link/network/dtls/mbedtls/mbedtls-2.16.2/library\pkparse.c ****                                         NULL, 0, p, len ) ) != 0 )
 380              		.loc 1 742 17 view .LVU102
 381 00b0 DDE90923 		ldrd	r2, r3, [sp, #36]
 382 00b4 CDE90300 		strd	r0, r0, [sp, #12]
 383 00b8 CDE90532 		strd	r3, r2, [sp, #20]
 384 00bc CDE90100 		strd	r0, r0, [sp, #4]
 385 00c0 0090     		str	r0, [sp]
ARM GAS  T:\msys\tmp\cc83OHoG.s 			page 23


 386 00c2 0346     		mov	r3, r0
 387 00c4 0246     		mov	r2, r0
 388 00c6 0146     		mov	r1, r0
 389 00c8 2846     		mov	r0, r5
 390              	.LVL39:
 742:D:/fchai/work/i-cube/I-CUBE-HUAWEI/Middlewares/Third_Party/Huawei/iot_link/network/dtls/mbedtls/mbedtls-2.16.2/library\pkparse.c ****                                         NULL, 0, p, len ) ) != 0 )
 391              		.loc 1 742 17 view .LVU103
 392 00ca FFF7FEFF 		bl	mbedtls_rsa_import_raw
 393              	.LVL40:
 741:D:/fchai/work/i-cube/I-CUBE-HUAWEI/Middlewares/Third_Party/Huawei/iot_link/network/dtls/mbedtls/mbedtls-2.16.2/library\pkparse.c ****         ( ret = mbedtls_rsa_import_raw( rsa, NULL, 0, NULL, 0, NULL, 0,
 394              		.loc 1 741 69 view .LVU104
 395 00ce 0446     		mov	r4, r0
 396 00d0 0028     		cmp	r0, #0
 397 00d2 C1D1     		bne	.L19
 745:D:/fchai/work/i-cube/I-CUBE-HUAWEI/Middlewares/Third_Party/Huawei/iot_link/network/dtls/mbedtls/mbedtls-2.16.2/library\pkparse.c **** 
 398              		.loc 1 745 5 is_stmt 1 view .LVU105
 745:D:/fchai/work/i-cube/I-CUBE-HUAWEI/Middlewares/Third_Party/Huawei/iot_link/network/dtls/mbedtls/mbedtls-2.16.2/library\pkparse.c **** 
 399              		.loc 1 745 7 is_stmt 0 view .LVU106
 400 00d4 DDE90942 		ldrd	r4, r2, [sp, #36]
 748:D:/fchai/work/i-cube/I-CUBE-HUAWEI/Middlewares/Third_Party/Huawei/iot_link/network/dtls/mbedtls/mbedtls-2.16.2/library\pkparse.c ****                                       MBEDTLS_ASN1_INTEGER ) ) != 0 ||
 401              		.loc 1 748 17 view .LVU107
 402 00d8 0223     		movs	r3, #2
 745:D:/fchai/work/i-cube/I-CUBE-HUAWEI/Middlewares/Third_Party/Huawei/iot_link/network/dtls/mbedtls/mbedtls-2.16.2/library\pkparse.c **** 
 403              		.loc 1 745 7 view .LVU108
 404 00da 1444     		add	r4, r4, r2
 748:D:/fchai/work/i-cube/I-CUBE-HUAWEI/Middlewares/Third_Party/Huawei/iot_link/network/dtls/mbedtls/mbedtls-2.16.2/library\pkparse.c ****                                       MBEDTLS_ASN1_INTEGER ) ) != 0 ||
 405              		.loc 1 748 17 view .LVU109
 406 00dc 3146     		mov	r1, r6
 407 00de 09AA     		add	r2, sp, #36
 408 00e0 0AA8     		add	r0, sp, #40
 409              	.LVL41:
 745:D:/fchai/work/i-cube/I-CUBE-HUAWEI/Middlewares/Third_Party/Huawei/iot_link/network/dtls/mbedtls/mbedtls-2.16.2/library\pkparse.c **** 
 410              		.loc 1 745 7 view .LVU110
 411 00e2 0A94     		str	r4, [sp, #40]
 748:D:/fchai/work/i-cube/I-CUBE-HUAWEI/Middlewares/Third_Party/Huawei/iot_link/network/dtls/mbedtls/mbedtls-2.16.2/library\pkparse.c ****                                       MBEDTLS_ASN1_INTEGER ) ) != 0 ||
 412              		.loc 1 748 5 is_stmt 1 view .LVU111
 748:D:/fchai/work/i-cube/I-CUBE-HUAWEI/Middlewares/Third_Party/Huawei/iot_link/network/dtls/mbedtls/mbedtls-2.16.2/library\pkparse.c ****                                       MBEDTLS_ASN1_INTEGER ) ) != 0 ||
 413              		.loc 1 748 17 is_stmt 0 view .LVU112
 414 00e4 FFF7FEFF 		bl	mbedtls_asn1_get_tag
 415              	.LVL42:
 748:D:/fchai/work/i-cube/I-CUBE-HUAWEI/Middlewares/Third_Party/Huawei/iot_link/network/dtls/mbedtls/mbedtls-2.16.2/library\pkparse.c ****                                       MBEDTLS_ASN1_INTEGER ) ) != 0 ||
 416              		.loc 1 748 7 view .LVU113
 417 00e8 0446     		mov	r4, r0
 418 00ea 0028     		cmp	r0, #0
 419 00ec B4D1     		bne	.L19
 750:D:/fchai/work/i-cube/I-CUBE-HUAWEI/Middlewares/Third_Party/Huawei/iot_link/network/dtls/mbedtls/mbedtls-2.16.2/library\pkparse.c ****                                         p, len, NULL, 0 ) ) != 0 )
 420              		.loc 1 750 17 view .LVU114
 421 00ee DDE90923 		ldrd	r2, r3, [sp, #36]
 422 00f2 CDE90500 		strd	r0, r0, [sp, #20]
 423 00f6 CDE90332 		strd	r3, r2, [sp, #12]
 424 00fa CDE90100 		strd	r0, r0, [sp, #4]
 425 00fe 0090     		str	r0, [sp]
 426 0100 0346     		mov	r3, r0
 427 0102 0246     		mov	r2, r0
 428 0104 0146     		mov	r1, r0
 429 0106 2846     		mov	r0, r5
 430              	.LVL43:
ARM GAS  T:\msys\tmp\cc83OHoG.s 			page 24


 750:D:/fchai/work/i-cube/I-CUBE-HUAWEI/Middlewares/Third_Party/Huawei/iot_link/network/dtls/mbedtls/mbedtls-2.16.2/library\pkparse.c ****                                         p, len, NULL, 0 ) ) != 0 )
 431              		.loc 1 750 17 view .LVU115
 432 0108 FFF7FEFF 		bl	mbedtls_rsa_import_raw
 433              	.LVL44:
 749:D:/fchai/work/i-cube/I-CUBE-HUAWEI/Middlewares/Third_Party/Huawei/iot_link/network/dtls/mbedtls/mbedtls-2.16.2/library\pkparse.c ****         ( ret = mbedtls_rsa_import_raw( rsa, NULL, 0, NULL, 0, NULL, 0,
 434              		.loc 1 749 69 view .LVU116
 435 010c 0446     		mov	r4, r0
 436 010e 0028     		cmp	r0, #0
 437 0110 A2D1     		bne	.L19
 753:D:/fchai/work/i-cube/I-CUBE-HUAWEI/Middlewares/Third_Party/Huawei/iot_link/network/dtls/mbedtls/mbedtls-2.16.2/library\pkparse.c **** 
 438              		.loc 1 753 5 is_stmt 1 view .LVU117
 753:D:/fchai/work/i-cube/I-CUBE-HUAWEI/Middlewares/Third_Party/Huawei/iot_link/network/dtls/mbedtls/mbedtls-2.16.2/library\pkparse.c **** 
 439              		.loc 1 753 7 is_stmt 0 view .LVU118
 440 0112 DDE90942 		ldrd	r4, r2, [sp, #36]
 756:D:/fchai/work/i-cube/I-CUBE-HUAWEI/Middlewares/Third_Party/Huawei/iot_link/network/dtls/mbedtls/mbedtls-2.16.2/library\pkparse.c ****                                       MBEDTLS_ASN1_INTEGER ) ) != 0 ||
 441              		.loc 1 756 17 view .LVU119
 442 0116 0223     		movs	r3, #2
 753:D:/fchai/work/i-cube/I-CUBE-HUAWEI/Middlewares/Third_Party/Huawei/iot_link/network/dtls/mbedtls/mbedtls-2.16.2/library\pkparse.c **** 
 443              		.loc 1 753 7 view .LVU120
 444 0118 1444     		add	r4, r4, r2
 756:D:/fchai/work/i-cube/I-CUBE-HUAWEI/Middlewares/Third_Party/Huawei/iot_link/network/dtls/mbedtls/mbedtls-2.16.2/library\pkparse.c ****                                       MBEDTLS_ASN1_INTEGER ) ) != 0 ||
 445              		.loc 1 756 17 view .LVU121
 446 011a 3146     		mov	r1, r6
 447 011c 09AA     		add	r2, sp, #36
 448 011e 0AA8     		add	r0, sp, #40
 449              	.LVL45:
 753:D:/fchai/work/i-cube/I-CUBE-HUAWEI/Middlewares/Third_Party/Huawei/iot_link/network/dtls/mbedtls/mbedtls-2.16.2/library\pkparse.c **** 
 450              		.loc 1 753 7 view .LVU122
 451 0120 0A94     		str	r4, [sp, #40]
 756:D:/fchai/work/i-cube/I-CUBE-HUAWEI/Middlewares/Third_Party/Huawei/iot_link/network/dtls/mbedtls/mbedtls-2.16.2/library\pkparse.c ****                                       MBEDTLS_ASN1_INTEGER ) ) != 0 ||
 452              		.loc 1 756 5 is_stmt 1 view .LVU123
 756:D:/fchai/work/i-cube/I-CUBE-HUAWEI/Middlewares/Third_Party/Huawei/iot_link/network/dtls/mbedtls/mbedtls-2.16.2/library\pkparse.c ****                                       MBEDTLS_ASN1_INTEGER ) ) != 0 ||
 453              		.loc 1 756 17 is_stmt 0 view .LVU124
 454 0122 FFF7FEFF 		bl	mbedtls_asn1_get_tag
 455              	.LVL46:
 756:D:/fchai/work/i-cube/I-CUBE-HUAWEI/Middlewares/Third_Party/Huawei/iot_link/network/dtls/mbedtls/mbedtls-2.16.2/library\pkparse.c ****                                       MBEDTLS_ASN1_INTEGER ) ) != 0 ||
 456              		.loc 1 756 7 view .LVU125
 457 0126 0446     		mov	r4, r0
 458 0128 0028     		cmp	r0, #0
 459 012a 95D1     		bne	.L19
 758:D:/fchai/work/i-cube/I-CUBE-HUAWEI/Middlewares/Third_Party/Huawei/iot_link/network/dtls/mbedtls/mbedtls-2.16.2/library\pkparse.c ****                                         NULL, 0, NULL, 0 ) ) != 0 )
 460              		.loc 1 758 17 view .LVU126
 461 012c 0022     		movs	r2, #0
 462 012e 099B     		ldr	r3, [sp, #36]
 463 0130 0093     		str	r3, [sp]
 464 0132 CDE90522 		strd	r2, r2, [sp, #20]
 465 0136 CDE90322 		strd	r2, r2, [sp, #12]
 466 013a CDE90122 		strd	r2, r2, [sp, #4]
 467 013e 0A9B     		ldr	r3, [sp, #40]
 468 0140 1146     		mov	r1, r2
 469 0142 2846     		mov	r0, r5
 470              	.LVL47:
 758:D:/fchai/work/i-cube/I-CUBE-HUAWEI/Middlewares/Third_Party/Huawei/iot_link/network/dtls/mbedtls/mbedtls-2.16.2/library\pkparse.c ****                                         NULL, 0, NULL, 0 ) ) != 0 )
 471              		.loc 1 758 17 view .LVU127
 472 0144 FFF7FEFF 		bl	mbedtls_rsa_import_raw
 473              	.LVL48:
 757:D:/fchai/work/i-cube/I-CUBE-HUAWEI/Middlewares/Third_Party/Huawei/iot_link/network/dtls/mbedtls/mbedtls-2.16.2/library\pkparse.c ****         ( ret = mbedtls_rsa_import_raw( rsa, NULL, 0, p, len, NULL, 0,
ARM GAS  T:\msys\tmp\cc83OHoG.s 			page 25


 474              		.loc 1 757 69 view .LVU128
 475 0148 0446     		mov	r4, r0
 476 014a 0028     		cmp	r0, #0
 477 014c 84D1     		bne	.L19
 761:D:/fchai/work/i-cube/I-CUBE-HUAWEI/Middlewares/Third_Party/Huawei/iot_link/network/dtls/mbedtls/mbedtls-2.16.2/library\pkparse.c **** 
 478              		.loc 1 761 5 is_stmt 1 view .LVU129
 761:D:/fchai/work/i-cube/I-CUBE-HUAWEI/Middlewares/Third_Party/Huawei/iot_link/network/dtls/mbedtls/mbedtls-2.16.2/library\pkparse.c **** 
 479              		.loc 1 761 7 is_stmt 0 view .LVU130
 480 014e DDE90943 		ldrd	r4, r3, [sp, #36]
 764:D:/fchai/work/i-cube/I-CUBE-HUAWEI/Middlewares/Third_Party/Huawei/iot_link/network/dtls/mbedtls/mbedtls-2.16.2/library\pkparse.c ****                                       MBEDTLS_ASN1_INTEGER ) ) != 0 ||
 481              		.loc 1 764 17 view .LVU131
 482 0152 09AA     		add	r2, sp, #36
 761:D:/fchai/work/i-cube/I-CUBE-HUAWEI/Middlewares/Third_Party/Huawei/iot_link/network/dtls/mbedtls/mbedtls-2.16.2/library\pkparse.c **** 
 483              		.loc 1 761 7 view .LVU132
 484 0154 1C44     		add	r4, r4, r3
 764:D:/fchai/work/i-cube/I-CUBE-HUAWEI/Middlewares/Third_Party/Huawei/iot_link/network/dtls/mbedtls/mbedtls-2.16.2/library\pkparse.c ****                                       MBEDTLS_ASN1_INTEGER ) ) != 0 ||
 485              		.loc 1 764 17 view .LVU133
 486 0156 3146     		mov	r1, r6
 487 0158 0223     		movs	r3, #2
 488 015a 0AA8     		add	r0, sp, #40
 489              	.LVL49:
 761:D:/fchai/work/i-cube/I-CUBE-HUAWEI/Middlewares/Third_Party/Huawei/iot_link/network/dtls/mbedtls/mbedtls-2.16.2/library\pkparse.c **** 
 490              		.loc 1 761 7 view .LVU134
 491 015c 0A94     		str	r4, [sp, #40]
 764:D:/fchai/work/i-cube/I-CUBE-HUAWEI/Middlewares/Third_Party/Huawei/iot_link/network/dtls/mbedtls/mbedtls-2.16.2/library\pkparse.c ****                                       MBEDTLS_ASN1_INTEGER ) ) != 0 ||
 492              		.loc 1 764 5 is_stmt 1 view .LVU135
 764:D:/fchai/work/i-cube/I-CUBE-HUAWEI/Middlewares/Third_Party/Huawei/iot_link/network/dtls/mbedtls/mbedtls-2.16.2/library\pkparse.c ****                                       MBEDTLS_ASN1_INTEGER ) ) != 0 ||
 493              		.loc 1 764 17 is_stmt 0 view .LVU136
 494 015e FFF7FEFF 		bl	mbedtls_asn1_get_tag
 495              	.LVL50:
 764:D:/fchai/work/i-cube/I-CUBE-HUAWEI/Middlewares/Third_Party/Huawei/iot_link/network/dtls/mbedtls/mbedtls-2.16.2/library\pkparse.c ****                                       MBEDTLS_ASN1_INTEGER ) ) != 0 ||
 496              		.loc 1 764 7 view .LVU137
 497 0162 0446     		mov	r4, r0
 498 0164 0028     		cmp	r0, #0
 499 0166 7FF477AF 		bne	.L19
 766:D:/fchai/work/i-cube/I-CUBE-HUAWEI/Middlewares/Third_Party/Huawei/iot_link/network/dtls/mbedtls/mbedtls-2.16.2/library\pkparse.c ****                                         NULL, 0, NULL, 0 ) ) != 0 )
 500              		.loc 1 766 17 view .LVU138
 501 016a DDE90923 		ldrd	r2, r3, [sp, #36]
 502 016e CDE90500 		strd	r0, r0, [sp, #20]
 503 0172 CDE90132 		strd	r3, r2, [sp, #4]
 504 0176 CDE90300 		strd	r0, r0, [sp, #12]
 505 017a 0090     		str	r0, [sp]
 506 017c 0346     		mov	r3, r0
 507 017e 0246     		mov	r2, r0
 508 0180 0146     		mov	r1, r0
 509 0182 2846     		mov	r0, r5
 510              	.LVL51:
 766:D:/fchai/work/i-cube/I-CUBE-HUAWEI/Middlewares/Third_Party/Huawei/iot_link/network/dtls/mbedtls/mbedtls-2.16.2/library\pkparse.c ****                                         NULL, 0, NULL, 0 ) ) != 0 )
 511              		.loc 1 766 17 view .LVU139
 512 0184 FFF7FEFF 		bl	mbedtls_rsa_import_raw
 513              	.LVL52:
 765:D:/fchai/work/i-cube/I-CUBE-HUAWEI/Middlewares/Third_Party/Huawei/iot_link/network/dtls/mbedtls/mbedtls-2.16.2/library\pkparse.c ****         ( ret = mbedtls_rsa_import_raw( rsa, NULL, 0, NULL, 0, p, len,
 514              		.loc 1 765 69 view .LVU140
 515 0188 0446     		mov	r4, r0
 516 018a 0028     		cmp	r0, #0
 517 018c 7FF464AF 		bne	.L19
 769:D:/fchai/work/i-cube/I-CUBE-HUAWEI/Middlewares/Third_Party/Huawei/iot_link/network/dtls/mbedtls/mbedtls-2.16.2/library\pkparse.c **** 
ARM GAS  T:\msys\tmp\cc83OHoG.s 			page 26


 518              		.loc 1 769 5 is_stmt 1 view .LVU141
 769:D:/fchai/work/i-cube/I-CUBE-HUAWEI/Middlewares/Third_Party/Huawei/iot_link/network/dtls/mbedtls/mbedtls-2.16.2/library\pkparse.c **** 
 519              		.loc 1 769 7 is_stmt 0 view .LVU142
 520 0190 DDE90923 		ldrd	r2, r3, [sp, #36]
 772:D:/fchai/work/i-cube/I-CUBE-HUAWEI/Middlewares/Third_Party/Huawei/iot_link/network/dtls/mbedtls/mbedtls-2.16.2/library\pkparse.c ****         goto cleanup;
 521              		.loc 1 772 17 view .LVU143
 522 0194 2846     		mov	r0, r5
 523              	.LVL53:
 769:D:/fchai/work/i-cube/I-CUBE-HUAWEI/Middlewares/Third_Party/Huawei/iot_link/network/dtls/mbedtls/mbedtls-2.16.2/library\pkparse.c **** 
 524              		.loc 1 769 7 view .LVU144
 525 0196 1344     		add	r3, r3, r2
 526 0198 0A93     		str	r3, [sp, #40]
 772:D:/fchai/work/i-cube/I-CUBE-HUAWEI/Middlewares/Third_Party/Huawei/iot_link/network/dtls/mbedtls/mbedtls-2.16.2/library\pkparse.c ****         goto cleanup;
 527              		.loc 1 772 5 is_stmt 1 view .LVU145
 772:D:/fchai/work/i-cube/I-CUBE-HUAWEI/Middlewares/Third_Party/Huawei/iot_link/network/dtls/mbedtls/mbedtls-2.16.2/library\pkparse.c ****         goto cleanup;
 528              		.loc 1 772 17 is_stmt 0 view .LVU146
 529 019a FFF7FEFF 		bl	mbedtls_rsa_complete
 530              	.LVL54:
 772:D:/fchai/work/i-cube/I-CUBE-HUAWEI/Middlewares/Third_Party/Huawei/iot_link/network/dtls/mbedtls/mbedtls-2.16.2/library\pkparse.c ****         goto cleanup;
 531              		.loc 1 772 7 view .LVU147
 532 019e 0446     		mov	r4, r0
 533 01a0 0028     		cmp	r0, #0
 534 01a2 7FF459AF 		bne	.L19
 776:D:/fchai/work/i-cube/I-CUBE-HUAWEI/Middlewares/Third_Party/Huawei/iot_link/network/dtls/mbedtls/mbedtls-2.16.2/library\pkparse.c ****         ( ret = mbedtls_asn1_get_mpi( &p, end, &T ) ) != 0 ||
 535              		.loc 1 776 5 is_stmt 1 view .LVU148
 776:D:/fchai/work/i-cube/I-CUBE-HUAWEI/Middlewares/Third_Party/Huawei/iot_link/network/dtls/mbedtls/mbedtls-2.16.2/library\pkparse.c ****         ( ret = mbedtls_asn1_get_mpi( &p, end, &T ) ) != 0 ||
 536              		.loc 1 776 17 is_stmt 0 view .LVU149
 537 01a6 0BAA     		add	r2, sp, #44
 538 01a8 3146     		mov	r1, r6
 539 01aa 0AA8     		add	r0, sp, #40
 540              	.LVL55:
 776:D:/fchai/work/i-cube/I-CUBE-HUAWEI/Middlewares/Third_Party/Huawei/iot_link/network/dtls/mbedtls/mbedtls-2.16.2/library\pkparse.c ****         ( ret = mbedtls_asn1_get_mpi( &p, end, &T ) ) != 0 ||
 541              		.loc 1 776 17 view .LVU150
 542 01ac FFF7FEFF 		bl	mbedtls_asn1_get_mpi
 543              	.LVL56:
 776:D:/fchai/work/i-cube/I-CUBE-HUAWEI/Middlewares/Third_Party/Huawei/iot_link/network/dtls/mbedtls/mbedtls-2.16.2/library\pkparse.c ****         ( ret = mbedtls_asn1_get_mpi( &p, end, &T ) ) != 0 ||
 544              		.loc 1 776 7 view .LVU151
 545 01b0 0446     		mov	r4, r0
 546 01b2 0028     		cmp	r0, #0
 547 01b4 7FF450AF 		bne	.L19
 777:D:/fchai/work/i-cube/I-CUBE-HUAWEI/Middlewares/Third_Party/Huawei/iot_link/network/dtls/mbedtls/mbedtls-2.16.2/library\pkparse.c ****         ( ret = mbedtls_asn1_get_mpi( &p, end, &T ) ) != 0 )
 548              		.loc 1 777 17 discriminator 1 view .LVU152
 549 01b8 0BAA     		add	r2, sp, #44
 550 01ba 3146     		mov	r1, r6
 551 01bc 0AA8     		add	r0, sp, #40
 552              	.LVL57:
 777:D:/fchai/work/i-cube/I-CUBE-HUAWEI/Middlewares/Third_Party/Huawei/iot_link/network/dtls/mbedtls/mbedtls-2.16.2/library\pkparse.c ****         ( ret = mbedtls_asn1_get_mpi( &p, end, &T ) ) != 0 )
 553              		.loc 1 777 17 discriminator 1 view .LVU153
 554 01be FFF7FEFF 		bl	mbedtls_asn1_get_mpi
 555              	.LVL58:
 776:D:/fchai/work/i-cube/I-CUBE-HUAWEI/Middlewares/Third_Party/Huawei/iot_link/network/dtls/mbedtls/mbedtls-2.16.2/library\pkparse.c ****         ( ret = mbedtls_asn1_get_mpi( &p, end, &T ) ) != 0 ||
 556              		.loc 1 776 60 discriminator 1 view .LVU154
 557 01c2 0446     		mov	r4, r0
 558 01c4 0028     		cmp	r0, #0
 559 01c6 7FF447AF 		bne	.L19
 778:D:/fchai/work/i-cube/I-CUBE-HUAWEI/Middlewares/Third_Party/Huawei/iot_link/network/dtls/mbedtls/mbedtls-2.16.2/library\pkparse.c ****         goto cleanup;
 560              		.loc 1 778 17 view .LVU155
ARM GAS  T:\msys\tmp\cc83OHoG.s 			page 27


 561 01ca 0AA8     		add	r0, sp, #40
 562              	.LVL59:
 778:D:/fchai/work/i-cube/I-CUBE-HUAWEI/Middlewares/Third_Party/Huawei/iot_link/network/dtls/mbedtls/mbedtls-2.16.2/library\pkparse.c ****         goto cleanup;
 563              		.loc 1 778 17 view .LVU156
 564 01cc 0BAA     		add	r2, sp, #44
 565 01ce 3146     		mov	r1, r6
 566 01d0 FFF7FEFF 		bl	mbedtls_asn1_get_mpi
 567              	.LVL60:
 777:D:/fchai/work/i-cube/I-CUBE-HUAWEI/Middlewares/Third_Party/Huawei/iot_link/network/dtls/mbedtls/mbedtls-2.16.2/library\pkparse.c ****         ( ret = mbedtls_asn1_get_mpi( &p, end, &T ) ) != 0 )
 568              		.loc 1 777 60 view .LVU157
 569 01d4 0446     		mov	r4, r0
 570 01d6 0028     		cmp	r0, #0
 571 01d8 7FF43EAF 		bne	.L19
 781:D:/fchai/work/i-cube/I-CUBE-HUAWEI/Middlewares/Third_Party/Huawei/iot_link/network/dtls/mbedtls/mbedtls-2.16.2/library\pkparse.c ****     {
 572              		.loc 1 781 5 is_stmt 1 view .LVU158
 781:D:/fchai/work/i-cube/I-CUBE-HUAWEI/Middlewares/Third_Party/Huawei/iot_link/network/dtls/mbedtls/mbedtls-2.16.2/library\pkparse.c ****     {
 573              		.loc 1 781 7 is_stmt 0 view .LVU159
 574 01dc 0A9B     		ldr	r3, [sp, #40]
 575 01de B342     		cmp	r3, r6
 789:D:/fchai/work/i-cube/I-CUBE-HUAWEI/Middlewares/Third_Party/Huawei/iot_link/network/dtls/mbedtls/mbedtls-2.16.2/library\pkparse.c **** 
 576              		.loc 1 789 5 view .LVU160
 577 01e0 0BA8     		add	r0, sp, #44
 578              	.LVL61:
 781:D:/fchai/work/i-cube/I-CUBE-HUAWEI/Middlewares/Third_Party/Huawei/iot_link/network/dtls/mbedtls/mbedtls-2.16.2/library\pkparse.c ****     {
 579              		.loc 1 781 7 view .LVU161
 580 01e2 0DD0     		beq	.L27
 783:D:/fchai/work/i-cube/I-CUBE-HUAWEI/Middlewares/Third_Party/Huawei/iot_link/network/dtls/mbedtls/mbedtls-2.16.2/library\pkparse.c ****               MBEDTLS_ERR_ASN1_LENGTH_MISMATCH ;
 581              		.loc 1 783 9 is_stmt 1 view .LVU162
 582              	.LVL62:
 789:D:/fchai/work/i-cube/I-CUBE-HUAWEI/Middlewares/Third_Party/Huawei/iot_link/network/dtls/mbedtls/mbedtls-2.16.2/library\pkparse.c **** 
 583              		.loc 1 789 5 view .LVU163
 584 01e4 FFF7FEFF 		bl	mbedtls_mpi_free
 585              	.LVL63:
 791:D:/fchai/work/i-cube/I-CUBE-HUAWEI/Middlewares/Third_Party/Huawei/iot_link/network/dtls/mbedtls/mbedtls-2.16.2/library\pkparse.c ****     {
 586              		.loc 1 791 5 view .LVU164
 794:D:/fchai/work/i-cube/I-CUBE-HUAWEI/Middlewares/Third_Party/Huawei/iot_link/network/dtls/mbedtls/mbedtls-2.16.2/library\pkparse.c ****             ret = MBEDTLS_ERR_PK_KEY_INVALID_FORMAT + ret;
 587              		.loc 1 794 9 view .LVU165
 797:D:/fchai/work/i-cube/I-CUBE-HUAWEI/Middlewares/Third_Party/Huawei/iot_link/network/dtls/mbedtls/mbedtls-2.16.2/library\pkparse.c **** 
 588              		.loc 1 797 17 is_stmt 0 view .LVU166
 589 01e8 074C     		ldr	r4, .L28
 590 01ea 3EE7     		b	.L21
 591              	.LVL64:
 592              	.L25:
 723:D:/fchai/work/i-cube/I-CUBE-HUAWEI/Middlewares/Third_Party/Huawei/iot_link/network/dtls/mbedtls/mbedtls-2.16.2/library\pkparse.c ****     }
 593              		.loc 1 723 9 is_stmt 1 view .LVU167
 723:D:/fchai/work/i-cube/I-CUBE-HUAWEI/Middlewares/Third_Party/Huawei/iot_link/network/dtls/mbedtls/mbedtls-2.16.2/library\pkparse.c ****     }
 594              		.loc 1 723 51 is_stmt 0 view .LVU168
 595 01ec A0F57454 		sub	r4, r0, #15616
 596              	.LVL65:
 597              		.loc 1 803 1 view .LVU169
 598 01f0 2046     		mov	r0, r4
 599              	.LVL66:
 600              		.loc 1 803 1 view .LVU170
 601 01f2 0EB0     		add	sp, sp, #56
 602              	.LCFI10:
 603              		.cfi_remember_state
 604              		.cfi_def_cfa_offset 16
ARM GAS  T:\msys\tmp\cc83OHoG.s 			page 28


 605              		@ sp needed
 606 01f4 70BD     		pop	{r4, r5, r6, pc}
 607              	.LVL67:
 608              	.L22:
 609              	.LCFI11:
 610              		.cfi_restore_state
 795:D:/fchai/work/i-cube/I-CUBE-HUAWEI/Middlewares/Third_Party/Huawei/iot_link/network/dtls/mbedtls/mbedtls-2.16.2/library\pkparse.c ****         else
 611              		.loc 1 795 13 is_stmt 1 view .LVU171
 795:D:/fchai/work/i-cube/I-CUBE-HUAWEI/Middlewares/Third_Party/Huawei/iot_link/network/dtls/mbedtls/mbedtls-2.16.2/library\pkparse.c ****         else
 612              		.loc 1 795 17 is_stmt 0 view .LVU172
 613 01f6 A4F57454 		sub	r4, r4, #15616
 614              	.LVL68:
 795:D:/fchai/work/i-cube/I-CUBE-HUAWEI/Middlewares/Third_Party/Huawei/iot_link/network/dtls/mbedtls/mbedtls-2.16.2/library\pkparse.c ****         else
 615              		.loc 1 795 17 view .LVU173
 616 01fa 36E7     		b	.L21
 617              	.LVL69:
 618              	.L23:
 728:D:/fchai/work/i-cube/I-CUBE-HUAWEI/Middlewares/Third_Party/Huawei/iot_link/network/dtls/mbedtls/mbedtls-2.16.2/library\pkparse.c ****     }
 619              		.loc 1 728 15 view .LVU174
 620 01fc 034C     		ldr	r4, .L28+4
 621              	.LVL70:
 728:D:/fchai/work/i-cube/I-CUBE-HUAWEI/Middlewares/Third_Party/Huawei/iot_link/network/dtls/mbedtls/mbedtls-2.16.2/library\pkparse.c ****     }
 622              		.loc 1 728 15 view .LVU175
 623 01fe 11E7     		b	.L15
 624              	.LVL71:
 625              	.L27:
 789:D:/fchai/work/i-cube/I-CUBE-HUAWEI/Middlewares/Third_Party/Huawei/iot_link/network/dtls/mbedtls/mbedtls-2.16.2/library\pkparse.c **** 
 626              		.loc 1 789 5 is_stmt 1 view .LVU176
 627 0200 FFF7FEFF 		bl	mbedtls_mpi_free
 628              	.LVL72:
 791:D:/fchai/work/i-cube/I-CUBE-HUAWEI/Middlewares/Third_Party/Huawei/iot_link/network/dtls/mbedtls/mbedtls-2.16.2/library\pkparse.c ****     {
 629              		.loc 1 791 5 view .LVU177
 630 0204 0EE7     		b	.L15
 631              	.L29:
 632 0206 00BF     		.align	2
 633              	.L28:
 634 0208 00C3FFFF 		.word	-15616
 635 020c 80C2FFFF 		.word	-15744
 636              		.cfi_endproc
 637              	.LFE22:
 639              		.section	.text.pk_get_pk_alg,"ax",%progbits
 640              		.align	1
 641              		.p2align 2,,3
 642              		.syntax unified
 643              		.thumb
 644              		.thumb_func
 645              		.fpu fpv4-sp-d16
 647              	pk_get_pk_alg:
 648              	.LVL73:
 649              	.LFB20:
 585:D:/fchai/work/i-cube/I-CUBE-HUAWEI/Middlewares/Third_Party/Huawei/iot_link/network/dtls/mbedtls/mbedtls-2.16.2/library\pkparse.c ****     int ret;
 650              		.loc 1 585 1 view -0
 651              		.cfi_startproc
 652              		@ args = 0, pretend = 0, frame = 16
 653              		@ frame_needed = 0, uses_anonymous_args = 0
 586:D:/fchai/work/i-cube/I-CUBE-HUAWEI/Middlewares/Third_Party/Huawei/iot_link/network/dtls/mbedtls/mbedtls-2.16.2/library\pkparse.c ****     mbedtls_asn1_buf alg_oid;
 654              		.loc 1 586 5 view .LVU179
ARM GAS  T:\msys\tmp\cc83OHoG.s 			page 29


 587:D:/fchai/work/i-cube/I-CUBE-HUAWEI/Middlewares/Third_Party/Huawei/iot_link/network/dtls/mbedtls/mbedtls-2.16.2/library\pkparse.c **** 
 655              		.loc 1 587 5 view .LVU180
 589:D:/fchai/work/i-cube/I-CUBE-HUAWEI/Middlewares/Third_Party/Huawei/iot_link/network/dtls/mbedtls/mbedtls-2.16.2/library\pkparse.c **** 
 656              		.loc 1 589 5 view .LVU181
 585:D:/fchai/work/i-cube/I-CUBE-HUAWEI/Middlewares/Third_Party/Huawei/iot_link/network/dtls/mbedtls/mbedtls-2.16.2/library\pkparse.c ****     int ret;
 657              		.loc 1 585 1 is_stmt 0 view .LVU182
 658 0000 70B5     		push	{r4, r5, r6, lr}
 659              	.LCFI12:
 660              		.cfi_def_cfa_offset 16
 661              		.cfi_offset 4, -16
 662              		.cfi_offset 5, -12
 663              		.cfi_offset 6, -8
 664              		.cfi_offset 14, -4
 589:D:/fchai/work/i-cube/I-CUBE-HUAWEI/Middlewares/Third_Party/Huawei/iot_link/network/dtls/mbedtls/mbedtls-2.16.2/library\pkparse.c **** 
 665              		.loc 1 589 5 view .LVU183
 666 0002 0025     		movs	r5, #0
 585:D:/fchai/work/i-cube/I-CUBE-HUAWEI/Middlewares/Third_Party/Huawei/iot_link/network/dtls/mbedtls/mbedtls-2.16.2/library\pkparse.c ****     int ret;
 667              		.loc 1 585 1 view .LVU184
 668 0004 84B0     		sub	sp, sp, #16
 669              	.LCFI13:
 670              		.cfi_def_cfa_offset 32
 585:D:/fchai/work/i-cube/I-CUBE-HUAWEI/Middlewares/Third_Party/Huawei/iot_link/network/dtls/mbedtls/mbedtls-2.16.2/library\pkparse.c ****     int ret;
 671              		.loc 1 585 1 view .LVU185
 672 0006 1646     		mov	r6, r2
 589:D:/fchai/work/i-cube/I-CUBE-HUAWEI/Middlewares/Third_Party/Huawei/iot_link/network/dtls/mbedtls/mbedtls-2.16.2/library\pkparse.c **** 
 673              		.loc 1 589 5 view .LVU186
 674 0008 C3E90055 		strd	r5, r5, [r3]
 675 000c 9D60     		str	r5, [r3, #8]
 591:D:/fchai/work/i-cube/I-CUBE-HUAWEI/Middlewares/Third_Party/Huawei/iot_link/network/dtls/mbedtls/mbedtls-2.16.2/library\pkparse.c ****         return( MBEDTLS_ERR_PK_INVALID_ALG + ret );
 676              		.loc 1 591 5 is_stmt 1 view .LVU187
 591:D:/fchai/work/i-cube/I-CUBE-HUAWEI/Middlewares/Third_Party/Huawei/iot_link/network/dtls/mbedtls/mbedtls-2.16.2/library\pkparse.c ****         return( MBEDTLS_ERR_PK_INVALID_ALG + ret );
 677              		.loc 1 591 17 is_stmt 0 view .LVU188
 678 000e 01AA     		add	r2, sp, #4
 679              	.LVL74:
 585:D:/fchai/work/i-cube/I-CUBE-HUAWEI/Middlewares/Third_Party/Huawei/iot_link/network/dtls/mbedtls/mbedtls-2.16.2/library\pkparse.c ****     int ret;
 680              		.loc 1 585 1 view .LVU189
 681 0010 1C46     		mov	r4, r3
 591:D:/fchai/work/i-cube/I-CUBE-HUAWEI/Middlewares/Third_Party/Huawei/iot_link/network/dtls/mbedtls/mbedtls-2.16.2/library\pkparse.c ****         return( MBEDTLS_ERR_PK_INVALID_ALG + ret );
 682              		.loc 1 591 17 view .LVU190
 683 0012 FFF7FEFF 		bl	mbedtls_asn1_get_alg
 684              	.LVL75:
 591:D:/fchai/work/i-cube/I-CUBE-HUAWEI/Middlewares/Third_Party/Huawei/iot_link/network/dtls/mbedtls/mbedtls-2.16.2/library\pkparse.c ****         return( MBEDTLS_ERR_PK_INVALID_ALG + ret );
 685              		.loc 1 591 7 view .LVU191
 686 0016 18B1     		cbz	r0, .L31
 592:D:/fchai/work/i-cube/I-CUBE-HUAWEI/Middlewares/Third_Party/Huawei/iot_link/network/dtls/mbedtls/mbedtls-2.16.2/library\pkparse.c **** 
 687              		.loc 1 592 9 is_stmt 1 view .LVU192
 592:D:/fchai/work/i-cube/I-CUBE-HUAWEI/Middlewares/Third_Party/Huawei/iot_link/network/dtls/mbedtls/mbedtls-2.16.2/library\pkparse.c **** 
 688              		.loc 1 592 44 is_stmt 0 view .LVU193
 689 0018 A0F56A50 		sub	r0, r0, #14976
 690              	.LVL76:
 691              	.L30:
 608:D:/fchai/work/i-cube/I-CUBE-HUAWEI/Middlewares/Third_Party/Huawei/iot_link/network/dtls/mbedtls/mbedtls-2.16.2/library\pkparse.c **** 
 692              		.loc 1 608 1 view .LVU194
 693 001c 04B0     		add	sp, sp, #16
 694              	.LCFI14:
 695              		.cfi_remember_state
 696              		.cfi_def_cfa_offset 16
ARM GAS  T:\msys\tmp\cc83OHoG.s 			page 30


 697              		@ sp needed
 698 001e 70BD     		pop	{r4, r5, r6, pc}
 699              	.LVL77:
 700              	.L31:
 701              	.LCFI15:
 702              		.cfi_restore_state
 594:D:/fchai/work/i-cube/I-CUBE-HUAWEI/Middlewares/Third_Party/Huawei/iot_link/network/dtls/mbedtls/mbedtls-2.16.2/library\pkparse.c ****         return( MBEDTLS_ERR_PK_UNKNOWN_PK_ALG );
 703              		.loc 1 594 5 is_stmt 1 view .LVU195
 594:D:/fchai/work/i-cube/I-CUBE-HUAWEI/Middlewares/Third_Party/Huawei/iot_link/network/dtls/mbedtls/mbedtls-2.16.2/library\pkparse.c ****         return( MBEDTLS_ERR_PK_UNKNOWN_PK_ALG );
 704              		.loc 1 594 9 is_stmt 0 view .LVU196
 705 0020 01A8     		add	r0, sp, #4
 706              	.LVL78:
 594:D:/fchai/work/i-cube/I-CUBE-HUAWEI/Middlewares/Third_Party/Huawei/iot_link/network/dtls/mbedtls/mbedtls-2.16.2/library\pkparse.c ****         return( MBEDTLS_ERR_PK_UNKNOWN_PK_ALG );
 707              		.loc 1 594 9 view .LVU197
 708 0022 3146     		mov	r1, r6
 709 0024 FFF7FEFF 		bl	mbedtls_oid_get_pk_alg
 710              	.LVL79:
 594:D:/fchai/work/i-cube/I-CUBE-HUAWEI/Middlewares/Third_Party/Huawei/iot_link/network/dtls/mbedtls/mbedtls-2.16.2/library\pkparse.c ****         return( MBEDTLS_ERR_PK_UNKNOWN_PK_ALG );
 711              		.loc 1 594 7 view .LVU198
 712 0028 68B9     		cbnz	r0, .L34
 600:D:/fchai/work/i-cube/I-CUBE-HUAWEI/Middlewares/Third_Party/Huawei/iot_link/network/dtls/mbedtls/mbedtls-2.16.2/library\pkparse.c ****             ( ( params->tag != MBEDTLS_ASN1_NULL && params->tag != 0 ) ||
 713              		.loc 1 600 5 is_stmt 1 view .LVU199
 600:D:/fchai/work/i-cube/I-CUBE-HUAWEI/Middlewares/Third_Party/Huawei/iot_link/network/dtls/mbedtls/mbedtls-2.16.2/library\pkparse.c ****             ( ( params->tag != MBEDTLS_ASN1_NULL && params->tag != 0 ) ||
 714              		.loc 1 600 7 is_stmt 0 view .LVU200
 715 002a 3378     		ldrb	r3, [r6]	@ zero_extendqisi2
 716 002c 012B     		cmp	r3, #1
 717 002e F5D1     		bne	.L30
 718              	.LVL80:
 719              	.LBB29:
 720              	.LBI29:
 582:D:/fchai/work/i-cube/I-CUBE-HUAWEI/Middlewares/Third_Party/Huawei/iot_link/network/dtls/mbedtls/mbedtls-2.16.2/library\pkparse.c ****                           const unsigned char *end,
 721              		.loc 1 582 12 is_stmt 1 view .LVU201
 722              	.LBB30:
 601:D:/fchai/work/i-cube/I-CUBE-HUAWEI/Middlewares/Third_Party/Huawei/iot_link/network/dtls/mbedtls/mbedtls-2.16.2/library\pkparse.c ****                 params->len != 0 ) )
 723              		.loc 1 601 23 is_stmt 0 view .LVU202
 724 0030 2368     		ldr	r3, [r4]
 600:D:/fchai/work/i-cube/I-CUBE-HUAWEI/Middlewares/Third_Party/Huawei/iot_link/network/dtls/mbedtls/mbedtls-2.16.2/library\pkparse.c ****             ( ( params->tag != MBEDTLS_ASN1_NULL && params->tag != 0 ) ||
 725              		.loc 1 600 35 view .LVU203
 726 0032 052B     		cmp	r3, #5
 727 0034 00D0     		beq	.L33
 601:D:/fchai/work/i-cube/I-CUBE-HUAWEI/Middlewares/Third_Party/Huawei/iot_link/network/dtls/mbedtls/mbedtls-2.16.2/library\pkparse.c ****                 params->len != 0 ) )
 728              		.loc 1 601 50 view .LVU204
 729 0036 43B9     		cbnz	r3, .L35
 730              	.L33:
 601:D:/fchai/work/i-cube/I-CUBE-HUAWEI/Middlewares/Third_Party/Huawei/iot_link/network/dtls/mbedtls/mbedtls-2.16.2/library\pkparse.c ****                 params->len != 0 ) )
 731              		.loc 1 601 72 view .LVU205
 732 0038 6268     		ldr	r2, [r4, #4]
 604:D:/fchai/work/i-cube/I-CUBE-HUAWEI/Middlewares/Third_Party/Huawei/iot_link/network/dtls/mbedtls/mbedtls-2.16.2/library\pkparse.c ****     }
 733              		.loc 1 604 15 view .LVU206
 734 003a 054B     		ldr	r3, .L42
 735 003c 002A     		cmp	r2, #0
 736 003e 18BF     		it	ne
 737 0040 1846     		movne	r0, r3
 738              	.LBE30:
 739              	.LBE29:
 608:D:/fchai/work/i-cube/I-CUBE-HUAWEI/Middlewares/Third_Party/Huawei/iot_link/network/dtls/mbedtls/mbedtls-2.16.2/library\pkparse.c **** 
 740              		.loc 1 608 1 view .LVU207
ARM GAS  T:\msys\tmp\cc83OHoG.s 			page 31


 741 0042 04B0     		add	sp, sp, #16
 742              	.LCFI16:
 743              		.cfi_remember_state
 744              		.cfi_def_cfa_offset 16
 745              		@ sp needed
 746 0044 70BD     		pop	{r4, r5, r6, pc}
 747              	.LVL81:
 748              	.L34:
 749              	.LCFI17:
 750              		.cfi_restore_state
 595:D:/fchai/work/i-cube/I-CUBE-HUAWEI/Middlewares/Third_Party/Huawei/iot_link/network/dtls/mbedtls/mbedtls-2.16.2/library\pkparse.c **** 
 751              		.loc 1 595 15 view .LVU208
 752 0046 0348     		ldr	r0, .L42+4
 753 0048 E8E7     		b	.L30
 754              	.LVL82:
 755              	.L35:
 756              	.LBB32:
 757              	.LBB31:
 604:D:/fchai/work/i-cube/I-CUBE-HUAWEI/Middlewares/Third_Party/Huawei/iot_link/network/dtls/mbedtls/mbedtls-2.16.2/library\pkparse.c ****     }
 758              		.loc 1 604 15 view .LVU209
 759 004a 0148     		ldr	r0, .L42
 760              	.LVL83:
 604:D:/fchai/work/i-cube/I-CUBE-HUAWEI/Middlewares/Third_Party/Huawei/iot_link/network/dtls/mbedtls/mbedtls-2.16.2/library\pkparse.c ****     }
 761              		.loc 1 604 15 view .LVU210
 762 004c E6E7     		b	.L30
 763              	.L43:
 764 004e 00BF     		.align	2
 765              	.L42:
 766 0050 80C5FFFF 		.word	-14976
 767 0054 80C3FFFF 		.word	-15488
 768              	.LBE31:
 769              	.LBE32:
 770              		.cfi_endproc
 771              	.LFE20:
 773              		.section	.rodata.pk_use_ecparams.str1.4,"aMS",%progbits,1
 774              		.align	2
 775              	.LC0:
 776 0000 2A8648CE 		.ascii	"*\206H\316=\001\001\000"
 776      3D010100 
 777              		.section	.text.pk_use_ecparams,"ax",%progbits
 778              		.align	1
 779              		.p2align 2,,3
 780              		.syntax unified
 781              		.thumb
 782              		.thumb_func
 783              		.fpu fpv4-sp-d16
 785              	pk_use_ecparams:
 786              	.LVL84:
 787              	.LFB17:
 462:D:/fchai/work/i-cube/I-CUBE-HUAWEI/Middlewares/Third_Party/Huawei/iot_link/network/dtls/mbedtls/mbedtls-2.16.2/library\pkparse.c ****     int ret;
 788              		.loc 1 462 1 is_stmt 1 view -0
 789              		.cfi_startproc
 790              		@ args = 0, pretend = 0, frame = 264
 791              		@ frame_needed = 0, uses_anonymous_args = 0
 463:D:/fchai/work/i-cube/I-CUBE-HUAWEI/Middlewares/Third_Party/Huawei/iot_link/network/dtls/mbedtls/mbedtls-2.16.2/library\pkparse.c ****     mbedtls_ecp_group_id grp_id;
 792              		.loc 1 463 5 view .LVU212
 464:D:/fchai/work/i-cube/I-CUBE-HUAWEI/Middlewares/Third_Party/Huawei/iot_link/network/dtls/mbedtls/mbedtls-2.16.2/library\pkparse.c **** 
ARM GAS  T:\msys\tmp\cc83OHoG.s 			page 32


 793              		.loc 1 464 5 view .LVU213
 466:D:/fchai/work/i-cube/I-CUBE-HUAWEI/Middlewares/Third_Party/Huawei/iot_link/network/dtls/mbedtls/mbedtls-2.16.2/library\pkparse.c ****     {
 794              		.loc 1 466 5 view .LVU214
 462:D:/fchai/work/i-cube/I-CUBE-HUAWEI/Middlewares/Third_Party/Huawei/iot_link/network/dtls/mbedtls/mbedtls-2.16.2/library\pkparse.c ****     int ret;
 795              		.loc 1 462 1 is_stmt 0 view .LVU215
 796 0000 F0B5     		push	{r4, r5, r6, r7, lr}
 797              	.LCFI18:
 798              		.cfi_def_cfa_offset 20
 799              		.cfi_offset 4, -20
 800              		.cfi_offset 5, -16
 801              		.cfi_offset 6, -12
 802              		.cfi_offset 7, -8
 803              		.cfi_offset 14, -4
 466:D:/fchai/work/i-cube/I-CUBE-HUAWEI/Middlewares/Third_Party/Huawei/iot_link/network/dtls/mbedtls/mbedtls-2.16.2/library\pkparse.c ****     {
 804              		.loc 1 466 7 view .LVU216
 805 0002 0368     		ldr	r3, [r0]
 806 0004 062B     		cmp	r3, #6
 462:D:/fchai/work/i-cube/I-CUBE-HUAWEI/Middlewares/Third_Party/Huawei/iot_link/network/dtls/mbedtls/mbedtls-2.16.2/library\pkparse.c ****     int ret;
 807              		.loc 1 462 1 view .LVU217
 808 0006 C3B0     		sub	sp, sp, #268
 809              	.LCFI19:
 810              		.cfi_def_cfa_offset 288
 462:D:/fchai/work/i-cube/I-CUBE-HUAWEI/Middlewares/Third_Party/Huawei/iot_link/network/dtls/mbedtls/mbedtls-2.16.2/library\pkparse.c ****     int ret;
 811              		.loc 1 462 1 view .LVU218
 812 0008 0D46     		mov	r5, r1
 466:D:/fchai/work/i-cube/I-CUBE-HUAWEI/Middlewares/Third_Party/Huawei/iot_link/network/dtls/mbedtls/mbedtls-2.16.2/library\pkparse.c ****     {
 813              		.loc 1 466 7 view .LVU219
 814 000a 00F0B380 		beq	.L92
 474:D:/fchai/work/i-cube/I-CUBE-HUAWEI/Middlewares/Third_Party/Huawei/iot_link/network/dtls/mbedtls/mbedtls-2.16.2/library\pkparse.c ****             return( ret );
 815              		.loc 1 474 9 is_stmt 1 view .LVU220
 816              	.LVL85:
 817              	.LBB39:
 818              	.LBI39:
 433:D:/fchai/work/i-cube/I-CUBE-HUAWEI/Middlewares/Third_Party/Huawei/iot_link/network/dtls/mbedtls/mbedtls-2.16.2/library\pkparse.c ****                                        mbedtls_ecp_group_id *grp_id )
 819              		.loc 1 433 12 view .LVU221
 820              	.LBB40:
 436:D:/fchai/work/i-cube/I-CUBE-HUAWEI/Middlewares/Third_Party/Huawei/iot_link/network/dtls/mbedtls/mbedtls-2.16.2/library\pkparse.c ****     mbedtls_ecp_group grp;
 821              		.loc 1 436 5 view .LVU222
 437:D:/fchai/work/i-cube/I-CUBE-HUAWEI/Middlewares/Third_Party/Huawei/iot_link/network/dtls/mbedtls/mbedtls-2.16.2/library\pkparse.c **** 
 822              		.loc 1 437 5 view .LVU223
 439:D:/fchai/work/i-cube/I-CUBE-HUAWEI/Middlewares/Third_Party/Huawei/iot_link/network/dtls/mbedtls/mbedtls-2.16.2/library\pkparse.c **** 
 823              		.loc 1 439 5 view .LVU224
 824 000e 0446     		mov	r4, r0
 825 0010 04A8     		add	r0, sp, #16
 826              	.LVL86:
 439:D:/fchai/work/i-cube/I-CUBE-HUAWEI/Middlewares/Third_Party/Huawei/iot_link/network/dtls/mbedtls/mbedtls-2.16.2/library\pkparse.c **** 
 827              		.loc 1 439 5 is_stmt 0 view .LVU225
 828 0012 FFF7FEFF 		bl	mbedtls_ecp_group_init
 829              	.LVL87:
 441:D:/fchai/work/i-cube/I-CUBE-HUAWEI/Middlewares/Third_Party/Huawei/iot_link/network/dtls/mbedtls/mbedtls-2.16.2/library\pkparse.c ****         goto cleanup;
 830              		.loc 1 441 5 is_stmt 1 view .LVU226
 441:D:/fchai/work/i-cube/I-CUBE-HUAWEI/Middlewares/Third_Party/Huawei/iot_link/network/dtls/mbedtls/mbedtls-2.16.2/library\pkparse.c ****         goto cleanup;
 831              		.loc 1 441 17 is_stmt 0 view .LVU227
 832 0016 D4E90163 		ldrd	r6, r3, [r4, #4]
 833              	.LVL88:
 834              	.LBB41:
 835              	.LBI41:
ARM GAS  T:\msys\tmp\cc83OHoG.s 			page 33


 244:D:/fchai/work/i-cube/I-CUBE-HUAWEI/Middlewares/Third_Party/Huawei/iot_link/network/dtls/mbedtls/mbedtls-2.16.2/library\pkparse.c **** {
 836              		.loc 1 244 12 is_stmt 1 view .LVU228
 837              	.LBB42:
 246:D:/fchai/work/i-cube/I-CUBE-HUAWEI/Middlewares/Third_Party/Huawei/iot_link/network/dtls/mbedtls/mbedtls-2.16.2/library\pkparse.c ****     unsigned char *p = params->p;
 838              		.loc 1 246 5 view .LVU229
 247:D:/fchai/work/i-cube/I-CUBE-HUAWEI/Middlewares/Third_Party/Huawei/iot_link/network/dtls/mbedtls/mbedtls-2.16.2/library\pkparse.c ****     const unsigned char * const end = params->p + params->len;
 839              		.loc 1 247 5 view .LVU230
 248:D:/fchai/work/i-cube/I-CUBE-HUAWEI/Middlewares/Third_Party/Huawei/iot_link/network/dtls/mbedtls/mbedtls-2.16.2/library\pkparse.c ****     const unsigned char *end_field, *end_curve;
 840              		.loc 1 248 33 is_stmt 0 view .LVU231
 841 001a 1E44     		add	r6, r6, r3
 254:D:/fchai/work/i-cube/I-CUBE-HUAWEI/Middlewares/Third_Party/Huawei/iot_link/network/dtls/mbedtls/mbedtls-2.16.2/library\pkparse.c ****         return( MBEDTLS_ERR_PK_KEY_INVALID_FORMAT + ret );
 842              		.loc 1 254 17 view .LVU232
 843 001c 3146     		mov	r1, r6
 844 001e 02A8     		add	r0, sp, #8
 845 0020 23AA     		add	r2, sp, #140
 247:D:/fchai/work/i-cube/I-CUBE-HUAWEI/Middlewares/Third_Party/Huawei/iot_link/network/dtls/mbedtls/mbedtls-2.16.2/library\pkparse.c ****     const unsigned char * const end = params->p + params->len;
 846              		.loc 1 247 20 view .LVU233
 847 0022 0293     		str	r3, [sp, #8]
 248:D:/fchai/work/i-cube/I-CUBE-HUAWEI/Middlewares/Third_Party/Huawei/iot_link/network/dtls/mbedtls/mbedtls-2.16.2/library\pkparse.c ****     const unsigned char *end_field, *end_curve;
 848              		.loc 1 248 5 is_stmt 1 view .LVU234
 849              	.LVL89:
 249:D:/fchai/work/i-cube/I-CUBE-HUAWEI/Middlewares/Third_Party/Huawei/iot_link/network/dtls/mbedtls/mbedtls-2.16.2/library\pkparse.c ****     size_t len;
 850              		.loc 1 249 5 view .LVU235
 250:D:/fchai/work/i-cube/I-CUBE-HUAWEI/Middlewares/Third_Party/Huawei/iot_link/network/dtls/mbedtls/mbedtls-2.16.2/library\pkparse.c ****     int ver;
 851              		.loc 1 250 5 view .LVU236
 251:D:/fchai/work/i-cube/I-CUBE-HUAWEI/Middlewares/Third_Party/Huawei/iot_link/network/dtls/mbedtls/mbedtls-2.16.2/library\pkparse.c **** 
 852              		.loc 1 251 5 view .LVU237
 254:D:/fchai/work/i-cube/I-CUBE-HUAWEI/Middlewares/Third_Party/Huawei/iot_link/network/dtls/mbedtls/mbedtls-2.16.2/library\pkparse.c ****         return( MBEDTLS_ERR_PK_KEY_INVALID_FORMAT + ret );
 853              		.loc 1 254 5 view .LVU238
 254:D:/fchai/work/i-cube/I-CUBE-HUAWEI/Middlewares/Third_Party/Huawei/iot_link/network/dtls/mbedtls/mbedtls-2.16.2/library\pkparse.c ****         return( MBEDTLS_ERR_PK_KEY_INVALID_FORMAT + ret );
 854              		.loc 1 254 17 is_stmt 0 view .LVU239
 855 0024 FFF7FEFF 		bl	mbedtls_asn1_get_int
 856              	.LVL90:
 254:D:/fchai/work/i-cube/I-CUBE-HUAWEI/Middlewares/Third_Party/Huawei/iot_link/network/dtls/mbedtls/mbedtls-2.16.2/library\pkparse.c ****         return( MBEDTLS_ERR_PK_KEY_INVALID_FORMAT + ret );
 857              		.loc 1 254 7 view .LVU240
 858 0028 0028     		cmp	r0, #0
 859 002a 43D1     		bne	.L91
 257:D:/fchai/work/i-cube/I-CUBE-HUAWEI/Middlewares/Third_Party/Huawei/iot_link/network/dtls/mbedtls/mbedtls-2.16.2/library\pkparse.c ****         return( MBEDTLS_ERR_PK_KEY_INVALID_FORMAT );
 860              		.loc 1 257 5 is_stmt 1 view .LVU241
 257:D:/fchai/work/i-cube/I-CUBE-HUAWEI/Middlewares/Third_Party/Huawei/iot_link/network/dtls/mbedtls/mbedtls-2.16.2/library\pkparse.c ****         return( MBEDTLS_ERR_PK_KEY_INVALID_FORMAT );
 861              		.loc 1 257 17 is_stmt 0 view .LVU242
 862 002c 239B     		ldr	r3, [sp, #140]
 863 002e 013B     		subs	r3, r3, #1
 257:D:/fchai/work/i-cube/I-CUBE-HUAWEI/Middlewares/Third_Party/Huawei/iot_link/network/dtls/mbedtls/mbedtls-2.16.2/library\pkparse.c ****         return( MBEDTLS_ERR_PK_KEY_INVALID_FORMAT );
 864              		.loc 1 257 7 view .LVU243
 865 0030 022B     		cmp	r3, #2
 866 0032 00F23B81 		bhi	.L93
 266:D:/fchai/work/i-cube/I-CUBE-HUAWEI/Middlewares/Third_Party/Huawei/iot_link/network/dtls/mbedtls/mbedtls-2.16.2/library\pkparse.c ****             MBEDTLS_ASN1_CONSTRUCTED | MBEDTLS_ASN1_SEQUENCE ) ) != 0 )
 867              		.loc 1 266 5 is_stmt 1 view .LVU244
 266:D:/fchai/work/i-cube/I-CUBE-HUAWEI/Middlewares/Third_Party/Huawei/iot_link/network/dtls/mbedtls/mbedtls-2.16.2/library\pkparse.c ****             MBEDTLS_ASN1_CONSTRUCTED | MBEDTLS_ASN1_SEQUENCE ) ) != 0 )
 868              		.loc 1 266 17 is_stmt 0 view .LVU245
 869 0036 03AA     		add	r2, sp, #12
 870              	.LVL91:
 266:D:/fchai/work/i-cube/I-CUBE-HUAWEI/Middlewares/Third_Party/Huawei/iot_link/network/dtls/mbedtls/mbedtls-2.16.2/library\pkparse.c ****             MBEDTLS_ASN1_CONSTRUCTED | MBEDTLS_ASN1_SEQUENCE ) ) != 0 )
 871              		.loc 1 266 17 view .LVU246
 872 0038 3023     		movs	r3, #48
 873 003a 3146     		mov	r1, r6
ARM GAS  T:\msys\tmp\cc83OHoG.s 			page 34


 874 003c 02A8     		add	r0, sp, #8
 875              	.LVL92:
 266:D:/fchai/work/i-cube/I-CUBE-HUAWEI/Middlewares/Third_Party/Huawei/iot_link/network/dtls/mbedtls/mbedtls-2.16.2/library\pkparse.c ****             MBEDTLS_ASN1_CONSTRUCTED | MBEDTLS_ASN1_SEQUENCE ) ) != 0 )
 876              		.loc 1 266 17 view .LVU247
 877 003e FFF7FEFF 		bl	mbedtls_asn1_get_tag
 878              	.LVL93:
 266:D:/fchai/work/i-cube/I-CUBE-HUAWEI/Middlewares/Third_Party/Huawei/iot_link/network/dtls/mbedtls/mbedtls-2.16.2/library\pkparse.c ****             MBEDTLS_ASN1_CONSTRUCTED | MBEDTLS_ASN1_SEQUENCE ) ) != 0 )
 879              		.loc 1 266 7 view .LVU248
 880 0042 0446     		mov	r4, r0
 881              	.LVL94:
 266:D:/fchai/work/i-cube/I-CUBE-HUAWEI/Middlewares/Third_Party/Huawei/iot_link/network/dtls/mbedtls/mbedtls-2.16.2/library\pkparse.c ****             MBEDTLS_ASN1_CONSTRUCTED | MBEDTLS_ASN1_SEQUENCE ) ) != 0 )
 882              		.loc 1 266 7 view .LVU249
 883 0044 80BB     		cbnz	r0, .L51
 270:D:/fchai/work/i-cube/I-CUBE-HUAWEI/Middlewares/Third_Party/Huawei/iot_link/network/dtls/mbedtls/mbedtls-2.16.2/library\pkparse.c **** 
 884              		.loc 1 270 5 is_stmt 1 view .LVU250
 270:D:/fchai/work/i-cube/I-CUBE-HUAWEI/Middlewares/Third_Party/Huawei/iot_link/network/dtls/mbedtls/mbedtls-2.16.2/library\pkparse.c **** 
 885              		.loc 1 270 15 is_stmt 0 view .LVU251
 886 0046 DDE90273 		ldrd	r7, r3, [sp, #8]
 887 004a 1F44     		add	r7, r7, r3
 888              	.LVL95:
 280:D:/fchai/work/i-cube/I-CUBE-HUAWEI/Middlewares/Third_Party/Huawei/iot_link/network/dtls/mbedtls/mbedtls-2.16.2/library\pkparse.c ****         return( ret );
 889              		.loc 1 280 5 is_stmt 1 view .LVU252
 280:D:/fchai/work/i-cube/I-CUBE-HUAWEI/Middlewares/Third_Party/Huawei/iot_link/network/dtls/mbedtls/mbedtls-2.16.2/library\pkparse.c ****         return( ret );
 890              		.loc 1 280 17 is_stmt 0 view .LVU253
 891 004c 3946     		mov	r1, r7
 892 004e 0623     		movs	r3, #6
 893 0050 03AA     		add	r2, sp, #12
 894              	.LVL96:
 280:D:/fchai/work/i-cube/I-CUBE-HUAWEI/Middlewares/Third_Party/Huawei/iot_link/network/dtls/mbedtls/mbedtls-2.16.2/library\pkparse.c ****         return( ret );
 895              		.loc 1 280 17 view .LVU254
 896 0052 02A8     		add	r0, sp, #8
 897              	.LVL97:
 280:D:/fchai/work/i-cube/I-CUBE-HUAWEI/Middlewares/Third_Party/Huawei/iot_link/network/dtls/mbedtls/mbedtls-2.16.2/library\pkparse.c ****         return( ret );
 898              		.loc 1 280 17 view .LVU255
 899 0054 FFF7FEFF 		bl	mbedtls_asn1_get_tag
 900              	.LVL98:
 280:D:/fchai/work/i-cube/I-CUBE-HUAWEI/Middlewares/Third_Party/Huawei/iot_link/network/dtls/mbedtls/mbedtls-2.16.2/library\pkparse.c ****         return( ret );
 901              		.loc 1 280 7 view .LVU256
 902 0058 0446     		mov	r4, r0
 903 005a 28BB     		cbnz	r0, .L51
 283:D:/fchai/work/i-cube/I-CUBE-HUAWEI/Middlewares/Third_Party/Huawei/iot_link/network/dtls/mbedtls/mbedtls-2.16.2/library\pkparse.c ****         memcmp( p, MBEDTLS_OID_ANSI_X9_62_PRIME_FIELD, len ) != 0 )
 904              		.loc 1 283 5 is_stmt 1 view .LVU257
 283:D:/fchai/work/i-cube/I-CUBE-HUAWEI/Middlewares/Third_Party/Huawei/iot_link/network/dtls/mbedtls/mbedtls-2.16.2/library\pkparse.c ****         memcmp( p, MBEDTLS_OID_ANSI_X9_62_PRIME_FIELD, len ) != 0 )
 905              		.loc 1 283 7 is_stmt 0 view .LVU258
 906 005c 039A     		ldr	r2, [sp, #12]
 907 005e 072A     		cmp	r2, #7
 908 0060 40F02681 		bne	.L54
 284:D:/fchai/work/i-cube/I-CUBE-HUAWEI/Middlewares/Third_Party/Huawei/iot_link/network/dtls/mbedtls/mbedtls-2.16.2/library\pkparse.c ****     {
 909              		.loc 1 284 9 view .LVU259
 910 0064 029C     		ldr	r4, [sp, #8]
 911 0066 9D49     		ldr	r1, .L97
 912 0068 2046     		mov	r0, r4
 913              	.LVL99:
 284:D:/fchai/work/i-cube/I-CUBE-HUAWEI/Middlewares/Third_Party/Huawei/iot_link/network/dtls/mbedtls/mbedtls-2.16.2/library\pkparse.c ****     {
 914              		.loc 1 284 9 view .LVU260
 915 006a FFF7FEFF 		bl	memcmp
 916              	.LVL100:
ARM GAS  T:\msys\tmp\cc83OHoG.s 			page 35


 283:D:/fchai/work/i-cube/I-CUBE-HUAWEI/Middlewares/Third_Party/Huawei/iot_link/network/dtls/mbedtls/mbedtls-2.16.2/library\pkparse.c ****         memcmp( p, MBEDTLS_OID_ANSI_X9_62_PRIME_FIELD, len ) != 0 )
 917              		.loc 1 283 71 view .LVU261
 918 006e 0028     		cmp	r0, #0
 919 0070 40F01E81 		bne	.L54
 289:D:/fchai/work/i-cube/I-CUBE-HUAWEI/Middlewares/Third_Party/Huawei/iot_link/network/dtls/mbedtls/mbedtls-2.16.2/library\pkparse.c **** 
 920              		.loc 1 289 5 is_stmt 1 view .LVU262
 289:D:/fchai/work/i-cube/I-CUBE-HUAWEI/Middlewares/Third_Party/Huawei/iot_link/network/dtls/mbedtls/mbedtls-2.16.2/library\pkparse.c **** 
 921              		.loc 1 289 7 is_stmt 0 view .LVU263
 922 0074 0734     		adds	r4, r4, #7
 292:D:/fchai/work/i-cube/I-CUBE-HUAWEI/Middlewares/Third_Party/Huawei/iot_link/network/dtls/mbedtls/mbedtls-2.16.2/library\pkparse.c ****         return( MBEDTLS_ERR_PK_KEY_INVALID_FORMAT + ret );
 923              		.loc 1 292 17 view .LVU264
 924 0076 05AA     		add	r2, sp, #20
 925 0078 3946     		mov	r1, r7
 926 007a 02A8     		add	r0, sp, #8
 289:D:/fchai/work/i-cube/I-CUBE-HUAWEI/Middlewares/Third_Party/Huawei/iot_link/network/dtls/mbedtls/mbedtls-2.16.2/library\pkparse.c **** 
 927              		.loc 1 289 7 view .LVU265
 928 007c 0294     		str	r4, [sp, #8]
 292:D:/fchai/work/i-cube/I-CUBE-HUAWEI/Middlewares/Third_Party/Huawei/iot_link/network/dtls/mbedtls/mbedtls-2.16.2/library\pkparse.c ****         return( MBEDTLS_ERR_PK_KEY_INVALID_FORMAT + ret );
 929              		.loc 1 292 5 is_stmt 1 view .LVU266
 292:D:/fchai/work/i-cube/I-CUBE-HUAWEI/Middlewares/Third_Party/Huawei/iot_link/network/dtls/mbedtls/mbedtls-2.16.2/library\pkparse.c ****         return( MBEDTLS_ERR_PK_KEY_INVALID_FORMAT + ret );
 930              		.loc 1 292 17 is_stmt 0 view .LVU267
 931 007e FFF7FEFF 		bl	mbedtls_asn1_get_mpi
 932              	.LVL101:
 292:D:/fchai/work/i-cube/I-CUBE-HUAWEI/Middlewares/Third_Party/Huawei/iot_link/network/dtls/mbedtls/mbedtls-2.16.2/library\pkparse.c ****         return( MBEDTLS_ERR_PK_KEY_INVALID_FORMAT + ret );
 933              		.loc 1 292 7 view .LVU268
 934 0082 B8B9     		cbnz	r0, .L91
 295:D:/fchai/work/i-cube/I-CUBE-HUAWEI/Middlewares/Third_Party/Huawei/iot_link/network/dtls/mbedtls/mbedtls-2.16.2/library\pkparse.c **** 
 935              		.loc 1 295 5 is_stmt 1 view .LVU269
 295:D:/fchai/work/i-cube/I-CUBE-HUAWEI/Middlewares/Third_Party/Huawei/iot_link/network/dtls/mbedtls/mbedtls-2.16.2/library\pkparse.c **** 
 936              		.loc 1 295 18 is_stmt 0 view .LVU270
 937 0084 05A8     		add	r0, sp, #20
 938              	.LVL102:
 295:D:/fchai/work/i-cube/I-CUBE-HUAWEI/Middlewares/Third_Party/Huawei/iot_link/network/dtls/mbedtls/mbedtls-2.16.2/library\pkparse.c **** 
 939              		.loc 1 295 18 view .LVU271
 940 0086 FFF7FEFF 		bl	mbedtls_mpi_bitlen
 941              	.LVL103:
 297:D:/fchai/work/i-cube/I-CUBE-HUAWEI/Middlewares/Third_Party/Huawei/iot_link/network/dtls/mbedtls/mbedtls-2.16.2/library\pkparse.c ****         return( MBEDTLS_ERR_PK_KEY_INVALID_FORMAT +
 942              		.loc 1 297 7 view .LVU272
 943 008a 029B     		ldr	r3, [sp, #8]
 295:D:/fchai/work/i-cube/I-CUBE-HUAWEI/Middlewares/Third_Party/Huawei/iot_link/network/dtls/mbedtls/mbedtls-2.16.2/library\pkparse.c **** 
 944              		.loc 1 295 16 view .LVU273
 945 008c 1A90     		str	r0, [sp, #104]
 297:D:/fchai/work/i-cube/I-CUBE-HUAWEI/Middlewares/Third_Party/Huawei/iot_link/network/dtls/mbedtls/mbedtls-2.16.2/library\pkparse.c ****         return( MBEDTLS_ERR_PK_KEY_INVALID_FORMAT +
 946              		.loc 1 297 5 is_stmt 1 view .LVU274
 297:D:/fchai/work/i-cube/I-CUBE-HUAWEI/Middlewares/Third_Party/Huawei/iot_link/network/dtls/mbedtls/mbedtls-2.16.2/library\pkparse.c ****         return( MBEDTLS_ERR_PK_KEY_INVALID_FORMAT +
 947              		.loc 1 297 7 is_stmt 0 view .LVU275
 948 008e 9F42     		cmp	r7, r3
 949 0090 40F01A81 		bne	.L77
 310:D:/fchai/work/i-cube/I-CUBE-HUAWEI/Middlewares/Third_Party/Huawei/iot_link/network/dtls/mbedtls/mbedtls-2.16.2/library\pkparse.c ****             MBEDTLS_ASN1_CONSTRUCTED | MBEDTLS_ASN1_SEQUENCE ) ) != 0 )
 950              		.loc 1 310 5 is_stmt 1 view .LVU276
 310:D:/fchai/work/i-cube/I-CUBE-HUAWEI/Middlewares/Third_Party/Huawei/iot_link/network/dtls/mbedtls/mbedtls-2.16.2/library\pkparse.c ****             MBEDTLS_ASN1_CONSTRUCTED | MBEDTLS_ASN1_SEQUENCE ) ) != 0 )
 951              		.loc 1 310 17 is_stmt 0 view .LVU277
 952 0094 3023     		movs	r3, #48
 953 0096 03AA     		add	r2, sp, #12
 954              	.LVL104:
 310:D:/fchai/work/i-cube/I-CUBE-HUAWEI/Middlewares/Third_Party/Huawei/iot_link/network/dtls/mbedtls/mbedtls-2.16.2/library\pkparse.c ****             MBEDTLS_ASN1_CONSTRUCTED | MBEDTLS_ASN1_SEQUENCE ) ) != 0 )
 955              		.loc 1 310 17 view .LVU278
ARM GAS  T:\msys\tmp\cc83OHoG.s 			page 36


 956 0098 3146     		mov	r1, r6
 957 009a 02A8     		add	r0, sp, #8
 958 009c FFF7FEFF 		bl	mbedtls_asn1_get_tag
 959              	.LVL105:
 310:D:/fchai/work/i-cube/I-CUBE-HUAWEI/Middlewares/Third_Party/Huawei/iot_link/network/dtls/mbedtls/mbedtls-2.16.2/library\pkparse.c ****             MBEDTLS_ASN1_CONSTRUCTED | MBEDTLS_ASN1_SEQUENCE ) ) != 0 )
 960              		.loc 1 310 7 view .LVU279
 961 00a0 0446     		mov	r4, r0
 962 00a2 0028     		cmp	r0, #0
 963 00a4 00F08180 		beq	.L94
 964              	.LVL106:
 965              	.L51:
 310:D:/fchai/work/i-cube/I-CUBE-HUAWEI/Middlewares/Third_Party/Huawei/iot_link/network/dtls/mbedtls/mbedtls-2.16.2/library\pkparse.c ****             MBEDTLS_ASN1_CONSTRUCTED | MBEDTLS_ASN1_SEQUENCE ) ) != 0 )
 966              		.loc 1 310 7 view .LVU280
 967              	.LBE42:
 968              	.LBE41:
 447:D:/fchai/work/i-cube/I-CUBE-HUAWEI/Middlewares/Third_Party/Huawei/iot_link/network/dtls/mbedtls/mbedtls-2.16.2/library\pkparse.c **** 
 969              		.loc 1 447 5 is_stmt 1 view .LVU281
 970 00a8 04A8     		add	r0, sp, #16
 971 00aa FFF7FEFF 		bl	mbedtls_ecp_group_free
 972              	.LVL107:
 449:D:/fchai/work/i-cube/I-CUBE-HUAWEI/Middlewares/Third_Party/Huawei/iot_link/network/dtls/mbedtls/mbedtls-2.16.2/library\pkparse.c **** }
 973              		.loc 1 449 5 view .LVU282
 974              	.L44:
 449:D:/fchai/work/i-cube/I-CUBE-HUAWEI/Middlewares/Third_Party/Huawei/iot_link/network/dtls/mbedtls/mbedtls-2.16.2/library\pkparse.c **** }
 975              		.loc 1 449 5 is_stmt 0 view .LVU283
 976              	.LBE40:
 977              	.LBE39:
 491:D:/fchai/work/i-cube/I-CUBE-HUAWEI/Middlewares/Third_Party/Huawei/iot_link/network/dtls/mbedtls/mbedtls-2.16.2/library\pkparse.c **** 
 978              		.loc 1 491 1 view .LVU284
 979 00ae 2046     		mov	r0, r4
 980 00b0 43B0     		add	sp, sp, #268
 981              	.LCFI20:
 982              		.cfi_remember_state
 983              		.cfi_def_cfa_offset 20
 984              		@ sp needed
 985 00b2 F0BD     		pop	{r4, r5, r6, r7, pc}
 986              	.LVL108:
 987              	.L91:
 988              	.LCFI21:
 989              		.cfi_restore_state
 990              	.LBB67:
 991              	.LBB63:
 992              	.LBB49:
 993              	.LBB43:
 374:D:/fchai/work/i-cube/I-CUBE-HUAWEI/Middlewares/Third_Party/Huawei/iot_link/network/dtls/mbedtls/mbedtls-2.16.2/library\pkparse.c **** 
 994              		.loc 1 374 9 is_stmt 1 view .LVU285
 374:D:/fchai/work/i-cube/I-CUBE-HUAWEI/Middlewares/Third_Party/Huawei/iot_link/network/dtls/mbedtls/mbedtls-2.16.2/library\pkparse.c **** 
 995              		.loc 1 374 51 is_stmt 0 view .LVU286
 996 00b4 A0F57454 		sub	r4, r0, #15616
 997              	.LVL109:
 374:D:/fchai/work/i-cube/I-CUBE-HUAWEI/Middlewares/Third_Party/Huawei/iot_link/network/dtls/mbedtls/mbedtls-2.16.2/library\pkparse.c **** 
 998              		.loc 1 374 51 view .LVU287
 999              	.LBE43:
 1000              	.LBE49:
 441:D:/fchai/work/i-cube/I-CUBE-HUAWEI/Middlewares/Third_Party/Huawei/iot_link/network/dtls/mbedtls/mbedtls-2.16.2/library\pkparse.c ****         goto cleanup;
 1001              		.loc 1 441 7 view .LVU288
 1002 00b8 002C     		cmp	r4, #0
ARM GAS  T:\msys\tmp\cc83OHoG.s 			page 37


 1003 00ba F5D1     		bne	.L51
 1004              	.LVL110:
 1005              	.L67:
 444:D:/fchai/work/i-cube/I-CUBE-HUAWEI/Middlewares/Third_Party/Huawei/iot_link/network/dtls/mbedtls/mbedtls-2.16.2/library\pkparse.c **** 
 1006              		.loc 1 444 5 is_stmt 1 view .LVU289
 1007              	.LBB50:
 1008              	.LBI50:
 389:D:/fchai/work/i-cube/I-CUBE-HUAWEI/Middlewares/Third_Party/Huawei/iot_link/network/dtls/mbedtls/mbedtls-2.16.2/library\pkparse.c **** {
 1009              		.loc 1 389 12 view .LVU290
 1010              	.LBB51:
 391:D:/fchai/work/i-cube/I-CUBE-HUAWEI/Middlewares/Third_Party/Huawei/iot_link/network/dtls/mbedtls/mbedtls-2.16.2/library\pkparse.c ****     mbedtls_ecp_group ref;
 1011              		.loc 1 391 5 view .LVU291
 392:D:/fchai/work/i-cube/I-CUBE-HUAWEI/Middlewares/Third_Party/Huawei/iot_link/network/dtls/mbedtls/mbedtls-2.16.2/library\pkparse.c ****     const mbedtls_ecp_group_id *id;
 1012              		.loc 1 392 5 view .LVU292
 393:D:/fchai/work/i-cube/I-CUBE-HUAWEI/Middlewares/Third_Party/Huawei/iot_link/network/dtls/mbedtls/mbedtls-2.16.2/library\pkparse.c **** 
 1013              		.loc 1 393 5 view .LVU293
 395:D:/fchai/work/i-cube/I-CUBE-HUAWEI/Middlewares/Third_Party/Huawei/iot_link/network/dtls/mbedtls/mbedtls-2.16.2/library\pkparse.c **** 
 1014              		.loc 1 395 5 view .LVU294
 1015 00bc 23A8     		add	r0, sp, #140
 1016 00be FFF7FEFF 		bl	mbedtls_ecp_group_init
 1017              	.LVL111:
 397:D:/fchai/work/i-cube/I-CUBE-HUAWEI/Middlewares/Third_Party/Huawei/iot_link/network/dtls/mbedtls/mbedtls-2.16.2/library\pkparse.c ****     {
 1018              		.loc 1 397 5 view .LVU295
 397:D:/fchai/work/i-cube/I-CUBE-HUAWEI/Middlewares/Third_Party/Huawei/iot_link/network/dtls/mbedtls/mbedtls-2.16.2/library\pkparse.c ****     {
 1019              		.loc 1 397 15 is_stmt 0 view .LVU296
 1020 00c2 FFF7FEFF 		bl	mbedtls_ecp_grp_id_list
 1021              	.LVL112:
 397:D:/fchai/work/i-cube/I-CUBE-HUAWEI/Middlewares/Third_Party/Huawei/iot_link/network/dtls/mbedtls/mbedtls-2.16.2/library\pkparse.c ****     {
 1022              		.loc 1 397 5 view .LVU297
 1023 00c6 0378     		ldrb	r3, [r0]	@ zero_extendqisi2
 397:D:/fchai/work/i-cube/I-CUBE-HUAWEI/Middlewares/Third_Party/Huawei/iot_link/network/dtls/mbedtls/mbedtls-2.16.2/library\pkparse.c ****     {
 1024              		.loc 1 397 15 view .LVU298
 1025 00c8 0646     		mov	r6, r0
 1026              	.LVL113:
 397:D:/fchai/work/i-cube/I-CUBE-HUAWEI/Middlewares/Third_Party/Huawei/iot_link/network/dtls/mbedtls/mbedtls-2.16.2/library\pkparse.c ****     {
 1027              		.loc 1 397 42 is_stmt 1 view .LVU299
 397:D:/fchai/work/i-cube/I-CUBE-HUAWEI/Middlewares/Third_Party/Huawei/iot_link/network/dtls/mbedtls/mbedtls-2.16.2/library\pkparse.c ****     {
 1028              		.loc 1 397 5 is_stmt 0 view .LVU300
 1029 00ca 23B9     		cbnz	r3, .L71
 1030 00cc 45E0     		b	.L68
 1031              	.LVL114:
 1032              	.L72:
 397:D:/fchai/work/i-cube/I-CUBE-HUAWEI/Middlewares/Third_Party/Huawei/iot_link/network/dtls/mbedtls/mbedtls-2.16.2/library\pkparse.c ****     {
 1033              		.loc 1 397 70 is_stmt 1 view .LVU301
 397:D:/fchai/work/i-cube/I-CUBE-HUAWEI/Middlewares/Third_Party/Huawei/iot_link/network/dtls/mbedtls/mbedtls-2.16.2/library\pkparse.c ****     {
 1034              		.loc 1 397 42 view .LVU302
 397:D:/fchai/work/i-cube/I-CUBE-HUAWEI/Middlewares/Third_Party/Huawei/iot_link/network/dtls/mbedtls/mbedtls-2.16.2/library\pkparse.c ****     {
 1035              		.loc 1 397 5 is_stmt 0 view .LVU303
 1036 00ce 16F8013F 		ldrb	r3, [r6, #1]!	@ zero_extendqisi2
 1037              	.LVL115:
 397:D:/fchai/work/i-cube/I-CUBE-HUAWEI/Middlewares/Third_Party/Huawei/iot_link/network/dtls/mbedtls/mbedtls-2.16.2/library\pkparse.c ****     {
 1038              		.loc 1 397 5 view .LVU304
 1039 00d2 002B     		cmp	r3, #0
 1040 00d4 41D0     		beq	.L68
 1041              	.L71:
 400:D:/fchai/work/i-cube/I-CUBE-HUAWEI/Middlewares/Third_Party/Huawei/iot_link/network/dtls/mbedtls/mbedtls-2.16.2/library\pkparse.c ****         MBEDTLS_MPI_CHK( mbedtls_ecp_group_load( &ref, *id ) );
 1042              		.loc 1 400 9 is_stmt 1 view .LVU305
ARM GAS  T:\msys\tmp\cc83OHoG.s 			page 38


 1043 00d6 23A8     		add	r0, sp, #140
 1044 00d8 FFF7FEFF 		bl	mbedtls_ecp_group_free
 1045              	.LVL116:
 401:D:/fchai/work/i-cube/I-CUBE-HUAWEI/Middlewares/Third_Party/Huawei/iot_link/network/dtls/mbedtls/mbedtls-2.16.2/library\pkparse.c **** 
 1046              		.loc 1 401 9 view .LVU306
 401:D:/fchai/work/i-cube/I-CUBE-HUAWEI/Middlewares/Third_Party/Huawei/iot_link/network/dtls/mbedtls/mbedtls-2.16.2/library\pkparse.c **** 
 1047              		.loc 1 401 9 view .LVU307
 1048 00dc 3178     		ldrb	r1, [r6]	@ zero_extendqisi2
 1049 00de 23A8     		add	r0, sp, #140
 1050 00e0 FFF7FEFF 		bl	mbedtls_ecp_group_load
 1051              	.LVL117:
 401:D:/fchai/work/i-cube/I-CUBE-HUAWEI/Middlewares/Third_Party/Huawei/iot_link/network/dtls/mbedtls/mbedtls-2.16.2/library\pkparse.c **** 
 1052              		.loc 1 401 9 is_stmt 0 view .LVU308
 1053 00e4 0446     		mov	r4, r0
 1054 00e6 0028     		cmp	r0, #0
 1055 00e8 58D1     		bne	.L69
 401:D:/fchai/work/i-cube/I-CUBE-HUAWEI/Middlewares/Third_Party/Huawei/iot_link/network/dtls/mbedtls/mbedtls-2.16.2/library\pkparse.c **** 
 1056              		.loc 1 401 9 is_stmt 1 view .LVU309
 404:D:/fchai/work/i-cube/I-CUBE-HUAWEI/Middlewares/Third_Party/Huawei/iot_link/network/dtls/mbedtls/mbedtls-2.16.2/library\pkparse.c ****             mbedtls_mpi_cmp_mpi( &grp->P, &ref.P ) == 0 &&
 1057              		.loc 1 404 9 view .LVU310
 404:D:/fchai/work/i-cube/I-CUBE-HUAWEI/Middlewares/Third_Party/Huawei/iot_link/network/dtls/mbedtls/mbedtls-2.16.2/library\pkparse.c ****             mbedtls_mpi_cmp_mpi( &grp->P, &ref.P ) == 0 &&
 1058              		.loc 1 404 11 is_stmt 0 view .LVU311
 1059 00ea 1A9A     		ldr	r2, [sp, #104]
 1060 00ec 399B     		ldr	r3, [sp, #228]
 1061 00ee 9A42     		cmp	r2, r3
 1062 00f0 EDD1     		bne	.L72
 404:D:/fchai/work/i-cube/I-CUBE-HUAWEI/Middlewares/Third_Party/Huawei/iot_link/network/dtls/mbedtls/mbedtls-2.16.2/library\pkparse.c ****             mbedtls_mpi_cmp_mpi( &grp->P, &ref.P ) == 0 &&
 1063              		.loc 1 404 37 view .LVU312
 1064 00f2 1B9A     		ldr	r2, [sp, #108]
 1065 00f4 3A9B     		ldr	r3, [sp, #232]
 1066 00f6 9A42     		cmp	r2, r3
 1067 00f8 E9D1     		bne	.L72
 405:D:/fchai/work/i-cube/I-CUBE-HUAWEI/Middlewares/Third_Party/Huawei/iot_link/network/dtls/mbedtls/mbedtls-2.16.2/library\pkparse.c ****             mbedtls_mpi_cmp_mpi( &grp->A, &ref.A ) == 0 &&
 1068              		.loc 1 405 13 view .LVU313
 1069 00fa 24A9     		add	r1, sp, #144
 1070 00fc 05A8     		add	r0, sp, #20
 1071              	.LVL118:
 405:D:/fchai/work/i-cube/I-CUBE-HUAWEI/Middlewares/Third_Party/Huawei/iot_link/network/dtls/mbedtls/mbedtls-2.16.2/library\pkparse.c ****             mbedtls_mpi_cmp_mpi( &grp->A, &ref.A ) == 0 &&
 1072              		.loc 1 405 13 view .LVU314
 1073 00fe FFF7FEFF 		bl	mbedtls_mpi_cmp_mpi
 1074              	.LVL119:
 404:D:/fchai/work/i-cube/I-CUBE-HUAWEI/Middlewares/Third_Party/Huawei/iot_link/network/dtls/mbedtls/mbedtls-2.16.2/library\pkparse.c ****             mbedtls_mpi_cmp_mpi( &grp->P, &ref.P ) == 0 &&
 1075              		.loc 1 404 64 view .LVU315
 1076 0102 0028     		cmp	r0, #0
 1077 0104 E3D1     		bne	.L72
 406:D:/fchai/work/i-cube/I-CUBE-HUAWEI/Middlewares/Third_Party/Huawei/iot_link/network/dtls/mbedtls/mbedtls-2.16.2/library\pkparse.c ****             mbedtls_mpi_cmp_mpi( &grp->B, &ref.B ) == 0 &&
 1078              		.loc 1 406 13 view .LVU316
 1079 0106 27A9     		add	r1, sp, #156
 1080 0108 08A8     		add	r0, sp, #32
 1081 010a FFF7FEFF 		bl	mbedtls_mpi_cmp_mpi
 1082              	.LVL120:
 405:D:/fchai/work/i-cube/I-CUBE-HUAWEI/Middlewares/Third_Party/Huawei/iot_link/network/dtls/mbedtls/mbedtls-2.16.2/library\pkparse.c ****             mbedtls_mpi_cmp_mpi( &grp->A, &ref.A ) == 0 &&
 1083              		.loc 1 405 57 view .LVU317
 1084 010e 0028     		cmp	r0, #0
 1085 0110 DDD1     		bne	.L72
 407:D:/fchai/work/i-cube/I-CUBE-HUAWEI/Middlewares/Third_Party/Huawei/iot_link/network/dtls/mbedtls/mbedtls-2.16.2/library\pkparse.c ****             mbedtls_mpi_cmp_mpi( &grp->N, &ref.N ) == 0 &&
 1086              		.loc 1 407 13 view .LVU318
ARM GAS  T:\msys\tmp\cc83OHoG.s 			page 39


 1087 0112 2AA9     		add	r1, sp, #168
 1088 0114 0BA8     		add	r0, sp, #44
 1089 0116 FFF7FEFF 		bl	mbedtls_mpi_cmp_mpi
 1090              	.LVL121:
 406:D:/fchai/work/i-cube/I-CUBE-HUAWEI/Middlewares/Third_Party/Huawei/iot_link/network/dtls/mbedtls/mbedtls-2.16.2/library\pkparse.c ****             mbedtls_mpi_cmp_mpi( &grp->B, &ref.B ) == 0 &&
 1091              		.loc 1 406 57 view .LVU319
 1092 011a 0028     		cmp	r0, #0
 1093 011c D7D1     		bne	.L72
 408:D:/fchai/work/i-cube/I-CUBE-HUAWEI/Middlewares/Third_Party/Huawei/iot_link/network/dtls/mbedtls/mbedtls-2.16.2/library\pkparse.c ****             mbedtls_mpi_cmp_mpi( &grp->G.X, &ref.G.X ) == 0 &&
 1094              		.loc 1 408 13 view .LVU320
 1095 011e 36A9     		add	r1, sp, #216
 1096 0120 17A8     		add	r0, sp, #92
 1097 0122 FFF7FEFF 		bl	mbedtls_mpi_cmp_mpi
 1098              	.LVL122:
 407:D:/fchai/work/i-cube/I-CUBE-HUAWEI/Middlewares/Third_Party/Huawei/iot_link/network/dtls/mbedtls/mbedtls-2.16.2/library\pkparse.c ****             mbedtls_mpi_cmp_mpi( &grp->N, &ref.N ) == 0 &&
 1099              		.loc 1 407 57 view .LVU321
 1100 0126 0028     		cmp	r0, #0
 1101 0128 D1D1     		bne	.L72
 409:D:/fchai/work/i-cube/I-CUBE-HUAWEI/Middlewares/Third_Party/Huawei/iot_link/network/dtls/mbedtls/mbedtls-2.16.2/library\pkparse.c ****             mbedtls_mpi_cmp_mpi( &grp->G.Z, &ref.G.Z ) == 0 &&
 1102              		.loc 1 409 13 view .LVU322
 1103 012a 2DA9     		add	r1, sp, #180
 1104 012c 0EA8     		add	r0, sp, #56
 1105 012e FFF7FEFF 		bl	mbedtls_mpi_cmp_mpi
 1106              	.LVL123:
 408:D:/fchai/work/i-cube/I-CUBE-HUAWEI/Middlewares/Third_Party/Huawei/iot_link/network/dtls/mbedtls/mbedtls-2.16.2/library\pkparse.c ****             mbedtls_mpi_cmp_mpi( &grp->G.X, &ref.G.X ) == 0 &&
 1107              		.loc 1 408 57 view .LVU323
 1108 0132 0028     		cmp	r0, #0
 1109 0134 CBD1     		bne	.L72
 410:D:/fchai/work/i-cube/I-CUBE-HUAWEI/Middlewares/Third_Party/Huawei/iot_link/network/dtls/mbedtls/mbedtls-2.16.2/library\pkparse.c ****             /* For Y we may only know the parity bit, so compare only that */
 1110              		.loc 1 410 13 view .LVU324
 1111 0136 33A9     		add	r1, sp, #204
 1112 0138 14A8     		add	r0, sp, #80
 1113 013a FFF7FEFF 		bl	mbedtls_mpi_cmp_mpi
 1114              	.LVL124:
 409:D:/fchai/work/i-cube/I-CUBE-HUAWEI/Middlewares/Third_Party/Huawei/iot_link/network/dtls/mbedtls/mbedtls-2.16.2/library\pkparse.c ****             mbedtls_mpi_cmp_mpi( &grp->G.Z, &ref.G.Z ) == 0 &&
 1115              		.loc 1 409 61 view .LVU325
 1116 013e 0146     		mov	r1, r0
 1117 0140 0028     		cmp	r0, #0
 1118 0142 C4D1     		bne	.L72
 412:D:/fchai/work/i-cube/I-CUBE-HUAWEI/Middlewares/Third_Party/Huawei/iot_link/network/dtls/mbedtls/mbedtls-2.16.2/library\pkparse.c ****         {
 1119              		.loc 1 412 13 view .LVU326
 1120 0144 0190     		str	r0, [sp, #4]
 1121 0146 11A8     		add	r0, sp, #68
 1122 0148 FFF7FEFF 		bl	mbedtls_mpi_get_bit
 1123              	.LVL125:
 412:D:/fchai/work/i-cube/I-CUBE-HUAWEI/Middlewares/Third_Party/Huawei/iot_link/network/dtls/mbedtls/mbedtls-2.16.2/library\pkparse.c ****         {
 1124              		.loc 1 412 52 view .LVU327
 1125 014c 0199     		ldr	r1, [sp, #4]
 412:D:/fchai/work/i-cube/I-CUBE-HUAWEI/Middlewares/Third_Party/Huawei/iot_link/network/dtls/mbedtls/mbedtls-2.16.2/library\pkparse.c ****         {
 1126              		.loc 1 412 13 view .LVU328
 1127 014e 0446     		mov	r4, r0
 1128              	.LVL126:
 412:D:/fchai/work/i-cube/I-CUBE-HUAWEI/Middlewares/Third_Party/Huawei/iot_link/network/dtls/mbedtls/mbedtls-2.16.2/library\pkparse.c ****         {
 1129              		.loc 1 412 52 view .LVU329
 1130 0150 30A8     		add	r0, sp, #192
 1131 0152 FFF7FEFF 		bl	mbedtls_mpi_get_bit
 1132              	.LVL127:
ARM GAS  T:\msys\tmp\cc83OHoG.s 			page 40


 410:D:/fchai/work/i-cube/I-CUBE-HUAWEI/Middlewares/Third_Party/Huawei/iot_link/network/dtls/mbedtls/mbedtls-2.16.2/library\pkparse.c ****             /* For Y we may only know the parity bit, so compare only that */
 1133              		.loc 1 410 61 view .LVU330
 1134 0156 8442     		cmp	r4, r0
 1135 0158 B9D1     		bne	.L72
 1136              	.L68:
 1137              	.LVL128:
 420:D:/fchai/work/i-cube/I-CUBE-HUAWEI/Middlewares/Third_Party/Huawei/iot_link/network/dtls/mbedtls/mbedtls-2.16.2/library\pkparse.c **** 
 1138              		.loc 1 420 5 is_stmt 1 view .LVU331
 1139 015a 23A8     		add	r0, sp, #140
 1140 015c FFF7FEFF 		bl	mbedtls_ecp_group_free
 1141              	.LVL129:
 422:D:/fchai/work/i-cube/I-CUBE-HUAWEI/Middlewares/Third_Party/Huawei/iot_link/network/dtls/mbedtls/mbedtls-2.16.2/library\pkparse.c **** 
 1142              		.loc 1 422 5 view .LVU332
 422:D:/fchai/work/i-cube/I-CUBE-HUAWEI/Middlewares/Third_Party/Huawei/iot_link/network/dtls/mbedtls/mbedtls-2.16.2/library\pkparse.c **** 
 1143              		.loc 1 422 15 is_stmt 0 view .LVU333
 1144 0160 3378     		ldrb	r3, [r6]	@ zero_extendqisi2
 422:D:/fchai/work/i-cube/I-CUBE-HUAWEI/Middlewares/Third_Party/Huawei/iot_link/network/dtls/mbedtls/mbedtls-2.16.2/library\pkparse.c **** 
 1145              		.loc 1 422 13 view .LVU334
 1146 0162 8DF80C30 		strb	r3, [sp, #12]
 424:D:/fchai/work/i-cube/I-CUBE-HUAWEI/Middlewares/Third_Party/Huawei/iot_link/network/dtls/mbedtls/mbedtls-2.16.2/library\pkparse.c ****         ret = MBEDTLS_ERR_ECP_FEATURE_UNAVAILABLE;
 1147              		.loc 1 424 5 is_stmt 1 view .LVU335
 424:D:/fchai/work/i-cube/I-CUBE-HUAWEI/Middlewares/Third_Party/Huawei/iot_link/network/dtls/mbedtls/mbedtls-2.16.2/library\pkparse.c ****         ret = MBEDTLS_ERR_ECP_FEATURE_UNAVAILABLE;
 1148              		.loc 1 424 18 is_stmt 0 view .LVU336
 1149 0166 002B     		cmp	r3, #0
 1150 0168 00F0A980 		beq	.L95
 427:D:/fchai/work/i-cube/I-CUBE-HUAWEI/Middlewares/Third_Party/Huawei/iot_link/network/dtls/mbedtls/mbedtls-2.16.2/library\pkparse.c **** }
 1151              		.loc 1 427 5 is_stmt 1 view .LVU337
 1152              	.LVL130:
 427:D:/fchai/work/i-cube/I-CUBE-HUAWEI/Middlewares/Third_Party/Huawei/iot_link/network/dtls/mbedtls/mbedtls-2.16.2/library\pkparse.c **** }
 1153              		.loc 1 427 5 is_stmt 0 view .LVU338
 1154              	.LBE51:
 1155              	.LBE50:
 447:D:/fchai/work/i-cube/I-CUBE-HUAWEI/Middlewares/Third_Party/Huawei/iot_link/network/dtls/mbedtls/mbedtls-2.16.2/library\pkparse.c **** 
 1156              		.loc 1 447 5 is_stmt 1 view .LVU339
 1157 016c 04A8     		add	r0, sp, #16
 1158 016e FFF7FEFF 		bl	mbedtls_ecp_group_free
 1159              	.LVL131:
 449:D:/fchai/work/i-cube/I-CUBE-HUAWEI/Middlewares/Third_Party/Huawei/iot_link/network/dtls/mbedtls/mbedtls-2.16.2/library\pkparse.c **** }
 1160              		.loc 1 449 5 view .LVU340
 449:D:/fchai/work/i-cube/I-CUBE-HUAWEI/Middlewares/Third_Party/Huawei/iot_link/network/dtls/mbedtls/mbedtls-2.16.2/library\pkparse.c **** }
 1161              		.loc 1 449 5 is_stmt 0 view .LVU341
 1162 0172 05E0     		b	.L47
 1163              	.LVL132:
 1164              	.L92:
 449:D:/fchai/work/i-cube/I-CUBE-HUAWEI/Middlewares/Third_Party/Huawei/iot_link/network/dtls/mbedtls/mbedtls-2.16.2/library\pkparse.c **** }
 1165              		.loc 1 449 5 view .LVU342
 1166              	.LBE63:
 1167              	.LBE67:
 468:D:/fchai/work/i-cube/I-CUBE-HUAWEI/Middlewares/Third_Party/Huawei/iot_link/network/dtls/mbedtls/mbedtls-2.16.2/library\pkparse.c ****             return( MBEDTLS_ERR_PK_UNKNOWN_NAMED_CURVE );
 1168              		.loc 1 468 9 is_stmt 1 view .LVU343
 468:D:/fchai/work/i-cube/I-CUBE-HUAWEI/Middlewares/Third_Party/Huawei/iot_link/network/dtls/mbedtls/mbedtls-2.16.2/library\pkparse.c ****             return( MBEDTLS_ERR_PK_UNKNOWN_NAMED_CURVE );
 1169              		.loc 1 468 13 is_stmt 0 view .LVU344
 1170 0174 03A9     		add	r1, sp, #12
 1171              	.LVL133:
 468:D:/fchai/work/i-cube/I-CUBE-HUAWEI/Middlewares/Third_Party/Huawei/iot_link/network/dtls/mbedtls/mbedtls-2.16.2/library\pkparse.c ****             return( MBEDTLS_ERR_PK_UNKNOWN_NAMED_CURVE );
 1172              		.loc 1 468 13 view .LVU345
 1173 0176 FFF7FEFF 		bl	mbedtls_oid_get_ec_grp
ARM GAS  T:\msys\tmp\cc83OHoG.s 			page 41


 1174              	.LVL134:
 468:D:/fchai/work/i-cube/I-CUBE-HUAWEI/Middlewares/Third_Party/Huawei/iot_link/network/dtls/mbedtls/mbedtls-2.16.2/library\pkparse.c ****             return( MBEDTLS_ERR_PK_UNKNOWN_NAMED_CURVE );
 1175              		.loc 1 468 11 view .LVU346
 1176 017a 0028     		cmp	r0, #0
 1177 017c 40F09D80 		bne	.L96
 1178              	.L47:
 484:D:/fchai/work/i-cube/I-CUBE-HUAWEI/Middlewares/Third_Party/Huawei/iot_link/network/dtls/mbedtls/mbedtls-2.16.2/library\pkparse.c ****         return( MBEDTLS_ERR_PK_KEY_INVALID_FORMAT );
 1179              		.loc 1 484 5 is_stmt 1 view .LVU347
 484:D:/fchai/work/i-cube/I-CUBE-HUAWEI/Middlewares/Third_Party/Huawei/iot_link/network/dtls/mbedtls/mbedtls-2.16.2/library\pkparse.c ****         return( MBEDTLS_ERR_PK_KEY_INVALID_FORMAT );
 1180              		.loc 1 484 12 is_stmt 0 view .LVU348
 1181 0180 2B78     		ldrb	r3, [r5]	@ zero_extendqisi2
 484:D:/fchai/work/i-cube/I-CUBE-HUAWEI/Middlewares/Third_Party/Huawei/iot_link/network/dtls/mbedtls/mbedtls-2.16.2/library\pkparse.c ****         return( MBEDTLS_ERR_PK_KEY_INVALID_FORMAT );
 1182              		.loc 1 484 51 view .LVU349
 1183 0182 9DF80C10 		ldrb	r1, [sp, #12]	@ zero_extendqisi2
 484:D:/fchai/work/i-cube/I-CUBE-HUAWEI/Middlewares/Third_Party/Huawei/iot_link/network/dtls/mbedtls/mbedtls-2.16.2/library\pkparse.c ****         return( MBEDTLS_ERR_PK_KEY_INVALID_FORMAT );
 1184              		.loc 1 484 7 view .LVU350
 1185 0186 13B1     		cbz	r3, .L74
 484:D:/fchai/work/i-cube/I-CUBE-HUAWEI/Middlewares/Third_Party/Huawei/iot_link/network/dtls/mbedtls/mbedtls-2.16.2/library\pkparse.c ****         return( MBEDTLS_ERR_PK_KEY_INVALID_FORMAT );
 1186              		.loc 1 484 40 discriminator 1 view .LVU351
 1187 0188 8B42     		cmp	r3, r1
 1188 018a 40F08D80 		bne	.L80
 1189              	.L74:
 487:D:/fchai/work/i-cube/I-CUBE-HUAWEI/Middlewares/Third_Party/Huawei/iot_link/network/dtls/mbedtls/mbedtls-2.16.2/library\pkparse.c ****         return( ret );
 1190              		.loc 1 487 5 is_stmt 1 view .LVU352
 487:D:/fchai/work/i-cube/I-CUBE-HUAWEI/Middlewares/Third_Party/Huawei/iot_link/network/dtls/mbedtls/mbedtls-2.16.2/library\pkparse.c ****         return( ret );
 1191              		.loc 1 487 17 is_stmt 0 view .LVU353
 1192 018e 2846     		mov	r0, r5
 1193 0190 FFF7FEFF 		bl	mbedtls_ecp_group_load
 1194              	.LVL135:
 1195 0194 0446     		mov	r4, r0
 1196              	.LVL136:
 491:D:/fchai/work/i-cube/I-CUBE-HUAWEI/Middlewares/Third_Party/Huawei/iot_link/network/dtls/mbedtls/mbedtls-2.16.2/library\pkparse.c **** 
 1197              		.loc 1 491 1 view .LVU354
 1198 0196 2046     		mov	r0, r4
 491:D:/fchai/work/i-cube/I-CUBE-HUAWEI/Middlewares/Third_Party/Huawei/iot_link/network/dtls/mbedtls/mbedtls-2.16.2/library\pkparse.c **** 
 1199              		.loc 1 491 1 view .LVU355
 1200 0198 43B0     		add	sp, sp, #268
 1201              	.LCFI22:
 1202              		.cfi_remember_state
 1203              		.cfi_def_cfa_offset 20
 1204              		@ sp needed
 1205 019a F0BD     		pop	{r4, r5, r6, r7, pc}
 1206              	.LVL137:
 1207              	.L69:
 1208              	.LCFI23:
 1209              		.cfi_restore_state
 1210              	.LBB68:
 1211              	.LBB64:
 1212              	.LBB55:
 1213              	.LBB52:
 420:D:/fchai/work/i-cube/I-CUBE-HUAWEI/Middlewares/Third_Party/Huawei/iot_link/network/dtls/mbedtls/mbedtls-2.16.2/library\pkparse.c **** 
 1214              		.loc 1 420 5 is_stmt 1 view .LVU356
 1215 019c 23A8     		add	r0, sp, #140
 1216              	.LVL138:
 420:D:/fchai/work/i-cube/I-CUBE-HUAWEI/Middlewares/Third_Party/Huawei/iot_link/network/dtls/mbedtls/mbedtls-2.16.2/library\pkparse.c **** 
 1217              		.loc 1 420 5 is_stmt 0 view .LVU357
 1218 019e FFF7FEFF 		bl	mbedtls_ecp_group_free
ARM GAS  T:\msys\tmp\cc83OHoG.s 			page 42


 1219              	.LVL139:
 422:D:/fchai/work/i-cube/I-CUBE-HUAWEI/Middlewares/Third_Party/Huawei/iot_link/network/dtls/mbedtls/mbedtls-2.16.2/library\pkparse.c **** 
 1220              		.loc 1 422 5 is_stmt 1 view .LVU358
 422:D:/fchai/work/i-cube/I-CUBE-HUAWEI/Middlewares/Third_Party/Huawei/iot_link/network/dtls/mbedtls/mbedtls-2.16.2/library\pkparse.c **** 
 1221              		.loc 1 422 15 is_stmt 0 view .LVU359
 1222 01a2 3378     		ldrb	r3, [r6]	@ zero_extendqisi2
 422:D:/fchai/work/i-cube/I-CUBE-HUAWEI/Middlewares/Third_Party/Huawei/iot_link/network/dtls/mbedtls/mbedtls-2.16.2/library\pkparse.c **** 
 1223              		.loc 1 422 13 view .LVU360
 1224 01a4 8DF80C30 		strb	r3, [sp, #12]
 424:D:/fchai/work/i-cube/I-CUBE-HUAWEI/Middlewares/Third_Party/Huawei/iot_link/network/dtls/mbedtls/mbedtls-2.16.2/library\pkparse.c ****         ret = MBEDTLS_ERR_ECP_FEATURE_UNAVAILABLE;
 1225              		.loc 1 424 5 is_stmt 1 view .LVU361
 427:D:/fchai/work/i-cube/I-CUBE-HUAWEI/Middlewares/Third_Party/Huawei/iot_link/network/dtls/mbedtls/mbedtls-2.16.2/library\pkparse.c **** }
 1226              		.loc 1 427 5 view .LVU362
 1227              	.LVL140:
 427:D:/fchai/work/i-cube/I-CUBE-HUAWEI/Middlewares/Third_Party/Huawei/iot_link/network/dtls/mbedtls/mbedtls-2.16.2/library\pkparse.c **** }
 1228              		.loc 1 427 5 is_stmt 0 view .LVU363
 1229 01a8 7EE7     		b	.L51
 1230              	.LVL141:
 1231              	.L94:
 427:D:/fchai/work/i-cube/I-CUBE-HUAWEI/Middlewares/Third_Party/Huawei/iot_link/network/dtls/mbedtls/mbedtls-2.16.2/library\pkparse.c **** }
 1232              		.loc 1 427 5 view .LVU364
 1233              	.LBE52:
 1234              	.LBE55:
 1235              	.LBB56:
 1236              	.LBB44:
 314:D:/fchai/work/i-cube/I-CUBE-HUAWEI/Middlewares/Third_Party/Huawei/iot_link/network/dtls/mbedtls/mbedtls-2.16.2/library\pkparse.c **** 
 1237              		.loc 1 314 5 is_stmt 1 view .LVU365
 314:D:/fchai/work/i-cube/I-CUBE-HUAWEI/Middlewares/Third_Party/Huawei/iot_link/network/dtls/mbedtls/mbedtls-2.16.2/library\pkparse.c **** 
 1238              		.loc 1 314 15 is_stmt 0 view .LVU366
 1239 01aa DDE90273 		ldrd	r7, r3, [sp, #8]
 1240              	.LVL142:
 314:D:/fchai/work/i-cube/I-CUBE-HUAWEI/Middlewares/Third_Party/Huawei/iot_link/network/dtls/mbedtls/mbedtls-2.16.2/library\pkparse.c **** 
 1241              		.loc 1 314 15 view .LVU367
 1242 01ae 1F44     		add	r7, r7, r3
 1243              	.LVL143:
 320:D:/fchai/work/i-cube/I-CUBE-HUAWEI/Middlewares/Third_Party/Huawei/iot_link/network/dtls/mbedtls/mbedtls-2.16.2/library\pkparse.c ****         ( ret = mbedtls_mpi_read_binary( &grp->A, p, len ) ) != 0 )
 1244              		.loc 1 320 5 is_stmt 1 view .LVU368
 320:D:/fchai/work/i-cube/I-CUBE-HUAWEI/Middlewares/Third_Party/Huawei/iot_link/network/dtls/mbedtls/mbedtls-2.16.2/library\pkparse.c ****         ( ret = mbedtls_mpi_read_binary( &grp->A, p, len ) ) != 0 )
 1245              		.loc 1 320 17 is_stmt 0 view .LVU369
 1246 01b0 3946     		mov	r1, r7
 1247 01b2 0423     		movs	r3, #4
 1248 01b4 03AA     		add	r2, sp, #12
 1249              	.LVL144:
 320:D:/fchai/work/i-cube/I-CUBE-HUAWEI/Middlewares/Third_Party/Huawei/iot_link/network/dtls/mbedtls/mbedtls-2.16.2/library\pkparse.c ****         ( ret = mbedtls_mpi_read_binary( &grp->A, p, len ) ) != 0 )
 1250              		.loc 1 320 17 view .LVU370
 1251 01b6 02A8     		add	r0, sp, #8
 1252              	.LVL145:
 320:D:/fchai/work/i-cube/I-CUBE-HUAWEI/Middlewares/Third_Party/Huawei/iot_link/network/dtls/mbedtls/mbedtls-2.16.2/library\pkparse.c ****         ( ret = mbedtls_mpi_read_binary( &grp->A, p, len ) ) != 0 )
 1253              		.loc 1 320 17 view .LVU371
 1254 01b8 FFF7FEFF 		bl	mbedtls_asn1_get_tag
 1255              	.LVL146:
 320:D:/fchai/work/i-cube/I-CUBE-HUAWEI/Middlewares/Third_Party/Huawei/iot_link/network/dtls/mbedtls/mbedtls-2.16.2/library\pkparse.c ****         ( ret = mbedtls_mpi_read_binary( &grp->A, p, len ) ) != 0 )
 1256              		.loc 1 320 7 view .LVU372
 1257 01bc 0028     		cmp	r0, #0
 1258 01be 7FF479AF 		bne	.L91
 321:D:/fchai/work/i-cube/I-CUBE-HUAWEI/Middlewares/Third_Party/Huawei/iot_link/network/dtls/mbedtls/mbedtls-2.16.2/library\pkparse.c ****     {
 1259              		.loc 1 321 17 view .LVU373
ARM GAS  T:\msys\tmp\cc83OHoG.s 			page 43


 1260 01c2 DDE90212 		ldrd	r1, r2, [sp, #8]
 1261 01c6 08A8     		add	r0, sp, #32
 1262              	.LVL147:
 321:D:/fchai/work/i-cube/I-CUBE-HUAWEI/Middlewares/Third_Party/Huawei/iot_link/network/dtls/mbedtls/mbedtls-2.16.2/library\pkparse.c ****     {
 1263              		.loc 1 321 17 view .LVU374
 1264 01c8 FFF7FEFF 		bl	mbedtls_mpi_read_binary
 1265              	.LVL148:
 320:D:/fchai/work/i-cube/I-CUBE-HUAWEI/Middlewares/Third_Party/Huawei/iot_link/network/dtls/mbedtls/mbedtls-2.16.2/library\pkparse.c ****         ( ret = mbedtls_mpi_read_binary( &grp->A, p, len ) ) != 0 )
 1266              		.loc 1 320 95 view .LVU375
 1267 01cc 0028     		cmp	r0, #0
 1268 01ce 7FF471AF 		bne	.L91
 326:D:/fchai/work/i-cube/I-CUBE-HUAWEI/Middlewares/Third_Party/Huawei/iot_link/network/dtls/mbedtls/mbedtls-2.16.2/library\pkparse.c **** 
 1269              		.loc 1 326 5 is_stmt 1 view .LVU376
 326:D:/fchai/work/i-cube/I-CUBE-HUAWEI/Middlewares/Third_Party/Huawei/iot_link/network/dtls/mbedtls/mbedtls-2.16.2/library\pkparse.c **** 
 1270              		.loc 1 326 7 is_stmt 0 view .LVU377
 1271 01d2 DDE90224 		ldrd	r2, r4, [sp, #8]
 328:D:/fchai/work/i-cube/I-CUBE-HUAWEI/Middlewares/Third_Party/Huawei/iot_link/network/dtls/mbedtls/mbedtls-2.16.2/library\pkparse.c ****         ( ret = mbedtls_mpi_read_binary( &grp->B, p, len ) ) != 0 )
 1272              		.loc 1 328 17 view .LVU378
 1273 01d6 0423     		movs	r3, #4
 326:D:/fchai/work/i-cube/I-CUBE-HUAWEI/Middlewares/Third_Party/Huawei/iot_link/network/dtls/mbedtls/mbedtls-2.16.2/library\pkparse.c **** 
 1274              		.loc 1 326 7 view .LVU379
 1275 01d8 1444     		add	r4, r4, r2
 328:D:/fchai/work/i-cube/I-CUBE-HUAWEI/Middlewares/Third_Party/Huawei/iot_link/network/dtls/mbedtls/mbedtls-2.16.2/library\pkparse.c ****         ( ret = mbedtls_mpi_read_binary( &grp->B, p, len ) ) != 0 )
 1276              		.loc 1 328 17 view .LVU380
 1277 01da 3946     		mov	r1, r7
 1278 01dc 03AA     		add	r2, sp, #12
 1279              	.LVL149:
 328:D:/fchai/work/i-cube/I-CUBE-HUAWEI/Middlewares/Third_Party/Huawei/iot_link/network/dtls/mbedtls/mbedtls-2.16.2/library\pkparse.c ****         ( ret = mbedtls_mpi_read_binary( &grp->B, p, len ) ) != 0 )
 1280              		.loc 1 328 17 view .LVU381
 1281 01de 02A8     		add	r0, sp, #8
 1282              	.LVL150:
 326:D:/fchai/work/i-cube/I-CUBE-HUAWEI/Middlewares/Third_Party/Huawei/iot_link/network/dtls/mbedtls/mbedtls-2.16.2/library\pkparse.c **** 
 1283              		.loc 1 326 7 view .LVU382
 1284 01e0 0294     		str	r4, [sp, #8]
 328:D:/fchai/work/i-cube/I-CUBE-HUAWEI/Middlewares/Third_Party/Huawei/iot_link/network/dtls/mbedtls/mbedtls-2.16.2/library\pkparse.c ****         ( ret = mbedtls_mpi_read_binary( &grp->B, p, len ) ) != 0 )
 1285              		.loc 1 328 5 is_stmt 1 view .LVU383
 328:D:/fchai/work/i-cube/I-CUBE-HUAWEI/Middlewares/Third_Party/Huawei/iot_link/network/dtls/mbedtls/mbedtls-2.16.2/library\pkparse.c ****         ( ret = mbedtls_mpi_read_binary( &grp->B, p, len ) ) != 0 )
 1286              		.loc 1 328 17 is_stmt 0 view .LVU384
 1287 01e2 FFF7FEFF 		bl	mbedtls_asn1_get_tag
 1288              	.LVL151:
 328:D:/fchai/work/i-cube/I-CUBE-HUAWEI/Middlewares/Third_Party/Huawei/iot_link/network/dtls/mbedtls/mbedtls-2.16.2/library\pkparse.c ****         ( ret = mbedtls_mpi_read_binary( &grp->B, p, len ) ) != 0 )
 1289              		.loc 1 328 7 view .LVU385
 1290 01e6 0028     		cmp	r0, #0
 1291 01e8 7FF464AF 		bne	.L91
 329:D:/fchai/work/i-cube/I-CUBE-HUAWEI/Middlewares/Third_Party/Huawei/iot_link/network/dtls/mbedtls/mbedtls-2.16.2/library\pkparse.c ****     {
 1292              		.loc 1 329 17 view .LVU386
 1293 01ec DDE90212 		ldrd	r1, r2, [sp, #8]
 1294 01f0 0BA8     		add	r0, sp, #44
 1295              	.LVL152:
 329:D:/fchai/work/i-cube/I-CUBE-HUAWEI/Middlewares/Third_Party/Huawei/iot_link/network/dtls/mbedtls/mbedtls-2.16.2/library\pkparse.c ****     {
 1296              		.loc 1 329 17 view .LVU387
 1297 01f2 FFF7FEFF 		bl	mbedtls_mpi_read_binary
 1298              	.LVL153:
 328:D:/fchai/work/i-cube/I-CUBE-HUAWEI/Middlewares/Third_Party/Huawei/iot_link/network/dtls/mbedtls/mbedtls-2.16.2/library\pkparse.c ****         ( ret = mbedtls_mpi_read_binary( &grp->B, p, len ) ) != 0 )
 1299              		.loc 1 328 95 view .LVU388
 1300 01f6 0028     		cmp	r0, #0
 1301 01f8 7FF45CAF 		bne	.L91
ARM GAS  T:\msys\tmp\cc83OHoG.s 			page 44


 334:D:/fchai/work/i-cube/I-CUBE-HUAWEI/Middlewares/Third_Party/Huawei/iot_link/network/dtls/mbedtls/mbedtls-2.16.2/library\pkparse.c **** 
 1302              		.loc 1 334 5 is_stmt 1 view .LVU389
 334:D:/fchai/work/i-cube/I-CUBE-HUAWEI/Middlewares/Third_Party/Huawei/iot_link/network/dtls/mbedtls/mbedtls-2.16.2/library\pkparse.c **** 
 1303              		.loc 1 334 7 is_stmt 0 view .LVU390
 1304 01fc DDE90224 		ldrd	r2, r4, [sp, #8]
 337:D:/fchai/work/i-cube/I-CUBE-HUAWEI/Middlewares/Third_Party/Huawei/iot_link/network/dtls/mbedtls/mbedtls-2.16.2/library\pkparse.c ****         p += len;
 1305              		.loc 1 337 17 view .LVU391
 1306 0200 0323     		movs	r3, #3
 334:D:/fchai/work/i-cube/I-CUBE-HUAWEI/Middlewares/Third_Party/Huawei/iot_link/network/dtls/mbedtls/mbedtls-2.16.2/library\pkparse.c **** 
 1307              		.loc 1 334 7 view .LVU392
 1308 0202 1444     		add	r4, r4, r2
 337:D:/fchai/work/i-cube/I-CUBE-HUAWEI/Middlewares/Third_Party/Huawei/iot_link/network/dtls/mbedtls/mbedtls-2.16.2/library\pkparse.c ****         p += len;
 1309              		.loc 1 337 17 view .LVU393
 1310 0204 3946     		mov	r1, r7
 1311 0206 03AA     		add	r2, sp, #12
 1312              	.LVL154:
 337:D:/fchai/work/i-cube/I-CUBE-HUAWEI/Middlewares/Third_Party/Huawei/iot_link/network/dtls/mbedtls/mbedtls-2.16.2/library\pkparse.c ****         p += len;
 1313              		.loc 1 337 17 view .LVU394
 1314 0208 02A8     		add	r0, sp, #8
 1315              	.LVL155:
 334:D:/fchai/work/i-cube/I-CUBE-HUAWEI/Middlewares/Third_Party/Huawei/iot_link/network/dtls/mbedtls/mbedtls-2.16.2/library\pkparse.c **** 
 1316              		.loc 1 334 7 view .LVU395
 1317 020a 0294     		str	r4, [sp, #8]
 337:D:/fchai/work/i-cube/I-CUBE-HUAWEI/Middlewares/Third_Party/Huawei/iot_link/network/dtls/mbedtls/mbedtls-2.16.2/library\pkparse.c ****         p += len;
 1318              		.loc 1 337 5 is_stmt 1 view .LVU396
 337:D:/fchai/work/i-cube/I-CUBE-HUAWEI/Middlewares/Third_Party/Huawei/iot_link/network/dtls/mbedtls/mbedtls-2.16.2/library\pkparse.c ****         p += len;
 1319              		.loc 1 337 17 is_stmt 0 view .LVU397
 1320 020c FFF7FEFF 		bl	mbedtls_asn1_get_tag
 1321              	.LVL156:
 337:D:/fchai/work/i-cube/I-CUBE-HUAWEI/Middlewares/Third_Party/Huawei/iot_link/network/dtls/mbedtls/mbedtls-2.16.2/library\pkparse.c ****         p += len;
 1322              		.loc 1 337 7 view .LVU398
 1323 0210 18B9     		cbnz	r0, .L61
 338:D:/fchai/work/i-cube/I-CUBE-HUAWEI/Middlewares/Third_Party/Huawei/iot_link/network/dtls/mbedtls/mbedtls-2.16.2/library\pkparse.c **** 
 1324              		.loc 1 338 9 is_stmt 1 view .LVU399
 338:D:/fchai/work/i-cube/I-CUBE-HUAWEI/Middlewares/Third_Party/Huawei/iot_link/network/dtls/mbedtls/mbedtls-2.16.2/library\pkparse.c **** 
 1325              		.loc 1 338 11 is_stmt 0 view .LVU400
 1326 0212 DDE90232 		ldrd	r3, r2, [sp, #8]
 1327 0216 1344     		add	r3, r3, r2
 1328 0218 0293     		str	r3, [sp, #8]
 1329              	.L61:
 340:D:/fchai/work/i-cube/I-CUBE-HUAWEI/Middlewares/Third_Party/Huawei/iot_link/network/dtls/mbedtls/mbedtls-2.16.2/library\pkparse.c ****         return( MBEDTLS_ERR_PK_KEY_INVALID_FORMAT +
 1330              		.loc 1 340 5 is_stmt 1 view .LVU401
 340:D:/fchai/work/i-cube/I-CUBE-HUAWEI/Middlewares/Third_Party/Huawei/iot_link/network/dtls/mbedtls/mbedtls-2.16.2/library\pkparse.c ****         return( MBEDTLS_ERR_PK_KEY_INVALID_FORMAT +
 1331              		.loc 1 340 7 is_stmt 0 view .LVU402
 1332 021a 029B     		ldr	r3, [sp, #8]
 1333 021c 9F42     		cmp	r7, r3
 1334 021e 53D1     		bne	.L77
 347:D:/fchai/work/i-cube/I-CUBE-HUAWEI/Middlewares/Third_Party/Huawei/iot_link/network/dtls/mbedtls/mbedtls-2.16.2/library\pkparse.c ****         return( MBEDTLS_ERR_PK_KEY_INVALID_FORMAT + ret );
 1335              		.loc 1 347 5 is_stmt 1 view .LVU403
 347:D:/fchai/work/i-cube/I-CUBE-HUAWEI/Middlewares/Third_Party/Huawei/iot_link/network/dtls/mbedtls/mbedtls-2.16.2/library\pkparse.c ****         return( MBEDTLS_ERR_PK_KEY_INVALID_FORMAT + ret );
 1336              		.loc 1 347 17 is_stmt 0 view .LVU404
 1337 0220 03AA     		add	r2, sp, #12
 1338              	.LVL157:
 347:D:/fchai/work/i-cube/I-CUBE-HUAWEI/Middlewares/Third_Party/Huawei/iot_link/network/dtls/mbedtls/mbedtls-2.16.2/library\pkparse.c ****         return( MBEDTLS_ERR_PK_KEY_INVALID_FORMAT + ret );
 1339              		.loc 1 347 17 view .LVU405
 1340 0222 0423     		movs	r3, #4
 1341 0224 3146     		mov	r1, r6
ARM GAS  T:\msys\tmp\cc83OHoG.s 			page 45


 1342 0226 02A8     		add	r0, sp, #8
 1343              	.LVL158:
 347:D:/fchai/work/i-cube/I-CUBE-HUAWEI/Middlewares/Third_Party/Huawei/iot_link/network/dtls/mbedtls/mbedtls-2.16.2/library\pkparse.c ****         return( MBEDTLS_ERR_PK_KEY_INVALID_FORMAT + ret );
 1344              		.loc 1 347 17 view .LVU406
 1345 0228 FFF7FEFF 		bl	mbedtls_asn1_get_tag
 1346              	.LVL159:
 347:D:/fchai/work/i-cube/I-CUBE-HUAWEI/Middlewares/Third_Party/Huawei/iot_link/network/dtls/mbedtls/mbedtls-2.16.2/library\pkparse.c ****         return( MBEDTLS_ERR_PK_KEY_INVALID_FORMAT + ret );
 1347              		.loc 1 347 7 view .LVU407
 1348 022c 0028     		cmp	r0, #0
 1349 022e 7FF441AF 		bne	.L91
 350:D:/fchai/work/i-cube/I-CUBE-HUAWEI/Middlewares/Third_Party/Huawei/iot_link/network/dtls/mbedtls/mbedtls-2.16.2/library\pkparse.c ****                                       ( const unsigned char *) p, len ) ) != 0 )
 1350              		.loc 1 350 5 is_stmt 1 view .LVU408
 350:D:/fchai/work/i-cube/I-CUBE-HUAWEI/Middlewares/Third_Party/Huawei/iot_link/network/dtls/mbedtls/mbedtls-2.16.2/library\pkparse.c ****                                       ( const unsigned char *) p, len ) ) != 0 )
 1351              		.loc 1 350 17 is_stmt 0 view .LVU409
 1352 0232 DDE90223 		ldrd	r2, r3, [sp, #8]
 1353 0236 0EA9     		add	r1, sp, #56
 1354 0238 04A8     		add	r0, sp, #16
 1355              	.LVL160:
 350:D:/fchai/work/i-cube/I-CUBE-HUAWEI/Middlewares/Third_Party/Huawei/iot_link/network/dtls/mbedtls/mbedtls-2.16.2/library\pkparse.c ****                                       ( const unsigned char *) p, len ) ) != 0 )
 1356              		.loc 1 350 17 view .LVU410
 1357 023a FFF7FEFF 		bl	mbedtls_ecp_point_read_binary
 1358              	.LVL161:
 350:D:/fchai/work/i-cube/I-CUBE-HUAWEI/Middlewares/Third_Party/Huawei/iot_link/network/dtls/mbedtls/mbedtls-2.16.2/library\pkparse.c ****                                       ( const unsigned char *) p, len ) ) != 0 )
 1359              		.loc 1 350 7 view .LVU411
 1360 023e 10B3     		cbz	r0, .L63
 357:D:/fchai/work/i-cube/I-CUBE-HUAWEI/Middlewares/Third_Party/Huawei/iot_link/network/dtls/mbedtls/mbedtls-2.16.2/library\pkparse.c ****             ( p[0] != 0x02 && p[0] != 0x03 ) ||
 1361              		.loc 1 357 9 is_stmt 1 view .LVU412
 357:D:/fchai/work/i-cube/I-CUBE-HUAWEI/Middlewares/Third_Party/Huawei/iot_link/network/dtls/mbedtls/mbedtls-2.16.2/library\pkparse.c ****             ( p[0] != 0x02 && p[0] != 0x03 ) ||
 1362              		.loc 1 357 11 is_stmt 0 view .LVU413
 1363 0240 10F59D4F 		cmn	r0, #20096
 1364 0244 45D1     		bne	.L65
 358:D:/fchai/work/i-cube/I-CUBE-HUAWEI/Middlewares/Third_Party/Huawei/iot_link/network/dtls/mbedtls/mbedtls-2.16.2/library\pkparse.c ****             len != mbedtls_mpi_size( &grp->P ) + 1 ||
 1365              		.loc 1 358 16 view .LVU414
 1366 0246 029B     		ldr	r3, [sp, #8]
 358:D:/fchai/work/i-cube/I-CUBE-HUAWEI/Middlewares/Third_Party/Huawei/iot_link/network/dtls/mbedtls/mbedtls-2.16.2/library\pkparse.c ****             len != mbedtls_mpi_size( &grp->P ) + 1 ||
 1367              		.loc 1 358 28 view .LVU415
 1368 0248 1B78     		ldrb	r3, [r3]	@ zero_extendqisi2
 357:D:/fchai/work/i-cube/I-CUBE-HUAWEI/Middlewares/Third_Party/Huawei/iot_link/network/dtls/mbedtls/mbedtls-2.16.2/library\pkparse.c ****             ( p[0] != 0x02 && p[0] != 0x03 ) ||
 1369              		.loc 1 357 56 view .LVU416
 1370 024a 023B     		subs	r3, r3, #2
 1371 024c 012B     		cmp	r3, #1
 1372 024e 40D8     		bhi	.L65
 359:D:/fchai/work/i-cube/I-CUBE-HUAWEI/Middlewares/Third_Party/Huawei/iot_link/network/dtls/mbedtls/mbedtls-2.16.2/library\pkparse.c ****             mbedtls_mpi_read_binary( &grp->G.X, p + 1, len - 1 ) != 0 ||
 1373              		.loc 1 359 20 view .LVU417
 1374 0250 05A8     		add	r0, sp, #20
 1375              	.LVL162:
 359:D:/fchai/work/i-cube/I-CUBE-HUAWEI/Middlewares/Third_Party/Huawei/iot_link/network/dtls/mbedtls/mbedtls-2.16.2/library\pkparse.c ****             mbedtls_mpi_read_binary( &grp->G.X, p + 1, len - 1 ) != 0 ||
 1376              		.loc 1 359 20 view .LVU418
 1377 0252 FFF7FEFF 		bl	mbedtls_mpi_size
 1378              	.LVL163:
 359:D:/fchai/work/i-cube/I-CUBE-HUAWEI/Middlewares/Third_Party/Huawei/iot_link/network/dtls/mbedtls/mbedtls-2.16.2/library\pkparse.c ****             mbedtls_mpi_read_binary( &grp->G.X, p + 1, len - 1 ) != 0 ||
 1379              		.loc 1 359 17 view .LVU419
 1380 0256 039B     		ldr	r3, [sp, #12]
 359:D:/fchai/work/i-cube/I-CUBE-HUAWEI/Middlewares/Third_Party/Huawei/iot_link/network/dtls/mbedtls/mbedtls-2.16.2/library\pkparse.c ****             mbedtls_mpi_read_binary( &grp->G.X, p + 1, len - 1 ) != 0 ||
 1381              		.loc 1 359 48 view .LVU420
 1382 0258 411C     		adds	r1, r0, #1
 358:D:/fchai/work/i-cube/I-CUBE-HUAWEI/Middlewares/Third_Party/Huawei/iot_link/network/dtls/mbedtls/mbedtls-2.16.2/library\pkparse.c ****             len != mbedtls_mpi_size( &grp->P ) + 1 ||
ARM GAS  T:\msys\tmp\cc83OHoG.s 			page 46


 1383              		.loc 1 358 46 view .LVU421
 1384 025a 9942     		cmp	r1, r3
 359:D:/fchai/work/i-cube/I-CUBE-HUAWEI/Middlewares/Third_Party/Huawei/iot_link/network/dtls/mbedtls/mbedtls-2.16.2/library\pkparse.c ****             mbedtls_mpi_read_binary( &grp->G.X, p + 1, len - 1 ) != 0 ||
 1385              		.loc 1 359 20 view .LVU422
 1386 025c 0246     		mov	r2, r0
 358:D:/fchai/work/i-cube/I-CUBE-HUAWEI/Middlewares/Third_Party/Huawei/iot_link/network/dtls/mbedtls/mbedtls-2.16.2/library\pkparse.c ****             len != mbedtls_mpi_size( &grp->P ) + 1 ||
 1387              		.loc 1 358 46 view .LVU423
 1388 025e 38D1     		bne	.L65
 360:D:/fchai/work/i-cube/I-CUBE-HUAWEI/Middlewares/Third_Party/Huawei/iot_link/network/dtls/mbedtls/mbedtls-2.16.2/library\pkparse.c ****             mbedtls_mpi_lset( &grp->G.Y, p[0] - 2 ) != 0 ||
 1389              		.loc 1 360 51 view .LVU424
 1390 0260 0299     		ldr	r1, [sp, #8]
 360:D:/fchai/work/i-cube/I-CUBE-HUAWEI/Middlewares/Third_Party/Huawei/iot_link/network/dtls/mbedtls/mbedtls-2.16.2/library\pkparse.c ****             mbedtls_mpi_lset( &grp->G.Y, p[0] - 2 ) != 0 ||
 1391              		.loc 1 360 13 view .LVU425
 1392 0262 0EA8     		add	r0, sp, #56
 1393 0264 0131     		adds	r1, r1, #1
 1394 0266 FFF7FEFF 		bl	mbedtls_mpi_read_binary
 1395              	.LVL164:
 359:D:/fchai/work/i-cube/I-CUBE-HUAWEI/Middlewares/Third_Party/Huawei/iot_link/network/dtls/mbedtls/mbedtls-2.16.2/library\pkparse.c ****             mbedtls_mpi_read_binary( &grp->G.X, p + 1, len - 1 ) != 0 ||
 1396              		.loc 1 359 52 view .LVU426
 1397 026a 0028     		cmp	r0, #0
 1398 026c 31D1     		bne	.L65
 361:D:/fchai/work/i-cube/I-CUBE-HUAWEI/Middlewares/Third_Party/Huawei/iot_link/network/dtls/mbedtls/mbedtls-2.16.2/library\pkparse.c ****             mbedtls_mpi_lset( &grp->G.Z, 1 ) != 0 )
 1399              		.loc 1 361 43 view .LVU427
 1400 026e 029B     		ldr	r3, [sp, #8]
 1401 0270 1978     		ldrb	r1, [r3]	@ zero_extendqisi2
 361:D:/fchai/work/i-cube/I-CUBE-HUAWEI/Middlewares/Third_Party/Huawei/iot_link/network/dtls/mbedtls/mbedtls-2.16.2/library\pkparse.c ****             mbedtls_mpi_lset( &grp->G.Z, 1 ) != 0 )
 1402              		.loc 1 361 13 view .LVU428
 1403 0272 11A8     		add	r0, sp, #68
 1404 0274 0239     		subs	r1, r1, #2
 1405 0276 FFF7FEFF 		bl	mbedtls_mpi_lset
 1406              	.LVL165:
 360:D:/fchai/work/i-cube/I-CUBE-HUAWEI/Middlewares/Third_Party/Huawei/iot_link/network/dtls/mbedtls/mbedtls-2.16.2/library\pkparse.c ****             mbedtls_mpi_lset( &grp->G.Y, p[0] - 2 ) != 0 ||
 1407              		.loc 1 360 71 view .LVU429
 1408 027a 50BB     		cbnz	r0, .L65
 362:D:/fchai/work/i-cube/I-CUBE-HUAWEI/Middlewares/Third_Party/Huawei/iot_link/network/dtls/mbedtls/mbedtls-2.16.2/library\pkparse.c ****         {
 1409              		.loc 1 362 13 view .LVU430
 1410 027c 0121     		movs	r1, #1
 1411 027e 14A8     		add	r0, sp, #80
 1412 0280 FFF7FEFF 		bl	mbedtls_mpi_lset
 1413              	.LVL166:
 361:D:/fchai/work/i-cube/I-CUBE-HUAWEI/Middlewares/Third_Party/Huawei/iot_link/network/dtls/mbedtls/mbedtls-2.16.2/library\pkparse.c ****             mbedtls_mpi_lset( &grp->G.Z, 1 ) != 0 )
 1414              		.loc 1 361 58 view .LVU431
 1415 0284 28BB     		cbnz	r0, .L65
 1416              	.L63:
 368:D:/fchai/work/i-cube/I-CUBE-HUAWEI/Middlewares/Third_Party/Huawei/iot_link/network/dtls/mbedtls/mbedtls-2.16.2/library\pkparse.c **** 
 1417              		.loc 1 368 5 is_stmt 1 view .LVU432
 368:D:/fchai/work/i-cube/I-CUBE-HUAWEI/Middlewares/Third_Party/Huawei/iot_link/network/dtls/mbedtls/mbedtls-2.16.2/library\pkparse.c **** 
 1418              		.loc 1 368 7 is_stmt 0 view .LVU433
 1419 0286 DDE90232 		ldrd	r3, r2, [sp, #8]
 373:D:/fchai/work/i-cube/I-CUBE-HUAWEI/Middlewares/Third_Party/Huawei/iot_link/network/dtls/mbedtls/mbedtls-2.16.2/library\pkparse.c ****         return( MBEDTLS_ERR_PK_KEY_INVALID_FORMAT + ret );
 1420              		.loc 1 373 17 view .LVU434
 1421 028a 3146     		mov	r1, r6
 368:D:/fchai/work/i-cube/I-CUBE-HUAWEI/Middlewares/Third_Party/Huawei/iot_link/network/dtls/mbedtls/mbedtls-2.16.2/library\pkparse.c **** 
 1422              		.loc 1 368 7 view .LVU435
 1423 028c 1344     		add	r3, r3, r2
 373:D:/fchai/work/i-cube/I-CUBE-HUAWEI/Middlewares/Third_Party/Huawei/iot_link/network/dtls/mbedtls/mbedtls-2.16.2/library\pkparse.c ****         return( MBEDTLS_ERR_PK_KEY_INVALID_FORMAT + ret );
 1424              		.loc 1 373 17 view .LVU436
ARM GAS  T:\msys\tmp\cc83OHoG.s 			page 47


 1425 028e 02A8     		add	r0, sp, #8
 1426 0290 17AA     		add	r2, sp, #92
 368:D:/fchai/work/i-cube/I-CUBE-HUAWEI/Middlewares/Third_Party/Huawei/iot_link/network/dtls/mbedtls/mbedtls-2.16.2/library\pkparse.c **** 
 1427              		.loc 1 368 7 view .LVU437
 1428 0292 0293     		str	r3, [sp, #8]
 373:D:/fchai/work/i-cube/I-CUBE-HUAWEI/Middlewares/Third_Party/Huawei/iot_link/network/dtls/mbedtls/mbedtls-2.16.2/library\pkparse.c ****         return( MBEDTLS_ERR_PK_KEY_INVALID_FORMAT + ret );
 1429              		.loc 1 373 5 is_stmt 1 view .LVU438
 373:D:/fchai/work/i-cube/I-CUBE-HUAWEI/Middlewares/Third_Party/Huawei/iot_link/network/dtls/mbedtls/mbedtls-2.16.2/library\pkparse.c ****         return( MBEDTLS_ERR_PK_KEY_INVALID_FORMAT + ret );
 1430              		.loc 1 373 17 is_stmt 0 view .LVU439
 1431 0294 FFF7FEFF 		bl	mbedtls_asn1_get_mpi
 1432              	.LVL167:
 373:D:/fchai/work/i-cube/I-CUBE-HUAWEI/Middlewares/Third_Party/Huawei/iot_link/network/dtls/mbedtls/mbedtls-2.16.2/library\pkparse.c ****         return( MBEDTLS_ERR_PK_KEY_INVALID_FORMAT + ret );
 1433              		.loc 1 373 7 view .LVU440
 1434 0298 0028     		cmp	r0, #0
 1435 029a 7FF40BAF 		bne	.L91
 376:D:/fchai/work/i-cube/I-CUBE-HUAWEI/Middlewares/Third_Party/Huawei/iot_link/network/dtls/mbedtls/mbedtls-2.16.2/library\pkparse.c **** 
 1436              		.loc 1 376 5 is_stmt 1 view .LVU441
 376:D:/fchai/work/i-cube/I-CUBE-HUAWEI/Middlewares/Third_Party/Huawei/iot_link/network/dtls/mbedtls/mbedtls-2.16.2/library\pkparse.c **** 
 1437              		.loc 1 376 18 is_stmt 0 view .LVU442
 1438 029e 17A8     		add	r0, sp, #92
 1439              	.LVL168:
 376:D:/fchai/work/i-cube/I-CUBE-HUAWEI/Middlewares/Third_Party/Huawei/iot_link/network/dtls/mbedtls/mbedtls-2.16.2/library\pkparse.c **** 
 1440              		.loc 1 376 18 view .LVU443
 1441 02a0 FFF7FEFF 		bl	mbedtls_mpi_bitlen
 1442              	.LVL169:
 376:D:/fchai/work/i-cube/I-CUBE-HUAWEI/Middlewares/Third_Party/Huawei/iot_link/network/dtls/mbedtls/mbedtls-2.16.2/library\pkparse.c **** 
 1443              		.loc 1 376 16 view .LVU444
 1444 02a4 1B90     		str	r0, [sp, #108]
 382:D:/fchai/work/i-cube/I-CUBE-HUAWEI/Middlewares/Third_Party/Huawei/iot_link/network/dtls/mbedtls/mbedtls-2.16.2/library\pkparse.c **** }
 1445              		.loc 1 382 5 is_stmt 1 view .LVU445
 1446              	.LVL170:
 382:D:/fchai/work/i-cube/I-CUBE-HUAWEI/Middlewares/Third_Party/Huawei/iot_link/network/dtls/mbedtls/mbedtls-2.16.2/library\pkparse.c **** }
 1447              		.loc 1 382 5 is_stmt 0 view .LVU446
 1448 02a6 09E7     		b	.L67
 1449              	.LVL171:
 1450              	.L80:
 382:D:/fchai/work/i-cube/I-CUBE-HUAWEI/Middlewares/Third_Party/Huawei/iot_link/network/dtls/mbedtls/mbedtls-2.16.2/library\pkparse.c **** }
 1451              		.loc 1 382 5 view .LVU447
 1452              	.LBE44:
 1453              	.LBE56:
 1454              	.LBE64:
 1455              	.LBE68:
 485:D:/fchai/work/i-cube/I-CUBE-HUAWEI/Middlewares/Third_Party/Huawei/iot_link/network/dtls/mbedtls/mbedtls-2.16.2/library\pkparse.c **** 
 1456              		.loc 1 485 15 view .LVU448
 1457 02a8 0D4C     		ldr	r4, .L97+4
 1458 02aa 00E7     		b	.L44
 1459              	.LVL172:
 1460              	.L93:
 1461              	.LBB69:
 1462              	.LBB65:
 1463              	.LBB57:
 1464              	.LBB45:
 258:D:/fchai/work/i-cube/I-CUBE-HUAWEI/Middlewares/Third_Party/Huawei/iot_link/network/dtls/mbedtls/mbedtls-2.16.2/library\pkparse.c **** 
 1465              		.loc 1 258 15 view .LVU449
 1466 02ac 0C4C     		ldr	r4, .L97+4
 1467              	.LVL173:
 258:D:/fchai/work/i-cube/I-CUBE-HUAWEI/Middlewares/Third_Party/Huawei/iot_link/network/dtls/mbedtls/mbedtls-2.16.2/library\pkparse.c **** 
ARM GAS  T:\msys\tmp\cc83OHoG.s 			page 48


 1468              		.loc 1 258 15 view .LVU450
 1469 02ae FBE6     		b	.L51
 1470              	.LVL174:
 1471              	.L54:
 258:D:/fchai/work/i-cube/I-CUBE-HUAWEI/Middlewares/Third_Party/Huawei/iot_link/network/dtls/mbedtls/mbedtls-2.16.2/library\pkparse.c **** 
 1472              		.loc 1 258 15 view .LVU451
 1473              	.LBE45:
 1474              	.LBE57:
 447:D:/fchai/work/i-cube/I-CUBE-HUAWEI/Middlewares/Third_Party/Huawei/iot_link/network/dtls/mbedtls/mbedtls-2.16.2/library\pkparse.c **** 
 1475              		.loc 1 447 5 is_stmt 1 view .LVU452
 1476 02b0 04A8     		add	r0, sp, #16
 1477 02b2 FFF7FEFF 		bl	mbedtls_ecp_group_free
 1478              	.LVL175:
 449:D:/fchai/work/i-cube/I-CUBE-HUAWEI/Middlewares/Third_Party/Huawei/iot_link/network/dtls/mbedtls/mbedtls-2.16.2/library\pkparse.c **** }
 1479              		.loc 1 449 5 view .LVU453
 1480              	.LBB58:
 1481              	.LBB46:
 286:D:/fchai/work/i-cube/I-CUBE-HUAWEI/Middlewares/Third_Party/Huawei/iot_link/network/dtls/mbedtls/mbedtls-2.16.2/library\pkparse.c ****     }
 1482              		.loc 1 286 15 is_stmt 0 view .LVU454
 1483 02b6 0B4C     		ldr	r4, .L97+8
 1484 02b8 F9E6     		b	.L44
 1485              	.LVL176:
 1486              	.L96:
 286:D:/fchai/work/i-cube/I-CUBE-HUAWEI/Middlewares/Third_Party/Huawei/iot_link/network/dtls/mbedtls/mbedtls-2.16.2/library\pkparse.c ****     }
 1487              		.loc 1 286 15 view .LVU455
 1488              	.LBE46:
 1489              	.LBE58:
 1490              	.LBE65:
 1491              	.LBE69:
 469:D:/fchai/work/i-cube/I-CUBE-HUAWEI/Middlewares/Third_Party/Huawei/iot_link/network/dtls/mbedtls/mbedtls-2.16.2/library\pkparse.c ****     }
 1492              		.loc 1 469 19 view .LVU456
 1493 02ba 0B4C     		ldr	r4, .L97+12
 1494 02bc F7E6     		b	.L44
 1495              	.LVL177:
 1496              	.L95:
 1497              	.LBB70:
 1498              	.LBB66:
 1499              	.LBB59:
 1500              	.LBB53:
 425:D:/fchai/work/i-cube/I-CUBE-HUAWEI/Middlewares/Third_Party/Huawei/iot_link/network/dtls/mbedtls/mbedtls-2.16.2/library\pkparse.c **** 
 1501              		.loc 1 425 9 is_stmt 1 view .LVU457
 427:D:/fchai/work/i-cube/I-CUBE-HUAWEI/Middlewares/Third_Party/Huawei/iot_link/network/dtls/mbedtls/mbedtls-2.16.2/library\pkparse.c **** }
 1502              		.loc 1 427 5 view .LVU458
 427:D:/fchai/work/i-cube/I-CUBE-HUAWEI/Middlewares/Third_Party/Huawei/iot_link/network/dtls/mbedtls/mbedtls-2.16.2/library\pkparse.c **** }
 1503              		.loc 1 427 5 is_stmt 0 view .LVU459
 1504              	.LBE53:
 1505              	.LBE59:
 447:D:/fchai/work/i-cube/I-CUBE-HUAWEI/Middlewares/Third_Party/Huawei/iot_link/network/dtls/mbedtls/mbedtls-2.16.2/library\pkparse.c **** 
 1506              		.loc 1 447 5 is_stmt 1 view .LVU460
 1507 02be 04A8     		add	r0, sp, #16
 1508 02c0 FFF7FEFF 		bl	mbedtls_ecp_group_free
 1509              	.LVL178:
 449:D:/fchai/work/i-cube/I-CUBE-HUAWEI/Middlewares/Third_Party/Huawei/iot_link/network/dtls/mbedtls/mbedtls-2.16.2/library\pkparse.c **** }
 1510              		.loc 1 449 5 view .LVU461
 1511              	.LBB60:
 1512              	.LBB54:
 425:D:/fchai/work/i-cube/I-CUBE-HUAWEI/Middlewares/Third_Party/Huawei/iot_link/network/dtls/mbedtls/mbedtls-2.16.2/library\pkparse.c **** 
ARM GAS  T:\msys\tmp\cc83OHoG.s 			page 49


 1513              		.loc 1 425 13 is_stmt 0 view .LVU462
 1514 02c4 094C     		ldr	r4, .L97+16
 1515 02c6 F2E6     		b	.L44
 1516              	.LVL179:
 1517              	.L77:
 425:D:/fchai/work/i-cube/I-CUBE-HUAWEI/Middlewares/Third_Party/Huawei/iot_link/network/dtls/mbedtls/mbedtls-2.16.2/library\pkparse.c **** 
 1518              		.loc 1 425 13 view .LVU463
 1519              	.LBE54:
 1520              	.LBE60:
 447:D:/fchai/work/i-cube/I-CUBE-HUAWEI/Middlewares/Third_Party/Huawei/iot_link/network/dtls/mbedtls/mbedtls-2.16.2/library\pkparse.c **** 
 1521              		.loc 1 447 5 is_stmt 1 view .LVU464
 1522 02c8 04A8     		add	r0, sp, #16
 1523 02ca FFF7FEFF 		bl	mbedtls_ecp_group_free
 1524              	.LVL180:
 449:D:/fchai/work/i-cube/I-CUBE-HUAWEI/Middlewares/Third_Party/Huawei/iot_link/network/dtls/mbedtls/mbedtls-2.16.2/library\pkparse.c **** }
 1525              		.loc 1 449 5 view .LVU465
 1526              	.LBB61:
 1527              	.LBB47:
 298:D:/fchai/work/i-cube/I-CUBE-HUAWEI/Middlewares/Third_Party/Huawei/iot_link/network/dtls/mbedtls/mbedtls-2.16.2/library\pkparse.c ****                 MBEDTLS_ERR_ASN1_LENGTH_MISMATCH );
 1528              		.loc 1 298 15 is_stmt 0 view .LVU466
 1529 02ce 084C     		ldr	r4, .L97+20
 1530 02d0 EDE6     		b	.L44
 1531              	.LVL181:
 1532              	.L65:
 298:D:/fchai/work/i-cube/I-CUBE-HUAWEI/Middlewares/Third_Party/Huawei/iot_link/network/dtls/mbedtls/mbedtls-2.16.2/library\pkparse.c ****                 MBEDTLS_ERR_ASN1_LENGTH_MISMATCH );
 1533              		.loc 1 298 15 view .LVU467
 1534              	.LBE47:
 1535              	.LBE61:
 447:D:/fchai/work/i-cube/I-CUBE-HUAWEI/Middlewares/Third_Party/Huawei/iot_link/network/dtls/mbedtls/mbedtls-2.16.2/library\pkparse.c **** 
 1536              		.loc 1 447 5 is_stmt 1 view .LVU468
 1537 02d2 04A8     		add	r0, sp, #16
 1538 02d4 FFF7FEFF 		bl	mbedtls_ecp_group_free
 1539              	.LVL182:
 449:D:/fchai/work/i-cube/I-CUBE-HUAWEI/Middlewares/Third_Party/Huawei/iot_link/network/dtls/mbedtls/mbedtls-2.16.2/library\pkparse.c **** }
 1540              		.loc 1 449 5 view .LVU469
 1541              	.LBB62:
 1542              	.LBB48:
 364:D:/fchai/work/i-cube/I-CUBE-HUAWEI/Middlewares/Third_Party/Huawei/iot_link/network/dtls/mbedtls/mbedtls-2.16.2/library\pkparse.c ****         }
 1543              		.loc 1 364 19 is_stmt 0 view .LVU470
 1544 02d8 014C     		ldr	r4, .L97+4
 1545 02da E8E6     		b	.L44
 1546              	.L98:
 1547              		.align	2
 1548              	.L97:
 1549 02dc 00000000 		.word	.LC0
 1550 02e0 00C3FFFF 		.word	-15616
 1551 02e4 80C6FFFF 		.word	-14720
 1552 02e8 00C6FFFF 		.word	-14848
 1553 02ec 80B1FFFF 		.word	-20096
 1554 02f0 9AC2FFFF 		.word	-15718
 1555              	.LBE48:
 1556              	.LBE62:
 1557              	.LBE66:
 1558              	.LBE70:
 1559              		.cfi_endproc
 1560              	.LFE17:
 1562              		.section	.text.pk_parse_key_sec1_der,"ax",%progbits
ARM GAS  T:\msys\tmp\cc83OHoG.s 			page 50


 1563              		.align	1
 1564              		.p2align 2,,3
 1565              		.syntax unified
 1566              		.thumb
 1567              		.thumb_func
 1568              		.fpu fpv4-sp-d16
 1570              	pk_parse_key_sec1_der:
 1571              	.LVL183:
 1572              	.LFB23:
 804:D:/fchai/work/i-cube/I-CUBE-HUAWEI/Middlewares/Third_Party/Huawei/iot_link/network/dtls/mbedtls/mbedtls-2.16.2/library\pkparse.c **** #endif /* MBEDTLS_RSA_C */
 805:D:/fchai/work/i-cube/I-CUBE-HUAWEI/Middlewares/Third_Party/Huawei/iot_link/network/dtls/mbedtls/mbedtls-2.16.2/library\pkparse.c **** 
 806:D:/fchai/work/i-cube/I-CUBE-HUAWEI/Middlewares/Third_Party/Huawei/iot_link/network/dtls/mbedtls/mbedtls-2.16.2/library\pkparse.c **** #if defined(MBEDTLS_ECP_C)
 807:D:/fchai/work/i-cube/I-CUBE-HUAWEI/Middlewares/Third_Party/Huawei/iot_link/network/dtls/mbedtls/mbedtls-2.16.2/library\pkparse.c **** /*
 808:D:/fchai/work/i-cube/I-CUBE-HUAWEI/Middlewares/Third_Party/Huawei/iot_link/network/dtls/mbedtls/mbedtls-2.16.2/library\pkparse.c ****  * Parse a SEC1 encoded private EC key
 809:D:/fchai/work/i-cube/I-CUBE-HUAWEI/Middlewares/Third_Party/Huawei/iot_link/network/dtls/mbedtls/mbedtls-2.16.2/library\pkparse.c ****  */
 810:D:/fchai/work/i-cube/I-CUBE-HUAWEI/Middlewares/Third_Party/Huawei/iot_link/network/dtls/mbedtls/mbedtls-2.16.2/library\pkparse.c **** static int pk_parse_key_sec1_der( mbedtls_ecp_keypair *eck,
 811:D:/fchai/work/i-cube/I-CUBE-HUAWEI/Middlewares/Third_Party/Huawei/iot_link/network/dtls/mbedtls/mbedtls-2.16.2/library\pkparse.c ****                                   const unsigned char *key,
 812:D:/fchai/work/i-cube/I-CUBE-HUAWEI/Middlewares/Third_Party/Huawei/iot_link/network/dtls/mbedtls/mbedtls-2.16.2/library\pkparse.c ****                                   size_t keylen )
 813:D:/fchai/work/i-cube/I-CUBE-HUAWEI/Middlewares/Third_Party/Huawei/iot_link/network/dtls/mbedtls/mbedtls-2.16.2/library\pkparse.c **** {
 1573              		.loc 1 813 1 is_stmt 1 view -0
 1574              		.cfi_startproc
 1575              		@ args = 0, pretend = 0, frame = 32
 1576              		@ frame_needed = 0, uses_anonymous_args = 0
 814:D:/fchai/work/i-cube/I-CUBE-HUAWEI/Middlewares/Third_Party/Huawei/iot_link/network/dtls/mbedtls/mbedtls-2.16.2/library\pkparse.c ****     int ret;
 1577              		.loc 1 814 5 view .LVU472
 815:D:/fchai/work/i-cube/I-CUBE-HUAWEI/Middlewares/Third_Party/Huawei/iot_link/network/dtls/mbedtls/mbedtls-2.16.2/library\pkparse.c ****     int version, pubkey_done;
 1578              		.loc 1 815 5 view .LVU473
 816:D:/fchai/work/i-cube/I-CUBE-HUAWEI/Middlewares/Third_Party/Huawei/iot_link/network/dtls/mbedtls/mbedtls-2.16.2/library\pkparse.c ****     size_t len;
 1579              		.loc 1 816 5 view .LVU474
 817:D:/fchai/work/i-cube/I-CUBE-HUAWEI/Middlewares/Third_Party/Huawei/iot_link/network/dtls/mbedtls/mbedtls-2.16.2/library\pkparse.c ****     mbedtls_asn1_buf params;
 1580              		.loc 1 817 5 view .LVU475
 818:D:/fchai/work/i-cube/I-CUBE-HUAWEI/Middlewares/Third_Party/Huawei/iot_link/network/dtls/mbedtls/mbedtls-2.16.2/library\pkparse.c ****     unsigned char *p = (unsigned char *) key;
 1581              		.loc 1 818 5 view .LVU476
 813:D:/fchai/work/i-cube/I-CUBE-HUAWEI/Middlewares/Third_Party/Huawei/iot_link/network/dtls/mbedtls/mbedtls-2.16.2/library\pkparse.c ****     int ret;
 1582              		.loc 1 813 1 is_stmt 0 view .LVU477
 1583 0000 F0B5     		push	{r4, r5, r6, r7, lr}
 1584              	.LCFI24:
 1585              		.cfi_def_cfa_offset 20
 1586              		.cfi_offset 4, -20
 1587              		.cfi_offset 5, -16
 1588              		.cfi_offset 6, -12
 1589              		.cfi_offset 7, -8
 1590              		.cfi_offset 14, -4
 1591 0002 8BB0     		sub	sp, sp, #44
 1592              	.LCFI25:
 1593              		.cfi_def_cfa_offset 64
 813:D:/fchai/work/i-cube/I-CUBE-HUAWEI/Middlewares/Third_Party/Huawei/iot_link/network/dtls/mbedtls/mbedtls-2.16.2/library\pkparse.c ****     int ret;
 1594              		.loc 1 813 1 view .LVU478
 1595 0004 0C46     		mov	r4, r1
 1596 0006 0546     		mov	r5, r0
 819:D:/fchai/work/i-cube/I-CUBE-HUAWEI/Middlewares/Third_Party/Huawei/iot_link/network/dtls/mbedtls/mbedtls-2.16.2/library\pkparse.c ****     unsigned char *end = p + keylen;
 820:D:/fchai/work/i-cube/I-CUBE-HUAWEI/Middlewares/Third_Party/Huawei/iot_link/network/dtls/mbedtls/mbedtls-2.16.2/library\pkparse.c ****     unsigned char *end2;
 821:D:/fchai/work/i-cube/I-CUBE-HUAWEI/Middlewares/Third_Party/Huawei/iot_link/network/dtls/mbedtls/mbedtls-2.16.2/library\pkparse.c **** 
 822:D:/fchai/work/i-cube/I-CUBE-HUAWEI/Middlewares/Third_Party/Huawei/iot_link/network/dtls/mbedtls/mbedtls-2.16.2/library\pkparse.c ****     /*
 823:D:/fchai/work/i-cube/I-CUBE-HUAWEI/Middlewares/Third_Party/Huawei/iot_link/network/dtls/mbedtls/mbedtls-2.16.2/library\pkparse.c ****      * RFC 5915, or SEC1 Appendix C.4
 824:D:/fchai/work/i-cube/I-CUBE-HUAWEI/Middlewares/Third_Party/Huawei/iot_link/network/dtls/mbedtls/mbedtls-2.16.2/library\pkparse.c ****      *
 825:D:/fchai/work/i-cube/I-CUBE-HUAWEI/Middlewares/Third_Party/Huawei/iot_link/network/dtls/mbedtls/mbedtls-2.16.2/library\pkparse.c ****      * ECPrivateKey ::= SEQUENCE {
ARM GAS  T:\msys\tmp\cc83OHoG.s 			page 51


 826:D:/fchai/work/i-cube/I-CUBE-HUAWEI/Middlewares/Third_Party/Huawei/iot_link/network/dtls/mbedtls/mbedtls-2.16.2/library\pkparse.c ****      *      version        INTEGER { ecPrivkeyVer1(1) } (ecPrivkeyVer1),
 827:D:/fchai/work/i-cube/I-CUBE-HUAWEI/Middlewares/Third_Party/Huawei/iot_link/network/dtls/mbedtls/mbedtls-2.16.2/library\pkparse.c ****      *      privateKey     OCTET STRING,
 828:D:/fchai/work/i-cube/I-CUBE-HUAWEI/Middlewares/Third_Party/Huawei/iot_link/network/dtls/mbedtls/mbedtls-2.16.2/library\pkparse.c ****      *      parameters [0] ECParameters {{ NamedCurve }} OPTIONAL,
 829:D:/fchai/work/i-cube/I-CUBE-HUAWEI/Middlewares/Third_Party/Huawei/iot_link/network/dtls/mbedtls/mbedtls-2.16.2/library\pkparse.c ****      *      publicKey  [1] BIT STRING OPTIONAL
 830:D:/fchai/work/i-cube/I-CUBE-HUAWEI/Middlewares/Third_Party/Huawei/iot_link/network/dtls/mbedtls/mbedtls-2.16.2/library\pkparse.c ****      *    }
 831:D:/fchai/work/i-cube/I-CUBE-HUAWEI/Middlewares/Third_Party/Huawei/iot_link/network/dtls/mbedtls/mbedtls-2.16.2/library\pkparse.c ****      */
 832:D:/fchai/work/i-cube/I-CUBE-HUAWEI/Middlewares/Third_Party/Huawei/iot_link/network/dtls/mbedtls/mbedtls-2.16.2/library\pkparse.c ****     if( ( ret = mbedtls_asn1_get_tag( &p, end, &len,
 1597              		.loc 1 832 17 view .LVU479
 1598 0008 1144     		add	r1, r1, r2
 1599              	.LVL184:
 1600              		.loc 1 832 17 view .LVU480
 1601 000a 06A8     		add	r0, sp, #24
 1602              	.LVL185:
 1603              		.loc 1 832 17 view .LVU481
 1604 000c 05AA     		add	r2, sp, #20
 1605              	.LVL186:
 1606              		.loc 1 832 17 view .LVU482
 1607 000e 3023     		movs	r3, #48
 818:D:/fchai/work/i-cube/I-CUBE-HUAWEI/Middlewares/Third_Party/Huawei/iot_link/network/dtls/mbedtls/mbedtls-2.16.2/library\pkparse.c ****     unsigned char *end = p + keylen;
 1608              		.loc 1 818 20 view .LVU483
 1609 0010 0694     		str	r4, [sp, #24]
 819:D:/fchai/work/i-cube/I-CUBE-HUAWEI/Middlewares/Third_Party/Huawei/iot_link/network/dtls/mbedtls/mbedtls-2.16.2/library\pkparse.c ****     unsigned char *end = p + keylen;
 1610              		.loc 1 819 5 is_stmt 1 view .LVU484
 1611              	.LVL187:
 820:D:/fchai/work/i-cube/I-CUBE-HUAWEI/Middlewares/Third_Party/Huawei/iot_link/network/dtls/mbedtls/mbedtls-2.16.2/library\pkparse.c **** 
 1612              		.loc 1 820 5 view .LVU485
 1613              		.loc 1 832 5 view .LVU486
 1614              		.loc 1 832 17 is_stmt 0 view .LVU487
 1615 0012 FFF7FEFF 		bl	mbedtls_asn1_get_tag
 1616              	.LVL188:
 1617              		.loc 1 832 7 view .LVU488
 1618 0016 20B1     		cbz	r0, .L100
 1619              	.LVL189:
 1620              	.L143:
 833:D:/fchai/work/i-cube/I-CUBE-HUAWEI/Middlewares/Third_Party/Huawei/iot_link/network/dtls/mbedtls/mbedtls-2.16.2/library\pkparse.c ****             MBEDTLS_ASN1_CONSTRUCTED | MBEDTLS_ASN1_SEQUENCE ) ) != 0 )
 834:D:/fchai/work/i-cube/I-CUBE-HUAWEI/Middlewares/Third_Party/Huawei/iot_link/network/dtls/mbedtls/mbedtls-2.16.2/library\pkparse.c ****     {
 835:D:/fchai/work/i-cube/I-CUBE-HUAWEI/Middlewares/Third_Party/Huawei/iot_link/network/dtls/mbedtls/mbedtls-2.16.2/library\pkparse.c ****         return( MBEDTLS_ERR_PK_KEY_INVALID_FORMAT + ret );
 836:D:/fchai/work/i-cube/I-CUBE-HUAWEI/Middlewares/Third_Party/Huawei/iot_link/network/dtls/mbedtls/mbedtls-2.16.2/library\pkparse.c ****     }
 837:D:/fchai/work/i-cube/I-CUBE-HUAWEI/Middlewares/Third_Party/Huawei/iot_link/network/dtls/mbedtls/mbedtls-2.16.2/library\pkparse.c **** 
 838:D:/fchai/work/i-cube/I-CUBE-HUAWEI/Middlewares/Third_Party/Huawei/iot_link/network/dtls/mbedtls/mbedtls-2.16.2/library\pkparse.c ****     end = p + len;
 839:D:/fchai/work/i-cube/I-CUBE-HUAWEI/Middlewares/Third_Party/Huawei/iot_link/network/dtls/mbedtls/mbedtls-2.16.2/library\pkparse.c **** 
 840:D:/fchai/work/i-cube/I-CUBE-HUAWEI/Middlewares/Third_Party/Huawei/iot_link/network/dtls/mbedtls/mbedtls-2.16.2/library\pkparse.c ****     if( ( ret = mbedtls_asn1_get_int( &p, end, &version ) ) != 0 )
 841:D:/fchai/work/i-cube/I-CUBE-HUAWEI/Middlewares/Third_Party/Huawei/iot_link/network/dtls/mbedtls/mbedtls-2.16.2/library\pkparse.c ****         return( MBEDTLS_ERR_PK_KEY_INVALID_FORMAT + ret );
 842:D:/fchai/work/i-cube/I-CUBE-HUAWEI/Middlewares/Third_Party/Huawei/iot_link/network/dtls/mbedtls/mbedtls-2.16.2/library\pkparse.c **** 
 843:D:/fchai/work/i-cube/I-CUBE-HUAWEI/Middlewares/Third_Party/Huawei/iot_link/network/dtls/mbedtls/mbedtls-2.16.2/library\pkparse.c ****     if( version != 1 )
 844:D:/fchai/work/i-cube/I-CUBE-HUAWEI/Middlewares/Third_Party/Huawei/iot_link/network/dtls/mbedtls/mbedtls-2.16.2/library\pkparse.c ****         return( MBEDTLS_ERR_PK_KEY_INVALID_VERSION );
 845:D:/fchai/work/i-cube/I-CUBE-HUAWEI/Middlewares/Third_Party/Huawei/iot_link/network/dtls/mbedtls/mbedtls-2.16.2/library\pkparse.c **** 
 846:D:/fchai/work/i-cube/I-CUBE-HUAWEI/Middlewares/Third_Party/Huawei/iot_link/network/dtls/mbedtls/mbedtls-2.16.2/library\pkparse.c ****     if( ( ret = mbedtls_asn1_get_tag( &p, end, &len, MBEDTLS_ASN1_OCTET_STRING ) ) != 0 )
 847:D:/fchai/work/i-cube/I-CUBE-HUAWEI/Middlewares/Third_Party/Huawei/iot_link/network/dtls/mbedtls/mbedtls-2.16.2/library\pkparse.c ****         return( MBEDTLS_ERR_PK_KEY_INVALID_FORMAT + ret );
 848:D:/fchai/work/i-cube/I-CUBE-HUAWEI/Middlewares/Third_Party/Huawei/iot_link/network/dtls/mbedtls/mbedtls-2.16.2/library\pkparse.c **** 
 849:D:/fchai/work/i-cube/I-CUBE-HUAWEI/Middlewares/Third_Party/Huawei/iot_link/network/dtls/mbedtls/mbedtls-2.16.2/library\pkparse.c ****     if( ( ret = mbedtls_mpi_read_binary( &eck->d, p, len ) ) != 0 )
 850:D:/fchai/work/i-cube/I-CUBE-HUAWEI/Middlewares/Third_Party/Huawei/iot_link/network/dtls/mbedtls/mbedtls-2.16.2/library\pkparse.c ****     {
 851:D:/fchai/work/i-cube/I-CUBE-HUAWEI/Middlewares/Third_Party/Huawei/iot_link/network/dtls/mbedtls/mbedtls-2.16.2/library\pkparse.c ****         mbedtls_ecp_keypair_free( eck );
 852:D:/fchai/work/i-cube/I-CUBE-HUAWEI/Middlewares/Third_Party/Huawei/iot_link/network/dtls/mbedtls/mbedtls-2.16.2/library\pkparse.c ****         return( MBEDTLS_ERR_PK_KEY_INVALID_FORMAT + ret );
 853:D:/fchai/work/i-cube/I-CUBE-HUAWEI/Middlewares/Third_Party/Huawei/iot_link/network/dtls/mbedtls/mbedtls-2.16.2/library\pkparse.c ****     }
 854:D:/fchai/work/i-cube/I-CUBE-HUAWEI/Middlewares/Third_Party/Huawei/iot_link/network/dtls/mbedtls/mbedtls-2.16.2/library\pkparse.c **** 
 855:D:/fchai/work/i-cube/I-CUBE-HUAWEI/Middlewares/Third_Party/Huawei/iot_link/network/dtls/mbedtls/mbedtls-2.16.2/library\pkparse.c ****     p += len;
ARM GAS  T:\msys\tmp\cc83OHoG.s 			page 52


 856:D:/fchai/work/i-cube/I-CUBE-HUAWEI/Middlewares/Third_Party/Huawei/iot_link/network/dtls/mbedtls/mbedtls-2.16.2/library\pkparse.c **** 
 857:D:/fchai/work/i-cube/I-CUBE-HUAWEI/Middlewares/Third_Party/Huawei/iot_link/network/dtls/mbedtls/mbedtls-2.16.2/library\pkparse.c ****     pubkey_done = 0;
 858:D:/fchai/work/i-cube/I-CUBE-HUAWEI/Middlewares/Third_Party/Huawei/iot_link/network/dtls/mbedtls/mbedtls-2.16.2/library\pkparse.c ****     if( p != end )
 859:D:/fchai/work/i-cube/I-CUBE-HUAWEI/Middlewares/Third_Party/Huawei/iot_link/network/dtls/mbedtls/mbedtls-2.16.2/library\pkparse.c ****     {
 860:D:/fchai/work/i-cube/I-CUBE-HUAWEI/Middlewares/Third_Party/Huawei/iot_link/network/dtls/mbedtls/mbedtls-2.16.2/library\pkparse.c ****         /*
 861:D:/fchai/work/i-cube/I-CUBE-HUAWEI/Middlewares/Third_Party/Huawei/iot_link/network/dtls/mbedtls/mbedtls-2.16.2/library\pkparse.c ****          * Is 'parameters' present?
 862:D:/fchai/work/i-cube/I-CUBE-HUAWEI/Middlewares/Third_Party/Huawei/iot_link/network/dtls/mbedtls/mbedtls-2.16.2/library\pkparse.c ****          */
 863:D:/fchai/work/i-cube/I-CUBE-HUAWEI/Middlewares/Third_Party/Huawei/iot_link/network/dtls/mbedtls/mbedtls-2.16.2/library\pkparse.c ****         if( ( ret = mbedtls_asn1_get_tag( &p, end, &len,
 864:D:/fchai/work/i-cube/I-CUBE-HUAWEI/Middlewares/Third_Party/Huawei/iot_link/network/dtls/mbedtls/mbedtls-2.16.2/library\pkparse.c ****                         MBEDTLS_ASN1_CONTEXT_SPECIFIC | MBEDTLS_ASN1_CONSTRUCTED | 0 ) ) == 0 )
 865:D:/fchai/work/i-cube/I-CUBE-HUAWEI/Middlewares/Third_Party/Huawei/iot_link/network/dtls/mbedtls/mbedtls-2.16.2/library\pkparse.c ****         {
 866:D:/fchai/work/i-cube/I-CUBE-HUAWEI/Middlewares/Third_Party/Huawei/iot_link/network/dtls/mbedtls/mbedtls-2.16.2/library\pkparse.c ****             if( ( ret = pk_get_ecparams( &p, p + len, &params) ) != 0 ||
 867:D:/fchai/work/i-cube/I-CUBE-HUAWEI/Middlewares/Third_Party/Huawei/iot_link/network/dtls/mbedtls/mbedtls-2.16.2/library\pkparse.c ****                 ( ret = pk_use_ecparams( &params, &eck->grp )  ) != 0 )
 868:D:/fchai/work/i-cube/I-CUBE-HUAWEI/Middlewares/Third_Party/Huawei/iot_link/network/dtls/mbedtls/mbedtls-2.16.2/library\pkparse.c ****             {
 869:D:/fchai/work/i-cube/I-CUBE-HUAWEI/Middlewares/Third_Party/Huawei/iot_link/network/dtls/mbedtls/mbedtls-2.16.2/library\pkparse.c ****                 mbedtls_ecp_keypair_free( eck );
 870:D:/fchai/work/i-cube/I-CUBE-HUAWEI/Middlewares/Third_Party/Huawei/iot_link/network/dtls/mbedtls/mbedtls-2.16.2/library\pkparse.c ****                 return( ret );
 871:D:/fchai/work/i-cube/I-CUBE-HUAWEI/Middlewares/Third_Party/Huawei/iot_link/network/dtls/mbedtls/mbedtls-2.16.2/library\pkparse.c ****             }
 872:D:/fchai/work/i-cube/I-CUBE-HUAWEI/Middlewares/Third_Party/Huawei/iot_link/network/dtls/mbedtls/mbedtls-2.16.2/library\pkparse.c ****         }
 873:D:/fchai/work/i-cube/I-CUBE-HUAWEI/Middlewares/Third_Party/Huawei/iot_link/network/dtls/mbedtls/mbedtls-2.16.2/library\pkparse.c ****         else if( ret != MBEDTLS_ERR_ASN1_UNEXPECTED_TAG )
 874:D:/fchai/work/i-cube/I-CUBE-HUAWEI/Middlewares/Third_Party/Huawei/iot_link/network/dtls/mbedtls/mbedtls-2.16.2/library\pkparse.c ****         {
 875:D:/fchai/work/i-cube/I-CUBE-HUAWEI/Middlewares/Third_Party/Huawei/iot_link/network/dtls/mbedtls/mbedtls-2.16.2/library\pkparse.c ****             mbedtls_ecp_keypair_free( eck );
 876:D:/fchai/work/i-cube/I-CUBE-HUAWEI/Middlewares/Third_Party/Huawei/iot_link/network/dtls/mbedtls/mbedtls-2.16.2/library\pkparse.c ****             return( MBEDTLS_ERR_PK_KEY_INVALID_FORMAT + ret );
 877:D:/fchai/work/i-cube/I-CUBE-HUAWEI/Middlewares/Third_Party/Huawei/iot_link/network/dtls/mbedtls/mbedtls-2.16.2/library\pkparse.c ****         }
 878:D:/fchai/work/i-cube/I-CUBE-HUAWEI/Middlewares/Third_Party/Huawei/iot_link/network/dtls/mbedtls/mbedtls-2.16.2/library\pkparse.c ****     }
 879:D:/fchai/work/i-cube/I-CUBE-HUAWEI/Middlewares/Third_Party/Huawei/iot_link/network/dtls/mbedtls/mbedtls-2.16.2/library\pkparse.c **** 
 880:D:/fchai/work/i-cube/I-CUBE-HUAWEI/Middlewares/Third_Party/Huawei/iot_link/network/dtls/mbedtls/mbedtls-2.16.2/library\pkparse.c ****     if( p != end )
 881:D:/fchai/work/i-cube/I-CUBE-HUAWEI/Middlewares/Third_Party/Huawei/iot_link/network/dtls/mbedtls/mbedtls-2.16.2/library\pkparse.c ****     {
 882:D:/fchai/work/i-cube/I-CUBE-HUAWEI/Middlewares/Third_Party/Huawei/iot_link/network/dtls/mbedtls/mbedtls-2.16.2/library\pkparse.c ****         /*
 883:D:/fchai/work/i-cube/I-CUBE-HUAWEI/Middlewares/Third_Party/Huawei/iot_link/network/dtls/mbedtls/mbedtls-2.16.2/library\pkparse.c ****          * Is 'publickey' present? If not, or if we can't read it (eg because it
 884:D:/fchai/work/i-cube/I-CUBE-HUAWEI/Middlewares/Third_Party/Huawei/iot_link/network/dtls/mbedtls/mbedtls-2.16.2/library\pkparse.c ****          * is compressed), create it from the private key.
 885:D:/fchai/work/i-cube/I-CUBE-HUAWEI/Middlewares/Third_Party/Huawei/iot_link/network/dtls/mbedtls/mbedtls-2.16.2/library\pkparse.c ****          */
 886:D:/fchai/work/i-cube/I-CUBE-HUAWEI/Middlewares/Third_Party/Huawei/iot_link/network/dtls/mbedtls/mbedtls-2.16.2/library\pkparse.c ****         if( ( ret = mbedtls_asn1_get_tag( &p, end, &len,
 887:D:/fchai/work/i-cube/I-CUBE-HUAWEI/Middlewares/Third_Party/Huawei/iot_link/network/dtls/mbedtls/mbedtls-2.16.2/library\pkparse.c ****                         MBEDTLS_ASN1_CONTEXT_SPECIFIC | MBEDTLS_ASN1_CONSTRUCTED | 1 ) ) == 0 )
 888:D:/fchai/work/i-cube/I-CUBE-HUAWEI/Middlewares/Third_Party/Huawei/iot_link/network/dtls/mbedtls/mbedtls-2.16.2/library\pkparse.c ****         {
 889:D:/fchai/work/i-cube/I-CUBE-HUAWEI/Middlewares/Third_Party/Huawei/iot_link/network/dtls/mbedtls/mbedtls-2.16.2/library\pkparse.c ****             end2 = p + len;
 890:D:/fchai/work/i-cube/I-CUBE-HUAWEI/Middlewares/Third_Party/Huawei/iot_link/network/dtls/mbedtls/mbedtls-2.16.2/library\pkparse.c **** 
 891:D:/fchai/work/i-cube/I-CUBE-HUAWEI/Middlewares/Third_Party/Huawei/iot_link/network/dtls/mbedtls/mbedtls-2.16.2/library\pkparse.c ****             if( ( ret = mbedtls_asn1_get_bitstring_null( &p, end2, &len ) ) != 0 )
 892:D:/fchai/work/i-cube/I-CUBE-HUAWEI/Middlewares/Third_Party/Huawei/iot_link/network/dtls/mbedtls/mbedtls-2.16.2/library\pkparse.c ****                 return( MBEDTLS_ERR_PK_KEY_INVALID_FORMAT + ret );
 1621              		.loc 1 892 17 is_stmt 1 view .LVU489
 1622              		.loc 1 892 59 is_stmt 0 view .LVU490
 1623 0018 A0F57454 		sub	r4, r0, #15616
 1624              	.LVL190:
 1625              	.L99:
 893:D:/fchai/work/i-cube/I-CUBE-HUAWEI/Middlewares/Third_Party/Huawei/iot_link/network/dtls/mbedtls/mbedtls-2.16.2/library\pkparse.c **** 
 894:D:/fchai/work/i-cube/I-CUBE-HUAWEI/Middlewares/Third_Party/Huawei/iot_link/network/dtls/mbedtls/mbedtls-2.16.2/library\pkparse.c ****             if( p + len != end2 )
 895:D:/fchai/work/i-cube/I-CUBE-HUAWEI/Middlewares/Third_Party/Huawei/iot_link/network/dtls/mbedtls/mbedtls-2.16.2/library\pkparse.c ****                 return( MBEDTLS_ERR_PK_KEY_INVALID_FORMAT +
 896:D:/fchai/work/i-cube/I-CUBE-HUAWEI/Middlewares/Third_Party/Huawei/iot_link/network/dtls/mbedtls/mbedtls-2.16.2/library\pkparse.c ****                         MBEDTLS_ERR_ASN1_LENGTH_MISMATCH );
 897:D:/fchai/work/i-cube/I-CUBE-HUAWEI/Middlewares/Third_Party/Huawei/iot_link/network/dtls/mbedtls/mbedtls-2.16.2/library\pkparse.c **** 
 898:D:/fchai/work/i-cube/I-CUBE-HUAWEI/Middlewares/Third_Party/Huawei/iot_link/network/dtls/mbedtls/mbedtls-2.16.2/library\pkparse.c ****             if( ( ret = pk_get_ecpubkey( &p, end2, eck ) ) == 0 )
 899:D:/fchai/work/i-cube/I-CUBE-HUAWEI/Middlewares/Third_Party/Huawei/iot_link/network/dtls/mbedtls/mbedtls-2.16.2/library\pkparse.c ****                 pubkey_done = 1;
 900:D:/fchai/work/i-cube/I-CUBE-HUAWEI/Middlewares/Third_Party/Huawei/iot_link/network/dtls/mbedtls/mbedtls-2.16.2/library\pkparse.c ****             else
 901:D:/fchai/work/i-cube/I-CUBE-HUAWEI/Middlewares/Third_Party/Huawei/iot_link/network/dtls/mbedtls/mbedtls-2.16.2/library\pkparse.c ****             {
 902:D:/fchai/work/i-cube/I-CUBE-HUAWEI/Middlewares/Third_Party/Huawei/iot_link/network/dtls/mbedtls/mbedtls-2.16.2/library\pkparse.c ****                 /*
 903:D:/fchai/work/i-cube/I-CUBE-HUAWEI/Middlewares/Third_Party/Huawei/iot_link/network/dtls/mbedtls/mbedtls-2.16.2/library\pkparse.c ****                  * The only acceptable failure mode of pk_get_ecpubkey() above
 904:D:/fchai/work/i-cube/I-CUBE-HUAWEI/Middlewares/Third_Party/Huawei/iot_link/network/dtls/mbedtls/mbedtls-2.16.2/library\pkparse.c ****                  * is if the point format is not recognized.
 905:D:/fchai/work/i-cube/I-CUBE-HUAWEI/Middlewares/Third_Party/Huawei/iot_link/network/dtls/mbedtls/mbedtls-2.16.2/library\pkparse.c ****                  */
 906:D:/fchai/work/i-cube/I-CUBE-HUAWEI/Middlewares/Third_Party/Huawei/iot_link/network/dtls/mbedtls/mbedtls-2.16.2/library\pkparse.c ****                 if( ret != MBEDTLS_ERR_ECP_FEATURE_UNAVAILABLE )
 907:D:/fchai/work/i-cube/I-CUBE-HUAWEI/Middlewares/Third_Party/Huawei/iot_link/network/dtls/mbedtls/mbedtls-2.16.2/library\pkparse.c ****                     return( MBEDTLS_ERR_PK_KEY_INVALID_FORMAT );
ARM GAS  T:\msys\tmp\cc83OHoG.s 			page 53


 908:D:/fchai/work/i-cube/I-CUBE-HUAWEI/Middlewares/Third_Party/Huawei/iot_link/network/dtls/mbedtls/mbedtls-2.16.2/library\pkparse.c ****             }
 909:D:/fchai/work/i-cube/I-CUBE-HUAWEI/Middlewares/Third_Party/Huawei/iot_link/network/dtls/mbedtls/mbedtls-2.16.2/library\pkparse.c ****         }
 910:D:/fchai/work/i-cube/I-CUBE-HUAWEI/Middlewares/Third_Party/Huawei/iot_link/network/dtls/mbedtls/mbedtls-2.16.2/library\pkparse.c ****         else if( ret != MBEDTLS_ERR_ASN1_UNEXPECTED_TAG )
 911:D:/fchai/work/i-cube/I-CUBE-HUAWEI/Middlewares/Third_Party/Huawei/iot_link/network/dtls/mbedtls/mbedtls-2.16.2/library\pkparse.c ****         {
 912:D:/fchai/work/i-cube/I-CUBE-HUAWEI/Middlewares/Third_Party/Huawei/iot_link/network/dtls/mbedtls/mbedtls-2.16.2/library\pkparse.c ****             mbedtls_ecp_keypair_free( eck );
 913:D:/fchai/work/i-cube/I-CUBE-HUAWEI/Middlewares/Third_Party/Huawei/iot_link/network/dtls/mbedtls/mbedtls-2.16.2/library\pkparse.c ****             return( MBEDTLS_ERR_PK_KEY_INVALID_FORMAT + ret );
 914:D:/fchai/work/i-cube/I-CUBE-HUAWEI/Middlewares/Third_Party/Huawei/iot_link/network/dtls/mbedtls/mbedtls-2.16.2/library\pkparse.c ****         }
 915:D:/fchai/work/i-cube/I-CUBE-HUAWEI/Middlewares/Third_Party/Huawei/iot_link/network/dtls/mbedtls/mbedtls-2.16.2/library\pkparse.c ****     }
 916:D:/fchai/work/i-cube/I-CUBE-HUAWEI/Middlewares/Third_Party/Huawei/iot_link/network/dtls/mbedtls/mbedtls-2.16.2/library\pkparse.c **** 
 917:D:/fchai/work/i-cube/I-CUBE-HUAWEI/Middlewares/Third_Party/Huawei/iot_link/network/dtls/mbedtls/mbedtls-2.16.2/library\pkparse.c ****     if( ! pubkey_done &&
 918:D:/fchai/work/i-cube/I-CUBE-HUAWEI/Middlewares/Third_Party/Huawei/iot_link/network/dtls/mbedtls/mbedtls-2.16.2/library\pkparse.c ****         ( ret = mbedtls_ecp_mul( &eck->grp, &eck->Q, &eck->d, &eck->grp.G,
 919:D:/fchai/work/i-cube/I-CUBE-HUAWEI/Middlewares/Third_Party/Huawei/iot_link/network/dtls/mbedtls/mbedtls-2.16.2/library\pkparse.c ****                                                       NULL, NULL ) ) != 0 )
 920:D:/fchai/work/i-cube/I-CUBE-HUAWEI/Middlewares/Third_Party/Huawei/iot_link/network/dtls/mbedtls/mbedtls-2.16.2/library\pkparse.c ****     {
 921:D:/fchai/work/i-cube/I-CUBE-HUAWEI/Middlewares/Third_Party/Huawei/iot_link/network/dtls/mbedtls/mbedtls-2.16.2/library\pkparse.c ****         mbedtls_ecp_keypair_free( eck );
 922:D:/fchai/work/i-cube/I-CUBE-HUAWEI/Middlewares/Third_Party/Huawei/iot_link/network/dtls/mbedtls/mbedtls-2.16.2/library\pkparse.c ****         return( MBEDTLS_ERR_PK_KEY_INVALID_FORMAT + ret );
 923:D:/fchai/work/i-cube/I-CUBE-HUAWEI/Middlewares/Third_Party/Huawei/iot_link/network/dtls/mbedtls/mbedtls-2.16.2/library\pkparse.c ****     }
 924:D:/fchai/work/i-cube/I-CUBE-HUAWEI/Middlewares/Third_Party/Huawei/iot_link/network/dtls/mbedtls/mbedtls-2.16.2/library\pkparse.c **** 
 925:D:/fchai/work/i-cube/I-CUBE-HUAWEI/Middlewares/Third_Party/Huawei/iot_link/network/dtls/mbedtls/mbedtls-2.16.2/library\pkparse.c ****     if( ( ret = mbedtls_ecp_check_privkey( &eck->grp, &eck->d ) ) != 0 )
 926:D:/fchai/work/i-cube/I-CUBE-HUAWEI/Middlewares/Third_Party/Huawei/iot_link/network/dtls/mbedtls/mbedtls-2.16.2/library\pkparse.c ****     {
 927:D:/fchai/work/i-cube/I-CUBE-HUAWEI/Middlewares/Third_Party/Huawei/iot_link/network/dtls/mbedtls/mbedtls-2.16.2/library\pkparse.c ****         mbedtls_ecp_keypair_free( eck );
 928:D:/fchai/work/i-cube/I-CUBE-HUAWEI/Middlewares/Third_Party/Huawei/iot_link/network/dtls/mbedtls/mbedtls-2.16.2/library\pkparse.c ****         return( ret );
 929:D:/fchai/work/i-cube/I-CUBE-HUAWEI/Middlewares/Third_Party/Huawei/iot_link/network/dtls/mbedtls/mbedtls-2.16.2/library\pkparse.c ****     }
 930:D:/fchai/work/i-cube/I-CUBE-HUAWEI/Middlewares/Third_Party/Huawei/iot_link/network/dtls/mbedtls/mbedtls-2.16.2/library\pkparse.c **** 
 931:D:/fchai/work/i-cube/I-CUBE-HUAWEI/Middlewares/Third_Party/Huawei/iot_link/network/dtls/mbedtls/mbedtls-2.16.2/library\pkparse.c ****     return( 0 );
 932:D:/fchai/work/i-cube/I-CUBE-HUAWEI/Middlewares/Third_Party/Huawei/iot_link/network/dtls/mbedtls/mbedtls-2.16.2/library\pkparse.c **** }
 1626              		.loc 1 932 1 view .LVU491
 1627 001c 2046     		mov	r0, r4
 1628 001e 0BB0     		add	sp, sp, #44
 1629              	.LCFI26:
 1630              		.cfi_remember_state
 1631              		.cfi_def_cfa_offset 20
 1632              		@ sp needed
 1633 0020 F0BD     		pop	{r4, r5, r6, r7, pc}
 1634              	.LVL191:
 1635              	.L100:
 1636              	.LCFI27:
 1637              		.cfi_restore_state
 838:D:/fchai/work/i-cube/I-CUBE-HUAWEI/Middlewares/Third_Party/Huawei/iot_link/network/dtls/mbedtls/mbedtls-2.16.2/library\pkparse.c **** 
 1638              		.loc 1 838 5 is_stmt 1 view .LVU492
 838:D:/fchai/work/i-cube/I-CUBE-HUAWEI/Middlewares/Third_Party/Huawei/iot_link/network/dtls/mbedtls/mbedtls-2.16.2/library\pkparse.c **** 
 1639              		.loc 1 838 9 is_stmt 0 view .LVU493
 1640 0022 DDE90536 		ldrd	r3, r6, [sp, #20]
 1641 0026 1E44     		add	r6, r6, r3
 1642              	.LVL192:
 840:D:/fchai/work/i-cube/I-CUBE-HUAWEI/Middlewares/Third_Party/Huawei/iot_link/network/dtls/mbedtls/mbedtls-2.16.2/library\pkparse.c ****         return( MBEDTLS_ERR_PK_KEY_INVALID_FORMAT + ret );
 1643              		.loc 1 840 5 is_stmt 1 view .LVU494
 840:D:/fchai/work/i-cube/I-CUBE-HUAWEI/Middlewares/Third_Party/Huawei/iot_link/network/dtls/mbedtls/mbedtls-2.16.2/library\pkparse.c ****         return( MBEDTLS_ERR_PK_KEY_INVALID_FORMAT + ret );
 1644              		.loc 1 840 17 is_stmt 0 view .LVU495
 1645 0028 3146     		mov	r1, r6
 1646 002a 04AA     		add	r2, sp, #16
 1647 002c 06A8     		add	r0, sp, #24
 1648              	.LVL193:
 840:D:/fchai/work/i-cube/I-CUBE-HUAWEI/Middlewares/Third_Party/Huawei/iot_link/network/dtls/mbedtls/mbedtls-2.16.2/library\pkparse.c ****         return( MBEDTLS_ERR_PK_KEY_INVALID_FORMAT + ret );
 1649              		.loc 1 840 17 view .LVU496
 1650 002e FFF7FEFF 		bl	mbedtls_asn1_get_int
 1651              	.LVL194:
 840:D:/fchai/work/i-cube/I-CUBE-HUAWEI/Middlewares/Third_Party/Huawei/iot_link/network/dtls/mbedtls/mbedtls-2.16.2/library\pkparse.c ****         return( MBEDTLS_ERR_PK_KEY_INVALID_FORMAT + ret );
ARM GAS  T:\msys\tmp\cc83OHoG.s 			page 54


 1652              		.loc 1 840 7 view .LVU497
 1653 0032 0446     		mov	r4, r0
 1654              	.LVL195:
 840:D:/fchai/work/i-cube/I-CUBE-HUAWEI/Middlewares/Third_Party/Huawei/iot_link/network/dtls/mbedtls/mbedtls-2.16.2/library\pkparse.c ****         return( MBEDTLS_ERR_PK_KEY_INVALID_FORMAT + ret );
 1655              		.loc 1 840 7 view .LVU498
 1656 0034 58B9     		cbnz	r0, .L145
 843:D:/fchai/work/i-cube/I-CUBE-HUAWEI/Middlewares/Third_Party/Huawei/iot_link/network/dtls/mbedtls/mbedtls-2.16.2/library\pkparse.c ****         return( MBEDTLS_ERR_PK_KEY_INVALID_VERSION );
 1657              		.loc 1 843 5 is_stmt 1 view .LVU499
 843:D:/fchai/work/i-cube/I-CUBE-HUAWEI/Middlewares/Third_Party/Huawei/iot_link/network/dtls/mbedtls/mbedtls-2.16.2/library\pkparse.c ****         return( MBEDTLS_ERR_PK_KEY_INVALID_VERSION );
 1658              		.loc 1 843 7 is_stmt 0 view .LVU500
 1659 0036 049B     		ldr	r3, [sp, #16]
 1660 0038 012B     		cmp	r3, #1
 1661 003a 40F09380 		bne	.L119
 846:D:/fchai/work/i-cube/I-CUBE-HUAWEI/Middlewares/Third_Party/Huawei/iot_link/network/dtls/mbedtls/mbedtls-2.16.2/library\pkparse.c ****         return( MBEDTLS_ERR_PK_KEY_INVALID_FORMAT + ret );
 1662              		.loc 1 846 5 is_stmt 1 view .LVU501
 846:D:/fchai/work/i-cube/I-CUBE-HUAWEI/Middlewares/Third_Party/Huawei/iot_link/network/dtls/mbedtls/mbedtls-2.16.2/library\pkparse.c ****         return( MBEDTLS_ERR_PK_KEY_INVALID_FORMAT + ret );
 1663              		.loc 1 846 17 is_stmt 0 view .LVU502
 1664 003e 0423     		movs	r3, #4
 1665 0040 05AA     		add	r2, sp, #20
 1666 0042 3146     		mov	r1, r6
 1667 0044 06A8     		add	r0, sp, #24
 1668              	.LVL196:
 846:D:/fchai/work/i-cube/I-CUBE-HUAWEI/Middlewares/Third_Party/Huawei/iot_link/network/dtls/mbedtls/mbedtls-2.16.2/library\pkparse.c ****         return( MBEDTLS_ERR_PK_KEY_INVALID_FORMAT + ret );
 1669              		.loc 1 846 17 view .LVU503
 1670 0046 FFF7FEFF 		bl	mbedtls_asn1_get_tag
 1671              	.LVL197:
 846:D:/fchai/work/i-cube/I-CUBE-HUAWEI/Middlewares/Third_Party/Huawei/iot_link/network/dtls/mbedtls/mbedtls-2.16.2/library\pkparse.c ****         return( MBEDTLS_ERR_PK_KEY_INVALID_FORMAT + ret );
 1672              		.loc 1 846 7 view .LVU504
 1673 004a 0446     		mov	r4, r0
 1674 004c 20B1     		cbz	r0, .L103
 1675              	.LVL198:
 1676              	.L145:
 852:D:/fchai/work/i-cube/I-CUBE-HUAWEI/Middlewares/Third_Party/Huawei/iot_link/network/dtls/mbedtls/mbedtls-2.16.2/library\pkparse.c ****     }
 1677              		.loc 1 852 9 is_stmt 1 view .LVU505
 852:D:/fchai/work/i-cube/I-CUBE-HUAWEI/Middlewares/Third_Party/Huawei/iot_link/network/dtls/mbedtls/mbedtls-2.16.2/library\pkparse.c ****     }
 1678              		.loc 1 852 51 is_stmt 0 view .LVU506
 1679 004e A4F57454 		sub	r4, r4, #15616
 1680              	.LVL199:
 1681              		.loc 1 932 1 view .LVU507
 1682 0052 2046     		mov	r0, r4
 1683 0054 0BB0     		add	sp, sp, #44
 1684              	.LCFI28:
 1685              		.cfi_remember_state
 1686              		.cfi_def_cfa_offset 20
 1687              		@ sp needed
 1688 0056 F0BD     		pop	{r4, r5, r6, r7, pc}
 1689              	.LVL200:
 1690              	.L103:
 1691              	.LCFI29:
 1692              		.cfi_restore_state
 849:D:/fchai/work/i-cube/I-CUBE-HUAWEI/Middlewares/Third_Party/Huawei/iot_link/network/dtls/mbedtls/mbedtls-2.16.2/library\pkparse.c ****     {
 1693              		.loc 1 849 5 is_stmt 1 view .LVU508
 849:D:/fchai/work/i-cube/I-CUBE-HUAWEI/Middlewares/Third_Party/Huawei/iot_link/network/dtls/mbedtls/mbedtls-2.16.2/library\pkparse.c ****     {
 1694              		.loc 1 849 17 is_stmt 0 view .LVU509
 1695 0058 05F17C07 		add	r7, r5, #124
 1696 005c DDE90521 		ldrd	r2, r1, [sp, #20]
 1697 0060 3846     		mov	r0, r7
ARM GAS  T:\msys\tmp\cc83OHoG.s 			page 55


 1698              	.LVL201:
 849:D:/fchai/work/i-cube/I-CUBE-HUAWEI/Middlewares/Third_Party/Huawei/iot_link/network/dtls/mbedtls/mbedtls-2.16.2/library\pkparse.c ****     {
 1699              		.loc 1 849 17 view .LVU510
 1700 0062 FFF7FEFF 		bl	mbedtls_mpi_read_binary
 1701              	.LVL202:
 849:D:/fchai/work/i-cube/I-CUBE-HUAWEI/Middlewares/Third_Party/Huawei/iot_link/network/dtls/mbedtls/mbedtls-2.16.2/library\pkparse.c ****     {
 1702              		.loc 1 849 7 view .LVU511
 1703 0066 0446     		mov	r4, r0
 1704 0068 A0BB     		cbnz	r0, .L146
 855:D:/fchai/work/i-cube/I-CUBE-HUAWEI/Middlewares/Third_Party/Huawei/iot_link/network/dtls/mbedtls/mbedtls-2.16.2/library\pkparse.c **** 
 1705              		.loc 1 855 5 is_stmt 1 view .LVU512
 855:D:/fchai/work/i-cube/I-CUBE-HUAWEI/Middlewares/Third_Party/Huawei/iot_link/network/dtls/mbedtls/mbedtls-2.16.2/library\pkparse.c **** 
 1706              		.loc 1 855 7 is_stmt 0 view .LVU513
 1707 006a DDE90523 		ldrd	r2, r3, [sp, #20]
 1708 006e 1344     		add	r3, r3, r2
 858:D:/fchai/work/i-cube/I-CUBE-HUAWEI/Middlewares/Third_Party/Huawei/iot_link/network/dtls/mbedtls/mbedtls-2.16.2/library\pkparse.c ****     {
 1709              		.loc 1 858 7 view .LVU514
 1710 0070 B342     		cmp	r3, r6
 855:D:/fchai/work/i-cube/I-CUBE-HUAWEI/Middlewares/Third_Party/Huawei/iot_link/network/dtls/mbedtls/mbedtls-2.16.2/library\pkparse.c **** 
 1711              		.loc 1 855 7 view .LVU515
 1712 0072 0693     		str	r3, [sp, #24]
 857:D:/fchai/work/i-cube/I-CUBE-HUAWEI/Middlewares/Third_Party/Huawei/iot_link/network/dtls/mbedtls/mbedtls-2.16.2/library\pkparse.c ****     if( p != end )
 1713              		.loc 1 857 5 is_stmt 1 view .LVU516
 1714              	.LVL203:
 858:D:/fchai/work/i-cube/I-CUBE-HUAWEI/Middlewares/Third_Party/Huawei/iot_link/network/dtls/mbedtls/mbedtls-2.16.2/library\pkparse.c ****     {
 1715              		.loc 1 858 5 view .LVU517
 858:D:/fchai/work/i-cube/I-CUBE-HUAWEI/Middlewares/Third_Party/Huawei/iot_link/network/dtls/mbedtls/mbedtls-2.16.2/library\pkparse.c ****     {
 1716              		.loc 1 858 7 is_stmt 0 view .LVU518
 1717 0074 19D0     		beq	.L142
 863:D:/fchai/work/i-cube/I-CUBE-HUAWEI/Middlewares/Third_Party/Huawei/iot_link/network/dtls/mbedtls/mbedtls-2.16.2/library\pkparse.c ****                         MBEDTLS_ASN1_CONTEXT_SPECIFIC | MBEDTLS_ASN1_CONSTRUCTED | 0 ) ) == 0 )
 1718              		.loc 1 863 9 is_stmt 1 view .LVU519
 863:D:/fchai/work/i-cube/I-CUBE-HUAWEI/Middlewares/Third_Party/Huawei/iot_link/network/dtls/mbedtls/mbedtls-2.16.2/library\pkparse.c ****                         MBEDTLS_ASN1_CONTEXT_SPECIFIC | MBEDTLS_ASN1_CONSTRUCTED | 0 ) ) == 0 )
 1719              		.loc 1 863 21 is_stmt 0 view .LVU520
 1720 0076 A023     		movs	r3, #160
 1721 0078 05AA     		add	r2, sp, #20
 1722 007a 3146     		mov	r1, r6
 1723 007c 06A8     		add	r0, sp, #24
 1724              	.LVL204:
 863:D:/fchai/work/i-cube/I-CUBE-HUAWEI/Middlewares/Third_Party/Huawei/iot_link/network/dtls/mbedtls/mbedtls-2.16.2/library\pkparse.c ****                         MBEDTLS_ASN1_CONTEXT_SPECIFIC | MBEDTLS_ASN1_CONSTRUCTED | 0 ) ) == 0 )
 1725              		.loc 1 863 21 view .LVU521
 1726 007e FFF7FEFF 		bl	mbedtls_asn1_get_tag
 1727              	.LVL205:
 863:D:/fchai/work/i-cube/I-CUBE-HUAWEI/Middlewares/Third_Party/Huawei/iot_link/network/dtls/mbedtls/mbedtls-2.16.2/library\pkparse.c ****                         MBEDTLS_ASN1_CONTEXT_SPECIFIC | MBEDTLS_ASN1_CONSTRUCTED | 0 ) ) == 0 )
 1728              		.loc 1 863 11 view .LVU522
 1729 0082 0446     		mov	r4, r0
 1730 0084 50B3     		cbz	r0, .L148
 873:D:/fchai/work/i-cube/I-CUBE-HUAWEI/Middlewares/Third_Party/Huawei/iot_link/network/dtls/mbedtls/mbedtls-2.16.2/library\pkparse.c ****         {
 1731              		.loc 1 873 14 is_stmt 1 view .LVU523
 873:D:/fchai/work/i-cube/I-CUBE-HUAWEI/Middlewares/Third_Party/Huawei/iot_link/network/dtls/mbedtls/mbedtls-2.16.2/library\pkparse.c ****         {
 1732              		.loc 1 873 16 is_stmt 0 view .LVU524
 1733 0086 10F1620F 		cmn	r0, #98
 1734 008a 23D1     		bne	.L146
 1735              	.L110:
 880:D:/fchai/work/i-cube/I-CUBE-HUAWEI/Middlewares/Third_Party/Huawei/iot_link/network/dtls/mbedtls/mbedtls-2.16.2/library\pkparse.c ****     {
 1736              		.loc 1 880 5 is_stmt 1 view .LVU525
 880:D:/fchai/work/i-cube/I-CUBE-HUAWEI/Middlewares/Third_Party/Huawei/iot_link/network/dtls/mbedtls/mbedtls-2.16.2/library\pkparse.c ****     {
 1737              		.loc 1 880 7 is_stmt 0 view .LVU526
ARM GAS  T:\msys\tmp\cc83OHoG.s 			page 56


 1738 008c 069B     		ldr	r3, [sp, #24]
 1739 008e B342     		cmp	r3, r6
 1740 0090 0BD0     		beq	.L142
 886:D:/fchai/work/i-cube/I-CUBE-HUAWEI/Middlewares/Third_Party/Huawei/iot_link/network/dtls/mbedtls/mbedtls-2.16.2/library\pkparse.c ****                         MBEDTLS_ASN1_CONTEXT_SPECIFIC | MBEDTLS_ASN1_CONSTRUCTED | 1 ) ) == 0 )
 1741              		.loc 1 886 9 is_stmt 1 view .LVU527
 886:D:/fchai/work/i-cube/I-CUBE-HUAWEI/Middlewares/Third_Party/Huawei/iot_link/network/dtls/mbedtls/mbedtls-2.16.2/library\pkparse.c ****                         MBEDTLS_ASN1_CONTEXT_SPECIFIC | MBEDTLS_ASN1_CONSTRUCTED | 1 ) ) == 0 )
 1742              		.loc 1 886 21 is_stmt 0 view .LVU528
 1743 0092 3146     		mov	r1, r6
 1744 0094 A123     		movs	r3, #161
 1745 0096 05AA     		add	r2, sp, #20
 1746 0098 06A8     		add	r0, sp, #24
 1747              	.LVL206:
 886:D:/fchai/work/i-cube/I-CUBE-HUAWEI/Middlewares/Third_Party/Huawei/iot_link/network/dtls/mbedtls/mbedtls-2.16.2/library\pkparse.c ****                         MBEDTLS_ASN1_CONTEXT_SPECIFIC | MBEDTLS_ASN1_CONSTRUCTED | 1 ) ) == 0 )
 1748              		.loc 1 886 21 view .LVU529
 1749 009a FFF7FEFF 		bl	mbedtls_asn1_get_tag
 1750              	.LVL207:
 886:D:/fchai/work/i-cube/I-CUBE-HUAWEI/Middlewares/Third_Party/Huawei/iot_link/network/dtls/mbedtls/mbedtls-2.16.2/library\pkparse.c ****                         MBEDTLS_ASN1_CONTEXT_SPECIFIC | MBEDTLS_ASN1_CONSTRUCTED | 1 ) ) == 0 )
 1751              		.loc 1 886 11 view .LVU530
 1752 009e 0446     		mov	r4, r0
 1753 00a0 0028     		cmp	r0, #0
 1754 00a2 40D0     		beq	.L149
 910:D:/fchai/work/i-cube/I-CUBE-HUAWEI/Middlewares/Third_Party/Huawei/iot_link/network/dtls/mbedtls/mbedtls-2.16.2/library\pkparse.c ****         {
 1755              		.loc 1 910 14 is_stmt 1 view .LVU531
 910:D:/fchai/work/i-cube/I-CUBE-HUAWEI/Middlewares/Third_Party/Huawei/iot_link/network/dtls/mbedtls/mbedtls-2.16.2/library\pkparse.c ****         {
 1756              		.loc 1 910 16 is_stmt 0 view .LVU532
 1757 00a4 10F1620F 		cmn	r0, #98
 1758 00a8 14D1     		bne	.L146
 1759              	.L142:
 910:D:/fchai/work/i-cube/I-CUBE-HUAWEI/Middlewares/Third_Party/Huawei/iot_link/network/dtls/mbedtls/mbedtls-2.16.2/library\pkparse.c ****         {
 1760              		.loc 1 910 16 view .LVU533
 1761 00aa 05F18801 		add	r1, r5, #136
 1762              	.L105:
 1763              	.LVL208:
 918:D:/fchai/work/i-cube/I-CUBE-HUAWEI/Middlewares/Third_Party/Huawei/iot_link/network/dtls/mbedtls/mbedtls-2.16.2/library\pkparse.c ****                                                       NULL, NULL ) ) != 0 )
 1764              		.loc 1 918 17 view .LVU534
 1765 00ae 0023     		movs	r3, #0
 1766 00b0 CDE90033 		strd	r3, r3, [sp]
 1767 00b4 3A46     		mov	r2, r7
 1768 00b6 05F12803 		add	r3, r5, #40
 1769 00ba 2846     		mov	r0, r5
 1770              	.LVL209:
 918:D:/fchai/work/i-cube/I-CUBE-HUAWEI/Middlewares/Third_Party/Huawei/iot_link/network/dtls/mbedtls/mbedtls-2.16.2/library\pkparse.c ****                                                       NULL, NULL ) ) != 0 )
 1771              		.loc 1 918 17 view .LVU535
 1772 00bc FFF7FEFF 		bl	mbedtls_ecp_mul
 1773              	.LVL210:
 917:D:/fchai/work/i-cube/I-CUBE-HUAWEI/Middlewares/Third_Party/Huawei/iot_link/network/dtls/mbedtls/mbedtls-2.16.2/library\pkparse.c ****         ( ret = mbedtls_ecp_mul( &eck->grp, &eck->Q, &eck->d, &eck->grp.G,
 1774              		.loc 1 917 23 view .LVU536
 1775 00c0 0446     		mov	r4, r0
 1776 00c2 38B9     		cbnz	r0, .L146
 1777              	.L114:
 925:D:/fchai/work/i-cube/I-CUBE-HUAWEI/Middlewares/Third_Party/Huawei/iot_link/network/dtls/mbedtls/mbedtls-2.16.2/library\pkparse.c ****     {
 1778              		.loc 1 925 5 is_stmt 1 view .LVU537
 925:D:/fchai/work/i-cube/I-CUBE-HUAWEI/Middlewares/Third_Party/Huawei/iot_link/network/dtls/mbedtls/mbedtls-2.16.2/library\pkparse.c ****     {
 1779              		.loc 1 925 17 is_stmt 0 view .LVU538
 1780 00c4 3946     		mov	r1, r7
 1781 00c6 2846     		mov	r0, r5
 1782              	.LVL211:
ARM GAS  T:\msys\tmp\cc83OHoG.s 			page 57


 925:D:/fchai/work/i-cube/I-CUBE-HUAWEI/Middlewares/Third_Party/Huawei/iot_link/network/dtls/mbedtls/mbedtls-2.16.2/library\pkparse.c ****     {
 1783              		.loc 1 925 17 view .LVU539
 1784 00c8 FFF7FEFF 		bl	mbedtls_ecp_check_privkey
 1785              	.LVL212:
 925:D:/fchai/work/i-cube/I-CUBE-HUAWEI/Middlewares/Third_Party/Huawei/iot_link/network/dtls/mbedtls/mbedtls-2.16.2/library\pkparse.c ****     {
 1786              		.loc 1 925 7 view .LVU540
 1787 00cc 0446     		mov	r4, r0
 1788 00ce 0028     		cmp	r0, #0
 1789 00d0 A4D0     		beq	.L99
 1790 00d2 24E0     		b	.L147
 1791              	.L146:
 851:D:/fchai/work/i-cube/I-CUBE-HUAWEI/Middlewares/Third_Party/Huawei/iot_link/network/dtls/mbedtls/mbedtls-2.16.2/library\pkparse.c ****         return( MBEDTLS_ERR_PK_KEY_INVALID_FORMAT + ret );
 1792              		.loc 1 851 9 is_stmt 1 view .LVU541
 1793 00d4 2846     		mov	r0, r5
 1794              	.LVL213:
 851:D:/fchai/work/i-cube/I-CUBE-HUAWEI/Middlewares/Third_Party/Huawei/iot_link/network/dtls/mbedtls/mbedtls-2.16.2/library\pkparse.c ****         return( MBEDTLS_ERR_PK_KEY_INVALID_FORMAT + ret );
 1795              		.loc 1 851 9 is_stmt 0 view .LVU542
 1796 00d6 FFF7FEFF 		bl	mbedtls_ecp_keypair_free
 1797              	.LVL214:
 1798 00da B8E7     		b	.L145
 1799              	.LVL215:
 1800              	.L148:
 866:D:/fchai/work/i-cube/I-CUBE-HUAWEI/Middlewares/Third_Party/Huawei/iot_link/network/dtls/mbedtls/mbedtls-2.16.2/library\pkparse.c ****                 ( ret = pk_use_ecparams( &params, &eck->grp )  ) != 0 )
 1801              		.loc 1 866 13 is_stmt 1 view .LVU543
 866:D:/fchai/work/i-cube/I-CUBE-HUAWEI/Middlewares/Third_Party/Huawei/iot_link/network/dtls/mbedtls/mbedtls-2.16.2/library\pkparse.c ****                 ( ret = pk_use_ecparams( &params, &eck->grp )  ) != 0 )
 1802              		.loc 1 866 25 is_stmt 0 view .LVU544
 1803 00dc DDE90523 		ldrd	r2, r3, [sp, #20]
 1804              	.LBB75:
 1805              	.LBB76:
 193:D:/fchai/work/i-cube/I-CUBE-HUAWEI/Middlewares/Third_Party/Huawei/iot_link/network/dtls/mbedtls/mbedtls-2.16.2/library\pkparse.c ****         return( MBEDTLS_ERR_PK_KEY_INVALID_FORMAT +
 1806              		.loc 1 193 8 view .LVU545
 1807 00e0 002A     		cmp	r2, #0
 1808              	.LBE76:
 1809              	.LBE75:
 866:D:/fchai/work/i-cube/I-CUBE-HUAWEI/Middlewares/Third_Party/Huawei/iot_link/network/dtls/mbedtls/mbedtls-2.16.2/library\pkparse.c ****                 ( ret = pk_use_ecparams( &params, &eck->grp )  ) != 0 )
 1810              		.loc 1 866 48 view .LVU546
 1811 00e2 03EB0204 		add	r4, r3, r2
 1812              	.LVL216:
 1813              	.LBB81:
 1814              	.LBI75:
 188:D:/fchai/work/i-cube/I-CUBE-HUAWEI/Middlewares/Third_Party/Huawei/iot_link/network/dtls/mbedtls/mbedtls-2.16.2/library\pkparse.c ****                             mbedtls_asn1_buf *params )
 1815              		.loc 1 188 12 is_stmt 1 view .LVU547
 1816              	.LBB77:
 191:D:/fchai/work/i-cube/I-CUBE-HUAWEI/Middlewares/Third_Party/Huawei/iot_link/network/dtls/mbedtls/mbedtls-2.16.2/library\pkparse.c **** 
 1817              		.loc 1 191 5 view .LVU548
 193:D:/fchai/work/i-cube/I-CUBE-HUAWEI/Middlewares/Third_Party/Huawei/iot_link/network/dtls/mbedtls/mbedtls-2.16.2/library\pkparse.c ****         return( MBEDTLS_ERR_PK_KEY_INVALID_FORMAT +
 1818              		.loc 1 193 5 view .LVU549
 193:D:/fchai/work/i-cube/I-CUBE-HUAWEI/Middlewares/Third_Party/Huawei/iot_link/network/dtls/mbedtls/mbedtls-2.16.2/library\pkparse.c ****         return( MBEDTLS_ERR_PK_KEY_INVALID_FORMAT +
 1819              		.loc 1 193 8 is_stmt 0 view .LVU550
 1820 00e6 51DD     		ble	.L120
 198:D:/fchai/work/i-cube/I-CUBE-HUAWEI/Middlewares/Third_Party/Huawei/iot_link/network/dtls/mbedtls/mbedtls-2.16.2/library\pkparse.c ****     if( params->tag != MBEDTLS_ASN1_OID
 1821              		.loc 1 198 5 is_stmt 1 view .LVU551
 198:D:/fchai/work/i-cube/I-CUBE-HUAWEI/Middlewares/Third_Party/Huawei/iot_link/network/dtls/mbedtls/mbedtls-2.16.2/library\pkparse.c ****     if( params->tag != MBEDTLS_ASN1_OID
 1822              		.loc 1 198 19 is_stmt 0 view .LVU552
 1823 00e8 1B78     		ldrb	r3, [r3]	@ zero_extendqisi2
 198:D:/fchai/work/i-cube/I-CUBE-HUAWEI/Middlewares/Third_Party/Huawei/iot_link/network/dtls/mbedtls/mbedtls-2.16.2/library\pkparse.c ****     if( params->tag != MBEDTLS_ASN1_OID
 1824              		.loc 1 198 17 view .LVU553
ARM GAS  T:\msys\tmp\cc83OHoG.s 			page 58


 1825 00ea 0793     		str	r3, [sp, #28]
 199:D:/fchai/work/i-cube/I-CUBE-HUAWEI/Middlewares/Third_Party/Huawei/iot_link/network/dtls/mbedtls/mbedtls-2.16.2/library\pkparse.c **** #if defined(MBEDTLS_PK_PARSE_EC_EXTENDED)
 1826              		.loc 1 199 5 is_stmt 1 view .LVU554
 199:D:/fchai/work/i-cube/I-CUBE-HUAWEI/Middlewares/Third_Party/Huawei/iot_link/network/dtls/mbedtls/mbedtls-2.16.2/library\pkparse.c **** #if defined(MBEDTLS_PK_PARSE_EC_EXTENDED)
 1827              		.loc 1 199 7 is_stmt 0 view .LVU555
 1828 00ec 062B     		cmp	r3, #6
 1829 00ee 01D0     		beq	.L108
 201:D:/fchai/work/i-cube/I-CUBE-HUAWEI/Middlewares/Third_Party/Huawei/iot_link/network/dtls/mbedtls/mbedtls-2.16.2/library\pkparse.c **** #endif
 1830              		.loc 1 201 13 view .LVU556
 1831 00f0 302B     		cmp	r3, #48
 1832 00f2 49D1     		bne	.L121
 1833              	.L108:
 209:D:/fchai/work/i-cube/I-CUBE-HUAWEI/Middlewares/Third_Party/Huawei/iot_link/network/dtls/mbedtls/mbedtls-2.16.2/library\pkparse.c ****     {
 1834              		.loc 1 209 5 is_stmt 1 view .LVU557
 209:D:/fchai/work/i-cube/I-CUBE-HUAWEI/Middlewares/Third_Party/Huawei/iot_link/network/dtls/mbedtls/mbedtls-2.16.2/library\pkparse.c ****     {
 1835              		.loc 1 209 17 is_stmt 0 view .LVU558
 1836 00f4 08AA     		add	r2, sp, #32
 1837 00f6 2146     		mov	r1, r4
 1838 00f8 06A8     		add	r0, sp, #24
 1839              	.LVL217:
 209:D:/fchai/work/i-cube/I-CUBE-HUAWEI/Middlewares/Third_Party/Huawei/iot_link/network/dtls/mbedtls/mbedtls-2.16.2/library\pkparse.c ****     {
 1840              		.loc 1 209 17 view .LVU559
 1841 00fa FFF7FEFF 		bl	mbedtls_asn1_get_tag
 1842              	.LVL218:
 209:D:/fchai/work/i-cube/I-CUBE-HUAWEI/Middlewares/Third_Party/Huawei/iot_link/network/dtls/mbedtls/mbedtls-2.16.2/library\pkparse.c ****     {
 1843              		.loc 1 209 7 view .LVU560
 1844 00fe 0028     		cmp	r0, #0
 1845 0100 32D1     		bne	.L150
 214:D:/fchai/work/i-cube/I-CUBE-HUAWEI/Middlewares/Third_Party/Huawei/iot_link/network/dtls/mbedtls/mbedtls-2.16.2/library\pkparse.c ****     *p += params->len;
 1846              		.loc 1 214 5 is_stmt 1 view .LVU561
 214:D:/fchai/work/i-cube/I-CUBE-HUAWEI/Middlewares/Third_Party/Huawei/iot_link/network/dtls/mbedtls/mbedtls-2.16.2/library\pkparse.c ****     *p += params->len;
 1847              		.loc 1 214 17 is_stmt 0 view .LVU562
 1848 0102 069B     		ldr	r3, [sp, #24]
 215:D:/fchai/work/i-cube/I-CUBE-HUAWEI/Middlewares/Third_Party/Huawei/iot_link/network/dtls/mbedtls/mbedtls-2.16.2/library\pkparse.c **** 
 1849              		.loc 1 215 8 view .LVU563
 1850 0104 089A     		ldr	r2, [sp, #32]
 214:D:/fchai/work/i-cube/I-CUBE-HUAWEI/Middlewares/Third_Party/Huawei/iot_link/network/dtls/mbedtls/mbedtls-2.16.2/library\pkparse.c ****     *p += params->len;
 1851              		.loc 1 214 15 view .LVU564
 1852 0106 0993     		str	r3, [sp, #36]
 215:D:/fchai/work/i-cube/I-CUBE-HUAWEI/Middlewares/Third_Party/Huawei/iot_link/network/dtls/mbedtls/mbedtls-2.16.2/library\pkparse.c **** 
 1853              		.loc 1 215 5 is_stmt 1 view .LVU565
 215:D:/fchai/work/i-cube/I-CUBE-HUAWEI/Middlewares/Third_Party/Huawei/iot_link/network/dtls/mbedtls/mbedtls-2.16.2/library\pkparse.c **** 
 1854              		.loc 1 215 8 is_stmt 0 view .LVU566
 1855 0108 1344     		add	r3, r3, r2
 217:D:/fchai/work/i-cube/I-CUBE-HUAWEI/Middlewares/Third_Party/Huawei/iot_link/network/dtls/mbedtls/mbedtls-2.16.2/library\pkparse.c ****         return( MBEDTLS_ERR_PK_KEY_INVALID_FORMAT +
 1856              		.loc 1 217 7 view .LVU567
 1857 010a 9C42     		cmp	r4, r3
 215:D:/fchai/work/i-cube/I-CUBE-HUAWEI/Middlewares/Third_Party/Huawei/iot_link/network/dtls/mbedtls/mbedtls-2.16.2/library\pkparse.c **** 
 1858              		.loc 1 215 8 view .LVU568
 1859 010c 0693     		str	r3, [sp, #24]
 217:D:/fchai/work/i-cube/I-CUBE-HUAWEI/Middlewares/Third_Party/Huawei/iot_link/network/dtls/mbedtls/mbedtls-2.16.2/library\pkparse.c ****         return( MBEDTLS_ERR_PK_KEY_INVALID_FORMAT +
 1860              		.loc 1 217 5 is_stmt 1 view .LVU569
 217:D:/fchai/work/i-cube/I-CUBE-HUAWEI/Middlewares/Third_Party/Huawei/iot_link/network/dtls/mbedtls/mbedtls-2.16.2/library\pkparse.c ****         return( MBEDTLS_ERR_PK_KEY_INVALID_FORMAT +
 1861              		.loc 1 217 7 is_stmt 0 view .LVU570
 1862 010e 39D1     		bne	.L151
 1863              	.LVL219:
 1864              	.L111:
ARM GAS  T:\msys\tmp\cc83OHoG.s 			page 59


 217:D:/fchai/work/i-cube/I-CUBE-HUAWEI/Middlewares/Third_Party/Huawei/iot_link/network/dtls/mbedtls/mbedtls-2.16.2/library\pkparse.c ****         return( MBEDTLS_ERR_PK_KEY_INVALID_FORMAT +
 1865              		.loc 1 217 7 view .LVU571
 1866              	.LBE77:
 1867              	.LBE81:
 867:D:/fchai/work/i-cube/I-CUBE-HUAWEI/Middlewares/Third_Party/Huawei/iot_link/network/dtls/mbedtls/mbedtls-2.16.2/library\pkparse.c ****             {
 1868              		.loc 1 867 25 view .LVU572
 1869 0110 2946     		mov	r1, r5
 1870 0112 07A8     		add	r0, sp, #28
 1871 0114 FFF7FEFF 		bl	pk_use_ecparams
 1872              	.LVL220:
 866:D:/fchai/work/i-cube/I-CUBE-HUAWEI/Middlewares/Third_Party/Huawei/iot_link/network/dtls/mbedtls/mbedtls-2.16.2/library\pkparse.c ****                 ( ret = pk_use_ecparams( &params, &eck->grp )  ) != 0 )
 1873              		.loc 1 866 71 view .LVU573
 1874 0118 0446     		mov	r4, r0
 1875 011a 0028     		cmp	r0, #0
 1876 011c B6D0     		beq	.L110
 1877              	.LVL221:
 1878              	.L147:
 927:D:/fchai/work/i-cube/I-CUBE-HUAWEI/Middlewares/Third_Party/Huawei/iot_link/network/dtls/mbedtls/mbedtls-2.16.2/library\pkparse.c ****         return( ret );
 1879              		.loc 1 927 9 is_stmt 1 view .LVU574
 1880 011e 2846     		mov	r0, r5
 1881 0120 FFF7FEFF 		bl	mbedtls_ecp_keypair_free
 1882              	.LVL222:
 928:D:/fchai/work/i-cube/I-CUBE-HUAWEI/Middlewares/Third_Party/Huawei/iot_link/network/dtls/mbedtls/mbedtls-2.16.2/library\pkparse.c ****     }
 1883              		.loc 1 928 9 view .LVU575
 928:D:/fchai/work/i-cube/I-CUBE-HUAWEI/Middlewares/Third_Party/Huawei/iot_link/network/dtls/mbedtls/mbedtls-2.16.2/library\pkparse.c ****     }
 1884              		.loc 1 928 15 is_stmt 0 view .LVU576
 1885 0124 7AE7     		b	.L99
 1886              	.LVL223:
 1887              	.L149:
 889:D:/fchai/work/i-cube/I-CUBE-HUAWEI/Middlewares/Third_Party/Huawei/iot_link/network/dtls/mbedtls/mbedtls-2.16.2/library\pkparse.c **** 
 1888              		.loc 1 889 13 is_stmt 1 view .LVU577
 889:D:/fchai/work/i-cube/I-CUBE-HUAWEI/Middlewares/Third_Party/Huawei/iot_link/network/dtls/mbedtls/mbedtls-2.16.2/library\pkparse.c **** 
 1889              		.loc 1 889 18 is_stmt 0 view .LVU578
 1890 0126 DDE90534 		ldrd	r3, r4, [sp, #20]
 1891 012a 1C44     		add	r4, r4, r3
 1892              	.LVL224:
 891:D:/fchai/work/i-cube/I-CUBE-HUAWEI/Middlewares/Third_Party/Huawei/iot_link/network/dtls/mbedtls/mbedtls-2.16.2/library\pkparse.c ****                 return( MBEDTLS_ERR_PK_KEY_INVALID_FORMAT + ret );
 1893              		.loc 1 891 13 is_stmt 1 view .LVU579
 891:D:/fchai/work/i-cube/I-CUBE-HUAWEI/Middlewares/Third_Party/Huawei/iot_link/network/dtls/mbedtls/mbedtls-2.16.2/library\pkparse.c ****                 return( MBEDTLS_ERR_PK_KEY_INVALID_FORMAT + ret );
 1894              		.loc 1 891 25 is_stmt 0 view .LVU580
 1895 012c 05AA     		add	r2, sp, #20
 1896 012e 06A8     		add	r0, sp, #24
 1897              	.LVL225:
 891:D:/fchai/work/i-cube/I-CUBE-HUAWEI/Middlewares/Third_Party/Huawei/iot_link/network/dtls/mbedtls/mbedtls-2.16.2/library\pkparse.c ****                 return( MBEDTLS_ERR_PK_KEY_INVALID_FORMAT + ret );
 1898              		.loc 1 891 25 view .LVU581
 1899 0130 2146     		mov	r1, r4
 1900 0132 FFF7FEFF 		bl	mbedtls_asn1_get_bitstring_null
 1901              	.LVL226:
 891:D:/fchai/work/i-cube/I-CUBE-HUAWEI/Middlewares/Third_Party/Huawei/iot_link/network/dtls/mbedtls/mbedtls-2.16.2/library\pkparse.c ****                 return( MBEDTLS_ERR_PK_KEY_INVALID_FORMAT + ret );
 1902              		.loc 1 891 15 view .LVU582
 1903 0136 0028     		cmp	r0, #0
 1904 0138 7FF46EAF 		bne	.L143
 894:D:/fchai/work/i-cube/I-CUBE-HUAWEI/Middlewares/Third_Party/Huawei/iot_link/network/dtls/mbedtls/mbedtls-2.16.2/library\pkparse.c ****                 return( MBEDTLS_ERR_PK_KEY_INVALID_FORMAT +
 1905              		.loc 1 894 13 is_stmt 1 view .LVU583
 894:D:/fchai/work/i-cube/I-CUBE-HUAWEI/Middlewares/Third_Party/Huawei/iot_link/network/dtls/mbedtls/mbedtls-2.16.2/library\pkparse.c ****                 return( MBEDTLS_ERR_PK_KEY_INVALID_FORMAT +
 1906              		.loc 1 894 19 is_stmt 0 view .LVU584
 1907 013c DDE90532 		ldrd	r3, r2, [sp, #20]
ARM GAS  T:\msys\tmp\cc83OHoG.s 			page 60


 1908 0140 1344     		add	r3, r3, r2
 894:D:/fchai/work/i-cube/I-CUBE-HUAWEI/Middlewares/Third_Party/Huawei/iot_link/network/dtls/mbedtls/mbedtls-2.16.2/library\pkparse.c ****                 return( MBEDTLS_ERR_PK_KEY_INVALID_FORMAT +
 1909              		.loc 1 894 15 view .LVU585
 1910 0142 9C42     		cmp	r4, r3
 1911 0144 1CD1     		bne	.L122
 898:D:/fchai/work/i-cube/I-CUBE-HUAWEI/Middlewares/Third_Party/Huawei/iot_link/network/dtls/mbedtls/mbedtls-2.16.2/library\pkparse.c ****                 pubkey_done = 1;
 1912              		.loc 1 898 13 is_stmt 1 view .LVU586
 1913              	.LVL227:
 1914              	.LBB82:
 1915              	.LBI82:
 500:D:/fchai/work/i-cube/I-CUBE-HUAWEI/Middlewares/Third_Party/Huawei/iot_link/network/dtls/mbedtls/mbedtls-2.16.2/library\pkparse.c ****                             mbedtls_ecp_keypair *key )
 1916              		.loc 1 500 12 view .LVU587
 1917              	.LBB83:
 503:D:/fchai/work/i-cube/I-CUBE-HUAWEI/Middlewares/Third_Party/Huawei/iot_link/network/dtls/mbedtls/mbedtls-2.16.2/library\pkparse.c **** 
 1918              		.loc 1 503 5 view .LVU588
 505:D:/fchai/work/i-cube/I-CUBE-HUAWEI/Middlewares/Third_Party/Huawei/iot_link/network/dtls/mbedtls/mbedtls-2.16.2/library\pkparse.c ****                     (const unsigned char *) *p, end - *p ) ) == 0 )
 1919              		.loc 1 505 5 view .LVU589
 505:D:/fchai/work/i-cube/I-CUBE-HUAWEI/Middlewares/Third_Party/Huawei/iot_link/network/dtls/mbedtls/mbedtls-2.16.2/library\pkparse.c ****                     (const unsigned char *) *p, end - *p ) ) == 0 )
 1920              		.loc 1 505 17 is_stmt 0 view .LVU590
 1921 0146 05F18801 		add	r1, r5, #136
 1922 014a A31A     		subs	r3, r4, r2
 1923 014c 2846     		mov	r0, r5
 1924              	.LVL228:
 505:D:/fchai/work/i-cube/I-CUBE-HUAWEI/Middlewares/Third_Party/Huawei/iot_link/network/dtls/mbedtls/mbedtls-2.16.2/library\pkparse.c ****                     (const unsigned char *) *p, end - *p ) ) == 0 )
 1925              		.loc 1 505 17 view .LVU591
 1926 014e 0391     		str	r1, [sp, #12]
 1927 0150 FFF7FEFF 		bl	mbedtls_ecp_point_read_binary
 1928              	.LVL229:
 505:D:/fchai/work/i-cube/I-CUBE-HUAWEI/Middlewares/Third_Party/Huawei/iot_link/network/dtls/mbedtls/mbedtls-2.16.2/library\pkparse.c ****                     (const unsigned char *) *p, end - *p ) ) == 0 )
 1929              		.loc 1 505 7 view .LVU592
 1930 0154 0399     		ldr	r1, [sp, #12]
 1931 0156 58B1     		cbz	r0, .L152
 514:D:/fchai/work/i-cube/I-CUBE-HUAWEI/Middlewares/Third_Party/Huawei/iot_link/network/dtls/mbedtls/mbedtls-2.16.2/library\pkparse.c **** 
 1932              		.loc 1 514 5 is_stmt 1 view .LVU593
 514:D:/fchai/work/i-cube/I-CUBE-HUAWEI/Middlewares/Third_Party/Huawei/iot_link/network/dtls/mbedtls/mbedtls-2.16.2/library\pkparse.c **** 
 1933              		.loc 1 514 8 is_stmt 0 view .LVU594
 1934 0158 0694     		str	r4, [sp, #24]
 516:D:/fchai/work/i-cube/I-CUBE-HUAWEI/Middlewares/Third_Party/Huawei/iot_link/network/dtls/mbedtls/mbedtls-2.16.2/library\pkparse.c **** }
 1935              		.loc 1 516 5 is_stmt 1 view .LVU595
 1936              	.LVL230:
 1937              	.L118:
 516:D:/fchai/work/i-cube/I-CUBE-HUAWEI/Middlewares/Third_Party/Huawei/iot_link/network/dtls/mbedtls/mbedtls-2.16.2/library\pkparse.c **** }
 1938              		.loc 1 516 5 is_stmt 0 view .LVU596
 1939              	.LBE83:
 1940              	.LBE82:
 906:D:/fchai/work/i-cube/I-CUBE-HUAWEI/Middlewares/Third_Party/Huawei/iot_link/network/dtls/mbedtls/mbedtls-2.16.2/library\pkparse.c ****                     return( MBEDTLS_ERR_PK_KEY_INVALID_FORMAT );
 1941              		.loc 1 906 17 is_stmt 1 view .LVU597
 906:D:/fchai/work/i-cube/I-CUBE-HUAWEI/Middlewares/Third_Party/Huawei/iot_link/network/dtls/mbedtls/mbedtls-2.16.2/library\pkparse.c ****                     return( MBEDTLS_ERR_PK_KEY_INVALID_FORMAT );
 1942              		.loc 1 906 19 is_stmt 0 view .LVU598
 1943 015a 10F59D4F 		cmn	r0, #20096
 1944 015e A6D0     		beq	.L105
 907:D:/fchai/work/i-cube/I-CUBE-HUAWEI/Middlewares/Third_Party/Huawei/iot_link/network/dtls/mbedtls/mbedtls-2.16.2/library\pkparse.c ****             }
 1945              		.loc 1 907 27 view .LVU599
 1946 0160 0B4C     		ldr	r4, .L153
 1947              	.LVL231:
 907:D:/fchai/work/i-cube/I-CUBE-HUAWEI/Middlewares/Third_Party/Huawei/iot_link/network/dtls/mbedtls/mbedtls-2.16.2/library\pkparse.c ****             }
 1948              		.loc 1 907 27 view .LVU600
ARM GAS  T:\msys\tmp\cc83OHoG.s 			page 61


 1949 0162 5BE7     		b	.L99
 1950              	.LVL232:
 1951              	.L119:
 844:D:/fchai/work/i-cube/I-CUBE-HUAWEI/Middlewares/Third_Party/Huawei/iot_link/network/dtls/mbedtls/mbedtls-2.16.2/library\pkparse.c **** 
 1952              		.loc 1 844 15 view .LVU601
 1953 0164 0B4C     		ldr	r4, .L153+4
 1954 0166 59E7     		b	.L99
 1955              	.LVL233:
 1956              	.L150:
 1957              	.LBB86:
 1958              	.LBB78:
 211:D:/fchai/work/i-cube/I-CUBE-HUAWEI/Middlewares/Third_Party/Huawei/iot_link/network/dtls/mbedtls/mbedtls-2.16.2/library\pkparse.c ****     }
 1959              		.loc 1 211 9 is_stmt 1 view .LVU602
 211:D:/fchai/work/i-cube/I-CUBE-HUAWEI/Middlewares/Third_Party/Huawei/iot_link/network/dtls/mbedtls/mbedtls-2.16.2/library\pkparse.c ****     }
 1960              		.loc 1 211 9 is_stmt 0 view .LVU603
 1961              	.LBE78:
 1962              	.LBE86:
 866:D:/fchai/work/i-cube/I-CUBE-HUAWEI/Middlewares/Third_Party/Huawei/iot_link/network/dtls/mbedtls/mbedtls-2.16.2/library\pkparse.c ****                 ( ret = pk_use_ecparams( &params, &eck->grp )  ) != 0 )
 1963              		.loc 1 866 15 view .LVU604
 1964 0168 B0F57454 		subs	r4, r0, #15616
 1965              	.LVL234:
 866:D:/fchai/work/i-cube/I-CUBE-HUAWEI/Middlewares/Third_Party/Huawei/iot_link/network/dtls/mbedtls/mbedtls-2.16.2/library\pkparse.c ****                 ( ret = pk_use_ecparams( &params, &eck->grp )  ) != 0 )
 1966              		.loc 1 866 15 view .LVU605
 1967 016c D7D1     		bne	.L147
 1968 016e CFE7     		b	.L111
 1969              	.LVL235:
 1970              	.L152:
 1971              	.LBB87:
 1972              	.LBB84:
 508:D:/fchai/work/i-cube/I-CUBE-HUAWEI/Middlewares/Third_Party/Huawei/iot_link/network/dtls/mbedtls/mbedtls-2.16.2/library\pkparse.c ****     }
 1973              		.loc 1 508 9 is_stmt 1 view .LVU606
 508:D:/fchai/work/i-cube/I-CUBE-HUAWEI/Middlewares/Third_Party/Huawei/iot_link/network/dtls/mbedtls/mbedtls-2.16.2/library\pkparse.c ****     }
 1974              		.loc 1 508 15 is_stmt 0 view .LVU607
 1975 0170 2846     		mov	r0, r5
 1976              	.LVL236:
 508:D:/fchai/work/i-cube/I-CUBE-HUAWEI/Middlewares/Third_Party/Huawei/iot_link/network/dtls/mbedtls/mbedtls-2.16.2/library\pkparse.c ****     }
 1977              		.loc 1 508 15 view .LVU608
 1978 0172 FFF7FEFF 		bl	mbedtls_ecp_check_pubkey
 1979              	.LVL237:
 514:D:/fchai/work/i-cube/I-CUBE-HUAWEI/Middlewares/Third_Party/Huawei/iot_link/network/dtls/mbedtls/mbedtls-2.16.2/library\pkparse.c **** 
 1980              		.loc 1 514 5 is_stmt 1 view .LVU609
 1981              	.LBE84:
 1982              	.LBE87:
 898:D:/fchai/work/i-cube/I-CUBE-HUAWEI/Middlewares/Third_Party/Huawei/iot_link/network/dtls/mbedtls/mbedtls-2.16.2/library\pkparse.c ****                 pubkey_done = 1;
 1983              		.loc 1 898 15 is_stmt 0 view .LVU610
 1984 0176 0399     		ldr	r1, [sp, #12]
 1985              	.LBB88:
 1986              	.LBB85:
 514:D:/fchai/work/i-cube/I-CUBE-HUAWEI/Middlewares/Third_Party/Huawei/iot_link/network/dtls/mbedtls/mbedtls-2.16.2/library\pkparse.c **** 
 1987              		.loc 1 514 8 view .LVU611
 1988 0178 0694     		str	r4, [sp, #24]
 516:D:/fchai/work/i-cube/I-CUBE-HUAWEI/Middlewares/Third_Party/Huawei/iot_link/network/dtls/mbedtls/mbedtls-2.16.2/library\pkparse.c **** }
 1989              		.loc 1 516 5 is_stmt 1 view .LVU612
 1990              	.LVL238:
 516:D:/fchai/work/i-cube/I-CUBE-HUAWEI/Middlewares/Third_Party/Huawei/iot_link/network/dtls/mbedtls/mbedtls-2.16.2/library\pkparse.c **** }
 1991              		.loc 1 516 5 is_stmt 0 view .LVU613
 1992              	.LBE85:
ARM GAS  T:\msys\tmp\cc83OHoG.s 			page 62


 1993              	.LBE88:
 898:D:/fchai/work/i-cube/I-CUBE-HUAWEI/Middlewares/Third_Party/Huawei/iot_link/network/dtls/mbedtls/mbedtls-2.16.2/library\pkparse.c ****                 pubkey_done = 1;
 1994              		.loc 1 898 15 view .LVU614
 1995 017a 0028     		cmp	r0, #0
 1996 017c A2D0     		beq	.L114
 898:D:/fchai/work/i-cube/I-CUBE-HUAWEI/Middlewares/Third_Party/Huawei/iot_link/network/dtls/mbedtls/mbedtls-2.16.2/library\pkparse.c ****                 pubkey_done = 1;
 1997              		.loc 1 898 15 view .LVU615
 1998 017e ECE7     		b	.L118
 1999              	.L122:
 895:D:/fchai/work/i-cube/I-CUBE-HUAWEI/Middlewares/Third_Party/Huawei/iot_link/network/dtls/mbedtls/mbedtls-2.16.2/library\pkparse.c ****                         MBEDTLS_ERR_ASN1_LENGTH_MISMATCH );
 2000              		.loc 1 895 23 view .LVU616
 2001 0180 054C     		ldr	r4, .L153+8
 2002              	.LVL239:
 895:D:/fchai/work/i-cube/I-CUBE-HUAWEI/Middlewares/Third_Party/Huawei/iot_link/network/dtls/mbedtls/mbedtls-2.16.2/library\pkparse.c ****                         MBEDTLS_ERR_ASN1_LENGTH_MISMATCH );
 2003              		.loc 1 895 23 view .LVU617
 2004 0182 4BE7     		b	.L99
 2005              	.LVL240:
 2006              	.L151:
 2007              	.LBB89:
 2008              	.LBB79:
 218:D:/fchai/work/i-cube/I-CUBE-HUAWEI/Middlewares/Third_Party/Huawei/iot_link/network/dtls/mbedtls/mbedtls-2.16.2/library\pkparse.c ****                 MBEDTLS_ERR_ASN1_LENGTH_MISMATCH );
 2009              		.loc 1 218 15 view .LVU618
 2010 0184 044C     		ldr	r4, .L153+8
 2011              	.LVL241:
 218:D:/fchai/work/i-cube/I-CUBE-HUAWEI/Middlewares/Third_Party/Huawei/iot_link/network/dtls/mbedtls/mbedtls-2.16.2/library\pkparse.c ****                 MBEDTLS_ERR_ASN1_LENGTH_MISMATCH );
 2012              		.loc 1 218 15 view .LVU619
 2013 0186 CAE7     		b	.L147
 2014              	.LVL242:
 2015              	.L121:
 205:D:/fchai/work/i-cube/I-CUBE-HUAWEI/Middlewares/Third_Party/Huawei/iot_link/network/dtls/mbedtls/mbedtls-2.16.2/library\pkparse.c ****                 MBEDTLS_ERR_ASN1_UNEXPECTED_TAG );
 2016              		.loc 1 205 15 view .LVU620
 2017 0188 044C     		ldr	r4, .L153+12
 2018              	.LVL243:
 205:D:/fchai/work/i-cube/I-CUBE-HUAWEI/Middlewares/Third_Party/Huawei/iot_link/network/dtls/mbedtls/mbedtls-2.16.2/library\pkparse.c ****                 MBEDTLS_ERR_ASN1_UNEXPECTED_TAG );
 2019              		.loc 1 205 15 view .LVU621
 2020              	.LBE79:
 2021              	.LBE89:
 869:D:/fchai/work/i-cube/I-CUBE-HUAWEI/Middlewares/Third_Party/Huawei/iot_link/network/dtls/mbedtls/mbedtls-2.16.2/library\pkparse.c ****                 return( ret );
 2022              		.loc 1 869 17 is_stmt 1 view .LVU622
 2023 018a C8E7     		b	.L147
 2024              	.LVL244:
 2025              	.L120:
 2026              	.LBB90:
 2027              	.LBB80:
 194:D:/fchai/work/i-cube/I-CUBE-HUAWEI/Middlewares/Third_Party/Huawei/iot_link/network/dtls/mbedtls/mbedtls-2.16.2/library\pkparse.c ****                 MBEDTLS_ERR_ASN1_OUT_OF_DATA );
 2028              		.loc 1 194 15 is_stmt 0 view .LVU623
 2029 018c 044C     		ldr	r4, .L153+16
 2030              	.LVL245:
 194:D:/fchai/work/i-cube/I-CUBE-HUAWEI/Middlewares/Third_Party/Huawei/iot_link/network/dtls/mbedtls/mbedtls-2.16.2/library\pkparse.c ****                 MBEDTLS_ERR_ASN1_OUT_OF_DATA );
 2031              		.loc 1 194 15 view .LVU624
 2032 018e C6E7     		b	.L147
 2033              	.L154:
 2034              		.align	2
 2035              	.L153:
 2036 0190 00C3FFFF 		.word	-15616
 2037 0194 80C2FFFF 		.word	-15744
 2038 0198 9AC2FFFF 		.word	-15718
ARM GAS  T:\msys\tmp\cc83OHoG.s 			page 63


 2039 019c 9EC2FFFF 		.word	-15714
 2040 01a0 A0C2FFFF 		.word	-15712
 2041              	.LBE80:
 2042              	.LBE90:
 2043              		.cfi_endproc
 2044              	.LFE23:
 2046              		.section	.text.pk_parse_key_pkcs8_unencrypted_der,"ax",%progbits
 2047              		.align	1
 2048              		.p2align 2,,3
 2049              		.syntax unified
 2050              		.thumb
 2051              		.thumb_func
 2052              		.fpu fpv4-sp-d16
 2054              	pk_parse_key_pkcs8_unencrypted_der:
 2055              	.LVL246:
 2056              	.LFB24:
 933:D:/fchai/work/i-cube/I-CUBE-HUAWEI/Middlewares/Third_Party/Huawei/iot_link/network/dtls/mbedtls/mbedtls-2.16.2/library\pkparse.c **** #endif /* MBEDTLS_ECP_C */
 934:D:/fchai/work/i-cube/I-CUBE-HUAWEI/Middlewares/Third_Party/Huawei/iot_link/network/dtls/mbedtls/mbedtls-2.16.2/library\pkparse.c **** 
 935:D:/fchai/work/i-cube/I-CUBE-HUAWEI/Middlewares/Third_Party/Huawei/iot_link/network/dtls/mbedtls/mbedtls-2.16.2/library\pkparse.c **** /*
 936:D:/fchai/work/i-cube/I-CUBE-HUAWEI/Middlewares/Third_Party/Huawei/iot_link/network/dtls/mbedtls/mbedtls-2.16.2/library\pkparse.c ****  * Parse an unencrypted PKCS#8 encoded private key
 937:D:/fchai/work/i-cube/I-CUBE-HUAWEI/Middlewares/Third_Party/Huawei/iot_link/network/dtls/mbedtls/mbedtls-2.16.2/library\pkparse.c ****  *
 938:D:/fchai/work/i-cube/I-CUBE-HUAWEI/Middlewares/Third_Party/Huawei/iot_link/network/dtls/mbedtls/mbedtls-2.16.2/library\pkparse.c ****  * Notes:
 939:D:/fchai/work/i-cube/I-CUBE-HUAWEI/Middlewares/Third_Party/Huawei/iot_link/network/dtls/mbedtls/mbedtls-2.16.2/library\pkparse.c ****  *
 940:D:/fchai/work/i-cube/I-CUBE-HUAWEI/Middlewares/Third_Party/Huawei/iot_link/network/dtls/mbedtls/mbedtls-2.16.2/library\pkparse.c ****  * - This function does not own the key buffer. It is the
 941:D:/fchai/work/i-cube/I-CUBE-HUAWEI/Middlewares/Third_Party/Huawei/iot_link/network/dtls/mbedtls/mbedtls-2.16.2/library\pkparse.c ****  *   responsibility of the caller to take care of zeroizing
 942:D:/fchai/work/i-cube/I-CUBE-HUAWEI/Middlewares/Third_Party/Huawei/iot_link/network/dtls/mbedtls/mbedtls-2.16.2/library\pkparse.c ****  *   and freeing it after use.
 943:D:/fchai/work/i-cube/I-CUBE-HUAWEI/Middlewares/Third_Party/Huawei/iot_link/network/dtls/mbedtls/mbedtls-2.16.2/library\pkparse.c ****  *
 944:D:/fchai/work/i-cube/I-CUBE-HUAWEI/Middlewares/Third_Party/Huawei/iot_link/network/dtls/mbedtls/mbedtls-2.16.2/library\pkparse.c ****  * - The function is responsible for freeing the provided
 945:D:/fchai/work/i-cube/I-CUBE-HUAWEI/Middlewares/Third_Party/Huawei/iot_link/network/dtls/mbedtls/mbedtls-2.16.2/library\pkparse.c ****  *   PK context on failure.
 946:D:/fchai/work/i-cube/I-CUBE-HUAWEI/Middlewares/Third_Party/Huawei/iot_link/network/dtls/mbedtls/mbedtls-2.16.2/library\pkparse.c ****  *
 947:D:/fchai/work/i-cube/I-CUBE-HUAWEI/Middlewares/Third_Party/Huawei/iot_link/network/dtls/mbedtls/mbedtls-2.16.2/library\pkparse.c ****  */
 948:D:/fchai/work/i-cube/I-CUBE-HUAWEI/Middlewares/Third_Party/Huawei/iot_link/network/dtls/mbedtls/mbedtls-2.16.2/library\pkparse.c **** static int pk_parse_key_pkcs8_unencrypted_der(
 949:D:/fchai/work/i-cube/I-CUBE-HUAWEI/Middlewares/Third_Party/Huawei/iot_link/network/dtls/mbedtls/mbedtls-2.16.2/library\pkparse.c ****                                     mbedtls_pk_context *pk,
 950:D:/fchai/work/i-cube/I-CUBE-HUAWEI/Middlewares/Third_Party/Huawei/iot_link/network/dtls/mbedtls/mbedtls-2.16.2/library\pkparse.c ****                                     const unsigned char* key,
 951:D:/fchai/work/i-cube/I-CUBE-HUAWEI/Middlewares/Third_Party/Huawei/iot_link/network/dtls/mbedtls/mbedtls-2.16.2/library\pkparse.c ****                                     size_t keylen )
 952:D:/fchai/work/i-cube/I-CUBE-HUAWEI/Middlewares/Third_Party/Huawei/iot_link/network/dtls/mbedtls/mbedtls-2.16.2/library\pkparse.c **** {
 2057              		.loc 1 952 1 is_stmt 1 view -0
 2058              		.cfi_startproc
 2059              		@ args = 0, pretend = 0, frame = 40
 2060              		@ frame_needed = 0, uses_anonymous_args = 0
 953:D:/fchai/work/i-cube/I-CUBE-HUAWEI/Middlewares/Third_Party/Huawei/iot_link/network/dtls/mbedtls/mbedtls-2.16.2/library\pkparse.c ****     int ret, version;
 2061              		.loc 1 953 5 view .LVU626
 954:D:/fchai/work/i-cube/I-CUBE-HUAWEI/Middlewares/Third_Party/Huawei/iot_link/network/dtls/mbedtls/mbedtls-2.16.2/library\pkparse.c ****     size_t len;
 2062              		.loc 1 954 5 view .LVU627
 955:D:/fchai/work/i-cube/I-CUBE-HUAWEI/Middlewares/Third_Party/Huawei/iot_link/network/dtls/mbedtls/mbedtls-2.16.2/library\pkparse.c ****     mbedtls_asn1_buf params;
 2063              		.loc 1 955 5 view .LVU628
 956:D:/fchai/work/i-cube/I-CUBE-HUAWEI/Middlewares/Third_Party/Huawei/iot_link/network/dtls/mbedtls/mbedtls-2.16.2/library\pkparse.c ****     unsigned char *p = (unsigned char *) key;
 2064              		.loc 1 956 5 view .LVU629
 952:D:/fchai/work/i-cube/I-CUBE-HUAWEI/Middlewares/Third_Party/Huawei/iot_link/network/dtls/mbedtls/mbedtls-2.16.2/library\pkparse.c ****     int ret, version;
 2065              		.loc 1 952 1 is_stmt 0 view .LVU630
 2066 0000 30B5     		push	{r4, r5, lr}
 2067              	.LCFI30:
 2068              		.cfi_def_cfa_offset 12
 2069              		.cfi_offset 4, -12
 2070              		.cfi_offset 5, -8
 2071              		.cfi_offset 14, -4
 2072 0002 8BB0     		sub	sp, sp, #44
ARM GAS  T:\msys\tmp\cc83OHoG.s 			page 64


 2073              	.LCFI31:
 2074              		.cfi_def_cfa_offset 56
 952:D:/fchai/work/i-cube/I-CUBE-HUAWEI/Middlewares/Third_Party/Huawei/iot_link/network/dtls/mbedtls/mbedtls-2.16.2/library\pkparse.c ****     int ret, version;
 2075              		.loc 1 952 1 view .LVU631
 2076 0004 0B46     		mov	r3, r1
 2077 0006 0546     		mov	r5, r0
 957:D:/fchai/work/i-cube/I-CUBE-HUAWEI/Middlewares/Third_Party/Huawei/iot_link/network/dtls/mbedtls/mbedtls-2.16.2/library\pkparse.c ****     unsigned char *end = p + keylen;
 958:D:/fchai/work/i-cube/I-CUBE-HUAWEI/Middlewares/Third_Party/Huawei/iot_link/network/dtls/mbedtls/mbedtls-2.16.2/library\pkparse.c ****     mbedtls_pk_type_t pk_alg = MBEDTLS_PK_NONE;
 959:D:/fchai/work/i-cube/I-CUBE-HUAWEI/Middlewares/Third_Party/Huawei/iot_link/network/dtls/mbedtls/mbedtls-2.16.2/library\pkparse.c ****     const mbedtls_pk_info_t *pk_info;
 960:D:/fchai/work/i-cube/I-CUBE-HUAWEI/Middlewares/Third_Party/Huawei/iot_link/network/dtls/mbedtls/mbedtls-2.16.2/library\pkparse.c **** 
 961:D:/fchai/work/i-cube/I-CUBE-HUAWEI/Middlewares/Third_Party/Huawei/iot_link/network/dtls/mbedtls/mbedtls-2.16.2/library\pkparse.c ****     /*
 962:D:/fchai/work/i-cube/I-CUBE-HUAWEI/Middlewares/Third_Party/Huawei/iot_link/network/dtls/mbedtls/mbedtls-2.16.2/library\pkparse.c ****      * This function parses the PrivateKeyInfo object (PKCS#8 v1.2 = RFC 5208)
 963:D:/fchai/work/i-cube/I-CUBE-HUAWEI/Middlewares/Third_Party/Huawei/iot_link/network/dtls/mbedtls/mbedtls-2.16.2/library\pkparse.c ****      *
 964:D:/fchai/work/i-cube/I-CUBE-HUAWEI/Middlewares/Third_Party/Huawei/iot_link/network/dtls/mbedtls/mbedtls-2.16.2/library\pkparse.c ****      *    PrivateKeyInfo ::= SEQUENCE {
 965:D:/fchai/work/i-cube/I-CUBE-HUAWEI/Middlewares/Third_Party/Huawei/iot_link/network/dtls/mbedtls/mbedtls-2.16.2/library\pkparse.c ****      *      version                   Version,
 966:D:/fchai/work/i-cube/I-CUBE-HUAWEI/Middlewares/Third_Party/Huawei/iot_link/network/dtls/mbedtls/mbedtls-2.16.2/library\pkparse.c ****      *      privateKeyAlgorithm       PrivateKeyAlgorithmIdentifier,
 967:D:/fchai/work/i-cube/I-CUBE-HUAWEI/Middlewares/Third_Party/Huawei/iot_link/network/dtls/mbedtls/mbedtls-2.16.2/library\pkparse.c ****      *      privateKey                PrivateKey,
 968:D:/fchai/work/i-cube/I-CUBE-HUAWEI/Middlewares/Third_Party/Huawei/iot_link/network/dtls/mbedtls/mbedtls-2.16.2/library\pkparse.c ****      *      attributes           [0]  IMPLICIT Attributes OPTIONAL }
 969:D:/fchai/work/i-cube/I-CUBE-HUAWEI/Middlewares/Third_Party/Huawei/iot_link/network/dtls/mbedtls/mbedtls-2.16.2/library\pkparse.c ****      *
 970:D:/fchai/work/i-cube/I-CUBE-HUAWEI/Middlewares/Third_Party/Huawei/iot_link/network/dtls/mbedtls/mbedtls-2.16.2/library\pkparse.c ****      *    Version ::= INTEGER
 971:D:/fchai/work/i-cube/I-CUBE-HUAWEI/Middlewares/Third_Party/Huawei/iot_link/network/dtls/mbedtls/mbedtls-2.16.2/library\pkparse.c ****      *    PrivateKeyAlgorithmIdentifier ::= AlgorithmIdentifier
 972:D:/fchai/work/i-cube/I-CUBE-HUAWEI/Middlewares/Third_Party/Huawei/iot_link/network/dtls/mbedtls/mbedtls-2.16.2/library\pkparse.c ****      *    PrivateKey ::= OCTET STRING
 973:D:/fchai/work/i-cube/I-CUBE-HUAWEI/Middlewares/Third_Party/Huawei/iot_link/network/dtls/mbedtls/mbedtls-2.16.2/library\pkparse.c ****      *
 974:D:/fchai/work/i-cube/I-CUBE-HUAWEI/Middlewares/Third_Party/Huawei/iot_link/network/dtls/mbedtls/mbedtls-2.16.2/library\pkparse.c ****      *  The PrivateKey OCTET STRING is a SEC1 ECPrivateKey
 975:D:/fchai/work/i-cube/I-CUBE-HUAWEI/Middlewares/Third_Party/Huawei/iot_link/network/dtls/mbedtls/mbedtls-2.16.2/library\pkparse.c ****      */
 976:D:/fchai/work/i-cube/I-CUBE-HUAWEI/Middlewares/Third_Party/Huawei/iot_link/network/dtls/mbedtls/mbedtls-2.16.2/library\pkparse.c **** 
 977:D:/fchai/work/i-cube/I-CUBE-HUAWEI/Middlewares/Third_Party/Huawei/iot_link/network/dtls/mbedtls/mbedtls-2.16.2/library\pkparse.c ****     if( ( ret = mbedtls_asn1_get_tag( &p, end, &len,
 2078              		.loc 1 977 17 view .LVU632
 2079 0008 1144     		add	r1, r1, r2
 2080              	.LVL247:
 958:D:/fchai/work/i-cube/I-CUBE-HUAWEI/Middlewares/Third_Party/Huawei/iot_link/network/dtls/mbedtls/mbedtls-2.16.2/library\pkparse.c ****     const mbedtls_pk_info_t *pk_info;
 2081              		.loc 1 958 23 view .LVU633
 2082 000a 0024     		movs	r4, #0
 956:D:/fchai/work/i-cube/I-CUBE-HUAWEI/Middlewares/Third_Party/Huawei/iot_link/network/dtls/mbedtls/mbedtls-2.16.2/library\pkparse.c ****     unsigned char *end = p + keylen;
 2083              		.loc 1 956 20 view .LVU634
 2084 000c 0693     		str	r3, [sp, #24]
 957:D:/fchai/work/i-cube/I-CUBE-HUAWEI/Middlewares/Third_Party/Huawei/iot_link/network/dtls/mbedtls/mbedtls-2.16.2/library\pkparse.c ****     unsigned char *end = p + keylen;
 2085              		.loc 1 957 5 is_stmt 1 view .LVU635
 2086              	.LVL248:
 958:D:/fchai/work/i-cube/I-CUBE-HUAWEI/Middlewares/Third_Party/Huawei/iot_link/network/dtls/mbedtls/mbedtls-2.16.2/library\pkparse.c ****     const mbedtls_pk_info_t *pk_info;
 2087              		.loc 1 958 5 view .LVU636
 2088              		.loc 1 977 17 is_stmt 0 view .LVU637
 2089 000e 05AA     		add	r2, sp, #20
 2090              	.LVL249:
 2091              		.loc 1 977 17 view .LVU638
 2092 0010 06A8     		add	r0, sp, #24
 2093              	.LVL250:
 2094              		.loc 1 977 17 view .LVU639
 2095 0012 3023     		movs	r3, #48
 2096              	.LVL251:
 958:D:/fchai/work/i-cube/I-CUBE-HUAWEI/Middlewares/Third_Party/Huawei/iot_link/network/dtls/mbedtls/mbedtls-2.16.2/library\pkparse.c ****     const mbedtls_pk_info_t *pk_info;
 2097              		.loc 1 958 23 view .LVU640
 2098 0014 8DF80F40 		strb	r4, [sp, #15]
 959:D:/fchai/work/i-cube/I-CUBE-HUAWEI/Middlewares/Third_Party/Huawei/iot_link/network/dtls/mbedtls/mbedtls-2.16.2/library\pkparse.c **** 
 2099              		.loc 1 959 5 is_stmt 1 view .LVU641
 2100              		.loc 1 977 5 view .LVU642
 2101              		.loc 1 977 17 is_stmt 0 view .LVU643
ARM GAS  T:\msys\tmp\cc83OHoG.s 			page 65


 2102 0018 FFF7FEFF 		bl	mbedtls_asn1_get_tag
 2103              	.LVL252:
 2104              		.loc 1 977 7 view .LVU644
 2105 001c 20B1     		cbz	r0, .L156
 2106              	.LVL253:
 2107              	.L174:
 978:D:/fchai/work/i-cube/I-CUBE-HUAWEI/Middlewares/Third_Party/Huawei/iot_link/network/dtls/mbedtls/mbedtls-2.16.2/library\pkparse.c ****             MBEDTLS_ASN1_CONSTRUCTED | MBEDTLS_ASN1_SEQUENCE ) ) != 0 )
 979:D:/fchai/work/i-cube/I-CUBE-HUAWEI/Middlewares/Third_Party/Huawei/iot_link/network/dtls/mbedtls/mbedtls-2.16.2/library\pkparse.c ****     {
 980:D:/fchai/work/i-cube/I-CUBE-HUAWEI/Middlewares/Third_Party/Huawei/iot_link/network/dtls/mbedtls/mbedtls-2.16.2/library\pkparse.c ****         return( MBEDTLS_ERR_PK_KEY_INVALID_FORMAT + ret );
 981:D:/fchai/work/i-cube/I-CUBE-HUAWEI/Middlewares/Third_Party/Huawei/iot_link/network/dtls/mbedtls/mbedtls-2.16.2/library\pkparse.c ****     }
 982:D:/fchai/work/i-cube/I-CUBE-HUAWEI/Middlewares/Third_Party/Huawei/iot_link/network/dtls/mbedtls/mbedtls-2.16.2/library\pkparse.c **** 
 983:D:/fchai/work/i-cube/I-CUBE-HUAWEI/Middlewares/Third_Party/Huawei/iot_link/network/dtls/mbedtls/mbedtls-2.16.2/library\pkparse.c ****     end = p + len;
 984:D:/fchai/work/i-cube/I-CUBE-HUAWEI/Middlewares/Third_Party/Huawei/iot_link/network/dtls/mbedtls/mbedtls-2.16.2/library\pkparse.c **** 
 985:D:/fchai/work/i-cube/I-CUBE-HUAWEI/Middlewares/Third_Party/Huawei/iot_link/network/dtls/mbedtls/mbedtls-2.16.2/library\pkparse.c ****     if( ( ret = mbedtls_asn1_get_int( &p, end, &version ) ) != 0 )
 986:D:/fchai/work/i-cube/I-CUBE-HUAWEI/Middlewares/Third_Party/Huawei/iot_link/network/dtls/mbedtls/mbedtls-2.16.2/library\pkparse.c ****         return( MBEDTLS_ERR_PK_KEY_INVALID_FORMAT + ret );
 987:D:/fchai/work/i-cube/I-CUBE-HUAWEI/Middlewares/Third_Party/Huawei/iot_link/network/dtls/mbedtls/mbedtls-2.16.2/library\pkparse.c **** 
 988:D:/fchai/work/i-cube/I-CUBE-HUAWEI/Middlewares/Third_Party/Huawei/iot_link/network/dtls/mbedtls/mbedtls-2.16.2/library\pkparse.c ****     if( version != 0 )
 989:D:/fchai/work/i-cube/I-CUBE-HUAWEI/Middlewares/Third_Party/Huawei/iot_link/network/dtls/mbedtls/mbedtls-2.16.2/library\pkparse.c ****         return( MBEDTLS_ERR_PK_KEY_INVALID_VERSION + ret );
 990:D:/fchai/work/i-cube/I-CUBE-HUAWEI/Middlewares/Third_Party/Huawei/iot_link/network/dtls/mbedtls/mbedtls-2.16.2/library\pkparse.c **** 
 991:D:/fchai/work/i-cube/I-CUBE-HUAWEI/Middlewares/Third_Party/Huawei/iot_link/network/dtls/mbedtls/mbedtls-2.16.2/library\pkparse.c ****     if( ( ret = pk_get_pk_alg( &p, end, &pk_alg, &params ) ) != 0 )
 992:D:/fchai/work/i-cube/I-CUBE-HUAWEI/Middlewares/Third_Party/Huawei/iot_link/network/dtls/mbedtls/mbedtls-2.16.2/library\pkparse.c ****         return( MBEDTLS_ERR_PK_KEY_INVALID_FORMAT + ret );
 993:D:/fchai/work/i-cube/I-CUBE-HUAWEI/Middlewares/Third_Party/Huawei/iot_link/network/dtls/mbedtls/mbedtls-2.16.2/library\pkparse.c **** 
 994:D:/fchai/work/i-cube/I-CUBE-HUAWEI/Middlewares/Third_Party/Huawei/iot_link/network/dtls/mbedtls/mbedtls-2.16.2/library\pkparse.c ****     if( ( ret = mbedtls_asn1_get_tag( &p, end, &len, MBEDTLS_ASN1_OCTET_STRING ) ) != 0 )
 995:D:/fchai/work/i-cube/I-CUBE-HUAWEI/Middlewares/Third_Party/Huawei/iot_link/network/dtls/mbedtls/mbedtls-2.16.2/library\pkparse.c ****         return( MBEDTLS_ERR_PK_KEY_INVALID_FORMAT + ret );
 2108              		.loc 1 995 9 is_stmt 1 view .LVU645
 2109              		.loc 1 995 51 is_stmt 0 view .LVU646
 2110 001e A0F57454 		sub	r4, r0, #15616
 2111              	.LVL254:
 2112              	.L155:
 996:D:/fchai/work/i-cube/I-CUBE-HUAWEI/Middlewares/Third_Party/Huawei/iot_link/network/dtls/mbedtls/mbedtls-2.16.2/library\pkparse.c **** 
 997:D:/fchai/work/i-cube/I-CUBE-HUAWEI/Middlewares/Third_Party/Huawei/iot_link/network/dtls/mbedtls/mbedtls-2.16.2/library\pkparse.c ****     if( len < 1 )
 998:D:/fchai/work/i-cube/I-CUBE-HUAWEI/Middlewares/Third_Party/Huawei/iot_link/network/dtls/mbedtls/mbedtls-2.16.2/library\pkparse.c ****         return( MBEDTLS_ERR_PK_KEY_INVALID_FORMAT +
 999:D:/fchai/work/i-cube/I-CUBE-HUAWEI/Middlewares/Third_Party/Huawei/iot_link/network/dtls/mbedtls/mbedtls-2.16.2/library\pkparse.c ****                 MBEDTLS_ERR_ASN1_OUT_OF_DATA );
1000:D:/fchai/work/i-cube/I-CUBE-HUAWEI/Middlewares/Third_Party/Huawei/iot_link/network/dtls/mbedtls/mbedtls-2.16.2/library\pkparse.c **** 
1001:D:/fchai/work/i-cube/I-CUBE-HUAWEI/Middlewares/Third_Party/Huawei/iot_link/network/dtls/mbedtls/mbedtls-2.16.2/library\pkparse.c ****     if( ( pk_info = mbedtls_pk_info_from_type( pk_alg ) ) == NULL )
1002:D:/fchai/work/i-cube/I-CUBE-HUAWEI/Middlewares/Third_Party/Huawei/iot_link/network/dtls/mbedtls/mbedtls-2.16.2/library\pkparse.c ****         return( MBEDTLS_ERR_PK_UNKNOWN_PK_ALG );
1003:D:/fchai/work/i-cube/I-CUBE-HUAWEI/Middlewares/Third_Party/Huawei/iot_link/network/dtls/mbedtls/mbedtls-2.16.2/library\pkparse.c **** 
1004:D:/fchai/work/i-cube/I-CUBE-HUAWEI/Middlewares/Third_Party/Huawei/iot_link/network/dtls/mbedtls/mbedtls-2.16.2/library\pkparse.c ****     if( ( ret = mbedtls_pk_setup( pk, pk_info ) ) != 0 )
1005:D:/fchai/work/i-cube/I-CUBE-HUAWEI/Middlewares/Third_Party/Huawei/iot_link/network/dtls/mbedtls/mbedtls-2.16.2/library\pkparse.c ****         return( ret );
1006:D:/fchai/work/i-cube/I-CUBE-HUAWEI/Middlewares/Third_Party/Huawei/iot_link/network/dtls/mbedtls/mbedtls-2.16.2/library\pkparse.c **** 
1007:D:/fchai/work/i-cube/I-CUBE-HUAWEI/Middlewares/Third_Party/Huawei/iot_link/network/dtls/mbedtls/mbedtls-2.16.2/library\pkparse.c **** #if defined(MBEDTLS_RSA_C)
1008:D:/fchai/work/i-cube/I-CUBE-HUAWEI/Middlewares/Third_Party/Huawei/iot_link/network/dtls/mbedtls/mbedtls-2.16.2/library\pkparse.c ****     if( pk_alg == MBEDTLS_PK_RSA )
1009:D:/fchai/work/i-cube/I-CUBE-HUAWEI/Middlewares/Third_Party/Huawei/iot_link/network/dtls/mbedtls/mbedtls-2.16.2/library\pkparse.c ****     {
1010:D:/fchai/work/i-cube/I-CUBE-HUAWEI/Middlewares/Third_Party/Huawei/iot_link/network/dtls/mbedtls/mbedtls-2.16.2/library\pkparse.c ****         if( ( ret = pk_parse_key_pkcs1_der( mbedtls_pk_rsa( *pk ), p, len ) ) != 0 )
1011:D:/fchai/work/i-cube/I-CUBE-HUAWEI/Middlewares/Third_Party/Huawei/iot_link/network/dtls/mbedtls/mbedtls-2.16.2/library\pkparse.c ****         {
1012:D:/fchai/work/i-cube/I-CUBE-HUAWEI/Middlewares/Third_Party/Huawei/iot_link/network/dtls/mbedtls/mbedtls-2.16.2/library\pkparse.c ****             mbedtls_pk_free( pk );
1013:D:/fchai/work/i-cube/I-CUBE-HUAWEI/Middlewares/Third_Party/Huawei/iot_link/network/dtls/mbedtls/mbedtls-2.16.2/library\pkparse.c ****             return( ret );
1014:D:/fchai/work/i-cube/I-CUBE-HUAWEI/Middlewares/Third_Party/Huawei/iot_link/network/dtls/mbedtls/mbedtls-2.16.2/library\pkparse.c ****         }
1015:D:/fchai/work/i-cube/I-CUBE-HUAWEI/Middlewares/Third_Party/Huawei/iot_link/network/dtls/mbedtls/mbedtls-2.16.2/library\pkparse.c ****     } else
1016:D:/fchai/work/i-cube/I-CUBE-HUAWEI/Middlewares/Third_Party/Huawei/iot_link/network/dtls/mbedtls/mbedtls-2.16.2/library\pkparse.c **** #endif /* MBEDTLS_RSA_C */
1017:D:/fchai/work/i-cube/I-CUBE-HUAWEI/Middlewares/Third_Party/Huawei/iot_link/network/dtls/mbedtls/mbedtls-2.16.2/library\pkparse.c **** #if defined(MBEDTLS_ECP_C)
1018:D:/fchai/work/i-cube/I-CUBE-HUAWEI/Middlewares/Third_Party/Huawei/iot_link/network/dtls/mbedtls/mbedtls-2.16.2/library\pkparse.c ****     if( pk_alg == MBEDTLS_PK_ECKEY || pk_alg == MBEDTLS_PK_ECKEY_DH )
1019:D:/fchai/work/i-cube/I-CUBE-HUAWEI/Middlewares/Third_Party/Huawei/iot_link/network/dtls/mbedtls/mbedtls-2.16.2/library\pkparse.c ****     {
1020:D:/fchai/work/i-cube/I-CUBE-HUAWEI/Middlewares/Third_Party/Huawei/iot_link/network/dtls/mbedtls/mbedtls-2.16.2/library\pkparse.c ****         if( ( ret = pk_use_ecparams( &params, &mbedtls_pk_ec( *pk )->grp ) ) != 0 ||
1021:D:/fchai/work/i-cube/I-CUBE-HUAWEI/Middlewares/Third_Party/Huawei/iot_link/network/dtls/mbedtls/mbedtls-2.16.2/library\pkparse.c ****             ( ret = pk_parse_key_sec1_der( mbedtls_pk_ec( *pk ), p, len )  ) != 0 )
1022:D:/fchai/work/i-cube/I-CUBE-HUAWEI/Middlewares/Third_Party/Huawei/iot_link/network/dtls/mbedtls/mbedtls-2.16.2/library\pkparse.c ****         {
1023:D:/fchai/work/i-cube/I-CUBE-HUAWEI/Middlewares/Third_Party/Huawei/iot_link/network/dtls/mbedtls/mbedtls-2.16.2/library\pkparse.c ****             mbedtls_pk_free( pk );
ARM GAS  T:\msys\tmp\cc83OHoG.s 			page 66


1024:D:/fchai/work/i-cube/I-CUBE-HUAWEI/Middlewares/Third_Party/Huawei/iot_link/network/dtls/mbedtls/mbedtls-2.16.2/library\pkparse.c ****             return( ret );
1025:D:/fchai/work/i-cube/I-CUBE-HUAWEI/Middlewares/Third_Party/Huawei/iot_link/network/dtls/mbedtls/mbedtls-2.16.2/library\pkparse.c ****         }
1026:D:/fchai/work/i-cube/I-CUBE-HUAWEI/Middlewares/Third_Party/Huawei/iot_link/network/dtls/mbedtls/mbedtls-2.16.2/library\pkparse.c ****     } else
1027:D:/fchai/work/i-cube/I-CUBE-HUAWEI/Middlewares/Third_Party/Huawei/iot_link/network/dtls/mbedtls/mbedtls-2.16.2/library\pkparse.c **** #endif /* MBEDTLS_ECP_C */
1028:D:/fchai/work/i-cube/I-CUBE-HUAWEI/Middlewares/Third_Party/Huawei/iot_link/network/dtls/mbedtls/mbedtls-2.16.2/library\pkparse.c ****         return( MBEDTLS_ERR_PK_UNKNOWN_PK_ALG );
1029:D:/fchai/work/i-cube/I-CUBE-HUAWEI/Middlewares/Third_Party/Huawei/iot_link/network/dtls/mbedtls/mbedtls-2.16.2/library\pkparse.c **** 
1030:D:/fchai/work/i-cube/I-CUBE-HUAWEI/Middlewares/Third_Party/Huawei/iot_link/network/dtls/mbedtls/mbedtls-2.16.2/library\pkparse.c ****     return( 0 );
1031:D:/fchai/work/i-cube/I-CUBE-HUAWEI/Middlewares/Third_Party/Huawei/iot_link/network/dtls/mbedtls/mbedtls-2.16.2/library\pkparse.c **** }
 2113              		.loc 1 1031 1 view .LVU647
 2114 0022 2046     		mov	r0, r4
 2115 0024 0BB0     		add	sp, sp, #44
 2116              	.LCFI32:
 2117              		.cfi_remember_state
 2118              		.cfi_def_cfa_offset 12
 2119              		@ sp needed
 2120 0026 30BD     		pop	{r4, r5, pc}
 2121              	.LVL255:
 2122              	.L156:
 2123              	.LCFI33:
 2124              		.cfi_restore_state
 983:D:/fchai/work/i-cube/I-CUBE-HUAWEI/Middlewares/Third_Party/Huawei/iot_link/network/dtls/mbedtls/mbedtls-2.16.2/library\pkparse.c **** 
 2125              		.loc 1 983 5 is_stmt 1 view .LVU648
 983:D:/fchai/work/i-cube/I-CUBE-HUAWEI/Middlewares/Third_Party/Huawei/iot_link/network/dtls/mbedtls/mbedtls-2.16.2/library\pkparse.c **** 
 2126              		.loc 1 983 9 is_stmt 0 view .LVU649
 2127 0028 DDE90531 		ldrd	r3, r1, [sp, #20]
 985:D:/fchai/work/i-cube/I-CUBE-HUAWEI/Middlewares/Third_Party/Huawei/iot_link/network/dtls/mbedtls/mbedtls-2.16.2/library\pkparse.c ****         return( MBEDTLS_ERR_PK_KEY_INVALID_FORMAT + ret );
 2128              		.loc 1 985 17 view .LVU650
 2129 002c 04AA     		add	r2, sp, #16
 983:D:/fchai/work/i-cube/I-CUBE-HUAWEI/Middlewares/Third_Party/Huawei/iot_link/network/dtls/mbedtls/mbedtls-2.16.2/library\pkparse.c **** 
 2130              		.loc 1 983 9 view .LVU651
 2131 002e 1944     		add	r1, r1, r3
 2132              	.LVL256:
 985:D:/fchai/work/i-cube/I-CUBE-HUAWEI/Middlewares/Third_Party/Huawei/iot_link/network/dtls/mbedtls/mbedtls-2.16.2/library\pkparse.c ****         return( MBEDTLS_ERR_PK_KEY_INVALID_FORMAT + ret );
 2133              		.loc 1 985 5 is_stmt 1 view .LVU652
 985:D:/fchai/work/i-cube/I-CUBE-HUAWEI/Middlewares/Third_Party/Huawei/iot_link/network/dtls/mbedtls/mbedtls-2.16.2/library\pkparse.c ****         return( MBEDTLS_ERR_PK_KEY_INVALID_FORMAT + ret );
 2134              		.loc 1 985 17 is_stmt 0 view .LVU653
 2135 0030 06A8     		add	r0, sp, #24
 2136              	.LVL257:
 985:D:/fchai/work/i-cube/I-CUBE-HUAWEI/Middlewares/Third_Party/Huawei/iot_link/network/dtls/mbedtls/mbedtls-2.16.2/library\pkparse.c ****         return( MBEDTLS_ERR_PK_KEY_INVALID_FORMAT + ret );
 2137              		.loc 1 985 17 view .LVU654
 2138 0032 0191     		str	r1, [sp, #4]
 2139 0034 FFF7FEFF 		bl	mbedtls_asn1_get_int
 2140              	.LVL258:
 985:D:/fchai/work/i-cube/I-CUBE-HUAWEI/Middlewares/Third_Party/Huawei/iot_link/network/dtls/mbedtls/mbedtls-2.16.2/library\pkparse.c ****         return( MBEDTLS_ERR_PK_KEY_INVALID_FORMAT + ret );
 2141              		.loc 1 985 7 view .LVU655
 2142 0038 0199     		ldr	r1, [sp, #4]
 2143 003a 0446     		mov	r4, r0
 2144 003c 60B9     		cbnz	r0, .L175
 988:D:/fchai/work/i-cube/I-CUBE-HUAWEI/Middlewares/Third_Party/Huawei/iot_link/network/dtls/mbedtls/mbedtls-2.16.2/library\pkparse.c ****         return( MBEDTLS_ERR_PK_KEY_INVALID_VERSION + ret );
 2145              		.loc 1 988 5 is_stmt 1 view .LVU656
 988:D:/fchai/work/i-cube/I-CUBE-HUAWEI/Middlewares/Third_Party/Huawei/iot_link/network/dtls/mbedtls/mbedtls-2.16.2/library\pkparse.c ****         return( MBEDTLS_ERR_PK_KEY_INVALID_VERSION + ret );
 2146              		.loc 1 988 7 is_stmt 0 view .LVU657
 2147 003e 049B     		ldr	r3, [sp, #16]
 2148 0040 002B     		cmp	r3, #0
 2149 0042 45D1     		bne	.L165
 991:D:/fchai/work/i-cube/I-CUBE-HUAWEI/Middlewares/Third_Party/Huawei/iot_link/network/dtls/mbedtls/mbedtls-2.16.2/library\pkparse.c ****         return( MBEDTLS_ERR_PK_KEY_INVALID_FORMAT + ret );
 2150              		.loc 1 991 5 is_stmt 1 view .LVU658
ARM GAS  T:\msys\tmp\cc83OHoG.s 			page 67


 991:D:/fchai/work/i-cube/I-CUBE-HUAWEI/Middlewares/Third_Party/Huawei/iot_link/network/dtls/mbedtls/mbedtls-2.16.2/library\pkparse.c ****         return( MBEDTLS_ERR_PK_KEY_INVALID_FORMAT + ret );
 2151              		.loc 1 991 17 is_stmt 0 view .LVU659
 2152 0044 07AB     		add	r3, sp, #28
 2153 0046 0DF10F02 		add	r2, sp, #15
 2154 004a 06A8     		add	r0, sp, #24
 2155              	.LVL259:
 991:D:/fchai/work/i-cube/I-CUBE-HUAWEI/Middlewares/Third_Party/Huawei/iot_link/network/dtls/mbedtls/mbedtls-2.16.2/library\pkparse.c ****         return( MBEDTLS_ERR_PK_KEY_INVALID_FORMAT + ret );
 2156              		.loc 1 991 17 view .LVU660
 2157 004c 0191     		str	r1, [sp, #4]
 2158              	.LVL260:
 991:D:/fchai/work/i-cube/I-CUBE-HUAWEI/Middlewares/Third_Party/Huawei/iot_link/network/dtls/mbedtls/mbedtls-2.16.2/library\pkparse.c ****         return( MBEDTLS_ERR_PK_KEY_INVALID_FORMAT + ret );
 2159              		.loc 1 991 17 view .LVU661
 2160 004e FFF7FEFF 		bl	pk_get_pk_alg
 2161              	.LVL261:
 991:D:/fchai/work/i-cube/I-CUBE-HUAWEI/Middlewares/Third_Party/Huawei/iot_link/network/dtls/mbedtls/mbedtls-2.16.2/library\pkparse.c ****         return( MBEDTLS_ERR_PK_KEY_INVALID_FORMAT + ret );
 2162              		.loc 1 991 7 view .LVU662
 2163 0052 0199     		ldr	r1, [sp, #4]
 2164 0054 0446     		mov	r4, r0
 2165 0056 20B1     		cbz	r0, .L159
 2166              	.L175:
 992:D:/fchai/work/i-cube/I-CUBE-HUAWEI/Middlewares/Third_Party/Huawei/iot_link/network/dtls/mbedtls/mbedtls-2.16.2/library\pkparse.c **** 
 2167              		.loc 1 992 9 is_stmt 1 view .LVU663
 992:D:/fchai/work/i-cube/I-CUBE-HUAWEI/Middlewares/Third_Party/Huawei/iot_link/network/dtls/mbedtls/mbedtls-2.16.2/library\pkparse.c **** 
 2168              		.loc 1 992 51 is_stmt 0 view .LVU664
 2169 0058 A4F57454 		sub	r4, r4, #15616
 2170              		.loc 1 1031 1 view .LVU665
 2171 005c 2046     		mov	r0, r4
 2172              	.LVL262:
 2173              		.loc 1 1031 1 view .LVU666
 2174 005e 0BB0     		add	sp, sp, #44
 2175              	.LCFI34:
 2176              		.cfi_remember_state
 2177              		.cfi_def_cfa_offset 12
 2178              		@ sp needed
 2179 0060 30BD     		pop	{r4, r5, pc}
 2180              	.LVL263:
 2181              	.L159:
 2182              	.LCFI35:
 2183              		.cfi_restore_state
 994:D:/fchai/work/i-cube/I-CUBE-HUAWEI/Middlewares/Third_Party/Huawei/iot_link/network/dtls/mbedtls/mbedtls-2.16.2/library\pkparse.c ****         return( MBEDTLS_ERR_PK_KEY_INVALID_FORMAT + ret );
 2184              		.loc 1 994 5 is_stmt 1 view .LVU667
 994:D:/fchai/work/i-cube/I-CUBE-HUAWEI/Middlewares/Third_Party/Huawei/iot_link/network/dtls/mbedtls/mbedtls-2.16.2/library\pkparse.c ****         return( MBEDTLS_ERR_PK_KEY_INVALID_FORMAT + ret );
 2185              		.loc 1 994 17 is_stmt 0 view .LVU668
 2186 0062 05AA     		add	r2, sp, #20
 2187 0064 06A8     		add	r0, sp, #24
 2188              	.LVL264:
 994:D:/fchai/work/i-cube/I-CUBE-HUAWEI/Middlewares/Third_Party/Huawei/iot_link/network/dtls/mbedtls/mbedtls-2.16.2/library\pkparse.c ****         return( MBEDTLS_ERR_PK_KEY_INVALID_FORMAT + ret );
 2189              		.loc 1 994 17 view .LVU669
 2190 0066 0423     		movs	r3, #4
 2191 0068 FFF7FEFF 		bl	mbedtls_asn1_get_tag
 2192              	.LVL265:
 994:D:/fchai/work/i-cube/I-CUBE-HUAWEI/Middlewares/Third_Party/Huawei/iot_link/network/dtls/mbedtls/mbedtls-2.16.2/library\pkparse.c ****         return( MBEDTLS_ERR_PK_KEY_INVALID_FORMAT + ret );
 2193              		.loc 1 994 7 view .LVU670
 2194 006c 0028     		cmp	r0, #0
 2195 006e D6D1     		bne	.L174
 997:D:/fchai/work/i-cube/I-CUBE-HUAWEI/Middlewares/Third_Party/Huawei/iot_link/network/dtls/mbedtls/mbedtls-2.16.2/library\pkparse.c ****         return( MBEDTLS_ERR_PK_KEY_INVALID_FORMAT +
 2196              		.loc 1 997 5 is_stmt 1 view .LVU671
ARM GAS  T:\msys\tmp\cc83OHoG.s 			page 68


 997:D:/fchai/work/i-cube/I-CUBE-HUAWEI/Middlewares/Third_Party/Huawei/iot_link/network/dtls/mbedtls/mbedtls-2.16.2/library\pkparse.c ****         return( MBEDTLS_ERR_PK_KEY_INVALID_FORMAT +
 2197              		.loc 1 997 7 is_stmt 0 view .LVU672
 2198 0070 059B     		ldr	r3, [sp, #20]
 2199 0072 8BB3     		cbz	r3, .L166
1001:D:/fchai/work/i-cube/I-CUBE-HUAWEI/Middlewares/Third_Party/Huawei/iot_link/network/dtls/mbedtls/mbedtls-2.16.2/library\pkparse.c ****         return( MBEDTLS_ERR_PK_UNKNOWN_PK_ALG );
 2200              		.loc 1 1001 5 is_stmt 1 view .LVU673
1001:D:/fchai/work/i-cube/I-CUBE-HUAWEI/Middlewares/Third_Party/Huawei/iot_link/network/dtls/mbedtls/mbedtls-2.16.2/library\pkparse.c ****         return( MBEDTLS_ERR_PK_UNKNOWN_PK_ALG );
 2201              		.loc 1 1001 21 is_stmt 0 view .LVU674
 2202 0074 9DF80F00 		ldrb	r0, [sp, #15]	@ zero_extendqisi2
 2203              	.LVL266:
1001:D:/fchai/work/i-cube/I-CUBE-HUAWEI/Middlewares/Third_Party/Huawei/iot_link/network/dtls/mbedtls/mbedtls-2.16.2/library\pkparse.c ****         return( MBEDTLS_ERR_PK_UNKNOWN_PK_ALG );
 2204              		.loc 1 1001 21 view .LVU675
 2205 0078 FFF7FEFF 		bl	mbedtls_pk_info_from_type
 2206              	.LVL267:
1001:D:/fchai/work/i-cube/I-CUBE-HUAWEI/Middlewares/Third_Party/Huawei/iot_link/network/dtls/mbedtls/mbedtls-2.16.2/library\pkparse.c ****         return( MBEDTLS_ERR_PK_UNKNOWN_PK_ALG );
 2207              		.loc 1 1001 7 view .LVU676
 2208 007c 0146     		mov	r1, r0
 2209 007e 48B3     		cbz	r0, .L163
1004:D:/fchai/work/i-cube/I-CUBE-HUAWEI/Middlewares/Third_Party/Huawei/iot_link/network/dtls/mbedtls/mbedtls-2.16.2/library\pkparse.c ****         return( ret );
 2210              		.loc 1 1004 5 is_stmt 1 view .LVU677
1004:D:/fchai/work/i-cube/I-CUBE-HUAWEI/Middlewares/Third_Party/Huawei/iot_link/network/dtls/mbedtls/mbedtls-2.16.2/library\pkparse.c ****         return( ret );
 2211              		.loc 1 1004 17 is_stmt 0 view .LVU678
 2212 0080 2846     		mov	r0, r5
 2213              	.LVL268:
1004:D:/fchai/work/i-cube/I-CUBE-HUAWEI/Middlewares/Third_Party/Huawei/iot_link/network/dtls/mbedtls/mbedtls-2.16.2/library\pkparse.c ****         return( ret );
 2214              		.loc 1 1004 17 view .LVU679
 2215 0082 FFF7FEFF 		bl	mbedtls_pk_setup
 2216              	.LVL269:
1004:D:/fchai/work/i-cube/I-CUBE-HUAWEI/Middlewares/Third_Party/Huawei/iot_link/network/dtls/mbedtls/mbedtls-2.16.2/library\pkparse.c ****         return( ret );
 2217              		.loc 1 1004 7 view .LVU680
 2218 0086 0446     		mov	r4, r0
 2219 0088 0028     		cmp	r0, #0
 2220 008a CAD1     		bne	.L155
1008:D:/fchai/work/i-cube/I-CUBE-HUAWEI/Middlewares/Third_Party/Huawei/iot_link/network/dtls/mbedtls/mbedtls-2.16.2/library\pkparse.c ****     {
 2221              		.loc 1 1008 5 is_stmt 1 view .LVU681
1008:D:/fchai/work/i-cube/I-CUBE-HUAWEI/Middlewares/Third_Party/Huawei/iot_link/network/dtls/mbedtls/mbedtls-2.16.2/library\pkparse.c ****     {
 2222              		.loc 1 1008 16 is_stmt 0 view .LVU682
 2223 008c 9DF80F30 		ldrb	r3, [sp, #15]	@ zero_extendqisi2
1008:D:/fchai/work/i-cube/I-CUBE-HUAWEI/Middlewares/Third_Party/Huawei/iot_link/network/dtls/mbedtls/mbedtls-2.16.2/library\pkparse.c ****     {
 2224              		.loc 1 1008 7 view .LVU683
 2225 0090 012B     		cmp	r3, #1
 2226 0092 14D0     		beq	.L176
1018:D:/fchai/work/i-cube/I-CUBE-HUAWEI/Middlewares/Third_Party/Huawei/iot_link/network/dtls/mbedtls/mbedtls-2.16.2/library\pkparse.c ****     {
 2227              		.loc 1 1018 5 is_stmt 1 view .LVU684
1018:D:/fchai/work/i-cube/I-CUBE-HUAWEI/Middlewares/Third_Party/Huawei/iot_link/network/dtls/mbedtls/mbedtls-2.16.2/library\pkparse.c ****     {
 2228              		.loc 1 1018 7 is_stmt 0 view .LVU685
 2229 0094 023B     		subs	r3, r3, #2
 2230 0096 012B     		cmp	r3, #1
 2231 0098 1CD8     		bhi	.L163
1020:D:/fchai/work/i-cube/I-CUBE-HUAWEI/Middlewares/Third_Party/Huawei/iot_link/network/dtls/mbedtls/mbedtls-2.16.2/library\pkparse.c ****             ( ret = pk_parse_key_sec1_der( mbedtls_pk_ec( *pk ), p, len )  ) != 0 )
 2232              		.loc 1 1020 9 is_stmt 1 view .LVU686
 2233              		.file 2 "D:/fchai/work/i-cube/I-CUBE-HUAWEI/Middlewares/Third_Party/Huawei/iot_link/network/dtls/m
   1:D:/fchai/work/i-cube/I-CUBE-HUAWEI/Middlewares/Third_Party/Huawei/iot_link/network/dtls/mbedtls/mbedtls-2.16.2/include/mbedtls\pk.h **** /**
   2:D:/fchai/work/i-cube/I-CUBE-HUAWEI/Middlewares/Third_Party/Huawei/iot_link/network/dtls/mbedtls/mbedtls-2.16.2/include/mbedtls\pk.h ****  * \file pk.h
   3:D:/fchai/work/i-cube/I-CUBE-HUAWEI/Middlewares/Third_Party/Huawei/iot_link/network/dtls/mbedtls/mbedtls-2.16.2/include/mbedtls\pk.h ****  *
   4:D:/fchai/work/i-cube/I-CUBE-HUAWEI/Middlewares/Third_Party/Huawei/iot_link/network/dtls/mbedtls/mbedtls-2.16.2/include/mbedtls\pk.h ****  * \brief Public Key abstraction layer
   5:D:/fchai/work/i-cube/I-CUBE-HUAWEI/Middlewares/Third_Party/Huawei/iot_link/network/dtls/mbedtls/mbedtls-2.16.2/include/mbedtls\pk.h ****  */
ARM GAS  T:\msys\tmp\cc83OHoG.s 			page 69


   6:D:/fchai/work/i-cube/I-CUBE-HUAWEI/Middlewares/Third_Party/Huawei/iot_link/network/dtls/mbedtls/mbedtls-2.16.2/include/mbedtls\pk.h **** /*
   7:D:/fchai/work/i-cube/I-CUBE-HUAWEI/Middlewares/Third_Party/Huawei/iot_link/network/dtls/mbedtls/mbedtls-2.16.2/include/mbedtls\pk.h ****  *  Copyright (C) 2006-2015, ARM Limited, All Rights Reserved
   8:D:/fchai/work/i-cube/I-CUBE-HUAWEI/Middlewares/Third_Party/Huawei/iot_link/network/dtls/mbedtls/mbedtls-2.16.2/include/mbedtls\pk.h ****  *  SPDX-License-Identifier: Apache-2.0
   9:D:/fchai/work/i-cube/I-CUBE-HUAWEI/Middlewares/Third_Party/Huawei/iot_link/network/dtls/mbedtls/mbedtls-2.16.2/include/mbedtls\pk.h ****  *
  10:D:/fchai/work/i-cube/I-CUBE-HUAWEI/Middlewares/Third_Party/Huawei/iot_link/network/dtls/mbedtls/mbedtls-2.16.2/include/mbedtls\pk.h ****  *  Licensed under the Apache License, Version 2.0 (the "License"); you may
  11:D:/fchai/work/i-cube/I-CUBE-HUAWEI/Middlewares/Third_Party/Huawei/iot_link/network/dtls/mbedtls/mbedtls-2.16.2/include/mbedtls\pk.h ****  *  not use this file except in compliance with the License.
  12:D:/fchai/work/i-cube/I-CUBE-HUAWEI/Middlewares/Third_Party/Huawei/iot_link/network/dtls/mbedtls/mbedtls-2.16.2/include/mbedtls\pk.h ****  *  You may obtain a copy of the License at
  13:D:/fchai/work/i-cube/I-CUBE-HUAWEI/Middlewares/Third_Party/Huawei/iot_link/network/dtls/mbedtls/mbedtls-2.16.2/include/mbedtls\pk.h ****  *
  14:D:/fchai/work/i-cube/I-CUBE-HUAWEI/Middlewares/Third_Party/Huawei/iot_link/network/dtls/mbedtls/mbedtls-2.16.2/include/mbedtls\pk.h ****  *  http://www.apache.org/licenses/LICENSE-2.0
  15:D:/fchai/work/i-cube/I-CUBE-HUAWEI/Middlewares/Third_Party/Huawei/iot_link/network/dtls/mbedtls/mbedtls-2.16.2/include/mbedtls\pk.h ****  *
  16:D:/fchai/work/i-cube/I-CUBE-HUAWEI/Middlewares/Third_Party/Huawei/iot_link/network/dtls/mbedtls/mbedtls-2.16.2/include/mbedtls\pk.h ****  *  Unless required by applicable law or agreed to in writing, software
  17:D:/fchai/work/i-cube/I-CUBE-HUAWEI/Middlewares/Third_Party/Huawei/iot_link/network/dtls/mbedtls/mbedtls-2.16.2/include/mbedtls\pk.h ****  *  distributed under the License is distributed on an "AS IS" BASIS, WITHOUT
  18:D:/fchai/work/i-cube/I-CUBE-HUAWEI/Middlewares/Third_Party/Huawei/iot_link/network/dtls/mbedtls/mbedtls-2.16.2/include/mbedtls\pk.h ****  *  WARRANTIES OR CONDITIONS OF ANY KIND, either express or implied.
  19:D:/fchai/work/i-cube/I-CUBE-HUAWEI/Middlewares/Third_Party/Huawei/iot_link/network/dtls/mbedtls/mbedtls-2.16.2/include/mbedtls\pk.h ****  *  See the License for the specific language governing permissions and
  20:D:/fchai/work/i-cube/I-CUBE-HUAWEI/Middlewares/Third_Party/Huawei/iot_link/network/dtls/mbedtls/mbedtls-2.16.2/include/mbedtls\pk.h ****  *  limitations under the License.
  21:D:/fchai/work/i-cube/I-CUBE-HUAWEI/Middlewares/Third_Party/Huawei/iot_link/network/dtls/mbedtls/mbedtls-2.16.2/include/mbedtls\pk.h ****  *
  22:D:/fchai/work/i-cube/I-CUBE-HUAWEI/Middlewares/Third_Party/Huawei/iot_link/network/dtls/mbedtls/mbedtls-2.16.2/include/mbedtls\pk.h ****  *  This file is part of mbed TLS (https://tls.mbed.org)
  23:D:/fchai/work/i-cube/I-CUBE-HUAWEI/Middlewares/Third_Party/Huawei/iot_link/network/dtls/mbedtls/mbedtls-2.16.2/include/mbedtls\pk.h ****  */
  24:D:/fchai/work/i-cube/I-CUBE-HUAWEI/Middlewares/Third_Party/Huawei/iot_link/network/dtls/mbedtls/mbedtls-2.16.2/include/mbedtls\pk.h **** 
  25:D:/fchai/work/i-cube/I-CUBE-HUAWEI/Middlewares/Third_Party/Huawei/iot_link/network/dtls/mbedtls/mbedtls-2.16.2/include/mbedtls\pk.h **** #ifndef MBEDTLS_PK_H
  26:D:/fchai/work/i-cube/I-CUBE-HUAWEI/Middlewares/Third_Party/Huawei/iot_link/network/dtls/mbedtls/mbedtls-2.16.2/include/mbedtls\pk.h **** #define MBEDTLS_PK_H
  27:D:/fchai/work/i-cube/I-CUBE-HUAWEI/Middlewares/Third_Party/Huawei/iot_link/network/dtls/mbedtls/mbedtls-2.16.2/include/mbedtls\pk.h **** 
  28:D:/fchai/work/i-cube/I-CUBE-HUAWEI/Middlewares/Third_Party/Huawei/iot_link/network/dtls/mbedtls/mbedtls-2.16.2/include/mbedtls\pk.h **** #if !defined(MBEDTLS_CONFIG_FILE)
  29:D:/fchai/work/i-cube/I-CUBE-HUAWEI/Middlewares/Third_Party/Huawei/iot_link/network/dtls/mbedtls/mbedtls-2.16.2/include/mbedtls\pk.h **** #include "config.h"
  30:D:/fchai/work/i-cube/I-CUBE-HUAWEI/Middlewares/Third_Party/Huawei/iot_link/network/dtls/mbedtls/mbedtls-2.16.2/include/mbedtls\pk.h **** #else
  31:D:/fchai/work/i-cube/I-CUBE-HUAWEI/Middlewares/Third_Party/Huawei/iot_link/network/dtls/mbedtls/mbedtls-2.16.2/include/mbedtls\pk.h **** #include MBEDTLS_CONFIG_FILE
  32:D:/fchai/work/i-cube/I-CUBE-HUAWEI/Middlewares/Third_Party/Huawei/iot_link/network/dtls/mbedtls/mbedtls-2.16.2/include/mbedtls\pk.h **** #endif
  33:D:/fchai/work/i-cube/I-CUBE-HUAWEI/Middlewares/Third_Party/Huawei/iot_link/network/dtls/mbedtls/mbedtls-2.16.2/include/mbedtls\pk.h **** 
  34:D:/fchai/work/i-cube/I-CUBE-HUAWEI/Middlewares/Third_Party/Huawei/iot_link/network/dtls/mbedtls/mbedtls-2.16.2/include/mbedtls\pk.h **** #include "md.h"
  35:D:/fchai/work/i-cube/I-CUBE-HUAWEI/Middlewares/Third_Party/Huawei/iot_link/network/dtls/mbedtls/mbedtls-2.16.2/include/mbedtls\pk.h **** 
  36:D:/fchai/work/i-cube/I-CUBE-HUAWEI/Middlewares/Third_Party/Huawei/iot_link/network/dtls/mbedtls/mbedtls-2.16.2/include/mbedtls\pk.h **** #if defined(MBEDTLS_RSA_C)
  37:D:/fchai/work/i-cube/I-CUBE-HUAWEI/Middlewares/Third_Party/Huawei/iot_link/network/dtls/mbedtls/mbedtls-2.16.2/include/mbedtls\pk.h **** #include "rsa.h"
  38:D:/fchai/work/i-cube/I-CUBE-HUAWEI/Middlewares/Third_Party/Huawei/iot_link/network/dtls/mbedtls/mbedtls-2.16.2/include/mbedtls\pk.h **** #endif
  39:D:/fchai/work/i-cube/I-CUBE-HUAWEI/Middlewares/Third_Party/Huawei/iot_link/network/dtls/mbedtls/mbedtls-2.16.2/include/mbedtls\pk.h **** 
  40:D:/fchai/work/i-cube/I-CUBE-HUAWEI/Middlewares/Third_Party/Huawei/iot_link/network/dtls/mbedtls/mbedtls-2.16.2/include/mbedtls\pk.h **** #if defined(MBEDTLS_ECP_C)
  41:D:/fchai/work/i-cube/I-CUBE-HUAWEI/Middlewares/Third_Party/Huawei/iot_link/network/dtls/mbedtls/mbedtls-2.16.2/include/mbedtls\pk.h **** #include "ecp.h"
  42:D:/fchai/work/i-cube/I-CUBE-HUAWEI/Middlewares/Third_Party/Huawei/iot_link/network/dtls/mbedtls/mbedtls-2.16.2/include/mbedtls\pk.h **** #endif
  43:D:/fchai/work/i-cube/I-CUBE-HUAWEI/Middlewares/Third_Party/Huawei/iot_link/network/dtls/mbedtls/mbedtls-2.16.2/include/mbedtls\pk.h **** 
  44:D:/fchai/work/i-cube/I-CUBE-HUAWEI/Middlewares/Third_Party/Huawei/iot_link/network/dtls/mbedtls/mbedtls-2.16.2/include/mbedtls\pk.h **** #if defined(MBEDTLS_ECDSA_C)
  45:D:/fchai/work/i-cube/I-CUBE-HUAWEI/Middlewares/Third_Party/Huawei/iot_link/network/dtls/mbedtls/mbedtls-2.16.2/include/mbedtls\pk.h **** #include "ecdsa.h"
  46:D:/fchai/work/i-cube/I-CUBE-HUAWEI/Middlewares/Third_Party/Huawei/iot_link/network/dtls/mbedtls/mbedtls-2.16.2/include/mbedtls\pk.h **** #endif
  47:D:/fchai/work/i-cube/I-CUBE-HUAWEI/Middlewares/Third_Party/Huawei/iot_link/network/dtls/mbedtls/mbedtls-2.16.2/include/mbedtls\pk.h **** 
  48:D:/fchai/work/i-cube/I-CUBE-HUAWEI/Middlewares/Third_Party/Huawei/iot_link/network/dtls/mbedtls/mbedtls-2.16.2/include/mbedtls\pk.h **** #if ( defined(__ARMCC_VERSION) || defined(_MSC_VER) ) && \
  49:D:/fchai/work/i-cube/I-CUBE-HUAWEI/Middlewares/Third_Party/Huawei/iot_link/network/dtls/mbedtls/mbedtls-2.16.2/include/mbedtls\pk.h ****     !defined(inline) && !defined(__cplusplus)
  50:D:/fchai/work/i-cube/I-CUBE-HUAWEI/Middlewares/Third_Party/Huawei/iot_link/network/dtls/mbedtls/mbedtls-2.16.2/include/mbedtls\pk.h **** #define inline __inline
  51:D:/fchai/work/i-cube/I-CUBE-HUAWEI/Middlewares/Third_Party/Huawei/iot_link/network/dtls/mbedtls/mbedtls-2.16.2/include/mbedtls\pk.h **** #endif
  52:D:/fchai/work/i-cube/I-CUBE-HUAWEI/Middlewares/Third_Party/Huawei/iot_link/network/dtls/mbedtls/mbedtls-2.16.2/include/mbedtls\pk.h **** 
  53:D:/fchai/work/i-cube/I-CUBE-HUAWEI/Middlewares/Third_Party/Huawei/iot_link/network/dtls/mbedtls/mbedtls-2.16.2/include/mbedtls\pk.h **** #define MBEDTLS_ERR_PK_ALLOC_FAILED        -0x3F80  /**< Memory allocation failed. */
  54:D:/fchai/work/i-cube/I-CUBE-HUAWEI/Middlewares/Third_Party/Huawei/iot_link/network/dtls/mbedtls/mbedtls-2.16.2/include/mbedtls\pk.h **** #define MBEDTLS_ERR_PK_TYPE_MISMATCH       -0x3F00  /**< Type mismatch, eg attempt to encrypt with 
  55:D:/fchai/work/i-cube/I-CUBE-HUAWEI/Middlewares/Third_Party/Huawei/iot_link/network/dtls/mbedtls/mbedtls-2.16.2/include/mbedtls\pk.h **** #define MBEDTLS_ERR_PK_BAD_INPUT_DATA      -0x3E80  /**< Bad input parameters to function. */
  56:D:/fchai/work/i-cube/I-CUBE-HUAWEI/Middlewares/Third_Party/Huawei/iot_link/network/dtls/mbedtls/mbedtls-2.16.2/include/mbedtls\pk.h **** #define MBEDTLS_ERR_PK_FILE_IO_ERROR       -0x3E00  /**< Read/write of file failed. */
  57:D:/fchai/work/i-cube/I-CUBE-HUAWEI/Middlewares/Third_Party/Huawei/iot_link/network/dtls/mbedtls/mbedtls-2.16.2/include/mbedtls\pk.h **** #define MBEDTLS_ERR_PK_KEY_INVALID_VERSION -0x3D80  /**< Unsupported key version */
  58:D:/fchai/work/i-cube/I-CUBE-HUAWEI/Middlewares/Third_Party/Huawei/iot_link/network/dtls/mbedtls/mbedtls-2.16.2/include/mbedtls\pk.h **** #define MBEDTLS_ERR_PK_KEY_INVALID_FORMAT  -0x3D00  /**< Invalid key tag or value. */
  59:D:/fchai/work/i-cube/I-CUBE-HUAWEI/Middlewares/Third_Party/Huawei/iot_link/network/dtls/mbedtls/mbedtls-2.16.2/include/mbedtls\pk.h **** #define MBEDTLS_ERR_PK_UNKNOWN_PK_ALG      -0x3C80  /**< Key algorithm is unsupported (only RSA and
  60:D:/fchai/work/i-cube/I-CUBE-HUAWEI/Middlewares/Third_Party/Huawei/iot_link/network/dtls/mbedtls/mbedtls-2.16.2/include/mbedtls\pk.h **** #define MBEDTLS_ERR_PK_PASSWORD_REQUIRED   -0x3C00  /**< Private key password can't be empty. */
  61:D:/fchai/work/i-cube/I-CUBE-HUAWEI/Middlewares/Third_Party/Huawei/iot_link/network/dtls/mbedtls/mbedtls-2.16.2/include/mbedtls\pk.h **** #define MBEDTLS_ERR_PK_PASSWORD_MISMATCH   -0x3B80  /**< Given private key password does not allow 
  62:D:/fchai/work/i-cube/I-CUBE-HUAWEI/Middlewares/Third_Party/Huawei/iot_link/network/dtls/mbedtls/mbedtls-2.16.2/include/mbedtls\pk.h **** #define MBEDTLS_ERR_PK_INVALID_PUBKEY      -0x3B00  /**< The pubkey tag or value is invalid (only R
ARM GAS  T:\msys\tmp\cc83OHoG.s 			page 70


  63:D:/fchai/work/i-cube/I-CUBE-HUAWEI/Middlewares/Third_Party/Huawei/iot_link/network/dtls/mbedtls/mbedtls-2.16.2/include/mbedtls\pk.h **** #define MBEDTLS_ERR_PK_INVALID_ALG         -0x3A80  /**< The algorithm tag or value is invalid. */
  64:D:/fchai/work/i-cube/I-CUBE-HUAWEI/Middlewares/Third_Party/Huawei/iot_link/network/dtls/mbedtls/mbedtls-2.16.2/include/mbedtls\pk.h **** #define MBEDTLS_ERR_PK_UNKNOWN_NAMED_CURVE -0x3A00  /**< Elliptic curve is unsupported (only NIST c
  65:D:/fchai/work/i-cube/I-CUBE-HUAWEI/Middlewares/Third_Party/Huawei/iot_link/network/dtls/mbedtls/mbedtls-2.16.2/include/mbedtls\pk.h **** #define MBEDTLS_ERR_PK_FEATURE_UNAVAILABLE -0x3980  /**< Unavailable feature, e.g. RSA disabled for
  66:D:/fchai/work/i-cube/I-CUBE-HUAWEI/Middlewares/Third_Party/Huawei/iot_link/network/dtls/mbedtls/mbedtls-2.16.2/include/mbedtls\pk.h **** #define MBEDTLS_ERR_PK_SIG_LEN_MISMATCH    -0x3900  /**< The buffer contains a valid signature foll
  67:D:/fchai/work/i-cube/I-CUBE-HUAWEI/Middlewares/Third_Party/Huawei/iot_link/network/dtls/mbedtls/mbedtls-2.16.2/include/mbedtls\pk.h **** 
  68:D:/fchai/work/i-cube/I-CUBE-HUAWEI/Middlewares/Third_Party/Huawei/iot_link/network/dtls/mbedtls/mbedtls-2.16.2/include/mbedtls\pk.h **** /* MBEDTLS_ERR_PK_HW_ACCEL_FAILED is deprecated and should not be used. */
  69:D:/fchai/work/i-cube/I-CUBE-HUAWEI/Middlewares/Third_Party/Huawei/iot_link/network/dtls/mbedtls/mbedtls-2.16.2/include/mbedtls\pk.h **** #define MBEDTLS_ERR_PK_HW_ACCEL_FAILED     -0x3880  /**< PK hardware accelerator failed. */
  70:D:/fchai/work/i-cube/I-CUBE-HUAWEI/Middlewares/Third_Party/Huawei/iot_link/network/dtls/mbedtls/mbedtls-2.16.2/include/mbedtls\pk.h **** 
  71:D:/fchai/work/i-cube/I-CUBE-HUAWEI/Middlewares/Third_Party/Huawei/iot_link/network/dtls/mbedtls/mbedtls-2.16.2/include/mbedtls\pk.h **** #ifdef __cplusplus
  72:D:/fchai/work/i-cube/I-CUBE-HUAWEI/Middlewares/Third_Party/Huawei/iot_link/network/dtls/mbedtls/mbedtls-2.16.2/include/mbedtls\pk.h **** extern "C" {
  73:D:/fchai/work/i-cube/I-CUBE-HUAWEI/Middlewares/Third_Party/Huawei/iot_link/network/dtls/mbedtls/mbedtls-2.16.2/include/mbedtls\pk.h **** #endif
  74:D:/fchai/work/i-cube/I-CUBE-HUAWEI/Middlewares/Third_Party/Huawei/iot_link/network/dtls/mbedtls/mbedtls-2.16.2/include/mbedtls\pk.h **** 
  75:D:/fchai/work/i-cube/I-CUBE-HUAWEI/Middlewares/Third_Party/Huawei/iot_link/network/dtls/mbedtls/mbedtls-2.16.2/include/mbedtls\pk.h **** /**
  76:D:/fchai/work/i-cube/I-CUBE-HUAWEI/Middlewares/Third_Party/Huawei/iot_link/network/dtls/mbedtls/mbedtls-2.16.2/include/mbedtls\pk.h ****  * \brief          Public key types
  77:D:/fchai/work/i-cube/I-CUBE-HUAWEI/Middlewares/Third_Party/Huawei/iot_link/network/dtls/mbedtls/mbedtls-2.16.2/include/mbedtls\pk.h ****  */
  78:D:/fchai/work/i-cube/I-CUBE-HUAWEI/Middlewares/Third_Party/Huawei/iot_link/network/dtls/mbedtls/mbedtls-2.16.2/include/mbedtls\pk.h **** typedef enum {
  79:D:/fchai/work/i-cube/I-CUBE-HUAWEI/Middlewares/Third_Party/Huawei/iot_link/network/dtls/mbedtls/mbedtls-2.16.2/include/mbedtls\pk.h ****     MBEDTLS_PK_NONE=0,
  80:D:/fchai/work/i-cube/I-CUBE-HUAWEI/Middlewares/Third_Party/Huawei/iot_link/network/dtls/mbedtls/mbedtls-2.16.2/include/mbedtls\pk.h ****     MBEDTLS_PK_RSA,
  81:D:/fchai/work/i-cube/I-CUBE-HUAWEI/Middlewares/Third_Party/Huawei/iot_link/network/dtls/mbedtls/mbedtls-2.16.2/include/mbedtls\pk.h ****     MBEDTLS_PK_ECKEY,
  82:D:/fchai/work/i-cube/I-CUBE-HUAWEI/Middlewares/Third_Party/Huawei/iot_link/network/dtls/mbedtls/mbedtls-2.16.2/include/mbedtls\pk.h ****     MBEDTLS_PK_ECKEY_DH,
  83:D:/fchai/work/i-cube/I-CUBE-HUAWEI/Middlewares/Third_Party/Huawei/iot_link/network/dtls/mbedtls/mbedtls-2.16.2/include/mbedtls\pk.h ****     MBEDTLS_PK_ECDSA,
  84:D:/fchai/work/i-cube/I-CUBE-HUAWEI/Middlewares/Third_Party/Huawei/iot_link/network/dtls/mbedtls/mbedtls-2.16.2/include/mbedtls\pk.h ****     MBEDTLS_PK_RSA_ALT,
  85:D:/fchai/work/i-cube/I-CUBE-HUAWEI/Middlewares/Third_Party/Huawei/iot_link/network/dtls/mbedtls/mbedtls-2.16.2/include/mbedtls\pk.h ****     MBEDTLS_PK_RSASSA_PSS,
  86:D:/fchai/work/i-cube/I-CUBE-HUAWEI/Middlewares/Third_Party/Huawei/iot_link/network/dtls/mbedtls/mbedtls-2.16.2/include/mbedtls\pk.h **** } mbedtls_pk_type_t;
  87:D:/fchai/work/i-cube/I-CUBE-HUAWEI/Middlewares/Third_Party/Huawei/iot_link/network/dtls/mbedtls/mbedtls-2.16.2/include/mbedtls\pk.h **** 
  88:D:/fchai/work/i-cube/I-CUBE-HUAWEI/Middlewares/Third_Party/Huawei/iot_link/network/dtls/mbedtls/mbedtls-2.16.2/include/mbedtls\pk.h **** /**
  89:D:/fchai/work/i-cube/I-CUBE-HUAWEI/Middlewares/Third_Party/Huawei/iot_link/network/dtls/mbedtls/mbedtls-2.16.2/include/mbedtls\pk.h ****  * \brief           Options for RSASSA-PSS signature verification.
  90:D:/fchai/work/i-cube/I-CUBE-HUAWEI/Middlewares/Third_Party/Huawei/iot_link/network/dtls/mbedtls/mbedtls-2.16.2/include/mbedtls\pk.h ****  *                  See \c mbedtls_rsa_rsassa_pss_verify_ext()
  91:D:/fchai/work/i-cube/I-CUBE-HUAWEI/Middlewares/Third_Party/Huawei/iot_link/network/dtls/mbedtls/mbedtls-2.16.2/include/mbedtls\pk.h ****  */
  92:D:/fchai/work/i-cube/I-CUBE-HUAWEI/Middlewares/Third_Party/Huawei/iot_link/network/dtls/mbedtls/mbedtls-2.16.2/include/mbedtls\pk.h **** typedef struct mbedtls_pk_rsassa_pss_options
  93:D:/fchai/work/i-cube/I-CUBE-HUAWEI/Middlewares/Third_Party/Huawei/iot_link/network/dtls/mbedtls/mbedtls-2.16.2/include/mbedtls\pk.h **** {
  94:D:/fchai/work/i-cube/I-CUBE-HUAWEI/Middlewares/Third_Party/Huawei/iot_link/network/dtls/mbedtls/mbedtls-2.16.2/include/mbedtls\pk.h ****     mbedtls_md_type_t mgf1_hash_id;
  95:D:/fchai/work/i-cube/I-CUBE-HUAWEI/Middlewares/Third_Party/Huawei/iot_link/network/dtls/mbedtls/mbedtls-2.16.2/include/mbedtls\pk.h ****     int expected_salt_len;
  96:D:/fchai/work/i-cube/I-CUBE-HUAWEI/Middlewares/Third_Party/Huawei/iot_link/network/dtls/mbedtls/mbedtls-2.16.2/include/mbedtls\pk.h **** 
  97:D:/fchai/work/i-cube/I-CUBE-HUAWEI/Middlewares/Third_Party/Huawei/iot_link/network/dtls/mbedtls/mbedtls-2.16.2/include/mbedtls\pk.h **** } mbedtls_pk_rsassa_pss_options;
  98:D:/fchai/work/i-cube/I-CUBE-HUAWEI/Middlewares/Third_Party/Huawei/iot_link/network/dtls/mbedtls/mbedtls-2.16.2/include/mbedtls\pk.h **** 
  99:D:/fchai/work/i-cube/I-CUBE-HUAWEI/Middlewares/Third_Party/Huawei/iot_link/network/dtls/mbedtls/mbedtls-2.16.2/include/mbedtls\pk.h **** /**
 100:D:/fchai/work/i-cube/I-CUBE-HUAWEI/Middlewares/Third_Party/Huawei/iot_link/network/dtls/mbedtls/mbedtls-2.16.2/include/mbedtls\pk.h ****  * \brief           Types for interfacing with the debug module
 101:D:/fchai/work/i-cube/I-CUBE-HUAWEI/Middlewares/Third_Party/Huawei/iot_link/network/dtls/mbedtls/mbedtls-2.16.2/include/mbedtls\pk.h ****  */
 102:D:/fchai/work/i-cube/I-CUBE-HUAWEI/Middlewares/Third_Party/Huawei/iot_link/network/dtls/mbedtls/mbedtls-2.16.2/include/mbedtls\pk.h **** typedef enum
 103:D:/fchai/work/i-cube/I-CUBE-HUAWEI/Middlewares/Third_Party/Huawei/iot_link/network/dtls/mbedtls/mbedtls-2.16.2/include/mbedtls\pk.h **** {
 104:D:/fchai/work/i-cube/I-CUBE-HUAWEI/Middlewares/Third_Party/Huawei/iot_link/network/dtls/mbedtls/mbedtls-2.16.2/include/mbedtls\pk.h ****     MBEDTLS_PK_DEBUG_NONE = 0,
 105:D:/fchai/work/i-cube/I-CUBE-HUAWEI/Middlewares/Third_Party/Huawei/iot_link/network/dtls/mbedtls/mbedtls-2.16.2/include/mbedtls\pk.h ****     MBEDTLS_PK_DEBUG_MPI,
 106:D:/fchai/work/i-cube/I-CUBE-HUAWEI/Middlewares/Third_Party/Huawei/iot_link/network/dtls/mbedtls/mbedtls-2.16.2/include/mbedtls\pk.h ****     MBEDTLS_PK_DEBUG_ECP,
 107:D:/fchai/work/i-cube/I-CUBE-HUAWEI/Middlewares/Third_Party/Huawei/iot_link/network/dtls/mbedtls/mbedtls-2.16.2/include/mbedtls\pk.h **** } mbedtls_pk_debug_type;
 108:D:/fchai/work/i-cube/I-CUBE-HUAWEI/Middlewares/Third_Party/Huawei/iot_link/network/dtls/mbedtls/mbedtls-2.16.2/include/mbedtls\pk.h **** 
 109:D:/fchai/work/i-cube/I-CUBE-HUAWEI/Middlewares/Third_Party/Huawei/iot_link/network/dtls/mbedtls/mbedtls-2.16.2/include/mbedtls\pk.h **** /**
 110:D:/fchai/work/i-cube/I-CUBE-HUAWEI/Middlewares/Third_Party/Huawei/iot_link/network/dtls/mbedtls/mbedtls-2.16.2/include/mbedtls\pk.h ****  * \brief           Item to send to the debug module
 111:D:/fchai/work/i-cube/I-CUBE-HUAWEI/Middlewares/Third_Party/Huawei/iot_link/network/dtls/mbedtls/mbedtls-2.16.2/include/mbedtls\pk.h ****  */
 112:D:/fchai/work/i-cube/I-CUBE-HUAWEI/Middlewares/Third_Party/Huawei/iot_link/network/dtls/mbedtls/mbedtls-2.16.2/include/mbedtls\pk.h **** typedef struct mbedtls_pk_debug_item
 113:D:/fchai/work/i-cube/I-CUBE-HUAWEI/Middlewares/Third_Party/Huawei/iot_link/network/dtls/mbedtls/mbedtls-2.16.2/include/mbedtls\pk.h **** {
 114:D:/fchai/work/i-cube/I-CUBE-HUAWEI/Middlewares/Third_Party/Huawei/iot_link/network/dtls/mbedtls/mbedtls-2.16.2/include/mbedtls\pk.h ****     mbedtls_pk_debug_type type;
 115:D:/fchai/work/i-cube/I-CUBE-HUAWEI/Middlewares/Third_Party/Huawei/iot_link/network/dtls/mbedtls/mbedtls-2.16.2/include/mbedtls\pk.h ****     const char *name;
 116:D:/fchai/work/i-cube/I-CUBE-HUAWEI/Middlewares/Third_Party/Huawei/iot_link/network/dtls/mbedtls/mbedtls-2.16.2/include/mbedtls\pk.h ****     void *value;
 117:D:/fchai/work/i-cube/I-CUBE-HUAWEI/Middlewares/Third_Party/Huawei/iot_link/network/dtls/mbedtls/mbedtls-2.16.2/include/mbedtls\pk.h **** } mbedtls_pk_debug_item;
 118:D:/fchai/work/i-cube/I-CUBE-HUAWEI/Middlewares/Third_Party/Huawei/iot_link/network/dtls/mbedtls/mbedtls-2.16.2/include/mbedtls\pk.h **** 
 119:D:/fchai/work/i-cube/I-CUBE-HUAWEI/Middlewares/Third_Party/Huawei/iot_link/network/dtls/mbedtls/mbedtls-2.16.2/include/mbedtls\pk.h **** /** Maximum number of item send for debugging, plus 1 */
ARM GAS  T:\msys\tmp\cc83OHoG.s 			page 71


 120:D:/fchai/work/i-cube/I-CUBE-HUAWEI/Middlewares/Third_Party/Huawei/iot_link/network/dtls/mbedtls/mbedtls-2.16.2/include/mbedtls\pk.h **** #define MBEDTLS_PK_DEBUG_MAX_ITEMS 3
 121:D:/fchai/work/i-cube/I-CUBE-HUAWEI/Middlewares/Third_Party/Huawei/iot_link/network/dtls/mbedtls/mbedtls-2.16.2/include/mbedtls\pk.h **** 
 122:D:/fchai/work/i-cube/I-CUBE-HUAWEI/Middlewares/Third_Party/Huawei/iot_link/network/dtls/mbedtls/mbedtls-2.16.2/include/mbedtls\pk.h **** /**
 123:D:/fchai/work/i-cube/I-CUBE-HUAWEI/Middlewares/Third_Party/Huawei/iot_link/network/dtls/mbedtls/mbedtls-2.16.2/include/mbedtls\pk.h ****  * \brief           Public key information and operations
 124:D:/fchai/work/i-cube/I-CUBE-HUAWEI/Middlewares/Third_Party/Huawei/iot_link/network/dtls/mbedtls/mbedtls-2.16.2/include/mbedtls\pk.h ****  */
 125:D:/fchai/work/i-cube/I-CUBE-HUAWEI/Middlewares/Third_Party/Huawei/iot_link/network/dtls/mbedtls/mbedtls-2.16.2/include/mbedtls\pk.h **** typedef struct mbedtls_pk_info_t mbedtls_pk_info_t;
 126:D:/fchai/work/i-cube/I-CUBE-HUAWEI/Middlewares/Third_Party/Huawei/iot_link/network/dtls/mbedtls/mbedtls-2.16.2/include/mbedtls\pk.h **** 
 127:D:/fchai/work/i-cube/I-CUBE-HUAWEI/Middlewares/Third_Party/Huawei/iot_link/network/dtls/mbedtls/mbedtls-2.16.2/include/mbedtls\pk.h **** /**
 128:D:/fchai/work/i-cube/I-CUBE-HUAWEI/Middlewares/Third_Party/Huawei/iot_link/network/dtls/mbedtls/mbedtls-2.16.2/include/mbedtls\pk.h ****  * \brief           Public key container
 129:D:/fchai/work/i-cube/I-CUBE-HUAWEI/Middlewares/Third_Party/Huawei/iot_link/network/dtls/mbedtls/mbedtls-2.16.2/include/mbedtls\pk.h ****  */
 130:D:/fchai/work/i-cube/I-CUBE-HUAWEI/Middlewares/Third_Party/Huawei/iot_link/network/dtls/mbedtls/mbedtls-2.16.2/include/mbedtls\pk.h **** typedef struct mbedtls_pk_context
 131:D:/fchai/work/i-cube/I-CUBE-HUAWEI/Middlewares/Third_Party/Huawei/iot_link/network/dtls/mbedtls/mbedtls-2.16.2/include/mbedtls\pk.h **** {
 132:D:/fchai/work/i-cube/I-CUBE-HUAWEI/Middlewares/Third_Party/Huawei/iot_link/network/dtls/mbedtls/mbedtls-2.16.2/include/mbedtls\pk.h ****     const mbedtls_pk_info_t *   pk_info; /**< Public key information         */
 133:D:/fchai/work/i-cube/I-CUBE-HUAWEI/Middlewares/Third_Party/Huawei/iot_link/network/dtls/mbedtls/mbedtls-2.16.2/include/mbedtls\pk.h ****     void *                      pk_ctx;  /**< Underlying public key context  */
 134:D:/fchai/work/i-cube/I-CUBE-HUAWEI/Middlewares/Third_Party/Huawei/iot_link/network/dtls/mbedtls/mbedtls-2.16.2/include/mbedtls\pk.h **** } mbedtls_pk_context;
 135:D:/fchai/work/i-cube/I-CUBE-HUAWEI/Middlewares/Third_Party/Huawei/iot_link/network/dtls/mbedtls/mbedtls-2.16.2/include/mbedtls\pk.h **** 
 136:D:/fchai/work/i-cube/I-CUBE-HUAWEI/Middlewares/Third_Party/Huawei/iot_link/network/dtls/mbedtls/mbedtls-2.16.2/include/mbedtls\pk.h **** #if defined(MBEDTLS_ECDSA_C) && defined(MBEDTLS_ECP_RESTARTABLE)
 137:D:/fchai/work/i-cube/I-CUBE-HUAWEI/Middlewares/Third_Party/Huawei/iot_link/network/dtls/mbedtls/mbedtls-2.16.2/include/mbedtls\pk.h **** /**
 138:D:/fchai/work/i-cube/I-CUBE-HUAWEI/Middlewares/Third_Party/Huawei/iot_link/network/dtls/mbedtls/mbedtls-2.16.2/include/mbedtls\pk.h ****  * \brief           Context for resuming operations
 139:D:/fchai/work/i-cube/I-CUBE-HUAWEI/Middlewares/Third_Party/Huawei/iot_link/network/dtls/mbedtls/mbedtls-2.16.2/include/mbedtls\pk.h ****  */
 140:D:/fchai/work/i-cube/I-CUBE-HUAWEI/Middlewares/Third_Party/Huawei/iot_link/network/dtls/mbedtls/mbedtls-2.16.2/include/mbedtls\pk.h **** typedef struct
 141:D:/fchai/work/i-cube/I-CUBE-HUAWEI/Middlewares/Third_Party/Huawei/iot_link/network/dtls/mbedtls/mbedtls-2.16.2/include/mbedtls\pk.h **** {
 142:D:/fchai/work/i-cube/I-CUBE-HUAWEI/Middlewares/Third_Party/Huawei/iot_link/network/dtls/mbedtls/mbedtls-2.16.2/include/mbedtls\pk.h ****     const mbedtls_pk_info_t *   pk_info; /**< Public key information         */
 143:D:/fchai/work/i-cube/I-CUBE-HUAWEI/Middlewares/Third_Party/Huawei/iot_link/network/dtls/mbedtls/mbedtls-2.16.2/include/mbedtls\pk.h ****     void *                      rs_ctx;  /**< Underlying restart context     */
 144:D:/fchai/work/i-cube/I-CUBE-HUAWEI/Middlewares/Third_Party/Huawei/iot_link/network/dtls/mbedtls/mbedtls-2.16.2/include/mbedtls\pk.h **** } mbedtls_pk_restart_ctx;
 145:D:/fchai/work/i-cube/I-CUBE-HUAWEI/Middlewares/Third_Party/Huawei/iot_link/network/dtls/mbedtls/mbedtls-2.16.2/include/mbedtls\pk.h **** #else /* MBEDTLS_ECDSA_C && MBEDTLS_ECP_RESTARTABLE */
 146:D:/fchai/work/i-cube/I-CUBE-HUAWEI/Middlewares/Third_Party/Huawei/iot_link/network/dtls/mbedtls/mbedtls-2.16.2/include/mbedtls\pk.h **** /* Now we can declare functions that take a pointer to that */
 147:D:/fchai/work/i-cube/I-CUBE-HUAWEI/Middlewares/Third_Party/Huawei/iot_link/network/dtls/mbedtls/mbedtls-2.16.2/include/mbedtls\pk.h **** typedef void mbedtls_pk_restart_ctx;
 148:D:/fchai/work/i-cube/I-CUBE-HUAWEI/Middlewares/Third_Party/Huawei/iot_link/network/dtls/mbedtls/mbedtls-2.16.2/include/mbedtls\pk.h **** #endif /* MBEDTLS_ECDSA_C && MBEDTLS_ECP_RESTARTABLE */
 149:D:/fchai/work/i-cube/I-CUBE-HUAWEI/Middlewares/Third_Party/Huawei/iot_link/network/dtls/mbedtls/mbedtls-2.16.2/include/mbedtls\pk.h **** 
 150:D:/fchai/work/i-cube/I-CUBE-HUAWEI/Middlewares/Third_Party/Huawei/iot_link/network/dtls/mbedtls/mbedtls-2.16.2/include/mbedtls\pk.h **** #if defined(MBEDTLS_RSA_C)
 151:D:/fchai/work/i-cube/I-CUBE-HUAWEI/Middlewares/Third_Party/Huawei/iot_link/network/dtls/mbedtls/mbedtls-2.16.2/include/mbedtls\pk.h **** /**
 152:D:/fchai/work/i-cube/I-CUBE-HUAWEI/Middlewares/Third_Party/Huawei/iot_link/network/dtls/mbedtls/mbedtls-2.16.2/include/mbedtls\pk.h ****  * Quick access to an RSA context inside a PK context.
 153:D:/fchai/work/i-cube/I-CUBE-HUAWEI/Middlewares/Third_Party/Huawei/iot_link/network/dtls/mbedtls/mbedtls-2.16.2/include/mbedtls\pk.h ****  *
 154:D:/fchai/work/i-cube/I-CUBE-HUAWEI/Middlewares/Third_Party/Huawei/iot_link/network/dtls/mbedtls/mbedtls-2.16.2/include/mbedtls\pk.h ****  * \warning You must make sure the PK context actually holds an RSA context
 155:D:/fchai/work/i-cube/I-CUBE-HUAWEI/Middlewares/Third_Party/Huawei/iot_link/network/dtls/mbedtls/mbedtls-2.16.2/include/mbedtls\pk.h ****  * before using this function!
 156:D:/fchai/work/i-cube/I-CUBE-HUAWEI/Middlewares/Third_Party/Huawei/iot_link/network/dtls/mbedtls/mbedtls-2.16.2/include/mbedtls\pk.h ****  */
 157:D:/fchai/work/i-cube/I-CUBE-HUAWEI/Middlewares/Third_Party/Huawei/iot_link/network/dtls/mbedtls/mbedtls-2.16.2/include/mbedtls\pk.h **** static inline mbedtls_rsa_context *mbedtls_pk_rsa( const mbedtls_pk_context pk )
 158:D:/fchai/work/i-cube/I-CUBE-HUAWEI/Middlewares/Third_Party/Huawei/iot_link/network/dtls/mbedtls/mbedtls-2.16.2/include/mbedtls\pk.h **** {
 159:D:/fchai/work/i-cube/I-CUBE-HUAWEI/Middlewares/Third_Party/Huawei/iot_link/network/dtls/mbedtls/mbedtls-2.16.2/include/mbedtls\pk.h ****     return( (mbedtls_rsa_context *) (pk).pk_ctx );
 160:D:/fchai/work/i-cube/I-CUBE-HUAWEI/Middlewares/Third_Party/Huawei/iot_link/network/dtls/mbedtls/mbedtls-2.16.2/include/mbedtls\pk.h **** }
 161:D:/fchai/work/i-cube/I-CUBE-HUAWEI/Middlewares/Third_Party/Huawei/iot_link/network/dtls/mbedtls/mbedtls-2.16.2/include/mbedtls\pk.h **** #endif /* MBEDTLS_RSA_C */
 162:D:/fchai/work/i-cube/I-CUBE-HUAWEI/Middlewares/Third_Party/Huawei/iot_link/network/dtls/mbedtls/mbedtls-2.16.2/include/mbedtls\pk.h **** 
 163:D:/fchai/work/i-cube/I-CUBE-HUAWEI/Middlewares/Third_Party/Huawei/iot_link/network/dtls/mbedtls/mbedtls-2.16.2/include/mbedtls\pk.h **** #if defined(MBEDTLS_ECP_C)
 164:D:/fchai/work/i-cube/I-CUBE-HUAWEI/Middlewares/Third_Party/Huawei/iot_link/network/dtls/mbedtls/mbedtls-2.16.2/include/mbedtls\pk.h **** /**
 165:D:/fchai/work/i-cube/I-CUBE-HUAWEI/Middlewares/Third_Party/Huawei/iot_link/network/dtls/mbedtls/mbedtls-2.16.2/include/mbedtls\pk.h ****  * Quick access to an EC context inside a PK context.
 166:D:/fchai/work/i-cube/I-CUBE-HUAWEI/Middlewares/Third_Party/Huawei/iot_link/network/dtls/mbedtls/mbedtls-2.16.2/include/mbedtls\pk.h ****  *
 167:D:/fchai/work/i-cube/I-CUBE-HUAWEI/Middlewares/Third_Party/Huawei/iot_link/network/dtls/mbedtls/mbedtls-2.16.2/include/mbedtls\pk.h ****  * \warning You must make sure the PK context actually holds an EC context
 168:D:/fchai/work/i-cube/I-CUBE-HUAWEI/Middlewares/Third_Party/Huawei/iot_link/network/dtls/mbedtls/mbedtls-2.16.2/include/mbedtls\pk.h ****  * before using this function!
 169:D:/fchai/work/i-cube/I-CUBE-HUAWEI/Middlewares/Third_Party/Huawei/iot_link/network/dtls/mbedtls/mbedtls-2.16.2/include/mbedtls\pk.h ****  */
 170:D:/fchai/work/i-cube/I-CUBE-HUAWEI/Middlewares/Third_Party/Huawei/iot_link/network/dtls/mbedtls/mbedtls-2.16.2/include/mbedtls\pk.h **** static inline mbedtls_ecp_keypair *mbedtls_pk_ec( const mbedtls_pk_context pk )
 171:D:/fchai/work/i-cube/I-CUBE-HUAWEI/Middlewares/Third_Party/Huawei/iot_link/network/dtls/mbedtls/mbedtls-2.16.2/include/mbedtls\pk.h **** {
 172:D:/fchai/work/i-cube/I-CUBE-HUAWEI/Middlewares/Third_Party/Huawei/iot_link/network/dtls/mbedtls/mbedtls-2.16.2/include/mbedtls\pk.h ****     return( (mbedtls_ecp_keypair *) (pk).pk_ctx );
 2234              		.loc 2 172 5 view .LVU687
1020:D:/fchai/work/i-cube/I-CUBE-HUAWEI/Middlewares/Third_Party/Huawei/iot_link/network/dtls/mbedtls/mbedtls-2.16.2/library\pkparse.c ****             ( ret = pk_parse_key_sec1_der( mbedtls_pk_ec( *pk ), p, len )  ) != 0 )
 2235              		.loc 1 1020 21 is_stmt 0 view .LVU688
 2236 009a 6968     		ldr	r1, [r5, #4]
ARM GAS  T:\msys\tmp\cc83OHoG.s 			page 72


 2237 009c 07A8     		add	r0, sp, #28
 2238              	.LVL270:
1020:D:/fchai/work/i-cube/I-CUBE-HUAWEI/Middlewares/Third_Party/Huawei/iot_link/network/dtls/mbedtls/mbedtls-2.16.2/library\pkparse.c ****             ( ret = pk_parse_key_sec1_der( mbedtls_pk_ec( *pk ), p, len )  ) != 0 )
 2239              		.loc 1 1020 21 view .LVU689
 2240 009e FFF7FEFF 		bl	pk_use_ecparams
 2241              	.LVL271:
1020:D:/fchai/work/i-cube/I-CUBE-HUAWEI/Middlewares/Third_Party/Huawei/iot_link/network/dtls/mbedtls/mbedtls-2.16.2/library\pkparse.c ****             ( ret = pk_parse_key_sec1_der( mbedtls_pk_ec( *pk ), p, len )  ) != 0 )
 2242              		.loc 1 1020 11 view .LVU690
 2243 00a2 0446     		mov	r4, r0
 2244 00a4 38B9     		cbnz	r0, .L164
 2245              		.loc 2 172 5 is_stmt 1 discriminator 1 view .LVU691
1021:D:/fchai/work/i-cube/I-CUBE-HUAWEI/Middlewares/Third_Party/Huawei/iot_link/network/dtls/mbedtls/mbedtls-2.16.2/library\pkparse.c ****         {
 2246              		.loc 1 1021 21 is_stmt 0 discriminator 1 view .LVU692
 2247 00a6 DDE90521 		ldrd	r2, r1, [sp, #20]
 2248 00aa 6868     		ldr	r0, [r5, #4]
 2249              	.LVL272:
1021:D:/fchai/work/i-cube/I-CUBE-HUAWEI/Middlewares/Third_Party/Huawei/iot_link/network/dtls/mbedtls/mbedtls-2.16.2/library\pkparse.c ****         {
 2250              		.loc 1 1021 21 discriminator 1 view .LVU693
 2251 00ac FFF7FEFF 		bl	pk_parse_key_sec1_der
 2252              	.LVL273:
1020:D:/fchai/work/i-cube/I-CUBE-HUAWEI/Middlewares/Third_Party/Huawei/iot_link/network/dtls/mbedtls/mbedtls-2.16.2/library\pkparse.c ****             ( ret = pk_parse_key_sec1_der( mbedtls_pk_ec( *pk ), p, len )  ) != 0 )
 2253              		.loc 1 1020 83 discriminator 1 view .LVU694
 2254 00b0 0446     		mov	r4, r0
 2255 00b2 0028     		cmp	r0, #0
 2256 00b4 B5D0     		beq	.L155
 2257              	.L164:
1023:D:/fchai/work/i-cube/I-CUBE-HUAWEI/Middlewares/Third_Party/Huawei/iot_link/network/dtls/mbedtls/mbedtls-2.16.2/library\pkparse.c ****             return( ret );
 2258              		.loc 1 1023 13 is_stmt 1 view .LVU695
 2259 00b6 2846     		mov	r0, r5
 2260              	.LVL274:
1023:D:/fchai/work/i-cube/I-CUBE-HUAWEI/Middlewares/Third_Party/Huawei/iot_link/network/dtls/mbedtls/mbedtls-2.16.2/library\pkparse.c ****             return( ret );
 2261              		.loc 1 1023 13 is_stmt 0 view .LVU696
 2262 00b8 FFF7FEFF 		bl	mbedtls_pk_free
 2263              	.LVL275:
1024:D:/fchai/work/i-cube/I-CUBE-HUAWEI/Middlewares/Third_Party/Huawei/iot_link/network/dtls/mbedtls/mbedtls-2.16.2/library\pkparse.c ****         }
 2264              		.loc 1 1024 13 is_stmt 1 view .LVU697
1024:D:/fchai/work/i-cube/I-CUBE-HUAWEI/Middlewares/Third_Party/Huawei/iot_link/network/dtls/mbedtls/mbedtls-2.16.2/library\pkparse.c ****         }
 2265              		.loc 1 1024 19 is_stmt 0 view .LVU698
 2266 00bc B1E7     		b	.L155
 2267              	.LVL276:
 2268              	.L176:
1010:D:/fchai/work/i-cube/I-CUBE-HUAWEI/Middlewares/Third_Party/Huawei/iot_link/network/dtls/mbedtls/mbedtls-2.16.2/library\pkparse.c ****         {
 2269              		.loc 1 1010 9 is_stmt 1 view .LVU699
 159:D:/fchai/work/i-cube/I-CUBE-HUAWEI/Middlewares/Third_Party/Huawei/iot_link/network/dtls/mbedtls/mbedtls-2.16.2/include/mbedtls\pk.h **** }
 2270              		.loc 2 159 5 view .LVU700
1010:D:/fchai/work/i-cube/I-CUBE-HUAWEI/Middlewares/Third_Party/Huawei/iot_link/network/dtls/mbedtls/mbedtls-2.16.2/library\pkparse.c ****         {
 2271              		.loc 1 1010 21 is_stmt 0 view .LVU701
 2272 00be DDE90521 		ldrd	r2, r1, [sp, #20]
 2273 00c2 6868     		ldr	r0, [r5, #4]
 2274              	.LVL277:
1010:D:/fchai/work/i-cube/I-CUBE-HUAWEI/Middlewares/Third_Party/Huawei/iot_link/network/dtls/mbedtls/mbedtls-2.16.2/library\pkparse.c ****         {
 2275              		.loc 1 1010 21 view .LVU702
 2276 00c4 FFF7FEFF 		bl	pk_parse_key_pkcs1_der
 2277              	.LVL278:
1010:D:/fchai/work/i-cube/I-CUBE-HUAWEI/Middlewares/Third_Party/Huawei/iot_link/network/dtls/mbedtls/mbedtls-2.16.2/library\pkparse.c ****         {
 2278              		.loc 1 1010 11 view .LVU703
 2279 00c8 0446     		mov	r4, r0
ARM GAS  T:\msys\tmp\cc83OHoG.s 			page 73


 2280 00ca 0028     		cmp	r0, #0
 2281 00cc A9D0     		beq	.L155
 2282 00ce F2E7     		b	.L164
 2283              	.LVL279:
 2284              	.L165:
 989:D:/fchai/work/i-cube/I-CUBE-HUAWEI/Middlewares/Third_Party/Huawei/iot_link/network/dtls/mbedtls/mbedtls-2.16.2/library\pkparse.c **** 
 2285              		.loc 1 989 52 view .LVU704
 2286 00d0 024C     		ldr	r4, .L177
 2287 00d2 A6E7     		b	.L155
 2288              	.LVL280:
 2289              	.L163:
1002:D:/fchai/work/i-cube/I-CUBE-HUAWEI/Middlewares/Third_Party/Huawei/iot_link/network/dtls/mbedtls/mbedtls-2.16.2/library\pkparse.c **** 
 2290              		.loc 1 1002 15 view .LVU705
 2291 00d4 024C     		ldr	r4, .L177+4
 2292 00d6 A4E7     		b	.L155
 2293              	.LVL281:
 2294              	.L166:
 998:D:/fchai/work/i-cube/I-CUBE-HUAWEI/Middlewares/Third_Party/Huawei/iot_link/network/dtls/mbedtls/mbedtls-2.16.2/library\pkparse.c ****                 MBEDTLS_ERR_ASN1_OUT_OF_DATA );
 2295              		.loc 1 998 15 view .LVU706
 2296 00d8 024C     		ldr	r4, .L177+8
 2297 00da A2E7     		b	.L155
 2298              	.L178:
 2299              		.align	2
 2300              	.L177:
 2301 00dc 80C2FFFF 		.word	-15744
 2302 00e0 80C3FFFF 		.word	-15488
 2303 00e4 A0C2FFFF 		.word	-15712
 2304              		.cfi_endproc
 2305              	.LFE24:
 2307              		.section	.rodata.pk_parse_key_pkcs8_encrypted_der.str1.4,"aMS",%progbits,1
 2308              		.align	2
 2309              	.LC1:
 2310 0000 2A864886 		.ascii	"*\206H\206\367\015\001\014\001\001\000"
 2310      F70D010C 
 2310      010100
 2311 000b 00       		.align	2
 2312              	.LC2:
 2313 000c 2A864886 		.ascii	"*\206H\206\367\015\001\005\015\000"
 2313      F70D0105 
 2313      0D00
 2314              		.section	.text.pk_parse_key_pkcs8_encrypted_der,"ax",%progbits
 2315              		.align	1
 2316              		.p2align 2,,3
 2317              		.syntax unified
 2318              		.thumb
 2319              		.thumb_func
 2320              		.fpu fpv4-sp-d16
 2322              	pk_parse_key_pkcs8_encrypted_der:
 2323              	.LVL282:
 2324              	.LFB25:
1032:D:/fchai/work/i-cube/I-CUBE-HUAWEI/Middlewares/Third_Party/Huawei/iot_link/network/dtls/mbedtls/mbedtls-2.16.2/library\pkparse.c **** 
1033:D:/fchai/work/i-cube/I-CUBE-HUAWEI/Middlewares/Third_Party/Huawei/iot_link/network/dtls/mbedtls/mbedtls-2.16.2/library\pkparse.c **** /*
1034:D:/fchai/work/i-cube/I-CUBE-HUAWEI/Middlewares/Third_Party/Huawei/iot_link/network/dtls/mbedtls/mbedtls-2.16.2/library\pkparse.c ****  * Parse an encrypted PKCS#8 encoded private key
1035:D:/fchai/work/i-cube/I-CUBE-HUAWEI/Middlewares/Third_Party/Huawei/iot_link/network/dtls/mbedtls/mbedtls-2.16.2/library\pkparse.c ****  *
1036:D:/fchai/work/i-cube/I-CUBE-HUAWEI/Middlewares/Third_Party/Huawei/iot_link/network/dtls/mbedtls/mbedtls-2.16.2/library\pkparse.c ****  * To save space, the decryption happens in-place on the given key buffer.
1037:D:/fchai/work/i-cube/I-CUBE-HUAWEI/Middlewares/Third_Party/Huawei/iot_link/network/dtls/mbedtls/mbedtls-2.16.2/library\pkparse.c ****  * Also, while this function may modify the keybuffer, it doesn't own it,
1038:D:/fchai/work/i-cube/I-CUBE-HUAWEI/Middlewares/Third_Party/Huawei/iot_link/network/dtls/mbedtls/mbedtls-2.16.2/library\pkparse.c ****  * and instead it is the responsibility of the caller to zeroize and properly
ARM GAS  T:\msys\tmp\cc83OHoG.s 			page 74


1039:D:/fchai/work/i-cube/I-CUBE-HUAWEI/Middlewares/Third_Party/Huawei/iot_link/network/dtls/mbedtls/mbedtls-2.16.2/library\pkparse.c ****  * free it after use.
1040:D:/fchai/work/i-cube/I-CUBE-HUAWEI/Middlewares/Third_Party/Huawei/iot_link/network/dtls/mbedtls/mbedtls-2.16.2/library\pkparse.c ****  *
1041:D:/fchai/work/i-cube/I-CUBE-HUAWEI/Middlewares/Third_Party/Huawei/iot_link/network/dtls/mbedtls/mbedtls-2.16.2/library\pkparse.c ****  */
1042:D:/fchai/work/i-cube/I-CUBE-HUAWEI/Middlewares/Third_Party/Huawei/iot_link/network/dtls/mbedtls/mbedtls-2.16.2/library\pkparse.c **** #if defined(MBEDTLS_PKCS12_C) || defined(MBEDTLS_PKCS5_C)
1043:D:/fchai/work/i-cube/I-CUBE-HUAWEI/Middlewares/Third_Party/Huawei/iot_link/network/dtls/mbedtls/mbedtls-2.16.2/library\pkparse.c **** static int pk_parse_key_pkcs8_encrypted_der(
1044:D:/fchai/work/i-cube/I-CUBE-HUAWEI/Middlewares/Third_Party/Huawei/iot_link/network/dtls/mbedtls/mbedtls-2.16.2/library\pkparse.c ****                                     mbedtls_pk_context *pk,
1045:D:/fchai/work/i-cube/I-CUBE-HUAWEI/Middlewares/Third_Party/Huawei/iot_link/network/dtls/mbedtls/mbedtls-2.16.2/library\pkparse.c ****                                     unsigned char *key, size_t keylen,
1046:D:/fchai/work/i-cube/I-CUBE-HUAWEI/Middlewares/Third_Party/Huawei/iot_link/network/dtls/mbedtls/mbedtls-2.16.2/library\pkparse.c ****                                     const unsigned char *pwd, size_t pwdlen )
1047:D:/fchai/work/i-cube/I-CUBE-HUAWEI/Middlewares/Third_Party/Huawei/iot_link/network/dtls/mbedtls/mbedtls-2.16.2/library\pkparse.c **** {
 2325              		.loc 1 1047 1 is_stmt 1 view -0
 2326              		.cfi_startproc
 2327              		@ args = 4, pretend = 0, frame = 48
 2328              		@ frame_needed = 0, uses_anonymous_args = 0
1048:D:/fchai/work/i-cube/I-CUBE-HUAWEI/Middlewares/Third_Party/Huawei/iot_link/network/dtls/mbedtls/mbedtls-2.16.2/library\pkparse.c ****     int ret, decrypted = 0;
 2329              		.loc 1 1048 5 view .LVU708
1049:D:/fchai/work/i-cube/I-CUBE-HUAWEI/Middlewares/Third_Party/Huawei/iot_link/network/dtls/mbedtls/mbedtls-2.16.2/library\pkparse.c ****     size_t len;
 2330              		.loc 1 1049 5 view .LVU709
1050:D:/fchai/work/i-cube/I-CUBE-HUAWEI/Middlewares/Third_Party/Huawei/iot_link/network/dtls/mbedtls/mbedtls-2.16.2/library\pkparse.c ****     unsigned char *buf;
 2331              		.loc 1 1050 5 view .LVU710
1051:D:/fchai/work/i-cube/I-CUBE-HUAWEI/Middlewares/Third_Party/Huawei/iot_link/network/dtls/mbedtls/mbedtls-2.16.2/library\pkparse.c ****     unsigned char *p, *end;
 2332              		.loc 1 1051 5 view .LVU711
1052:D:/fchai/work/i-cube/I-CUBE-HUAWEI/Middlewares/Third_Party/Huawei/iot_link/network/dtls/mbedtls/mbedtls-2.16.2/library\pkparse.c ****     mbedtls_asn1_buf pbe_alg_oid, pbe_params;
 2333              		.loc 1 1052 5 view .LVU712
1053:D:/fchai/work/i-cube/I-CUBE-HUAWEI/Middlewares/Third_Party/Huawei/iot_link/network/dtls/mbedtls/mbedtls-2.16.2/library\pkparse.c **** #if defined(MBEDTLS_PKCS12_C)
1054:D:/fchai/work/i-cube/I-CUBE-HUAWEI/Middlewares/Third_Party/Huawei/iot_link/network/dtls/mbedtls/mbedtls-2.16.2/library\pkparse.c ****     mbedtls_cipher_type_t cipher_alg;
 2334              		.loc 1 1054 5 view .LVU713
1055:D:/fchai/work/i-cube/I-CUBE-HUAWEI/Middlewares/Third_Party/Huawei/iot_link/network/dtls/mbedtls/mbedtls-2.16.2/library\pkparse.c ****     mbedtls_md_type_t md_alg;
 2335              		.loc 1 1055 5 view .LVU714
1056:D:/fchai/work/i-cube/I-CUBE-HUAWEI/Middlewares/Third_Party/Huawei/iot_link/network/dtls/mbedtls/mbedtls-2.16.2/library\pkparse.c **** #endif
1057:D:/fchai/work/i-cube/I-CUBE-HUAWEI/Middlewares/Third_Party/Huawei/iot_link/network/dtls/mbedtls/mbedtls-2.16.2/library\pkparse.c **** 
1058:D:/fchai/work/i-cube/I-CUBE-HUAWEI/Middlewares/Third_Party/Huawei/iot_link/network/dtls/mbedtls/mbedtls-2.16.2/library\pkparse.c ****     p = key;
 2336              		.loc 1 1058 5 view .LVU715
1047:D:/fchai/work/i-cube/I-CUBE-HUAWEI/Middlewares/Third_Party/Huawei/iot_link/network/dtls/mbedtls/mbedtls-2.16.2/library\pkparse.c ****     int ret, decrypted = 0;
 2337              		.loc 1 1047 1 is_stmt 0 view .LVU716
 2338 0000 F0B5     		push	{r4, r5, r6, r7, lr}
 2339              	.LCFI36:
 2340              		.cfi_def_cfa_offset 20
 2341              		.cfi_offset 4, -20
 2342              		.cfi_offset 5, -16
 2343              		.cfi_offset 6, -12
 2344              		.cfi_offset 7, -8
 2345              		.cfi_offset 14, -4
 2346 0002 93B0     		sub	sp, sp, #76
 2347              	.LCFI37:
 2348              		.cfi_def_cfa_offset 96
1047:D:/fchai/work/i-cube/I-CUBE-HUAWEI/Middlewares/Third_Party/Huawei/iot_link/network/dtls/mbedtls/mbedtls-2.16.2/library\pkparse.c ****     int ret, decrypted = 0;
 2349              		.loc 1 1047 1 view .LVU717
 2350 0004 189D     		ldr	r5, [sp, #96]
 2351              		.loc 1 1058 7 view .LVU718
 2352 0006 0B91     		str	r1, [sp, #44]
1059:D:/fchai/work/i-cube/I-CUBE-HUAWEI/Middlewares/Third_Party/Huawei/iot_link/network/dtls/mbedtls/mbedtls-2.16.2/library\pkparse.c ****     end = p + keylen;
 2353              		.loc 1 1059 5 is_stmt 1 view .LVU719
 2354              		.loc 1 1059 9 is_stmt 0 view .LVU720
 2355 0008 1144     		add	r1, r1, r2
 2356              	.LVL283:
1060:D:/fchai/work/i-cube/I-CUBE-HUAWEI/Middlewares/Third_Party/Huawei/iot_link/network/dtls/mbedtls/mbedtls-2.16.2/library\pkparse.c **** 
1061:D:/fchai/work/i-cube/I-CUBE-HUAWEI/Middlewares/Third_Party/Huawei/iot_link/network/dtls/mbedtls/mbedtls-2.16.2/library\pkparse.c ****     if( pwdlen == 0 )
ARM GAS  T:\msys\tmp\cc83OHoG.s 			page 75


 2357              		.loc 1 1061 5 is_stmt 1 view .LVU721
 2358              		.loc 1 1061 7 is_stmt 0 view .LVU722
 2359 000a 002D     		cmp	r5, #0
 2360 000c 77D0     		beq	.L188
1062:D:/fchai/work/i-cube/I-CUBE-HUAWEI/Middlewares/Third_Party/Huawei/iot_link/network/dtls/mbedtls/mbedtls-2.16.2/library\pkparse.c ****         return( MBEDTLS_ERR_PK_PASSWORD_REQUIRED );
1063:D:/fchai/work/i-cube/I-CUBE-HUAWEI/Middlewares/Third_Party/Huawei/iot_link/network/dtls/mbedtls/mbedtls-2.16.2/library\pkparse.c **** 
1064:D:/fchai/work/i-cube/I-CUBE-HUAWEI/Middlewares/Third_Party/Huawei/iot_link/network/dtls/mbedtls/mbedtls-2.16.2/library\pkparse.c ****     /*
1065:D:/fchai/work/i-cube/I-CUBE-HUAWEI/Middlewares/Third_Party/Huawei/iot_link/network/dtls/mbedtls/mbedtls-2.16.2/library\pkparse.c ****      * This function parses the EncryptedPrivateKeyInfo object (PKCS#8)
1066:D:/fchai/work/i-cube/I-CUBE-HUAWEI/Middlewares/Third_Party/Huawei/iot_link/network/dtls/mbedtls/mbedtls-2.16.2/library\pkparse.c ****      *
1067:D:/fchai/work/i-cube/I-CUBE-HUAWEI/Middlewares/Third_Party/Huawei/iot_link/network/dtls/mbedtls/mbedtls-2.16.2/library\pkparse.c ****      *  EncryptedPrivateKeyInfo ::= SEQUENCE {
1068:D:/fchai/work/i-cube/I-CUBE-HUAWEI/Middlewares/Third_Party/Huawei/iot_link/network/dtls/mbedtls/mbedtls-2.16.2/library\pkparse.c ****      *    encryptionAlgorithm  EncryptionAlgorithmIdentifier,
1069:D:/fchai/work/i-cube/I-CUBE-HUAWEI/Middlewares/Third_Party/Huawei/iot_link/network/dtls/mbedtls/mbedtls-2.16.2/library\pkparse.c ****      *    encryptedData        EncryptedData
1070:D:/fchai/work/i-cube/I-CUBE-HUAWEI/Middlewares/Third_Party/Huawei/iot_link/network/dtls/mbedtls/mbedtls-2.16.2/library\pkparse.c ****      *  }
1071:D:/fchai/work/i-cube/I-CUBE-HUAWEI/Middlewares/Third_Party/Huawei/iot_link/network/dtls/mbedtls/mbedtls-2.16.2/library\pkparse.c ****      *
1072:D:/fchai/work/i-cube/I-CUBE-HUAWEI/Middlewares/Third_Party/Huawei/iot_link/network/dtls/mbedtls/mbedtls-2.16.2/library\pkparse.c ****      *  EncryptionAlgorithmIdentifier ::= AlgorithmIdentifier
1073:D:/fchai/work/i-cube/I-CUBE-HUAWEI/Middlewares/Third_Party/Huawei/iot_link/network/dtls/mbedtls/mbedtls-2.16.2/library\pkparse.c ****      *
1074:D:/fchai/work/i-cube/I-CUBE-HUAWEI/Middlewares/Third_Party/Huawei/iot_link/network/dtls/mbedtls/mbedtls-2.16.2/library\pkparse.c ****      *  EncryptedData ::= OCTET STRING
1075:D:/fchai/work/i-cube/I-CUBE-HUAWEI/Middlewares/Third_Party/Huawei/iot_link/network/dtls/mbedtls/mbedtls-2.16.2/library\pkparse.c ****      *
1076:D:/fchai/work/i-cube/I-CUBE-HUAWEI/Middlewares/Third_Party/Huawei/iot_link/network/dtls/mbedtls/mbedtls-2.16.2/library\pkparse.c ****      *  The EncryptedData OCTET STRING is a PKCS#8 PrivateKeyInfo
1077:D:/fchai/work/i-cube/I-CUBE-HUAWEI/Middlewares/Third_Party/Huawei/iot_link/network/dtls/mbedtls/mbedtls-2.16.2/library\pkparse.c ****      *
1078:D:/fchai/work/i-cube/I-CUBE-HUAWEI/Middlewares/Third_Party/Huawei/iot_link/network/dtls/mbedtls/mbedtls-2.16.2/library\pkparse.c ****      */
1079:D:/fchai/work/i-cube/I-CUBE-HUAWEI/Middlewares/Third_Party/Huawei/iot_link/network/dtls/mbedtls/mbedtls-2.16.2/library\pkparse.c ****     if( ( ret = mbedtls_asn1_get_tag( &p, end, &len,
 2361              		.loc 1 1079 5 is_stmt 1 view .LVU723
 2362 000e 0446     		mov	r4, r0
 2363 0010 1F46     		mov	r7, r3
 2364              		.loc 1 1079 17 is_stmt 0 view .LVU724
 2365 0012 0AAA     		add	r2, sp, #40
 2366              	.LVL284:
 2367              		.loc 1 1079 17 view .LVU725
 2368 0014 0BA8     		add	r0, sp, #44
 2369              	.LVL285:
 2370              		.loc 1 1079 17 view .LVU726
 2371 0016 3023     		movs	r3, #48
 2372              	.LVL286:
 2373              		.loc 1 1079 17 view .LVU727
 2374 0018 FFF7FEFF 		bl	mbedtls_asn1_get_tag
 2375              	.LVL287:
 2376              		.loc 1 1079 7 view .LVU728
 2377 001c 18B1     		cbz	r0, .L181
 2378              	.LVL288:
 2379              	.L203:
1080:D:/fchai/work/i-cube/I-CUBE-HUAWEI/Middlewares/Third_Party/Huawei/iot_link/network/dtls/mbedtls/mbedtls-2.16.2/library\pkparse.c ****             MBEDTLS_ASN1_CONSTRUCTED | MBEDTLS_ASN1_SEQUENCE ) ) != 0 )
1081:D:/fchai/work/i-cube/I-CUBE-HUAWEI/Middlewares/Third_Party/Huawei/iot_link/network/dtls/mbedtls/mbedtls-2.16.2/library\pkparse.c ****     {
1082:D:/fchai/work/i-cube/I-CUBE-HUAWEI/Middlewares/Third_Party/Huawei/iot_link/network/dtls/mbedtls/mbedtls-2.16.2/library\pkparse.c ****         return( MBEDTLS_ERR_PK_KEY_INVALID_FORMAT + ret );
1083:D:/fchai/work/i-cube/I-CUBE-HUAWEI/Middlewares/Third_Party/Huawei/iot_link/network/dtls/mbedtls/mbedtls-2.16.2/library\pkparse.c ****     }
1084:D:/fchai/work/i-cube/I-CUBE-HUAWEI/Middlewares/Third_Party/Huawei/iot_link/network/dtls/mbedtls/mbedtls-2.16.2/library\pkparse.c **** 
1085:D:/fchai/work/i-cube/I-CUBE-HUAWEI/Middlewares/Third_Party/Huawei/iot_link/network/dtls/mbedtls/mbedtls-2.16.2/library\pkparse.c ****     end = p + len;
1086:D:/fchai/work/i-cube/I-CUBE-HUAWEI/Middlewares/Third_Party/Huawei/iot_link/network/dtls/mbedtls/mbedtls-2.16.2/library\pkparse.c **** 
1087:D:/fchai/work/i-cube/I-CUBE-HUAWEI/Middlewares/Third_Party/Huawei/iot_link/network/dtls/mbedtls/mbedtls-2.16.2/library\pkparse.c ****     if( ( ret = mbedtls_asn1_get_alg( &p, end, &pbe_alg_oid, &pbe_params ) ) != 0 )
1088:D:/fchai/work/i-cube/I-CUBE-HUAWEI/Middlewares/Third_Party/Huawei/iot_link/network/dtls/mbedtls/mbedtls-2.16.2/library\pkparse.c ****         return( MBEDTLS_ERR_PK_KEY_INVALID_FORMAT + ret );
1089:D:/fchai/work/i-cube/I-CUBE-HUAWEI/Middlewares/Third_Party/Huawei/iot_link/network/dtls/mbedtls/mbedtls-2.16.2/library\pkparse.c **** 
1090:D:/fchai/work/i-cube/I-CUBE-HUAWEI/Middlewares/Third_Party/Huawei/iot_link/network/dtls/mbedtls/mbedtls-2.16.2/library\pkparse.c ****     if( ( ret = mbedtls_asn1_get_tag( &p, end, &len, MBEDTLS_ASN1_OCTET_STRING ) ) != 0 )
1091:D:/fchai/work/i-cube/I-CUBE-HUAWEI/Middlewares/Third_Party/Huawei/iot_link/network/dtls/mbedtls/mbedtls-2.16.2/library\pkparse.c ****         return( MBEDTLS_ERR_PK_KEY_INVALID_FORMAT + ret );
 2380              		.loc 1 1091 9 is_stmt 1 view .LVU729
 2381              		.loc 1 1091 51 is_stmt 0 view .LVU730
 2382 001e A0F57450 		sub	r0, r0, #15616
 2383              	.LVL289:
ARM GAS  T:\msys\tmp\cc83OHoG.s 			page 76


 2384              	.L179:
1092:D:/fchai/work/i-cube/I-CUBE-HUAWEI/Middlewares/Third_Party/Huawei/iot_link/network/dtls/mbedtls/mbedtls-2.16.2/library\pkparse.c **** 
1093:D:/fchai/work/i-cube/I-CUBE-HUAWEI/Middlewares/Third_Party/Huawei/iot_link/network/dtls/mbedtls/mbedtls-2.16.2/library\pkparse.c ****     buf = p;
1094:D:/fchai/work/i-cube/I-CUBE-HUAWEI/Middlewares/Third_Party/Huawei/iot_link/network/dtls/mbedtls/mbedtls-2.16.2/library\pkparse.c **** 
1095:D:/fchai/work/i-cube/I-CUBE-HUAWEI/Middlewares/Third_Party/Huawei/iot_link/network/dtls/mbedtls/mbedtls-2.16.2/library\pkparse.c ****     /*
1096:D:/fchai/work/i-cube/I-CUBE-HUAWEI/Middlewares/Third_Party/Huawei/iot_link/network/dtls/mbedtls/mbedtls-2.16.2/library\pkparse.c ****      * Decrypt EncryptedData with appropriate PBE
1097:D:/fchai/work/i-cube/I-CUBE-HUAWEI/Middlewares/Third_Party/Huawei/iot_link/network/dtls/mbedtls/mbedtls-2.16.2/library\pkparse.c ****      */
1098:D:/fchai/work/i-cube/I-CUBE-HUAWEI/Middlewares/Third_Party/Huawei/iot_link/network/dtls/mbedtls/mbedtls-2.16.2/library\pkparse.c **** #if defined(MBEDTLS_PKCS12_C)
1099:D:/fchai/work/i-cube/I-CUBE-HUAWEI/Middlewares/Third_Party/Huawei/iot_link/network/dtls/mbedtls/mbedtls-2.16.2/library\pkparse.c ****     if( mbedtls_oid_get_pkcs12_pbe_alg( &pbe_alg_oid, &md_alg, &cipher_alg ) == 0 )
1100:D:/fchai/work/i-cube/I-CUBE-HUAWEI/Middlewares/Third_Party/Huawei/iot_link/network/dtls/mbedtls/mbedtls-2.16.2/library\pkparse.c ****     {
1101:D:/fchai/work/i-cube/I-CUBE-HUAWEI/Middlewares/Third_Party/Huawei/iot_link/network/dtls/mbedtls/mbedtls-2.16.2/library\pkparse.c ****         if( ( ret = mbedtls_pkcs12_pbe( &pbe_params, MBEDTLS_PKCS12_PBE_DECRYPT,
1102:D:/fchai/work/i-cube/I-CUBE-HUAWEI/Middlewares/Third_Party/Huawei/iot_link/network/dtls/mbedtls/mbedtls-2.16.2/library\pkparse.c ****                                 cipher_alg, md_alg,
1103:D:/fchai/work/i-cube/I-CUBE-HUAWEI/Middlewares/Third_Party/Huawei/iot_link/network/dtls/mbedtls/mbedtls-2.16.2/library\pkparse.c ****                                 pwd, pwdlen, p, len, buf ) ) != 0 )
1104:D:/fchai/work/i-cube/I-CUBE-HUAWEI/Middlewares/Third_Party/Huawei/iot_link/network/dtls/mbedtls/mbedtls-2.16.2/library\pkparse.c ****         {
1105:D:/fchai/work/i-cube/I-CUBE-HUAWEI/Middlewares/Third_Party/Huawei/iot_link/network/dtls/mbedtls/mbedtls-2.16.2/library\pkparse.c ****             if( ret == MBEDTLS_ERR_PKCS12_PASSWORD_MISMATCH )
1106:D:/fchai/work/i-cube/I-CUBE-HUAWEI/Middlewares/Third_Party/Huawei/iot_link/network/dtls/mbedtls/mbedtls-2.16.2/library\pkparse.c ****                 return( MBEDTLS_ERR_PK_PASSWORD_MISMATCH );
1107:D:/fchai/work/i-cube/I-CUBE-HUAWEI/Middlewares/Third_Party/Huawei/iot_link/network/dtls/mbedtls/mbedtls-2.16.2/library\pkparse.c **** 
1108:D:/fchai/work/i-cube/I-CUBE-HUAWEI/Middlewares/Third_Party/Huawei/iot_link/network/dtls/mbedtls/mbedtls-2.16.2/library\pkparse.c ****             return( ret );
1109:D:/fchai/work/i-cube/I-CUBE-HUAWEI/Middlewares/Third_Party/Huawei/iot_link/network/dtls/mbedtls/mbedtls-2.16.2/library\pkparse.c ****         }
1110:D:/fchai/work/i-cube/I-CUBE-HUAWEI/Middlewares/Third_Party/Huawei/iot_link/network/dtls/mbedtls/mbedtls-2.16.2/library\pkparse.c **** 
1111:D:/fchai/work/i-cube/I-CUBE-HUAWEI/Middlewares/Third_Party/Huawei/iot_link/network/dtls/mbedtls/mbedtls-2.16.2/library\pkparse.c ****         decrypted = 1;
1112:D:/fchai/work/i-cube/I-CUBE-HUAWEI/Middlewares/Third_Party/Huawei/iot_link/network/dtls/mbedtls/mbedtls-2.16.2/library\pkparse.c ****     }
1113:D:/fchai/work/i-cube/I-CUBE-HUAWEI/Middlewares/Third_Party/Huawei/iot_link/network/dtls/mbedtls/mbedtls-2.16.2/library\pkparse.c ****     else if( MBEDTLS_OID_CMP( MBEDTLS_OID_PKCS12_PBE_SHA1_RC4_128, &pbe_alg_oid ) == 0 )
1114:D:/fchai/work/i-cube/I-CUBE-HUAWEI/Middlewares/Third_Party/Huawei/iot_link/network/dtls/mbedtls/mbedtls-2.16.2/library\pkparse.c ****     {
1115:D:/fchai/work/i-cube/I-CUBE-HUAWEI/Middlewares/Third_Party/Huawei/iot_link/network/dtls/mbedtls/mbedtls-2.16.2/library\pkparse.c ****         if( ( ret = mbedtls_pkcs12_pbe_sha1_rc4_128( &pbe_params,
1116:D:/fchai/work/i-cube/I-CUBE-HUAWEI/Middlewares/Third_Party/Huawei/iot_link/network/dtls/mbedtls/mbedtls-2.16.2/library\pkparse.c ****                                              MBEDTLS_PKCS12_PBE_DECRYPT,
1117:D:/fchai/work/i-cube/I-CUBE-HUAWEI/Middlewares/Third_Party/Huawei/iot_link/network/dtls/mbedtls/mbedtls-2.16.2/library\pkparse.c ****                                              pwd, pwdlen,
1118:D:/fchai/work/i-cube/I-CUBE-HUAWEI/Middlewares/Third_Party/Huawei/iot_link/network/dtls/mbedtls/mbedtls-2.16.2/library\pkparse.c ****                                              p, len, buf ) ) != 0 )
1119:D:/fchai/work/i-cube/I-CUBE-HUAWEI/Middlewares/Third_Party/Huawei/iot_link/network/dtls/mbedtls/mbedtls-2.16.2/library\pkparse.c ****         {
1120:D:/fchai/work/i-cube/I-CUBE-HUAWEI/Middlewares/Third_Party/Huawei/iot_link/network/dtls/mbedtls/mbedtls-2.16.2/library\pkparse.c ****             return( ret );
1121:D:/fchai/work/i-cube/I-CUBE-HUAWEI/Middlewares/Third_Party/Huawei/iot_link/network/dtls/mbedtls/mbedtls-2.16.2/library\pkparse.c ****         }
1122:D:/fchai/work/i-cube/I-CUBE-HUAWEI/Middlewares/Third_Party/Huawei/iot_link/network/dtls/mbedtls/mbedtls-2.16.2/library\pkparse.c **** 
1123:D:/fchai/work/i-cube/I-CUBE-HUAWEI/Middlewares/Third_Party/Huawei/iot_link/network/dtls/mbedtls/mbedtls-2.16.2/library\pkparse.c ****         // Best guess for password mismatch when using RC4. If first tag is
1124:D:/fchai/work/i-cube/I-CUBE-HUAWEI/Middlewares/Third_Party/Huawei/iot_link/network/dtls/mbedtls/mbedtls-2.16.2/library\pkparse.c ****         // not MBEDTLS_ASN1_CONSTRUCTED | MBEDTLS_ASN1_SEQUENCE
1125:D:/fchai/work/i-cube/I-CUBE-HUAWEI/Middlewares/Third_Party/Huawei/iot_link/network/dtls/mbedtls/mbedtls-2.16.2/library\pkparse.c ****         //
1126:D:/fchai/work/i-cube/I-CUBE-HUAWEI/Middlewares/Third_Party/Huawei/iot_link/network/dtls/mbedtls/mbedtls-2.16.2/library\pkparse.c ****         if( *buf != ( MBEDTLS_ASN1_CONSTRUCTED | MBEDTLS_ASN1_SEQUENCE ) )
1127:D:/fchai/work/i-cube/I-CUBE-HUAWEI/Middlewares/Third_Party/Huawei/iot_link/network/dtls/mbedtls/mbedtls-2.16.2/library\pkparse.c ****             return( MBEDTLS_ERR_PK_PASSWORD_MISMATCH );
1128:D:/fchai/work/i-cube/I-CUBE-HUAWEI/Middlewares/Third_Party/Huawei/iot_link/network/dtls/mbedtls/mbedtls-2.16.2/library\pkparse.c **** 
1129:D:/fchai/work/i-cube/I-CUBE-HUAWEI/Middlewares/Third_Party/Huawei/iot_link/network/dtls/mbedtls/mbedtls-2.16.2/library\pkparse.c ****         decrypted = 1;
1130:D:/fchai/work/i-cube/I-CUBE-HUAWEI/Middlewares/Third_Party/Huawei/iot_link/network/dtls/mbedtls/mbedtls-2.16.2/library\pkparse.c ****     }
1131:D:/fchai/work/i-cube/I-CUBE-HUAWEI/Middlewares/Third_Party/Huawei/iot_link/network/dtls/mbedtls/mbedtls-2.16.2/library\pkparse.c ****     else
1132:D:/fchai/work/i-cube/I-CUBE-HUAWEI/Middlewares/Third_Party/Huawei/iot_link/network/dtls/mbedtls/mbedtls-2.16.2/library\pkparse.c **** #endif /* MBEDTLS_PKCS12_C */
1133:D:/fchai/work/i-cube/I-CUBE-HUAWEI/Middlewares/Third_Party/Huawei/iot_link/network/dtls/mbedtls/mbedtls-2.16.2/library\pkparse.c **** #if defined(MBEDTLS_PKCS5_C)
1134:D:/fchai/work/i-cube/I-CUBE-HUAWEI/Middlewares/Third_Party/Huawei/iot_link/network/dtls/mbedtls/mbedtls-2.16.2/library\pkparse.c ****     if( MBEDTLS_OID_CMP( MBEDTLS_OID_PKCS5_PBES2, &pbe_alg_oid ) == 0 )
1135:D:/fchai/work/i-cube/I-CUBE-HUAWEI/Middlewares/Third_Party/Huawei/iot_link/network/dtls/mbedtls/mbedtls-2.16.2/library\pkparse.c ****     {
1136:D:/fchai/work/i-cube/I-CUBE-HUAWEI/Middlewares/Third_Party/Huawei/iot_link/network/dtls/mbedtls/mbedtls-2.16.2/library\pkparse.c ****         if( ( ret = mbedtls_pkcs5_pbes2( &pbe_params, MBEDTLS_PKCS5_DECRYPT, pwd, pwdlen,
1137:D:/fchai/work/i-cube/I-CUBE-HUAWEI/Middlewares/Third_Party/Huawei/iot_link/network/dtls/mbedtls/mbedtls-2.16.2/library\pkparse.c ****                                   p, len, buf ) ) != 0 )
1138:D:/fchai/work/i-cube/I-CUBE-HUAWEI/Middlewares/Third_Party/Huawei/iot_link/network/dtls/mbedtls/mbedtls-2.16.2/library\pkparse.c ****         {
1139:D:/fchai/work/i-cube/I-CUBE-HUAWEI/Middlewares/Third_Party/Huawei/iot_link/network/dtls/mbedtls/mbedtls-2.16.2/library\pkparse.c ****             if( ret == MBEDTLS_ERR_PKCS5_PASSWORD_MISMATCH )
1140:D:/fchai/work/i-cube/I-CUBE-HUAWEI/Middlewares/Third_Party/Huawei/iot_link/network/dtls/mbedtls/mbedtls-2.16.2/library\pkparse.c ****                 return( MBEDTLS_ERR_PK_PASSWORD_MISMATCH );
1141:D:/fchai/work/i-cube/I-CUBE-HUAWEI/Middlewares/Third_Party/Huawei/iot_link/network/dtls/mbedtls/mbedtls-2.16.2/library\pkparse.c **** 
1142:D:/fchai/work/i-cube/I-CUBE-HUAWEI/Middlewares/Third_Party/Huawei/iot_link/network/dtls/mbedtls/mbedtls-2.16.2/library\pkparse.c ****             return( ret );
1143:D:/fchai/work/i-cube/I-CUBE-HUAWEI/Middlewares/Third_Party/Huawei/iot_link/network/dtls/mbedtls/mbedtls-2.16.2/library\pkparse.c ****         }
1144:D:/fchai/work/i-cube/I-CUBE-HUAWEI/Middlewares/Third_Party/Huawei/iot_link/network/dtls/mbedtls/mbedtls-2.16.2/library\pkparse.c **** 
1145:D:/fchai/work/i-cube/I-CUBE-HUAWEI/Middlewares/Third_Party/Huawei/iot_link/network/dtls/mbedtls/mbedtls-2.16.2/library\pkparse.c ****         decrypted = 1;
1146:D:/fchai/work/i-cube/I-CUBE-HUAWEI/Middlewares/Third_Party/Huawei/iot_link/network/dtls/mbedtls/mbedtls-2.16.2/library\pkparse.c ****     }
1147:D:/fchai/work/i-cube/I-CUBE-HUAWEI/Middlewares/Third_Party/Huawei/iot_link/network/dtls/mbedtls/mbedtls-2.16.2/library\pkparse.c ****     else
ARM GAS  T:\msys\tmp\cc83OHoG.s 			page 77


1148:D:/fchai/work/i-cube/I-CUBE-HUAWEI/Middlewares/Third_Party/Huawei/iot_link/network/dtls/mbedtls/mbedtls-2.16.2/library\pkparse.c **** #endif /* MBEDTLS_PKCS5_C */
1149:D:/fchai/work/i-cube/I-CUBE-HUAWEI/Middlewares/Third_Party/Huawei/iot_link/network/dtls/mbedtls/mbedtls-2.16.2/library\pkparse.c ****     {
1150:D:/fchai/work/i-cube/I-CUBE-HUAWEI/Middlewares/Third_Party/Huawei/iot_link/network/dtls/mbedtls/mbedtls-2.16.2/library\pkparse.c ****         ((void) pwd);
1151:D:/fchai/work/i-cube/I-CUBE-HUAWEI/Middlewares/Third_Party/Huawei/iot_link/network/dtls/mbedtls/mbedtls-2.16.2/library\pkparse.c ****     }
1152:D:/fchai/work/i-cube/I-CUBE-HUAWEI/Middlewares/Third_Party/Huawei/iot_link/network/dtls/mbedtls/mbedtls-2.16.2/library\pkparse.c **** 
1153:D:/fchai/work/i-cube/I-CUBE-HUAWEI/Middlewares/Third_Party/Huawei/iot_link/network/dtls/mbedtls/mbedtls-2.16.2/library\pkparse.c ****     if( decrypted == 0 )
1154:D:/fchai/work/i-cube/I-CUBE-HUAWEI/Middlewares/Third_Party/Huawei/iot_link/network/dtls/mbedtls/mbedtls-2.16.2/library\pkparse.c ****         return( MBEDTLS_ERR_PK_FEATURE_UNAVAILABLE );
1155:D:/fchai/work/i-cube/I-CUBE-HUAWEI/Middlewares/Third_Party/Huawei/iot_link/network/dtls/mbedtls/mbedtls-2.16.2/library\pkparse.c **** 
1156:D:/fchai/work/i-cube/I-CUBE-HUAWEI/Middlewares/Third_Party/Huawei/iot_link/network/dtls/mbedtls/mbedtls-2.16.2/library\pkparse.c ****     return( pk_parse_key_pkcs8_unencrypted_der( pk, buf, len ) );
1157:D:/fchai/work/i-cube/I-CUBE-HUAWEI/Middlewares/Third_Party/Huawei/iot_link/network/dtls/mbedtls/mbedtls-2.16.2/library\pkparse.c **** }
 2385              		.loc 1 1157 1 view .LVU731
 2386 0022 13B0     		add	sp, sp, #76
 2387              	.LCFI38:
 2388              		.cfi_remember_state
 2389              		.cfi_def_cfa_offset 20
 2390              		@ sp needed
 2391 0024 F0BD     		pop	{r4, r5, r6, r7, pc}
 2392              	.LVL290:
 2393              	.L181:
 2394              	.LCFI39:
 2395              		.cfi_restore_state
1085:D:/fchai/work/i-cube/I-CUBE-HUAWEI/Middlewares/Third_Party/Huawei/iot_link/network/dtls/mbedtls/mbedtls-2.16.2/library\pkparse.c **** 
 2396              		.loc 1 1085 5 is_stmt 1 view .LVU732
1085:D:/fchai/work/i-cube/I-CUBE-HUAWEI/Middlewares/Third_Party/Huawei/iot_link/network/dtls/mbedtls/mbedtls-2.16.2/library\pkparse.c **** 
 2397              		.loc 1 1085 9 is_stmt 0 view .LVU733
 2398 0026 DDE90A31 		ldrd	r3, r1, [sp, #40]
1087:D:/fchai/work/i-cube/I-CUBE-HUAWEI/Middlewares/Third_Party/Huawei/iot_link/network/dtls/mbedtls/mbedtls-2.16.2/library\pkparse.c ****         return( MBEDTLS_ERR_PK_KEY_INVALID_FORMAT + ret );
 2399              		.loc 1 1087 17 view .LVU734
 2400 002a 0CAA     		add	r2, sp, #48
1085:D:/fchai/work/i-cube/I-CUBE-HUAWEI/Middlewares/Third_Party/Huawei/iot_link/network/dtls/mbedtls/mbedtls-2.16.2/library\pkparse.c **** 
 2401              		.loc 1 1085 9 view .LVU735
 2402 002c 1944     		add	r1, r1, r3
 2403              	.LVL291:
1087:D:/fchai/work/i-cube/I-CUBE-HUAWEI/Middlewares/Third_Party/Huawei/iot_link/network/dtls/mbedtls/mbedtls-2.16.2/library\pkparse.c ****         return( MBEDTLS_ERR_PK_KEY_INVALID_FORMAT + ret );
 2404              		.loc 1 1087 5 is_stmt 1 view .LVU736
1087:D:/fchai/work/i-cube/I-CUBE-HUAWEI/Middlewares/Third_Party/Huawei/iot_link/network/dtls/mbedtls/mbedtls-2.16.2/library\pkparse.c ****         return( MBEDTLS_ERR_PK_KEY_INVALID_FORMAT + ret );
 2405              		.loc 1 1087 17 is_stmt 0 view .LVU737
 2406 002e 0BA8     		add	r0, sp, #44
 2407              	.LVL292:
1087:D:/fchai/work/i-cube/I-CUBE-HUAWEI/Middlewares/Third_Party/Huawei/iot_link/network/dtls/mbedtls/mbedtls-2.16.2/library\pkparse.c ****         return( MBEDTLS_ERR_PK_KEY_INVALID_FORMAT + ret );
 2408              		.loc 1 1087 17 view .LVU738
 2409 0030 0FAB     		add	r3, sp, #60
 2410 0032 0791     		str	r1, [sp, #28]
 2411 0034 FFF7FEFF 		bl	mbedtls_asn1_get_alg
 2412              	.LVL293:
1087:D:/fchai/work/i-cube/I-CUBE-HUAWEI/Middlewares/Third_Party/Huawei/iot_link/network/dtls/mbedtls/mbedtls-2.16.2/library\pkparse.c ****         return( MBEDTLS_ERR_PK_KEY_INVALID_FORMAT + ret );
 2413              		.loc 1 1087 7 view .LVU739
 2414 0038 0799     		ldr	r1, [sp, #28]
 2415 003a 0028     		cmp	r0, #0
 2416 003c EFD1     		bne	.L203
1090:D:/fchai/work/i-cube/I-CUBE-HUAWEI/Middlewares/Third_Party/Huawei/iot_link/network/dtls/mbedtls/mbedtls-2.16.2/library\pkparse.c ****         return( MBEDTLS_ERR_PK_KEY_INVALID_FORMAT + ret );
 2417              		.loc 1 1090 5 is_stmt 1 view .LVU740
1090:D:/fchai/work/i-cube/I-CUBE-HUAWEI/Middlewares/Third_Party/Huawei/iot_link/network/dtls/mbedtls/mbedtls-2.16.2/library\pkparse.c ****         return( MBEDTLS_ERR_PK_KEY_INVALID_FORMAT + ret );
 2418              		.loc 1 1090 17 is_stmt 0 view .LVU741
 2419 003e 0AAA     		add	r2, sp, #40
 2420 0040 0BA8     		add	r0, sp, #44
 2421              	.LVL294:
ARM GAS  T:\msys\tmp\cc83OHoG.s 			page 78


1090:D:/fchai/work/i-cube/I-CUBE-HUAWEI/Middlewares/Third_Party/Huawei/iot_link/network/dtls/mbedtls/mbedtls-2.16.2/library\pkparse.c ****         return( MBEDTLS_ERR_PK_KEY_INVALID_FORMAT + ret );
 2422              		.loc 1 1090 17 view .LVU742
 2423 0042 0423     		movs	r3, #4
 2424 0044 FFF7FEFF 		bl	mbedtls_asn1_get_tag
 2425              	.LVL295:
1090:D:/fchai/work/i-cube/I-CUBE-HUAWEI/Middlewares/Third_Party/Huawei/iot_link/network/dtls/mbedtls/mbedtls-2.16.2/library\pkparse.c ****         return( MBEDTLS_ERR_PK_KEY_INVALID_FORMAT + ret );
 2426              		.loc 1 1090 7 view .LVU743
 2427 0048 0028     		cmp	r0, #0
 2428 004a E8D1     		bne	.L203
1093:D:/fchai/work/i-cube/I-CUBE-HUAWEI/Middlewares/Third_Party/Huawei/iot_link/network/dtls/mbedtls/mbedtls-2.16.2/library\pkparse.c **** 
 2429              		.loc 1 1093 5 is_stmt 1 view .LVU744
1099:D:/fchai/work/i-cube/I-CUBE-HUAWEI/Middlewares/Third_Party/Huawei/iot_link/network/dtls/mbedtls/mbedtls-2.16.2/library\pkparse.c ****     {
 2430              		.loc 1 1099 9 is_stmt 0 view .LVU745
 2431 004c 0CA8     		add	r0, sp, #48
 2432              	.LVL296:
1099:D:/fchai/work/i-cube/I-CUBE-HUAWEI/Middlewares/Third_Party/Huawei/iot_link/network/dtls/mbedtls/mbedtls-2.16.2/library\pkparse.c ****     {
 2433              		.loc 1 1099 9 view .LVU746
 2434 004e 0DF12602 		add	r2, sp, #38
 2435 0052 0DF12701 		add	r1, sp, #39
1093:D:/fchai/work/i-cube/I-CUBE-HUAWEI/Middlewares/Third_Party/Huawei/iot_link/network/dtls/mbedtls/mbedtls-2.16.2/library\pkparse.c **** 
 2436              		.loc 1 1093 9 view .LVU747
 2437 0056 0B9E     		ldr	r6, [sp, #44]
 2438              	.LVL297:
1099:D:/fchai/work/i-cube/I-CUBE-HUAWEI/Middlewares/Third_Party/Huawei/iot_link/network/dtls/mbedtls/mbedtls-2.16.2/library\pkparse.c ****     {
 2439              		.loc 1 1099 5 is_stmt 1 view .LVU748
1099:D:/fchai/work/i-cube/I-CUBE-HUAWEI/Middlewares/Third_Party/Huawei/iot_link/network/dtls/mbedtls/mbedtls-2.16.2/library\pkparse.c ****     {
 2440              		.loc 1 1099 9 is_stmt 0 view .LVU749
 2441 0058 FFF7FEFF 		bl	mbedtls_oid_get_pkcs12_pbe_alg
 2442              	.LVL298:
1099:D:/fchai/work/i-cube/I-CUBE-HUAWEI/Middlewares/Third_Party/Huawei/iot_link/network/dtls/mbedtls/mbedtls-2.16.2/library\pkparse.c ****     {
 2443              		.loc 1 1099 7 view .LVU750
 2444 005c 0028     		cmp	r0, #0
 2445 005e 31D0     		beq	.L204
1113:D:/fchai/work/i-cube/I-CUBE-HUAWEI/Middlewares/Third_Party/Huawei/iot_link/network/dtls/mbedtls/mbedtls-2.16.2/library\pkparse.c ****     {
 2446              		.loc 1 1113 10 is_stmt 1 view .LVU751
1113:D:/fchai/work/i-cube/I-CUBE-HUAWEI/Middlewares/Third_Party/Huawei/iot_link/network/dtls/mbedtls/mbedtls-2.16.2/library\pkparse.c ****     {
 2447              		.loc 1 1113 14 is_stmt 0 view .LVU752
 2448 0060 0D9A     		ldr	r2, [sp, #52]
 2449 0062 0A2A     		cmp	r2, #10
 2450 0064 43D0     		beq	.L205
1134:D:/fchai/work/i-cube/I-CUBE-HUAWEI/Middlewares/Third_Party/Huawei/iot_link/network/dtls/mbedtls/mbedtls-2.16.2/library\pkparse.c ****     {
 2451              		.loc 1 1134 5 is_stmt 1 view .LVU753
1134:D:/fchai/work/i-cube/I-CUBE-HUAWEI/Middlewares/Third_Party/Huawei/iot_link/network/dtls/mbedtls/mbedtls-2.16.2/library\pkparse.c ****     {
 2452              		.loc 1 1134 9 is_stmt 0 view .LVU754
 2453 0066 092A     		cmp	r2, #9
 2454 0068 47D1     		bne	.L191
1134:D:/fchai/work/i-cube/I-CUBE-HUAWEI/Middlewares/Third_Party/Huawei/iot_link/network/dtls/mbedtls/mbedtls-2.16.2/library\pkparse.c ****     {
 2455              		.loc 1 1134 9 discriminator 2 view .LVU755
 2456 006a 0E99     		ldr	r1, [sp, #56]
 2457 006c 2548     		ldr	r0, .L207
 2458 006e FFF7FEFF 		bl	memcmp
 2459              	.LVL299:
 2460 0072 0146     		mov	r1, r0
 2461 0074 0028     		cmp	r0, #0
 2462 0076 40D1     		bne	.L191
1136:D:/fchai/work/i-cube/I-CUBE-HUAWEI/Middlewares/Third_Party/Huawei/iot_link/network/dtls/mbedtls/mbedtls-2.16.2/library\pkparse.c ****                                   p, len, buf ) ) != 0 )
 2463              		.loc 1 1136 9 is_stmt 1 view .LVU756
ARM GAS  T:\msys\tmp\cc83OHoG.s 			page 79


1136:D:/fchai/work/i-cube/I-CUBE-HUAWEI/Middlewares/Third_Party/Huawei/iot_link/network/dtls/mbedtls/mbedtls-2.16.2/library\pkparse.c ****                                   p, len, buf ) ) != 0 )
 2464              		.loc 1 1136 21 is_stmt 0 view .LVU757
 2465 0078 2B46     		mov	r3, r5
 2466 007a 0A9D     		ldr	r5, [sp, #40]
 2467 007c 0195     		str	r5, [sp, #4]
 2468 007e 0B9D     		ldr	r5, [sp, #44]
 2469 0080 0296     		str	r6, [sp, #8]
 2470 0082 3A46     		mov	r2, r7
 2471 0084 0FA8     		add	r0, sp, #60
 2472 0086 0095     		str	r5, [sp]
 2473 0088 FFF7FEFF 		bl	mbedtls_pkcs5_pbes2
 2474              	.LVL300:
1136:D:/fchai/work/i-cube/I-CUBE-HUAWEI/Middlewares/Third_Party/Huawei/iot_link/network/dtls/mbedtls/mbedtls-2.16.2/library\pkparse.c ****                                   p, len, buf ) ) != 0 )
 2475              		.loc 1 1136 11 view .LVU758
 2476 008c A0B1     		cbz	r0, .L185
1139:D:/fchai/work/i-cube/I-CUBE-HUAWEI/Middlewares/Third_Party/Huawei/iot_link/network/dtls/mbedtls/mbedtls-2.16.2/library\pkparse.c ****                 return( MBEDTLS_ERR_PK_PASSWORD_MISMATCH );
 2477              		.loc 1 1139 13 is_stmt 1 view .LVU759
1139:D:/fchai/work/i-cube/I-CUBE-HUAWEI/Middlewares/Third_Party/Huawei/iot_link/network/dtls/mbedtls/mbedtls-2.16.2/library\pkparse.c ****                 return( MBEDTLS_ERR_PK_PASSWORD_MISMATCH );
 2478              		.loc 1 1139 15 is_stmt 0 view .LVU760
 2479 008e 10F5385F 		cmn	r0, #11776
 2480 0092 C6D1     		bne	.L179
 2481              	.L187:
1106:D:/fchai/work/i-cube/I-CUBE-HUAWEI/Middlewares/Third_Party/Huawei/iot_link/network/dtls/mbedtls/mbedtls-2.16.2/library\pkparse.c **** 
 2482              		.loc 1 1106 23 view .LVU761
 2483 0094 1C48     		ldr	r0, .L207+4
 2484              	.LVL301:
1106:D:/fchai/work/i-cube/I-CUBE-HUAWEI/Middlewares/Third_Party/Huawei/iot_link/network/dtls/mbedtls/mbedtls-2.16.2/library\pkparse.c **** 
 2485              		.loc 1 1106 23 view .LVU762
 2486 0096 C4E7     		b	.L179
 2487              	.L206:
1115:D:/fchai/work/i-cube/I-CUBE-HUAWEI/Middlewares/Third_Party/Huawei/iot_link/network/dtls/mbedtls/mbedtls-2.16.2/library\pkparse.c ****                                              MBEDTLS_PKCS12_PBE_DECRYPT,
 2488              		.loc 1 1115 9 is_stmt 1 view .LVU763
1115:D:/fchai/work/i-cube/I-CUBE-HUAWEI/Middlewares/Third_Party/Huawei/iot_link/network/dtls/mbedtls/mbedtls-2.16.2/library\pkparse.c ****                                              MBEDTLS_PKCS12_PBE_DECRYPT,
 2489              		.loc 1 1115 21 is_stmt 0 view .LVU764
 2490 0098 2B46     		mov	r3, r5
 2491 009a 0A9D     		ldr	r5, [sp, #40]
 2492 009c 0195     		str	r5, [sp, #4]
 2493 009e 0B9D     		ldr	r5, [sp, #44]
 2494 00a0 0296     		str	r6, [sp, #8]
 2495 00a2 0146     		mov	r1, r0
 2496 00a4 3A46     		mov	r2, r7
 2497 00a6 0FA8     		add	r0, sp, #60
 2498 00a8 0095     		str	r5, [sp]
 2499 00aa FFF7FEFF 		bl	mbedtls_pkcs12_pbe_sha1_rc4_128
 2500              	.LVL302:
1115:D:/fchai/work/i-cube/I-CUBE-HUAWEI/Middlewares/Third_Party/Huawei/iot_link/network/dtls/mbedtls/mbedtls-2.16.2/library\pkparse.c ****                                              MBEDTLS_PKCS12_PBE_DECRYPT,
 2501              		.loc 1 1115 11 view .LVU765
 2502 00ae 0028     		cmp	r0, #0
 2503 00b0 B7D1     		bne	.L179
1126:D:/fchai/work/i-cube/I-CUBE-HUAWEI/Middlewares/Third_Party/Huawei/iot_link/network/dtls/mbedtls/mbedtls-2.16.2/library\pkparse.c ****             return( MBEDTLS_ERR_PK_PASSWORD_MISMATCH );
 2504              		.loc 1 1126 9 is_stmt 1 view .LVU766
1126:D:/fchai/work/i-cube/I-CUBE-HUAWEI/Middlewares/Third_Party/Huawei/iot_link/network/dtls/mbedtls/mbedtls-2.16.2/library\pkparse.c ****             return( MBEDTLS_ERR_PK_PASSWORD_MISMATCH );
 2505              		.loc 1 1126 11 is_stmt 0 view .LVU767
 2506 00b2 3378     		ldrb	r3, [r6]	@ zero_extendqisi2
 2507 00b4 302B     		cmp	r3, #48
 2508 00b6 EDD1     		bne	.L187
 2509              	.L185:
ARM GAS  T:\msys\tmp\cc83OHoG.s 			page 80


 2510              	.LVL303:
1156:D:/fchai/work/i-cube/I-CUBE-HUAWEI/Middlewares/Third_Party/Huawei/iot_link/network/dtls/mbedtls/mbedtls-2.16.2/library\pkparse.c **** }
 2511              		.loc 1 1156 5 is_stmt 1 view .LVU768
1156:D:/fchai/work/i-cube/I-CUBE-HUAWEI/Middlewares/Third_Party/Huawei/iot_link/network/dtls/mbedtls/mbedtls-2.16.2/library\pkparse.c **** }
 2512              		.loc 1 1156 13 is_stmt 0 view .LVU769
 2513 00b8 0A9A     		ldr	r2, [sp, #40]
 2514 00ba 3146     		mov	r1, r6
 2515 00bc 2046     		mov	r0, r4
 2516              	.LVL304:
1156:D:/fchai/work/i-cube/I-CUBE-HUAWEI/Middlewares/Third_Party/Huawei/iot_link/network/dtls/mbedtls/mbedtls-2.16.2/library\pkparse.c **** }
 2517              		.loc 1 1156 13 view .LVU770
 2518 00be FFF7FEFF 		bl	pk_parse_key_pkcs8_unencrypted_der
 2519              	.LVL305:
 2520 00c2 AEE7     		b	.L179
 2521              	.LVL306:
 2522              	.L204:
1101:D:/fchai/work/i-cube/I-CUBE-HUAWEI/Middlewares/Third_Party/Huawei/iot_link/network/dtls/mbedtls/mbedtls-2.16.2/library\pkparse.c ****                                 cipher_alg, md_alg,
 2523              		.loc 1 1101 9 is_stmt 1 view .LVU771
1101:D:/fchai/work/i-cube/I-CUBE-HUAWEI/Middlewares/Third_Party/Huawei/iot_link/network/dtls/mbedtls/mbedtls-2.16.2/library\pkparse.c ****                                 cipher_alg, md_alg,
 2524              		.loc 1 1101 21 is_stmt 0 view .LVU772
 2525 00c4 0A9B     		ldr	r3, [sp, #40]
 2526 00c6 0B9A     		ldr	r2, [sp, #44]
 2527 00c8 0496     		str	r6, [sp, #16]
 2528 00ca CDE90223 		strd	r2, r3, [sp, #8]
 2529 00ce 0146     		mov	r1, r0
 2530 00d0 9DF82730 		ldrb	r3, [sp, #39]	@ zero_extendqisi2
 2531 00d4 9DF82620 		ldrb	r2, [sp, #38]	@ zero_extendqisi2
 2532 00d8 0195     		str	r5, [sp, #4]
 2533 00da 0097     		str	r7, [sp]
 2534 00dc 0FA8     		add	r0, sp, #60
 2535 00de FFF7FEFF 		bl	mbedtls_pkcs12_pbe
 2536              	.LVL307:
1101:D:/fchai/work/i-cube/I-CUBE-HUAWEI/Middlewares/Third_Party/Huawei/iot_link/network/dtls/mbedtls/mbedtls-2.16.2/library\pkparse.c ****                                 cipher_alg, md_alg,
 2537              		.loc 1 1101 11 view .LVU773
 2538 00e2 0028     		cmp	r0, #0
 2539 00e4 E8D0     		beq	.L185
1105:D:/fchai/work/i-cube/I-CUBE-HUAWEI/Middlewares/Third_Party/Huawei/iot_link/network/dtls/mbedtls/mbedtls-2.16.2/library\pkparse.c ****                 return( MBEDTLS_ERR_PK_PASSWORD_MISMATCH );
 2540              		.loc 1 1105 13 is_stmt 1 view .LVU774
1105:D:/fchai/work/i-cube/I-CUBE-HUAWEI/Middlewares/Third_Party/Huawei/iot_link/network/dtls/mbedtls/mbedtls-2.16.2/library\pkparse.c ****                 return( MBEDTLS_ERR_PK_PASSWORD_MISMATCH );
 2541              		.loc 1 1105 15 is_stmt 0 view .LVU775
 2542 00e6 10F5F05F 		cmn	r0, #7680
 2543 00ea 9AD1     		bne	.L179
 2544 00ec D2E7     		b	.L187
 2545              	.LVL308:
 2546              	.L205:
1113:D:/fchai/work/i-cube/I-CUBE-HUAWEI/Middlewares/Third_Party/Huawei/iot_link/network/dtls/mbedtls/mbedtls-2.16.2/library\pkparse.c ****     {
 2547              		.loc 1 1113 14 discriminator 2 view .LVU776
 2548 00ee 0E99     		ldr	r1, [sp, #56]
 2549 00f0 0648     		ldr	r0, .L207+8
 2550 00f2 FFF7FEFF 		bl	memcmp
 2551              	.LVL309:
 2552 00f6 0028     		cmp	r0, #0
 2553 00f8 CED0     		beq	.L206
 2554              	.L191:
1154:D:/fchai/work/i-cube/I-CUBE-HUAWEI/Middlewares/Third_Party/Huawei/iot_link/network/dtls/mbedtls/mbedtls-2.16.2/library\pkparse.c **** 
 2555              		.loc 1 1154 15 view .LVU777
 2556 00fa 0548     		ldr	r0, .L207+12
ARM GAS  T:\msys\tmp\cc83OHoG.s 			page 81


 2557              	.LVL310:
1154:D:/fchai/work/i-cube/I-CUBE-HUAWEI/Middlewares/Third_Party/Huawei/iot_link/network/dtls/mbedtls/mbedtls-2.16.2/library\pkparse.c **** 
 2558              		.loc 1 1154 15 view .LVU778
 2559 00fc 91E7     		b	.L179
 2560              	.LVL311:
 2561              	.L188:
1062:D:/fchai/work/i-cube/I-CUBE-HUAWEI/Middlewares/Third_Party/Huawei/iot_link/network/dtls/mbedtls/mbedtls-2.16.2/library\pkparse.c **** 
 2562              		.loc 1 1062 15 view .LVU779
 2563 00fe 0548     		ldr	r0, .L207+16
 2564              	.LVL312:
1062:D:/fchai/work/i-cube/I-CUBE-HUAWEI/Middlewares/Third_Party/Huawei/iot_link/network/dtls/mbedtls/mbedtls-2.16.2/library\pkparse.c **** 
 2565              		.loc 1 1062 15 view .LVU780
 2566 0100 8FE7     		b	.L179
 2567              	.L208:
 2568 0102 00BF     		.align	2
 2569              	.L207:
 2570 0104 0C000000 		.word	.LC2
 2571 0108 80C4FFFF 		.word	-15232
 2572 010c 00000000 		.word	.LC1
 2573 0110 80C6FFFF 		.word	-14720
 2574 0114 00C4FFFF 		.word	-15360
 2575              		.cfi_endproc
 2576              	.LFE25:
 2578              		.section	.text.mbedtls_pk_parse_subpubkey,"ax",%progbits
 2579              		.align	1
 2580              		.p2align 2,,3
 2581              		.global	mbedtls_pk_parse_subpubkey
 2582              		.syntax unified
 2583              		.thumb
 2584              		.thumb_func
 2585              		.fpu fpv4-sp-d16
 2587              	mbedtls_pk_parse_subpubkey:
 2588              	.LVL313:
 2589              	.LFB21:
 617:D:/fchai/work/i-cube/I-CUBE-HUAWEI/Middlewares/Third_Party/Huawei/iot_link/network/dtls/mbedtls/mbedtls-2.16.2/library\pkparse.c ****     int ret;
 2590              		.loc 1 617 1 is_stmt 1 view -0
 2591              		.cfi_startproc
 2592              		@ args = 0, pretend = 0, frame = 32
 2593              		@ frame_needed = 0, uses_anonymous_args = 0
 618:D:/fchai/work/i-cube/I-CUBE-HUAWEI/Middlewares/Third_Party/Huawei/iot_link/network/dtls/mbedtls/mbedtls-2.16.2/library\pkparse.c ****     size_t len;
 2594              		.loc 1 618 5 view .LVU782
 619:D:/fchai/work/i-cube/I-CUBE-HUAWEI/Middlewares/Third_Party/Huawei/iot_link/network/dtls/mbedtls/mbedtls-2.16.2/library\pkparse.c ****     mbedtls_asn1_buf alg_params;
 2595              		.loc 1 619 5 view .LVU783
 620:D:/fchai/work/i-cube/I-CUBE-HUAWEI/Middlewares/Third_Party/Huawei/iot_link/network/dtls/mbedtls/mbedtls-2.16.2/library\pkparse.c ****     mbedtls_pk_type_t pk_alg = MBEDTLS_PK_NONE;
 2596              		.loc 1 620 5 view .LVU784
 621:D:/fchai/work/i-cube/I-CUBE-HUAWEI/Middlewares/Third_Party/Huawei/iot_link/network/dtls/mbedtls/mbedtls-2.16.2/library\pkparse.c ****     const mbedtls_pk_info_t *pk_info;
 2597              		.loc 1 621 5 view .LVU785
 617:D:/fchai/work/i-cube/I-CUBE-HUAWEI/Middlewares/Third_Party/Huawei/iot_link/network/dtls/mbedtls/mbedtls-2.16.2/library\pkparse.c ****     int ret;
 2598              		.loc 1 617 1 is_stmt 0 view .LVU786
 2599 0000 2DE9F041 		push	{r4, r5, r6, r7, r8, lr}
 2600              	.LCFI40:
 2601              		.cfi_def_cfa_offset 24
 2602              		.cfi_offset 4, -24
 2603              		.cfi_offset 5, -20
 2604              		.cfi_offset 6, -16
 2605              		.cfi_offset 7, -12
 2606              		.cfi_offset 8, -8
ARM GAS  T:\msys\tmp\cc83OHoG.s 			page 82


 2607              		.cfi_offset 14, -4
 2608 0004 88B0     		sub	sp, sp, #32
 2609              	.LCFI41:
 2610              		.cfi_def_cfa_offset 56
 617:D:/fchai/work/i-cube/I-CUBE-HUAWEI/Middlewares/Third_Party/Huawei/iot_link/network/dtls/mbedtls/mbedtls-2.16.2/library\pkparse.c ****     int ret;
 2611              		.loc 1 617 1 view .LVU787
 2612 0006 1546     		mov	r5, r2
 621:D:/fchai/work/i-cube/I-CUBE-HUAWEI/Middlewares/Third_Party/Huawei/iot_link/network/dtls/mbedtls/mbedtls-2.16.2/library\pkparse.c ****     const mbedtls_pk_info_t *pk_info;
 2613              		.loc 1 621 23 view .LVU788
 2614 0008 0024     		movs	r4, #0
 629:D:/fchai/work/i-cube/I-CUBE-HUAWEI/Middlewares/Third_Party/Huawei/iot_link/network/dtls/mbedtls/mbedtls-2.16.2/library\pkparse.c ****                     MBEDTLS_ASN1_CONSTRUCTED | MBEDTLS_ASN1_SEQUENCE ) ) != 0 )
 2615              		.loc 1 629 17 view .LVU789
 2616 000a 04AA     		add	r2, sp, #16
 2617              	.LVL314:
 629:D:/fchai/work/i-cube/I-CUBE-HUAWEI/Middlewares/Third_Party/Huawei/iot_link/network/dtls/mbedtls/mbedtls-2.16.2/library\pkparse.c ****                     MBEDTLS_ASN1_CONSTRUCTED | MBEDTLS_ASN1_SEQUENCE ) ) != 0 )
 2618              		.loc 1 629 17 view .LVU790
 2619 000c 3023     		movs	r3, #48
 617:D:/fchai/work/i-cube/I-CUBE-HUAWEI/Middlewares/Third_Party/Huawei/iot_link/network/dtls/mbedtls/mbedtls-2.16.2/library\pkparse.c ****     int ret;
 2620              		.loc 1 617 1 view .LVU791
 2621 000e 0646     		mov	r6, r0
 621:D:/fchai/work/i-cube/I-CUBE-HUAWEI/Middlewares/Third_Party/Huawei/iot_link/network/dtls/mbedtls/mbedtls-2.16.2/library\pkparse.c ****     const mbedtls_pk_info_t *pk_info;
 2622              		.loc 1 621 23 view .LVU792
 2623 0010 8DF80F40 		strb	r4, [sp, #15]
 622:D:/fchai/work/i-cube/I-CUBE-HUAWEI/Middlewares/Third_Party/Huawei/iot_link/network/dtls/mbedtls/mbedtls-2.16.2/library\pkparse.c **** 
 2624              		.loc 1 622 5 is_stmt 1 view .LVU793
 624:D:/fchai/work/i-cube/I-CUBE-HUAWEI/Middlewares/Third_Party/Huawei/iot_link/network/dtls/mbedtls/mbedtls-2.16.2/library\pkparse.c ****     PK_VALIDATE_RET( *p != NULL );
 2625              		.loc 1 624 5 view .LVU794
 624:D:/fchai/work/i-cube/I-CUBE-HUAWEI/Middlewares/Third_Party/Huawei/iot_link/network/dtls/mbedtls/mbedtls-2.16.2/library\pkparse.c ****     PK_VALIDATE_RET( *p != NULL );
 2626              		.loc 1 624 5 view .LVU795
 624:D:/fchai/work/i-cube/I-CUBE-HUAWEI/Middlewares/Third_Party/Huawei/iot_link/network/dtls/mbedtls/mbedtls-2.16.2/library\pkparse.c ****     PK_VALIDATE_RET( *p != NULL );
 2627              		.loc 1 624 5 view .LVU796
 625:D:/fchai/work/i-cube/I-CUBE-HUAWEI/Middlewares/Third_Party/Huawei/iot_link/network/dtls/mbedtls/mbedtls-2.16.2/library\pkparse.c ****     PK_VALIDATE_RET( end != NULL );
 2628              		.loc 1 625 5 view .LVU797
 625:D:/fchai/work/i-cube/I-CUBE-HUAWEI/Middlewares/Third_Party/Huawei/iot_link/network/dtls/mbedtls/mbedtls-2.16.2/library\pkparse.c ****     PK_VALIDATE_RET( end != NULL );
 2629              		.loc 1 625 5 view .LVU798
 625:D:/fchai/work/i-cube/I-CUBE-HUAWEI/Middlewares/Third_Party/Huawei/iot_link/network/dtls/mbedtls/mbedtls-2.16.2/library\pkparse.c ****     PK_VALIDATE_RET( end != NULL );
 2630              		.loc 1 625 5 view .LVU799
 626:D:/fchai/work/i-cube/I-CUBE-HUAWEI/Middlewares/Third_Party/Huawei/iot_link/network/dtls/mbedtls/mbedtls-2.16.2/library\pkparse.c ****     PK_VALIDATE_RET( pk != NULL );
 2631              		.loc 1 626 5 view .LVU800
 626:D:/fchai/work/i-cube/I-CUBE-HUAWEI/Middlewares/Third_Party/Huawei/iot_link/network/dtls/mbedtls/mbedtls-2.16.2/library\pkparse.c ****     PK_VALIDATE_RET( pk != NULL );
 2632              		.loc 1 626 5 view .LVU801
 626:D:/fchai/work/i-cube/I-CUBE-HUAWEI/Middlewares/Third_Party/Huawei/iot_link/network/dtls/mbedtls/mbedtls-2.16.2/library\pkparse.c ****     PK_VALIDATE_RET( pk != NULL );
 2633              		.loc 1 626 5 view .LVU802
 627:D:/fchai/work/i-cube/I-CUBE-HUAWEI/Middlewares/Third_Party/Huawei/iot_link/network/dtls/mbedtls/mbedtls-2.16.2/library\pkparse.c **** 
 2634              		.loc 1 627 5 view .LVU803
 627:D:/fchai/work/i-cube/I-CUBE-HUAWEI/Middlewares/Third_Party/Huawei/iot_link/network/dtls/mbedtls/mbedtls-2.16.2/library\pkparse.c **** 
 2635              		.loc 1 627 5 view .LVU804
 627:D:/fchai/work/i-cube/I-CUBE-HUAWEI/Middlewares/Third_Party/Huawei/iot_link/network/dtls/mbedtls/mbedtls-2.16.2/library\pkparse.c **** 
 2636              		.loc 1 627 5 view .LVU805
 629:D:/fchai/work/i-cube/I-CUBE-HUAWEI/Middlewares/Third_Party/Huawei/iot_link/network/dtls/mbedtls/mbedtls-2.16.2/library\pkparse.c ****                     MBEDTLS_ASN1_CONSTRUCTED | MBEDTLS_ASN1_SEQUENCE ) ) != 0 )
 2637              		.loc 1 629 5 view .LVU806
 629:D:/fchai/work/i-cube/I-CUBE-HUAWEI/Middlewares/Third_Party/Huawei/iot_link/network/dtls/mbedtls/mbedtls-2.16.2/library\pkparse.c ****                     MBEDTLS_ASN1_CONSTRUCTED | MBEDTLS_ASN1_SEQUENCE ) ) != 0 )
 2638              		.loc 1 629 17 is_stmt 0 view .LVU807
 2639 0014 FFF7FEFF 		bl	mbedtls_asn1_get_tag
 2640              	.LVL315:
 629:D:/fchai/work/i-cube/I-CUBE-HUAWEI/Middlewares/Third_Party/Huawei/iot_link/network/dtls/mbedtls/mbedtls-2.16.2/library\pkparse.c ****                     MBEDTLS_ASN1_CONSTRUCTED | MBEDTLS_ASN1_SEQUENCE ) ) != 0 )
 2641              		.loc 1 629 7 view .LVU808
ARM GAS  T:\msys\tmp\cc83OHoG.s 			page 83


 2642 0018 28B1     		cbz	r0, .L210
 632:D:/fchai/work/i-cube/I-CUBE-HUAWEI/Middlewares/Third_Party/Huawei/iot_link/network/dtls/mbedtls/mbedtls-2.16.2/library\pkparse.c ****     }
 2643              		.loc 1 632 9 is_stmt 1 view .LVU809
 632:D:/fchai/work/i-cube/I-CUBE-HUAWEI/Middlewares/Third_Party/Huawei/iot_link/network/dtls/mbedtls/mbedtls-2.16.2/library\pkparse.c ****     }
 2644              		.loc 1 632 51 is_stmt 0 view .LVU810
 2645 001a A0F57454 		sub	r4, r0, #15616
 2646              	.LVL316:
 2647              	.L209:
 677:D:/fchai/work/i-cube/I-CUBE-HUAWEI/Middlewares/Third_Party/Huawei/iot_link/network/dtls/mbedtls/mbedtls-2.16.2/library\pkparse.c **** 
 2648              		.loc 1 677 1 view .LVU811
 2649 001e 2046     		mov	r0, r4
 2650 0020 08B0     		add	sp, sp, #32
 2651              	.LCFI42:
 2652              		.cfi_remember_state
 2653              		.cfi_def_cfa_offset 24
 2654              		@ sp needed
 2655 0022 BDE8F081 		pop	{r4, r5, r6, r7, r8, pc}
 2656              	.LVL317:
 2657              	.L210:
 2658              	.LCFI43:
 2659              		.cfi_restore_state
 635:D:/fchai/work/i-cube/I-CUBE-HUAWEI/Middlewares/Third_Party/Huawei/iot_link/network/dtls/mbedtls/mbedtls-2.16.2/library\pkparse.c **** 
 2660              		.loc 1 635 5 is_stmt 1 view .LVU812
 635:D:/fchai/work/i-cube/I-CUBE-HUAWEI/Middlewares/Third_Party/Huawei/iot_link/network/dtls/mbedtls/mbedtls-2.16.2/library\pkparse.c **** 
 2661              		.loc 1 635 9 is_stmt 0 view .LVU813
 2662 0026 049B     		ldr	r3, [sp, #16]
 2663 0028 3768     		ldr	r7, [r6]
 2664 002a 1F44     		add	r7, r7, r3
 2665              	.LVL318:
 637:D:/fchai/work/i-cube/I-CUBE-HUAWEI/Middlewares/Third_Party/Huawei/iot_link/network/dtls/mbedtls/mbedtls-2.16.2/library\pkparse.c ****         return( ret );
 2666              		.loc 1 637 5 is_stmt 1 view .LVU814
 637:D:/fchai/work/i-cube/I-CUBE-HUAWEI/Middlewares/Third_Party/Huawei/iot_link/network/dtls/mbedtls/mbedtls-2.16.2/library\pkparse.c ****         return( ret );
 2667              		.loc 1 637 17 is_stmt 0 view .LVU815
 2668 002c 3946     		mov	r1, r7
 2669 002e 05AB     		add	r3, sp, #20
 2670 0030 0DF10F02 		add	r2, sp, #15
 2671 0034 3046     		mov	r0, r6
 2672              	.LVL319:
 637:D:/fchai/work/i-cube/I-CUBE-HUAWEI/Middlewares/Third_Party/Huawei/iot_link/network/dtls/mbedtls/mbedtls-2.16.2/library\pkparse.c ****         return( ret );
 2673              		.loc 1 637 17 view .LVU816
 2674 0036 FFF7FEFF 		bl	pk_get_pk_alg
 2675              	.LVL320:
 637:D:/fchai/work/i-cube/I-CUBE-HUAWEI/Middlewares/Third_Party/Huawei/iot_link/network/dtls/mbedtls/mbedtls-2.16.2/library\pkparse.c ****         return( ret );
 2676              		.loc 1 637 7 view .LVU817
 2677 003a 0446     		mov	r4, r0
 2678 003c 0028     		cmp	r0, #0
 2679 003e EED1     		bne	.L209
 640:D:/fchai/work/i-cube/I-CUBE-HUAWEI/Middlewares/Third_Party/Huawei/iot_link/network/dtls/mbedtls/mbedtls-2.16.2/library\pkparse.c ****         return( MBEDTLS_ERR_PK_INVALID_PUBKEY + ret );
 2680              		.loc 1 640 5 is_stmt 1 view .LVU818
 640:D:/fchai/work/i-cube/I-CUBE-HUAWEI/Middlewares/Third_Party/Huawei/iot_link/network/dtls/mbedtls/mbedtls-2.16.2/library\pkparse.c ****         return( MBEDTLS_ERR_PK_INVALID_PUBKEY + ret );
 2681              		.loc 1 640 17 is_stmt 0 view .LVU819
 2682 0040 04AA     		add	r2, sp, #16
 2683 0042 3946     		mov	r1, r7
 2684 0044 3046     		mov	r0, r6
 2685              	.LVL321:
 640:D:/fchai/work/i-cube/I-CUBE-HUAWEI/Middlewares/Third_Party/Huawei/iot_link/network/dtls/mbedtls/mbedtls-2.16.2/library\pkparse.c ****         return( MBEDTLS_ERR_PK_INVALID_PUBKEY + ret );
 2686              		.loc 1 640 17 view .LVU820
ARM GAS  T:\msys\tmp\cc83OHoG.s 			page 84


 2687 0046 FFF7FEFF 		bl	mbedtls_asn1_get_bitstring_null
 2688              	.LVL322:
 640:D:/fchai/work/i-cube/I-CUBE-HUAWEI/Middlewares/Third_Party/Huawei/iot_link/network/dtls/mbedtls/mbedtls-2.16.2/library\pkparse.c ****         return( MBEDTLS_ERR_PK_INVALID_PUBKEY + ret );
 2689              		.loc 1 640 7 view .LVU821
 2690 004a E8B9     		cbnz	r0, .L224
 643:D:/fchai/work/i-cube/I-CUBE-HUAWEI/Middlewares/Third_Party/Huawei/iot_link/network/dtls/mbedtls/mbedtls-2.16.2/library\pkparse.c ****         return( MBEDTLS_ERR_PK_INVALID_PUBKEY +
 2691              		.loc 1 643 5 is_stmt 1 view .LVU822
 643:D:/fchai/work/i-cube/I-CUBE-HUAWEI/Middlewares/Third_Party/Huawei/iot_link/network/dtls/mbedtls/mbedtls-2.16.2/library\pkparse.c ****         return( MBEDTLS_ERR_PK_INVALID_PUBKEY +
 2692              		.loc 1 643 12 is_stmt 0 view .LVU823
 2693 004c 3368     		ldr	r3, [r6]
 2694 004e 049A     		ldr	r2, [sp, #16]
 2695 0050 1344     		add	r3, r3, r2
 643:D:/fchai/work/i-cube/I-CUBE-HUAWEI/Middlewares/Third_Party/Huawei/iot_link/network/dtls/mbedtls/mbedtls-2.16.2/library\pkparse.c ****         return( MBEDTLS_ERR_PK_INVALID_PUBKEY +
 2696              		.loc 1 643 7 view .LVU824
 2697 0052 9F42     		cmp	r7, r3
 2698 0054 3DD1     		bne	.L218
 647:D:/fchai/work/i-cube/I-CUBE-HUAWEI/Middlewares/Third_Party/Huawei/iot_link/network/dtls/mbedtls/mbedtls-2.16.2/library\pkparse.c ****         return( MBEDTLS_ERR_PK_UNKNOWN_PK_ALG );
 2699              		.loc 1 647 5 is_stmt 1 view .LVU825
 647:D:/fchai/work/i-cube/I-CUBE-HUAWEI/Middlewares/Third_Party/Huawei/iot_link/network/dtls/mbedtls/mbedtls-2.16.2/library\pkparse.c ****         return( MBEDTLS_ERR_PK_UNKNOWN_PK_ALG );
 2700              		.loc 1 647 21 is_stmt 0 view .LVU826
 2701 0056 9DF80F00 		ldrb	r0, [sp, #15]	@ zero_extendqisi2
 2702              	.LVL323:
 647:D:/fchai/work/i-cube/I-CUBE-HUAWEI/Middlewares/Third_Party/Huawei/iot_link/network/dtls/mbedtls/mbedtls-2.16.2/library\pkparse.c ****         return( MBEDTLS_ERR_PK_UNKNOWN_PK_ALG );
 2703              		.loc 1 647 21 view .LVU827
 2704 005a FFF7FEFF 		bl	mbedtls_pk_info_from_type
 2705              	.LVL324:
 647:D:/fchai/work/i-cube/I-CUBE-HUAWEI/Middlewares/Third_Party/Huawei/iot_link/network/dtls/mbedtls/mbedtls-2.16.2/library\pkparse.c ****         return( MBEDTLS_ERR_PK_UNKNOWN_PK_ALG );
 2706              		.loc 1 647 7 view .LVU828
 2707 005e 0146     		mov	r1, r0
 2708 0060 0028     		cmp	r0, #0
 2709 0062 3FD0     		beq	.L219
 650:D:/fchai/work/i-cube/I-CUBE-HUAWEI/Middlewares/Third_Party/Huawei/iot_link/network/dtls/mbedtls/mbedtls-2.16.2/library\pkparse.c ****         return( ret );
 2710              		.loc 1 650 5 is_stmt 1 view .LVU829
 650:D:/fchai/work/i-cube/I-CUBE-HUAWEI/Middlewares/Third_Party/Huawei/iot_link/network/dtls/mbedtls/mbedtls-2.16.2/library\pkparse.c ****         return( ret );
 2711              		.loc 1 650 17 is_stmt 0 view .LVU830
 2712 0064 2846     		mov	r0, r5
 2713              	.LVL325:
 650:D:/fchai/work/i-cube/I-CUBE-HUAWEI/Middlewares/Third_Party/Huawei/iot_link/network/dtls/mbedtls/mbedtls-2.16.2/library\pkparse.c ****         return( ret );
 2714              		.loc 1 650 17 view .LVU831
 2715 0066 FFF7FEFF 		bl	mbedtls_pk_setup
 2716              	.LVL326:
 650:D:/fchai/work/i-cube/I-CUBE-HUAWEI/Middlewares/Third_Party/Huawei/iot_link/network/dtls/mbedtls/mbedtls-2.16.2/library\pkparse.c ****         return( ret );
 2717              		.loc 1 650 7 view .LVU832
 2718 006a 0446     		mov	r4, r0
 2719 006c 0028     		cmp	r0, #0
 2720 006e D6D1     		bne	.L209
 654:D:/fchai/work/i-cube/I-CUBE-HUAWEI/Middlewares/Third_Party/Huawei/iot_link/network/dtls/mbedtls/mbedtls-2.16.2/library\pkparse.c ****     {
 2721              		.loc 1 654 5 is_stmt 1 view .LVU833
 654:D:/fchai/work/i-cube/I-CUBE-HUAWEI/Middlewares/Third_Party/Huawei/iot_link/network/dtls/mbedtls/mbedtls-2.16.2/library\pkparse.c ****     {
 2722              		.loc 1 654 16 is_stmt 0 view .LVU834
 2723 0070 9DF80F30 		ldrb	r3, [sp, #15]	@ zero_extendqisi2
 654:D:/fchai/work/i-cube/I-CUBE-HUAWEI/Middlewares/Third_Party/Huawei/iot_link/network/dtls/mbedtls/mbedtls-2.16.2/library\pkparse.c ****     {
 2724              		.loc 1 654 7 view .LVU835
 2725 0074 012B     		cmp	r3, #1
 2726 0076 20D0     		beq	.L225
 660:D:/fchai/work/i-cube/I-CUBE-HUAWEI/Middlewares/Third_Party/Huawei/iot_link/network/dtls/mbedtls/mbedtls-2.16.2/library\pkparse.c ****     {
 2727              		.loc 1 660 5 is_stmt 1 view .LVU836
ARM GAS  T:\msys\tmp\cc83OHoG.s 			page 85


 660:D:/fchai/work/i-cube/I-CUBE-HUAWEI/Middlewares/Third_Party/Huawei/iot_link/network/dtls/mbedtls/mbedtls-2.16.2/library\pkparse.c ****     {
 2728              		.loc 1 660 7 is_stmt 0 view .LVU837
 2729 0078 023B     		subs	r3, r3, #2
 2730 007a 012B     		cmp	r3, #1
 2731 007c 07D9     		bls	.L226
 667:D:/fchai/work/i-cube/I-CUBE-HUAWEI/Middlewares/Third_Party/Huawei/iot_link/network/dtls/mbedtls/mbedtls-2.16.2/library\pkparse.c **** 
 2732              		.loc 1 667 13 view .LVU838
 2733 007e 1A4C     		ldr	r4, .L229
 2734              	.L215:
 2735              	.LVL327:
 674:D:/fchai/work/i-cube/I-CUBE-HUAWEI/Middlewares/Third_Party/Huawei/iot_link/network/dtls/mbedtls/mbedtls-2.16.2/library\pkparse.c **** 
 2736              		.loc 1 674 9 is_stmt 1 view .LVU839
 2737 0080 2846     		mov	r0, r5
 2738 0082 FFF7FEFF 		bl	mbedtls_pk_free
 2739              	.LVL328:
 2740 0086 CAE7     		b	.L209
 2741              	.LVL329:
 2742              	.L224:
 641:D:/fchai/work/i-cube/I-CUBE-HUAWEI/Middlewares/Third_Party/Huawei/iot_link/network/dtls/mbedtls/mbedtls-2.16.2/library\pkparse.c **** 
 2743              		.loc 1 641 9 view .LVU840
 641:D:/fchai/work/i-cube/I-CUBE-HUAWEI/Middlewares/Third_Party/Huawei/iot_link/network/dtls/mbedtls/mbedtls-2.16.2/library\pkparse.c **** 
 2744              		.loc 1 641 47 is_stmt 0 view .LVU841
 2745 0088 A0F56C54 		sub	r4, r0, #15104
 2746 008c C7E7     		b	.L209
 2747              	.L226:
 662:D:/fchai/work/i-cube/I-CUBE-HUAWEI/Middlewares/Third_Party/Huawei/iot_link/network/dtls/mbedtls/mbedtls-2.16.2/library\pkparse.c ****         if( ret == 0 )
 2748              		.loc 1 662 9 is_stmt 1 view .LVU842
 2749              		.loc 2 172 5 view .LVU843
 662:D:/fchai/work/i-cube/I-CUBE-HUAWEI/Middlewares/Third_Party/Huawei/iot_link/network/dtls/mbedtls/mbedtls-2.16.2/library\pkparse.c ****         if( ret == 0 )
 2750              		.loc 1 662 15 is_stmt 0 view .LVU844
 2751 008e 6968     		ldr	r1, [r5, #4]
 2752 0090 05A8     		add	r0, sp, #20
 2753              	.LVL330:
 662:D:/fchai/work/i-cube/I-CUBE-HUAWEI/Middlewares/Third_Party/Huawei/iot_link/network/dtls/mbedtls/mbedtls-2.16.2/library\pkparse.c ****         if( ret == 0 )
 2754              		.loc 1 662 15 view .LVU845
 2755 0092 FFF7FEFF 		bl	pk_use_ecparams
 2756              	.LVL331:
 663:D:/fchai/work/i-cube/I-CUBE-HUAWEI/Middlewares/Third_Party/Huawei/iot_link/network/dtls/mbedtls/mbedtls-2.16.2/library\pkparse.c ****             ret = pk_get_ecpubkey( p, end, mbedtls_pk_ec( *pk ) );
 2757              		.loc 1 663 9 is_stmt 1 view .LVU846
 663:D:/fchai/work/i-cube/I-CUBE-HUAWEI/Middlewares/Third_Party/Huawei/iot_link/network/dtls/mbedtls/mbedtls-2.16.2/library\pkparse.c ****             ret = pk_get_ecpubkey( p, end, mbedtls_pk_ec( *pk ) );
 2758              		.loc 1 663 11 is_stmt 0 view .LVU847
 2759 0096 08B1     		cbz	r0, .L227
 2760              	.L222:
 669:D:/fchai/work/i-cube/I-CUBE-HUAWEI/Middlewares/Third_Party/Huawei/iot_link/network/dtls/mbedtls/mbedtls-2.16.2/library\pkparse.c ****         ret = MBEDTLS_ERR_PK_INVALID_PUBKEY
 2761              		.loc 1 669 7 view .LVU848
 2762 0098 0446     		mov	r4, r0
 2763 009a F1E7     		b	.L215
 2764              	.L227:
 664:D:/fchai/work/i-cube/I-CUBE-HUAWEI/Middlewares/Third_Party/Huawei/iot_link/network/dtls/mbedtls/mbedtls-2.16.2/library\pkparse.c ****     } else
 2765              		.loc 1 664 13 is_stmt 1 view .LVU849
 664:D:/fchai/work/i-cube/I-CUBE-HUAWEI/Middlewares/Third_Party/Huawei/iot_link/network/dtls/mbedtls/mbedtls-2.16.2/library\pkparse.c ****     } else
 2766              		.loc 1 664 19 is_stmt 0 view .LVU850
 2767 009c D5F80480 		ldr	r8, [r5, #4]
 2768              		.loc 2 172 5 is_stmt 1 view .LVU851
 2769              	.LVL332:
 2770              	.LBB93:
 2771              	.LBI93:
ARM GAS  T:\msys\tmp\cc83OHoG.s 			page 86


 500:D:/fchai/work/i-cube/I-CUBE-HUAWEI/Middlewares/Third_Party/Huawei/iot_link/network/dtls/mbedtls/mbedtls-2.16.2/library\pkparse.c ****                             mbedtls_ecp_keypair *key )
 2772              		.loc 1 500 12 view .LVU852
 2773              	.LBB94:
 503:D:/fchai/work/i-cube/I-CUBE-HUAWEI/Middlewares/Third_Party/Huawei/iot_link/network/dtls/mbedtls/mbedtls-2.16.2/library\pkparse.c **** 
 2774              		.loc 1 503 5 view .LVU853
 505:D:/fchai/work/i-cube/I-CUBE-HUAWEI/Middlewares/Third_Party/Huawei/iot_link/network/dtls/mbedtls/mbedtls-2.16.2/library\pkparse.c ****                     (const unsigned char *) *p, end - *p ) ) == 0 )
 2775              		.loc 1 505 5 view .LVU854
 505:D:/fchai/work/i-cube/I-CUBE-HUAWEI/Middlewares/Third_Party/Huawei/iot_link/network/dtls/mbedtls/mbedtls-2.16.2/library\pkparse.c ****                     (const unsigned char *) *p, end - *p ) ) == 0 )
 2776              		.loc 1 505 17 is_stmt 0 view .LVU855
 2777 00a0 3268     		ldr	r2, [r6]
 2778 00a2 08F18801 		add	r1, r8, #136
 2779 00a6 4046     		mov	r0, r8
 2780              	.LVL333:
 505:D:/fchai/work/i-cube/I-CUBE-HUAWEI/Middlewares/Third_Party/Huawei/iot_link/network/dtls/mbedtls/mbedtls-2.16.2/library\pkparse.c ****                     (const unsigned char *) *p, end - *p ) ) == 0 )
 2781              		.loc 1 505 17 view .LVU856
 2782 00a8 BB1A     		subs	r3, r7, r2
 2783 00aa 0191     		str	r1, [sp, #4]
 2784 00ac FFF7FEFF 		bl	mbedtls_ecp_point_read_binary
 2785              	.LVL334:
 505:D:/fchai/work/i-cube/I-CUBE-HUAWEI/Middlewares/Third_Party/Huawei/iot_link/network/dtls/mbedtls/mbedtls-2.16.2/library\pkparse.c ****                     (const unsigned char *) *p, end - *p ) ) == 0 )
 2786              		.loc 1 505 7 view .LVU857
 2787 00b0 0199     		ldr	r1, [sp, #4]
 2788 00b2 80B1     		cbz	r0, .L228
 514:D:/fchai/work/i-cube/I-CUBE-HUAWEI/Middlewares/Third_Party/Huawei/iot_link/network/dtls/mbedtls/mbedtls-2.16.2/library\pkparse.c **** 
 2789              		.loc 1 514 5 is_stmt 1 view .LVU858
 514:D:/fchai/work/i-cube/I-CUBE-HUAWEI/Middlewares/Third_Party/Huawei/iot_link/network/dtls/mbedtls/mbedtls-2.16.2/library\pkparse.c **** 
 2790              		.loc 1 514 8 is_stmt 0 view .LVU859
 2791 00b4 3760     		str	r7, [r6]
 516:D:/fchai/work/i-cube/I-CUBE-HUAWEI/Middlewares/Third_Party/Huawei/iot_link/network/dtls/mbedtls/mbedtls-2.16.2/library\pkparse.c **** }
 2792              		.loc 1 516 5 is_stmt 1 view .LVU860
 2793              	.LVL335:
 516:D:/fchai/work/i-cube/I-CUBE-HUAWEI/Middlewares/Third_Party/Huawei/iot_link/network/dtls/mbedtls/mbedtls-2.16.2/library\pkparse.c **** }
 2794              		.loc 1 516 5 is_stmt 0 view .LVU861
 2795              	.LBE94:
 2796              	.LBE93:
 669:D:/fchai/work/i-cube/I-CUBE-HUAWEI/Middlewares/Third_Party/Huawei/iot_link/network/dtls/mbedtls/mbedtls-2.16.2/library\pkparse.c ****         ret = MBEDTLS_ERR_PK_INVALID_PUBKEY
 2797              		.loc 1 669 5 is_stmt 1 view .LVU862
 2798              	.LBB97:
 2799              	.LBB95:
 514:D:/fchai/work/i-cube/I-CUBE-HUAWEI/Middlewares/Third_Party/Huawei/iot_link/network/dtls/mbedtls/mbedtls-2.16.2/library\pkparse.c **** 
 2800              		.loc 1 514 8 is_stmt 0 view .LVU863
 2801 00b6 0446     		mov	r4, r0
 2802 00b8 E2E7     		b	.L215
 2803              	.L225:
 514:D:/fchai/work/i-cube/I-CUBE-HUAWEI/Middlewares/Third_Party/Huawei/iot_link/network/dtls/mbedtls/mbedtls-2.16.2/library\pkparse.c **** 
 2804              		.loc 1 514 8 view .LVU864
 2805              	.LBE95:
 2806              	.LBE97:
 656:D:/fchai/work/i-cube/I-CUBE-HUAWEI/Middlewares/Third_Party/Huawei/iot_link/network/dtls/mbedtls/mbedtls-2.16.2/library\pkparse.c ****     } else
 2807              		.loc 1 656 9 is_stmt 1 view .LVU865
 159:D:/fchai/work/i-cube/I-CUBE-HUAWEI/Middlewares/Third_Party/Huawei/iot_link/network/dtls/mbedtls/mbedtls-2.16.2/include/mbedtls\pk.h **** }
 2808              		.loc 2 159 5 view .LVU866
 656:D:/fchai/work/i-cube/I-CUBE-HUAWEI/Middlewares/Third_Party/Huawei/iot_link/network/dtls/mbedtls/mbedtls-2.16.2/library\pkparse.c ****     } else
 2809              		.loc 1 656 15 is_stmt 0 view .LVU867
 2810 00ba 6A68     		ldr	r2, [r5, #4]
 2811 00bc 3946     		mov	r1, r7
 2812 00be 3046     		mov	r0, r6
ARM GAS  T:\msys\tmp\cc83OHoG.s 			page 87


 2813              	.LVL336:
 656:D:/fchai/work/i-cube/I-CUBE-HUAWEI/Middlewares/Third_Party/Huawei/iot_link/network/dtls/mbedtls/mbedtls-2.16.2/library\pkparse.c ****     } else
 2814              		.loc 1 656 15 view .LVU868
 2815 00c0 FFF7FEFF 		bl	pk_get_rsapubkey
 2816              	.LVL337:
 669:D:/fchai/work/i-cube/I-CUBE-HUAWEI/Middlewares/Third_Party/Huawei/iot_link/network/dtls/mbedtls/mbedtls-2.16.2/library\pkparse.c ****         ret = MBEDTLS_ERR_PK_INVALID_PUBKEY
 2817              		.loc 1 669 5 is_stmt 1 view .LVU869
 669:D:/fchai/work/i-cube/I-CUBE-HUAWEI/Middlewares/Third_Party/Huawei/iot_link/network/dtls/mbedtls/mbedtls-2.16.2/library\pkparse.c ****         ret = MBEDTLS_ERR_PK_INVALID_PUBKEY
 2818              		.loc 1 669 7 is_stmt 0 view .LVU870
 2819 00c4 0028     		cmp	r0, #0
 2820 00c6 E7D1     		bne	.L222
 669:D:/fchai/work/i-cube/I-CUBE-HUAWEI/Middlewares/Third_Party/Huawei/iot_link/network/dtls/mbedtls/mbedtls-2.16.2/library\pkparse.c ****         ret = MBEDTLS_ERR_PK_INVALID_PUBKEY
 2821              		.loc 1 669 18 discriminator 1 view .LVU871
 2822 00c8 3368     		ldr	r3, [r6]
 2823 00ca BB42     		cmp	r3, r7
 2824 00cc A7D0     		beq	.L209
 670:D:/fchai/work/i-cube/I-CUBE-HUAWEI/Middlewares/Third_Party/Huawei/iot_link/network/dtls/mbedtls/mbedtls-2.16.2/library\pkparse.c ****               MBEDTLS_ERR_ASN1_LENGTH_MISMATCH;
 2825              		.loc 1 670 13 view .LVU872
 2826 00ce 074C     		ldr	r4, .L229+4
 2827 00d0 D6E7     		b	.L215
 2828              	.L218:
 644:D:/fchai/work/i-cube/I-CUBE-HUAWEI/Middlewares/Third_Party/Huawei/iot_link/network/dtls/mbedtls/mbedtls-2.16.2/library\pkparse.c ****                 MBEDTLS_ERR_ASN1_LENGTH_MISMATCH );
 2829              		.loc 1 644 15 view .LVU873
 2830 00d2 064C     		ldr	r4, .L229+4
 2831 00d4 A3E7     		b	.L209
 2832              	.LVL338:
 2833              	.L228:
 2834              	.LBB98:
 2835              	.LBB96:
 508:D:/fchai/work/i-cube/I-CUBE-HUAWEI/Middlewares/Third_Party/Huawei/iot_link/network/dtls/mbedtls/mbedtls-2.16.2/library\pkparse.c ****     }
 2836              		.loc 1 508 9 is_stmt 1 view .LVU874
 508:D:/fchai/work/i-cube/I-CUBE-HUAWEI/Middlewares/Third_Party/Huawei/iot_link/network/dtls/mbedtls/mbedtls-2.16.2/library\pkparse.c ****     }
 2837              		.loc 1 508 15 is_stmt 0 view .LVU875
 2838 00d6 4046     		mov	r0, r8
 2839              	.LVL339:
 508:D:/fchai/work/i-cube/I-CUBE-HUAWEI/Middlewares/Third_Party/Huawei/iot_link/network/dtls/mbedtls/mbedtls-2.16.2/library\pkparse.c ****     }
 2840              		.loc 1 508 15 view .LVU876
 2841 00d8 FFF7FEFF 		bl	mbedtls_ecp_check_pubkey
 2842              	.LVL340:
 514:D:/fchai/work/i-cube/I-CUBE-HUAWEI/Middlewares/Third_Party/Huawei/iot_link/network/dtls/mbedtls/mbedtls-2.16.2/library\pkparse.c **** 
 2843              		.loc 1 514 5 is_stmt 1 view .LVU877
 514:D:/fchai/work/i-cube/I-CUBE-HUAWEI/Middlewares/Third_Party/Huawei/iot_link/network/dtls/mbedtls/mbedtls-2.16.2/library\pkparse.c **** 
 2844              		.loc 1 514 8 is_stmt 0 view .LVU878
 2845 00dc 3760     		str	r7, [r6]
 516:D:/fchai/work/i-cube/I-CUBE-HUAWEI/Middlewares/Third_Party/Huawei/iot_link/network/dtls/mbedtls/mbedtls-2.16.2/library\pkparse.c **** }
 2846              		.loc 1 516 5 is_stmt 1 view .LVU879
 2847              	.LVL341:
 516:D:/fchai/work/i-cube/I-CUBE-HUAWEI/Middlewares/Third_Party/Huawei/iot_link/network/dtls/mbedtls/mbedtls-2.16.2/library\pkparse.c **** }
 2848              		.loc 1 516 5 is_stmt 0 view .LVU880
 2849              	.LBE96:
 2850              	.LBE98:
 669:D:/fchai/work/i-cube/I-CUBE-HUAWEI/Middlewares/Third_Party/Huawei/iot_link/network/dtls/mbedtls/mbedtls-2.16.2/library\pkparse.c ****         ret = MBEDTLS_ERR_PK_INVALID_PUBKEY
 2851              		.loc 1 669 5 is_stmt 1 view .LVU881
 669:D:/fchai/work/i-cube/I-CUBE-HUAWEI/Middlewares/Third_Party/Huawei/iot_link/network/dtls/mbedtls/mbedtls-2.16.2/library\pkparse.c ****         ret = MBEDTLS_ERR_PK_INVALID_PUBKEY
 2852              		.loc 1 669 7 is_stmt 0 view .LVU882
 2853 00de 0028     		cmp	r0, #0
 2854 00e0 9DD0     		beq	.L209
ARM GAS  T:\msys\tmp\cc83OHoG.s 			page 88


 669:D:/fchai/work/i-cube/I-CUBE-HUAWEI/Middlewares/Third_Party/Huawei/iot_link/network/dtls/mbedtls/mbedtls-2.16.2/library\pkparse.c ****         ret = MBEDTLS_ERR_PK_INVALID_PUBKEY
 2855              		.loc 1 669 7 view .LVU883
 2856 00e2 D9E7     		b	.L222
 2857              	.LVL342:
 2858              	.L219:
 648:D:/fchai/work/i-cube/I-CUBE-HUAWEI/Middlewares/Third_Party/Huawei/iot_link/network/dtls/mbedtls/mbedtls-2.16.2/library\pkparse.c **** 
 2859              		.loc 1 648 15 view .LVU884
 2860 00e4 004C     		ldr	r4, .L229
 648:D:/fchai/work/i-cube/I-CUBE-HUAWEI/Middlewares/Third_Party/Huawei/iot_link/network/dtls/mbedtls/mbedtls-2.16.2/library\pkparse.c **** 
 2861              		.loc 1 648 15 view .LVU885
 2862 00e6 9AE7     		b	.L209
 2863              	.L230:
 2864              		.align	2
 2865              	.L229:
 2866 00e8 80C3FFFF 		.word	-15488
 2867 00ec 9AC4FFFF 		.word	-15206
 2868              		.cfi_endproc
 2869              	.LFE21:
 2871              		.section	.rodata.mbedtls_pk_parse_key.str1.4,"aMS",%progbits,1
 2872              		.align	2
 2873              	.LC3:
 2874 0000 2D2D2D2D 		.ascii	"-----END RSA PRIVATE KEY-----\000"
 2874      2D454E44 
 2874      20525341 
 2874      20505249 
 2874      56415445 
 2875 001e 0000     		.align	2
 2876              	.LC4:
 2877 0020 2D2D2D2D 		.ascii	"-----BEGIN RSA PRIVATE KEY-----\000"
 2877      2D424547 
 2877      494E2052 
 2877      53412050 
 2877      52495641 
 2878              		.align	2
 2879              	.LC5:
 2880 0040 2D2D2D2D 		.ascii	"-----END EC PRIVATE KEY-----\000"
 2880      2D454E44 
 2880      20454320 
 2880      50524956 
 2880      41544520 
 2881 005d 000000   		.align	2
 2882              	.LC6:
 2883 0060 2D2D2D2D 		.ascii	"-----BEGIN EC PRIVATE KEY-----\000"
 2883      2D424547 
 2883      494E2045 
 2883      43205052 
 2883      49564154 
 2884 007f 00       		.align	2
 2885              	.LC7:
 2886 0080 2D2D2D2D 		.ascii	"-----END PRIVATE KEY-----\000"
 2886      2D454E44 
 2886      20505249 
 2886      56415445 
 2886      204B4559 
 2887 009a 0000     		.align	2
 2888              	.LC8:
 2889 009c 2D2D2D2D 		.ascii	"-----BEGIN PRIVATE KEY-----\000"
ARM GAS  T:\msys\tmp\cc83OHoG.s 			page 89


 2889      2D424547 
 2889      494E2050 
 2889      52495641 
 2889      5445204B 
 2890              		.align	2
 2891              	.LC9:
 2892 00b8 2D2D2D2D 		.ascii	"-----END ENCRYPTED PRIVATE KEY-----\000"
 2892      2D454E44 
 2892      20454E43 
 2892      52595054 
 2892      45442050 
 2893              		.align	2
 2894              	.LC10:
 2895 00dc 2D2D2D2D 		.ascii	"-----BEGIN ENCRYPTED PRIVATE KEY-----\000"
 2895      2D424547 
 2895      494E2045 
 2895      4E435259 
 2895      50544544 
 2896              		.section	.text.mbedtls_pk_parse_key,"ax",%progbits
 2897              		.align	1
 2898              		.p2align 2,,3
 2899              		.global	mbedtls_pk_parse_key
 2900              		.syntax unified
 2901              		.thumb
 2902              		.thumb_func
 2903              		.fpu fpv4-sp-d16
 2905              	mbedtls_pk_parse_key:
 2906              	.LVL343:
 2907              	.LFB26:
1158:D:/fchai/work/i-cube/I-CUBE-HUAWEI/Middlewares/Third_Party/Huawei/iot_link/network/dtls/mbedtls/mbedtls-2.16.2/library\pkparse.c **** #endif /* MBEDTLS_PKCS12_C || MBEDTLS_PKCS5_C */
1159:D:/fchai/work/i-cube/I-CUBE-HUAWEI/Middlewares/Third_Party/Huawei/iot_link/network/dtls/mbedtls/mbedtls-2.16.2/library\pkparse.c **** 
1160:D:/fchai/work/i-cube/I-CUBE-HUAWEI/Middlewares/Third_Party/Huawei/iot_link/network/dtls/mbedtls/mbedtls-2.16.2/library\pkparse.c **** /*
1161:D:/fchai/work/i-cube/I-CUBE-HUAWEI/Middlewares/Third_Party/Huawei/iot_link/network/dtls/mbedtls/mbedtls-2.16.2/library\pkparse.c ****  * Parse a private key
1162:D:/fchai/work/i-cube/I-CUBE-HUAWEI/Middlewares/Third_Party/Huawei/iot_link/network/dtls/mbedtls/mbedtls-2.16.2/library\pkparse.c ****  */
1163:D:/fchai/work/i-cube/I-CUBE-HUAWEI/Middlewares/Third_Party/Huawei/iot_link/network/dtls/mbedtls/mbedtls-2.16.2/library\pkparse.c **** int mbedtls_pk_parse_key( mbedtls_pk_context *pk,
1164:D:/fchai/work/i-cube/I-CUBE-HUAWEI/Middlewares/Third_Party/Huawei/iot_link/network/dtls/mbedtls/mbedtls-2.16.2/library\pkparse.c ****                   const unsigned char *key, size_t keylen,
1165:D:/fchai/work/i-cube/I-CUBE-HUAWEI/Middlewares/Third_Party/Huawei/iot_link/network/dtls/mbedtls/mbedtls-2.16.2/library\pkparse.c ****                   const unsigned char *pwd, size_t pwdlen )
1166:D:/fchai/work/i-cube/I-CUBE-HUAWEI/Middlewares/Third_Party/Huawei/iot_link/network/dtls/mbedtls/mbedtls-2.16.2/library\pkparse.c **** {
 2908              		.loc 1 1166 1 is_stmt 1 view -0
 2909              		.cfi_startproc
 2910              		@ args = 4, pretend = 0, frame = 16
 2911              		@ frame_needed = 0, uses_anonymous_args = 0
1167:D:/fchai/work/i-cube/I-CUBE-HUAWEI/Middlewares/Third_Party/Huawei/iot_link/network/dtls/mbedtls/mbedtls-2.16.2/library\pkparse.c ****     int ret;
 2912              		.loc 1 1167 5 view .LVU887
1168:D:/fchai/work/i-cube/I-CUBE-HUAWEI/Middlewares/Third_Party/Huawei/iot_link/network/dtls/mbedtls/mbedtls-2.16.2/library\pkparse.c ****     const mbedtls_pk_info_t *pk_info;
 2913              		.loc 1 1168 5 view .LVU888
1169:D:/fchai/work/i-cube/I-CUBE-HUAWEI/Middlewares/Third_Party/Huawei/iot_link/network/dtls/mbedtls/mbedtls-2.16.2/library\pkparse.c **** #if defined(MBEDTLS_PEM_PARSE_C)
1170:D:/fchai/work/i-cube/I-CUBE-HUAWEI/Middlewares/Third_Party/Huawei/iot_link/network/dtls/mbedtls/mbedtls-2.16.2/library\pkparse.c ****     size_t len;
 2914              		.loc 1 1170 5 view .LVU889
1171:D:/fchai/work/i-cube/I-CUBE-HUAWEI/Middlewares/Third_Party/Huawei/iot_link/network/dtls/mbedtls/mbedtls-2.16.2/library\pkparse.c ****     mbedtls_pem_context pem;
 2915              		.loc 1 1171 5 view .LVU890
1172:D:/fchai/work/i-cube/I-CUBE-HUAWEI/Middlewares/Third_Party/Huawei/iot_link/network/dtls/mbedtls/mbedtls-2.16.2/library\pkparse.c **** #endif
1173:D:/fchai/work/i-cube/I-CUBE-HUAWEI/Middlewares/Third_Party/Huawei/iot_link/network/dtls/mbedtls/mbedtls-2.16.2/library\pkparse.c **** 
1174:D:/fchai/work/i-cube/I-CUBE-HUAWEI/Middlewares/Third_Party/Huawei/iot_link/network/dtls/mbedtls/mbedtls-2.16.2/library\pkparse.c ****     PK_VALIDATE_RET( pk != NULL );
 2916              		.loc 1 1174 5 view .LVU891
 2917              		.loc 1 1174 5 view .LVU892
 2918              		.loc 1 1174 5 view .LVU893
ARM GAS  T:\msys\tmp\cc83OHoG.s 			page 90


1175:D:/fchai/work/i-cube/I-CUBE-HUAWEI/Middlewares/Third_Party/Huawei/iot_link/network/dtls/mbedtls/mbedtls-2.16.2/library\pkparse.c ****     if( keylen == 0 )
 2919              		.loc 1 1175 5 view .LVU894
1166:D:/fchai/work/i-cube/I-CUBE-HUAWEI/Middlewares/Third_Party/Huawei/iot_link/network/dtls/mbedtls/mbedtls-2.16.2/library\pkparse.c ****     int ret;
 2920              		.loc 1 1166 1 is_stmt 0 view .LVU895
 2921 0000 2DE9F047 		push	{r4, r5, r6, r7, r8, r9, r10, lr}
 2922              	.LCFI44:
 2923              		.cfi_def_cfa_offset 32
 2924              		.cfi_offset 4, -32
 2925              		.cfi_offset 5, -28
 2926              		.cfi_offset 6, -24
 2927              		.cfi_offset 7, -20
 2928              		.cfi_offset 8, -16
 2929              		.cfi_offset 9, -12
 2930              		.cfi_offset 10, -8
 2931              		.cfi_offset 14, -4
 2932 0004 88B0     		sub	sp, sp, #32
 2933              	.LCFI45:
 2934              		.cfi_def_cfa_offset 64
 2935              		.loc 1 1175 7 view .LVU896
 2936 0006 002A     		cmp	r2, #0
 2937 0008 00F0FC80 		beq	.L257
1176:D:/fchai/work/i-cube/I-CUBE-HUAWEI/Middlewares/Third_Party/Huawei/iot_link/network/dtls/mbedtls/mbedtls-2.16.2/library\pkparse.c ****         return( MBEDTLS_ERR_PK_KEY_INVALID_FORMAT );
1177:D:/fchai/work/i-cube/I-CUBE-HUAWEI/Middlewares/Third_Party/Huawei/iot_link/network/dtls/mbedtls/mbedtls-2.16.2/library\pkparse.c ****     PK_VALIDATE_RET( key != NULL );
 2938              		.loc 1 1177 5 is_stmt 1 view .LVU897
 2939              		.loc 1 1177 5 view .LVU898
 2940              		.loc 1 1177 5 view .LVU899
1178:D:/fchai/work/i-cube/I-CUBE-HUAWEI/Middlewares/Third_Party/Huawei/iot_link/network/dtls/mbedtls/mbedtls-2.16.2/library\pkparse.c **** 
1179:D:/fchai/work/i-cube/I-CUBE-HUAWEI/Middlewares/Third_Party/Huawei/iot_link/network/dtls/mbedtls/mbedtls-2.16.2/library\pkparse.c **** #if defined(MBEDTLS_PEM_PARSE_C)
1180:D:/fchai/work/i-cube/I-CUBE-HUAWEI/Middlewares/Third_Party/Huawei/iot_link/network/dtls/mbedtls/mbedtls-2.16.2/library\pkparse.c ****    mbedtls_pem_init( &pem );
 2941              		.loc 1 1180 4 view .LVU900
 2942 000c 0F46     		mov	r7, r1
1181:D:/fchai/work/i-cube/I-CUBE-HUAWEI/Middlewares/Third_Party/Huawei/iot_link/network/dtls/mbedtls/mbedtls-2.16.2/library\pkparse.c **** 
1182:D:/fchai/work/i-cube/I-CUBE-HUAWEI/Middlewares/Third_Party/Huawei/iot_link/network/dtls/mbedtls/mbedtls-2.16.2/library\pkparse.c **** #if defined(MBEDTLS_RSA_C)
1183:D:/fchai/work/i-cube/I-CUBE-HUAWEI/Middlewares/Third_Party/Huawei/iot_link/network/dtls/mbedtls/mbedtls-2.16.2/library\pkparse.c ****     /* Avoid calling mbedtls_pem_read_buffer() on non-null-terminated string */
1184:D:/fchai/work/i-cube/I-CUBE-HUAWEI/Middlewares/Third_Party/Huawei/iot_link/network/dtls/mbedtls/mbedtls-2.16.2/library\pkparse.c ****     if( key[keylen - 1] != '\0' )
 2943              		.loc 1 1184 12 is_stmt 0 view .LVU901
 2944 000e 02F1FF3A 		add	r10, r2, #-1
 2945 0012 8146     		mov	r9, r0
1180:D:/fchai/work/i-cube/I-CUBE-HUAWEI/Middlewares/Third_Party/Huawei/iot_link/network/dtls/mbedtls/mbedtls-2.16.2/library\pkparse.c **** 
 2946              		.loc 1 1180 4 view .LVU902
 2947 0014 05A8     		add	r0, sp, #20
 2948              	.LVL344:
1180:D:/fchai/work/i-cube/I-CUBE-HUAWEI/Middlewares/Third_Party/Huawei/iot_link/network/dtls/mbedtls/mbedtls-2.16.2/library\pkparse.c **** 
 2949              		.loc 1 1180 4 view .LVU903
 2950 0016 9846     		mov	r8, r3
 2951 0018 1546     		mov	r5, r2
 2952 001a FFF7FEFF 		bl	mbedtls_pem_init
 2953              	.LVL345:
 2954              		.loc 1 1184 5 is_stmt 1 view .LVU904
 2955              		.loc 1 1184 7 is_stmt 0 view .LVU905
 2956 001e 17F80A30 		ldrb	r3, [r7, r10]	@ zero_extendqisi2
 2957 0022 002B     		cmp	r3, #0
 2958 0024 5FD0     		beq	.L292
 2959              	.L247:
1185:D:/fchai/work/i-cube/I-CUBE-HUAWEI/Middlewares/Third_Party/Huawei/iot_link/network/dtls/mbedtls/mbedtls-2.16.2/library\pkparse.c ****         ret = MBEDTLS_ERR_PEM_NO_HEADER_FOOTER_PRESENT;
1186:D:/fchai/work/i-cube/I-CUBE-HUAWEI/Middlewares/Third_Party/Huawei/iot_link/network/dtls/mbedtls/mbedtls-2.16.2/library\pkparse.c ****     else
1187:D:/fchai/work/i-cube/I-CUBE-HUAWEI/Middlewares/Third_Party/Huawei/iot_link/network/dtls/mbedtls/mbedtls-2.16.2/library\pkparse.c ****         ret = mbedtls_pem_read_buffer( &pem,
ARM GAS  T:\msys\tmp\cc83OHoG.s 			page 91


1188:D:/fchai/work/i-cube/I-CUBE-HUAWEI/Middlewares/Third_Party/Huawei/iot_link/network/dtls/mbedtls/mbedtls-2.16.2/library\pkparse.c ****                                "-----BEGIN RSA PRIVATE KEY-----",
1189:D:/fchai/work/i-cube/I-CUBE-HUAWEI/Middlewares/Third_Party/Huawei/iot_link/network/dtls/mbedtls/mbedtls-2.16.2/library\pkparse.c ****                                "-----END RSA PRIVATE KEY-----",
1190:D:/fchai/work/i-cube/I-CUBE-HUAWEI/Middlewares/Third_Party/Huawei/iot_link/network/dtls/mbedtls/mbedtls-2.16.2/library\pkparse.c ****                                key, pwd, pwdlen, &len );
1191:D:/fchai/work/i-cube/I-CUBE-HUAWEI/Middlewares/Third_Party/Huawei/iot_link/network/dtls/mbedtls/mbedtls-2.16.2/library\pkparse.c **** 
1192:D:/fchai/work/i-cube/I-CUBE-HUAWEI/Middlewares/Third_Party/Huawei/iot_link/network/dtls/mbedtls/mbedtls-2.16.2/library\pkparse.c ****     if( ret == 0 )
1193:D:/fchai/work/i-cube/I-CUBE-HUAWEI/Middlewares/Third_Party/Huawei/iot_link/network/dtls/mbedtls/mbedtls-2.16.2/library\pkparse.c ****     {
1194:D:/fchai/work/i-cube/I-CUBE-HUAWEI/Middlewares/Third_Party/Huawei/iot_link/network/dtls/mbedtls/mbedtls-2.16.2/library\pkparse.c ****         pk_info = mbedtls_pk_info_from_type( MBEDTLS_PK_RSA );
1195:D:/fchai/work/i-cube/I-CUBE-HUAWEI/Middlewares/Third_Party/Huawei/iot_link/network/dtls/mbedtls/mbedtls-2.16.2/library\pkparse.c ****         if( ( ret = mbedtls_pk_setup( pk, pk_info ) ) != 0 ||
1196:D:/fchai/work/i-cube/I-CUBE-HUAWEI/Middlewares/Third_Party/Huawei/iot_link/network/dtls/mbedtls/mbedtls-2.16.2/library\pkparse.c ****             ( ret = pk_parse_key_pkcs1_der( mbedtls_pk_rsa( *pk ),
1197:D:/fchai/work/i-cube/I-CUBE-HUAWEI/Middlewares/Third_Party/Huawei/iot_link/network/dtls/mbedtls/mbedtls-2.16.2/library\pkparse.c ****                                             pem.buf, pem.buflen ) ) != 0 )
1198:D:/fchai/work/i-cube/I-CUBE-HUAWEI/Middlewares/Third_Party/Huawei/iot_link/network/dtls/mbedtls/mbedtls-2.16.2/library\pkparse.c ****         {
1199:D:/fchai/work/i-cube/I-CUBE-HUAWEI/Middlewares/Third_Party/Huawei/iot_link/network/dtls/mbedtls/mbedtls-2.16.2/library\pkparse.c ****             mbedtls_pk_free( pk );
1200:D:/fchai/work/i-cube/I-CUBE-HUAWEI/Middlewares/Third_Party/Huawei/iot_link/network/dtls/mbedtls/mbedtls-2.16.2/library\pkparse.c ****         }
1201:D:/fchai/work/i-cube/I-CUBE-HUAWEI/Middlewares/Third_Party/Huawei/iot_link/network/dtls/mbedtls/mbedtls-2.16.2/library\pkparse.c **** 
1202:D:/fchai/work/i-cube/I-CUBE-HUAWEI/Middlewares/Third_Party/Huawei/iot_link/network/dtls/mbedtls/mbedtls-2.16.2/library\pkparse.c ****         mbedtls_pem_free( &pem );
1203:D:/fchai/work/i-cube/I-CUBE-HUAWEI/Middlewares/Third_Party/Huawei/iot_link/network/dtls/mbedtls/mbedtls-2.16.2/library\pkparse.c ****         return( ret );
1204:D:/fchai/work/i-cube/I-CUBE-HUAWEI/Middlewares/Third_Party/Huawei/iot_link/network/dtls/mbedtls/mbedtls-2.16.2/library\pkparse.c ****     }
1205:D:/fchai/work/i-cube/I-CUBE-HUAWEI/Middlewares/Third_Party/Huawei/iot_link/network/dtls/mbedtls/mbedtls-2.16.2/library\pkparse.c ****     else if( ret == MBEDTLS_ERR_PEM_PASSWORD_MISMATCH )
1206:D:/fchai/work/i-cube/I-CUBE-HUAWEI/Middlewares/Third_Party/Huawei/iot_link/network/dtls/mbedtls/mbedtls-2.16.2/library\pkparse.c ****         return( MBEDTLS_ERR_PK_PASSWORD_MISMATCH );
1207:D:/fchai/work/i-cube/I-CUBE-HUAWEI/Middlewares/Third_Party/Huawei/iot_link/network/dtls/mbedtls/mbedtls-2.16.2/library\pkparse.c ****     else if( ret == MBEDTLS_ERR_PEM_PASSWORD_REQUIRED )
1208:D:/fchai/work/i-cube/I-CUBE-HUAWEI/Middlewares/Third_Party/Huawei/iot_link/network/dtls/mbedtls/mbedtls-2.16.2/library\pkparse.c ****         return( MBEDTLS_ERR_PK_PASSWORD_REQUIRED );
1209:D:/fchai/work/i-cube/I-CUBE-HUAWEI/Middlewares/Third_Party/Huawei/iot_link/network/dtls/mbedtls/mbedtls-2.16.2/library\pkparse.c ****     else if( ret != MBEDTLS_ERR_PEM_NO_HEADER_FOOTER_PRESENT )
1210:D:/fchai/work/i-cube/I-CUBE-HUAWEI/Middlewares/Third_Party/Huawei/iot_link/network/dtls/mbedtls/mbedtls-2.16.2/library\pkparse.c ****         return( ret );
1211:D:/fchai/work/i-cube/I-CUBE-HUAWEI/Middlewares/Third_Party/Huawei/iot_link/network/dtls/mbedtls/mbedtls-2.16.2/library\pkparse.c **** #endif /* MBEDTLS_RSA_C */
1212:D:/fchai/work/i-cube/I-CUBE-HUAWEI/Middlewares/Third_Party/Huawei/iot_link/network/dtls/mbedtls/mbedtls-2.16.2/library\pkparse.c **** 
1213:D:/fchai/work/i-cube/I-CUBE-HUAWEI/Middlewares/Third_Party/Huawei/iot_link/network/dtls/mbedtls/mbedtls-2.16.2/library\pkparse.c **** #if defined(MBEDTLS_ECP_C)
1214:D:/fchai/work/i-cube/I-CUBE-HUAWEI/Middlewares/Third_Party/Huawei/iot_link/network/dtls/mbedtls/mbedtls-2.16.2/library\pkparse.c ****     /* Avoid calling mbedtls_pem_read_buffer() on non-null-terminated string */
1215:D:/fchai/work/i-cube/I-CUBE-HUAWEI/Middlewares/Third_Party/Huawei/iot_link/network/dtls/mbedtls/mbedtls-2.16.2/library\pkparse.c ****     if( key[keylen - 1] != '\0' )
1216:D:/fchai/work/i-cube/I-CUBE-HUAWEI/Middlewares/Third_Party/Huawei/iot_link/network/dtls/mbedtls/mbedtls-2.16.2/library\pkparse.c ****         ret = MBEDTLS_ERR_PEM_NO_HEADER_FOOTER_PRESENT;
1217:D:/fchai/work/i-cube/I-CUBE-HUAWEI/Middlewares/Third_Party/Huawei/iot_link/network/dtls/mbedtls/mbedtls-2.16.2/library\pkparse.c ****     else
1218:D:/fchai/work/i-cube/I-CUBE-HUAWEI/Middlewares/Third_Party/Huawei/iot_link/network/dtls/mbedtls/mbedtls-2.16.2/library\pkparse.c ****         ret = mbedtls_pem_read_buffer( &pem,
1219:D:/fchai/work/i-cube/I-CUBE-HUAWEI/Middlewares/Third_Party/Huawei/iot_link/network/dtls/mbedtls/mbedtls-2.16.2/library\pkparse.c ****                                "-----BEGIN EC PRIVATE KEY-----",
1220:D:/fchai/work/i-cube/I-CUBE-HUAWEI/Middlewares/Third_Party/Huawei/iot_link/network/dtls/mbedtls/mbedtls-2.16.2/library\pkparse.c ****                                "-----END EC PRIVATE KEY-----",
1221:D:/fchai/work/i-cube/I-CUBE-HUAWEI/Middlewares/Third_Party/Huawei/iot_link/network/dtls/mbedtls/mbedtls-2.16.2/library\pkparse.c ****                                key, pwd, pwdlen, &len );
1222:D:/fchai/work/i-cube/I-CUBE-HUAWEI/Middlewares/Third_Party/Huawei/iot_link/network/dtls/mbedtls/mbedtls-2.16.2/library\pkparse.c ****     if( ret == 0 )
1223:D:/fchai/work/i-cube/I-CUBE-HUAWEI/Middlewares/Third_Party/Huawei/iot_link/network/dtls/mbedtls/mbedtls-2.16.2/library\pkparse.c ****     {
1224:D:/fchai/work/i-cube/I-CUBE-HUAWEI/Middlewares/Third_Party/Huawei/iot_link/network/dtls/mbedtls/mbedtls-2.16.2/library\pkparse.c ****         pk_info = mbedtls_pk_info_from_type( MBEDTLS_PK_ECKEY );
1225:D:/fchai/work/i-cube/I-CUBE-HUAWEI/Middlewares/Third_Party/Huawei/iot_link/network/dtls/mbedtls/mbedtls-2.16.2/library\pkparse.c **** 
1226:D:/fchai/work/i-cube/I-CUBE-HUAWEI/Middlewares/Third_Party/Huawei/iot_link/network/dtls/mbedtls/mbedtls-2.16.2/library\pkparse.c ****         if( ( ret = mbedtls_pk_setup( pk, pk_info ) ) != 0 ||
1227:D:/fchai/work/i-cube/I-CUBE-HUAWEI/Middlewares/Third_Party/Huawei/iot_link/network/dtls/mbedtls/mbedtls-2.16.2/library\pkparse.c ****             ( ret = pk_parse_key_sec1_der( mbedtls_pk_ec( *pk ),
1228:D:/fchai/work/i-cube/I-CUBE-HUAWEI/Middlewares/Third_Party/Huawei/iot_link/network/dtls/mbedtls/mbedtls-2.16.2/library\pkparse.c ****                                            pem.buf, pem.buflen ) ) != 0 )
1229:D:/fchai/work/i-cube/I-CUBE-HUAWEI/Middlewares/Third_Party/Huawei/iot_link/network/dtls/mbedtls/mbedtls-2.16.2/library\pkparse.c ****         {
1230:D:/fchai/work/i-cube/I-CUBE-HUAWEI/Middlewares/Third_Party/Huawei/iot_link/network/dtls/mbedtls/mbedtls-2.16.2/library\pkparse.c ****             mbedtls_pk_free( pk );
1231:D:/fchai/work/i-cube/I-CUBE-HUAWEI/Middlewares/Third_Party/Huawei/iot_link/network/dtls/mbedtls/mbedtls-2.16.2/library\pkparse.c ****         }
1232:D:/fchai/work/i-cube/I-CUBE-HUAWEI/Middlewares/Third_Party/Huawei/iot_link/network/dtls/mbedtls/mbedtls-2.16.2/library\pkparse.c **** 
1233:D:/fchai/work/i-cube/I-CUBE-HUAWEI/Middlewares/Third_Party/Huawei/iot_link/network/dtls/mbedtls/mbedtls-2.16.2/library\pkparse.c ****         mbedtls_pem_free( &pem );
1234:D:/fchai/work/i-cube/I-CUBE-HUAWEI/Middlewares/Third_Party/Huawei/iot_link/network/dtls/mbedtls/mbedtls-2.16.2/library\pkparse.c ****         return( ret );
1235:D:/fchai/work/i-cube/I-CUBE-HUAWEI/Middlewares/Third_Party/Huawei/iot_link/network/dtls/mbedtls/mbedtls-2.16.2/library\pkparse.c ****     }
1236:D:/fchai/work/i-cube/I-CUBE-HUAWEI/Middlewares/Third_Party/Huawei/iot_link/network/dtls/mbedtls/mbedtls-2.16.2/library\pkparse.c ****     else if( ret == MBEDTLS_ERR_PEM_PASSWORD_MISMATCH )
1237:D:/fchai/work/i-cube/I-CUBE-HUAWEI/Middlewares/Third_Party/Huawei/iot_link/network/dtls/mbedtls/mbedtls-2.16.2/library\pkparse.c ****         return( MBEDTLS_ERR_PK_PASSWORD_MISMATCH );
1238:D:/fchai/work/i-cube/I-CUBE-HUAWEI/Middlewares/Third_Party/Huawei/iot_link/network/dtls/mbedtls/mbedtls-2.16.2/library\pkparse.c ****     else if( ret == MBEDTLS_ERR_PEM_PASSWORD_REQUIRED )
1239:D:/fchai/work/i-cube/I-CUBE-HUAWEI/Middlewares/Third_Party/Huawei/iot_link/network/dtls/mbedtls/mbedtls-2.16.2/library\pkparse.c ****         return( MBEDTLS_ERR_PK_PASSWORD_REQUIRED );
1240:D:/fchai/work/i-cube/I-CUBE-HUAWEI/Middlewares/Third_Party/Huawei/iot_link/network/dtls/mbedtls/mbedtls-2.16.2/library\pkparse.c ****     else if( ret != MBEDTLS_ERR_PEM_NO_HEADER_FOOTER_PRESENT )
1241:D:/fchai/work/i-cube/I-CUBE-HUAWEI/Middlewares/Third_Party/Huawei/iot_link/network/dtls/mbedtls/mbedtls-2.16.2/library\pkparse.c ****         return( ret );
1242:D:/fchai/work/i-cube/I-CUBE-HUAWEI/Middlewares/Third_Party/Huawei/iot_link/network/dtls/mbedtls/mbedtls-2.16.2/library\pkparse.c **** #endif /* MBEDTLS_ECP_C */
1243:D:/fchai/work/i-cube/I-CUBE-HUAWEI/Middlewares/Third_Party/Huawei/iot_link/network/dtls/mbedtls/mbedtls-2.16.2/library\pkparse.c **** 
1244:D:/fchai/work/i-cube/I-CUBE-HUAWEI/Middlewares/Third_Party/Huawei/iot_link/network/dtls/mbedtls/mbedtls-2.16.2/library\pkparse.c ****     /* Avoid calling mbedtls_pem_read_buffer() on non-null-terminated string */
ARM GAS  T:\msys\tmp\cc83OHoG.s 			page 92


1245:D:/fchai/work/i-cube/I-CUBE-HUAWEI/Middlewares/Third_Party/Huawei/iot_link/network/dtls/mbedtls/mbedtls-2.16.2/library\pkparse.c ****     if( key[keylen - 1] != '\0' )
1246:D:/fchai/work/i-cube/I-CUBE-HUAWEI/Middlewares/Third_Party/Huawei/iot_link/network/dtls/mbedtls/mbedtls-2.16.2/library\pkparse.c ****         ret = MBEDTLS_ERR_PEM_NO_HEADER_FOOTER_PRESENT;
1247:D:/fchai/work/i-cube/I-CUBE-HUAWEI/Middlewares/Third_Party/Huawei/iot_link/network/dtls/mbedtls/mbedtls-2.16.2/library\pkparse.c ****     else
1248:D:/fchai/work/i-cube/I-CUBE-HUAWEI/Middlewares/Third_Party/Huawei/iot_link/network/dtls/mbedtls/mbedtls-2.16.2/library\pkparse.c ****         ret = mbedtls_pem_read_buffer( &pem,
1249:D:/fchai/work/i-cube/I-CUBE-HUAWEI/Middlewares/Third_Party/Huawei/iot_link/network/dtls/mbedtls/mbedtls-2.16.2/library\pkparse.c ****                                "-----BEGIN PRIVATE KEY-----",
1250:D:/fchai/work/i-cube/I-CUBE-HUAWEI/Middlewares/Third_Party/Huawei/iot_link/network/dtls/mbedtls/mbedtls-2.16.2/library\pkparse.c ****                                "-----END PRIVATE KEY-----",
1251:D:/fchai/work/i-cube/I-CUBE-HUAWEI/Middlewares/Third_Party/Huawei/iot_link/network/dtls/mbedtls/mbedtls-2.16.2/library\pkparse.c ****                                key, NULL, 0, &len );
1252:D:/fchai/work/i-cube/I-CUBE-HUAWEI/Middlewares/Third_Party/Huawei/iot_link/network/dtls/mbedtls/mbedtls-2.16.2/library\pkparse.c ****     if( ret == 0 )
1253:D:/fchai/work/i-cube/I-CUBE-HUAWEI/Middlewares/Third_Party/Huawei/iot_link/network/dtls/mbedtls/mbedtls-2.16.2/library\pkparse.c ****     {
1254:D:/fchai/work/i-cube/I-CUBE-HUAWEI/Middlewares/Third_Party/Huawei/iot_link/network/dtls/mbedtls/mbedtls-2.16.2/library\pkparse.c ****         if( ( ret = pk_parse_key_pkcs8_unencrypted_der( pk,
1255:D:/fchai/work/i-cube/I-CUBE-HUAWEI/Middlewares/Third_Party/Huawei/iot_link/network/dtls/mbedtls/mbedtls-2.16.2/library\pkparse.c ****                                                 pem.buf, pem.buflen ) ) != 0 )
1256:D:/fchai/work/i-cube/I-CUBE-HUAWEI/Middlewares/Third_Party/Huawei/iot_link/network/dtls/mbedtls/mbedtls-2.16.2/library\pkparse.c ****         {
1257:D:/fchai/work/i-cube/I-CUBE-HUAWEI/Middlewares/Third_Party/Huawei/iot_link/network/dtls/mbedtls/mbedtls-2.16.2/library\pkparse.c ****             mbedtls_pk_free( pk );
1258:D:/fchai/work/i-cube/I-CUBE-HUAWEI/Middlewares/Third_Party/Huawei/iot_link/network/dtls/mbedtls/mbedtls-2.16.2/library\pkparse.c ****         }
1259:D:/fchai/work/i-cube/I-CUBE-HUAWEI/Middlewares/Third_Party/Huawei/iot_link/network/dtls/mbedtls/mbedtls-2.16.2/library\pkparse.c **** 
1260:D:/fchai/work/i-cube/I-CUBE-HUAWEI/Middlewares/Third_Party/Huawei/iot_link/network/dtls/mbedtls/mbedtls-2.16.2/library\pkparse.c ****         mbedtls_pem_free( &pem );
1261:D:/fchai/work/i-cube/I-CUBE-HUAWEI/Middlewares/Third_Party/Huawei/iot_link/network/dtls/mbedtls/mbedtls-2.16.2/library\pkparse.c ****         return( ret );
1262:D:/fchai/work/i-cube/I-CUBE-HUAWEI/Middlewares/Third_Party/Huawei/iot_link/network/dtls/mbedtls/mbedtls-2.16.2/library\pkparse.c ****     }
1263:D:/fchai/work/i-cube/I-CUBE-HUAWEI/Middlewares/Third_Party/Huawei/iot_link/network/dtls/mbedtls/mbedtls-2.16.2/library\pkparse.c ****     else if( ret != MBEDTLS_ERR_PEM_NO_HEADER_FOOTER_PRESENT )
1264:D:/fchai/work/i-cube/I-CUBE-HUAWEI/Middlewares/Third_Party/Huawei/iot_link/network/dtls/mbedtls/mbedtls-2.16.2/library\pkparse.c ****         return( ret );
1265:D:/fchai/work/i-cube/I-CUBE-HUAWEI/Middlewares/Third_Party/Huawei/iot_link/network/dtls/mbedtls/mbedtls-2.16.2/library\pkparse.c **** 
1266:D:/fchai/work/i-cube/I-CUBE-HUAWEI/Middlewares/Third_Party/Huawei/iot_link/network/dtls/mbedtls/mbedtls-2.16.2/library\pkparse.c **** #if defined(MBEDTLS_PKCS12_C) || defined(MBEDTLS_PKCS5_C)
1267:D:/fchai/work/i-cube/I-CUBE-HUAWEI/Middlewares/Third_Party/Huawei/iot_link/network/dtls/mbedtls/mbedtls-2.16.2/library\pkparse.c ****     /* Avoid calling mbedtls_pem_read_buffer() on non-null-terminated string */
1268:D:/fchai/work/i-cube/I-CUBE-HUAWEI/Middlewares/Third_Party/Huawei/iot_link/network/dtls/mbedtls/mbedtls-2.16.2/library\pkparse.c ****     if( key[keylen - 1] != '\0' )
 2960              		.loc 1 1268 5 is_stmt 1 view .LVU906
 2961              	.LBB99:
1269:D:/fchai/work/i-cube/I-CUBE-HUAWEI/Middlewares/Third_Party/Huawei/iot_link/network/dtls/mbedtls/mbedtls-2.16.2/library\pkparse.c ****         ret = MBEDTLS_ERR_PEM_NO_HEADER_FOOTER_PRESENT;
1270:D:/fchai/work/i-cube/I-CUBE-HUAWEI/Middlewares/Third_Party/Huawei/iot_link/network/dtls/mbedtls/mbedtls-2.16.2/library\pkparse.c ****     else
1271:D:/fchai/work/i-cube/I-CUBE-HUAWEI/Middlewares/Third_Party/Huawei/iot_link/network/dtls/mbedtls/mbedtls-2.16.2/library\pkparse.c ****         ret = mbedtls_pem_read_buffer( &pem,
1272:D:/fchai/work/i-cube/I-CUBE-HUAWEI/Middlewares/Third_Party/Huawei/iot_link/network/dtls/mbedtls/mbedtls-2.16.2/library\pkparse.c ****                                "-----BEGIN ENCRYPTED PRIVATE KEY-----",
1273:D:/fchai/work/i-cube/I-CUBE-HUAWEI/Middlewares/Third_Party/Huawei/iot_link/network/dtls/mbedtls/mbedtls-2.16.2/library\pkparse.c ****                                "-----END ENCRYPTED PRIVATE KEY-----",
1274:D:/fchai/work/i-cube/I-CUBE-HUAWEI/Middlewares/Third_Party/Huawei/iot_link/network/dtls/mbedtls/mbedtls-2.16.2/library\pkparse.c ****                                key, NULL, 0, &len );
1275:D:/fchai/work/i-cube/I-CUBE-HUAWEI/Middlewares/Third_Party/Huawei/iot_link/network/dtls/mbedtls/mbedtls-2.16.2/library\pkparse.c ****     if( ret == 0 )
1276:D:/fchai/work/i-cube/I-CUBE-HUAWEI/Middlewares/Third_Party/Huawei/iot_link/network/dtls/mbedtls/mbedtls-2.16.2/library\pkparse.c ****     {
1277:D:/fchai/work/i-cube/I-CUBE-HUAWEI/Middlewares/Third_Party/Huawei/iot_link/network/dtls/mbedtls/mbedtls-2.16.2/library\pkparse.c ****         if( ( ret = pk_parse_key_pkcs8_encrypted_der( pk,
1278:D:/fchai/work/i-cube/I-CUBE-HUAWEI/Middlewares/Third_Party/Huawei/iot_link/network/dtls/mbedtls/mbedtls-2.16.2/library\pkparse.c ****                                                       pem.buf, pem.buflen,
1279:D:/fchai/work/i-cube/I-CUBE-HUAWEI/Middlewares/Third_Party/Huawei/iot_link/network/dtls/mbedtls/mbedtls-2.16.2/library\pkparse.c ****                                                       pwd, pwdlen ) ) != 0 )
1280:D:/fchai/work/i-cube/I-CUBE-HUAWEI/Middlewares/Third_Party/Huawei/iot_link/network/dtls/mbedtls/mbedtls-2.16.2/library\pkparse.c ****         {
1281:D:/fchai/work/i-cube/I-CUBE-HUAWEI/Middlewares/Third_Party/Huawei/iot_link/network/dtls/mbedtls/mbedtls-2.16.2/library\pkparse.c ****             mbedtls_pk_free( pk );
1282:D:/fchai/work/i-cube/I-CUBE-HUAWEI/Middlewares/Third_Party/Huawei/iot_link/network/dtls/mbedtls/mbedtls-2.16.2/library\pkparse.c ****         }
1283:D:/fchai/work/i-cube/I-CUBE-HUAWEI/Middlewares/Third_Party/Huawei/iot_link/network/dtls/mbedtls/mbedtls-2.16.2/library\pkparse.c **** 
1284:D:/fchai/work/i-cube/I-CUBE-HUAWEI/Middlewares/Third_Party/Huawei/iot_link/network/dtls/mbedtls/mbedtls-2.16.2/library\pkparse.c ****         mbedtls_pem_free( &pem );
1285:D:/fchai/work/i-cube/I-CUBE-HUAWEI/Middlewares/Third_Party/Huawei/iot_link/network/dtls/mbedtls/mbedtls-2.16.2/library\pkparse.c ****         return( ret );
1286:D:/fchai/work/i-cube/I-CUBE-HUAWEI/Middlewares/Third_Party/Huawei/iot_link/network/dtls/mbedtls/mbedtls-2.16.2/library\pkparse.c ****     }
1287:D:/fchai/work/i-cube/I-CUBE-HUAWEI/Middlewares/Third_Party/Huawei/iot_link/network/dtls/mbedtls/mbedtls-2.16.2/library\pkparse.c ****     else if( ret != MBEDTLS_ERR_PEM_NO_HEADER_FOOTER_PRESENT )
1288:D:/fchai/work/i-cube/I-CUBE-HUAWEI/Middlewares/Third_Party/Huawei/iot_link/network/dtls/mbedtls/mbedtls-2.16.2/library\pkparse.c ****         return( ret );
1289:D:/fchai/work/i-cube/I-CUBE-HUAWEI/Middlewares/Third_Party/Huawei/iot_link/network/dtls/mbedtls/mbedtls-2.16.2/library\pkparse.c **** #endif /* MBEDTLS_PKCS12_C || MBEDTLS_PKCS5_C */
1290:D:/fchai/work/i-cube/I-CUBE-HUAWEI/Middlewares/Third_Party/Huawei/iot_link/network/dtls/mbedtls/mbedtls-2.16.2/library\pkparse.c **** #else
1291:D:/fchai/work/i-cube/I-CUBE-HUAWEI/Middlewares/Third_Party/Huawei/iot_link/network/dtls/mbedtls/mbedtls-2.16.2/library\pkparse.c ****     ((void) pwd);
1292:D:/fchai/work/i-cube/I-CUBE-HUAWEI/Middlewares/Third_Party/Huawei/iot_link/network/dtls/mbedtls/mbedtls-2.16.2/library\pkparse.c ****     ((void) pwdlen);
1293:D:/fchai/work/i-cube/I-CUBE-HUAWEI/Middlewares/Third_Party/Huawei/iot_link/network/dtls/mbedtls/mbedtls-2.16.2/library\pkparse.c **** #endif /* MBEDTLS_PEM_PARSE_C */
1294:D:/fchai/work/i-cube/I-CUBE-HUAWEI/Middlewares/Third_Party/Huawei/iot_link/network/dtls/mbedtls/mbedtls-2.16.2/library\pkparse.c **** 
1295:D:/fchai/work/i-cube/I-CUBE-HUAWEI/Middlewares/Third_Party/Huawei/iot_link/network/dtls/mbedtls/mbedtls-2.16.2/library\pkparse.c ****     /*
1296:D:/fchai/work/i-cube/I-CUBE-HUAWEI/Middlewares/Third_Party/Huawei/iot_link/network/dtls/mbedtls/mbedtls-2.16.2/library\pkparse.c ****      * At this point we only know it's not a PEM formatted key. Could be any
1297:D:/fchai/work/i-cube/I-CUBE-HUAWEI/Middlewares/Third_Party/Huawei/iot_link/network/dtls/mbedtls/mbedtls-2.16.2/library\pkparse.c ****      * of the known DER encoded private key formats
1298:D:/fchai/work/i-cube/I-CUBE-HUAWEI/Middlewares/Third_Party/Huawei/iot_link/network/dtls/mbedtls/mbedtls-2.16.2/library\pkparse.c ****      *
1299:D:/fchai/work/i-cube/I-CUBE-HUAWEI/Middlewares/Third_Party/Huawei/iot_link/network/dtls/mbedtls/mbedtls-2.16.2/library\pkparse.c ****      * We try the different DER format parsers to see if one passes without
ARM GAS  T:\msys\tmp\cc83OHoG.s 			page 93


1300:D:/fchai/work/i-cube/I-CUBE-HUAWEI/Middlewares/Third_Party/Huawei/iot_link/network/dtls/mbedtls/mbedtls-2.16.2/library\pkparse.c ****      * error
1301:D:/fchai/work/i-cube/I-CUBE-HUAWEI/Middlewares/Third_Party/Huawei/iot_link/network/dtls/mbedtls/mbedtls-2.16.2/library\pkparse.c ****      */
1302:D:/fchai/work/i-cube/I-CUBE-HUAWEI/Middlewares/Third_Party/Huawei/iot_link/network/dtls/mbedtls/mbedtls-2.16.2/library\pkparse.c **** #if defined(MBEDTLS_PKCS12_C) || defined(MBEDTLS_PKCS5_C)
1303:D:/fchai/work/i-cube/I-CUBE-HUAWEI/Middlewares/Third_Party/Huawei/iot_link/network/dtls/mbedtls/mbedtls-2.16.2/library\pkparse.c ****     {
1304:D:/fchai/work/i-cube/I-CUBE-HUAWEI/Middlewares/Third_Party/Huawei/iot_link/network/dtls/mbedtls/mbedtls-2.16.2/library\pkparse.c ****         unsigned char *key_copy;
 2962              		.loc 1 1304 9 view .LVU907
1305:D:/fchai/work/i-cube/I-CUBE-HUAWEI/Middlewares/Third_Party/Huawei/iot_link/network/dtls/mbedtls/mbedtls-2.16.2/library\pkparse.c **** 
1306:D:/fchai/work/i-cube/I-CUBE-HUAWEI/Middlewares/Third_Party/Huawei/iot_link/network/dtls/mbedtls/mbedtls-2.16.2/library\pkparse.c ****         if( ( key_copy = mbedtls_calloc( 1, keylen ) ) == NULL )
 2963              		.loc 1 1306 9 view .LVU908
 2964              		.loc 1 1306 26 is_stmt 0 view .LVU909
 2965 0026 2946     		mov	r1, r5
 2966 0028 0120     		movs	r0, #1
 2967 002a FFF7FEFF 		bl	mbedtls_calloc
 2968              	.LVL346:
 2969              		.loc 1 1306 11 view .LVU910
 2970 002e 0446     		mov	r4, r0
 2971 0030 0028     		cmp	r0, #0
 2972 0032 00F0D180 		beq	.L293
1307:D:/fchai/work/i-cube/I-CUBE-HUAWEI/Middlewares/Third_Party/Huawei/iot_link/network/dtls/mbedtls/mbedtls-2.16.2/library\pkparse.c ****             return( MBEDTLS_ERR_PK_ALLOC_FAILED );
1308:D:/fchai/work/i-cube/I-CUBE-HUAWEI/Middlewares/Third_Party/Huawei/iot_link/network/dtls/mbedtls/mbedtls-2.16.2/library\pkparse.c **** 
1309:D:/fchai/work/i-cube/I-CUBE-HUAWEI/Middlewares/Third_Party/Huawei/iot_link/network/dtls/mbedtls/mbedtls-2.16.2/library\pkparse.c ****         memcpy( key_copy, key, keylen );
 2973              		.loc 1 1309 9 is_stmt 1 view .LVU911
 2974 0036 2A46     		mov	r2, r5
 2975 0038 3946     		mov	r1, r7
 2976 003a FFF7FEFF 		bl	memcpy
 2977              	.LVL347:
1310:D:/fchai/work/i-cube/I-CUBE-HUAWEI/Middlewares/Third_Party/Huawei/iot_link/network/dtls/mbedtls/mbedtls-2.16.2/library\pkparse.c **** 
1311:D:/fchai/work/i-cube/I-CUBE-HUAWEI/Middlewares/Third_Party/Huawei/iot_link/network/dtls/mbedtls/mbedtls-2.16.2/library\pkparse.c ****         ret = pk_parse_key_pkcs8_encrypted_der( pk, key_copy, keylen,
 2978              		.loc 1 1311 9 view .LVU912
 2979              		.loc 1 1311 15 is_stmt 0 view .LVU913
 2980 003e 109B     		ldr	r3, [sp, #64]
 2981 0040 0093     		str	r3, [sp]
 2982 0042 2A46     		mov	r2, r5
 2983 0044 4346     		mov	r3, r8
 2984 0046 2146     		mov	r1, r4
 2985 0048 4846     		mov	r0, r9
 2986 004a FFF7FEFF 		bl	pk_parse_key_pkcs8_encrypted_der
 2987              	.LVL348:
1312:D:/fchai/work/i-cube/I-CUBE-HUAWEI/Middlewares/Third_Party/Huawei/iot_link/network/dtls/mbedtls/mbedtls-2.16.2/library\pkparse.c ****                                                 pwd, pwdlen );
1313:D:/fchai/work/i-cube/I-CUBE-HUAWEI/Middlewares/Third_Party/Huawei/iot_link/network/dtls/mbedtls/mbedtls-2.16.2/library\pkparse.c **** 
1314:D:/fchai/work/i-cube/I-CUBE-HUAWEI/Middlewares/Third_Party/Huawei/iot_link/network/dtls/mbedtls/mbedtls-2.16.2/library\pkparse.c ****         mbedtls_platform_zeroize( key_copy, keylen );
 2988              		.loc 1 1314 9 view .LVU914
 2989 004e 2946     		mov	r1, r5
1311:D:/fchai/work/i-cube/I-CUBE-HUAWEI/Middlewares/Third_Party/Huawei/iot_link/network/dtls/mbedtls/mbedtls-2.16.2/library\pkparse.c ****                                                 pwd, pwdlen );
 2990              		.loc 1 1311 15 view .LVU915
 2991 0050 0646     		mov	r6, r0
 2992              		.loc 1 1314 9 view .LVU916
 2993 0052 2046     		mov	r0, r4
 2994              	.LVL349:
 2995              		.loc 1 1314 9 is_stmt 1 view .LVU917
 2996 0054 FFF7FEFF 		bl	mbedtls_platform_zeroize
 2997              	.LVL350:
1315:D:/fchai/work/i-cube/I-CUBE-HUAWEI/Middlewares/Third_Party/Huawei/iot_link/network/dtls/mbedtls/mbedtls-2.16.2/library\pkparse.c ****         mbedtls_free( key_copy );
 2998              		.loc 1 1315 9 view .LVU918
 2999 0058 2046     		mov	r0, r4
 3000 005a FFF7FEFF 		bl	mbedtls_free
 3001              	.LVL351:
ARM GAS  T:\msys\tmp\cc83OHoG.s 			page 94


 3002              	.LBE99:
1316:D:/fchai/work/i-cube/I-CUBE-HUAWEI/Middlewares/Third_Party/Huawei/iot_link/network/dtls/mbedtls/mbedtls-2.16.2/library\pkparse.c ****     }
1317:D:/fchai/work/i-cube/I-CUBE-HUAWEI/Middlewares/Third_Party/Huawei/iot_link/network/dtls/mbedtls/mbedtls-2.16.2/library\pkparse.c **** 
1318:D:/fchai/work/i-cube/I-CUBE-HUAWEI/Middlewares/Third_Party/Huawei/iot_link/network/dtls/mbedtls/mbedtls-2.16.2/library\pkparse.c ****     if( ret == 0 )
 3003              		.loc 1 1318 5 view .LVU919
 3004              		.loc 1 1318 7 is_stmt 0 view .LVU920
 3005 005e EEB3     		cbz	r6, .L251
1319:D:/fchai/work/i-cube/I-CUBE-HUAWEI/Middlewares/Third_Party/Huawei/iot_link/network/dtls/mbedtls/mbedtls-2.16.2/library\pkparse.c ****         return( 0 );
1320:D:/fchai/work/i-cube/I-CUBE-HUAWEI/Middlewares/Third_Party/Huawei/iot_link/network/dtls/mbedtls/mbedtls-2.16.2/library\pkparse.c **** 
1321:D:/fchai/work/i-cube/I-CUBE-HUAWEI/Middlewares/Third_Party/Huawei/iot_link/network/dtls/mbedtls/mbedtls-2.16.2/library\pkparse.c ****     mbedtls_pk_free( pk );
 3006              		.loc 1 1321 5 is_stmt 1 view .LVU921
 3007 0060 4846     		mov	r0, r9
 3008 0062 FFF7FEFF 		bl	mbedtls_pk_free
 3009              	.LVL352:
1322:D:/fchai/work/i-cube/I-CUBE-HUAWEI/Middlewares/Third_Party/Huawei/iot_link/network/dtls/mbedtls/mbedtls-2.16.2/library\pkparse.c ****     mbedtls_pk_init( pk );
 3010              		.loc 1 1322 5 view .LVU922
 3011 0066 4846     		mov	r0, r9
 3012 0068 FFF7FEFF 		bl	mbedtls_pk_init
 3013              	.LVL353:
1323:D:/fchai/work/i-cube/I-CUBE-HUAWEI/Middlewares/Third_Party/Huawei/iot_link/network/dtls/mbedtls/mbedtls-2.16.2/library\pkparse.c **** 
1324:D:/fchai/work/i-cube/I-CUBE-HUAWEI/Middlewares/Third_Party/Huawei/iot_link/network/dtls/mbedtls/mbedtls-2.16.2/library\pkparse.c ****     if( ret == MBEDTLS_ERR_PK_PASSWORD_MISMATCH )
 3014              		.loc 1 1324 5 view .LVU923
 3015              		.loc 1 1324 7 is_stmt 0 view .LVU924
 3016 006c 16F56E5F 		cmn	r6, #15232
 3017 0070 00F0DF80 		beq	.L242
1325:D:/fchai/work/i-cube/I-CUBE-HUAWEI/Middlewares/Third_Party/Huawei/iot_link/network/dtls/mbedtls/mbedtls-2.16.2/library\pkparse.c ****     {
1326:D:/fchai/work/i-cube/I-CUBE-HUAWEI/Middlewares/Third_Party/Huawei/iot_link/network/dtls/mbedtls/mbedtls-2.16.2/library\pkparse.c ****         return( ret );
1327:D:/fchai/work/i-cube/I-CUBE-HUAWEI/Middlewares/Third_Party/Huawei/iot_link/network/dtls/mbedtls/mbedtls-2.16.2/library\pkparse.c ****     }
1328:D:/fchai/work/i-cube/I-CUBE-HUAWEI/Middlewares/Third_Party/Huawei/iot_link/network/dtls/mbedtls/mbedtls-2.16.2/library\pkparse.c **** #endif /* MBEDTLS_PKCS12_C || MBEDTLS_PKCS5_C */
1329:D:/fchai/work/i-cube/I-CUBE-HUAWEI/Middlewares/Third_Party/Huawei/iot_link/network/dtls/mbedtls/mbedtls-2.16.2/library\pkparse.c **** 
1330:D:/fchai/work/i-cube/I-CUBE-HUAWEI/Middlewares/Third_Party/Huawei/iot_link/network/dtls/mbedtls/mbedtls-2.16.2/library\pkparse.c ****     if( ( ret = pk_parse_key_pkcs8_unencrypted_der( pk, key, keylen ) ) == 0 )
 3018              		.loc 1 1330 5 is_stmt 1 view .LVU925
 3019              		.loc 1 1330 17 is_stmt 0 view .LVU926
 3020 0074 2A46     		mov	r2, r5
 3021 0076 3946     		mov	r1, r7
 3022 0078 4846     		mov	r0, r9
 3023 007a FFF7FEFF 		bl	pk_parse_key_pkcs8_unencrypted_der
 3024              	.LVL354:
 3025              		.loc 1 1330 7 view .LVU927
 3026 007e 68B3     		cbz	r0, .L251
1331:D:/fchai/work/i-cube/I-CUBE-HUAWEI/Middlewares/Third_Party/Huawei/iot_link/network/dtls/mbedtls/mbedtls-2.16.2/library\pkparse.c ****         return( 0 );
1332:D:/fchai/work/i-cube/I-CUBE-HUAWEI/Middlewares/Third_Party/Huawei/iot_link/network/dtls/mbedtls/mbedtls-2.16.2/library\pkparse.c **** 
1333:D:/fchai/work/i-cube/I-CUBE-HUAWEI/Middlewares/Third_Party/Huawei/iot_link/network/dtls/mbedtls/mbedtls-2.16.2/library\pkparse.c ****     mbedtls_pk_free( pk );
 3027              		.loc 1 1333 5 is_stmt 1 view .LVU928
 3028 0080 4846     		mov	r0, r9
 3029              	.LVL355:
 3030              		.loc 1 1333 5 is_stmt 0 view .LVU929
 3031 0082 FFF7FEFF 		bl	mbedtls_pk_free
 3032              	.LVL356:
1334:D:/fchai/work/i-cube/I-CUBE-HUAWEI/Middlewares/Third_Party/Huawei/iot_link/network/dtls/mbedtls/mbedtls-2.16.2/library\pkparse.c ****     mbedtls_pk_init( pk );
 3033              		.loc 1 1334 5 is_stmt 1 view .LVU930
 3034 0086 4846     		mov	r0, r9
 3035 0088 FFF7FEFF 		bl	mbedtls_pk_init
 3036              	.LVL357:
1335:D:/fchai/work/i-cube/I-CUBE-HUAWEI/Middlewares/Third_Party/Huawei/iot_link/network/dtls/mbedtls/mbedtls-2.16.2/library\pkparse.c **** 
1336:D:/fchai/work/i-cube/I-CUBE-HUAWEI/Middlewares/Third_Party/Huawei/iot_link/network/dtls/mbedtls/mbedtls-2.16.2/library\pkparse.c **** #if defined(MBEDTLS_RSA_C)
1337:D:/fchai/work/i-cube/I-CUBE-HUAWEI/Middlewares/Third_Party/Huawei/iot_link/network/dtls/mbedtls/mbedtls-2.16.2/library\pkparse.c **** 
ARM GAS  T:\msys\tmp\cc83OHoG.s 			page 95


1338:D:/fchai/work/i-cube/I-CUBE-HUAWEI/Middlewares/Third_Party/Huawei/iot_link/network/dtls/mbedtls/mbedtls-2.16.2/library\pkparse.c ****     pk_info = mbedtls_pk_info_from_type( MBEDTLS_PK_RSA );
 3037              		.loc 1 1338 5 view .LVU931
 3038              		.loc 1 1338 15 is_stmt 0 view .LVU932
 3039 008c 0120     		movs	r0, #1
 3040 008e FFF7FEFF 		bl	mbedtls_pk_info_from_type
 3041              	.LVL358:
 3042 0092 0146     		mov	r1, r0
 3043              	.LVL359:
1339:D:/fchai/work/i-cube/I-CUBE-HUAWEI/Middlewares/Third_Party/Huawei/iot_link/network/dtls/mbedtls/mbedtls-2.16.2/library\pkparse.c ****     if( mbedtls_pk_setup( pk, pk_info ) == 0 &&
 3044              		.loc 1 1339 5 is_stmt 1 view .LVU933
 3045              		.loc 1 1339 9 is_stmt 0 view .LVU934
 3046 0094 4846     		mov	r0, r9
 3047              	.LVL360:
 3048              		.loc 1 1339 9 view .LVU935
 3049 0096 FFF7FEFF 		bl	mbedtls_pk_setup
 3050              	.LVL361:
 3051              		.loc 1 1339 7 view .LVU936
 3052 009a 30B9     		cbnz	r0, .L255
 159:D:/fchai/work/i-cube/I-CUBE-HUAWEI/Middlewares/Third_Party/Huawei/iot_link/network/dtls/mbedtls/mbedtls-2.16.2/include/mbedtls\pk.h **** }
 3053              		.loc 2 159 5 is_stmt 1 discriminator 1 view .LVU937
1340:D:/fchai/work/i-cube/I-CUBE-HUAWEI/Middlewares/Third_Party/Huawei/iot_link/network/dtls/mbedtls/mbedtls-2.16.2/library\pkparse.c ****         pk_parse_key_pkcs1_der( mbedtls_pk_rsa( *pk ), key, keylen ) == 0 )
 3054              		.loc 1 1340 9 is_stmt 0 discriminator 1 view .LVU938
 3055 009c D9F80400 		ldr	r0, [r9, #4]
 3056 00a0 2A46     		mov	r2, r5
 3057 00a2 3946     		mov	r1, r7
 3058 00a4 FFF7FEFF 		bl	pk_parse_key_pkcs1_der
 3059              	.LVL362:
1339:D:/fchai/work/i-cube/I-CUBE-HUAWEI/Middlewares/Third_Party/Huawei/iot_link/network/dtls/mbedtls/mbedtls-2.16.2/library\pkparse.c ****     if( mbedtls_pk_setup( pk, pk_info ) == 0 &&
 3060              		.loc 1 1339 46 discriminator 1 view .LVU939
 3061 00a8 C0B1     		cbz	r0, .L251
 3062              	.L255:
1341:D:/fchai/work/i-cube/I-CUBE-HUAWEI/Middlewares/Third_Party/Huawei/iot_link/network/dtls/mbedtls/mbedtls-2.16.2/library\pkparse.c ****     {
1342:D:/fchai/work/i-cube/I-CUBE-HUAWEI/Middlewares/Third_Party/Huawei/iot_link/network/dtls/mbedtls/mbedtls-2.16.2/library\pkparse.c ****         return( 0 );
1343:D:/fchai/work/i-cube/I-CUBE-HUAWEI/Middlewares/Third_Party/Huawei/iot_link/network/dtls/mbedtls/mbedtls-2.16.2/library\pkparse.c ****     }
1344:D:/fchai/work/i-cube/I-CUBE-HUAWEI/Middlewares/Third_Party/Huawei/iot_link/network/dtls/mbedtls/mbedtls-2.16.2/library\pkparse.c **** 
1345:D:/fchai/work/i-cube/I-CUBE-HUAWEI/Middlewares/Third_Party/Huawei/iot_link/network/dtls/mbedtls/mbedtls-2.16.2/library\pkparse.c ****     mbedtls_pk_free( pk );
 3063              		.loc 1 1345 5 is_stmt 1 view .LVU940
 3064 00aa 4846     		mov	r0, r9
 3065 00ac FFF7FEFF 		bl	mbedtls_pk_free
 3066              	.LVL363:
1346:D:/fchai/work/i-cube/I-CUBE-HUAWEI/Middlewares/Third_Party/Huawei/iot_link/network/dtls/mbedtls/mbedtls-2.16.2/library\pkparse.c ****     mbedtls_pk_init( pk );
 3067              		.loc 1 1346 5 view .LVU941
 3068 00b0 4846     		mov	r0, r9
 3069 00b2 FFF7FEFF 		bl	mbedtls_pk_init
 3070              	.LVL364:
1347:D:/fchai/work/i-cube/I-CUBE-HUAWEI/Middlewares/Third_Party/Huawei/iot_link/network/dtls/mbedtls/mbedtls-2.16.2/library\pkparse.c **** #endif /* MBEDTLS_RSA_C */
1348:D:/fchai/work/i-cube/I-CUBE-HUAWEI/Middlewares/Third_Party/Huawei/iot_link/network/dtls/mbedtls/mbedtls-2.16.2/library\pkparse.c **** 
1349:D:/fchai/work/i-cube/I-CUBE-HUAWEI/Middlewares/Third_Party/Huawei/iot_link/network/dtls/mbedtls/mbedtls-2.16.2/library\pkparse.c **** #if defined(MBEDTLS_ECP_C)
1350:D:/fchai/work/i-cube/I-CUBE-HUAWEI/Middlewares/Third_Party/Huawei/iot_link/network/dtls/mbedtls/mbedtls-2.16.2/library\pkparse.c ****     pk_info = mbedtls_pk_info_from_type( MBEDTLS_PK_ECKEY );
 3071              		.loc 1 1350 5 view .LVU942
 3072              		.loc 1 1350 15 is_stmt 0 view .LVU943
 3073 00b6 0220     		movs	r0, #2
 3074 00b8 FFF7FEFF 		bl	mbedtls_pk_info_from_type
 3075              	.LVL365:
 3076 00bc 0146     		mov	r1, r0
 3077              	.LVL366:
1351:D:/fchai/work/i-cube/I-CUBE-HUAWEI/Middlewares/Third_Party/Huawei/iot_link/network/dtls/mbedtls/mbedtls-2.16.2/library\pkparse.c ****     if( mbedtls_pk_setup( pk, pk_info ) == 0 &&
ARM GAS  T:\msys\tmp\cc83OHoG.s 			page 96


 3078              		.loc 1 1351 5 is_stmt 1 view .LVU944
 3079              		.loc 1 1351 9 is_stmt 0 view .LVU945
 3080 00be 4846     		mov	r0, r9
 3081              	.LVL367:
 3082              		.loc 1 1351 9 view .LVU946
 3083 00c0 FFF7FEFF 		bl	mbedtls_pk_setup
 3084              	.LVL368:
 3085              		.loc 1 1351 7 view .LVU947
 3086 00c4 0028     		cmp	r0, #0
 3087 00c6 40F0B880 		bne	.L254
 3088              		.loc 2 172 5 is_stmt 1 discriminator 1 view .LVU948
1352:D:/fchai/work/i-cube/I-CUBE-HUAWEI/Middlewares/Third_Party/Huawei/iot_link/network/dtls/mbedtls/mbedtls-2.16.2/library\pkparse.c ****         pk_parse_key_sec1_der( mbedtls_pk_ec( *pk ),
 3089              		.loc 1 1352 9 is_stmt 0 discriminator 1 view .LVU949
 3090 00ca D9F80400 		ldr	r0, [r9, #4]
 3091 00ce 2A46     		mov	r2, r5
 3092 00d0 3946     		mov	r1, r7
 3093 00d2 FFF7FEFF 		bl	pk_parse_key_sec1_der
 3094              	.LVL369:
1351:D:/fchai/work/i-cube/I-CUBE-HUAWEI/Middlewares/Third_Party/Huawei/iot_link/network/dtls/mbedtls/mbedtls-2.16.2/library\pkparse.c ****     if( mbedtls_pk_setup( pk, pk_info ) == 0 &&
 3095              		.loc 1 1351 46 discriminator 1 view .LVU950
 3096 00d6 0028     		cmp	r0, #0
 3097 00d8 40F0AF80 		bne	.L254
 3098              	.L251:
1319:D:/fchai/work/i-cube/I-CUBE-HUAWEI/Middlewares/Third_Party/Huawei/iot_link/network/dtls/mbedtls/mbedtls-2.16.2/library\pkparse.c **** 
 3099              		.loc 1 1319 15 view .LVU951
 3100 00dc 0024     		movs	r4, #0
 3101              	.LVL370:
 3102              	.L231:
1353:D:/fchai/work/i-cube/I-CUBE-HUAWEI/Middlewares/Third_Party/Huawei/iot_link/network/dtls/mbedtls/mbedtls-2.16.2/library\pkparse.c ****                                key, keylen ) == 0 )
1354:D:/fchai/work/i-cube/I-CUBE-HUAWEI/Middlewares/Third_Party/Huawei/iot_link/network/dtls/mbedtls/mbedtls-2.16.2/library\pkparse.c ****     {
1355:D:/fchai/work/i-cube/I-CUBE-HUAWEI/Middlewares/Third_Party/Huawei/iot_link/network/dtls/mbedtls/mbedtls-2.16.2/library\pkparse.c ****         return( 0 );
1356:D:/fchai/work/i-cube/I-CUBE-HUAWEI/Middlewares/Third_Party/Huawei/iot_link/network/dtls/mbedtls/mbedtls-2.16.2/library\pkparse.c ****     }
1357:D:/fchai/work/i-cube/I-CUBE-HUAWEI/Middlewares/Third_Party/Huawei/iot_link/network/dtls/mbedtls/mbedtls-2.16.2/library\pkparse.c ****     mbedtls_pk_free( pk );
1358:D:/fchai/work/i-cube/I-CUBE-HUAWEI/Middlewares/Third_Party/Huawei/iot_link/network/dtls/mbedtls/mbedtls-2.16.2/library\pkparse.c **** #endif /* MBEDTLS_ECP_C */
1359:D:/fchai/work/i-cube/I-CUBE-HUAWEI/Middlewares/Third_Party/Huawei/iot_link/network/dtls/mbedtls/mbedtls-2.16.2/library\pkparse.c **** 
1360:D:/fchai/work/i-cube/I-CUBE-HUAWEI/Middlewares/Third_Party/Huawei/iot_link/network/dtls/mbedtls/mbedtls-2.16.2/library\pkparse.c ****     /* If MBEDTLS_RSA_C is defined but MBEDTLS_ECP_C isn't,
1361:D:/fchai/work/i-cube/I-CUBE-HUAWEI/Middlewares/Third_Party/Huawei/iot_link/network/dtls/mbedtls/mbedtls-2.16.2/library\pkparse.c ****      * it is ok to leave the PK context initialized but not
1362:D:/fchai/work/i-cube/I-CUBE-HUAWEI/Middlewares/Third_Party/Huawei/iot_link/network/dtls/mbedtls/mbedtls-2.16.2/library\pkparse.c ****      * freed: It is the caller's responsibility to call pk_init()
1363:D:/fchai/work/i-cube/I-CUBE-HUAWEI/Middlewares/Third_Party/Huawei/iot_link/network/dtls/mbedtls/mbedtls-2.16.2/library\pkparse.c ****      * before calling this function, and to call pk_free()
1364:D:/fchai/work/i-cube/I-CUBE-HUAWEI/Middlewares/Third_Party/Huawei/iot_link/network/dtls/mbedtls/mbedtls-2.16.2/library\pkparse.c ****      * when it fails. If MBEDTLS_ECP_C is defined but MBEDTLS_RSA_C
1365:D:/fchai/work/i-cube/I-CUBE-HUAWEI/Middlewares/Third_Party/Huawei/iot_link/network/dtls/mbedtls/mbedtls-2.16.2/library\pkparse.c ****      * isn't, this leads to mbedtls_pk_free() being called
1366:D:/fchai/work/i-cube/I-CUBE-HUAWEI/Middlewares/Third_Party/Huawei/iot_link/network/dtls/mbedtls/mbedtls-2.16.2/library\pkparse.c ****      * twice, once here and once by the caller, but this is
1367:D:/fchai/work/i-cube/I-CUBE-HUAWEI/Middlewares/Third_Party/Huawei/iot_link/network/dtls/mbedtls/mbedtls-2.16.2/library\pkparse.c ****      * also ok and in line with the mbedtls_pk_free() calls
1368:D:/fchai/work/i-cube/I-CUBE-HUAWEI/Middlewares/Third_Party/Huawei/iot_link/network/dtls/mbedtls/mbedtls-2.16.2/library\pkparse.c ****      * on failed PEM parsing attempts. */
1369:D:/fchai/work/i-cube/I-CUBE-HUAWEI/Middlewares/Third_Party/Huawei/iot_link/network/dtls/mbedtls/mbedtls-2.16.2/library\pkparse.c **** 
1370:D:/fchai/work/i-cube/I-CUBE-HUAWEI/Middlewares/Third_Party/Huawei/iot_link/network/dtls/mbedtls/mbedtls-2.16.2/library\pkparse.c ****     return( MBEDTLS_ERR_PK_KEY_INVALID_FORMAT );
1371:D:/fchai/work/i-cube/I-CUBE-HUAWEI/Middlewares/Third_Party/Huawei/iot_link/network/dtls/mbedtls/mbedtls-2.16.2/library\pkparse.c **** }
 3103              		.loc 1 1371 1 view .LVU952
 3104 00de 2046     		mov	r0, r4
 3105 00e0 08B0     		add	sp, sp, #32
 3106              	.LCFI46:
 3107              		.cfi_remember_state
 3108              		.cfi_def_cfa_offset 32
 3109              		@ sp needed
 3110 00e2 BDE8F087 		pop	{r4, r5, r6, r7, r8, r9, r10, pc}
 3111              	.LVL371:
 3112              	.L292:
ARM GAS  T:\msys\tmp\cc83OHoG.s 			page 97


 3113              	.LCFI47:
 3114              		.cfi_restore_state
1187:D:/fchai/work/i-cube/I-CUBE-HUAWEI/Middlewares/Third_Party/Huawei/iot_link/network/dtls/mbedtls/mbedtls-2.16.2/library\pkparse.c ****                                "-----BEGIN RSA PRIVATE KEY-----",
 3115              		.loc 1 1187 9 is_stmt 1 view .LVU953
1187:D:/fchai/work/i-cube/I-CUBE-HUAWEI/Middlewares/Third_Party/Huawei/iot_link/network/dtls/mbedtls/mbedtls-2.16.2/library\pkparse.c ****                                "-----BEGIN RSA PRIVATE KEY-----",
 3116              		.loc 1 1187 15 is_stmt 0 view .LVU954
 3117 00e6 109B     		ldr	r3, [sp, #64]
 3118 00e8 564A     		ldr	r2, .L299
 3119 00ea 5749     		ldr	r1, .L299+4
 3120 00ec 04AE     		add	r6, sp, #16
 3121 00ee CDE90083 		strd	r8, r3, [sp]
 3122 00f2 0296     		str	r6, [sp, #8]
 3123 00f4 3B46     		mov	r3, r7
 3124 00f6 05A8     		add	r0, sp, #20
 3125 00f8 FFF7FEFF 		bl	mbedtls_pem_read_buffer
 3126              	.LVL372:
1192:D:/fchai/work/i-cube/I-CUBE-HUAWEI/Middlewares/Third_Party/Huawei/iot_link/network/dtls/mbedtls/mbedtls-2.16.2/library\pkparse.c ****     {
 3127              		.loc 1 1192 5 is_stmt 1 view .LVU955
1192:D:/fchai/work/i-cube/I-CUBE-HUAWEI/Middlewares/Third_Party/Huawei/iot_link/network/dtls/mbedtls/mbedtls-2.16.2/library\pkparse.c ****     {
 3128              		.loc 1 1192 7 is_stmt 0 view .LVU956
 3129 00fc 0446     		mov	r4, r0
 3130 00fe 0028     		cmp	r0, #0
 3131 0100 4DD0     		beq	.L294
 3132              	.LVL373:
1205:D:/fchai/work/i-cube/I-CUBE-HUAWEI/Middlewares/Third_Party/Huawei/iot_link/network/dtls/mbedtls/mbedtls-2.16.2/library\pkparse.c ****         return( MBEDTLS_ERR_PK_PASSWORD_MISMATCH );
 3133              		.loc 1 1205 10 is_stmt 1 view .LVU957
1205:D:/fchai/work/i-cube/I-CUBE-HUAWEI/Middlewares/Third_Party/Huawei/iot_link/network/dtls/mbedtls/mbedtls-2.16.2/library\pkparse.c ****         return( MBEDTLS_ERR_PK_PASSWORD_MISMATCH );
 3134              		.loc 1 1205 12 is_stmt 0 view .LVU958
 3135 0102 10F59C5F 		cmn	r0, #4992
 3136 0106 00F09480 		beq	.L242
1207:D:/fchai/work/i-cube/I-CUBE-HUAWEI/Middlewares/Third_Party/Huawei/iot_link/network/dtls/mbedtls/mbedtls-2.16.2/library\pkparse.c ****         return( MBEDTLS_ERR_PK_PASSWORD_REQUIRED );
 3137              		.loc 1 1207 10 is_stmt 1 view .LVU959
1207:D:/fchai/work/i-cube/I-CUBE-HUAWEI/Middlewares/Third_Party/Huawei/iot_link/network/dtls/mbedtls/mbedtls-2.16.2/library\pkparse.c ****         return( MBEDTLS_ERR_PK_PASSWORD_REQUIRED );
 3138              		.loc 1 1207 12 is_stmt 0 view .LVU960
 3139 010a 10F5985F 		cmn	r0, #4864
 3140 010e 00F09280 		beq	.L243
1209:D:/fchai/work/i-cube/I-CUBE-HUAWEI/Middlewares/Third_Party/Huawei/iot_link/network/dtls/mbedtls/mbedtls-2.16.2/library\pkparse.c ****         return( ret );
 3141              		.loc 1 1209 10 is_stmt 1 view .LVU961
1209:D:/fchai/work/i-cube/I-CUBE-HUAWEI/Middlewares/Third_Party/Huawei/iot_link/network/dtls/mbedtls/mbedtls-2.16.2/library\pkparse.c ****         return( ret );
 3142              		.loc 1 1209 12 is_stmt 0 view .LVU962
 3143 0112 10F5845F 		cmn	r0, #4224
 3144 0116 E2D1     		bne	.L231
1215:D:/fchai/work/i-cube/I-CUBE-HUAWEI/Middlewares/Third_Party/Huawei/iot_link/network/dtls/mbedtls/mbedtls-2.16.2/library\pkparse.c ****         ret = MBEDTLS_ERR_PEM_NO_HEADER_FOOTER_PRESENT;
 3145              		.loc 1 1215 5 is_stmt 1 view .LVU963
1215:D:/fchai/work/i-cube/I-CUBE-HUAWEI/Middlewares/Third_Party/Huawei/iot_link/network/dtls/mbedtls/mbedtls-2.16.2/library\pkparse.c ****         ret = MBEDTLS_ERR_PEM_NO_HEADER_FOOTER_PRESENT;
 3146              		.loc 1 1215 7 is_stmt 0 view .LVU964
 3147 0118 17F80A30 		ldrb	r3, [r7, r10]	@ zero_extendqisi2
 3148 011c 002B     		cmp	r3, #0
 3149 011e 82D1     		bne	.L247
1218:D:/fchai/work/i-cube/I-CUBE-HUAWEI/Middlewares/Third_Party/Huawei/iot_link/network/dtls/mbedtls/mbedtls-2.16.2/library\pkparse.c ****                                "-----BEGIN EC PRIVATE KEY-----",
 3150              		.loc 1 1218 9 is_stmt 1 view .LVU965
1218:D:/fchai/work/i-cube/I-CUBE-HUAWEI/Middlewares/Third_Party/Huawei/iot_link/network/dtls/mbedtls/mbedtls-2.16.2/library\pkparse.c ****                                "-----BEGIN EC PRIVATE KEY-----",
 3151              		.loc 1 1218 15 is_stmt 0 view .LVU966
 3152 0120 109B     		ldr	r3, [sp, #64]
 3153 0122 4A4A     		ldr	r2, .L299+8
 3154 0124 4A49     		ldr	r1, .L299+12
 3155 0126 0296     		str	r6, [sp, #8]
ARM GAS  T:\msys\tmp\cc83OHoG.s 			page 98


 3156 0128 CDE90083 		strd	r8, r3, [sp]
 3157 012c 05A8     		add	r0, sp, #20
 3158 012e 3B46     		mov	r3, r7
 3159 0130 FFF7FEFF 		bl	mbedtls_pem_read_buffer
 3160              	.LVL374:
1222:D:/fchai/work/i-cube/I-CUBE-HUAWEI/Middlewares/Third_Party/Huawei/iot_link/network/dtls/mbedtls/mbedtls-2.16.2/library\pkparse.c ****     {
 3161              		.loc 1 1222 5 is_stmt 1 view .LVU967
1222:D:/fchai/work/i-cube/I-CUBE-HUAWEI/Middlewares/Third_Party/Huawei/iot_link/network/dtls/mbedtls/mbedtls-2.16.2/library\pkparse.c ****     {
 3162              		.loc 1 1222 7 is_stmt 0 view .LVU968
 3163 0134 0446     		mov	r4, r0
 3164 0136 0028     		cmp	r0, #0
 3165 0138 50D0     		beq	.L295
 3166              	.LVL375:
1236:D:/fchai/work/i-cube/I-CUBE-HUAWEI/Middlewares/Third_Party/Huawei/iot_link/network/dtls/mbedtls/mbedtls-2.16.2/library\pkparse.c ****         return( MBEDTLS_ERR_PK_PASSWORD_MISMATCH );
 3167              		.loc 1 1236 10 is_stmt 1 view .LVU969
1236:D:/fchai/work/i-cube/I-CUBE-HUAWEI/Middlewares/Third_Party/Huawei/iot_link/network/dtls/mbedtls/mbedtls-2.16.2/library\pkparse.c ****         return( MBEDTLS_ERR_PK_PASSWORD_MISMATCH );
 3168              		.loc 1 1236 12 is_stmt 0 view .LVU970
 3169 013a 10F59C5F 		cmn	r0, #4992
 3170 013e 78D0     		beq	.L242
1238:D:/fchai/work/i-cube/I-CUBE-HUAWEI/Middlewares/Third_Party/Huawei/iot_link/network/dtls/mbedtls/mbedtls-2.16.2/library\pkparse.c ****         return( MBEDTLS_ERR_PK_PASSWORD_REQUIRED );
 3171              		.loc 1 1238 10 is_stmt 1 view .LVU971
1238:D:/fchai/work/i-cube/I-CUBE-HUAWEI/Middlewares/Third_Party/Huawei/iot_link/network/dtls/mbedtls/mbedtls-2.16.2/library\pkparse.c ****         return( MBEDTLS_ERR_PK_PASSWORD_REQUIRED );
 3172              		.loc 1 1238 12 is_stmt 0 view .LVU972
 3173 0140 10F5985F 		cmn	r0, #4864
 3174 0144 77D0     		beq	.L243
1240:D:/fchai/work/i-cube/I-CUBE-HUAWEI/Middlewares/Third_Party/Huawei/iot_link/network/dtls/mbedtls/mbedtls-2.16.2/library\pkparse.c ****         return( ret );
 3175              		.loc 1 1240 10 is_stmt 1 view .LVU973
1240:D:/fchai/work/i-cube/I-CUBE-HUAWEI/Middlewares/Third_Party/Huawei/iot_link/network/dtls/mbedtls/mbedtls-2.16.2/library\pkparse.c ****         return( ret );
 3176              		.loc 1 1240 12 is_stmt 0 view .LVU974
 3177 0146 10F5845F 		cmn	r0, #4224
 3178 014a C8D1     		bne	.L231
1245:D:/fchai/work/i-cube/I-CUBE-HUAWEI/Middlewares/Third_Party/Huawei/iot_link/network/dtls/mbedtls/mbedtls-2.16.2/library\pkparse.c ****         ret = MBEDTLS_ERR_PEM_NO_HEADER_FOOTER_PRESENT;
 3179              		.loc 1 1245 5 is_stmt 1 view .LVU975
1245:D:/fchai/work/i-cube/I-CUBE-HUAWEI/Middlewares/Third_Party/Huawei/iot_link/network/dtls/mbedtls/mbedtls-2.16.2/library\pkparse.c ****         ret = MBEDTLS_ERR_PEM_NO_HEADER_FOOTER_PRESENT;
 3180              		.loc 1 1245 7 is_stmt 0 view .LVU976
 3181 014c 17F80A30 		ldrb	r3, [r7, r10]	@ zero_extendqisi2
 3182 0150 002B     		cmp	r3, #0
 3183 0152 7FF468AF 		bne	.L247
1248:D:/fchai/work/i-cube/I-CUBE-HUAWEI/Middlewares/Third_Party/Huawei/iot_link/network/dtls/mbedtls/mbedtls-2.16.2/library\pkparse.c ****                                "-----BEGIN PRIVATE KEY-----",
 3184              		.loc 1 1248 9 is_stmt 1 view .LVU977
1248:D:/fchai/work/i-cube/I-CUBE-HUAWEI/Middlewares/Third_Party/Huawei/iot_link/network/dtls/mbedtls/mbedtls-2.16.2/library\pkparse.c ****                                "-----BEGIN PRIVATE KEY-----",
 3185              		.loc 1 1248 15 is_stmt 0 view .LVU978
 3186 0156 CDE90136 		strd	r3, r6, [sp, #4]
 3187 015a 0093     		str	r3, [sp]
 3188 015c 3D4A     		ldr	r2, .L299+16
 3189 015e 3E49     		ldr	r1, .L299+20
 3190 0160 3B46     		mov	r3, r7
 3191 0162 05A8     		add	r0, sp, #20
 3192 0164 FFF7FEFF 		bl	mbedtls_pem_read_buffer
 3193              	.LVL376:
1252:D:/fchai/work/i-cube/I-CUBE-HUAWEI/Middlewares/Third_Party/Huawei/iot_link/network/dtls/mbedtls/mbedtls-2.16.2/library\pkparse.c ****     {
 3194              		.loc 1 1252 5 is_stmt 1 view .LVU979
1252:D:/fchai/work/i-cube/I-CUBE-HUAWEI/Middlewares/Third_Party/Huawei/iot_link/network/dtls/mbedtls/mbedtls-2.16.2/library\pkparse.c ****     {
 3195              		.loc 1 1252 7 is_stmt 0 view .LVU980
 3196 0168 0446     		mov	r4, r0
 3197 016a 0028     		cmp	r0, #0
 3198 016c 4CD0     		beq	.L296
ARM GAS  T:\msys\tmp\cc83OHoG.s 			page 99


 3199              	.LVL377:
1263:D:/fchai/work/i-cube/I-CUBE-HUAWEI/Middlewares/Third_Party/Huawei/iot_link/network/dtls/mbedtls/mbedtls-2.16.2/library\pkparse.c ****         return( ret );
 3200              		.loc 1 1263 10 is_stmt 1 view .LVU981
1263:D:/fchai/work/i-cube/I-CUBE-HUAWEI/Middlewares/Third_Party/Huawei/iot_link/network/dtls/mbedtls/mbedtls-2.16.2/library\pkparse.c ****         return( ret );
 3201              		.loc 1 1263 12 is_stmt 0 view .LVU982
 3202 016e 10F5845F 		cmn	r0, #4224
 3203 0172 B4D1     		bne	.L231
1268:D:/fchai/work/i-cube/I-CUBE-HUAWEI/Middlewares/Third_Party/Huawei/iot_link/network/dtls/mbedtls/mbedtls-2.16.2/library\pkparse.c ****         ret = MBEDTLS_ERR_PEM_NO_HEADER_FOOTER_PRESENT;
 3204              		.loc 1 1268 5 is_stmt 1 view .LVU983
1268:D:/fchai/work/i-cube/I-CUBE-HUAWEI/Middlewares/Third_Party/Huawei/iot_link/network/dtls/mbedtls/mbedtls-2.16.2/library\pkparse.c ****         ret = MBEDTLS_ERR_PEM_NO_HEADER_FOOTER_PRESENT;
 3205              		.loc 1 1268 7 is_stmt 0 view .LVU984
 3206 0174 17F80A30 		ldrb	r3, [r7, r10]	@ zero_extendqisi2
 3207 0178 002B     		cmp	r3, #0
 3208 017a 7FF454AF 		bne	.L247
1271:D:/fchai/work/i-cube/I-CUBE-HUAWEI/Middlewares/Third_Party/Huawei/iot_link/network/dtls/mbedtls/mbedtls-2.16.2/library\pkparse.c ****                                "-----BEGIN ENCRYPTED PRIVATE KEY-----",
 3209              		.loc 1 1271 9 is_stmt 1 view .LVU985
1271:D:/fchai/work/i-cube/I-CUBE-HUAWEI/Middlewares/Third_Party/Huawei/iot_link/network/dtls/mbedtls/mbedtls-2.16.2/library\pkparse.c ****                                "-----BEGIN ENCRYPTED PRIVATE KEY-----",
 3210              		.loc 1 1271 15 is_stmt 0 view .LVU986
 3211 017e CDE90136 		strd	r3, r6, [sp, #4]
 3212 0182 0093     		str	r3, [sp]
 3213 0184 354A     		ldr	r2, .L299+24
 3214 0186 3649     		ldr	r1, .L299+28
 3215 0188 3B46     		mov	r3, r7
 3216 018a 05A8     		add	r0, sp, #20
 3217 018c FFF7FEFF 		bl	mbedtls_pem_read_buffer
 3218              	.LVL378:
1275:D:/fchai/work/i-cube/I-CUBE-HUAWEI/Middlewares/Third_Party/Huawei/iot_link/network/dtls/mbedtls/mbedtls-2.16.2/library\pkparse.c ****     {
 3219              		.loc 1 1275 5 is_stmt 1 view .LVU987
1275:D:/fchai/work/i-cube/I-CUBE-HUAWEI/Middlewares/Third_Party/Huawei/iot_link/network/dtls/mbedtls/mbedtls-2.16.2/library\pkparse.c ****     {
 3220              		.loc 1 1275 7 is_stmt 0 view .LVU988
 3221 0190 0446     		mov	r4, r0
 3222 0192 0028     		cmp	r0, #0
 3223 0194 41D0     		beq	.L297
 3224              	.LVL379:
1287:D:/fchai/work/i-cube/I-CUBE-HUAWEI/Middlewares/Third_Party/Huawei/iot_link/network/dtls/mbedtls/mbedtls-2.16.2/library\pkparse.c ****         return( ret );
 3225              		.loc 1 1287 10 is_stmt 1 view .LVU989
1287:D:/fchai/work/i-cube/I-CUBE-HUAWEI/Middlewares/Third_Party/Huawei/iot_link/network/dtls/mbedtls/mbedtls-2.16.2/library\pkparse.c ****         return( ret );
 3226              		.loc 1 1287 12 is_stmt 0 view .LVU990
 3227 0196 10F5845F 		cmn	r0, #4224
 3228 019a A0D1     		bne	.L231
 3229 019c 43E7     		b	.L247
 3230              	.LVL380:
 3231              	.L294:
1194:D:/fchai/work/i-cube/I-CUBE-HUAWEI/Middlewares/Third_Party/Huawei/iot_link/network/dtls/mbedtls/mbedtls-2.16.2/library\pkparse.c ****         if( ( ret = mbedtls_pk_setup( pk, pk_info ) ) != 0 ||
 3232              		.loc 1 1194 9 is_stmt 1 view .LVU991
1194:D:/fchai/work/i-cube/I-CUBE-HUAWEI/Middlewares/Third_Party/Huawei/iot_link/network/dtls/mbedtls/mbedtls-2.16.2/library\pkparse.c ****         if( ( ret = mbedtls_pk_setup( pk, pk_info ) ) != 0 ||
 3233              		.loc 1 1194 19 is_stmt 0 view .LVU992
 3234 019e 0120     		movs	r0, #1
 3235              	.LVL381:
1194:D:/fchai/work/i-cube/I-CUBE-HUAWEI/Middlewares/Third_Party/Huawei/iot_link/network/dtls/mbedtls/mbedtls-2.16.2/library\pkparse.c ****         if( ( ret = mbedtls_pk_setup( pk, pk_info ) ) != 0 ||
 3236              		.loc 1 1194 19 view .LVU993
 3237 01a0 FFF7FEFF 		bl	mbedtls_pk_info_from_type
 3238              	.LVL382:
 3239 01a4 0146     		mov	r1, r0
 3240              	.LVL383:
1195:D:/fchai/work/i-cube/I-CUBE-HUAWEI/Middlewares/Third_Party/Huawei/iot_link/network/dtls/mbedtls/mbedtls-2.16.2/library\pkparse.c ****             ( ret = pk_parse_key_pkcs1_der( mbedtls_pk_rsa( *pk ),
 3241              		.loc 1 1195 9 is_stmt 1 view .LVU994
ARM GAS  T:\msys\tmp\cc83OHoG.s 			page 100


1195:D:/fchai/work/i-cube/I-CUBE-HUAWEI/Middlewares/Third_Party/Huawei/iot_link/network/dtls/mbedtls/mbedtls-2.16.2/library\pkparse.c ****             ( ret = pk_parse_key_pkcs1_der( mbedtls_pk_rsa( *pk ),
 3242              		.loc 1 1195 21 is_stmt 0 view .LVU995
 3243 01a6 4846     		mov	r0, r9
 3244              	.LVL384:
1195:D:/fchai/work/i-cube/I-CUBE-HUAWEI/Middlewares/Third_Party/Huawei/iot_link/network/dtls/mbedtls/mbedtls-2.16.2/library\pkparse.c ****             ( ret = pk_parse_key_pkcs1_der( mbedtls_pk_rsa( *pk ),
 3245              		.loc 1 1195 21 view .LVU996
 3246 01a8 FFF7FEFF 		bl	mbedtls_pk_setup
 3247              	.LVL385:
1195:D:/fchai/work/i-cube/I-CUBE-HUAWEI/Middlewares/Third_Party/Huawei/iot_link/network/dtls/mbedtls/mbedtls-2.16.2/library\pkparse.c ****             ( ret = pk_parse_key_pkcs1_der( mbedtls_pk_rsa( *pk ),
 3248              		.loc 1 1195 11 view .LVU997
 3249 01ac 0446     		mov	r4, r0
 3250 01ae 48B1     		cbz	r0, .L298
 3251              	.L291:
1281:D:/fchai/work/i-cube/I-CUBE-HUAWEI/Middlewares/Third_Party/Huawei/iot_link/network/dtls/mbedtls/mbedtls-2.16.2/library\pkparse.c ****         }
 3252              		.loc 1 1281 13 is_stmt 1 view .LVU998
 3253 01b0 4846     		mov	r0, r9
 3254              	.LVL386:
1281:D:/fchai/work/i-cube/I-CUBE-HUAWEI/Middlewares/Third_Party/Huawei/iot_link/network/dtls/mbedtls/mbedtls-2.16.2/library\pkparse.c ****         }
 3255              		.loc 1 1281 13 is_stmt 0 view .LVU999
 3256 01b2 FFF7FEFF 		bl	mbedtls_pk_free
 3257              	.LVL387:
 3258              	.L249:
1284:D:/fchai/work/i-cube/I-CUBE-HUAWEI/Middlewares/Third_Party/Huawei/iot_link/network/dtls/mbedtls/mbedtls-2.16.2/library\pkparse.c ****         return( ret );
 3259              		.loc 1 1284 9 is_stmt 1 view .LVU1000
 3260 01b6 05A8     		add	r0, sp, #20
 3261 01b8 FFF7FEFF 		bl	mbedtls_pem_free
 3262              	.LVL388:
1285:D:/fchai/work/i-cube/I-CUBE-HUAWEI/Middlewares/Third_Party/Huawei/iot_link/network/dtls/mbedtls/mbedtls-2.16.2/library\pkparse.c ****     }
 3263              		.loc 1 1285 9 view .LVU1001
 3264              		.loc 1 1371 1 is_stmt 0 view .LVU1002
 3265 01bc 2046     		mov	r0, r4
 3266 01be 08B0     		add	sp, sp, #32
 3267              	.LCFI48:
 3268              		.cfi_remember_state
 3269              		.cfi_def_cfa_offset 32
 3270              		@ sp needed
 3271 01c0 BDE8F087 		pop	{r4, r5, r6, r7, r8, r9, r10, pc}
 3272              	.LVL389:
 3273              	.L298:
 3274              	.LCFI49:
 3275              		.cfi_restore_state
 159:D:/fchai/work/i-cube/I-CUBE-HUAWEI/Middlewares/Third_Party/Huawei/iot_link/network/dtls/mbedtls/mbedtls-2.16.2/include/mbedtls\pk.h **** }
 3276              		.loc 2 159 5 is_stmt 1 discriminator 1 view .LVU1003
1196:D:/fchai/work/i-cube/I-CUBE-HUAWEI/Middlewares/Third_Party/Huawei/iot_link/network/dtls/mbedtls/mbedtls-2.16.2/library\pkparse.c ****                                             pem.buf, pem.buflen ) ) != 0 )
 3277              		.loc 1 1196 21 is_stmt 0 discriminator 1 view .LVU1004
 3278 01c4 DDE90512 		ldrd	r1, r2, [sp, #20]
 3279 01c8 D9F80400 		ldr	r0, [r9, #4]
 3280              	.LVL390:
1196:D:/fchai/work/i-cube/I-CUBE-HUAWEI/Middlewares/Third_Party/Huawei/iot_link/network/dtls/mbedtls/mbedtls-2.16.2/library\pkparse.c ****                                             pem.buf, pem.buflen ) ) != 0 )
 3281              		.loc 1 1196 21 discriminator 1 view .LVU1005
 3282 01cc FFF7FEFF 		bl	pk_parse_key_pkcs1_der
 3283              	.LVL391:
1195:D:/fchai/work/i-cube/I-CUBE-HUAWEI/Middlewares/Third_Party/Huawei/iot_link/network/dtls/mbedtls/mbedtls-2.16.2/library\pkparse.c ****             ( ret = pk_parse_key_pkcs1_der( mbedtls_pk_rsa( *pk ),
 3284              		.loc 1 1195 60 discriminator 1 view .LVU1006
 3285 01d0 0446     		mov	r4, r0
 3286 01d2 0028     		cmp	r0, #0
 3287 01d4 EFD0     		beq	.L249
ARM GAS  T:\msys\tmp\cc83OHoG.s 			page 101


 3288 01d6 EBE7     		b	.L291
 3289              	.LVL392:
 3290              	.L293:
 3291              	.LBB100:
1307:D:/fchai/work/i-cube/I-CUBE-HUAWEI/Middlewares/Third_Party/Huawei/iot_link/network/dtls/mbedtls/mbedtls-2.16.2/library\pkparse.c **** 
 3292              		.loc 1 1307 19 view .LVU1007
 3293 01d8 224C     		ldr	r4, .L299+32
 3294 01da 80E7     		b	.L231
 3295              	.LVL393:
 3296              	.L295:
1307:D:/fchai/work/i-cube/I-CUBE-HUAWEI/Middlewares/Third_Party/Huawei/iot_link/network/dtls/mbedtls/mbedtls-2.16.2/library\pkparse.c **** 
 3297              		.loc 1 1307 19 view .LVU1008
 3298              	.LBE100:
1224:D:/fchai/work/i-cube/I-CUBE-HUAWEI/Middlewares/Third_Party/Huawei/iot_link/network/dtls/mbedtls/mbedtls-2.16.2/library\pkparse.c **** 
 3299              		.loc 1 1224 9 is_stmt 1 view .LVU1009
1224:D:/fchai/work/i-cube/I-CUBE-HUAWEI/Middlewares/Third_Party/Huawei/iot_link/network/dtls/mbedtls/mbedtls-2.16.2/library\pkparse.c **** 
 3300              		.loc 1 1224 19 is_stmt 0 view .LVU1010
 3301 01dc 0220     		movs	r0, #2
 3302              	.LVL394:
1224:D:/fchai/work/i-cube/I-CUBE-HUAWEI/Middlewares/Third_Party/Huawei/iot_link/network/dtls/mbedtls/mbedtls-2.16.2/library\pkparse.c **** 
 3303              		.loc 1 1224 19 view .LVU1011
 3304 01de FFF7FEFF 		bl	mbedtls_pk_info_from_type
 3305              	.LVL395:
 3306 01e2 0146     		mov	r1, r0
 3307              	.LVL396:
1226:D:/fchai/work/i-cube/I-CUBE-HUAWEI/Middlewares/Third_Party/Huawei/iot_link/network/dtls/mbedtls/mbedtls-2.16.2/library\pkparse.c ****             ( ret = pk_parse_key_sec1_der( mbedtls_pk_ec( *pk ),
 3308              		.loc 1 1226 9 is_stmt 1 view .LVU1012
1226:D:/fchai/work/i-cube/I-CUBE-HUAWEI/Middlewares/Third_Party/Huawei/iot_link/network/dtls/mbedtls/mbedtls-2.16.2/library\pkparse.c ****             ( ret = pk_parse_key_sec1_der( mbedtls_pk_ec( *pk ),
 3309              		.loc 1 1226 21 is_stmt 0 view .LVU1013
 3310 01e4 4846     		mov	r0, r9
 3311              	.LVL397:
1226:D:/fchai/work/i-cube/I-CUBE-HUAWEI/Middlewares/Third_Party/Huawei/iot_link/network/dtls/mbedtls/mbedtls-2.16.2/library\pkparse.c ****             ( ret = pk_parse_key_sec1_der( mbedtls_pk_ec( *pk ),
 3312              		.loc 1 1226 21 view .LVU1014
 3313 01e6 FFF7FEFF 		bl	mbedtls_pk_setup
 3314              	.LVL398:
1226:D:/fchai/work/i-cube/I-CUBE-HUAWEI/Middlewares/Third_Party/Huawei/iot_link/network/dtls/mbedtls/mbedtls-2.16.2/library\pkparse.c ****             ( ret = pk_parse_key_sec1_der( mbedtls_pk_ec( *pk ),
 3315              		.loc 1 1226 11 view .LVU1015
 3316 01ea 0446     		mov	r4, r0
 3317 01ec 0028     		cmp	r0, #0
 3318 01ee DFD1     		bne	.L291
 3319              		.loc 2 172 5 is_stmt 1 discriminator 1 view .LVU1016
1227:D:/fchai/work/i-cube/I-CUBE-HUAWEI/Middlewares/Third_Party/Huawei/iot_link/network/dtls/mbedtls/mbedtls-2.16.2/library\pkparse.c ****                                            pem.buf, pem.buflen ) ) != 0 )
 3320              		.loc 1 1227 21 is_stmt 0 discriminator 1 view .LVU1017
 3321 01f0 DDE90512 		ldrd	r1, r2, [sp, #20]
 3322 01f4 D9F80400 		ldr	r0, [r9, #4]
 3323              	.LVL399:
1227:D:/fchai/work/i-cube/I-CUBE-HUAWEI/Middlewares/Third_Party/Huawei/iot_link/network/dtls/mbedtls/mbedtls-2.16.2/library\pkparse.c ****                                            pem.buf, pem.buflen ) ) != 0 )
 3324              		.loc 1 1227 21 discriminator 1 view .LVU1018
 3325 01f8 FFF7FEFF 		bl	pk_parse_key_sec1_der
 3326              	.LVL400:
1226:D:/fchai/work/i-cube/I-CUBE-HUAWEI/Middlewares/Third_Party/Huawei/iot_link/network/dtls/mbedtls/mbedtls-2.16.2/library\pkparse.c ****             ( ret = pk_parse_key_sec1_der( mbedtls_pk_ec( *pk ),
 3327              		.loc 1 1226 60 discriminator 1 view .LVU1019
 3328 01fc 0446     		mov	r4, r0
 3329 01fe 0028     		cmp	r0, #0
 3330 0200 D9D0     		beq	.L249
 3331 0202 D5E7     		b	.L291
 3332              	.LVL401:
ARM GAS  T:\msys\tmp\cc83OHoG.s 			page 102


 3333              	.L257:
1176:D:/fchai/work/i-cube/I-CUBE-HUAWEI/Middlewares/Third_Party/Huawei/iot_link/network/dtls/mbedtls/mbedtls-2.16.2/library\pkparse.c ****     PK_VALIDATE_RET( key != NULL );
 3334              		.loc 1 1176 15 view .LVU1020
 3335 0204 184C     		ldr	r4, .L299+36
 3336 0206 6AE7     		b	.L231
 3337              	.LVL402:
 3338              	.L296:
1254:D:/fchai/work/i-cube/I-CUBE-HUAWEI/Middlewares/Third_Party/Huawei/iot_link/network/dtls/mbedtls/mbedtls-2.16.2/library\pkparse.c ****                                                 pem.buf, pem.buflen ) ) != 0 )
 3339              		.loc 1 1254 9 is_stmt 1 view .LVU1021
1254:D:/fchai/work/i-cube/I-CUBE-HUAWEI/Middlewares/Third_Party/Huawei/iot_link/network/dtls/mbedtls/mbedtls-2.16.2/library\pkparse.c ****                                                 pem.buf, pem.buflen ) ) != 0 )
 3340              		.loc 1 1254 21 is_stmt 0 view .LVU1022
 3341 0208 DDE90512 		ldrd	r1, r2, [sp, #20]
 3342 020c 4846     		mov	r0, r9
 3343              	.LVL403:
1254:D:/fchai/work/i-cube/I-CUBE-HUAWEI/Middlewares/Third_Party/Huawei/iot_link/network/dtls/mbedtls/mbedtls-2.16.2/library\pkparse.c ****                                                 pem.buf, pem.buflen ) ) != 0 )
 3344              		.loc 1 1254 21 view .LVU1023
 3345 020e FFF7FEFF 		bl	pk_parse_key_pkcs8_unencrypted_der
 3346              	.LVL404:
1254:D:/fchai/work/i-cube/I-CUBE-HUAWEI/Middlewares/Third_Party/Huawei/iot_link/network/dtls/mbedtls/mbedtls-2.16.2/library\pkparse.c ****                                                 pem.buf, pem.buflen ) ) != 0 )
 3347              		.loc 1 1254 11 view .LVU1024
 3348 0212 0446     		mov	r4, r0
 3349 0214 0028     		cmp	r0, #0
 3350 0216 CED0     		beq	.L249
 3351 0218 CAE7     		b	.L291
 3352              	.L297:
1277:D:/fchai/work/i-cube/I-CUBE-HUAWEI/Middlewares/Third_Party/Huawei/iot_link/network/dtls/mbedtls/mbedtls-2.16.2/library\pkparse.c ****                                                       pem.buf, pem.buflen,
 3353              		.loc 1 1277 9 is_stmt 1 view .LVU1025
1277:D:/fchai/work/i-cube/I-CUBE-HUAWEI/Middlewares/Third_Party/Huawei/iot_link/network/dtls/mbedtls/mbedtls-2.16.2/library\pkparse.c ****                                                       pem.buf, pem.buflen,
 3354              		.loc 1 1277 21 is_stmt 0 view .LVU1026
 3355 021a 109B     		ldr	r3, [sp, #64]
 3356 021c 0093     		str	r3, [sp]
 3357 021e DDE90512 		ldrd	r1, r2, [sp, #20]
 3358 0222 4346     		mov	r3, r8
 3359 0224 4846     		mov	r0, r9
 3360              	.LVL405:
1277:D:/fchai/work/i-cube/I-CUBE-HUAWEI/Middlewares/Third_Party/Huawei/iot_link/network/dtls/mbedtls/mbedtls-2.16.2/library\pkparse.c ****                                                       pem.buf, pem.buflen,
 3361              		.loc 1 1277 21 view .LVU1027
 3362 0226 FFF7FEFF 		bl	pk_parse_key_pkcs8_encrypted_der
 3363              	.LVL406:
1277:D:/fchai/work/i-cube/I-CUBE-HUAWEI/Middlewares/Third_Party/Huawei/iot_link/network/dtls/mbedtls/mbedtls-2.16.2/library\pkparse.c ****                                                       pem.buf, pem.buflen,
 3364              		.loc 1 1277 11 view .LVU1028
 3365 022a 0446     		mov	r4, r0
 3366 022c 0028     		cmp	r0, #0
 3367 022e C2D0     		beq	.L249
 3368 0230 BEE7     		b	.L291
 3369              	.LVL407:
 3370              	.L242:
1206:D:/fchai/work/i-cube/I-CUBE-HUAWEI/Middlewares/Third_Party/Huawei/iot_link/network/dtls/mbedtls/mbedtls-2.16.2/library\pkparse.c ****     else if( ret == MBEDTLS_ERR_PEM_PASSWORD_REQUIRED )
 3371              		.loc 1 1206 15 view .LVU1029
 3372 0232 0E4C     		ldr	r4, .L299+40
 3373 0234 53E7     		b	.L231
 3374              	.L243:
1208:D:/fchai/work/i-cube/I-CUBE-HUAWEI/Middlewares/Third_Party/Huawei/iot_link/network/dtls/mbedtls/mbedtls-2.16.2/library\pkparse.c ****     else if( ret != MBEDTLS_ERR_PEM_NO_HEADER_FOOTER_PRESENT )
 3375              		.loc 1 1208 15 view .LVU1030
 3376 0236 0E4C     		ldr	r4, .L299+44
 3377 0238 51E7     		b	.L231
 3378              	.LVL408:
ARM GAS  T:\msys\tmp\cc83OHoG.s 			page 103


 3379              	.L254:
1357:D:/fchai/work/i-cube/I-CUBE-HUAWEI/Middlewares/Third_Party/Huawei/iot_link/network/dtls/mbedtls/mbedtls-2.16.2/library\pkparse.c **** #endif /* MBEDTLS_ECP_C */
 3380              		.loc 1 1357 5 is_stmt 1 view .LVU1031
 3381 023a 4846     		mov	r0, r9
 3382 023c FFF7FEFF 		bl	mbedtls_pk_free
 3383              	.LVL409:
1370:D:/fchai/work/i-cube/I-CUBE-HUAWEI/Middlewares/Third_Party/Huawei/iot_link/network/dtls/mbedtls/mbedtls-2.16.2/library\pkparse.c **** }
 3384              		.loc 1 1370 5 view .LVU1032
1370:D:/fchai/work/i-cube/I-CUBE-HUAWEI/Middlewares/Third_Party/Huawei/iot_link/network/dtls/mbedtls/mbedtls-2.16.2/library\pkparse.c **** }
 3385              		.loc 1 1370 11 is_stmt 0 view .LVU1033
 3386 0240 094C     		ldr	r4, .L299+36
 3387              	.LVL410:
1370:D:/fchai/work/i-cube/I-CUBE-HUAWEI/Middlewares/Third_Party/Huawei/iot_link/network/dtls/mbedtls/mbedtls-2.16.2/library\pkparse.c **** }
 3388              		.loc 1 1370 11 view .LVU1034
 3389 0242 4CE7     		b	.L231
 3390              	.L300:
 3391              		.align	2
 3392              	.L299:
 3393 0244 00000000 		.word	.LC3
 3394 0248 20000000 		.word	.LC4
 3395 024c 40000000 		.word	.LC5
 3396 0250 60000000 		.word	.LC6
 3397 0254 80000000 		.word	.LC7
 3398 0258 9C000000 		.word	.LC8
 3399 025c B8000000 		.word	.LC9
 3400 0260 DC000000 		.word	.LC10
 3401 0264 80C0FFFF 		.word	-16256
 3402 0268 00C3FFFF 		.word	-15616
 3403 026c 80C4FFFF 		.word	-15232
 3404 0270 00C4FFFF 		.word	-15360
 3405              		.cfi_endproc
 3406              	.LFE26:
 3408              		.section	.rodata.mbedtls_pk_parse_public_key.str1.4,"aMS",%progbits,1
 3409              		.align	2
 3410              	.LC11:
 3411 0000 2D2D2D2D 		.ascii	"-----END RSA PUBLIC KEY-----\000"
 3411      2D454E44 
 3411      20525341 
 3411      20505542 
 3411      4C494320 
 3412 001d 000000   		.align	2
 3413              	.LC12:
 3414 0020 2D2D2D2D 		.ascii	"-----BEGIN RSA PUBLIC KEY-----\000"
 3414      2D424547 
 3414      494E2052 
 3414      53412050 
 3414      55424C49 
 3415 003f 00       		.align	2
 3416              	.LC13:
 3417 0040 2D2D2D2D 		.ascii	"-----END PUBLIC KEY-----\000"
 3417      2D454E44 
 3417      20505542 
 3417      4C494320 
 3417      4B45592D 
 3418 0059 000000   		.align	2
 3419              	.LC14:
 3420 005c 2D2D2D2D 		.ascii	"-----BEGIN PUBLIC KEY-----\000"
ARM GAS  T:\msys\tmp\cc83OHoG.s 			page 104


 3420      2D424547 
 3420      494E2050 
 3420      55424C49 
 3420      43204B45 
 3421              		.section	.text.mbedtls_pk_parse_public_key,"ax",%progbits
 3422              		.align	1
 3423              		.p2align 2,,3
 3424              		.global	mbedtls_pk_parse_public_key
 3425              		.syntax unified
 3426              		.thumb
 3427              		.thumb_func
 3428              		.fpu fpv4-sp-d16
 3430              	mbedtls_pk_parse_public_key:
 3431              	.LVL411:
 3432              	.LFB27:
1372:D:/fchai/work/i-cube/I-CUBE-HUAWEI/Middlewares/Third_Party/Huawei/iot_link/network/dtls/mbedtls/mbedtls-2.16.2/library\pkparse.c **** 
1373:D:/fchai/work/i-cube/I-CUBE-HUAWEI/Middlewares/Third_Party/Huawei/iot_link/network/dtls/mbedtls/mbedtls-2.16.2/library\pkparse.c **** /*
1374:D:/fchai/work/i-cube/I-CUBE-HUAWEI/Middlewares/Third_Party/Huawei/iot_link/network/dtls/mbedtls/mbedtls-2.16.2/library\pkparse.c ****  * Parse a public key
1375:D:/fchai/work/i-cube/I-CUBE-HUAWEI/Middlewares/Third_Party/Huawei/iot_link/network/dtls/mbedtls/mbedtls-2.16.2/library\pkparse.c ****  */
1376:D:/fchai/work/i-cube/I-CUBE-HUAWEI/Middlewares/Third_Party/Huawei/iot_link/network/dtls/mbedtls/mbedtls-2.16.2/library\pkparse.c **** int mbedtls_pk_parse_public_key( mbedtls_pk_context *ctx,
1377:D:/fchai/work/i-cube/I-CUBE-HUAWEI/Middlewares/Third_Party/Huawei/iot_link/network/dtls/mbedtls/mbedtls-2.16.2/library\pkparse.c ****                          const unsigned char *key, size_t keylen )
1378:D:/fchai/work/i-cube/I-CUBE-HUAWEI/Middlewares/Third_Party/Huawei/iot_link/network/dtls/mbedtls/mbedtls-2.16.2/library\pkparse.c **** {
 3433              		.loc 1 1378 1 is_stmt 1 view -0
 3434              		.cfi_startproc
 3435              		@ args = 0, pretend = 0, frame = 24
 3436              		@ frame_needed = 0, uses_anonymous_args = 0
1379:D:/fchai/work/i-cube/I-CUBE-HUAWEI/Middlewares/Third_Party/Huawei/iot_link/network/dtls/mbedtls/mbedtls-2.16.2/library\pkparse.c ****     int ret;
 3437              		.loc 1 1379 5 view .LVU1036
1380:D:/fchai/work/i-cube/I-CUBE-HUAWEI/Middlewares/Third_Party/Huawei/iot_link/network/dtls/mbedtls/mbedtls-2.16.2/library\pkparse.c ****     unsigned char *p;
 3438              		.loc 1 1380 5 view .LVU1037
1381:D:/fchai/work/i-cube/I-CUBE-HUAWEI/Middlewares/Third_Party/Huawei/iot_link/network/dtls/mbedtls/mbedtls-2.16.2/library\pkparse.c **** #if defined(MBEDTLS_RSA_C)
1382:D:/fchai/work/i-cube/I-CUBE-HUAWEI/Middlewares/Third_Party/Huawei/iot_link/network/dtls/mbedtls/mbedtls-2.16.2/library\pkparse.c ****     const mbedtls_pk_info_t *pk_info;
 3439              		.loc 1 1382 5 view .LVU1038
1383:D:/fchai/work/i-cube/I-CUBE-HUAWEI/Middlewares/Third_Party/Huawei/iot_link/network/dtls/mbedtls/mbedtls-2.16.2/library\pkparse.c **** #endif
1384:D:/fchai/work/i-cube/I-CUBE-HUAWEI/Middlewares/Third_Party/Huawei/iot_link/network/dtls/mbedtls/mbedtls-2.16.2/library\pkparse.c **** #if defined(MBEDTLS_PEM_PARSE_C)
1385:D:/fchai/work/i-cube/I-CUBE-HUAWEI/Middlewares/Third_Party/Huawei/iot_link/network/dtls/mbedtls/mbedtls-2.16.2/library\pkparse.c ****     size_t len;
 3440              		.loc 1 1385 5 view .LVU1039
1386:D:/fchai/work/i-cube/I-CUBE-HUAWEI/Middlewares/Third_Party/Huawei/iot_link/network/dtls/mbedtls/mbedtls-2.16.2/library\pkparse.c ****     mbedtls_pem_context pem;
 3441              		.loc 1 1386 5 view .LVU1040
1387:D:/fchai/work/i-cube/I-CUBE-HUAWEI/Middlewares/Third_Party/Huawei/iot_link/network/dtls/mbedtls/mbedtls-2.16.2/library\pkparse.c **** #endif
1388:D:/fchai/work/i-cube/I-CUBE-HUAWEI/Middlewares/Third_Party/Huawei/iot_link/network/dtls/mbedtls/mbedtls-2.16.2/library\pkparse.c **** 
1389:D:/fchai/work/i-cube/I-CUBE-HUAWEI/Middlewares/Third_Party/Huawei/iot_link/network/dtls/mbedtls/mbedtls-2.16.2/library\pkparse.c ****     PK_VALIDATE_RET( ctx != NULL );
 3442              		.loc 1 1389 5 view .LVU1041
 3443              		.loc 1 1389 5 view .LVU1042
 3444              		.loc 1 1389 5 view .LVU1043
1390:D:/fchai/work/i-cube/I-CUBE-HUAWEI/Middlewares/Third_Party/Huawei/iot_link/network/dtls/mbedtls/mbedtls-2.16.2/library\pkparse.c ****     if( keylen == 0 )
 3445              		.loc 1 1390 5 view .LVU1044
1378:D:/fchai/work/i-cube/I-CUBE-HUAWEI/Middlewares/Third_Party/Huawei/iot_link/network/dtls/mbedtls/mbedtls-2.16.2/library\pkparse.c ****     int ret;
 3446              		.loc 1 1378 1 is_stmt 0 view .LVU1045
 3447 0000 2DE9F043 		push	{r4, r5, r6, r7, r8, r9, lr}
 3448              	.LCFI50:
 3449              		.cfi_def_cfa_offset 28
 3450              		.cfi_offset 4, -28
 3451              		.cfi_offset 5, -24
 3452              		.cfi_offset 6, -20
 3453              		.cfi_offset 7, -16
 3454              		.cfi_offset 8, -12
ARM GAS  T:\msys\tmp\cc83OHoG.s 			page 105


 3455              		.cfi_offset 9, -8
 3456              		.cfi_offset 14, -4
 3457 0004 8BB0     		sub	sp, sp, #44
 3458              	.LCFI51:
 3459              		.cfi_def_cfa_offset 72
 3460              		.loc 1 1390 7 view .LVU1046
 3461 0006 002A     		cmp	r2, #0
 3462 0008 00F08A80 		beq	.L310
1391:D:/fchai/work/i-cube/I-CUBE-HUAWEI/Middlewares/Third_Party/Huawei/iot_link/network/dtls/mbedtls/mbedtls-2.16.2/library\pkparse.c ****         return( MBEDTLS_ERR_PK_KEY_INVALID_FORMAT );
1392:D:/fchai/work/i-cube/I-CUBE-HUAWEI/Middlewares/Third_Party/Huawei/iot_link/network/dtls/mbedtls/mbedtls-2.16.2/library\pkparse.c ****     PK_VALIDATE_RET( key != NULL || keylen == 0 );
 3463              		.loc 1 1392 5 is_stmt 1 view .LVU1047
 3464              		.loc 1 1392 5 view .LVU1048
 3465              		.loc 1 1392 5 view .LVU1049
1393:D:/fchai/work/i-cube/I-CUBE-HUAWEI/Middlewares/Third_Party/Huawei/iot_link/network/dtls/mbedtls/mbedtls-2.16.2/library\pkparse.c **** 
1394:D:/fchai/work/i-cube/I-CUBE-HUAWEI/Middlewares/Third_Party/Huawei/iot_link/network/dtls/mbedtls/mbedtls-2.16.2/library\pkparse.c **** #if defined(MBEDTLS_PEM_PARSE_C)
1395:D:/fchai/work/i-cube/I-CUBE-HUAWEI/Middlewares/Third_Party/Huawei/iot_link/network/dtls/mbedtls/mbedtls-2.16.2/library\pkparse.c ****     mbedtls_pem_init( &pem );
 3466              		.loc 1 1395 5 view .LVU1050
 3467 000c 0F46     		mov	r7, r1
1396:D:/fchai/work/i-cube/I-CUBE-HUAWEI/Middlewares/Third_Party/Huawei/iot_link/network/dtls/mbedtls/mbedtls-2.16.2/library\pkparse.c **** #if defined(MBEDTLS_RSA_C)
1397:D:/fchai/work/i-cube/I-CUBE-HUAWEI/Middlewares/Third_Party/Huawei/iot_link/network/dtls/mbedtls/mbedtls-2.16.2/library\pkparse.c ****     /* Avoid calling mbedtls_pem_read_buffer() on non-null-terminated string */
1398:D:/fchai/work/i-cube/I-CUBE-HUAWEI/Middlewares/Third_Party/Huawei/iot_link/network/dtls/mbedtls/mbedtls-2.16.2/library\pkparse.c ****     if( key[keylen - 1] != '\0' )
 3468              		.loc 1 1398 12 is_stmt 0 view .LVU1051
 3469 000e 02F1FF39 		add	r9, r2, #-1
 3470 0012 0546     		mov	r5, r0
1395:D:/fchai/work/i-cube/I-CUBE-HUAWEI/Middlewares/Third_Party/Huawei/iot_link/network/dtls/mbedtls/mbedtls-2.16.2/library\pkparse.c **** #if defined(MBEDTLS_RSA_C)
 3471              		.loc 1 1395 5 view .LVU1052
 3472 0014 07A8     		add	r0, sp, #28
 3473              	.LVL412:
1395:D:/fchai/work/i-cube/I-CUBE-HUAWEI/Middlewares/Third_Party/Huawei/iot_link/network/dtls/mbedtls/mbedtls-2.16.2/library\pkparse.c **** #if defined(MBEDTLS_RSA_C)
 3474              		.loc 1 1395 5 view .LVU1053
 3475 0016 9046     		mov	r8, r2
 3476 0018 FFF7FEFF 		bl	mbedtls_pem_init
 3477              	.LVL413:
 3478              		.loc 1 1398 5 is_stmt 1 view .LVU1054
 3479              		.loc 1 1398 7 is_stmt 0 view .LVU1055
 3480 001c 17F80930 		ldrb	r3, [r7, r9]	@ zero_extendqisi2
 3481 0020 8BB1     		cbz	r3, .L325
 3482              	.L303:
1399:D:/fchai/work/i-cube/I-CUBE-HUAWEI/Middlewares/Third_Party/Huawei/iot_link/network/dtls/mbedtls/mbedtls-2.16.2/library\pkparse.c ****         ret = MBEDTLS_ERR_PEM_NO_HEADER_FOOTER_PRESENT;
1400:D:/fchai/work/i-cube/I-CUBE-HUAWEI/Middlewares/Third_Party/Huawei/iot_link/network/dtls/mbedtls/mbedtls-2.16.2/library\pkparse.c ****     else
1401:D:/fchai/work/i-cube/I-CUBE-HUAWEI/Middlewares/Third_Party/Huawei/iot_link/network/dtls/mbedtls/mbedtls-2.16.2/library\pkparse.c ****         ret = mbedtls_pem_read_buffer( &pem,
1402:D:/fchai/work/i-cube/I-CUBE-HUAWEI/Middlewares/Third_Party/Huawei/iot_link/network/dtls/mbedtls/mbedtls-2.16.2/library\pkparse.c ****                                "-----BEGIN RSA PUBLIC KEY-----",
1403:D:/fchai/work/i-cube/I-CUBE-HUAWEI/Middlewares/Third_Party/Huawei/iot_link/network/dtls/mbedtls/mbedtls-2.16.2/library\pkparse.c ****                                "-----END RSA PUBLIC KEY-----",
1404:D:/fchai/work/i-cube/I-CUBE-HUAWEI/Middlewares/Third_Party/Huawei/iot_link/network/dtls/mbedtls/mbedtls-2.16.2/library\pkparse.c ****                                key, NULL, 0, &len );
1405:D:/fchai/work/i-cube/I-CUBE-HUAWEI/Middlewares/Third_Party/Huawei/iot_link/network/dtls/mbedtls/mbedtls-2.16.2/library\pkparse.c **** 
1406:D:/fchai/work/i-cube/I-CUBE-HUAWEI/Middlewares/Third_Party/Huawei/iot_link/network/dtls/mbedtls/mbedtls-2.16.2/library\pkparse.c ****     if( ret == 0 )
1407:D:/fchai/work/i-cube/I-CUBE-HUAWEI/Middlewares/Third_Party/Huawei/iot_link/network/dtls/mbedtls/mbedtls-2.16.2/library\pkparse.c ****     {
1408:D:/fchai/work/i-cube/I-CUBE-HUAWEI/Middlewares/Third_Party/Huawei/iot_link/network/dtls/mbedtls/mbedtls-2.16.2/library\pkparse.c ****         p = pem.buf;
1409:D:/fchai/work/i-cube/I-CUBE-HUAWEI/Middlewares/Third_Party/Huawei/iot_link/network/dtls/mbedtls/mbedtls-2.16.2/library\pkparse.c ****         if( ( pk_info = mbedtls_pk_info_from_type( MBEDTLS_PK_RSA ) ) == NULL )
1410:D:/fchai/work/i-cube/I-CUBE-HUAWEI/Middlewares/Third_Party/Huawei/iot_link/network/dtls/mbedtls/mbedtls-2.16.2/library\pkparse.c ****             return( MBEDTLS_ERR_PK_UNKNOWN_PK_ALG );
1411:D:/fchai/work/i-cube/I-CUBE-HUAWEI/Middlewares/Third_Party/Huawei/iot_link/network/dtls/mbedtls/mbedtls-2.16.2/library\pkparse.c **** 
1412:D:/fchai/work/i-cube/I-CUBE-HUAWEI/Middlewares/Third_Party/Huawei/iot_link/network/dtls/mbedtls/mbedtls-2.16.2/library\pkparse.c ****         if( ( ret = mbedtls_pk_setup( ctx, pk_info ) ) != 0 )
1413:D:/fchai/work/i-cube/I-CUBE-HUAWEI/Middlewares/Third_Party/Huawei/iot_link/network/dtls/mbedtls/mbedtls-2.16.2/library\pkparse.c ****             return( ret );
1414:D:/fchai/work/i-cube/I-CUBE-HUAWEI/Middlewares/Third_Party/Huawei/iot_link/network/dtls/mbedtls/mbedtls-2.16.2/library\pkparse.c **** 
1415:D:/fchai/work/i-cube/I-CUBE-HUAWEI/Middlewares/Third_Party/Huawei/iot_link/network/dtls/mbedtls/mbedtls-2.16.2/library\pkparse.c ****         if ( ( ret = pk_get_rsapubkey( &p, p + pem.buflen, mbedtls_pk_rsa( *ctx ) ) ) != 0 )
1416:D:/fchai/work/i-cube/I-CUBE-HUAWEI/Middlewares/Third_Party/Huawei/iot_link/network/dtls/mbedtls/mbedtls-2.16.2/library\pkparse.c ****             mbedtls_pk_free( ctx );
1417:D:/fchai/work/i-cube/I-CUBE-HUAWEI/Middlewares/Third_Party/Huawei/iot_link/network/dtls/mbedtls/mbedtls-2.16.2/library\pkparse.c **** 
ARM GAS  T:\msys\tmp\cc83OHoG.s 			page 106


1418:D:/fchai/work/i-cube/I-CUBE-HUAWEI/Middlewares/Third_Party/Huawei/iot_link/network/dtls/mbedtls/mbedtls-2.16.2/library\pkparse.c ****         mbedtls_pem_free( &pem );
1419:D:/fchai/work/i-cube/I-CUBE-HUAWEI/Middlewares/Third_Party/Huawei/iot_link/network/dtls/mbedtls/mbedtls-2.16.2/library\pkparse.c ****         return( ret );
1420:D:/fchai/work/i-cube/I-CUBE-HUAWEI/Middlewares/Third_Party/Huawei/iot_link/network/dtls/mbedtls/mbedtls-2.16.2/library\pkparse.c ****     }
1421:D:/fchai/work/i-cube/I-CUBE-HUAWEI/Middlewares/Third_Party/Huawei/iot_link/network/dtls/mbedtls/mbedtls-2.16.2/library\pkparse.c ****     else if( ret != MBEDTLS_ERR_PEM_NO_HEADER_FOOTER_PRESENT )
1422:D:/fchai/work/i-cube/I-CUBE-HUAWEI/Middlewares/Third_Party/Huawei/iot_link/network/dtls/mbedtls/mbedtls-2.16.2/library\pkparse.c ****     {
1423:D:/fchai/work/i-cube/I-CUBE-HUAWEI/Middlewares/Third_Party/Huawei/iot_link/network/dtls/mbedtls/mbedtls-2.16.2/library\pkparse.c ****         mbedtls_pem_free( &pem );
1424:D:/fchai/work/i-cube/I-CUBE-HUAWEI/Middlewares/Third_Party/Huawei/iot_link/network/dtls/mbedtls/mbedtls-2.16.2/library\pkparse.c ****         return( ret );
1425:D:/fchai/work/i-cube/I-CUBE-HUAWEI/Middlewares/Third_Party/Huawei/iot_link/network/dtls/mbedtls/mbedtls-2.16.2/library\pkparse.c ****     }
1426:D:/fchai/work/i-cube/I-CUBE-HUAWEI/Middlewares/Third_Party/Huawei/iot_link/network/dtls/mbedtls/mbedtls-2.16.2/library\pkparse.c **** #endif /* MBEDTLS_RSA_C */
1427:D:/fchai/work/i-cube/I-CUBE-HUAWEI/Middlewares/Third_Party/Huawei/iot_link/network/dtls/mbedtls/mbedtls-2.16.2/library\pkparse.c **** 
1428:D:/fchai/work/i-cube/I-CUBE-HUAWEI/Middlewares/Third_Party/Huawei/iot_link/network/dtls/mbedtls/mbedtls-2.16.2/library\pkparse.c ****     /* Avoid calling mbedtls_pem_read_buffer() on non-null-terminated string */
1429:D:/fchai/work/i-cube/I-CUBE-HUAWEI/Middlewares/Third_Party/Huawei/iot_link/network/dtls/mbedtls/mbedtls-2.16.2/library\pkparse.c ****     if( key[keylen - 1] != '\0' )
1430:D:/fchai/work/i-cube/I-CUBE-HUAWEI/Middlewares/Third_Party/Huawei/iot_link/network/dtls/mbedtls/mbedtls-2.16.2/library\pkparse.c ****         ret = MBEDTLS_ERR_PEM_NO_HEADER_FOOTER_PRESENT;
1431:D:/fchai/work/i-cube/I-CUBE-HUAWEI/Middlewares/Third_Party/Huawei/iot_link/network/dtls/mbedtls/mbedtls-2.16.2/library\pkparse.c ****     else
1432:D:/fchai/work/i-cube/I-CUBE-HUAWEI/Middlewares/Third_Party/Huawei/iot_link/network/dtls/mbedtls/mbedtls-2.16.2/library\pkparse.c ****         ret = mbedtls_pem_read_buffer( &pem,
1433:D:/fchai/work/i-cube/I-CUBE-HUAWEI/Middlewares/Third_Party/Huawei/iot_link/network/dtls/mbedtls/mbedtls-2.16.2/library\pkparse.c ****                 "-----BEGIN PUBLIC KEY-----",
1434:D:/fchai/work/i-cube/I-CUBE-HUAWEI/Middlewares/Third_Party/Huawei/iot_link/network/dtls/mbedtls/mbedtls-2.16.2/library\pkparse.c ****                 "-----END PUBLIC KEY-----",
1435:D:/fchai/work/i-cube/I-CUBE-HUAWEI/Middlewares/Third_Party/Huawei/iot_link/network/dtls/mbedtls/mbedtls-2.16.2/library\pkparse.c ****                 key, NULL, 0, &len );
1436:D:/fchai/work/i-cube/I-CUBE-HUAWEI/Middlewares/Third_Party/Huawei/iot_link/network/dtls/mbedtls/mbedtls-2.16.2/library\pkparse.c **** 
1437:D:/fchai/work/i-cube/I-CUBE-HUAWEI/Middlewares/Third_Party/Huawei/iot_link/network/dtls/mbedtls/mbedtls-2.16.2/library\pkparse.c ****     if( ret == 0 )
1438:D:/fchai/work/i-cube/I-CUBE-HUAWEI/Middlewares/Third_Party/Huawei/iot_link/network/dtls/mbedtls/mbedtls-2.16.2/library\pkparse.c ****     {
1439:D:/fchai/work/i-cube/I-CUBE-HUAWEI/Middlewares/Third_Party/Huawei/iot_link/network/dtls/mbedtls/mbedtls-2.16.2/library\pkparse.c ****         /*
1440:D:/fchai/work/i-cube/I-CUBE-HUAWEI/Middlewares/Third_Party/Huawei/iot_link/network/dtls/mbedtls/mbedtls-2.16.2/library\pkparse.c ****          * Was PEM encoded
1441:D:/fchai/work/i-cube/I-CUBE-HUAWEI/Middlewares/Third_Party/Huawei/iot_link/network/dtls/mbedtls/mbedtls-2.16.2/library\pkparse.c ****          */
1442:D:/fchai/work/i-cube/I-CUBE-HUAWEI/Middlewares/Third_Party/Huawei/iot_link/network/dtls/mbedtls/mbedtls-2.16.2/library\pkparse.c ****         p = pem.buf;
1443:D:/fchai/work/i-cube/I-CUBE-HUAWEI/Middlewares/Third_Party/Huawei/iot_link/network/dtls/mbedtls/mbedtls-2.16.2/library\pkparse.c **** 
1444:D:/fchai/work/i-cube/I-CUBE-HUAWEI/Middlewares/Third_Party/Huawei/iot_link/network/dtls/mbedtls/mbedtls-2.16.2/library\pkparse.c ****         ret = mbedtls_pk_parse_subpubkey( &p,  p + pem.buflen, ctx );
1445:D:/fchai/work/i-cube/I-CUBE-HUAWEI/Middlewares/Third_Party/Huawei/iot_link/network/dtls/mbedtls/mbedtls-2.16.2/library\pkparse.c ****         mbedtls_pem_free( &pem );
1446:D:/fchai/work/i-cube/I-CUBE-HUAWEI/Middlewares/Third_Party/Huawei/iot_link/network/dtls/mbedtls/mbedtls-2.16.2/library\pkparse.c ****         return( ret );
1447:D:/fchai/work/i-cube/I-CUBE-HUAWEI/Middlewares/Third_Party/Huawei/iot_link/network/dtls/mbedtls/mbedtls-2.16.2/library\pkparse.c ****     }
1448:D:/fchai/work/i-cube/I-CUBE-HUAWEI/Middlewares/Third_Party/Huawei/iot_link/network/dtls/mbedtls/mbedtls-2.16.2/library\pkparse.c ****     else if( ret != MBEDTLS_ERR_PEM_NO_HEADER_FOOTER_PRESENT )
1449:D:/fchai/work/i-cube/I-CUBE-HUAWEI/Middlewares/Third_Party/Huawei/iot_link/network/dtls/mbedtls/mbedtls-2.16.2/library\pkparse.c ****     {
1450:D:/fchai/work/i-cube/I-CUBE-HUAWEI/Middlewares/Third_Party/Huawei/iot_link/network/dtls/mbedtls/mbedtls-2.16.2/library\pkparse.c ****         mbedtls_pem_free( &pem );
1451:D:/fchai/work/i-cube/I-CUBE-HUAWEI/Middlewares/Third_Party/Huawei/iot_link/network/dtls/mbedtls/mbedtls-2.16.2/library\pkparse.c ****         return( ret );
1452:D:/fchai/work/i-cube/I-CUBE-HUAWEI/Middlewares/Third_Party/Huawei/iot_link/network/dtls/mbedtls/mbedtls-2.16.2/library\pkparse.c ****     }
1453:D:/fchai/work/i-cube/I-CUBE-HUAWEI/Middlewares/Third_Party/Huawei/iot_link/network/dtls/mbedtls/mbedtls-2.16.2/library\pkparse.c ****     mbedtls_pem_free( &pem );
 3483              		.loc 1 1453 5 is_stmt 1 view .LVU1056
 3484 0022 07A8     		add	r0, sp, #28
 3485 0024 FFF7FEFF 		bl	mbedtls_pem_free
 3486              	.LVL414:
1454:D:/fchai/work/i-cube/I-CUBE-HUAWEI/Middlewares/Third_Party/Huawei/iot_link/network/dtls/mbedtls/mbedtls-2.16.2/library\pkparse.c **** #endif /* MBEDTLS_PEM_PARSE_C */
1455:D:/fchai/work/i-cube/I-CUBE-HUAWEI/Middlewares/Third_Party/Huawei/iot_link/network/dtls/mbedtls/mbedtls-2.16.2/library\pkparse.c **** 
1456:D:/fchai/work/i-cube/I-CUBE-HUAWEI/Middlewares/Third_Party/Huawei/iot_link/network/dtls/mbedtls/mbedtls-2.16.2/library\pkparse.c **** #if defined(MBEDTLS_RSA_C)
1457:D:/fchai/work/i-cube/I-CUBE-HUAWEI/Middlewares/Third_Party/Huawei/iot_link/network/dtls/mbedtls/mbedtls-2.16.2/library\pkparse.c ****     if( ( pk_info = mbedtls_pk_info_from_type( MBEDTLS_PK_RSA ) ) == NULL )
 3487              		.loc 1 1457 5 view .LVU1057
 3488              		.loc 1 1457 21 is_stmt 0 view .LVU1058
 3489 0028 0120     		movs	r0, #1
 3490 002a FFF7FEFF 		bl	mbedtls_pk_info_from_type
 3491              	.LVL415:
 3492              		.loc 1 1457 7 view .LVU1059
 3493 002e 0028     		cmp	r0, #0
 3494 0030 78D0     		beq	.L309
1458:D:/fchai/work/i-cube/I-CUBE-HUAWEI/Middlewares/Third_Party/Huawei/iot_link/network/dtls/mbedtls/mbedtls-2.16.2/library\pkparse.c ****         return( MBEDTLS_ERR_PK_UNKNOWN_PK_ALG );
1459:D:/fchai/work/i-cube/I-CUBE-HUAWEI/Middlewares/Third_Party/Huawei/iot_link/network/dtls/mbedtls/mbedtls-2.16.2/library\pkparse.c **** 
1460:D:/fchai/work/i-cube/I-CUBE-HUAWEI/Middlewares/Third_Party/Huawei/iot_link/network/dtls/mbedtls/mbedtls-2.16.2/library\pkparse.c ****     if( ( ret = mbedtls_pk_setup( ctx, pk_info ) ) != 0 )
 3495              		.loc 1 1460 5 is_stmt 1 view .LVU1060
 3496              		.loc 1 1460 17 is_stmt 0 view .LVU1061
ARM GAS  T:\msys\tmp\cc83OHoG.s 			page 107


 3497 0032 0146     		mov	r1, r0
 3498 0034 2846     		mov	r0, r5
 3499              	.LVL416:
 3500              		.loc 1 1460 17 view .LVU1062
 3501 0036 FFF7FEFF 		bl	mbedtls_pk_setup
 3502              	.LVL417:
 3503              		.loc 1 1460 7 view .LVU1063
 3504 003a 0446     		mov	r4, r0
 3505 003c D0B1     		cbz	r0, .L326
 3506              	.LVL418:
 3507              	.L301:
1461:D:/fchai/work/i-cube/I-CUBE-HUAWEI/Middlewares/Third_Party/Huawei/iot_link/network/dtls/mbedtls/mbedtls-2.16.2/library\pkparse.c ****         return( ret );
1462:D:/fchai/work/i-cube/I-CUBE-HUAWEI/Middlewares/Third_Party/Huawei/iot_link/network/dtls/mbedtls/mbedtls-2.16.2/library\pkparse.c **** 
1463:D:/fchai/work/i-cube/I-CUBE-HUAWEI/Middlewares/Third_Party/Huawei/iot_link/network/dtls/mbedtls/mbedtls-2.16.2/library\pkparse.c ****     p = (unsigned char *)key;
1464:D:/fchai/work/i-cube/I-CUBE-HUAWEI/Middlewares/Third_Party/Huawei/iot_link/network/dtls/mbedtls/mbedtls-2.16.2/library\pkparse.c ****     ret = pk_get_rsapubkey( &p, p + keylen, mbedtls_pk_rsa( *ctx ) );
1465:D:/fchai/work/i-cube/I-CUBE-HUAWEI/Middlewares/Third_Party/Huawei/iot_link/network/dtls/mbedtls/mbedtls-2.16.2/library\pkparse.c ****     if( ret == 0 )
1466:D:/fchai/work/i-cube/I-CUBE-HUAWEI/Middlewares/Third_Party/Huawei/iot_link/network/dtls/mbedtls/mbedtls-2.16.2/library\pkparse.c ****     {
1467:D:/fchai/work/i-cube/I-CUBE-HUAWEI/Middlewares/Third_Party/Huawei/iot_link/network/dtls/mbedtls/mbedtls-2.16.2/library\pkparse.c ****         return( ret );
1468:D:/fchai/work/i-cube/I-CUBE-HUAWEI/Middlewares/Third_Party/Huawei/iot_link/network/dtls/mbedtls/mbedtls-2.16.2/library\pkparse.c ****     }
1469:D:/fchai/work/i-cube/I-CUBE-HUAWEI/Middlewares/Third_Party/Huawei/iot_link/network/dtls/mbedtls/mbedtls-2.16.2/library\pkparse.c ****     mbedtls_pk_free( ctx );
1470:D:/fchai/work/i-cube/I-CUBE-HUAWEI/Middlewares/Third_Party/Huawei/iot_link/network/dtls/mbedtls/mbedtls-2.16.2/library\pkparse.c ****     if( ret != ( MBEDTLS_ERR_PK_INVALID_PUBKEY + MBEDTLS_ERR_ASN1_UNEXPECTED_TAG ) )
1471:D:/fchai/work/i-cube/I-CUBE-HUAWEI/Middlewares/Third_Party/Huawei/iot_link/network/dtls/mbedtls/mbedtls-2.16.2/library\pkparse.c ****     {
1472:D:/fchai/work/i-cube/I-CUBE-HUAWEI/Middlewares/Third_Party/Huawei/iot_link/network/dtls/mbedtls/mbedtls-2.16.2/library\pkparse.c ****         return( ret );
1473:D:/fchai/work/i-cube/I-CUBE-HUAWEI/Middlewares/Third_Party/Huawei/iot_link/network/dtls/mbedtls/mbedtls-2.16.2/library\pkparse.c ****     }
1474:D:/fchai/work/i-cube/I-CUBE-HUAWEI/Middlewares/Third_Party/Huawei/iot_link/network/dtls/mbedtls/mbedtls-2.16.2/library\pkparse.c **** #endif /* MBEDTLS_RSA_C */
1475:D:/fchai/work/i-cube/I-CUBE-HUAWEI/Middlewares/Third_Party/Huawei/iot_link/network/dtls/mbedtls/mbedtls-2.16.2/library\pkparse.c ****     p = (unsigned char *) key;
1476:D:/fchai/work/i-cube/I-CUBE-HUAWEI/Middlewares/Third_Party/Huawei/iot_link/network/dtls/mbedtls/mbedtls-2.16.2/library\pkparse.c **** 
1477:D:/fchai/work/i-cube/I-CUBE-HUAWEI/Middlewares/Third_Party/Huawei/iot_link/network/dtls/mbedtls/mbedtls-2.16.2/library\pkparse.c ****     ret = mbedtls_pk_parse_subpubkey( &p, p + keylen, ctx );
1478:D:/fchai/work/i-cube/I-CUBE-HUAWEI/Middlewares/Third_Party/Huawei/iot_link/network/dtls/mbedtls/mbedtls-2.16.2/library\pkparse.c **** 
1479:D:/fchai/work/i-cube/I-CUBE-HUAWEI/Middlewares/Third_Party/Huawei/iot_link/network/dtls/mbedtls/mbedtls-2.16.2/library\pkparse.c ****     return( ret );
1480:D:/fchai/work/i-cube/I-CUBE-HUAWEI/Middlewares/Third_Party/Huawei/iot_link/network/dtls/mbedtls/mbedtls-2.16.2/library\pkparse.c **** }
 3508              		.loc 1 1480 1 view .LVU1064
 3509 003e 2046     		mov	r0, r4
 3510 0040 0BB0     		add	sp, sp, #44
 3511              	.LCFI52:
 3512              		.cfi_remember_state
 3513              		.cfi_def_cfa_offset 28
 3514              		@ sp needed
 3515 0042 BDE8F083 		pop	{r4, r5, r6, r7, r8, r9, pc}
 3516              	.LVL419:
 3517              	.L325:
 3518              	.LCFI53:
 3519              		.cfi_restore_state
1401:D:/fchai/work/i-cube/I-CUBE-HUAWEI/Middlewares/Third_Party/Huawei/iot_link/network/dtls/mbedtls/mbedtls-2.16.2/library\pkparse.c ****                                "-----BEGIN RSA PUBLIC KEY-----",
 3520              		.loc 1 1401 9 is_stmt 1 view .LVU1065
1401:D:/fchai/work/i-cube/I-CUBE-HUAWEI/Middlewares/Third_Party/Huawei/iot_link/network/dtls/mbedtls/mbedtls-2.16.2/library\pkparse.c ****                                "-----BEGIN RSA PUBLIC KEY-----",
 3521              		.loc 1 1401 15 is_stmt 0 view .LVU1066
 3522 0046 06AE     		add	r6, sp, #24
 3523 0048 CDE90033 		strd	r3, r3, [sp]
 3524 004c 364A     		ldr	r2, .L330
 3525 004e 3749     		ldr	r1, .L330+4
 3526 0050 0296     		str	r6, [sp, #8]
 3527 0052 3B46     		mov	r3, r7
 3528 0054 07A8     		add	r0, sp, #28
 3529 0056 FFF7FEFF 		bl	mbedtls_pem_read_buffer
 3530              	.LVL420:
1406:D:/fchai/work/i-cube/I-CUBE-HUAWEI/Middlewares/Third_Party/Huawei/iot_link/network/dtls/mbedtls/mbedtls-2.16.2/library\pkparse.c ****     {
ARM GAS  T:\msys\tmp\cc83OHoG.s 			page 108


 3531              		.loc 1 1406 5 is_stmt 1 view .LVU1067
1406:D:/fchai/work/i-cube/I-CUBE-HUAWEI/Middlewares/Third_Party/Huawei/iot_link/network/dtls/mbedtls/mbedtls-2.16.2/library\pkparse.c ****     {
 3532              		.loc 1 1406 7 is_stmt 0 view .LVU1068
 3533 005a 0446     		mov	r4, r0
 3534 005c 0028     		cmp	r0, #0
 3535 005e 37D0     		beq	.L327
 3536              	.LVL421:
1421:D:/fchai/work/i-cube/I-CUBE-HUAWEI/Middlewares/Third_Party/Huawei/iot_link/network/dtls/mbedtls/mbedtls-2.16.2/library\pkparse.c ****     {
 3537              		.loc 1 1421 10 is_stmt 1 view .LVU1069
1421:D:/fchai/work/i-cube/I-CUBE-HUAWEI/Middlewares/Third_Party/Huawei/iot_link/network/dtls/mbedtls/mbedtls-2.16.2/library\pkparse.c ****     {
 3538              		.loc 1 1421 12 is_stmt 0 view .LVU1070
 3539 0060 10F5845F 		cmn	r0, #4224
 3540 0064 1ED0     		beq	.L307
 3541              	.L324:
1450:D:/fchai/work/i-cube/I-CUBE-HUAWEI/Middlewares/Third_Party/Huawei/iot_link/network/dtls/mbedtls/mbedtls-2.16.2/library\pkparse.c ****         return( ret );
 3542              		.loc 1 1450 9 is_stmt 1 view .LVU1071
 3543 0066 07A8     		add	r0, sp, #28
 3544 0068 FFF7FEFF 		bl	mbedtls_pem_free
 3545              	.LVL422:
1451:D:/fchai/work/i-cube/I-CUBE-HUAWEI/Middlewares/Third_Party/Huawei/iot_link/network/dtls/mbedtls/mbedtls-2.16.2/library\pkparse.c ****     }
 3546              		.loc 1 1451 9 view .LVU1072
 3547              	.L329:
 3548              		.loc 1 1480 1 is_stmt 0 view .LVU1073
 3549 006c 2046     		mov	r0, r4
 3550 006e 0BB0     		add	sp, sp, #44
 3551              	.LCFI54:
 3552              		.cfi_remember_state
 3553              		.cfi_def_cfa_offset 28
 3554              		@ sp needed
 3555 0070 BDE8F083 		pop	{r4, r5, r6, r7, r8, r9, pc}
 3556              	.LVL423:
 3557              	.L326:
 3558              	.LCFI55:
 3559              		.cfi_restore_state
1463:D:/fchai/work/i-cube/I-CUBE-HUAWEI/Middlewares/Third_Party/Huawei/iot_link/network/dtls/mbedtls/mbedtls-2.16.2/library\pkparse.c ****     ret = pk_get_rsapubkey( &p, p + keylen, mbedtls_pk_rsa( *ctx ) );
 3560              		.loc 1 1463 5 is_stmt 1 view .LVU1074
1464:D:/fchai/work/i-cube/I-CUBE-HUAWEI/Middlewares/Third_Party/Huawei/iot_link/network/dtls/mbedtls/mbedtls-2.16.2/library\pkparse.c ****     if( ret == 0 )
 3561              		.loc 1 1464 35 is_stmt 0 view .LVU1075
 3562 0074 B844     		add	r8, r8, r7
 3563              	.LVL424:
1464:D:/fchai/work/i-cube/I-CUBE-HUAWEI/Middlewares/Third_Party/Huawei/iot_link/network/dtls/mbedtls/mbedtls-2.16.2/library\pkparse.c ****     if( ret == 0 )
 3564              		.loc 1 1464 11 view .LVU1076
 3565 0076 6A68     		ldr	r2, [r5, #4]
1463:D:/fchai/work/i-cube/I-CUBE-HUAWEI/Middlewares/Third_Party/Huawei/iot_link/network/dtls/mbedtls/mbedtls-2.16.2/library\pkparse.c ****     ret = pk_get_rsapubkey( &p, p + keylen, mbedtls_pk_rsa( *ctx ) );
 3566              		.loc 1 1463 7 view .LVU1077
 3567 0078 0597     		str	r7, [sp, #20]
1464:D:/fchai/work/i-cube/I-CUBE-HUAWEI/Middlewares/Third_Party/Huawei/iot_link/network/dtls/mbedtls/mbedtls-2.16.2/library\pkparse.c ****     if( ret == 0 )
 3568              		.loc 1 1464 5 is_stmt 1 view .LVU1078
 159:D:/fchai/work/i-cube/I-CUBE-HUAWEI/Middlewares/Third_Party/Huawei/iot_link/network/dtls/mbedtls/mbedtls-2.16.2/include/mbedtls\pk.h **** }
 3569              		.loc 2 159 5 view .LVU1079
1464:D:/fchai/work/i-cube/I-CUBE-HUAWEI/Middlewares/Third_Party/Huawei/iot_link/network/dtls/mbedtls/mbedtls-2.16.2/library\pkparse.c ****     if( ret == 0 )
 3570              		.loc 1 1464 11 is_stmt 0 view .LVU1080
 3571 007a 4146     		mov	r1, r8
 3572 007c 05A8     		add	r0, sp, #20
 3573              	.LVL425:
1464:D:/fchai/work/i-cube/I-CUBE-HUAWEI/Middlewares/Third_Party/Huawei/iot_link/network/dtls/mbedtls/mbedtls-2.16.2/library\pkparse.c ****     if( ret == 0 )
 3574              		.loc 1 1464 11 view .LVU1081
ARM GAS  T:\msys\tmp\cc83OHoG.s 			page 109


 3575 007e FFF7FEFF 		bl	pk_get_rsapubkey
 3576              	.LVL426:
1465:D:/fchai/work/i-cube/I-CUBE-HUAWEI/Middlewares/Third_Party/Huawei/iot_link/network/dtls/mbedtls/mbedtls-2.16.2/library\pkparse.c ****     {
 3577              		.loc 1 1465 5 is_stmt 1 view .LVU1082
1465:D:/fchai/work/i-cube/I-CUBE-HUAWEI/Middlewares/Third_Party/Huawei/iot_link/network/dtls/mbedtls/mbedtls-2.16.2/library\pkparse.c ****     {
 3578              		.loc 1 1465 7 is_stmt 0 view .LVU1083
 3579 0082 0446     		mov	r4, r0
 3580 0084 0028     		cmp	r0, #0
 3581 0086 DAD0     		beq	.L301
1469:D:/fchai/work/i-cube/I-CUBE-HUAWEI/Middlewares/Third_Party/Huawei/iot_link/network/dtls/mbedtls/mbedtls-2.16.2/library\pkparse.c ****     if( ret != ( MBEDTLS_ERR_PK_INVALID_PUBKEY + MBEDTLS_ERR_ASN1_UNEXPECTED_TAG ) )
 3582              		.loc 1 1469 5 is_stmt 1 view .LVU1084
 3583 0088 2846     		mov	r0, r5
 3584              	.LVL427:
1469:D:/fchai/work/i-cube/I-CUBE-HUAWEI/Middlewares/Third_Party/Huawei/iot_link/network/dtls/mbedtls/mbedtls-2.16.2/library\pkparse.c ****     if( ret != ( MBEDTLS_ERR_PK_INVALID_PUBKEY + MBEDTLS_ERR_ASN1_UNEXPECTED_TAG ) )
 3585              		.loc 1 1469 5 is_stmt 0 view .LVU1085
 3586 008a FFF7FEFF 		bl	mbedtls_pk_free
 3587              	.LVL428:
1470:D:/fchai/work/i-cube/I-CUBE-HUAWEI/Middlewares/Third_Party/Huawei/iot_link/network/dtls/mbedtls/mbedtls-2.16.2/library\pkparse.c ****     {
 3588              		.loc 1 1470 5 is_stmt 1 view .LVU1086
1470:D:/fchai/work/i-cube/I-CUBE-HUAWEI/Middlewares/Third_Party/Huawei/iot_link/network/dtls/mbedtls/mbedtls-2.16.2/library\pkparse.c ****     {
 3589              		.loc 1 1470 7 is_stmt 0 view .LVU1087
 3590 008e 284B     		ldr	r3, .L330+8
 3591 0090 9C42     		cmp	r4, r3
 3592 0092 D4D1     		bne	.L301
1475:D:/fchai/work/i-cube/I-CUBE-HUAWEI/Middlewares/Third_Party/Huawei/iot_link/network/dtls/mbedtls/mbedtls-2.16.2/library\pkparse.c **** 
 3593              		.loc 1 1475 5 is_stmt 1 view .LVU1088
1477:D:/fchai/work/i-cube/I-CUBE-HUAWEI/Middlewares/Third_Party/Huawei/iot_link/network/dtls/mbedtls/mbedtls-2.16.2/library\pkparse.c **** 
 3594              		.loc 1 1477 11 is_stmt 0 view .LVU1089
 3595 0094 2A46     		mov	r2, r5
 3596 0096 4146     		mov	r1, r8
 3597 0098 05A8     		add	r0, sp, #20
1475:D:/fchai/work/i-cube/I-CUBE-HUAWEI/Middlewares/Third_Party/Huawei/iot_link/network/dtls/mbedtls/mbedtls-2.16.2/library\pkparse.c **** 
 3598              		.loc 1 1475 7 view .LVU1090
 3599 009a 0597     		str	r7, [sp, #20]
1477:D:/fchai/work/i-cube/I-CUBE-HUAWEI/Middlewares/Third_Party/Huawei/iot_link/network/dtls/mbedtls/mbedtls-2.16.2/library\pkparse.c **** 
 3600              		.loc 1 1477 5 is_stmt 1 view .LVU1091
1477:D:/fchai/work/i-cube/I-CUBE-HUAWEI/Middlewares/Third_Party/Huawei/iot_link/network/dtls/mbedtls/mbedtls-2.16.2/library\pkparse.c **** 
 3601              		.loc 1 1477 11 is_stmt 0 view .LVU1092
 3602 009c FFF7FEFF 		bl	mbedtls_pk_parse_subpubkey
 3603              	.LVL429:
 3604 00a0 0446     		mov	r4, r0
 3605              	.LVL430:
1479:D:/fchai/work/i-cube/I-CUBE-HUAWEI/Middlewares/Third_Party/Huawei/iot_link/network/dtls/mbedtls/mbedtls-2.16.2/library\pkparse.c **** }
 3606              		.loc 1 1479 5 is_stmt 1 view .LVU1093
1479:D:/fchai/work/i-cube/I-CUBE-HUAWEI/Middlewares/Third_Party/Huawei/iot_link/network/dtls/mbedtls/mbedtls-2.16.2/library\pkparse.c **** }
 3607              		.loc 1 1479 11 is_stmt 0 view .LVU1094
 3608 00a2 CCE7     		b	.L301
 3609              	.LVL431:
 3610              	.L307:
1429:D:/fchai/work/i-cube/I-CUBE-HUAWEI/Middlewares/Third_Party/Huawei/iot_link/network/dtls/mbedtls/mbedtls-2.16.2/library\pkparse.c ****         ret = MBEDTLS_ERR_PEM_NO_HEADER_FOOTER_PRESENT;
 3611              		.loc 1 1429 5 is_stmt 1 view .LVU1095
1429:D:/fchai/work/i-cube/I-CUBE-HUAWEI/Middlewares/Third_Party/Huawei/iot_link/network/dtls/mbedtls/mbedtls-2.16.2/library\pkparse.c ****         ret = MBEDTLS_ERR_PEM_NO_HEADER_FOOTER_PRESENT;
 3612              		.loc 1 1429 7 is_stmt 0 view .LVU1096
 3613 00a4 17F80930 		ldrb	r3, [r7, r9]	@ zero_extendqisi2
 3614 00a8 002B     		cmp	r3, #0
 3615 00aa BAD1     		bne	.L303
1432:D:/fchai/work/i-cube/I-CUBE-HUAWEI/Middlewares/Third_Party/Huawei/iot_link/network/dtls/mbedtls/mbedtls-2.16.2/library\pkparse.c ****                 "-----BEGIN PUBLIC KEY-----",
ARM GAS  T:\msys\tmp\cc83OHoG.s 			page 110


 3616              		.loc 1 1432 9 is_stmt 1 view .LVU1097
1432:D:/fchai/work/i-cube/I-CUBE-HUAWEI/Middlewares/Third_Party/Huawei/iot_link/network/dtls/mbedtls/mbedtls-2.16.2/library\pkparse.c ****                 "-----BEGIN PUBLIC KEY-----",
 3617              		.loc 1 1432 15 is_stmt 0 view .LVU1098
 3618 00ac CDE90136 		strd	r3, r6, [sp, #4]
 3619 00b0 0093     		str	r3, [sp]
 3620 00b2 204A     		ldr	r2, .L330+12
 3621 00b4 2049     		ldr	r1, .L330+16
 3622 00b6 3B46     		mov	r3, r7
 3623 00b8 07A8     		add	r0, sp, #28
 3624 00ba FFF7FEFF 		bl	mbedtls_pem_read_buffer
 3625              	.LVL432:
1437:D:/fchai/work/i-cube/I-CUBE-HUAWEI/Middlewares/Third_Party/Huawei/iot_link/network/dtls/mbedtls/mbedtls-2.16.2/library\pkparse.c ****     {
 3626              		.loc 1 1437 5 is_stmt 1 view .LVU1099
1437:D:/fchai/work/i-cube/I-CUBE-HUAWEI/Middlewares/Third_Party/Huawei/iot_link/network/dtls/mbedtls/mbedtls-2.16.2/library\pkparse.c ****     {
 3627              		.loc 1 1437 7 is_stmt 0 view .LVU1100
 3628 00be 0446     		mov	r4, r0
 3629 00c0 08B3     		cbz	r0, .L328
 3630              	.LVL433:
1448:D:/fchai/work/i-cube/I-CUBE-HUAWEI/Middlewares/Third_Party/Huawei/iot_link/network/dtls/mbedtls/mbedtls-2.16.2/library\pkparse.c ****     {
 3631              		.loc 1 1448 10 is_stmt 1 view .LVU1101
1448:D:/fchai/work/i-cube/I-CUBE-HUAWEI/Middlewares/Third_Party/Huawei/iot_link/network/dtls/mbedtls/mbedtls-2.16.2/library\pkparse.c ****     {
 3632              		.loc 1 1448 12 is_stmt 0 view .LVU1102
 3633 00c2 10F5845F 		cmn	r0, #4224
 3634 00c6 ACD0     		beq	.L303
1450:D:/fchai/work/i-cube/I-CUBE-HUAWEI/Middlewares/Third_Party/Huawei/iot_link/network/dtls/mbedtls/mbedtls-2.16.2/library\pkparse.c ****         return( ret );
 3635              		.loc 1 1450 9 is_stmt 1 view .LVU1103
 3636 00c8 07A8     		add	r0, sp, #28
 3637 00ca FFF7FEFF 		bl	mbedtls_pem_free
 3638              	.LVL434:
1451:D:/fchai/work/i-cube/I-CUBE-HUAWEI/Middlewares/Third_Party/Huawei/iot_link/network/dtls/mbedtls/mbedtls-2.16.2/library\pkparse.c ****     }
 3639              		.loc 1 1451 9 view .LVU1104
 3640 00ce CDE7     		b	.L329
 3641              	.LVL435:
 3642              	.L327:
1408:D:/fchai/work/i-cube/I-CUBE-HUAWEI/Middlewares/Third_Party/Huawei/iot_link/network/dtls/mbedtls/mbedtls-2.16.2/library\pkparse.c ****         if( ( pk_info = mbedtls_pk_info_from_type( MBEDTLS_PK_RSA ) ) == NULL )
 3643              		.loc 1 1408 9 view .LVU1105
1408:D:/fchai/work/i-cube/I-CUBE-HUAWEI/Middlewares/Third_Party/Huawei/iot_link/network/dtls/mbedtls/mbedtls-2.16.2/library\pkparse.c ****         if( ( pk_info = mbedtls_pk_info_from_type( MBEDTLS_PK_RSA ) ) == NULL )
 3644              		.loc 1 1408 11 is_stmt 0 view .LVU1106
 3645 00d0 079B     		ldr	r3, [sp, #28]
 3646 00d2 0593     		str	r3, [sp, #20]
1409:D:/fchai/work/i-cube/I-CUBE-HUAWEI/Middlewares/Third_Party/Huawei/iot_link/network/dtls/mbedtls/mbedtls-2.16.2/library\pkparse.c ****             return( MBEDTLS_ERR_PK_UNKNOWN_PK_ALG );
 3647              		.loc 1 1409 9 is_stmt 1 view .LVU1107
1409:D:/fchai/work/i-cube/I-CUBE-HUAWEI/Middlewares/Third_Party/Huawei/iot_link/network/dtls/mbedtls/mbedtls-2.16.2/library\pkparse.c ****             return( MBEDTLS_ERR_PK_UNKNOWN_PK_ALG );
 3648              		.loc 1 1409 25 is_stmt 0 view .LVU1108
 3649 00d4 0120     		movs	r0, #1
 3650              	.LVL436:
1409:D:/fchai/work/i-cube/I-CUBE-HUAWEI/Middlewares/Third_Party/Huawei/iot_link/network/dtls/mbedtls/mbedtls-2.16.2/library\pkparse.c ****             return( MBEDTLS_ERR_PK_UNKNOWN_PK_ALG );
 3651              		.loc 1 1409 25 view .LVU1109
 3652 00d6 FFF7FEFF 		bl	mbedtls_pk_info_from_type
 3653              	.LVL437:
1409:D:/fchai/work/i-cube/I-CUBE-HUAWEI/Middlewares/Third_Party/Huawei/iot_link/network/dtls/mbedtls/mbedtls-2.16.2/library\pkparse.c ****             return( MBEDTLS_ERR_PK_UNKNOWN_PK_ALG );
 3654              		.loc 1 1409 11 view .LVU1110
 3655 00da 0146     		mov	r1, r0
 3656 00dc 10B3     		cbz	r0, .L309
1412:D:/fchai/work/i-cube/I-CUBE-HUAWEI/Middlewares/Third_Party/Huawei/iot_link/network/dtls/mbedtls/mbedtls-2.16.2/library\pkparse.c ****             return( ret );
 3657              		.loc 1 1412 9 is_stmt 1 view .LVU1111
1412:D:/fchai/work/i-cube/I-CUBE-HUAWEI/Middlewares/Third_Party/Huawei/iot_link/network/dtls/mbedtls/mbedtls-2.16.2/library\pkparse.c ****             return( ret );
ARM GAS  T:\msys\tmp\cc83OHoG.s 			page 111


 3658              		.loc 1 1412 21 is_stmt 0 view .LVU1112
 3659 00de 2846     		mov	r0, r5
 3660              	.LVL438:
1412:D:/fchai/work/i-cube/I-CUBE-HUAWEI/Middlewares/Third_Party/Huawei/iot_link/network/dtls/mbedtls/mbedtls-2.16.2/library\pkparse.c ****             return( ret );
 3661              		.loc 1 1412 21 view .LVU1113
 3662 00e0 FFF7FEFF 		bl	mbedtls_pk_setup
 3663              	.LVL439:
1412:D:/fchai/work/i-cube/I-CUBE-HUAWEI/Middlewares/Third_Party/Huawei/iot_link/network/dtls/mbedtls/mbedtls-2.16.2/library\pkparse.c ****             return( ret );
 3664              		.loc 1 1412 11 view .LVU1114
 3665 00e4 0446     		mov	r4, r0
 3666 00e6 0028     		cmp	r0, #0
 3667 00e8 A9D1     		bne	.L301
1415:D:/fchai/work/i-cube/I-CUBE-HUAWEI/Middlewares/Third_Party/Huawei/iot_link/network/dtls/mbedtls/mbedtls-2.16.2/library\pkparse.c ****             mbedtls_pk_free( ctx );
 3668              		.loc 1 1415 9 is_stmt 1 view .LVU1115
 159:D:/fchai/work/i-cube/I-CUBE-HUAWEI/Middlewares/Third_Party/Huawei/iot_link/network/dtls/mbedtls/mbedtls-2.16.2/include/mbedtls\pk.h **** }
 3669              		.loc 2 159 5 view .LVU1116
1415:D:/fchai/work/i-cube/I-CUBE-HUAWEI/Middlewares/Third_Party/Huawei/iot_link/network/dtls/mbedtls/mbedtls-2.16.2/library\pkparse.c ****             mbedtls_pk_free( ctx );
 3670              		.loc 1 1415 46 is_stmt 0 view .LVU1117
 3671 00ea 0599     		ldr	r1, [sp, #20]
 3672 00ec 089B     		ldr	r3, [sp, #32]
1415:D:/fchai/work/i-cube/I-CUBE-HUAWEI/Middlewares/Third_Party/Huawei/iot_link/network/dtls/mbedtls/mbedtls-2.16.2/library\pkparse.c ****             mbedtls_pk_free( ctx );
 3673              		.loc 1 1415 22 view .LVU1118
 3674 00ee 6A68     		ldr	r2, [r5, #4]
 3675 00f0 1944     		add	r1, r1, r3
 3676 00f2 05A8     		add	r0, sp, #20
 3677              	.LVL440:
1415:D:/fchai/work/i-cube/I-CUBE-HUAWEI/Middlewares/Third_Party/Huawei/iot_link/network/dtls/mbedtls/mbedtls-2.16.2/library\pkparse.c ****             mbedtls_pk_free( ctx );
 3678              		.loc 1 1415 22 view .LVU1119
 3679 00f4 FFF7FEFF 		bl	pk_get_rsapubkey
 3680              	.LVL441:
1415:D:/fchai/work/i-cube/I-CUBE-HUAWEI/Middlewares/Third_Party/Huawei/iot_link/network/dtls/mbedtls/mbedtls-2.16.2/library\pkparse.c ****             mbedtls_pk_free( ctx );
 3681              		.loc 1 1415 12 view .LVU1120
 3682 00f8 0446     		mov	r4, r0
 3683 00fa 0028     		cmp	r0, #0
 3684 00fc B3D0     		beq	.L324
1416:D:/fchai/work/i-cube/I-CUBE-HUAWEI/Middlewares/Third_Party/Huawei/iot_link/network/dtls/mbedtls/mbedtls-2.16.2/library\pkparse.c **** 
 3685              		.loc 1 1416 13 is_stmt 1 view .LVU1121
 3686 00fe 2846     		mov	r0, r5
 3687              	.LVL442:
1416:D:/fchai/work/i-cube/I-CUBE-HUAWEI/Middlewares/Third_Party/Huawei/iot_link/network/dtls/mbedtls/mbedtls-2.16.2/library\pkparse.c **** 
 3688              		.loc 1 1416 13 is_stmt 0 view .LVU1122
 3689 0100 FFF7FEFF 		bl	mbedtls_pk_free
 3690              	.LVL443:
1418:D:/fchai/work/i-cube/I-CUBE-HUAWEI/Middlewares/Third_Party/Huawei/iot_link/network/dtls/mbedtls/mbedtls-2.16.2/library\pkparse.c ****         return( ret );
 3691              		.loc 1 1418 9 is_stmt 1 view .LVU1123
 3692 0104 AFE7     		b	.L324
 3693              	.LVL444:
 3694              	.L328:
1442:D:/fchai/work/i-cube/I-CUBE-HUAWEI/Middlewares/Third_Party/Huawei/iot_link/network/dtls/mbedtls/mbedtls-2.16.2/library\pkparse.c **** 
 3695              		.loc 1 1442 9 view .LVU1124
1444:D:/fchai/work/i-cube/I-CUBE-HUAWEI/Middlewares/Third_Party/Huawei/iot_link/network/dtls/mbedtls/mbedtls-2.16.2/library\pkparse.c ****         mbedtls_pem_free( &pem );
 3696              		.loc 1 1444 50 is_stmt 0 view .LVU1125
 3697 0106 DDE90731 		ldrd	r3, r1, [sp, #28]
1444:D:/fchai/work/i-cube/I-CUBE-HUAWEI/Middlewares/Third_Party/Huawei/iot_link/network/dtls/mbedtls/mbedtls-2.16.2/library\pkparse.c ****         mbedtls_pem_free( &pem );
 3698              		.loc 1 1444 15 view .LVU1126
 3699 010a 2A46     		mov	r2, r5
 3700 010c 1944     		add	r1, r1, r3
ARM GAS  T:\msys\tmp\cc83OHoG.s 			page 112


 3701 010e 05A8     		add	r0, sp, #20
 3702              	.LVL445:
1442:D:/fchai/work/i-cube/I-CUBE-HUAWEI/Middlewares/Third_Party/Huawei/iot_link/network/dtls/mbedtls/mbedtls-2.16.2/library\pkparse.c **** 
 3703              		.loc 1 1442 11 view .LVU1127
 3704 0110 0593     		str	r3, [sp, #20]
1444:D:/fchai/work/i-cube/I-CUBE-HUAWEI/Middlewares/Third_Party/Huawei/iot_link/network/dtls/mbedtls/mbedtls-2.16.2/library\pkparse.c ****         mbedtls_pem_free( &pem );
 3705              		.loc 1 1444 9 is_stmt 1 view .LVU1128
1444:D:/fchai/work/i-cube/I-CUBE-HUAWEI/Middlewares/Third_Party/Huawei/iot_link/network/dtls/mbedtls/mbedtls-2.16.2/library\pkparse.c ****         mbedtls_pem_free( &pem );
 3706              		.loc 1 1444 15 is_stmt 0 view .LVU1129
 3707 0112 FFF7FEFF 		bl	mbedtls_pk_parse_subpubkey
 3708              	.LVL446:
 3709 0116 0446     		mov	r4, r0
 3710              	.LVL447:
1445:D:/fchai/work/i-cube/I-CUBE-HUAWEI/Middlewares/Third_Party/Huawei/iot_link/network/dtls/mbedtls/mbedtls-2.16.2/library\pkparse.c ****         return( ret );
 3711              		.loc 1 1445 9 view .LVU1130
 3712 0118 07A8     		add	r0, sp, #28
 3713              	.LVL448:
1445:D:/fchai/work/i-cube/I-CUBE-HUAWEI/Middlewares/Third_Party/Huawei/iot_link/network/dtls/mbedtls/mbedtls-2.16.2/library\pkparse.c ****         return( ret );
 3714              		.loc 1 1445 9 is_stmt 1 view .LVU1131
 3715 011a FFF7FEFF 		bl	mbedtls_pem_free
 3716              	.LVL449:
1446:D:/fchai/work/i-cube/I-CUBE-HUAWEI/Middlewares/Third_Party/Huawei/iot_link/network/dtls/mbedtls/mbedtls-2.16.2/library\pkparse.c ****     }
 3717              		.loc 1 1446 9 view .LVU1132
1446:D:/fchai/work/i-cube/I-CUBE-HUAWEI/Middlewares/Third_Party/Huawei/iot_link/network/dtls/mbedtls/mbedtls-2.16.2/library\pkparse.c ****     }
 3718              		.loc 1 1446 15 is_stmt 0 view .LVU1133
 3719 011e 8EE7     		b	.L301
 3720              	.LVL450:
 3721              	.L310:
1391:D:/fchai/work/i-cube/I-CUBE-HUAWEI/Middlewares/Third_Party/Huawei/iot_link/network/dtls/mbedtls/mbedtls-2.16.2/library\pkparse.c ****     PK_VALIDATE_RET( key != NULL || keylen == 0 );
 3722              		.loc 1 1391 15 view .LVU1134
 3723 0120 064C     		ldr	r4, .L330+20
 3724 0122 8CE7     		b	.L301
 3725              	.LVL451:
 3726              	.L309:
1410:D:/fchai/work/i-cube/I-CUBE-HUAWEI/Middlewares/Third_Party/Huawei/iot_link/network/dtls/mbedtls/mbedtls-2.16.2/library\pkparse.c **** 
 3727              		.loc 1 1410 19 view .LVU1135
 3728 0124 064C     		ldr	r4, .L330+24
 3729 0126 8AE7     		b	.L301
 3730              	.L331:
 3731              		.align	2
 3732              	.L330:
 3733 0128 00000000 		.word	.LC11
 3734 012c 20000000 		.word	.LC12
 3735 0130 9EC4FFFF 		.word	-15202
 3736 0134 40000000 		.word	.LC13
 3737 0138 5C000000 		.word	.LC14
 3738 013c 00C3FFFF 		.word	-15616
 3739 0140 80C3FFFF 		.word	-15488
 3740              		.cfi_endproc
 3741              	.LFE27:
 3743              		.text
 3744              	.Letext0:
 3745              		.file 3 "t:\\msys\\3rd\\gcc-arm-none-eabi-9-2020-q2-update-win32\\arm-none-eabi\\include\\machine\
 3746              		.file 4 "t:\\msys\\3rd\\gcc-arm-none-eabi-9-2020-q2-update-win32\\lib\\gcc\\arm-none-eabi\\9.3.1\\
 3747              		.file 5 "D:/fchai/work/i-cube/I-CUBE-HUAWEI/Middlewares/Third_Party/Huawei/iot_link/network/dtls/m
 3748              		.file 6 "t:\\msys\\3rd\\gcc-arm-none-eabi-9-2020-q2-update-win32\\arm-none-eabi\\include\\sys\\_st
 3749              		.file 7 "D:/fchai/work/i-cube/I-CUBE-HUAWEI/Middlewares/Third_Party/Huawei/iot_link/network/dtls/m
ARM GAS  T:\msys\tmp\cc83OHoG.s 			page 113


 3750              		.file 8 "D:/fchai/work/i-cube/I-CUBE-HUAWEI/Middlewares/Third_Party/Huawei/iot_link/network/dtls/m
 3751              		.file 9 "D:/fchai/work/i-cube/I-CUBE-HUAWEI/Middlewares/Third_Party/Huawei/iot_link/network/dtls/m
 3752              		.file 10 "D:/fchai/work/i-cube/I-CUBE-HUAWEI/Middlewares/Third_Party/Huawei/iot_link/network/dtls/
 3753              		.file 11 "D:/fchai/work/i-cube/I-CUBE-HUAWEI/Middlewares/Third_Party/Huawei/iot_link/network/dtls/
 3754              		.file 12 "t:\\msys\\3rd\\gcc-arm-none-eabi-9-2020-q2-update-win32\\arm-none-eabi\\include\\sys\\_t
 3755              		.file 13 "t:\\msys\\3rd\\gcc-arm-none-eabi-9-2020-q2-update-win32\\arm-none-eabi\\include\\sys\\re
 3756              		.file 14 "t:\\msys\\3rd\\gcc-arm-none-eabi-9-2020-q2-update-win32\\arm-none-eabi\\include\\sys\\lo
 3757              		.file 15 "D:/fchai/work/i-cube/I-CUBE-HUAWEI/Middlewares/Third_Party/Huawei/iot_link/network/dtls/
 3758              		.file 16 "t:\\msys\\3rd\\gcc-arm-none-eabi-9-2020-q2-update-win32\\arm-none-eabi\\include\\stdlib.
 3759              		.file 17 "t:\\msys\\3rd\\gcc-arm-none-eabi-9-2020-q2-update-win32\\arm-none-eabi\\include\\time.h"
 3760              		.file 18 "D:/fchai/work/i-cube/I-CUBE-HUAWEI/Middlewares/Third_Party/Huawei/iot_link/network/dtls/
 3761              		.file 19 "D:/fchai/work/i-cube/I-CUBE-HUAWEI/Middlewares/Third_Party/Huawei/iot_link/network/dtls/
 3762              		.file 20 "D:/fchai/work/i-cube/I-CUBE-HUAWEI/Middlewares/Third_Party/Huawei/iot_link/network/dtls/
 3763              		.file 21 "<built-in>"
 3764              		.file 22 "D:/fchai/work/i-cube/I-CUBE-HUAWEI/Middlewares/Third_Party/Huawei/iot_link/network/dtls/
 3765              		.file 23 "D:/fchai/work/i-cube/I-CUBE-HUAWEI/Middlewares/Third_Party/Huawei/iot_link/network/dtls/
ARM GAS  T:\msys\tmp\cc83OHoG.s 			page 114


DEFINED SYMBOLS
                            *ABS*:00000000 pkparse.c
T:\msys\tmp\cc83OHoG.s:18     .text.pk_get_rsapubkey:00000000 $t
T:\msys\tmp\cc83OHoG.s:26     .text.pk_get_rsapubkey:00000000 pk_get_rsapubkey
T:\msys\tmp\cc83OHoG.s:190    .text.pk_get_rsapubkey:000000b0 $d
T:\msys\tmp\cc83OHoG.s:196    .text.pk_parse_key_pkcs1_der:00000000 $t
T:\msys\tmp\cc83OHoG.s:203    .text.pk_parse_key_pkcs1_der:00000000 pk_parse_key_pkcs1_der
T:\msys\tmp\cc83OHoG.s:634    .text.pk_parse_key_pkcs1_der:00000208 $d
T:\msys\tmp\cc83OHoG.s:640    .text.pk_get_pk_alg:00000000 $t
T:\msys\tmp\cc83OHoG.s:647    .text.pk_get_pk_alg:00000000 pk_get_pk_alg
T:\msys\tmp\cc83OHoG.s:766    .text.pk_get_pk_alg:00000050 $d
T:\msys\tmp\cc83OHoG.s:774    .rodata.pk_use_ecparams.str1.4:00000000 $d
T:\msys\tmp\cc83OHoG.s:778    .text.pk_use_ecparams:00000000 $t
T:\msys\tmp\cc83OHoG.s:785    .text.pk_use_ecparams:00000000 pk_use_ecparams
T:\msys\tmp\cc83OHoG.s:1549   .text.pk_use_ecparams:000002dc $d
T:\msys\tmp\cc83OHoG.s:1563   .text.pk_parse_key_sec1_der:00000000 $t
T:\msys\tmp\cc83OHoG.s:1570   .text.pk_parse_key_sec1_der:00000000 pk_parse_key_sec1_der
T:\msys\tmp\cc83OHoG.s:2036   .text.pk_parse_key_sec1_der:00000190 $d
T:\msys\tmp\cc83OHoG.s:2047   .text.pk_parse_key_pkcs8_unencrypted_der:00000000 $t
T:\msys\tmp\cc83OHoG.s:2054   .text.pk_parse_key_pkcs8_unencrypted_der:00000000 pk_parse_key_pkcs8_unencrypted_der
T:\msys\tmp\cc83OHoG.s:2301   .text.pk_parse_key_pkcs8_unencrypted_der:000000dc $d
T:\msys\tmp\cc83OHoG.s:2308   .rodata.pk_parse_key_pkcs8_encrypted_der.str1.4:00000000 $d
T:\msys\tmp\cc83OHoG.s:2315   .text.pk_parse_key_pkcs8_encrypted_der:00000000 $t
T:\msys\tmp\cc83OHoG.s:2322   .text.pk_parse_key_pkcs8_encrypted_der:00000000 pk_parse_key_pkcs8_encrypted_der
T:\msys\tmp\cc83OHoG.s:2570   .text.pk_parse_key_pkcs8_encrypted_der:00000104 $d
T:\msys\tmp\cc83OHoG.s:2579   .text.mbedtls_pk_parse_subpubkey:00000000 $t
T:\msys\tmp\cc83OHoG.s:2587   .text.mbedtls_pk_parse_subpubkey:00000000 mbedtls_pk_parse_subpubkey
T:\msys\tmp\cc83OHoG.s:2866   .text.mbedtls_pk_parse_subpubkey:000000e8 $d
T:\msys\tmp\cc83OHoG.s:2872   .rodata.mbedtls_pk_parse_key.str1.4:00000000 $d
T:\msys\tmp\cc83OHoG.s:2897   .text.mbedtls_pk_parse_key:00000000 $t
T:\msys\tmp\cc83OHoG.s:2905   .text.mbedtls_pk_parse_key:00000000 mbedtls_pk_parse_key
T:\msys\tmp\cc83OHoG.s:3393   .text.mbedtls_pk_parse_key:00000244 $d
T:\msys\tmp\cc83OHoG.s:3409   .rodata.mbedtls_pk_parse_public_key.str1.4:00000000 $d
T:\msys\tmp\cc83OHoG.s:3422   .text.mbedtls_pk_parse_public_key:00000000 $t
T:\msys\tmp\cc83OHoG.s:3430   .text.mbedtls_pk_parse_public_key:00000000 mbedtls_pk_parse_public_key
T:\msys\tmp\cc83OHoG.s:3733   .text.mbedtls_pk_parse_public_key:00000128 $d

UNDEFINED SYMBOLS
mbedtls_asn1_get_tag
mbedtls_rsa_import_raw
mbedtls_rsa_complete
mbedtls_rsa_check_pubkey
mbedtls_mpi_init
mbedtls_asn1_get_int
mbedtls_mpi_free
mbedtls_rsa_free
mbedtls_asn1_get_mpi
mbedtls_asn1_get_alg
mbedtls_oid_get_pk_alg
mbedtls_ecp_group_init
memcmp
mbedtls_mpi_bitlen
mbedtls_ecp_group_free
mbedtls_ecp_grp_id_list
mbedtls_ecp_group_load
mbedtls_mpi_cmp_mpi
mbedtls_mpi_get_bit
ARM GAS  T:\msys\tmp\cc83OHoG.s 			page 115


mbedtls_oid_get_ec_grp
mbedtls_mpi_read_binary
mbedtls_ecp_point_read_binary
mbedtls_mpi_size
mbedtls_mpi_lset
mbedtls_ecp_mul
mbedtls_ecp_check_privkey
mbedtls_ecp_keypair_free
mbedtls_asn1_get_bitstring_null
mbedtls_ecp_check_pubkey
mbedtls_pk_info_from_type
mbedtls_pk_setup
mbedtls_pk_free
mbedtls_oid_get_pkcs12_pbe_alg
mbedtls_pkcs5_pbes2
mbedtls_pkcs12_pbe_sha1_rc4_128
mbedtls_pkcs12_pbe
mbedtls_pem_init
mbedtls_calloc
memcpy
mbedtls_platform_zeroize
mbedtls_free
mbedtls_pk_init
mbedtls_pem_read_buffer
mbedtls_pem_free
