ARM GAS  T:\msys\tmp\cc683j1t.s 			page 1


   1              		.cpu cortex-m4
   2              		.eabi_attribute 27, 1
   3              		.eabi_attribute 28, 1
   4              		.eabi_attribute 20, 1
   5              		.eabi_attribute 21, 1
   6              		.eabi_attribute 23, 3
   7              		.eabi_attribute 24, 1
   8              		.eabi_attribute 25, 1
   9              		.eabi_attribute 26, 1
  10              		.eabi_attribute 30, 2
  11              		.eabi_attribute 34, 1
  12              		.eabi_attribute 18, 4
  13              		.file	"pkwrite.c"
  14              		.text
  15              	.Ltext0:
  16              		.cfi_sections	.debug_frame
  17              		.section	.text.pk_write_ec_pubkey,"ax",%progbits
  18              		.align	1
  19              		.p2align 2,,3
  20              		.arch armv7e-m
  21              		.syntax unified
  22              		.thumb
  23              		.thumb_func
  24              		.fpu fpv4-sp-d16
  26              	pk_write_ec_pubkey:
  27              	.LVL0:
  28              	.LFB14:
  29              		.file 1 "D:/fchai/work/i-cube/I-CUBE-HUAWEI/Middlewares/Third_Party/Huawei/iot_link/network/dtls/m
   1:D:/fchai/work/i-cube/I-CUBE-HUAWEI/Middlewares/Third_Party/Huawei/iot_link/network/dtls/mbedtls/mbedtls-2.16.2/library\pkwrite.c **** /*
   2:D:/fchai/work/i-cube/I-CUBE-HUAWEI/Middlewares/Third_Party/Huawei/iot_link/network/dtls/mbedtls/mbedtls-2.16.2/library\pkwrite.c ****  *  Public Key layer for writing key files and structures
   3:D:/fchai/work/i-cube/I-CUBE-HUAWEI/Middlewares/Third_Party/Huawei/iot_link/network/dtls/mbedtls/mbedtls-2.16.2/library\pkwrite.c ****  *
   4:D:/fchai/work/i-cube/I-CUBE-HUAWEI/Middlewares/Third_Party/Huawei/iot_link/network/dtls/mbedtls/mbedtls-2.16.2/library\pkwrite.c ****  *  Copyright (C) 2006-2015, ARM Limited, All Rights Reserved
   5:D:/fchai/work/i-cube/I-CUBE-HUAWEI/Middlewares/Third_Party/Huawei/iot_link/network/dtls/mbedtls/mbedtls-2.16.2/library\pkwrite.c ****  *  SPDX-License-Identifier: Apache-2.0
   6:D:/fchai/work/i-cube/I-CUBE-HUAWEI/Middlewares/Third_Party/Huawei/iot_link/network/dtls/mbedtls/mbedtls-2.16.2/library\pkwrite.c ****  *
   7:D:/fchai/work/i-cube/I-CUBE-HUAWEI/Middlewares/Third_Party/Huawei/iot_link/network/dtls/mbedtls/mbedtls-2.16.2/library\pkwrite.c ****  *  Licensed under the Apache License, Version 2.0 (the "License"); you may
   8:D:/fchai/work/i-cube/I-CUBE-HUAWEI/Middlewares/Third_Party/Huawei/iot_link/network/dtls/mbedtls/mbedtls-2.16.2/library\pkwrite.c ****  *  not use this file except in compliance with the License.
   9:D:/fchai/work/i-cube/I-CUBE-HUAWEI/Middlewares/Third_Party/Huawei/iot_link/network/dtls/mbedtls/mbedtls-2.16.2/library\pkwrite.c ****  *  You may obtain a copy of the License at
  10:D:/fchai/work/i-cube/I-CUBE-HUAWEI/Middlewares/Third_Party/Huawei/iot_link/network/dtls/mbedtls/mbedtls-2.16.2/library\pkwrite.c ****  *
  11:D:/fchai/work/i-cube/I-CUBE-HUAWEI/Middlewares/Third_Party/Huawei/iot_link/network/dtls/mbedtls/mbedtls-2.16.2/library\pkwrite.c ****  *  http://www.apache.org/licenses/LICENSE-2.0
  12:D:/fchai/work/i-cube/I-CUBE-HUAWEI/Middlewares/Third_Party/Huawei/iot_link/network/dtls/mbedtls/mbedtls-2.16.2/library\pkwrite.c ****  *
  13:D:/fchai/work/i-cube/I-CUBE-HUAWEI/Middlewares/Third_Party/Huawei/iot_link/network/dtls/mbedtls/mbedtls-2.16.2/library\pkwrite.c ****  *  Unless required by applicable law or agreed to in writing, software
  14:D:/fchai/work/i-cube/I-CUBE-HUAWEI/Middlewares/Third_Party/Huawei/iot_link/network/dtls/mbedtls/mbedtls-2.16.2/library\pkwrite.c ****  *  distributed under the License is distributed on an "AS IS" BASIS, WITHOUT
  15:D:/fchai/work/i-cube/I-CUBE-HUAWEI/Middlewares/Third_Party/Huawei/iot_link/network/dtls/mbedtls/mbedtls-2.16.2/library\pkwrite.c ****  *  WARRANTIES OR CONDITIONS OF ANY KIND, either express or implied.
  16:D:/fchai/work/i-cube/I-CUBE-HUAWEI/Middlewares/Third_Party/Huawei/iot_link/network/dtls/mbedtls/mbedtls-2.16.2/library\pkwrite.c ****  *  See the License for the specific language governing permissions and
  17:D:/fchai/work/i-cube/I-CUBE-HUAWEI/Middlewares/Third_Party/Huawei/iot_link/network/dtls/mbedtls/mbedtls-2.16.2/library\pkwrite.c ****  *  limitations under the License.
  18:D:/fchai/work/i-cube/I-CUBE-HUAWEI/Middlewares/Third_Party/Huawei/iot_link/network/dtls/mbedtls/mbedtls-2.16.2/library\pkwrite.c ****  *
  19:D:/fchai/work/i-cube/I-CUBE-HUAWEI/Middlewares/Third_Party/Huawei/iot_link/network/dtls/mbedtls/mbedtls-2.16.2/library\pkwrite.c ****  *  This file is part of mbed TLS (https://tls.mbed.org)
  20:D:/fchai/work/i-cube/I-CUBE-HUAWEI/Middlewares/Third_Party/Huawei/iot_link/network/dtls/mbedtls/mbedtls-2.16.2/library\pkwrite.c ****  */
  21:D:/fchai/work/i-cube/I-CUBE-HUAWEI/Middlewares/Third_Party/Huawei/iot_link/network/dtls/mbedtls/mbedtls-2.16.2/library\pkwrite.c **** 
  22:D:/fchai/work/i-cube/I-CUBE-HUAWEI/Middlewares/Third_Party/Huawei/iot_link/network/dtls/mbedtls/mbedtls-2.16.2/library\pkwrite.c **** #if !defined(MBEDTLS_CONFIG_FILE)
  23:D:/fchai/work/i-cube/I-CUBE-HUAWEI/Middlewares/Third_Party/Huawei/iot_link/network/dtls/mbedtls/mbedtls-2.16.2/library\pkwrite.c **** #include "mbedtls/config.h"
  24:D:/fchai/work/i-cube/I-CUBE-HUAWEI/Middlewares/Third_Party/Huawei/iot_link/network/dtls/mbedtls/mbedtls-2.16.2/library\pkwrite.c **** #else
  25:D:/fchai/work/i-cube/I-CUBE-HUAWEI/Middlewares/Third_Party/Huawei/iot_link/network/dtls/mbedtls/mbedtls-2.16.2/library\pkwrite.c **** #include MBEDTLS_CONFIG_FILE
  26:D:/fchai/work/i-cube/I-CUBE-HUAWEI/Middlewares/Third_Party/Huawei/iot_link/network/dtls/mbedtls/mbedtls-2.16.2/library\pkwrite.c **** #endif
  27:D:/fchai/work/i-cube/I-CUBE-HUAWEI/Middlewares/Third_Party/Huawei/iot_link/network/dtls/mbedtls/mbedtls-2.16.2/library\pkwrite.c **** 
  28:D:/fchai/work/i-cube/I-CUBE-HUAWEI/Middlewares/Third_Party/Huawei/iot_link/network/dtls/mbedtls/mbedtls-2.16.2/library\pkwrite.c **** #if defined(MBEDTLS_PK_WRITE_C)
  29:D:/fchai/work/i-cube/I-CUBE-HUAWEI/Middlewares/Third_Party/Huawei/iot_link/network/dtls/mbedtls/mbedtls-2.16.2/library\pkwrite.c **** 
ARM GAS  T:\msys\tmp\cc683j1t.s 			page 2


  30:D:/fchai/work/i-cube/I-CUBE-HUAWEI/Middlewares/Third_Party/Huawei/iot_link/network/dtls/mbedtls/mbedtls-2.16.2/library\pkwrite.c **** #include "mbedtls/pk.h"
  31:D:/fchai/work/i-cube/I-CUBE-HUAWEI/Middlewares/Third_Party/Huawei/iot_link/network/dtls/mbedtls/mbedtls-2.16.2/library\pkwrite.c **** #include "mbedtls/asn1write.h"
  32:D:/fchai/work/i-cube/I-CUBE-HUAWEI/Middlewares/Third_Party/Huawei/iot_link/network/dtls/mbedtls/mbedtls-2.16.2/library\pkwrite.c **** #include "mbedtls/oid.h"
  33:D:/fchai/work/i-cube/I-CUBE-HUAWEI/Middlewares/Third_Party/Huawei/iot_link/network/dtls/mbedtls/mbedtls-2.16.2/library\pkwrite.c **** #include "mbedtls/platform_util.h"
  34:D:/fchai/work/i-cube/I-CUBE-HUAWEI/Middlewares/Third_Party/Huawei/iot_link/network/dtls/mbedtls/mbedtls-2.16.2/library\pkwrite.c **** 
  35:D:/fchai/work/i-cube/I-CUBE-HUAWEI/Middlewares/Third_Party/Huawei/iot_link/network/dtls/mbedtls/mbedtls-2.16.2/library\pkwrite.c **** #include <string.h>
  36:D:/fchai/work/i-cube/I-CUBE-HUAWEI/Middlewares/Third_Party/Huawei/iot_link/network/dtls/mbedtls/mbedtls-2.16.2/library\pkwrite.c **** 
  37:D:/fchai/work/i-cube/I-CUBE-HUAWEI/Middlewares/Third_Party/Huawei/iot_link/network/dtls/mbedtls/mbedtls-2.16.2/library\pkwrite.c **** #if defined(MBEDTLS_RSA_C)
  38:D:/fchai/work/i-cube/I-CUBE-HUAWEI/Middlewares/Third_Party/Huawei/iot_link/network/dtls/mbedtls/mbedtls-2.16.2/library\pkwrite.c **** #include "mbedtls/rsa.h"
  39:D:/fchai/work/i-cube/I-CUBE-HUAWEI/Middlewares/Third_Party/Huawei/iot_link/network/dtls/mbedtls/mbedtls-2.16.2/library\pkwrite.c **** #endif
  40:D:/fchai/work/i-cube/I-CUBE-HUAWEI/Middlewares/Third_Party/Huawei/iot_link/network/dtls/mbedtls/mbedtls-2.16.2/library\pkwrite.c **** #if defined(MBEDTLS_ECP_C)
  41:D:/fchai/work/i-cube/I-CUBE-HUAWEI/Middlewares/Third_Party/Huawei/iot_link/network/dtls/mbedtls/mbedtls-2.16.2/library\pkwrite.c **** #include "mbedtls/ecp.h"
  42:D:/fchai/work/i-cube/I-CUBE-HUAWEI/Middlewares/Third_Party/Huawei/iot_link/network/dtls/mbedtls/mbedtls-2.16.2/library\pkwrite.c **** #endif
  43:D:/fchai/work/i-cube/I-CUBE-HUAWEI/Middlewares/Third_Party/Huawei/iot_link/network/dtls/mbedtls/mbedtls-2.16.2/library\pkwrite.c **** #if defined(MBEDTLS_ECDSA_C)
  44:D:/fchai/work/i-cube/I-CUBE-HUAWEI/Middlewares/Third_Party/Huawei/iot_link/network/dtls/mbedtls/mbedtls-2.16.2/library\pkwrite.c **** #include "mbedtls/ecdsa.h"
  45:D:/fchai/work/i-cube/I-CUBE-HUAWEI/Middlewares/Third_Party/Huawei/iot_link/network/dtls/mbedtls/mbedtls-2.16.2/library\pkwrite.c **** #endif
  46:D:/fchai/work/i-cube/I-CUBE-HUAWEI/Middlewares/Third_Party/Huawei/iot_link/network/dtls/mbedtls/mbedtls-2.16.2/library\pkwrite.c **** #if defined(MBEDTLS_PEM_WRITE_C)
  47:D:/fchai/work/i-cube/I-CUBE-HUAWEI/Middlewares/Third_Party/Huawei/iot_link/network/dtls/mbedtls/mbedtls-2.16.2/library\pkwrite.c **** #include "mbedtls/pem.h"
  48:D:/fchai/work/i-cube/I-CUBE-HUAWEI/Middlewares/Third_Party/Huawei/iot_link/network/dtls/mbedtls/mbedtls-2.16.2/library\pkwrite.c **** #endif
  49:D:/fchai/work/i-cube/I-CUBE-HUAWEI/Middlewares/Third_Party/Huawei/iot_link/network/dtls/mbedtls/mbedtls-2.16.2/library\pkwrite.c **** 
  50:D:/fchai/work/i-cube/I-CUBE-HUAWEI/Middlewares/Third_Party/Huawei/iot_link/network/dtls/mbedtls/mbedtls-2.16.2/library\pkwrite.c **** #if defined(MBEDTLS_PLATFORM_C)
  51:D:/fchai/work/i-cube/I-CUBE-HUAWEI/Middlewares/Third_Party/Huawei/iot_link/network/dtls/mbedtls/mbedtls-2.16.2/library\pkwrite.c **** #include "mbedtls/platform.h"
  52:D:/fchai/work/i-cube/I-CUBE-HUAWEI/Middlewares/Third_Party/Huawei/iot_link/network/dtls/mbedtls/mbedtls-2.16.2/library\pkwrite.c **** #else
  53:D:/fchai/work/i-cube/I-CUBE-HUAWEI/Middlewares/Third_Party/Huawei/iot_link/network/dtls/mbedtls/mbedtls-2.16.2/library\pkwrite.c **** #include <stdlib.h>
  54:D:/fchai/work/i-cube/I-CUBE-HUAWEI/Middlewares/Third_Party/Huawei/iot_link/network/dtls/mbedtls/mbedtls-2.16.2/library\pkwrite.c **** #define mbedtls_calloc    calloc
  55:D:/fchai/work/i-cube/I-CUBE-HUAWEI/Middlewares/Third_Party/Huawei/iot_link/network/dtls/mbedtls/mbedtls-2.16.2/library\pkwrite.c **** #define mbedtls_free       free
  56:D:/fchai/work/i-cube/I-CUBE-HUAWEI/Middlewares/Third_Party/Huawei/iot_link/network/dtls/mbedtls/mbedtls-2.16.2/library\pkwrite.c **** #endif
  57:D:/fchai/work/i-cube/I-CUBE-HUAWEI/Middlewares/Third_Party/Huawei/iot_link/network/dtls/mbedtls/mbedtls-2.16.2/library\pkwrite.c **** 
  58:D:/fchai/work/i-cube/I-CUBE-HUAWEI/Middlewares/Third_Party/Huawei/iot_link/network/dtls/mbedtls/mbedtls-2.16.2/library\pkwrite.c **** /* Parameter validation macros based on platform_util.h */
  59:D:/fchai/work/i-cube/I-CUBE-HUAWEI/Middlewares/Third_Party/Huawei/iot_link/network/dtls/mbedtls/mbedtls-2.16.2/library\pkwrite.c **** #define PK_VALIDATE_RET( cond )    \
  60:D:/fchai/work/i-cube/I-CUBE-HUAWEI/Middlewares/Third_Party/Huawei/iot_link/network/dtls/mbedtls/mbedtls-2.16.2/library\pkwrite.c ****     MBEDTLS_INTERNAL_VALIDATE_RET( cond, MBEDTLS_ERR_PK_BAD_INPUT_DATA )
  61:D:/fchai/work/i-cube/I-CUBE-HUAWEI/Middlewares/Third_Party/Huawei/iot_link/network/dtls/mbedtls/mbedtls-2.16.2/library\pkwrite.c **** #define PK_VALIDATE( cond )        \
  62:D:/fchai/work/i-cube/I-CUBE-HUAWEI/Middlewares/Third_Party/Huawei/iot_link/network/dtls/mbedtls/mbedtls-2.16.2/library\pkwrite.c ****     MBEDTLS_INTERNAL_VALIDATE( cond )
  63:D:/fchai/work/i-cube/I-CUBE-HUAWEI/Middlewares/Third_Party/Huawei/iot_link/network/dtls/mbedtls/mbedtls-2.16.2/library\pkwrite.c **** 
  64:D:/fchai/work/i-cube/I-CUBE-HUAWEI/Middlewares/Third_Party/Huawei/iot_link/network/dtls/mbedtls/mbedtls-2.16.2/library\pkwrite.c **** #if defined(MBEDTLS_RSA_C)
  65:D:/fchai/work/i-cube/I-CUBE-HUAWEI/Middlewares/Third_Party/Huawei/iot_link/network/dtls/mbedtls/mbedtls-2.16.2/library\pkwrite.c **** /*
  66:D:/fchai/work/i-cube/I-CUBE-HUAWEI/Middlewares/Third_Party/Huawei/iot_link/network/dtls/mbedtls/mbedtls-2.16.2/library\pkwrite.c ****  *  RSAPublicKey ::= SEQUENCE {
  67:D:/fchai/work/i-cube/I-CUBE-HUAWEI/Middlewares/Third_Party/Huawei/iot_link/network/dtls/mbedtls/mbedtls-2.16.2/library\pkwrite.c ****  *      modulus           INTEGER,  -- n
  68:D:/fchai/work/i-cube/I-CUBE-HUAWEI/Middlewares/Third_Party/Huawei/iot_link/network/dtls/mbedtls/mbedtls-2.16.2/library\pkwrite.c ****  *      publicExponent    INTEGER   -- e
  69:D:/fchai/work/i-cube/I-CUBE-HUAWEI/Middlewares/Third_Party/Huawei/iot_link/network/dtls/mbedtls/mbedtls-2.16.2/library\pkwrite.c ****  *  }
  70:D:/fchai/work/i-cube/I-CUBE-HUAWEI/Middlewares/Third_Party/Huawei/iot_link/network/dtls/mbedtls/mbedtls-2.16.2/library\pkwrite.c ****  */
  71:D:/fchai/work/i-cube/I-CUBE-HUAWEI/Middlewares/Third_Party/Huawei/iot_link/network/dtls/mbedtls/mbedtls-2.16.2/library\pkwrite.c **** static int pk_write_rsa_pubkey( unsigned char **p, unsigned char *start,
  72:D:/fchai/work/i-cube/I-CUBE-HUAWEI/Middlewares/Third_Party/Huawei/iot_link/network/dtls/mbedtls/mbedtls-2.16.2/library\pkwrite.c ****                                 mbedtls_rsa_context *rsa )
  73:D:/fchai/work/i-cube/I-CUBE-HUAWEI/Middlewares/Third_Party/Huawei/iot_link/network/dtls/mbedtls/mbedtls-2.16.2/library\pkwrite.c **** {
  74:D:/fchai/work/i-cube/I-CUBE-HUAWEI/Middlewares/Third_Party/Huawei/iot_link/network/dtls/mbedtls/mbedtls-2.16.2/library\pkwrite.c ****     int ret;
  75:D:/fchai/work/i-cube/I-CUBE-HUAWEI/Middlewares/Third_Party/Huawei/iot_link/network/dtls/mbedtls/mbedtls-2.16.2/library\pkwrite.c ****     size_t len = 0;
  76:D:/fchai/work/i-cube/I-CUBE-HUAWEI/Middlewares/Third_Party/Huawei/iot_link/network/dtls/mbedtls/mbedtls-2.16.2/library\pkwrite.c ****     mbedtls_mpi T;
  77:D:/fchai/work/i-cube/I-CUBE-HUAWEI/Middlewares/Third_Party/Huawei/iot_link/network/dtls/mbedtls/mbedtls-2.16.2/library\pkwrite.c **** 
  78:D:/fchai/work/i-cube/I-CUBE-HUAWEI/Middlewares/Third_Party/Huawei/iot_link/network/dtls/mbedtls/mbedtls-2.16.2/library\pkwrite.c ****     mbedtls_mpi_init( &T );
  79:D:/fchai/work/i-cube/I-CUBE-HUAWEI/Middlewares/Third_Party/Huawei/iot_link/network/dtls/mbedtls/mbedtls-2.16.2/library\pkwrite.c **** 
  80:D:/fchai/work/i-cube/I-CUBE-HUAWEI/Middlewares/Third_Party/Huawei/iot_link/network/dtls/mbedtls/mbedtls-2.16.2/library\pkwrite.c ****     /* Export E */
  81:D:/fchai/work/i-cube/I-CUBE-HUAWEI/Middlewares/Third_Party/Huawei/iot_link/network/dtls/mbedtls/mbedtls-2.16.2/library\pkwrite.c ****     if ( ( ret = mbedtls_rsa_export( rsa, NULL, NULL, NULL, NULL, &T ) ) != 0 ||
  82:D:/fchai/work/i-cube/I-CUBE-HUAWEI/Middlewares/Third_Party/Huawei/iot_link/network/dtls/mbedtls/mbedtls-2.16.2/library\pkwrite.c ****          ( ret = mbedtls_asn1_write_mpi( p, start, &T ) ) < 0 )
  83:D:/fchai/work/i-cube/I-CUBE-HUAWEI/Middlewares/Third_Party/Huawei/iot_link/network/dtls/mbedtls/mbedtls-2.16.2/library\pkwrite.c ****         goto end_of_export;
  84:D:/fchai/work/i-cube/I-CUBE-HUAWEI/Middlewares/Third_Party/Huawei/iot_link/network/dtls/mbedtls/mbedtls-2.16.2/library\pkwrite.c ****     len += ret;
  85:D:/fchai/work/i-cube/I-CUBE-HUAWEI/Middlewares/Third_Party/Huawei/iot_link/network/dtls/mbedtls/mbedtls-2.16.2/library\pkwrite.c **** 
  86:D:/fchai/work/i-cube/I-CUBE-HUAWEI/Middlewares/Third_Party/Huawei/iot_link/network/dtls/mbedtls/mbedtls-2.16.2/library\pkwrite.c ****     /* Export N */
ARM GAS  T:\msys\tmp\cc683j1t.s 			page 3


  87:D:/fchai/work/i-cube/I-CUBE-HUAWEI/Middlewares/Third_Party/Huawei/iot_link/network/dtls/mbedtls/mbedtls-2.16.2/library\pkwrite.c ****     if ( ( ret = mbedtls_rsa_export( rsa, &T, NULL, NULL, NULL, NULL ) ) != 0 ||
  88:D:/fchai/work/i-cube/I-CUBE-HUAWEI/Middlewares/Third_Party/Huawei/iot_link/network/dtls/mbedtls/mbedtls-2.16.2/library\pkwrite.c ****          ( ret = mbedtls_asn1_write_mpi( p, start, &T ) ) < 0 )
  89:D:/fchai/work/i-cube/I-CUBE-HUAWEI/Middlewares/Third_Party/Huawei/iot_link/network/dtls/mbedtls/mbedtls-2.16.2/library\pkwrite.c ****         goto end_of_export;
  90:D:/fchai/work/i-cube/I-CUBE-HUAWEI/Middlewares/Third_Party/Huawei/iot_link/network/dtls/mbedtls/mbedtls-2.16.2/library\pkwrite.c ****     len += ret;
  91:D:/fchai/work/i-cube/I-CUBE-HUAWEI/Middlewares/Third_Party/Huawei/iot_link/network/dtls/mbedtls/mbedtls-2.16.2/library\pkwrite.c **** 
  92:D:/fchai/work/i-cube/I-CUBE-HUAWEI/Middlewares/Third_Party/Huawei/iot_link/network/dtls/mbedtls/mbedtls-2.16.2/library\pkwrite.c **** end_of_export:
  93:D:/fchai/work/i-cube/I-CUBE-HUAWEI/Middlewares/Third_Party/Huawei/iot_link/network/dtls/mbedtls/mbedtls-2.16.2/library\pkwrite.c **** 
  94:D:/fchai/work/i-cube/I-CUBE-HUAWEI/Middlewares/Third_Party/Huawei/iot_link/network/dtls/mbedtls/mbedtls-2.16.2/library\pkwrite.c ****     mbedtls_mpi_free( &T );
  95:D:/fchai/work/i-cube/I-CUBE-HUAWEI/Middlewares/Third_Party/Huawei/iot_link/network/dtls/mbedtls/mbedtls-2.16.2/library\pkwrite.c ****     if( ret < 0 )
  96:D:/fchai/work/i-cube/I-CUBE-HUAWEI/Middlewares/Third_Party/Huawei/iot_link/network/dtls/mbedtls/mbedtls-2.16.2/library\pkwrite.c ****         return( ret );
  97:D:/fchai/work/i-cube/I-CUBE-HUAWEI/Middlewares/Third_Party/Huawei/iot_link/network/dtls/mbedtls/mbedtls-2.16.2/library\pkwrite.c **** 
  98:D:/fchai/work/i-cube/I-CUBE-HUAWEI/Middlewares/Third_Party/Huawei/iot_link/network/dtls/mbedtls/mbedtls-2.16.2/library\pkwrite.c ****     MBEDTLS_ASN1_CHK_ADD( len, mbedtls_asn1_write_len( p, start, len ) );
  99:D:/fchai/work/i-cube/I-CUBE-HUAWEI/Middlewares/Third_Party/Huawei/iot_link/network/dtls/mbedtls/mbedtls-2.16.2/library\pkwrite.c ****     MBEDTLS_ASN1_CHK_ADD( len, mbedtls_asn1_write_tag( p, start, MBEDTLS_ASN1_CONSTRUCTED |
 100:D:/fchai/work/i-cube/I-CUBE-HUAWEI/Middlewares/Third_Party/Huawei/iot_link/network/dtls/mbedtls/mbedtls-2.16.2/library\pkwrite.c ****                                                  MBEDTLS_ASN1_SEQUENCE ) );
 101:D:/fchai/work/i-cube/I-CUBE-HUAWEI/Middlewares/Third_Party/Huawei/iot_link/network/dtls/mbedtls/mbedtls-2.16.2/library\pkwrite.c **** 
 102:D:/fchai/work/i-cube/I-CUBE-HUAWEI/Middlewares/Third_Party/Huawei/iot_link/network/dtls/mbedtls/mbedtls-2.16.2/library\pkwrite.c ****     return( (int) len );
 103:D:/fchai/work/i-cube/I-CUBE-HUAWEI/Middlewares/Third_Party/Huawei/iot_link/network/dtls/mbedtls/mbedtls-2.16.2/library\pkwrite.c **** }
 104:D:/fchai/work/i-cube/I-CUBE-HUAWEI/Middlewares/Third_Party/Huawei/iot_link/network/dtls/mbedtls/mbedtls-2.16.2/library\pkwrite.c **** #endif /* MBEDTLS_RSA_C */
 105:D:/fchai/work/i-cube/I-CUBE-HUAWEI/Middlewares/Third_Party/Huawei/iot_link/network/dtls/mbedtls/mbedtls-2.16.2/library\pkwrite.c **** 
 106:D:/fchai/work/i-cube/I-CUBE-HUAWEI/Middlewares/Third_Party/Huawei/iot_link/network/dtls/mbedtls/mbedtls-2.16.2/library\pkwrite.c **** #if defined(MBEDTLS_ECP_C)
 107:D:/fchai/work/i-cube/I-CUBE-HUAWEI/Middlewares/Third_Party/Huawei/iot_link/network/dtls/mbedtls/mbedtls-2.16.2/library\pkwrite.c **** /*
 108:D:/fchai/work/i-cube/I-CUBE-HUAWEI/Middlewares/Third_Party/Huawei/iot_link/network/dtls/mbedtls/mbedtls-2.16.2/library\pkwrite.c ****  * EC public key is an EC point
 109:D:/fchai/work/i-cube/I-CUBE-HUAWEI/Middlewares/Third_Party/Huawei/iot_link/network/dtls/mbedtls/mbedtls-2.16.2/library\pkwrite.c ****  */
 110:D:/fchai/work/i-cube/I-CUBE-HUAWEI/Middlewares/Third_Party/Huawei/iot_link/network/dtls/mbedtls/mbedtls-2.16.2/library\pkwrite.c **** static int pk_write_ec_pubkey( unsigned char **p, unsigned char *start,
 111:D:/fchai/work/i-cube/I-CUBE-HUAWEI/Middlewares/Third_Party/Huawei/iot_link/network/dtls/mbedtls/mbedtls-2.16.2/library\pkwrite.c ****                                mbedtls_ecp_keypair *ec )
 112:D:/fchai/work/i-cube/I-CUBE-HUAWEI/Middlewares/Third_Party/Huawei/iot_link/network/dtls/mbedtls/mbedtls-2.16.2/library\pkwrite.c **** {
  30              		.loc 1 112 1 view -0
  31              		.cfi_startproc
  32              		@ args = 0, pretend = 0, frame = 144
  33              		@ frame_needed = 0, uses_anonymous_args = 0
 113:D:/fchai/work/i-cube/I-CUBE-HUAWEI/Middlewares/Third_Party/Huawei/iot_link/network/dtls/mbedtls/mbedtls-2.16.2/library\pkwrite.c ****     int ret;
  34              		.loc 1 113 5 view .LVU1
 114:D:/fchai/work/i-cube/I-CUBE-HUAWEI/Middlewares/Third_Party/Huawei/iot_link/network/dtls/mbedtls/mbedtls-2.16.2/library\pkwrite.c ****     size_t len = 0;
  35              		.loc 1 114 5 view .LVU2
 112:D:/fchai/work/i-cube/I-CUBE-HUAWEI/Middlewares/Third_Party/Huawei/iot_link/network/dtls/mbedtls/mbedtls-2.16.2/library\pkwrite.c ****     int ret;
  36              		.loc 1 112 1 is_stmt 0 view .LVU3
  37 0000 F0B5     		push	{r4, r5, r6, r7, lr}
  38              	.LCFI0:
  39              		.cfi_def_cfa_offset 20
  40              		.cfi_offset 4, -20
  41              		.cfi_offset 5, -16
  42              		.cfi_offset 6, -12
  43              		.cfi_offset 7, -8
  44              		.cfi_offset 14, -4
  45 0002 A7B0     		sub	sp, sp, #156
  46              	.LCFI1:
  47              		.cfi_def_cfa_offset 176
  48              		.loc 1 114 12 view .LVU4
  49 0004 0027     		movs	r7, #0
 115:D:/fchai/work/i-cube/I-CUBE-HUAWEI/Middlewares/Third_Party/Huawei/iot_link/network/dtls/mbedtls/mbedtls-2.16.2/library\pkwrite.c ****     unsigned char buf[MBEDTLS_ECP_MAX_PT_LEN];
 116:D:/fchai/work/i-cube/I-CUBE-HUAWEI/Middlewares/Third_Party/Huawei/iot_link/network/dtls/mbedtls/mbedtls-2.16.2/library\pkwrite.c **** 
 117:D:/fchai/work/i-cube/I-CUBE-HUAWEI/Middlewares/Third_Party/Huawei/iot_link/network/dtls/mbedtls/mbedtls-2.16.2/library\pkwrite.c ****     if( ( ret = mbedtls_ecp_point_write_binary( &ec->grp, &ec->Q,
  50              		.loc 1 117 17 view .LVU5
  51 0006 8523     		movs	r3, #133
  52 0008 04AD     		add	r5, sp, #16
 112:D:/fchai/work/i-cube/I-CUBE-HUAWEI/Middlewares/Third_Party/Huawei/iot_link/network/dtls/mbedtls/mbedtls-2.16.2/library\pkwrite.c ****     int ret;
  53              		.loc 1 112 1 view .LVU6
ARM GAS  T:\msys\tmp\cc683j1t.s 			page 4


  54 000a 0646     		mov	r6, r0
  55 000c 0C46     		mov	r4, r1
  56              		.loc 1 117 17 view .LVU7
  57 000e 1046     		mov	r0, r2
  58              	.LVL1:
  59              		.loc 1 117 17 view .LVU8
  60 0010 02F18801 		add	r1, r2, #136
  61              	.LVL2:
  62              		.loc 1 117 17 view .LVU9
  63 0014 0193     		str	r3, [sp, #4]
  64 0016 3A46     		mov	r2, r7
  65              	.LVL3:
  66              		.loc 1 117 17 view .LVU10
  67 0018 0095     		str	r5, [sp]
  68 001a 03AB     		add	r3, sp, #12
 114:D:/fchai/work/i-cube/I-CUBE-HUAWEI/Middlewares/Third_Party/Huawei/iot_link/network/dtls/mbedtls/mbedtls-2.16.2/library\pkwrite.c ****     unsigned char buf[MBEDTLS_ECP_MAX_PT_LEN];
  69              		.loc 1 114 12 view .LVU11
  70 001c 0397     		str	r7, [sp, #12]
 115:D:/fchai/work/i-cube/I-CUBE-HUAWEI/Middlewares/Third_Party/Huawei/iot_link/network/dtls/mbedtls/mbedtls-2.16.2/library\pkwrite.c ****     unsigned char buf[MBEDTLS_ECP_MAX_PT_LEN];
  71              		.loc 1 115 5 is_stmt 1 view .LVU12
  72              		.loc 1 117 5 view .LVU13
  73              		.loc 1 117 17 is_stmt 0 view .LVU14
  74 001e FFF7FEFF 		bl	mbedtls_ecp_point_write_binary
  75              	.LVL4:
  76              		.loc 1 117 7 view .LVU15
  77 0022 60B9     		cbnz	r0, .L1
 118:D:/fchai/work/i-cube/I-CUBE-HUAWEI/Middlewares/Third_Party/Huawei/iot_link/network/dtls/mbedtls/mbedtls-2.16.2/library\pkwrite.c ****                                         MBEDTLS_ECP_PF_UNCOMPRESSED,
 119:D:/fchai/work/i-cube/I-CUBE-HUAWEI/Middlewares/Third_Party/Huawei/iot_link/network/dtls/mbedtls/mbedtls-2.16.2/library\pkwrite.c ****                                         &len, buf, sizeof( buf ) ) ) != 0 )
 120:D:/fchai/work/i-cube/I-CUBE-HUAWEI/Middlewares/Third_Party/Huawei/iot_link/network/dtls/mbedtls/mbedtls-2.16.2/library\pkwrite.c ****     {
 121:D:/fchai/work/i-cube/I-CUBE-HUAWEI/Middlewares/Third_Party/Huawei/iot_link/network/dtls/mbedtls/mbedtls-2.16.2/library\pkwrite.c ****         return( ret );
 122:D:/fchai/work/i-cube/I-CUBE-HUAWEI/Middlewares/Third_Party/Huawei/iot_link/network/dtls/mbedtls/mbedtls-2.16.2/library\pkwrite.c ****     }
 123:D:/fchai/work/i-cube/I-CUBE-HUAWEI/Middlewares/Third_Party/Huawei/iot_link/network/dtls/mbedtls/mbedtls-2.16.2/library\pkwrite.c **** 
 124:D:/fchai/work/i-cube/I-CUBE-HUAWEI/Middlewares/Third_Party/Huawei/iot_link/network/dtls/mbedtls/mbedtls-2.16.2/library\pkwrite.c ****     if( *p < start || (size_t)( *p - start ) < len )
  78              		.loc 1 124 5 is_stmt 1 view .LVU16
  79              		.loc 1 124 9 is_stmt 0 view .LVU17
  80 0024 3068     		ldr	r0, [r6]
  81              	.LVL5:
  82              		.loc 1 124 7 view .LVU18
  83 0026 A042     		cmp	r0, r4
  84 0028 0BD3     		bcc	.L4
  85              		.loc 1 124 46 discriminator 1 view .LVU19
  86 002a 039A     		ldr	r2, [sp, #12]
  87              		.loc 1 124 36 discriminator 1 view .LVU20
  88 002c 041B     		subs	r4, r0, r4
  89              	.LVL6:
  90              		.loc 1 124 20 discriminator 1 view .LVU21
  91 002e 9442     		cmp	r4, r2
  92 0030 07D3     		bcc	.L4
 125:D:/fchai/work/i-cube/I-CUBE-HUAWEI/Middlewares/Third_Party/Huawei/iot_link/network/dtls/mbedtls/mbedtls-2.16.2/library\pkwrite.c ****         return( MBEDTLS_ERR_ASN1_BUF_TOO_SMALL );
 126:D:/fchai/work/i-cube/I-CUBE-HUAWEI/Middlewares/Third_Party/Huawei/iot_link/network/dtls/mbedtls/mbedtls-2.16.2/library\pkwrite.c **** 
 127:D:/fchai/work/i-cube/I-CUBE-HUAWEI/Middlewares/Third_Party/Huawei/iot_link/network/dtls/mbedtls/mbedtls-2.16.2/library\pkwrite.c ****     *p -= len;
  93              		.loc 1 127 5 is_stmt 1 view .LVU22
  94              		.loc 1 127 8 is_stmt 0 view .LVU23
  95 0032 801A     		subs	r0, r0, r2
  96 0034 3060     		str	r0, [r6]
 128:D:/fchai/work/i-cube/I-CUBE-HUAWEI/Middlewares/Third_Party/Huawei/iot_link/network/dtls/mbedtls/mbedtls-2.16.2/library\pkwrite.c ****     memcpy( *p, buf, len );
  97              		.loc 1 128 5 is_stmt 1 view .LVU24
ARM GAS  T:\msys\tmp\cc683j1t.s 			page 5


  98 0036 2946     		mov	r1, r5
  99 0038 FFF7FEFF 		bl	memcpy
 100              	.LVL7:
 129:D:/fchai/work/i-cube/I-CUBE-HUAWEI/Middlewares/Third_Party/Huawei/iot_link/network/dtls/mbedtls/mbedtls-2.16.2/library\pkwrite.c **** 
 130:D:/fchai/work/i-cube/I-CUBE-HUAWEI/Middlewares/Third_Party/Huawei/iot_link/network/dtls/mbedtls/mbedtls-2.16.2/library\pkwrite.c ****     return( (int) len );
 101              		.loc 1 130 5 view .LVU25
 102              		.loc 1 130 13 is_stmt 0 view .LVU26
 103 003c 0398     		ldr	r0, [sp, #12]
 104              	.L1:
 131:D:/fchai/work/i-cube/I-CUBE-HUAWEI/Middlewares/Third_Party/Huawei/iot_link/network/dtls/mbedtls/mbedtls-2.16.2/library\pkwrite.c **** }
 105              		.loc 1 131 1 view .LVU27
 106 003e 27B0     		add	sp, sp, #156
 107              	.LCFI2:
 108              		.cfi_remember_state
 109              		.cfi_def_cfa_offset 20
 110              		@ sp needed
 111 0040 F0BD     		pop	{r4, r5, r6, r7, pc}
 112              	.LVL8:
 113              	.L4:
 114              	.LCFI3:
 115              		.cfi_restore_state
 125:D:/fchai/work/i-cube/I-CUBE-HUAWEI/Middlewares/Third_Party/Huawei/iot_link/network/dtls/mbedtls/mbedtls-2.16.2/library\pkwrite.c **** 
 116              		.loc 1 125 15 view .LVU28
 117 0042 6FF06B00 		mvn	r0, #107
 118 0046 FAE7     		b	.L1
 119              		.cfi_endproc
 120              	.LFE14:
 122              		.section	.text.pk_write_ec_param.isra.0,"ax",%progbits
 123              		.align	1
 124              		.p2align 2,,3
 125              		.syntax unified
 126              		.thumb
 127              		.thumb_func
 128              		.fpu fpv4-sp-d16
 130              	pk_write_ec_param.isra.0:
 131              	.LVL9:
 132              	.LFB23:
 132:D:/fchai/work/i-cube/I-CUBE-HUAWEI/Middlewares/Third_Party/Huawei/iot_link/network/dtls/mbedtls/mbedtls-2.16.2/library\pkwrite.c **** 
 133:D:/fchai/work/i-cube/I-CUBE-HUAWEI/Middlewares/Third_Party/Huawei/iot_link/network/dtls/mbedtls/mbedtls-2.16.2/library\pkwrite.c **** /*
 134:D:/fchai/work/i-cube/I-CUBE-HUAWEI/Middlewares/Third_Party/Huawei/iot_link/network/dtls/mbedtls/mbedtls-2.16.2/library\pkwrite.c ****  * ECParameters ::= CHOICE {
 135:D:/fchai/work/i-cube/I-CUBE-HUAWEI/Middlewares/Third_Party/Huawei/iot_link/network/dtls/mbedtls/mbedtls-2.16.2/library\pkwrite.c ****  *   namedCurve         OBJECT IDENTIFIER
 136:D:/fchai/work/i-cube/I-CUBE-HUAWEI/Middlewares/Third_Party/Huawei/iot_link/network/dtls/mbedtls/mbedtls-2.16.2/library\pkwrite.c ****  * }
 137:D:/fchai/work/i-cube/I-CUBE-HUAWEI/Middlewares/Third_Party/Huawei/iot_link/network/dtls/mbedtls/mbedtls-2.16.2/library\pkwrite.c ****  */
 138:D:/fchai/work/i-cube/I-CUBE-HUAWEI/Middlewares/Third_Party/Huawei/iot_link/network/dtls/mbedtls/mbedtls-2.16.2/library\pkwrite.c **** static int pk_write_ec_param( unsigned char **p, unsigned char *start,
 133              		.loc 1 138 12 is_stmt 1 view -0
 134              		.cfi_startproc
 135              		@ args = 0, pretend = 0, frame = 8
 136              		@ frame_needed = 0, uses_anonymous_args = 0
 139:D:/fchai/work/i-cube/I-CUBE-HUAWEI/Middlewares/Third_Party/Huawei/iot_link/network/dtls/mbedtls/mbedtls-2.16.2/library\pkwrite.c ****                               mbedtls_ecp_keypair *ec )
 140:D:/fchai/work/i-cube/I-CUBE-HUAWEI/Middlewares/Third_Party/Huawei/iot_link/network/dtls/mbedtls/mbedtls-2.16.2/library\pkwrite.c **** {
 141:D:/fchai/work/i-cube/I-CUBE-HUAWEI/Middlewares/Third_Party/Huawei/iot_link/network/dtls/mbedtls/mbedtls-2.16.2/library\pkwrite.c ****     int ret;
 137              		.loc 1 141 5 view .LVU30
 142:D:/fchai/work/i-cube/I-CUBE-HUAWEI/Middlewares/Third_Party/Huawei/iot_link/network/dtls/mbedtls/mbedtls-2.16.2/library\pkwrite.c ****     size_t len = 0;
 138              		.loc 1 142 5 view .LVU31
 143:D:/fchai/work/i-cube/I-CUBE-HUAWEI/Middlewares/Third_Party/Huawei/iot_link/network/dtls/mbedtls/mbedtls-2.16.2/library\pkwrite.c ****     const char *oid;
 139              		.loc 1 143 5 view .LVU32
 144:D:/fchai/work/i-cube/I-CUBE-HUAWEI/Middlewares/Third_Party/Huawei/iot_link/network/dtls/mbedtls/mbedtls-2.16.2/library\pkwrite.c ****     size_t oid_len;
ARM GAS  T:\msys\tmp\cc683j1t.s 			page 6


 140              		.loc 1 144 5 view .LVU33
 145:D:/fchai/work/i-cube/I-CUBE-HUAWEI/Middlewares/Third_Party/Huawei/iot_link/network/dtls/mbedtls/mbedtls-2.16.2/library\pkwrite.c **** 
 146:D:/fchai/work/i-cube/I-CUBE-HUAWEI/Middlewares/Third_Party/Huawei/iot_link/network/dtls/mbedtls/mbedtls-2.16.2/library\pkwrite.c ****     if( ( ret = mbedtls_oid_get_oid_by_ec_grp( ec->grp.id, &oid, &oid_len ) ) != 0 )
 141              		.loc 1 146 5 view .LVU34
 138:D:/fchai/work/i-cube/I-CUBE-HUAWEI/Middlewares/Third_Party/Huawei/iot_link/network/dtls/mbedtls/mbedtls-2.16.2/library\pkwrite.c ****                               mbedtls_ecp_keypair *ec )
 142              		.loc 1 138 12 is_stmt 0 view .LVU35
 143 0000 30B5     		push	{r4, r5, lr}
 144              	.LCFI4:
 145              		.cfi_def_cfa_offset 12
 146              		.cfi_offset 4, -12
 147              		.cfi_offset 5, -8
 148              		.cfi_offset 14, -4
 149 0002 83B0     		sub	sp, sp, #12
 150              	.LCFI5:
 151              		.cfi_def_cfa_offset 24
 138:D:/fchai/work/i-cube/I-CUBE-HUAWEI/Middlewares/Third_Party/Huawei/iot_link/network/dtls/mbedtls/mbedtls-2.16.2/library\pkwrite.c ****                               mbedtls_ecp_keypair *ec )
 152              		.loc 1 138 12 view .LVU36
 153 0004 0446     		mov	r4, r0
 154 0006 0D46     		mov	r5, r1
 155              		.loc 1 146 17 view .LVU37
 156 0008 1046     		mov	r0, r2
 157              	.LVL10:
 158              		.loc 1 146 17 view .LVU38
 159 000a 6946     		mov	r1, sp
 160              	.LVL11:
 161              		.loc 1 146 17 view .LVU39
 162 000c 01AA     		add	r2, sp, #4
 163 000e FFF7FEFF 		bl	mbedtls_oid_get_oid_by_ec_grp
 164              	.LVL12:
 165              		.loc 1 146 7 view .LVU40
 166 0012 28B9     		cbnz	r0, .L7
 147:D:/fchai/work/i-cube/I-CUBE-HUAWEI/Middlewares/Third_Party/Huawei/iot_link/network/dtls/mbedtls/mbedtls-2.16.2/library\pkwrite.c ****         return( ret );
 148:D:/fchai/work/i-cube/I-CUBE-HUAWEI/Middlewares/Third_Party/Huawei/iot_link/network/dtls/mbedtls/mbedtls-2.16.2/library\pkwrite.c **** 
 149:D:/fchai/work/i-cube/I-CUBE-HUAWEI/Middlewares/Third_Party/Huawei/iot_link/network/dtls/mbedtls/mbedtls-2.16.2/library\pkwrite.c ****     MBEDTLS_ASN1_CHK_ADD( len, mbedtls_asn1_write_oid( p, start, oid, oid_len ) );
 167              		.loc 1 149 5 is_stmt 1 view .LVU41
 168              		.loc 1 149 5 view .LVU42
 169 0014 DDE90023 		ldrd	r2, r3, [sp]
 170 0018 2946     		mov	r1, r5
 171 001a 2046     		mov	r0, r4
 172              	.LVL13:
 173              		.loc 1 149 5 is_stmt 0 view .LVU43
 174 001c FFF7FEFF 		bl	mbedtls_asn1_write_oid
 175              	.LVL14:
 176              	.L7:
 150:D:/fchai/work/i-cube/I-CUBE-HUAWEI/Middlewares/Third_Party/Huawei/iot_link/network/dtls/mbedtls/mbedtls-2.16.2/library\pkwrite.c **** 
 151:D:/fchai/work/i-cube/I-CUBE-HUAWEI/Middlewares/Third_Party/Huawei/iot_link/network/dtls/mbedtls/mbedtls-2.16.2/library\pkwrite.c ****     return( (int) len );
 152:D:/fchai/work/i-cube/I-CUBE-HUAWEI/Middlewares/Third_Party/Huawei/iot_link/network/dtls/mbedtls/mbedtls-2.16.2/library\pkwrite.c **** }
 177              		.loc 1 152 1 view .LVU44
 178 0020 03B0     		add	sp, sp, #12
 179              	.LCFI6:
 180              		.cfi_def_cfa_offset 12
 181              		@ sp needed
 182 0022 30BD     		pop	{r4, r5, pc}
 183              		.loc 1 152 1 view .LVU45
 184              		.cfi_endproc
 185              	.LFE23:
 187              		.section	.text.mbedtls_pk_write_pubkey,"ax",%progbits
ARM GAS  T:\msys\tmp\cc683j1t.s 			page 7


 188              		.align	1
 189              		.p2align 2,,3
 190              		.global	mbedtls_pk_write_pubkey
 191              		.syntax unified
 192              		.thumb
 193              		.thumb_func
 194              		.fpu fpv4-sp-d16
 196              	mbedtls_pk_write_pubkey:
 197              	.LVL15:
 198              	.LFB16:
 153:D:/fchai/work/i-cube/I-CUBE-HUAWEI/Middlewares/Third_Party/Huawei/iot_link/network/dtls/mbedtls/mbedtls-2.16.2/library\pkwrite.c **** #endif /* MBEDTLS_ECP_C */
 154:D:/fchai/work/i-cube/I-CUBE-HUAWEI/Middlewares/Third_Party/Huawei/iot_link/network/dtls/mbedtls/mbedtls-2.16.2/library\pkwrite.c **** 
 155:D:/fchai/work/i-cube/I-CUBE-HUAWEI/Middlewares/Third_Party/Huawei/iot_link/network/dtls/mbedtls/mbedtls-2.16.2/library\pkwrite.c **** int mbedtls_pk_write_pubkey( unsigned char **p, unsigned char *start,
 156:D:/fchai/work/i-cube/I-CUBE-HUAWEI/Middlewares/Third_Party/Huawei/iot_link/network/dtls/mbedtls/mbedtls-2.16.2/library\pkwrite.c ****                              const mbedtls_pk_context *key )
 157:D:/fchai/work/i-cube/I-CUBE-HUAWEI/Middlewares/Third_Party/Huawei/iot_link/network/dtls/mbedtls/mbedtls-2.16.2/library\pkwrite.c **** {
 199              		.loc 1 157 1 is_stmt 1 view -0
 200              		.cfi_startproc
 201              		@ args = 0, pretend = 0, frame = 16
 202              		@ frame_needed = 0, uses_anonymous_args = 0
 203              		.loc 1 157 1 is_stmt 0 view .LVU47
 204 0000 2DE9F043 		push	{r4, r5, r6, r7, r8, r9, lr}
 205              	.LCFI7:
 206              		.cfi_def_cfa_offset 28
 207              		.cfi_offset 4, -28
 208              		.cfi_offset 5, -24
 209              		.cfi_offset 6, -20
 210              		.cfi_offset 7, -16
 211              		.cfi_offset 8, -12
 212              		.cfi_offset 9, -8
 213              		.cfi_offset 14, -4
 214 0004 0646     		mov	r6, r0
 215 0006 87B0     		sub	sp, sp, #28
 216              	.LCFI8:
 217              		.cfi_def_cfa_offset 56
 158:D:/fchai/work/i-cube/I-CUBE-HUAWEI/Middlewares/Third_Party/Huawei/iot_link/network/dtls/mbedtls/mbedtls-2.16.2/library\pkwrite.c ****     int ret;
 159:D:/fchai/work/i-cube/I-CUBE-HUAWEI/Middlewares/Third_Party/Huawei/iot_link/network/dtls/mbedtls/mbedtls-2.16.2/library\pkwrite.c ****     size_t len = 0;
 160:D:/fchai/work/i-cube/I-CUBE-HUAWEI/Middlewares/Third_Party/Huawei/iot_link/network/dtls/mbedtls/mbedtls-2.16.2/library\pkwrite.c **** 
 161:D:/fchai/work/i-cube/I-CUBE-HUAWEI/Middlewares/Third_Party/Huawei/iot_link/network/dtls/mbedtls/mbedtls-2.16.2/library\pkwrite.c ****     PK_VALIDATE_RET( p != NULL );
 162:D:/fchai/work/i-cube/I-CUBE-HUAWEI/Middlewares/Third_Party/Huawei/iot_link/network/dtls/mbedtls/mbedtls-2.16.2/library\pkwrite.c ****     PK_VALIDATE_RET( *p != NULL );
 163:D:/fchai/work/i-cube/I-CUBE-HUAWEI/Middlewares/Third_Party/Huawei/iot_link/network/dtls/mbedtls/mbedtls-2.16.2/library\pkwrite.c ****     PK_VALIDATE_RET( start != NULL );
 164:D:/fchai/work/i-cube/I-CUBE-HUAWEI/Middlewares/Third_Party/Huawei/iot_link/network/dtls/mbedtls/mbedtls-2.16.2/library\pkwrite.c ****     PK_VALIDATE_RET( key != NULL );
 165:D:/fchai/work/i-cube/I-CUBE-HUAWEI/Middlewares/Third_Party/Huawei/iot_link/network/dtls/mbedtls/mbedtls-2.16.2/library\pkwrite.c **** 
 166:D:/fchai/work/i-cube/I-CUBE-HUAWEI/Middlewares/Third_Party/Huawei/iot_link/network/dtls/mbedtls/mbedtls-2.16.2/library\pkwrite.c **** #if defined(MBEDTLS_RSA_C)
 167:D:/fchai/work/i-cube/I-CUBE-HUAWEI/Middlewares/Third_Party/Huawei/iot_link/network/dtls/mbedtls/mbedtls-2.16.2/library\pkwrite.c ****     if( mbedtls_pk_get_type( key ) == MBEDTLS_PK_RSA )
 218              		.loc 1 167 9 view .LVU48
 219 0008 1046     		mov	r0, r2
 220              	.LVL16:
 157:D:/fchai/work/i-cube/I-CUBE-HUAWEI/Middlewares/Third_Party/Huawei/iot_link/network/dtls/mbedtls/mbedtls-2.16.2/library\pkwrite.c ****     int ret;
 221              		.loc 1 157 1 view .LVU49
 222 000a 1446     		mov	r4, r2
 223 000c 0F46     		mov	r7, r1
 158:D:/fchai/work/i-cube/I-CUBE-HUAWEI/Middlewares/Third_Party/Huawei/iot_link/network/dtls/mbedtls/mbedtls-2.16.2/library\pkwrite.c ****     int ret;
 224              		.loc 1 158 5 is_stmt 1 view .LVU50
 159:D:/fchai/work/i-cube/I-CUBE-HUAWEI/Middlewares/Third_Party/Huawei/iot_link/network/dtls/mbedtls/mbedtls-2.16.2/library\pkwrite.c **** 
 225              		.loc 1 159 5 view .LVU51
 226              	.LVL17:
 161:D:/fchai/work/i-cube/I-CUBE-HUAWEI/Middlewares/Third_Party/Huawei/iot_link/network/dtls/mbedtls/mbedtls-2.16.2/library\pkwrite.c ****     PK_VALIDATE_RET( *p != NULL );
ARM GAS  T:\msys\tmp\cc683j1t.s 			page 8


 227              		.loc 1 161 5 view .LVU52
 161:D:/fchai/work/i-cube/I-CUBE-HUAWEI/Middlewares/Third_Party/Huawei/iot_link/network/dtls/mbedtls/mbedtls-2.16.2/library\pkwrite.c ****     PK_VALIDATE_RET( *p != NULL );
 228              		.loc 1 161 5 view .LVU53
 161:D:/fchai/work/i-cube/I-CUBE-HUAWEI/Middlewares/Third_Party/Huawei/iot_link/network/dtls/mbedtls/mbedtls-2.16.2/library\pkwrite.c ****     PK_VALIDATE_RET( *p != NULL );
 229              		.loc 1 161 5 view .LVU54
 162:D:/fchai/work/i-cube/I-CUBE-HUAWEI/Middlewares/Third_Party/Huawei/iot_link/network/dtls/mbedtls/mbedtls-2.16.2/library\pkwrite.c ****     PK_VALIDATE_RET( start != NULL );
 230              		.loc 1 162 5 view .LVU55
 162:D:/fchai/work/i-cube/I-CUBE-HUAWEI/Middlewares/Third_Party/Huawei/iot_link/network/dtls/mbedtls/mbedtls-2.16.2/library\pkwrite.c ****     PK_VALIDATE_RET( start != NULL );
 231              		.loc 1 162 5 view .LVU56
 162:D:/fchai/work/i-cube/I-CUBE-HUAWEI/Middlewares/Third_Party/Huawei/iot_link/network/dtls/mbedtls/mbedtls-2.16.2/library\pkwrite.c ****     PK_VALIDATE_RET( start != NULL );
 232              		.loc 1 162 5 view .LVU57
 163:D:/fchai/work/i-cube/I-CUBE-HUAWEI/Middlewares/Third_Party/Huawei/iot_link/network/dtls/mbedtls/mbedtls-2.16.2/library\pkwrite.c ****     PK_VALIDATE_RET( key != NULL );
 233              		.loc 1 163 5 view .LVU58
 163:D:/fchai/work/i-cube/I-CUBE-HUAWEI/Middlewares/Third_Party/Huawei/iot_link/network/dtls/mbedtls/mbedtls-2.16.2/library\pkwrite.c ****     PK_VALIDATE_RET( key != NULL );
 234              		.loc 1 163 5 view .LVU59
 163:D:/fchai/work/i-cube/I-CUBE-HUAWEI/Middlewares/Third_Party/Huawei/iot_link/network/dtls/mbedtls/mbedtls-2.16.2/library\pkwrite.c ****     PK_VALIDATE_RET( key != NULL );
 235              		.loc 1 163 5 view .LVU60
 164:D:/fchai/work/i-cube/I-CUBE-HUAWEI/Middlewares/Third_Party/Huawei/iot_link/network/dtls/mbedtls/mbedtls-2.16.2/library\pkwrite.c **** 
 236              		.loc 1 164 5 view .LVU61
 164:D:/fchai/work/i-cube/I-CUBE-HUAWEI/Middlewares/Third_Party/Huawei/iot_link/network/dtls/mbedtls/mbedtls-2.16.2/library\pkwrite.c **** 
 237              		.loc 1 164 5 view .LVU62
 164:D:/fchai/work/i-cube/I-CUBE-HUAWEI/Middlewares/Third_Party/Huawei/iot_link/network/dtls/mbedtls/mbedtls-2.16.2/library\pkwrite.c **** 
 238              		.loc 1 164 5 view .LVU63
 239              		.loc 1 167 5 view .LVU64
 240              		.loc 1 167 9 is_stmt 0 view .LVU65
 241 000e FFF7FEFF 		bl	mbedtls_pk_get_type
 242              	.LVL18:
 243              		.loc 1 167 7 view .LVU66
 244 0012 0128     		cmp	r0, #1
 245 0014 0ED0     		beq	.L21
 168:D:/fchai/work/i-cube/I-CUBE-HUAWEI/Middlewares/Third_Party/Huawei/iot_link/network/dtls/mbedtls/mbedtls-2.16.2/library\pkwrite.c ****         MBEDTLS_ASN1_CHK_ADD( len, pk_write_rsa_pubkey( p, start, mbedtls_pk_rsa( *key ) ) );
 169:D:/fchai/work/i-cube/I-CUBE-HUAWEI/Middlewares/Third_Party/Huawei/iot_link/network/dtls/mbedtls/mbedtls-2.16.2/library\pkwrite.c ****     else
 170:D:/fchai/work/i-cube/I-CUBE-HUAWEI/Middlewares/Third_Party/Huawei/iot_link/network/dtls/mbedtls/mbedtls-2.16.2/library\pkwrite.c **** #endif
 171:D:/fchai/work/i-cube/I-CUBE-HUAWEI/Middlewares/Third_Party/Huawei/iot_link/network/dtls/mbedtls/mbedtls-2.16.2/library\pkwrite.c **** #if defined(MBEDTLS_ECP_C)
 172:D:/fchai/work/i-cube/I-CUBE-HUAWEI/Middlewares/Third_Party/Huawei/iot_link/network/dtls/mbedtls/mbedtls-2.16.2/library\pkwrite.c ****     if( mbedtls_pk_get_type( key ) == MBEDTLS_PK_ECKEY )
 246              		.loc 1 172 5 is_stmt 1 view .LVU67
 247              		.loc 1 172 9 is_stmt 0 view .LVU68
 248 0016 2046     		mov	r0, r4
 249 0018 FFF7FEFF 		bl	mbedtls_pk_get_type
 250              	.LVL19:
 251              		.loc 1 172 7 view .LVU69
 252 001c 0228     		cmp	r0, #2
 253 001e 58D1     		bne	.L19
 173:D:/fchai/work/i-cube/I-CUBE-HUAWEI/Middlewares/Third_Party/Huawei/iot_link/network/dtls/mbedtls/mbedtls-2.16.2/library\pkwrite.c ****         MBEDTLS_ASN1_CHK_ADD( len, pk_write_ec_pubkey( p, start, mbedtls_pk_ec( *key ) ) );
 254              		.loc 1 173 9 is_stmt 1 view .LVU70
 255              		.loc 1 173 9 view .LVU71
 256              		.file 2 "D:/fchai/work/i-cube/I-CUBE-HUAWEI/Middlewares/Third_Party/Huawei/iot_link/network/dtls/m
   1:D:/fchai/work/i-cube/I-CUBE-HUAWEI/Middlewares/Third_Party/Huawei/iot_link/network/dtls/mbedtls/mbedtls-2.16.2/include/mbedtls\pk.h **** /**
   2:D:/fchai/work/i-cube/I-CUBE-HUAWEI/Middlewares/Third_Party/Huawei/iot_link/network/dtls/mbedtls/mbedtls-2.16.2/include/mbedtls\pk.h ****  * \file pk.h
   3:D:/fchai/work/i-cube/I-CUBE-HUAWEI/Middlewares/Third_Party/Huawei/iot_link/network/dtls/mbedtls/mbedtls-2.16.2/include/mbedtls\pk.h ****  *
   4:D:/fchai/work/i-cube/I-CUBE-HUAWEI/Middlewares/Third_Party/Huawei/iot_link/network/dtls/mbedtls/mbedtls-2.16.2/include/mbedtls\pk.h ****  * \brief Public Key abstraction layer
   5:D:/fchai/work/i-cube/I-CUBE-HUAWEI/Middlewares/Third_Party/Huawei/iot_link/network/dtls/mbedtls/mbedtls-2.16.2/include/mbedtls\pk.h ****  */
   6:D:/fchai/work/i-cube/I-CUBE-HUAWEI/Middlewares/Third_Party/Huawei/iot_link/network/dtls/mbedtls/mbedtls-2.16.2/include/mbedtls\pk.h **** /*
   7:D:/fchai/work/i-cube/I-CUBE-HUAWEI/Middlewares/Third_Party/Huawei/iot_link/network/dtls/mbedtls/mbedtls-2.16.2/include/mbedtls\pk.h ****  *  Copyright (C) 2006-2015, ARM Limited, All Rights Reserved
   8:D:/fchai/work/i-cube/I-CUBE-HUAWEI/Middlewares/Third_Party/Huawei/iot_link/network/dtls/mbedtls/mbedtls-2.16.2/include/mbedtls\pk.h ****  *  SPDX-License-Identifier: Apache-2.0
   9:D:/fchai/work/i-cube/I-CUBE-HUAWEI/Middlewares/Third_Party/Huawei/iot_link/network/dtls/mbedtls/mbedtls-2.16.2/include/mbedtls\pk.h ****  *
  10:D:/fchai/work/i-cube/I-CUBE-HUAWEI/Middlewares/Third_Party/Huawei/iot_link/network/dtls/mbedtls/mbedtls-2.16.2/include/mbedtls\pk.h ****  *  Licensed under the Apache License, Version 2.0 (the "License"); you may
ARM GAS  T:\msys\tmp\cc683j1t.s 			page 9


  11:D:/fchai/work/i-cube/I-CUBE-HUAWEI/Middlewares/Third_Party/Huawei/iot_link/network/dtls/mbedtls/mbedtls-2.16.2/include/mbedtls\pk.h ****  *  not use this file except in compliance with the License.
  12:D:/fchai/work/i-cube/I-CUBE-HUAWEI/Middlewares/Third_Party/Huawei/iot_link/network/dtls/mbedtls/mbedtls-2.16.2/include/mbedtls\pk.h ****  *  You may obtain a copy of the License at
  13:D:/fchai/work/i-cube/I-CUBE-HUAWEI/Middlewares/Third_Party/Huawei/iot_link/network/dtls/mbedtls/mbedtls-2.16.2/include/mbedtls\pk.h ****  *
  14:D:/fchai/work/i-cube/I-CUBE-HUAWEI/Middlewares/Third_Party/Huawei/iot_link/network/dtls/mbedtls/mbedtls-2.16.2/include/mbedtls\pk.h ****  *  http://www.apache.org/licenses/LICENSE-2.0
  15:D:/fchai/work/i-cube/I-CUBE-HUAWEI/Middlewares/Third_Party/Huawei/iot_link/network/dtls/mbedtls/mbedtls-2.16.2/include/mbedtls\pk.h ****  *
  16:D:/fchai/work/i-cube/I-CUBE-HUAWEI/Middlewares/Third_Party/Huawei/iot_link/network/dtls/mbedtls/mbedtls-2.16.2/include/mbedtls\pk.h ****  *  Unless required by applicable law or agreed to in writing, software
  17:D:/fchai/work/i-cube/I-CUBE-HUAWEI/Middlewares/Third_Party/Huawei/iot_link/network/dtls/mbedtls/mbedtls-2.16.2/include/mbedtls\pk.h ****  *  distributed under the License is distributed on an "AS IS" BASIS, WITHOUT
  18:D:/fchai/work/i-cube/I-CUBE-HUAWEI/Middlewares/Third_Party/Huawei/iot_link/network/dtls/mbedtls/mbedtls-2.16.2/include/mbedtls\pk.h ****  *  WARRANTIES OR CONDITIONS OF ANY KIND, either express or implied.
  19:D:/fchai/work/i-cube/I-CUBE-HUAWEI/Middlewares/Third_Party/Huawei/iot_link/network/dtls/mbedtls/mbedtls-2.16.2/include/mbedtls\pk.h ****  *  See the License for the specific language governing permissions and
  20:D:/fchai/work/i-cube/I-CUBE-HUAWEI/Middlewares/Third_Party/Huawei/iot_link/network/dtls/mbedtls/mbedtls-2.16.2/include/mbedtls\pk.h ****  *  limitations under the License.
  21:D:/fchai/work/i-cube/I-CUBE-HUAWEI/Middlewares/Third_Party/Huawei/iot_link/network/dtls/mbedtls/mbedtls-2.16.2/include/mbedtls\pk.h ****  *
  22:D:/fchai/work/i-cube/I-CUBE-HUAWEI/Middlewares/Third_Party/Huawei/iot_link/network/dtls/mbedtls/mbedtls-2.16.2/include/mbedtls\pk.h ****  *  This file is part of mbed TLS (https://tls.mbed.org)
  23:D:/fchai/work/i-cube/I-CUBE-HUAWEI/Middlewares/Third_Party/Huawei/iot_link/network/dtls/mbedtls/mbedtls-2.16.2/include/mbedtls\pk.h ****  */
  24:D:/fchai/work/i-cube/I-CUBE-HUAWEI/Middlewares/Third_Party/Huawei/iot_link/network/dtls/mbedtls/mbedtls-2.16.2/include/mbedtls\pk.h **** 
  25:D:/fchai/work/i-cube/I-CUBE-HUAWEI/Middlewares/Third_Party/Huawei/iot_link/network/dtls/mbedtls/mbedtls-2.16.2/include/mbedtls\pk.h **** #ifndef MBEDTLS_PK_H
  26:D:/fchai/work/i-cube/I-CUBE-HUAWEI/Middlewares/Third_Party/Huawei/iot_link/network/dtls/mbedtls/mbedtls-2.16.2/include/mbedtls\pk.h **** #define MBEDTLS_PK_H
  27:D:/fchai/work/i-cube/I-CUBE-HUAWEI/Middlewares/Third_Party/Huawei/iot_link/network/dtls/mbedtls/mbedtls-2.16.2/include/mbedtls\pk.h **** 
  28:D:/fchai/work/i-cube/I-CUBE-HUAWEI/Middlewares/Third_Party/Huawei/iot_link/network/dtls/mbedtls/mbedtls-2.16.2/include/mbedtls\pk.h **** #if !defined(MBEDTLS_CONFIG_FILE)
  29:D:/fchai/work/i-cube/I-CUBE-HUAWEI/Middlewares/Third_Party/Huawei/iot_link/network/dtls/mbedtls/mbedtls-2.16.2/include/mbedtls\pk.h **** #include "config.h"
  30:D:/fchai/work/i-cube/I-CUBE-HUAWEI/Middlewares/Third_Party/Huawei/iot_link/network/dtls/mbedtls/mbedtls-2.16.2/include/mbedtls\pk.h **** #else
  31:D:/fchai/work/i-cube/I-CUBE-HUAWEI/Middlewares/Third_Party/Huawei/iot_link/network/dtls/mbedtls/mbedtls-2.16.2/include/mbedtls\pk.h **** #include MBEDTLS_CONFIG_FILE
  32:D:/fchai/work/i-cube/I-CUBE-HUAWEI/Middlewares/Third_Party/Huawei/iot_link/network/dtls/mbedtls/mbedtls-2.16.2/include/mbedtls\pk.h **** #endif
  33:D:/fchai/work/i-cube/I-CUBE-HUAWEI/Middlewares/Third_Party/Huawei/iot_link/network/dtls/mbedtls/mbedtls-2.16.2/include/mbedtls\pk.h **** 
  34:D:/fchai/work/i-cube/I-CUBE-HUAWEI/Middlewares/Third_Party/Huawei/iot_link/network/dtls/mbedtls/mbedtls-2.16.2/include/mbedtls\pk.h **** #include "md.h"
  35:D:/fchai/work/i-cube/I-CUBE-HUAWEI/Middlewares/Third_Party/Huawei/iot_link/network/dtls/mbedtls/mbedtls-2.16.2/include/mbedtls\pk.h **** 
  36:D:/fchai/work/i-cube/I-CUBE-HUAWEI/Middlewares/Third_Party/Huawei/iot_link/network/dtls/mbedtls/mbedtls-2.16.2/include/mbedtls\pk.h **** #if defined(MBEDTLS_RSA_C)
  37:D:/fchai/work/i-cube/I-CUBE-HUAWEI/Middlewares/Third_Party/Huawei/iot_link/network/dtls/mbedtls/mbedtls-2.16.2/include/mbedtls\pk.h **** #include "rsa.h"
  38:D:/fchai/work/i-cube/I-CUBE-HUAWEI/Middlewares/Third_Party/Huawei/iot_link/network/dtls/mbedtls/mbedtls-2.16.2/include/mbedtls\pk.h **** #endif
  39:D:/fchai/work/i-cube/I-CUBE-HUAWEI/Middlewares/Third_Party/Huawei/iot_link/network/dtls/mbedtls/mbedtls-2.16.2/include/mbedtls\pk.h **** 
  40:D:/fchai/work/i-cube/I-CUBE-HUAWEI/Middlewares/Third_Party/Huawei/iot_link/network/dtls/mbedtls/mbedtls-2.16.2/include/mbedtls\pk.h **** #if defined(MBEDTLS_ECP_C)
  41:D:/fchai/work/i-cube/I-CUBE-HUAWEI/Middlewares/Third_Party/Huawei/iot_link/network/dtls/mbedtls/mbedtls-2.16.2/include/mbedtls\pk.h **** #include "ecp.h"
  42:D:/fchai/work/i-cube/I-CUBE-HUAWEI/Middlewares/Third_Party/Huawei/iot_link/network/dtls/mbedtls/mbedtls-2.16.2/include/mbedtls\pk.h **** #endif
  43:D:/fchai/work/i-cube/I-CUBE-HUAWEI/Middlewares/Third_Party/Huawei/iot_link/network/dtls/mbedtls/mbedtls-2.16.2/include/mbedtls\pk.h **** 
  44:D:/fchai/work/i-cube/I-CUBE-HUAWEI/Middlewares/Third_Party/Huawei/iot_link/network/dtls/mbedtls/mbedtls-2.16.2/include/mbedtls\pk.h **** #if defined(MBEDTLS_ECDSA_C)
  45:D:/fchai/work/i-cube/I-CUBE-HUAWEI/Middlewares/Third_Party/Huawei/iot_link/network/dtls/mbedtls/mbedtls-2.16.2/include/mbedtls\pk.h **** #include "ecdsa.h"
  46:D:/fchai/work/i-cube/I-CUBE-HUAWEI/Middlewares/Third_Party/Huawei/iot_link/network/dtls/mbedtls/mbedtls-2.16.2/include/mbedtls\pk.h **** #endif
  47:D:/fchai/work/i-cube/I-CUBE-HUAWEI/Middlewares/Third_Party/Huawei/iot_link/network/dtls/mbedtls/mbedtls-2.16.2/include/mbedtls\pk.h **** 
  48:D:/fchai/work/i-cube/I-CUBE-HUAWEI/Middlewares/Third_Party/Huawei/iot_link/network/dtls/mbedtls/mbedtls-2.16.2/include/mbedtls\pk.h **** #if ( defined(__ARMCC_VERSION) || defined(_MSC_VER) ) && \
  49:D:/fchai/work/i-cube/I-CUBE-HUAWEI/Middlewares/Third_Party/Huawei/iot_link/network/dtls/mbedtls/mbedtls-2.16.2/include/mbedtls\pk.h ****     !defined(inline) && !defined(__cplusplus)
  50:D:/fchai/work/i-cube/I-CUBE-HUAWEI/Middlewares/Third_Party/Huawei/iot_link/network/dtls/mbedtls/mbedtls-2.16.2/include/mbedtls\pk.h **** #define inline __inline
  51:D:/fchai/work/i-cube/I-CUBE-HUAWEI/Middlewares/Third_Party/Huawei/iot_link/network/dtls/mbedtls/mbedtls-2.16.2/include/mbedtls\pk.h **** #endif
  52:D:/fchai/work/i-cube/I-CUBE-HUAWEI/Middlewares/Third_Party/Huawei/iot_link/network/dtls/mbedtls/mbedtls-2.16.2/include/mbedtls\pk.h **** 
  53:D:/fchai/work/i-cube/I-CUBE-HUAWEI/Middlewares/Third_Party/Huawei/iot_link/network/dtls/mbedtls/mbedtls-2.16.2/include/mbedtls\pk.h **** #define MBEDTLS_ERR_PK_ALLOC_FAILED        -0x3F80  /**< Memory allocation failed. */
  54:D:/fchai/work/i-cube/I-CUBE-HUAWEI/Middlewares/Third_Party/Huawei/iot_link/network/dtls/mbedtls/mbedtls-2.16.2/include/mbedtls\pk.h **** #define MBEDTLS_ERR_PK_TYPE_MISMATCH       -0x3F00  /**< Type mismatch, eg attempt to encrypt with 
  55:D:/fchai/work/i-cube/I-CUBE-HUAWEI/Middlewares/Third_Party/Huawei/iot_link/network/dtls/mbedtls/mbedtls-2.16.2/include/mbedtls\pk.h **** #define MBEDTLS_ERR_PK_BAD_INPUT_DATA      -0x3E80  /**< Bad input parameters to function. */
  56:D:/fchai/work/i-cube/I-CUBE-HUAWEI/Middlewares/Third_Party/Huawei/iot_link/network/dtls/mbedtls/mbedtls-2.16.2/include/mbedtls\pk.h **** #define MBEDTLS_ERR_PK_FILE_IO_ERROR       -0x3E00  /**< Read/write of file failed. */
  57:D:/fchai/work/i-cube/I-CUBE-HUAWEI/Middlewares/Third_Party/Huawei/iot_link/network/dtls/mbedtls/mbedtls-2.16.2/include/mbedtls\pk.h **** #define MBEDTLS_ERR_PK_KEY_INVALID_VERSION -0x3D80  /**< Unsupported key version */
  58:D:/fchai/work/i-cube/I-CUBE-HUAWEI/Middlewares/Third_Party/Huawei/iot_link/network/dtls/mbedtls/mbedtls-2.16.2/include/mbedtls\pk.h **** #define MBEDTLS_ERR_PK_KEY_INVALID_FORMAT  -0x3D00  /**< Invalid key tag or value. */
  59:D:/fchai/work/i-cube/I-CUBE-HUAWEI/Middlewares/Third_Party/Huawei/iot_link/network/dtls/mbedtls/mbedtls-2.16.2/include/mbedtls\pk.h **** #define MBEDTLS_ERR_PK_UNKNOWN_PK_ALG      -0x3C80  /**< Key algorithm is unsupported (only RSA and
  60:D:/fchai/work/i-cube/I-CUBE-HUAWEI/Middlewares/Third_Party/Huawei/iot_link/network/dtls/mbedtls/mbedtls-2.16.2/include/mbedtls\pk.h **** #define MBEDTLS_ERR_PK_PASSWORD_REQUIRED   -0x3C00  /**< Private key password can't be empty. */
  61:D:/fchai/work/i-cube/I-CUBE-HUAWEI/Middlewares/Third_Party/Huawei/iot_link/network/dtls/mbedtls/mbedtls-2.16.2/include/mbedtls\pk.h **** #define MBEDTLS_ERR_PK_PASSWORD_MISMATCH   -0x3B80  /**< Given private key password does not allow 
  62:D:/fchai/work/i-cube/I-CUBE-HUAWEI/Middlewares/Third_Party/Huawei/iot_link/network/dtls/mbedtls/mbedtls-2.16.2/include/mbedtls\pk.h **** #define MBEDTLS_ERR_PK_INVALID_PUBKEY      -0x3B00  /**< The pubkey tag or value is invalid (only R
  63:D:/fchai/work/i-cube/I-CUBE-HUAWEI/Middlewares/Third_Party/Huawei/iot_link/network/dtls/mbedtls/mbedtls-2.16.2/include/mbedtls\pk.h **** #define MBEDTLS_ERR_PK_INVALID_ALG         -0x3A80  /**< The algorithm tag or value is invalid. */
  64:D:/fchai/work/i-cube/I-CUBE-HUAWEI/Middlewares/Third_Party/Huawei/iot_link/network/dtls/mbedtls/mbedtls-2.16.2/include/mbedtls\pk.h **** #define MBEDTLS_ERR_PK_UNKNOWN_NAMED_CURVE -0x3A00  /**< Elliptic curve is unsupported (only NIST c
  65:D:/fchai/work/i-cube/I-CUBE-HUAWEI/Middlewares/Third_Party/Huawei/iot_link/network/dtls/mbedtls/mbedtls-2.16.2/include/mbedtls\pk.h **** #define MBEDTLS_ERR_PK_FEATURE_UNAVAILABLE -0x3980  /**< Unavailable feature, e.g. RSA disabled for
  66:D:/fchai/work/i-cube/I-CUBE-HUAWEI/Middlewares/Third_Party/Huawei/iot_link/network/dtls/mbedtls/mbedtls-2.16.2/include/mbedtls\pk.h **** #define MBEDTLS_ERR_PK_SIG_LEN_MISMATCH    -0x3900  /**< The buffer contains a valid signature foll
  67:D:/fchai/work/i-cube/I-CUBE-HUAWEI/Middlewares/Third_Party/Huawei/iot_link/network/dtls/mbedtls/mbedtls-2.16.2/include/mbedtls\pk.h **** 
ARM GAS  T:\msys\tmp\cc683j1t.s 			page 10


  68:D:/fchai/work/i-cube/I-CUBE-HUAWEI/Middlewares/Third_Party/Huawei/iot_link/network/dtls/mbedtls/mbedtls-2.16.2/include/mbedtls\pk.h **** /* MBEDTLS_ERR_PK_HW_ACCEL_FAILED is deprecated and should not be used. */
  69:D:/fchai/work/i-cube/I-CUBE-HUAWEI/Middlewares/Third_Party/Huawei/iot_link/network/dtls/mbedtls/mbedtls-2.16.2/include/mbedtls\pk.h **** #define MBEDTLS_ERR_PK_HW_ACCEL_FAILED     -0x3880  /**< PK hardware accelerator failed. */
  70:D:/fchai/work/i-cube/I-CUBE-HUAWEI/Middlewares/Third_Party/Huawei/iot_link/network/dtls/mbedtls/mbedtls-2.16.2/include/mbedtls\pk.h **** 
  71:D:/fchai/work/i-cube/I-CUBE-HUAWEI/Middlewares/Third_Party/Huawei/iot_link/network/dtls/mbedtls/mbedtls-2.16.2/include/mbedtls\pk.h **** #ifdef __cplusplus
  72:D:/fchai/work/i-cube/I-CUBE-HUAWEI/Middlewares/Third_Party/Huawei/iot_link/network/dtls/mbedtls/mbedtls-2.16.2/include/mbedtls\pk.h **** extern "C" {
  73:D:/fchai/work/i-cube/I-CUBE-HUAWEI/Middlewares/Third_Party/Huawei/iot_link/network/dtls/mbedtls/mbedtls-2.16.2/include/mbedtls\pk.h **** #endif
  74:D:/fchai/work/i-cube/I-CUBE-HUAWEI/Middlewares/Third_Party/Huawei/iot_link/network/dtls/mbedtls/mbedtls-2.16.2/include/mbedtls\pk.h **** 
  75:D:/fchai/work/i-cube/I-CUBE-HUAWEI/Middlewares/Third_Party/Huawei/iot_link/network/dtls/mbedtls/mbedtls-2.16.2/include/mbedtls\pk.h **** /**
  76:D:/fchai/work/i-cube/I-CUBE-HUAWEI/Middlewares/Third_Party/Huawei/iot_link/network/dtls/mbedtls/mbedtls-2.16.2/include/mbedtls\pk.h ****  * \brief          Public key types
  77:D:/fchai/work/i-cube/I-CUBE-HUAWEI/Middlewares/Third_Party/Huawei/iot_link/network/dtls/mbedtls/mbedtls-2.16.2/include/mbedtls\pk.h ****  */
  78:D:/fchai/work/i-cube/I-CUBE-HUAWEI/Middlewares/Third_Party/Huawei/iot_link/network/dtls/mbedtls/mbedtls-2.16.2/include/mbedtls\pk.h **** typedef enum {
  79:D:/fchai/work/i-cube/I-CUBE-HUAWEI/Middlewares/Third_Party/Huawei/iot_link/network/dtls/mbedtls/mbedtls-2.16.2/include/mbedtls\pk.h ****     MBEDTLS_PK_NONE=0,
  80:D:/fchai/work/i-cube/I-CUBE-HUAWEI/Middlewares/Third_Party/Huawei/iot_link/network/dtls/mbedtls/mbedtls-2.16.2/include/mbedtls\pk.h ****     MBEDTLS_PK_RSA,
  81:D:/fchai/work/i-cube/I-CUBE-HUAWEI/Middlewares/Third_Party/Huawei/iot_link/network/dtls/mbedtls/mbedtls-2.16.2/include/mbedtls\pk.h ****     MBEDTLS_PK_ECKEY,
  82:D:/fchai/work/i-cube/I-CUBE-HUAWEI/Middlewares/Third_Party/Huawei/iot_link/network/dtls/mbedtls/mbedtls-2.16.2/include/mbedtls\pk.h ****     MBEDTLS_PK_ECKEY_DH,
  83:D:/fchai/work/i-cube/I-CUBE-HUAWEI/Middlewares/Third_Party/Huawei/iot_link/network/dtls/mbedtls/mbedtls-2.16.2/include/mbedtls\pk.h ****     MBEDTLS_PK_ECDSA,
  84:D:/fchai/work/i-cube/I-CUBE-HUAWEI/Middlewares/Third_Party/Huawei/iot_link/network/dtls/mbedtls/mbedtls-2.16.2/include/mbedtls\pk.h ****     MBEDTLS_PK_RSA_ALT,
  85:D:/fchai/work/i-cube/I-CUBE-HUAWEI/Middlewares/Third_Party/Huawei/iot_link/network/dtls/mbedtls/mbedtls-2.16.2/include/mbedtls\pk.h ****     MBEDTLS_PK_RSASSA_PSS,
  86:D:/fchai/work/i-cube/I-CUBE-HUAWEI/Middlewares/Third_Party/Huawei/iot_link/network/dtls/mbedtls/mbedtls-2.16.2/include/mbedtls\pk.h **** } mbedtls_pk_type_t;
  87:D:/fchai/work/i-cube/I-CUBE-HUAWEI/Middlewares/Third_Party/Huawei/iot_link/network/dtls/mbedtls/mbedtls-2.16.2/include/mbedtls\pk.h **** 
  88:D:/fchai/work/i-cube/I-CUBE-HUAWEI/Middlewares/Third_Party/Huawei/iot_link/network/dtls/mbedtls/mbedtls-2.16.2/include/mbedtls\pk.h **** /**
  89:D:/fchai/work/i-cube/I-CUBE-HUAWEI/Middlewares/Third_Party/Huawei/iot_link/network/dtls/mbedtls/mbedtls-2.16.2/include/mbedtls\pk.h ****  * \brief           Options for RSASSA-PSS signature verification.
  90:D:/fchai/work/i-cube/I-CUBE-HUAWEI/Middlewares/Third_Party/Huawei/iot_link/network/dtls/mbedtls/mbedtls-2.16.2/include/mbedtls\pk.h ****  *                  See \c mbedtls_rsa_rsassa_pss_verify_ext()
  91:D:/fchai/work/i-cube/I-CUBE-HUAWEI/Middlewares/Third_Party/Huawei/iot_link/network/dtls/mbedtls/mbedtls-2.16.2/include/mbedtls\pk.h ****  */
  92:D:/fchai/work/i-cube/I-CUBE-HUAWEI/Middlewares/Third_Party/Huawei/iot_link/network/dtls/mbedtls/mbedtls-2.16.2/include/mbedtls\pk.h **** typedef struct mbedtls_pk_rsassa_pss_options
  93:D:/fchai/work/i-cube/I-CUBE-HUAWEI/Middlewares/Third_Party/Huawei/iot_link/network/dtls/mbedtls/mbedtls-2.16.2/include/mbedtls\pk.h **** {
  94:D:/fchai/work/i-cube/I-CUBE-HUAWEI/Middlewares/Third_Party/Huawei/iot_link/network/dtls/mbedtls/mbedtls-2.16.2/include/mbedtls\pk.h ****     mbedtls_md_type_t mgf1_hash_id;
  95:D:/fchai/work/i-cube/I-CUBE-HUAWEI/Middlewares/Third_Party/Huawei/iot_link/network/dtls/mbedtls/mbedtls-2.16.2/include/mbedtls\pk.h ****     int expected_salt_len;
  96:D:/fchai/work/i-cube/I-CUBE-HUAWEI/Middlewares/Third_Party/Huawei/iot_link/network/dtls/mbedtls/mbedtls-2.16.2/include/mbedtls\pk.h **** 
  97:D:/fchai/work/i-cube/I-CUBE-HUAWEI/Middlewares/Third_Party/Huawei/iot_link/network/dtls/mbedtls/mbedtls-2.16.2/include/mbedtls\pk.h **** } mbedtls_pk_rsassa_pss_options;
  98:D:/fchai/work/i-cube/I-CUBE-HUAWEI/Middlewares/Third_Party/Huawei/iot_link/network/dtls/mbedtls/mbedtls-2.16.2/include/mbedtls\pk.h **** 
  99:D:/fchai/work/i-cube/I-CUBE-HUAWEI/Middlewares/Third_Party/Huawei/iot_link/network/dtls/mbedtls/mbedtls-2.16.2/include/mbedtls\pk.h **** /**
 100:D:/fchai/work/i-cube/I-CUBE-HUAWEI/Middlewares/Third_Party/Huawei/iot_link/network/dtls/mbedtls/mbedtls-2.16.2/include/mbedtls\pk.h ****  * \brief           Types for interfacing with the debug module
 101:D:/fchai/work/i-cube/I-CUBE-HUAWEI/Middlewares/Third_Party/Huawei/iot_link/network/dtls/mbedtls/mbedtls-2.16.2/include/mbedtls\pk.h ****  */
 102:D:/fchai/work/i-cube/I-CUBE-HUAWEI/Middlewares/Third_Party/Huawei/iot_link/network/dtls/mbedtls/mbedtls-2.16.2/include/mbedtls\pk.h **** typedef enum
 103:D:/fchai/work/i-cube/I-CUBE-HUAWEI/Middlewares/Third_Party/Huawei/iot_link/network/dtls/mbedtls/mbedtls-2.16.2/include/mbedtls\pk.h **** {
 104:D:/fchai/work/i-cube/I-CUBE-HUAWEI/Middlewares/Third_Party/Huawei/iot_link/network/dtls/mbedtls/mbedtls-2.16.2/include/mbedtls\pk.h ****     MBEDTLS_PK_DEBUG_NONE = 0,
 105:D:/fchai/work/i-cube/I-CUBE-HUAWEI/Middlewares/Third_Party/Huawei/iot_link/network/dtls/mbedtls/mbedtls-2.16.2/include/mbedtls\pk.h ****     MBEDTLS_PK_DEBUG_MPI,
 106:D:/fchai/work/i-cube/I-CUBE-HUAWEI/Middlewares/Third_Party/Huawei/iot_link/network/dtls/mbedtls/mbedtls-2.16.2/include/mbedtls\pk.h ****     MBEDTLS_PK_DEBUG_ECP,
 107:D:/fchai/work/i-cube/I-CUBE-HUAWEI/Middlewares/Third_Party/Huawei/iot_link/network/dtls/mbedtls/mbedtls-2.16.2/include/mbedtls\pk.h **** } mbedtls_pk_debug_type;
 108:D:/fchai/work/i-cube/I-CUBE-HUAWEI/Middlewares/Third_Party/Huawei/iot_link/network/dtls/mbedtls/mbedtls-2.16.2/include/mbedtls\pk.h **** 
 109:D:/fchai/work/i-cube/I-CUBE-HUAWEI/Middlewares/Third_Party/Huawei/iot_link/network/dtls/mbedtls/mbedtls-2.16.2/include/mbedtls\pk.h **** /**
 110:D:/fchai/work/i-cube/I-CUBE-HUAWEI/Middlewares/Third_Party/Huawei/iot_link/network/dtls/mbedtls/mbedtls-2.16.2/include/mbedtls\pk.h ****  * \brief           Item to send to the debug module
 111:D:/fchai/work/i-cube/I-CUBE-HUAWEI/Middlewares/Third_Party/Huawei/iot_link/network/dtls/mbedtls/mbedtls-2.16.2/include/mbedtls\pk.h ****  */
 112:D:/fchai/work/i-cube/I-CUBE-HUAWEI/Middlewares/Third_Party/Huawei/iot_link/network/dtls/mbedtls/mbedtls-2.16.2/include/mbedtls\pk.h **** typedef struct mbedtls_pk_debug_item
 113:D:/fchai/work/i-cube/I-CUBE-HUAWEI/Middlewares/Third_Party/Huawei/iot_link/network/dtls/mbedtls/mbedtls-2.16.2/include/mbedtls\pk.h **** {
 114:D:/fchai/work/i-cube/I-CUBE-HUAWEI/Middlewares/Third_Party/Huawei/iot_link/network/dtls/mbedtls/mbedtls-2.16.2/include/mbedtls\pk.h ****     mbedtls_pk_debug_type type;
 115:D:/fchai/work/i-cube/I-CUBE-HUAWEI/Middlewares/Third_Party/Huawei/iot_link/network/dtls/mbedtls/mbedtls-2.16.2/include/mbedtls\pk.h ****     const char *name;
 116:D:/fchai/work/i-cube/I-CUBE-HUAWEI/Middlewares/Third_Party/Huawei/iot_link/network/dtls/mbedtls/mbedtls-2.16.2/include/mbedtls\pk.h ****     void *value;
 117:D:/fchai/work/i-cube/I-CUBE-HUAWEI/Middlewares/Third_Party/Huawei/iot_link/network/dtls/mbedtls/mbedtls-2.16.2/include/mbedtls\pk.h **** } mbedtls_pk_debug_item;
 118:D:/fchai/work/i-cube/I-CUBE-HUAWEI/Middlewares/Third_Party/Huawei/iot_link/network/dtls/mbedtls/mbedtls-2.16.2/include/mbedtls\pk.h **** 
 119:D:/fchai/work/i-cube/I-CUBE-HUAWEI/Middlewares/Third_Party/Huawei/iot_link/network/dtls/mbedtls/mbedtls-2.16.2/include/mbedtls\pk.h **** /** Maximum number of item send for debugging, plus 1 */
 120:D:/fchai/work/i-cube/I-CUBE-HUAWEI/Middlewares/Third_Party/Huawei/iot_link/network/dtls/mbedtls/mbedtls-2.16.2/include/mbedtls\pk.h **** #define MBEDTLS_PK_DEBUG_MAX_ITEMS 3
 121:D:/fchai/work/i-cube/I-CUBE-HUAWEI/Middlewares/Third_Party/Huawei/iot_link/network/dtls/mbedtls/mbedtls-2.16.2/include/mbedtls\pk.h **** 
 122:D:/fchai/work/i-cube/I-CUBE-HUAWEI/Middlewares/Third_Party/Huawei/iot_link/network/dtls/mbedtls/mbedtls-2.16.2/include/mbedtls\pk.h **** /**
 123:D:/fchai/work/i-cube/I-CUBE-HUAWEI/Middlewares/Third_Party/Huawei/iot_link/network/dtls/mbedtls/mbedtls-2.16.2/include/mbedtls\pk.h ****  * \brief           Public key information and operations
 124:D:/fchai/work/i-cube/I-CUBE-HUAWEI/Middlewares/Third_Party/Huawei/iot_link/network/dtls/mbedtls/mbedtls-2.16.2/include/mbedtls\pk.h ****  */
ARM GAS  T:\msys\tmp\cc683j1t.s 			page 11


 125:D:/fchai/work/i-cube/I-CUBE-HUAWEI/Middlewares/Third_Party/Huawei/iot_link/network/dtls/mbedtls/mbedtls-2.16.2/include/mbedtls\pk.h **** typedef struct mbedtls_pk_info_t mbedtls_pk_info_t;
 126:D:/fchai/work/i-cube/I-CUBE-HUAWEI/Middlewares/Third_Party/Huawei/iot_link/network/dtls/mbedtls/mbedtls-2.16.2/include/mbedtls\pk.h **** 
 127:D:/fchai/work/i-cube/I-CUBE-HUAWEI/Middlewares/Third_Party/Huawei/iot_link/network/dtls/mbedtls/mbedtls-2.16.2/include/mbedtls\pk.h **** /**
 128:D:/fchai/work/i-cube/I-CUBE-HUAWEI/Middlewares/Third_Party/Huawei/iot_link/network/dtls/mbedtls/mbedtls-2.16.2/include/mbedtls\pk.h ****  * \brief           Public key container
 129:D:/fchai/work/i-cube/I-CUBE-HUAWEI/Middlewares/Third_Party/Huawei/iot_link/network/dtls/mbedtls/mbedtls-2.16.2/include/mbedtls\pk.h ****  */
 130:D:/fchai/work/i-cube/I-CUBE-HUAWEI/Middlewares/Third_Party/Huawei/iot_link/network/dtls/mbedtls/mbedtls-2.16.2/include/mbedtls\pk.h **** typedef struct mbedtls_pk_context
 131:D:/fchai/work/i-cube/I-CUBE-HUAWEI/Middlewares/Third_Party/Huawei/iot_link/network/dtls/mbedtls/mbedtls-2.16.2/include/mbedtls\pk.h **** {
 132:D:/fchai/work/i-cube/I-CUBE-HUAWEI/Middlewares/Third_Party/Huawei/iot_link/network/dtls/mbedtls/mbedtls-2.16.2/include/mbedtls\pk.h ****     const mbedtls_pk_info_t *   pk_info; /**< Public key information         */
 133:D:/fchai/work/i-cube/I-CUBE-HUAWEI/Middlewares/Third_Party/Huawei/iot_link/network/dtls/mbedtls/mbedtls-2.16.2/include/mbedtls\pk.h ****     void *                      pk_ctx;  /**< Underlying public key context  */
 134:D:/fchai/work/i-cube/I-CUBE-HUAWEI/Middlewares/Third_Party/Huawei/iot_link/network/dtls/mbedtls/mbedtls-2.16.2/include/mbedtls\pk.h **** } mbedtls_pk_context;
 135:D:/fchai/work/i-cube/I-CUBE-HUAWEI/Middlewares/Third_Party/Huawei/iot_link/network/dtls/mbedtls/mbedtls-2.16.2/include/mbedtls\pk.h **** 
 136:D:/fchai/work/i-cube/I-CUBE-HUAWEI/Middlewares/Third_Party/Huawei/iot_link/network/dtls/mbedtls/mbedtls-2.16.2/include/mbedtls\pk.h **** #if defined(MBEDTLS_ECDSA_C) && defined(MBEDTLS_ECP_RESTARTABLE)
 137:D:/fchai/work/i-cube/I-CUBE-HUAWEI/Middlewares/Third_Party/Huawei/iot_link/network/dtls/mbedtls/mbedtls-2.16.2/include/mbedtls\pk.h **** /**
 138:D:/fchai/work/i-cube/I-CUBE-HUAWEI/Middlewares/Third_Party/Huawei/iot_link/network/dtls/mbedtls/mbedtls-2.16.2/include/mbedtls\pk.h ****  * \brief           Context for resuming operations
 139:D:/fchai/work/i-cube/I-CUBE-HUAWEI/Middlewares/Third_Party/Huawei/iot_link/network/dtls/mbedtls/mbedtls-2.16.2/include/mbedtls\pk.h ****  */
 140:D:/fchai/work/i-cube/I-CUBE-HUAWEI/Middlewares/Third_Party/Huawei/iot_link/network/dtls/mbedtls/mbedtls-2.16.2/include/mbedtls\pk.h **** typedef struct
 141:D:/fchai/work/i-cube/I-CUBE-HUAWEI/Middlewares/Third_Party/Huawei/iot_link/network/dtls/mbedtls/mbedtls-2.16.2/include/mbedtls\pk.h **** {
 142:D:/fchai/work/i-cube/I-CUBE-HUAWEI/Middlewares/Third_Party/Huawei/iot_link/network/dtls/mbedtls/mbedtls-2.16.2/include/mbedtls\pk.h ****     const mbedtls_pk_info_t *   pk_info; /**< Public key information         */
 143:D:/fchai/work/i-cube/I-CUBE-HUAWEI/Middlewares/Third_Party/Huawei/iot_link/network/dtls/mbedtls/mbedtls-2.16.2/include/mbedtls\pk.h ****     void *                      rs_ctx;  /**< Underlying restart context     */
 144:D:/fchai/work/i-cube/I-CUBE-HUAWEI/Middlewares/Third_Party/Huawei/iot_link/network/dtls/mbedtls/mbedtls-2.16.2/include/mbedtls\pk.h **** } mbedtls_pk_restart_ctx;
 145:D:/fchai/work/i-cube/I-CUBE-HUAWEI/Middlewares/Third_Party/Huawei/iot_link/network/dtls/mbedtls/mbedtls-2.16.2/include/mbedtls\pk.h **** #else /* MBEDTLS_ECDSA_C && MBEDTLS_ECP_RESTARTABLE */
 146:D:/fchai/work/i-cube/I-CUBE-HUAWEI/Middlewares/Third_Party/Huawei/iot_link/network/dtls/mbedtls/mbedtls-2.16.2/include/mbedtls\pk.h **** /* Now we can declare functions that take a pointer to that */
 147:D:/fchai/work/i-cube/I-CUBE-HUAWEI/Middlewares/Third_Party/Huawei/iot_link/network/dtls/mbedtls/mbedtls-2.16.2/include/mbedtls\pk.h **** typedef void mbedtls_pk_restart_ctx;
 148:D:/fchai/work/i-cube/I-CUBE-HUAWEI/Middlewares/Third_Party/Huawei/iot_link/network/dtls/mbedtls/mbedtls-2.16.2/include/mbedtls\pk.h **** #endif /* MBEDTLS_ECDSA_C && MBEDTLS_ECP_RESTARTABLE */
 149:D:/fchai/work/i-cube/I-CUBE-HUAWEI/Middlewares/Third_Party/Huawei/iot_link/network/dtls/mbedtls/mbedtls-2.16.2/include/mbedtls\pk.h **** 
 150:D:/fchai/work/i-cube/I-CUBE-HUAWEI/Middlewares/Third_Party/Huawei/iot_link/network/dtls/mbedtls/mbedtls-2.16.2/include/mbedtls\pk.h **** #if defined(MBEDTLS_RSA_C)
 151:D:/fchai/work/i-cube/I-CUBE-HUAWEI/Middlewares/Third_Party/Huawei/iot_link/network/dtls/mbedtls/mbedtls-2.16.2/include/mbedtls\pk.h **** /**
 152:D:/fchai/work/i-cube/I-CUBE-HUAWEI/Middlewares/Third_Party/Huawei/iot_link/network/dtls/mbedtls/mbedtls-2.16.2/include/mbedtls\pk.h ****  * Quick access to an RSA context inside a PK context.
 153:D:/fchai/work/i-cube/I-CUBE-HUAWEI/Middlewares/Third_Party/Huawei/iot_link/network/dtls/mbedtls/mbedtls-2.16.2/include/mbedtls\pk.h ****  *
 154:D:/fchai/work/i-cube/I-CUBE-HUAWEI/Middlewares/Third_Party/Huawei/iot_link/network/dtls/mbedtls/mbedtls-2.16.2/include/mbedtls\pk.h ****  * \warning You must make sure the PK context actually holds an RSA context
 155:D:/fchai/work/i-cube/I-CUBE-HUAWEI/Middlewares/Third_Party/Huawei/iot_link/network/dtls/mbedtls/mbedtls-2.16.2/include/mbedtls\pk.h ****  * before using this function!
 156:D:/fchai/work/i-cube/I-CUBE-HUAWEI/Middlewares/Third_Party/Huawei/iot_link/network/dtls/mbedtls/mbedtls-2.16.2/include/mbedtls\pk.h ****  */
 157:D:/fchai/work/i-cube/I-CUBE-HUAWEI/Middlewares/Third_Party/Huawei/iot_link/network/dtls/mbedtls/mbedtls-2.16.2/include/mbedtls\pk.h **** static inline mbedtls_rsa_context *mbedtls_pk_rsa( const mbedtls_pk_context pk )
 158:D:/fchai/work/i-cube/I-CUBE-HUAWEI/Middlewares/Third_Party/Huawei/iot_link/network/dtls/mbedtls/mbedtls-2.16.2/include/mbedtls\pk.h **** {
 159:D:/fchai/work/i-cube/I-CUBE-HUAWEI/Middlewares/Third_Party/Huawei/iot_link/network/dtls/mbedtls/mbedtls-2.16.2/include/mbedtls\pk.h ****     return( (mbedtls_rsa_context *) (pk).pk_ctx );
 160:D:/fchai/work/i-cube/I-CUBE-HUAWEI/Middlewares/Third_Party/Huawei/iot_link/network/dtls/mbedtls/mbedtls-2.16.2/include/mbedtls\pk.h **** }
 161:D:/fchai/work/i-cube/I-CUBE-HUAWEI/Middlewares/Third_Party/Huawei/iot_link/network/dtls/mbedtls/mbedtls-2.16.2/include/mbedtls\pk.h **** #endif /* MBEDTLS_RSA_C */
 162:D:/fchai/work/i-cube/I-CUBE-HUAWEI/Middlewares/Third_Party/Huawei/iot_link/network/dtls/mbedtls/mbedtls-2.16.2/include/mbedtls\pk.h **** 
 163:D:/fchai/work/i-cube/I-CUBE-HUAWEI/Middlewares/Third_Party/Huawei/iot_link/network/dtls/mbedtls/mbedtls-2.16.2/include/mbedtls\pk.h **** #if defined(MBEDTLS_ECP_C)
 164:D:/fchai/work/i-cube/I-CUBE-HUAWEI/Middlewares/Third_Party/Huawei/iot_link/network/dtls/mbedtls/mbedtls-2.16.2/include/mbedtls\pk.h **** /**
 165:D:/fchai/work/i-cube/I-CUBE-HUAWEI/Middlewares/Third_Party/Huawei/iot_link/network/dtls/mbedtls/mbedtls-2.16.2/include/mbedtls\pk.h ****  * Quick access to an EC context inside a PK context.
 166:D:/fchai/work/i-cube/I-CUBE-HUAWEI/Middlewares/Third_Party/Huawei/iot_link/network/dtls/mbedtls/mbedtls-2.16.2/include/mbedtls\pk.h ****  *
 167:D:/fchai/work/i-cube/I-CUBE-HUAWEI/Middlewares/Third_Party/Huawei/iot_link/network/dtls/mbedtls/mbedtls-2.16.2/include/mbedtls\pk.h ****  * \warning You must make sure the PK context actually holds an EC context
 168:D:/fchai/work/i-cube/I-CUBE-HUAWEI/Middlewares/Third_Party/Huawei/iot_link/network/dtls/mbedtls/mbedtls-2.16.2/include/mbedtls\pk.h ****  * before using this function!
 169:D:/fchai/work/i-cube/I-CUBE-HUAWEI/Middlewares/Third_Party/Huawei/iot_link/network/dtls/mbedtls/mbedtls-2.16.2/include/mbedtls\pk.h ****  */
 170:D:/fchai/work/i-cube/I-CUBE-HUAWEI/Middlewares/Third_Party/Huawei/iot_link/network/dtls/mbedtls/mbedtls-2.16.2/include/mbedtls\pk.h **** static inline mbedtls_ecp_keypair *mbedtls_pk_ec( const mbedtls_pk_context pk )
 171:D:/fchai/work/i-cube/I-CUBE-HUAWEI/Middlewares/Third_Party/Huawei/iot_link/network/dtls/mbedtls/mbedtls-2.16.2/include/mbedtls\pk.h **** {
 172:D:/fchai/work/i-cube/I-CUBE-HUAWEI/Middlewares/Third_Party/Huawei/iot_link/network/dtls/mbedtls/mbedtls-2.16.2/include/mbedtls\pk.h ****     return( (mbedtls_ecp_keypair *) (pk).pk_ctx );
 257              		.loc 2 172 5 view .LVU72
 258              		.loc 1 173 9 is_stmt 0 view .LVU73
 259 0020 6268     		ldr	r2, [r4, #4]
 260 0022 3946     		mov	r1, r7
 261 0024 3046     		mov	r0, r6
 262 0026 FFF7FEFF 		bl	pk_write_ec_pubkey
 263              	.LVL20:
 264 002a 0446     		mov	r4, r0
 265              	.LVL21:
ARM GAS  T:\msys\tmp\cc683j1t.s 			page 12


 266              	.L10:
 174:D:/fchai/work/i-cube/I-CUBE-HUAWEI/Middlewares/Third_Party/Huawei/iot_link/network/dtls/mbedtls/mbedtls-2.16.2/library\pkwrite.c ****     else
 175:D:/fchai/work/i-cube/I-CUBE-HUAWEI/Middlewares/Third_Party/Huawei/iot_link/network/dtls/mbedtls/mbedtls-2.16.2/library\pkwrite.c **** #endif
 176:D:/fchai/work/i-cube/I-CUBE-HUAWEI/Middlewares/Third_Party/Huawei/iot_link/network/dtls/mbedtls/mbedtls-2.16.2/library\pkwrite.c ****         return( MBEDTLS_ERR_PK_FEATURE_UNAVAILABLE );
 177:D:/fchai/work/i-cube/I-CUBE-HUAWEI/Middlewares/Third_Party/Huawei/iot_link/network/dtls/mbedtls/mbedtls-2.16.2/library\pkwrite.c **** 
 178:D:/fchai/work/i-cube/I-CUBE-HUAWEI/Middlewares/Third_Party/Huawei/iot_link/network/dtls/mbedtls/mbedtls-2.16.2/library\pkwrite.c ****     return( (int) len );
 179:D:/fchai/work/i-cube/I-CUBE-HUAWEI/Middlewares/Third_Party/Huawei/iot_link/network/dtls/mbedtls/mbedtls-2.16.2/library\pkwrite.c **** }
 267              		.loc 1 179 1 view .LVU74
 268 002c 2046     		mov	r0, r4
 269 002e 07B0     		add	sp, sp, #28
 270              	.LCFI9:
 271              		.cfi_remember_state
 272              		.cfi_def_cfa_offset 28
 273              		@ sp needed
 274 0030 BDE8F083 		pop	{r4, r5, r6, r7, r8, r9, pc}
 275              	.LVL22:
 276              	.L21:
 277              	.LCFI10:
 278              		.cfi_restore_state
 168:D:/fchai/work/i-cube/I-CUBE-HUAWEI/Middlewares/Third_Party/Huawei/iot_link/network/dtls/mbedtls/mbedtls-2.16.2/library\pkwrite.c ****     else
 279              		.loc 1 168 9 is_stmt 1 view .LVU75
 168:D:/fchai/work/i-cube/I-CUBE-HUAWEI/Middlewares/Third_Party/Huawei/iot_link/network/dtls/mbedtls/mbedtls-2.16.2/library\pkwrite.c ****     else
 280              		.loc 1 168 9 view .LVU76
 281 0034 D4F80480 		ldr	r8, [r4, #4]
 159:D:/fchai/work/i-cube/I-CUBE-HUAWEI/Middlewares/Third_Party/Huawei/iot_link/network/dtls/mbedtls/mbedtls-2.16.2/include/mbedtls\pk.h **** }
 282              		.loc 2 159 5 view .LVU77
 283              	.LVL23:
 284              	.LBB16:
 285              	.LBI16:
  71:D:/fchai/work/i-cube/I-CUBE-HUAWEI/Middlewares/Third_Party/Huawei/iot_link/network/dtls/mbedtls/mbedtls-2.16.2/library\pkwrite.c ****                                 mbedtls_rsa_context *rsa )
 286              		.loc 1 71 12 view .LVU78
 287              	.LBB17:
  74:D:/fchai/work/i-cube/I-CUBE-HUAWEI/Middlewares/Third_Party/Huawei/iot_link/network/dtls/mbedtls/mbedtls-2.16.2/library\pkwrite.c ****     size_t len = 0;
 288              		.loc 1 74 5 view .LVU79
  75:D:/fchai/work/i-cube/I-CUBE-HUAWEI/Middlewares/Third_Party/Huawei/iot_link/network/dtls/mbedtls/mbedtls-2.16.2/library\pkwrite.c ****     mbedtls_mpi T;
 289              		.loc 1 75 5 view .LVU80
  76:D:/fchai/work/i-cube/I-CUBE-HUAWEI/Middlewares/Third_Party/Huawei/iot_link/network/dtls/mbedtls/mbedtls-2.16.2/library\pkwrite.c **** 
 290              		.loc 1 76 5 view .LVU81
  78:D:/fchai/work/i-cube/I-CUBE-HUAWEI/Middlewares/Third_Party/Huawei/iot_link/network/dtls/mbedtls/mbedtls-2.16.2/library\pkwrite.c **** 
 291              		.loc 1 78 5 view .LVU82
 292 0038 0DF10C09 		add	r9, sp, #12
  81:D:/fchai/work/i-cube/I-CUBE-HUAWEI/Middlewares/Third_Party/Huawei/iot_link/network/dtls/mbedtls/mbedtls-2.16.2/library\pkwrite.c ****          ( ret = mbedtls_asn1_write_mpi( p, start, &T ) ) < 0 )
 293              		.loc 1 81 18 is_stmt 0 view .LVU83
 294 003c 0025     		movs	r5, #0
  78:D:/fchai/work/i-cube/I-CUBE-HUAWEI/Middlewares/Third_Party/Huawei/iot_link/network/dtls/mbedtls/mbedtls-2.16.2/library\pkwrite.c **** 
 295              		.loc 1 78 5 view .LVU84
 296 003e 4846     		mov	r0, r9
 297 0040 FFF7FEFF 		bl	mbedtls_mpi_init
 298              	.LVL24:
  81:D:/fchai/work/i-cube/I-CUBE-HUAWEI/Middlewares/Third_Party/Huawei/iot_link/network/dtls/mbedtls/mbedtls-2.16.2/library\pkwrite.c ****          ( ret = mbedtls_asn1_write_mpi( p, start, &T ) ) < 0 )
 299              		.loc 1 81 5 is_stmt 1 view .LVU85
  81:D:/fchai/work/i-cube/I-CUBE-HUAWEI/Middlewares/Third_Party/Huawei/iot_link/network/dtls/mbedtls/mbedtls-2.16.2/library\pkwrite.c ****          ( ret = mbedtls_asn1_write_mpi( p, start, &T ) ) < 0 )
 300              		.loc 1 81 18 is_stmt 0 view .LVU86
 301 0044 CDF80490 		str	r9, [sp, #4]
 302 0048 4046     		mov	r0, r8
 303 004a 0095     		str	r5, [sp]
 304 004c 2B46     		mov	r3, r5
ARM GAS  T:\msys\tmp\cc683j1t.s 			page 13


 305 004e 2A46     		mov	r2, r5
 306 0050 2946     		mov	r1, r5
 307 0052 FFF7FEFF 		bl	mbedtls_rsa_export
 308              	.LVL25:
  81:D:/fchai/work/i-cube/I-CUBE-HUAWEI/Middlewares/Third_Party/Huawei/iot_link/network/dtls/mbedtls/mbedtls-2.16.2/library\pkwrite.c ****          ( ret = mbedtls_asn1_write_mpi( p, start, &T ) ) < 0 )
 309              		.loc 1 81 8 view .LVU87
 310 0056 0446     		mov	r4, r0
 311              	.LVL26:
  81:D:/fchai/work/i-cube/I-CUBE-HUAWEI/Middlewares/Third_Party/Huawei/iot_link/network/dtls/mbedtls/mbedtls-2.16.2/library\pkwrite.c ****          ( ret = mbedtls_asn1_write_mpi( p, start, &T ) ) < 0 )
 312              		.loc 1 81 8 view .LVU88
 313 0058 C0B1     		cbz	r0, .L22
 314              	.LVL27:
 315              	.L12:
  94:D:/fchai/work/i-cube/I-CUBE-HUAWEI/Middlewares/Third_Party/Huawei/iot_link/network/dtls/mbedtls/mbedtls-2.16.2/library\pkwrite.c ****     if( ret < 0 )
 316              		.loc 1 94 5 is_stmt 1 view .LVU89
 317 005a 4846     		mov	r0, r9
 318 005c FFF7FEFF 		bl	mbedtls_mpi_free
 319              	.LVL28:
  95:D:/fchai/work/i-cube/I-CUBE-HUAWEI/Middlewares/Third_Party/Huawei/iot_link/network/dtls/mbedtls/mbedtls-2.16.2/library\pkwrite.c ****         return( ret );
 320              		.loc 1 95 5 view .LVU90
  95:D:/fchai/work/i-cube/I-CUBE-HUAWEI/Middlewares/Third_Party/Huawei/iot_link/network/dtls/mbedtls/mbedtls-2.16.2/library\pkwrite.c ****         return( ret );
 321              		.loc 1 95 7 is_stmt 0 view .LVU91
 322 0060 002C     		cmp	r4, #0
 323 0062 E3DB     		blt	.L10
 324              	.L14:
  98:D:/fchai/work/i-cube/I-CUBE-HUAWEI/Middlewares/Third_Party/Huawei/iot_link/network/dtls/mbedtls/mbedtls-2.16.2/library\pkwrite.c ****     MBEDTLS_ASN1_CHK_ADD( len, mbedtls_asn1_write_tag( p, start, MBEDTLS_ASN1_CONSTRUCTED |
 325              		.loc 1 98 5 is_stmt 1 view .LVU92
  98:D:/fchai/work/i-cube/I-CUBE-HUAWEI/Middlewares/Third_Party/Huawei/iot_link/network/dtls/mbedtls/mbedtls-2.16.2/library\pkwrite.c ****     MBEDTLS_ASN1_CHK_ADD( len, mbedtls_asn1_write_tag( p, start, MBEDTLS_ASN1_CONSTRUCTED |
 326              		.loc 1 98 5 view .LVU93
 327 0064 2A46     		mov	r2, r5
 328 0066 3946     		mov	r1, r7
 329 0068 3046     		mov	r0, r6
 330 006a FFF7FEFF 		bl	mbedtls_asn1_write_len
 331              	.LVL29:
  98:D:/fchai/work/i-cube/I-CUBE-HUAWEI/Middlewares/Third_Party/Huawei/iot_link/network/dtls/mbedtls/mbedtls-2.16.2/library\pkwrite.c ****     MBEDTLS_ASN1_CHK_ADD( len, mbedtls_asn1_write_tag( p, start, MBEDTLS_ASN1_CONSTRUCTED |
 332              		.loc 1 98 5 is_stmt 0 view .LVU94
 333 006e 041E     		subs	r4, r0, #0
 334 0070 DCDB     		blt	.L10
  98:D:/fchai/work/i-cube/I-CUBE-HUAWEI/Middlewares/Third_Party/Huawei/iot_link/network/dtls/mbedtls/mbedtls-2.16.2/library\pkwrite.c ****     MBEDTLS_ASN1_CHK_ADD( len, mbedtls_asn1_write_tag( p, start, MBEDTLS_ASN1_CONSTRUCTED |
 335              		.loc 1 98 5 is_stmt 1 view .LVU95
  99:D:/fchai/work/i-cube/I-CUBE-HUAWEI/Middlewares/Third_Party/Huawei/iot_link/network/dtls/mbedtls/mbedtls-2.16.2/library\pkwrite.c ****                                                  MBEDTLS_ASN1_SEQUENCE ) );
 336              		.loc 1 99 5 is_stmt 0 view .LVU96
 337 0072 3946     		mov	r1, r7
 338 0074 3046     		mov	r0, r6
 339              	.LVL30:
  99:D:/fchai/work/i-cube/I-CUBE-HUAWEI/Middlewares/Third_Party/Huawei/iot_link/network/dtls/mbedtls/mbedtls-2.16.2/library\pkwrite.c ****                                                  MBEDTLS_ASN1_SEQUENCE ) );
 340              		.loc 1 99 5 view .LVU97
 341 0076 3022     		movs	r2, #48
 342 0078 FFF7FEFF 		bl	mbedtls_asn1_write_tag
 343              	.LVL31:
  98:D:/fchai/work/i-cube/I-CUBE-HUAWEI/Middlewares/Third_Party/Huawei/iot_link/network/dtls/mbedtls/mbedtls-2.16.2/library\pkwrite.c ****     MBEDTLS_ASN1_CHK_ADD( len, mbedtls_asn1_write_tag( p, start, MBEDTLS_ASN1_CONSTRUCTED |
 344              		.loc 1 98 5 view .LVU98
 345 007c 2544     		add	r5, r5, r4
 346              	.LVL32:
  98:D:/fchai/work/i-cube/I-CUBE-HUAWEI/Middlewares/Third_Party/Huawei/iot_link/network/dtls/mbedtls/mbedtls-2.16.2/library\pkwrite.c ****     MBEDTLS_ASN1_CHK_ADD( len, mbedtls_asn1_write_tag( p, start, MBEDTLS_ASN1_CONSTRUCTED |
 347              		.loc 1 98 5 is_stmt 1 view .LVU99
  99:D:/fchai/work/i-cube/I-CUBE-HUAWEI/Middlewares/Third_Party/Huawei/iot_link/network/dtls/mbedtls/mbedtls-2.16.2/library\pkwrite.c ****                                                  MBEDTLS_ASN1_SEQUENCE ) );
ARM GAS  T:\msys\tmp\cc683j1t.s 			page 14


 348              		.loc 1 99 5 view .LVU100
  99:D:/fchai/work/i-cube/I-CUBE-HUAWEI/Middlewares/Third_Party/Huawei/iot_link/network/dtls/mbedtls/mbedtls-2.16.2/library\pkwrite.c ****                                                  MBEDTLS_ASN1_SEQUENCE ) );
 349              		.loc 1 99 5 view .LVU101
  99:D:/fchai/work/i-cube/I-CUBE-HUAWEI/Middlewares/Third_Party/Huawei/iot_link/network/dtls/mbedtls/mbedtls-2.16.2/library\pkwrite.c ****                                                  MBEDTLS_ASN1_SEQUENCE ) );
 350              		.loc 1 99 5 is_stmt 0 view .LVU102
 351 007e 041E     		subs	r4, r0, #0
 352 0080 D4DB     		blt	.L10
  99:D:/fchai/work/i-cube/I-CUBE-HUAWEI/Middlewares/Third_Party/Huawei/iot_link/network/dtls/mbedtls/mbedtls-2.16.2/library\pkwrite.c ****                                                  MBEDTLS_ASN1_SEQUENCE ) );
 353              		.loc 1 99 5 is_stmt 1 view .LVU103
 354              	.LVL33:
  99:D:/fchai/work/i-cube/I-CUBE-HUAWEI/Middlewares/Third_Party/Huawei/iot_link/network/dtls/mbedtls/mbedtls-2.16.2/library\pkwrite.c ****                                                  MBEDTLS_ASN1_SEQUENCE ) );
 355              		.loc 1 99 5 view .LVU104
 102:D:/fchai/work/i-cube/I-CUBE-HUAWEI/Middlewares/Third_Party/Huawei/iot_link/network/dtls/mbedtls/mbedtls-2.16.2/library\pkwrite.c **** }
 356              		.loc 1 102 5 view .LVU105
  99:D:/fchai/work/i-cube/I-CUBE-HUAWEI/Middlewares/Third_Party/Huawei/iot_link/network/dtls/mbedtls/mbedtls-2.16.2/library\pkwrite.c ****                                                  MBEDTLS_ASN1_SEQUENCE ) );
 357              		.loc 1 99 5 is_stmt 0 view .LVU106
 358 0082 2C44     		add	r4, r4, r5
 359              	.LVL34:
  99:D:/fchai/work/i-cube/I-CUBE-HUAWEI/Middlewares/Third_Party/Huawei/iot_link/network/dtls/mbedtls/mbedtls-2.16.2/library\pkwrite.c ****                                                  MBEDTLS_ASN1_SEQUENCE ) );
 360              		.loc 1 99 5 view .LVU107
 361              	.LBE17:
 362              	.LBE16:
 363              		.loc 1 179 1 view .LVU108
 364 0084 2046     		mov	r0, r4
 365 0086 07B0     		add	sp, sp, #28
 366              	.LCFI11:
 367              		.cfi_remember_state
 368              		.cfi_def_cfa_offset 28
 369              		@ sp needed
 370 0088 BDE8F083 		pop	{r4, r5, r6, r7, r8, r9, pc}
 371              	.LVL35:
 372              	.L22:
 373              	.LCFI12:
 374              		.cfi_restore_state
 375              	.LBB19:
 376              	.LBB18:
  82:D:/fchai/work/i-cube/I-CUBE-HUAWEI/Middlewares/Third_Party/Huawei/iot_link/network/dtls/mbedtls/mbedtls-2.16.2/library\pkwrite.c ****         goto end_of_export;
 377              		.loc 1 82 18 view .LVU109
 378 008c 4A46     		mov	r2, r9
 379 008e 3946     		mov	r1, r7
 380 0090 3046     		mov	r0, r6
 381              	.LVL36:
  82:D:/fchai/work/i-cube/I-CUBE-HUAWEI/Middlewares/Third_Party/Huawei/iot_link/network/dtls/mbedtls/mbedtls-2.16.2/library\pkwrite.c ****         goto end_of_export;
 382              		.loc 1 82 18 view .LVU110
 383 0092 FFF7FEFF 		bl	mbedtls_asn1_write_mpi
 384              	.LVL37:
  81:D:/fchai/work/i-cube/I-CUBE-HUAWEI/Middlewares/Third_Party/Huawei/iot_link/network/dtls/mbedtls/mbedtls-2.16.2/library\pkwrite.c ****          ( ret = mbedtls_asn1_write_mpi( p, start, &T ) ) < 0 )
 385              		.loc 1 81 79 view .LVU111
 386 0096 041E     		subs	r4, r0, #0
 387 0098 17DB     		blt	.L13
  84:D:/fchai/work/i-cube/I-CUBE-HUAWEI/Middlewares/Third_Party/Huawei/iot_link/network/dtls/mbedtls/mbedtls-2.16.2/library\pkwrite.c **** 
 388              		.loc 1 84 5 is_stmt 1 view .LVU112
  87:D:/fchai/work/i-cube/I-CUBE-HUAWEI/Middlewares/Third_Party/Huawei/iot_link/network/dtls/mbedtls/mbedtls-2.16.2/library\pkwrite.c ****          ( ret = mbedtls_asn1_write_mpi( p, start, &T ) ) < 0 )
 389              		.loc 1 87 18 is_stmt 0 view .LVU113
 390 009a CDE90055 		strd	r5, r5, [sp]
 391 009e 2B46     		mov	r3, r5
 392 00a0 2A46     		mov	r2, r5
ARM GAS  T:\msys\tmp\cc683j1t.s 			page 15


 393 00a2 4046     		mov	r0, r8
 394              	.LVL38:
  87:D:/fchai/work/i-cube/I-CUBE-HUAWEI/Middlewares/Third_Party/Huawei/iot_link/network/dtls/mbedtls/mbedtls-2.16.2/library\pkwrite.c ****          ( ret = mbedtls_asn1_write_mpi( p, start, &T ) ) < 0 )
 395              		.loc 1 87 18 view .LVU114
 396 00a4 4946     		mov	r1, r9
 397 00a6 FFF7FEFF 		bl	mbedtls_rsa_export
 398              	.LVL39:
  84:D:/fchai/work/i-cube/I-CUBE-HUAWEI/Middlewares/Third_Party/Huawei/iot_link/network/dtls/mbedtls/mbedtls-2.16.2/library\pkwrite.c **** 
 399              		.loc 1 84 9 view .LVU115
 400 00aa 2546     		mov	r5, r4
 401              	.LVL40:
  87:D:/fchai/work/i-cube/I-CUBE-HUAWEI/Middlewares/Third_Party/Huawei/iot_link/network/dtls/mbedtls/mbedtls-2.16.2/library\pkwrite.c ****          ( ret = mbedtls_asn1_write_mpi( p, start, &T ) ) < 0 )
 402              		.loc 1 87 5 is_stmt 1 view .LVU116
  87:D:/fchai/work/i-cube/I-CUBE-HUAWEI/Middlewares/Third_Party/Huawei/iot_link/network/dtls/mbedtls/mbedtls-2.16.2/library\pkwrite.c ****          ( ret = mbedtls_asn1_write_mpi( p, start, &T ) ) < 0 )
 403              		.loc 1 87 8 is_stmt 0 view .LVU117
 404 00ac 0446     		mov	r4, r0
 405 00ae 0028     		cmp	r0, #0
 406 00b0 D3D1     		bne	.L12
  88:D:/fchai/work/i-cube/I-CUBE-HUAWEI/Middlewares/Third_Party/Huawei/iot_link/network/dtls/mbedtls/mbedtls-2.16.2/library\pkwrite.c ****         goto end_of_export;
 407              		.loc 1 88 18 view .LVU118
 408 00b2 4A46     		mov	r2, r9
 409 00b4 3946     		mov	r1, r7
 410 00b6 3046     		mov	r0, r6
 411              	.LVL41:
  88:D:/fchai/work/i-cube/I-CUBE-HUAWEI/Middlewares/Third_Party/Huawei/iot_link/network/dtls/mbedtls/mbedtls-2.16.2/library\pkwrite.c ****         goto end_of_export;
 412              		.loc 1 88 18 view .LVU119
 413 00b8 FFF7FEFF 		bl	mbedtls_asn1_write_mpi
 414              	.LVL42:
  87:D:/fchai/work/i-cube/I-CUBE-HUAWEI/Middlewares/Third_Party/Huawei/iot_link/network/dtls/mbedtls/mbedtls-2.16.2/library\pkwrite.c ****          ( ret = mbedtls_asn1_write_mpi( p, start, &T ) ) < 0 )
 415              		.loc 1 87 79 view .LVU120
 416 00bc 041E     		subs	r4, r0, #0
 417 00be 04DB     		blt	.L13
  90:D:/fchai/work/i-cube/I-CUBE-HUAWEI/Middlewares/Third_Party/Huawei/iot_link/network/dtls/mbedtls/mbedtls-2.16.2/library\pkwrite.c **** 
 418              		.loc 1 90 5 is_stmt 1 view .LVU121
  94:D:/fchai/work/i-cube/I-CUBE-HUAWEI/Middlewares/Third_Party/Huawei/iot_link/network/dtls/mbedtls/mbedtls-2.16.2/library\pkwrite.c ****     if( ret < 0 )
 419              		.loc 1 94 5 is_stmt 0 view .LVU122
 420 00c0 4846     		mov	r0, r9
 421              	.LVL43:
  90:D:/fchai/work/i-cube/I-CUBE-HUAWEI/Middlewares/Third_Party/Huawei/iot_link/network/dtls/mbedtls/mbedtls-2.16.2/library\pkwrite.c **** 
 422              		.loc 1 90 9 view .LVU123
 423 00c2 2544     		add	r5, r5, r4
 424              	.LVL44:
  94:D:/fchai/work/i-cube/I-CUBE-HUAWEI/Middlewares/Third_Party/Huawei/iot_link/network/dtls/mbedtls/mbedtls-2.16.2/library\pkwrite.c ****     if( ret < 0 )
 425              		.loc 1 94 5 is_stmt 1 view .LVU124
 426 00c4 FFF7FEFF 		bl	mbedtls_mpi_free
 427              	.LVL45:
  95:D:/fchai/work/i-cube/I-CUBE-HUAWEI/Middlewares/Third_Party/Huawei/iot_link/network/dtls/mbedtls/mbedtls-2.16.2/library\pkwrite.c ****         return( ret );
 428              		.loc 1 95 5 view .LVU125
 429 00c8 CCE7     		b	.L14
 430              	.LVL46:
 431              	.L13:
  94:D:/fchai/work/i-cube/I-CUBE-HUAWEI/Middlewares/Third_Party/Huawei/iot_link/network/dtls/mbedtls/mbedtls-2.16.2/library\pkwrite.c ****     if( ret < 0 )
 432              		.loc 1 94 5 view .LVU126
 433 00ca 4846     		mov	r0, r9
 434              	.LVL47:
  94:D:/fchai/work/i-cube/I-CUBE-HUAWEI/Middlewares/Third_Party/Huawei/iot_link/network/dtls/mbedtls/mbedtls-2.16.2/library\pkwrite.c ****     if( ret < 0 )
 435              		.loc 1 94 5 is_stmt 0 view .LVU127
ARM GAS  T:\msys\tmp\cc683j1t.s 			page 16


 436 00cc FFF7FEFF 		bl	mbedtls_mpi_free
 437              	.LVL48:
  95:D:/fchai/work/i-cube/I-CUBE-HUAWEI/Middlewares/Third_Party/Huawei/iot_link/network/dtls/mbedtls/mbedtls-2.16.2/library\pkwrite.c ****         return( ret );
 438              		.loc 1 95 5 is_stmt 1 view .LVU128
 439 00d0 ACE7     		b	.L10
 440              	.LVL49:
 441              	.L19:
  95:D:/fchai/work/i-cube/I-CUBE-HUAWEI/Middlewares/Third_Party/Huawei/iot_link/network/dtls/mbedtls/mbedtls-2.16.2/library\pkwrite.c ****         return( ret );
 442              		.loc 1 95 5 is_stmt 0 view .LVU129
 443              	.LBE18:
 444              	.LBE19:
 176:D:/fchai/work/i-cube/I-CUBE-HUAWEI/Middlewares/Third_Party/Huawei/iot_link/network/dtls/mbedtls/mbedtls-2.16.2/library\pkwrite.c **** 
 445              		.loc 1 176 15 view .LVU130
 446 00d2 014C     		ldr	r4, .L23
 447              	.LVL50:
 176:D:/fchai/work/i-cube/I-CUBE-HUAWEI/Middlewares/Third_Party/Huawei/iot_link/network/dtls/mbedtls/mbedtls-2.16.2/library\pkwrite.c **** 
 448              		.loc 1 176 15 view .LVU131
 449 00d4 AAE7     		b	.L10
 450              	.L24:
 451 00d6 00BF     		.align	2
 452              	.L23:
 453 00d8 80C6FFFF 		.word	-14720
 454              		.cfi_endproc
 455              	.LFE16:
 457              		.section	.text.mbedtls_pk_write_pubkey_der,"ax",%progbits
 458              		.align	1
 459              		.p2align 2,,3
 460              		.global	mbedtls_pk_write_pubkey_der
 461              		.syntax unified
 462              		.thumb
 463              		.thumb_func
 464              		.fpu fpv4-sp-d16
 466              	mbedtls_pk_write_pubkey_der:
 467              	.LVL51:
 468              	.LFB17:
 180:D:/fchai/work/i-cube/I-CUBE-HUAWEI/Middlewares/Third_Party/Huawei/iot_link/network/dtls/mbedtls/mbedtls-2.16.2/library\pkwrite.c **** 
 181:D:/fchai/work/i-cube/I-CUBE-HUAWEI/Middlewares/Third_Party/Huawei/iot_link/network/dtls/mbedtls/mbedtls-2.16.2/library\pkwrite.c **** int mbedtls_pk_write_pubkey_der( mbedtls_pk_context *key, unsigned char *buf, size_t size )
 182:D:/fchai/work/i-cube/I-CUBE-HUAWEI/Middlewares/Third_Party/Huawei/iot_link/network/dtls/mbedtls/mbedtls-2.16.2/library\pkwrite.c **** {
 469              		.loc 1 182 1 is_stmt 1 view -0
 470              		.cfi_startproc
 471              		@ args = 0, pretend = 0, frame = 16
 472              		@ frame_needed = 0, uses_anonymous_args = 0
 183:D:/fchai/work/i-cube/I-CUBE-HUAWEI/Middlewares/Third_Party/Huawei/iot_link/network/dtls/mbedtls/mbedtls-2.16.2/library\pkwrite.c ****     int ret;
 473              		.loc 1 183 5 view .LVU133
 184:D:/fchai/work/i-cube/I-CUBE-HUAWEI/Middlewares/Third_Party/Huawei/iot_link/network/dtls/mbedtls/mbedtls-2.16.2/library\pkwrite.c ****     unsigned char *c;
 474              		.loc 1 184 5 view .LVU134
 185:D:/fchai/work/i-cube/I-CUBE-HUAWEI/Middlewares/Third_Party/Huawei/iot_link/network/dtls/mbedtls/mbedtls-2.16.2/library\pkwrite.c ****     size_t len = 0, par_len = 0, oid_len;
 475              		.loc 1 185 5 view .LVU135
 186:D:/fchai/work/i-cube/I-CUBE-HUAWEI/Middlewares/Third_Party/Huawei/iot_link/network/dtls/mbedtls/mbedtls-2.16.2/library\pkwrite.c ****     const char *oid;
 476              		.loc 1 186 5 view .LVU136
 187:D:/fchai/work/i-cube/I-CUBE-HUAWEI/Middlewares/Third_Party/Huawei/iot_link/network/dtls/mbedtls/mbedtls-2.16.2/library\pkwrite.c **** 
 188:D:/fchai/work/i-cube/I-CUBE-HUAWEI/Middlewares/Third_Party/Huawei/iot_link/network/dtls/mbedtls/mbedtls-2.16.2/library\pkwrite.c ****     PK_VALIDATE_RET( key != NULL );
 477              		.loc 1 188 5 view .LVU137
 478              		.loc 1 188 5 view .LVU138
 479              		.loc 1 188 5 view .LVU139
 189:D:/fchai/work/i-cube/I-CUBE-HUAWEI/Middlewares/Third_Party/Huawei/iot_link/network/dtls/mbedtls/mbedtls-2.16.2/library\pkwrite.c ****     if( size == 0 )
 480              		.loc 1 189 5 view .LVU140
ARM GAS  T:\msys\tmp\cc683j1t.s 			page 17


 182:D:/fchai/work/i-cube/I-CUBE-HUAWEI/Middlewares/Third_Party/Huawei/iot_link/network/dtls/mbedtls/mbedtls-2.16.2/library\pkwrite.c ****     int ret;
 481              		.loc 1 182 1 is_stmt 0 view .LVU141
 482 0000 2DE9F043 		push	{r4, r5, r6, r7, r8, r9, lr}
 483              	.LCFI13:
 484              		.cfi_def_cfa_offset 28
 485              		.cfi_offset 4, -28
 486              		.cfi_offset 5, -24
 487              		.cfi_offset 6, -20
 488              		.cfi_offset 7, -16
 489              		.cfi_offset 8, -12
 490              		.cfi_offset 9, -8
 491              		.cfi_offset 14, -4
 492 0004 87B0     		sub	sp, sp, #28
 493              	.LCFI14:
 494              		.cfi_def_cfa_offset 56
 495              		.loc 1 189 7 view .LVU142
 496 0006 002A     		cmp	r2, #0
 497 0008 62D0     		beq	.L28
 190:D:/fchai/work/i-cube/I-CUBE-HUAWEI/Middlewares/Third_Party/Huawei/iot_link/network/dtls/mbedtls/mbedtls-2.16.2/library\pkwrite.c ****         return( MBEDTLS_ERR_ASN1_BUF_TOO_SMALL );
 191:D:/fchai/work/i-cube/I-CUBE-HUAWEI/Middlewares/Third_Party/Huawei/iot_link/network/dtls/mbedtls/mbedtls-2.16.2/library\pkwrite.c ****     PK_VALIDATE_RET( buf != NULL );
 498              		.loc 1 191 5 is_stmt 1 view .LVU143
 499              		.loc 1 191 5 view .LVU144
 500              		.loc 1 191 5 view .LVU145
 192:D:/fchai/work/i-cube/I-CUBE-HUAWEI/Middlewares/Third_Party/Huawei/iot_link/network/dtls/mbedtls/mbedtls-2.16.2/library\pkwrite.c **** 
 193:D:/fchai/work/i-cube/I-CUBE-HUAWEI/Middlewares/Third_Party/Huawei/iot_link/network/dtls/mbedtls/mbedtls-2.16.2/library\pkwrite.c ****     c = buf + size;
 501              		.loc 1 193 5 view .LVU146
 502 000a 0546     		mov	r5, r0
 503              		.loc 1 193 13 is_stmt 0 view .LVU147
 504 000c 8B18     		adds	r3, r1, r2
 194:D:/fchai/work/i-cube/I-CUBE-HUAWEI/Middlewares/Third_Party/Huawei/iot_link/network/dtls/mbedtls/mbedtls-2.16.2/library\pkwrite.c **** 
 195:D:/fchai/work/i-cube/I-CUBE-HUAWEI/Middlewares/Third_Party/Huawei/iot_link/network/dtls/mbedtls/mbedtls-2.16.2/library\pkwrite.c ****     MBEDTLS_ASN1_CHK_ADD( len, mbedtls_pk_write_pubkey( &c, buf, key ) );
 505              		.loc 1 195 5 view .LVU148
 506 000e 03A8     		add	r0, sp, #12
 507              	.LVL52:
 508              		.loc 1 195 5 view .LVU149
 509 0010 2A46     		mov	r2, r5
 510              	.LVL53:
 511              		.loc 1 195 5 view .LVU150
 512 0012 0E46     		mov	r6, r1
 193:D:/fchai/work/i-cube/I-CUBE-HUAWEI/Middlewares/Third_Party/Huawei/iot_link/network/dtls/mbedtls/mbedtls-2.16.2/library\pkwrite.c **** 
 513              		.loc 1 193 7 view .LVU151
 514 0014 0393     		str	r3, [sp, #12]
 515              		.loc 1 195 5 is_stmt 1 view .LVU152
 516              		.loc 1 195 5 view .LVU153
 517 0016 FFF7FEFF 		bl	mbedtls_pk_write_pubkey
 518              	.LVL54:
 519              		.loc 1 195 5 is_stmt 0 view .LVU154
 520 001a 041E     		subs	r4, r0, #0
 521 001c 22DB     		blt	.L25
 522              		.loc 1 195 5 is_stmt 1 discriminator 2 view .LVU155
 523              	.LVL55:
 524              		.loc 1 195 5 discriminator 2 view .LVU156
 196:D:/fchai/work/i-cube/I-CUBE-HUAWEI/Middlewares/Third_Party/Huawei/iot_link/network/dtls/mbedtls/mbedtls-2.16.2/library\pkwrite.c **** 
 197:D:/fchai/work/i-cube/I-CUBE-HUAWEI/Middlewares/Third_Party/Huawei/iot_link/network/dtls/mbedtls/mbedtls-2.16.2/library\pkwrite.c ****     if( c - buf < 1 )
 525              		.loc 1 197 5 discriminator 2 view .LVU157
 526              		.loc 1 197 11 is_stmt 0 discriminator 2 view .LVU158
 527 001e 039B     		ldr	r3, [sp, #12]
ARM GAS  T:\msys\tmp\cc683j1t.s 			page 18


 528 0020 9A1B     		subs	r2, r3, r6
 529              		.loc 1 197 7 discriminator 2 view .LVU159
 530 0022 002A     		cmp	r2, #0
 531 0024 54DD     		ble	.L28
 198:D:/fchai/work/i-cube/I-CUBE-HUAWEI/Middlewares/Third_Party/Huawei/iot_link/network/dtls/mbedtls/mbedtls-2.16.2/library\pkwrite.c ****         return( MBEDTLS_ERR_ASN1_BUF_TOO_SMALL );
 199:D:/fchai/work/i-cube/I-CUBE-HUAWEI/Middlewares/Third_Party/Huawei/iot_link/network/dtls/mbedtls/mbedtls-2.16.2/library\pkwrite.c **** 
 200:D:/fchai/work/i-cube/I-CUBE-HUAWEI/Middlewares/Third_Party/Huawei/iot_link/network/dtls/mbedtls/mbedtls-2.16.2/library\pkwrite.c ****     /*
 201:D:/fchai/work/i-cube/I-CUBE-HUAWEI/Middlewares/Third_Party/Huawei/iot_link/network/dtls/mbedtls/mbedtls-2.16.2/library\pkwrite.c ****      *  SubjectPublicKeyInfo  ::=  SEQUENCE  {
 202:D:/fchai/work/i-cube/I-CUBE-HUAWEI/Middlewares/Third_Party/Huawei/iot_link/network/dtls/mbedtls/mbedtls-2.16.2/library\pkwrite.c ****      *       algorithm            AlgorithmIdentifier,
 203:D:/fchai/work/i-cube/I-CUBE-HUAWEI/Middlewares/Third_Party/Huawei/iot_link/network/dtls/mbedtls/mbedtls-2.16.2/library\pkwrite.c ****      *       subjectPublicKey     BIT STRING }
 204:D:/fchai/work/i-cube/I-CUBE-HUAWEI/Middlewares/Third_Party/Huawei/iot_link/network/dtls/mbedtls/mbedtls-2.16.2/library\pkwrite.c ****      */
 205:D:/fchai/work/i-cube/I-CUBE-HUAWEI/Middlewares/Third_Party/Huawei/iot_link/network/dtls/mbedtls/mbedtls-2.16.2/library\pkwrite.c ****     *--c = 0;
 532              		.loc 1 205 5 is_stmt 1 view .LVU160
 533              		.loc 1 205 6 is_stmt 0 view .LVU161
 534 0026 5A1E     		subs	r2, r3, #1
 206:D:/fchai/work/i-cube/I-CUBE-HUAWEI/Middlewares/Third_Party/Huawei/iot_link/network/dtls/mbedtls/mbedtls-2.16.2/library\pkwrite.c ****     len += 1;
 535              		.loc 1 206 9 view .LVU162
 536 0028 04F10108 		add	r8, r4, #1
 205:D:/fchai/work/i-cube/I-CUBE-HUAWEI/Middlewares/Third_Party/Huawei/iot_link/network/dtls/mbedtls/mbedtls-2.16.2/library\pkwrite.c ****     len += 1;
 537              		.loc 1 205 10 view .LVU163
 538 002c 0021     		movs	r1, #0
 539 002e 0392     		str	r2, [sp, #12]
 207:D:/fchai/work/i-cube/I-CUBE-HUAWEI/Middlewares/Third_Party/Huawei/iot_link/network/dtls/mbedtls/mbedtls-2.16.2/library\pkwrite.c **** 
 208:D:/fchai/work/i-cube/I-CUBE-HUAWEI/Middlewares/Third_Party/Huawei/iot_link/network/dtls/mbedtls/mbedtls-2.16.2/library\pkwrite.c ****     MBEDTLS_ASN1_CHK_ADD( len, mbedtls_asn1_write_len( &c, buf, len ) );
 540              		.loc 1 208 5 view .LVU164
 541 0030 03A8     		add	r0, sp, #12
 542              	.LVL56:
 205:D:/fchai/work/i-cube/I-CUBE-HUAWEI/Middlewares/Third_Party/Huawei/iot_link/network/dtls/mbedtls/mbedtls-2.16.2/library\pkwrite.c ****     len += 1;
 543              		.loc 1 205 10 view .LVU165
 544 0032 03F8011C 		strb	r1, [r3, #-1]
 206:D:/fchai/work/i-cube/I-CUBE-HUAWEI/Middlewares/Third_Party/Huawei/iot_link/network/dtls/mbedtls/mbedtls-2.16.2/library\pkwrite.c **** 
 545              		.loc 1 206 5 is_stmt 1 view .LVU166
 546              	.LVL57:
 547              		.loc 1 208 5 view .LVU167
 548              		.loc 1 208 5 view .LVU168
 549 0036 4246     		mov	r2, r8
 550 0038 3146     		mov	r1, r6
 551 003a FFF7FEFF 		bl	mbedtls_asn1_write_len
 552              	.LVL58:
 553              		.loc 1 208 5 is_stmt 0 view .LVU169
 554 003e 041E     		subs	r4, r0, #0
 555 0040 10DB     		blt	.L25
 556              		.loc 1 208 5 is_stmt 1 discriminator 2 view .LVU170
 557              	.LVL59:
 558              		.loc 1 208 5 discriminator 2 view .LVU171
 209:D:/fchai/work/i-cube/I-CUBE-HUAWEI/Middlewares/Third_Party/Huawei/iot_link/network/dtls/mbedtls/mbedtls-2.16.2/library\pkwrite.c ****     MBEDTLS_ASN1_CHK_ADD( len, mbedtls_asn1_write_tag( &c, buf, MBEDTLS_ASN1_BIT_STRING ) );
 559              		.loc 1 209 5 discriminator 2 view .LVU172
 560              		.loc 1 209 5 discriminator 2 view .LVU173
 561 0042 0322     		movs	r2, #3
 562 0044 3146     		mov	r1, r6
 563 0046 03A8     		add	r0, sp, #12
 564              	.LVL60:
 565              		.loc 1 209 5 is_stmt 0 discriminator 2 view .LVU174
 566 0048 FFF7FEFF 		bl	mbedtls_asn1_write_tag
 567              	.LVL61:
 568              		.loc 1 209 5 discriminator 2 view .LVU175
 569 004c 071E     		subs	r7, r0, #0
ARM GAS  T:\msys\tmp\cc683j1t.s 			page 19


 570 004e 30DB     		blt	.L30
 571              		.loc 1 209 5 is_stmt 1 discriminator 2 view .LVU176
 572              	.LVL62:
 573              		.loc 1 209 5 discriminator 2 view .LVU177
 210:D:/fchai/work/i-cube/I-CUBE-HUAWEI/Middlewares/Third_Party/Huawei/iot_link/network/dtls/mbedtls/mbedtls-2.16.2/library\pkwrite.c **** 
 211:D:/fchai/work/i-cube/I-CUBE-HUAWEI/Middlewares/Third_Party/Huawei/iot_link/network/dtls/mbedtls/mbedtls-2.16.2/library\pkwrite.c ****     if( ( ret = mbedtls_oid_get_oid_by_pk_alg( mbedtls_pk_get_type( key ),
 574              		.loc 1 211 5 discriminator 2 view .LVU178
 575              		.loc 1 211 17 is_stmt 0 discriminator 2 view .LVU179
 576 0050 2846     		mov	r0, r5
 577              	.LVL63:
 578              		.loc 1 211 17 discriminator 2 view .LVU180
 579 0052 FFF7FEFF 		bl	mbedtls_pk_get_type
 580              	.LVL64:
 581 0056 04AA     		add	r2, sp, #16
 582 0058 05A9     		add	r1, sp, #20
 583 005a FFF7FEFF 		bl	mbedtls_oid_get_oid_by_pk_alg
 584              	.LVL65:
 585              		.loc 1 211 7 discriminator 2 view .LVU181
 586 005e 8146     		mov	r9, r0
 587 0060 20B1     		cbz	r0, .L37
 588 0062 0446     		mov	r4, r0
 589              	.LVL66:
 590              	.L25:
 212:D:/fchai/work/i-cube/I-CUBE-HUAWEI/Middlewares/Third_Party/Huawei/iot_link/network/dtls/mbedtls/mbedtls-2.16.2/library\pkwrite.c ****                                        &oid, &oid_len ) ) != 0 )
 213:D:/fchai/work/i-cube/I-CUBE-HUAWEI/Middlewares/Third_Party/Huawei/iot_link/network/dtls/mbedtls/mbedtls-2.16.2/library\pkwrite.c ****     {
 214:D:/fchai/work/i-cube/I-CUBE-HUAWEI/Middlewares/Third_Party/Huawei/iot_link/network/dtls/mbedtls/mbedtls-2.16.2/library\pkwrite.c ****         return( ret );
 215:D:/fchai/work/i-cube/I-CUBE-HUAWEI/Middlewares/Third_Party/Huawei/iot_link/network/dtls/mbedtls/mbedtls-2.16.2/library\pkwrite.c ****     }
 216:D:/fchai/work/i-cube/I-CUBE-HUAWEI/Middlewares/Third_Party/Huawei/iot_link/network/dtls/mbedtls/mbedtls-2.16.2/library\pkwrite.c **** 
 217:D:/fchai/work/i-cube/I-CUBE-HUAWEI/Middlewares/Third_Party/Huawei/iot_link/network/dtls/mbedtls/mbedtls-2.16.2/library\pkwrite.c **** #if defined(MBEDTLS_ECP_C)
 218:D:/fchai/work/i-cube/I-CUBE-HUAWEI/Middlewares/Third_Party/Huawei/iot_link/network/dtls/mbedtls/mbedtls-2.16.2/library\pkwrite.c ****     if( mbedtls_pk_get_type( key ) == MBEDTLS_PK_ECKEY )
 219:D:/fchai/work/i-cube/I-CUBE-HUAWEI/Middlewares/Third_Party/Huawei/iot_link/network/dtls/mbedtls/mbedtls-2.16.2/library\pkwrite.c ****     {
 220:D:/fchai/work/i-cube/I-CUBE-HUAWEI/Middlewares/Third_Party/Huawei/iot_link/network/dtls/mbedtls/mbedtls-2.16.2/library\pkwrite.c ****         MBEDTLS_ASN1_CHK_ADD( par_len, pk_write_ec_param( &c, buf, mbedtls_pk_ec( *key ) ) );
 221:D:/fchai/work/i-cube/I-CUBE-HUAWEI/Middlewares/Third_Party/Huawei/iot_link/network/dtls/mbedtls/mbedtls-2.16.2/library\pkwrite.c ****     }
 222:D:/fchai/work/i-cube/I-CUBE-HUAWEI/Middlewares/Third_Party/Huawei/iot_link/network/dtls/mbedtls/mbedtls-2.16.2/library\pkwrite.c **** #endif
 223:D:/fchai/work/i-cube/I-CUBE-HUAWEI/Middlewares/Third_Party/Huawei/iot_link/network/dtls/mbedtls/mbedtls-2.16.2/library\pkwrite.c **** 
 224:D:/fchai/work/i-cube/I-CUBE-HUAWEI/Middlewares/Third_Party/Huawei/iot_link/network/dtls/mbedtls/mbedtls-2.16.2/library\pkwrite.c ****     MBEDTLS_ASN1_CHK_ADD( len, mbedtls_asn1_write_algorithm_identifier( &c, buf, oid, oid_len,
 225:D:/fchai/work/i-cube/I-CUBE-HUAWEI/Middlewares/Third_Party/Huawei/iot_link/network/dtls/mbedtls/mbedtls-2.16.2/library\pkwrite.c ****                                                         par_len ) );
 226:D:/fchai/work/i-cube/I-CUBE-HUAWEI/Middlewares/Third_Party/Huawei/iot_link/network/dtls/mbedtls/mbedtls-2.16.2/library\pkwrite.c **** 
 227:D:/fchai/work/i-cube/I-CUBE-HUAWEI/Middlewares/Third_Party/Huawei/iot_link/network/dtls/mbedtls/mbedtls-2.16.2/library\pkwrite.c ****     MBEDTLS_ASN1_CHK_ADD( len, mbedtls_asn1_write_len( &c, buf, len ) );
 228:D:/fchai/work/i-cube/I-CUBE-HUAWEI/Middlewares/Third_Party/Huawei/iot_link/network/dtls/mbedtls/mbedtls-2.16.2/library\pkwrite.c ****     MBEDTLS_ASN1_CHK_ADD( len, mbedtls_asn1_write_tag( &c, buf, MBEDTLS_ASN1_CONSTRUCTED |
 229:D:/fchai/work/i-cube/I-CUBE-HUAWEI/Middlewares/Third_Party/Huawei/iot_link/network/dtls/mbedtls/mbedtls-2.16.2/library\pkwrite.c ****                                                 MBEDTLS_ASN1_SEQUENCE ) );
 230:D:/fchai/work/i-cube/I-CUBE-HUAWEI/Middlewares/Third_Party/Huawei/iot_link/network/dtls/mbedtls/mbedtls-2.16.2/library\pkwrite.c **** 
 231:D:/fchai/work/i-cube/I-CUBE-HUAWEI/Middlewares/Third_Party/Huawei/iot_link/network/dtls/mbedtls/mbedtls-2.16.2/library\pkwrite.c ****     return( (int) len );
 232:D:/fchai/work/i-cube/I-CUBE-HUAWEI/Middlewares/Third_Party/Huawei/iot_link/network/dtls/mbedtls/mbedtls-2.16.2/library\pkwrite.c **** }
 591              		.loc 1 232 1 view .LVU182
 592 0064 2046     		mov	r0, r4
 593 0066 07B0     		add	sp, sp, #28
 594              	.LCFI15:
 595              		.cfi_remember_state
 596              		.cfi_def_cfa_offset 28
 597              		@ sp needed
 598 0068 BDE8F083 		pop	{r4, r5, r6, r7, r8, r9, pc}
 599              	.LVL67:
 600              	.L37:
 601              	.LCFI16:
 602              		.cfi_restore_state
 218:D:/fchai/work/i-cube/I-CUBE-HUAWEI/Middlewares/Third_Party/Huawei/iot_link/network/dtls/mbedtls/mbedtls-2.16.2/library\pkwrite.c ****     {
ARM GAS  T:\msys\tmp\cc683j1t.s 			page 20


 603              		.loc 1 218 5 is_stmt 1 view .LVU183
 218:D:/fchai/work/i-cube/I-CUBE-HUAWEI/Middlewares/Third_Party/Huawei/iot_link/network/dtls/mbedtls/mbedtls-2.16.2/library\pkwrite.c ****     {
 604              		.loc 1 218 9 is_stmt 0 view .LVU184
 605 006c 2846     		mov	r0, r5
 606              	.LVL68:
 218:D:/fchai/work/i-cube/I-CUBE-HUAWEI/Middlewares/Third_Party/Huawei/iot_link/network/dtls/mbedtls/mbedtls-2.16.2/library\pkwrite.c ****     {
 607              		.loc 1 218 9 view .LVU185
 608 006e FFF7FEFF 		bl	mbedtls_pk_get_type
 609              	.LVL69:
 218:D:/fchai/work/i-cube/I-CUBE-HUAWEI/Middlewares/Third_Party/Huawei/iot_link/network/dtls/mbedtls/mbedtls-2.16.2/library\pkwrite.c ****     {
 610              		.loc 1 218 7 view .LVU186
 611 0072 0228     		cmp	r0, #2
 612 0074 22D0     		beq	.L38
 185:D:/fchai/work/i-cube/I-CUBE-HUAWEI/Middlewares/Third_Party/Huawei/iot_link/network/dtls/mbedtls/mbedtls-2.16.2/library\pkwrite.c ****     const char *oid;
 613              		.loc 1 185 21 view .LVU187
 614 0076 4846     		mov	r0, r9
 615              	.LVL70:
 616              	.L29:
 220:D:/fchai/work/i-cube/I-CUBE-HUAWEI/Middlewares/Third_Party/Huawei/iot_link/network/dtls/mbedtls/mbedtls-2.16.2/library\pkwrite.c ****     }
 617              		.loc 1 220 9 is_stmt 1 discriminator 3 view .LVU188
 224:D:/fchai/work/i-cube/I-CUBE-HUAWEI/Middlewares/Third_Party/Huawei/iot_link/network/dtls/mbedtls/mbedtls-2.16.2/library\pkwrite.c ****                                                         par_len ) );
 618              		.loc 1 224 5 discriminator 3 view .LVU189
 224:D:/fchai/work/i-cube/I-CUBE-HUAWEI/Middlewares/Third_Party/Huawei/iot_link/network/dtls/mbedtls/mbedtls-2.16.2/library\pkwrite.c ****                                                         par_len ) );
 619              		.loc 1 224 5 discriminator 3 view .LVU190
 620 0078 0090     		str	r0, [sp]
 621 007a DDE90432 		ldrd	r3, r2, [sp, #16]
 622 007e 3146     		mov	r1, r6
 623 0080 03A8     		add	r0, sp, #12
 624              	.LVL71:
 224:D:/fchai/work/i-cube/I-CUBE-HUAWEI/Middlewares/Third_Party/Huawei/iot_link/network/dtls/mbedtls/mbedtls-2.16.2/library\pkwrite.c ****                                                         par_len ) );
 625              		.loc 1 224 5 is_stmt 0 discriminator 3 view .LVU191
 626 0082 FFF7FEFF 		bl	mbedtls_asn1_write_algorithm_identifier
 627              	.LVL72:
 224:D:/fchai/work/i-cube/I-CUBE-HUAWEI/Middlewares/Third_Party/Huawei/iot_link/network/dtls/mbedtls/mbedtls-2.16.2/library\pkwrite.c ****                                                         par_len ) );
 628              		.loc 1 224 5 discriminator 3 view .LVU192
 629 0086 0028     		cmp	r0, #0
 224:D:/fchai/work/i-cube/I-CUBE-HUAWEI/Middlewares/Third_Party/Huawei/iot_link/network/dtls/mbedtls/mbedtls-2.16.2/library\pkwrite.c ****                                                         par_len ) );
 630              		.loc 1 224 5 discriminator 3 view .LVU193
 631 0088 20DB     		blt	.L35
 224:D:/fchai/work/i-cube/I-CUBE-HUAWEI/Middlewares/Third_Party/Huawei/iot_link/network/dtls/mbedtls/mbedtls-2.16.2/library\pkwrite.c ****                                                         par_len ) );
 632              		.loc 1 224 5 is_stmt 1 discriminator 2 view .LVU194
 208:D:/fchai/work/i-cube/I-CUBE-HUAWEI/Middlewares/Third_Party/Huawei/iot_link/network/dtls/mbedtls/mbedtls-2.16.2/library\pkwrite.c ****     MBEDTLS_ASN1_CHK_ADD( len, mbedtls_asn1_write_tag( &c, buf, MBEDTLS_ASN1_BIT_STRING ) );
 633              		.loc 1 208 5 is_stmt 0 discriminator 2 view .LVU195
 634 008a 4444     		add	r4, r4, r8
 635              	.LVL73:
 209:D:/fchai/work/i-cube/I-CUBE-HUAWEI/Middlewares/Third_Party/Huawei/iot_link/network/dtls/mbedtls/mbedtls-2.16.2/library\pkwrite.c **** 
 636              		.loc 1 209 5 discriminator 2 view .LVU196
 637 008c 2744     		add	r7, r7, r4
 224:D:/fchai/work/i-cube/I-CUBE-HUAWEI/Middlewares/Third_Party/Huawei/iot_link/network/dtls/mbedtls/mbedtls-2.16.2/library\pkwrite.c ****                                                         par_len ) );
 638              		.loc 1 224 5 discriminator 2 view .LVU197
 639 008e 0744     		add	r7, r7, r0
 640              	.LVL74:
 224:D:/fchai/work/i-cube/I-CUBE-HUAWEI/Middlewares/Third_Party/Huawei/iot_link/network/dtls/mbedtls/mbedtls-2.16.2/library\pkwrite.c ****                                                         par_len ) );
 641              		.loc 1 224 5 is_stmt 1 discriminator 2 view .LVU198
 227:D:/fchai/work/i-cube/I-CUBE-HUAWEI/Middlewares/Third_Party/Huawei/iot_link/network/dtls/mbedtls/mbedtls-2.16.2/library\pkwrite.c ****     MBEDTLS_ASN1_CHK_ADD( len, mbedtls_asn1_write_tag( &c, buf, MBEDTLS_ASN1_CONSTRUCTED |
 642              		.loc 1 227 5 discriminator 2 view .LVU199
 227:D:/fchai/work/i-cube/I-CUBE-HUAWEI/Middlewares/Third_Party/Huawei/iot_link/network/dtls/mbedtls/mbedtls-2.16.2/library\pkwrite.c ****     MBEDTLS_ASN1_CHK_ADD( len, mbedtls_asn1_write_tag( &c, buf, MBEDTLS_ASN1_CONSTRUCTED |
ARM GAS  T:\msys\tmp\cc683j1t.s 			page 21


 643              		.loc 1 227 5 discriminator 2 view .LVU200
 644 0090 3A46     		mov	r2, r7
 645 0092 3146     		mov	r1, r6
 646 0094 03A8     		add	r0, sp, #12
 647              	.LVL75:
 227:D:/fchai/work/i-cube/I-CUBE-HUAWEI/Middlewares/Third_Party/Huawei/iot_link/network/dtls/mbedtls/mbedtls-2.16.2/library\pkwrite.c ****     MBEDTLS_ASN1_CHK_ADD( len, mbedtls_asn1_write_tag( &c, buf, MBEDTLS_ASN1_CONSTRUCTED |
 648              		.loc 1 227 5 is_stmt 0 discriminator 2 view .LVU201
 649 0096 FFF7FEFF 		bl	mbedtls_asn1_write_len
 650              	.LVL76:
 227:D:/fchai/work/i-cube/I-CUBE-HUAWEI/Middlewares/Third_Party/Huawei/iot_link/network/dtls/mbedtls/mbedtls-2.16.2/library\pkwrite.c ****     MBEDTLS_ASN1_CHK_ADD( len, mbedtls_asn1_write_tag( &c, buf, MBEDTLS_ASN1_CONSTRUCTED |
 651              		.loc 1 227 5 discriminator 2 view .LVU202
 652 009a 041E     		subs	r4, r0, #0
 653 009c E2DB     		blt	.L25
 227:D:/fchai/work/i-cube/I-CUBE-HUAWEI/Middlewares/Third_Party/Huawei/iot_link/network/dtls/mbedtls/mbedtls-2.16.2/library\pkwrite.c ****     MBEDTLS_ASN1_CHK_ADD( len, mbedtls_asn1_write_tag( &c, buf, MBEDTLS_ASN1_CONSTRUCTED |
 654              		.loc 1 227 5 is_stmt 1 discriminator 2 view .LVU203
 655              	.LVL77:
 227:D:/fchai/work/i-cube/I-CUBE-HUAWEI/Middlewares/Third_Party/Huawei/iot_link/network/dtls/mbedtls/mbedtls-2.16.2/library\pkwrite.c ****     MBEDTLS_ASN1_CHK_ADD( len, mbedtls_asn1_write_tag( &c, buf, MBEDTLS_ASN1_CONSTRUCTED |
 656              		.loc 1 227 5 discriminator 2 view .LVU204
 228:D:/fchai/work/i-cube/I-CUBE-HUAWEI/Middlewares/Third_Party/Huawei/iot_link/network/dtls/mbedtls/mbedtls-2.16.2/library\pkwrite.c ****                                                 MBEDTLS_ASN1_SEQUENCE ) );
 657              		.loc 1 228 5 discriminator 2 view .LVU205
 228:D:/fchai/work/i-cube/I-CUBE-HUAWEI/Middlewares/Third_Party/Huawei/iot_link/network/dtls/mbedtls/mbedtls-2.16.2/library\pkwrite.c ****                                                 MBEDTLS_ASN1_SEQUENCE ) );
 658              		.loc 1 228 5 discriminator 2 view .LVU206
 659 009e 3146     		mov	r1, r6
 660 00a0 03A8     		add	r0, sp, #12
 661              	.LVL78:
 228:D:/fchai/work/i-cube/I-CUBE-HUAWEI/Middlewares/Third_Party/Huawei/iot_link/network/dtls/mbedtls/mbedtls-2.16.2/library\pkwrite.c ****                                                 MBEDTLS_ASN1_SEQUENCE ) );
 662              		.loc 1 228 5 is_stmt 0 discriminator 2 view .LVU207
 663 00a2 3022     		movs	r2, #48
 664 00a4 FFF7FEFF 		bl	mbedtls_asn1_write_tag
 665              	.LVL79:
 228:D:/fchai/work/i-cube/I-CUBE-HUAWEI/Middlewares/Third_Party/Huawei/iot_link/network/dtls/mbedtls/mbedtls-2.16.2/library\pkwrite.c ****                                                 MBEDTLS_ASN1_SEQUENCE ) );
 666              		.loc 1 228 5 discriminator 2 view .LVU208
 667 00a8 0028     		cmp	r0, #0
 228:D:/fchai/work/i-cube/I-CUBE-HUAWEI/Middlewares/Third_Party/Huawei/iot_link/network/dtls/mbedtls/mbedtls-2.16.2/library\pkwrite.c ****                                                 MBEDTLS_ASN1_SEQUENCE ) );
 668              		.loc 1 228 5 discriminator 2 view .LVU209
 669 00aa 0FDB     		blt	.L35
 228:D:/fchai/work/i-cube/I-CUBE-HUAWEI/Middlewares/Third_Party/Huawei/iot_link/network/dtls/mbedtls/mbedtls-2.16.2/library\pkwrite.c ****                                                 MBEDTLS_ASN1_SEQUENCE ) );
 670              		.loc 1 228 5 is_stmt 1 discriminator 2 view .LVU210
 227:D:/fchai/work/i-cube/I-CUBE-HUAWEI/Middlewares/Third_Party/Huawei/iot_link/network/dtls/mbedtls/mbedtls-2.16.2/library\pkwrite.c ****     MBEDTLS_ASN1_CHK_ADD( len, mbedtls_asn1_write_tag( &c, buf, MBEDTLS_ASN1_CONSTRUCTED |
 671              		.loc 1 227 5 is_stmt 0 discriminator 2 view .LVU211
 672 00ac 2744     		add	r7, r7, r4
 673              	.LVL80:
 228:D:/fchai/work/i-cube/I-CUBE-HUAWEI/Middlewares/Third_Party/Huawei/iot_link/network/dtls/mbedtls/mbedtls-2.16.2/library\pkwrite.c ****                                                 MBEDTLS_ASN1_SEQUENCE ) );
 674              		.loc 1 228 5 is_stmt 1 discriminator 2 view .LVU212
 231:D:/fchai/work/i-cube/I-CUBE-HUAWEI/Middlewares/Third_Party/Huawei/iot_link/network/dtls/mbedtls/mbedtls-2.16.2/library\pkwrite.c **** }
 675              		.loc 1 231 5 discriminator 2 view .LVU213
 228:D:/fchai/work/i-cube/I-CUBE-HUAWEI/Middlewares/Third_Party/Huawei/iot_link/network/dtls/mbedtls/mbedtls-2.16.2/library\pkwrite.c ****                                                 MBEDTLS_ASN1_SEQUENCE ) );
 676              		.loc 1 228 5 is_stmt 0 discriminator 2 view .LVU214
 677 00ae C419     		adds	r4, r0, r7
 678              	.LVL81:
 231:D:/fchai/work/i-cube/I-CUBE-HUAWEI/Middlewares/Third_Party/Huawei/iot_link/network/dtls/mbedtls/mbedtls-2.16.2/library\pkwrite.c **** }
 679              		.loc 1 231 13 discriminator 2 view .LVU215
 680 00b0 D8E7     		b	.L25
 681              	.LVL82:
 682              	.L30:
 231:D:/fchai/work/i-cube/I-CUBE-HUAWEI/Middlewares/Third_Party/Huawei/iot_link/network/dtls/mbedtls/mbedtls-2.16.2/library\pkwrite.c **** }
 683              		.loc 1 231 13 discriminator 2 view .LVU216
ARM GAS  T:\msys\tmp\cc683j1t.s 			page 22


 684 00b2 3C46     		mov	r4, r7
 685              	.LVL83:
 686              		.loc 1 232 1 view .LVU217
 687 00b4 2046     		mov	r0, r4
 688              	.LVL84:
 689              		.loc 1 232 1 view .LVU218
 690 00b6 07B0     		add	sp, sp, #28
 691              	.LCFI17:
 692              		.cfi_remember_state
 693              		.cfi_def_cfa_offset 28
 694              		@ sp needed
 695 00b8 BDE8F083 		pop	{r4, r5, r6, r7, r8, r9, pc}
 696              	.LVL85:
 697              	.L38:
 698              	.LCFI18:
 699              		.cfi_restore_state
 220:D:/fchai/work/i-cube/I-CUBE-HUAWEI/Middlewares/Third_Party/Huawei/iot_link/network/dtls/mbedtls/mbedtls-2.16.2/library\pkwrite.c ****     }
 700              		.loc 1 220 9 is_stmt 1 view .LVU219
 220:D:/fchai/work/i-cube/I-CUBE-HUAWEI/Middlewares/Third_Party/Huawei/iot_link/network/dtls/mbedtls/mbedtls-2.16.2/library\pkwrite.c ****     }
 701              		.loc 1 220 9 view .LVU220
 702              		.loc 2 172 5 view .LVU221
 220:D:/fchai/work/i-cube/I-CUBE-HUAWEI/Middlewares/Third_Party/Huawei/iot_link/network/dtls/mbedtls/mbedtls-2.16.2/library\pkwrite.c ****     }
 703              		.loc 1 220 9 is_stmt 0 view .LVU222
 704 00bc 6B68     		ldr	r3, [r5, #4]
 705 00be 3146     		mov	r1, r6
 706 00c0 1A78     		ldrb	r2, [r3]	@ zero_extendqisi2
 707 00c2 03A8     		add	r0, sp, #12
 708 00c4 FFF7FEFF 		bl	pk_write_ec_param.isra.0
 709              	.LVL86:
 220:D:/fchai/work/i-cube/I-CUBE-HUAWEI/Middlewares/Third_Party/Huawei/iot_link/network/dtls/mbedtls/mbedtls-2.16.2/library\pkwrite.c ****     }
 710              		.loc 1 220 9 view .LVU223
 711 00c8 0028     		cmp	r0, #0
 220:D:/fchai/work/i-cube/I-CUBE-HUAWEI/Middlewares/Third_Party/Huawei/iot_link/network/dtls/mbedtls/mbedtls-2.16.2/library\pkwrite.c ****     }
 712              		.loc 1 220 9 view .LVU224
 713 00ca D5DA     		bge	.L29
 714              	.LVL87:
 715              	.L35:
 220:D:/fchai/work/i-cube/I-CUBE-HUAWEI/Middlewares/Third_Party/Huawei/iot_link/network/dtls/mbedtls/mbedtls-2.16.2/library\pkwrite.c ****     }
 716              		.loc 1 220 9 view .LVU225
 717 00cc 0446     		mov	r4, r0
 718 00ce C9E7     		b	.L25
 719              	.LVL88:
 720              	.L28:
 190:D:/fchai/work/i-cube/I-CUBE-HUAWEI/Middlewares/Third_Party/Huawei/iot_link/network/dtls/mbedtls/mbedtls-2.16.2/library\pkwrite.c ****     PK_VALIDATE_RET( buf != NULL );
 721              		.loc 1 190 15 view .LVU226
 722 00d0 6FF06B04 		mvn	r4, #107
 723 00d4 C6E7     		b	.L25
 724              		.cfi_endproc
 725              	.LFE17:
 727 00d6 00BF     		.section	.text.mbedtls_pk_write_key_der,"ax",%progbits
 728              		.align	1
 729              		.p2align 2,,3
 730              		.global	mbedtls_pk_write_key_der
 731              		.syntax unified
 732              		.thumb
 733              		.thumb_func
 734              		.fpu fpv4-sp-d16
ARM GAS  T:\msys\tmp\cc683j1t.s 			page 23


 736              	mbedtls_pk_write_key_der:
 737              	.LVL89:
 738              	.LFB18:
 233:D:/fchai/work/i-cube/I-CUBE-HUAWEI/Middlewares/Third_Party/Huawei/iot_link/network/dtls/mbedtls/mbedtls-2.16.2/library\pkwrite.c **** 
 234:D:/fchai/work/i-cube/I-CUBE-HUAWEI/Middlewares/Third_Party/Huawei/iot_link/network/dtls/mbedtls/mbedtls-2.16.2/library\pkwrite.c **** int mbedtls_pk_write_key_der( mbedtls_pk_context *key, unsigned char *buf, size_t size )
 235:D:/fchai/work/i-cube/I-CUBE-HUAWEI/Middlewares/Third_Party/Huawei/iot_link/network/dtls/mbedtls/mbedtls-2.16.2/library\pkwrite.c **** {
 739              		.loc 1 235 1 is_stmt 1 view -0
 740              		.cfi_startproc
 741              		@ args = 0, pretend = 0, frame = 24
 742              		@ frame_needed = 0, uses_anonymous_args = 0
 236:D:/fchai/work/i-cube/I-CUBE-HUAWEI/Middlewares/Third_Party/Huawei/iot_link/network/dtls/mbedtls/mbedtls-2.16.2/library\pkwrite.c ****     int ret;
 743              		.loc 1 236 5 view .LVU228
 237:D:/fchai/work/i-cube/I-CUBE-HUAWEI/Middlewares/Third_Party/Huawei/iot_link/network/dtls/mbedtls/mbedtls-2.16.2/library\pkwrite.c ****     unsigned char *c;
 744              		.loc 1 237 5 view .LVU229
 238:D:/fchai/work/i-cube/I-CUBE-HUAWEI/Middlewares/Third_Party/Huawei/iot_link/network/dtls/mbedtls/mbedtls-2.16.2/library\pkwrite.c ****     size_t len = 0;
 745              		.loc 1 238 5 view .LVU230
 239:D:/fchai/work/i-cube/I-CUBE-HUAWEI/Middlewares/Third_Party/Huawei/iot_link/network/dtls/mbedtls/mbedtls-2.16.2/library\pkwrite.c **** 
 240:D:/fchai/work/i-cube/I-CUBE-HUAWEI/Middlewares/Third_Party/Huawei/iot_link/network/dtls/mbedtls/mbedtls-2.16.2/library\pkwrite.c ****     PK_VALIDATE_RET( key != NULL );
 746              		.loc 1 240 5 view .LVU231
 747              		.loc 1 240 5 view .LVU232
 748              		.loc 1 240 5 view .LVU233
 241:D:/fchai/work/i-cube/I-CUBE-HUAWEI/Middlewares/Third_Party/Huawei/iot_link/network/dtls/mbedtls/mbedtls-2.16.2/library\pkwrite.c ****     if( size == 0 )
 749              		.loc 1 241 5 view .LVU234
 235:D:/fchai/work/i-cube/I-CUBE-HUAWEI/Middlewares/Third_Party/Huawei/iot_link/network/dtls/mbedtls/mbedtls-2.16.2/library\pkwrite.c ****     int ret;
 750              		.loc 1 235 1 is_stmt 0 view .LVU235
 751 0000 2DE9F04F 		push	{r4, r5, r6, r7, r8, r9, r10, fp, lr}
 752              	.LCFI19:
 753              		.cfi_def_cfa_offset 36
 754              		.cfi_offset 4, -36
 755              		.cfi_offset 5, -32
 756              		.cfi_offset 6, -28
 757              		.cfi_offset 7, -24
 758              		.cfi_offset 8, -20
 759              		.cfi_offset 9, -16
 760              		.cfi_offset 10, -12
 761              		.cfi_offset 11, -8
 762              		.cfi_offset 14, -4
 763 0004 89B0     		sub	sp, sp, #36
 764              	.LCFI20:
 765              		.cfi_def_cfa_offset 72
 766              		.loc 1 241 7 view .LVU236
 767 0006 002A     		cmp	r2, #0
 768 0008 00F05F81 		beq	.L48
 242:D:/fchai/work/i-cube/I-CUBE-HUAWEI/Middlewares/Third_Party/Huawei/iot_link/network/dtls/mbedtls/mbedtls-2.16.2/library\pkwrite.c ****         return( MBEDTLS_ERR_ASN1_BUF_TOO_SMALL );
 243:D:/fchai/work/i-cube/I-CUBE-HUAWEI/Middlewares/Third_Party/Huawei/iot_link/network/dtls/mbedtls/mbedtls-2.16.2/library\pkwrite.c ****     PK_VALIDATE_RET( buf != NULL );
 769              		.loc 1 243 5 is_stmt 1 view .LVU237
 770              		.loc 1 243 5 view .LVU238
 771              		.loc 1 243 5 view .LVU239
 244:D:/fchai/work/i-cube/I-CUBE-HUAWEI/Middlewares/Third_Party/Huawei/iot_link/network/dtls/mbedtls/mbedtls-2.16.2/library\pkwrite.c **** 
 245:D:/fchai/work/i-cube/I-CUBE-HUAWEI/Middlewares/Third_Party/Huawei/iot_link/network/dtls/mbedtls/mbedtls-2.16.2/library\pkwrite.c ****     c = buf + size;
 772              		.loc 1 245 5 view .LVU240
 773              		.loc 1 245 13 is_stmt 0 view .LVU241
 774 000c 0A44     		add	r2, r2, r1
 775              	.LVL90:
 776              		.loc 1 245 13 view .LVU242
 777 000e 0D46     		mov	r5, r1
 778 0010 0446     		mov	r4, r0
ARM GAS  T:\msys\tmp\cc683j1t.s 			page 24


 779              		.loc 1 245 7 view .LVU243
 780 0012 0492     		str	r2, [sp, #16]
 246:D:/fchai/work/i-cube/I-CUBE-HUAWEI/Middlewares/Third_Party/Huawei/iot_link/network/dtls/mbedtls/mbedtls-2.16.2/library\pkwrite.c **** 
 247:D:/fchai/work/i-cube/I-CUBE-HUAWEI/Middlewares/Third_Party/Huawei/iot_link/network/dtls/mbedtls/mbedtls-2.16.2/library\pkwrite.c **** #if defined(MBEDTLS_RSA_C)
 248:D:/fchai/work/i-cube/I-CUBE-HUAWEI/Middlewares/Third_Party/Huawei/iot_link/network/dtls/mbedtls/mbedtls-2.16.2/library\pkwrite.c ****     if( mbedtls_pk_get_type( key ) == MBEDTLS_PK_RSA )
 781              		.loc 1 248 5 is_stmt 1 view .LVU244
 782              		.loc 1 248 9 is_stmt 0 view .LVU245
 783 0014 FFF7FEFF 		bl	mbedtls_pk_get_type
 784              	.LVL91:
 785              		.loc 1 248 7 view .LVU246
 786 0018 0128     		cmp	r0, #1
 787 001a 00F08980 		beq	.L61
 249:D:/fchai/work/i-cube/I-CUBE-HUAWEI/Middlewares/Third_Party/Huawei/iot_link/network/dtls/mbedtls/mbedtls-2.16.2/library\pkwrite.c ****     {
 250:D:/fchai/work/i-cube/I-CUBE-HUAWEI/Middlewares/Third_Party/Huawei/iot_link/network/dtls/mbedtls/mbedtls-2.16.2/library\pkwrite.c ****         mbedtls_mpi T; /* Temporary holding the exported parameters */
 251:D:/fchai/work/i-cube/I-CUBE-HUAWEI/Middlewares/Third_Party/Huawei/iot_link/network/dtls/mbedtls/mbedtls-2.16.2/library\pkwrite.c ****         mbedtls_rsa_context *rsa = mbedtls_pk_rsa( *key );
 252:D:/fchai/work/i-cube/I-CUBE-HUAWEI/Middlewares/Third_Party/Huawei/iot_link/network/dtls/mbedtls/mbedtls-2.16.2/library\pkwrite.c **** 
 253:D:/fchai/work/i-cube/I-CUBE-HUAWEI/Middlewares/Third_Party/Huawei/iot_link/network/dtls/mbedtls/mbedtls-2.16.2/library\pkwrite.c ****         /*
 254:D:/fchai/work/i-cube/I-CUBE-HUAWEI/Middlewares/Third_Party/Huawei/iot_link/network/dtls/mbedtls/mbedtls-2.16.2/library\pkwrite.c ****          * Export the parameters one after another to avoid simultaneous copies.
 255:D:/fchai/work/i-cube/I-CUBE-HUAWEI/Middlewares/Third_Party/Huawei/iot_link/network/dtls/mbedtls/mbedtls-2.16.2/library\pkwrite.c ****          */
 256:D:/fchai/work/i-cube/I-CUBE-HUAWEI/Middlewares/Third_Party/Huawei/iot_link/network/dtls/mbedtls/mbedtls-2.16.2/library\pkwrite.c **** 
 257:D:/fchai/work/i-cube/I-CUBE-HUAWEI/Middlewares/Third_Party/Huawei/iot_link/network/dtls/mbedtls/mbedtls-2.16.2/library\pkwrite.c ****         mbedtls_mpi_init( &T );
 258:D:/fchai/work/i-cube/I-CUBE-HUAWEI/Middlewares/Third_Party/Huawei/iot_link/network/dtls/mbedtls/mbedtls-2.16.2/library\pkwrite.c **** 
 259:D:/fchai/work/i-cube/I-CUBE-HUAWEI/Middlewares/Third_Party/Huawei/iot_link/network/dtls/mbedtls/mbedtls-2.16.2/library\pkwrite.c ****         /* Export QP */
 260:D:/fchai/work/i-cube/I-CUBE-HUAWEI/Middlewares/Third_Party/Huawei/iot_link/network/dtls/mbedtls/mbedtls-2.16.2/library\pkwrite.c ****         if( ( ret = mbedtls_rsa_export_crt( rsa, NULL, NULL, &T ) ) != 0 ||
 261:D:/fchai/work/i-cube/I-CUBE-HUAWEI/Middlewares/Third_Party/Huawei/iot_link/network/dtls/mbedtls/mbedtls-2.16.2/library\pkwrite.c ****             ( ret = mbedtls_asn1_write_mpi( &c, buf, &T ) ) < 0 )
 262:D:/fchai/work/i-cube/I-CUBE-HUAWEI/Middlewares/Third_Party/Huawei/iot_link/network/dtls/mbedtls/mbedtls-2.16.2/library\pkwrite.c ****             goto end_of_export;
 263:D:/fchai/work/i-cube/I-CUBE-HUAWEI/Middlewares/Third_Party/Huawei/iot_link/network/dtls/mbedtls/mbedtls-2.16.2/library\pkwrite.c ****         len += ret;
 264:D:/fchai/work/i-cube/I-CUBE-HUAWEI/Middlewares/Third_Party/Huawei/iot_link/network/dtls/mbedtls/mbedtls-2.16.2/library\pkwrite.c **** 
 265:D:/fchai/work/i-cube/I-CUBE-HUAWEI/Middlewares/Third_Party/Huawei/iot_link/network/dtls/mbedtls/mbedtls-2.16.2/library\pkwrite.c ****         /* Export DQ */
 266:D:/fchai/work/i-cube/I-CUBE-HUAWEI/Middlewares/Third_Party/Huawei/iot_link/network/dtls/mbedtls/mbedtls-2.16.2/library\pkwrite.c ****         if( ( ret = mbedtls_rsa_export_crt( rsa, NULL, &T, NULL ) ) != 0 ||
 267:D:/fchai/work/i-cube/I-CUBE-HUAWEI/Middlewares/Third_Party/Huawei/iot_link/network/dtls/mbedtls/mbedtls-2.16.2/library\pkwrite.c ****             ( ret = mbedtls_asn1_write_mpi( &c, buf, &T ) ) < 0 )
 268:D:/fchai/work/i-cube/I-CUBE-HUAWEI/Middlewares/Third_Party/Huawei/iot_link/network/dtls/mbedtls/mbedtls-2.16.2/library\pkwrite.c ****             goto end_of_export;
 269:D:/fchai/work/i-cube/I-CUBE-HUAWEI/Middlewares/Third_Party/Huawei/iot_link/network/dtls/mbedtls/mbedtls-2.16.2/library\pkwrite.c ****         len += ret;
 270:D:/fchai/work/i-cube/I-CUBE-HUAWEI/Middlewares/Third_Party/Huawei/iot_link/network/dtls/mbedtls/mbedtls-2.16.2/library\pkwrite.c **** 
 271:D:/fchai/work/i-cube/I-CUBE-HUAWEI/Middlewares/Third_Party/Huawei/iot_link/network/dtls/mbedtls/mbedtls-2.16.2/library\pkwrite.c ****         /* Export DP */
 272:D:/fchai/work/i-cube/I-CUBE-HUAWEI/Middlewares/Third_Party/Huawei/iot_link/network/dtls/mbedtls/mbedtls-2.16.2/library\pkwrite.c ****         if( ( ret = mbedtls_rsa_export_crt( rsa, &T, NULL, NULL ) ) != 0 ||
 273:D:/fchai/work/i-cube/I-CUBE-HUAWEI/Middlewares/Third_Party/Huawei/iot_link/network/dtls/mbedtls/mbedtls-2.16.2/library\pkwrite.c ****             ( ret = mbedtls_asn1_write_mpi( &c, buf, &T ) ) < 0 )
 274:D:/fchai/work/i-cube/I-CUBE-HUAWEI/Middlewares/Third_Party/Huawei/iot_link/network/dtls/mbedtls/mbedtls-2.16.2/library\pkwrite.c ****             goto end_of_export;
 275:D:/fchai/work/i-cube/I-CUBE-HUAWEI/Middlewares/Third_Party/Huawei/iot_link/network/dtls/mbedtls/mbedtls-2.16.2/library\pkwrite.c ****         len += ret;
 276:D:/fchai/work/i-cube/I-CUBE-HUAWEI/Middlewares/Third_Party/Huawei/iot_link/network/dtls/mbedtls/mbedtls-2.16.2/library\pkwrite.c **** 
 277:D:/fchai/work/i-cube/I-CUBE-HUAWEI/Middlewares/Third_Party/Huawei/iot_link/network/dtls/mbedtls/mbedtls-2.16.2/library\pkwrite.c ****         /* Export Q */
 278:D:/fchai/work/i-cube/I-CUBE-HUAWEI/Middlewares/Third_Party/Huawei/iot_link/network/dtls/mbedtls/mbedtls-2.16.2/library\pkwrite.c ****         if ( ( ret = mbedtls_rsa_export( rsa, NULL, NULL,
 279:D:/fchai/work/i-cube/I-CUBE-HUAWEI/Middlewares/Third_Party/Huawei/iot_link/network/dtls/mbedtls/mbedtls-2.16.2/library\pkwrite.c ****                                          &T, NULL, NULL ) ) != 0 ||
 280:D:/fchai/work/i-cube/I-CUBE-HUAWEI/Middlewares/Third_Party/Huawei/iot_link/network/dtls/mbedtls/mbedtls-2.16.2/library\pkwrite.c ****              ( ret = mbedtls_asn1_write_mpi( &c, buf, &T ) ) < 0 )
 281:D:/fchai/work/i-cube/I-CUBE-HUAWEI/Middlewares/Third_Party/Huawei/iot_link/network/dtls/mbedtls/mbedtls-2.16.2/library\pkwrite.c ****             goto end_of_export;
 282:D:/fchai/work/i-cube/I-CUBE-HUAWEI/Middlewares/Third_Party/Huawei/iot_link/network/dtls/mbedtls/mbedtls-2.16.2/library\pkwrite.c ****         len += ret;
 283:D:/fchai/work/i-cube/I-CUBE-HUAWEI/Middlewares/Third_Party/Huawei/iot_link/network/dtls/mbedtls/mbedtls-2.16.2/library\pkwrite.c **** 
 284:D:/fchai/work/i-cube/I-CUBE-HUAWEI/Middlewares/Third_Party/Huawei/iot_link/network/dtls/mbedtls/mbedtls-2.16.2/library\pkwrite.c ****         /* Export P */
 285:D:/fchai/work/i-cube/I-CUBE-HUAWEI/Middlewares/Third_Party/Huawei/iot_link/network/dtls/mbedtls/mbedtls-2.16.2/library\pkwrite.c ****         if ( ( ret = mbedtls_rsa_export( rsa, NULL, &T,
 286:D:/fchai/work/i-cube/I-CUBE-HUAWEI/Middlewares/Third_Party/Huawei/iot_link/network/dtls/mbedtls/mbedtls-2.16.2/library\pkwrite.c ****                                          NULL, NULL, NULL ) ) != 0 ||
 287:D:/fchai/work/i-cube/I-CUBE-HUAWEI/Middlewares/Third_Party/Huawei/iot_link/network/dtls/mbedtls/mbedtls-2.16.2/library\pkwrite.c ****              ( ret = mbedtls_asn1_write_mpi( &c, buf, &T ) ) < 0 )
 288:D:/fchai/work/i-cube/I-CUBE-HUAWEI/Middlewares/Third_Party/Huawei/iot_link/network/dtls/mbedtls/mbedtls-2.16.2/library\pkwrite.c ****             goto end_of_export;
 289:D:/fchai/work/i-cube/I-CUBE-HUAWEI/Middlewares/Third_Party/Huawei/iot_link/network/dtls/mbedtls/mbedtls-2.16.2/library\pkwrite.c ****         len += ret;
 290:D:/fchai/work/i-cube/I-CUBE-HUAWEI/Middlewares/Third_Party/Huawei/iot_link/network/dtls/mbedtls/mbedtls-2.16.2/library\pkwrite.c **** 
 291:D:/fchai/work/i-cube/I-CUBE-HUAWEI/Middlewares/Third_Party/Huawei/iot_link/network/dtls/mbedtls/mbedtls-2.16.2/library\pkwrite.c ****         /* Export D */
 292:D:/fchai/work/i-cube/I-CUBE-HUAWEI/Middlewares/Third_Party/Huawei/iot_link/network/dtls/mbedtls/mbedtls-2.16.2/library\pkwrite.c ****         if ( ( ret = mbedtls_rsa_export( rsa, NULL, NULL,
 293:D:/fchai/work/i-cube/I-CUBE-HUAWEI/Middlewares/Third_Party/Huawei/iot_link/network/dtls/mbedtls/mbedtls-2.16.2/library\pkwrite.c ****                                          NULL, &T, NULL ) ) != 0 ||
ARM GAS  T:\msys\tmp\cc683j1t.s 			page 25


 294:D:/fchai/work/i-cube/I-CUBE-HUAWEI/Middlewares/Third_Party/Huawei/iot_link/network/dtls/mbedtls/mbedtls-2.16.2/library\pkwrite.c ****              ( ret = mbedtls_asn1_write_mpi( &c, buf, &T ) ) < 0 )
 295:D:/fchai/work/i-cube/I-CUBE-HUAWEI/Middlewares/Third_Party/Huawei/iot_link/network/dtls/mbedtls/mbedtls-2.16.2/library\pkwrite.c ****             goto end_of_export;
 296:D:/fchai/work/i-cube/I-CUBE-HUAWEI/Middlewares/Third_Party/Huawei/iot_link/network/dtls/mbedtls/mbedtls-2.16.2/library\pkwrite.c ****         len += ret;
 297:D:/fchai/work/i-cube/I-CUBE-HUAWEI/Middlewares/Third_Party/Huawei/iot_link/network/dtls/mbedtls/mbedtls-2.16.2/library\pkwrite.c **** 
 298:D:/fchai/work/i-cube/I-CUBE-HUAWEI/Middlewares/Third_Party/Huawei/iot_link/network/dtls/mbedtls/mbedtls-2.16.2/library\pkwrite.c ****         /* Export E */
 299:D:/fchai/work/i-cube/I-CUBE-HUAWEI/Middlewares/Third_Party/Huawei/iot_link/network/dtls/mbedtls/mbedtls-2.16.2/library\pkwrite.c ****         if ( ( ret = mbedtls_rsa_export( rsa, NULL, NULL,
 300:D:/fchai/work/i-cube/I-CUBE-HUAWEI/Middlewares/Third_Party/Huawei/iot_link/network/dtls/mbedtls/mbedtls-2.16.2/library\pkwrite.c ****                                          NULL, NULL, &T ) ) != 0 ||
 301:D:/fchai/work/i-cube/I-CUBE-HUAWEI/Middlewares/Third_Party/Huawei/iot_link/network/dtls/mbedtls/mbedtls-2.16.2/library\pkwrite.c ****              ( ret = mbedtls_asn1_write_mpi( &c, buf, &T ) ) < 0 )
 302:D:/fchai/work/i-cube/I-CUBE-HUAWEI/Middlewares/Third_Party/Huawei/iot_link/network/dtls/mbedtls/mbedtls-2.16.2/library\pkwrite.c ****             goto end_of_export;
 303:D:/fchai/work/i-cube/I-CUBE-HUAWEI/Middlewares/Third_Party/Huawei/iot_link/network/dtls/mbedtls/mbedtls-2.16.2/library\pkwrite.c ****         len += ret;
 304:D:/fchai/work/i-cube/I-CUBE-HUAWEI/Middlewares/Third_Party/Huawei/iot_link/network/dtls/mbedtls/mbedtls-2.16.2/library\pkwrite.c **** 
 305:D:/fchai/work/i-cube/I-CUBE-HUAWEI/Middlewares/Third_Party/Huawei/iot_link/network/dtls/mbedtls/mbedtls-2.16.2/library\pkwrite.c ****         /* Export N */
 306:D:/fchai/work/i-cube/I-CUBE-HUAWEI/Middlewares/Third_Party/Huawei/iot_link/network/dtls/mbedtls/mbedtls-2.16.2/library\pkwrite.c ****         if ( ( ret = mbedtls_rsa_export( rsa, &T, NULL,
 307:D:/fchai/work/i-cube/I-CUBE-HUAWEI/Middlewares/Third_Party/Huawei/iot_link/network/dtls/mbedtls/mbedtls-2.16.2/library\pkwrite.c ****                                          NULL, NULL, NULL ) ) != 0 ||
 308:D:/fchai/work/i-cube/I-CUBE-HUAWEI/Middlewares/Third_Party/Huawei/iot_link/network/dtls/mbedtls/mbedtls-2.16.2/library\pkwrite.c ****              ( ret = mbedtls_asn1_write_mpi( &c, buf, &T ) ) < 0 )
 309:D:/fchai/work/i-cube/I-CUBE-HUAWEI/Middlewares/Third_Party/Huawei/iot_link/network/dtls/mbedtls/mbedtls-2.16.2/library\pkwrite.c ****             goto end_of_export;
 310:D:/fchai/work/i-cube/I-CUBE-HUAWEI/Middlewares/Third_Party/Huawei/iot_link/network/dtls/mbedtls/mbedtls-2.16.2/library\pkwrite.c ****         len += ret;
 311:D:/fchai/work/i-cube/I-CUBE-HUAWEI/Middlewares/Third_Party/Huawei/iot_link/network/dtls/mbedtls/mbedtls-2.16.2/library\pkwrite.c **** 
 312:D:/fchai/work/i-cube/I-CUBE-HUAWEI/Middlewares/Third_Party/Huawei/iot_link/network/dtls/mbedtls/mbedtls-2.16.2/library\pkwrite.c ****     end_of_export:
 313:D:/fchai/work/i-cube/I-CUBE-HUAWEI/Middlewares/Third_Party/Huawei/iot_link/network/dtls/mbedtls/mbedtls-2.16.2/library\pkwrite.c **** 
 314:D:/fchai/work/i-cube/I-CUBE-HUAWEI/Middlewares/Third_Party/Huawei/iot_link/network/dtls/mbedtls/mbedtls-2.16.2/library\pkwrite.c ****         mbedtls_mpi_free( &T );
 315:D:/fchai/work/i-cube/I-CUBE-HUAWEI/Middlewares/Third_Party/Huawei/iot_link/network/dtls/mbedtls/mbedtls-2.16.2/library\pkwrite.c ****         if( ret < 0 )
 316:D:/fchai/work/i-cube/I-CUBE-HUAWEI/Middlewares/Third_Party/Huawei/iot_link/network/dtls/mbedtls/mbedtls-2.16.2/library\pkwrite.c ****             return( ret );
 317:D:/fchai/work/i-cube/I-CUBE-HUAWEI/Middlewares/Third_Party/Huawei/iot_link/network/dtls/mbedtls/mbedtls-2.16.2/library\pkwrite.c **** 
 318:D:/fchai/work/i-cube/I-CUBE-HUAWEI/Middlewares/Third_Party/Huawei/iot_link/network/dtls/mbedtls/mbedtls-2.16.2/library\pkwrite.c ****         MBEDTLS_ASN1_CHK_ADD( len, mbedtls_asn1_write_int( &c, buf, 0 ) );
 319:D:/fchai/work/i-cube/I-CUBE-HUAWEI/Middlewares/Third_Party/Huawei/iot_link/network/dtls/mbedtls/mbedtls-2.16.2/library\pkwrite.c ****         MBEDTLS_ASN1_CHK_ADD( len, mbedtls_asn1_write_len( &c, buf, len ) );
 320:D:/fchai/work/i-cube/I-CUBE-HUAWEI/Middlewares/Third_Party/Huawei/iot_link/network/dtls/mbedtls/mbedtls-2.16.2/library\pkwrite.c ****         MBEDTLS_ASN1_CHK_ADD( len, mbedtls_asn1_write_tag( &c,
 321:D:/fchai/work/i-cube/I-CUBE-HUAWEI/Middlewares/Third_Party/Huawei/iot_link/network/dtls/mbedtls/mbedtls-2.16.2/library\pkwrite.c ****                                                buf, MBEDTLS_ASN1_CONSTRUCTED |
 322:D:/fchai/work/i-cube/I-CUBE-HUAWEI/Middlewares/Third_Party/Huawei/iot_link/network/dtls/mbedtls/mbedtls-2.16.2/library\pkwrite.c ****                                                MBEDTLS_ASN1_SEQUENCE ) );
 323:D:/fchai/work/i-cube/I-CUBE-HUAWEI/Middlewares/Third_Party/Huawei/iot_link/network/dtls/mbedtls/mbedtls-2.16.2/library\pkwrite.c ****     }
 324:D:/fchai/work/i-cube/I-CUBE-HUAWEI/Middlewares/Third_Party/Huawei/iot_link/network/dtls/mbedtls/mbedtls-2.16.2/library\pkwrite.c ****     else
 325:D:/fchai/work/i-cube/I-CUBE-HUAWEI/Middlewares/Third_Party/Huawei/iot_link/network/dtls/mbedtls/mbedtls-2.16.2/library\pkwrite.c **** #endif /* MBEDTLS_RSA_C */
 326:D:/fchai/work/i-cube/I-CUBE-HUAWEI/Middlewares/Third_Party/Huawei/iot_link/network/dtls/mbedtls/mbedtls-2.16.2/library\pkwrite.c **** #if defined(MBEDTLS_ECP_C)
 327:D:/fchai/work/i-cube/I-CUBE-HUAWEI/Middlewares/Third_Party/Huawei/iot_link/network/dtls/mbedtls/mbedtls-2.16.2/library\pkwrite.c ****     if( mbedtls_pk_get_type( key ) == MBEDTLS_PK_ECKEY )
 788              		.loc 1 327 5 is_stmt 1 view .LVU247
 789              		.loc 1 327 9 is_stmt 0 view .LVU248
 790 001e 2046     		mov	r0, r4
 791 0020 FFF7FEFF 		bl	mbedtls_pk_get_type
 792              	.LVL92:
 793              		.loc 1 327 7 view .LVU249
 794 0024 0228     		cmp	r0, #2
 795 0026 40F05381 		bne	.L51
 796              	.LBB20:
 328:D:/fchai/work/i-cube/I-CUBE-HUAWEI/Middlewares/Third_Party/Huawei/iot_link/network/dtls/mbedtls/mbedtls-2.16.2/library\pkwrite.c ****     {
 329:D:/fchai/work/i-cube/I-CUBE-HUAWEI/Middlewares/Third_Party/Huawei/iot_link/network/dtls/mbedtls/mbedtls-2.16.2/library\pkwrite.c ****         mbedtls_ecp_keypair *ec = mbedtls_pk_ec( *key );
 797              		.loc 1 329 9 is_stmt 1 view .LVU250
 798              		.loc 1 329 35 is_stmt 0 view .LVU251
 799 002a 6768     		ldr	r7, [r4, #4]
 800              	.LBE20:
 801              		.loc 2 172 5 is_stmt 1 view .LVU252
 802              	.LVL93:
 803              	.LBB21:
 330:D:/fchai/work/i-cube/I-CUBE-HUAWEI/Middlewares/Third_Party/Huawei/iot_link/network/dtls/mbedtls/mbedtls-2.16.2/library\pkwrite.c ****         size_t pub_len = 0, par_len = 0;
 804              		.loc 1 330 9 view .LVU253
 331:D:/fchai/work/i-cube/I-CUBE-HUAWEI/Middlewares/Third_Party/Huawei/iot_link/network/dtls/mbedtls/mbedtls-2.16.2/library\pkwrite.c **** 
 332:D:/fchai/work/i-cube/I-CUBE-HUAWEI/Middlewares/Third_Party/Huawei/iot_link/network/dtls/mbedtls/mbedtls-2.16.2/library\pkwrite.c ****         /*
 333:D:/fchai/work/i-cube/I-CUBE-HUAWEI/Middlewares/Third_Party/Huawei/iot_link/network/dtls/mbedtls/mbedtls-2.16.2/library\pkwrite.c ****          * RFC 5915, or SEC1 Appendix C.4
ARM GAS  T:\msys\tmp\cc683j1t.s 			page 26


 334:D:/fchai/work/i-cube/I-CUBE-HUAWEI/Middlewares/Third_Party/Huawei/iot_link/network/dtls/mbedtls/mbedtls-2.16.2/library\pkwrite.c ****          *
 335:D:/fchai/work/i-cube/I-CUBE-HUAWEI/Middlewares/Third_Party/Huawei/iot_link/network/dtls/mbedtls/mbedtls-2.16.2/library\pkwrite.c ****          * ECPrivateKey ::= SEQUENCE {
 336:D:/fchai/work/i-cube/I-CUBE-HUAWEI/Middlewares/Third_Party/Huawei/iot_link/network/dtls/mbedtls/mbedtls-2.16.2/library\pkwrite.c ****          *      version        INTEGER { ecPrivkeyVer1(1) } (ecPrivkeyVer1),
 337:D:/fchai/work/i-cube/I-CUBE-HUAWEI/Middlewares/Third_Party/Huawei/iot_link/network/dtls/mbedtls/mbedtls-2.16.2/library\pkwrite.c ****          *      privateKey     OCTET STRING,
 338:D:/fchai/work/i-cube/I-CUBE-HUAWEI/Middlewares/Third_Party/Huawei/iot_link/network/dtls/mbedtls/mbedtls-2.16.2/library\pkwrite.c ****          *      parameters [0] ECParameters {{ NamedCurve }} OPTIONAL,
 339:D:/fchai/work/i-cube/I-CUBE-HUAWEI/Middlewares/Third_Party/Huawei/iot_link/network/dtls/mbedtls/mbedtls-2.16.2/library\pkwrite.c ****          *      publicKey  [1] BIT STRING OPTIONAL
 340:D:/fchai/work/i-cube/I-CUBE-HUAWEI/Middlewares/Third_Party/Huawei/iot_link/network/dtls/mbedtls/mbedtls-2.16.2/library\pkwrite.c ****          *    }
 341:D:/fchai/work/i-cube/I-CUBE-HUAWEI/Middlewares/Third_Party/Huawei/iot_link/network/dtls/mbedtls/mbedtls-2.16.2/library\pkwrite.c ****          */
 342:D:/fchai/work/i-cube/I-CUBE-HUAWEI/Middlewares/Third_Party/Huawei/iot_link/network/dtls/mbedtls/mbedtls-2.16.2/library\pkwrite.c **** 
 343:D:/fchai/work/i-cube/I-CUBE-HUAWEI/Middlewares/Third_Party/Huawei/iot_link/network/dtls/mbedtls/mbedtls-2.16.2/library\pkwrite.c ****         /* publicKey */
 344:D:/fchai/work/i-cube/I-CUBE-HUAWEI/Middlewares/Third_Party/Huawei/iot_link/network/dtls/mbedtls/mbedtls-2.16.2/library\pkwrite.c ****         MBEDTLS_ASN1_CHK_ADD( pub_len, pk_write_ec_pubkey( &c, buf, ec ) );
 805              		.loc 1 344 9 view .LVU254
 806              		.loc 1 344 9 view .LVU255
 807 002c 04AE     		add	r6, sp, #16
 808 002e 3A46     		mov	r2, r7
 809 0030 3046     		mov	r0, r6
 810 0032 2946     		mov	r1, r5
 811 0034 FFF7FEFF 		bl	pk_write_ec_pubkey
 812              	.LVL94:
 813              		.loc 1 344 9 is_stmt 0 view .LVU256
 814 0038 041E     		subs	r4, r0, #0
 815              	.LVL95:
 816              		.loc 1 344 9 view .LVU257
 817 003a 75DB     		blt	.L39
 818              		.loc 1 344 9 is_stmt 1 discriminator 2 view .LVU258
 819              	.LVL96:
 820              		.loc 1 344 9 discriminator 2 view .LVU259
 345:D:/fchai/work/i-cube/I-CUBE-HUAWEI/Middlewares/Third_Party/Huawei/iot_link/network/dtls/mbedtls/mbedtls-2.16.2/library\pkwrite.c **** 
 346:D:/fchai/work/i-cube/I-CUBE-HUAWEI/Middlewares/Third_Party/Huawei/iot_link/network/dtls/mbedtls/mbedtls-2.16.2/library\pkwrite.c ****         if( c - buf < 1 )
 821              		.loc 1 346 9 discriminator 2 view .LVU260
 822              		.loc 1 346 15 is_stmt 0 discriminator 2 view .LVU261
 823 003c 049B     		ldr	r3, [sp, #16]
 824 003e 5A1B     		subs	r2, r3, r5
 825              		.loc 1 346 11 discriminator 2 view .LVU262
 826 0040 002A     		cmp	r2, #0
 827 0042 40F34281 		ble	.L48
 347:D:/fchai/work/i-cube/I-CUBE-HUAWEI/Middlewares/Third_Party/Huawei/iot_link/network/dtls/mbedtls/mbedtls-2.16.2/library\pkwrite.c ****             return( MBEDTLS_ERR_ASN1_BUF_TOO_SMALL );
 348:D:/fchai/work/i-cube/I-CUBE-HUAWEI/Middlewares/Third_Party/Huawei/iot_link/network/dtls/mbedtls/mbedtls-2.16.2/library\pkwrite.c ****         *--c = 0;
 828              		.loc 1 348 9 is_stmt 1 view .LVU263
 829              		.loc 1 348 10 is_stmt 0 view .LVU264
 830 0046 5A1E     		subs	r2, r3, #1
 349:D:/fchai/work/i-cube/I-CUBE-HUAWEI/Middlewares/Third_Party/Huawei/iot_link/network/dtls/mbedtls/mbedtls-2.16.2/library\pkwrite.c ****         pub_len += 1;
 831              		.loc 1 349 17 view .LVU265
 832 0048 04F10108 		add	r8, r4, #1
 348:D:/fchai/work/i-cube/I-CUBE-HUAWEI/Middlewares/Third_Party/Huawei/iot_link/network/dtls/mbedtls/mbedtls-2.16.2/library\pkwrite.c ****         pub_len += 1;
 833              		.loc 1 348 14 view .LVU266
 834 004c 0021     		movs	r1, #0
 835 004e 0492     		str	r2, [sp, #16]
 350:D:/fchai/work/i-cube/I-CUBE-HUAWEI/Middlewares/Third_Party/Huawei/iot_link/network/dtls/mbedtls/mbedtls-2.16.2/library\pkwrite.c **** 
 351:D:/fchai/work/i-cube/I-CUBE-HUAWEI/Middlewares/Third_Party/Huawei/iot_link/network/dtls/mbedtls/mbedtls-2.16.2/library\pkwrite.c ****         MBEDTLS_ASN1_CHK_ADD( pub_len, mbedtls_asn1_write_len( &c, buf, pub_len ) );
 836              		.loc 1 351 9 view .LVU267
 837 0050 3046     		mov	r0, r6
 838              	.LVL97:
 348:D:/fchai/work/i-cube/I-CUBE-HUAWEI/Middlewares/Third_Party/Huawei/iot_link/network/dtls/mbedtls/mbedtls-2.16.2/library\pkwrite.c ****         pub_len += 1;
 839              		.loc 1 348 14 view .LVU268
 840 0052 03F8011C 		strb	r1, [r3, #-1]
 349:D:/fchai/work/i-cube/I-CUBE-HUAWEI/Middlewares/Third_Party/Huawei/iot_link/network/dtls/mbedtls/mbedtls-2.16.2/library\pkwrite.c **** 
ARM GAS  T:\msys\tmp\cc683j1t.s 			page 27


 841              		.loc 1 349 9 is_stmt 1 view .LVU269
 842              	.LVL98:
 843              		.loc 1 351 9 view .LVU270
 844              		.loc 1 351 9 view .LVU271
 845 0056 4246     		mov	r2, r8
 846 0058 2946     		mov	r1, r5
 847 005a FFF7FEFF 		bl	mbedtls_asn1_write_len
 848              	.LVL99:
 849              		.loc 1 351 9 is_stmt 0 view .LVU272
 850 005e 041E     		subs	r4, r0, #0
 851 0060 62DB     		blt	.L39
 852              		.loc 1 351 9 is_stmt 1 discriminator 2 view .LVU273
 853              	.LVL100:
 854              		.loc 1 351 9 discriminator 2 view .LVU274
 352:D:/fchai/work/i-cube/I-CUBE-HUAWEI/Middlewares/Third_Party/Huawei/iot_link/network/dtls/mbedtls/mbedtls-2.16.2/library\pkwrite.c ****         MBEDTLS_ASN1_CHK_ADD( pub_len, mbedtls_asn1_write_tag( &c, buf, MBEDTLS_ASN1_BIT_STRING ) )
 855              		.loc 1 352 9 discriminator 2 view .LVU275
 856              		.loc 1 352 9 discriminator 2 view .LVU276
 857 0062 0322     		movs	r2, #3
 858 0064 2946     		mov	r1, r5
 859 0066 3046     		mov	r0, r6
 860              	.LVL101:
 861              		.loc 1 352 9 is_stmt 0 discriminator 2 view .LVU277
 862 0068 FFF7FEFF 		bl	mbedtls_asn1_write_tag
 863              	.LVL102:
 864              		.loc 1 352 9 discriminator 2 view .LVU278
 865 006c 0028     		cmp	r0, #0
 866              		.loc 1 352 9 discriminator 2 view .LVU279
 867 006e 5ADB     		blt	.L59
 868              		.loc 1 352 9 is_stmt 1 discriminator 2 view .LVU280
 351:D:/fchai/work/i-cube/I-CUBE-HUAWEI/Middlewares/Third_Party/Huawei/iot_link/network/dtls/mbedtls/mbedtls-2.16.2/library\pkwrite.c ****         MBEDTLS_ASN1_CHK_ADD( pub_len, mbedtls_asn1_write_tag( &c, buf, MBEDTLS_ASN1_BIT_STRING ) )
 869              		.loc 1 351 9 is_stmt 0 discriminator 2 view .LVU281
 870 0070 A044     		add	r8, r8, r4
 871              	.LVL103:
 872              		.loc 1 352 9 discriminator 2 view .LVU282
 873 0072 8044     		add	r8, r8, r0
 874              	.LVL104:
 875              		.loc 1 352 9 is_stmt 1 discriminator 2 view .LVU283
 353:D:/fchai/work/i-cube/I-CUBE-HUAWEI/Middlewares/Third_Party/Huawei/iot_link/network/dtls/mbedtls/mbedtls-2.16.2/library\pkwrite.c **** 
 354:D:/fchai/work/i-cube/I-CUBE-HUAWEI/Middlewares/Third_Party/Huawei/iot_link/network/dtls/mbedtls/mbedtls-2.16.2/library\pkwrite.c ****         MBEDTLS_ASN1_CHK_ADD( pub_len, mbedtls_asn1_write_len( &c, buf, pub_len ) );
 876              		.loc 1 354 9 discriminator 2 view .LVU284
 877              		.loc 1 354 9 discriminator 2 view .LVU285
 878 0074 4246     		mov	r2, r8
 879 0076 2946     		mov	r1, r5
 880 0078 3046     		mov	r0, r6
 881              	.LVL105:
 882              		.loc 1 354 9 is_stmt 0 discriminator 2 view .LVU286
 883 007a FFF7FEFF 		bl	mbedtls_asn1_write_len
 884              	.LVL106:
 885              		.loc 1 354 9 discriminator 2 view .LVU287
 886 007e 041E     		subs	r4, r0, #0
 887 0080 52DB     		blt	.L39
 888              		.loc 1 354 9 is_stmt 1 discriminator 2 view .LVU288
 889              	.LVL107:
 890              		.loc 1 354 9 discriminator 2 view .LVU289
 355:D:/fchai/work/i-cube/I-CUBE-HUAWEI/Middlewares/Third_Party/Huawei/iot_link/network/dtls/mbedtls/mbedtls-2.16.2/library\pkwrite.c ****         MBEDTLS_ASN1_CHK_ADD( pub_len, mbedtls_asn1_write_tag( &c, buf,
 891              		.loc 1 355 9 discriminator 2 view .LVU290
 892              		.loc 1 355 9 discriminator 2 view .LVU291
ARM GAS  T:\msys\tmp\cc683j1t.s 			page 28


 893 0082 A122     		movs	r2, #161
 894 0084 2946     		mov	r1, r5
 895 0086 3046     		mov	r0, r6
 896              	.LVL108:
 897              		.loc 1 355 9 is_stmt 0 discriminator 2 view .LVU292
 898 0088 FFF7FEFF 		bl	mbedtls_asn1_write_tag
 899              	.LVL109:
 900              		.loc 1 355 9 discriminator 2 view .LVU293
 901 008c B0F10009 		subs	r9, r0, #0
 902 0090 C0F21981 		blt	.L53
 903              		.loc 1 355 9 is_stmt 1 discriminator 2 view .LVU294
 904              	.LVL110:
 905              		.loc 1 355 9 discriminator 2 view .LVU295
 356:D:/fchai/work/i-cube/I-CUBE-HUAWEI/Middlewares/Third_Party/Huawei/iot_link/network/dtls/mbedtls/mbedtls-2.16.2/library\pkwrite.c ****                             MBEDTLS_ASN1_CONTEXT_SPECIFIC | MBEDTLS_ASN1_CONSTRUCTED | 1 ) );
 357:D:/fchai/work/i-cube/I-CUBE-HUAWEI/Middlewares/Third_Party/Huawei/iot_link/network/dtls/mbedtls/mbedtls-2.16.2/library\pkwrite.c ****         len += pub_len;
 906              		.loc 1 357 9 discriminator 2 view .LVU296
 358:D:/fchai/work/i-cube/I-CUBE-HUAWEI/Middlewares/Third_Party/Huawei/iot_link/network/dtls/mbedtls/mbedtls-2.16.2/library\pkwrite.c **** 
 359:D:/fchai/work/i-cube/I-CUBE-HUAWEI/Middlewares/Third_Party/Huawei/iot_link/network/dtls/mbedtls/mbedtls-2.16.2/library\pkwrite.c ****         /* parameters */
 360:D:/fchai/work/i-cube/I-CUBE-HUAWEI/Middlewares/Third_Party/Huawei/iot_link/network/dtls/mbedtls/mbedtls-2.16.2/library\pkwrite.c ****         MBEDTLS_ASN1_CHK_ADD( par_len, pk_write_ec_param( &c, buf, ec ) );
 907              		.loc 1 360 9 discriminator 2 view .LVU297
 908              		.loc 1 360 9 discriminator 2 view .LVU298
 909 0094 3A78     		ldrb	r2, [r7]	@ zero_extendqisi2
 910 0096 2946     		mov	r1, r5
 911 0098 3046     		mov	r0, r6
 912              	.LVL111:
 913              		.loc 1 360 9 is_stmt 0 discriminator 2 view .LVU299
 914 009a FFF7FEFF 		bl	pk_write_ec_param.isra.0
 915              	.LVL112:
 916              		.loc 1 360 9 discriminator 2 view .LVU300
 917 009e B0F1000B 		subs	fp, r0, #0
 918 00a2 C0F20E81 		blt	.L54
 919              		.loc 1 360 9 is_stmt 1 discriminator 2 view .LVU301
 920              	.LVL113:
 921              		.loc 1 360 9 discriminator 2 view .LVU302
 361:D:/fchai/work/i-cube/I-CUBE-HUAWEI/Middlewares/Third_Party/Huawei/iot_link/network/dtls/mbedtls/mbedtls-2.16.2/library\pkwrite.c **** 
 362:D:/fchai/work/i-cube/I-CUBE-HUAWEI/Middlewares/Third_Party/Huawei/iot_link/network/dtls/mbedtls/mbedtls-2.16.2/library\pkwrite.c ****         MBEDTLS_ASN1_CHK_ADD( par_len, mbedtls_asn1_write_len( &c, buf, par_len ) );
 922              		.loc 1 362 9 discriminator 2 view .LVU303
 923              		.loc 1 362 9 discriminator 2 view .LVU304
 924 00a6 5A46     		mov	r2, fp
 925 00a8 2946     		mov	r1, r5
 926 00aa 3046     		mov	r0, r6
 927              	.LVL114:
 928              		.loc 1 362 9 is_stmt 0 discriminator 2 view .LVU305
 929 00ac FFF7FEFF 		bl	mbedtls_asn1_write_len
 930              	.LVL115:
 931              		.loc 1 362 9 discriminator 2 view .LVU306
 932 00b0 B0F1000A 		subs	r10, r0, #0
 933 00b4 C0F20E81 		blt	.L55
 934              		.loc 1 362 9 is_stmt 1 discriminator 2 view .LVU307
 935              	.LVL116:
 936              		.loc 1 362 9 discriminator 2 view .LVU308
 363:D:/fchai/work/i-cube/I-CUBE-HUAWEI/Middlewares/Third_Party/Huawei/iot_link/network/dtls/mbedtls/mbedtls-2.16.2/library\pkwrite.c ****         MBEDTLS_ASN1_CHK_ADD( par_len, mbedtls_asn1_write_tag( &c, buf,
 937              		.loc 1 363 9 discriminator 2 view .LVU309
 938              		.loc 1 363 9 discriminator 2 view .LVU310
 939 00b8 A022     		movs	r2, #160
 940 00ba 2946     		mov	r1, r5
 941 00bc 3046     		mov	r0, r6
ARM GAS  T:\msys\tmp\cc683j1t.s 			page 29


 942              	.LVL117:
 943              		.loc 1 363 9 is_stmt 0 discriminator 2 view .LVU311
 944 00be FFF7FEFF 		bl	mbedtls_asn1_write_tag
 945              	.LVL118:
 946              		.loc 1 363 9 discriminator 2 view .LVU312
 947 00c2 031E     		subs	r3, r0, #0
 948 00c4 0393     		str	r3, [sp, #12]
 949 00c6 C0F20781 		blt	.L56
 950              		.loc 1 363 9 is_stmt 1 discriminator 2 view .LVU313
 951              	.LVL119:
 952              		.loc 1 363 9 discriminator 2 view .LVU314
 364:D:/fchai/work/i-cube/I-CUBE-HUAWEI/Middlewares/Third_Party/Huawei/iot_link/network/dtls/mbedtls/mbedtls-2.16.2/library\pkwrite.c ****                             MBEDTLS_ASN1_CONTEXT_SPECIFIC | MBEDTLS_ASN1_CONSTRUCTED | 0 ) );
 365:D:/fchai/work/i-cube/I-CUBE-HUAWEI/Middlewares/Third_Party/Huawei/iot_link/network/dtls/mbedtls/mbedtls-2.16.2/library\pkwrite.c ****         len += par_len;
 953              		.loc 1 365 9 discriminator 2 view .LVU315
 366:D:/fchai/work/i-cube/I-CUBE-HUAWEI/Middlewares/Third_Party/Huawei/iot_link/network/dtls/mbedtls/mbedtls-2.16.2/library\pkwrite.c **** 
 367:D:/fchai/work/i-cube/I-CUBE-HUAWEI/Middlewares/Third_Party/Huawei/iot_link/network/dtls/mbedtls/mbedtls-2.16.2/library\pkwrite.c ****         /* privateKey: write as MPI then fix tag */
 368:D:/fchai/work/i-cube/I-CUBE-HUAWEI/Middlewares/Third_Party/Huawei/iot_link/network/dtls/mbedtls/mbedtls-2.16.2/library\pkwrite.c ****         MBEDTLS_ASN1_CHK_ADD( len, mbedtls_asn1_write_mpi( &c, buf, &ec->d ) );
 954              		.loc 1 368 9 discriminator 2 view .LVU316
 955              		.loc 1 368 9 discriminator 2 view .LVU317
 956 00ca 07F17C02 		add	r2, r7, #124
 957 00ce 2946     		mov	r1, r5
 958 00d0 3046     		mov	r0, r6
 959              	.LVL120:
 960              		.loc 1 368 9 is_stmt 0 discriminator 2 view .LVU318
 961 00d2 FFF7FEFF 		bl	mbedtls_asn1_write_mpi
 962              	.LVL121:
 963              		.loc 1 368 9 discriminator 2 view .LVU319
 964 00d6 071E     		subs	r7, r0, #0
 965              	.LVL122:
 966              		.loc 1 368 9 discriminator 2 view .LVU320
 967 00d8 C0F20081 		blt	.L57
 968              		.loc 1 368 9 is_stmt 1 discriminator 2 view .LVU321
 969              	.LVL123:
 970              		.loc 1 368 9 discriminator 2 view .LVU322
 369:D:/fchai/work/i-cube/I-CUBE-HUAWEI/Middlewares/Third_Party/Huawei/iot_link/network/dtls/mbedtls/mbedtls-2.16.2/library\pkwrite.c ****         *c = MBEDTLS_ASN1_OCTET_STRING;
 971              		.loc 1 369 9 discriminator 2 view .LVU323
 972 00dc 049A     		ldr	r2, [sp, #16]
 973              		.loc 1 369 12 is_stmt 0 discriminator 2 view .LVU324
 974 00de 0421     		movs	r1, #4
 975 00e0 1170     		strb	r1, [r2]
 370:D:/fchai/work/i-cube/I-CUBE-HUAWEI/Middlewares/Third_Party/Huawei/iot_link/network/dtls/mbedtls/mbedtls-2.16.2/library\pkwrite.c **** 
 371:D:/fchai/work/i-cube/I-CUBE-HUAWEI/Middlewares/Third_Party/Huawei/iot_link/network/dtls/mbedtls/mbedtls-2.16.2/library\pkwrite.c ****         /* version */
 372:D:/fchai/work/i-cube/I-CUBE-HUAWEI/Middlewares/Third_Party/Huawei/iot_link/network/dtls/mbedtls/mbedtls-2.16.2/library\pkwrite.c ****         MBEDTLS_ASN1_CHK_ADD( len, mbedtls_asn1_write_int( &c, buf, 1 ) );
 976              		.loc 1 372 9 is_stmt 1 discriminator 2 view .LVU325
 977              		.loc 1 372 9 discriminator 2 view .LVU326
 978 00e2 3046     		mov	r0, r6
 979              	.LVL124:
 980              		.loc 1 372 9 is_stmt 0 discriminator 2 view .LVU327
 981 00e4 0122     		movs	r2, #1
 982 00e6 2946     		mov	r1, r5
 983 00e8 FFF7FEFF 		bl	mbedtls_asn1_write_int
 984              	.LVL125:
 985              		.loc 1 372 9 discriminator 2 view .LVU328
 986 00ec 021E     		subs	r2, r0, #0
 987 00ee C0F2F780 		blt	.L58
 988              		.loc 1 372 9 is_stmt 1 discriminator 2 view .LVU329
 354:D:/fchai/work/i-cube/I-CUBE-HUAWEI/Middlewares/Third_Party/Huawei/iot_link/network/dtls/mbedtls/mbedtls-2.16.2/library\pkwrite.c ****         MBEDTLS_ASN1_CHK_ADD( pub_len, mbedtls_asn1_write_tag( &c, buf,
ARM GAS  T:\msys\tmp\cc683j1t.s 			page 30


 989              		.loc 1 354 9 is_stmt 0 discriminator 2 view .LVU330
 990 00f2 04EB0800 		add	r0, r4, r8
 991              	.LVL126:
 355:D:/fchai/work/i-cube/I-CUBE-HUAWEI/Middlewares/Third_Party/Huawei/iot_link/network/dtls/mbedtls/mbedtls-2.16.2/library\pkwrite.c ****                             MBEDTLS_ASN1_CONTEXT_SPECIFIC | MBEDTLS_ASN1_CONSTRUCTED | 1 ) );
 992              		.loc 1 355 9 discriminator 2 view .LVU331
 993 00f6 8144     		add	r9, r9, r0
 994              	.LVL127:
 365:D:/fchai/work/i-cube/I-CUBE-HUAWEI/Middlewares/Third_Party/Huawei/iot_link/network/dtls/mbedtls/mbedtls-2.16.2/library\pkwrite.c **** 
 995              		.loc 1 365 13 discriminator 2 view .LVU332
 996 00f8 09EB0B03 		add	r3, r9, fp
 997 00fc 9A44     		add	r10, r10, r3
 998              	.LVL128:
 365:D:/fchai/work/i-cube/I-CUBE-HUAWEI/Middlewares/Third_Party/Huawei/iot_link/network/dtls/mbedtls/mbedtls-2.16.2/library\pkwrite.c **** 
 999              		.loc 1 365 13 discriminator 2 view .LVU333
 1000 00fe 039B     		ldr	r3, [sp, #12]
 1001 0100 5344     		add	r3, r3, r10
 368:D:/fchai/work/i-cube/I-CUBE-HUAWEI/Middlewares/Third_Party/Huawei/iot_link/network/dtls/mbedtls/mbedtls-2.16.2/library\pkwrite.c ****         *c = MBEDTLS_ASN1_OCTET_STRING;
 1002              		.loc 1 368 9 discriminator 2 view .LVU334
 1003 0102 1F44     		add	r7, r7, r3
 1004              		.loc 1 372 9 discriminator 2 view .LVU335
 1005 0104 1744     		add	r7, r7, r2
 1006              	.LVL129:
 1007              		.loc 1 372 9 is_stmt 1 discriminator 2 view .LVU336
 373:D:/fchai/work/i-cube/I-CUBE-HUAWEI/Middlewares/Third_Party/Huawei/iot_link/network/dtls/mbedtls/mbedtls-2.16.2/library\pkwrite.c **** 
 374:D:/fchai/work/i-cube/I-CUBE-HUAWEI/Middlewares/Third_Party/Huawei/iot_link/network/dtls/mbedtls/mbedtls-2.16.2/library\pkwrite.c ****         MBEDTLS_ASN1_CHK_ADD( len, mbedtls_asn1_write_len( &c, buf, len ) );
 1008              		.loc 1 374 9 discriminator 2 view .LVU337
 1009              		.loc 1 374 9 discriminator 2 view .LVU338
 1010 0106 3A46     		mov	r2, r7
 1011              	.LVL130:
 1012              		.loc 1 374 9 is_stmt 0 discriminator 2 view .LVU339
 1013 0108 2946     		mov	r1, r5
 1014 010a 3046     		mov	r0, r6
 1015 010c FFF7FEFF 		bl	mbedtls_asn1_write_len
 1016              	.LVL131:
 1017              		.loc 1 374 9 discriminator 2 view .LVU340
 1018 0110 041E     		subs	r4, r0, #0
 1019 0112 09DB     		blt	.L39
 1020              		.loc 1 374 9 is_stmt 1 discriminator 2 view .LVU341
 1021              	.LVL132:
 1022              		.loc 1 374 9 discriminator 2 view .LVU342
 375:D:/fchai/work/i-cube/I-CUBE-HUAWEI/Middlewares/Third_Party/Huawei/iot_link/network/dtls/mbedtls/mbedtls-2.16.2/library\pkwrite.c ****         MBEDTLS_ASN1_CHK_ADD( len, mbedtls_asn1_write_tag( &c, buf, MBEDTLS_ASN1_CONSTRUCTED |
 1023              		.loc 1 375 9 discriminator 2 view .LVU343
 1024              		.loc 1 375 9 discriminator 2 view .LVU344
 1025 0114 2946     		mov	r1, r5
 1026 0116 3046     		mov	r0, r6
 1027              	.LVL133:
 1028              		.loc 1 375 9 is_stmt 0 discriminator 2 view .LVU345
 1029 0118 3022     		movs	r2, #48
 1030 011a FFF7FEFF 		bl	mbedtls_asn1_write_tag
 1031              	.LVL134:
 1032              		.loc 1 375 9 discriminator 2 view .LVU346
 1033 011e 0028     		cmp	r0, #0
 1034              		.loc 1 375 9 discriminator 2 view .LVU347
 1035 0120 01DB     		blt	.L59
 1036              		.loc 1 375 9 is_stmt 1 discriminator 2 view .LVU348
 374:D:/fchai/work/i-cube/I-CUBE-HUAWEI/Middlewares/Third_Party/Huawei/iot_link/network/dtls/mbedtls/mbedtls-2.16.2/library\pkwrite.c ****         MBEDTLS_ASN1_CHK_ADD( len, mbedtls_asn1_write_tag( &c, buf, MBEDTLS_ASN1_CONSTRUCTED |
 1037              		.loc 1 374 9 is_stmt 0 discriminator 2 view .LVU349
ARM GAS  T:\msys\tmp\cc683j1t.s 			page 31


 1038 0122 3C44     		add	r4, r4, r7
 1039              	.LVL135:
 1040              		.loc 1 375 9 discriminator 2 view .LVU350
 1041 0124 2044     		add	r0, r0, r4
 1042              	.LVL136:
 1043              		.loc 1 375 9 is_stmt 1 discriminator 2 view .LVU351
 1044              		.loc 1 375 9 is_stmt 0 discriminator 2 view .LVU352
 1045              	.LBE21:
 376:D:/fchai/work/i-cube/I-CUBE-HUAWEI/Middlewares/Third_Party/Huawei/iot_link/network/dtls/mbedtls/mbedtls-2.16.2/library\pkwrite.c ****                                                     MBEDTLS_ASN1_SEQUENCE ) );
 377:D:/fchai/work/i-cube/I-CUBE-HUAWEI/Middlewares/Third_Party/Huawei/iot_link/network/dtls/mbedtls/mbedtls-2.16.2/library\pkwrite.c ****     }
 378:D:/fchai/work/i-cube/I-CUBE-HUAWEI/Middlewares/Third_Party/Huawei/iot_link/network/dtls/mbedtls/mbedtls-2.16.2/library\pkwrite.c ****     else
 379:D:/fchai/work/i-cube/I-CUBE-HUAWEI/Middlewares/Third_Party/Huawei/iot_link/network/dtls/mbedtls/mbedtls-2.16.2/library\pkwrite.c **** #endif /* MBEDTLS_ECP_C */
 380:D:/fchai/work/i-cube/I-CUBE-HUAWEI/Middlewares/Third_Party/Huawei/iot_link/network/dtls/mbedtls/mbedtls-2.16.2/library\pkwrite.c ****         return( MBEDTLS_ERR_PK_FEATURE_UNAVAILABLE );
 381:D:/fchai/work/i-cube/I-CUBE-HUAWEI/Middlewares/Third_Party/Huawei/iot_link/network/dtls/mbedtls/mbedtls-2.16.2/library\pkwrite.c **** 
 382:D:/fchai/work/i-cube/I-CUBE-HUAWEI/Middlewares/Third_Party/Huawei/iot_link/network/dtls/mbedtls/mbedtls-2.16.2/library\pkwrite.c ****     return( (int) len );
 1046              		.loc 1 382 5 is_stmt 1 discriminator 2 view .LVU353
 1047              	.L59:
 1048              	.LBB22:
 1049              		.loc 1 382 5 is_stmt 0 discriminator 2 view .LVU354
 1050 0126 0446     		mov	r4, r0
 1051              	.LVL137:
 1052              	.L39:
 1053              		.loc 1 382 5 discriminator 2 view .LVU355
 1054              	.LBE22:
 383:D:/fchai/work/i-cube/I-CUBE-HUAWEI/Middlewares/Third_Party/Huawei/iot_link/network/dtls/mbedtls/mbedtls-2.16.2/library\pkwrite.c **** }
 1055              		.loc 1 383 1 view .LVU356
 1056 0128 2046     		mov	r0, r4
 1057 012a 09B0     		add	sp, sp, #36
 1058              	.LCFI21:
 1059              		.cfi_remember_state
 1060              		.cfi_def_cfa_offset 36
 1061              		@ sp needed
 1062 012c BDE8F08F 		pop	{r4, r5, r6, r7, r8, r9, r10, fp, pc}
 1063              	.LVL138:
 1064              	.L61:
 1065              	.LCFI22:
 1066              		.cfi_restore_state
 1067              	.LBB23:
 250:D:/fchai/work/i-cube/I-CUBE-HUAWEI/Middlewares/Third_Party/Huawei/iot_link/network/dtls/mbedtls/mbedtls-2.16.2/library\pkwrite.c ****         mbedtls_rsa_context *rsa = mbedtls_pk_rsa( *key );
 1068              		.loc 1 250 9 is_stmt 1 view .LVU357
 251:D:/fchai/work/i-cube/I-CUBE-HUAWEI/Middlewares/Third_Party/Huawei/iot_link/network/dtls/mbedtls/mbedtls-2.16.2/library\pkwrite.c **** 
 1069              		.loc 1 251 9 view .LVU358
 251:D:/fchai/work/i-cube/I-CUBE-HUAWEI/Middlewares/Third_Party/Huawei/iot_link/network/dtls/mbedtls/mbedtls-2.16.2/library\pkwrite.c **** 
 1070              		.loc 1 251 36 is_stmt 0 view .LVU359
 1071 0130 D4F80480 		ldr	r8, [r4, #4]
 1072              	.LBE23:
 159:D:/fchai/work/i-cube/I-CUBE-HUAWEI/Middlewares/Third_Party/Huawei/iot_link/network/dtls/mbedtls/mbedtls-2.16.2/include/mbedtls\pk.h **** }
 1073              		.loc 2 159 5 is_stmt 1 view .LVU360
 1074              	.LVL139:
 1075              	.LBB24:
 257:D:/fchai/work/i-cube/I-CUBE-HUAWEI/Middlewares/Third_Party/Huawei/iot_link/network/dtls/mbedtls/mbedtls-2.16.2/library\pkwrite.c **** 
 1076              		.loc 1 257 9 view .LVU361
 1077 0134 05A8     		add	r0, sp, #20
 1078 0136 FFF7FEFF 		bl	mbedtls_mpi_init
 1079              	.LVL140:
 260:D:/fchai/work/i-cube/I-CUBE-HUAWEI/Middlewares/Third_Party/Huawei/iot_link/network/dtls/mbedtls/mbedtls-2.16.2/library\pkwrite.c ****             ( ret = mbedtls_asn1_write_mpi( &c, buf, &T ) ) < 0 )
 1080              		.loc 1 260 9 view .LVU362
ARM GAS  T:\msys\tmp\cc683j1t.s 			page 32


 260:D:/fchai/work/i-cube/I-CUBE-HUAWEI/Middlewares/Third_Party/Huawei/iot_link/network/dtls/mbedtls/mbedtls-2.16.2/library\pkwrite.c ****             ( ret = mbedtls_asn1_write_mpi( &c, buf, &T ) ) < 0 )
 1081              		.loc 1 260 21 is_stmt 0 view .LVU363
 1082 013a 0022     		movs	r2, #0
 1083 013c 05AB     		add	r3, sp, #20
 1084 013e 4046     		mov	r0, r8
 1085 0140 1146     		mov	r1, r2
 1086 0142 FFF7FEFF 		bl	mbedtls_rsa_export_crt
 1087              	.LVL141:
 260:D:/fchai/work/i-cube/I-CUBE-HUAWEI/Middlewares/Third_Party/Huawei/iot_link/network/dtls/mbedtls/mbedtls-2.16.2/library\pkwrite.c ****             ( ret = mbedtls_asn1_write_mpi( &c, buf, &T ) ) < 0 )
 1088              		.loc 1 260 11 view .LVU364
 1089 0146 0446     		mov	r4, r0
 1090              	.LVL142:
 260:D:/fchai/work/i-cube/I-CUBE-HUAWEI/Middlewares/Third_Party/Huawei/iot_link/network/dtls/mbedtls/mbedtls-2.16.2/library\pkwrite.c ****             ( ret = mbedtls_asn1_write_mpi( &c, buf, &T ) ) < 0 )
 1091              		.loc 1 260 11 view .LVU365
 1092 0148 00B3     		cbz	r0, .L62
 1093              	.LBE24:
 238:D:/fchai/work/i-cube/I-CUBE-HUAWEI/Middlewares/Third_Party/Huawei/iot_link/network/dtls/mbedtls/mbedtls-2.16.2/library\pkwrite.c **** 
 1094              		.loc 1 238 12 view .LVU366
 1095 014a 0027     		movs	r7, #0
 1096              	.LVL143:
 1097              	.L43:
 1098              	.LBB25:
 314:D:/fchai/work/i-cube/I-CUBE-HUAWEI/Middlewares/Third_Party/Huawei/iot_link/network/dtls/mbedtls/mbedtls-2.16.2/library\pkwrite.c ****         if( ret < 0 )
 1099              		.loc 1 314 9 is_stmt 1 view .LVU367
 1100 014c 05A8     		add	r0, sp, #20
 1101 014e FFF7FEFF 		bl	mbedtls_mpi_free
 1102              	.LVL144:
 315:D:/fchai/work/i-cube/I-CUBE-HUAWEI/Middlewares/Third_Party/Huawei/iot_link/network/dtls/mbedtls/mbedtls-2.16.2/library\pkwrite.c ****             return( ret );
 1103              		.loc 1 315 9 view .LVU368
 315:D:/fchai/work/i-cube/I-CUBE-HUAWEI/Middlewares/Third_Party/Huawei/iot_link/network/dtls/mbedtls/mbedtls-2.16.2/library\pkwrite.c ****             return( ret );
 1104              		.loc 1 315 11 is_stmt 0 view .LVU369
 1105 0152 002C     		cmp	r4, #0
 1106 0154 E8DB     		blt	.L39
 1107 0156 04AE     		add	r6, sp, #16
 1108              	.L45:
 318:D:/fchai/work/i-cube/I-CUBE-HUAWEI/Middlewares/Third_Party/Huawei/iot_link/network/dtls/mbedtls/mbedtls-2.16.2/library\pkwrite.c ****         MBEDTLS_ASN1_CHK_ADD( len, mbedtls_asn1_write_len( &c, buf, len ) );
 1109              		.loc 1 318 9 is_stmt 1 view .LVU370
 318:D:/fchai/work/i-cube/I-CUBE-HUAWEI/Middlewares/Third_Party/Huawei/iot_link/network/dtls/mbedtls/mbedtls-2.16.2/library\pkwrite.c ****         MBEDTLS_ASN1_CHK_ADD( len, mbedtls_asn1_write_len( &c, buf, len ) );
 1110              		.loc 1 318 9 view .LVU371
 1111 0158 0022     		movs	r2, #0
 1112 015a 2946     		mov	r1, r5
 1113 015c 3046     		mov	r0, r6
 1114 015e FFF7FEFF 		bl	mbedtls_asn1_write_int
 1115              	.LVL145:
 318:D:/fchai/work/i-cube/I-CUBE-HUAWEI/Middlewares/Third_Party/Huawei/iot_link/network/dtls/mbedtls/mbedtls-2.16.2/library\pkwrite.c ****         MBEDTLS_ASN1_CHK_ADD( len, mbedtls_asn1_write_len( &c, buf, len ) );
 1116              		.loc 1 318 9 is_stmt 0 view .LVU372
 1117 0162 041E     		subs	r4, r0, #0
 1118 0164 E0DB     		blt	.L39
 318:D:/fchai/work/i-cube/I-CUBE-HUAWEI/Middlewares/Third_Party/Huawei/iot_link/network/dtls/mbedtls/mbedtls-2.16.2/library\pkwrite.c ****         MBEDTLS_ASN1_CHK_ADD( len, mbedtls_asn1_write_len( &c, buf, len ) );
 1119              		.loc 1 318 9 is_stmt 1 discriminator 2 view .LVU373
 1120 0166 2744     		add	r7, r7, r4
 1121              	.LVL146:
 318:D:/fchai/work/i-cube/I-CUBE-HUAWEI/Middlewares/Third_Party/Huawei/iot_link/network/dtls/mbedtls/mbedtls-2.16.2/library\pkwrite.c ****         MBEDTLS_ASN1_CHK_ADD( len, mbedtls_asn1_write_len( &c, buf, len ) );
 1122              		.loc 1 318 9 discriminator 2 view .LVU374
 319:D:/fchai/work/i-cube/I-CUBE-HUAWEI/Middlewares/Third_Party/Huawei/iot_link/network/dtls/mbedtls/mbedtls-2.16.2/library\pkwrite.c ****         MBEDTLS_ASN1_CHK_ADD( len, mbedtls_asn1_write_tag( &c,
 1123              		.loc 1 319 9 discriminator 2 view .LVU375
 319:D:/fchai/work/i-cube/I-CUBE-HUAWEI/Middlewares/Third_Party/Huawei/iot_link/network/dtls/mbedtls/mbedtls-2.16.2/library\pkwrite.c ****         MBEDTLS_ASN1_CHK_ADD( len, mbedtls_asn1_write_tag( &c,
ARM GAS  T:\msys\tmp\cc683j1t.s 			page 33


 1124              		.loc 1 319 9 discriminator 2 view .LVU376
 1125 0168 3A46     		mov	r2, r7
 1126 016a 2946     		mov	r1, r5
 1127 016c 3046     		mov	r0, r6
 1128              	.LVL147:
 319:D:/fchai/work/i-cube/I-CUBE-HUAWEI/Middlewares/Third_Party/Huawei/iot_link/network/dtls/mbedtls/mbedtls-2.16.2/library\pkwrite.c ****         MBEDTLS_ASN1_CHK_ADD( len, mbedtls_asn1_write_tag( &c,
 1129              		.loc 1 319 9 is_stmt 0 discriminator 2 view .LVU377
 1130 016e FFF7FEFF 		bl	mbedtls_asn1_write_len
 1131              	.LVL148:
 319:D:/fchai/work/i-cube/I-CUBE-HUAWEI/Middlewares/Third_Party/Huawei/iot_link/network/dtls/mbedtls/mbedtls-2.16.2/library\pkwrite.c ****         MBEDTLS_ASN1_CHK_ADD( len, mbedtls_asn1_write_tag( &c,
 1132              		.loc 1 319 9 discriminator 2 view .LVU378
 1133 0172 041E     		subs	r4, r0, #0
 1134 0174 D8DB     		blt	.L39
 319:D:/fchai/work/i-cube/I-CUBE-HUAWEI/Middlewares/Third_Party/Huawei/iot_link/network/dtls/mbedtls/mbedtls-2.16.2/library\pkwrite.c ****         MBEDTLS_ASN1_CHK_ADD( len, mbedtls_asn1_write_tag( &c,
 1135              		.loc 1 319 9 is_stmt 1 discriminator 2 view .LVU379
 1136              	.LVL149:
 319:D:/fchai/work/i-cube/I-CUBE-HUAWEI/Middlewares/Third_Party/Huawei/iot_link/network/dtls/mbedtls/mbedtls-2.16.2/library\pkwrite.c ****         MBEDTLS_ASN1_CHK_ADD( len, mbedtls_asn1_write_tag( &c,
 1137              		.loc 1 319 9 discriminator 2 view .LVU380
 320:D:/fchai/work/i-cube/I-CUBE-HUAWEI/Middlewares/Third_Party/Huawei/iot_link/network/dtls/mbedtls/mbedtls-2.16.2/library\pkwrite.c ****                                                buf, MBEDTLS_ASN1_CONSTRUCTED |
 1138              		.loc 1 320 9 discriminator 2 view .LVU381
 320:D:/fchai/work/i-cube/I-CUBE-HUAWEI/Middlewares/Third_Party/Huawei/iot_link/network/dtls/mbedtls/mbedtls-2.16.2/library\pkwrite.c ****                                                buf, MBEDTLS_ASN1_CONSTRUCTED |
 1139              		.loc 1 320 9 discriminator 2 view .LVU382
 1140 0176 2946     		mov	r1, r5
 1141 0178 3046     		mov	r0, r6
 1142              	.LVL150:
 320:D:/fchai/work/i-cube/I-CUBE-HUAWEI/Middlewares/Third_Party/Huawei/iot_link/network/dtls/mbedtls/mbedtls-2.16.2/library\pkwrite.c ****                                                buf, MBEDTLS_ASN1_CONSTRUCTED |
 1143              		.loc 1 320 9 is_stmt 0 discriminator 2 view .LVU383
 1144 017a 3022     		movs	r2, #48
 1145 017c FFF7FEFF 		bl	mbedtls_asn1_write_tag
 1146              	.LVL151:
 320:D:/fchai/work/i-cube/I-CUBE-HUAWEI/Middlewares/Third_Party/Huawei/iot_link/network/dtls/mbedtls/mbedtls-2.16.2/library\pkwrite.c ****                                                buf, MBEDTLS_ASN1_CONSTRUCTED |
 1147              		.loc 1 320 9 discriminator 2 view .LVU384
 1148 0180 0028     		cmp	r0, #0
 320:D:/fchai/work/i-cube/I-CUBE-HUAWEI/Middlewares/Third_Party/Huawei/iot_link/network/dtls/mbedtls/mbedtls-2.16.2/library\pkwrite.c ****                                                buf, MBEDTLS_ASN1_CONSTRUCTED |
 1149              		.loc 1 320 9 discriminator 2 view .LVU385
 1150 0182 D0DB     		blt	.L59
 320:D:/fchai/work/i-cube/I-CUBE-HUAWEI/Middlewares/Third_Party/Huawei/iot_link/network/dtls/mbedtls/mbedtls-2.16.2/library\pkwrite.c ****                                                buf, MBEDTLS_ASN1_CONSTRUCTED |
 1151              		.loc 1 320 9 is_stmt 1 discriminator 2 view .LVU386
 319:D:/fchai/work/i-cube/I-CUBE-HUAWEI/Middlewares/Third_Party/Huawei/iot_link/network/dtls/mbedtls/mbedtls-2.16.2/library\pkwrite.c ****         MBEDTLS_ASN1_CHK_ADD( len, mbedtls_asn1_write_tag( &c,
 1152              		.loc 1 319 9 is_stmt 0 discriminator 2 view .LVU387
 1153 0184 2744     		add	r7, r7, r4
 1154              	.LVL152:
 320:D:/fchai/work/i-cube/I-CUBE-HUAWEI/Middlewares/Third_Party/Huawei/iot_link/network/dtls/mbedtls/mbedtls-2.16.2/library\pkwrite.c ****                                                buf, MBEDTLS_ASN1_CONSTRUCTED |
 1155              		.loc 1 320 9 discriminator 2 view .LVU388
 1156 0186 3844     		add	r0, r0, r7
 1157              	.LVL153:
 320:D:/fchai/work/i-cube/I-CUBE-HUAWEI/Middlewares/Third_Party/Huawei/iot_link/network/dtls/mbedtls/mbedtls-2.16.2/library\pkwrite.c ****                                                buf, MBEDTLS_ASN1_CONSTRUCTED |
 1158              		.loc 1 320 9 is_stmt 1 discriminator 2 view .LVU389
 1159              	.LBE25:
 1160              	.LBB26:
 1161 0188 0446     		mov	r4, r0
 1162 018a CDE7     		b	.L39
 1163              	.LVL154:
 1164              	.L62:
 320:D:/fchai/work/i-cube/I-CUBE-HUAWEI/Middlewares/Third_Party/Huawei/iot_link/network/dtls/mbedtls/mbedtls-2.16.2/library\pkwrite.c ****                                                buf, MBEDTLS_ASN1_CONSTRUCTED |
 1165              		.loc 1 320 9 is_stmt 0 discriminator 2 view .LVU390
 1166              	.LBE26:
ARM GAS  T:\msys\tmp\cc683j1t.s 			page 34


 1167              	.LBB27:
 261:D:/fchai/work/i-cube/I-CUBE-HUAWEI/Middlewares/Third_Party/Huawei/iot_link/network/dtls/mbedtls/mbedtls-2.16.2/library\pkwrite.c ****             goto end_of_export;
 1168              		.loc 1 261 21 discriminator 1 view .LVU391
 1169 018c 04AE     		add	r6, sp, #16
 1170 018e 3046     		mov	r0, r6
 1171              	.LVL155:
 261:D:/fchai/work/i-cube/I-CUBE-HUAWEI/Middlewares/Third_Party/Huawei/iot_link/network/dtls/mbedtls/mbedtls-2.16.2/library\pkwrite.c ****             goto end_of_export;
 1172              		.loc 1 261 21 discriminator 1 view .LVU392
 1173 0190 05AA     		add	r2, sp, #20
 1174 0192 2946     		mov	r1, r5
 1175 0194 FFF7FEFF 		bl	mbedtls_asn1_write_mpi
 1176              	.LVL156:
 260:D:/fchai/work/i-cube/I-CUBE-HUAWEI/Middlewares/Third_Party/Huawei/iot_link/network/dtls/mbedtls/mbedtls-2.16.2/library\pkwrite.c ****             ( ret = mbedtls_asn1_write_mpi( &c, buf, &T ) ) < 0 )
 1177              		.loc 1 260 74 discriminator 1 view .LVU393
 1178 0198 041E     		subs	r4, r0, #0
 1179 019a C0F28E80 		blt	.L44
 263:D:/fchai/work/i-cube/I-CUBE-HUAWEI/Middlewares/Third_Party/Huawei/iot_link/network/dtls/mbedtls/mbedtls-2.16.2/library\pkwrite.c **** 
 1180              		.loc 1 263 9 is_stmt 1 view .LVU394
 266:D:/fchai/work/i-cube/I-CUBE-HUAWEI/Middlewares/Third_Party/Huawei/iot_link/network/dtls/mbedtls/mbedtls-2.16.2/library\pkwrite.c ****             ( ret = mbedtls_asn1_write_mpi( &c, buf, &T ) ) < 0 )
 1181              		.loc 1 266 21 is_stmt 0 view .LVU395
 1182 019e 0023     		movs	r3, #0
 1183 01a0 1946     		mov	r1, r3
 1184 01a2 05AA     		add	r2, sp, #20
 1185 01a4 4046     		mov	r0, r8
 1186              	.LVL157:
 266:D:/fchai/work/i-cube/I-CUBE-HUAWEI/Middlewares/Third_Party/Huawei/iot_link/network/dtls/mbedtls/mbedtls-2.16.2/library\pkwrite.c ****             ( ret = mbedtls_asn1_write_mpi( &c, buf, &T ) ) < 0 )
 1187              		.loc 1 266 21 view .LVU396
 1188 01a6 FFF7FEFF 		bl	mbedtls_rsa_export_crt
 1189              	.LVL158:
 263:D:/fchai/work/i-cube/I-CUBE-HUAWEI/Middlewares/Third_Party/Huawei/iot_link/network/dtls/mbedtls/mbedtls-2.16.2/library\pkwrite.c **** 
 1190              		.loc 1 263 13 view .LVU397
 1191 01aa 2746     		mov	r7, r4
 1192              	.LVL159:
 266:D:/fchai/work/i-cube/I-CUBE-HUAWEI/Middlewares/Third_Party/Huawei/iot_link/network/dtls/mbedtls/mbedtls-2.16.2/library\pkwrite.c ****             ( ret = mbedtls_asn1_write_mpi( &c, buf, &T ) ) < 0 )
 1193              		.loc 1 266 9 is_stmt 1 view .LVU398
 266:D:/fchai/work/i-cube/I-CUBE-HUAWEI/Middlewares/Third_Party/Huawei/iot_link/network/dtls/mbedtls/mbedtls-2.16.2/library\pkwrite.c ****             ( ret = mbedtls_asn1_write_mpi( &c, buf, &T ) ) < 0 )
 1194              		.loc 1 266 11 is_stmt 0 view .LVU399
 1195 01ac 0446     		mov	r4, r0
 1196              	.LVL160:
 266:D:/fchai/work/i-cube/I-CUBE-HUAWEI/Middlewares/Third_Party/Huawei/iot_link/network/dtls/mbedtls/mbedtls-2.16.2/library\pkwrite.c ****             ( ret = mbedtls_asn1_write_mpi( &c, buf, &T ) ) < 0 )
 1197              		.loc 1 266 11 view .LVU400
 1198 01ae 0028     		cmp	r0, #0
 1199 01b0 CCD1     		bne	.L43
 267:D:/fchai/work/i-cube/I-CUBE-HUAWEI/Middlewares/Third_Party/Huawei/iot_link/network/dtls/mbedtls/mbedtls-2.16.2/library\pkwrite.c ****             goto end_of_export;
 1200              		.loc 1 267 21 discriminator 1 view .LVU401
 1201 01b2 05AA     		add	r2, sp, #20
 1202 01b4 2946     		mov	r1, r5
 1203 01b6 3046     		mov	r0, r6
 1204              	.LVL161:
 267:D:/fchai/work/i-cube/I-CUBE-HUAWEI/Middlewares/Third_Party/Huawei/iot_link/network/dtls/mbedtls/mbedtls-2.16.2/library\pkwrite.c ****             goto end_of_export;
 1205              		.loc 1 267 21 discriminator 1 view .LVU402
 1206 01b8 FFF7FEFF 		bl	mbedtls_asn1_write_mpi
 1207              	.LVL162:
 266:D:/fchai/work/i-cube/I-CUBE-HUAWEI/Middlewares/Third_Party/Huawei/iot_link/network/dtls/mbedtls/mbedtls-2.16.2/library\pkwrite.c ****             ( ret = mbedtls_asn1_write_mpi( &c, buf, &T ) ) < 0 )
 1208              		.loc 1 266 74 discriminator 1 view .LVU403
 1209 01bc 041E     		subs	r4, r0, #0
 1210 01be 7CDB     		blt	.L44
ARM GAS  T:\msys\tmp\cc683j1t.s 			page 35


 269:D:/fchai/work/i-cube/I-CUBE-HUAWEI/Middlewares/Third_Party/Huawei/iot_link/network/dtls/mbedtls/mbedtls-2.16.2/library\pkwrite.c **** 
 1211              		.loc 1 269 9 is_stmt 1 view .LVU404
 272:D:/fchai/work/i-cube/I-CUBE-HUAWEI/Middlewares/Third_Party/Huawei/iot_link/network/dtls/mbedtls/mbedtls-2.16.2/library\pkwrite.c ****             ( ret = mbedtls_asn1_write_mpi( &c, buf, &T ) ) < 0 )
 1212              		.loc 1 272 21 is_stmt 0 view .LVU405
 1213 01c0 0023     		movs	r3, #0
 1214 01c2 1A46     		mov	r2, r3
 1215 01c4 05A9     		add	r1, sp, #20
 1216 01c6 4046     		mov	r0, r8
 1217              	.LVL163:
 272:D:/fchai/work/i-cube/I-CUBE-HUAWEI/Middlewares/Third_Party/Huawei/iot_link/network/dtls/mbedtls/mbedtls-2.16.2/library\pkwrite.c ****             ( ret = mbedtls_asn1_write_mpi( &c, buf, &T ) ) < 0 )
 1218              		.loc 1 272 21 view .LVU406
 1219 01c8 FFF7FEFF 		bl	mbedtls_rsa_export_crt
 1220              	.LVL164:
 269:D:/fchai/work/i-cube/I-CUBE-HUAWEI/Middlewares/Third_Party/Huawei/iot_link/network/dtls/mbedtls/mbedtls-2.16.2/library\pkwrite.c **** 
 1221              		.loc 1 269 13 view .LVU407
 1222 01cc 2744     		add	r7, r7, r4
 1223              	.LVL165:
 272:D:/fchai/work/i-cube/I-CUBE-HUAWEI/Middlewares/Third_Party/Huawei/iot_link/network/dtls/mbedtls/mbedtls-2.16.2/library\pkwrite.c ****             ( ret = mbedtls_asn1_write_mpi( &c, buf, &T ) ) < 0 )
 1224              		.loc 1 272 9 is_stmt 1 view .LVU408
 272:D:/fchai/work/i-cube/I-CUBE-HUAWEI/Middlewares/Third_Party/Huawei/iot_link/network/dtls/mbedtls/mbedtls-2.16.2/library\pkwrite.c ****             ( ret = mbedtls_asn1_write_mpi( &c, buf, &T ) ) < 0 )
 1225              		.loc 1 272 11 is_stmt 0 view .LVU409
 1226 01ce 0446     		mov	r4, r0
 1227 01d0 0028     		cmp	r0, #0
 1228 01d2 BBD1     		bne	.L43
 273:D:/fchai/work/i-cube/I-CUBE-HUAWEI/Middlewares/Third_Party/Huawei/iot_link/network/dtls/mbedtls/mbedtls-2.16.2/library\pkwrite.c ****             goto end_of_export;
 1229              		.loc 1 273 21 discriminator 1 view .LVU410
 1230 01d4 05AA     		add	r2, sp, #20
 1231 01d6 2946     		mov	r1, r5
 1232 01d8 3046     		mov	r0, r6
 1233              	.LVL166:
 273:D:/fchai/work/i-cube/I-CUBE-HUAWEI/Middlewares/Third_Party/Huawei/iot_link/network/dtls/mbedtls/mbedtls-2.16.2/library\pkwrite.c ****             goto end_of_export;
 1234              		.loc 1 273 21 discriminator 1 view .LVU411
 1235 01da FFF7FEFF 		bl	mbedtls_asn1_write_mpi
 1236              	.LVL167:
 272:D:/fchai/work/i-cube/I-CUBE-HUAWEI/Middlewares/Third_Party/Huawei/iot_link/network/dtls/mbedtls/mbedtls-2.16.2/library\pkwrite.c ****             ( ret = mbedtls_asn1_write_mpi( &c, buf, &T ) ) < 0 )
 1237              		.loc 1 272 74 discriminator 1 view .LVU412
 1238 01de 041E     		subs	r4, r0, #0
 1239 01e0 6BDB     		blt	.L44
 275:D:/fchai/work/i-cube/I-CUBE-HUAWEI/Middlewares/Third_Party/Huawei/iot_link/network/dtls/mbedtls/mbedtls-2.16.2/library\pkwrite.c **** 
 1240              		.loc 1 275 9 is_stmt 1 view .LVU413
 278:D:/fchai/work/i-cube/I-CUBE-HUAWEI/Middlewares/Third_Party/Huawei/iot_link/network/dtls/mbedtls/mbedtls-2.16.2/library\pkwrite.c ****                                          &T, NULL, NULL ) ) != 0 ||
 1241              		.loc 1 278 22 is_stmt 0 view .LVU414
 1242 01e2 0022     		movs	r2, #0
 1243 01e4 CDE90022 		strd	r2, r2, [sp]
 1244 01e8 1146     		mov	r1, r2
 1245 01ea 05AB     		add	r3, sp, #20
 1246 01ec 4046     		mov	r0, r8
 1247              	.LVL168:
 278:D:/fchai/work/i-cube/I-CUBE-HUAWEI/Middlewares/Third_Party/Huawei/iot_link/network/dtls/mbedtls/mbedtls-2.16.2/library\pkwrite.c ****                                          &T, NULL, NULL ) ) != 0 ||
 1248              		.loc 1 278 22 view .LVU415
 1249 01ee FFF7FEFF 		bl	mbedtls_rsa_export
 1250              	.LVL169:
 275:D:/fchai/work/i-cube/I-CUBE-HUAWEI/Middlewares/Third_Party/Huawei/iot_link/network/dtls/mbedtls/mbedtls-2.16.2/library\pkwrite.c **** 
 1251              		.loc 1 275 13 view .LVU416
 1252 01f2 2744     		add	r7, r7, r4
 1253              	.LVL170:
 278:D:/fchai/work/i-cube/I-CUBE-HUAWEI/Middlewares/Third_Party/Huawei/iot_link/network/dtls/mbedtls/mbedtls-2.16.2/library\pkwrite.c ****                                          &T, NULL, NULL ) ) != 0 ||
ARM GAS  T:\msys\tmp\cc683j1t.s 			page 36


 1254              		.loc 1 278 9 is_stmt 1 view .LVU417
 278:D:/fchai/work/i-cube/I-CUBE-HUAWEI/Middlewares/Third_Party/Huawei/iot_link/network/dtls/mbedtls/mbedtls-2.16.2/library\pkwrite.c ****                                          &T, NULL, NULL ) ) != 0 ||
 1255              		.loc 1 278 12 is_stmt 0 view .LVU418
 1256 01f4 0446     		mov	r4, r0
 1257 01f6 0028     		cmp	r0, #0
 1258 01f8 A8D1     		bne	.L43
 280:D:/fchai/work/i-cube/I-CUBE-HUAWEI/Middlewares/Third_Party/Huawei/iot_link/network/dtls/mbedtls/mbedtls-2.16.2/library\pkwrite.c ****             goto end_of_export;
 1259              		.loc 1 280 22 view .LVU419
 1260 01fa 05AA     		add	r2, sp, #20
 1261 01fc 2946     		mov	r1, r5
 1262 01fe 3046     		mov	r0, r6
 1263              	.LVL171:
 280:D:/fchai/work/i-cube/I-CUBE-HUAWEI/Middlewares/Third_Party/Huawei/iot_link/network/dtls/mbedtls/mbedtls-2.16.2/library\pkwrite.c ****             goto end_of_export;
 1264              		.loc 1 280 22 view .LVU420
 1265 0200 FFF7FEFF 		bl	mbedtls_asn1_write_mpi
 1266              	.LVL172:
 279:D:/fchai/work/i-cube/I-CUBE-HUAWEI/Middlewares/Third_Party/Huawei/iot_link/network/dtls/mbedtls/mbedtls-2.16.2/library\pkwrite.c ****              ( ret = mbedtls_asn1_write_mpi( &c, buf, &T ) ) < 0 )
 1267              		.loc 1 279 66 view .LVU421
 1268 0204 041E     		subs	r4, r0, #0
 1269 0206 58DB     		blt	.L44
 282:D:/fchai/work/i-cube/I-CUBE-HUAWEI/Middlewares/Third_Party/Huawei/iot_link/network/dtls/mbedtls/mbedtls-2.16.2/library\pkwrite.c **** 
 1270              		.loc 1 282 9 is_stmt 1 view .LVU422
 285:D:/fchai/work/i-cube/I-CUBE-HUAWEI/Middlewares/Third_Party/Huawei/iot_link/network/dtls/mbedtls/mbedtls-2.16.2/library\pkwrite.c ****                                          NULL, NULL, NULL ) ) != 0 ||
 1271              		.loc 1 285 22 is_stmt 0 view .LVU423
 1272 0208 4FF00009 		mov	r9, #0
 1273 020c CDE90099 		strd	r9, r9, [sp]
 1274 0210 4B46     		mov	r3, r9
 1275 0212 4946     		mov	r1, r9
 1276 0214 05AA     		add	r2, sp, #20
 1277 0216 4046     		mov	r0, r8
 1278              	.LVL173:
 285:D:/fchai/work/i-cube/I-CUBE-HUAWEI/Middlewares/Third_Party/Huawei/iot_link/network/dtls/mbedtls/mbedtls-2.16.2/library\pkwrite.c ****                                          NULL, NULL, NULL ) ) != 0 ||
 1279              		.loc 1 285 22 view .LVU424
 1280 0218 FFF7FEFF 		bl	mbedtls_rsa_export
 1281              	.LVL174:
 282:D:/fchai/work/i-cube/I-CUBE-HUAWEI/Middlewares/Third_Party/Huawei/iot_link/network/dtls/mbedtls/mbedtls-2.16.2/library\pkwrite.c **** 
 1282              		.loc 1 282 13 view .LVU425
 1283 021c 2744     		add	r7, r7, r4
 1284              	.LVL175:
 285:D:/fchai/work/i-cube/I-CUBE-HUAWEI/Middlewares/Third_Party/Huawei/iot_link/network/dtls/mbedtls/mbedtls-2.16.2/library\pkwrite.c ****                                          NULL, NULL, NULL ) ) != 0 ||
 1285              		.loc 1 285 9 is_stmt 1 view .LVU426
 285:D:/fchai/work/i-cube/I-CUBE-HUAWEI/Middlewares/Third_Party/Huawei/iot_link/network/dtls/mbedtls/mbedtls-2.16.2/library\pkwrite.c ****                                          NULL, NULL, NULL ) ) != 0 ||
 1286              		.loc 1 285 12 is_stmt 0 view .LVU427
 1287 021e 0446     		mov	r4, r0
 1288 0220 0028     		cmp	r0, #0
 1289 0222 93D1     		bne	.L43
 287:D:/fchai/work/i-cube/I-CUBE-HUAWEI/Middlewares/Third_Party/Huawei/iot_link/network/dtls/mbedtls/mbedtls-2.16.2/library\pkwrite.c ****             goto end_of_export;
 1290              		.loc 1 287 22 view .LVU428
 1291 0224 05AA     		add	r2, sp, #20
 1292 0226 2946     		mov	r1, r5
 1293 0228 3046     		mov	r0, r6
 1294              	.LVL176:
 287:D:/fchai/work/i-cube/I-CUBE-HUAWEI/Middlewares/Third_Party/Huawei/iot_link/network/dtls/mbedtls/mbedtls-2.16.2/library\pkwrite.c ****             goto end_of_export;
 1295              		.loc 1 287 22 view .LVU429
 1296 022a FFF7FEFF 		bl	mbedtls_asn1_write_mpi
 1297              	.LVL177:
 286:D:/fchai/work/i-cube/I-CUBE-HUAWEI/Middlewares/Third_Party/Huawei/iot_link/network/dtls/mbedtls/mbedtls-2.16.2/library\pkwrite.c ****              ( ret = mbedtls_asn1_write_mpi( &c, buf, &T ) ) < 0 )
ARM GAS  T:\msys\tmp\cc683j1t.s 			page 37


 1298              		.loc 1 286 68 view .LVU430
 1299 022e 041E     		subs	r4, r0, #0
 1300 0230 43DB     		blt	.L44
 289:D:/fchai/work/i-cube/I-CUBE-HUAWEI/Middlewares/Third_Party/Huawei/iot_link/network/dtls/mbedtls/mbedtls-2.16.2/library\pkwrite.c **** 
 1301              		.loc 1 289 9 is_stmt 1 view .LVU431
 292:D:/fchai/work/i-cube/I-CUBE-HUAWEI/Middlewares/Third_Party/Huawei/iot_link/network/dtls/mbedtls/mbedtls-2.16.2/library\pkwrite.c ****                                          NULL, &T, NULL ) ) != 0 ||
 1302              		.loc 1 292 22 is_stmt 0 view .LVU432
 1303 0232 05AB     		add	r3, sp, #20
 1304 0234 0093     		str	r3, [sp]
 1305 0236 CDF80490 		str	r9, [sp, #4]
 1306 023a 4B46     		mov	r3, r9
 1307 023c 4A46     		mov	r2, r9
 1308 023e 4946     		mov	r1, r9
 1309 0240 4046     		mov	r0, r8
 1310              	.LVL178:
 292:D:/fchai/work/i-cube/I-CUBE-HUAWEI/Middlewares/Third_Party/Huawei/iot_link/network/dtls/mbedtls/mbedtls-2.16.2/library\pkwrite.c ****                                          NULL, &T, NULL ) ) != 0 ||
 1311              		.loc 1 292 22 view .LVU433
 1312 0242 FFF7FEFF 		bl	mbedtls_rsa_export
 1313              	.LVL179:
 289:D:/fchai/work/i-cube/I-CUBE-HUAWEI/Middlewares/Third_Party/Huawei/iot_link/network/dtls/mbedtls/mbedtls-2.16.2/library\pkwrite.c **** 
 1314              		.loc 1 289 13 view .LVU434
 1315 0246 2744     		add	r7, r7, r4
 1316              	.LVL180:
 292:D:/fchai/work/i-cube/I-CUBE-HUAWEI/Middlewares/Third_Party/Huawei/iot_link/network/dtls/mbedtls/mbedtls-2.16.2/library\pkwrite.c ****                                          NULL, &T, NULL ) ) != 0 ||
 1317              		.loc 1 292 9 is_stmt 1 view .LVU435
 292:D:/fchai/work/i-cube/I-CUBE-HUAWEI/Middlewares/Third_Party/Huawei/iot_link/network/dtls/mbedtls/mbedtls-2.16.2/library\pkwrite.c ****                                          NULL, &T, NULL ) ) != 0 ||
 1318              		.loc 1 292 12 is_stmt 0 view .LVU436
 1319 0248 0446     		mov	r4, r0
 1320 024a 0028     		cmp	r0, #0
 1321 024c 7FF47EAF 		bne	.L43
 294:D:/fchai/work/i-cube/I-CUBE-HUAWEI/Middlewares/Third_Party/Huawei/iot_link/network/dtls/mbedtls/mbedtls-2.16.2/library\pkwrite.c ****             goto end_of_export;
 1322              		.loc 1 294 22 view .LVU437
 1323 0250 05AA     		add	r2, sp, #20
 1324 0252 2946     		mov	r1, r5
 1325 0254 3046     		mov	r0, r6
 1326              	.LVL181:
 294:D:/fchai/work/i-cube/I-CUBE-HUAWEI/Middlewares/Third_Party/Huawei/iot_link/network/dtls/mbedtls/mbedtls-2.16.2/library\pkwrite.c ****             goto end_of_export;
 1327              		.loc 1 294 22 view .LVU438
 1328 0256 FFF7FEFF 		bl	mbedtls_asn1_write_mpi
 1329              	.LVL182:
 293:D:/fchai/work/i-cube/I-CUBE-HUAWEI/Middlewares/Third_Party/Huawei/iot_link/network/dtls/mbedtls/mbedtls-2.16.2/library\pkwrite.c ****              ( ret = mbedtls_asn1_write_mpi( &c, buf, &T ) ) < 0 )
 1330              		.loc 1 293 66 view .LVU439
 1331 025a 041E     		subs	r4, r0, #0
 1332 025c 2DDB     		blt	.L44
 296:D:/fchai/work/i-cube/I-CUBE-HUAWEI/Middlewares/Third_Party/Huawei/iot_link/network/dtls/mbedtls/mbedtls-2.16.2/library\pkwrite.c **** 
 1333              		.loc 1 296 9 is_stmt 1 view .LVU440
 299:D:/fchai/work/i-cube/I-CUBE-HUAWEI/Middlewares/Third_Party/Huawei/iot_link/network/dtls/mbedtls/mbedtls-2.16.2/library\pkwrite.c ****                                          NULL, NULL, &T ) ) != 0 ||
 1334              		.loc 1 299 22 is_stmt 0 view .LVU441
 1335 025e 05AB     		add	r3, sp, #20
 1336 0260 CDE90093 		strd	r9, r3, [sp]
 1337 0264 4A46     		mov	r2, r9
 1338 0266 4B46     		mov	r3, r9
 1339 0268 4946     		mov	r1, r9
 1340 026a 4046     		mov	r0, r8
 1341              	.LVL183:
 299:D:/fchai/work/i-cube/I-CUBE-HUAWEI/Middlewares/Third_Party/Huawei/iot_link/network/dtls/mbedtls/mbedtls-2.16.2/library\pkwrite.c ****                                          NULL, NULL, &T ) ) != 0 ||
 1342              		.loc 1 299 22 view .LVU442
ARM GAS  T:\msys\tmp\cc683j1t.s 			page 38


 1343 026c FFF7FEFF 		bl	mbedtls_rsa_export
 1344              	.LVL184:
 296:D:/fchai/work/i-cube/I-CUBE-HUAWEI/Middlewares/Third_Party/Huawei/iot_link/network/dtls/mbedtls/mbedtls-2.16.2/library\pkwrite.c **** 
 1345              		.loc 1 296 13 view .LVU443
 1346 0270 2744     		add	r7, r7, r4
 1347              	.LVL185:
 299:D:/fchai/work/i-cube/I-CUBE-HUAWEI/Middlewares/Third_Party/Huawei/iot_link/network/dtls/mbedtls/mbedtls-2.16.2/library\pkwrite.c ****                                          NULL, NULL, &T ) ) != 0 ||
 1348              		.loc 1 299 9 is_stmt 1 view .LVU444
 299:D:/fchai/work/i-cube/I-CUBE-HUAWEI/Middlewares/Third_Party/Huawei/iot_link/network/dtls/mbedtls/mbedtls-2.16.2/library\pkwrite.c ****                                          NULL, NULL, &T ) ) != 0 ||
 1349              		.loc 1 299 12 is_stmt 0 view .LVU445
 1350 0272 0446     		mov	r4, r0
 1351 0274 0028     		cmp	r0, #0
 1352 0276 7FF469AF 		bne	.L43
 301:D:/fchai/work/i-cube/I-CUBE-HUAWEI/Middlewares/Third_Party/Huawei/iot_link/network/dtls/mbedtls/mbedtls-2.16.2/library\pkwrite.c ****             goto end_of_export;
 1353              		.loc 1 301 22 view .LVU446
 1354 027a 05AA     		add	r2, sp, #20
 1355 027c 2946     		mov	r1, r5
 1356 027e 3046     		mov	r0, r6
 1357              	.LVL186:
 301:D:/fchai/work/i-cube/I-CUBE-HUAWEI/Middlewares/Third_Party/Huawei/iot_link/network/dtls/mbedtls/mbedtls-2.16.2/library\pkwrite.c ****             goto end_of_export;
 1358              		.loc 1 301 22 view .LVU447
 1359 0280 FFF7FEFF 		bl	mbedtls_asn1_write_mpi
 1360              	.LVL187:
 300:D:/fchai/work/i-cube/I-CUBE-HUAWEI/Middlewares/Third_Party/Huawei/iot_link/network/dtls/mbedtls/mbedtls-2.16.2/library\pkwrite.c ****              ( ret = mbedtls_asn1_write_mpi( &c, buf, &T ) ) < 0 )
 1361              		.loc 1 300 66 view .LVU448
 1362 0284 041E     		subs	r4, r0, #0
 1363 0286 18DB     		blt	.L44
 303:D:/fchai/work/i-cube/I-CUBE-HUAWEI/Middlewares/Third_Party/Huawei/iot_link/network/dtls/mbedtls/mbedtls-2.16.2/library\pkwrite.c **** 
 1364              		.loc 1 303 9 is_stmt 1 view .LVU449
 306:D:/fchai/work/i-cube/I-CUBE-HUAWEI/Middlewares/Third_Party/Huawei/iot_link/network/dtls/mbedtls/mbedtls-2.16.2/library\pkwrite.c ****                                          NULL, NULL, NULL ) ) != 0 ||
 1365              		.loc 1 306 22 is_stmt 0 view .LVU450
 1366 0288 CDE90099 		strd	r9, r9, [sp]
 1367 028c 4046     		mov	r0, r8
 1368              	.LVL188:
 306:D:/fchai/work/i-cube/I-CUBE-HUAWEI/Middlewares/Third_Party/Huawei/iot_link/network/dtls/mbedtls/mbedtls-2.16.2/library\pkwrite.c ****                                          NULL, NULL, NULL ) ) != 0 ||
 1369              		.loc 1 306 22 view .LVU451
 1370 028e 4B46     		mov	r3, r9
 1371 0290 4A46     		mov	r2, r9
 1372 0292 05A9     		add	r1, sp, #20
 1373 0294 FFF7FEFF 		bl	mbedtls_rsa_export
 1374              	.LVL189:
 303:D:/fchai/work/i-cube/I-CUBE-HUAWEI/Middlewares/Third_Party/Huawei/iot_link/network/dtls/mbedtls/mbedtls-2.16.2/library\pkwrite.c **** 
 1375              		.loc 1 303 13 view .LVU452
 1376 0298 2744     		add	r7, r7, r4
 1377              	.LVL190:
 306:D:/fchai/work/i-cube/I-CUBE-HUAWEI/Middlewares/Third_Party/Huawei/iot_link/network/dtls/mbedtls/mbedtls-2.16.2/library\pkwrite.c ****                                          NULL, NULL, NULL ) ) != 0 ||
 1378              		.loc 1 306 9 is_stmt 1 view .LVU453
 306:D:/fchai/work/i-cube/I-CUBE-HUAWEI/Middlewares/Third_Party/Huawei/iot_link/network/dtls/mbedtls/mbedtls-2.16.2/library\pkwrite.c ****                                          NULL, NULL, NULL ) ) != 0 ||
 1379              		.loc 1 306 12 is_stmt 0 view .LVU454
 1380 029a 0446     		mov	r4, r0
 1381 029c 0028     		cmp	r0, #0
 1382 029e 7FF455AF 		bne	.L43
 308:D:/fchai/work/i-cube/I-CUBE-HUAWEI/Middlewares/Third_Party/Huawei/iot_link/network/dtls/mbedtls/mbedtls-2.16.2/library\pkwrite.c ****             goto end_of_export;
 1383              		.loc 1 308 22 view .LVU455
 1384 02a2 05AA     		add	r2, sp, #20
 1385 02a4 2946     		mov	r1, r5
 1386 02a6 3046     		mov	r0, r6
ARM GAS  T:\msys\tmp\cc683j1t.s 			page 39


 1387              	.LVL191:
 308:D:/fchai/work/i-cube/I-CUBE-HUAWEI/Middlewares/Third_Party/Huawei/iot_link/network/dtls/mbedtls/mbedtls-2.16.2/library\pkwrite.c ****             goto end_of_export;
 1388              		.loc 1 308 22 view .LVU456
 1389 02a8 FFF7FEFF 		bl	mbedtls_asn1_write_mpi
 1390              	.LVL192:
 307:D:/fchai/work/i-cube/I-CUBE-HUAWEI/Middlewares/Third_Party/Huawei/iot_link/network/dtls/mbedtls/mbedtls-2.16.2/library\pkwrite.c ****              ( ret = mbedtls_asn1_write_mpi( &c, buf, &T ) ) < 0 )
 1391              		.loc 1 307 68 view .LVU457
 1392 02ac 041E     		subs	r4, r0, #0
 1393 02ae 04DB     		blt	.L44
 310:D:/fchai/work/i-cube/I-CUBE-HUAWEI/Middlewares/Third_Party/Huawei/iot_link/network/dtls/mbedtls/mbedtls-2.16.2/library\pkwrite.c **** 
 1394              		.loc 1 310 9 is_stmt 1 view .LVU458
 314:D:/fchai/work/i-cube/I-CUBE-HUAWEI/Middlewares/Third_Party/Huawei/iot_link/network/dtls/mbedtls/mbedtls-2.16.2/library\pkwrite.c ****         if( ret < 0 )
 1395              		.loc 1 314 9 is_stmt 0 view .LVU459
 1396 02b0 05A8     		add	r0, sp, #20
 1397              	.LVL193:
 310:D:/fchai/work/i-cube/I-CUBE-HUAWEI/Middlewares/Third_Party/Huawei/iot_link/network/dtls/mbedtls/mbedtls-2.16.2/library\pkwrite.c **** 
 1398              		.loc 1 310 13 view .LVU460
 1399 02b2 2744     		add	r7, r7, r4
 1400              	.LVL194:
 314:D:/fchai/work/i-cube/I-CUBE-HUAWEI/Middlewares/Third_Party/Huawei/iot_link/network/dtls/mbedtls/mbedtls-2.16.2/library\pkwrite.c ****         if( ret < 0 )
 1401              		.loc 1 314 9 is_stmt 1 view .LVU461
 1402 02b4 FFF7FEFF 		bl	mbedtls_mpi_free
 1403              	.LVL195:
 315:D:/fchai/work/i-cube/I-CUBE-HUAWEI/Middlewares/Third_Party/Huawei/iot_link/network/dtls/mbedtls/mbedtls-2.16.2/library\pkwrite.c ****             return( ret );
 1404              		.loc 1 315 9 view .LVU462
 1405 02b8 4EE7     		b	.L45
 1406              	.LVL196:
 1407              	.L44:
 314:D:/fchai/work/i-cube/I-CUBE-HUAWEI/Middlewares/Third_Party/Huawei/iot_link/network/dtls/mbedtls/mbedtls-2.16.2/library\pkwrite.c ****         if( ret < 0 )
 1408              		.loc 1 314 9 view .LVU463
 1409 02ba 05A8     		add	r0, sp, #20
 1410              	.LVL197:
 314:D:/fchai/work/i-cube/I-CUBE-HUAWEI/Middlewares/Third_Party/Huawei/iot_link/network/dtls/mbedtls/mbedtls-2.16.2/library\pkwrite.c ****         if( ret < 0 )
 1411              		.loc 1 314 9 is_stmt 0 view .LVU464
 1412 02bc FFF7FEFF 		bl	mbedtls_mpi_free
 1413              	.LVL198:
 315:D:/fchai/work/i-cube/I-CUBE-HUAWEI/Middlewares/Third_Party/Huawei/iot_link/network/dtls/mbedtls/mbedtls-2.16.2/library\pkwrite.c ****             return( ret );
 1414              		.loc 1 315 9 is_stmt 1 view .LVU465
 1415 02c0 32E7     		b	.L39
 1416              	.LVL199:
 1417              	.L54:
 315:D:/fchai/work/i-cube/I-CUBE-HUAWEI/Middlewares/Third_Party/Huawei/iot_link/network/dtls/mbedtls/mbedtls-2.16.2/library\pkwrite.c ****             return( ret );
 1418              		.loc 1 315 9 is_stmt 0 view .LVU466
 1419              	.LBE27:
 1420              	.LBB28:
 1421 02c2 5C46     		mov	r4, fp
 1422 02c4 30E7     		b	.L39
 1423              	.LVL200:
 1424              	.L53:
 315:D:/fchai/work/i-cube/I-CUBE-HUAWEI/Middlewares/Third_Party/Huawei/iot_link/network/dtls/mbedtls/mbedtls-2.16.2/library\pkwrite.c ****             return( ret );
 1425              		.loc 1 315 9 view .LVU467
 1426 02c6 4C46     		mov	r4, r9
 1427 02c8 2EE7     		b	.L39
 1428              	.LVL201:
 1429              	.L48:
 315:D:/fchai/work/i-cube/I-CUBE-HUAWEI/Middlewares/Third_Party/Huawei/iot_link/network/dtls/mbedtls/mbedtls-2.16.2/library\pkwrite.c ****             return( ret );
 1430              		.loc 1 315 9 view .LVU468
ARM GAS  T:\msys\tmp\cc683j1t.s 			page 40


 1431              	.LBE28:
 242:D:/fchai/work/i-cube/I-CUBE-HUAWEI/Middlewares/Third_Party/Huawei/iot_link/network/dtls/mbedtls/mbedtls-2.16.2/library\pkwrite.c ****     PK_VALIDATE_RET( buf != NULL );
 1432              		.loc 1 242 15 view .LVU469
 1433 02ca 6FF06B04 		mvn	r4, #107
 1434 02ce 2BE7     		b	.L39
 1435              	.LVL202:
 1436              	.L51:
 380:D:/fchai/work/i-cube/I-CUBE-HUAWEI/Middlewares/Third_Party/Huawei/iot_link/network/dtls/mbedtls/mbedtls-2.16.2/library\pkwrite.c **** 
 1437              		.loc 1 380 15 view .LVU470
 1438 02d0 044C     		ldr	r4, .L63
 1439              	.LVL203:
 380:D:/fchai/work/i-cube/I-CUBE-HUAWEI/Middlewares/Third_Party/Huawei/iot_link/network/dtls/mbedtls/mbedtls-2.16.2/library\pkwrite.c **** 
 1440              		.loc 1 380 15 view .LVU471
 1441 02d2 29E7     		b	.L39
 1442              	.LVL204:
 1443              	.L55:
 1444              	.LBB29:
 380:D:/fchai/work/i-cube/I-CUBE-HUAWEI/Middlewares/Third_Party/Huawei/iot_link/network/dtls/mbedtls/mbedtls-2.16.2/library\pkwrite.c **** 
 1445              		.loc 1 380 15 view .LVU472
 1446 02d4 5446     		mov	r4, r10
 1447 02d6 27E7     		b	.L39
 1448              	.LVL205:
 1449              	.L56:
 380:D:/fchai/work/i-cube/I-CUBE-HUAWEI/Middlewares/Third_Party/Huawei/iot_link/network/dtls/mbedtls/mbedtls-2.16.2/library\pkwrite.c **** 
 1450              		.loc 1 380 15 view .LVU473
 1451 02d8 039C     		ldr	r4, [sp, #12]
 1452 02da 25E7     		b	.L39
 1453              	.LVL206:
 1454              	.L57:
 380:D:/fchai/work/i-cube/I-CUBE-HUAWEI/Middlewares/Third_Party/Huawei/iot_link/network/dtls/mbedtls/mbedtls-2.16.2/library\pkwrite.c **** 
 1455              		.loc 1 380 15 view .LVU474
 1456 02dc 3C46     		mov	r4, r7
 1457 02de 23E7     		b	.L39
 1458              	.LVL207:
 1459              	.L58:
 380:D:/fchai/work/i-cube/I-CUBE-HUAWEI/Middlewares/Third_Party/Huawei/iot_link/network/dtls/mbedtls/mbedtls-2.16.2/library\pkwrite.c **** 
 1460              		.loc 1 380 15 view .LVU475
 1461 02e0 1446     		mov	r4, r2
 1462 02e2 21E7     		b	.L39
 1463              	.L64:
 1464              		.align	2
 1465              	.L63:
 1466 02e4 80C6FFFF 		.word	-14720
 1467              	.LBE29:
 1468              		.cfi_endproc
 1469              	.LFE18:
 1471              		.section	.rodata.mbedtls_pk_write_pubkey_pem.str1.4,"aMS",%progbits,1
 1472              		.align	2
 1473              	.LC0:
 1474 0000 2D2D2D2D 		.ascii	"-----END PUBLIC KEY-----\012\000"
 1474      2D454E44 
 1474      20505542 
 1474      4C494320 
 1474      4B45592D 
 1475 001a 0000     		.align	2
 1476              	.LC1:
 1477 001c 2D2D2D2D 		.ascii	"-----BEGIN PUBLIC KEY-----\012\000"
ARM GAS  T:\msys\tmp\cc683j1t.s 			page 41


 1477      2D424547 
 1477      494E2050 
 1477      55424C49 
 1477      43204B45 
 1478              		.section	.text.mbedtls_pk_write_pubkey_pem,"ax",%progbits
 1479              		.align	1
 1480              		.p2align 2,,3
 1481              		.global	mbedtls_pk_write_pubkey_pem
 1482              		.syntax unified
 1483              		.thumb
 1484              		.thumb_func
 1485              		.fpu fpv4-sp-d16
 1487              	mbedtls_pk_write_pubkey_pem:
 1488              	.LVL208:
 1489              	.LFB19:
 384:D:/fchai/work/i-cube/I-CUBE-HUAWEI/Middlewares/Third_Party/Huawei/iot_link/network/dtls/mbedtls/mbedtls-2.16.2/library\pkwrite.c **** 
 385:D:/fchai/work/i-cube/I-CUBE-HUAWEI/Middlewares/Third_Party/Huawei/iot_link/network/dtls/mbedtls/mbedtls-2.16.2/library\pkwrite.c **** #if defined(MBEDTLS_PEM_WRITE_C)
 386:D:/fchai/work/i-cube/I-CUBE-HUAWEI/Middlewares/Third_Party/Huawei/iot_link/network/dtls/mbedtls/mbedtls-2.16.2/library\pkwrite.c **** 
 387:D:/fchai/work/i-cube/I-CUBE-HUAWEI/Middlewares/Third_Party/Huawei/iot_link/network/dtls/mbedtls/mbedtls-2.16.2/library\pkwrite.c **** #define PEM_BEGIN_PUBLIC_KEY    "-----BEGIN PUBLIC KEY-----\n"
 388:D:/fchai/work/i-cube/I-CUBE-HUAWEI/Middlewares/Third_Party/Huawei/iot_link/network/dtls/mbedtls/mbedtls-2.16.2/library\pkwrite.c **** #define PEM_END_PUBLIC_KEY      "-----END PUBLIC KEY-----\n"
 389:D:/fchai/work/i-cube/I-CUBE-HUAWEI/Middlewares/Third_Party/Huawei/iot_link/network/dtls/mbedtls/mbedtls-2.16.2/library\pkwrite.c **** 
 390:D:/fchai/work/i-cube/I-CUBE-HUAWEI/Middlewares/Third_Party/Huawei/iot_link/network/dtls/mbedtls/mbedtls-2.16.2/library\pkwrite.c **** #define PEM_BEGIN_PRIVATE_KEY_RSA   "-----BEGIN RSA PRIVATE KEY-----\n"
 391:D:/fchai/work/i-cube/I-CUBE-HUAWEI/Middlewares/Third_Party/Huawei/iot_link/network/dtls/mbedtls/mbedtls-2.16.2/library\pkwrite.c **** #define PEM_END_PRIVATE_KEY_RSA     "-----END RSA PRIVATE KEY-----\n"
 392:D:/fchai/work/i-cube/I-CUBE-HUAWEI/Middlewares/Third_Party/Huawei/iot_link/network/dtls/mbedtls/mbedtls-2.16.2/library\pkwrite.c **** #define PEM_BEGIN_PRIVATE_KEY_EC    "-----BEGIN EC PRIVATE KEY-----\n"
 393:D:/fchai/work/i-cube/I-CUBE-HUAWEI/Middlewares/Third_Party/Huawei/iot_link/network/dtls/mbedtls/mbedtls-2.16.2/library\pkwrite.c **** #define PEM_END_PRIVATE_KEY_EC      "-----END EC PRIVATE KEY-----\n"
 394:D:/fchai/work/i-cube/I-CUBE-HUAWEI/Middlewares/Third_Party/Huawei/iot_link/network/dtls/mbedtls/mbedtls-2.16.2/library\pkwrite.c **** 
 395:D:/fchai/work/i-cube/I-CUBE-HUAWEI/Middlewares/Third_Party/Huawei/iot_link/network/dtls/mbedtls/mbedtls-2.16.2/library\pkwrite.c **** /*
 396:D:/fchai/work/i-cube/I-CUBE-HUAWEI/Middlewares/Third_Party/Huawei/iot_link/network/dtls/mbedtls/mbedtls-2.16.2/library\pkwrite.c ****  * Max sizes of key per types. Shown as tag + len (+ content).
 397:D:/fchai/work/i-cube/I-CUBE-HUAWEI/Middlewares/Third_Party/Huawei/iot_link/network/dtls/mbedtls/mbedtls-2.16.2/library\pkwrite.c ****  */
 398:D:/fchai/work/i-cube/I-CUBE-HUAWEI/Middlewares/Third_Party/Huawei/iot_link/network/dtls/mbedtls/mbedtls-2.16.2/library\pkwrite.c **** 
 399:D:/fchai/work/i-cube/I-CUBE-HUAWEI/Middlewares/Third_Party/Huawei/iot_link/network/dtls/mbedtls/mbedtls-2.16.2/library\pkwrite.c **** #if defined(MBEDTLS_RSA_C)
 400:D:/fchai/work/i-cube/I-CUBE-HUAWEI/Middlewares/Third_Party/Huawei/iot_link/network/dtls/mbedtls/mbedtls-2.16.2/library\pkwrite.c **** /*
 401:D:/fchai/work/i-cube/I-CUBE-HUAWEI/Middlewares/Third_Party/Huawei/iot_link/network/dtls/mbedtls/mbedtls-2.16.2/library\pkwrite.c ****  * RSA public keys:
 402:D:/fchai/work/i-cube/I-CUBE-HUAWEI/Middlewares/Third_Party/Huawei/iot_link/network/dtls/mbedtls/mbedtls-2.16.2/library\pkwrite.c ****  *  SubjectPublicKeyInfo  ::=  SEQUENCE  {          1 + 3
 403:D:/fchai/work/i-cube/I-CUBE-HUAWEI/Middlewares/Third_Party/Huawei/iot_link/network/dtls/mbedtls/mbedtls-2.16.2/library\pkwrite.c ****  *       algorithm            AlgorithmIdentifier,  1 + 1 (sequence)
 404:D:/fchai/work/i-cube/I-CUBE-HUAWEI/Middlewares/Third_Party/Huawei/iot_link/network/dtls/mbedtls/mbedtls-2.16.2/library\pkwrite.c ****  *                                                + 1 + 1 + 9 (rsa oid)
 405:D:/fchai/work/i-cube/I-CUBE-HUAWEI/Middlewares/Third_Party/Huawei/iot_link/network/dtls/mbedtls/mbedtls-2.16.2/library\pkwrite.c ****  *                                                + 1 + 1 (params null)
 406:D:/fchai/work/i-cube/I-CUBE-HUAWEI/Middlewares/Third_Party/Huawei/iot_link/network/dtls/mbedtls/mbedtls-2.16.2/library\pkwrite.c ****  *       subjectPublicKey     BIT STRING }          1 + 3 + (1 + below)
 407:D:/fchai/work/i-cube/I-CUBE-HUAWEI/Middlewares/Third_Party/Huawei/iot_link/network/dtls/mbedtls/mbedtls-2.16.2/library\pkwrite.c ****  *  RSAPublicKey ::= SEQUENCE {                     1 + 3
 408:D:/fchai/work/i-cube/I-CUBE-HUAWEI/Middlewares/Third_Party/Huawei/iot_link/network/dtls/mbedtls/mbedtls-2.16.2/library\pkwrite.c ****  *      modulus           INTEGER,  -- n            1 + 3 + MPI_MAX + 1
 409:D:/fchai/work/i-cube/I-CUBE-HUAWEI/Middlewares/Third_Party/Huawei/iot_link/network/dtls/mbedtls/mbedtls-2.16.2/library\pkwrite.c ****  *      publicExponent    INTEGER   -- e            1 + 3 + MPI_MAX + 1
 410:D:/fchai/work/i-cube/I-CUBE-HUAWEI/Middlewares/Third_Party/Huawei/iot_link/network/dtls/mbedtls/mbedtls-2.16.2/library\pkwrite.c ****  *  }
 411:D:/fchai/work/i-cube/I-CUBE-HUAWEI/Middlewares/Third_Party/Huawei/iot_link/network/dtls/mbedtls/mbedtls-2.16.2/library\pkwrite.c ****  */
 412:D:/fchai/work/i-cube/I-CUBE-HUAWEI/Middlewares/Third_Party/Huawei/iot_link/network/dtls/mbedtls/mbedtls-2.16.2/library\pkwrite.c **** #define RSA_PUB_DER_MAX_BYTES   38 + 2 * MBEDTLS_MPI_MAX_SIZE
 413:D:/fchai/work/i-cube/I-CUBE-HUAWEI/Middlewares/Third_Party/Huawei/iot_link/network/dtls/mbedtls/mbedtls-2.16.2/library\pkwrite.c **** 
 414:D:/fchai/work/i-cube/I-CUBE-HUAWEI/Middlewares/Third_Party/Huawei/iot_link/network/dtls/mbedtls/mbedtls-2.16.2/library\pkwrite.c **** /*
 415:D:/fchai/work/i-cube/I-CUBE-HUAWEI/Middlewares/Third_Party/Huawei/iot_link/network/dtls/mbedtls/mbedtls-2.16.2/library\pkwrite.c ****  * RSA private keys:
 416:D:/fchai/work/i-cube/I-CUBE-HUAWEI/Middlewares/Third_Party/Huawei/iot_link/network/dtls/mbedtls/mbedtls-2.16.2/library\pkwrite.c ****  *  RSAPrivateKey ::= SEQUENCE {                    1 + 3
 417:D:/fchai/work/i-cube/I-CUBE-HUAWEI/Middlewares/Third_Party/Huawei/iot_link/network/dtls/mbedtls/mbedtls-2.16.2/library\pkwrite.c ****  *      version           Version,                  1 + 1 + 1
 418:D:/fchai/work/i-cube/I-CUBE-HUAWEI/Middlewares/Third_Party/Huawei/iot_link/network/dtls/mbedtls/mbedtls-2.16.2/library\pkwrite.c ****  *      modulus           INTEGER,                  1 + 3 + MPI_MAX + 1
 419:D:/fchai/work/i-cube/I-CUBE-HUAWEI/Middlewares/Third_Party/Huawei/iot_link/network/dtls/mbedtls/mbedtls-2.16.2/library\pkwrite.c ****  *      publicExponent    INTEGER,                  1 + 3 + MPI_MAX + 1
 420:D:/fchai/work/i-cube/I-CUBE-HUAWEI/Middlewares/Third_Party/Huawei/iot_link/network/dtls/mbedtls/mbedtls-2.16.2/library\pkwrite.c ****  *      privateExponent   INTEGER,                  1 + 3 + MPI_MAX + 1
 421:D:/fchai/work/i-cube/I-CUBE-HUAWEI/Middlewares/Third_Party/Huawei/iot_link/network/dtls/mbedtls/mbedtls-2.16.2/library\pkwrite.c ****  *      prime1            INTEGER,                  1 + 3 + MPI_MAX / 2 + 1
 422:D:/fchai/work/i-cube/I-CUBE-HUAWEI/Middlewares/Third_Party/Huawei/iot_link/network/dtls/mbedtls/mbedtls-2.16.2/library\pkwrite.c ****  *      prime2            INTEGER,                  1 + 3 + MPI_MAX / 2 + 1
 423:D:/fchai/work/i-cube/I-CUBE-HUAWEI/Middlewares/Third_Party/Huawei/iot_link/network/dtls/mbedtls/mbedtls-2.16.2/library\pkwrite.c ****  *      exponent1         INTEGER,                  1 + 3 + MPI_MAX / 2 + 1
 424:D:/fchai/work/i-cube/I-CUBE-HUAWEI/Middlewares/Third_Party/Huawei/iot_link/network/dtls/mbedtls/mbedtls-2.16.2/library\pkwrite.c ****  *      exponent2         INTEGER,                  1 + 3 + MPI_MAX / 2 + 1
 425:D:/fchai/work/i-cube/I-CUBE-HUAWEI/Middlewares/Third_Party/Huawei/iot_link/network/dtls/mbedtls/mbedtls-2.16.2/library\pkwrite.c ****  *      coefficient       INTEGER,                  1 + 3 + MPI_MAX / 2 + 1
ARM GAS  T:\msys\tmp\cc683j1t.s 			page 42


 426:D:/fchai/work/i-cube/I-CUBE-HUAWEI/Middlewares/Third_Party/Huawei/iot_link/network/dtls/mbedtls/mbedtls-2.16.2/library\pkwrite.c ****  *      otherPrimeInfos   OtherPrimeInfos OPTIONAL  0 (not supported)
 427:D:/fchai/work/i-cube/I-CUBE-HUAWEI/Middlewares/Third_Party/Huawei/iot_link/network/dtls/mbedtls/mbedtls-2.16.2/library\pkwrite.c ****  *  }
 428:D:/fchai/work/i-cube/I-CUBE-HUAWEI/Middlewares/Third_Party/Huawei/iot_link/network/dtls/mbedtls/mbedtls-2.16.2/library\pkwrite.c ****  */
 429:D:/fchai/work/i-cube/I-CUBE-HUAWEI/Middlewares/Third_Party/Huawei/iot_link/network/dtls/mbedtls/mbedtls-2.16.2/library\pkwrite.c **** #define MPI_MAX_SIZE_2          MBEDTLS_MPI_MAX_SIZE / 2 + \
 430:D:/fchai/work/i-cube/I-CUBE-HUAWEI/Middlewares/Third_Party/Huawei/iot_link/network/dtls/mbedtls/mbedtls-2.16.2/library\pkwrite.c ****                                 MBEDTLS_MPI_MAX_SIZE % 2
 431:D:/fchai/work/i-cube/I-CUBE-HUAWEI/Middlewares/Third_Party/Huawei/iot_link/network/dtls/mbedtls/mbedtls-2.16.2/library\pkwrite.c **** #define RSA_PRV_DER_MAX_BYTES   47 + 3 * MBEDTLS_MPI_MAX_SIZE \
 432:D:/fchai/work/i-cube/I-CUBE-HUAWEI/Middlewares/Third_Party/Huawei/iot_link/network/dtls/mbedtls/mbedtls-2.16.2/library\pkwrite.c ****                                    + 5 * MPI_MAX_SIZE_2
 433:D:/fchai/work/i-cube/I-CUBE-HUAWEI/Middlewares/Third_Party/Huawei/iot_link/network/dtls/mbedtls/mbedtls-2.16.2/library\pkwrite.c **** 
 434:D:/fchai/work/i-cube/I-CUBE-HUAWEI/Middlewares/Third_Party/Huawei/iot_link/network/dtls/mbedtls/mbedtls-2.16.2/library\pkwrite.c **** #else /* MBEDTLS_RSA_C */
 435:D:/fchai/work/i-cube/I-CUBE-HUAWEI/Middlewares/Third_Party/Huawei/iot_link/network/dtls/mbedtls/mbedtls-2.16.2/library\pkwrite.c **** 
 436:D:/fchai/work/i-cube/I-CUBE-HUAWEI/Middlewares/Third_Party/Huawei/iot_link/network/dtls/mbedtls/mbedtls-2.16.2/library\pkwrite.c **** #define RSA_PUB_DER_MAX_BYTES   0
 437:D:/fchai/work/i-cube/I-CUBE-HUAWEI/Middlewares/Third_Party/Huawei/iot_link/network/dtls/mbedtls/mbedtls-2.16.2/library\pkwrite.c **** #define RSA_PRV_DER_MAX_BYTES   0
 438:D:/fchai/work/i-cube/I-CUBE-HUAWEI/Middlewares/Third_Party/Huawei/iot_link/network/dtls/mbedtls/mbedtls-2.16.2/library\pkwrite.c **** 
 439:D:/fchai/work/i-cube/I-CUBE-HUAWEI/Middlewares/Third_Party/Huawei/iot_link/network/dtls/mbedtls/mbedtls-2.16.2/library\pkwrite.c **** #endif /* MBEDTLS_RSA_C */
 440:D:/fchai/work/i-cube/I-CUBE-HUAWEI/Middlewares/Third_Party/Huawei/iot_link/network/dtls/mbedtls/mbedtls-2.16.2/library\pkwrite.c **** 
 441:D:/fchai/work/i-cube/I-CUBE-HUAWEI/Middlewares/Third_Party/Huawei/iot_link/network/dtls/mbedtls/mbedtls-2.16.2/library\pkwrite.c **** #if defined(MBEDTLS_ECP_C)
 442:D:/fchai/work/i-cube/I-CUBE-HUAWEI/Middlewares/Third_Party/Huawei/iot_link/network/dtls/mbedtls/mbedtls-2.16.2/library\pkwrite.c **** /*
 443:D:/fchai/work/i-cube/I-CUBE-HUAWEI/Middlewares/Third_Party/Huawei/iot_link/network/dtls/mbedtls/mbedtls-2.16.2/library\pkwrite.c ****  * EC public keys:
 444:D:/fchai/work/i-cube/I-CUBE-HUAWEI/Middlewares/Third_Party/Huawei/iot_link/network/dtls/mbedtls/mbedtls-2.16.2/library\pkwrite.c ****  *  SubjectPublicKeyInfo  ::=  SEQUENCE  {      1 + 2
 445:D:/fchai/work/i-cube/I-CUBE-HUAWEI/Middlewares/Third_Party/Huawei/iot_link/network/dtls/mbedtls/mbedtls-2.16.2/library\pkwrite.c ****  *    algorithm         AlgorithmIdentifier,    1 + 1 (sequence)
 446:D:/fchai/work/i-cube/I-CUBE-HUAWEI/Middlewares/Third_Party/Huawei/iot_link/network/dtls/mbedtls/mbedtls-2.16.2/library\pkwrite.c ****  *                                            + 1 + 1 + 7 (ec oid)
 447:D:/fchai/work/i-cube/I-CUBE-HUAWEI/Middlewares/Third_Party/Huawei/iot_link/network/dtls/mbedtls/mbedtls-2.16.2/library\pkwrite.c ****  *                                            + 1 + 1 + 9 (namedCurve oid)
 448:D:/fchai/work/i-cube/I-CUBE-HUAWEI/Middlewares/Third_Party/Huawei/iot_link/network/dtls/mbedtls/mbedtls-2.16.2/library\pkwrite.c ****  *    subjectPublicKey  BIT STRING              1 + 2 + 1               [1]
 449:D:/fchai/work/i-cube/I-CUBE-HUAWEI/Middlewares/Third_Party/Huawei/iot_link/network/dtls/mbedtls/mbedtls-2.16.2/library\pkwrite.c ****  *                                            + 1 (point format)        [1]
 450:D:/fchai/work/i-cube/I-CUBE-HUAWEI/Middlewares/Third_Party/Huawei/iot_link/network/dtls/mbedtls/mbedtls-2.16.2/library\pkwrite.c ****  *                                            + 2 * ECP_MAX (coords)    [1]
 451:D:/fchai/work/i-cube/I-CUBE-HUAWEI/Middlewares/Third_Party/Huawei/iot_link/network/dtls/mbedtls/mbedtls-2.16.2/library\pkwrite.c ****  *  }
 452:D:/fchai/work/i-cube/I-CUBE-HUAWEI/Middlewares/Third_Party/Huawei/iot_link/network/dtls/mbedtls/mbedtls-2.16.2/library\pkwrite.c ****  */
 453:D:/fchai/work/i-cube/I-CUBE-HUAWEI/Middlewares/Third_Party/Huawei/iot_link/network/dtls/mbedtls/mbedtls-2.16.2/library\pkwrite.c **** #define ECP_PUB_DER_MAX_BYTES   30 + 2 * MBEDTLS_ECP_MAX_BYTES
 454:D:/fchai/work/i-cube/I-CUBE-HUAWEI/Middlewares/Third_Party/Huawei/iot_link/network/dtls/mbedtls/mbedtls-2.16.2/library\pkwrite.c **** 
 455:D:/fchai/work/i-cube/I-CUBE-HUAWEI/Middlewares/Third_Party/Huawei/iot_link/network/dtls/mbedtls/mbedtls-2.16.2/library\pkwrite.c **** /*
 456:D:/fchai/work/i-cube/I-CUBE-HUAWEI/Middlewares/Third_Party/Huawei/iot_link/network/dtls/mbedtls/mbedtls-2.16.2/library\pkwrite.c ****  * EC private keys:
 457:D:/fchai/work/i-cube/I-CUBE-HUAWEI/Middlewares/Third_Party/Huawei/iot_link/network/dtls/mbedtls/mbedtls-2.16.2/library\pkwrite.c ****  * ECPrivateKey ::= SEQUENCE {                  1 + 2
 458:D:/fchai/work/i-cube/I-CUBE-HUAWEI/Middlewares/Third_Party/Huawei/iot_link/network/dtls/mbedtls/mbedtls-2.16.2/library\pkwrite.c ****  *      version        INTEGER ,                1 + 1 + 1
 459:D:/fchai/work/i-cube/I-CUBE-HUAWEI/Middlewares/Third_Party/Huawei/iot_link/network/dtls/mbedtls/mbedtls-2.16.2/library\pkwrite.c ****  *      privateKey     OCTET STRING,            1 + 1 + ECP_MAX
 460:D:/fchai/work/i-cube/I-CUBE-HUAWEI/Middlewares/Third_Party/Huawei/iot_link/network/dtls/mbedtls/mbedtls-2.16.2/library\pkwrite.c ****  *      parameters [0] ECParameters OPTIONAL,   1 + 1 + (1 + 1 + 9)
 461:D:/fchai/work/i-cube/I-CUBE-HUAWEI/Middlewares/Third_Party/Huawei/iot_link/network/dtls/mbedtls/mbedtls-2.16.2/library\pkwrite.c ****  *      publicKey  [1] BIT STRING OPTIONAL      1 + 2 + [1] above
 462:D:/fchai/work/i-cube/I-CUBE-HUAWEI/Middlewares/Third_Party/Huawei/iot_link/network/dtls/mbedtls/mbedtls-2.16.2/library\pkwrite.c ****  *    }
 463:D:/fchai/work/i-cube/I-CUBE-HUAWEI/Middlewares/Third_Party/Huawei/iot_link/network/dtls/mbedtls/mbedtls-2.16.2/library\pkwrite.c ****  */
 464:D:/fchai/work/i-cube/I-CUBE-HUAWEI/Middlewares/Third_Party/Huawei/iot_link/network/dtls/mbedtls/mbedtls-2.16.2/library\pkwrite.c **** #define ECP_PRV_DER_MAX_BYTES   29 + 3 * MBEDTLS_ECP_MAX_BYTES
 465:D:/fchai/work/i-cube/I-CUBE-HUAWEI/Middlewares/Third_Party/Huawei/iot_link/network/dtls/mbedtls/mbedtls-2.16.2/library\pkwrite.c **** 
 466:D:/fchai/work/i-cube/I-CUBE-HUAWEI/Middlewares/Third_Party/Huawei/iot_link/network/dtls/mbedtls/mbedtls-2.16.2/library\pkwrite.c **** #else /* MBEDTLS_ECP_C */
 467:D:/fchai/work/i-cube/I-CUBE-HUAWEI/Middlewares/Third_Party/Huawei/iot_link/network/dtls/mbedtls/mbedtls-2.16.2/library\pkwrite.c **** 
 468:D:/fchai/work/i-cube/I-CUBE-HUAWEI/Middlewares/Third_Party/Huawei/iot_link/network/dtls/mbedtls/mbedtls-2.16.2/library\pkwrite.c **** #define ECP_PUB_DER_MAX_BYTES   0
 469:D:/fchai/work/i-cube/I-CUBE-HUAWEI/Middlewares/Third_Party/Huawei/iot_link/network/dtls/mbedtls/mbedtls-2.16.2/library\pkwrite.c **** #define ECP_PRV_DER_MAX_BYTES   0
 470:D:/fchai/work/i-cube/I-CUBE-HUAWEI/Middlewares/Third_Party/Huawei/iot_link/network/dtls/mbedtls/mbedtls-2.16.2/library\pkwrite.c **** 
 471:D:/fchai/work/i-cube/I-CUBE-HUAWEI/Middlewares/Third_Party/Huawei/iot_link/network/dtls/mbedtls/mbedtls-2.16.2/library\pkwrite.c **** #endif /* MBEDTLS_ECP_C */
 472:D:/fchai/work/i-cube/I-CUBE-HUAWEI/Middlewares/Third_Party/Huawei/iot_link/network/dtls/mbedtls/mbedtls-2.16.2/library\pkwrite.c **** 
 473:D:/fchai/work/i-cube/I-CUBE-HUAWEI/Middlewares/Third_Party/Huawei/iot_link/network/dtls/mbedtls/mbedtls-2.16.2/library\pkwrite.c **** #define PUB_DER_MAX_BYTES   RSA_PUB_DER_MAX_BYTES > ECP_PUB_DER_MAX_BYTES ? \
 474:D:/fchai/work/i-cube/I-CUBE-HUAWEI/Middlewares/Third_Party/Huawei/iot_link/network/dtls/mbedtls/mbedtls-2.16.2/library\pkwrite.c ****                             RSA_PUB_DER_MAX_BYTES : ECP_PUB_DER_MAX_BYTES
 475:D:/fchai/work/i-cube/I-CUBE-HUAWEI/Middlewares/Third_Party/Huawei/iot_link/network/dtls/mbedtls/mbedtls-2.16.2/library\pkwrite.c **** #define PRV_DER_MAX_BYTES   RSA_PRV_DER_MAX_BYTES > ECP_PRV_DER_MAX_BYTES ? \
 476:D:/fchai/work/i-cube/I-CUBE-HUAWEI/Middlewares/Third_Party/Huawei/iot_link/network/dtls/mbedtls/mbedtls-2.16.2/library\pkwrite.c ****                             RSA_PRV_DER_MAX_BYTES : ECP_PRV_DER_MAX_BYTES
 477:D:/fchai/work/i-cube/I-CUBE-HUAWEI/Middlewares/Third_Party/Huawei/iot_link/network/dtls/mbedtls/mbedtls-2.16.2/library\pkwrite.c **** 
 478:D:/fchai/work/i-cube/I-CUBE-HUAWEI/Middlewares/Third_Party/Huawei/iot_link/network/dtls/mbedtls/mbedtls-2.16.2/library\pkwrite.c **** int mbedtls_pk_write_pubkey_pem( mbedtls_pk_context *key, unsigned char *buf, size_t size )
 479:D:/fchai/work/i-cube/I-CUBE-HUAWEI/Middlewares/Third_Party/Huawei/iot_link/network/dtls/mbedtls/mbedtls-2.16.2/library\pkwrite.c **** {
 1490              		.loc 1 479 1 is_stmt 1 view -0
 1491              		.cfi_startproc
 1492              		@ args = 0, pretend = 0, frame = 2096
ARM GAS  T:\msys\tmp\cc683j1t.s 			page 43


 1493              		@ frame_needed = 0, uses_anonymous_args = 0
 480:D:/fchai/work/i-cube/I-CUBE-HUAWEI/Middlewares/Third_Party/Huawei/iot_link/network/dtls/mbedtls/mbedtls-2.16.2/library\pkwrite.c ****     int ret;
 1494              		.loc 1 480 5 view .LVU477
 481:D:/fchai/work/i-cube/I-CUBE-HUAWEI/Middlewares/Third_Party/Huawei/iot_link/network/dtls/mbedtls/mbedtls-2.16.2/library\pkwrite.c ****     unsigned char output_buf[PUB_DER_MAX_BYTES];
 1495              		.loc 1 481 5 view .LVU478
 482:D:/fchai/work/i-cube/I-CUBE-HUAWEI/Middlewares/Third_Party/Huawei/iot_link/network/dtls/mbedtls/mbedtls-2.16.2/library\pkwrite.c ****     size_t olen = 0;
 1496              		.loc 1 482 5 view .LVU479
 479:D:/fchai/work/i-cube/I-CUBE-HUAWEI/Middlewares/Third_Party/Huawei/iot_link/network/dtls/mbedtls/mbedtls-2.16.2/library\pkwrite.c ****     int ret;
 1497              		.loc 1 479 1 is_stmt 0 view .LVU480
 1498 0000 70B5     		push	{r4, r5, r6, lr}
 1499              	.LCFI23:
 1500              		.cfi_def_cfa_offset 16
 1501              		.cfi_offset 4, -16
 1502              		.cfi_offset 5, -12
 1503              		.cfi_offset 6, -8
 1504              		.cfi_offset 14, -4
 1505 0002 ADF5046D 		sub	sp, sp, #2112
 1506              	.LCFI24:
 1507              		.cfi_def_cfa_offset 2128
 479:D:/fchai/work/i-cube/I-CUBE-HUAWEI/Middlewares/Third_Party/Huawei/iot_link/network/dtls/mbedtls/mbedtls-2.16.2/library\pkwrite.c ****     int ret;
 1508              		.loc 1 479 1 view .LVU481
 1509 0006 0C46     		mov	r4, r1
 1510 0008 1546     		mov	r5, r2
 1511              		.loc 1 482 12 view .LVU482
 1512 000a 0026     		movs	r6, #0
 483:D:/fchai/work/i-cube/I-CUBE-HUAWEI/Middlewares/Third_Party/Huawei/iot_link/network/dtls/mbedtls/mbedtls-2.16.2/library\pkwrite.c **** 
 484:D:/fchai/work/i-cube/I-CUBE-HUAWEI/Middlewares/Third_Party/Huawei/iot_link/network/dtls/mbedtls/mbedtls-2.16.2/library\pkwrite.c ****     PK_VALIDATE_RET( key != NULL );
 485:D:/fchai/work/i-cube/I-CUBE-HUAWEI/Middlewares/Third_Party/Huawei/iot_link/network/dtls/mbedtls/mbedtls-2.16.2/library\pkwrite.c ****     PK_VALIDATE_RET( buf != NULL || size == 0 );
 486:D:/fchai/work/i-cube/I-CUBE-HUAWEI/Middlewares/Third_Party/Huawei/iot_link/network/dtls/mbedtls/mbedtls-2.16.2/library\pkwrite.c **** 
 487:D:/fchai/work/i-cube/I-CUBE-HUAWEI/Middlewares/Third_Party/Huawei/iot_link/network/dtls/mbedtls/mbedtls-2.16.2/library\pkwrite.c ****     if( ( ret = mbedtls_pk_write_pubkey_der( key, output_buf,
 1513              		.loc 1 487 17 view .LVU483
 1514 000c 06A9     		add	r1, sp, #24
 1515              	.LVL209:
 1516              		.loc 1 487 17 view .LVU484
 1517 000e 40F62602 		movw	r2, #2086
 1518              	.LVL210:
 482:D:/fchai/work/i-cube/I-CUBE-HUAWEI/Middlewares/Third_Party/Huawei/iot_link/network/dtls/mbedtls/mbedtls-2.16.2/library\pkwrite.c **** 
 1519              		.loc 1 482 12 view .LVU485
 1520 0012 0596     		str	r6, [sp, #20]
 484:D:/fchai/work/i-cube/I-CUBE-HUAWEI/Middlewares/Third_Party/Huawei/iot_link/network/dtls/mbedtls/mbedtls-2.16.2/library\pkwrite.c ****     PK_VALIDATE_RET( buf != NULL || size == 0 );
 1521              		.loc 1 484 5 is_stmt 1 view .LVU486
 484:D:/fchai/work/i-cube/I-CUBE-HUAWEI/Middlewares/Third_Party/Huawei/iot_link/network/dtls/mbedtls/mbedtls-2.16.2/library\pkwrite.c ****     PK_VALIDATE_RET( buf != NULL || size == 0 );
 1522              		.loc 1 484 5 view .LVU487
 484:D:/fchai/work/i-cube/I-CUBE-HUAWEI/Middlewares/Third_Party/Huawei/iot_link/network/dtls/mbedtls/mbedtls-2.16.2/library\pkwrite.c ****     PK_VALIDATE_RET( buf != NULL || size == 0 );
 1523              		.loc 1 484 5 view .LVU488
 485:D:/fchai/work/i-cube/I-CUBE-HUAWEI/Middlewares/Third_Party/Huawei/iot_link/network/dtls/mbedtls/mbedtls-2.16.2/library\pkwrite.c **** 
 1524              		.loc 1 485 5 view .LVU489
 485:D:/fchai/work/i-cube/I-CUBE-HUAWEI/Middlewares/Third_Party/Huawei/iot_link/network/dtls/mbedtls/mbedtls-2.16.2/library\pkwrite.c **** 
 1525              		.loc 1 485 5 view .LVU490
 485:D:/fchai/work/i-cube/I-CUBE-HUAWEI/Middlewares/Third_Party/Huawei/iot_link/network/dtls/mbedtls/mbedtls-2.16.2/library\pkwrite.c **** 
 1526              		.loc 1 485 5 view .LVU491
 1527              		.loc 1 487 5 view .LVU492
 1528              		.loc 1 487 17 is_stmt 0 view .LVU493
 1529 0014 FFF7FEFF 		bl	mbedtls_pk_write_pubkey_der
 1530              	.LVL211:
 1531              		.loc 1 487 7 view .LVU494
 1532 0018 0028     		cmp	r0, #0
ARM GAS  T:\msys\tmp\cc683j1t.s 			page 44


 1533              		.loc 1 487 7 view .LVU495
 1534 001a 0DDB     		blt	.L65
 488:D:/fchai/work/i-cube/I-CUBE-HUAWEI/Middlewares/Third_Party/Huawei/iot_link/network/dtls/mbedtls/mbedtls-2.16.2/library\pkwrite.c ****                                      sizeof(output_buf) ) ) < 0 )
 489:D:/fchai/work/i-cube/I-CUBE-HUAWEI/Middlewares/Third_Party/Huawei/iot_link/network/dtls/mbedtls/mbedtls-2.16.2/library\pkwrite.c ****     {
 490:D:/fchai/work/i-cube/I-CUBE-HUAWEI/Middlewares/Third_Party/Huawei/iot_link/network/dtls/mbedtls/mbedtls-2.16.2/library\pkwrite.c ****         return( ret );
 491:D:/fchai/work/i-cube/I-CUBE-HUAWEI/Middlewares/Third_Party/Huawei/iot_link/network/dtls/mbedtls/mbedtls-2.16.2/library\pkwrite.c ****     }
 492:D:/fchai/work/i-cube/I-CUBE-HUAWEI/Middlewares/Third_Party/Huawei/iot_link/network/dtls/mbedtls/mbedtls-2.16.2/library\pkwrite.c **** 
 493:D:/fchai/work/i-cube/I-CUBE-HUAWEI/Middlewares/Third_Party/Huawei/iot_link/network/dtls/mbedtls/mbedtls-2.16.2/library\pkwrite.c ****     if( ( ret = mbedtls_pem_write_buffer( PEM_BEGIN_PUBLIC_KEY, PEM_END_PUBLIC_KEY,
 1535              		.loc 1 493 5 is_stmt 1 view .LVU496
 494:D:/fchai/work/i-cube/I-CUBE-HUAWEI/Middlewares/Third_Party/Huawei/iot_link/network/dtls/mbedtls/mbedtls-2.16.2/library\pkwrite.c ****                                   output_buf + sizeof(output_buf) - ret,
 1536              		.loc 1 494 67 is_stmt 0 view .LVU497
 1537 001c C0F50262 		rsb	r2, r0, #2080
 493:D:/fchai/work/i-cube/I-CUBE-HUAWEI/Middlewares/Third_Party/Huawei/iot_link/network/dtls/mbedtls/mbedtls-2.16.2/library\pkwrite.c ****                                   output_buf + sizeof(output_buf) - ret,
 1538              		.loc 1 493 17 view .LVU498
 1539 0020 05AB     		add	r3, sp, #20
 1540 0022 CDE90153 		strd	r5, r3, [sp, #4]
 1541              		.loc 1 494 67 view .LVU499
 1542 0026 0632     		adds	r2, r2, #6
 493:D:/fchai/work/i-cube/I-CUBE-HUAWEI/Middlewares/Third_Party/Huawei/iot_link/network/dtls/mbedtls/mbedtls-2.16.2/library\pkwrite.c ****                                   output_buf + sizeof(output_buf) - ret,
 1543              		.loc 1 493 17 view .LVU500
 1544 0028 06AB     		add	r3, sp, #24
 1545 002a 1A44     		add	r2, r2, r3
 1546 002c 0449     		ldr	r1, .L68
 1547 002e 0094     		str	r4, [sp]
 1548 0030 0346     		mov	r3, r0
 1549 0032 0448     		ldr	r0, .L68+4
 1550              	.LVL212:
 493:D:/fchai/work/i-cube/I-CUBE-HUAWEI/Middlewares/Third_Party/Huawei/iot_link/network/dtls/mbedtls/mbedtls-2.16.2/library\pkwrite.c ****                                   output_buf + sizeof(output_buf) - ret,
 1551              		.loc 1 493 17 view .LVU501
 1552 0034 FFF7FEFF 		bl	mbedtls_pem_write_buffer
 1553              	.LVL213:
 1554              	.L65:
 495:D:/fchai/work/i-cube/I-CUBE-HUAWEI/Middlewares/Third_Party/Huawei/iot_link/network/dtls/mbedtls/mbedtls-2.16.2/library\pkwrite.c ****                                   ret, buf, size, &olen ) ) != 0 )
 496:D:/fchai/work/i-cube/I-CUBE-HUAWEI/Middlewares/Third_Party/Huawei/iot_link/network/dtls/mbedtls/mbedtls-2.16.2/library\pkwrite.c ****     {
 497:D:/fchai/work/i-cube/I-CUBE-HUAWEI/Middlewares/Third_Party/Huawei/iot_link/network/dtls/mbedtls/mbedtls-2.16.2/library\pkwrite.c ****         return( ret );
 498:D:/fchai/work/i-cube/I-CUBE-HUAWEI/Middlewares/Third_Party/Huawei/iot_link/network/dtls/mbedtls/mbedtls-2.16.2/library\pkwrite.c ****     }
 499:D:/fchai/work/i-cube/I-CUBE-HUAWEI/Middlewares/Third_Party/Huawei/iot_link/network/dtls/mbedtls/mbedtls-2.16.2/library\pkwrite.c **** 
 500:D:/fchai/work/i-cube/I-CUBE-HUAWEI/Middlewares/Third_Party/Huawei/iot_link/network/dtls/mbedtls/mbedtls-2.16.2/library\pkwrite.c ****     return( 0 );
 501:D:/fchai/work/i-cube/I-CUBE-HUAWEI/Middlewares/Third_Party/Huawei/iot_link/network/dtls/mbedtls/mbedtls-2.16.2/library\pkwrite.c **** }
 1555              		.loc 1 501 1 view .LVU502
 1556 0038 0DF5046D 		add	sp, sp, #2112
 1557              	.LCFI25:
 1558              		.cfi_def_cfa_offset 16
 1559              		@ sp needed
 1560 003c 70BD     		pop	{r4, r5, r6, pc}
 1561              	.LVL214:
 1562              	.L69:
 1563              		.loc 1 501 1 view .LVU503
 1564 003e 00BF     		.align	2
 1565              	.L68:
 1566 0040 00000000 		.word	.LC0
 1567 0044 1C000000 		.word	.LC1
 1568              		.cfi_endproc
 1569              	.LFE19:
 1571              		.section	.rodata.mbedtls_pk_write_key_pem.str1.4,"aMS",%progbits,1
 1572              		.align	2
 1573              	.LC2:
ARM GAS  T:\msys\tmp\cc683j1t.s 			page 45


 1574 0000 2D2D2D2D 		.ascii	"-----END RSA PRIVATE KEY-----\012\000"
 1574      2D454E44 
 1574      20525341 
 1574      20505249 
 1574      56415445 
 1575 001f 00       		.align	2
 1576              	.LC3:
 1577 0020 2D2D2D2D 		.ascii	"-----BEGIN RSA PRIVATE KEY-----\012\000"
 1577      2D424547 
 1577      494E2052 
 1577      53412050 
 1577      52495641 
 1578 0041 000000   		.align	2
 1579              	.LC4:
 1580 0044 2D2D2D2D 		.ascii	"-----END EC PRIVATE KEY-----\012\000"
 1580      2D454E44 
 1580      20454320 
 1580      50524956 
 1580      41544520 
 1581 0062 0000     		.align	2
 1582              	.LC5:
 1583 0064 2D2D2D2D 		.ascii	"-----BEGIN EC PRIVATE KEY-----\012\000"
 1583      2D424547 
 1583      494E2045 
 1583      43205052 
 1583      49564154 
 1584              		.section	.text.mbedtls_pk_write_key_pem,"ax",%progbits
 1585              		.align	1
 1586              		.p2align 2,,3
 1587              		.global	mbedtls_pk_write_key_pem
 1588              		.syntax unified
 1589              		.thumb
 1590              		.thumb_func
 1591              		.fpu fpv4-sp-d16
 1593              	mbedtls_pk_write_key_pem:
 1594              	.LVL215:
 1595              	.LFB20:
 502:D:/fchai/work/i-cube/I-CUBE-HUAWEI/Middlewares/Third_Party/Huawei/iot_link/network/dtls/mbedtls/mbedtls-2.16.2/library\pkwrite.c **** 
 503:D:/fchai/work/i-cube/I-CUBE-HUAWEI/Middlewares/Third_Party/Huawei/iot_link/network/dtls/mbedtls/mbedtls-2.16.2/library\pkwrite.c **** int mbedtls_pk_write_key_pem( mbedtls_pk_context *key, unsigned char *buf, size_t size )
 504:D:/fchai/work/i-cube/I-CUBE-HUAWEI/Middlewares/Third_Party/Huawei/iot_link/network/dtls/mbedtls/mbedtls-2.16.2/library\pkwrite.c **** {
 1596              		.loc 1 504 1 is_stmt 1 view -0
 1597              		.cfi_startproc
 1598              		@ args = 0, pretend = 0, frame = 5688
 1599              		@ frame_needed = 0, uses_anonymous_args = 0
 505:D:/fchai/work/i-cube/I-CUBE-HUAWEI/Middlewares/Third_Party/Huawei/iot_link/network/dtls/mbedtls/mbedtls-2.16.2/library\pkwrite.c ****     int ret;
 1600              		.loc 1 505 5 view .LVU505
 506:D:/fchai/work/i-cube/I-CUBE-HUAWEI/Middlewares/Third_Party/Huawei/iot_link/network/dtls/mbedtls/mbedtls-2.16.2/library\pkwrite.c ****     unsigned char output_buf[PRV_DER_MAX_BYTES];
 1601              		.loc 1 506 5 view .LVU506
 507:D:/fchai/work/i-cube/I-CUBE-HUAWEI/Middlewares/Third_Party/Huawei/iot_link/network/dtls/mbedtls/mbedtls-2.16.2/library\pkwrite.c ****     const char *begin, *end;
 1602              		.loc 1 507 5 view .LVU507
 508:D:/fchai/work/i-cube/I-CUBE-HUAWEI/Middlewares/Third_Party/Huawei/iot_link/network/dtls/mbedtls/mbedtls-2.16.2/library\pkwrite.c ****     size_t olen = 0;
 1603              		.loc 1 508 5 view .LVU508
 504:D:/fchai/work/i-cube/I-CUBE-HUAWEI/Middlewares/Third_Party/Huawei/iot_link/network/dtls/mbedtls/mbedtls-2.16.2/library\pkwrite.c ****     int ret;
 1604              		.loc 1 504 1 is_stmt 0 view .LVU509
 1605 0000 F0B5     		push	{r4, r5, r6, r7, lr}
 1606              	.LCFI26:
 1607              		.cfi_def_cfa_offset 20
ARM GAS  T:\msys\tmp\cc683j1t.s 			page 46


 1608              		.cfi_offset 4, -20
 1609              		.cfi_offset 5, -16
 1610              		.cfi_offset 6, -12
 1611              		.cfi_offset 7, -8
 1612              		.cfi_offset 14, -4
 1613 0002 ADF5B25D 		sub	sp, sp, #5696
 1614              	.LCFI27:
 1615              		.cfi_def_cfa_offset 5716
 1616 0006 83B0     		sub	sp, sp, #12
 1617              	.LCFI28:
 1618              		.cfi_def_cfa_offset 5728
 1619              		.loc 1 508 12 view .LVU510
 1620 0008 0023     		movs	r3, #0
 504:D:/fchai/work/i-cube/I-CUBE-HUAWEI/Middlewares/Third_Party/Huawei/iot_link/network/dtls/mbedtls/mbedtls-2.16.2/library\pkwrite.c ****     int ret;
 1621              		.loc 1 504 1 view .LVU511
 1622 000a 0E46     		mov	r6, r1
 1623 000c 1746     		mov	r7, r2
 509:D:/fchai/work/i-cube/I-CUBE-HUAWEI/Middlewares/Third_Party/Huawei/iot_link/network/dtls/mbedtls/mbedtls-2.16.2/library\pkwrite.c **** 
 510:D:/fchai/work/i-cube/I-CUBE-HUAWEI/Middlewares/Third_Party/Huawei/iot_link/network/dtls/mbedtls/mbedtls-2.16.2/library\pkwrite.c ****     PK_VALIDATE_RET( key != NULL );
 511:D:/fchai/work/i-cube/I-CUBE-HUAWEI/Middlewares/Third_Party/Huawei/iot_link/network/dtls/mbedtls/mbedtls-2.16.2/library\pkwrite.c ****     PK_VALIDATE_RET( buf != NULL || size == 0 );
 512:D:/fchai/work/i-cube/I-CUBE-HUAWEI/Middlewares/Third_Party/Huawei/iot_link/network/dtls/mbedtls/mbedtls-2.16.2/library\pkwrite.c **** 
 513:D:/fchai/work/i-cube/I-CUBE-HUAWEI/Middlewares/Third_Party/Huawei/iot_link/network/dtls/mbedtls/mbedtls-2.16.2/library\pkwrite.c ****     if( ( ret = mbedtls_pk_write_key_der( key, output_buf, sizeof(output_buf) ) ) < 0 )
 1624              		.loc 1 513 17 view .LVU512
 1625 000e 06A9     		add	r1, sp, #24
 1626              	.LVL216:
 1627              		.loc 1 513 17 view .LVU513
 1628 0010 41F22F62 		movw	r2, #5679
 1629              	.LVL217:
 508:D:/fchai/work/i-cube/I-CUBE-HUAWEI/Middlewares/Third_Party/Huawei/iot_link/network/dtls/mbedtls/mbedtls-2.16.2/library\pkwrite.c **** 
 1630              		.loc 1 508 12 view .LVU514
 1631 0014 0593     		str	r3, [sp, #20]
 510:D:/fchai/work/i-cube/I-CUBE-HUAWEI/Middlewares/Third_Party/Huawei/iot_link/network/dtls/mbedtls/mbedtls-2.16.2/library\pkwrite.c ****     PK_VALIDATE_RET( buf != NULL || size == 0 );
 1632              		.loc 1 510 5 is_stmt 1 view .LVU515
 510:D:/fchai/work/i-cube/I-CUBE-HUAWEI/Middlewares/Third_Party/Huawei/iot_link/network/dtls/mbedtls/mbedtls-2.16.2/library\pkwrite.c ****     PK_VALIDATE_RET( buf != NULL || size == 0 );
 1633              		.loc 1 510 5 view .LVU516
 510:D:/fchai/work/i-cube/I-CUBE-HUAWEI/Middlewares/Third_Party/Huawei/iot_link/network/dtls/mbedtls/mbedtls-2.16.2/library\pkwrite.c ****     PK_VALIDATE_RET( buf != NULL || size == 0 );
 1634              		.loc 1 510 5 view .LVU517
 511:D:/fchai/work/i-cube/I-CUBE-HUAWEI/Middlewares/Third_Party/Huawei/iot_link/network/dtls/mbedtls/mbedtls-2.16.2/library\pkwrite.c **** 
 1635              		.loc 1 511 5 view .LVU518
 511:D:/fchai/work/i-cube/I-CUBE-HUAWEI/Middlewares/Third_Party/Huawei/iot_link/network/dtls/mbedtls/mbedtls-2.16.2/library\pkwrite.c **** 
 1636              		.loc 1 511 5 view .LVU519
 511:D:/fchai/work/i-cube/I-CUBE-HUAWEI/Middlewares/Third_Party/Huawei/iot_link/network/dtls/mbedtls/mbedtls-2.16.2/library\pkwrite.c **** 
 1637              		.loc 1 511 5 view .LVU520
 1638              		.loc 1 513 5 view .LVU521
 504:D:/fchai/work/i-cube/I-CUBE-HUAWEI/Middlewares/Third_Party/Huawei/iot_link/network/dtls/mbedtls/mbedtls-2.16.2/library\pkwrite.c ****     int ret;
 1639              		.loc 1 504 1 is_stmt 0 view .LVU522
 1640 0016 0546     		mov	r5, r0
 1641              		.loc 1 513 17 view .LVU523
 1642 0018 FFF7FEFF 		bl	mbedtls_pk_write_key_der
 1643              	.LVL218:
 1644              		.loc 1 513 7 view .LVU524
 1645 001c 041E     		subs	r4, r0, #0
 1646 001e 18DB     		blt	.L70
 514:D:/fchai/work/i-cube/I-CUBE-HUAWEI/Middlewares/Third_Party/Huawei/iot_link/network/dtls/mbedtls/mbedtls-2.16.2/library\pkwrite.c ****         return( ret );
 515:D:/fchai/work/i-cube/I-CUBE-HUAWEI/Middlewares/Third_Party/Huawei/iot_link/network/dtls/mbedtls/mbedtls-2.16.2/library\pkwrite.c **** 
 516:D:/fchai/work/i-cube/I-CUBE-HUAWEI/Middlewares/Third_Party/Huawei/iot_link/network/dtls/mbedtls/mbedtls-2.16.2/library\pkwrite.c **** #if defined(MBEDTLS_RSA_C)
 517:D:/fchai/work/i-cube/I-CUBE-HUAWEI/Middlewares/Third_Party/Huawei/iot_link/network/dtls/mbedtls/mbedtls-2.16.2/library\pkwrite.c ****     if( mbedtls_pk_get_type( key ) == MBEDTLS_PK_RSA )
ARM GAS  T:\msys\tmp\cc683j1t.s 			page 47


 1647              		.loc 1 517 5 is_stmt 1 view .LVU525
 1648              		.loc 1 517 9 is_stmt 0 view .LVU526
 1649 0020 2846     		mov	r0, r5
 1650              	.LVL219:
 1651              		.loc 1 517 9 view .LVU527
 1652 0022 FFF7FEFF 		bl	mbedtls_pk_get_type
 1653              	.LVL220:
 1654              		.loc 1 517 7 view .LVU528
 1655 0026 0128     		cmp	r0, #1
 1656 0028 18D0     		beq	.L73
 518:D:/fchai/work/i-cube/I-CUBE-HUAWEI/Middlewares/Third_Party/Huawei/iot_link/network/dtls/mbedtls/mbedtls-2.16.2/library\pkwrite.c ****     {
 519:D:/fchai/work/i-cube/I-CUBE-HUAWEI/Middlewares/Third_Party/Huawei/iot_link/network/dtls/mbedtls/mbedtls-2.16.2/library\pkwrite.c ****         begin = PEM_BEGIN_PRIVATE_KEY_RSA;
 520:D:/fchai/work/i-cube/I-CUBE-HUAWEI/Middlewares/Third_Party/Huawei/iot_link/network/dtls/mbedtls/mbedtls-2.16.2/library\pkwrite.c ****         end = PEM_END_PRIVATE_KEY_RSA;
 521:D:/fchai/work/i-cube/I-CUBE-HUAWEI/Middlewares/Third_Party/Huawei/iot_link/network/dtls/mbedtls/mbedtls-2.16.2/library\pkwrite.c ****     }
 522:D:/fchai/work/i-cube/I-CUBE-HUAWEI/Middlewares/Third_Party/Huawei/iot_link/network/dtls/mbedtls/mbedtls-2.16.2/library\pkwrite.c ****     else
 523:D:/fchai/work/i-cube/I-CUBE-HUAWEI/Middlewares/Third_Party/Huawei/iot_link/network/dtls/mbedtls/mbedtls-2.16.2/library\pkwrite.c **** #endif
 524:D:/fchai/work/i-cube/I-CUBE-HUAWEI/Middlewares/Third_Party/Huawei/iot_link/network/dtls/mbedtls/mbedtls-2.16.2/library\pkwrite.c **** #if defined(MBEDTLS_ECP_C)
 525:D:/fchai/work/i-cube/I-CUBE-HUAWEI/Middlewares/Third_Party/Huawei/iot_link/network/dtls/mbedtls/mbedtls-2.16.2/library\pkwrite.c ****     if( mbedtls_pk_get_type( key ) == MBEDTLS_PK_ECKEY )
 1657              		.loc 1 525 5 is_stmt 1 view .LVU529
 1658              		.loc 1 525 9 is_stmt 0 view .LVU530
 1659 002a 2846     		mov	r0, r5
 1660 002c FFF7FEFF 		bl	mbedtls_pk_get_type
 1661              	.LVL221:
 1662              		.loc 1 525 7 view .LVU531
 1663 0030 0228     		cmp	r0, #2
 1664 0032 16D1     		bne	.L74
 526:D:/fchai/work/i-cube/I-CUBE-HUAWEI/Middlewares/Third_Party/Huawei/iot_link/network/dtls/mbedtls/mbedtls-2.16.2/library\pkwrite.c ****     {
 527:D:/fchai/work/i-cube/I-CUBE-HUAWEI/Middlewares/Third_Party/Huawei/iot_link/network/dtls/mbedtls/mbedtls-2.16.2/library\pkwrite.c ****         begin = PEM_BEGIN_PRIVATE_KEY_EC;
 528:D:/fchai/work/i-cube/I-CUBE-HUAWEI/Middlewares/Third_Party/Huawei/iot_link/network/dtls/mbedtls/mbedtls-2.16.2/library\pkwrite.c ****         end = PEM_END_PRIVATE_KEY_EC;
 1665              		.loc 1 528 13 view .LVU532
 1666 0034 0C49     		ldr	r1, .L76
 527:D:/fchai/work/i-cube/I-CUBE-HUAWEI/Middlewares/Third_Party/Huawei/iot_link/network/dtls/mbedtls/mbedtls-2.16.2/library\pkwrite.c ****         end = PEM_END_PRIVATE_KEY_EC;
 1667              		.loc 1 527 15 view .LVU533
 1668 0036 0D48     		ldr	r0, .L76+4
 1669              	.L72:
 1670              	.LVL222:
 529:D:/fchai/work/i-cube/I-CUBE-HUAWEI/Middlewares/Third_Party/Huawei/iot_link/network/dtls/mbedtls/mbedtls-2.16.2/library\pkwrite.c ****     }
 530:D:/fchai/work/i-cube/I-CUBE-HUAWEI/Middlewares/Third_Party/Huawei/iot_link/network/dtls/mbedtls/mbedtls-2.16.2/library\pkwrite.c ****     else
 531:D:/fchai/work/i-cube/I-CUBE-HUAWEI/Middlewares/Third_Party/Huawei/iot_link/network/dtls/mbedtls/mbedtls-2.16.2/library\pkwrite.c **** #endif
 532:D:/fchai/work/i-cube/I-CUBE-HUAWEI/Middlewares/Third_Party/Huawei/iot_link/network/dtls/mbedtls/mbedtls-2.16.2/library\pkwrite.c ****         return( MBEDTLS_ERR_PK_FEATURE_UNAVAILABLE );
 533:D:/fchai/work/i-cube/I-CUBE-HUAWEI/Middlewares/Third_Party/Huawei/iot_link/network/dtls/mbedtls/mbedtls-2.16.2/library\pkwrite.c **** 
 534:D:/fchai/work/i-cube/I-CUBE-HUAWEI/Middlewares/Third_Party/Huawei/iot_link/network/dtls/mbedtls/mbedtls-2.16.2/library\pkwrite.c ****     if( ( ret = mbedtls_pem_write_buffer( begin, end,
 1671              		.loc 1 534 5 is_stmt 1 view .LVU534
 1672              		.loc 1 534 17 is_stmt 0 view .LVU535
 1673 0038 0197     		str	r7, [sp, #4]
 535:D:/fchai/work/i-cube/I-CUBE-HUAWEI/Middlewares/Third_Party/Huawei/iot_link/network/dtls/mbedtls/mbedtls-2.16.2/library\pkwrite.c ****                                   output_buf + sizeof(output_buf) - ret,
 1674              		.loc 1 535 67 view .LVU536
 1675 003a C4F5B152 		rsb	r2, r4, #5664
 534:D:/fchai/work/i-cube/I-CUBE-HUAWEI/Middlewares/Third_Party/Huawei/iot_link/network/dtls/mbedtls/mbedtls-2.16.2/library\pkwrite.c ****                                   output_buf + sizeof(output_buf) - ret,
 1676              		.loc 1 534 17 view .LVU537
 1677 003e 05AB     		add	r3, sp, #20
 1678 0040 0293     		str	r3, [sp, #8]
 1679              		.loc 1 535 67 view .LVU538
 1680 0042 0F32     		adds	r2, r2, #15
 534:D:/fchai/work/i-cube/I-CUBE-HUAWEI/Middlewares/Third_Party/Huawei/iot_link/network/dtls/mbedtls/mbedtls-2.16.2/library\pkwrite.c ****                                   output_buf + sizeof(output_buf) - ret,
 1681              		.loc 1 534 17 view .LVU539
 1682 0044 06AB     		add	r3, sp, #24
ARM GAS  T:\msys\tmp\cc683j1t.s 			page 48


 1683 0046 1A44     		add	r2, r2, r3
 1684 0048 0096     		str	r6, [sp]
 1685 004a 2346     		mov	r3, r4
 1686 004c FFF7FEFF 		bl	mbedtls_pem_write_buffer
 1687              	.LVL223:
 534:D:/fchai/work/i-cube/I-CUBE-HUAWEI/Middlewares/Third_Party/Huawei/iot_link/network/dtls/mbedtls/mbedtls-2.16.2/library\pkwrite.c ****                                   output_buf + sizeof(output_buf) - ret,
 1688              		.loc 1 534 17 view .LVU540
 1689 0050 0446     		mov	r4, r0
 1690              	.LVL224:
 1691              	.L70:
 536:D:/fchai/work/i-cube/I-CUBE-HUAWEI/Middlewares/Third_Party/Huawei/iot_link/network/dtls/mbedtls/mbedtls-2.16.2/library\pkwrite.c ****                                   ret, buf, size, &olen ) ) != 0 )
 537:D:/fchai/work/i-cube/I-CUBE-HUAWEI/Middlewares/Third_Party/Huawei/iot_link/network/dtls/mbedtls/mbedtls-2.16.2/library\pkwrite.c ****     {
 538:D:/fchai/work/i-cube/I-CUBE-HUAWEI/Middlewares/Third_Party/Huawei/iot_link/network/dtls/mbedtls/mbedtls-2.16.2/library\pkwrite.c ****         return( ret );
 539:D:/fchai/work/i-cube/I-CUBE-HUAWEI/Middlewares/Third_Party/Huawei/iot_link/network/dtls/mbedtls/mbedtls-2.16.2/library\pkwrite.c ****     }
 540:D:/fchai/work/i-cube/I-CUBE-HUAWEI/Middlewares/Third_Party/Huawei/iot_link/network/dtls/mbedtls/mbedtls-2.16.2/library\pkwrite.c **** 
 541:D:/fchai/work/i-cube/I-CUBE-HUAWEI/Middlewares/Third_Party/Huawei/iot_link/network/dtls/mbedtls/mbedtls-2.16.2/library\pkwrite.c ****     return( 0 );
 542:D:/fchai/work/i-cube/I-CUBE-HUAWEI/Middlewares/Third_Party/Huawei/iot_link/network/dtls/mbedtls/mbedtls-2.16.2/library\pkwrite.c **** }
 1692              		.loc 1 542 1 view .LVU541
 1693 0052 2046     		mov	r0, r4
 1694 0054 0DF5B25D 		add	sp, sp, #5696
 1695 0058 03B0     		add	sp, sp, #12
 1696              	.LCFI29:
 1697              		.cfi_remember_state
 1698              		.cfi_def_cfa_offset 20
 1699              		@ sp needed
 1700 005a F0BD     		pop	{r4, r5, r6, r7, pc}
 1701              	.LVL225:
 1702              	.L73:
 1703              	.LCFI30:
 1704              		.cfi_restore_state
 520:D:/fchai/work/i-cube/I-CUBE-HUAWEI/Middlewares/Third_Party/Huawei/iot_link/network/dtls/mbedtls/mbedtls-2.16.2/library\pkwrite.c ****     }
 1705              		.loc 1 520 13 view .LVU542
 1706 005c 0449     		ldr	r1, .L76+8
 519:D:/fchai/work/i-cube/I-CUBE-HUAWEI/Middlewares/Third_Party/Huawei/iot_link/network/dtls/mbedtls/mbedtls-2.16.2/library\pkwrite.c ****         end = PEM_END_PRIVATE_KEY_RSA;
 1707              		.loc 1 519 15 view .LVU543
 1708 005e 0548     		ldr	r0, .L76+12
 1709 0060 EAE7     		b	.L72
 1710              	.L74:
 532:D:/fchai/work/i-cube/I-CUBE-HUAWEI/Middlewares/Third_Party/Huawei/iot_link/network/dtls/mbedtls/mbedtls-2.16.2/library\pkwrite.c **** 
 1711              		.loc 1 532 15 view .LVU544
 1712 0062 054C     		ldr	r4, .L76+16
 1713              	.LVL226:
 532:D:/fchai/work/i-cube/I-CUBE-HUAWEI/Middlewares/Third_Party/Huawei/iot_link/network/dtls/mbedtls/mbedtls-2.16.2/library\pkwrite.c **** 
 1714              		.loc 1 532 15 view .LVU545
 1715 0064 F5E7     		b	.L70
 1716              	.L77:
 1717 0066 00BF     		.align	2
 1718              	.L76:
 1719 0068 44000000 		.word	.LC4
 1720 006c 64000000 		.word	.LC5
 1721 0070 00000000 		.word	.LC2
 1722 0074 20000000 		.word	.LC3
 1723 0078 80C6FFFF 		.word	-14720
 1724              		.cfi_endproc
 1725              	.LFE20:
 1727              		.text
 1728              	.Letext0:
ARM GAS  T:\msys\tmp\cc683j1t.s 			page 49


