ARM GAS  T:\msys\tmp\cciVrjDz.s 			page 1


   1              		.cpu cortex-m4
   2              		.eabi_attribute 27, 1
   3              		.eabi_attribute 28, 1
   4              		.eabi_attribute 20, 1
   5              		.eabi_attribute 21, 1
   6              		.eabi_attribute 23, 3
   7              		.eabi_attribute 24, 1
   8              		.eabi_attribute 25, 1
   9              		.eabi_attribute 26, 1
  10              		.eabi_attribute 30, 2
  11              		.eabi_attribute 34, 1
  12              		.eabi_attribute 18, 4
  13              		.file	"platform.c"
  14              		.text
  15              	.Ltext0:
  16              		.cfi_sections	.debug_frame
  17              		.section	.text.mbedtls_calloc,"ax",%progbits
  18              		.align	1
  19              		.p2align 2,,3
  20              		.global	mbedtls_calloc
  21              		.arch armv7e-m
  22              		.syntax unified
  23              		.thumb
  24              		.thumb_func
  25              		.fpu fpv4-sp-d16
  27              	mbedtls_calloc:
  28              	.LVL0:
  29              	.LFB3:
  30              		.file 1 "D:/fchai/work/i-cube/I-CUBE-HUAWEI/Middlewares/Third_Party/Huawei/iot_link/network/dtls/m
   1:D:/fchai/work/i-cube/I-CUBE-HUAWEI/Middlewares/Third_Party/Huawei/iot_link/network/dtls/mbedtls/mbedtls-2.16.2/library\platform.c **** /*
   2:D:/fchai/work/i-cube/I-CUBE-HUAWEI/Middlewares/Third_Party/Huawei/iot_link/network/dtls/mbedtls/mbedtls-2.16.2/library\platform.c ****  *  Platform abstraction layer
   3:D:/fchai/work/i-cube/I-CUBE-HUAWEI/Middlewares/Third_Party/Huawei/iot_link/network/dtls/mbedtls/mbedtls-2.16.2/library\platform.c ****  *
   4:D:/fchai/work/i-cube/I-CUBE-HUAWEI/Middlewares/Third_Party/Huawei/iot_link/network/dtls/mbedtls/mbedtls-2.16.2/library\platform.c ****  *  Copyright (C) 2006-2016, ARM Limited, All Rights Reserved
   5:D:/fchai/work/i-cube/I-CUBE-HUAWEI/Middlewares/Third_Party/Huawei/iot_link/network/dtls/mbedtls/mbedtls-2.16.2/library\platform.c ****  *  SPDX-License-Identifier: Apache-2.0
   6:D:/fchai/work/i-cube/I-CUBE-HUAWEI/Middlewares/Third_Party/Huawei/iot_link/network/dtls/mbedtls/mbedtls-2.16.2/library\platform.c ****  *
   7:D:/fchai/work/i-cube/I-CUBE-HUAWEI/Middlewares/Third_Party/Huawei/iot_link/network/dtls/mbedtls/mbedtls-2.16.2/library\platform.c ****  *  Licensed under the Apache License, Version 2.0 (the "License"); you may
   8:D:/fchai/work/i-cube/I-CUBE-HUAWEI/Middlewares/Third_Party/Huawei/iot_link/network/dtls/mbedtls/mbedtls-2.16.2/library\platform.c ****  *  not use this file except in compliance with the License.
   9:D:/fchai/work/i-cube/I-CUBE-HUAWEI/Middlewares/Third_Party/Huawei/iot_link/network/dtls/mbedtls/mbedtls-2.16.2/library\platform.c ****  *  You may obtain a copy of the License at
  10:D:/fchai/work/i-cube/I-CUBE-HUAWEI/Middlewares/Third_Party/Huawei/iot_link/network/dtls/mbedtls/mbedtls-2.16.2/library\platform.c ****  *
  11:D:/fchai/work/i-cube/I-CUBE-HUAWEI/Middlewares/Third_Party/Huawei/iot_link/network/dtls/mbedtls/mbedtls-2.16.2/library\platform.c ****  *  http://www.apache.org/licenses/LICENSE-2.0
  12:D:/fchai/work/i-cube/I-CUBE-HUAWEI/Middlewares/Third_Party/Huawei/iot_link/network/dtls/mbedtls/mbedtls-2.16.2/library\platform.c ****  *
  13:D:/fchai/work/i-cube/I-CUBE-HUAWEI/Middlewares/Third_Party/Huawei/iot_link/network/dtls/mbedtls/mbedtls-2.16.2/library\platform.c ****  *  Unless required by applicable law or agreed to in writing, software
  14:D:/fchai/work/i-cube/I-CUBE-HUAWEI/Middlewares/Third_Party/Huawei/iot_link/network/dtls/mbedtls/mbedtls-2.16.2/library\platform.c ****  *  distributed under the License is distributed on an "AS IS" BASIS, WITHOUT
  15:D:/fchai/work/i-cube/I-CUBE-HUAWEI/Middlewares/Third_Party/Huawei/iot_link/network/dtls/mbedtls/mbedtls-2.16.2/library\platform.c ****  *  WARRANTIES OR CONDITIONS OF ANY KIND, either express or implied.
  16:D:/fchai/work/i-cube/I-CUBE-HUAWEI/Middlewares/Third_Party/Huawei/iot_link/network/dtls/mbedtls/mbedtls-2.16.2/library\platform.c ****  *  See the License for the specific language governing permissions and
  17:D:/fchai/work/i-cube/I-CUBE-HUAWEI/Middlewares/Third_Party/Huawei/iot_link/network/dtls/mbedtls/mbedtls-2.16.2/library\platform.c ****  *  limitations under the License.
  18:D:/fchai/work/i-cube/I-CUBE-HUAWEI/Middlewares/Third_Party/Huawei/iot_link/network/dtls/mbedtls/mbedtls-2.16.2/library\platform.c ****  *
  19:D:/fchai/work/i-cube/I-CUBE-HUAWEI/Middlewares/Third_Party/Huawei/iot_link/network/dtls/mbedtls/mbedtls-2.16.2/library\platform.c ****  *  This file is part of mbed TLS (https://tls.mbed.org)
  20:D:/fchai/work/i-cube/I-CUBE-HUAWEI/Middlewares/Third_Party/Huawei/iot_link/network/dtls/mbedtls/mbedtls-2.16.2/library\platform.c ****  */
  21:D:/fchai/work/i-cube/I-CUBE-HUAWEI/Middlewares/Third_Party/Huawei/iot_link/network/dtls/mbedtls/mbedtls-2.16.2/library\platform.c **** 
  22:D:/fchai/work/i-cube/I-CUBE-HUAWEI/Middlewares/Third_Party/Huawei/iot_link/network/dtls/mbedtls/mbedtls-2.16.2/library\platform.c **** #if !defined(MBEDTLS_CONFIG_FILE)
  23:D:/fchai/work/i-cube/I-CUBE-HUAWEI/Middlewares/Third_Party/Huawei/iot_link/network/dtls/mbedtls/mbedtls-2.16.2/library\platform.c **** #include "mbedtls/config.h"
  24:D:/fchai/work/i-cube/I-CUBE-HUAWEI/Middlewares/Third_Party/Huawei/iot_link/network/dtls/mbedtls/mbedtls-2.16.2/library\platform.c **** #else
  25:D:/fchai/work/i-cube/I-CUBE-HUAWEI/Middlewares/Third_Party/Huawei/iot_link/network/dtls/mbedtls/mbedtls-2.16.2/library\platform.c **** #include MBEDTLS_CONFIG_FILE
  26:D:/fchai/work/i-cube/I-CUBE-HUAWEI/Middlewares/Third_Party/Huawei/iot_link/network/dtls/mbedtls/mbedtls-2.16.2/library\platform.c **** #endif
  27:D:/fchai/work/i-cube/I-CUBE-HUAWEI/Middlewares/Third_Party/Huawei/iot_link/network/dtls/mbedtls/mbedtls-2.16.2/library\platform.c **** 
  28:D:/fchai/work/i-cube/I-CUBE-HUAWEI/Middlewares/Third_Party/Huawei/iot_link/network/dtls/mbedtls/mbedtls-2.16.2/library\platform.c **** #if defined(MBEDTLS_PLATFORM_C)
ARM GAS  T:\msys\tmp\cciVrjDz.s 			page 2


  29:D:/fchai/work/i-cube/I-CUBE-HUAWEI/Middlewares/Third_Party/Huawei/iot_link/network/dtls/mbedtls/mbedtls-2.16.2/library\platform.c **** 
  30:D:/fchai/work/i-cube/I-CUBE-HUAWEI/Middlewares/Third_Party/Huawei/iot_link/network/dtls/mbedtls/mbedtls-2.16.2/library\platform.c **** #include "mbedtls/platform.h"
  31:D:/fchai/work/i-cube/I-CUBE-HUAWEI/Middlewares/Third_Party/Huawei/iot_link/network/dtls/mbedtls/mbedtls-2.16.2/library\platform.c **** #include "mbedtls/platform_util.h"
  32:D:/fchai/work/i-cube/I-CUBE-HUAWEI/Middlewares/Third_Party/Huawei/iot_link/network/dtls/mbedtls/mbedtls-2.16.2/library\platform.c **** 
  33:D:/fchai/work/i-cube/I-CUBE-HUAWEI/Middlewares/Third_Party/Huawei/iot_link/network/dtls/mbedtls/mbedtls-2.16.2/library\platform.c **** /* The compile time configuration of memory allocation via the macros
  34:D:/fchai/work/i-cube/I-CUBE-HUAWEI/Middlewares/Third_Party/Huawei/iot_link/network/dtls/mbedtls/mbedtls-2.16.2/library\platform.c ****  * MBEDTLS_PLATFORM_{FREE/CALLOC}_MACRO takes precedence over the runtime
  35:D:/fchai/work/i-cube/I-CUBE-HUAWEI/Middlewares/Third_Party/Huawei/iot_link/network/dtls/mbedtls/mbedtls-2.16.2/library\platform.c ****  * configuration via mbedtls_platform_set_calloc_free(). So, omit everything
  36:D:/fchai/work/i-cube/I-CUBE-HUAWEI/Middlewares/Third_Party/Huawei/iot_link/network/dtls/mbedtls/mbedtls-2.16.2/library\platform.c ****  * related to the latter if MBEDTLS_PLATFORM_{FREE/CALLOC}_MACRO are defined. */
  37:D:/fchai/work/i-cube/I-CUBE-HUAWEI/Middlewares/Third_Party/Huawei/iot_link/network/dtls/mbedtls/mbedtls-2.16.2/library\platform.c **** #if defined(MBEDTLS_PLATFORM_MEMORY) &&                 \
  38:D:/fchai/work/i-cube/I-CUBE-HUAWEI/Middlewares/Third_Party/Huawei/iot_link/network/dtls/mbedtls/mbedtls-2.16.2/library\platform.c ****     !( defined(MBEDTLS_PLATFORM_CALLOC_MACRO) &&        \
  39:D:/fchai/work/i-cube/I-CUBE-HUAWEI/Middlewares/Third_Party/Huawei/iot_link/network/dtls/mbedtls/mbedtls-2.16.2/library\platform.c ****        defined(MBEDTLS_PLATFORM_FREE_MACRO) )
  40:D:/fchai/work/i-cube/I-CUBE-HUAWEI/Middlewares/Third_Party/Huawei/iot_link/network/dtls/mbedtls/mbedtls-2.16.2/library\platform.c **** 
  41:D:/fchai/work/i-cube/I-CUBE-HUAWEI/Middlewares/Third_Party/Huawei/iot_link/network/dtls/mbedtls/mbedtls-2.16.2/library\platform.c **** #if !defined(MBEDTLS_PLATFORM_STD_CALLOC)
  42:D:/fchai/work/i-cube/I-CUBE-HUAWEI/Middlewares/Third_Party/Huawei/iot_link/network/dtls/mbedtls/mbedtls-2.16.2/library\platform.c **** static void *platform_calloc_uninit( size_t n, size_t size )
  43:D:/fchai/work/i-cube/I-CUBE-HUAWEI/Middlewares/Third_Party/Huawei/iot_link/network/dtls/mbedtls/mbedtls-2.16.2/library\platform.c **** {
  44:D:/fchai/work/i-cube/I-CUBE-HUAWEI/Middlewares/Third_Party/Huawei/iot_link/network/dtls/mbedtls/mbedtls-2.16.2/library\platform.c ****     ((void) n);
  45:D:/fchai/work/i-cube/I-CUBE-HUAWEI/Middlewares/Third_Party/Huawei/iot_link/network/dtls/mbedtls/mbedtls-2.16.2/library\platform.c ****     ((void) size);
  46:D:/fchai/work/i-cube/I-CUBE-HUAWEI/Middlewares/Third_Party/Huawei/iot_link/network/dtls/mbedtls/mbedtls-2.16.2/library\platform.c ****     return( NULL );
  47:D:/fchai/work/i-cube/I-CUBE-HUAWEI/Middlewares/Third_Party/Huawei/iot_link/network/dtls/mbedtls/mbedtls-2.16.2/library\platform.c **** }
  48:D:/fchai/work/i-cube/I-CUBE-HUAWEI/Middlewares/Third_Party/Huawei/iot_link/network/dtls/mbedtls/mbedtls-2.16.2/library\platform.c **** 
  49:D:/fchai/work/i-cube/I-CUBE-HUAWEI/Middlewares/Third_Party/Huawei/iot_link/network/dtls/mbedtls/mbedtls-2.16.2/library\platform.c **** #define MBEDTLS_PLATFORM_STD_CALLOC   platform_calloc_uninit
  50:D:/fchai/work/i-cube/I-CUBE-HUAWEI/Middlewares/Third_Party/Huawei/iot_link/network/dtls/mbedtls/mbedtls-2.16.2/library\platform.c **** #endif /* !MBEDTLS_PLATFORM_STD_CALLOC */
  51:D:/fchai/work/i-cube/I-CUBE-HUAWEI/Middlewares/Third_Party/Huawei/iot_link/network/dtls/mbedtls/mbedtls-2.16.2/library\platform.c **** 
  52:D:/fchai/work/i-cube/I-CUBE-HUAWEI/Middlewares/Third_Party/Huawei/iot_link/network/dtls/mbedtls/mbedtls-2.16.2/library\platform.c **** #if !defined(MBEDTLS_PLATFORM_STD_FREE)
  53:D:/fchai/work/i-cube/I-CUBE-HUAWEI/Middlewares/Third_Party/Huawei/iot_link/network/dtls/mbedtls/mbedtls-2.16.2/library\platform.c **** static void platform_free_uninit( void *ptr )
  54:D:/fchai/work/i-cube/I-CUBE-HUAWEI/Middlewares/Third_Party/Huawei/iot_link/network/dtls/mbedtls/mbedtls-2.16.2/library\platform.c **** {
  55:D:/fchai/work/i-cube/I-CUBE-HUAWEI/Middlewares/Third_Party/Huawei/iot_link/network/dtls/mbedtls/mbedtls-2.16.2/library\platform.c ****     ((void) ptr);
  56:D:/fchai/work/i-cube/I-CUBE-HUAWEI/Middlewares/Third_Party/Huawei/iot_link/network/dtls/mbedtls/mbedtls-2.16.2/library\platform.c **** }
  57:D:/fchai/work/i-cube/I-CUBE-HUAWEI/Middlewares/Third_Party/Huawei/iot_link/network/dtls/mbedtls/mbedtls-2.16.2/library\platform.c **** 
  58:D:/fchai/work/i-cube/I-CUBE-HUAWEI/Middlewares/Third_Party/Huawei/iot_link/network/dtls/mbedtls/mbedtls-2.16.2/library\platform.c **** #define MBEDTLS_PLATFORM_STD_FREE     platform_free_uninit
  59:D:/fchai/work/i-cube/I-CUBE-HUAWEI/Middlewares/Third_Party/Huawei/iot_link/network/dtls/mbedtls/mbedtls-2.16.2/library\platform.c **** #endif /* !MBEDTLS_PLATFORM_STD_FREE */
  60:D:/fchai/work/i-cube/I-CUBE-HUAWEI/Middlewares/Third_Party/Huawei/iot_link/network/dtls/mbedtls/mbedtls-2.16.2/library\platform.c **** 
  61:D:/fchai/work/i-cube/I-CUBE-HUAWEI/Middlewares/Third_Party/Huawei/iot_link/network/dtls/mbedtls/mbedtls-2.16.2/library\platform.c **** static void * (*mbedtls_calloc_func)( size_t, size_t ) = MBEDTLS_PLATFORM_STD_CALLOC;
  62:D:/fchai/work/i-cube/I-CUBE-HUAWEI/Middlewares/Third_Party/Huawei/iot_link/network/dtls/mbedtls/mbedtls-2.16.2/library\platform.c **** static void (*mbedtls_free_func)( void * ) = MBEDTLS_PLATFORM_STD_FREE;
  63:D:/fchai/work/i-cube/I-CUBE-HUAWEI/Middlewares/Third_Party/Huawei/iot_link/network/dtls/mbedtls/mbedtls-2.16.2/library\platform.c **** 
  64:D:/fchai/work/i-cube/I-CUBE-HUAWEI/Middlewares/Third_Party/Huawei/iot_link/network/dtls/mbedtls/mbedtls-2.16.2/library\platform.c **** void * mbedtls_calloc( size_t nmemb, size_t size )
  65:D:/fchai/work/i-cube/I-CUBE-HUAWEI/Middlewares/Third_Party/Huawei/iot_link/network/dtls/mbedtls/mbedtls-2.16.2/library\platform.c **** {
  31              		.loc 1 65 1 view -0
  32              		.cfi_startproc
  33              		@ args = 0, pretend = 0, frame = 0
  34              		@ frame_needed = 0, uses_anonymous_args = 0
  35              		@ link register save eliminated.
  66:D:/fchai/work/i-cube/I-CUBE-HUAWEI/Middlewares/Third_Party/Huawei/iot_link/network/dtls/mbedtls/mbedtls-2.16.2/library\platform.c ****     return (*mbedtls_calloc_func)( nmemb, size );
  36              		.loc 1 66 5 view .LVU1
  37              		.loc 1 66 13 is_stmt 0 view .LVU2
  38 0000 014B     		ldr	r3, .L3
  39 0002 1B68     		ldr	r3, [r3]
  40 0004 1847     		bx	r3
  41              	.LVL1:
  42              	.L4:
  43              		.loc 1 66 13 view .LVU3
  44 0006 00BF     		.align	2
  45              	.L3:
  46 0008 00000000 		.word	.LANCHOR0
  47              		.cfi_endproc
  48              	.LFE3:
  50              		.section	.text.mbedtls_free,"ax",%progbits
ARM GAS  T:\msys\tmp\cciVrjDz.s 			page 3


  51              		.align	1
  52              		.p2align 2,,3
  53              		.global	mbedtls_free
  54              		.syntax unified
  55              		.thumb
  56              		.thumb_func
  57              		.fpu fpv4-sp-d16
  59              	mbedtls_free:
  60              	.LVL2:
  61              	.LFB4:
  67:D:/fchai/work/i-cube/I-CUBE-HUAWEI/Middlewares/Third_Party/Huawei/iot_link/network/dtls/mbedtls/mbedtls-2.16.2/library\platform.c **** }
  68:D:/fchai/work/i-cube/I-CUBE-HUAWEI/Middlewares/Third_Party/Huawei/iot_link/network/dtls/mbedtls/mbedtls-2.16.2/library\platform.c **** 
  69:D:/fchai/work/i-cube/I-CUBE-HUAWEI/Middlewares/Third_Party/Huawei/iot_link/network/dtls/mbedtls/mbedtls-2.16.2/library\platform.c **** void mbedtls_free( void * ptr )
  70:D:/fchai/work/i-cube/I-CUBE-HUAWEI/Middlewares/Third_Party/Huawei/iot_link/network/dtls/mbedtls/mbedtls-2.16.2/library\platform.c **** {
  62              		.loc 1 70 1 is_stmt 1 view -0
  63              		.cfi_startproc
  64              		@ args = 0, pretend = 0, frame = 0
  65              		@ frame_needed = 0, uses_anonymous_args = 0
  66              		@ link register save eliminated.
  71:D:/fchai/work/i-cube/I-CUBE-HUAWEI/Middlewares/Third_Party/Huawei/iot_link/network/dtls/mbedtls/mbedtls-2.16.2/library\platform.c ****     (*mbedtls_free_func)( ptr );
  67              		.loc 1 71 5 view .LVU5
  68              		.loc 1 71 6 is_stmt 0 view .LVU6
  69 0000 014B     		ldr	r3, .L6
  70 0002 1B68     		ldr	r3, [r3]
  71 0004 1847     		bx	r3	@ indirect register sibling call
  72              	.LVL3:
  73              	.L7:
  74              		.loc 1 71 6 view .LVU7
  75 0006 00BF     		.align	2
  76              	.L6:
  77 0008 00000000 		.word	.LANCHOR1
  78              		.cfi_endproc
  79              	.LFE4:
  81              		.section	.text.mbedtls_platform_set_calloc_free,"ax",%progbits
  82              		.align	1
  83              		.p2align 2,,3
  84              		.global	mbedtls_platform_set_calloc_free
  85              		.syntax unified
  86              		.thumb
  87              		.thumb_func
  88              		.fpu fpv4-sp-d16
  90              	mbedtls_platform_set_calloc_free:
  91              	.LVL4:
  92              	.LFB5:
  72:D:/fchai/work/i-cube/I-CUBE-HUAWEI/Middlewares/Third_Party/Huawei/iot_link/network/dtls/mbedtls/mbedtls-2.16.2/library\platform.c **** }
  73:D:/fchai/work/i-cube/I-CUBE-HUAWEI/Middlewares/Third_Party/Huawei/iot_link/network/dtls/mbedtls/mbedtls-2.16.2/library\platform.c **** 
  74:D:/fchai/work/i-cube/I-CUBE-HUAWEI/Middlewares/Third_Party/Huawei/iot_link/network/dtls/mbedtls/mbedtls-2.16.2/library\platform.c **** int mbedtls_platform_set_calloc_free( void * (*calloc_func)( size_t, size_t ),
  75:D:/fchai/work/i-cube/I-CUBE-HUAWEI/Middlewares/Third_Party/Huawei/iot_link/network/dtls/mbedtls/mbedtls-2.16.2/library\platform.c ****                               void (*free_func)( void * ) )
  76:D:/fchai/work/i-cube/I-CUBE-HUAWEI/Middlewares/Third_Party/Huawei/iot_link/network/dtls/mbedtls/mbedtls-2.16.2/library\platform.c **** {
  93              		.loc 1 76 1 is_stmt 1 view -0
  94              		.cfi_startproc
  95              		@ args = 0, pretend = 0, frame = 0
  96              		@ frame_needed = 0, uses_anonymous_args = 0
  97              		@ link register save eliminated.
  77:D:/fchai/work/i-cube/I-CUBE-HUAWEI/Middlewares/Third_Party/Huawei/iot_link/network/dtls/mbedtls/mbedtls-2.16.2/library\platform.c ****     mbedtls_calloc_func = calloc_func;
  98              		.loc 1 77 5 view .LVU9
  99              		.loc 1 77 25 is_stmt 0 view .LVU10
ARM GAS  T:\msys\tmp\cciVrjDz.s 			page 4


 100 0000 024A     		ldr	r2, .L9
  78:D:/fchai/work/i-cube/I-CUBE-HUAWEI/Middlewares/Third_Party/Huawei/iot_link/network/dtls/mbedtls/mbedtls-2.16.2/library\platform.c ****     mbedtls_free_func = free_func;
 101              		.loc 1 78 23 view .LVU11
 102 0002 034B     		ldr	r3, .L9+4
  77:D:/fchai/work/i-cube/I-CUBE-HUAWEI/Middlewares/Third_Party/Huawei/iot_link/network/dtls/mbedtls/mbedtls-2.16.2/library\platform.c ****     mbedtls_calloc_func = calloc_func;
 103              		.loc 1 77 25 view .LVU12
 104 0004 1060     		str	r0, [r2]
 105              		.loc 1 78 5 is_stmt 1 view .LVU13
 106              		.loc 1 78 23 is_stmt 0 view .LVU14
 107 0006 1960     		str	r1, [r3]
  79:D:/fchai/work/i-cube/I-CUBE-HUAWEI/Middlewares/Third_Party/Huawei/iot_link/network/dtls/mbedtls/mbedtls-2.16.2/library\platform.c ****     return( 0 );
 108              		.loc 1 79 5 is_stmt 1 view .LVU15
  80:D:/fchai/work/i-cube/I-CUBE-HUAWEI/Middlewares/Third_Party/Huawei/iot_link/network/dtls/mbedtls/mbedtls-2.16.2/library\platform.c **** }
 109              		.loc 1 80 1 is_stmt 0 view .LVU16
 110 0008 0020     		movs	r0, #0
 111              	.LVL5:
 112              		.loc 1 80 1 view .LVU17
 113 000a 7047     		bx	lr
 114              	.L10:
 115              		.align	2
 116              	.L9:
 117 000c 00000000 		.word	.LANCHOR0
 118 0010 00000000 		.word	.LANCHOR1
 119              		.cfi_endproc
 120              	.LFE5:
 122              		.section	.text.mbedtls_platform_set_snprintf,"ax",%progbits
 123              		.align	1
 124              		.p2align 2,,3
 125              		.global	mbedtls_platform_set_snprintf
 126              		.syntax unified
 127              		.thumb
 128              		.thumb_func
 129              		.fpu fpv4-sp-d16
 131              	mbedtls_platform_set_snprintf:
 132              	.LVL6:
 133              	.LFB6:
  81:D:/fchai/work/i-cube/I-CUBE-HUAWEI/Middlewares/Third_Party/Huawei/iot_link/network/dtls/mbedtls/mbedtls-2.16.2/library\platform.c **** #endif /* MBEDTLS_PLATFORM_MEMORY &&
  82:D:/fchai/work/i-cube/I-CUBE-HUAWEI/Middlewares/Third_Party/Huawei/iot_link/network/dtls/mbedtls/mbedtls-2.16.2/library\platform.c ****           !( defined(MBEDTLS_PLATFORM_CALLOC_MACRO) &&
  83:D:/fchai/work/i-cube/I-CUBE-HUAWEI/Middlewares/Third_Party/Huawei/iot_link/network/dtls/mbedtls/mbedtls-2.16.2/library\platform.c ****              defined(MBEDTLS_PLATFORM_FREE_MACRO) ) */
  84:D:/fchai/work/i-cube/I-CUBE-HUAWEI/Middlewares/Third_Party/Huawei/iot_link/network/dtls/mbedtls/mbedtls-2.16.2/library\platform.c **** 
  85:D:/fchai/work/i-cube/I-CUBE-HUAWEI/Middlewares/Third_Party/Huawei/iot_link/network/dtls/mbedtls/mbedtls-2.16.2/library\platform.c **** #if defined(_WIN32)
  86:D:/fchai/work/i-cube/I-CUBE-HUAWEI/Middlewares/Third_Party/Huawei/iot_link/network/dtls/mbedtls/mbedtls-2.16.2/library\platform.c **** #include <stdarg.h>
  87:D:/fchai/work/i-cube/I-CUBE-HUAWEI/Middlewares/Third_Party/Huawei/iot_link/network/dtls/mbedtls/mbedtls-2.16.2/library\platform.c **** int mbedtls_platform_win32_snprintf( char *s, size_t n, const char *fmt, ... )
  88:D:/fchai/work/i-cube/I-CUBE-HUAWEI/Middlewares/Third_Party/Huawei/iot_link/network/dtls/mbedtls/mbedtls-2.16.2/library\platform.c **** {
  89:D:/fchai/work/i-cube/I-CUBE-HUAWEI/Middlewares/Third_Party/Huawei/iot_link/network/dtls/mbedtls/mbedtls-2.16.2/library\platform.c ****     int ret;
  90:D:/fchai/work/i-cube/I-CUBE-HUAWEI/Middlewares/Third_Party/Huawei/iot_link/network/dtls/mbedtls/mbedtls-2.16.2/library\platform.c ****     va_list argp;
  91:D:/fchai/work/i-cube/I-CUBE-HUAWEI/Middlewares/Third_Party/Huawei/iot_link/network/dtls/mbedtls/mbedtls-2.16.2/library\platform.c **** 
  92:D:/fchai/work/i-cube/I-CUBE-HUAWEI/Middlewares/Third_Party/Huawei/iot_link/network/dtls/mbedtls/mbedtls-2.16.2/library\platform.c ****     /* Avoid calling the invalid parameter handler by checking ourselves */
  93:D:/fchai/work/i-cube/I-CUBE-HUAWEI/Middlewares/Third_Party/Huawei/iot_link/network/dtls/mbedtls/mbedtls-2.16.2/library\platform.c ****     if( s == NULL || n == 0 || fmt == NULL )
  94:D:/fchai/work/i-cube/I-CUBE-HUAWEI/Middlewares/Third_Party/Huawei/iot_link/network/dtls/mbedtls/mbedtls-2.16.2/library\platform.c ****         return( -1 );
  95:D:/fchai/work/i-cube/I-CUBE-HUAWEI/Middlewares/Third_Party/Huawei/iot_link/network/dtls/mbedtls/mbedtls-2.16.2/library\platform.c **** 
  96:D:/fchai/work/i-cube/I-CUBE-HUAWEI/Middlewares/Third_Party/Huawei/iot_link/network/dtls/mbedtls/mbedtls-2.16.2/library\platform.c ****     va_start( argp, fmt );
  97:D:/fchai/work/i-cube/I-CUBE-HUAWEI/Middlewares/Third_Party/Huawei/iot_link/network/dtls/mbedtls/mbedtls-2.16.2/library\platform.c **** #if defined(_TRUNCATE) && !defined(__MINGW32__)
  98:D:/fchai/work/i-cube/I-CUBE-HUAWEI/Middlewares/Third_Party/Huawei/iot_link/network/dtls/mbedtls/mbedtls-2.16.2/library\platform.c ****     ret = _vsnprintf_s( s, n, _TRUNCATE, fmt, argp );
  99:D:/fchai/work/i-cube/I-CUBE-HUAWEI/Middlewares/Third_Party/Huawei/iot_link/network/dtls/mbedtls/mbedtls-2.16.2/library\platform.c **** #else
 100:D:/fchai/work/i-cube/I-CUBE-HUAWEI/Middlewares/Third_Party/Huawei/iot_link/network/dtls/mbedtls/mbedtls-2.16.2/library\platform.c ****     ret = _vsnprintf( s, n, fmt, argp );
 101:D:/fchai/work/i-cube/I-CUBE-HUAWEI/Middlewares/Third_Party/Huawei/iot_link/network/dtls/mbedtls/mbedtls-2.16.2/library\platform.c ****     if( ret < 0 || (size_t) ret == n )
ARM GAS  T:\msys\tmp\cciVrjDz.s 			page 5


 102:D:/fchai/work/i-cube/I-CUBE-HUAWEI/Middlewares/Third_Party/Huawei/iot_link/network/dtls/mbedtls/mbedtls-2.16.2/library\platform.c ****     {
 103:D:/fchai/work/i-cube/I-CUBE-HUAWEI/Middlewares/Third_Party/Huawei/iot_link/network/dtls/mbedtls/mbedtls-2.16.2/library\platform.c ****         s[n-1] = '\0';
 104:D:/fchai/work/i-cube/I-CUBE-HUAWEI/Middlewares/Third_Party/Huawei/iot_link/network/dtls/mbedtls/mbedtls-2.16.2/library\platform.c ****         ret = -1;
 105:D:/fchai/work/i-cube/I-CUBE-HUAWEI/Middlewares/Third_Party/Huawei/iot_link/network/dtls/mbedtls/mbedtls-2.16.2/library\platform.c ****     }
 106:D:/fchai/work/i-cube/I-CUBE-HUAWEI/Middlewares/Third_Party/Huawei/iot_link/network/dtls/mbedtls/mbedtls-2.16.2/library\platform.c **** #endif
 107:D:/fchai/work/i-cube/I-CUBE-HUAWEI/Middlewares/Third_Party/Huawei/iot_link/network/dtls/mbedtls/mbedtls-2.16.2/library\platform.c ****     va_end( argp );
 108:D:/fchai/work/i-cube/I-CUBE-HUAWEI/Middlewares/Third_Party/Huawei/iot_link/network/dtls/mbedtls/mbedtls-2.16.2/library\platform.c **** 
 109:D:/fchai/work/i-cube/I-CUBE-HUAWEI/Middlewares/Third_Party/Huawei/iot_link/network/dtls/mbedtls/mbedtls-2.16.2/library\platform.c ****     return( ret );
 110:D:/fchai/work/i-cube/I-CUBE-HUAWEI/Middlewares/Third_Party/Huawei/iot_link/network/dtls/mbedtls/mbedtls-2.16.2/library\platform.c **** }
 111:D:/fchai/work/i-cube/I-CUBE-HUAWEI/Middlewares/Third_Party/Huawei/iot_link/network/dtls/mbedtls/mbedtls-2.16.2/library\platform.c **** #endif
 112:D:/fchai/work/i-cube/I-CUBE-HUAWEI/Middlewares/Third_Party/Huawei/iot_link/network/dtls/mbedtls/mbedtls-2.16.2/library\platform.c **** 
 113:D:/fchai/work/i-cube/I-CUBE-HUAWEI/Middlewares/Third_Party/Huawei/iot_link/network/dtls/mbedtls/mbedtls-2.16.2/library\platform.c **** #if defined(MBEDTLS_PLATFORM_SNPRINTF_ALT)
 114:D:/fchai/work/i-cube/I-CUBE-HUAWEI/Middlewares/Third_Party/Huawei/iot_link/network/dtls/mbedtls/mbedtls-2.16.2/library\platform.c **** #if !defined(MBEDTLS_PLATFORM_STD_SNPRINTF)
 115:D:/fchai/work/i-cube/I-CUBE-HUAWEI/Middlewares/Third_Party/Huawei/iot_link/network/dtls/mbedtls/mbedtls-2.16.2/library\platform.c **** /*
 116:D:/fchai/work/i-cube/I-CUBE-HUAWEI/Middlewares/Third_Party/Huawei/iot_link/network/dtls/mbedtls/mbedtls-2.16.2/library\platform.c ****  * Make dummy function to prevent NULL pointer dereferences
 117:D:/fchai/work/i-cube/I-CUBE-HUAWEI/Middlewares/Third_Party/Huawei/iot_link/network/dtls/mbedtls/mbedtls-2.16.2/library\platform.c ****  */
 118:D:/fchai/work/i-cube/I-CUBE-HUAWEI/Middlewares/Third_Party/Huawei/iot_link/network/dtls/mbedtls/mbedtls-2.16.2/library\platform.c **** static int platform_snprintf_uninit( char * s, size_t n,
 119:D:/fchai/work/i-cube/I-CUBE-HUAWEI/Middlewares/Third_Party/Huawei/iot_link/network/dtls/mbedtls/mbedtls-2.16.2/library\platform.c ****                                      const char * format, ... )
 120:D:/fchai/work/i-cube/I-CUBE-HUAWEI/Middlewares/Third_Party/Huawei/iot_link/network/dtls/mbedtls/mbedtls-2.16.2/library\platform.c **** {
 121:D:/fchai/work/i-cube/I-CUBE-HUAWEI/Middlewares/Third_Party/Huawei/iot_link/network/dtls/mbedtls/mbedtls-2.16.2/library\platform.c ****     ((void) s);
 122:D:/fchai/work/i-cube/I-CUBE-HUAWEI/Middlewares/Third_Party/Huawei/iot_link/network/dtls/mbedtls/mbedtls-2.16.2/library\platform.c ****     ((void) n);
 123:D:/fchai/work/i-cube/I-CUBE-HUAWEI/Middlewares/Third_Party/Huawei/iot_link/network/dtls/mbedtls/mbedtls-2.16.2/library\platform.c ****     ((void) format);
 124:D:/fchai/work/i-cube/I-CUBE-HUAWEI/Middlewares/Third_Party/Huawei/iot_link/network/dtls/mbedtls/mbedtls-2.16.2/library\platform.c ****     return( 0 );
 125:D:/fchai/work/i-cube/I-CUBE-HUAWEI/Middlewares/Third_Party/Huawei/iot_link/network/dtls/mbedtls/mbedtls-2.16.2/library\platform.c **** }
 126:D:/fchai/work/i-cube/I-CUBE-HUAWEI/Middlewares/Third_Party/Huawei/iot_link/network/dtls/mbedtls/mbedtls-2.16.2/library\platform.c **** 
 127:D:/fchai/work/i-cube/I-CUBE-HUAWEI/Middlewares/Third_Party/Huawei/iot_link/network/dtls/mbedtls/mbedtls-2.16.2/library\platform.c **** #define MBEDTLS_PLATFORM_STD_SNPRINTF    platform_snprintf_uninit
 128:D:/fchai/work/i-cube/I-CUBE-HUAWEI/Middlewares/Third_Party/Huawei/iot_link/network/dtls/mbedtls/mbedtls-2.16.2/library\platform.c **** #endif /* !MBEDTLS_PLATFORM_STD_SNPRINTF */
 129:D:/fchai/work/i-cube/I-CUBE-HUAWEI/Middlewares/Third_Party/Huawei/iot_link/network/dtls/mbedtls/mbedtls-2.16.2/library\platform.c **** 
 130:D:/fchai/work/i-cube/I-CUBE-HUAWEI/Middlewares/Third_Party/Huawei/iot_link/network/dtls/mbedtls/mbedtls-2.16.2/library\platform.c **** int (*mbedtls_snprintf)( char * s, size_t n,
 131:D:/fchai/work/i-cube/I-CUBE-HUAWEI/Middlewares/Third_Party/Huawei/iot_link/network/dtls/mbedtls/mbedtls-2.16.2/library\platform.c ****                           const char * format,
 132:D:/fchai/work/i-cube/I-CUBE-HUAWEI/Middlewares/Third_Party/Huawei/iot_link/network/dtls/mbedtls/mbedtls-2.16.2/library\platform.c ****                           ... ) = MBEDTLS_PLATFORM_STD_SNPRINTF;
 133:D:/fchai/work/i-cube/I-CUBE-HUAWEI/Middlewares/Third_Party/Huawei/iot_link/network/dtls/mbedtls/mbedtls-2.16.2/library\platform.c **** 
 134:D:/fchai/work/i-cube/I-CUBE-HUAWEI/Middlewares/Third_Party/Huawei/iot_link/network/dtls/mbedtls/mbedtls-2.16.2/library\platform.c **** int mbedtls_platform_set_snprintf( int (*snprintf_func)( char * s, size_t n,
 135:D:/fchai/work/i-cube/I-CUBE-HUAWEI/Middlewares/Third_Party/Huawei/iot_link/network/dtls/mbedtls/mbedtls-2.16.2/library\platform.c ****                                                  const char * format,
 136:D:/fchai/work/i-cube/I-CUBE-HUAWEI/Middlewares/Third_Party/Huawei/iot_link/network/dtls/mbedtls/mbedtls-2.16.2/library\platform.c ****                                                  ... ) )
 137:D:/fchai/work/i-cube/I-CUBE-HUAWEI/Middlewares/Third_Party/Huawei/iot_link/network/dtls/mbedtls/mbedtls-2.16.2/library\platform.c **** {
 134              		.loc 1 137 1 is_stmt 1 view -0
 135              		.cfi_startproc
 136              		@ args = 0, pretend = 0, frame = 0
 137              		@ frame_needed = 0, uses_anonymous_args = 0
 138              		@ link register save eliminated.
 138:D:/fchai/work/i-cube/I-CUBE-HUAWEI/Middlewares/Third_Party/Huawei/iot_link/network/dtls/mbedtls/mbedtls-2.16.2/library\platform.c ****     mbedtls_snprintf = snprintf_func;
 139              		.loc 1 138 5 view .LVU19
 140              		.loc 1 138 22 is_stmt 0 view .LVU20
 141 0000 014B     		ldr	r3, .L12
 142 0002 1860     		str	r0, [r3]
 139:D:/fchai/work/i-cube/I-CUBE-HUAWEI/Middlewares/Third_Party/Huawei/iot_link/network/dtls/mbedtls/mbedtls-2.16.2/library\platform.c ****     return( 0 );
 143              		.loc 1 139 5 is_stmt 1 view .LVU21
 140:D:/fchai/work/i-cube/I-CUBE-HUAWEI/Middlewares/Third_Party/Huawei/iot_link/network/dtls/mbedtls/mbedtls-2.16.2/library\platform.c **** }
 144              		.loc 1 140 1 is_stmt 0 view .LVU22
 145 0004 0020     		movs	r0, #0
 146              	.LVL7:
 147              		.loc 1 140 1 view .LVU23
 148 0006 7047     		bx	lr
 149              	.L13:
 150              		.align	2
 151              	.L12:
ARM GAS  T:\msys\tmp\cciVrjDz.s 			page 6


 152 0008 00000000 		.word	.LANCHOR2
 153              		.cfi_endproc
 154              	.LFE6:
 156              		.section	.text.mbedtls_platform_set_printf,"ax",%progbits
 157              		.align	1
 158              		.p2align 2,,3
 159              		.global	mbedtls_platform_set_printf
 160              		.syntax unified
 161              		.thumb
 162              		.thumb_func
 163              		.fpu fpv4-sp-d16
 165              	mbedtls_platform_set_printf:
 166              	.LVL8:
 167              	.LFB7:
 141:D:/fchai/work/i-cube/I-CUBE-HUAWEI/Middlewares/Third_Party/Huawei/iot_link/network/dtls/mbedtls/mbedtls-2.16.2/library\platform.c **** #endif /* MBEDTLS_PLATFORM_SNPRINTF_ALT */
 142:D:/fchai/work/i-cube/I-CUBE-HUAWEI/Middlewares/Third_Party/Huawei/iot_link/network/dtls/mbedtls/mbedtls-2.16.2/library\platform.c **** 
 143:D:/fchai/work/i-cube/I-CUBE-HUAWEI/Middlewares/Third_Party/Huawei/iot_link/network/dtls/mbedtls/mbedtls-2.16.2/library\platform.c **** #if defined(MBEDTLS_PLATFORM_PRINTF_ALT)
 144:D:/fchai/work/i-cube/I-CUBE-HUAWEI/Middlewares/Third_Party/Huawei/iot_link/network/dtls/mbedtls/mbedtls-2.16.2/library\platform.c **** #if !defined(MBEDTLS_PLATFORM_STD_PRINTF)
 145:D:/fchai/work/i-cube/I-CUBE-HUAWEI/Middlewares/Third_Party/Huawei/iot_link/network/dtls/mbedtls/mbedtls-2.16.2/library\platform.c **** /*
 146:D:/fchai/work/i-cube/I-CUBE-HUAWEI/Middlewares/Third_Party/Huawei/iot_link/network/dtls/mbedtls/mbedtls-2.16.2/library\platform.c ****  * Make dummy function to prevent NULL pointer dereferences
 147:D:/fchai/work/i-cube/I-CUBE-HUAWEI/Middlewares/Third_Party/Huawei/iot_link/network/dtls/mbedtls/mbedtls-2.16.2/library\platform.c ****  */
 148:D:/fchai/work/i-cube/I-CUBE-HUAWEI/Middlewares/Third_Party/Huawei/iot_link/network/dtls/mbedtls/mbedtls-2.16.2/library\platform.c **** static int platform_printf_uninit( const char *format, ... )
 149:D:/fchai/work/i-cube/I-CUBE-HUAWEI/Middlewares/Third_Party/Huawei/iot_link/network/dtls/mbedtls/mbedtls-2.16.2/library\platform.c **** {
 150:D:/fchai/work/i-cube/I-CUBE-HUAWEI/Middlewares/Third_Party/Huawei/iot_link/network/dtls/mbedtls/mbedtls-2.16.2/library\platform.c ****     ((void) format);
 151:D:/fchai/work/i-cube/I-CUBE-HUAWEI/Middlewares/Third_Party/Huawei/iot_link/network/dtls/mbedtls/mbedtls-2.16.2/library\platform.c ****     return( 0 );
 152:D:/fchai/work/i-cube/I-CUBE-HUAWEI/Middlewares/Third_Party/Huawei/iot_link/network/dtls/mbedtls/mbedtls-2.16.2/library\platform.c **** }
 153:D:/fchai/work/i-cube/I-CUBE-HUAWEI/Middlewares/Third_Party/Huawei/iot_link/network/dtls/mbedtls/mbedtls-2.16.2/library\platform.c **** 
 154:D:/fchai/work/i-cube/I-CUBE-HUAWEI/Middlewares/Third_Party/Huawei/iot_link/network/dtls/mbedtls/mbedtls-2.16.2/library\platform.c **** #define MBEDTLS_PLATFORM_STD_PRINTF    platform_printf_uninit
 155:D:/fchai/work/i-cube/I-CUBE-HUAWEI/Middlewares/Third_Party/Huawei/iot_link/network/dtls/mbedtls/mbedtls-2.16.2/library\platform.c **** #endif /* !MBEDTLS_PLATFORM_STD_PRINTF */
 156:D:/fchai/work/i-cube/I-CUBE-HUAWEI/Middlewares/Third_Party/Huawei/iot_link/network/dtls/mbedtls/mbedtls-2.16.2/library\platform.c **** 
 157:D:/fchai/work/i-cube/I-CUBE-HUAWEI/Middlewares/Third_Party/Huawei/iot_link/network/dtls/mbedtls/mbedtls-2.16.2/library\platform.c **** int (*mbedtls_printf)( const char *, ... ) = MBEDTLS_PLATFORM_STD_PRINTF;
 158:D:/fchai/work/i-cube/I-CUBE-HUAWEI/Middlewares/Third_Party/Huawei/iot_link/network/dtls/mbedtls/mbedtls-2.16.2/library\platform.c **** 
 159:D:/fchai/work/i-cube/I-CUBE-HUAWEI/Middlewares/Third_Party/Huawei/iot_link/network/dtls/mbedtls/mbedtls-2.16.2/library\platform.c **** int mbedtls_platform_set_printf( int (*printf_func)( const char *, ... ) )
 160:D:/fchai/work/i-cube/I-CUBE-HUAWEI/Middlewares/Third_Party/Huawei/iot_link/network/dtls/mbedtls/mbedtls-2.16.2/library\platform.c **** {
 168              		.loc 1 160 1 is_stmt 1 view -0
 169              		.cfi_startproc
 170              		@ args = 0, pretend = 0, frame = 0
 171              		@ frame_needed = 0, uses_anonymous_args = 0
 172              		@ link register save eliminated.
 161:D:/fchai/work/i-cube/I-CUBE-HUAWEI/Middlewares/Third_Party/Huawei/iot_link/network/dtls/mbedtls/mbedtls-2.16.2/library\platform.c ****     mbedtls_printf = printf_func;
 173              		.loc 1 161 5 view .LVU25
 174              		.loc 1 161 20 is_stmt 0 view .LVU26
 175 0000 014B     		ldr	r3, .L15
 176 0002 1860     		str	r0, [r3]
 162:D:/fchai/work/i-cube/I-CUBE-HUAWEI/Middlewares/Third_Party/Huawei/iot_link/network/dtls/mbedtls/mbedtls-2.16.2/library\platform.c ****     return( 0 );
 177              		.loc 1 162 5 is_stmt 1 view .LVU27
 163:D:/fchai/work/i-cube/I-CUBE-HUAWEI/Middlewares/Third_Party/Huawei/iot_link/network/dtls/mbedtls/mbedtls-2.16.2/library\platform.c **** }
 178              		.loc 1 163 1 is_stmt 0 view .LVU28
 179 0004 0020     		movs	r0, #0
 180              	.LVL9:
 181              		.loc 1 163 1 view .LVU29
 182 0006 7047     		bx	lr
 183              	.L16:
 184              		.align	2
 185              	.L15:
 186 0008 00000000 		.word	.LANCHOR3
 187              		.cfi_endproc
ARM GAS  T:\msys\tmp\cciVrjDz.s 			page 7


 188              	.LFE7:
 190              		.section	.text.mbedtls_platform_setup,"ax",%progbits
 191              		.align	1
 192              		.p2align 2,,3
 193              		.global	mbedtls_platform_setup
 194              		.syntax unified
 195              		.thumb
 196              		.thumb_func
 197              		.fpu fpv4-sp-d16
 199              	mbedtls_platform_setup:
 200              	.LVL10:
 201              	.LFB8:
 164:D:/fchai/work/i-cube/I-CUBE-HUAWEI/Middlewares/Third_Party/Huawei/iot_link/network/dtls/mbedtls/mbedtls-2.16.2/library\platform.c **** #endif /* MBEDTLS_PLATFORM_PRINTF_ALT */
 165:D:/fchai/work/i-cube/I-CUBE-HUAWEI/Middlewares/Third_Party/Huawei/iot_link/network/dtls/mbedtls/mbedtls-2.16.2/library\platform.c **** 
 166:D:/fchai/work/i-cube/I-CUBE-HUAWEI/Middlewares/Third_Party/Huawei/iot_link/network/dtls/mbedtls/mbedtls-2.16.2/library\platform.c **** #if defined(MBEDTLS_PLATFORM_FPRINTF_ALT)
 167:D:/fchai/work/i-cube/I-CUBE-HUAWEI/Middlewares/Third_Party/Huawei/iot_link/network/dtls/mbedtls/mbedtls-2.16.2/library\platform.c **** #if !defined(MBEDTLS_PLATFORM_STD_FPRINTF)
 168:D:/fchai/work/i-cube/I-CUBE-HUAWEI/Middlewares/Third_Party/Huawei/iot_link/network/dtls/mbedtls/mbedtls-2.16.2/library\platform.c **** /*
 169:D:/fchai/work/i-cube/I-CUBE-HUAWEI/Middlewares/Third_Party/Huawei/iot_link/network/dtls/mbedtls/mbedtls-2.16.2/library\platform.c ****  * Make dummy function to prevent NULL pointer dereferences
 170:D:/fchai/work/i-cube/I-CUBE-HUAWEI/Middlewares/Third_Party/Huawei/iot_link/network/dtls/mbedtls/mbedtls-2.16.2/library\platform.c ****  */
 171:D:/fchai/work/i-cube/I-CUBE-HUAWEI/Middlewares/Third_Party/Huawei/iot_link/network/dtls/mbedtls/mbedtls-2.16.2/library\platform.c **** static int platform_fprintf_uninit( FILE *stream, const char *format, ... )
 172:D:/fchai/work/i-cube/I-CUBE-HUAWEI/Middlewares/Third_Party/Huawei/iot_link/network/dtls/mbedtls/mbedtls-2.16.2/library\platform.c **** {
 173:D:/fchai/work/i-cube/I-CUBE-HUAWEI/Middlewares/Third_Party/Huawei/iot_link/network/dtls/mbedtls/mbedtls-2.16.2/library\platform.c ****     ((void) stream);
 174:D:/fchai/work/i-cube/I-CUBE-HUAWEI/Middlewares/Third_Party/Huawei/iot_link/network/dtls/mbedtls/mbedtls-2.16.2/library\platform.c ****     ((void) format);
 175:D:/fchai/work/i-cube/I-CUBE-HUAWEI/Middlewares/Third_Party/Huawei/iot_link/network/dtls/mbedtls/mbedtls-2.16.2/library\platform.c ****     return( 0 );
 176:D:/fchai/work/i-cube/I-CUBE-HUAWEI/Middlewares/Third_Party/Huawei/iot_link/network/dtls/mbedtls/mbedtls-2.16.2/library\platform.c **** }
 177:D:/fchai/work/i-cube/I-CUBE-HUAWEI/Middlewares/Third_Party/Huawei/iot_link/network/dtls/mbedtls/mbedtls-2.16.2/library\platform.c **** 
 178:D:/fchai/work/i-cube/I-CUBE-HUAWEI/Middlewares/Third_Party/Huawei/iot_link/network/dtls/mbedtls/mbedtls-2.16.2/library\platform.c **** #define MBEDTLS_PLATFORM_STD_FPRINTF   platform_fprintf_uninit
 179:D:/fchai/work/i-cube/I-CUBE-HUAWEI/Middlewares/Third_Party/Huawei/iot_link/network/dtls/mbedtls/mbedtls-2.16.2/library\platform.c **** #endif /* !MBEDTLS_PLATFORM_STD_FPRINTF */
 180:D:/fchai/work/i-cube/I-CUBE-HUAWEI/Middlewares/Third_Party/Huawei/iot_link/network/dtls/mbedtls/mbedtls-2.16.2/library\platform.c **** 
 181:D:/fchai/work/i-cube/I-CUBE-HUAWEI/Middlewares/Third_Party/Huawei/iot_link/network/dtls/mbedtls/mbedtls-2.16.2/library\platform.c **** int (*mbedtls_fprintf)( FILE *, const char *, ... ) =
 182:D:/fchai/work/i-cube/I-CUBE-HUAWEI/Middlewares/Third_Party/Huawei/iot_link/network/dtls/mbedtls/mbedtls-2.16.2/library\platform.c ****                                         MBEDTLS_PLATFORM_STD_FPRINTF;
 183:D:/fchai/work/i-cube/I-CUBE-HUAWEI/Middlewares/Third_Party/Huawei/iot_link/network/dtls/mbedtls/mbedtls-2.16.2/library\platform.c **** 
 184:D:/fchai/work/i-cube/I-CUBE-HUAWEI/Middlewares/Third_Party/Huawei/iot_link/network/dtls/mbedtls/mbedtls-2.16.2/library\platform.c **** int mbedtls_platform_set_fprintf( int (*fprintf_func)( FILE *, const char *, ... ) )
 185:D:/fchai/work/i-cube/I-CUBE-HUAWEI/Middlewares/Third_Party/Huawei/iot_link/network/dtls/mbedtls/mbedtls-2.16.2/library\platform.c **** {
 186:D:/fchai/work/i-cube/I-CUBE-HUAWEI/Middlewares/Third_Party/Huawei/iot_link/network/dtls/mbedtls/mbedtls-2.16.2/library\platform.c ****     mbedtls_fprintf = fprintf_func;
 187:D:/fchai/work/i-cube/I-CUBE-HUAWEI/Middlewares/Third_Party/Huawei/iot_link/network/dtls/mbedtls/mbedtls-2.16.2/library\platform.c ****     return( 0 );
 188:D:/fchai/work/i-cube/I-CUBE-HUAWEI/Middlewares/Third_Party/Huawei/iot_link/network/dtls/mbedtls/mbedtls-2.16.2/library\platform.c **** }
 189:D:/fchai/work/i-cube/I-CUBE-HUAWEI/Middlewares/Third_Party/Huawei/iot_link/network/dtls/mbedtls/mbedtls-2.16.2/library\platform.c **** #endif /* MBEDTLS_PLATFORM_FPRINTF_ALT */
 190:D:/fchai/work/i-cube/I-CUBE-HUAWEI/Middlewares/Third_Party/Huawei/iot_link/network/dtls/mbedtls/mbedtls-2.16.2/library\platform.c **** 
 191:D:/fchai/work/i-cube/I-CUBE-HUAWEI/Middlewares/Third_Party/Huawei/iot_link/network/dtls/mbedtls/mbedtls-2.16.2/library\platform.c **** #if defined(MBEDTLS_PLATFORM_EXIT_ALT)
 192:D:/fchai/work/i-cube/I-CUBE-HUAWEI/Middlewares/Third_Party/Huawei/iot_link/network/dtls/mbedtls/mbedtls-2.16.2/library\platform.c **** #if !defined(MBEDTLS_PLATFORM_STD_EXIT)
 193:D:/fchai/work/i-cube/I-CUBE-HUAWEI/Middlewares/Third_Party/Huawei/iot_link/network/dtls/mbedtls/mbedtls-2.16.2/library\platform.c **** /*
 194:D:/fchai/work/i-cube/I-CUBE-HUAWEI/Middlewares/Third_Party/Huawei/iot_link/network/dtls/mbedtls/mbedtls-2.16.2/library\platform.c ****  * Make dummy function to prevent NULL pointer dereferences
 195:D:/fchai/work/i-cube/I-CUBE-HUAWEI/Middlewares/Third_Party/Huawei/iot_link/network/dtls/mbedtls/mbedtls-2.16.2/library\platform.c ****  */
 196:D:/fchai/work/i-cube/I-CUBE-HUAWEI/Middlewares/Third_Party/Huawei/iot_link/network/dtls/mbedtls/mbedtls-2.16.2/library\platform.c **** static void platform_exit_uninit( int status )
 197:D:/fchai/work/i-cube/I-CUBE-HUAWEI/Middlewares/Third_Party/Huawei/iot_link/network/dtls/mbedtls/mbedtls-2.16.2/library\platform.c **** {
 198:D:/fchai/work/i-cube/I-CUBE-HUAWEI/Middlewares/Third_Party/Huawei/iot_link/network/dtls/mbedtls/mbedtls-2.16.2/library\platform.c ****     ((void) status);
 199:D:/fchai/work/i-cube/I-CUBE-HUAWEI/Middlewares/Third_Party/Huawei/iot_link/network/dtls/mbedtls/mbedtls-2.16.2/library\platform.c **** }
 200:D:/fchai/work/i-cube/I-CUBE-HUAWEI/Middlewares/Third_Party/Huawei/iot_link/network/dtls/mbedtls/mbedtls-2.16.2/library\platform.c **** 
 201:D:/fchai/work/i-cube/I-CUBE-HUAWEI/Middlewares/Third_Party/Huawei/iot_link/network/dtls/mbedtls/mbedtls-2.16.2/library\platform.c **** #define MBEDTLS_PLATFORM_STD_EXIT   platform_exit_uninit
 202:D:/fchai/work/i-cube/I-CUBE-HUAWEI/Middlewares/Third_Party/Huawei/iot_link/network/dtls/mbedtls/mbedtls-2.16.2/library\platform.c **** #endif /* !MBEDTLS_PLATFORM_STD_EXIT */
 203:D:/fchai/work/i-cube/I-CUBE-HUAWEI/Middlewares/Third_Party/Huawei/iot_link/network/dtls/mbedtls/mbedtls-2.16.2/library\platform.c **** 
 204:D:/fchai/work/i-cube/I-CUBE-HUAWEI/Middlewares/Third_Party/Huawei/iot_link/network/dtls/mbedtls/mbedtls-2.16.2/library\platform.c **** void (*mbedtls_exit)( int status ) = MBEDTLS_PLATFORM_STD_EXIT;
 205:D:/fchai/work/i-cube/I-CUBE-HUAWEI/Middlewares/Third_Party/Huawei/iot_link/network/dtls/mbedtls/mbedtls-2.16.2/library\platform.c **** 
 206:D:/fchai/work/i-cube/I-CUBE-HUAWEI/Middlewares/Third_Party/Huawei/iot_link/network/dtls/mbedtls/mbedtls-2.16.2/library\platform.c **** int mbedtls_platform_set_exit( void (*exit_func)( int status ) )
 207:D:/fchai/work/i-cube/I-CUBE-HUAWEI/Middlewares/Third_Party/Huawei/iot_link/network/dtls/mbedtls/mbedtls-2.16.2/library\platform.c **** {
 208:D:/fchai/work/i-cube/I-CUBE-HUAWEI/Middlewares/Third_Party/Huawei/iot_link/network/dtls/mbedtls/mbedtls-2.16.2/library\platform.c ****     mbedtls_exit = exit_func;
ARM GAS  T:\msys\tmp\cciVrjDz.s 			page 8


 209:D:/fchai/work/i-cube/I-CUBE-HUAWEI/Middlewares/Third_Party/Huawei/iot_link/network/dtls/mbedtls/mbedtls-2.16.2/library\platform.c ****     return( 0 );
 210:D:/fchai/work/i-cube/I-CUBE-HUAWEI/Middlewares/Third_Party/Huawei/iot_link/network/dtls/mbedtls/mbedtls-2.16.2/library\platform.c **** }
 211:D:/fchai/work/i-cube/I-CUBE-HUAWEI/Middlewares/Third_Party/Huawei/iot_link/network/dtls/mbedtls/mbedtls-2.16.2/library\platform.c **** #endif /* MBEDTLS_PLATFORM_EXIT_ALT */
 212:D:/fchai/work/i-cube/I-CUBE-HUAWEI/Middlewares/Third_Party/Huawei/iot_link/network/dtls/mbedtls/mbedtls-2.16.2/library\platform.c **** 
 213:D:/fchai/work/i-cube/I-CUBE-HUAWEI/Middlewares/Third_Party/Huawei/iot_link/network/dtls/mbedtls/mbedtls-2.16.2/library\platform.c **** #if defined(MBEDTLS_HAVE_TIME)
 214:D:/fchai/work/i-cube/I-CUBE-HUAWEI/Middlewares/Third_Party/Huawei/iot_link/network/dtls/mbedtls/mbedtls-2.16.2/library\platform.c **** 
 215:D:/fchai/work/i-cube/I-CUBE-HUAWEI/Middlewares/Third_Party/Huawei/iot_link/network/dtls/mbedtls/mbedtls-2.16.2/library\platform.c **** #if defined(MBEDTLS_PLATFORM_TIME_ALT)
 216:D:/fchai/work/i-cube/I-CUBE-HUAWEI/Middlewares/Third_Party/Huawei/iot_link/network/dtls/mbedtls/mbedtls-2.16.2/library\platform.c **** #if !defined(MBEDTLS_PLATFORM_STD_TIME)
 217:D:/fchai/work/i-cube/I-CUBE-HUAWEI/Middlewares/Third_Party/Huawei/iot_link/network/dtls/mbedtls/mbedtls-2.16.2/library\platform.c **** /*
 218:D:/fchai/work/i-cube/I-CUBE-HUAWEI/Middlewares/Third_Party/Huawei/iot_link/network/dtls/mbedtls/mbedtls-2.16.2/library\platform.c ****  * Make dummy function to prevent NULL pointer dereferences
 219:D:/fchai/work/i-cube/I-CUBE-HUAWEI/Middlewares/Third_Party/Huawei/iot_link/network/dtls/mbedtls/mbedtls-2.16.2/library\platform.c ****  */
 220:D:/fchai/work/i-cube/I-CUBE-HUAWEI/Middlewares/Third_Party/Huawei/iot_link/network/dtls/mbedtls/mbedtls-2.16.2/library\platform.c **** static mbedtls_time_t platform_time_uninit( mbedtls_time_t* timer )
 221:D:/fchai/work/i-cube/I-CUBE-HUAWEI/Middlewares/Third_Party/Huawei/iot_link/network/dtls/mbedtls/mbedtls-2.16.2/library\platform.c **** {
 222:D:/fchai/work/i-cube/I-CUBE-HUAWEI/Middlewares/Third_Party/Huawei/iot_link/network/dtls/mbedtls/mbedtls-2.16.2/library\platform.c ****     ((void) timer);
 223:D:/fchai/work/i-cube/I-CUBE-HUAWEI/Middlewares/Third_Party/Huawei/iot_link/network/dtls/mbedtls/mbedtls-2.16.2/library\platform.c ****     return( 0 );
 224:D:/fchai/work/i-cube/I-CUBE-HUAWEI/Middlewares/Third_Party/Huawei/iot_link/network/dtls/mbedtls/mbedtls-2.16.2/library\platform.c **** }
 225:D:/fchai/work/i-cube/I-CUBE-HUAWEI/Middlewares/Third_Party/Huawei/iot_link/network/dtls/mbedtls/mbedtls-2.16.2/library\platform.c **** 
 226:D:/fchai/work/i-cube/I-CUBE-HUAWEI/Middlewares/Third_Party/Huawei/iot_link/network/dtls/mbedtls/mbedtls-2.16.2/library\platform.c **** #define MBEDTLS_PLATFORM_STD_TIME   platform_time_uninit
 227:D:/fchai/work/i-cube/I-CUBE-HUAWEI/Middlewares/Third_Party/Huawei/iot_link/network/dtls/mbedtls/mbedtls-2.16.2/library\platform.c **** #endif /* !MBEDTLS_PLATFORM_STD_TIME */
 228:D:/fchai/work/i-cube/I-CUBE-HUAWEI/Middlewares/Third_Party/Huawei/iot_link/network/dtls/mbedtls/mbedtls-2.16.2/library\platform.c **** 
 229:D:/fchai/work/i-cube/I-CUBE-HUAWEI/Middlewares/Third_Party/Huawei/iot_link/network/dtls/mbedtls/mbedtls-2.16.2/library\platform.c **** mbedtls_time_t (*mbedtls_time)( mbedtls_time_t* timer ) = MBEDTLS_PLATFORM_STD_TIME;
 230:D:/fchai/work/i-cube/I-CUBE-HUAWEI/Middlewares/Third_Party/Huawei/iot_link/network/dtls/mbedtls/mbedtls-2.16.2/library\platform.c **** 
 231:D:/fchai/work/i-cube/I-CUBE-HUAWEI/Middlewares/Third_Party/Huawei/iot_link/network/dtls/mbedtls/mbedtls-2.16.2/library\platform.c **** int mbedtls_platform_set_time( mbedtls_time_t (*time_func)( mbedtls_time_t* timer ) )
 232:D:/fchai/work/i-cube/I-CUBE-HUAWEI/Middlewares/Third_Party/Huawei/iot_link/network/dtls/mbedtls/mbedtls-2.16.2/library\platform.c **** {
 233:D:/fchai/work/i-cube/I-CUBE-HUAWEI/Middlewares/Third_Party/Huawei/iot_link/network/dtls/mbedtls/mbedtls-2.16.2/library\platform.c ****     mbedtls_time = time_func;
 234:D:/fchai/work/i-cube/I-CUBE-HUAWEI/Middlewares/Third_Party/Huawei/iot_link/network/dtls/mbedtls/mbedtls-2.16.2/library\platform.c ****     return( 0 );
 235:D:/fchai/work/i-cube/I-CUBE-HUAWEI/Middlewares/Third_Party/Huawei/iot_link/network/dtls/mbedtls/mbedtls-2.16.2/library\platform.c **** }
 236:D:/fchai/work/i-cube/I-CUBE-HUAWEI/Middlewares/Third_Party/Huawei/iot_link/network/dtls/mbedtls/mbedtls-2.16.2/library\platform.c **** #endif /* MBEDTLS_PLATFORM_TIME_ALT */
 237:D:/fchai/work/i-cube/I-CUBE-HUAWEI/Middlewares/Third_Party/Huawei/iot_link/network/dtls/mbedtls/mbedtls-2.16.2/library\platform.c **** 
 238:D:/fchai/work/i-cube/I-CUBE-HUAWEI/Middlewares/Third_Party/Huawei/iot_link/network/dtls/mbedtls/mbedtls-2.16.2/library\platform.c **** #endif /* MBEDTLS_HAVE_TIME */
 239:D:/fchai/work/i-cube/I-CUBE-HUAWEI/Middlewares/Third_Party/Huawei/iot_link/network/dtls/mbedtls/mbedtls-2.16.2/library\platform.c **** 
 240:D:/fchai/work/i-cube/I-CUBE-HUAWEI/Middlewares/Third_Party/Huawei/iot_link/network/dtls/mbedtls/mbedtls-2.16.2/library\platform.c **** #if defined(MBEDTLS_ENTROPY_NV_SEED)
 241:D:/fchai/work/i-cube/I-CUBE-HUAWEI/Middlewares/Third_Party/Huawei/iot_link/network/dtls/mbedtls/mbedtls-2.16.2/library\platform.c **** #if !defined(MBEDTLS_PLATFORM_NO_STD_FUNCTIONS) && defined(MBEDTLS_FS_IO)
 242:D:/fchai/work/i-cube/I-CUBE-HUAWEI/Middlewares/Third_Party/Huawei/iot_link/network/dtls/mbedtls/mbedtls-2.16.2/library\platform.c **** /* Default implementations for the platform independent seed functions use
 243:D:/fchai/work/i-cube/I-CUBE-HUAWEI/Middlewares/Third_Party/Huawei/iot_link/network/dtls/mbedtls/mbedtls-2.16.2/library\platform.c ****  * standard libc file functions to read from and write to a pre-defined filename
 244:D:/fchai/work/i-cube/I-CUBE-HUAWEI/Middlewares/Third_Party/Huawei/iot_link/network/dtls/mbedtls/mbedtls-2.16.2/library\platform.c ****  */
 245:D:/fchai/work/i-cube/I-CUBE-HUAWEI/Middlewares/Third_Party/Huawei/iot_link/network/dtls/mbedtls/mbedtls-2.16.2/library\platform.c **** int mbedtls_platform_std_nv_seed_read( unsigned char *buf, size_t buf_len )
 246:D:/fchai/work/i-cube/I-CUBE-HUAWEI/Middlewares/Third_Party/Huawei/iot_link/network/dtls/mbedtls/mbedtls-2.16.2/library\platform.c **** {
 247:D:/fchai/work/i-cube/I-CUBE-HUAWEI/Middlewares/Third_Party/Huawei/iot_link/network/dtls/mbedtls/mbedtls-2.16.2/library\platform.c ****     FILE *file;
 248:D:/fchai/work/i-cube/I-CUBE-HUAWEI/Middlewares/Third_Party/Huawei/iot_link/network/dtls/mbedtls/mbedtls-2.16.2/library\platform.c ****     size_t n;
 249:D:/fchai/work/i-cube/I-CUBE-HUAWEI/Middlewares/Third_Party/Huawei/iot_link/network/dtls/mbedtls/mbedtls-2.16.2/library\platform.c **** 
 250:D:/fchai/work/i-cube/I-CUBE-HUAWEI/Middlewares/Third_Party/Huawei/iot_link/network/dtls/mbedtls/mbedtls-2.16.2/library\platform.c ****     if( ( file = fopen( MBEDTLS_PLATFORM_STD_NV_SEED_FILE, "rb" ) ) == NULL )
 251:D:/fchai/work/i-cube/I-CUBE-HUAWEI/Middlewares/Third_Party/Huawei/iot_link/network/dtls/mbedtls/mbedtls-2.16.2/library\platform.c ****         return( -1 );
 252:D:/fchai/work/i-cube/I-CUBE-HUAWEI/Middlewares/Third_Party/Huawei/iot_link/network/dtls/mbedtls/mbedtls-2.16.2/library\platform.c **** 
 253:D:/fchai/work/i-cube/I-CUBE-HUAWEI/Middlewares/Third_Party/Huawei/iot_link/network/dtls/mbedtls/mbedtls-2.16.2/library\platform.c ****     if( ( n = fread( buf, 1, buf_len, file ) ) != buf_len )
 254:D:/fchai/work/i-cube/I-CUBE-HUAWEI/Middlewares/Third_Party/Huawei/iot_link/network/dtls/mbedtls/mbedtls-2.16.2/library\platform.c ****     {
 255:D:/fchai/work/i-cube/I-CUBE-HUAWEI/Middlewares/Third_Party/Huawei/iot_link/network/dtls/mbedtls/mbedtls-2.16.2/library\platform.c ****         fclose( file );
 256:D:/fchai/work/i-cube/I-CUBE-HUAWEI/Middlewares/Third_Party/Huawei/iot_link/network/dtls/mbedtls/mbedtls-2.16.2/library\platform.c ****         mbedtls_platform_zeroize( buf, buf_len );
 257:D:/fchai/work/i-cube/I-CUBE-HUAWEI/Middlewares/Third_Party/Huawei/iot_link/network/dtls/mbedtls/mbedtls-2.16.2/library\platform.c ****         return( -1 );
 258:D:/fchai/work/i-cube/I-CUBE-HUAWEI/Middlewares/Third_Party/Huawei/iot_link/network/dtls/mbedtls/mbedtls-2.16.2/library\platform.c ****     }
 259:D:/fchai/work/i-cube/I-CUBE-HUAWEI/Middlewares/Third_Party/Huawei/iot_link/network/dtls/mbedtls/mbedtls-2.16.2/library\platform.c **** 
 260:D:/fchai/work/i-cube/I-CUBE-HUAWEI/Middlewares/Third_Party/Huawei/iot_link/network/dtls/mbedtls/mbedtls-2.16.2/library\platform.c ****     fclose( file );
 261:D:/fchai/work/i-cube/I-CUBE-HUAWEI/Middlewares/Third_Party/Huawei/iot_link/network/dtls/mbedtls/mbedtls-2.16.2/library\platform.c ****     return( (int)n );
 262:D:/fchai/work/i-cube/I-CUBE-HUAWEI/Middlewares/Third_Party/Huawei/iot_link/network/dtls/mbedtls/mbedtls-2.16.2/library\platform.c **** }
 263:D:/fchai/work/i-cube/I-CUBE-HUAWEI/Middlewares/Third_Party/Huawei/iot_link/network/dtls/mbedtls/mbedtls-2.16.2/library\platform.c **** 
 264:D:/fchai/work/i-cube/I-CUBE-HUAWEI/Middlewares/Third_Party/Huawei/iot_link/network/dtls/mbedtls/mbedtls-2.16.2/library\platform.c **** int mbedtls_platform_std_nv_seed_write( unsigned char *buf, size_t buf_len )
 265:D:/fchai/work/i-cube/I-CUBE-HUAWEI/Middlewares/Third_Party/Huawei/iot_link/network/dtls/mbedtls/mbedtls-2.16.2/library\platform.c **** {
ARM GAS  T:\msys\tmp\cciVrjDz.s 			page 9


 266:D:/fchai/work/i-cube/I-CUBE-HUAWEI/Middlewares/Third_Party/Huawei/iot_link/network/dtls/mbedtls/mbedtls-2.16.2/library\platform.c ****     FILE *file;
 267:D:/fchai/work/i-cube/I-CUBE-HUAWEI/Middlewares/Third_Party/Huawei/iot_link/network/dtls/mbedtls/mbedtls-2.16.2/library\platform.c ****     size_t n;
 268:D:/fchai/work/i-cube/I-CUBE-HUAWEI/Middlewares/Third_Party/Huawei/iot_link/network/dtls/mbedtls/mbedtls-2.16.2/library\platform.c **** 
 269:D:/fchai/work/i-cube/I-CUBE-HUAWEI/Middlewares/Third_Party/Huawei/iot_link/network/dtls/mbedtls/mbedtls-2.16.2/library\platform.c ****     if( ( file = fopen( MBEDTLS_PLATFORM_STD_NV_SEED_FILE, "w" ) ) == NULL )
 270:D:/fchai/work/i-cube/I-CUBE-HUAWEI/Middlewares/Third_Party/Huawei/iot_link/network/dtls/mbedtls/mbedtls-2.16.2/library\platform.c ****         return -1;
 271:D:/fchai/work/i-cube/I-CUBE-HUAWEI/Middlewares/Third_Party/Huawei/iot_link/network/dtls/mbedtls/mbedtls-2.16.2/library\platform.c **** 
 272:D:/fchai/work/i-cube/I-CUBE-HUAWEI/Middlewares/Third_Party/Huawei/iot_link/network/dtls/mbedtls/mbedtls-2.16.2/library\platform.c ****     if( ( n = fwrite( buf, 1, buf_len, file ) ) != buf_len )
 273:D:/fchai/work/i-cube/I-CUBE-HUAWEI/Middlewares/Third_Party/Huawei/iot_link/network/dtls/mbedtls/mbedtls-2.16.2/library\platform.c ****     {
 274:D:/fchai/work/i-cube/I-CUBE-HUAWEI/Middlewares/Third_Party/Huawei/iot_link/network/dtls/mbedtls/mbedtls-2.16.2/library\platform.c ****         fclose( file );
 275:D:/fchai/work/i-cube/I-CUBE-HUAWEI/Middlewares/Third_Party/Huawei/iot_link/network/dtls/mbedtls/mbedtls-2.16.2/library\platform.c ****         return -1;
 276:D:/fchai/work/i-cube/I-CUBE-HUAWEI/Middlewares/Third_Party/Huawei/iot_link/network/dtls/mbedtls/mbedtls-2.16.2/library\platform.c ****     }
 277:D:/fchai/work/i-cube/I-CUBE-HUAWEI/Middlewares/Third_Party/Huawei/iot_link/network/dtls/mbedtls/mbedtls-2.16.2/library\platform.c **** 
 278:D:/fchai/work/i-cube/I-CUBE-HUAWEI/Middlewares/Third_Party/Huawei/iot_link/network/dtls/mbedtls/mbedtls-2.16.2/library\platform.c ****     fclose( file );
 279:D:/fchai/work/i-cube/I-CUBE-HUAWEI/Middlewares/Third_Party/Huawei/iot_link/network/dtls/mbedtls/mbedtls-2.16.2/library\platform.c ****     return( (int)n );
 280:D:/fchai/work/i-cube/I-CUBE-HUAWEI/Middlewares/Third_Party/Huawei/iot_link/network/dtls/mbedtls/mbedtls-2.16.2/library\platform.c **** }
 281:D:/fchai/work/i-cube/I-CUBE-HUAWEI/Middlewares/Third_Party/Huawei/iot_link/network/dtls/mbedtls/mbedtls-2.16.2/library\platform.c **** #endif /* MBEDTLS_PLATFORM_NO_STD_FUNCTIONS */
 282:D:/fchai/work/i-cube/I-CUBE-HUAWEI/Middlewares/Third_Party/Huawei/iot_link/network/dtls/mbedtls/mbedtls-2.16.2/library\platform.c **** 
 283:D:/fchai/work/i-cube/I-CUBE-HUAWEI/Middlewares/Third_Party/Huawei/iot_link/network/dtls/mbedtls/mbedtls-2.16.2/library\platform.c **** #if defined(MBEDTLS_PLATFORM_NV_SEED_ALT)
 284:D:/fchai/work/i-cube/I-CUBE-HUAWEI/Middlewares/Third_Party/Huawei/iot_link/network/dtls/mbedtls/mbedtls-2.16.2/library\platform.c **** #if !defined(MBEDTLS_PLATFORM_STD_NV_SEED_READ)
 285:D:/fchai/work/i-cube/I-CUBE-HUAWEI/Middlewares/Third_Party/Huawei/iot_link/network/dtls/mbedtls/mbedtls-2.16.2/library\platform.c **** /*
 286:D:/fchai/work/i-cube/I-CUBE-HUAWEI/Middlewares/Third_Party/Huawei/iot_link/network/dtls/mbedtls/mbedtls-2.16.2/library\platform.c ****  * Make dummy function to prevent NULL pointer dereferences
 287:D:/fchai/work/i-cube/I-CUBE-HUAWEI/Middlewares/Third_Party/Huawei/iot_link/network/dtls/mbedtls/mbedtls-2.16.2/library\platform.c ****  */
 288:D:/fchai/work/i-cube/I-CUBE-HUAWEI/Middlewares/Third_Party/Huawei/iot_link/network/dtls/mbedtls/mbedtls-2.16.2/library\platform.c **** static int platform_nv_seed_read_uninit( unsigned char *buf, size_t buf_len )
 289:D:/fchai/work/i-cube/I-CUBE-HUAWEI/Middlewares/Third_Party/Huawei/iot_link/network/dtls/mbedtls/mbedtls-2.16.2/library\platform.c **** {
 290:D:/fchai/work/i-cube/I-CUBE-HUAWEI/Middlewares/Third_Party/Huawei/iot_link/network/dtls/mbedtls/mbedtls-2.16.2/library\platform.c ****     ((void) buf);
 291:D:/fchai/work/i-cube/I-CUBE-HUAWEI/Middlewares/Third_Party/Huawei/iot_link/network/dtls/mbedtls/mbedtls-2.16.2/library\platform.c ****     ((void) buf_len);
 292:D:/fchai/work/i-cube/I-CUBE-HUAWEI/Middlewares/Third_Party/Huawei/iot_link/network/dtls/mbedtls/mbedtls-2.16.2/library\platform.c ****     return( -1 );
 293:D:/fchai/work/i-cube/I-CUBE-HUAWEI/Middlewares/Third_Party/Huawei/iot_link/network/dtls/mbedtls/mbedtls-2.16.2/library\platform.c **** }
 294:D:/fchai/work/i-cube/I-CUBE-HUAWEI/Middlewares/Third_Party/Huawei/iot_link/network/dtls/mbedtls/mbedtls-2.16.2/library\platform.c **** 
 295:D:/fchai/work/i-cube/I-CUBE-HUAWEI/Middlewares/Third_Party/Huawei/iot_link/network/dtls/mbedtls/mbedtls-2.16.2/library\platform.c **** #define MBEDTLS_PLATFORM_STD_NV_SEED_READ   platform_nv_seed_read_uninit
 296:D:/fchai/work/i-cube/I-CUBE-HUAWEI/Middlewares/Third_Party/Huawei/iot_link/network/dtls/mbedtls/mbedtls-2.16.2/library\platform.c **** #endif /* !MBEDTLS_PLATFORM_STD_NV_SEED_READ */
 297:D:/fchai/work/i-cube/I-CUBE-HUAWEI/Middlewares/Third_Party/Huawei/iot_link/network/dtls/mbedtls/mbedtls-2.16.2/library\platform.c **** 
 298:D:/fchai/work/i-cube/I-CUBE-HUAWEI/Middlewares/Third_Party/Huawei/iot_link/network/dtls/mbedtls/mbedtls-2.16.2/library\platform.c **** #if !defined(MBEDTLS_PLATFORM_STD_NV_SEED_WRITE)
 299:D:/fchai/work/i-cube/I-CUBE-HUAWEI/Middlewares/Third_Party/Huawei/iot_link/network/dtls/mbedtls/mbedtls-2.16.2/library\platform.c **** /*
 300:D:/fchai/work/i-cube/I-CUBE-HUAWEI/Middlewares/Third_Party/Huawei/iot_link/network/dtls/mbedtls/mbedtls-2.16.2/library\platform.c ****  * Make dummy function to prevent NULL pointer dereferences
 301:D:/fchai/work/i-cube/I-CUBE-HUAWEI/Middlewares/Third_Party/Huawei/iot_link/network/dtls/mbedtls/mbedtls-2.16.2/library\platform.c ****  */
 302:D:/fchai/work/i-cube/I-CUBE-HUAWEI/Middlewares/Third_Party/Huawei/iot_link/network/dtls/mbedtls/mbedtls-2.16.2/library\platform.c **** static int platform_nv_seed_write_uninit( unsigned char *buf, size_t buf_len )
 303:D:/fchai/work/i-cube/I-CUBE-HUAWEI/Middlewares/Third_Party/Huawei/iot_link/network/dtls/mbedtls/mbedtls-2.16.2/library\platform.c **** {
 304:D:/fchai/work/i-cube/I-CUBE-HUAWEI/Middlewares/Third_Party/Huawei/iot_link/network/dtls/mbedtls/mbedtls-2.16.2/library\platform.c ****     ((void) buf);
 305:D:/fchai/work/i-cube/I-CUBE-HUAWEI/Middlewares/Third_Party/Huawei/iot_link/network/dtls/mbedtls/mbedtls-2.16.2/library\platform.c ****     ((void) buf_len);
 306:D:/fchai/work/i-cube/I-CUBE-HUAWEI/Middlewares/Third_Party/Huawei/iot_link/network/dtls/mbedtls/mbedtls-2.16.2/library\platform.c ****     return( -1 );
 307:D:/fchai/work/i-cube/I-CUBE-HUAWEI/Middlewares/Third_Party/Huawei/iot_link/network/dtls/mbedtls/mbedtls-2.16.2/library\platform.c **** }
 308:D:/fchai/work/i-cube/I-CUBE-HUAWEI/Middlewares/Third_Party/Huawei/iot_link/network/dtls/mbedtls/mbedtls-2.16.2/library\platform.c **** 
 309:D:/fchai/work/i-cube/I-CUBE-HUAWEI/Middlewares/Third_Party/Huawei/iot_link/network/dtls/mbedtls/mbedtls-2.16.2/library\platform.c **** #define MBEDTLS_PLATFORM_STD_NV_SEED_WRITE   platform_nv_seed_write_uninit
 310:D:/fchai/work/i-cube/I-CUBE-HUAWEI/Middlewares/Third_Party/Huawei/iot_link/network/dtls/mbedtls/mbedtls-2.16.2/library\platform.c **** #endif /* !MBEDTLS_PLATFORM_STD_NV_SEED_WRITE */
 311:D:/fchai/work/i-cube/I-CUBE-HUAWEI/Middlewares/Third_Party/Huawei/iot_link/network/dtls/mbedtls/mbedtls-2.16.2/library\platform.c **** 
 312:D:/fchai/work/i-cube/I-CUBE-HUAWEI/Middlewares/Third_Party/Huawei/iot_link/network/dtls/mbedtls/mbedtls-2.16.2/library\platform.c **** int (*mbedtls_nv_seed_read)( unsigned char *buf, size_t buf_len ) =
 313:D:/fchai/work/i-cube/I-CUBE-HUAWEI/Middlewares/Third_Party/Huawei/iot_link/network/dtls/mbedtls/mbedtls-2.16.2/library\platform.c ****             MBEDTLS_PLATFORM_STD_NV_SEED_READ;
 314:D:/fchai/work/i-cube/I-CUBE-HUAWEI/Middlewares/Third_Party/Huawei/iot_link/network/dtls/mbedtls/mbedtls-2.16.2/library\platform.c **** int (*mbedtls_nv_seed_write)( unsigned char *buf, size_t buf_len ) =
 315:D:/fchai/work/i-cube/I-CUBE-HUAWEI/Middlewares/Third_Party/Huawei/iot_link/network/dtls/mbedtls/mbedtls-2.16.2/library\platform.c ****             MBEDTLS_PLATFORM_STD_NV_SEED_WRITE;
 316:D:/fchai/work/i-cube/I-CUBE-HUAWEI/Middlewares/Third_Party/Huawei/iot_link/network/dtls/mbedtls/mbedtls-2.16.2/library\platform.c **** 
 317:D:/fchai/work/i-cube/I-CUBE-HUAWEI/Middlewares/Third_Party/Huawei/iot_link/network/dtls/mbedtls/mbedtls-2.16.2/library\platform.c **** int mbedtls_platform_set_nv_seed(
 318:D:/fchai/work/i-cube/I-CUBE-HUAWEI/Middlewares/Third_Party/Huawei/iot_link/network/dtls/mbedtls/mbedtls-2.16.2/library\platform.c ****         int (*nv_seed_read_func)( unsigned char *buf, size_t buf_len ),
 319:D:/fchai/work/i-cube/I-CUBE-HUAWEI/Middlewares/Third_Party/Huawei/iot_link/network/dtls/mbedtls/mbedtls-2.16.2/library\platform.c ****         int (*nv_seed_write_func)( unsigned char *buf, size_t buf_len ) )
 320:D:/fchai/work/i-cube/I-CUBE-HUAWEI/Middlewares/Third_Party/Huawei/iot_link/network/dtls/mbedtls/mbedtls-2.16.2/library\platform.c **** {
 321:D:/fchai/work/i-cube/I-CUBE-HUAWEI/Middlewares/Third_Party/Huawei/iot_link/network/dtls/mbedtls/mbedtls-2.16.2/library\platform.c ****     mbedtls_nv_seed_read = nv_seed_read_func;
 322:D:/fchai/work/i-cube/I-CUBE-HUAWEI/Middlewares/Third_Party/Huawei/iot_link/network/dtls/mbedtls/mbedtls-2.16.2/library\platform.c ****     mbedtls_nv_seed_write = nv_seed_write_func;
ARM GAS  T:\msys\tmp\cciVrjDz.s 			page 10


 323:D:/fchai/work/i-cube/I-CUBE-HUAWEI/Middlewares/Third_Party/Huawei/iot_link/network/dtls/mbedtls/mbedtls-2.16.2/library\platform.c ****     return( 0 );
 324:D:/fchai/work/i-cube/I-CUBE-HUAWEI/Middlewares/Third_Party/Huawei/iot_link/network/dtls/mbedtls/mbedtls-2.16.2/library\platform.c **** }
 325:D:/fchai/work/i-cube/I-CUBE-HUAWEI/Middlewares/Third_Party/Huawei/iot_link/network/dtls/mbedtls/mbedtls-2.16.2/library\platform.c **** #endif /* MBEDTLS_PLATFORM_NV_SEED_ALT */
 326:D:/fchai/work/i-cube/I-CUBE-HUAWEI/Middlewares/Third_Party/Huawei/iot_link/network/dtls/mbedtls/mbedtls-2.16.2/library\platform.c **** #endif /* MBEDTLS_ENTROPY_NV_SEED */
 327:D:/fchai/work/i-cube/I-CUBE-HUAWEI/Middlewares/Third_Party/Huawei/iot_link/network/dtls/mbedtls/mbedtls-2.16.2/library\platform.c **** 
 328:D:/fchai/work/i-cube/I-CUBE-HUAWEI/Middlewares/Third_Party/Huawei/iot_link/network/dtls/mbedtls/mbedtls-2.16.2/library\platform.c **** #if !defined(MBEDTLS_PLATFORM_SETUP_TEARDOWN_ALT)
 329:D:/fchai/work/i-cube/I-CUBE-HUAWEI/Middlewares/Third_Party/Huawei/iot_link/network/dtls/mbedtls/mbedtls-2.16.2/library\platform.c **** /*
 330:D:/fchai/work/i-cube/I-CUBE-HUAWEI/Middlewares/Third_Party/Huawei/iot_link/network/dtls/mbedtls/mbedtls-2.16.2/library\platform.c ****  * Placeholder platform setup that does nothing by default
 331:D:/fchai/work/i-cube/I-CUBE-HUAWEI/Middlewares/Third_Party/Huawei/iot_link/network/dtls/mbedtls/mbedtls-2.16.2/library\platform.c ****  */
 332:D:/fchai/work/i-cube/I-CUBE-HUAWEI/Middlewares/Third_Party/Huawei/iot_link/network/dtls/mbedtls/mbedtls-2.16.2/library\platform.c **** int mbedtls_platform_setup( mbedtls_platform_context *ctx )
 333:D:/fchai/work/i-cube/I-CUBE-HUAWEI/Middlewares/Third_Party/Huawei/iot_link/network/dtls/mbedtls/mbedtls-2.16.2/library\platform.c **** {
 202              		.loc 1 333 1 is_stmt 1 view -0
 203              		.cfi_startproc
 204              		@ args = 0, pretend = 0, frame = 0
 205              		@ frame_needed = 0, uses_anonymous_args = 0
 206              		@ link register save eliminated.
 334:D:/fchai/work/i-cube/I-CUBE-HUAWEI/Middlewares/Third_Party/Huawei/iot_link/network/dtls/mbedtls/mbedtls-2.16.2/library\platform.c ****     (void)ctx;
 207              		.loc 1 334 5 view .LVU31
 335:D:/fchai/work/i-cube/I-CUBE-HUAWEI/Middlewares/Third_Party/Huawei/iot_link/network/dtls/mbedtls/mbedtls-2.16.2/library\platform.c **** 
 336:D:/fchai/work/i-cube/I-CUBE-HUAWEI/Middlewares/Third_Party/Huawei/iot_link/network/dtls/mbedtls/mbedtls-2.16.2/library\platform.c ****     return( 0 );
 208              		.loc 1 336 5 view .LVU32
 337:D:/fchai/work/i-cube/I-CUBE-HUAWEI/Middlewares/Third_Party/Huawei/iot_link/network/dtls/mbedtls/mbedtls-2.16.2/library\platform.c **** }
 209              		.loc 1 337 1 is_stmt 0 view .LVU33
 210 0000 0020     		movs	r0, #0
 211              	.LVL11:
 212              		.loc 1 337 1 view .LVU34
 213 0002 7047     		bx	lr
 214              		.cfi_endproc
 215              	.LFE8:
 217              		.section	.text.mbedtls_platform_teardown,"ax",%progbits
 218              		.align	1
 219              		.p2align 2,,3
 220              		.global	mbedtls_platform_teardown
 221              		.syntax unified
 222              		.thumb
 223              		.thumb_func
 224              		.fpu fpv4-sp-d16
 226              	mbedtls_platform_teardown:
 227              	.LVL12:
 228              	.LFB9:
 338:D:/fchai/work/i-cube/I-CUBE-HUAWEI/Middlewares/Third_Party/Huawei/iot_link/network/dtls/mbedtls/mbedtls-2.16.2/library\platform.c **** 
 339:D:/fchai/work/i-cube/I-CUBE-HUAWEI/Middlewares/Third_Party/Huawei/iot_link/network/dtls/mbedtls/mbedtls-2.16.2/library\platform.c **** /*
 340:D:/fchai/work/i-cube/I-CUBE-HUAWEI/Middlewares/Third_Party/Huawei/iot_link/network/dtls/mbedtls/mbedtls-2.16.2/library\platform.c ****  * Placeholder platform teardown that does nothing by default
 341:D:/fchai/work/i-cube/I-CUBE-HUAWEI/Middlewares/Third_Party/Huawei/iot_link/network/dtls/mbedtls/mbedtls-2.16.2/library\platform.c ****  */
 342:D:/fchai/work/i-cube/I-CUBE-HUAWEI/Middlewares/Third_Party/Huawei/iot_link/network/dtls/mbedtls/mbedtls-2.16.2/library\platform.c **** void mbedtls_platform_teardown( mbedtls_platform_context *ctx )
 343:D:/fchai/work/i-cube/I-CUBE-HUAWEI/Middlewares/Third_Party/Huawei/iot_link/network/dtls/mbedtls/mbedtls-2.16.2/library\platform.c **** {
 229              		.loc 1 343 1 is_stmt 1 view -0
 230              		.cfi_startproc
 231              		@ args = 0, pretend = 0, frame = 0
 232              		@ frame_needed = 0, uses_anonymous_args = 0
 233              		@ link register save eliminated.
 344:D:/fchai/work/i-cube/I-CUBE-HUAWEI/Middlewares/Third_Party/Huawei/iot_link/network/dtls/mbedtls/mbedtls-2.16.2/library\platform.c ****     (void)ctx;
 234              		.loc 1 344 5 view .LVU36
 345:D:/fchai/work/i-cube/I-CUBE-HUAWEI/Middlewares/Third_Party/Huawei/iot_link/network/dtls/mbedtls/mbedtls-2.16.2/library\platform.c **** }
 235              		.loc 1 345 1 is_stmt 0 view .LVU37
 236 0000 7047     		bx	lr
 237              		.cfi_endproc
ARM GAS  T:\msys\tmp\cciVrjDz.s 			page 11


 238              	.LFE9:
 240              		.global	mbedtls_printf
 241              		.global	mbedtls_snprintf
 242 0002 00BF     		.section	.data.mbedtls_calloc_func,"aw"
 243              		.align	2
 244              		.set	.LANCHOR0,. + 0
 247              	mbedtls_calloc_func:
 248 0000 00000000 		.word	calloc
 249              		.section	.data.mbedtls_free_func,"aw"
 250              		.align	2
 251              		.set	.LANCHOR1,. + 0
 254              	mbedtls_free_func:
 255 0000 00000000 		.word	free
 256              		.section	.data.mbedtls_printf,"aw"
 257              		.align	2
 258              		.set	.LANCHOR3,. + 0
 261              	mbedtls_printf:
 262 0000 00000000 		.word	printf
 263              		.section	.data.mbedtls_snprintf,"aw"
 264              		.align	2
 265              		.set	.LANCHOR2,. + 0
 268              	mbedtls_snprintf:
 269 0000 00000000 		.word	snprintf
 270              		.text
 271              	.Letext0:
 272              		.file 2 "t:\\msys\\3rd\\gcc-arm-none-eabi-9-2020-q2-update-win32\\lib\\gcc\\arm-none-eabi\\9.3.1\\
 273              		.file 3 "t:\\msys\\3rd\\gcc-arm-none-eabi-9-2020-q2-update-win32\\arm-none-eabi\\include\\sys\\_ty
 274              		.file 4 "t:\\msys\\3rd\\gcc-arm-none-eabi-9-2020-q2-update-win32\\arm-none-eabi\\include\\sys\\ree
 275              		.file 5 "t:\\msys\\3rd\\gcc-arm-none-eabi-9-2020-q2-update-win32\\arm-none-eabi\\include\\sys\\loc
 276              		.file 6 "t:\\msys\\3rd\\gcc-arm-none-eabi-9-2020-q2-update-win32\\arm-none-eabi\\include\\stdlib.h
 277              		.file 7 "t:\\msys\\3rd\\gcc-arm-none-eabi-9-2020-q2-update-win32\\arm-none-eabi\\include\\time.h"
 278              		.file 8 "D:/fchai/work/i-cube/I-CUBE-HUAWEI/Middlewares/Third_Party/Huawei/iot_link/network/dtls/m
ARM GAS  T:\msys\tmp\cciVrjDz.s 			page 12

