ARM GAS  T:\msys\tmp\cc3UYpAk.s 			page 1


   1              		.cpu cortex-m4
   2              		.eabi_attribute 27, 1
   3              		.eabi_attribute 28, 1
   4              		.eabi_attribute 20, 1
   5              		.eabi_attribute 21, 1
   6              		.eabi_attribute 23, 3
   7              		.eabi_attribute 24, 1
   8              		.eabi_attribute 25, 1
   9              		.eabi_attribute 26, 1
  10              		.eabi_attribute 30, 2
  11              		.eabi_attribute 34, 1
  12              		.eabi_attribute 18, 4
  13              		.file	"rsa_internal.c"
  14              		.text
  15              	.Ltext0:
  16              		.cfi_sections	.debug_frame
  17              		.section	.rodata.mbedtls_rsa_deduce_primes.str1.4,"aMS",%progbits,1
  18              		.align	2
  19              	.LC0:
  20 0000 02030507 		.ascii	"\002\003\005\007\013\015\021\023\027\035\037%)+/5;="
  20      0B0D1113 
  20      171D1F25 
  20      292B2F35 
  20      3B3D
  21 0012 4347494F 		.ascii	"CGIOSYaegkmq\177\203\211\213\225\227\235\243\247\255"
  21      53596165 
  21      676B6D71 
  21      7F83898B 
  21      95979DA3 
  22 0028 B3B5BFC1 		.ascii	"\263\265\277\301\305\307\323\337\343\345\351\357\361"
  22      C5C7D3DF 
  22      E3E5E9EF 
  22      F1
  23 0035 FB00     		.ascii	"\373\000"
  24              		.section	.text.mbedtls_rsa_deduce_primes,"ax",%progbits
  25              		.align	1
  26              		.p2align 2,,3
  27              		.global	mbedtls_rsa_deduce_primes
  28              		.arch armv7e-m
  29              		.syntax unified
  30              		.thumb
  31              		.thumb_func
  32              		.fpu fpv4-sp-d16
  34              	mbedtls_rsa_deduce_primes:
  35              	.LVL0:
  36              	.LFB0:
  37              		.file 1 "D:/fchai/work/i-cube/I-CUBE-HUAWEI/Middlewares/Third_Party/Huawei/iot_link/network/dtls/m
   1:D:/fchai/work/i-cube/I-CUBE-HUAWEI/Middlewares/Third_Party/Huawei/iot_link/network/dtls/mbedtls/mbedtls-2.16.2/library\rsa_internal.c **** /*
   2:D:/fchai/work/i-cube/I-CUBE-HUAWEI/Middlewares/Third_Party/Huawei/iot_link/network/dtls/mbedtls/mbedtls-2.16.2/library\rsa_internal.c ****  *  Helper functions for the RSA module
   3:D:/fchai/work/i-cube/I-CUBE-HUAWEI/Middlewares/Third_Party/Huawei/iot_link/network/dtls/mbedtls/mbedtls-2.16.2/library\rsa_internal.c ****  *
   4:D:/fchai/work/i-cube/I-CUBE-HUAWEI/Middlewares/Third_Party/Huawei/iot_link/network/dtls/mbedtls/mbedtls-2.16.2/library\rsa_internal.c ****  *  Copyright (C) 2006-2017, ARM Limited, All Rights Reserved
   5:D:/fchai/work/i-cube/I-CUBE-HUAWEI/Middlewares/Third_Party/Huawei/iot_link/network/dtls/mbedtls/mbedtls-2.16.2/library\rsa_internal.c ****  *  SPDX-License-Identifier: Apache-2.0
   6:D:/fchai/work/i-cube/I-CUBE-HUAWEI/Middlewares/Third_Party/Huawei/iot_link/network/dtls/mbedtls/mbedtls-2.16.2/library\rsa_internal.c ****  *
   7:D:/fchai/work/i-cube/I-CUBE-HUAWEI/Middlewares/Third_Party/Huawei/iot_link/network/dtls/mbedtls/mbedtls-2.16.2/library\rsa_internal.c ****  *  Licensed under the Apache License, Version 2.0 (the "License"); you may
   8:D:/fchai/work/i-cube/I-CUBE-HUAWEI/Middlewares/Third_Party/Huawei/iot_link/network/dtls/mbedtls/mbedtls-2.16.2/library\rsa_internal.c ****  *  not use this file except in compliance with the License.
   9:D:/fchai/work/i-cube/I-CUBE-HUAWEI/Middlewares/Third_Party/Huawei/iot_link/network/dtls/mbedtls/mbedtls-2.16.2/library\rsa_internal.c ****  *  You may obtain a copy of the License at
  10:D:/fchai/work/i-cube/I-CUBE-HUAWEI/Middlewares/Third_Party/Huawei/iot_link/network/dtls/mbedtls/mbedtls-2.16.2/library\rsa_internal.c ****  *
ARM GAS  T:\msys\tmp\cc3UYpAk.s 			page 2


  11:D:/fchai/work/i-cube/I-CUBE-HUAWEI/Middlewares/Third_Party/Huawei/iot_link/network/dtls/mbedtls/mbedtls-2.16.2/library\rsa_internal.c ****  *  http://www.apache.org/licenses/LICENSE-2.0
  12:D:/fchai/work/i-cube/I-CUBE-HUAWEI/Middlewares/Third_Party/Huawei/iot_link/network/dtls/mbedtls/mbedtls-2.16.2/library\rsa_internal.c ****  *
  13:D:/fchai/work/i-cube/I-CUBE-HUAWEI/Middlewares/Third_Party/Huawei/iot_link/network/dtls/mbedtls/mbedtls-2.16.2/library\rsa_internal.c ****  *  Unless required by applicable law or agreed to in writing, software
  14:D:/fchai/work/i-cube/I-CUBE-HUAWEI/Middlewares/Third_Party/Huawei/iot_link/network/dtls/mbedtls/mbedtls-2.16.2/library\rsa_internal.c ****  *  distributed under the License is distributed on an "AS IS" BASIS, WITHOUT
  15:D:/fchai/work/i-cube/I-CUBE-HUAWEI/Middlewares/Third_Party/Huawei/iot_link/network/dtls/mbedtls/mbedtls-2.16.2/library\rsa_internal.c ****  *  WARRANTIES OR CONDITIONS OF ANY KIND, either express or implied.
  16:D:/fchai/work/i-cube/I-CUBE-HUAWEI/Middlewares/Third_Party/Huawei/iot_link/network/dtls/mbedtls/mbedtls-2.16.2/library\rsa_internal.c ****  *  See the License for the specific language governing permissions and
  17:D:/fchai/work/i-cube/I-CUBE-HUAWEI/Middlewares/Third_Party/Huawei/iot_link/network/dtls/mbedtls/mbedtls-2.16.2/library\rsa_internal.c ****  *  limitations under the License.
  18:D:/fchai/work/i-cube/I-CUBE-HUAWEI/Middlewares/Third_Party/Huawei/iot_link/network/dtls/mbedtls/mbedtls-2.16.2/library\rsa_internal.c ****  *
  19:D:/fchai/work/i-cube/I-CUBE-HUAWEI/Middlewares/Third_Party/Huawei/iot_link/network/dtls/mbedtls/mbedtls-2.16.2/library\rsa_internal.c ****  *  This file is part of mbed TLS (https://tls.mbed.org)
  20:D:/fchai/work/i-cube/I-CUBE-HUAWEI/Middlewares/Third_Party/Huawei/iot_link/network/dtls/mbedtls/mbedtls-2.16.2/library\rsa_internal.c ****  *
  21:D:/fchai/work/i-cube/I-CUBE-HUAWEI/Middlewares/Third_Party/Huawei/iot_link/network/dtls/mbedtls/mbedtls-2.16.2/library\rsa_internal.c ****  */
  22:D:/fchai/work/i-cube/I-CUBE-HUAWEI/Middlewares/Third_Party/Huawei/iot_link/network/dtls/mbedtls/mbedtls-2.16.2/library\rsa_internal.c **** 
  23:D:/fchai/work/i-cube/I-CUBE-HUAWEI/Middlewares/Third_Party/Huawei/iot_link/network/dtls/mbedtls/mbedtls-2.16.2/library\rsa_internal.c **** #if !defined(MBEDTLS_CONFIG_FILE)
  24:D:/fchai/work/i-cube/I-CUBE-HUAWEI/Middlewares/Third_Party/Huawei/iot_link/network/dtls/mbedtls/mbedtls-2.16.2/library\rsa_internal.c **** #include "mbedtls/config.h"
  25:D:/fchai/work/i-cube/I-CUBE-HUAWEI/Middlewares/Third_Party/Huawei/iot_link/network/dtls/mbedtls/mbedtls-2.16.2/library\rsa_internal.c **** #else
  26:D:/fchai/work/i-cube/I-CUBE-HUAWEI/Middlewares/Third_Party/Huawei/iot_link/network/dtls/mbedtls/mbedtls-2.16.2/library\rsa_internal.c **** #include MBEDTLS_CONFIG_FILE
  27:D:/fchai/work/i-cube/I-CUBE-HUAWEI/Middlewares/Third_Party/Huawei/iot_link/network/dtls/mbedtls/mbedtls-2.16.2/library\rsa_internal.c **** #endif
  28:D:/fchai/work/i-cube/I-CUBE-HUAWEI/Middlewares/Third_Party/Huawei/iot_link/network/dtls/mbedtls/mbedtls-2.16.2/library\rsa_internal.c **** 
  29:D:/fchai/work/i-cube/I-CUBE-HUAWEI/Middlewares/Third_Party/Huawei/iot_link/network/dtls/mbedtls/mbedtls-2.16.2/library\rsa_internal.c **** #if defined(MBEDTLS_RSA_C)
  30:D:/fchai/work/i-cube/I-CUBE-HUAWEI/Middlewares/Third_Party/Huawei/iot_link/network/dtls/mbedtls/mbedtls-2.16.2/library\rsa_internal.c **** 
  31:D:/fchai/work/i-cube/I-CUBE-HUAWEI/Middlewares/Third_Party/Huawei/iot_link/network/dtls/mbedtls/mbedtls-2.16.2/library\rsa_internal.c **** #include "mbedtls/rsa.h"
  32:D:/fchai/work/i-cube/I-CUBE-HUAWEI/Middlewares/Third_Party/Huawei/iot_link/network/dtls/mbedtls/mbedtls-2.16.2/library\rsa_internal.c **** #include "mbedtls/bignum.h"
  33:D:/fchai/work/i-cube/I-CUBE-HUAWEI/Middlewares/Third_Party/Huawei/iot_link/network/dtls/mbedtls/mbedtls-2.16.2/library\rsa_internal.c **** #include "mbedtls/rsa_internal.h"
  34:D:/fchai/work/i-cube/I-CUBE-HUAWEI/Middlewares/Third_Party/Huawei/iot_link/network/dtls/mbedtls/mbedtls-2.16.2/library\rsa_internal.c **** 
  35:D:/fchai/work/i-cube/I-CUBE-HUAWEI/Middlewares/Third_Party/Huawei/iot_link/network/dtls/mbedtls/mbedtls-2.16.2/library\rsa_internal.c **** /*
  36:D:/fchai/work/i-cube/I-CUBE-HUAWEI/Middlewares/Third_Party/Huawei/iot_link/network/dtls/mbedtls/mbedtls-2.16.2/library\rsa_internal.c ****  * Compute RSA prime factors from public and private exponents
  37:D:/fchai/work/i-cube/I-CUBE-HUAWEI/Middlewares/Third_Party/Huawei/iot_link/network/dtls/mbedtls/mbedtls-2.16.2/library\rsa_internal.c ****  *
  38:D:/fchai/work/i-cube/I-CUBE-HUAWEI/Middlewares/Third_Party/Huawei/iot_link/network/dtls/mbedtls/mbedtls-2.16.2/library\rsa_internal.c ****  * Summary of algorithm:
  39:D:/fchai/work/i-cube/I-CUBE-HUAWEI/Middlewares/Third_Party/Huawei/iot_link/network/dtls/mbedtls/mbedtls-2.16.2/library\rsa_internal.c ****  * Setting F := lcm(P-1,Q-1), the idea is as follows:
  40:D:/fchai/work/i-cube/I-CUBE-HUAWEI/Middlewares/Third_Party/Huawei/iot_link/network/dtls/mbedtls/mbedtls-2.16.2/library\rsa_internal.c ****  *
  41:D:/fchai/work/i-cube/I-CUBE-HUAWEI/Middlewares/Third_Party/Huawei/iot_link/network/dtls/mbedtls/mbedtls-2.16.2/library\rsa_internal.c ****  * (a) For any 1 <= X < N with gcd(X,N)=1, we have X^F = 1 modulo N, so X^(F/2)
  42:D:/fchai/work/i-cube/I-CUBE-HUAWEI/Middlewares/Third_Party/Huawei/iot_link/network/dtls/mbedtls/mbedtls-2.16.2/library\rsa_internal.c ****  *     is a square root of 1 in Z/NZ. Since Z/NZ ~= Z/PZ x Z/QZ by CRT and the
  43:D:/fchai/work/i-cube/I-CUBE-HUAWEI/Middlewares/Third_Party/Huawei/iot_link/network/dtls/mbedtls/mbedtls-2.16.2/library\rsa_internal.c ****  *     square roots of 1 in Z/PZ and Z/QZ are +1 and -1, this leaves the four
  44:D:/fchai/work/i-cube/I-CUBE-HUAWEI/Middlewares/Third_Party/Huawei/iot_link/network/dtls/mbedtls/mbedtls-2.16.2/library\rsa_internal.c ****  *     possibilities X^(F/2) = (+-1, +-1). If it happens that X^(F/2) = (-1,+1)
  45:D:/fchai/work/i-cube/I-CUBE-HUAWEI/Middlewares/Third_Party/Huawei/iot_link/network/dtls/mbedtls/mbedtls-2.16.2/library\rsa_internal.c ****  *     or (+1,-1), then gcd(X^(F/2) + 1, N) will be equal to one of the prime
  46:D:/fchai/work/i-cube/I-CUBE-HUAWEI/Middlewares/Third_Party/Huawei/iot_link/network/dtls/mbedtls/mbedtls-2.16.2/library\rsa_internal.c ****  *     factors of N.
  47:D:/fchai/work/i-cube/I-CUBE-HUAWEI/Middlewares/Third_Party/Huawei/iot_link/network/dtls/mbedtls/mbedtls-2.16.2/library\rsa_internal.c ****  *
  48:D:/fchai/work/i-cube/I-CUBE-HUAWEI/Middlewares/Third_Party/Huawei/iot_link/network/dtls/mbedtls/mbedtls-2.16.2/library\rsa_internal.c ****  * (b) If we don't know F/2 but (F/2) * K for some odd (!) K, then the same
  49:D:/fchai/work/i-cube/I-CUBE-HUAWEI/Middlewares/Third_Party/Huawei/iot_link/network/dtls/mbedtls/mbedtls-2.16.2/library\rsa_internal.c ****  *     construction still applies since (-)^K is the identity on the set of
  50:D:/fchai/work/i-cube/I-CUBE-HUAWEI/Middlewares/Third_Party/Huawei/iot_link/network/dtls/mbedtls/mbedtls-2.16.2/library\rsa_internal.c ****  *     roots of 1 in Z/NZ.
  51:D:/fchai/work/i-cube/I-CUBE-HUAWEI/Middlewares/Third_Party/Huawei/iot_link/network/dtls/mbedtls/mbedtls-2.16.2/library\rsa_internal.c ****  *
  52:D:/fchai/work/i-cube/I-CUBE-HUAWEI/Middlewares/Third_Party/Huawei/iot_link/network/dtls/mbedtls/mbedtls-2.16.2/library\rsa_internal.c ****  * The public and private key primitives (-)^E and (-)^D are mutually inverse
  53:D:/fchai/work/i-cube/I-CUBE-HUAWEI/Middlewares/Third_Party/Huawei/iot_link/network/dtls/mbedtls/mbedtls-2.16.2/library\rsa_internal.c ****  * bijections on Z/NZ if and only if (-)^(DE) is the identity on Z/NZ, i.e.
  54:D:/fchai/work/i-cube/I-CUBE-HUAWEI/Middlewares/Third_Party/Huawei/iot_link/network/dtls/mbedtls/mbedtls-2.16.2/library\rsa_internal.c ****  * if and only if DE - 1 is a multiple of F, say DE - 1 = F * L.
  55:D:/fchai/work/i-cube/I-CUBE-HUAWEI/Middlewares/Third_Party/Huawei/iot_link/network/dtls/mbedtls/mbedtls-2.16.2/library\rsa_internal.c ****  * Splitting L = 2^t * K with K odd, we have
  56:D:/fchai/work/i-cube/I-CUBE-HUAWEI/Middlewares/Third_Party/Huawei/iot_link/network/dtls/mbedtls/mbedtls-2.16.2/library\rsa_internal.c ****  *
  57:D:/fchai/work/i-cube/I-CUBE-HUAWEI/Middlewares/Third_Party/Huawei/iot_link/network/dtls/mbedtls/mbedtls-2.16.2/library\rsa_internal.c ****  *   DE - 1 = FL = (F/2) * (2^(t+1)) * K,
  58:D:/fchai/work/i-cube/I-CUBE-HUAWEI/Middlewares/Third_Party/Huawei/iot_link/network/dtls/mbedtls/mbedtls-2.16.2/library\rsa_internal.c ****  *
  59:D:/fchai/work/i-cube/I-CUBE-HUAWEI/Middlewares/Third_Party/Huawei/iot_link/network/dtls/mbedtls/mbedtls-2.16.2/library\rsa_internal.c ****  * so (F / 2) * K is among the numbers
  60:D:/fchai/work/i-cube/I-CUBE-HUAWEI/Middlewares/Third_Party/Huawei/iot_link/network/dtls/mbedtls/mbedtls-2.16.2/library\rsa_internal.c ****  *
  61:D:/fchai/work/i-cube/I-CUBE-HUAWEI/Middlewares/Third_Party/Huawei/iot_link/network/dtls/mbedtls/mbedtls-2.16.2/library\rsa_internal.c ****  *   (DE - 1) >> 1, (DE - 1) >> 2, ..., (DE - 1) >> ord
  62:D:/fchai/work/i-cube/I-CUBE-HUAWEI/Middlewares/Third_Party/Huawei/iot_link/network/dtls/mbedtls/mbedtls-2.16.2/library\rsa_internal.c ****  *
  63:D:/fchai/work/i-cube/I-CUBE-HUAWEI/Middlewares/Third_Party/Huawei/iot_link/network/dtls/mbedtls/mbedtls-2.16.2/library\rsa_internal.c ****  * where ord is the order of 2 in (DE - 1).
  64:D:/fchai/work/i-cube/I-CUBE-HUAWEI/Middlewares/Third_Party/Huawei/iot_link/network/dtls/mbedtls/mbedtls-2.16.2/library\rsa_internal.c ****  * We can therefore iterate through these numbers apply the construction
  65:D:/fchai/work/i-cube/I-CUBE-HUAWEI/Middlewares/Third_Party/Huawei/iot_link/network/dtls/mbedtls/mbedtls-2.16.2/library\rsa_internal.c ****  * of (a) and (b) above to attempt to factor N.
  66:D:/fchai/work/i-cube/I-CUBE-HUAWEI/Middlewares/Third_Party/Huawei/iot_link/network/dtls/mbedtls/mbedtls-2.16.2/library\rsa_internal.c ****  *
  67:D:/fchai/work/i-cube/I-CUBE-HUAWEI/Middlewares/Third_Party/Huawei/iot_link/network/dtls/mbedtls/mbedtls-2.16.2/library\rsa_internal.c ****  */
ARM GAS  T:\msys\tmp\cc3UYpAk.s 			page 3


  68:D:/fchai/work/i-cube/I-CUBE-HUAWEI/Middlewares/Third_Party/Huawei/iot_link/network/dtls/mbedtls/mbedtls-2.16.2/library\rsa_internal.c **** int mbedtls_rsa_deduce_primes( mbedtls_mpi const *N,
  69:D:/fchai/work/i-cube/I-CUBE-HUAWEI/Middlewares/Third_Party/Huawei/iot_link/network/dtls/mbedtls/mbedtls-2.16.2/library\rsa_internal.c ****                      mbedtls_mpi const *E, mbedtls_mpi const *D,
  70:D:/fchai/work/i-cube/I-CUBE-HUAWEI/Middlewares/Third_Party/Huawei/iot_link/network/dtls/mbedtls/mbedtls-2.16.2/library\rsa_internal.c ****                      mbedtls_mpi *P, mbedtls_mpi *Q )
  71:D:/fchai/work/i-cube/I-CUBE-HUAWEI/Middlewares/Third_Party/Huawei/iot_link/network/dtls/mbedtls/mbedtls-2.16.2/library\rsa_internal.c **** {
  38              		.loc 1 71 1 view -0
  39              		.cfi_startproc
  40              		@ args = 4, pretend = 0, frame = 80
  41              		@ frame_needed = 0, uses_anonymous_args = 0
  72:D:/fchai/work/i-cube/I-CUBE-HUAWEI/Middlewares/Third_Party/Huawei/iot_link/network/dtls/mbedtls/mbedtls-2.16.2/library\rsa_internal.c ****     int ret = 0;
  42              		.loc 1 72 5 view .LVU1
  73:D:/fchai/work/i-cube/I-CUBE-HUAWEI/Middlewares/Third_Party/Huawei/iot_link/network/dtls/mbedtls/mbedtls-2.16.2/library\rsa_internal.c **** 
  74:D:/fchai/work/i-cube/I-CUBE-HUAWEI/Middlewares/Third_Party/Huawei/iot_link/network/dtls/mbedtls/mbedtls-2.16.2/library\rsa_internal.c ****     uint16_t attempt;  /* Number of current attempt  */
  43              		.loc 1 74 5 view .LVU2
  75:D:/fchai/work/i-cube/I-CUBE-HUAWEI/Middlewares/Third_Party/Huawei/iot_link/network/dtls/mbedtls/mbedtls-2.16.2/library\rsa_internal.c ****     uint16_t iter;     /* Number of squares computed in the current attempt */
  44              		.loc 1 75 5 view .LVU3
  76:D:/fchai/work/i-cube/I-CUBE-HUAWEI/Middlewares/Third_Party/Huawei/iot_link/network/dtls/mbedtls/mbedtls-2.16.2/library\rsa_internal.c **** 
  77:D:/fchai/work/i-cube/I-CUBE-HUAWEI/Middlewares/Third_Party/Huawei/iot_link/network/dtls/mbedtls/mbedtls-2.16.2/library\rsa_internal.c ****     uint16_t order;    /* Order of 2 in DE - 1 */
  45              		.loc 1 77 5 view .LVU4
  78:D:/fchai/work/i-cube/I-CUBE-HUAWEI/Middlewares/Third_Party/Huawei/iot_link/network/dtls/mbedtls/mbedtls-2.16.2/library\rsa_internal.c **** 
  79:D:/fchai/work/i-cube/I-CUBE-HUAWEI/Middlewares/Third_Party/Huawei/iot_link/network/dtls/mbedtls/mbedtls-2.16.2/library\rsa_internal.c ****     mbedtls_mpi T;  /* Holds largest odd divisor of DE - 1     */
  46              		.loc 1 79 5 view .LVU5
  80:D:/fchai/work/i-cube/I-CUBE-HUAWEI/Middlewares/Third_Party/Huawei/iot_link/network/dtls/mbedtls/mbedtls-2.16.2/library\rsa_internal.c ****     mbedtls_mpi K;  /* Temporary holding the current candidate */
  47              		.loc 1 80 5 view .LVU6
  81:D:/fchai/work/i-cube/I-CUBE-HUAWEI/Middlewares/Third_Party/Huawei/iot_link/network/dtls/mbedtls/mbedtls-2.16.2/library\rsa_internal.c **** 
  82:D:/fchai/work/i-cube/I-CUBE-HUAWEI/Middlewares/Third_Party/Huawei/iot_link/network/dtls/mbedtls/mbedtls-2.16.2/library\rsa_internal.c ****     const unsigned char primes[] = { 2,
  48              		.loc 1 82 5 view .LVU7
  71:D:/fchai/work/i-cube/I-CUBE-HUAWEI/Middlewares/Third_Party/Huawei/iot_link/network/dtls/mbedtls/mbedtls-2.16.2/library\rsa_internal.c ****     int ret = 0;
  49              		.loc 1 71 1 is_stmt 0 view .LVU8
  50 0000 2DE9F04F 		push	{r4, r5, r6, r7, r8, r9, r10, fp, lr}
  51              	.LCFI0:
  52              		.cfi_def_cfa_offset 36
  53              		.cfi_offset 4, -36
  54              		.cfi_offset 5, -32
  55              		.cfi_offset 6, -28
  56              		.cfi_offset 7, -24
  57              		.cfi_offset 8, -20
  58              		.cfi_offset 9, -16
  59              		.cfi_offset 10, -12
  60              		.cfi_offset 11, -8
  61              		.cfi_offset 14, -4
  62              		.loc 1 82 25 view .LVU9
  63 0004 7B4D     		ldr	r5, .L25
  71:D:/fchai/work/i-cube/I-CUBE-HUAWEI/Middlewares/Third_Party/Huawei/iot_link/network/dtls/mbedtls/mbedtls-2.16.2/library\rsa_internal.c ****     int ret = 0;
  64              		.loc 1 71 1 view .LVU10
  65 0006 8446     		mov	ip, r0
  66 0008 8A46     		mov	r10, r1
  67 000a 1746     		mov	r7, r2
  68 000c 1E46     		mov	r6, r3
  69              		.loc 1 82 25 view .LVU11
  70 000e 0FCD     		ldmia	r5!, {r0, r1, r2, r3}
  71              	.LVL1:
  71:D:/fchai/work/i-cube/I-CUBE-HUAWEI/Middlewares/Third_Party/Huawei/iot_link/network/dtls/mbedtls/mbedtls-2.16.2/library\rsa_internal.c ****     int ret = 0;
  72              		.loc 1 71 1 view .LVU12
  73 0010 97B0     		sub	sp, sp, #92
  74              	.LCFI1:
  75              		.cfi_def_cfa_offset 128
  76              		.loc 1 82 25 view .LVU13
ARM GAS  T:\msys\tmp\cc3UYpAk.s 			page 4


  77 0012 0DF12009 		add	r9, sp, #32
  78 0016 4C46     		mov	r4, r9
  79 0018 0FC4     		stmia	r4!, {r0, r1, r2, r3}
  80 001a 0FCD     		ldmia	r5!, {r0, r1, r2, r3}
  81 001c 0FC4     		stmia	r4!, {r0, r1, r2, r3}
  82 001e 0FCD     		ldmia	r5!, {r0, r1, r2, r3}
  83 0020 0FC4     		stmia	r4!, {r0, r1, r2, r3}
  84 0022 95E80300 		ldm	r5, {r0, r1}
  85 0026 44F8040B 		str	r0, [r4], #4
  71:D:/fchai/work/i-cube/I-CUBE-HUAWEI/Middlewares/Third_Party/Huawei/iot_link/network/dtls/mbedtls/mbedtls-2.16.2/library\rsa_internal.c ****     int ret = 0;
  86              		.loc 1 71 1 view .LVU14
  87 002a DDF88080 		ldr	r8, [sp, #128]
  88              		.loc 1 82 25 view .LVU15
  89 002e 2180     		strh	r1, [r4]	@ movhi
  83:D:/fchai/work/i-cube/I-CUBE-HUAWEI/Middlewares/Third_Party/Huawei/iot_link/network/dtls/mbedtls/mbedtls-2.16.2/library\rsa_internal.c ****            3,    5,    7,   11,   13,   17,   19,   23,
  84:D:/fchai/work/i-cube/I-CUBE-HUAWEI/Middlewares/Third_Party/Huawei/iot_link/network/dtls/mbedtls/mbedtls-2.16.2/library\rsa_internal.c ****           29,   31,   37,   41,   43,   47,   53,   59,
  85:D:/fchai/work/i-cube/I-CUBE-HUAWEI/Middlewares/Third_Party/Huawei/iot_link/network/dtls/mbedtls/mbedtls-2.16.2/library\rsa_internal.c ****           61,   67,   71,   73,   79,   83,   89,   97,
  86:D:/fchai/work/i-cube/I-CUBE-HUAWEI/Middlewares/Third_Party/Huawei/iot_link/network/dtls/mbedtls/mbedtls-2.16.2/library\rsa_internal.c ****          101,  103,  107,  109,  113,  127,  131,  137,
  87:D:/fchai/work/i-cube/I-CUBE-HUAWEI/Middlewares/Third_Party/Huawei/iot_link/network/dtls/mbedtls/mbedtls-2.16.2/library\rsa_internal.c ****          139,  149,  151,  157,  163,  167,  173,  179,
  88:D:/fchai/work/i-cube/I-CUBE-HUAWEI/Middlewares/Third_Party/Huawei/iot_link/network/dtls/mbedtls/mbedtls-2.16.2/library\rsa_internal.c ****          181,  191,  193,  197,  199,  211,  223,  227,
  89:D:/fchai/work/i-cube/I-CUBE-HUAWEI/Middlewares/Third_Party/Huawei/iot_link/network/dtls/mbedtls/mbedtls-2.16.2/library\rsa_internal.c ****          229,  233,  239,  241,  251
  90:D:/fchai/work/i-cube/I-CUBE-HUAWEI/Middlewares/Third_Party/Huawei/iot_link/network/dtls/mbedtls/mbedtls-2.16.2/library\rsa_internal.c ****     };
  91:D:/fchai/work/i-cube/I-CUBE-HUAWEI/Middlewares/Third_Party/Huawei/iot_link/network/dtls/mbedtls/mbedtls-2.16.2/library\rsa_internal.c **** 
  92:D:/fchai/work/i-cube/I-CUBE-HUAWEI/Middlewares/Third_Party/Huawei/iot_link/network/dtls/mbedtls/mbedtls-2.16.2/library\rsa_internal.c ****     const size_t num_primes = sizeof( primes ) / sizeof( *primes );
  90              		.loc 1 92 5 is_stmt 1 view .LVU16
  91              	.LVL2:
  93:D:/fchai/work/i-cube/I-CUBE-HUAWEI/Middlewares/Third_Party/Huawei/iot_link/network/dtls/mbedtls/mbedtls-2.16.2/library\rsa_internal.c **** 
  94:D:/fchai/work/i-cube/I-CUBE-HUAWEI/Middlewares/Third_Party/Huawei/iot_link/network/dtls/mbedtls/mbedtls-2.16.2/library\rsa_internal.c ****     if( P == NULL || Q == NULL || P->p != NULL || Q->p != NULL )
  92              		.loc 1 94 5 view .LVU17
  93              		.loc 1 94 7 is_stmt 0 view .LVU18
  94 0030 002E     		cmp	r6, #0
  95 0032 51D0     		beq	.L4
  96              		.loc 1 94 19 discriminator 1 view .LVU19
  97 0034 B8F1000F 		cmp	r8, #0
  98 0038 4ED0     		beq	.L4
  99              		.loc 1 94 32 discriminator 2 view .LVU20
 100 003a B368     		ldr	r3, [r6, #8]
 101 003c 002B     		cmp	r3, #0
 102 003e 4BD1     		bne	.L4
 103              		.loc 1 94 48 discriminator 3 view .LVU21
 104 0040 D8F80810 		ldr	r1, [r8, #8]
 105 0044 0029     		cmp	r1, #0
 106 0046 47D1     		bne	.L4
  95:D:/fchai/work/i-cube/I-CUBE-HUAWEI/Middlewares/Third_Party/Huawei/iot_link/network/dtls/mbedtls/mbedtls-2.16.2/library\rsa_internal.c ****         return( MBEDTLS_ERR_MPI_BAD_INPUT_DATA );
  96:D:/fchai/work/i-cube/I-CUBE-HUAWEI/Middlewares/Third_Party/Huawei/iot_link/network/dtls/mbedtls/mbedtls-2.16.2/library\rsa_internal.c **** 
  97:D:/fchai/work/i-cube/I-CUBE-HUAWEI/Middlewares/Third_Party/Huawei/iot_link/network/dtls/mbedtls/mbedtls-2.16.2/library\rsa_internal.c ****     if( mbedtls_mpi_cmp_int( N, 0 ) <= 0 ||
 107              		.loc 1 97 5 is_stmt 1 view .LVU22
 108              		.loc 1 97 9 is_stmt 0 view .LVU23
 109 0048 6046     		mov	r0, ip
 110 004a 6546     		mov	r5, ip
 111 004c FFF7FEFF 		bl	mbedtls_mpi_cmp_int
 112              	.LVL3:
 113              		.loc 1 97 7 view .LVU24
 114 0050 0028     		cmp	r0, #0
 115 0052 41DD     		ble	.L4
  98:D:/fchai/work/i-cube/I-CUBE-HUAWEI/Middlewares/Third_Party/Huawei/iot_link/network/dtls/mbedtls/mbedtls-2.16.2/library\rsa_internal.c ****         mbedtls_mpi_cmp_int( D, 1 ) <= 0 ||
 116              		.loc 1 98 9 discriminator 1 view .LVU25
ARM GAS  T:\msys\tmp\cc3UYpAk.s 			page 5


 117 0054 0121     		movs	r1, #1
 118 0056 3846     		mov	r0, r7
 119 0058 FFF7FEFF 		bl	mbedtls_mpi_cmp_int
 120              	.LVL4:
  97:D:/fchai/work/i-cube/I-CUBE-HUAWEI/Middlewares/Third_Party/Huawei/iot_link/network/dtls/mbedtls/mbedtls-2.16.2/library\rsa_internal.c ****         mbedtls_mpi_cmp_int( D, 1 ) <= 0 ||
 121              		.loc 1 97 42 discriminator 1 view .LVU26
 122 005c 0028     		cmp	r0, #0
 123 005e 3BDD     		ble	.L4
  99:D:/fchai/work/i-cube/I-CUBE-HUAWEI/Middlewares/Third_Party/Huawei/iot_link/network/dtls/mbedtls/mbedtls-2.16.2/library\rsa_internal.c ****         mbedtls_mpi_cmp_mpi( D, N ) >= 0 ||
 124              		.loc 1 99 9 view .LVU27
 125 0060 2946     		mov	r1, r5
 126 0062 3846     		mov	r0, r7
 127 0064 FFF7FEFF 		bl	mbedtls_mpi_cmp_mpi
 128              	.LVL5:
  98:D:/fchai/work/i-cube/I-CUBE-HUAWEI/Middlewares/Third_Party/Huawei/iot_link/network/dtls/mbedtls/mbedtls-2.16.2/library\rsa_internal.c ****         mbedtls_mpi_cmp_int( D, 1 ) <= 0 ||
 129              		.loc 1 98 42 view .LVU28
 130 0068 0028     		cmp	r0, #0
 131 006a 35DA     		bge	.L4
 100:D:/fchai/work/i-cube/I-CUBE-HUAWEI/Middlewares/Third_Party/Huawei/iot_link/network/dtls/mbedtls/mbedtls-2.16.2/library\rsa_internal.c ****         mbedtls_mpi_cmp_int( E, 1 ) <= 0 ||
 132              		.loc 1 100 9 view .LVU29
 133 006c 0121     		movs	r1, #1
 134 006e 5046     		mov	r0, r10
 135 0070 FFF7FEFF 		bl	mbedtls_mpi_cmp_int
 136              	.LVL6:
  99:D:/fchai/work/i-cube/I-CUBE-HUAWEI/Middlewares/Third_Party/Huawei/iot_link/network/dtls/mbedtls/mbedtls-2.16.2/library\rsa_internal.c ****         mbedtls_mpi_cmp_mpi( D, N ) >= 0 ||
 137              		.loc 1 99 42 view .LVU30
 138 0074 0028     		cmp	r0, #0
 139 0076 2FDD     		ble	.L4
 101:D:/fchai/work/i-cube/I-CUBE-HUAWEI/Middlewares/Third_Party/Huawei/iot_link/network/dtls/mbedtls/mbedtls-2.16.2/library\rsa_internal.c ****         mbedtls_mpi_cmp_mpi( E, N ) >= 0 )
 140              		.loc 1 101 9 view .LVU31
 141 0078 2946     		mov	r1, r5
 142 007a 5046     		mov	r0, r10
 143 007c FFF7FEFF 		bl	mbedtls_mpi_cmp_mpi
 144              	.LVL7:
 100:D:/fchai/work/i-cube/I-CUBE-HUAWEI/Middlewares/Third_Party/Huawei/iot_link/network/dtls/mbedtls/mbedtls-2.16.2/library\rsa_internal.c ****         mbedtls_mpi_cmp_int( E, 1 ) <= 0 ||
 145              		.loc 1 100 42 view .LVU32
 146 0080 0028     		cmp	r0, #0
 147 0082 29DA     		bge	.L4
 102:D:/fchai/work/i-cube/I-CUBE-HUAWEI/Middlewares/Third_Party/Huawei/iot_link/network/dtls/mbedtls/mbedtls-2.16.2/library\rsa_internal.c ****     {
 103:D:/fchai/work/i-cube/I-CUBE-HUAWEI/Middlewares/Third_Party/Huawei/iot_link/network/dtls/mbedtls/mbedtls-2.16.2/library\rsa_internal.c ****         return( MBEDTLS_ERR_MPI_BAD_INPUT_DATA );
 104:D:/fchai/work/i-cube/I-CUBE-HUAWEI/Middlewares/Third_Party/Huawei/iot_link/network/dtls/mbedtls/mbedtls-2.16.2/library\rsa_internal.c ****     }
 105:D:/fchai/work/i-cube/I-CUBE-HUAWEI/Middlewares/Third_Party/Huawei/iot_link/network/dtls/mbedtls/mbedtls-2.16.2/library\rsa_internal.c **** 
 106:D:/fchai/work/i-cube/I-CUBE-HUAWEI/Middlewares/Third_Party/Huawei/iot_link/network/dtls/mbedtls/mbedtls-2.16.2/library\rsa_internal.c ****     /*
 107:D:/fchai/work/i-cube/I-CUBE-HUAWEI/Middlewares/Third_Party/Huawei/iot_link/network/dtls/mbedtls/mbedtls-2.16.2/library\rsa_internal.c ****      * Initializations and temporary changes
 108:D:/fchai/work/i-cube/I-CUBE-HUAWEI/Middlewares/Third_Party/Huawei/iot_link/network/dtls/mbedtls/mbedtls-2.16.2/library\rsa_internal.c ****      */
 109:D:/fchai/work/i-cube/I-CUBE-HUAWEI/Middlewares/Third_Party/Huawei/iot_link/network/dtls/mbedtls/mbedtls-2.16.2/library\rsa_internal.c **** 
 110:D:/fchai/work/i-cube/I-CUBE-HUAWEI/Middlewares/Third_Party/Huawei/iot_link/network/dtls/mbedtls/mbedtls-2.16.2/library\rsa_internal.c ****     mbedtls_mpi_init( &K );
 148              		.loc 1 110 5 is_stmt 1 view .LVU33
 149 0084 05A8     		add	r0, sp, #20
 150 0086 FFF7FEFF 		bl	mbedtls_mpi_init
 151              	.LVL8:
 111:D:/fchai/work/i-cube/I-CUBE-HUAWEI/Middlewares/Third_Party/Huawei/iot_link/network/dtls/mbedtls/mbedtls-2.16.2/library\rsa_internal.c ****     mbedtls_mpi_init( &T );
 152              		.loc 1 111 5 view .LVU34
 153 008a 02A8     		add	r0, sp, #8
 154 008c FFF7FEFF 		bl	mbedtls_mpi_init
 155              	.LVL9:
 112:D:/fchai/work/i-cube/I-CUBE-HUAWEI/Middlewares/Third_Party/Huawei/iot_link/network/dtls/mbedtls/mbedtls-2.16.2/library\rsa_internal.c **** 
ARM GAS  T:\msys\tmp\cc3UYpAk.s 			page 6


 113:D:/fchai/work/i-cube/I-CUBE-HUAWEI/Middlewares/Third_Party/Huawei/iot_link/network/dtls/mbedtls/mbedtls-2.16.2/library\rsa_internal.c ****     /* T := DE - 1 */
 114:D:/fchai/work/i-cube/I-CUBE-HUAWEI/Middlewares/Third_Party/Huawei/iot_link/network/dtls/mbedtls/mbedtls-2.16.2/library\rsa_internal.c ****     MBEDTLS_MPI_CHK( mbedtls_mpi_mul_mpi( &T, D,  E ) );
 156              		.loc 1 114 5 view .LVU35
 157              		.loc 1 114 5 view .LVU36
 158 0090 5246     		mov	r2, r10
 159 0092 3946     		mov	r1, r7
 160 0094 02A8     		add	r0, sp, #8
 161 0096 FFF7FEFF 		bl	mbedtls_mpi_mul_mpi
 162              	.LVL10:
 163              		.loc 1 114 5 is_stmt 0 view .LVU37
 164 009a 0446     		mov	r4, r0
 165 009c 48B1     		cbz	r0, .L24
 166              	.LVL11:
 167              	.L5:
 115:D:/fchai/work/i-cube/I-CUBE-HUAWEI/Middlewares/Third_Party/Huawei/iot_link/network/dtls/mbedtls/mbedtls-2.16.2/library\rsa_internal.c ****     MBEDTLS_MPI_CHK( mbedtls_mpi_sub_int( &T, &T, 1 ) );
 116:D:/fchai/work/i-cube/I-CUBE-HUAWEI/Middlewares/Third_Party/Huawei/iot_link/network/dtls/mbedtls/mbedtls-2.16.2/library\rsa_internal.c **** 
 117:D:/fchai/work/i-cube/I-CUBE-HUAWEI/Middlewares/Third_Party/Huawei/iot_link/network/dtls/mbedtls/mbedtls-2.16.2/library\rsa_internal.c ****     if( ( order = (uint16_t) mbedtls_mpi_lsb( &T ) ) == 0 )
 118:D:/fchai/work/i-cube/I-CUBE-HUAWEI/Middlewares/Third_Party/Huawei/iot_link/network/dtls/mbedtls/mbedtls-2.16.2/library\rsa_internal.c ****     {
 119:D:/fchai/work/i-cube/I-CUBE-HUAWEI/Middlewares/Third_Party/Huawei/iot_link/network/dtls/mbedtls/mbedtls-2.16.2/library\rsa_internal.c ****         ret = MBEDTLS_ERR_MPI_BAD_INPUT_DATA;
 120:D:/fchai/work/i-cube/I-CUBE-HUAWEI/Middlewares/Third_Party/Huawei/iot_link/network/dtls/mbedtls/mbedtls-2.16.2/library\rsa_internal.c ****         goto cleanup;
 121:D:/fchai/work/i-cube/I-CUBE-HUAWEI/Middlewares/Third_Party/Huawei/iot_link/network/dtls/mbedtls/mbedtls-2.16.2/library\rsa_internal.c ****     }
 122:D:/fchai/work/i-cube/I-CUBE-HUAWEI/Middlewares/Third_Party/Huawei/iot_link/network/dtls/mbedtls/mbedtls-2.16.2/library\rsa_internal.c **** 
 123:D:/fchai/work/i-cube/I-CUBE-HUAWEI/Middlewares/Third_Party/Huawei/iot_link/network/dtls/mbedtls/mbedtls-2.16.2/library\rsa_internal.c ****     /* After this operation, T holds the largest odd divisor of DE - 1. */
 124:D:/fchai/work/i-cube/I-CUBE-HUAWEI/Middlewares/Third_Party/Huawei/iot_link/network/dtls/mbedtls/mbedtls-2.16.2/library\rsa_internal.c ****     MBEDTLS_MPI_CHK( mbedtls_mpi_shift_r( &T, order ) );
 125:D:/fchai/work/i-cube/I-CUBE-HUAWEI/Middlewares/Third_Party/Huawei/iot_link/network/dtls/mbedtls/mbedtls-2.16.2/library\rsa_internal.c **** 
 126:D:/fchai/work/i-cube/I-CUBE-HUAWEI/Middlewares/Third_Party/Huawei/iot_link/network/dtls/mbedtls/mbedtls-2.16.2/library\rsa_internal.c ****     /*
 127:D:/fchai/work/i-cube/I-CUBE-HUAWEI/Middlewares/Third_Party/Huawei/iot_link/network/dtls/mbedtls/mbedtls-2.16.2/library\rsa_internal.c ****      * Actual work
 128:D:/fchai/work/i-cube/I-CUBE-HUAWEI/Middlewares/Third_Party/Huawei/iot_link/network/dtls/mbedtls/mbedtls-2.16.2/library\rsa_internal.c ****      */
 129:D:/fchai/work/i-cube/I-CUBE-HUAWEI/Middlewares/Third_Party/Huawei/iot_link/network/dtls/mbedtls/mbedtls-2.16.2/library\rsa_internal.c **** 
 130:D:/fchai/work/i-cube/I-CUBE-HUAWEI/Middlewares/Third_Party/Huawei/iot_link/network/dtls/mbedtls/mbedtls-2.16.2/library\rsa_internal.c ****     /* Skip trying 2 if N == 1 mod 8 */
 131:D:/fchai/work/i-cube/I-CUBE-HUAWEI/Middlewares/Third_Party/Huawei/iot_link/network/dtls/mbedtls/mbedtls-2.16.2/library\rsa_internal.c ****     attempt = 0;
 132:D:/fchai/work/i-cube/I-CUBE-HUAWEI/Middlewares/Third_Party/Huawei/iot_link/network/dtls/mbedtls/mbedtls-2.16.2/library\rsa_internal.c ****     if( N->p[0] % 8 == 1 )
 133:D:/fchai/work/i-cube/I-CUBE-HUAWEI/Middlewares/Third_Party/Huawei/iot_link/network/dtls/mbedtls/mbedtls-2.16.2/library\rsa_internal.c ****         attempt = 1;
 134:D:/fchai/work/i-cube/I-CUBE-HUAWEI/Middlewares/Third_Party/Huawei/iot_link/network/dtls/mbedtls/mbedtls-2.16.2/library\rsa_internal.c **** 
 135:D:/fchai/work/i-cube/I-CUBE-HUAWEI/Middlewares/Third_Party/Huawei/iot_link/network/dtls/mbedtls/mbedtls-2.16.2/library\rsa_internal.c ****     for( ; attempt < num_primes; ++attempt )
 136:D:/fchai/work/i-cube/I-CUBE-HUAWEI/Middlewares/Third_Party/Huawei/iot_link/network/dtls/mbedtls/mbedtls-2.16.2/library\rsa_internal.c ****     {
 137:D:/fchai/work/i-cube/I-CUBE-HUAWEI/Middlewares/Third_Party/Huawei/iot_link/network/dtls/mbedtls/mbedtls-2.16.2/library\rsa_internal.c ****         mbedtls_mpi_lset( &K, primes[attempt] );
 138:D:/fchai/work/i-cube/I-CUBE-HUAWEI/Middlewares/Third_Party/Huawei/iot_link/network/dtls/mbedtls/mbedtls-2.16.2/library\rsa_internal.c **** 
 139:D:/fchai/work/i-cube/I-CUBE-HUAWEI/Middlewares/Third_Party/Huawei/iot_link/network/dtls/mbedtls/mbedtls-2.16.2/library\rsa_internal.c ****         /* Check if gcd(K,N) = 1 */
 140:D:/fchai/work/i-cube/I-CUBE-HUAWEI/Middlewares/Third_Party/Huawei/iot_link/network/dtls/mbedtls/mbedtls-2.16.2/library\rsa_internal.c ****         MBEDTLS_MPI_CHK( mbedtls_mpi_gcd( P, &K, N ) );
 141:D:/fchai/work/i-cube/I-CUBE-HUAWEI/Middlewares/Third_Party/Huawei/iot_link/network/dtls/mbedtls/mbedtls-2.16.2/library\rsa_internal.c ****         if( mbedtls_mpi_cmp_int( P, 1 ) != 0 )
 142:D:/fchai/work/i-cube/I-CUBE-HUAWEI/Middlewares/Third_Party/Huawei/iot_link/network/dtls/mbedtls/mbedtls-2.16.2/library\rsa_internal.c ****             continue;
 143:D:/fchai/work/i-cube/I-CUBE-HUAWEI/Middlewares/Third_Party/Huawei/iot_link/network/dtls/mbedtls/mbedtls-2.16.2/library\rsa_internal.c **** 
 144:D:/fchai/work/i-cube/I-CUBE-HUAWEI/Middlewares/Third_Party/Huawei/iot_link/network/dtls/mbedtls/mbedtls-2.16.2/library\rsa_internal.c ****         /* Go through K^T + 1, K^(2T) + 1, K^(4T) + 1, ...
 145:D:/fchai/work/i-cube/I-CUBE-HUAWEI/Middlewares/Third_Party/Huawei/iot_link/network/dtls/mbedtls/mbedtls-2.16.2/library\rsa_internal.c ****          * and check whether they have nontrivial GCD with N. */
 146:D:/fchai/work/i-cube/I-CUBE-HUAWEI/Middlewares/Third_Party/Huawei/iot_link/network/dtls/mbedtls/mbedtls-2.16.2/library\rsa_internal.c ****         MBEDTLS_MPI_CHK( mbedtls_mpi_exp_mod( &K, &K, &T, N,
 147:D:/fchai/work/i-cube/I-CUBE-HUAWEI/Middlewares/Third_Party/Huawei/iot_link/network/dtls/mbedtls/mbedtls-2.16.2/library\rsa_internal.c ****                              Q /* temporarily use Q for storing Montgomery
 148:D:/fchai/work/i-cube/I-CUBE-HUAWEI/Middlewares/Third_Party/Huawei/iot_link/network/dtls/mbedtls/mbedtls-2.16.2/library\rsa_internal.c ****                                 * multiplication helper values */ ) );
 149:D:/fchai/work/i-cube/I-CUBE-HUAWEI/Middlewares/Third_Party/Huawei/iot_link/network/dtls/mbedtls/mbedtls-2.16.2/library\rsa_internal.c **** 
 150:D:/fchai/work/i-cube/I-CUBE-HUAWEI/Middlewares/Third_Party/Huawei/iot_link/network/dtls/mbedtls/mbedtls-2.16.2/library\rsa_internal.c ****         for( iter = 1; iter <= order; ++iter )
 151:D:/fchai/work/i-cube/I-CUBE-HUAWEI/Middlewares/Third_Party/Huawei/iot_link/network/dtls/mbedtls/mbedtls-2.16.2/library\rsa_internal.c ****         {
 152:D:/fchai/work/i-cube/I-CUBE-HUAWEI/Middlewares/Third_Party/Huawei/iot_link/network/dtls/mbedtls/mbedtls-2.16.2/library\rsa_internal.c ****             /* If we reach 1 prematurely, there's no point
 153:D:/fchai/work/i-cube/I-CUBE-HUAWEI/Middlewares/Third_Party/Huawei/iot_link/network/dtls/mbedtls/mbedtls-2.16.2/library\rsa_internal.c ****              * in continuing to square K */
 154:D:/fchai/work/i-cube/I-CUBE-HUAWEI/Middlewares/Third_Party/Huawei/iot_link/network/dtls/mbedtls/mbedtls-2.16.2/library\rsa_internal.c ****             if( mbedtls_mpi_cmp_int( &K, 1 ) == 0 )
 155:D:/fchai/work/i-cube/I-CUBE-HUAWEI/Middlewares/Third_Party/Huawei/iot_link/network/dtls/mbedtls/mbedtls-2.16.2/library\rsa_internal.c ****                 break;
 156:D:/fchai/work/i-cube/I-CUBE-HUAWEI/Middlewares/Third_Party/Huawei/iot_link/network/dtls/mbedtls/mbedtls-2.16.2/library\rsa_internal.c **** 
 157:D:/fchai/work/i-cube/I-CUBE-HUAWEI/Middlewares/Third_Party/Huawei/iot_link/network/dtls/mbedtls/mbedtls-2.16.2/library\rsa_internal.c ****             MBEDTLS_MPI_CHK( mbedtls_mpi_add_int( &K, &K, 1 ) );
ARM GAS  T:\msys\tmp\cc3UYpAk.s 			page 7


 158:D:/fchai/work/i-cube/I-CUBE-HUAWEI/Middlewares/Third_Party/Huawei/iot_link/network/dtls/mbedtls/mbedtls-2.16.2/library\rsa_internal.c ****             MBEDTLS_MPI_CHK( mbedtls_mpi_gcd( P, &K, N ) );
 159:D:/fchai/work/i-cube/I-CUBE-HUAWEI/Middlewares/Third_Party/Huawei/iot_link/network/dtls/mbedtls/mbedtls-2.16.2/library\rsa_internal.c **** 
 160:D:/fchai/work/i-cube/I-CUBE-HUAWEI/Middlewares/Third_Party/Huawei/iot_link/network/dtls/mbedtls/mbedtls-2.16.2/library\rsa_internal.c ****             if( mbedtls_mpi_cmp_int( P, 1 ) ==  1 &&
 161:D:/fchai/work/i-cube/I-CUBE-HUAWEI/Middlewares/Third_Party/Huawei/iot_link/network/dtls/mbedtls/mbedtls-2.16.2/library\rsa_internal.c ****                 mbedtls_mpi_cmp_mpi( P, N ) == -1 )
 162:D:/fchai/work/i-cube/I-CUBE-HUAWEI/Middlewares/Third_Party/Huawei/iot_link/network/dtls/mbedtls/mbedtls-2.16.2/library\rsa_internal.c ****             {
 163:D:/fchai/work/i-cube/I-CUBE-HUAWEI/Middlewares/Third_Party/Huawei/iot_link/network/dtls/mbedtls/mbedtls-2.16.2/library\rsa_internal.c ****                 /*
 164:D:/fchai/work/i-cube/I-CUBE-HUAWEI/Middlewares/Third_Party/Huawei/iot_link/network/dtls/mbedtls/mbedtls-2.16.2/library\rsa_internal.c ****                  * Have found a nontrivial divisor P of N.
 165:D:/fchai/work/i-cube/I-CUBE-HUAWEI/Middlewares/Third_Party/Huawei/iot_link/network/dtls/mbedtls/mbedtls-2.16.2/library\rsa_internal.c ****                  * Set Q := N / P.
 166:D:/fchai/work/i-cube/I-CUBE-HUAWEI/Middlewares/Third_Party/Huawei/iot_link/network/dtls/mbedtls/mbedtls-2.16.2/library\rsa_internal.c ****                  */
 167:D:/fchai/work/i-cube/I-CUBE-HUAWEI/Middlewares/Third_Party/Huawei/iot_link/network/dtls/mbedtls/mbedtls-2.16.2/library\rsa_internal.c **** 
 168:D:/fchai/work/i-cube/I-CUBE-HUAWEI/Middlewares/Third_Party/Huawei/iot_link/network/dtls/mbedtls/mbedtls-2.16.2/library\rsa_internal.c ****                 MBEDTLS_MPI_CHK( mbedtls_mpi_div_mpi( Q, NULL, N, P ) );
 169:D:/fchai/work/i-cube/I-CUBE-HUAWEI/Middlewares/Third_Party/Huawei/iot_link/network/dtls/mbedtls/mbedtls-2.16.2/library\rsa_internal.c ****                 goto cleanup;
 170:D:/fchai/work/i-cube/I-CUBE-HUAWEI/Middlewares/Third_Party/Huawei/iot_link/network/dtls/mbedtls/mbedtls-2.16.2/library\rsa_internal.c ****             }
 171:D:/fchai/work/i-cube/I-CUBE-HUAWEI/Middlewares/Third_Party/Huawei/iot_link/network/dtls/mbedtls/mbedtls-2.16.2/library\rsa_internal.c **** 
 172:D:/fchai/work/i-cube/I-CUBE-HUAWEI/Middlewares/Third_Party/Huawei/iot_link/network/dtls/mbedtls/mbedtls-2.16.2/library\rsa_internal.c ****             MBEDTLS_MPI_CHK( mbedtls_mpi_sub_int( &K, &K, 1 ) );
 173:D:/fchai/work/i-cube/I-CUBE-HUAWEI/Middlewares/Third_Party/Huawei/iot_link/network/dtls/mbedtls/mbedtls-2.16.2/library\rsa_internal.c ****             MBEDTLS_MPI_CHK( mbedtls_mpi_mul_mpi( &K, &K, &K ) );
 174:D:/fchai/work/i-cube/I-CUBE-HUAWEI/Middlewares/Third_Party/Huawei/iot_link/network/dtls/mbedtls/mbedtls-2.16.2/library\rsa_internal.c ****             MBEDTLS_MPI_CHK( mbedtls_mpi_mod_mpi( &K, &K, N ) );
 175:D:/fchai/work/i-cube/I-CUBE-HUAWEI/Middlewares/Third_Party/Huawei/iot_link/network/dtls/mbedtls/mbedtls-2.16.2/library\rsa_internal.c ****         }
 176:D:/fchai/work/i-cube/I-CUBE-HUAWEI/Middlewares/Third_Party/Huawei/iot_link/network/dtls/mbedtls/mbedtls-2.16.2/library\rsa_internal.c **** 
 177:D:/fchai/work/i-cube/I-CUBE-HUAWEI/Middlewares/Third_Party/Huawei/iot_link/network/dtls/mbedtls/mbedtls-2.16.2/library\rsa_internal.c ****         /*
 178:D:/fchai/work/i-cube/I-CUBE-HUAWEI/Middlewares/Third_Party/Huawei/iot_link/network/dtls/mbedtls/mbedtls-2.16.2/library\rsa_internal.c ****          * If we get here, then either we prematurely aborted the loop because
 179:D:/fchai/work/i-cube/I-CUBE-HUAWEI/Middlewares/Third_Party/Huawei/iot_link/network/dtls/mbedtls/mbedtls-2.16.2/library\rsa_internal.c ****          * we reached 1, or K holds primes[attempt]^(DE - 1) mod N, which must
 180:D:/fchai/work/i-cube/I-CUBE-HUAWEI/Middlewares/Third_Party/Huawei/iot_link/network/dtls/mbedtls/mbedtls-2.16.2/library\rsa_internal.c ****          * be 1 if D,E,N were consistent.
 181:D:/fchai/work/i-cube/I-CUBE-HUAWEI/Middlewares/Third_Party/Huawei/iot_link/network/dtls/mbedtls/mbedtls-2.16.2/library\rsa_internal.c ****          * Check if that's the case and abort if not, to avoid very long,
 182:D:/fchai/work/i-cube/I-CUBE-HUAWEI/Middlewares/Third_Party/Huawei/iot_link/network/dtls/mbedtls/mbedtls-2.16.2/library\rsa_internal.c ****          * yet eventually failing, computations if N,D,E were not sane.
 183:D:/fchai/work/i-cube/I-CUBE-HUAWEI/Middlewares/Third_Party/Huawei/iot_link/network/dtls/mbedtls/mbedtls-2.16.2/library\rsa_internal.c ****          */
 184:D:/fchai/work/i-cube/I-CUBE-HUAWEI/Middlewares/Third_Party/Huawei/iot_link/network/dtls/mbedtls/mbedtls-2.16.2/library\rsa_internal.c ****         if( mbedtls_mpi_cmp_int( &K, 1 ) != 0 )
 185:D:/fchai/work/i-cube/I-CUBE-HUAWEI/Middlewares/Third_Party/Huawei/iot_link/network/dtls/mbedtls/mbedtls-2.16.2/library\rsa_internal.c ****         {
 186:D:/fchai/work/i-cube/I-CUBE-HUAWEI/Middlewares/Third_Party/Huawei/iot_link/network/dtls/mbedtls/mbedtls-2.16.2/library\rsa_internal.c ****             break;
 187:D:/fchai/work/i-cube/I-CUBE-HUAWEI/Middlewares/Third_Party/Huawei/iot_link/network/dtls/mbedtls/mbedtls-2.16.2/library\rsa_internal.c ****         }
 188:D:/fchai/work/i-cube/I-CUBE-HUAWEI/Middlewares/Third_Party/Huawei/iot_link/network/dtls/mbedtls/mbedtls-2.16.2/library\rsa_internal.c ****     }
 189:D:/fchai/work/i-cube/I-CUBE-HUAWEI/Middlewares/Third_Party/Huawei/iot_link/network/dtls/mbedtls/mbedtls-2.16.2/library\rsa_internal.c **** 
 190:D:/fchai/work/i-cube/I-CUBE-HUAWEI/Middlewares/Third_Party/Huawei/iot_link/network/dtls/mbedtls/mbedtls-2.16.2/library\rsa_internal.c ****     ret = MBEDTLS_ERR_MPI_BAD_INPUT_DATA;
 191:D:/fchai/work/i-cube/I-CUBE-HUAWEI/Middlewares/Third_Party/Huawei/iot_link/network/dtls/mbedtls/mbedtls-2.16.2/library\rsa_internal.c **** 
 192:D:/fchai/work/i-cube/I-CUBE-HUAWEI/Middlewares/Third_Party/Huawei/iot_link/network/dtls/mbedtls/mbedtls-2.16.2/library\rsa_internal.c **** cleanup:
 193:D:/fchai/work/i-cube/I-CUBE-HUAWEI/Middlewares/Third_Party/Huawei/iot_link/network/dtls/mbedtls/mbedtls-2.16.2/library\rsa_internal.c **** 
 194:D:/fchai/work/i-cube/I-CUBE-HUAWEI/Middlewares/Third_Party/Huawei/iot_link/network/dtls/mbedtls/mbedtls-2.16.2/library\rsa_internal.c ****     mbedtls_mpi_free( &K );
 168              		.loc 1 194 5 is_stmt 1 view .LVU38
 169 009e 05A8     		add	r0, sp, #20
 170 00a0 FFF7FEFF 		bl	mbedtls_mpi_free
 171              	.LVL12:
 195:D:/fchai/work/i-cube/I-CUBE-HUAWEI/Middlewares/Third_Party/Huawei/iot_link/network/dtls/mbedtls/mbedtls-2.16.2/library\rsa_internal.c ****     mbedtls_mpi_free( &T );
 172              		.loc 1 195 5 view .LVU39
 173 00a4 02A8     		add	r0, sp, #8
 174 00a6 FFF7FEFF 		bl	mbedtls_mpi_free
 175              	.LVL13:
 196:D:/fchai/work/i-cube/I-CUBE-HUAWEI/Middlewares/Third_Party/Huawei/iot_link/network/dtls/mbedtls/mbedtls-2.16.2/library\rsa_internal.c ****     return( ret );
 176              		.loc 1 196 5 view .LVU40
 197:D:/fchai/work/i-cube/I-CUBE-HUAWEI/Middlewares/Third_Party/Huawei/iot_link/network/dtls/mbedtls/mbedtls-2.16.2/library\rsa_internal.c **** }
 177              		.loc 1 197 1 is_stmt 0 view .LVU41
 178 00aa 2046     		mov	r0, r4
 179 00ac 17B0     		add	sp, sp, #92
 180              	.LCFI2:
 181              		.cfi_remember_state
 182              		.cfi_def_cfa_offset 36
 183              		@ sp needed
 184 00ae BDE8F08F 		pop	{r4, r5, r6, r7, r8, r9, r10, fp, pc}
ARM GAS  T:\msys\tmp\cc3UYpAk.s 			page 8


 185              	.LVL14:
 186              	.L24:
 187              	.LCFI3:
 188              		.cfi_restore_state
 114:D:/fchai/work/i-cube/I-CUBE-HUAWEI/Middlewares/Third_Party/Huawei/iot_link/network/dtls/mbedtls/mbedtls-2.16.2/library\rsa_internal.c ****     MBEDTLS_MPI_CHK( mbedtls_mpi_sub_int( &T, &T, 1 ) );
 189              		.loc 1 114 5 is_stmt 1 discriminator 2 view .LVU42
 115:D:/fchai/work/i-cube/I-CUBE-HUAWEI/Middlewares/Third_Party/Huawei/iot_link/network/dtls/mbedtls/mbedtls-2.16.2/library\rsa_internal.c **** 
 190              		.loc 1 115 5 discriminator 2 view .LVU43
 115:D:/fchai/work/i-cube/I-CUBE-HUAWEI/Middlewares/Third_Party/Huawei/iot_link/network/dtls/mbedtls/mbedtls-2.16.2/library\rsa_internal.c **** 
 191              		.loc 1 115 5 discriminator 2 view .LVU44
 192 00b2 02A9     		add	r1, sp, #8
 193 00b4 0122     		movs	r2, #1
 194 00b6 0846     		mov	r0, r1
 195              	.LVL15:
 115:D:/fchai/work/i-cube/I-CUBE-HUAWEI/Middlewares/Third_Party/Huawei/iot_link/network/dtls/mbedtls/mbedtls-2.16.2/library\rsa_internal.c **** 
 196              		.loc 1 115 5 is_stmt 0 discriminator 2 view .LVU45
 197 00b8 FFF7FEFF 		bl	mbedtls_mpi_sub_int
 198              	.LVL16:
 115:D:/fchai/work/i-cube/I-CUBE-HUAWEI/Middlewares/Third_Party/Huawei/iot_link/network/dtls/mbedtls/mbedtls-2.16.2/library\rsa_internal.c **** 
 199              		.loc 1 115 5 discriminator 2 view .LVU46
 200 00bc 0446     		mov	r4, r0
 201 00be 0028     		cmp	r0, #0
 202 00c0 EDD1     		bne	.L5
 115:D:/fchai/work/i-cube/I-CUBE-HUAWEI/Middlewares/Third_Party/Huawei/iot_link/network/dtls/mbedtls/mbedtls-2.16.2/library\rsa_internal.c **** 
 203              		.loc 1 115 5 is_stmt 1 discriminator 2 view .LVU47
 117:D:/fchai/work/i-cube/I-CUBE-HUAWEI/Middlewares/Third_Party/Huawei/iot_link/network/dtls/mbedtls/mbedtls-2.16.2/library\rsa_internal.c ****     {
 204              		.loc 1 117 5 discriminator 2 view .LVU48
 117:D:/fchai/work/i-cube/I-CUBE-HUAWEI/Middlewares/Third_Party/Huawei/iot_link/network/dtls/mbedtls/mbedtls-2.16.2/library\rsa_internal.c ****     {
 205              		.loc 1 117 30 is_stmt 0 discriminator 2 view .LVU49
 206 00c2 02A8     		add	r0, sp, #8
 207              	.LVL17:
 117:D:/fchai/work/i-cube/I-CUBE-HUAWEI/Middlewares/Third_Party/Huawei/iot_link/network/dtls/mbedtls/mbedtls-2.16.2/library\rsa_internal.c ****     {
 208              		.loc 1 117 30 discriminator 2 view .LVU50
 209 00c4 FFF7FEFF 		bl	mbedtls_mpi_lsb
 210              	.LVL18:
 117:D:/fchai/work/i-cube/I-CUBE-HUAWEI/Middlewares/Third_Party/Huawei/iot_link/network/dtls/mbedtls/mbedtls-2.16.2/library\rsa_internal.c ****     {
 211              		.loc 1 117 17 discriminator 2 view .LVU51
 212 00c8 1FFA80FB 		uxth	fp, r0
 213              	.LVL19:
 117:D:/fchai/work/i-cube/I-CUBE-HUAWEI/Middlewares/Third_Party/Huawei/iot_link/network/dtls/mbedtls/mbedtls-2.16.2/library\rsa_internal.c ****     {
 214              		.loc 1 117 7 discriminator 2 view .LVU52
 215 00cc BBF1000F 		cmp	fp, #0
 216 00d0 08D1     		bne	.L6
 217              	.LVL20:
 218              	.L9:
 119:D:/fchai/work/i-cube/I-CUBE-HUAWEI/Middlewares/Third_Party/Huawei/iot_link/network/dtls/mbedtls/mbedtls-2.16.2/library\rsa_internal.c ****         goto cleanup;
 219              		.loc 1 119 13 view .LVU53
 220 00d2 6FF00304 		mvn	r4, #3
 221              	.LVL21:
 119:D:/fchai/work/i-cube/I-CUBE-HUAWEI/Middlewares/Third_Party/Huawei/iot_link/network/dtls/mbedtls/mbedtls-2.16.2/library\rsa_internal.c ****         goto cleanup;
 222              		.loc 1 119 13 view .LVU54
 223 00d6 E2E7     		b	.L5
 224              	.LVL22:
 225              	.L4:
  95:D:/fchai/work/i-cube/I-CUBE-HUAWEI/Middlewares/Third_Party/Huawei/iot_link/network/dtls/mbedtls/mbedtls-2.16.2/library\rsa_internal.c **** 
 226              		.loc 1 95 15 view .LVU55
 227 00d8 6FF00304 		mvn	r4, #3
ARM GAS  T:\msys\tmp\cc3UYpAk.s 			page 9


 228              		.loc 1 197 1 view .LVU56
 229 00dc 2046     		mov	r0, r4
 230 00de 17B0     		add	sp, sp, #92
 231              	.LCFI4:
 232              		.cfi_remember_state
 233              		.cfi_def_cfa_offset 36
 234              		@ sp needed
 235 00e0 BDE8F08F 		pop	{r4, r5, r6, r7, r8, r9, r10, fp, pc}
 236              	.LVL23:
 237              	.L6:
 238              	.LCFI5:
 239              		.cfi_restore_state
 124:D:/fchai/work/i-cube/I-CUBE-HUAWEI/Middlewares/Third_Party/Huawei/iot_link/network/dtls/mbedtls/mbedtls-2.16.2/library\rsa_internal.c **** 
 240              		.loc 1 124 5 is_stmt 1 view .LVU57
 124:D:/fchai/work/i-cube/I-CUBE-HUAWEI/Middlewares/Third_Party/Huawei/iot_link/network/dtls/mbedtls/mbedtls-2.16.2/library\rsa_internal.c **** 
 241              		.loc 1 124 5 view .LVU58
 242 00e4 81B2     		uxth	r1, r0
 243 00e6 02A8     		add	r0, sp, #8
 244 00e8 FFF7FEFF 		bl	mbedtls_mpi_shift_r
 245              	.LVL24:
 124:D:/fchai/work/i-cube/I-CUBE-HUAWEI/Middlewares/Third_Party/Huawei/iot_link/network/dtls/mbedtls/mbedtls-2.16.2/library\rsa_internal.c **** 
 246              		.loc 1 124 5 is_stmt 0 view .LVU59
 247 00ec 0446     		mov	r4, r0
 248 00ee 0028     		cmp	r0, #0
 249 00f0 D5D1     		bne	.L5
 124:D:/fchai/work/i-cube/I-CUBE-HUAWEI/Middlewares/Third_Party/Huawei/iot_link/network/dtls/mbedtls/mbedtls-2.16.2/library\rsa_internal.c **** 
 250              		.loc 1 124 5 is_stmt 1 discriminator 2 view .LVU60
 131:D:/fchai/work/i-cube/I-CUBE-HUAWEI/Middlewares/Third_Party/Huawei/iot_link/network/dtls/mbedtls/mbedtls-2.16.2/library\rsa_internal.c ****     if( N->p[0] % 8 == 1 )
 251              		.loc 1 131 5 discriminator 2 view .LVU61
 252              	.LVL25:
 132:D:/fchai/work/i-cube/I-CUBE-HUAWEI/Middlewares/Third_Party/Huawei/iot_link/network/dtls/mbedtls/mbedtls-2.16.2/library\rsa_internal.c ****         attempt = 1;
 253              		.loc 1 132 5 discriminator 2 view .LVU62
 132:D:/fchai/work/i-cube/I-CUBE-HUAWEI/Middlewares/Third_Party/Huawei/iot_link/network/dtls/mbedtls/mbedtls-2.16.2/library\rsa_internal.c ****         attempt = 1;
 254              		.loc 1 132 13 is_stmt 0 discriminator 2 view .LVU63
 255 00f2 AB68     		ldr	r3, [r5, #8]
 132:D:/fchai/work/i-cube/I-CUBE-HUAWEI/Middlewares/Third_Party/Huawei/iot_link/network/dtls/mbedtls/mbedtls-2.16.2/library\rsa_internal.c ****         attempt = 1;
 256              		.loc 1 132 17 discriminator 2 view .LVU64
 257 00f4 1B68     		ldr	r3, [r3]
 258 00f6 03F0070A 		and	r10, r3, #7
 259              	.LVL26:
 132:D:/fchai/work/i-cube/I-CUBE-HUAWEI/Middlewares/Third_Party/Huawei/iot_link/network/dtls/mbedtls/mbedtls-2.16.2/library\rsa_internal.c ****         attempt = 1;
 260              		.loc 1 132 17 discriminator 2 view .LVU65
 261 00fa BAF1010F 		cmp	r10, #1
 262 00fe 14BF     		ite	ne
 263 0100 CA46     		movne	r10, r9
 264 0102 09F1010A 		addeq	r10, r9, #1
 135:D:/fchai/work/i-cube/I-CUBE-HUAWEI/Middlewares/Third_Party/Huawei/iot_link/network/dtls/mbedtls/mbedtls-2.16.2/library\rsa_internal.c ****     {
 265              		.loc 1 135 5 discriminator 2 view .LVU66
 266 0106 C9F10009 		rsb	r9, r9, #0
 267              	.LVL27:
 268              	.L8:
 137:D:/fchai/work/i-cube/I-CUBE-HUAWEI/Middlewares/Third_Party/Huawei/iot_link/network/dtls/mbedtls/mbedtls-2.16.2/library\rsa_internal.c **** 
 269              		.loc 1 137 9 is_stmt 1 view .LVU67
 270 010a 1AF8011B 		ldrb	r1, [r10], #1	@ zero_extendqisi2
 271 010e 05A8     		add	r0, sp, #20
 272 0110 FFF7FEFF 		bl	mbedtls_mpi_lset
 273              	.LVL28:
ARM GAS  T:\msys\tmp\cc3UYpAk.s 			page 10


 140:D:/fchai/work/i-cube/I-CUBE-HUAWEI/Middlewares/Third_Party/Huawei/iot_link/network/dtls/mbedtls/mbedtls-2.16.2/library\rsa_internal.c ****         if( mbedtls_mpi_cmp_int( P, 1 ) != 0 )
 274              		.loc 1 140 9 view .LVU68
 140:D:/fchai/work/i-cube/I-CUBE-HUAWEI/Middlewares/Third_Party/Huawei/iot_link/network/dtls/mbedtls/mbedtls-2.16.2/library\rsa_internal.c ****         if( mbedtls_mpi_cmp_int( P, 1 ) != 0 )
 275              		.loc 1 140 9 view .LVU69
 276 0114 2A46     		mov	r2, r5
 277 0116 05A9     		add	r1, sp, #20
 278 0118 3046     		mov	r0, r6
 279 011a FFF7FEFF 		bl	mbedtls_mpi_gcd
 280              	.LVL29:
 140:D:/fchai/work/i-cube/I-CUBE-HUAWEI/Middlewares/Third_Party/Huawei/iot_link/network/dtls/mbedtls/mbedtls-2.16.2/library\rsa_internal.c ****         if( mbedtls_mpi_cmp_int( P, 1 ) != 0 )
 281              		.loc 1 140 9 is_stmt 0 view .LVU70
 282 011e 0446     		mov	r4, r0
 283 0120 0028     		cmp	r0, #0
 284 0122 BCD1     		bne	.L5
 140:D:/fchai/work/i-cube/I-CUBE-HUAWEI/Middlewares/Third_Party/Huawei/iot_link/network/dtls/mbedtls/mbedtls-2.16.2/library\rsa_internal.c ****         if( mbedtls_mpi_cmp_int( P, 1 ) != 0 )
 285              		.loc 1 140 9 is_stmt 1 discriminator 2 view .LVU71
 141:D:/fchai/work/i-cube/I-CUBE-HUAWEI/Middlewares/Third_Party/Huawei/iot_link/network/dtls/mbedtls/mbedtls-2.16.2/library\rsa_internal.c ****             continue;
 286              		.loc 1 141 9 discriminator 2 view .LVU72
 141:D:/fchai/work/i-cube/I-CUBE-HUAWEI/Middlewares/Third_Party/Huawei/iot_link/network/dtls/mbedtls/mbedtls-2.16.2/library\rsa_internal.c ****             continue;
 287              		.loc 1 141 13 is_stmt 0 discriminator 2 view .LVU73
 288 0124 0121     		movs	r1, #1
 289 0126 3046     		mov	r0, r6
 290              	.LVL30:
 141:D:/fchai/work/i-cube/I-CUBE-HUAWEI/Middlewares/Third_Party/Huawei/iot_link/network/dtls/mbedtls/mbedtls-2.16.2/library\rsa_internal.c ****             continue;
 291              		.loc 1 141 13 discriminator 2 view .LVU74
 292 0128 FFF7FEFF 		bl	mbedtls_mpi_cmp_int
 293              	.LVL31:
 141:D:/fchai/work/i-cube/I-CUBE-HUAWEI/Middlewares/Third_Party/Huawei/iot_link/network/dtls/mbedtls/mbedtls-2.16.2/library\rsa_internal.c ****             continue;
 294              		.loc 1 141 11 discriminator 2 view .LVU75
 295 012c 28B1     		cbz	r0, .L7
 296              	.L13:
 135:D:/fchai/work/i-cube/I-CUBE-HUAWEI/Middlewares/Third_Party/Huawei/iot_link/network/dtls/mbedtls/mbedtls-2.16.2/library\rsa_internal.c ****     {
 297              		.loc 1 135 34 is_stmt 1 view .LVU76
 135:D:/fchai/work/i-cube/I-CUBE-HUAWEI/Middlewares/Third_Party/Huawei/iot_link/network/dtls/mbedtls/mbedtls-2.16.2/library\rsa_internal.c ****     {
 298              		.loc 1 135 12 view .LVU77
 135:D:/fchai/work/i-cube/I-CUBE-HUAWEI/Middlewares/Third_Party/Huawei/iot_link/network/dtls/mbedtls/mbedtls-2.16.2/library\rsa_internal.c ****     {
 299              		.loc 1 135 5 is_stmt 0 view .LVU78
 300 012e 09EB0A03 		add	r3, r9, r10
 301 0132 9BB2     		uxth	r3, r3
 302 0134 352B     		cmp	r3, #53
 303 0136 E8D9     		bls	.L8
 304 0138 CBE7     		b	.L9
 305              	.L7:
 146:D:/fchai/work/i-cube/I-CUBE-HUAWEI/Middlewares/Third_Party/Huawei/iot_link/network/dtls/mbedtls/mbedtls-2.16.2/library\rsa_internal.c ****                              Q /* temporarily use Q for storing Montgomery
 306              		.loc 1 146 9 is_stmt 1 view .LVU79
 146:D:/fchai/work/i-cube/I-CUBE-HUAWEI/Middlewares/Third_Party/Huawei/iot_link/network/dtls/mbedtls/mbedtls-2.16.2/library\rsa_internal.c ****                              Q /* temporarily use Q for storing Montgomery
 307              		.loc 1 146 9 view .LVU80
 308 013a 05A9     		add	r1, sp, #20
 309 013c CDF80080 		str	r8, [sp]
 310 0140 2B46     		mov	r3, r5
 311 0142 02AA     		add	r2, sp, #8
 312 0144 0846     		mov	r0, r1
 313 0146 FFF7FEFF 		bl	mbedtls_mpi_exp_mod
 314              	.LVL32:
 146:D:/fchai/work/i-cube/I-CUBE-HUAWEI/Middlewares/Third_Party/Huawei/iot_link/network/dtls/mbedtls/mbedtls-2.16.2/library\rsa_internal.c ****                              Q /* temporarily use Q for storing Montgomery
 315              		.loc 1 146 9 is_stmt 0 view .LVU81
 316 014a 0446     		mov	r4, r0
ARM GAS  T:\msys\tmp\cc3UYpAk.s 			page 11


 317 014c 0028     		cmp	r0, #0
 318 014e A6D1     		bne	.L5
 150:D:/fchai/work/i-cube/I-CUBE-HUAWEI/Middlewares/Third_Party/Huawei/iot_link/network/dtls/mbedtls/mbedtls-2.16.2/library\rsa_internal.c ****         {
 319              		.loc 1 150 19 view .LVU82
 320 0150 0127     		movs	r7, #1
 321 0152 1BE0     		b	.L12
 322              	.LVL33:
 323              	.L11:
 172:D:/fchai/work/i-cube/I-CUBE-HUAWEI/Middlewares/Third_Party/Huawei/iot_link/network/dtls/mbedtls/mbedtls-2.16.2/library\rsa_internal.c ****             MBEDTLS_MPI_CHK( mbedtls_mpi_mul_mpi( &K, &K, &K ) );
 324              		.loc 1 172 13 is_stmt 1 view .LVU83
 172:D:/fchai/work/i-cube/I-CUBE-HUAWEI/Middlewares/Third_Party/Huawei/iot_link/network/dtls/mbedtls/mbedtls-2.16.2/library\rsa_internal.c ****             MBEDTLS_MPI_CHK( mbedtls_mpi_mul_mpi( &K, &K, &K ) );
 325              		.loc 1 172 13 view .LVU84
 326 0154 05A9     		add	r1, sp, #20
 327 0156 0122     		movs	r2, #1
 328 0158 0846     		mov	r0, r1
 329 015a FFF7FEFF 		bl	mbedtls_mpi_sub_int
 330              	.LVL34:
 172:D:/fchai/work/i-cube/I-CUBE-HUAWEI/Middlewares/Third_Party/Huawei/iot_link/network/dtls/mbedtls/mbedtls-2.16.2/library\rsa_internal.c ****             MBEDTLS_MPI_CHK( mbedtls_mpi_mul_mpi( &K, &K, &K ) );
 331              		.loc 1 172 13 view .LVU85
 173:D:/fchai/work/i-cube/I-CUBE-HUAWEI/Middlewares/Third_Party/Huawei/iot_link/network/dtls/mbedtls/mbedtls-2.16.2/library\rsa_internal.c ****             MBEDTLS_MPI_CHK( mbedtls_mpi_mod_mpi( &K, &K, N ) );
 332              		.loc 1 173 13 view .LVU86
 173:D:/fchai/work/i-cube/I-CUBE-HUAWEI/Middlewares/Third_Party/Huawei/iot_link/network/dtls/mbedtls/mbedtls-2.16.2/library\rsa_internal.c ****             MBEDTLS_MPI_CHK( mbedtls_mpi_mod_mpi( &K, &K, N ) );
 333              		.loc 1 173 13 view .LVU87
 334 015e 05AA     		add	r2, sp, #20
 172:D:/fchai/work/i-cube/I-CUBE-HUAWEI/Middlewares/Third_Party/Huawei/iot_link/network/dtls/mbedtls/mbedtls-2.16.2/library\rsa_internal.c ****             MBEDTLS_MPI_CHK( mbedtls_mpi_mul_mpi( &K, &K, &K ) );
 335              		.loc 1 172 13 is_stmt 0 view .LVU88
 336 0160 0446     		mov	r4, r0
 337              	.LVL35:
 173:D:/fchai/work/i-cube/I-CUBE-HUAWEI/Middlewares/Third_Party/Huawei/iot_link/network/dtls/mbedtls/mbedtls-2.16.2/library\rsa_internal.c ****             MBEDTLS_MPI_CHK( mbedtls_mpi_mod_mpi( &K, &K, N ) );
 338              		.loc 1 173 13 view .LVU89
 339 0162 1146     		mov	r1, r2
 340 0164 1046     		mov	r0, r2
 341              	.LVL36:
 172:D:/fchai/work/i-cube/I-CUBE-HUAWEI/Middlewares/Third_Party/Huawei/iot_link/network/dtls/mbedtls/mbedtls-2.16.2/library\rsa_internal.c ****             MBEDTLS_MPI_CHK( mbedtls_mpi_mul_mpi( &K, &K, &K ) );
 342              		.loc 1 172 13 view .LVU90
 343 0166 002C     		cmp	r4, #0
 344 0168 99D1     		bne	.L5
 173:D:/fchai/work/i-cube/I-CUBE-HUAWEI/Middlewares/Third_Party/Huawei/iot_link/network/dtls/mbedtls/mbedtls-2.16.2/library\rsa_internal.c ****             MBEDTLS_MPI_CHK( mbedtls_mpi_mod_mpi( &K, &K, N ) );
 345              		.loc 1 173 13 discriminator 2 view .LVU91
 346 016a FFF7FEFF 		bl	mbedtls_mpi_mul_mpi
 347              	.LVL37:
 173:D:/fchai/work/i-cube/I-CUBE-HUAWEI/Middlewares/Third_Party/Huawei/iot_link/network/dtls/mbedtls/mbedtls-2.16.2/library\rsa_internal.c ****             MBEDTLS_MPI_CHK( mbedtls_mpi_mod_mpi( &K, &K, N ) );
 348              		.loc 1 173 13 is_stmt 1 discriminator 2 view .LVU92
 174:D:/fchai/work/i-cube/I-CUBE-HUAWEI/Middlewares/Third_Party/Huawei/iot_link/network/dtls/mbedtls/mbedtls-2.16.2/library\rsa_internal.c ****         }
 349              		.loc 1 174 13 discriminator 2 view .LVU93
 174:D:/fchai/work/i-cube/I-CUBE-HUAWEI/Middlewares/Third_Party/Huawei/iot_link/network/dtls/mbedtls/mbedtls-2.16.2/library\rsa_internal.c ****         }
 350              		.loc 1 174 13 discriminator 2 view .LVU94
 351 016e 05A9     		add	r1, sp, #20
 173:D:/fchai/work/i-cube/I-CUBE-HUAWEI/Middlewares/Third_Party/Huawei/iot_link/network/dtls/mbedtls/mbedtls-2.16.2/library\rsa_internal.c ****             MBEDTLS_MPI_CHK( mbedtls_mpi_mod_mpi( &K, &K, N ) );
 352              		.loc 1 173 13 is_stmt 0 discriminator 2 view .LVU95
 353 0170 0446     		mov	r4, r0
 354              	.LVL38:
 174:D:/fchai/work/i-cube/I-CUBE-HUAWEI/Middlewares/Third_Party/Huawei/iot_link/network/dtls/mbedtls/mbedtls-2.16.2/library\rsa_internal.c ****         }
 355              		.loc 1 174 13 discriminator 2 view .LVU96
 356 0172 2A46     		mov	r2, r5
 357 0174 0846     		mov	r0, r1
 358              	.LVL39:
ARM GAS  T:\msys\tmp\cc3UYpAk.s 			page 12


 173:D:/fchai/work/i-cube/I-CUBE-HUAWEI/Middlewares/Third_Party/Huawei/iot_link/network/dtls/mbedtls/mbedtls-2.16.2/library\rsa_internal.c ****             MBEDTLS_MPI_CHK( mbedtls_mpi_mod_mpi( &K, &K, N ) );
 359              		.loc 1 173 13 discriminator 2 view .LVU97
 360 0176 002C     		cmp	r4, #0
 361 0178 91D1     		bne	.L5
 362              	.LVL40:
 174:D:/fchai/work/i-cube/I-CUBE-HUAWEI/Middlewares/Third_Party/Huawei/iot_link/network/dtls/mbedtls/mbedtls-2.16.2/library\rsa_internal.c ****         }
 363              		.loc 1 174 13 discriminator 2 view .LVU98
 364 017a FFF7FEFF 		bl	mbedtls_mpi_mod_mpi
 365              	.LVL41:
 174:D:/fchai/work/i-cube/I-CUBE-HUAWEI/Middlewares/Third_Party/Huawei/iot_link/network/dtls/mbedtls/mbedtls-2.16.2/library\rsa_internal.c ****         }
 366              		.loc 1 174 13 is_stmt 1 discriminator 2 view .LVU99
 150:D:/fchai/work/i-cube/I-CUBE-HUAWEI/Middlewares/Third_Party/Huawei/iot_link/network/dtls/mbedtls/mbedtls-2.16.2/library\rsa_internal.c ****         {
 367              		.loc 1 150 39 discriminator 2 view .LVU100
 150:D:/fchai/work/i-cube/I-CUBE-HUAWEI/Middlewares/Third_Party/Huawei/iot_link/network/dtls/mbedtls/mbedtls-2.16.2/library\rsa_internal.c ****         {
 368              		.loc 1 150 39 is_stmt 0 discriminator 2 view .LVU101
 369 017e 0137     		adds	r7, r7, #1
 370              	.LVL42:
 150:D:/fchai/work/i-cube/I-CUBE-HUAWEI/Middlewares/Third_Party/Huawei/iot_link/network/dtls/mbedtls/mbedtls-2.16.2/library\rsa_internal.c ****         {
 371              		.loc 1 150 39 discriminator 2 view .LVU102
 372 0180 BFB2     		uxth	r7, r7
 373              	.LVL43:
 150:D:/fchai/work/i-cube/I-CUBE-HUAWEI/Middlewares/Third_Party/Huawei/iot_link/network/dtls/mbedtls/mbedtls-2.16.2/library\rsa_internal.c ****         {
 374              		.loc 1 150 24 is_stmt 1 discriminator 2 view .LVU103
 174:D:/fchai/work/i-cube/I-CUBE-HUAWEI/Middlewares/Third_Party/Huawei/iot_link/network/dtls/mbedtls/mbedtls-2.16.2/library\rsa_internal.c ****         }
 375              		.loc 1 174 13 is_stmt 0 discriminator 2 view .LVU104
 376 0182 0446     		mov	r4, r0
 377 0184 0028     		cmp	r0, #0
 378 0186 8AD1     		bne	.L5
 150:D:/fchai/work/i-cube/I-CUBE-HUAWEI/Middlewares/Third_Party/Huawei/iot_link/network/dtls/mbedtls/mbedtls-2.16.2/library\rsa_internal.c ****         {
 379              		.loc 1 150 9 discriminator 2 view .LVU105
 380 0188 BB45     		cmp	fp, r7
 381 018a 2BD3     		bcc	.L10
 382              	.LVL44:
 383              	.L12:
 154:D:/fchai/work/i-cube/I-CUBE-HUAWEI/Middlewares/Third_Party/Huawei/iot_link/network/dtls/mbedtls/mbedtls-2.16.2/library\rsa_internal.c ****                 break;
 384              		.loc 1 154 13 is_stmt 1 view .LVU106
 154:D:/fchai/work/i-cube/I-CUBE-HUAWEI/Middlewares/Third_Party/Huawei/iot_link/network/dtls/mbedtls/mbedtls-2.16.2/library\rsa_internal.c ****                 break;
 385              		.loc 1 154 17 is_stmt 0 view .LVU107
 386 018c 0121     		movs	r1, #1
 387 018e 05A8     		add	r0, sp, #20
 388              	.LVL45:
 154:D:/fchai/work/i-cube/I-CUBE-HUAWEI/Middlewares/Third_Party/Huawei/iot_link/network/dtls/mbedtls/mbedtls-2.16.2/library\rsa_internal.c ****                 break;
 389              		.loc 1 154 17 view .LVU108
 390 0190 FFF7FEFF 		bl	mbedtls_mpi_cmp_int
 391              	.LVL46:
 157:D:/fchai/work/i-cube/I-CUBE-HUAWEI/Middlewares/Third_Party/Huawei/iot_link/network/dtls/mbedtls/mbedtls-2.16.2/library\rsa_internal.c ****             MBEDTLS_MPI_CHK( mbedtls_mpi_gcd( P, &K, N ) );
 392              		.loc 1 157 13 is_stmt 1 view .LVU109
 157:D:/fchai/work/i-cube/I-CUBE-HUAWEI/Middlewares/Third_Party/Huawei/iot_link/network/dtls/mbedtls/mbedtls-2.16.2/library\rsa_internal.c ****             MBEDTLS_MPI_CHK( mbedtls_mpi_gcd( P, &K, N ) );
 393              		.loc 1 157 13 view .LVU110
 394 0194 05A9     		add	r1, sp, #20
 154:D:/fchai/work/i-cube/I-CUBE-HUAWEI/Middlewares/Third_Party/Huawei/iot_link/network/dtls/mbedtls/mbedtls-2.16.2/library\rsa_internal.c ****                 break;
 395              		.loc 1 154 17 is_stmt 0 view .LVU111
 396 0196 0346     		mov	r3, r0
 157:D:/fchai/work/i-cube/I-CUBE-HUAWEI/Middlewares/Third_Party/Huawei/iot_link/network/dtls/mbedtls/mbedtls-2.16.2/library\rsa_internal.c ****             MBEDTLS_MPI_CHK( mbedtls_mpi_gcd( P, &K, N ) );
 397              		.loc 1 157 13 view .LVU112
 398 0198 0122     		movs	r2, #1
 399 019a 0846     		mov	r0, r1
ARM GAS  T:\msys\tmp\cc3UYpAk.s 			page 13


 154:D:/fchai/work/i-cube/I-CUBE-HUAWEI/Middlewares/Third_Party/Huawei/iot_link/network/dtls/mbedtls/mbedtls-2.16.2/library\rsa_internal.c ****                 break;
 400              		.loc 1 154 15 view .LVU113
 401 019c 13B3     		cbz	r3, .L10
 157:D:/fchai/work/i-cube/I-CUBE-HUAWEI/Middlewares/Third_Party/Huawei/iot_link/network/dtls/mbedtls/mbedtls-2.16.2/library\rsa_internal.c ****             MBEDTLS_MPI_CHK( mbedtls_mpi_gcd( P, &K, N ) );
 402              		.loc 1 157 13 view .LVU114
 403 019e FFF7FEFF 		bl	mbedtls_mpi_add_int
 404              	.LVL47:
 157:D:/fchai/work/i-cube/I-CUBE-HUAWEI/Middlewares/Third_Party/Huawei/iot_link/network/dtls/mbedtls/mbedtls-2.16.2/library\rsa_internal.c ****             MBEDTLS_MPI_CHK( mbedtls_mpi_gcd( P, &K, N ) );
 405              		.loc 1 157 13 is_stmt 1 view .LVU115
 158:D:/fchai/work/i-cube/I-CUBE-HUAWEI/Middlewares/Third_Party/Huawei/iot_link/network/dtls/mbedtls/mbedtls-2.16.2/library\rsa_internal.c **** 
 406              		.loc 1 158 13 view .LVU116
 158:D:/fchai/work/i-cube/I-CUBE-HUAWEI/Middlewares/Third_Party/Huawei/iot_link/network/dtls/mbedtls/mbedtls-2.16.2/library\rsa_internal.c **** 
 407              		.loc 1 158 13 view .LVU117
 157:D:/fchai/work/i-cube/I-CUBE-HUAWEI/Middlewares/Third_Party/Huawei/iot_link/network/dtls/mbedtls/mbedtls-2.16.2/library\rsa_internal.c ****             MBEDTLS_MPI_CHK( mbedtls_mpi_gcd( P, &K, N ) );
 408              		.loc 1 157 13 is_stmt 0 view .LVU118
 409 01a2 0446     		mov	r4, r0
 410              	.LVL48:
 158:D:/fchai/work/i-cube/I-CUBE-HUAWEI/Middlewares/Third_Party/Huawei/iot_link/network/dtls/mbedtls/mbedtls-2.16.2/library\rsa_internal.c **** 
 411              		.loc 1 158 13 view .LVU119
 412 01a4 2A46     		mov	r2, r5
 413 01a6 05A9     		add	r1, sp, #20
 414 01a8 3046     		mov	r0, r6
 415              	.LVL49:
 157:D:/fchai/work/i-cube/I-CUBE-HUAWEI/Middlewares/Third_Party/Huawei/iot_link/network/dtls/mbedtls/mbedtls-2.16.2/library\rsa_internal.c ****             MBEDTLS_MPI_CHK( mbedtls_mpi_gcd( P, &K, N ) );
 416              		.loc 1 157 13 view .LVU120
 417 01aa 002C     		cmp	r4, #0
 418 01ac 7FF477AF 		bne	.L5
 419              	.LVL50:
 158:D:/fchai/work/i-cube/I-CUBE-HUAWEI/Middlewares/Third_Party/Huawei/iot_link/network/dtls/mbedtls/mbedtls-2.16.2/library\rsa_internal.c **** 
 420              		.loc 1 158 13 discriminator 2 view .LVU121
 421 01b0 FFF7FEFF 		bl	mbedtls_mpi_gcd
 422              	.LVL51:
 158:D:/fchai/work/i-cube/I-CUBE-HUAWEI/Middlewares/Third_Party/Huawei/iot_link/network/dtls/mbedtls/mbedtls-2.16.2/library\rsa_internal.c **** 
 423              		.loc 1 158 13 is_stmt 1 discriminator 2 view .LVU122
 160:D:/fchai/work/i-cube/I-CUBE-HUAWEI/Middlewares/Third_Party/Huawei/iot_link/network/dtls/mbedtls/mbedtls-2.16.2/library\rsa_internal.c ****                 mbedtls_mpi_cmp_mpi( P, N ) == -1 )
 424              		.loc 1 160 13 discriminator 2 view .LVU123
 158:D:/fchai/work/i-cube/I-CUBE-HUAWEI/Middlewares/Third_Party/Huawei/iot_link/network/dtls/mbedtls/mbedtls-2.16.2/library\rsa_internal.c **** 
 425              		.loc 1 158 13 is_stmt 0 discriminator 2 view .LVU124
 426 01b4 0446     		mov	r4, r0
 427              	.LVL52:
 160:D:/fchai/work/i-cube/I-CUBE-HUAWEI/Middlewares/Third_Party/Huawei/iot_link/network/dtls/mbedtls/mbedtls-2.16.2/library\rsa_internal.c ****                 mbedtls_mpi_cmp_mpi( P, N ) == -1 )
 428              		.loc 1 160 17 discriminator 2 view .LVU125
 429 01b6 0121     		movs	r1, #1
 430 01b8 3046     		mov	r0, r6
 431              	.LVL53:
 158:D:/fchai/work/i-cube/I-CUBE-HUAWEI/Middlewares/Third_Party/Huawei/iot_link/network/dtls/mbedtls/mbedtls-2.16.2/library\rsa_internal.c **** 
 432              		.loc 1 158 13 discriminator 2 view .LVU126
 433 01ba 002C     		cmp	r4, #0
 434 01bc 7FF46FAF 		bne	.L5
 435              	.LVL54:
 160:D:/fchai/work/i-cube/I-CUBE-HUAWEI/Middlewares/Third_Party/Huawei/iot_link/network/dtls/mbedtls/mbedtls-2.16.2/library\rsa_internal.c ****                 mbedtls_mpi_cmp_mpi( P, N ) == -1 )
 436              		.loc 1 160 17 discriminator 2 view .LVU127
 437 01c0 FFF7FEFF 		bl	mbedtls_mpi_cmp_int
 438              	.LVL55:
 160:D:/fchai/work/i-cube/I-CUBE-HUAWEI/Middlewares/Third_Party/Huawei/iot_link/network/dtls/mbedtls/mbedtls-2.16.2/library\rsa_internal.c ****                 mbedtls_mpi_cmp_mpi( P, N ) == -1 )
 439              		.loc 1 160 15 discriminator 2 view .LVU128
 440 01c4 0128     		cmp	r0, #1
ARM GAS  T:\msys\tmp\cc3UYpAk.s 			page 14


 441 01c6 C5D1     		bne	.L11
 161:D:/fchai/work/i-cube/I-CUBE-HUAWEI/Middlewares/Third_Party/Huawei/iot_link/network/dtls/mbedtls/mbedtls-2.16.2/library\rsa_internal.c ****             {
 442              		.loc 1 161 17 discriminator 1 view .LVU129
 443 01c8 2946     		mov	r1, r5
 444 01ca 3046     		mov	r0, r6
 445 01cc FFF7FEFF 		bl	mbedtls_mpi_cmp_mpi
 446              	.LVL56:
 160:D:/fchai/work/i-cube/I-CUBE-HUAWEI/Middlewares/Third_Party/Huawei/iot_link/network/dtls/mbedtls/mbedtls-2.16.2/library\rsa_internal.c ****                 mbedtls_mpi_cmp_mpi( P, N ) == -1 )
 447              		.loc 1 160 51 discriminator 1 view .LVU130
 448 01d0 0130     		adds	r0, r0, #1
 449 01d2 BFD1     		bne	.L11
 168:D:/fchai/work/i-cube/I-CUBE-HUAWEI/Middlewares/Third_Party/Huawei/iot_link/network/dtls/mbedtls/mbedtls-2.16.2/library\rsa_internal.c ****                 goto cleanup;
 450              		.loc 1 168 17 is_stmt 1 view .LVU131
 168:D:/fchai/work/i-cube/I-CUBE-HUAWEI/Middlewares/Third_Party/Huawei/iot_link/network/dtls/mbedtls/mbedtls-2.16.2/library\rsa_internal.c ****                 goto cleanup;
 451              		.loc 1 168 17 view .LVU132
 452 01d4 2146     		mov	r1, r4
 453 01d6 3346     		mov	r3, r6
 454 01d8 2A46     		mov	r2, r5
 455 01da 4046     		mov	r0, r8
 456 01dc FFF7FEFF 		bl	mbedtls_mpi_div_mpi
 457              	.LVL57:
 458 01e0 0446     		mov	r4, r0
 459              	.LVL58:
 168:D:/fchai/work/i-cube/I-CUBE-HUAWEI/Middlewares/Third_Party/Huawei/iot_link/network/dtls/mbedtls/mbedtls-2.16.2/library\rsa_internal.c ****                 goto cleanup;
 460              		.loc 1 168 17 is_stmt 0 view .LVU133
 461 01e2 5CE7     		b	.L5
 462              	.LVL59:
 463              	.L10:
 184:D:/fchai/work/i-cube/I-CUBE-HUAWEI/Middlewares/Third_Party/Huawei/iot_link/network/dtls/mbedtls/mbedtls-2.16.2/library\rsa_internal.c ****         {
 464              		.loc 1 184 9 is_stmt 1 view .LVU134
 184:D:/fchai/work/i-cube/I-CUBE-HUAWEI/Middlewares/Third_Party/Huawei/iot_link/network/dtls/mbedtls/mbedtls-2.16.2/library\rsa_internal.c ****         {
 465              		.loc 1 184 13 is_stmt 0 view .LVU135
 466 01e4 0121     		movs	r1, #1
 467 01e6 05A8     		add	r0, sp, #20
 468 01e8 FFF7FEFF 		bl	mbedtls_mpi_cmp_int
 469              	.LVL60:
 184:D:/fchai/work/i-cube/I-CUBE-HUAWEI/Middlewares/Third_Party/Huawei/iot_link/network/dtls/mbedtls/mbedtls-2.16.2/library\rsa_internal.c ****         {
 470              		.loc 1 184 11 view .LVU136
 471 01ec 0028     		cmp	r0, #0
 472 01ee 9ED0     		beq	.L13
 473 01f0 6FE7     		b	.L9
 474              	.L26:
 475 01f2 00BF     		.align	2
 476              	.L25:
 477 01f4 00000000 		.word	.LC0
 478              		.cfi_endproc
 479              	.LFE0:
 481              		.section	.text.mbedtls_rsa_deduce_private_exponent,"ax",%progbits
 482              		.align	1
 483              		.p2align 2,,3
 484              		.global	mbedtls_rsa_deduce_private_exponent
 485              		.syntax unified
 486              		.thumb
 487              		.thumb_func
 488              		.fpu fpv4-sp-d16
 490              	mbedtls_rsa_deduce_private_exponent:
 491              	.LVL61:
ARM GAS  T:\msys\tmp\cc3UYpAk.s 			page 15


 492              	.LFB1:
 198:D:/fchai/work/i-cube/I-CUBE-HUAWEI/Middlewares/Third_Party/Huawei/iot_link/network/dtls/mbedtls/mbedtls-2.16.2/library\rsa_internal.c **** 
 199:D:/fchai/work/i-cube/I-CUBE-HUAWEI/Middlewares/Third_Party/Huawei/iot_link/network/dtls/mbedtls/mbedtls-2.16.2/library\rsa_internal.c **** /*
 200:D:/fchai/work/i-cube/I-CUBE-HUAWEI/Middlewares/Third_Party/Huawei/iot_link/network/dtls/mbedtls/mbedtls-2.16.2/library\rsa_internal.c ****  * Given P, Q and the public exponent E, deduce D.
 201:D:/fchai/work/i-cube/I-CUBE-HUAWEI/Middlewares/Third_Party/Huawei/iot_link/network/dtls/mbedtls/mbedtls-2.16.2/library\rsa_internal.c ****  * This is essentially a modular inversion.
 202:D:/fchai/work/i-cube/I-CUBE-HUAWEI/Middlewares/Third_Party/Huawei/iot_link/network/dtls/mbedtls/mbedtls-2.16.2/library\rsa_internal.c ****  */
 203:D:/fchai/work/i-cube/I-CUBE-HUAWEI/Middlewares/Third_Party/Huawei/iot_link/network/dtls/mbedtls/mbedtls-2.16.2/library\rsa_internal.c **** int mbedtls_rsa_deduce_private_exponent( mbedtls_mpi const *P,
 204:D:/fchai/work/i-cube/I-CUBE-HUAWEI/Middlewares/Third_Party/Huawei/iot_link/network/dtls/mbedtls/mbedtls-2.16.2/library\rsa_internal.c ****                                          mbedtls_mpi const *Q,
 205:D:/fchai/work/i-cube/I-CUBE-HUAWEI/Middlewares/Third_Party/Huawei/iot_link/network/dtls/mbedtls/mbedtls-2.16.2/library\rsa_internal.c ****                                          mbedtls_mpi const *E,
 206:D:/fchai/work/i-cube/I-CUBE-HUAWEI/Middlewares/Third_Party/Huawei/iot_link/network/dtls/mbedtls/mbedtls-2.16.2/library\rsa_internal.c ****                                          mbedtls_mpi *D )
 207:D:/fchai/work/i-cube/I-CUBE-HUAWEI/Middlewares/Third_Party/Huawei/iot_link/network/dtls/mbedtls/mbedtls-2.16.2/library\rsa_internal.c **** {
 493              		.loc 1 207 1 is_stmt 1 view -0
 494              		.cfi_startproc
 495              		@ args = 0, pretend = 0, frame = 24
 496              		@ frame_needed = 0, uses_anonymous_args = 0
 208:D:/fchai/work/i-cube/I-CUBE-HUAWEI/Middlewares/Third_Party/Huawei/iot_link/network/dtls/mbedtls/mbedtls-2.16.2/library\rsa_internal.c ****     int ret = 0;
 497              		.loc 1 208 5 view .LVU138
 209:D:/fchai/work/i-cube/I-CUBE-HUAWEI/Middlewares/Third_Party/Huawei/iot_link/network/dtls/mbedtls/mbedtls-2.16.2/library\rsa_internal.c ****     mbedtls_mpi K, L;
 498              		.loc 1 209 5 view .LVU139
 210:D:/fchai/work/i-cube/I-CUBE-HUAWEI/Middlewares/Third_Party/Huawei/iot_link/network/dtls/mbedtls/mbedtls-2.16.2/library\rsa_internal.c **** 
 211:D:/fchai/work/i-cube/I-CUBE-HUAWEI/Middlewares/Third_Party/Huawei/iot_link/network/dtls/mbedtls/mbedtls-2.16.2/library\rsa_internal.c ****     if( D == NULL || mbedtls_mpi_cmp_int( D, 0 ) != 0 )
 499              		.loc 1 211 5 view .LVU140
 207:D:/fchai/work/i-cube/I-CUBE-HUAWEI/Middlewares/Third_Party/Huawei/iot_link/network/dtls/mbedtls/mbedtls-2.16.2/library\rsa_internal.c ****     int ret = 0;
 500              		.loc 1 207 1 is_stmt 0 view .LVU141
 501 0000 2DE9F041 		push	{r4, r5, r6, r7, r8, lr}
 502              	.LCFI6:
 503              		.cfi_def_cfa_offset 24
 504              		.cfi_offset 4, -24
 505              		.cfi_offset 5, -20
 506              		.cfi_offset 6, -16
 507              		.cfi_offset 7, -12
 508              		.cfi_offset 8, -8
 509              		.cfi_offset 14, -4
 510 0004 86B0     		sub	sp, sp, #24
 511              	.LCFI7:
 512              		.cfi_def_cfa_offset 48
 513              		.loc 1 211 7 view .LVU142
 514 0006 002B     		cmp	r3, #0
 515 0008 5BD0     		beq	.L30
 516 000a 0746     		mov	r7, r0
 517 000c 8846     		mov	r8, r1
 518              		.loc 1 211 22 discriminator 1 view .LVU143
 519 000e 1846     		mov	r0, r3
 520              	.LVL62:
 521              		.loc 1 211 22 discriminator 1 view .LVU144
 522 0010 0021     		movs	r1, #0
 523              	.LVL63:
 524              		.loc 1 211 22 discriminator 1 view .LVU145
 525 0012 1646     		mov	r6, r2
 526 0014 1D46     		mov	r5, r3
 527 0016 FFF7FEFF 		bl	mbedtls_mpi_cmp_int
 528              	.LVL64:
 529              		.loc 1 211 19 discriminator 1 view .LVU146
 530 001a 0446     		mov	r4, r0
 531 001c 0028     		cmp	r0, #0
 532 001e 50D1     		bne	.L30
 212:D:/fchai/work/i-cube/I-CUBE-HUAWEI/Middlewares/Third_Party/Huawei/iot_link/network/dtls/mbedtls/mbedtls-2.16.2/library\rsa_internal.c ****         return( MBEDTLS_ERR_MPI_BAD_INPUT_DATA );
ARM GAS  T:\msys\tmp\cc3UYpAk.s 			page 16


 213:D:/fchai/work/i-cube/I-CUBE-HUAWEI/Middlewares/Third_Party/Huawei/iot_link/network/dtls/mbedtls/mbedtls-2.16.2/library\rsa_internal.c **** 
 214:D:/fchai/work/i-cube/I-CUBE-HUAWEI/Middlewares/Third_Party/Huawei/iot_link/network/dtls/mbedtls/mbedtls-2.16.2/library\rsa_internal.c ****     if( mbedtls_mpi_cmp_int( P, 1 ) <= 0 ||
 533              		.loc 1 214 5 is_stmt 1 view .LVU147
 534              		.loc 1 214 9 is_stmt 0 view .LVU148
 535 0020 0121     		movs	r1, #1
 536 0022 3846     		mov	r0, r7
 537 0024 FFF7FEFF 		bl	mbedtls_mpi_cmp_int
 538              	.LVL65:
 539              		.loc 1 214 7 view .LVU149
 540 0028 0028     		cmp	r0, #0
 541 002a 4ADD     		ble	.L30
 215:D:/fchai/work/i-cube/I-CUBE-HUAWEI/Middlewares/Third_Party/Huawei/iot_link/network/dtls/mbedtls/mbedtls-2.16.2/library\rsa_internal.c ****         mbedtls_mpi_cmp_int( Q, 1 ) <= 0 ||
 542              		.loc 1 215 9 discriminator 1 view .LVU150
 543 002c 0121     		movs	r1, #1
 544 002e 4046     		mov	r0, r8
 545 0030 FFF7FEFF 		bl	mbedtls_mpi_cmp_int
 546              	.LVL66:
 214:D:/fchai/work/i-cube/I-CUBE-HUAWEI/Middlewares/Third_Party/Huawei/iot_link/network/dtls/mbedtls/mbedtls-2.16.2/library\rsa_internal.c ****         mbedtls_mpi_cmp_int( Q, 1 ) <= 0 ||
 547              		.loc 1 214 42 discriminator 1 view .LVU151
 548 0034 0028     		cmp	r0, #0
 549 0036 44DD     		ble	.L30
 216:D:/fchai/work/i-cube/I-CUBE-HUAWEI/Middlewares/Third_Party/Huawei/iot_link/network/dtls/mbedtls/mbedtls-2.16.2/library\rsa_internal.c ****         mbedtls_mpi_cmp_int( E, 0 ) == 0 )
 550              		.loc 1 216 9 view .LVU152
 551 0038 2146     		mov	r1, r4
 552 003a 3046     		mov	r0, r6
 553 003c FFF7FEFF 		bl	mbedtls_mpi_cmp_int
 554              	.LVL67:
 215:D:/fchai/work/i-cube/I-CUBE-HUAWEI/Middlewares/Third_Party/Huawei/iot_link/network/dtls/mbedtls/mbedtls-2.16.2/library\rsa_internal.c ****         mbedtls_mpi_cmp_int( Q, 1 ) <= 0 ||
 555              		.loc 1 215 42 view .LVU153
 556 0040 0028     		cmp	r0, #0
 557 0042 3ED0     		beq	.L30
 217:D:/fchai/work/i-cube/I-CUBE-HUAWEI/Middlewares/Third_Party/Huawei/iot_link/network/dtls/mbedtls/mbedtls-2.16.2/library\rsa_internal.c ****     {
 218:D:/fchai/work/i-cube/I-CUBE-HUAWEI/Middlewares/Third_Party/Huawei/iot_link/network/dtls/mbedtls/mbedtls-2.16.2/library\rsa_internal.c ****         return( MBEDTLS_ERR_MPI_BAD_INPUT_DATA );
 219:D:/fchai/work/i-cube/I-CUBE-HUAWEI/Middlewares/Third_Party/Huawei/iot_link/network/dtls/mbedtls/mbedtls-2.16.2/library\rsa_internal.c ****     }
 220:D:/fchai/work/i-cube/I-CUBE-HUAWEI/Middlewares/Third_Party/Huawei/iot_link/network/dtls/mbedtls/mbedtls-2.16.2/library\rsa_internal.c **** 
 221:D:/fchai/work/i-cube/I-CUBE-HUAWEI/Middlewares/Third_Party/Huawei/iot_link/network/dtls/mbedtls/mbedtls-2.16.2/library\rsa_internal.c ****     mbedtls_mpi_init( &K );
 558              		.loc 1 221 5 is_stmt 1 view .LVU154
 559 0044 6846     		mov	r0, sp
 560 0046 FFF7FEFF 		bl	mbedtls_mpi_init
 561              	.LVL68:
 222:D:/fchai/work/i-cube/I-CUBE-HUAWEI/Middlewares/Third_Party/Huawei/iot_link/network/dtls/mbedtls/mbedtls-2.16.2/library\rsa_internal.c ****     mbedtls_mpi_init( &L );
 562              		.loc 1 222 5 view .LVU155
 563 004a 03A8     		add	r0, sp, #12
 564 004c FFF7FEFF 		bl	mbedtls_mpi_init
 565              	.LVL69:
 223:D:/fchai/work/i-cube/I-CUBE-HUAWEI/Middlewares/Third_Party/Huawei/iot_link/network/dtls/mbedtls/mbedtls-2.16.2/library\rsa_internal.c **** 
 224:D:/fchai/work/i-cube/I-CUBE-HUAWEI/Middlewares/Third_Party/Huawei/iot_link/network/dtls/mbedtls/mbedtls-2.16.2/library\rsa_internal.c ****     /* Temporarily put K := P-1 and L := Q-1 */
 225:D:/fchai/work/i-cube/I-CUBE-HUAWEI/Middlewares/Third_Party/Huawei/iot_link/network/dtls/mbedtls/mbedtls-2.16.2/library\rsa_internal.c ****     MBEDTLS_MPI_CHK( mbedtls_mpi_sub_int( &K, P, 1 ) );
 566              		.loc 1 225 5 view .LVU156
 567              		.loc 1 225 5 view .LVU157
 568 0050 3946     		mov	r1, r7
 569 0052 6846     		mov	r0, sp
 570 0054 0122     		movs	r2, #1
 571 0056 FFF7FEFF 		bl	mbedtls_mpi_sub_int
 572              	.LVL70:
 573              		.loc 1 225 5 is_stmt 0 view .LVU158
 574 005a 0446     		mov	r4, r0
ARM GAS  T:\msys\tmp\cc3UYpAk.s 			page 17


 575 005c 48B1     		cbz	r0, .L36
 576              	.L31:
 226:D:/fchai/work/i-cube/I-CUBE-HUAWEI/Middlewares/Third_Party/Huawei/iot_link/network/dtls/mbedtls/mbedtls-2.16.2/library\rsa_internal.c ****     MBEDTLS_MPI_CHK( mbedtls_mpi_sub_int( &L, Q, 1 ) );
 227:D:/fchai/work/i-cube/I-CUBE-HUAWEI/Middlewares/Third_Party/Huawei/iot_link/network/dtls/mbedtls/mbedtls-2.16.2/library\rsa_internal.c **** 
 228:D:/fchai/work/i-cube/I-CUBE-HUAWEI/Middlewares/Third_Party/Huawei/iot_link/network/dtls/mbedtls/mbedtls-2.16.2/library\rsa_internal.c ****     /* Temporarily put D := gcd(P-1, Q-1) */
 229:D:/fchai/work/i-cube/I-CUBE-HUAWEI/Middlewares/Third_Party/Huawei/iot_link/network/dtls/mbedtls/mbedtls-2.16.2/library\rsa_internal.c ****     MBEDTLS_MPI_CHK( mbedtls_mpi_gcd( D, &K, &L ) );
 230:D:/fchai/work/i-cube/I-CUBE-HUAWEI/Middlewares/Third_Party/Huawei/iot_link/network/dtls/mbedtls/mbedtls-2.16.2/library\rsa_internal.c **** 
 231:D:/fchai/work/i-cube/I-CUBE-HUAWEI/Middlewares/Third_Party/Huawei/iot_link/network/dtls/mbedtls/mbedtls-2.16.2/library\rsa_internal.c ****     /* K := LCM(P-1, Q-1) */
 232:D:/fchai/work/i-cube/I-CUBE-HUAWEI/Middlewares/Third_Party/Huawei/iot_link/network/dtls/mbedtls/mbedtls-2.16.2/library\rsa_internal.c ****     MBEDTLS_MPI_CHK( mbedtls_mpi_mul_mpi( &K, &K, &L ) );
 233:D:/fchai/work/i-cube/I-CUBE-HUAWEI/Middlewares/Third_Party/Huawei/iot_link/network/dtls/mbedtls/mbedtls-2.16.2/library\rsa_internal.c ****     MBEDTLS_MPI_CHK( mbedtls_mpi_div_mpi( &K, NULL, &K, D ) );
 234:D:/fchai/work/i-cube/I-CUBE-HUAWEI/Middlewares/Third_Party/Huawei/iot_link/network/dtls/mbedtls/mbedtls-2.16.2/library\rsa_internal.c **** 
 235:D:/fchai/work/i-cube/I-CUBE-HUAWEI/Middlewares/Third_Party/Huawei/iot_link/network/dtls/mbedtls/mbedtls-2.16.2/library\rsa_internal.c ****     /* Compute modular inverse of E in LCM(P-1, Q-1) */
 236:D:/fchai/work/i-cube/I-CUBE-HUAWEI/Middlewares/Third_Party/Huawei/iot_link/network/dtls/mbedtls/mbedtls-2.16.2/library\rsa_internal.c ****     MBEDTLS_MPI_CHK( mbedtls_mpi_inv_mod( D, E, &K ) );
 577              		.loc 1 236 5 is_stmt 1 discriminator 3 view .LVU159
 237:D:/fchai/work/i-cube/I-CUBE-HUAWEI/Middlewares/Third_Party/Huawei/iot_link/network/dtls/mbedtls/mbedtls-2.16.2/library\rsa_internal.c **** 
 238:D:/fchai/work/i-cube/I-CUBE-HUAWEI/Middlewares/Third_Party/Huawei/iot_link/network/dtls/mbedtls/mbedtls-2.16.2/library\rsa_internal.c **** cleanup:
 239:D:/fchai/work/i-cube/I-CUBE-HUAWEI/Middlewares/Third_Party/Huawei/iot_link/network/dtls/mbedtls/mbedtls-2.16.2/library\rsa_internal.c **** 
 240:D:/fchai/work/i-cube/I-CUBE-HUAWEI/Middlewares/Third_Party/Huawei/iot_link/network/dtls/mbedtls/mbedtls-2.16.2/library\rsa_internal.c ****     mbedtls_mpi_free( &K );
 578              		.loc 1 240 5 discriminator 3 view .LVU160
 579 005e 6846     		mov	r0, sp
 580              	.LVL71:
 581              		.loc 1 240 5 is_stmt 0 discriminator 3 view .LVU161
 582 0060 FFF7FEFF 		bl	mbedtls_mpi_free
 583              	.LVL72:
 241:D:/fchai/work/i-cube/I-CUBE-HUAWEI/Middlewares/Third_Party/Huawei/iot_link/network/dtls/mbedtls/mbedtls-2.16.2/library\rsa_internal.c ****     mbedtls_mpi_free( &L );
 584              		.loc 1 241 5 is_stmt 1 discriminator 3 view .LVU162
 585 0064 03A8     		add	r0, sp, #12
 586 0066 FFF7FEFF 		bl	mbedtls_mpi_free
 587              	.LVL73:
 242:D:/fchai/work/i-cube/I-CUBE-HUAWEI/Middlewares/Third_Party/Huawei/iot_link/network/dtls/mbedtls/mbedtls-2.16.2/library\rsa_internal.c **** 
 243:D:/fchai/work/i-cube/I-CUBE-HUAWEI/Middlewares/Third_Party/Huawei/iot_link/network/dtls/mbedtls/mbedtls-2.16.2/library\rsa_internal.c ****     return( ret );
 588              		.loc 1 243 5 discriminator 3 view .LVU163
 589              	.L27:
 244:D:/fchai/work/i-cube/I-CUBE-HUAWEI/Middlewares/Third_Party/Huawei/iot_link/network/dtls/mbedtls/mbedtls-2.16.2/library\rsa_internal.c **** }
 590              		.loc 1 244 1 is_stmt 0 view .LVU164
 591 006a 2046     		mov	r0, r4
 592 006c 06B0     		add	sp, sp, #24
 593              	.LCFI8:
 594              		.cfi_remember_state
 595              		.cfi_def_cfa_offset 24
 596              		@ sp needed
 597 006e BDE8F081 		pop	{r4, r5, r6, r7, r8, pc}
 598              	.LVL74:
 599              	.L36:
 600              	.LCFI9:
 601              		.cfi_restore_state
 225:D:/fchai/work/i-cube/I-CUBE-HUAWEI/Middlewares/Third_Party/Huawei/iot_link/network/dtls/mbedtls/mbedtls-2.16.2/library\rsa_internal.c ****     MBEDTLS_MPI_CHK( mbedtls_mpi_sub_int( &L, Q, 1 ) );
 602              		.loc 1 225 5 is_stmt 1 discriminator 2 view .LVU165
 226:D:/fchai/work/i-cube/I-CUBE-HUAWEI/Middlewares/Third_Party/Huawei/iot_link/network/dtls/mbedtls/mbedtls-2.16.2/library\rsa_internal.c **** 
 603              		.loc 1 226 5 discriminator 2 view .LVU166
 226:D:/fchai/work/i-cube/I-CUBE-HUAWEI/Middlewares/Third_Party/Huawei/iot_link/network/dtls/mbedtls/mbedtls-2.16.2/library\rsa_internal.c **** 
 604              		.loc 1 226 5 discriminator 2 view .LVU167
 605 0072 4146     		mov	r1, r8
 606 0074 0122     		movs	r2, #1
 607 0076 03A8     		add	r0, sp, #12
 608              	.LVL75:
 226:D:/fchai/work/i-cube/I-CUBE-HUAWEI/Middlewares/Third_Party/Huawei/iot_link/network/dtls/mbedtls/mbedtls-2.16.2/library\rsa_internal.c **** 
ARM GAS  T:\msys\tmp\cc3UYpAk.s 			page 18


 609              		.loc 1 226 5 is_stmt 0 discriminator 2 view .LVU168
 610 0078 FFF7FEFF 		bl	mbedtls_mpi_sub_int
 611              	.LVL76:
 226:D:/fchai/work/i-cube/I-CUBE-HUAWEI/Middlewares/Third_Party/Huawei/iot_link/network/dtls/mbedtls/mbedtls-2.16.2/library\rsa_internal.c **** 
 612              		.loc 1 226 5 discriminator 2 view .LVU169
 613 007c 0446     		mov	r4, r0
 614 007e 0028     		cmp	r0, #0
 615 0080 EDD1     		bne	.L31
 226:D:/fchai/work/i-cube/I-CUBE-HUAWEI/Middlewares/Third_Party/Huawei/iot_link/network/dtls/mbedtls/mbedtls-2.16.2/library\rsa_internal.c **** 
 616              		.loc 1 226 5 is_stmt 1 discriminator 2 view .LVU170
 229:D:/fchai/work/i-cube/I-CUBE-HUAWEI/Middlewares/Third_Party/Huawei/iot_link/network/dtls/mbedtls/mbedtls-2.16.2/library\rsa_internal.c **** 
 617              		.loc 1 229 5 discriminator 2 view .LVU171
 229:D:/fchai/work/i-cube/I-CUBE-HUAWEI/Middlewares/Third_Party/Huawei/iot_link/network/dtls/mbedtls/mbedtls-2.16.2/library\rsa_internal.c **** 
 618              		.loc 1 229 5 discriminator 2 view .LVU172
 619 0082 03AA     		add	r2, sp, #12
 620 0084 6946     		mov	r1, sp
 621 0086 2846     		mov	r0, r5
 622              	.LVL77:
 229:D:/fchai/work/i-cube/I-CUBE-HUAWEI/Middlewares/Third_Party/Huawei/iot_link/network/dtls/mbedtls/mbedtls-2.16.2/library\rsa_internal.c **** 
 623              		.loc 1 229 5 is_stmt 0 discriminator 2 view .LVU173
 624 0088 FFF7FEFF 		bl	mbedtls_mpi_gcd
 625              	.LVL78:
 229:D:/fchai/work/i-cube/I-CUBE-HUAWEI/Middlewares/Third_Party/Huawei/iot_link/network/dtls/mbedtls/mbedtls-2.16.2/library\rsa_internal.c **** 
 626              		.loc 1 229 5 discriminator 2 view .LVU174
 627 008c 0446     		mov	r4, r0
 628 008e 0028     		cmp	r0, #0
 629 0090 E5D1     		bne	.L31
 229:D:/fchai/work/i-cube/I-CUBE-HUAWEI/Middlewares/Third_Party/Huawei/iot_link/network/dtls/mbedtls/mbedtls-2.16.2/library\rsa_internal.c **** 
 630              		.loc 1 229 5 is_stmt 1 discriminator 2 view .LVU175
 232:D:/fchai/work/i-cube/I-CUBE-HUAWEI/Middlewares/Third_Party/Huawei/iot_link/network/dtls/mbedtls/mbedtls-2.16.2/library\rsa_internal.c ****     MBEDTLS_MPI_CHK( mbedtls_mpi_div_mpi( &K, NULL, &K, D ) );
 631              		.loc 1 232 5 discriminator 2 view .LVU176
 232:D:/fchai/work/i-cube/I-CUBE-HUAWEI/Middlewares/Third_Party/Huawei/iot_link/network/dtls/mbedtls/mbedtls-2.16.2/library\rsa_internal.c ****     MBEDTLS_MPI_CHK( mbedtls_mpi_div_mpi( &K, NULL, &K, D ) );
 632              		.loc 1 232 5 discriminator 2 view .LVU177
 633 0092 03AA     		add	r2, sp, #12
 634 0094 6946     		mov	r1, sp
 635 0096 6846     		mov	r0, sp
 636              	.LVL79:
 232:D:/fchai/work/i-cube/I-CUBE-HUAWEI/Middlewares/Third_Party/Huawei/iot_link/network/dtls/mbedtls/mbedtls-2.16.2/library\rsa_internal.c ****     MBEDTLS_MPI_CHK( mbedtls_mpi_div_mpi( &K, NULL, &K, D ) );
 637              		.loc 1 232 5 is_stmt 0 discriminator 2 view .LVU178
 638 0098 FFF7FEFF 		bl	mbedtls_mpi_mul_mpi
 639              	.LVL80:
 232:D:/fchai/work/i-cube/I-CUBE-HUAWEI/Middlewares/Third_Party/Huawei/iot_link/network/dtls/mbedtls/mbedtls-2.16.2/library\rsa_internal.c ****     MBEDTLS_MPI_CHK( mbedtls_mpi_div_mpi( &K, NULL, &K, D ) );
 640              		.loc 1 232 5 discriminator 2 view .LVU179
 641 009c 0446     		mov	r4, r0
 642 009e 0028     		cmp	r0, #0
 643 00a0 DDD1     		bne	.L31
 232:D:/fchai/work/i-cube/I-CUBE-HUAWEI/Middlewares/Third_Party/Huawei/iot_link/network/dtls/mbedtls/mbedtls-2.16.2/library\rsa_internal.c ****     MBEDTLS_MPI_CHK( mbedtls_mpi_div_mpi( &K, NULL, &K, D ) );
 644              		.loc 1 232 5 is_stmt 1 discriminator 2 view .LVU180
 233:D:/fchai/work/i-cube/I-CUBE-HUAWEI/Middlewares/Third_Party/Huawei/iot_link/network/dtls/mbedtls/mbedtls-2.16.2/library\rsa_internal.c **** 
 645              		.loc 1 233 5 discriminator 2 view .LVU181
 233:D:/fchai/work/i-cube/I-CUBE-HUAWEI/Middlewares/Third_Party/Huawei/iot_link/network/dtls/mbedtls/mbedtls-2.16.2/library\rsa_internal.c **** 
 646              		.loc 1 233 5 discriminator 2 view .LVU182
 647 00a2 0146     		mov	r1, r0
 648 00a4 2B46     		mov	r3, r5
 649 00a6 6A46     		mov	r2, sp
 650 00a8 6846     		mov	r0, sp
 651              	.LVL81:
ARM GAS  T:\msys\tmp\cc3UYpAk.s 			page 19


 233:D:/fchai/work/i-cube/I-CUBE-HUAWEI/Middlewares/Third_Party/Huawei/iot_link/network/dtls/mbedtls/mbedtls-2.16.2/library\rsa_internal.c **** 
 652              		.loc 1 233 5 is_stmt 0 discriminator 2 view .LVU183
 653 00aa FFF7FEFF 		bl	mbedtls_mpi_div_mpi
 654              	.LVL82:
 233:D:/fchai/work/i-cube/I-CUBE-HUAWEI/Middlewares/Third_Party/Huawei/iot_link/network/dtls/mbedtls/mbedtls-2.16.2/library\rsa_internal.c **** 
 655              		.loc 1 233 5 discriminator 2 view .LVU184
 656 00ae 0446     		mov	r4, r0
 657 00b0 0028     		cmp	r0, #0
 658 00b2 D4D1     		bne	.L31
 233:D:/fchai/work/i-cube/I-CUBE-HUAWEI/Middlewares/Third_Party/Huawei/iot_link/network/dtls/mbedtls/mbedtls-2.16.2/library\rsa_internal.c **** 
 659              		.loc 1 233 5 is_stmt 1 discriminator 2 view .LVU185
 236:D:/fchai/work/i-cube/I-CUBE-HUAWEI/Middlewares/Third_Party/Huawei/iot_link/network/dtls/mbedtls/mbedtls-2.16.2/library\rsa_internal.c **** 
 660              		.loc 1 236 5 discriminator 2 view .LVU186
 236:D:/fchai/work/i-cube/I-CUBE-HUAWEI/Middlewares/Third_Party/Huawei/iot_link/network/dtls/mbedtls/mbedtls-2.16.2/library\rsa_internal.c **** 
 661              		.loc 1 236 5 discriminator 2 view .LVU187
 662 00b4 3146     		mov	r1, r6
 663 00b6 2846     		mov	r0, r5
 664              	.LVL83:
 236:D:/fchai/work/i-cube/I-CUBE-HUAWEI/Middlewares/Third_Party/Huawei/iot_link/network/dtls/mbedtls/mbedtls-2.16.2/library\rsa_internal.c **** 
 665              		.loc 1 236 5 is_stmt 0 discriminator 2 view .LVU188
 666 00b8 6A46     		mov	r2, sp
 667 00ba FFF7FEFF 		bl	mbedtls_mpi_inv_mod
 668              	.LVL84:
 669 00be 0446     		mov	r4, r0
 670              	.LVL85:
 238:D:/fchai/work/i-cube/I-CUBE-HUAWEI/Middlewares/Third_Party/Huawei/iot_link/network/dtls/mbedtls/mbedtls-2.16.2/library\rsa_internal.c **** 
 671              		.loc 1 238 1 discriminator 2 view .LVU189
 672 00c0 CDE7     		b	.L31
 673              	.LVL86:
 674              	.L30:
 212:D:/fchai/work/i-cube/I-CUBE-HUAWEI/Middlewares/Third_Party/Huawei/iot_link/network/dtls/mbedtls/mbedtls-2.16.2/library\rsa_internal.c **** 
 675              		.loc 1 212 15 view .LVU190
 676 00c2 6FF00304 		mvn	r4, #3
 677 00c6 D0E7     		b	.L27
 678              		.cfi_endproc
 679              	.LFE1:
 681              		.section	.text.mbedtls_rsa_validate_crt,"ax",%progbits
 682              		.align	1
 683              		.p2align 2,,3
 684              		.global	mbedtls_rsa_validate_crt
 685              		.syntax unified
 686              		.thumb
 687              		.thumb_func
 688              		.fpu fpv4-sp-d16
 690              	mbedtls_rsa_validate_crt:
 691              	.LVL87:
 692              	.LFB2:
 245:D:/fchai/work/i-cube/I-CUBE-HUAWEI/Middlewares/Third_Party/Huawei/iot_link/network/dtls/mbedtls/mbedtls-2.16.2/library\rsa_internal.c **** 
 246:D:/fchai/work/i-cube/I-CUBE-HUAWEI/Middlewares/Third_Party/Huawei/iot_link/network/dtls/mbedtls/mbedtls-2.16.2/library\rsa_internal.c **** /*
 247:D:/fchai/work/i-cube/I-CUBE-HUAWEI/Middlewares/Third_Party/Huawei/iot_link/network/dtls/mbedtls/mbedtls-2.16.2/library\rsa_internal.c ****  * Check that RSA CRT parameters are in accordance with core parameters.
 248:D:/fchai/work/i-cube/I-CUBE-HUAWEI/Middlewares/Third_Party/Huawei/iot_link/network/dtls/mbedtls/mbedtls-2.16.2/library\rsa_internal.c ****  */
 249:D:/fchai/work/i-cube/I-CUBE-HUAWEI/Middlewares/Third_Party/Huawei/iot_link/network/dtls/mbedtls/mbedtls-2.16.2/library\rsa_internal.c **** int mbedtls_rsa_validate_crt( const mbedtls_mpi *P,  const mbedtls_mpi *Q,
 250:D:/fchai/work/i-cube/I-CUBE-HUAWEI/Middlewares/Third_Party/Huawei/iot_link/network/dtls/mbedtls/mbedtls-2.16.2/library\rsa_internal.c ****                               const mbedtls_mpi *D,  const mbedtls_mpi *DP,
 251:D:/fchai/work/i-cube/I-CUBE-HUAWEI/Middlewares/Third_Party/Huawei/iot_link/network/dtls/mbedtls/mbedtls-2.16.2/library\rsa_internal.c ****                               const mbedtls_mpi *DQ, const mbedtls_mpi *QP )
 252:D:/fchai/work/i-cube/I-CUBE-HUAWEI/Middlewares/Third_Party/Huawei/iot_link/network/dtls/mbedtls/mbedtls-2.16.2/library\rsa_internal.c **** {
 693              		.loc 1 252 1 is_stmt 1 view -0
 694              		.cfi_startproc
ARM GAS  T:\msys\tmp\cc3UYpAk.s 			page 20


 695              		@ args = 8, pretend = 0, frame = 24
 696              		@ frame_needed = 0, uses_anonymous_args = 0
 253:D:/fchai/work/i-cube/I-CUBE-HUAWEI/Middlewares/Third_Party/Huawei/iot_link/network/dtls/mbedtls/mbedtls-2.16.2/library\rsa_internal.c ****     int ret = 0;
 697              		.loc 1 253 5 view .LVU192
 254:D:/fchai/work/i-cube/I-CUBE-HUAWEI/Middlewares/Third_Party/Huawei/iot_link/network/dtls/mbedtls/mbedtls-2.16.2/library\rsa_internal.c **** 
 255:D:/fchai/work/i-cube/I-CUBE-HUAWEI/Middlewares/Third_Party/Huawei/iot_link/network/dtls/mbedtls/mbedtls-2.16.2/library\rsa_internal.c ****     mbedtls_mpi K, L;
 698              		.loc 1 255 5 view .LVU193
 256:D:/fchai/work/i-cube/I-CUBE-HUAWEI/Middlewares/Third_Party/Huawei/iot_link/network/dtls/mbedtls/mbedtls-2.16.2/library\rsa_internal.c ****     mbedtls_mpi_init( &K );
 699              		.loc 1 256 5 view .LVU194
 252:D:/fchai/work/i-cube/I-CUBE-HUAWEI/Middlewares/Third_Party/Huawei/iot_link/network/dtls/mbedtls/mbedtls-2.16.2/library\rsa_internal.c ****     int ret = 0;
 700              		.loc 1 252 1 is_stmt 0 view .LVU195
 701 0000 F0B5     		push	{r4, r5, r6, r7, lr}
 702              	.LCFI10:
 703              		.cfi_def_cfa_offset 20
 704              		.cfi_offset 4, -20
 705              		.cfi_offset 5, -16
 706              		.cfi_offset 6, -12
 707              		.cfi_offset 7, -8
 708              		.cfi_offset 14, -4
 709 0002 87B0     		sub	sp, sp, #28
 710              	.LCFI11:
 711              		.cfi_def_cfa_offset 48
 252:D:/fchai/work/i-cube/I-CUBE-HUAWEI/Middlewares/Third_Party/Huawei/iot_link/network/dtls/mbedtls/mbedtls-2.16.2/library\rsa_internal.c ****     int ret = 0;
 712              		.loc 1 252 1 view .LVU196
 713 0004 0446     		mov	r4, r0
 714              		.loc 1 256 5 view .LVU197
 715 0006 6846     		mov	r0, sp
 716              	.LVL88:
 252:D:/fchai/work/i-cube/I-CUBE-HUAWEI/Middlewares/Third_Party/Huawei/iot_link/network/dtls/mbedtls/mbedtls-2.16.2/library\rsa_internal.c ****     int ret = 0;
 717              		.loc 1 252 1 view .LVU198
 718 0008 1F46     		mov	r7, r3
 719 000a 0D46     		mov	r5, r1
 720 000c 1646     		mov	r6, r2
 721              		.loc 1 256 5 view .LVU199
 722 000e FFF7FEFF 		bl	mbedtls_mpi_init
 723              	.LVL89:
 257:D:/fchai/work/i-cube/I-CUBE-HUAWEI/Middlewares/Third_Party/Huawei/iot_link/network/dtls/mbedtls/mbedtls-2.16.2/library\rsa_internal.c ****     mbedtls_mpi_init( &L );
 724              		.loc 1 257 5 is_stmt 1 view .LVU200
 725 0012 03A8     		add	r0, sp, #12
 726 0014 FFF7FEFF 		bl	mbedtls_mpi_init
 727              	.LVL90:
 258:D:/fchai/work/i-cube/I-CUBE-HUAWEI/Middlewares/Third_Party/Huawei/iot_link/network/dtls/mbedtls/mbedtls-2.16.2/library\rsa_internal.c **** 
 259:D:/fchai/work/i-cube/I-CUBE-HUAWEI/Middlewares/Third_Party/Huawei/iot_link/network/dtls/mbedtls/mbedtls-2.16.2/library\rsa_internal.c ****     /* Check that DP - D == 0 mod P - 1 */
 260:D:/fchai/work/i-cube/I-CUBE-HUAWEI/Middlewares/Third_Party/Huawei/iot_link/network/dtls/mbedtls/mbedtls-2.16.2/library\rsa_internal.c ****     if( DP != NULL )
 728              		.loc 1 260 5 view .LVU201
 729              		.loc 1 260 7 is_stmt 0 view .LVU202
 730 0018 17B3     		cbz	r7, .L44
 261:D:/fchai/work/i-cube/I-CUBE-HUAWEI/Middlewares/Third_Party/Huawei/iot_link/network/dtls/mbedtls/mbedtls-2.16.2/library\rsa_internal.c ****     {
 262:D:/fchai/work/i-cube/I-CUBE-HUAWEI/Middlewares/Third_Party/Huawei/iot_link/network/dtls/mbedtls/mbedtls-2.16.2/library\rsa_internal.c ****         if( P == NULL )
 731              		.loc 1 262 9 is_stmt 1 view .LVU203
 732              		.loc 1 262 11 is_stmt 0 view .LVU204
 733 001a 002C     		cmp	r4, #0
 734 001c 41D0     		beq	.L47
 263:D:/fchai/work/i-cube/I-CUBE-HUAWEI/Middlewares/Third_Party/Huawei/iot_link/network/dtls/mbedtls/mbedtls-2.16.2/library\rsa_internal.c ****         {
 264:D:/fchai/work/i-cube/I-CUBE-HUAWEI/Middlewares/Third_Party/Huawei/iot_link/network/dtls/mbedtls/mbedtls-2.16.2/library\rsa_internal.c ****             ret = MBEDTLS_ERR_RSA_BAD_INPUT_DATA;
 265:D:/fchai/work/i-cube/I-CUBE-HUAWEI/Middlewares/Third_Party/Huawei/iot_link/network/dtls/mbedtls/mbedtls-2.16.2/library\rsa_internal.c ****             goto cleanup;
 266:D:/fchai/work/i-cube/I-CUBE-HUAWEI/Middlewares/Third_Party/Huawei/iot_link/network/dtls/mbedtls/mbedtls-2.16.2/library\rsa_internal.c ****         }
ARM GAS  T:\msys\tmp\cc3UYpAk.s 			page 21


 267:D:/fchai/work/i-cube/I-CUBE-HUAWEI/Middlewares/Third_Party/Huawei/iot_link/network/dtls/mbedtls/mbedtls-2.16.2/library\rsa_internal.c **** 
 268:D:/fchai/work/i-cube/I-CUBE-HUAWEI/Middlewares/Third_Party/Huawei/iot_link/network/dtls/mbedtls/mbedtls-2.16.2/library\rsa_internal.c ****         MBEDTLS_MPI_CHK( mbedtls_mpi_sub_int( &K, P, 1 ) );
 735              		.loc 1 268 9 is_stmt 1 view .LVU205
 736              		.loc 1 268 9 view .LVU206
 737 001e 0122     		movs	r2, #1
 738 0020 2146     		mov	r1, r4
 739 0022 6846     		mov	r0, sp
 740 0024 FFF7FEFF 		bl	mbedtls_mpi_sub_int
 741              	.LVL91:
 742              		.loc 1 268 9 is_stmt 0 view .LVU207
 743 0028 28B9     		cbnz	r0, .L43
 744              		.loc 1 268 9 is_stmt 1 discriminator 2 view .LVU208
 269:D:/fchai/work/i-cube/I-CUBE-HUAWEI/Middlewares/Third_Party/Huawei/iot_link/network/dtls/mbedtls/mbedtls-2.16.2/library\rsa_internal.c ****         MBEDTLS_MPI_CHK( mbedtls_mpi_sub_mpi( &L, DP, D ) );
 745              		.loc 1 269 9 discriminator 2 view .LVU209
 746              		.loc 1 269 9 discriminator 2 view .LVU210
 747 002a 3946     		mov	r1, r7
 748 002c 3246     		mov	r2, r6
 749 002e 03A8     		add	r0, sp, #12
 750              	.LVL92:
 751              		.loc 1 269 9 is_stmt 0 discriminator 2 view .LVU211
 752 0030 FFF7FEFF 		bl	mbedtls_mpi_sub_mpi
 753              	.LVL93:
 754              		.loc 1 269 9 discriminator 2 view .LVU212
 755 0034 40B1     		cbz	r0, .L67
 756              	.L43:
 270:D:/fchai/work/i-cube/I-CUBE-HUAWEI/Middlewares/Third_Party/Huawei/iot_link/network/dtls/mbedtls/mbedtls-2.16.2/library\rsa_internal.c ****         MBEDTLS_MPI_CHK( mbedtls_mpi_mod_mpi( &L, &L, &K ) );
 271:D:/fchai/work/i-cube/I-CUBE-HUAWEI/Middlewares/Third_Party/Huawei/iot_link/network/dtls/mbedtls/mbedtls-2.16.2/library\rsa_internal.c **** 
 272:D:/fchai/work/i-cube/I-CUBE-HUAWEI/Middlewares/Third_Party/Huawei/iot_link/network/dtls/mbedtls/mbedtls-2.16.2/library\rsa_internal.c ****         if( mbedtls_mpi_cmp_int( &L, 0 ) != 0 )
 273:D:/fchai/work/i-cube/I-CUBE-HUAWEI/Middlewares/Third_Party/Huawei/iot_link/network/dtls/mbedtls/mbedtls-2.16.2/library\rsa_internal.c ****         {
 274:D:/fchai/work/i-cube/I-CUBE-HUAWEI/Middlewares/Third_Party/Huawei/iot_link/network/dtls/mbedtls/mbedtls-2.16.2/library\rsa_internal.c ****             ret = MBEDTLS_ERR_RSA_KEY_CHECK_FAILED;
 275:D:/fchai/work/i-cube/I-CUBE-HUAWEI/Middlewares/Third_Party/Huawei/iot_link/network/dtls/mbedtls/mbedtls-2.16.2/library\rsa_internal.c ****             goto cleanup;
 276:D:/fchai/work/i-cube/I-CUBE-HUAWEI/Middlewares/Third_Party/Huawei/iot_link/network/dtls/mbedtls/mbedtls-2.16.2/library\rsa_internal.c ****         }
 277:D:/fchai/work/i-cube/I-CUBE-HUAWEI/Middlewares/Third_Party/Huawei/iot_link/network/dtls/mbedtls/mbedtls-2.16.2/library\rsa_internal.c ****     }
 278:D:/fchai/work/i-cube/I-CUBE-HUAWEI/Middlewares/Third_Party/Huawei/iot_link/network/dtls/mbedtls/mbedtls-2.16.2/library\rsa_internal.c **** 
 279:D:/fchai/work/i-cube/I-CUBE-HUAWEI/Middlewares/Third_Party/Huawei/iot_link/network/dtls/mbedtls/mbedtls-2.16.2/library\rsa_internal.c ****     /* Check that DQ - D == 0 mod Q - 1 */
 280:D:/fchai/work/i-cube/I-CUBE-HUAWEI/Middlewares/Third_Party/Huawei/iot_link/network/dtls/mbedtls/mbedtls-2.16.2/library\rsa_internal.c ****     if( DQ != NULL )
 281:D:/fchai/work/i-cube/I-CUBE-HUAWEI/Middlewares/Third_Party/Huawei/iot_link/network/dtls/mbedtls/mbedtls-2.16.2/library\rsa_internal.c ****     {
 282:D:/fchai/work/i-cube/I-CUBE-HUAWEI/Middlewares/Third_Party/Huawei/iot_link/network/dtls/mbedtls/mbedtls-2.16.2/library\rsa_internal.c ****         if( Q == NULL )
 283:D:/fchai/work/i-cube/I-CUBE-HUAWEI/Middlewares/Third_Party/Huawei/iot_link/network/dtls/mbedtls/mbedtls-2.16.2/library\rsa_internal.c ****         {
 284:D:/fchai/work/i-cube/I-CUBE-HUAWEI/Middlewares/Third_Party/Huawei/iot_link/network/dtls/mbedtls/mbedtls-2.16.2/library\rsa_internal.c ****             ret = MBEDTLS_ERR_RSA_BAD_INPUT_DATA;
 285:D:/fchai/work/i-cube/I-CUBE-HUAWEI/Middlewares/Third_Party/Huawei/iot_link/network/dtls/mbedtls/mbedtls-2.16.2/library\rsa_internal.c ****             goto cleanup;
 286:D:/fchai/work/i-cube/I-CUBE-HUAWEI/Middlewares/Third_Party/Huawei/iot_link/network/dtls/mbedtls/mbedtls-2.16.2/library\rsa_internal.c ****         }
 287:D:/fchai/work/i-cube/I-CUBE-HUAWEI/Middlewares/Third_Party/Huawei/iot_link/network/dtls/mbedtls/mbedtls-2.16.2/library\rsa_internal.c **** 
 288:D:/fchai/work/i-cube/I-CUBE-HUAWEI/Middlewares/Third_Party/Huawei/iot_link/network/dtls/mbedtls/mbedtls-2.16.2/library\rsa_internal.c ****         MBEDTLS_MPI_CHK( mbedtls_mpi_sub_int( &K, Q, 1 ) );
 289:D:/fchai/work/i-cube/I-CUBE-HUAWEI/Middlewares/Third_Party/Huawei/iot_link/network/dtls/mbedtls/mbedtls-2.16.2/library\rsa_internal.c ****         MBEDTLS_MPI_CHK( mbedtls_mpi_sub_mpi( &L, DQ, D ) );
 290:D:/fchai/work/i-cube/I-CUBE-HUAWEI/Middlewares/Third_Party/Huawei/iot_link/network/dtls/mbedtls/mbedtls-2.16.2/library\rsa_internal.c ****         MBEDTLS_MPI_CHK( mbedtls_mpi_mod_mpi( &L, &L, &K ) );
 291:D:/fchai/work/i-cube/I-CUBE-HUAWEI/Middlewares/Third_Party/Huawei/iot_link/network/dtls/mbedtls/mbedtls-2.16.2/library\rsa_internal.c **** 
 292:D:/fchai/work/i-cube/I-CUBE-HUAWEI/Middlewares/Third_Party/Huawei/iot_link/network/dtls/mbedtls/mbedtls-2.16.2/library\rsa_internal.c ****         if( mbedtls_mpi_cmp_int( &L, 0 ) != 0 )
 293:D:/fchai/work/i-cube/I-CUBE-HUAWEI/Middlewares/Third_Party/Huawei/iot_link/network/dtls/mbedtls/mbedtls-2.16.2/library\rsa_internal.c ****         {
 294:D:/fchai/work/i-cube/I-CUBE-HUAWEI/Middlewares/Third_Party/Huawei/iot_link/network/dtls/mbedtls/mbedtls-2.16.2/library\rsa_internal.c ****             ret = MBEDTLS_ERR_RSA_KEY_CHECK_FAILED;
 295:D:/fchai/work/i-cube/I-CUBE-HUAWEI/Middlewares/Third_Party/Huawei/iot_link/network/dtls/mbedtls/mbedtls-2.16.2/library\rsa_internal.c ****             goto cleanup;
 296:D:/fchai/work/i-cube/I-CUBE-HUAWEI/Middlewares/Third_Party/Huawei/iot_link/network/dtls/mbedtls/mbedtls-2.16.2/library\rsa_internal.c ****         }
 297:D:/fchai/work/i-cube/I-CUBE-HUAWEI/Middlewares/Third_Party/Huawei/iot_link/network/dtls/mbedtls/mbedtls-2.16.2/library\rsa_internal.c ****     }
 298:D:/fchai/work/i-cube/I-CUBE-HUAWEI/Middlewares/Third_Party/Huawei/iot_link/network/dtls/mbedtls/mbedtls-2.16.2/library\rsa_internal.c **** 
 299:D:/fchai/work/i-cube/I-CUBE-HUAWEI/Middlewares/Third_Party/Huawei/iot_link/network/dtls/mbedtls/mbedtls-2.16.2/library\rsa_internal.c ****     /* Check that QP * Q - 1 == 0 mod P */
 300:D:/fchai/work/i-cube/I-CUBE-HUAWEI/Middlewares/Third_Party/Huawei/iot_link/network/dtls/mbedtls/mbedtls-2.16.2/library\rsa_internal.c ****     if( QP != NULL )
 301:D:/fchai/work/i-cube/I-CUBE-HUAWEI/Middlewares/Third_Party/Huawei/iot_link/network/dtls/mbedtls/mbedtls-2.16.2/library\rsa_internal.c ****     {
ARM GAS  T:\msys\tmp\cc3UYpAk.s 			page 22


 302:D:/fchai/work/i-cube/I-CUBE-HUAWEI/Middlewares/Third_Party/Huawei/iot_link/network/dtls/mbedtls/mbedtls-2.16.2/library\rsa_internal.c ****         if( P == NULL || Q == NULL )
 303:D:/fchai/work/i-cube/I-CUBE-HUAWEI/Middlewares/Third_Party/Huawei/iot_link/network/dtls/mbedtls/mbedtls-2.16.2/library\rsa_internal.c ****         {
 304:D:/fchai/work/i-cube/I-CUBE-HUAWEI/Middlewares/Third_Party/Huawei/iot_link/network/dtls/mbedtls/mbedtls-2.16.2/library\rsa_internal.c ****             ret = MBEDTLS_ERR_RSA_BAD_INPUT_DATA;
 305:D:/fchai/work/i-cube/I-CUBE-HUAWEI/Middlewares/Third_Party/Huawei/iot_link/network/dtls/mbedtls/mbedtls-2.16.2/library\rsa_internal.c ****             goto cleanup;
 306:D:/fchai/work/i-cube/I-CUBE-HUAWEI/Middlewares/Third_Party/Huawei/iot_link/network/dtls/mbedtls/mbedtls-2.16.2/library\rsa_internal.c ****         }
 307:D:/fchai/work/i-cube/I-CUBE-HUAWEI/Middlewares/Third_Party/Huawei/iot_link/network/dtls/mbedtls/mbedtls-2.16.2/library\rsa_internal.c **** 
 308:D:/fchai/work/i-cube/I-CUBE-HUAWEI/Middlewares/Third_Party/Huawei/iot_link/network/dtls/mbedtls/mbedtls-2.16.2/library\rsa_internal.c ****         MBEDTLS_MPI_CHK( mbedtls_mpi_mul_mpi( &K, QP, Q ) );
 309:D:/fchai/work/i-cube/I-CUBE-HUAWEI/Middlewares/Third_Party/Huawei/iot_link/network/dtls/mbedtls/mbedtls-2.16.2/library\rsa_internal.c ****         MBEDTLS_MPI_CHK( mbedtls_mpi_sub_int( &K, &K, 1 ) );
 310:D:/fchai/work/i-cube/I-CUBE-HUAWEI/Middlewares/Third_Party/Huawei/iot_link/network/dtls/mbedtls/mbedtls-2.16.2/library\rsa_internal.c ****         MBEDTLS_MPI_CHK( mbedtls_mpi_mod_mpi( &K, &K, P ) );
 311:D:/fchai/work/i-cube/I-CUBE-HUAWEI/Middlewares/Third_Party/Huawei/iot_link/network/dtls/mbedtls/mbedtls-2.16.2/library\rsa_internal.c ****         if( mbedtls_mpi_cmp_int( &K, 0 ) != 0 )
 312:D:/fchai/work/i-cube/I-CUBE-HUAWEI/Middlewares/Third_Party/Huawei/iot_link/network/dtls/mbedtls/mbedtls-2.16.2/library\rsa_internal.c ****         {
 313:D:/fchai/work/i-cube/I-CUBE-HUAWEI/Middlewares/Third_Party/Huawei/iot_link/network/dtls/mbedtls/mbedtls-2.16.2/library\rsa_internal.c ****             ret = MBEDTLS_ERR_RSA_KEY_CHECK_FAILED;
 314:D:/fchai/work/i-cube/I-CUBE-HUAWEI/Middlewares/Third_Party/Huawei/iot_link/network/dtls/mbedtls/mbedtls-2.16.2/library\rsa_internal.c ****             goto cleanup;
 315:D:/fchai/work/i-cube/I-CUBE-HUAWEI/Middlewares/Third_Party/Huawei/iot_link/network/dtls/mbedtls/mbedtls-2.16.2/library\rsa_internal.c ****         }
 316:D:/fchai/work/i-cube/I-CUBE-HUAWEI/Middlewares/Third_Party/Huawei/iot_link/network/dtls/mbedtls/mbedtls-2.16.2/library\rsa_internal.c ****     }
 317:D:/fchai/work/i-cube/I-CUBE-HUAWEI/Middlewares/Third_Party/Huawei/iot_link/network/dtls/mbedtls/mbedtls-2.16.2/library\rsa_internal.c **** 
 318:D:/fchai/work/i-cube/I-CUBE-HUAWEI/Middlewares/Third_Party/Huawei/iot_link/network/dtls/mbedtls/mbedtls-2.16.2/library\rsa_internal.c **** cleanup:
 319:D:/fchai/work/i-cube/I-CUBE-HUAWEI/Middlewares/Third_Party/Huawei/iot_link/network/dtls/mbedtls/mbedtls-2.16.2/library\rsa_internal.c **** 
 320:D:/fchai/work/i-cube/I-CUBE-HUAWEI/Middlewares/Third_Party/Huawei/iot_link/network/dtls/mbedtls/mbedtls-2.16.2/library\rsa_internal.c ****     /* Wrap MPI error codes by RSA check failure error code */
 321:D:/fchai/work/i-cube/I-CUBE-HUAWEI/Middlewares/Third_Party/Huawei/iot_link/network/dtls/mbedtls/mbedtls-2.16.2/library\rsa_internal.c ****     if( ret != 0 &&
 757              		.loc 1 321 5 is_stmt 1 view .LVU213
 758              	.LVL94:
 759              		.loc 1 321 18 is_stmt 0 view .LVU214
 760 0036 10F5844F 		cmn	r0, #16896
 761 003a 3CD0     		beq	.L48
 322:D:/fchai/work/i-cube/I-CUBE-HUAWEI/Middlewares/Third_Party/Huawei/iot_link/network/dtls/mbedtls/mbedtls-2.16.2/library\rsa_internal.c ****         ret != MBEDTLS_ERR_RSA_KEY_CHECK_FAILED &&
 762              		.loc 1 322 49 view .LVU215
 763 003c 10F5814F 		cmn	r0, #16512
 764 0040 2FD0     		beq	.L47
 323:D:/fchai/work/i-cube/I-CUBE-HUAWEI/Middlewares/Third_Party/Huawei/iot_link/network/dtls/mbedtls/mbedtls-2.16.2/library\rsa_internal.c ****         ret != MBEDTLS_ERR_RSA_BAD_INPUT_DATA )
 324:D:/fchai/work/i-cube/I-CUBE-HUAWEI/Middlewares/Third_Party/Huawei/iot_link/network/dtls/mbedtls/mbedtls-2.16.2/library\rsa_internal.c ****     {
 325:D:/fchai/work/i-cube/I-CUBE-HUAWEI/Middlewares/Third_Party/Huawei/iot_link/network/dtls/mbedtls/mbedtls-2.16.2/library\rsa_internal.c ****         ret += MBEDTLS_ERR_RSA_KEY_CHECK_FAILED;
 765              		.loc 1 325 9 is_stmt 1 view .LVU216
 766              		.loc 1 325 13 is_stmt 0 view .LVU217
 767 0042 A0F58444 		sub	r4, r0, #16896
 768              	.LVL95:
 769              		.loc 1 325 13 view .LVU218
 770 0046 2DE0     		b	.L42
 771              	.LVL96:
 772              	.L67:
 269:D:/fchai/work/i-cube/I-CUBE-HUAWEI/Middlewares/Third_Party/Huawei/iot_link/network/dtls/mbedtls/mbedtls-2.16.2/library\rsa_internal.c ****         MBEDTLS_MPI_CHK( mbedtls_mpi_mod_mpi( &L, &L, &K ) );
 773              		.loc 1 269 9 is_stmt 1 discriminator 2 view .LVU219
 270:D:/fchai/work/i-cube/I-CUBE-HUAWEI/Middlewares/Third_Party/Huawei/iot_link/network/dtls/mbedtls/mbedtls-2.16.2/library\rsa_internal.c **** 
 774              		.loc 1 270 9 discriminator 2 view .LVU220
 270:D:/fchai/work/i-cube/I-CUBE-HUAWEI/Middlewares/Third_Party/Huawei/iot_link/network/dtls/mbedtls/mbedtls-2.16.2/library\rsa_internal.c **** 
 775              		.loc 1 270 9 discriminator 2 view .LVU221
 776 0048 03A9     		add	r1, sp, #12
 777 004a 6A46     		mov	r2, sp
 778 004c 0846     		mov	r0, r1
 779              	.LVL97:
 270:D:/fchai/work/i-cube/I-CUBE-HUAWEI/Middlewares/Third_Party/Huawei/iot_link/network/dtls/mbedtls/mbedtls-2.16.2/library\rsa_internal.c **** 
 780              		.loc 1 270 9 is_stmt 0 discriminator 2 view .LVU222
 781 004e FFF7FEFF 		bl	mbedtls_mpi_mod_mpi
 782              	.LVL98:
 270:D:/fchai/work/i-cube/I-CUBE-HUAWEI/Middlewares/Third_Party/Huawei/iot_link/network/dtls/mbedtls/mbedtls-2.16.2/library\rsa_internal.c **** 
 783              		.loc 1 270 9 discriminator 2 view .LVU223
 784 0052 0028     		cmp	r0, #0
ARM GAS  T:\msys\tmp\cc3UYpAk.s 			page 23


 785 0054 EFD1     		bne	.L43
 270:D:/fchai/work/i-cube/I-CUBE-HUAWEI/Middlewares/Third_Party/Huawei/iot_link/network/dtls/mbedtls/mbedtls-2.16.2/library\rsa_internal.c **** 
 786              		.loc 1 270 9 is_stmt 1 discriminator 2 view .LVU224
 272:D:/fchai/work/i-cube/I-CUBE-HUAWEI/Middlewares/Third_Party/Huawei/iot_link/network/dtls/mbedtls/mbedtls-2.16.2/library\rsa_internal.c ****         {
 787              		.loc 1 272 9 discriminator 2 view .LVU225
 272:D:/fchai/work/i-cube/I-CUBE-HUAWEI/Middlewares/Third_Party/Huawei/iot_link/network/dtls/mbedtls/mbedtls-2.16.2/library\rsa_internal.c ****         {
 788              		.loc 1 272 13 is_stmt 0 discriminator 2 view .LVU226
 789 0056 0146     		mov	r1, r0
 790 0058 03A8     		add	r0, sp, #12
 791              	.LVL99:
 272:D:/fchai/work/i-cube/I-CUBE-HUAWEI/Middlewares/Third_Party/Huawei/iot_link/network/dtls/mbedtls/mbedtls-2.16.2/library\rsa_internal.c ****         {
 792              		.loc 1 272 13 discriminator 2 view .LVU227
 793 005a FFF7FEFF 		bl	mbedtls_mpi_cmp_int
 794              	.LVL100:
 272:D:/fchai/work/i-cube/I-CUBE-HUAWEI/Middlewares/Third_Party/Huawei/iot_link/network/dtls/mbedtls/mbedtls-2.16.2/library\rsa_internal.c ****         {
 795              		.loc 1 272 11 discriminator 2 view .LVU228
 796 005e 50BB     		cbnz	r0, .L48
 797              	.L44:
 798              	.LVL101:
 280:D:/fchai/work/i-cube/I-CUBE-HUAWEI/Middlewares/Third_Party/Huawei/iot_link/network/dtls/mbedtls/mbedtls-2.16.2/library\rsa_internal.c ****     {
 799              		.loc 1 280 5 is_stmt 1 view .LVU229
 280:D:/fchai/work/i-cube/I-CUBE-HUAWEI/Middlewares/Third_Party/Huawei/iot_link/network/dtls/mbedtls/mbedtls-2.16.2/library\rsa_internal.c ****     {
 800              		.loc 1 280 7 is_stmt 0 view .LVU230
 801 0060 0C9B     		ldr	r3, [sp, #48]
 802 0062 D3B1     		cbz	r3, .L40
 282:D:/fchai/work/i-cube/I-CUBE-HUAWEI/Middlewares/Third_Party/Huawei/iot_link/network/dtls/mbedtls/mbedtls-2.16.2/library\rsa_internal.c ****         {
 803              		.loc 1 282 9 is_stmt 1 view .LVU231
 282:D:/fchai/work/i-cube/I-CUBE-HUAWEI/Middlewares/Third_Party/Huawei/iot_link/network/dtls/mbedtls/mbedtls-2.16.2/library\rsa_internal.c ****         {
 804              		.loc 1 282 11 is_stmt 0 view .LVU232
 805 0064 EDB1     		cbz	r5, .L47
 288:D:/fchai/work/i-cube/I-CUBE-HUAWEI/Middlewares/Third_Party/Huawei/iot_link/network/dtls/mbedtls/mbedtls-2.16.2/library\rsa_internal.c ****         MBEDTLS_MPI_CHK( mbedtls_mpi_sub_mpi( &L, DQ, D ) );
 806              		.loc 1 288 9 is_stmt 1 view .LVU233
 288:D:/fchai/work/i-cube/I-CUBE-HUAWEI/Middlewares/Third_Party/Huawei/iot_link/network/dtls/mbedtls/mbedtls-2.16.2/library\rsa_internal.c ****         MBEDTLS_MPI_CHK( mbedtls_mpi_sub_mpi( &L, DQ, D ) );
 807              		.loc 1 288 9 view .LVU234
 808 0066 0122     		movs	r2, #1
 809 0068 2946     		mov	r1, r5
 810 006a 6846     		mov	r0, sp
 811 006c FFF7FEFF 		bl	mbedtls_mpi_sub_int
 812              	.LVL102:
 288:D:/fchai/work/i-cube/I-CUBE-HUAWEI/Middlewares/Third_Party/Huawei/iot_link/network/dtls/mbedtls/mbedtls-2.16.2/library\rsa_internal.c ****         MBEDTLS_MPI_CHK( mbedtls_mpi_sub_mpi( &L, DQ, D ) );
 813              		.loc 1 288 9 is_stmt 0 view .LVU235
 814 0070 0028     		cmp	r0, #0
 815 0072 E0D1     		bne	.L43
 288:D:/fchai/work/i-cube/I-CUBE-HUAWEI/Middlewares/Third_Party/Huawei/iot_link/network/dtls/mbedtls/mbedtls-2.16.2/library\rsa_internal.c ****         MBEDTLS_MPI_CHK( mbedtls_mpi_sub_mpi( &L, DQ, D ) );
 816              		.loc 1 288 9 is_stmt 1 discriminator 2 view .LVU236
 289:D:/fchai/work/i-cube/I-CUBE-HUAWEI/Middlewares/Third_Party/Huawei/iot_link/network/dtls/mbedtls/mbedtls-2.16.2/library\rsa_internal.c ****         MBEDTLS_MPI_CHK( mbedtls_mpi_mod_mpi( &L, &L, &K ) );
 817              		.loc 1 289 9 discriminator 2 view .LVU237
 289:D:/fchai/work/i-cube/I-CUBE-HUAWEI/Middlewares/Third_Party/Huawei/iot_link/network/dtls/mbedtls/mbedtls-2.16.2/library\rsa_internal.c ****         MBEDTLS_MPI_CHK( mbedtls_mpi_mod_mpi( &L, &L, &K ) );
 818              		.loc 1 289 9 discriminator 2 view .LVU238
 819 0074 0C99     		ldr	r1, [sp, #48]
 820 0076 3246     		mov	r2, r6
 821 0078 03A8     		add	r0, sp, #12
 822              	.LVL103:
 289:D:/fchai/work/i-cube/I-CUBE-HUAWEI/Middlewares/Third_Party/Huawei/iot_link/network/dtls/mbedtls/mbedtls-2.16.2/library\rsa_internal.c ****         MBEDTLS_MPI_CHK( mbedtls_mpi_mod_mpi( &L, &L, &K ) );
 823              		.loc 1 289 9 is_stmt 0 discriminator 2 view .LVU239
 824 007a FFF7FEFF 		bl	mbedtls_mpi_sub_mpi
 825              	.LVL104:
ARM GAS  T:\msys\tmp\cc3UYpAk.s 			page 24


 289:D:/fchai/work/i-cube/I-CUBE-HUAWEI/Middlewares/Third_Party/Huawei/iot_link/network/dtls/mbedtls/mbedtls-2.16.2/library\rsa_internal.c ****         MBEDTLS_MPI_CHK( mbedtls_mpi_mod_mpi( &L, &L, &K ) );
 826              		.loc 1 289 9 discriminator 2 view .LVU240
 827 007e 0028     		cmp	r0, #0
 828 0080 D9D1     		bne	.L43
 289:D:/fchai/work/i-cube/I-CUBE-HUAWEI/Middlewares/Third_Party/Huawei/iot_link/network/dtls/mbedtls/mbedtls-2.16.2/library\rsa_internal.c ****         MBEDTLS_MPI_CHK( mbedtls_mpi_mod_mpi( &L, &L, &K ) );
 829              		.loc 1 289 9 is_stmt 1 discriminator 2 view .LVU241
 290:D:/fchai/work/i-cube/I-CUBE-HUAWEI/Middlewares/Third_Party/Huawei/iot_link/network/dtls/mbedtls/mbedtls-2.16.2/library\rsa_internal.c **** 
 830              		.loc 1 290 9 discriminator 2 view .LVU242
 290:D:/fchai/work/i-cube/I-CUBE-HUAWEI/Middlewares/Third_Party/Huawei/iot_link/network/dtls/mbedtls/mbedtls-2.16.2/library\rsa_internal.c **** 
 831              		.loc 1 290 9 discriminator 2 view .LVU243
 832 0082 03A9     		add	r1, sp, #12
 833 0084 6A46     		mov	r2, sp
 834 0086 0846     		mov	r0, r1
 835              	.LVL105:
 290:D:/fchai/work/i-cube/I-CUBE-HUAWEI/Middlewares/Third_Party/Huawei/iot_link/network/dtls/mbedtls/mbedtls-2.16.2/library\rsa_internal.c **** 
 836              		.loc 1 290 9 is_stmt 0 discriminator 2 view .LVU244
 837 0088 FFF7FEFF 		bl	mbedtls_mpi_mod_mpi
 838              	.LVL106:
 290:D:/fchai/work/i-cube/I-CUBE-HUAWEI/Middlewares/Third_Party/Huawei/iot_link/network/dtls/mbedtls/mbedtls-2.16.2/library\rsa_internal.c **** 
 839              		.loc 1 290 9 discriminator 2 view .LVU245
 840 008c 0028     		cmp	r0, #0
 841 008e D2D1     		bne	.L43
 290:D:/fchai/work/i-cube/I-CUBE-HUAWEI/Middlewares/Third_Party/Huawei/iot_link/network/dtls/mbedtls/mbedtls-2.16.2/library\rsa_internal.c **** 
 842              		.loc 1 290 9 is_stmt 1 discriminator 2 view .LVU246
 292:D:/fchai/work/i-cube/I-CUBE-HUAWEI/Middlewares/Third_Party/Huawei/iot_link/network/dtls/mbedtls/mbedtls-2.16.2/library\rsa_internal.c ****         {
 843              		.loc 1 292 9 discriminator 2 view .LVU247
 292:D:/fchai/work/i-cube/I-CUBE-HUAWEI/Middlewares/Third_Party/Huawei/iot_link/network/dtls/mbedtls/mbedtls-2.16.2/library\rsa_internal.c ****         {
 844              		.loc 1 292 13 is_stmt 0 discriminator 2 view .LVU248
 845 0090 0146     		mov	r1, r0
 846 0092 03A8     		add	r0, sp, #12
 847              	.LVL107:
 292:D:/fchai/work/i-cube/I-CUBE-HUAWEI/Middlewares/Third_Party/Huawei/iot_link/network/dtls/mbedtls/mbedtls-2.16.2/library\rsa_internal.c ****         {
 848              		.loc 1 292 13 discriminator 2 view .LVU249
 849 0094 FFF7FEFF 		bl	mbedtls_mpi_cmp_int
 850              	.LVL108:
 292:D:/fchai/work/i-cube/I-CUBE-HUAWEI/Middlewares/Third_Party/Huawei/iot_link/network/dtls/mbedtls/mbedtls-2.16.2/library\rsa_internal.c ****         {
 851              		.loc 1 292 11 discriminator 2 view .LVU250
 852 0098 68B9     		cbnz	r0, .L48
 853              	.L40:
 854              	.LVL109:
 300:D:/fchai/work/i-cube/I-CUBE-HUAWEI/Middlewares/Third_Party/Huawei/iot_link/network/dtls/mbedtls/mbedtls-2.16.2/library\rsa_internal.c ****     {
 855              		.loc 1 300 5 is_stmt 1 view .LVU251
 300:D:/fchai/work/i-cube/I-CUBE-HUAWEI/Middlewares/Third_Party/Huawei/iot_link/network/dtls/mbedtls/mbedtls-2.16.2/library\rsa_internal.c ****     {
 856              		.loc 1 300 7 is_stmt 0 view .LVU252
 857 009a 0D9B     		ldr	r3, [sp, #52]
 858 009c 43B3     		cbz	r3, .L46
 302:D:/fchai/work/i-cube/I-CUBE-HUAWEI/Middlewares/Third_Party/Huawei/iot_link/network/dtls/mbedtls/mbedtls-2.16.2/library\rsa_internal.c ****         {
 859              		.loc 1 302 9 is_stmt 1 view .LVU253
 302:D:/fchai/work/i-cube/I-CUBE-HUAWEI/Middlewares/Third_Party/Huawei/iot_link/network/dtls/mbedtls/mbedtls-2.16.2/library\rsa_internal.c ****         {
 860              		.loc 1 302 11 is_stmt 0 view .LVU254
 861 009e 04B1     		cbz	r4, .L47
 302:D:/fchai/work/i-cube/I-CUBE-HUAWEI/Middlewares/Third_Party/Huawei/iot_link/network/dtls/mbedtls/mbedtls-2.16.2/library\rsa_internal.c ****         {
 862              		.loc 1 302 23 discriminator 1 view .LVU255
 863 00a0 5DB9     		cbnz	r5, .L68
 864              	.LVL110:
 865              	.L47:
 264:D:/fchai/work/i-cube/I-CUBE-HUAWEI/Middlewares/Third_Party/Huawei/iot_link/network/dtls/mbedtls/mbedtls-2.16.2/library\rsa_internal.c ****             goto cleanup;
ARM GAS  T:\msys\tmp\cc3UYpAk.s 			page 25


 866              		.loc 1 264 17 view .LVU256
 867 00a2 144C     		ldr	r4, .L69
 868              	.LVL111:
 869              	.L42:
 326:D:/fchai/work/i-cube/I-CUBE-HUAWEI/Middlewares/Third_Party/Huawei/iot_link/network/dtls/mbedtls/mbedtls-2.16.2/library\rsa_internal.c ****     }
 327:D:/fchai/work/i-cube/I-CUBE-HUAWEI/Middlewares/Third_Party/Huawei/iot_link/network/dtls/mbedtls/mbedtls-2.16.2/library\rsa_internal.c **** 
 328:D:/fchai/work/i-cube/I-CUBE-HUAWEI/Middlewares/Third_Party/Huawei/iot_link/network/dtls/mbedtls/mbedtls-2.16.2/library\rsa_internal.c ****     mbedtls_mpi_free( &K );
 870              		.loc 1 328 5 is_stmt 1 view .LVU257
 871 00a4 6846     		mov	r0, sp
 872 00a6 FFF7FEFF 		bl	mbedtls_mpi_free
 873              	.LVL112:
 329:D:/fchai/work/i-cube/I-CUBE-HUAWEI/Middlewares/Third_Party/Huawei/iot_link/network/dtls/mbedtls/mbedtls-2.16.2/library\rsa_internal.c ****     mbedtls_mpi_free( &L );
 874              		.loc 1 329 5 view .LVU258
 875 00aa 03A8     		add	r0, sp, #12
 876 00ac FFF7FEFF 		bl	mbedtls_mpi_free
 877              	.LVL113:
 330:D:/fchai/work/i-cube/I-CUBE-HUAWEI/Middlewares/Third_Party/Huawei/iot_link/network/dtls/mbedtls/mbedtls-2.16.2/library\rsa_internal.c **** 
 331:D:/fchai/work/i-cube/I-CUBE-HUAWEI/Middlewares/Third_Party/Huawei/iot_link/network/dtls/mbedtls/mbedtls-2.16.2/library\rsa_internal.c ****     return( ret );
 878              		.loc 1 331 5 view .LVU259
 332:D:/fchai/work/i-cube/I-CUBE-HUAWEI/Middlewares/Third_Party/Huawei/iot_link/network/dtls/mbedtls/mbedtls-2.16.2/library\rsa_internal.c **** }
 879              		.loc 1 332 1 is_stmt 0 view .LVU260
 880 00b0 2046     		mov	r0, r4
 881 00b2 07B0     		add	sp, sp, #28
 882              	.LCFI12:
 883              		.cfi_remember_state
 884              		.cfi_def_cfa_offset 20
 885              		@ sp needed
 886 00b4 F0BD     		pop	{r4, r5, r6, r7, pc}
 887              	.LVL114:
 888              	.L48:
 889              	.LCFI13:
 890              		.cfi_restore_state
 310:D:/fchai/work/i-cube/I-CUBE-HUAWEI/Middlewares/Third_Party/Huawei/iot_link/network/dtls/mbedtls/mbedtls-2.16.2/library\rsa_internal.c ****         if( mbedtls_mpi_cmp_int( &K, 0 ) != 0 )
 891              		.loc 1 310 9 view .LVU261
 892 00b6 104C     		ldr	r4, .L69+4
 893              	.LVL115:
 310:D:/fchai/work/i-cube/I-CUBE-HUAWEI/Middlewares/Third_Party/Huawei/iot_link/network/dtls/mbedtls/mbedtls-2.16.2/library\rsa_internal.c ****         if( mbedtls_mpi_cmp_int( &K, 0 ) != 0 )
 894              		.loc 1 310 9 view .LVU262
 895 00b8 F4E7     		b	.L42
 896              	.LVL116:
 897              	.L68:
 308:D:/fchai/work/i-cube/I-CUBE-HUAWEI/Middlewares/Third_Party/Huawei/iot_link/network/dtls/mbedtls/mbedtls-2.16.2/library\rsa_internal.c ****         MBEDTLS_MPI_CHK( mbedtls_mpi_sub_int( &K, &K, 1 ) );
 898              		.loc 1 308 9 is_stmt 1 view .LVU263
 308:D:/fchai/work/i-cube/I-CUBE-HUAWEI/Middlewares/Third_Party/Huawei/iot_link/network/dtls/mbedtls/mbedtls-2.16.2/library\rsa_internal.c ****         MBEDTLS_MPI_CHK( mbedtls_mpi_sub_int( &K, &K, 1 ) );
 899              		.loc 1 308 9 view .LVU264
 900 00ba 0D99     		ldr	r1, [sp, #52]
 901 00bc 2A46     		mov	r2, r5
 902 00be 6846     		mov	r0, sp
 903 00c0 FFF7FEFF 		bl	mbedtls_mpi_mul_mpi
 904              	.LVL117:
 308:D:/fchai/work/i-cube/I-CUBE-HUAWEI/Middlewares/Third_Party/Huawei/iot_link/network/dtls/mbedtls/mbedtls-2.16.2/library\rsa_internal.c ****         MBEDTLS_MPI_CHK( mbedtls_mpi_sub_int( &K, &K, 1 ) );
 905              		.loc 1 308 9 is_stmt 0 view .LVU265
 906 00c4 0028     		cmp	r0, #0
 907 00c6 B6D1     		bne	.L43
 308:D:/fchai/work/i-cube/I-CUBE-HUAWEI/Middlewares/Third_Party/Huawei/iot_link/network/dtls/mbedtls/mbedtls-2.16.2/library\rsa_internal.c ****         MBEDTLS_MPI_CHK( mbedtls_mpi_sub_int( &K, &K, 1 ) );
 908              		.loc 1 308 9 is_stmt 1 discriminator 2 view .LVU266
 309:D:/fchai/work/i-cube/I-CUBE-HUAWEI/Middlewares/Third_Party/Huawei/iot_link/network/dtls/mbedtls/mbedtls-2.16.2/library\rsa_internal.c ****         MBEDTLS_MPI_CHK( mbedtls_mpi_mod_mpi( &K, &K, P ) );
ARM GAS  T:\msys\tmp\cc3UYpAk.s 			page 26


 909              		.loc 1 309 9 discriminator 2 view .LVU267
 309:D:/fchai/work/i-cube/I-CUBE-HUAWEI/Middlewares/Third_Party/Huawei/iot_link/network/dtls/mbedtls/mbedtls-2.16.2/library\rsa_internal.c ****         MBEDTLS_MPI_CHK( mbedtls_mpi_mod_mpi( &K, &K, P ) );
 910              		.loc 1 309 9 discriminator 2 view .LVU268
 911 00c8 0122     		movs	r2, #1
 912 00ca 6946     		mov	r1, sp
 913 00cc 6846     		mov	r0, sp
 914              	.LVL118:
 309:D:/fchai/work/i-cube/I-CUBE-HUAWEI/Middlewares/Third_Party/Huawei/iot_link/network/dtls/mbedtls/mbedtls-2.16.2/library\rsa_internal.c ****         MBEDTLS_MPI_CHK( mbedtls_mpi_mod_mpi( &K, &K, P ) );
 915              		.loc 1 309 9 is_stmt 0 discriminator 2 view .LVU269
 916 00ce FFF7FEFF 		bl	mbedtls_mpi_sub_int
 917              	.LVL119:
 309:D:/fchai/work/i-cube/I-CUBE-HUAWEI/Middlewares/Third_Party/Huawei/iot_link/network/dtls/mbedtls/mbedtls-2.16.2/library\rsa_internal.c ****         MBEDTLS_MPI_CHK( mbedtls_mpi_mod_mpi( &K, &K, P ) );
 918              		.loc 1 309 9 discriminator 2 view .LVU270
 919 00d2 0028     		cmp	r0, #0
 920 00d4 AFD1     		bne	.L43
 309:D:/fchai/work/i-cube/I-CUBE-HUAWEI/Middlewares/Third_Party/Huawei/iot_link/network/dtls/mbedtls/mbedtls-2.16.2/library\rsa_internal.c ****         MBEDTLS_MPI_CHK( mbedtls_mpi_mod_mpi( &K, &K, P ) );
 921              		.loc 1 309 9 is_stmt 1 discriminator 2 view .LVU271
 310:D:/fchai/work/i-cube/I-CUBE-HUAWEI/Middlewares/Third_Party/Huawei/iot_link/network/dtls/mbedtls/mbedtls-2.16.2/library\rsa_internal.c ****         if( mbedtls_mpi_cmp_int( &K, 0 ) != 0 )
 922              		.loc 1 310 9 discriminator 2 view .LVU272
 310:D:/fchai/work/i-cube/I-CUBE-HUAWEI/Middlewares/Third_Party/Huawei/iot_link/network/dtls/mbedtls/mbedtls-2.16.2/library\rsa_internal.c ****         if( mbedtls_mpi_cmp_int( &K, 0 ) != 0 )
 923              		.loc 1 310 9 discriminator 2 view .LVU273
 924 00d6 2246     		mov	r2, r4
 925 00d8 6946     		mov	r1, sp
 926 00da 6846     		mov	r0, sp
 927              	.LVL120:
 310:D:/fchai/work/i-cube/I-CUBE-HUAWEI/Middlewares/Third_Party/Huawei/iot_link/network/dtls/mbedtls/mbedtls-2.16.2/library\rsa_internal.c ****         if( mbedtls_mpi_cmp_int( &K, 0 ) != 0 )
 928              		.loc 1 310 9 is_stmt 0 discriminator 2 view .LVU274
 929 00dc FFF7FEFF 		bl	mbedtls_mpi_mod_mpi
 930              	.LVL121:
 310:D:/fchai/work/i-cube/I-CUBE-HUAWEI/Middlewares/Third_Party/Huawei/iot_link/network/dtls/mbedtls/mbedtls-2.16.2/library\rsa_internal.c ****         if( mbedtls_mpi_cmp_int( &K, 0 ) != 0 )
 931              		.loc 1 310 9 discriminator 2 view .LVU275
 932 00e0 0028     		cmp	r0, #0
 933 00e2 A8D1     		bne	.L43
 310:D:/fchai/work/i-cube/I-CUBE-HUAWEI/Middlewares/Third_Party/Huawei/iot_link/network/dtls/mbedtls/mbedtls-2.16.2/library\rsa_internal.c ****         if( mbedtls_mpi_cmp_int( &K, 0 ) != 0 )
 934              		.loc 1 310 9 is_stmt 1 discriminator 2 view .LVU276
 311:D:/fchai/work/i-cube/I-CUBE-HUAWEI/Middlewares/Third_Party/Huawei/iot_link/network/dtls/mbedtls/mbedtls-2.16.2/library\rsa_internal.c ****         {
 935              		.loc 1 311 9 discriminator 2 view .LVU277
 311:D:/fchai/work/i-cube/I-CUBE-HUAWEI/Middlewares/Third_Party/Huawei/iot_link/network/dtls/mbedtls/mbedtls-2.16.2/library\rsa_internal.c ****         {
 936              		.loc 1 311 13 is_stmt 0 discriminator 2 view .LVU278
 937 00e4 0146     		mov	r1, r0
 938 00e6 6846     		mov	r0, sp
 939              	.LVL122:
 311:D:/fchai/work/i-cube/I-CUBE-HUAWEI/Middlewares/Third_Party/Huawei/iot_link/network/dtls/mbedtls/mbedtls-2.16.2/library\rsa_internal.c ****         {
 940              		.loc 1 311 13 discriminator 2 view .LVU279
 941 00e8 FFF7FEFF 		bl	mbedtls_mpi_cmp_int
 942              	.LVL123:
 311:D:/fchai/work/i-cube/I-CUBE-HUAWEI/Middlewares/Third_Party/Huawei/iot_link/network/dtls/mbedtls/mbedtls-2.16.2/library\rsa_internal.c ****         {
 943              		.loc 1 311 11 discriminator 2 view .LVU280
 944 00ec 0028     		cmp	r0, #0
 945 00ee E2D1     		bne	.L48
 946              	.L46:
 947              	.LVL124:
 321:D:/fchai/work/i-cube/I-CUBE-HUAWEI/Middlewares/Third_Party/Huawei/iot_link/network/dtls/mbedtls/mbedtls-2.16.2/library\rsa_internal.c ****         ret != MBEDTLS_ERR_RSA_KEY_CHECK_FAILED &&
 948              		.loc 1 321 5 is_stmt 1 view .LVU281
 310:D:/fchai/work/i-cube/I-CUBE-HUAWEI/Middlewares/Third_Party/Huawei/iot_link/network/dtls/mbedtls/mbedtls-2.16.2/library\rsa_internal.c ****         if( mbedtls_mpi_cmp_int( &K, 0 ) != 0 )
 949              		.loc 1 310 9 is_stmt 0 view .LVU282
 950 00f0 0024     		movs	r4, #0
ARM GAS  T:\msys\tmp\cc3UYpAk.s 			page 27


 951              	.LVL125:
 310:D:/fchai/work/i-cube/I-CUBE-HUAWEI/Middlewares/Third_Party/Huawei/iot_link/network/dtls/mbedtls/mbedtls-2.16.2/library\rsa_internal.c ****         if( mbedtls_mpi_cmp_int( &K, 0 ) != 0 )
 952              		.loc 1 310 9 view .LVU283
 953 00f2 D7E7     		b	.L42
 954              	.L70:
 955              		.align	2
 956              	.L69:
 957 00f4 80BFFFFF 		.word	-16512
 958 00f8 00BEFFFF 		.word	-16896
 959              		.cfi_endproc
 960              	.LFE2:
 962              		.section	.text.mbedtls_rsa_validate_params,"ax",%progbits
 963              		.align	1
 964              		.p2align 2,,3
 965              		.global	mbedtls_rsa_validate_params
 966              		.syntax unified
 967              		.thumb
 968              		.thumb_func
 969              		.fpu fpv4-sp-d16
 971              	mbedtls_rsa_validate_params:
 972              	.LVL126:
 973              	.LFB3:
 333:D:/fchai/work/i-cube/I-CUBE-HUAWEI/Middlewares/Third_Party/Huawei/iot_link/network/dtls/mbedtls/mbedtls-2.16.2/library\rsa_internal.c **** 
 334:D:/fchai/work/i-cube/I-CUBE-HUAWEI/Middlewares/Third_Party/Huawei/iot_link/network/dtls/mbedtls/mbedtls-2.16.2/library\rsa_internal.c **** /*
 335:D:/fchai/work/i-cube/I-CUBE-HUAWEI/Middlewares/Third_Party/Huawei/iot_link/network/dtls/mbedtls/mbedtls-2.16.2/library\rsa_internal.c ****  * Check that core RSA parameters are sane.
 336:D:/fchai/work/i-cube/I-CUBE-HUAWEI/Middlewares/Third_Party/Huawei/iot_link/network/dtls/mbedtls/mbedtls-2.16.2/library\rsa_internal.c ****  */
 337:D:/fchai/work/i-cube/I-CUBE-HUAWEI/Middlewares/Third_Party/Huawei/iot_link/network/dtls/mbedtls/mbedtls-2.16.2/library\rsa_internal.c **** int mbedtls_rsa_validate_params( const mbedtls_mpi *N, const mbedtls_mpi *P,
 338:D:/fchai/work/i-cube/I-CUBE-HUAWEI/Middlewares/Third_Party/Huawei/iot_link/network/dtls/mbedtls/mbedtls-2.16.2/library\rsa_internal.c ****                                  const mbedtls_mpi *Q, const mbedtls_mpi *D,
 339:D:/fchai/work/i-cube/I-CUBE-HUAWEI/Middlewares/Third_Party/Huawei/iot_link/network/dtls/mbedtls/mbedtls-2.16.2/library\rsa_internal.c ****                                  const mbedtls_mpi *E,
 340:D:/fchai/work/i-cube/I-CUBE-HUAWEI/Middlewares/Third_Party/Huawei/iot_link/network/dtls/mbedtls/mbedtls-2.16.2/library\rsa_internal.c ****                                  int (*f_rng)(void *, unsigned char *, size_t),
 341:D:/fchai/work/i-cube/I-CUBE-HUAWEI/Middlewares/Third_Party/Huawei/iot_link/network/dtls/mbedtls/mbedtls-2.16.2/library\rsa_internal.c ****                                  void *p_rng )
 342:D:/fchai/work/i-cube/I-CUBE-HUAWEI/Middlewares/Third_Party/Huawei/iot_link/network/dtls/mbedtls/mbedtls-2.16.2/library\rsa_internal.c **** {
 974              		.loc 1 342 1 is_stmt 1 view -0
 975              		.cfi_startproc
 976              		@ args = 12, pretend = 0, frame = 32
 977              		@ frame_needed = 0, uses_anonymous_args = 0
 343:D:/fchai/work/i-cube/I-CUBE-HUAWEI/Middlewares/Third_Party/Huawei/iot_link/network/dtls/mbedtls/mbedtls-2.16.2/library\rsa_internal.c ****     int ret = 0;
 978              		.loc 1 343 5 view .LVU285
 344:D:/fchai/work/i-cube/I-CUBE-HUAWEI/Middlewares/Third_Party/Huawei/iot_link/network/dtls/mbedtls/mbedtls-2.16.2/library\rsa_internal.c ****     mbedtls_mpi K, L;
 979              		.loc 1 344 5 view .LVU286
 345:D:/fchai/work/i-cube/I-CUBE-HUAWEI/Middlewares/Third_Party/Huawei/iot_link/network/dtls/mbedtls/mbedtls-2.16.2/library\rsa_internal.c **** 
 346:D:/fchai/work/i-cube/I-CUBE-HUAWEI/Middlewares/Third_Party/Huawei/iot_link/network/dtls/mbedtls/mbedtls-2.16.2/library\rsa_internal.c ****     mbedtls_mpi_init( &K );
 980              		.loc 1 346 5 view .LVU287
 342:D:/fchai/work/i-cube/I-CUBE-HUAWEI/Middlewares/Third_Party/Huawei/iot_link/network/dtls/mbedtls/mbedtls-2.16.2/library\rsa_internal.c ****     int ret = 0;
 981              		.loc 1 342 1 is_stmt 0 view .LVU288
 982 0000 F0B5     		push	{r4, r5, r6, r7, lr}
 983              	.LCFI14:
 984              		.cfi_def_cfa_offset 20
 985              		.cfi_offset 4, -20
 986              		.cfi_offset 5, -16
 987              		.cfi_offset 6, -12
 988              		.cfi_offset 7, -8
 989              		.cfi_offset 14, -4
 990 0002 89B0     		sub	sp, sp, #36
 991              	.LCFI15:
 992              		.cfi_def_cfa_offset 56
 342:D:/fchai/work/i-cube/I-CUBE-HUAWEI/Middlewares/Third_Party/Huawei/iot_link/network/dtls/mbedtls/mbedtls-2.16.2/library\rsa_internal.c ****     int ret = 0;
ARM GAS  T:\msys\tmp\cc3UYpAk.s 			page 28


 993              		.loc 1 342 1 view .LVU289
 994 0004 0546     		mov	r5, r0
 995              		.loc 1 346 5 view .LVU290
 996 0006 02A8     		add	r0, sp, #8
 997              	.LVL127:
 342:D:/fchai/work/i-cube/I-CUBE-HUAWEI/Middlewares/Third_Party/Huawei/iot_link/network/dtls/mbedtls/mbedtls-2.16.2/library\rsa_internal.c ****     int ret = 0;
 998              		.loc 1 342 1 view .LVU291
 999 0008 0C46     		mov	r4, r1
 1000 000a 1746     		mov	r7, r2
 1001 000c 1E46     		mov	r6, r3
 1002              		.loc 1 346 5 view .LVU292
 1003 000e FFF7FEFF 		bl	mbedtls_mpi_init
 1004              	.LVL128:
 347:D:/fchai/work/i-cube/I-CUBE-HUAWEI/Middlewares/Third_Party/Huawei/iot_link/network/dtls/mbedtls/mbedtls-2.16.2/library\rsa_internal.c ****     mbedtls_mpi_init( &L );
 1005              		.loc 1 347 5 is_stmt 1 view .LVU293
 1006 0012 05A8     		add	r0, sp, #20
 1007 0014 FFF7FEFF 		bl	mbedtls_mpi_init
 1008              	.LVL129:
 348:D:/fchai/work/i-cube/I-CUBE-HUAWEI/Middlewares/Third_Party/Huawei/iot_link/network/dtls/mbedtls/mbedtls-2.16.2/library\rsa_internal.c **** 
 349:D:/fchai/work/i-cube/I-CUBE-HUAWEI/Middlewares/Third_Party/Huawei/iot_link/network/dtls/mbedtls/mbedtls-2.16.2/library\rsa_internal.c ****     /*
 350:D:/fchai/work/i-cube/I-CUBE-HUAWEI/Middlewares/Third_Party/Huawei/iot_link/network/dtls/mbedtls/mbedtls-2.16.2/library\rsa_internal.c ****      * Step 1: If PRNG provided, check that P and Q are prime
 351:D:/fchai/work/i-cube/I-CUBE-HUAWEI/Middlewares/Third_Party/Huawei/iot_link/network/dtls/mbedtls/mbedtls-2.16.2/library\rsa_internal.c ****      */
 352:D:/fchai/work/i-cube/I-CUBE-HUAWEI/Middlewares/Third_Party/Huawei/iot_link/network/dtls/mbedtls/mbedtls-2.16.2/library\rsa_internal.c **** 
 353:D:/fchai/work/i-cube/I-CUBE-HUAWEI/Middlewares/Third_Party/Huawei/iot_link/network/dtls/mbedtls/mbedtls-2.16.2/library\rsa_internal.c **** #if defined(MBEDTLS_GENPRIME)
 354:D:/fchai/work/i-cube/I-CUBE-HUAWEI/Middlewares/Third_Party/Huawei/iot_link/network/dtls/mbedtls/mbedtls-2.16.2/library\rsa_internal.c ****     /*
 355:D:/fchai/work/i-cube/I-CUBE-HUAWEI/Middlewares/Third_Party/Huawei/iot_link/network/dtls/mbedtls/mbedtls-2.16.2/library\rsa_internal.c ****      * When generating keys, the strongest security we support aims for an error
 356:D:/fchai/work/i-cube/I-CUBE-HUAWEI/Middlewares/Third_Party/Huawei/iot_link/network/dtls/mbedtls/mbedtls-2.16.2/library\rsa_internal.c ****      * rate of at most 2^-100 and we are aiming for the same certainty here as
 357:D:/fchai/work/i-cube/I-CUBE-HUAWEI/Middlewares/Third_Party/Huawei/iot_link/network/dtls/mbedtls/mbedtls-2.16.2/library\rsa_internal.c ****      * well.
 358:D:/fchai/work/i-cube/I-CUBE-HUAWEI/Middlewares/Third_Party/Huawei/iot_link/network/dtls/mbedtls/mbedtls-2.16.2/library\rsa_internal.c ****      */
 359:D:/fchai/work/i-cube/I-CUBE-HUAWEI/Middlewares/Third_Party/Huawei/iot_link/network/dtls/mbedtls/mbedtls-2.16.2/library\rsa_internal.c ****     if( f_rng != NULL && P != NULL &&
 360:D:/fchai/work/i-cube/I-CUBE-HUAWEI/Middlewares/Third_Party/Huawei/iot_link/network/dtls/mbedtls/mbedtls-2.16.2/library\rsa_internal.c ****         ( ret = mbedtls_mpi_is_prime_ext( P, 50, f_rng, p_rng ) ) != 0 )
 361:D:/fchai/work/i-cube/I-CUBE-HUAWEI/Middlewares/Third_Party/Huawei/iot_link/network/dtls/mbedtls/mbedtls-2.16.2/library\rsa_internal.c ****     {
 362:D:/fchai/work/i-cube/I-CUBE-HUAWEI/Middlewares/Third_Party/Huawei/iot_link/network/dtls/mbedtls/mbedtls-2.16.2/library\rsa_internal.c ****         ret = MBEDTLS_ERR_RSA_KEY_CHECK_FAILED;
 363:D:/fchai/work/i-cube/I-CUBE-HUAWEI/Middlewares/Third_Party/Huawei/iot_link/network/dtls/mbedtls/mbedtls-2.16.2/library\rsa_internal.c ****         goto cleanup;
 364:D:/fchai/work/i-cube/I-CUBE-HUAWEI/Middlewares/Third_Party/Huawei/iot_link/network/dtls/mbedtls/mbedtls-2.16.2/library\rsa_internal.c ****     }
 365:D:/fchai/work/i-cube/I-CUBE-HUAWEI/Middlewares/Third_Party/Huawei/iot_link/network/dtls/mbedtls/mbedtls-2.16.2/library\rsa_internal.c **** 
 366:D:/fchai/work/i-cube/I-CUBE-HUAWEI/Middlewares/Third_Party/Huawei/iot_link/network/dtls/mbedtls/mbedtls-2.16.2/library\rsa_internal.c ****     if( f_rng != NULL && Q != NULL &&
 367:D:/fchai/work/i-cube/I-CUBE-HUAWEI/Middlewares/Third_Party/Huawei/iot_link/network/dtls/mbedtls/mbedtls-2.16.2/library\rsa_internal.c ****         ( ret = mbedtls_mpi_is_prime_ext( Q, 50, f_rng, p_rng ) ) != 0 )
 368:D:/fchai/work/i-cube/I-CUBE-HUAWEI/Middlewares/Third_Party/Huawei/iot_link/network/dtls/mbedtls/mbedtls-2.16.2/library\rsa_internal.c ****     {
 369:D:/fchai/work/i-cube/I-CUBE-HUAWEI/Middlewares/Third_Party/Huawei/iot_link/network/dtls/mbedtls/mbedtls-2.16.2/library\rsa_internal.c ****         ret = MBEDTLS_ERR_RSA_KEY_CHECK_FAILED;
 370:D:/fchai/work/i-cube/I-CUBE-HUAWEI/Middlewares/Third_Party/Huawei/iot_link/network/dtls/mbedtls/mbedtls-2.16.2/library\rsa_internal.c ****         goto cleanup;
 371:D:/fchai/work/i-cube/I-CUBE-HUAWEI/Middlewares/Third_Party/Huawei/iot_link/network/dtls/mbedtls/mbedtls-2.16.2/library\rsa_internal.c ****     }
 372:D:/fchai/work/i-cube/I-CUBE-HUAWEI/Middlewares/Third_Party/Huawei/iot_link/network/dtls/mbedtls/mbedtls-2.16.2/library\rsa_internal.c **** #else
 373:D:/fchai/work/i-cube/I-CUBE-HUAWEI/Middlewares/Third_Party/Huawei/iot_link/network/dtls/mbedtls/mbedtls-2.16.2/library\rsa_internal.c ****     ((void) f_rng);
 1009              		.loc 1 373 5 view .LVU294
 374:D:/fchai/work/i-cube/I-CUBE-HUAWEI/Middlewares/Third_Party/Huawei/iot_link/network/dtls/mbedtls/mbedtls-2.16.2/library\rsa_internal.c ****     ((void) p_rng);
 1010              		.loc 1 374 5 view .LVU295
 375:D:/fchai/work/i-cube/I-CUBE-HUAWEI/Middlewares/Third_Party/Huawei/iot_link/network/dtls/mbedtls/mbedtls-2.16.2/library\rsa_internal.c **** #endif /* MBEDTLS_GENPRIME */
 376:D:/fchai/work/i-cube/I-CUBE-HUAWEI/Middlewares/Third_Party/Huawei/iot_link/network/dtls/mbedtls/mbedtls-2.16.2/library\rsa_internal.c **** 
 377:D:/fchai/work/i-cube/I-CUBE-HUAWEI/Middlewares/Third_Party/Huawei/iot_link/network/dtls/mbedtls/mbedtls-2.16.2/library\rsa_internal.c ****     /*
 378:D:/fchai/work/i-cube/I-CUBE-HUAWEI/Middlewares/Third_Party/Huawei/iot_link/network/dtls/mbedtls/mbedtls-2.16.2/library\rsa_internal.c ****      * Step 2: Check that 1 < N = P * Q
 379:D:/fchai/work/i-cube/I-CUBE-HUAWEI/Middlewares/Third_Party/Huawei/iot_link/network/dtls/mbedtls/mbedtls-2.16.2/library\rsa_internal.c ****      */
 380:D:/fchai/work/i-cube/I-CUBE-HUAWEI/Middlewares/Third_Party/Huawei/iot_link/network/dtls/mbedtls/mbedtls-2.16.2/library\rsa_internal.c **** 
 381:D:/fchai/work/i-cube/I-CUBE-HUAWEI/Middlewares/Third_Party/Huawei/iot_link/network/dtls/mbedtls/mbedtls-2.16.2/library\rsa_internal.c ****     if( P != NULL && Q != NULL && N != NULL )
 1011              		.loc 1 381 5 view .LVU296
 1012              		.loc 1 381 7 is_stmt 0 view .LVU297
 1013 0018 CCB1     		cbz	r4, .L73
ARM GAS  T:\msys\tmp\cc3UYpAk.s 			page 29


 1014              		.loc 1 381 19 discriminator 1 view .LVU298
 1015 001a C7B1     		cbz	r7, .L73
 1016              		.loc 1 381 32 discriminator 2 view .LVU299
 1017 001c 002D     		cmp	r5, #0
 1018 001e 44D0     		beq	.L82
 382:D:/fchai/work/i-cube/I-CUBE-HUAWEI/Middlewares/Third_Party/Huawei/iot_link/network/dtls/mbedtls/mbedtls-2.16.2/library\rsa_internal.c ****     {
 383:D:/fchai/work/i-cube/I-CUBE-HUAWEI/Middlewares/Third_Party/Huawei/iot_link/network/dtls/mbedtls/mbedtls-2.16.2/library\rsa_internal.c ****         MBEDTLS_MPI_CHK( mbedtls_mpi_mul_mpi( &K, P, Q ) );
 1019              		.loc 1 383 9 is_stmt 1 view .LVU300
 1020              		.loc 1 383 9 view .LVU301
 1021 0020 2146     		mov	r1, r4
 1022 0022 3A46     		mov	r2, r7
 1023 0024 02A8     		add	r0, sp, #8
 1024 0026 FFF7FEFF 		bl	mbedtls_mpi_mul_mpi
 1025              	.LVL130:
 1026              		.loc 1 383 9 is_stmt 0 view .LVU302
 1027 002a 0146     		mov	r1, r0
 1028 002c 0028     		cmp	r0, #0
 1029 002e 00F0A480 		beq	.L98
 1030              	.L77:
 384:D:/fchai/work/i-cube/I-CUBE-HUAWEI/Middlewares/Third_Party/Huawei/iot_link/network/dtls/mbedtls/mbedtls-2.16.2/library\rsa_internal.c ****         if( mbedtls_mpi_cmp_int( N, 1 )  <= 0 ||
 385:D:/fchai/work/i-cube/I-CUBE-HUAWEI/Middlewares/Third_Party/Huawei/iot_link/network/dtls/mbedtls/mbedtls-2.16.2/library\rsa_internal.c ****             mbedtls_mpi_cmp_mpi( &K, N ) != 0 )
 386:D:/fchai/work/i-cube/I-CUBE-HUAWEI/Middlewares/Third_Party/Huawei/iot_link/network/dtls/mbedtls/mbedtls-2.16.2/library\rsa_internal.c ****         {
 387:D:/fchai/work/i-cube/I-CUBE-HUAWEI/Middlewares/Third_Party/Huawei/iot_link/network/dtls/mbedtls/mbedtls-2.16.2/library\rsa_internal.c ****             ret = MBEDTLS_ERR_RSA_KEY_CHECK_FAILED;
 388:D:/fchai/work/i-cube/I-CUBE-HUAWEI/Middlewares/Third_Party/Huawei/iot_link/network/dtls/mbedtls/mbedtls-2.16.2/library\rsa_internal.c ****             goto cleanup;
 389:D:/fchai/work/i-cube/I-CUBE-HUAWEI/Middlewares/Third_Party/Huawei/iot_link/network/dtls/mbedtls/mbedtls-2.16.2/library\rsa_internal.c ****         }
 390:D:/fchai/work/i-cube/I-CUBE-HUAWEI/Middlewares/Third_Party/Huawei/iot_link/network/dtls/mbedtls/mbedtls-2.16.2/library\rsa_internal.c ****     }
 391:D:/fchai/work/i-cube/I-CUBE-HUAWEI/Middlewares/Third_Party/Huawei/iot_link/network/dtls/mbedtls/mbedtls-2.16.2/library\rsa_internal.c **** 
 392:D:/fchai/work/i-cube/I-CUBE-HUAWEI/Middlewares/Third_Party/Huawei/iot_link/network/dtls/mbedtls/mbedtls-2.16.2/library\rsa_internal.c ****     /*
 393:D:/fchai/work/i-cube/I-CUBE-HUAWEI/Middlewares/Third_Party/Huawei/iot_link/network/dtls/mbedtls/mbedtls-2.16.2/library\rsa_internal.c ****      * Step 3: Check and 1 < D, E < N if present.
 394:D:/fchai/work/i-cube/I-CUBE-HUAWEI/Middlewares/Third_Party/Huawei/iot_link/network/dtls/mbedtls/mbedtls-2.16.2/library\rsa_internal.c ****      */
 395:D:/fchai/work/i-cube/I-CUBE-HUAWEI/Middlewares/Third_Party/Huawei/iot_link/network/dtls/mbedtls/mbedtls-2.16.2/library\rsa_internal.c **** 
 396:D:/fchai/work/i-cube/I-CUBE-HUAWEI/Middlewares/Third_Party/Huawei/iot_link/network/dtls/mbedtls/mbedtls-2.16.2/library\rsa_internal.c ****     if( N != NULL && D != NULL && E != NULL )
 397:D:/fchai/work/i-cube/I-CUBE-HUAWEI/Middlewares/Third_Party/Huawei/iot_link/network/dtls/mbedtls/mbedtls-2.16.2/library\rsa_internal.c ****     {
 398:D:/fchai/work/i-cube/I-CUBE-HUAWEI/Middlewares/Third_Party/Huawei/iot_link/network/dtls/mbedtls/mbedtls-2.16.2/library\rsa_internal.c ****         if ( mbedtls_mpi_cmp_int( D, 1 ) <= 0 ||
 399:D:/fchai/work/i-cube/I-CUBE-HUAWEI/Middlewares/Third_Party/Huawei/iot_link/network/dtls/mbedtls/mbedtls-2.16.2/library\rsa_internal.c ****              mbedtls_mpi_cmp_int( E, 1 ) <= 0 ||
 400:D:/fchai/work/i-cube/I-CUBE-HUAWEI/Middlewares/Third_Party/Huawei/iot_link/network/dtls/mbedtls/mbedtls-2.16.2/library\rsa_internal.c ****              mbedtls_mpi_cmp_mpi( D, N ) >= 0 ||
 401:D:/fchai/work/i-cube/I-CUBE-HUAWEI/Middlewares/Third_Party/Huawei/iot_link/network/dtls/mbedtls/mbedtls-2.16.2/library\rsa_internal.c ****              mbedtls_mpi_cmp_mpi( E, N ) >= 0 )
 402:D:/fchai/work/i-cube/I-CUBE-HUAWEI/Middlewares/Third_Party/Huawei/iot_link/network/dtls/mbedtls/mbedtls-2.16.2/library\rsa_internal.c ****         {
 403:D:/fchai/work/i-cube/I-CUBE-HUAWEI/Middlewares/Third_Party/Huawei/iot_link/network/dtls/mbedtls/mbedtls-2.16.2/library\rsa_internal.c ****             ret = MBEDTLS_ERR_RSA_KEY_CHECK_FAILED;
 404:D:/fchai/work/i-cube/I-CUBE-HUAWEI/Middlewares/Third_Party/Huawei/iot_link/network/dtls/mbedtls/mbedtls-2.16.2/library\rsa_internal.c ****             goto cleanup;
 405:D:/fchai/work/i-cube/I-CUBE-HUAWEI/Middlewares/Third_Party/Huawei/iot_link/network/dtls/mbedtls/mbedtls-2.16.2/library\rsa_internal.c ****         }
 406:D:/fchai/work/i-cube/I-CUBE-HUAWEI/Middlewares/Third_Party/Huawei/iot_link/network/dtls/mbedtls/mbedtls-2.16.2/library\rsa_internal.c ****     }
 407:D:/fchai/work/i-cube/I-CUBE-HUAWEI/Middlewares/Third_Party/Huawei/iot_link/network/dtls/mbedtls/mbedtls-2.16.2/library\rsa_internal.c **** 
 408:D:/fchai/work/i-cube/I-CUBE-HUAWEI/Middlewares/Third_Party/Huawei/iot_link/network/dtls/mbedtls/mbedtls-2.16.2/library\rsa_internal.c ****     /*
 409:D:/fchai/work/i-cube/I-CUBE-HUAWEI/Middlewares/Third_Party/Huawei/iot_link/network/dtls/mbedtls/mbedtls-2.16.2/library\rsa_internal.c ****      * Step 4: Check that D, E are inverse modulo P-1 and Q-1
 410:D:/fchai/work/i-cube/I-CUBE-HUAWEI/Middlewares/Third_Party/Huawei/iot_link/network/dtls/mbedtls/mbedtls-2.16.2/library\rsa_internal.c ****      */
 411:D:/fchai/work/i-cube/I-CUBE-HUAWEI/Middlewares/Third_Party/Huawei/iot_link/network/dtls/mbedtls/mbedtls-2.16.2/library\rsa_internal.c **** 
 412:D:/fchai/work/i-cube/I-CUBE-HUAWEI/Middlewares/Third_Party/Huawei/iot_link/network/dtls/mbedtls/mbedtls-2.16.2/library\rsa_internal.c ****     if( P != NULL && Q != NULL && D != NULL && E != NULL )
 413:D:/fchai/work/i-cube/I-CUBE-HUAWEI/Middlewares/Third_Party/Huawei/iot_link/network/dtls/mbedtls/mbedtls-2.16.2/library\rsa_internal.c ****     {
 414:D:/fchai/work/i-cube/I-CUBE-HUAWEI/Middlewares/Third_Party/Huawei/iot_link/network/dtls/mbedtls/mbedtls-2.16.2/library\rsa_internal.c ****         if( mbedtls_mpi_cmp_int( P, 1 ) <= 0 ||
 415:D:/fchai/work/i-cube/I-CUBE-HUAWEI/Middlewares/Third_Party/Huawei/iot_link/network/dtls/mbedtls/mbedtls-2.16.2/library\rsa_internal.c ****             mbedtls_mpi_cmp_int( Q, 1 ) <= 0 )
 416:D:/fchai/work/i-cube/I-CUBE-HUAWEI/Middlewares/Third_Party/Huawei/iot_link/network/dtls/mbedtls/mbedtls-2.16.2/library\rsa_internal.c ****         {
 417:D:/fchai/work/i-cube/I-CUBE-HUAWEI/Middlewares/Third_Party/Huawei/iot_link/network/dtls/mbedtls/mbedtls-2.16.2/library\rsa_internal.c ****             ret = MBEDTLS_ERR_RSA_KEY_CHECK_FAILED;
 418:D:/fchai/work/i-cube/I-CUBE-HUAWEI/Middlewares/Third_Party/Huawei/iot_link/network/dtls/mbedtls/mbedtls-2.16.2/library\rsa_internal.c ****             goto cleanup;
 419:D:/fchai/work/i-cube/I-CUBE-HUAWEI/Middlewares/Third_Party/Huawei/iot_link/network/dtls/mbedtls/mbedtls-2.16.2/library\rsa_internal.c ****         }
 420:D:/fchai/work/i-cube/I-CUBE-HUAWEI/Middlewares/Third_Party/Huawei/iot_link/network/dtls/mbedtls/mbedtls-2.16.2/library\rsa_internal.c **** 
 421:D:/fchai/work/i-cube/I-CUBE-HUAWEI/Middlewares/Third_Party/Huawei/iot_link/network/dtls/mbedtls/mbedtls-2.16.2/library\rsa_internal.c ****         /* Compute DE-1 mod P-1 */
ARM GAS  T:\msys\tmp\cc3UYpAk.s 			page 30


 422:D:/fchai/work/i-cube/I-CUBE-HUAWEI/Middlewares/Third_Party/Huawei/iot_link/network/dtls/mbedtls/mbedtls-2.16.2/library\rsa_internal.c ****         MBEDTLS_MPI_CHK( mbedtls_mpi_mul_mpi( &K, D, E ) );
 423:D:/fchai/work/i-cube/I-CUBE-HUAWEI/Middlewares/Third_Party/Huawei/iot_link/network/dtls/mbedtls/mbedtls-2.16.2/library\rsa_internal.c ****         MBEDTLS_MPI_CHK( mbedtls_mpi_sub_int( &K, &K, 1 ) );
 424:D:/fchai/work/i-cube/I-CUBE-HUAWEI/Middlewares/Third_Party/Huawei/iot_link/network/dtls/mbedtls/mbedtls-2.16.2/library\rsa_internal.c ****         MBEDTLS_MPI_CHK( mbedtls_mpi_sub_int( &L, P, 1 ) );
 425:D:/fchai/work/i-cube/I-CUBE-HUAWEI/Middlewares/Third_Party/Huawei/iot_link/network/dtls/mbedtls/mbedtls-2.16.2/library\rsa_internal.c ****         MBEDTLS_MPI_CHK( mbedtls_mpi_mod_mpi( &K, &K, &L ) );
 426:D:/fchai/work/i-cube/I-CUBE-HUAWEI/Middlewares/Third_Party/Huawei/iot_link/network/dtls/mbedtls/mbedtls-2.16.2/library\rsa_internal.c ****         if( mbedtls_mpi_cmp_int( &K, 0 ) != 0 )
 427:D:/fchai/work/i-cube/I-CUBE-HUAWEI/Middlewares/Third_Party/Huawei/iot_link/network/dtls/mbedtls/mbedtls-2.16.2/library\rsa_internal.c ****         {
 428:D:/fchai/work/i-cube/I-CUBE-HUAWEI/Middlewares/Third_Party/Huawei/iot_link/network/dtls/mbedtls/mbedtls-2.16.2/library\rsa_internal.c ****             ret = MBEDTLS_ERR_RSA_KEY_CHECK_FAILED;
 429:D:/fchai/work/i-cube/I-CUBE-HUAWEI/Middlewares/Third_Party/Huawei/iot_link/network/dtls/mbedtls/mbedtls-2.16.2/library\rsa_internal.c ****             goto cleanup;
 430:D:/fchai/work/i-cube/I-CUBE-HUAWEI/Middlewares/Third_Party/Huawei/iot_link/network/dtls/mbedtls/mbedtls-2.16.2/library\rsa_internal.c ****         }
 431:D:/fchai/work/i-cube/I-CUBE-HUAWEI/Middlewares/Third_Party/Huawei/iot_link/network/dtls/mbedtls/mbedtls-2.16.2/library\rsa_internal.c **** 
 432:D:/fchai/work/i-cube/I-CUBE-HUAWEI/Middlewares/Third_Party/Huawei/iot_link/network/dtls/mbedtls/mbedtls-2.16.2/library\rsa_internal.c ****         /* Compute DE-1 mod Q-1 */
 433:D:/fchai/work/i-cube/I-CUBE-HUAWEI/Middlewares/Third_Party/Huawei/iot_link/network/dtls/mbedtls/mbedtls-2.16.2/library\rsa_internal.c ****         MBEDTLS_MPI_CHK( mbedtls_mpi_mul_mpi( &K, D, E ) );
 434:D:/fchai/work/i-cube/I-CUBE-HUAWEI/Middlewares/Third_Party/Huawei/iot_link/network/dtls/mbedtls/mbedtls-2.16.2/library\rsa_internal.c ****         MBEDTLS_MPI_CHK( mbedtls_mpi_sub_int( &K, &K, 1 ) );
 435:D:/fchai/work/i-cube/I-CUBE-HUAWEI/Middlewares/Third_Party/Huawei/iot_link/network/dtls/mbedtls/mbedtls-2.16.2/library\rsa_internal.c ****         MBEDTLS_MPI_CHK( mbedtls_mpi_sub_int( &L, Q, 1 ) );
 436:D:/fchai/work/i-cube/I-CUBE-HUAWEI/Middlewares/Third_Party/Huawei/iot_link/network/dtls/mbedtls/mbedtls-2.16.2/library\rsa_internal.c ****         MBEDTLS_MPI_CHK( mbedtls_mpi_mod_mpi( &K, &K, &L ) );
 437:D:/fchai/work/i-cube/I-CUBE-HUAWEI/Middlewares/Third_Party/Huawei/iot_link/network/dtls/mbedtls/mbedtls-2.16.2/library\rsa_internal.c ****         if( mbedtls_mpi_cmp_int( &K, 0 ) != 0 )
 438:D:/fchai/work/i-cube/I-CUBE-HUAWEI/Middlewares/Third_Party/Huawei/iot_link/network/dtls/mbedtls/mbedtls-2.16.2/library\rsa_internal.c ****         {
 439:D:/fchai/work/i-cube/I-CUBE-HUAWEI/Middlewares/Third_Party/Huawei/iot_link/network/dtls/mbedtls/mbedtls-2.16.2/library\rsa_internal.c ****             ret = MBEDTLS_ERR_RSA_KEY_CHECK_FAILED;
 440:D:/fchai/work/i-cube/I-CUBE-HUAWEI/Middlewares/Third_Party/Huawei/iot_link/network/dtls/mbedtls/mbedtls-2.16.2/library\rsa_internal.c ****             goto cleanup;
 441:D:/fchai/work/i-cube/I-CUBE-HUAWEI/Middlewares/Third_Party/Huawei/iot_link/network/dtls/mbedtls/mbedtls-2.16.2/library\rsa_internal.c ****         }
 442:D:/fchai/work/i-cube/I-CUBE-HUAWEI/Middlewares/Third_Party/Huawei/iot_link/network/dtls/mbedtls/mbedtls-2.16.2/library\rsa_internal.c ****     }
 443:D:/fchai/work/i-cube/I-CUBE-HUAWEI/Middlewares/Third_Party/Huawei/iot_link/network/dtls/mbedtls/mbedtls-2.16.2/library\rsa_internal.c **** 
 444:D:/fchai/work/i-cube/I-CUBE-HUAWEI/Middlewares/Third_Party/Huawei/iot_link/network/dtls/mbedtls/mbedtls-2.16.2/library\rsa_internal.c **** cleanup:
 445:D:/fchai/work/i-cube/I-CUBE-HUAWEI/Middlewares/Third_Party/Huawei/iot_link/network/dtls/mbedtls/mbedtls-2.16.2/library\rsa_internal.c **** 
 446:D:/fchai/work/i-cube/I-CUBE-HUAWEI/Middlewares/Third_Party/Huawei/iot_link/network/dtls/mbedtls/mbedtls-2.16.2/library\rsa_internal.c ****     mbedtls_mpi_free( &K );
 1031              		.loc 1 446 5 view .LVU303
 1032 0032 02A8     		add	r0, sp, #8
 1033              	.LVL131:
 1034              		.loc 1 446 5 view .LVU304
 1035 0034 0191     		str	r1, [sp, #4]
 1036              	.LVL132:
 1037              		.loc 1 446 5 is_stmt 1 view .LVU305
 1038 0036 FFF7FEFF 		bl	mbedtls_mpi_free
 1039              	.LVL133:
 447:D:/fchai/work/i-cube/I-CUBE-HUAWEI/Middlewares/Third_Party/Huawei/iot_link/network/dtls/mbedtls/mbedtls-2.16.2/library\rsa_internal.c ****     mbedtls_mpi_free( &L );
 1040              		.loc 1 447 5 view .LVU306
 1041 003a 05A8     		add	r0, sp, #20
 1042 003c FFF7FEFF 		bl	mbedtls_mpi_free
 1043              	.LVL134:
 448:D:/fchai/work/i-cube/I-CUBE-HUAWEI/Middlewares/Third_Party/Huawei/iot_link/network/dtls/mbedtls/mbedtls-2.16.2/library\rsa_internal.c **** 
 449:D:/fchai/work/i-cube/I-CUBE-HUAWEI/Middlewares/Third_Party/Huawei/iot_link/network/dtls/mbedtls/mbedtls-2.16.2/library\rsa_internal.c ****     /* Wrap MPI error codes by RSA check failure error code */
 450:D:/fchai/work/i-cube/I-CUBE-HUAWEI/Middlewares/Third_Party/Huawei/iot_link/network/dtls/mbedtls/mbedtls-2.16.2/library\rsa_internal.c ****     if( ret != 0 && ret != MBEDTLS_ERR_RSA_KEY_CHECK_FAILED )
 1044              		.loc 1 450 5 view .LVU307
 1045              		.loc 1 450 18 is_stmt 0 view .LVU308
 1046 0040 0199     		ldr	r1, [sp, #4]
 1047 0042 11F5844F 		cmn	r1, #16896
 451:D:/fchai/work/i-cube/I-CUBE-HUAWEI/Middlewares/Third_Party/Huawei/iot_link/network/dtls/mbedtls/mbedtls-2.16.2/library\rsa_internal.c ****     {
 452:D:/fchai/work/i-cube/I-CUBE-HUAWEI/Middlewares/Third_Party/Huawei/iot_link/network/dtls/mbedtls/mbedtls-2.16.2/library\rsa_internal.c ****         ret += MBEDTLS_ERR_RSA_KEY_CHECK_FAILED;
 1048              		.loc 1 452 13 view .LVU309
 1049 0046 18BF     		it	ne
 1050 0048 A1F58441 		subne	r1, r1, #16896
 1051 004c 92E0     		b	.L71
 1052              	.LVL135:
 1053              	.L73:
 396:D:/fchai/work/i-cube/I-CUBE-HUAWEI/Middlewares/Third_Party/Huawei/iot_link/network/dtls/mbedtls/mbedtls-2.16.2/library\rsa_internal.c ****     {
 1054              		.loc 1 396 5 is_stmt 1 view .LVU310
 396:D:/fchai/work/i-cube/I-CUBE-HUAWEI/Middlewares/Third_Party/Huawei/iot_link/network/dtls/mbedtls/mbedtls-2.16.2/library\rsa_internal.c ****     {
ARM GAS  T:\msys\tmp\cc3UYpAk.s 			page 31


 1055              		.loc 1 396 7 is_stmt 0 view .LVU311
 1056 004e 002D     		cmp	r5, #0
 1057 0050 00F08980 		beq	.L83
 396:D:/fchai/work/i-cube/I-CUBE-HUAWEI/Middlewares/Third_Party/Huawei/iot_link/network/dtls/mbedtls/mbedtls-2.16.2/library\rsa_internal.c ****     {
 1058              		.loc 1 396 19 view .LVU312
 1059 0054 002E     		cmp	r6, #0
 1060 0056 00F08680 		beq	.L83
 396:D:/fchai/work/i-cube/I-CUBE-HUAWEI/Middlewares/Third_Party/Huawei/iot_link/network/dtls/mbedtls/mbedtls-2.16.2/library\rsa_internal.c ****     {
 1061              		.loc 1 396 32 view .LVU313
 1062 005a 0E9B     		ldr	r3, [sp, #56]
 1063 005c 0BB3     		cbz	r3, .L81
 1064              	.L89:
 398:D:/fchai/work/i-cube/I-CUBE-HUAWEI/Middlewares/Third_Party/Huawei/iot_link/network/dtls/mbedtls/mbedtls-2.16.2/library\rsa_internal.c ****              mbedtls_mpi_cmp_int( E, 1 ) <= 0 ||
 1065              		.loc 1 398 9 is_stmt 1 view .LVU314
 398:D:/fchai/work/i-cube/I-CUBE-HUAWEI/Middlewares/Third_Party/Huawei/iot_link/network/dtls/mbedtls/mbedtls-2.16.2/library\rsa_internal.c ****              mbedtls_mpi_cmp_int( E, 1 ) <= 0 ||
 1066              		.loc 1 398 14 is_stmt 0 view .LVU315
 1067 005e 0121     		movs	r1, #1
 1068 0060 3046     		mov	r0, r6
 1069 0062 FFF7FEFF 		bl	mbedtls_mpi_cmp_int
 1070              	.LVL136:
 398:D:/fchai/work/i-cube/I-CUBE-HUAWEI/Middlewares/Third_Party/Huawei/iot_link/network/dtls/mbedtls/mbedtls-2.16.2/library\rsa_internal.c ****              mbedtls_mpi_cmp_int( E, 1 ) <= 0 ||
 1071              		.loc 1 398 12 view .LVU316
 1072 0066 0028     		cmp	r0, #0
 1073 0068 0BDD     		ble	.L78
 399:D:/fchai/work/i-cube/I-CUBE-HUAWEI/Middlewares/Third_Party/Huawei/iot_link/network/dtls/mbedtls/mbedtls-2.16.2/library\rsa_internal.c ****              mbedtls_mpi_cmp_mpi( D, N ) >= 0 ||
 1074              		.loc 1 399 14 discriminator 1 view .LVU317
 1075 006a 0E98     		ldr	r0, [sp, #56]
 1076 006c 0121     		movs	r1, #1
 1077 006e FFF7FEFF 		bl	mbedtls_mpi_cmp_int
 1078              	.LVL137:
 398:D:/fchai/work/i-cube/I-CUBE-HUAWEI/Middlewares/Third_Party/Huawei/iot_link/network/dtls/mbedtls/mbedtls-2.16.2/library\rsa_internal.c ****              mbedtls_mpi_cmp_int( E, 1 ) <= 0 ||
 1079              		.loc 1 398 47 discriminator 1 view .LVU318
 1080 0072 0028     		cmp	r0, #0
 1081 0074 05DD     		ble	.L78
 400:D:/fchai/work/i-cube/I-CUBE-HUAWEI/Middlewares/Third_Party/Huawei/iot_link/network/dtls/mbedtls/mbedtls-2.16.2/library\rsa_internal.c ****              mbedtls_mpi_cmp_mpi( E, N ) >= 0 )
 1082              		.loc 1 400 14 view .LVU319
 1083 0076 2946     		mov	r1, r5
 1084 0078 3046     		mov	r0, r6
 1085 007a FFF7FEFF 		bl	mbedtls_mpi_cmp_mpi
 1086              	.LVL138:
 399:D:/fchai/work/i-cube/I-CUBE-HUAWEI/Middlewares/Third_Party/Huawei/iot_link/network/dtls/mbedtls/mbedtls-2.16.2/library\rsa_internal.c ****              mbedtls_mpi_cmp_mpi( D, N ) >= 0 ||
 1087              		.loc 1 399 47 view .LVU320
 1088 007e 0028     		cmp	r0, #0
 1089 0080 09DB     		blt	.L99
 1090              	.LVL139:
 1091              	.L78:
 446:D:/fchai/work/i-cube/I-CUBE-HUAWEI/Middlewares/Third_Party/Huawei/iot_link/network/dtls/mbedtls/mbedtls-2.16.2/library\rsa_internal.c ****     mbedtls_mpi_free( &L );
 1092              		.loc 1 446 5 is_stmt 1 view .LVU321
 1093 0082 02A8     		add	r0, sp, #8
 1094 0084 FFF7FEFF 		bl	mbedtls_mpi_free
 1095              	.LVL140:
 447:D:/fchai/work/i-cube/I-CUBE-HUAWEI/Middlewares/Third_Party/Huawei/iot_link/network/dtls/mbedtls/mbedtls-2.16.2/library\rsa_internal.c **** 
 1096              		.loc 1 447 5 view .LVU322
 1097 0088 05A8     		add	r0, sp, #20
 1098 008a FFF7FEFF 		bl	mbedtls_mpi_free
 1099              	.LVL141:
 450:D:/fchai/work/i-cube/I-CUBE-HUAWEI/Middlewares/Third_Party/Huawei/iot_link/network/dtls/mbedtls/mbedtls-2.16.2/library\rsa_internal.c ****     {
ARM GAS  T:\msys\tmp\cc3UYpAk.s 			page 32


 1100              		.loc 1 450 5 view .LVU323
 447:D:/fchai/work/i-cube/I-CUBE-HUAWEI/Middlewares/Third_Party/Huawei/iot_link/network/dtls/mbedtls/mbedtls-2.16.2/library\rsa_internal.c **** 
 1101              		.loc 1 447 5 is_stmt 0 view .LVU324
 1102 008e 4549     		ldr	r1, .L100
 453:D:/fchai/work/i-cube/I-CUBE-HUAWEI/Middlewares/Third_Party/Huawei/iot_link/network/dtls/mbedtls/mbedtls-2.16.2/library\rsa_internal.c ****     }
 454:D:/fchai/work/i-cube/I-CUBE-HUAWEI/Middlewares/Third_Party/Huawei/iot_link/network/dtls/mbedtls/mbedtls-2.16.2/library\rsa_internal.c **** 
 455:D:/fchai/work/i-cube/I-CUBE-HUAWEI/Middlewares/Third_Party/Huawei/iot_link/network/dtls/mbedtls/mbedtls-2.16.2/library\rsa_internal.c ****     return( ret );
 456:D:/fchai/work/i-cube/I-CUBE-HUAWEI/Middlewares/Third_Party/Huawei/iot_link/network/dtls/mbedtls/mbedtls-2.16.2/library\rsa_internal.c **** }
 1103              		.loc 1 456 1 view .LVU325
 1104 0090 0846     		mov	r0, r1
 1105 0092 09B0     		add	sp, sp, #36
 1106              	.LCFI16:
 1107              		.cfi_remember_state
 1108              		.cfi_def_cfa_offset 20
 1109              		@ sp needed
 1110 0094 F0BD     		pop	{r4, r5, r6, r7, pc}
 1111              	.LVL142:
 1112              	.L99:
 1113              	.LCFI17:
 1114              		.cfi_restore_state
 401:D:/fchai/work/i-cube/I-CUBE-HUAWEI/Middlewares/Third_Party/Huawei/iot_link/network/dtls/mbedtls/mbedtls-2.16.2/library\rsa_internal.c ****         {
 1115              		.loc 1 401 14 view .LVU326
 1116 0096 0E98     		ldr	r0, [sp, #56]
 1117 0098 2946     		mov	r1, r5
 1118 009a FFF7FEFF 		bl	mbedtls_mpi_cmp_mpi
 1119              	.LVL143:
 400:D:/fchai/work/i-cube/I-CUBE-HUAWEI/Middlewares/Third_Party/Huawei/iot_link/network/dtls/mbedtls/mbedtls-2.16.2/library\rsa_internal.c ****              mbedtls_mpi_cmp_mpi( E, N ) >= 0 )
 1120              		.loc 1 400 47 view .LVU327
 1121 009e 0028     		cmp	r0, #0
 1122 00a0 EFDA     		bge	.L78
 1123              	.L81:
 1124              	.LVL144:
 412:D:/fchai/work/i-cube/I-CUBE-HUAWEI/Middlewares/Third_Party/Huawei/iot_link/network/dtls/mbedtls/mbedtls-2.16.2/library\rsa_internal.c ****     {
 1125              		.loc 1 412 5 is_stmt 1 view .LVU328
 412:D:/fchai/work/i-cube/I-CUBE-HUAWEI/Middlewares/Third_Party/Huawei/iot_link/network/dtls/mbedtls/mbedtls-2.16.2/library\rsa_internal.c ****     {
 1126              		.loc 1 412 7 is_stmt 0 view .LVU329
 1127 00a2 002C     		cmp	r4, #0
 1128 00a4 5FD0     		beq	.L83
 412:D:/fchai/work/i-cube/I-CUBE-HUAWEI/Middlewares/Third_Party/Huawei/iot_link/network/dtls/mbedtls/mbedtls-2.16.2/library\rsa_internal.c ****     {
 1129              		.loc 1 412 19 discriminator 1 view .LVU330
 1130 00a6 002F     		cmp	r7, #0
 1131 00a8 5DD0     		beq	.L83
 1132              	.L82:
 412:D:/fchai/work/i-cube/I-CUBE-HUAWEI/Middlewares/Third_Party/Huawei/iot_link/network/dtls/mbedtls/mbedtls-2.16.2/library\rsa_internal.c ****     {
 1133              		.loc 1 412 32 view .LVU331
 1134 00aa 002E     		cmp	r6, #0
 1135 00ac 5BD0     		beq	.L83
 412:D:/fchai/work/i-cube/I-CUBE-HUAWEI/Middlewares/Third_Party/Huawei/iot_link/network/dtls/mbedtls/mbedtls-2.16.2/library\rsa_internal.c ****     {
 1136              		.loc 1 412 45 discriminator 3 view .LVU332
 1137 00ae 0E9B     		ldr	r3, [sp, #56]
 1138 00b0 002B     		cmp	r3, #0
 1139 00b2 58D0     		beq	.L83
 414:D:/fchai/work/i-cube/I-CUBE-HUAWEI/Middlewares/Third_Party/Huawei/iot_link/network/dtls/mbedtls/mbedtls-2.16.2/library\rsa_internal.c ****             mbedtls_mpi_cmp_int( Q, 1 ) <= 0 )
 1140              		.loc 1 414 9 is_stmt 1 view .LVU333
 414:D:/fchai/work/i-cube/I-CUBE-HUAWEI/Middlewares/Third_Party/Huawei/iot_link/network/dtls/mbedtls/mbedtls-2.16.2/library\rsa_internal.c ****             mbedtls_mpi_cmp_int( Q, 1 ) <= 0 )
 1141              		.loc 1 414 13 is_stmt 0 view .LVU334
 1142 00b4 0121     		movs	r1, #1
ARM GAS  T:\msys\tmp\cc3UYpAk.s 			page 33


 1143 00b6 2046     		mov	r0, r4
 1144 00b8 FFF7FEFF 		bl	mbedtls_mpi_cmp_int
 1145              	.LVL145:
 414:D:/fchai/work/i-cube/I-CUBE-HUAWEI/Middlewares/Third_Party/Huawei/iot_link/network/dtls/mbedtls/mbedtls-2.16.2/library\rsa_internal.c ****             mbedtls_mpi_cmp_int( Q, 1 ) <= 0 )
 1146              		.loc 1 414 11 view .LVU335
 1147 00bc 0028     		cmp	r0, #0
 1148 00be E0DD     		ble	.L78
 415:D:/fchai/work/i-cube/I-CUBE-HUAWEI/Middlewares/Third_Party/Huawei/iot_link/network/dtls/mbedtls/mbedtls-2.16.2/library\rsa_internal.c ****         {
 1149              		.loc 1 415 13 discriminator 1 view .LVU336
 1150 00c0 0121     		movs	r1, #1
 1151 00c2 3846     		mov	r0, r7
 1152 00c4 FFF7FEFF 		bl	mbedtls_mpi_cmp_int
 1153              	.LVL146:
 414:D:/fchai/work/i-cube/I-CUBE-HUAWEI/Middlewares/Third_Party/Huawei/iot_link/network/dtls/mbedtls/mbedtls-2.16.2/library\rsa_internal.c ****             mbedtls_mpi_cmp_int( Q, 1 ) <= 0 )
 1154              		.loc 1 414 46 discriminator 1 view .LVU337
 1155 00c8 0028     		cmp	r0, #0
 1156 00ca DADD     		ble	.L78
 422:D:/fchai/work/i-cube/I-CUBE-HUAWEI/Middlewares/Third_Party/Huawei/iot_link/network/dtls/mbedtls/mbedtls-2.16.2/library\rsa_internal.c ****         MBEDTLS_MPI_CHK( mbedtls_mpi_sub_int( &K, &K, 1 ) );
 1157              		.loc 1 422 9 is_stmt 1 view .LVU338
 422:D:/fchai/work/i-cube/I-CUBE-HUAWEI/Middlewares/Third_Party/Huawei/iot_link/network/dtls/mbedtls/mbedtls-2.16.2/library\rsa_internal.c ****         MBEDTLS_MPI_CHK( mbedtls_mpi_sub_int( &K, &K, 1 ) );
 1158              		.loc 1 422 9 view .LVU339
 1159 00cc 3146     		mov	r1, r6
 1160 00ce 0E9A     		ldr	r2, [sp, #56]
 1161 00d0 02A8     		add	r0, sp, #8
 1162 00d2 FFF7FEFF 		bl	mbedtls_mpi_mul_mpi
 1163              	.LVL147:
 422:D:/fchai/work/i-cube/I-CUBE-HUAWEI/Middlewares/Third_Party/Huawei/iot_link/network/dtls/mbedtls/mbedtls-2.16.2/library\rsa_internal.c ****         MBEDTLS_MPI_CHK( mbedtls_mpi_sub_int( &K, &K, 1 ) );
 1164              		.loc 1 422 9 is_stmt 0 view .LVU340
 1165 00d6 0146     		mov	r1, r0
 1166 00d8 0028     		cmp	r0, #0
 1167 00da AAD1     		bne	.L77
 422:D:/fchai/work/i-cube/I-CUBE-HUAWEI/Middlewares/Third_Party/Huawei/iot_link/network/dtls/mbedtls/mbedtls-2.16.2/library\rsa_internal.c ****         MBEDTLS_MPI_CHK( mbedtls_mpi_sub_int( &K, &K, 1 ) );
 1168              		.loc 1 422 9 is_stmt 1 discriminator 2 view .LVU341
 423:D:/fchai/work/i-cube/I-CUBE-HUAWEI/Middlewares/Third_Party/Huawei/iot_link/network/dtls/mbedtls/mbedtls-2.16.2/library\rsa_internal.c ****         MBEDTLS_MPI_CHK( mbedtls_mpi_sub_int( &L, P, 1 ) );
 1169              		.loc 1 423 9 discriminator 2 view .LVU342
 423:D:/fchai/work/i-cube/I-CUBE-HUAWEI/Middlewares/Third_Party/Huawei/iot_link/network/dtls/mbedtls/mbedtls-2.16.2/library\rsa_internal.c ****         MBEDTLS_MPI_CHK( mbedtls_mpi_sub_int( &L, P, 1 ) );
 1170              		.loc 1 423 9 discriminator 2 view .LVU343
 1171 00dc 02A9     		add	r1, sp, #8
 1172 00de 0846     		mov	r0, r1
 1173              	.LVL148:
 423:D:/fchai/work/i-cube/I-CUBE-HUAWEI/Middlewares/Third_Party/Huawei/iot_link/network/dtls/mbedtls/mbedtls-2.16.2/library\rsa_internal.c ****         MBEDTLS_MPI_CHK( mbedtls_mpi_sub_int( &L, P, 1 ) );
 1174              		.loc 1 423 9 is_stmt 0 discriminator 2 view .LVU344
 1175 00e0 0122     		movs	r2, #1
 1176 00e2 FFF7FEFF 		bl	mbedtls_mpi_sub_int
 1177              	.LVL149:
 423:D:/fchai/work/i-cube/I-CUBE-HUAWEI/Middlewares/Third_Party/Huawei/iot_link/network/dtls/mbedtls/mbedtls-2.16.2/library\rsa_internal.c ****         MBEDTLS_MPI_CHK( mbedtls_mpi_sub_int( &L, P, 1 ) );
 1178              		.loc 1 423 9 discriminator 2 view .LVU345
 1179 00e6 0146     		mov	r1, r0
 1180 00e8 0028     		cmp	r0, #0
 1181 00ea A2D1     		bne	.L77
 423:D:/fchai/work/i-cube/I-CUBE-HUAWEI/Middlewares/Third_Party/Huawei/iot_link/network/dtls/mbedtls/mbedtls-2.16.2/library\rsa_internal.c ****         MBEDTLS_MPI_CHK( mbedtls_mpi_sub_int( &L, P, 1 ) );
 1182              		.loc 1 423 9 is_stmt 1 discriminator 2 view .LVU346
 424:D:/fchai/work/i-cube/I-CUBE-HUAWEI/Middlewares/Third_Party/Huawei/iot_link/network/dtls/mbedtls/mbedtls-2.16.2/library\rsa_internal.c ****         MBEDTLS_MPI_CHK( mbedtls_mpi_mod_mpi( &K, &K, &L ) );
 1183              		.loc 1 424 9 discriminator 2 view .LVU347
 424:D:/fchai/work/i-cube/I-CUBE-HUAWEI/Middlewares/Third_Party/Huawei/iot_link/network/dtls/mbedtls/mbedtls-2.16.2/library\rsa_internal.c ****         MBEDTLS_MPI_CHK( mbedtls_mpi_mod_mpi( &K, &K, &L ) );
 1184              		.loc 1 424 9 discriminator 2 view .LVU348
 1185 00ec 2146     		mov	r1, r4
ARM GAS  T:\msys\tmp\cc3UYpAk.s 			page 34


 1186 00ee 0122     		movs	r2, #1
 1187 00f0 05A8     		add	r0, sp, #20
 1188              	.LVL150:
 424:D:/fchai/work/i-cube/I-CUBE-HUAWEI/Middlewares/Third_Party/Huawei/iot_link/network/dtls/mbedtls/mbedtls-2.16.2/library\rsa_internal.c ****         MBEDTLS_MPI_CHK( mbedtls_mpi_mod_mpi( &K, &K, &L ) );
 1189              		.loc 1 424 9 is_stmt 0 discriminator 2 view .LVU349
 1190 00f2 FFF7FEFF 		bl	mbedtls_mpi_sub_int
 1191              	.LVL151:
 424:D:/fchai/work/i-cube/I-CUBE-HUAWEI/Middlewares/Third_Party/Huawei/iot_link/network/dtls/mbedtls/mbedtls-2.16.2/library\rsa_internal.c ****         MBEDTLS_MPI_CHK( mbedtls_mpi_mod_mpi( &K, &K, &L ) );
 1192              		.loc 1 424 9 discriminator 2 view .LVU350
 1193 00f6 0146     		mov	r1, r0
 1194 00f8 0028     		cmp	r0, #0
 1195 00fa 9AD1     		bne	.L77
 424:D:/fchai/work/i-cube/I-CUBE-HUAWEI/Middlewares/Third_Party/Huawei/iot_link/network/dtls/mbedtls/mbedtls-2.16.2/library\rsa_internal.c ****         MBEDTLS_MPI_CHK( mbedtls_mpi_mod_mpi( &K, &K, &L ) );
 1196              		.loc 1 424 9 is_stmt 1 discriminator 2 view .LVU351
 425:D:/fchai/work/i-cube/I-CUBE-HUAWEI/Middlewares/Third_Party/Huawei/iot_link/network/dtls/mbedtls/mbedtls-2.16.2/library\rsa_internal.c ****         if( mbedtls_mpi_cmp_int( &K, 0 ) != 0 )
 1197              		.loc 1 425 9 discriminator 2 view .LVU352
 425:D:/fchai/work/i-cube/I-CUBE-HUAWEI/Middlewares/Third_Party/Huawei/iot_link/network/dtls/mbedtls/mbedtls-2.16.2/library\rsa_internal.c ****         if( mbedtls_mpi_cmp_int( &K, 0 ) != 0 )
 1198              		.loc 1 425 9 discriminator 2 view .LVU353
 1199 00fc 02A9     		add	r1, sp, #8
 1200 00fe 0846     		mov	r0, r1
 1201              	.LVL152:
 425:D:/fchai/work/i-cube/I-CUBE-HUAWEI/Middlewares/Third_Party/Huawei/iot_link/network/dtls/mbedtls/mbedtls-2.16.2/library\rsa_internal.c ****         if( mbedtls_mpi_cmp_int( &K, 0 ) != 0 )
 1202              		.loc 1 425 9 is_stmt 0 discriminator 2 view .LVU354
 1203 0100 05AA     		add	r2, sp, #20
 1204 0102 FFF7FEFF 		bl	mbedtls_mpi_mod_mpi
 1205              	.LVL153:
 425:D:/fchai/work/i-cube/I-CUBE-HUAWEI/Middlewares/Third_Party/Huawei/iot_link/network/dtls/mbedtls/mbedtls-2.16.2/library\rsa_internal.c ****         if( mbedtls_mpi_cmp_int( &K, 0 ) != 0 )
 1206              		.loc 1 425 9 discriminator 2 view .LVU355
 1207 0106 0146     		mov	r1, r0
 1208 0108 0028     		cmp	r0, #0
 1209 010a 92D1     		bne	.L77
 425:D:/fchai/work/i-cube/I-CUBE-HUAWEI/Middlewares/Third_Party/Huawei/iot_link/network/dtls/mbedtls/mbedtls-2.16.2/library\rsa_internal.c ****         if( mbedtls_mpi_cmp_int( &K, 0 ) != 0 )
 1210              		.loc 1 425 9 is_stmt 1 discriminator 2 view .LVU356
 426:D:/fchai/work/i-cube/I-CUBE-HUAWEI/Middlewares/Third_Party/Huawei/iot_link/network/dtls/mbedtls/mbedtls-2.16.2/library\rsa_internal.c ****         {
 1211              		.loc 1 426 9 discriminator 2 view .LVU357
 426:D:/fchai/work/i-cube/I-CUBE-HUAWEI/Middlewares/Third_Party/Huawei/iot_link/network/dtls/mbedtls/mbedtls-2.16.2/library\rsa_internal.c ****         {
 1212              		.loc 1 426 13 is_stmt 0 discriminator 2 view .LVU358
 1213 010c 02A8     		add	r0, sp, #8
 1214              	.LVL154:
 426:D:/fchai/work/i-cube/I-CUBE-HUAWEI/Middlewares/Third_Party/Huawei/iot_link/network/dtls/mbedtls/mbedtls-2.16.2/library\rsa_internal.c ****         {
 1215              		.loc 1 426 13 discriminator 2 view .LVU359
 1216 010e FFF7FEFF 		bl	mbedtls_mpi_cmp_int
 1217              	.LVL155:
 426:D:/fchai/work/i-cube/I-CUBE-HUAWEI/Middlewares/Third_Party/Huawei/iot_link/network/dtls/mbedtls/mbedtls-2.16.2/library\rsa_internal.c ****         {
 1218              		.loc 1 426 11 discriminator 2 view .LVU360
 1219 0112 0028     		cmp	r0, #0
 1220 0114 B5D1     		bne	.L78
 433:D:/fchai/work/i-cube/I-CUBE-HUAWEI/Middlewares/Third_Party/Huawei/iot_link/network/dtls/mbedtls/mbedtls-2.16.2/library\rsa_internal.c ****         MBEDTLS_MPI_CHK( mbedtls_mpi_sub_int( &K, &K, 1 ) );
 1221              		.loc 1 433 9 is_stmt 1 view .LVU361
 433:D:/fchai/work/i-cube/I-CUBE-HUAWEI/Middlewares/Third_Party/Huawei/iot_link/network/dtls/mbedtls/mbedtls-2.16.2/library\rsa_internal.c ****         MBEDTLS_MPI_CHK( mbedtls_mpi_sub_int( &K, &K, 1 ) );
 1222              		.loc 1 433 9 view .LVU362
 1223 0116 3146     		mov	r1, r6
 1224 0118 0E9A     		ldr	r2, [sp, #56]
 1225 011a 02A8     		add	r0, sp, #8
 1226 011c FFF7FEFF 		bl	mbedtls_mpi_mul_mpi
 1227              	.LVL156:
 433:D:/fchai/work/i-cube/I-CUBE-HUAWEI/Middlewares/Third_Party/Huawei/iot_link/network/dtls/mbedtls/mbedtls-2.16.2/library\rsa_internal.c ****         MBEDTLS_MPI_CHK( mbedtls_mpi_sub_int( &K, &K, 1 ) );
ARM GAS  T:\msys\tmp\cc3UYpAk.s 			page 35


 1228              		.loc 1 433 9 is_stmt 0 view .LVU363
 1229 0120 0146     		mov	r1, r0
 1230 0122 0028     		cmp	r0, #0
 1231 0124 85D1     		bne	.L77
 433:D:/fchai/work/i-cube/I-CUBE-HUAWEI/Middlewares/Third_Party/Huawei/iot_link/network/dtls/mbedtls/mbedtls-2.16.2/library\rsa_internal.c ****         MBEDTLS_MPI_CHK( mbedtls_mpi_sub_int( &K, &K, 1 ) );
 1232              		.loc 1 433 9 is_stmt 1 discriminator 2 view .LVU364
 434:D:/fchai/work/i-cube/I-CUBE-HUAWEI/Middlewares/Third_Party/Huawei/iot_link/network/dtls/mbedtls/mbedtls-2.16.2/library\rsa_internal.c ****         MBEDTLS_MPI_CHK( mbedtls_mpi_sub_int( &L, Q, 1 ) );
 1233              		.loc 1 434 9 discriminator 2 view .LVU365
 434:D:/fchai/work/i-cube/I-CUBE-HUAWEI/Middlewares/Third_Party/Huawei/iot_link/network/dtls/mbedtls/mbedtls-2.16.2/library\rsa_internal.c ****         MBEDTLS_MPI_CHK( mbedtls_mpi_sub_int( &L, Q, 1 ) );
 1234              		.loc 1 434 9 discriminator 2 view .LVU366
 1235 0126 02A9     		add	r1, sp, #8
 1236 0128 0846     		mov	r0, r1
 1237              	.LVL157:
 434:D:/fchai/work/i-cube/I-CUBE-HUAWEI/Middlewares/Third_Party/Huawei/iot_link/network/dtls/mbedtls/mbedtls-2.16.2/library\rsa_internal.c ****         MBEDTLS_MPI_CHK( mbedtls_mpi_sub_int( &L, Q, 1 ) );
 1238              		.loc 1 434 9 is_stmt 0 discriminator 2 view .LVU367
 1239 012a 0122     		movs	r2, #1
 1240 012c FFF7FEFF 		bl	mbedtls_mpi_sub_int
 1241              	.LVL158:
 434:D:/fchai/work/i-cube/I-CUBE-HUAWEI/Middlewares/Third_Party/Huawei/iot_link/network/dtls/mbedtls/mbedtls-2.16.2/library\rsa_internal.c ****         MBEDTLS_MPI_CHK( mbedtls_mpi_sub_int( &L, Q, 1 ) );
 1242              		.loc 1 434 9 discriminator 2 view .LVU368
 1243 0130 0146     		mov	r1, r0
 1244 0132 0028     		cmp	r0, #0
 1245 0134 7FF47DAF 		bne	.L77
 434:D:/fchai/work/i-cube/I-CUBE-HUAWEI/Middlewares/Third_Party/Huawei/iot_link/network/dtls/mbedtls/mbedtls-2.16.2/library\rsa_internal.c ****         MBEDTLS_MPI_CHK( mbedtls_mpi_sub_int( &L, Q, 1 ) );
 1246              		.loc 1 434 9 is_stmt 1 discriminator 2 view .LVU369
 435:D:/fchai/work/i-cube/I-CUBE-HUAWEI/Middlewares/Third_Party/Huawei/iot_link/network/dtls/mbedtls/mbedtls-2.16.2/library\rsa_internal.c ****         MBEDTLS_MPI_CHK( mbedtls_mpi_mod_mpi( &K, &K, &L ) );
 1247              		.loc 1 435 9 discriminator 2 view .LVU370
 435:D:/fchai/work/i-cube/I-CUBE-HUAWEI/Middlewares/Third_Party/Huawei/iot_link/network/dtls/mbedtls/mbedtls-2.16.2/library\rsa_internal.c ****         MBEDTLS_MPI_CHK( mbedtls_mpi_mod_mpi( &K, &K, &L ) );
 1248              		.loc 1 435 9 discriminator 2 view .LVU371
 1249 0138 3946     		mov	r1, r7
 1250 013a 0122     		movs	r2, #1
 1251 013c 05A8     		add	r0, sp, #20
 1252              	.LVL159:
 435:D:/fchai/work/i-cube/I-CUBE-HUAWEI/Middlewares/Third_Party/Huawei/iot_link/network/dtls/mbedtls/mbedtls-2.16.2/library\rsa_internal.c ****         MBEDTLS_MPI_CHK( mbedtls_mpi_mod_mpi( &K, &K, &L ) );
 1253              		.loc 1 435 9 is_stmt 0 discriminator 2 view .LVU372
 1254 013e FFF7FEFF 		bl	mbedtls_mpi_sub_int
 1255              	.LVL160:
 435:D:/fchai/work/i-cube/I-CUBE-HUAWEI/Middlewares/Third_Party/Huawei/iot_link/network/dtls/mbedtls/mbedtls-2.16.2/library\rsa_internal.c ****         MBEDTLS_MPI_CHK( mbedtls_mpi_mod_mpi( &K, &K, &L ) );
 1256              		.loc 1 435 9 discriminator 2 view .LVU373
 1257 0142 0146     		mov	r1, r0
 1258 0144 0028     		cmp	r0, #0
 1259 0146 7FF474AF 		bne	.L77
 435:D:/fchai/work/i-cube/I-CUBE-HUAWEI/Middlewares/Third_Party/Huawei/iot_link/network/dtls/mbedtls/mbedtls-2.16.2/library\rsa_internal.c ****         MBEDTLS_MPI_CHK( mbedtls_mpi_mod_mpi( &K, &K, &L ) );
 1260              		.loc 1 435 9 is_stmt 1 discriminator 2 view .LVU374
 436:D:/fchai/work/i-cube/I-CUBE-HUAWEI/Middlewares/Third_Party/Huawei/iot_link/network/dtls/mbedtls/mbedtls-2.16.2/library\rsa_internal.c ****         if( mbedtls_mpi_cmp_int( &K, 0 ) != 0 )
 1261              		.loc 1 436 9 discriminator 2 view .LVU375
 436:D:/fchai/work/i-cube/I-CUBE-HUAWEI/Middlewares/Third_Party/Huawei/iot_link/network/dtls/mbedtls/mbedtls-2.16.2/library\rsa_internal.c ****         if( mbedtls_mpi_cmp_int( &K, 0 ) != 0 )
 1262              		.loc 1 436 9 discriminator 2 view .LVU376
 1263 014a 02A9     		add	r1, sp, #8
 1264 014c 0846     		mov	r0, r1
 1265              	.LVL161:
 436:D:/fchai/work/i-cube/I-CUBE-HUAWEI/Middlewares/Third_Party/Huawei/iot_link/network/dtls/mbedtls/mbedtls-2.16.2/library\rsa_internal.c ****         if( mbedtls_mpi_cmp_int( &K, 0 ) != 0 )
 1266              		.loc 1 436 9 is_stmt 0 discriminator 2 view .LVU377
 1267 014e 05AA     		add	r2, sp, #20
 1268 0150 FFF7FEFF 		bl	mbedtls_mpi_mod_mpi
 1269              	.LVL162:
 436:D:/fchai/work/i-cube/I-CUBE-HUAWEI/Middlewares/Third_Party/Huawei/iot_link/network/dtls/mbedtls/mbedtls-2.16.2/library\rsa_internal.c ****         if( mbedtls_mpi_cmp_int( &K, 0 ) != 0 )
ARM GAS  T:\msys\tmp\cc3UYpAk.s 			page 36


 1270              		.loc 1 436 9 discriminator 2 view .LVU378
 1271 0154 0146     		mov	r1, r0
 1272 0156 0028     		cmp	r0, #0
 1273 0158 7FF46BAF 		bne	.L77
 436:D:/fchai/work/i-cube/I-CUBE-HUAWEI/Middlewares/Third_Party/Huawei/iot_link/network/dtls/mbedtls/mbedtls-2.16.2/library\rsa_internal.c ****         if( mbedtls_mpi_cmp_int( &K, 0 ) != 0 )
 1274              		.loc 1 436 9 is_stmt 1 discriminator 2 view .LVU379
 437:D:/fchai/work/i-cube/I-CUBE-HUAWEI/Middlewares/Third_Party/Huawei/iot_link/network/dtls/mbedtls/mbedtls-2.16.2/library\rsa_internal.c ****         {
 1275              		.loc 1 437 9 discriminator 2 view .LVU380
 437:D:/fchai/work/i-cube/I-CUBE-HUAWEI/Middlewares/Third_Party/Huawei/iot_link/network/dtls/mbedtls/mbedtls-2.16.2/library\rsa_internal.c ****         {
 1276              		.loc 1 437 13 is_stmt 0 discriminator 2 view .LVU381
 1277 015c 02A8     		add	r0, sp, #8
 1278              	.LVL163:
 437:D:/fchai/work/i-cube/I-CUBE-HUAWEI/Middlewares/Third_Party/Huawei/iot_link/network/dtls/mbedtls/mbedtls-2.16.2/library\rsa_internal.c ****         {
 1279              		.loc 1 437 13 discriminator 2 view .LVU382
 1280 015e FFF7FEFF 		bl	mbedtls_mpi_cmp_int
 1281              	.LVL164:
 437:D:/fchai/work/i-cube/I-CUBE-HUAWEI/Middlewares/Third_Party/Huawei/iot_link/network/dtls/mbedtls/mbedtls-2.16.2/library\rsa_internal.c ****         {
 1282              		.loc 1 437 11 discriminator 2 view .LVU383
 1283 0162 0028     		cmp	r0, #0
 1284 0164 8DD1     		bne	.L78
 1285              	.L83:
 1286              	.LVL165:
 446:D:/fchai/work/i-cube/I-CUBE-HUAWEI/Middlewares/Third_Party/Huawei/iot_link/network/dtls/mbedtls/mbedtls-2.16.2/library\rsa_internal.c ****     mbedtls_mpi_free( &L );
 1287              		.loc 1 446 5 is_stmt 1 view .LVU384
 1288 0166 02A8     		add	r0, sp, #8
 1289 0168 FFF7FEFF 		bl	mbedtls_mpi_free
 1290              	.LVL166:
 447:D:/fchai/work/i-cube/I-CUBE-HUAWEI/Middlewares/Third_Party/Huawei/iot_link/network/dtls/mbedtls/mbedtls-2.16.2/library\rsa_internal.c **** 
 1291              		.loc 1 447 5 view .LVU385
 1292 016c 05A8     		add	r0, sp, #20
 1293 016e FFF7FEFF 		bl	mbedtls_mpi_free
 1294              	.LVL167:
 450:D:/fchai/work/i-cube/I-CUBE-HUAWEI/Middlewares/Third_Party/Huawei/iot_link/network/dtls/mbedtls/mbedtls-2.16.2/library\rsa_internal.c ****     {
 1295              		.loc 1 450 5 view .LVU386
 447:D:/fchai/work/i-cube/I-CUBE-HUAWEI/Middlewares/Third_Party/Huawei/iot_link/network/dtls/mbedtls/mbedtls-2.16.2/library\rsa_internal.c **** 
 1296              		.loc 1 447 5 is_stmt 0 view .LVU387
 1297 0172 0021     		movs	r1, #0
 1298              	.LVL168:
 1299              	.L71:
 1300              		.loc 1 456 1 view .LVU388
 1301 0174 0846     		mov	r0, r1
 1302 0176 09B0     		add	sp, sp, #36
 1303              	.LCFI18:
 1304              		.cfi_remember_state
 1305              		.cfi_def_cfa_offset 20
 1306              		@ sp needed
 1307 0178 F0BD     		pop	{r4, r5, r6, r7, pc}
 1308              	.LVL169:
 1309              	.L98:
 1310              	.LCFI19:
 1311              		.cfi_restore_state
 383:D:/fchai/work/i-cube/I-CUBE-HUAWEI/Middlewares/Third_Party/Huawei/iot_link/network/dtls/mbedtls/mbedtls-2.16.2/library\rsa_internal.c ****         if( mbedtls_mpi_cmp_int( N, 1 )  <= 0 ||
 1312              		.loc 1 383 9 is_stmt 1 discriminator 2 view .LVU389
 384:D:/fchai/work/i-cube/I-CUBE-HUAWEI/Middlewares/Third_Party/Huawei/iot_link/network/dtls/mbedtls/mbedtls-2.16.2/library\rsa_internal.c ****             mbedtls_mpi_cmp_mpi( &K, N ) != 0 )
 1313              		.loc 1 384 9 discriminator 2 view .LVU390
 384:D:/fchai/work/i-cube/I-CUBE-HUAWEI/Middlewares/Third_Party/Huawei/iot_link/network/dtls/mbedtls/mbedtls-2.16.2/library\rsa_internal.c ****             mbedtls_mpi_cmp_mpi( &K, N ) != 0 )
 1314              		.loc 1 384 13 is_stmt 0 discriminator 2 view .LVU391
ARM GAS  T:\msys\tmp\cc3UYpAk.s 			page 37


 1315 017a 0121     		movs	r1, #1
 1316 017c 2846     		mov	r0, r5
 1317              	.LVL170:
 384:D:/fchai/work/i-cube/I-CUBE-HUAWEI/Middlewares/Third_Party/Huawei/iot_link/network/dtls/mbedtls/mbedtls-2.16.2/library\rsa_internal.c ****             mbedtls_mpi_cmp_mpi( &K, N ) != 0 )
 1318              		.loc 1 384 13 discriminator 2 view .LVU392
 1319 017e FFF7FEFF 		bl	mbedtls_mpi_cmp_int
 1320              	.LVL171:
 384:D:/fchai/work/i-cube/I-CUBE-HUAWEI/Middlewares/Third_Party/Huawei/iot_link/network/dtls/mbedtls/mbedtls-2.16.2/library\rsa_internal.c ****             mbedtls_mpi_cmp_mpi( &K, N ) != 0 )
 1321              		.loc 1 384 11 discriminator 2 view .LVU393
 1322 0182 0028     		cmp	r0, #0
 1323 0184 7FF77DAF 		ble	.L78
 385:D:/fchai/work/i-cube/I-CUBE-HUAWEI/Middlewares/Third_Party/Huawei/iot_link/network/dtls/mbedtls/mbedtls-2.16.2/library\rsa_internal.c ****         {
 1324              		.loc 1 385 13 discriminator 1 view .LVU394
 1325 0188 2946     		mov	r1, r5
 1326 018a 02A8     		add	r0, sp, #8
 1327 018c FFF7FEFF 		bl	mbedtls_mpi_cmp_mpi
 1328              	.LVL172:
 384:D:/fchai/work/i-cube/I-CUBE-HUAWEI/Middlewares/Third_Party/Huawei/iot_link/network/dtls/mbedtls/mbedtls-2.16.2/library\rsa_internal.c ****             mbedtls_mpi_cmp_mpi( &K, N ) != 0 )
 1329              		.loc 1 384 47 discriminator 1 view .LVU395
 1330 0190 0028     		cmp	r0, #0
 1331 0192 7FF476AF 		bne	.L78
 1332              	.LVL173:
 396:D:/fchai/work/i-cube/I-CUBE-HUAWEI/Middlewares/Third_Party/Huawei/iot_link/network/dtls/mbedtls/mbedtls-2.16.2/library\rsa_internal.c ****     {
 1333              		.loc 1 396 19 view .LVU396
 1334 0196 002E     		cmp	r6, #0
 1335 0198 E5D0     		beq	.L83
 396:D:/fchai/work/i-cube/I-CUBE-HUAWEI/Middlewares/Third_Party/Huawei/iot_link/network/dtls/mbedtls/mbedtls-2.16.2/library\rsa_internal.c ****     {
 1336              		.loc 1 396 32 view .LVU397
 1337 019a 0E9B     		ldr	r3, [sp, #56]
 1338 019c 002B     		cmp	r3, #0
 1339 019e 7FF45EAF 		bne	.L89
 1340 01a2 E0E7     		b	.L83
 1341              	.L101:
 1342              		.align	2
 1343              	.L100:
 1344 01a4 00BEFFFF 		.word	-16896
 1345              		.cfi_endproc
 1346              	.LFE3:
 1348              		.section	.text.mbedtls_rsa_deduce_crt,"ax",%progbits
 1349              		.align	1
 1350              		.p2align 2,,3
 1351              		.global	mbedtls_rsa_deduce_crt
 1352              		.syntax unified
 1353              		.thumb
 1354              		.thumb_func
 1355              		.fpu fpv4-sp-d16
 1357              	mbedtls_rsa_deduce_crt:
 1358              	.LVL174:
 1359              	.LFB4:
 457:D:/fchai/work/i-cube/I-CUBE-HUAWEI/Middlewares/Third_Party/Huawei/iot_link/network/dtls/mbedtls/mbedtls-2.16.2/library\rsa_internal.c **** 
 458:D:/fchai/work/i-cube/I-CUBE-HUAWEI/Middlewares/Third_Party/Huawei/iot_link/network/dtls/mbedtls/mbedtls-2.16.2/library\rsa_internal.c **** int mbedtls_rsa_deduce_crt( const mbedtls_mpi *P, const mbedtls_mpi *Q,
 459:D:/fchai/work/i-cube/I-CUBE-HUAWEI/Middlewares/Third_Party/Huawei/iot_link/network/dtls/mbedtls/mbedtls-2.16.2/library\rsa_internal.c ****                             const mbedtls_mpi *D, mbedtls_mpi *DP,
 460:D:/fchai/work/i-cube/I-CUBE-HUAWEI/Middlewares/Third_Party/Huawei/iot_link/network/dtls/mbedtls/mbedtls-2.16.2/library\rsa_internal.c ****                             mbedtls_mpi *DQ, mbedtls_mpi *QP )
 461:D:/fchai/work/i-cube/I-CUBE-HUAWEI/Middlewares/Third_Party/Huawei/iot_link/network/dtls/mbedtls/mbedtls-2.16.2/library\rsa_internal.c **** {
 1360              		.loc 1 461 1 is_stmt 1 view -0
 1361              		.cfi_startproc
 1362              		@ args = 8, pretend = 0, frame = 16
ARM GAS  T:\msys\tmp\cc3UYpAk.s 			page 38


 1363              		@ frame_needed = 0, uses_anonymous_args = 0
 462:D:/fchai/work/i-cube/I-CUBE-HUAWEI/Middlewares/Third_Party/Huawei/iot_link/network/dtls/mbedtls/mbedtls-2.16.2/library\rsa_internal.c ****     int ret = 0;
 1364              		.loc 1 462 5 view .LVU399
 463:D:/fchai/work/i-cube/I-CUBE-HUAWEI/Middlewares/Third_Party/Huawei/iot_link/network/dtls/mbedtls/mbedtls-2.16.2/library\rsa_internal.c ****     mbedtls_mpi K;
 1365              		.loc 1 463 5 view .LVU400
 464:D:/fchai/work/i-cube/I-CUBE-HUAWEI/Middlewares/Third_Party/Huawei/iot_link/network/dtls/mbedtls/mbedtls-2.16.2/library\rsa_internal.c ****     mbedtls_mpi_init( &K );
 1366              		.loc 1 464 5 view .LVU401
 461:D:/fchai/work/i-cube/I-CUBE-HUAWEI/Middlewares/Third_Party/Huawei/iot_link/network/dtls/mbedtls/mbedtls-2.16.2/library\rsa_internal.c ****     int ret = 0;
 1367              		.loc 1 461 1 is_stmt 0 view .LVU402
 1368 0000 2DE9F041 		push	{r4, r5, r6, r7, r8, lr}
 1369              	.LCFI20:
 1370              		.cfi_def_cfa_offset 24
 1371              		.cfi_offset 4, -24
 1372              		.cfi_offset 5, -20
 1373              		.cfi_offset 6, -16
 1374              		.cfi_offset 7, -12
 1375              		.cfi_offset 8, -8
 1376              		.cfi_offset 14, -4
 1377 0004 84B0     		sub	sp, sp, #16
 1378              	.LCFI21:
 1379              		.cfi_def_cfa_offset 40
 461:D:/fchai/work/i-cube/I-CUBE-HUAWEI/Middlewares/Third_Party/Huawei/iot_link/network/dtls/mbedtls/mbedtls-2.16.2/library\rsa_internal.c ****     int ret = 0;
 1380              		.loc 1 461 1 view .LVU403
 1381 0006 1D46     		mov	r5, r3
 1382 0008 0646     		mov	r6, r0
 1383              		.loc 1 464 5 view .LVU404
 1384 000a 01A8     		add	r0, sp, #4
 1385              	.LVL175:
 461:D:/fchai/work/i-cube/I-CUBE-HUAWEI/Middlewares/Third_Party/Huawei/iot_link/network/dtls/mbedtls/mbedtls-2.16.2/library\rsa_internal.c ****     int ret = 0;
 1386              		.loc 1 461 1 view .LVU405
 1387 000c 0F46     		mov	r7, r1
 1388 000e 9046     		mov	r8, r2
 1389              		.loc 1 464 5 view .LVU406
 1390 0010 FFF7FEFF 		bl	mbedtls_mpi_init
 1391              	.LVL176:
 465:D:/fchai/work/i-cube/I-CUBE-HUAWEI/Middlewares/Third_Party/Huawei/iot_link/network/dtls/mbedtls/mbedtls-2.16.2/library\rsa_internal.c **** 
 466:D:/fchai/work/i-cube/I-CUBE-HUAWEI/Middlewares/Third_Party/Huawei/iot_link/network/dtls/mbedtls/mbedtls-2.16.2/library\rsa_internal.c ****     /* DP = D mod P-1 */
 467:D:/fchai/work/i-cube/I-CUBE-HUAWEI/Middlewares/Third_Party/Huawei/iot_link/network/dtls/mbedtls/mbedtls-2.16.2/library\rsa_internal.c ****     if( DP != NULL )
 1392              		.loc 1 467 5 is_stmt 1 view .LVU407
 1393              		.loc 1 467 7 is_stmt 0 view .LVU408
 1394 0014 ADB1     		cbz	r5, .L107
 468:D:/fchai/work/i-cube/I-CUBE-HUAWEI/Middlewares/Third_Party/Huawei/iot_link/network/dtls/mbedtls/mbedtls-2.16.2/library\rsa_internal.c ****     {
 469:D:/fchai/work/i-cube/I-CUBE-HUAWEI/Middlewares/Third_Party/Huawei/iot_link/network/dtls/mbedtls/mbedtls-2.16.2/library\rsa_internal.c ****         MBEDTLS_MPI_CHK( mbedtls_mpi_sub_int( &K, P, 1  ) );
 1395              		.loc 1 469 9 is_stmt 1 view .LVU409
 1396              		.loc 1 469 9 view .LVU410
 1397 0016 0122     		movs	r2, #1
 1398 0018 3146     		mov	r1, r6
 1399 001a 01A8     		add	r0, sp, #4
 1400 001c FFF7FEFF 		bl	mbedtls_mpi_sub_int
 1401              	.LVL177:
 1402              		.loc 1 469 9 is_stmt 0 view .LVU411
 1403 0020 0446     		mov	r4, r0
 1404 0022 30B1     		cbz	r0, .L110
 1405              	.LVL178:
 1406              	.L106:
 470:D:/fchai/work/i-cube/I-CUBE-HUAWEI/Middlewares/Third_Party/Huawei/iot_link/network/dtls/mbedtls/mbedtls-2.16.2/library\rsa_internal.c ****         MBEDTLS_MPI_CHK( mbedtls_mpi_mod_mpi( DP, D, &K ) );
 471:D:/fchai/work/i-cube/I-CUBE-HUAWEI/Middlewares/Third_Party/Huawei/iot_link/network/dtls/mbedtls/mbedtls-2.16.2/library\rsa_internal.c ****     }
ARM GAS  T:\msys\tmp\cc3UYpAk.s 			page 39


 472:D:/fchai/work/i-cube/I-CUBE-HUAWEI/Middlewares/Third_Party/Huawei/iot_link/network/dtls/mbedtls/mbedtls-2.16.2/library\rsa_internal.c **** 
 473:D:/fchai/work/i-cube/I-CUBE-HUAWEI/Middlewares/Third_Party/Huawei/iot_link/network/dtls/mbedtls/mbedtls-2.16.2/library\rsa_internal.c ****     /* DQ = D mod Q-1 */
 474:D:/fchai/work/i-cube/I-CUBE-HUAWEI/Middlewares/Third_Party/Huawei/iot_link/network/dtls/mbedtls/mbedtls-2.16.2/library\rsa_internal.c ****     if( DQ != NULL )
 475:D:/fchai/work/i-cube/I-CUBE-HUAWEI/Middlewares/Third_Party/Huawei/iot_link/network/dtls/mbedtls/mbedtls-2.16.2/library\rsa_internal.c ****     {
 476:D:/fchai/work/i-cube/I-CUBE-HUAWEI/Middlewares/Third_Party/Huawei/iot_link/network/dtls/mbedtls/mbedtls-2.16.2/library\rsa_internal.c ****         MBEDTLS_MPI_CHK( mbedtls_mpi_sub_int( &K, Q, 1  ) );
 477:D:/fchai/work/i-cube/I-CUBE-HUAWEI/Middlewares/Third_Party/Huawei/iot_link/network/dtls/mbedtls/mbedtls-2.16.2/library\rsa_internal.c ****         MBEDTLS_MPI_CHK( mbedtls_mpi_mod_mpi( DQ, D, &K ) );
 478:D:/fchai/work/i-cube/I-CUBE-HUAWEI/Middlewares/Third_Party/Huawei/iot_link/network/dtls/mbedtls/mbedtls-2.16.2/library\rsa_internal.c ****     }
 479:D:/fchai/work/i-cube/I-CUBE-HUAWEI/Middlewares/Third_Party/Huawei/iot_link/network/dtls/mbedtls/mbedtls-2.16.2/library\rsa_internal.c **** 
 480:D:/fchai/work/i-cube/I-CUBE-HUAWEI/Middlewares/Third_Party/Huawei/iot_link/network/dtls/mbedtls/mbedtls-2.16.2/library\rsa_internal.c ****     /* QP = Q^{-1} mod P */
 481:D:/fchai/work/i-cube/I-CUBE-HUAWEI/Middlewares/Third_Party/Huawei/iot_link/network/dtls/mbedtls/mbedtls-2.16.2/library\rsa_internal.c ****     if( QP != NULL )
 482:D:/fchai/work/i-cube/I-CUBE-HUAWEI/Middlewares/Third_Party/Huawei/iot_link/network/dtls/mbedtls/mbedtls-2.16.2/library\rsa_internal.c ****     {
 483:D:/fchai/work/i-cube/I-CUBE-HUAWEI/Middlewares/Third_Party/Huawei/iot_link/network/dtls/mbedtls/mbedtls-2.16.2/library\rsa_internal.c ****         MBEDTLS_MPI_CHK( mbedtls_mpi_inv_mod( QP, Q, P ) );
 1407              		.loc 1 483 9 is_stmt 1 discriminator 3 view .LVU412
 484:D:/fchai/work/i-cube/I-CUBE-HUAWEI/Middlewares/Third_Party/Huawei/iot_link/network/dtls/mbedtls/mbedtls-2.16.2/library\rsa_internal.c ****     }
 485:D:/fchai/work/i-cube/I-CUBE-HUAWEI/Middlewares/Third_Party/Huawei/iot_link/network/dtls/mbedtls/mbedtls-2.16.2/library\rsa_internal.c **** 
 486:D:/fchai/work/i-cube/I-CUBE-HUAWEI/Middlewares/Third_Party/Huawei/iot_link/network/dtls/mbedtls/mbedtls-2.16.2/library\rsa_internal.c **** cleanup:
 487:D:/fchai/work/i-cube/I-CUBE-HUAWEI/Middlewares/Third_Party/Huawei/iot_link/network/dtls/mbedtls/mbedtls-2.16.2/library\rsa_internal.c ****     mbedtls_mpi_free( &K );
 1408              		.loc 1 487 5 discriminator 3 view .LVU413
 1409 0024 01A8     		add	r0, sp, #4
 1410 0026 FFF7FEFF 		bl	mbedtls_mpi_free
 1411              	.LVL179:
 488:D:/fchai/work/i-cube/I-CUBE-HUAWEI/Middlewares/Third_Party/Huawei/iot_link/network/dtls/mbedtls/mbedtls-2.16.2/library\rsa_internal.c **** 
 489:D:/fchai/work/i-cube/I-CUBE-HUAWEI/Middlewares/Third_Party/Huawei/iot_link/network/dtls/mbedtls/mbedtls-2.16.2/library\rsa_internal.c ****     return( ret );
 1412              		.loc 1 489 5 discriminator 3 view .LVU414
 490:D:/fchai/work/i-cube/I-CUBE-HUAWEI/Middlewares/Third_Party/Huawei/iot_link/network/dtls/mbedtls/mbedtls-2.16.2/library\rsa_internal.c **** }
 1413              		.loc 1 490 1 is_stmt 0 discriminator 3 view .LVU415
 1414 002a 2046     		mov	r0, r4
 1415 002c 04B0     		add	sp, sp, #16
 1416              	.LCFI22:
 1417              		.cfi_remember_state
 1418              		.cfi_def_cfa_offset 24
 1419              		@ sp needed
 1420 002e BDE8F081 		pop	{r4, r5, r6, r7, r8, pc}
 1421              	.LVL180:
 1422              	.L110:
 1423              	.LCFI23:
 1424              		.cfi_restore_state
 469:D:/fchai/work/i-cube/I-CUBE-HUAWEI/Middlewares/Third_Party/Huawei/iot_link/network/dtls/mbedtls/mbedtls-2.16.2/library\rsa_internal.c ****         MBEDTLS_MPI_CHK( mbedtls_mpi_mod_mpi( DP, D, &K ) );
 1425              		.loc 1 469 9 is_stmt 1 discriminator 2 view .LVU416
 470:D:/fchai/work/i-cube/I-CUBE-HUAWEI/Middlewares/Third_Party/Huawei/iot_link/network/dtls/mbedtls/mbedtls-2.16.2/library\rsa_internal.c ****     }
 1426              		.loc 1 470 9 discriminator 2 view .LVU417
 470:D:/fchai/work/i-cube/I-CUBE-HUAWEI/Middlewares/Third_Party/Huawei/iot_link/network/dtls/mbedtls/mbedtls-2.16.2/library\rsa_internal.c ****     }
 1427              		.loc 1 470 9 discriminator 2 view .LVU418
 1428 0032 2846     		mov	r0, r5
 1429              	.LVL181:
 470:D:/fchai/work/i-cube/I-CUBE-HUAWEI/Middlewares/Third_Party/Huawei/iot_link/network/dtls/mbedtls/mbedtls-2.16.2/library\rsa_internal.c ****     }
 1430              		.loc 1 470 9 is_stmt 0 discriminator 2 view .LVU419
 1431 0034 01AA     		add	r2, sp, #4
 1432 0036 4146     		mov	r1, r8
 1433 0038 FFF7FEFF 		bl	mbedtls_mpi_mod_mpi
 1434              	.LVL182:
 470:D:/fchai/work/i-cube/I-CUBE-HUAWEI/Middlewares/Third_Party/Huawei/iot_link/network/dtls/mbedtls/mbedtls-2.16.2/library\rsa_internal.c ****     }
 1435              		.loc 1 470 9 discriminator 2 view .LVU420
 1436 003c 0446     		mov	r4, r0
 1437 003e 0028     		cmp	r0, #0
 1438 0040 F0D1     		bne	.L106
 1439              	.LVL183:
ARM GAS  T:\msys\tmp\cc3UYpAk.s 			page 40


 1440              	.L107:
 470:D:/fchai/work/i-cube/I-CUBE-HUAWEI/Middlewares/Third_Party/Huawei/iot_link/network/dtls/mbedtls/mbedtls-2.16.2/library\rsa_internal.c ****     }
 1441              		.loc 1 470 9 is_stmt 1 view .LVU421
 474:D:/fchai/work/i-cube/I-CUBE-HUAWEI/Middlewares/Third_Party/Huawei/iot_link/network/dtls/mbedtls/mbedtls-2.16.2/library\rsa_internal.c ****     {
 1442              		.loc 1 474 5 view .LVU422
 474:D:/fchai/work/i-cube/I-CUBE-HUAWEI/Middlewares/Third_Party/Huawei/iot_link/network/dtls/mbedtls/mbedtls-2.16.2/library\rsa_internal.c ****     {
 1443              		.loc 1 474 7 is_stmt 0 view .LVU423
 1444 0042 0A9B     		ldr	r3, [sp, #40]
 1445 0044 7BB1     		cbz	r3, .L105
 476:D:/fchai/work/i-cube/I-CUBE-HUAWEI/Middlewares/Third_Party/Huawei/iot_link/network/dtls/mbedtls/mbedtls-2.16.2/library\rsa_internal.c ****         MBEDTLS_MPI_CHK( mbedtls_mpi_mod_mpi( DQ, D, &K ) );
 1446              		.loc 1 476 9 is_stmt 1 view .LVU424
 476:D:/fchai/work/i-cube/I-CUBE-HUAWEI/Middlewares/Third_Party/Huawei/iot_link/network/dtls/mbedtls/mbedtls-2.16.2/library\rsa_internal.c ****         MBEDTLS_MPI_CHK( mbedtls_mpi_mod_mpi( DQ, D, &K ) );
 1447              		.loc 1 476 9 view .LVU425
 1448 0046 0122     		movs	r2, #1
 1449 0048 3946     		mov	r1, r7
 1450 004a 01A8     		add	r0, sp, #4
 1451 004c FFF7FEFF 		bl	mbedtls_mpi_sub_int
 1452              	.LVL184:
 476:D:/fchai/work/i-cube/I-CUBE-HUAWEI/Middlewares/Third_Party/Huawei/iot_link/network/dtls/mbedtls/mbedtls-2.16.2/library\rsa_internal.c ****         MBEDTLS_MPI_CHK( mbedtls_mpi_mod_mpi( DQ, D, &K ) );
 1453              		.loc 1 476 9 is_stmt 0 view .LVU426
 1454 0050 0446     		mov	r4, r0
 1455 0052 0028     		cmp	r0, #0
 1456 0054 E6D1     		bne	.L106
 476:D:/fchai/work/i-cube/I-CUBE-HUAWEI/Middlewares/Third_Party/Huawei/iot_link/network/dtls/mbedtls/mbedtls-2.16.2/library\rsa_internal.c ****         MBEDTLS_MPI_CHK( mbedtls_mpi_mod_mpi( DQ, D, &K ) );
 1457              		.loc 1 476 9 is_stmt 1 discriminator 2 view .LVU427
 477:D:/fchai/work/i-cube/I-CUBE-HUAWEI/Middlewares/Third_Party/Huawei/iot_link/network/dtls/mbedtls/mbedtls-2.16.2/library\rsa_internal.c ****     }
 1458              		.loc 1 477 9 discriminator 2 view .LVU428
 477:D:/fchai/work/i-cube/I-CUBE-HUAWEI/Middlewares/Third_Party/Huawei/iot_link/network/dtls/mbedtls/mbedtls-2.16.2/library\rsa_internal.c ****     }
 1459              		.loc 1 477 9 discriminator 2 view .LVU429
 1460 0056 0A98     		ldr	r0, [sp, #40]
 1461              	.LVL185:
 477:D:/fchai/work/i-cube/I-CUBE-HUAWEI/Middlewares/Third_Party/Huawei/iot_link/network/dtls/mbedtls/mbedtls-2.16.2/library\rsa_internal.c ****     }
 1462              		.loc 1 477 9 is_stmt 0 discriminator 2 view .LVU430
 1463 0058 4146     		mov	r1, r8
 1464 005a 01AA     		add	r2, sp, #4
 1465 005c FFF7FEFF 		bl	mbedtls_mpi_mod_mpi
 1466              	.LVL186:
 477:D:/fchai/work/i-cube/I-CUBE-HUAWEI/Middlewares/Third_Party/Huawei/iot_link/network/dtls/mbedtls/mbedtls-2.16.2/library\rsa_internal.c ****     }
 1467              		.loc 1 477 9 discriminator 2 view .LVU431
 1468 0060 0446     		mov	r4, r0
 1469 0062 0028     		cmp	r0, #0
 1470 0064 DED1     		bne	.L106
 1471              	.LVL187:
 1472              	.L105:
 477:D:/fchai/work/i-cube/I-CUBE-HUAWEI/Middlewares/Third_Party/Huawei/iot_link/network/dtls/mbedtls/mbedtls-2.16.2/library\rsa_internal.c ****     }
 1473              		.loc 1 477 9 is_stmt 1 view .LVU432
 481:D:/fchai/work/i-cube/I-CUBE-HUAWEI/Middlewares/Third_Party/Huawei/iot_link/network/dtls/mbedtls/mbedtls-2.16.2/library\rsa_internal.c ****     {
 1474              		.loc 1 481 5 view .LVU433
 481:D:/fchai/work/i-cube/I-CUBE-HUAWEI/Middlewares/Third_Party/Huawei/iot_link/network/dtls/mbedtls/mbedtls-2.16.2/library\rsa_internal.c ****     {
 1475              		.loc 1 481 7 is_stmt 0 view .LVU434
 1476 0066 0B9B     		ldr	r3, [sp, #44]
 1477 0068 33B1     		cbz	r3, .L111
 483:D:/fchai/work/i-cube/I-CUBE-HUAWEI/Middlewares/Third_Party/Huawei/iot_link/network/dtls/mbedtls/mbedtls-2.16.2/library\rsa_internal.c ****     }
 1478              		.loc 1 483 9 is_stmt 1 view .LVU435
 483:D:/fchai/work/i-cube/I-CUBE-HUAWEI/Middlewares/Third_Party/Huawei/iot_link/network/dtls/mbedtls/mbedtls-2.16.2/library\rsa_internal.c ****     }
 1479              		.loc 1 483 9 view .LVU436
 1480 006a 0B98     		ldr	r0, [sp, #44]
ARM GAS  T:\msys\tmp\cc3UYpAk.s 			page 41


 1481 006c 3246     		mov	r2, r6
 1482 006e 3946     		mov	r1, r7
 1483 0070 FFF7FEFF 		bl	mbedtls_mpi_inv_mod
 1484              	.LVL188:
 1485 0074 0446     		mov	r4, r0
 1486              	.LVL189:
 486:D:/fchai/work/i-cube/I-CUBE-HUAWEI/Middlewares/Third_Party/Huawei/iot_link/network/dtls/mbedtls/mbedtls-2.16.2/library\rsa_internal.c ****     mbedtls_mpi_free( &K );
 1487              		.loc 1 486 1 is_stmt 0 view .LVU437
 1488 0076 D5E7     		b	.L106
 1489              	.LVL190:
 1490              	.L111:
 486:D:/fchai/work/i-cube/I-CUBE-HUAWEI/Middlewares/Third_Party/Huawei/iot_link/network/dtls/mbedtls/mbedtls-2.16.2/library\rsa_internal.c ****     mbedtls_mpi_free( &K );
 1491              		.loc 1 486 1 view .LVU438
 1492 0078 1C46     		mov	r4, r3
 1493 007a D3E7     		b	.L106
 1494              		.cfi_endproc
 1495              	.LFE4:
 1497              		.text
 1498              	.Letext0:
 1499              		.file 2 "t:\\msys\\3rd\\gcc-arm-none-eabi-9-2020-q2-update-win32\\arm-none-eabi\\include\\machine\
 1500              		.file 3 "t:\\msys\\3rd\\gcc-arm-none-eabi-9-2020-q2-update-win32\\lib\\gcc\\arm-none-eabi\\9.3.1\\
 1501              		.file 4 "t:\\msys\\3rd\\gcc-arm-none-eabi-9-2020-q2-update-win32\\arm-none-eabi\\include\\sys\\_st
 1502              		.file 5 "D:/fchai/work/i-cube/I-CUBE-HUAWEI/Middlewares/Third_Party/Huawei/iot_link/network/dtls/m
ARM GAS  T:\msys\tmp\cc3UYpAk.s 			page 42

