ARM GAS  T:\msys\tmp\ccBepS7m.s 			page 1


   1              		.cpu cortex-m4
   2              		.eabi_attribute 27, 1
   3              		.eabi_attribute 28, 1
   4              		.eabi_attribute 20, 1
   5              		.eabi_attribute 21, 1
   6              		.eabi_attribute 23, 3
   7              		.eabi_attribute 24, 1
   8              		.eabi_attribute 25, 1
   9              		.eabi_attribute 26, 1
  10              		.eabi_attribute 30, 2
  11              		.eabi_attribute 34, 1
  12              		.eabi_attribute 18, 4
  13              		.file	"sha1.c"
  14              		.text
  15              	.Ltext0:
  16              		.cfi_sections	.debug_frame
  17              		.section	.text.mbedtls_sha1_init,"ax",%progbits
  18              		.align	1
  19              		.p2align 2,,3
  20              		.global	mbedtls_sha1_init
  21              		.arch armv7e-m
  22              		.syntax unified
  23              		.thumb
  24              		.thumb_func
  25              		.fpu fpv4-sp-d16
  27              	mbedtls_sha1_init:
  28              	.LVL0:
  29              	.LFB0:
  30              		.file 1 "D:/fchai/work/i-cube/I-CUBE-HUAWEI/Middlewares/Third_Party/Huawei/iot_link/network/dtls/m
   1:D:/fchai/work/i-cube/I-CUBE-HUAWEI/Middlewares/Third_Party/Huawei/iot_link/network/dtls/mbedtls/mbedtls-2.16.2/library\sha1.c **** /*
   2:D:/fchai/work/i-cube/I-CUBE-HUAWEI/Middlewares/Third_Party/Huawei/iot_link/network/dtls/mbedtls/mbedtls-2.16.2/library\sha1.c ****  *  FIPS-180-1 compliant SHA-1 implementation
   3:D:/fchai/work/i-cube/I-CUBE-HUAWEI/Middlewares/Third_Party/Huawei/iot_link/network/dtls/mbedtls/mbedtls-2.16.2/library\sha1.c ****  *
   4:D:/fchai/work/i-cube/I-CUBE-HUAWEI/Middlewares/Third_Party/Huawei/iot_link/network/dtls/mbedtls/mbedtls-2.16.2/library\sha1.c ****  *  Copyright (C) 2006-2015, ARM Limited, All Rights Reserved
   5:D:/fchai/work/i-cube/I-CUBE-HUAWEI/Middlewares/Third_Party/Huawei/iot_link/network/dtls/mbedtls/mbedtls-2.16.2/library\sha1.c ****  *  SPDX-License-Identifier: Apache-2.0
   6:D:/fchai/work/i-cube/I-CUBE-HUAWEI/Middlewares/Third_Party/Huawei/iot_link/network/dtls/mbedtls/mbedtls-2.16.2/library\sha1.c ****  *
   7:D:/fchai/work/i-cube/I-CUBE-HUAWEI/Middlewares/Third_Party/Huawei/iot_link/network/dtls/mbedtls/mbedtls-2.16.2/library\sha1.c ****  *  Licensed under the Apache License, Version 2.0 (the "License"); you may
   8:D:/fchai/work/i-cube/I-CUBE-HUAWEI/Middlewares/Third_Party/Huawei/iot_link/network/dtls/mbedtls/mbedtls-2.16.2/library\sha1.c ****  *  not use this file except in compliance with the License.
   9:D:/fchai/work/i-cube/I-CUBE-HUAWEI/Middlewares/Third_Party/Huawei/iot_link/network/dtls/mbedtls/mbedtls-2.16.2/library\sha1.c ****  *  You may obtain a copy of the License at
  10:D:/fchai/work/i-cube/I-CUBE-HUAWEI/Middlewares/Third_Party/Huawei/iot_link/network/dtls/mbedtls/mbedtls-2.16.2/library\sha1.c ****  *
  11:D:/fchai/work/i-cube/I-CUBE-HUAWEI/Middlewares/Third_Party/Huawei/iot_link/network/dtls/mbedtls/mbedtls-2.16.2/library\sha1.c ****  *  http://www.apache.org/licenses/LICENSE-2.0
  12:D:/fchai/work/i-cube/I-CUBE-HUAWEI/Middlewares/Third_Party/Huawei/iot_link/network/dtls/mbedtls/mbedtls-2.16.2/library\sha1.c ****  *
  13:D:/fchai/work/i-cube/I-CUBE-HUAWEI/Middlewares/Third_Party/Huawei/iot_link/network/dtls/mbedtls/mbedtls-2.16.2/library\sha1.c ****  *  Unless required by applicable law or agreed to in writing, software
  14:D:/fchai/work/i-cube/I-CUBE-HUAWEI/Middlewares/Third_Party/Huawei/iot_link/network/dtls/mbedtls/mbedtls-2.16.2/library\sha1.c ****  *  distributed under the License is distributed on an "AS IS" BASIS, WITHOUT
  15:D:/fchai/work/i-cube/I-CUBE-HUAWEI/Middlewares/Third_Party/Huawei/iot_link/network/dtls/mbedtls/mbedtls-2.16.2/library\sha1.c ****  *  WARRANTIES OR CONDITIONS OF ANY KIND, either express or implied.
  16:D:/fchai/work/i-cube/I-CUBE-HUAWEI/Middlewares/Third_Party/Huawei/iot_link/network/dtls/mbedtls/mbedtls-2.16.2/library\sha1.c ****  *  See the License for the specific language governing permissions and
  17:D:/fchai/work/i-cube/I-CUBE-HUAWEI/Middlewares/Third_Party/Huawei/iot_link/network/dtls/mbedtls/mbedtls-2.16.2/library\sha1.c ****  *  limitations under the License.
  18:D:/fchai/work/i-cube/I-CUBE-HUAWEI/Middlewares/Third_Party/Huawei/iot_link/network/dtls/mbedtls/mbedtls-2.16.2/library\sha1.c ****  *
  19:D:/fchai/work/i-cube/I-CUBE-HUAWEI/Middlewares/Third_Party/Huawei/iot_link/network/dtls/mbedtls/mbedtls-2.16.2/library\sha1.c ****  *  This file is part of mbed TLS (https://tls.mbed.org)
  20:D:/fchai/work/i-cube/I-CUBE-HUAWEI/Middlewares/Third_Party/Huawei/iot_link/network/dtls/mbedtls/mbedtls-2.16.2/library\sha1.c ****  */
  21:D:/fchai/work/i-cube/I-CUBE-HUAWEI/Middlewares/Third_Party/Huawei/iot_link/network/dtls/mbedtls/mbedtls-2.16.2/library\sha1.c **** /*
  22:D:/fchai/work/i-cube/I-CUBE-HUAWEI/Middlewares/Third_Party/Huawei/iot_link/network/dtls/mbedtls/mbedtls-2.16.2/library\sha1.c ****  *  The SHA-1 standard was published by NIST in 1993.
  23:D:/fchai/work/i-cube/I-CUBE-HUAWEI/Middlewares/Third_Party/Huawei/iot_link/network/dtls/mbedtls/mbedtls-2.16.2/library\sha1.c ****  *
  24:D:/fchai/work/i-cube/I-CUBE-HUAWEI/Middlewares/Third_Party/Huawei/iot_link/network/dtls/mbedtls/mbedtls-2.16.2/library\sha1.c ****  *  http://www.itl.nist.gov/fipspubs/fip180-1.htm
  25:D:/fchai/work/i-cube/I-CUBE-HUAWEI/Middlewares/Third_Party/Huawei/iot_link/network/dtls/mbedtls/mbedtls-2.16.2/library\sha1.c ****  */
  26:D:/fchai/work/i-cube/I-CUBE-HUAWEI/Middlewares/Third_Party/Huawei/iot_link/network/dtls/mbedtls/mbedtls-2.16.2/library\sha1.c **** 
  27:D:/fchai/work/i-cube/I-CUBE-HUAWEI/Middlewares/Third_Party/Huawei/iot_link/network/dtls/mbedtls/mbedtls-2.16.2/library\sha1.c **** #if !defined(MBEDTLS_CONFIG_FILE)
  28:D:/fchai/work/i-cube/I-CUBE-HUAWEI/Middlewares/Third_Party/Huawei/iot_link/network/dtls/mbedtls/mbedtls-2.16.2/library\sha1.c **** #include "mbedtls/config.h"
ARM GAS  T:\msys\tmp\ccBepS7m.s 			page 2


  29:D:/fchai/work/i-cube/I-CUBE-HUAWEI/Middlewares/Third_Party/Huawei/iot_link/network/dtls/mbedtls/mbedtls-2.16.2/library\sha1.c **** #else
  30:D:/fchai/work/i-cube/I-CUBE-HUAWEI/Middlewares/Third_Party/Huawei/iot_link/network/dtls/mbedtls/mbedtls-2.16.2/library\sha1.c **** #include MBEDTLS_CONFIG_FILE
  31:D:/fchai/work/i-cube/I-CUBE-HUAWEI/Middlewares/Third_Party/Huawei/iot_link/network/dtls/mbedtls/mbedtls-2.16.2/library\sha1.c **** #endif
  32:D:/fchai/work/i-cube/I-CUBE-HUAWEI/Middlewares/Third_Party/Huawei/iot_link/network/dtls/mbedtls/mbedtls-2.16.2/library\sha1.c **** 
  33:D:/fchai/work/i-cube/I-CUBE-HUAWEI/Middlewares/Third_Party/Huawei/iot_link/network/dtls/mbedtls/mbedtls-2.16.2/library\sha1.c **** #if defined(MBEDTLS_SHA1_C)
  34:D:/fchai/work/i-cube/I-CUBE-HUAWEI/Middlewares/Third_Party/Huawei/iot_link/network/dtls/mbedtls/mbedtls-2.16.2/library\sha1.c **** 
  35:D:/fchai/work/i-cube/I-CUBE-HUAWEI/Middlewares/Third_Party/Huawei/iot_link/network/dtls/mbedtls/mbedtls-2.16.2/library\sha1.c **** #include "mbedtls/sha1.h"
  36:D:/fchai/work/i-cube/I-CUBE-HUAWEI/Middlewares/Third_Party/Huawei/iot_link/network/dtls/mbedtls/mbedtls-2.16.2/library\sha1.c **** #include "mbedtls/platform_util.h"
  37:D:/fchai/work/i-cube/I-CUBE-HUAWEI/Middlewares/Third_Party/Huawei/iot_link/network/dtls/mbedtls/mbedtls-2.16.2/library\sha1.c **** 
  38:D:/fchai/work/i-cube/I-CUBE-HUAWEI/Middlewares/Third_Party/Huawei/iot_link/network/dtls/mbedtls/mbedtls-2.16.2/library\sha1.c **** #include <string.h>
  39:D:/fchai/work/i-cube/I-CUBE-HUAWEI/Middlewares/Third_Party/Huawei/iot_link/network/dtls/mbedtls/mbedtls-2.16.2/library\sha1.c **** 
  40:D:/fchai/work/i-cube/I-CUBE-HUAWEI/Middlewares/Third_Party/Huawei/iot_link/network/dtls/mbedtls/mbedtls-2.16.2/library\sha1.c **** #if defined(MBEDTLS_SELF_TEST)
  41:D:/fchai/work/i-cube/I-CUBE-HUAWEI/Middlewares/Third_Party/Huawei/iot_link/network/dtls/mbedtls/mbedtls-2.16.2/library\sha1.c **** #if defined(MBEDTLS_PLATFORM_C)
  42:D:/fchai/work/i-cube/I-CUBE-HUAWEI/Middlewares/Third_Party/Huawei/iot_link/network/dtls/mbedtls/mbedtls-2.16.2/library\sha1.c **** #include "mbedtls/platform.h"
  43:D:/fchai/work/i-cube/I-CUBE-HUAWEI/Middlewares/Third_Party/Huawei/iot_link/network/dtls/mbedtls/mbedtls-2.16.2/library\sha1.c **** #else
  44:D:/fchai/work/i-cube/I-CUBE-HUAWEI/Middlewares/Third_Party/Huawei/iot_link/network/dtls/mbedtls/mbedtls-2.16.2/library\sha1.c **** #include <stdio.h>
  45:D:/fchai/work/i-cube/I-CUBE-HUAWEI/Middlewares/Third_Party/Huawei/iot_link/network/dtls/mbedtls/mbedtls-2.16.2/library\sha1.c **** #define mbedtls_printf printf
  46:D:/fchai/work/i-cube/I-CUBE-HUAWEI/Middlewares/Third_Party/Huawei/iot_link/network/dtls/mbedtls/mbedtls-2.16.2/library\sha1.c **** #endif /* MBEDTLS_PLATFORM_C */
  47:D:/fchai/work/i-cube/I-CUBE-HUAWEI/Middlewares/Third_Party/Huawei/iot_link/network/dtls/mbedtls/mbedtls-2.16.2/library\sha1.c **** #endif /* MBEDTLS_SELF_TEST */
  48:D:/fchai/work/i-cube/I-CUBE-HUAWEI/Middlewares/Third_Party/Huawei/iot_link/network/dtls/mbedtls/mbedtls-2.16.2/library\sha1.c **** 
  49:D:/fchai/work/i-cube/I-CUBE-HUAWEI/Middlewares/Third_Party/Huawei/iot_link/network/dtls/mbedtls/mbedtls-2.16.2/library\sha1.c **** #define SHA1_VALIDATE_RET(cond)                             \
  50:D:/fchai/work/i-cube/I-CUBE-HUAWEI/Middlewares/Third_Party/Huawei/iot_link/network/dtls/mbedtls/mbedtls-2.16.2/library\sha1.c ****     MBEDTLS_INTERNAL_VALIDATE_RET( cond, MBEDTLS_ERR_SHA1_BAD_INPUT_DATA )
  51:D:/fchai/work/i-cube/I-CUBE-HUAWEI/Middlewares/Third_Party/Huawei/iot_link/network/dtls/mbedtls/mbedtls-2.16.2/library\sha1.c **** 
  52:D:/fchai/work/i-cube/I-CUBE-HUAWEI/Middlewares/Third_Party/Huawei/iot_link/network/dtls/mbedtls/mbedtls-2.16.2/library\sha1.c **** #define SHA1_VALIDATE(cond)  MBEDTLS_INTERNAL_VALIDATE( cond )
  53:D:/fchai/work/i-cube/I-CUBE-HUAWEI/Middlewares/Third_Party/Huawei/iot_link/network/dtls/mbedtls/mbedtls-2.16.2/library\sha1.c **** 
  54:D:/fchai/work/i-cube/I-CUBE-HUAWEI/Middlewares/Third_Party/Huawei/iot_link/network/dtls/mbedtls/mbedtls-2.16.2/library\sha1.c **** #if !defined(MBEDTLS_SHA1_ALT)
  55:D:/fchai/work/i-cube/I-CUBE-HUAWEI/Middlewares/Third_Party/Huawei/iot_link/network/dtls/mbedtls/mbedtls-2.16.2/library\sha1.c **** 
  56:D:/fchai/work/i-cube/I-CUBE-HUAWEI/Middlewares/Third_Party/Huawei/iot_link/network/dtls/mbedtls/mbedtls-2.16.2/library\sha1.c **** /*
  57:D:/fchai/work/i-cube/I-CUBE-HUAWEI/Middlewares/Third_Party/Huawei/iot_link/network/dtls/mbedtls/mbedtls-2.16.2/library\sha1.c ****  * 32-bit integer manipulation macros (big endian)
  58:D:/fchai/work/i-cube/I-CUBE-HUAWEI/Middlewares/Third_Party/Huawei/iot_link/network/dtls/mbedtls/mbedtls-2.16.2/library\sha1.c ****  */
  59:D:/fchai/work/i-cube/I-CUBE-HUAWEI/Middlewares/Third_Party/Huawei/iot_link/network/dtls/mbedtls/mbedtls-2.16.2/library\sha1.c **** #ifndef GET_UINT32_BE
  60:D:/fchai/work/i-cube/I-CUBE-HUAWEI/Middlewares/Third_Party/Huawei/iot_link/network/dtls/mbedtls/mbedtls-2.16.2/library\sha1.c **** #define GET_UINT32_BE(n,b,i)                            \
  61:D:/fchai/work/i-cube/I-CUBE-HUAWEI/Middlewares/Third_Party/Huawei/iot_link/network/dtls/mbedtls/mbedtls-2.16.2/library\sha1.c **** {                                                       \
  62:D:/fchai/work/i-cube/I-CUBE-HUAWEI/Middlewares/Third_Party/Huawei/iot_link/network/dtls/mbedtls/mbedtls-2.16.2/library\sha1.c ****     (n) = ( (uint32_t) (b)[(i)    ] << 24 )             \
  63:D:/fchai/work/i-cube/I-CUBE-HUAWEI/Middlewares/Third_Party/Huawei/iot_link/network/dtls/mbedtls/mbedtls-2.16.2/library\sha1.c ****         | ( (uint32_t) (b)[(i) + 1] << 16 )             \
  64:D:/fchai/work/i-cube/I-CUBE-HUAWEI/Middlewares/Third_Party/Huawei/iot_link/network/dtls/mbedtls/mbedtls-2.16.2/library\sha1.c ****         | ( (uint32_t) (b)[(i) + 2] <<  8 )             \
  65:D:/fchai/work/i-cube/I-CUBE-HUAWEI/Middlewares/Third_Party/Huawei/iot_link/network/dtls/mbedtls/mbedtls-2.16.2/library\sha1.c ****         | ( (uint32_t) (b)[(i) + 3]       );            \
  66:D:/fchai/work/i-cube/I-CUBE-HUAWEI/Middlewares/Third_Party/Huawei/iot_link/network/dtls/mbedtls/mbedtls-2.16.2/library\sha1.c **** }
  67:D:/fchai/work/i-cube/I-CUBE-HUAWEI/Middlewares/Third_Party/Huawei/iot_link/network/dtls/mbedtls/mbedtls-2.16.2/library\sha1.c **** #endif
  68:D:/fchai/work/i-cube/I-CUBE-HUAWEI/Middlewares/Third_Party/Huawei/iot_link/network/dtls/mbedtls/mbedtls-2.16.2/library\sha1.c **** 
  69:D:/fchai/work/i-cube/I-CUBE-HUAWEI/Middlewares/Third_Party/Huawei/iot_link/network/dtls/mbedtls/mbedtls-2.16.2/library\sha1.c **** #ifndef PUT_UINT32_BE
  70:D:/fchai/work/i-cube/I-CUBE-HUAWEI/Middlewares/Third_Party/Huawei/iot_link/network/dtls/mbedtls/mbedtls-2.16.2/library\sha1.c **** #define PUT_UINT32_BE(n,b,i)                            \
  71:D:/fchai/work/i-cube/I-CUBE-HUAWEI/Middlewares/Third_Party/Huawei/iot_link/network/dtls/mbedtls/mbedtls-2.16.2/library\sha1.c **** {                                                       \
  72:D:/fchai/work/i-cube/I-CUBE-HUAWEI/Middlewares/Third_Party/Huawei/iot_link/network/dtls/mbedtls/mbedtls-2.16.2/library\sha1.c ****     (b)[(i)    ] = (unsigned char) ( (n) >> 24 );       \
  73:D:/fchai/work/i-cube/I-CUBE-HUAWEI/Middlewares/Third_Party/Huawei/iot_link/network/dtls/mbedtls/mbedtls-2.16.2/library\sha1.c ****     (b)[(i) + 1] = (unsigned char) ( (n) >> 16 );       \
  74:D:/fchai/work/i-cube/I-CUBE-HUAWEI/Middlewares/Third_Party/Huawei/iot_link/network/dtls/mbedtls/mbedtls-2.16.2/library\sha1.c ****     (b)[(i) + 2] = (unsigned char) ( (n) >>  8 );       \
  75:D:/fchai/work/i-cube/I-CUBE-HUAWEI/Middlewares/Third_Party/Huawei/iot_link/network/dtls/mbedtls/mbedtls-2.16.2/library\sha1.c ****     (b)[(i) + 3] = (unsigned char) ( (n)       );       \
  76:D:/fchai/work/i-cube/I-CUBE-HUAWEI/Middlewares/Third_Party/Huawei/iot_link/network/dtls/mbedtls/mbedtls-2.16.2/library\sha1.c **** }
  77:D:/fchai/work/i-cube/I-CUBE-HUAWEI/Middlewares/Third_Party/Huawei/iot_link/network/dtls/mbedtls/mbedtls-2.16.2/library\sha1.c **** #endif
  78:D:/fchai/work/i-cube/I-CUBE-HUAWEI/Middlewares/Third_Party/Huawei/iot_link/network/dtls/mbedtls/mbedtls-2.16.2/library\sha1.c **** 
  79:D:/fchai/work/i-cube/I-CUBE-HUAWEI/Middlewares/Third_Party/Huawei/iot_link/network/dtls/mbedtls/mbedtls-2.16.2/library\sha1.c **** void mbedtls_sha1_init( mbedtls_sha1_context *ctx )
  80:D:/fchai/work/i-cube/I-CUBE-HUAWEI/Middlewares/Third_Party/Huawei/iot_link/network/dtls/mbedtls/mbedtls-2.16.2/library\sha1.c **** {
  31              		.loc 1 80 1 view -0
  32              		.cfi_startproc
  33              		@ args = 0, pretend = 0, frame = 0
  34              		@ frame_needed = 0, uses_anonymous_args = 0
  35              		@ link register save eliminated.
ARM GAS  T:\msys\tmp\ccBepS7m.s 			page 3


  81:D:/fchai/work/i-cube/I-CUBE-HUAWEI/Middlewares/Third_Party/Huawei/iot_link/network/dtls/mbedtls/mbedtls-2.16.2/library\sha1.c ****     SHA1_VALIDATE( ctx != NULL );
  36              		.loc 1 81 5 view .LVU1
  37              		.loc 1 81 5 view .LVU2
  38              		.loc 1 81 5 view .LVU3
  82:D:/fchai/work/i-cube/I-CUBE-HUAWEI/Middlewares/Third_Party/Huawei/iot_link/network/dtls/mbedtls/mbedtls-2.16.2/library\sha1.c **** 
  83:D:/fchai/work/i-cube/I-CUBE-HUAWEI/Middlewares/Third_Party/Huawei/iot_link/network/dtls/mbedtls/mbedtls-2.16.2/library\sha1.c ****     memset( ctx, 0, sizeof( mbedtls_sha1_context ) );
  39              		.loc 1 83 5 view .LVU4
  40 0000 5C22     		movs	r2, #92
  41 0002 0021     		movs	r1, #0
  42 0004 FFF7FEBF 		b	memset
  43              	.LVL1:
  44              		.loc 1 83 5 is_stmt 0 view .LVU5
  45              		.cfi_endproc
  46              	.LFE0:
  48              		.section	.text.mbedtls_sha1_free,"ax",%progbits
  49              		.align	1
  50              		.p2align 2,,3
  51              		.global	mbedtls_sha1_free
  52              		.syntax unified
  53              		.thumb
  54              		.thumb_func
  55              		.fpu fpv4-sp-d16
  57              	mbedtls_sha1_free:
  58              	.LVL2:
  59              	.LFB1:
  84:D:/fchai/work/i-cube/I-CUBE-HUAWEI/Middlewares/Third_Party/Huawei/iot_link/network/dtls/mbedtls/mbedtls-2.16.2/library\sha1.c **** }
  85:D:/fchai/work/i-cube/I-CUBE-HUAWEI/Middlewares/Third_Party/Huawei/iot_link/network/dtls/mbedtls/mbedtls-2.16.2/library\sha1.c **** 
  86:D:/fchai/work/i-cube/I-CUBE-HUAWEI/Middlewares/Third_Party/Huawei/iot_link/network/dtls/mbedtls/mbedtls-2.16.2/library\sha1.c **** void mbedtls_sha1_free( mbedtls_sha1_context *ctx )
  87:D:/fchai/work/i-cube/I-CUBE-HUAWEI/Middlewares/Third_Party/Huawei/iot_link/network/dtls/mbedtls/mbedtls-2.16.2/library\sha1.c **** {
  60              		.loc 1 87 1 is_stmt 1 view -0
  61              		.cfi_startproc
  62              		@ args = 0, pretend = 0, frame = 0
  63              		@ frame_needed = 0, uses_anonymous_args = 0
  64              		@ link register save eliminated.
  88:D:/fchai/work/i-cube/I-CUBE-HUAWEI/Middlewares/Third_Party/Huawei/iot_link/network/dtls/mbedtls/mbedtls-2.16.2/library\sha1.c ****     if( ctx == NULL )
  65              		.loc 1 88 5 view .LVU7
  66              		.loc 1 88 7 is_stmt 0 view .LVU8
  67 0000 10B1     		cbz	r0, .L3
  89:D:/fchai/work/i-cube/I-CUBE-HUAWEI/Middlewares/Third_Party/Huawei/iot_link/network/dtls/mbedtls/mbedtls-2.16.2/library\sha1.c ****         return;
  90:D:/fchai/work/i-cube/I-CUBE-HUAWEI/Middlewares/Third_Party/Huawei/iot_link/network/dtls/mbedtls/mbedtls-2.16.2/library\sha1.c **** 
  91:D:/fchai/work/i-cube/I-CUBE-HUAWEI/Middlewares/Third_Party/Huawei/iot_link/network/dtls/mbedtls/mbedtls-2.16.2/library\sha1.c ****     mbedtls_platform_zeroize( ctx, sizeof( mbedtls_sha1_context ) );
  68              		.loc 1 91 5 is_stmt 1 view .LVU9
  69 0002 5C21     		movs	r1, #92
  70 0004 FFF7FEBF 		b	mbedtls_platform_zeroize
  71              	.LVL3:
  72              	.L3:
  92:D:/fchai/work/i-cube/I-CUBE-HUAWEI/Middlewares/Third_Party/Huawei/iot_link/network/dtls/mbedtls/mbedtls-2.16.2/library\sha1.c **** }
  73              		.loc 1 92 1 is_stmt 0 view .LVU10
  74 0008 7047     		bx	lr
  75              		.cfi_endproc
  76              	.LFE1:
  78 000a 00BF     		.section	.text.mbedtls_sha1_clone,"ax",%progbits
  79              		.align	1
  80              		.p2align 2,,3
  81              		.global	mbedtls_sha1_clone
  82              		.syntax unified
  83              		.thumb
ARM GAS  T:\msys\tmp\ccBepS7m.s 			page 4


  84              		.thumb_func
  85              		.fpu fpv4-sp-d16
  87              	mbedtls_sha1_clone:
  88              	.LVL4:
  89              	.LFB2:
  93:D:/fchai/work/i-cube/I-CUBE-HUAWEI/Middlewares/Third_Party/Huawei/iot_link/network/dtls/mbedtls/mbedtls-2.16.2/library\sha1.c **** 
  94:D:/fchai/work/i-cube/I-CUBE-HUAWEI/Middlewares/Third_Party/Huawei/iot_link/network/dtls/mbedtls/mbedtls-2.16.2/library\sha1.c **** void mbedtls_sha1_clone( mbedtls_sha1_context *dst,
  95:D:/fchai/work/i-cube/I-CUBE-HUAWEI/Middlewares/Third_Party/Huawei/iot_link/network/dtls/mbedtls/mbedtls-2.16.2/library\sha1.c ****                          const mbedtls_sha1_context *src )
  96:D:/fchai/work/i-cube/I-CUBE-HUAWEI/Middlewares/Third_Party/Huawei/iot_link/network/dtls/mbedtls/mbedtls-2.16.2/library\sha1.c **** {
  90              		.loc 1 96 1 is_stmt 1 view -0
  91              		.cfi_startproc
  92              		@ args = 0, pretend = 0, frame = 0
  93              		@ frame_needed = 0, uses_anonymous_args = 0
  97:D:/fchai/work/i-cube/I-CUBE-HUAWEI/Middlewares/Third_Party/Huawei/iot_link/network/dtls/mbedtls/mbedtls-2.16.2/library\sha1.c ****     SHA1_VALIDATE( dst != NULL );
  94              		.loc 1 97 5 view .LVU12
  95              		.loc 1 97 5 view .LVU13
  96              		.loc 1 97 5 view .LVU14
  98:D:/fchai/work/i-cube/I-CUBE-HUAWEI/Middlewares/Third_Party/Huawei/iot_link/network/dtls/mbedtls/mbedtls-2.16.2/library\sha1.c ****     SHA1_VALIDATE( src != NULL );
  97              		.loc 1 98 5 view .LVU15
  98              		.loc 1 98 5 view .LVU16
  99              		.loc 1 98 5 view .LVU17
  99:D:/fchai/work/i-cube/I-CUBE-HUAWEI/Middlewares/Third_Party/Huawei/iot_link/network/dtls/mbedtls/mbedtls-2.16.2/library\sha1.c **** 
 100:D:/fchai/work/i-cube/I-CUBE-HUAWEI/Middlewares/Third_Party/Huawei/iot_link/network/dtls/mbedtls/mbedtls-2.16.2/library\sha1.c ****     *dst = *src;
 100              		.loc 1 100 5 view .LVU18
  96:D:/fchai/work/i-cube/I-CUBE-HUAWEI/Middlewares/Third_Party/Huawei/iot_link/network/dtls/mbedtls/mbedtls-2.16.2/library\sha1.c ****     SHA1_VALIDATE( dst != NULL );
 101              		.loc 1 96 1 is_stmt 0 view .LVU19
 102 0000 08B5     		push	{r3, lr}
 103              	.LCFI0:
 104              		.cfi_def_cfa_offset 8
 105              		.cfi_offset 3, -8
 106              		.cfi_offset 14, -4
 107              		.loc 1 100 10 view .LVU20
 108 0002 5C22     		movs	r2, #92
 109 0004 FFF7FEFF 		bl	memcpy
 110              	.LVL5:
 101:D:/fchai/work/i-cube/I-CUBE-HUAWEI/Middlewares/Third_Party/Huawei/iot_link/network/dtls/mbedtls/mbedtls-2.16.2/library\sha1.c **** }
 111              		.loc 1 101 1 view .LVU21
 112 0008 08BD     		pop	{r3, pc}
 113              		.cfi_endproc
 114              	.LFE2:
 116 000a 00BF     		.section	.text.mbedtls_sha1_starts_ret,"ax",%progbits
 117              		.align	1
 118              		.p2align 2,,3
 119              		.global	mbedtls_sha1_starts_ret
 120              		.syntax unified
 121              		.thumb
 122              		.thumb_func
 123              		.fpu fpv4-sp-d16
 125              	mbedtls_sha1_starts_ret:
 126              	.LVL6:
 127              	.LFB3:
 102:D:/fchai/work/i-cube/I-CUBE-HUAWEI/Middlewares/Third_Party/Huawei/iot_link/network/dtls/mbedtls/mbedtls-2.16.2/library\sha1.c **** 
 103:D:/fchai/work/i-cube/I-CUBE-HUAWEI/Middlewares/Third_Party/Huawei/iot_link/network/dtls/mbedtls/mbedtls-2.16.2/library\sha1.c **** /*
 104:D:/fchai/work/i-cube/I-CUBE-HUAWEI/Middlewares/Third_Party/Huawei/iot_link/network/dtls/mbedtls/mbedtls-2.16.2/library\sha1.c ****  * SHA-1 context setup
 105:D:/fchai/work/i-cube/I-CUBE-HUAWEI/Middlewares/Third_Party/Huawei/iot_link/network/dtls/mbedtls/mbedtls-2.16.2/library\sha1.c ****  */
 106:D:/fchai/work/i-cube/I-CUBE-HUAWEI/Middlewares/Third_Party/Huawei/iot_link/network/dtls/mbedtls/mbedtls-2.16.2/library\sha1.c **** int mbedtls_sha1_starts_ret( mbedtls_sha1_context *ctx )
 107:D:/fchai/work/i-cube/I-CUBE-HUAWEI/Middlewares/Third_Party/Huawei/iot_link/network/dtls/mbedtls/mbedtls-2.16.2/library\sha1.c **** {
ARM GAS  T:\msys\tmp\ccBepS7m.s 			page 5


 128              		.loc 1 107 1 is_stmt 1 view -0
 129              		.cfi_startproc
 130              		@ args = 0, pretend = 0, frame = 0
 131              		@ frame_needed = 0, uses_anonymous_args = 0
 132              		@ link register save eliminated.
 108:D:/fchai/work/i-cube/I-CUBE-HUAWEI/Middlewares/Third_Party/Huawei/iot_link/network/dtls/mbedtls/mbedtls-2.16.2/library\sha1.c ****     SHA1_VALIDATE_RET( ctx != NULL );
 133              		.loc 1 108 5 view .LVU23
 134              		.loc 1 108 5 view .LVU24
 135              		.loc 1 108 5 view .LVU25
 109:D:/fchai/work/i-cube/I-CUBE-HUAWEI/Middlewares/Third_Party/Huawei/iot_link/network/dtls/mbedtls/mbedtls-2.16.2/library\sha1.c **** 
 110:D:/fchai/work/i-cube/I-CUBE-HUAWEI/Middlewares/Third_Party/Huawei/iot_link/network/dtls/mbedtls/mbedtls-2.16.2/library\sha1.c ****     ctx->total[0] = 0;
 136              		.loc 1 110 5 view .LVU26
 107:D:/fchai/work/i-cube/I-CUBE-HUAWEI/Middlewares/Third_Party/Huawei/iot_link/network/dtls/mbedtls/mbedtls-2.16.2/library\sha1.c ****     SHA1_VALIDATE_RET( ctx != NULL );
 137              		.loc 1 107 1 is_stmt 0 view .LVU27
 138 0000 30B4     		push	{r4, r5}
 139              	.LCFI1:
 140              		.cfi_def_cfa_offset 8
 141              		.cfi_offset 4, -8
 142              		.cfi_offset 5, -4
 111:D:/fchai/work/i-cube/I-CUBE-HUAWEI/Middlewares/Third_Party/Huawei/iot_link/network/dtls/mbedtls/mbedtls-2.16.2/library\sha1.c ****     ctx->total[1] = 0;
 112:D:/fchai/work/i-cube/I-CUBE-HUAWEI/Middlewares/Third_Party/Huawei/iot_link/network/dtls/mbedtls/mbedtls-2.16.2/library\sha1.c **** 
 113:D:/fchai/work/i-cube/I-CUBE-HUAWEI/Middlewares/Third_Party/Huawei/iot_link/network/dtls/mbedtls/mbedtls-2.16.2/library\sha1.c ****     ctx->state[0] = 0x67452301;
 143              		.loc 1 113 19 view .LVU28
 144 0002 084B     		ldr	r3, .L9
 114:D:/fchai/work/i-cube/I-CUBE-HUAWEI/Middlewares/Third_Party/Huawei/iot_link/network/dtls/mbedtls/mbedtls-2.16.2/library\sha1.c ****     ctx->state[1] = 0xEFCDAB89;
 145              		.loc 1 114 19 view .LVU29
 146 0004 084D     		ldr	r5, .L9+4
 115:D:/fchai/work/i-cube/I-CUBE-HUAWEI/Middlewares/Third_Party/Huawei/iot_link/network/dtls/mbedtls/mbedtls-2.16.2/library\sha1.c ****     ctx->state[2] = 0x98BADCFE;
 147              		.loc 1 115 19 view .LVU30
 148 0006 094C     		ldr	r4, .L9+8
 116:D:/fchai/work/i-cube/I-CUBE-HUAWEI/Middlewares/Third_Party/Huawei/iot_link/network/dtls/mbedtls/mbedtls-2.16.2/library\sha1.c ****     ctx->state[3] = 0x10325476;
 149              		.loc 1 116 19 view .LVU31
 150 0008 0949     		ldr	r1, .L9+12
 117:D:/fchai/work/i-cube/I-CUBE-HUAWEI/Middlewares/Third_Party/Huawei/iot_link/network/dtls/mbedtls/mbedtls-2.16.2/library\sha1.c ****     ctx->state[4] = 0xC3D2E1F0;
 151              		.loc 1 117 19 view .LVU32
 152 000a 0A4A     		ldr	r2, .L9+16
 113:D:/fchai/work/i-cube/I-CUBE-HUAWEI/Middlewares/Third_Party/Huawei/iot_link/network/dtls/mbedtls/mbedtls-2.16.2/library\sha1.c ****     ctx->state[1] = 0xEFCDAB89;
 153              		.loc 1 113 19 view .LVU33
 154 000c 8360     		str	r3, [r0, #8]
 110:D:/fchai/work/i-cube/I-CUBE-HUAWEI/Middlewares/Third_Party/Huawei/iot_link/network/dtls/mbedtls/mbedtls-2.16.2/library\sha1.c ****     ctx->total[1] = 0;
 155              		.loc 1 110 19 view .LVU34
 156 000e 0023     		movs	r3, #0
 115:D:/fchai/work/i-cube/I-CUBE-HUAWEI/Middlewares/Third_Party/Huawei/iot_link/network/dtls/mbedtls/mbedtls-2.16.2/library\sha1.c ****     ctx->state[3] = 0x10325476;
 157              		.loc 1 115 19 view .LVU35
 158 0010 C0E90354 		strd	r5, r4, [r0, #12]
 159              		.loc 1 117 19 view .LVU36
 160 0014 C0E90512 		strd	r1, r2, [r0, #20]
 111:D:/fchai/work/i-cube/I-CUBE-HUAWEI/Middlewares/Third_Party/Huawei/iot_link/network/dtls/mbedtls/mbedtls-2.16.2/library\sha1.c **** 
 161              		.loc 1 111 19 view .LVU37
 162 0018 C0E90033 		strd	r3, r3, [r0]
 113:D:/fchai/work/i-cube/I-CUBE-HUAWEI/Middlewares/Third_Party/Huawei/iot_link/network/dtls/mbedtls/mbedtls-2.16.2/library\sha1.c ****     ctx->state[1] = 0xEFCDAB89;
 163              		.loc 1 113 5 is_stmt 1 view .LVU38
 114:D:/fchai/work/i-cube/I-CUBE-HUAWEI/Middlewares/Third_Party/Huawei/iot_link/network/dtls/mbedtls/mbedtls-2.16.2/library\sha1.c ****     ctx->state[2] = 0x98BADCFE;
 164              		.loc 1 114 5 view .LVU39
 115:D:/fchai/work/i-cube/I-CUBE-HUAWEI/Middlewares/Third_Party/Huawei/iot_link/network/dtls/mbedtls/mbedtls-2.16.2/library\sha1.c ****     ctx->state[3] = 0x10325476;
 165              		.loc 1 115 5 view .LVU40
 116:D:/fchai/work/i-cube/I-CUBE-HUAWEI/Middlewares/Third_Party/Huawei/iot_link/network/dtls/mbedtls/mbedtls-2.16.2/library\sha1.c ****     ctx->state[4] = 0xC3D2E1F0;
ARM GAS  T:\msys\tmp\ccBepS7m.s 			page 6


 166              		.loc 1 116 5 view .LVU41
 167              		.loc 1 117 5 view .LVU42
 118:D:/fchai/work/i-cube/I-CUBE-HUAWEI/Middlewares/Third_Party/Huawei/iot_link/network/dtls/mbedtls/mbedtls-2.16.2/library\sha1.c **** 
 119:D:/fchai/work/i-cube/I-CUBE-HUAWEI/Middlewares/Third_Party/Huawei/iot_link/network/dtls/mbedtls/mbedtls-2.16.2/library\sha1.c ****     return( 0 );
 168              		.loc 1 119 5 view .LVU43
 120:D:/fchai/work/i-cube/I-CUBE-HUAWEI/Middlewares/Third_Party/Huawei/iot_link/network/dtls/mbedtls/mbedtls-2.16.2/library\sha1.c **** }
 169              		.loc 1 120 1 is_stmt 0 view .LVU44
 170 001c 30BC     		pop	{r4, r5}
 171              	.LCFI2:
 172              		.cfi_restore 5
 173              		.cfi_restore 4
 174              		.cfi_def_cfa_offset 0
 175 001e 1846     		mov	r0, r3
 176              	.LVL7:
 177              		.loc 1 120 1 view .LVU45
 178 0020 7047     		bx	lr
 179              	.L10:
 180 0022 00BF     		.align	2
 181              	.L9:
 182 0024 01234567 		.word	1732584193
 183 0028 89ABCDEF 		.word	-271733879
 184 002c FEDCBA98 		.word	-1732584194
 185 0030 76543210 		.word	271733878
 186 0034 F0E1D2C3 		.word	-1009589776
 187              		.cfi_endproc
 188              	.LFE3:
 190              		.section	.text.mbedtls_sha1_starts,"ax",%progbits
 191              		.align	1
 192              		.p2align 2,,3
 193              		.global	mbedtls_sha1_starts
 194              		.syntax unified
 195              		.thumb
 196              		.thumb_func
 197              		.fpu fpv4-sp-d16
 199              	mbedtls_sha1_starts:
 200              	.LVL8:
 201              	.LFB4:
 121:D:/fchai/work/i-cube/I-CUBE-HUAWEI/Middlewares/Third_Party/Huawei/iot_link/network/dtls/mbedtls/mbedtls-2.16.2/library\sha1.c **** 
 122:D:/fchai/work/i-cube/I-CUBE-HUAWEI/Middlewares/Third_Party/Huawei/iot_link/network/dtls/mbedtls/mbedtls-2.16.2/library\sha1.c **** #if !defined(MBEDTLS_DEPRECATED_REMOVED)
 123:D:/fchai/work/i-cube/I-CUBE-HUAWEI/Middlewares/Third_Party/Huawei/iot_link/network/dtls/mbedtls/mbedtls-2.16.2/library\sha1.c **** void mbedtls_sha1_starts( mbedtls_sha1_context *ctx )
 124:D:/fchai/work/i-cube/I-CUBE-HUAWEI/Middlewares/Third_Party/Huawei/iot_link/network/dtls/mbedtls/mbedtls-2.16.2/library\sha1.c **** {
 202              		.loc 1 124 1 is_stmt 1 view -0
 203              		.cfi_startproc
 204              		@ args = 0, pretend = 0, frame = 0
 205              		@ frame_needed = 0, uses_anonymous_args = 0
 206              		@ link register save eliminated.
 125:D:/fchai/work/i-cube/I-CUBE-HUAWEI/Middlewares/Third_Party/Huawei/iot_link/network/dtls/mbedtls/mbedtls-2.16.2/library\sha1.c ****     mbedtls_sha1_starts_ret( ctx );
 207              		.loc 1 125 5 view .LVU47
 208              	.LBB14:
 209              	.LBI14:
 106:D:/fchai/work/i-cube/I-CUBE-HUAWEI/Middlewares/Third_Party/Huawei/iot_link/network/dtls/mbedtls/mbedtls-2.16.2/library\sha1.c **** {
 210              		.loc 1 106 5 view .LVU48
 211              	.LBB15:
 108:D:/fchai/work/i-cube/I-CUBE-HUAWEI/Middlewares/Third_Party/Huawei/iot_link/network/dtls/mbedtls/mbedtls-2.16.2/library\sha1.c **** 
 212              		.loc 1 108 5 view .LVU49
 108:D:/fchai/work/i-cube/I-CUBE-HUAWEI/Middlewares/Third_Party/Huawei/iot_link/network/dtls/mbedtls/mbedtls-2.16.2/library\sha1.c **** 
 213              		.loc 1 108 5 view .LVU50
ARM GAS  T:\msys\tmp\ccBepS7m.s 			page 7


 108:D:/fchai/work/i-cube/I-CUBE-HUAWEI/Middlewares/Third_Party/Huawei/iot_link/network/dtls/mbedtls/mbedtls-2.16.2/library\sha1.c **** 
 214              		.loc 1 108 5 view .LVU51
 110:D:/fchai/work/i-cube/I-CUBE-HUAWEI/Middlewares/Third_Party/Huawei/iot_link/network/dtls/mbedtls/mbedtls-2.16.2/library\sha1.c ****     ctx->total[1] = 0;
 215              		.loc 1 110 5 view .LVU52
 216              	.LBE15:
 217              	.LBE14:
 124:D:/fchai/work/i-cube/I-CUBE-HUAWEI/Middlewares/Third_Party/Huawei/iot_link/network/dtls/mbedtls/mbedtls-2.16.2/library\sha1.c ****     mbedtls_sha1_starts_ret( ctx );
 218              		.loc 1 124 1 is_stmt 0 view .LVU53
 219 0000 30B4     		push	{r4, r5}
 220              	.LCFI3:
 221              		.cfi_def_cfa_offset 8
 222              		.cfi_offset 4, -8
 223              		.cfi_offset 5, -4
 224              	.LBB18:
 225              	.LBB16:
 113:D:/fchai/work/i-cube/I-CUBE-HUAWEI/Middlewares/Third_Party/Huawei/iot_link/network/dtls/mbedtls/mbedtls-2.16.2/library\sha1.c ****     ctx->state[1] = 0xEFCDAB89;
 226              		.loc 1 113 19 view .LVU54
 227 0002 074B     		ldr	r3, .L13
 114:D:/fchai/work/i-cube/I-CUBE-HUAWEI/Middlewares/Third_Party/Huawei/iot_link/network/dtls/mbedtls/mbedtls-2.16.2/library\sha1.c ****     ctx->state[2] = 0x98BADCFE;
 228              		.loc 1 114 19 view .LVU55
 229 0004 074D     		ldr	r5, .L13+4
 115:D:/fchai/work/i-cube/I-CUBE-HUAWEI/Middlewares/Third_Party/Huawei/iot_link/network/dtls/mbedtls/mbedtls-2.16.2/library\sha1.c ****     ctx->state[3] = 0x10325476;
 230              		.loc 1 115 19 view .LVU56
 231 0006 084C     		ldr	r4, .L13+8
 116:D:/fchai/work/i-cube/I-CUBE-HUAWEI/Middlewares/Third_Party/Huawei/iot_link/network/dtls/mbedtls/mbedtls-2.16.2/library\sha1.c ****     ctx->state[4] = 0xC3D2E1F0;
 232              		.loc 1 116 19 view .LVU57
 233 0008 0849     		ldr	r1, .L13+12
 117:D:/fchai/work/i-cube/I-CUBE-HUAWEI/Middlewares/Third_Party/Huawei/iot_link/network/dtls/mbedtls/mbedtls-2.16.2/library\sha1.c **** 
 234              		.loc 1 117 19 view .LVU58
 235 000a 094A     		ldr	r2, .L13+16
 113:D:/fchai/work/i-cube/I-CUBE-HUAWEI/Middlewares/Third_Party/Huawei/iot_link/network/dtls/mbedtls/mbedtls-2.16.2/library\sha1.c ****     ctx->state[1] = 0xEFCDAB89;
 236              		.loc 1 113 19 view .LVU59
 237 000c 8360     		str	r3, [r0, #8]
 110:D:/fchai/work/i-cube/I-CUBE-HUAWEI/Middlewares/Third_Party/Huawei/iot_link/network/dtls/mbedtls/mbedtls-2.16.2/library\sha1.c ****     ctx->total[1] = 0;
 238              		.loc 1 110 19 view .LVU60
 239 000e 0023     		movs	r3, #0
 115:D:/fchai/work/i-cube/I-CUBE-HUAWEI/Middlewares/Third_Party/Huawei/iot_link/network/dtls/mbedtls/mbedtls-2.16.2/library\sha1.c ****     ctx->state[3] = 0x10325476;
 240              		.loc 1 115 19 view .LVU61
 241 0010 C0E90354 		strd	r5, r4, [r0, #12]
 117:D:/fchai/work/i-cube/I-CUBE-HUAWEI/Middlewares/Third_Party/Huawei/iot_link/network/dtls/mbedtls/mbedtls-2.16.2/library\sha1.c **** 
 242              		.loc 1 117 19 view .LVU62
 243 0014 C0E90512 		strd	r1, r2, [r0, #20]
 244              	.LBE16:
 245              	.LBE18:
 126:D:/fchai/work/i-cube/I-CUBE-HUAWEI/Middlewares/Third_Party/Huawei/iot_link/network/dtls/mbedtls/mbedtls-2.16.2/library\sha1.c **** }
 246              		.loc 1 126 1 view .LVU63
 247 0018 30BC     		pop	{r4, r5}
 248              	.LCFI4:
 249              		.cfi_restore 5
 250              		.cfi_restore 4
 251              		.cfi_def_cfa_offset 0
 252              	.LBB19:
 253              	.LBB17:
 111:D:/fchai/work/i-cube/I-CUBE-HUAWEI/Middlewares/Third_Party/Huawei/iot_link/network/dtls/mbedtls/mbedtls-2.16.2/library\sha1.c **** 
 254              		.loc 1 111 19 view .LVU64
 255 001a C0E90033 		strd	r3, r3, [r0]
 113:D:/fchai/work/i-cube/I-CUBE-HUAWEI/Middlewares/Third_Party/Huawei/iot_link/network/dtls/mbedtls/mbedtls-2.16.2/library\sha1.c ****     ctx->state[1] = 0xEFCDAB89;
ARM GAS  T:\msys\tmp\ccBepS7m.s 			page 8


 256              		.loc 1 113 5 is_stmt 1 view .LVU65
 114:D:/fchai/work/i-cube/I-CUBE-HUAWEI/Middlewares/Third_Party/Huawei/iot_link/network/dtls/mbedtls/mbedtls-2.16.2/library\sha1.c ****     ctx->state[2] = 0x98BADCFE;
 257              		.loc 1 114 5 view .LVU66
 115:D:/fchai/work/i-cube/I-CUBE-HUAWEI/Middlewares/Third_Party/Huawei/iot_link/network/dtls/mbedtls/mbedtls-2.16.2/library\sha1.c ****     ctx->state[3] = 0x10325476;
 258              		.loc 1 115 5 view .LVU67
 116:D:/fchai/work/i-cube/I-CUBE-HUAWEI/Middlewares/Third_Party/Huawei/iot_link/network/dtls/mbedtls/mbedtls-2.16.2/library\sha1.c ****     ctx->state[4] = 0xC3D2E1F0;
 259              		.loc 1 116 5 view .LVU68
 117:D:/fchai/work/i-cube/I-CUBE-HUAWEI/Middlewares/Third_Party/Huawei/iot_link/network/dtls/mbedtls/mbedtls-2.16.2/library\sha1.c **** 
 260              		.loc 1 117 5 view .LVU69
 119:D:/fchai/work/i-cube/I-CUBE-HUAWEI/Middlewares/Third_Party/Huawei/iot_link/network/dtls/mbedtls/mbedtls-2.16.2/library\sha1.c **** }
 261              		.loc 1 119 5 view .LVU70
 262              	.LVL9:
 119:D:/fchai/work/i-cube/I-CUBE-HUAWEI/Middlewares/Third_Party/Huawei/iot_link/network/dtls/mbedtls/mbedtls-2.16.2/library\sha1.c **** }
 263              		.loc 1 119 5 is_stmt 0 view .LVU71
 264              	.LBE17:
 265              	.LBE19:
 266              		.loc 1 126 1 view .LVU72
 267 001e 7047     		bx	lr
 268              	.L14:
 269              		.align	2
 270              	.L13:
 271 0020 01234567 		.word	1732584193
 272 0024 89ABCDEF 		.word	-271733879
 273 0028 FEDCBA98 		.word	-1732584194
 274 002c 76543210 		.word	271733878
 275 0030 F0E1D2C3 		.word	-1009589776
 276              		.cfi_endproc
 277              	.LFE4:
 279              		.section	.text.mbedtls_internal_sha1_process,"ax",%progbits
 280              		.align	1
 281              		.p2align 2,,3
 282              		.global	mbedtls_internal_sha1_process
 283              		.syntax unified
 284              		.thumb
 285              		.thumb_func
 286              		.fpu fpv4-sp-d16
 288              	mbedtls_internal_sha1_process:
 289              	.LVL10:
 290              	.LFB5:
 127:D:/fchai/work/i-cube/I-CUBE-HUAWEI/Middlewares/Third_Party/Huawei/iot_link/network/dtls/mbedtls/mbedtls-2.16.2/library\sha1.c **** #endif
 128:D:/fchai/work/i-cube/I-CUBE-HUAWEI/Middlewares/Third_Party/Huawei/iot_link/network/dtls/mbedtls/mbedtls-2.16.2/library\sha1.c **** 
 129:D:/fchai/work/i-cube/I-CUBE-HUAWEI/Middlewares/Third_Party/Huawei/iot_link/network/dtls/mbedtls/mbedtls-2.16.2/library\sha1.c **** #if !defined(MBEDTLS_SHA1_PROCESS_ALT)
 130:D:/fchai/work/i-cube/I-CUBE-HUAWEI/Middlewares/Third_Party/Huawei/iot_link/network/dtls/mbedtls/mbedtls-2.16.2/library\sha1.c **** int mbedtls_internal_sha1_process( mbedtls_sha1_context *ctx,
 131:D:/fchai/work/i-cube/I-CUBE-HUAWEI/Middlewares/Third_Party/Huawei/iot_link/network/dtls/mbedtls/mbedtls-2.16.2/library\sha1.c ****                                    const unsigned char data[64] )
 132:D:/fchai/work/i-cube/I-CUBE-HUAWEI/Middlewares/Third_Party/Huawei/iot_link/network/dtls/mbedtls/mbedtls-2.16.2/library\sha1.c **** {
 291              		.loc 1 132 1 is_stmt 1 view -0
 292              		.cfi_startproc
 293              		@ args = 0, pretend = 0, frame = 96
 294              		@ frame_needed = 0, uses_anonymous_args = 0
 133:D:/fchai/work/i-cube/I-CUBE-HUAWEI/Middlewares/Third_Party/Huawei/iot_link/network/dtls/mbedtls/mbedtls-2.16.2/library\sha1.c ****     uint32_t temp, W[16], A, B, C, D, E;
 295              		.loc 1 133 5 view .LVU74
 134:D:/fchai/work/i-cube/I-CUBE-HUAWEI/Middlewares/Third_Party/Huawei/iot_link/network/dtls/mbedtls/mbedtls-2.16.2/library\sha1.c **** 
 135:D:/fchai/work/i-cube/I-CUBE-HUAWEI/Middlewares/Third_Party/Huawei/iot_link/network/dtls/mbedtls/mbedtls-2.16.2/library\sha1.c ****     SHA1_VALIDATE_RET( ctx != NULL );
 296              		.loc 1 135 5 view .LVU75
 297              		.loc 1 135 5 view .LVU76
 298              		.loc 1 135 5 view .LVU77
 136:D:/fchai/work/i-cube/I-CUBE-HUAWEI/Middlewares/Third_Party/Huawei/iot_link/network/dtls/mbedtls/mbedtls-2.16.2/library\sha1.c ****     SHA1_VALIDATE_RET( (const unsigned char *)data != NULL );
ARM GAS  T:\msys\tmp\ccBepS7m.s 			page 9


 299              		.loc 1 136 5 view .LVU78
 300              		.loc 1 136 5 view .LVU79
 301              		.loc 1 136 5 view .LVU80
 137:D:/fchai/work/i-cube/I-CUBE-HUAWEI/Middlewares/Third_Party/Huawei/iot_link/network/dtls/mbedtls/mbedtls-2.16.2/library\sha1.c **** 
 138:D:/fchai/work/i-cube/I-CUBE-HUAWEI/Middlewares/Third_Party/Huawei/iot_link/network/dtls/mbedtls/mbedtls-2.16.2/library\sha1.c ****     GET_UINT32_BE( W[ 0], data,  0 );
 302              		.loc 1 138 5 view .LVU81
 132:D:/fchai/work/i-cube/I-CUBE-HUAWEI/Middlewares/Third_Party/Huawei/iot_link/network/dtls/mbedtls/mbedtls-2.16.2/library\sha1.c ****     uint32_t temp, W[16], A, B, C, D, E;
 303              		.loc 1 132 1 is_stmt 0 view .LVU82
 304 0000 2DE9F04F 		push	{r4, r5, r6, r7, r8, r9, r10, fp, lr}
 305              	.LCFI5:
 306              		.cfi_def_cfa_offset 36
 307              		.cfi_offset 4, -36
 308              		.cfi_offset 5, -32
 309              		.cfi_offset 6, -28
 310              		.cfi_offset 7, -24
 311              		.cfi_offset 8, -20
 312              		.cfi_offset 9, -16
 313              		.cfi_offset 10, -12
 314              		.cfi_offset 11, -8
 315              		.cfi_offset 14, -4
 139:D:/fchai/work/i-cube/I-CUBE-HUAWEI/Middlewares/Third_Party/Huawei/iot_link/network/dtls/mbedtls/mbedtls-2.16.2/library\sha1.c ****     GET_UINT32_BE( W[ 1], data,  4 );
 140:D:/fchai/work/i-cube/I-CUBE-HUAWEI/Middlewares/Third_Party/Huawei/iot_link/network/dtls/mbedtls/mbedtls-2.16.2/library\sha1.c ****     GET_UINT32_BE( W[ 2], data,  8 );
 141:D:/fchai/work/i-cube/I-CUBE-HUAWEI/Middlewares/Third_Party/Huawei/iot_link/network/dtls/mbedtls/mbedtls-2.16.2/library\sha1.c ****     GET_UINT32_BE( W[ 3], data, 12 );
 142:D:/fchai/work/i-cube/I-CUBE-HUAWEI/Middlewares/Third_Party/Huawei/iot_link/network/dtls/mbedtls/mbedtls-2.16.2/library\sha1.c ****     GET_UINT32_BE( W[ 4], data, 16 );
 143:D:/fchai/work/i-cube/I-CUBE-HUAWEI/Middlewares/Third_Party/Huawei/iot_link/network/dtls/mbedtls/mbedtls-2.16.2/library\sha1.c ****     GET_UINT32_BE( W[ 5], data, 20 );
 144:D:/fchai/work/i-cube/I-CUBE-HUAWEI/Middlewares/Third_Party/Huawei/iot_link/network/dtls/mbedtls/mbedtls-2.16.2/library\sha1.c ****     GET_UINT32_BE( W[ 6], data, 24 );
 145:D:/fchai/work/i-cube/I-CUBE-HUAWEI/Middlewares/Third_Party/Huawei/iot_link/network/dtls/mbedtls/mbedtls-2.16.2/library\sha1.c ****     GET_UINT32_BE( W[ 7], data, 28 );
 146:D:/fchai/work/i-cube/I-CUBE-HUAWEI/Middlewares/Third_Party/Huawei/iot_link/network/dtls/mbedtls/mbedtls-2.16.2/library\sha1.c ****     GET_UINT32_BE( W[ 8], data, 32 );
 147:D:/fchai/work/i-cube/I-CUBE-HUAWEI/Middlewares/Third_Party/Huawei/iot_link/network/dtls/mbedtls/mbedtls-2.16.2/library\sha1.c ****     GET_UINT32_BE( W[ 9], data, 36 );
 148:D:/fchai/work/i-cube/I-CUBE-HUAWEI/Middlewares/Third_Party/Huawei/iot_link/network/dtls/mbedtls/mbedtls-2.16.2/library\sha1.c ****     GET_UINT32_BE( W[10], data, 40 );
 149:D:/fchai/work/i-cube/I-CUBE-HUAWEI/Middlewares/Third_Party/Huawei/iot_link/network/dtls/mbedtls/mbedtls-2.16.2/library\sha1.c ****     GET_UINT32_BE( W[11], data, 44 );
 150:D:/fchai/work/i-cube/I-CUBE-HUAWEI/Middlewares/Third_Party/Huawei/iot_link/network/dtls/mbedtls/mbedtls-2.16.2/library\sha1.c ****     GET_UINT32_BE( W[12], data, 48 );
 151:D:/fchai/work/i-cube/I-CUBE-HUAWEI/Middlewares/Third_Party/Huawei/iot_link/network/dtls/mbedtls/mbedtls-2.16.2/library\sha1.c ****     GET_UINT32_BE( W[13], data, 52 );
 152:D:/fchai/work/i-cube/I-CUBE-HUAWEI/Middlewares/Third_Party/Huawei/iot_link/network/dtls/mbedtls/mbedtls-2.16.2/library\sha1.c ****     GET_UINT32_BE( W[14], data, 56 );
 153:D:/fchai/work/i-cube/I-CUBE-HUAWEI/Middlewares/Third_Party/Huawei/iot_link/network/dtls/mbedtls/mbedtls-2.16.2/library\sha1.c ****     GET_UINT32_BE( W[15], data, 60 );
 154:D:/fchai/work/i-cube/I-CUBE-HUAWEI/Middlewares/Third_Party/Huawei/iot_link/network/dtls/mbedtls/mbedtls-2.16.2/library\sha1.c **** 
 155:D:/fchai/work/i-cube/I-CUBE-HUAWEI/Middlewares/Third_Party/Huawei/iot_link/network/dtls/mbedtls/mbedtls-2.16.2/library\sha1.c **** #define S(x,n) (((x) << (n)) | (((x) & 0xFFFFFFFF) >> (32 - (n))))
 156:D:/fchai/work/i-cube/I-CUBE-HUAWEI/Middlewares/Third_Party/Huawei/iot_link/network/dtls/mbedtls/mbedtls-2.16.2/library\sha1.c **** 
 157:D:/fchai/work/i-cube/I-CUBE-HUAWEI/Middlewares/Third_Party/Huawei/iot_link/network/dtls/mbedtls/mbedtls-2.16.2/library\sha1.c **** #define R(t)                                                    \
 158:D:/fchai/work/i-cube/I-CUBE-HUAWEI/Middlewares/Third_Party/Huawei/iot_link/network/dtls/mbedtls/mbedtls-2.16.2/library\sha1.c ****     (                                                           \
 159:D:/fchai/work/i-cube/I-CUBE-HUAWEI/Middlewares/Third_Party/Huawei/iot_link/network/dtls/mbedtls/mbedtls-2.16.2/library\sha1.c ****         temp = W[( (t) -  3 ) & 0x0F] ^ W[( (t) - 8 ) & 0x0F] ^ \
 160:D:/fchai/work/i-cube/I-CUBE-HUAWEI/Middlewares/Third_Party/Huawei/iot_link/network/dtls/mbedtls/mbedtls-2.16.2/library\sha1.c ****                W[( (t) - 14 ) & 0x0F] ^ W[  (t)       & 0x0F],  \
 161:D:/fchai/work/i-cube/I-CUBE-HUAWEI/Middlewares/Third_Party/Huawei/iot_link/network/dtls/mbedtls/mbedtls-2.16.2/library\sha1.c ****         ( W[(t) & 0x0F] = S(temp,1) )                           \
 162:D:/fchai/work/i-cube/I-CUBE-HUAWEI/Middlewares/Third_Party/Huawei/iot_link/network/dtls/mbedtls/mbedtls-2.16.2/library\sha1.c ****     )
 163:D:/fchai/work/i-cube/I-CUBE-HUAWEI/Middlewares/Third_Party/Huawei/iot_link/network/dtls/mbedtls/mbedtls-2.16.2/library\sha1.c **** 
 164:D:/fchai/work/i-cube/I-CUBE-HUAWEI/Middlewares/Third_Party/Huawei/iot_link/network/dtls/mbedtls/mbedtls-2.16.2/library\sha1.c **** #define P(a,b,c,d,e,x)                                          \
 165:D:/fchai/work/i-cube/I-CUBE-HUAWEI/Middlewares/Third_Party/Huawei/iot_link/network/dtls/mbedtls/mbedtls-2.16.2/library\sha1.c ****     do                                                          \
 166:D:/fchai/work/i-cube/I-CUBE-HUAWEI/Middlewares/Third_Party/Huawei/iot_link/network/dtls/mbedtls/mbedtls-2.16.2/library\sha1.c ****     {                                                           \
 167:D:/fchai/work/i-cube/I-CUBE-HUAWEI/Middlewares/Third_Party/Huawei/iot_link/network/dtls/mbedtls/mbedtls-2.16.2/library\sha1.c ****         (e) += S((a),5) + F((b),(c),(d)) + K + (x);             \
 168:D:/fchai/work/i-cube/I-CUBE-HUAWEI/Middlewares/Third_Party/Huawei/iot_link/network/dtls/mbedtls/mbedtls-2.16.2/library\sha1.c ****         (b) = S((b),30);                                        \
 169:D:/fchai/work/i-cube/I-CUBE-HUAWEI/Middlewares/Third_Party/Huawei/iot_link/network/dtls/mbedtls/mbedtls-2.16.2/library\sha1.c ****     } while( 0 )
 170:D:/fchai/work/i-cube/I-CUBE-HUAWEI/Middlewares/Third_Party/Huawei/iot_link/network/dtls/mbedtls/mbedtls-2.16.2/library\sha1.c **** 
 171:D:/fchai/work/i-cube/I-CUBE-HUAWEI/Middlewares/Third_Party/Huawei/iot_link/network/dtls/mbedtls/mbedtls-2.16.2/library\sha1.c ****     A = ctx->state[0];
 172:D:/fchai/work/i-cube/I-CUBE-HUAWEI/Middlewares/Third_Party/Huawei/iot_link/network/dtls/mbedtls/mbedtls-2.16.2/library\sha1.c ****     B = ctx->state[1];
 173:D:/fchai/work/i-cube/I-CUBE-HUAWEI/Middlewares/Third_Party/Huawei/iot_link/network/dtls/mbedtls/mbedtls-2.16.2/library\sha1.c ****     C = ctx->state[2];
 174:D:/fchai/work/i-cube/I-CUBE-HUAWEI/Middlewares/Third_Party/Huawei/iot_link/network/dtls/mbedtls/mbedtls-2.16.2/library\sha1.c ****     D = ctx->state[3];
 316              		.loc 1 174 7 view .LVU83
ARM GAS  T:\msys\tmp\ccBepS7m.s 			page 10


 317 0004 D0E90456 		ldrd	r5, r6, [r0, #16]
 132:D:/fchai/work/i-cube/I-CUBE-HUAWEI/Middlewares/Third_Party/Huawei/iot_link/network/dtls/mbedtls/mbedtls-2.16.2/library\sha1.c ****     uint32_t temp, W[16], A, B, C, D, E;
 318              		.loc 1 132 1 view .LVU84
 319 0008 99B0     		sub	sp, sp, #100
 320              	.LCFI6:
 321              		.cfi_def_cfa_offset 136
 172:D:/fchai/work/i-cube/I-CUBE-HUAWEI/Middlewares/Third_Party/Huawei/iot_link/network/dtls/mbedtls/mbedtls-2.16.2/library\sha1.c ****     C = ctx->state[2];
 322              		.loc 1 172 7 view .LVU85
 323 000a C468     		ldr	r4, [r0, #12]
 171:D:/fchai/work/i-cube/I-CUBE-HUAWEI/Middlewares/Third_Party/Huawei/iot_link/network/dtls/mbedtls/mbedtls-2.16.2/library\sha1.c ****     B = ctx->state[1];
 324              		.loc 1 171 7 view .LVU86
 325 000c 8268     		ldr	r2, [r0, #8]
 326 000e 0792     		str	r2, [sp, #28]
 172:D:/fchai/work/i-cube/I-CUBE-HUAWEI/Middlewares/Third_Party/Huawei/iot_link/network/dtls/mbedtls/mbedtls-2.16.2/library\sha1.c ****     C = ctx->state[2];
 327              		.loc 1 172 7 view .LVU87
 328 0010 2746     		mov	r7, r4
 175:D:/fchai/work/i-cube/I-CUBE-HUAWEI/Middlewares/Third_Party/Huawei/iot_link/network/dtls/mbedtls/mbedtls-2.16.2/library\sha1.c ****     E = ctx->state[4];
 329              		.loc 1 175 7 view .LVU88
 330 0012 8269     		ldr	r2, [r0, #24]
 331 0014 1790     		str	r0, [sp, #92]
 176:D:/fchai/work/i-cube/I-CUBE-HUAWEI/Middlewares/Third_Party/Huawei/iot_link/network/dtls/mbedtls/mbedtls-2.16.2/library\sha1.c **** 
 177:D:/fchai/work/i-cube/I-CUBE-HUAWEI/Middlewares/Third_Party/Huawei/iot_link/network/dtls/mbedtls/mbedtls-2.16.2/library\sha1.c **** #define F(x,y,z) ((z) ^ ((x) & ((y) ^ (z))))
 178:D:/fchai/work/i-cube/I-CUBE-HUAWEI/Middlewares/Third_Party/Huawei/iot_link/network/dtls/mbedtls/mbedtls-2.16.2/library\sha1.c **** #define K 0x5A827999
 179:D:/fchai/work/i-cube/I-CUBE-HUAWEI/Middlewares/Third_Party/Huawei/iot_link/network/dtls/mbedtls/mbedtls-2.16.2/library\sha1.c **** 
 180:D:/fchai/work/i-cube/I-CUBE-HUAWEI/Middlewares/Third_Party/Huawei/iot_link/network/dtls/mbedtls/mbedtls-2.16.2/library\sha1.c ****     P( A, B, C, D, E, W[0]  );
 181:D:/fchai/work/i-cube/I-CUBE-HUAWEI/Middlewares/Third_Party/Huawei/iot_link/network/dtls/mbedtls/mbedtls-2.16.2/library\sha1.c ****     P( E, A, B, C, D, W[1]  );
 332              		.loc 1 181 5 view .LVU89
 333 0016 85EAB40C 		eor	ip, r5, r4, ror #2
 334 001a 2846     		mov	r0, r5
 335              	.LVL11:
 180:D:/fchai/work/i-cube/I-CUBE-HUAWEI/Middlewares/Third_Party/Huawei/iot_link/network/dtls/mbedtls/mbedtls-2.16.2/library\sha1.c ****     P( E, A, B, C, D, W[1]  );
 336              		.loc 1 180 5 view .LVU90
 337 001c 2C46     		mov	r4, r5
 338 001e 4D68     		ldr	r5, [r1, #4]	@ unaligned
 339 0020 1196     		str	r6, [sp, #68]
 340 0022 0295     		str	r5, [sp, #8]
 341 0024 7040     		eors	r0, r0, r6
 342 0026 CD68     		ldr	r5, [r1, #12]	@ unaligned
 343              		.loc 1 181 5 view .LVU91
 344 0028 079E     		ldr	r6, [sp, #28]
 345 002a 0395     		str	r5, [sp, #12]
 346 002c CD69     		ldr	r5, [r1, #28]	@ unaligned
 347 002e 0495     		str	r5, [sp, #16]
 348 0030 0CEA060C 		and	ip, ip, r6
 349 0034 0D6A     		ldr	r5, [r1, #32]	@ unaligned
 350 0036 0E68     		ldr	r6, [r1]	@ unaligned
 351 0038 0196     		str	r6, [sp, #4]
 352 003a 0595     		str	r5, [sp, #20]
 353 003c 4E6A     		ldr	r6, [r1, #36]	@ unaligned
 354 003e 8D6A     		ldr	r5, [r1, #40]	@ unaligned
 355 0040 0D96     		str	r6, [sp, #52]
 356 0042 0E95     		str	r5, [sp, #56]
 357 0044 CE6A     		ldr	r6, [r1, #44]	@ unaligned
 358 0046 0D6B     		ldr	r5, [r1, #48]	@ unaligned
 359 0048 D1F814A0 		ldr	r10, [r1, #20]	@ unaligned
 360 004c D1F81090 		ldr	r9, [r1, #16]	@ unaligned
 361 0050 D1F818B0 		ldr	fp, [r1, #24]	@ unaligned
ARM GAS  T:\msys\tmp\ccBepS7m.s 			page 11


 362 0054 D1F80880 		ldr	r8, [r1, #8]	@ unaligned
 363 0058 1095     		str	r5, [sp, #64]
 364 005a 0F96     		str	r6, [sp, #60]
 365 005c 4E6B     		ldr	r6, [r1, #52]	@ unaligned
 366              	.LVL12:
 138:D:/fchai/work/i-cube/I-CUBE-HUAWEI/Middlewares/Third_Party/Huawei/iot_link/network/dtls/mbedtls/mbedtls-2.16.2/library\sha1.c ****     GET_UINT32_BE( W[ 1], data,  4 );
 367              		.loc 1 138 37 is_stmt 1 view .LVU92
 139:D:/fchai/work/i-cube/I-CUBE-HUAWEI/Middlewares/Third_Party/Huawei/iot_link/network/dtls/mbedtls/mbedtls-2.16.2/library\sha1.c ****     GET_UINT32_BE( W[ 2], data,  8 );
 368              		.loc 1 139 5 view .LVU93
 139:D:/fchai/work/i-cube/I-CUBE-HUAWEI/Middlewares/Third_Party/Huawei/iot_link/network/dtls/mbedtls/mbedtls-2.16.2/library\sha1.c ****     GET_UINT32_BE( W[ 2], data,  8 );
 369              		.loc 1 139 37 view .LVU94
 140:D:/fchai/work/i-cube/I-CUBE-HUAWEI/Middlewares/Third_Party/Huawei/iot_link/network/dtls/mbedtls/mbedtls-2.16.2/library\sha1.c ****     GET_UINT32_BE( W[ 3], data, 12 );
 370              		.loc 1 140 5 view .LVU95
 140:D:/fchai/work/i-cube/I-CUBE-HUAWEI/Middlewares/Third_Party/Huawei/iot_link/network/dtls/mbedtls/mbedtls-2.16.2/library\sha1.c ****     GET_UINT32_BE( W[ 3], data, 12 );
 371              		.loc 1 140 37 view .LVU96
 141:D:/fchai/work/i-cube/I-CUBE-HUAWEI/Middlewares/Third_Party/Huawei/iot_link/network/dtls/mbedtls/mbedtls-2.16.2/library\sha1.c ****     GET_UINT32_BE( W[ 4], data, 16 );
 372              		.loc 1 141 5 view .LVU97
 141:D:/fchai/work/i-cube/I-CUBE-HUAWEI/Middlewares/Third_Party/Huawei/iot_link/network/dtls/mbedtls/mbedtls-2.16.2/library\sha1.c ****     GET_UINT32_BE( W[ 4], data, 16 );
 373              		.loc 1 141 37 view .LVU98
 142:D:/fchai/work/i-cube/I-CUBE-HUAWEI/Middlewares/Third_Party/Huawei/iot_link/network/dtls/mbedtls/mbedtls-2.16.2/library\sha1.c ****     GET_UINT32_BE( W[ 5], data, 20 );
 374              		.loc 1 142 5 view .LVU99
 375 005e 119D     		ldr	r5, [sp, #68]
 180:D:/fchai/work/i-cube/I-CUBE-HUAWEI/Middlewares/Third_Party/Huawei/iot_link/network/dtls/mbedtls/mbedtls-2.16.2/library\sha1.c ****     P( E, A, B, C, D, W[1]  );
 376              		.loc 1 180 5 is_stmt 0 view .LVU100
 377 0060 0897     		str	r7, [sp, #32]
 378 0062 05F1B54E 		add	lr, r5, #1518338048
 379 0066 0EF51E3E 		add	lr, lr, #161792
 380 006a 3840     		ands	r0, r0, r7
 381              		.loc 1 181 5 view .LVU101
 382 006c 8CEA040C 		eor	ip, ip, r4
 383 0070 0EF2991E 		addw	lr, lr, #409
 384 0074 D44F     		ldr	r7, .L17
 385 0076 1396     		str	r6, [sp, #76]
 386 0078 F444     		add	ip, ip, lr
 387 007a 079E     		ldr	r6, [sp, #28]
 388 007c DFF848E3 		ldr	lr, .L17
 389 0080 1692     		str	r2, [sp, #88]
 390 0082 D719     		adds	r7, r2, r7
 391 0084 029A     		ldr	r2, [sp, #8]
 392 0086 1594     		str	r4, [sp, #84]
 180:D:/fchai/work/i-cube/I-CUBE-HUAWEI/Middlewares/Third_Party/Huawei/iot_link/network/dtls/mbedtls/mbedtls-2.16.2/library\sha1.c ****     P( E, A, B, C, D, W[1]  );
 393              		.loc 1 180 5 view .LVU102
 394 0088 6840     		eors	r0, r0, r5
 395 008a 07EBF667 		add	r7, r7, r6, ror #27
 396 008e A644     		add	lr, r4, lr
 397 0090 089C     		ldr	r4, [sp, #32]
 398 0092 CE4B     		ldr	r3, .L17+4
 399 0094 12BA     		rev	r2, r2
 400 0096 0744     		add	r7, r7, r0
 401 0098 98FA88F8 		rev	r8, r8
 402 009c 0198     		ldr	r0, [sp, #4]
 403 009e 0692     		str	r2, [sp, #24]
 404 00a0 9444     		add	ip, ip, r2
 405 00a2 4246     		mov	r2, r8
 406 00a4 A046     		mov	r8, r4
 407 00a6 C84C     		ldr	r4, .L17
 408 00a8 0992     		str	r2, [sp, #36]
ARM GAS  T:\msys\tmp\ccBepS7m.s 			page 12


 409 00aa 00BA     		rev	r0, r0
 410 00ac 0546     		mov	r5, r0
 411 00ae 04EBB808 		add	r8, r4, r8, ror #2
 412 00b2 039C     		ldr	r4, [sp, #12]
 413 00b4 0195     		str	r5, [sp, #4]
 414 00b6 2F44     		add	r7, r7, r5
 182:D:/fchai/work/i-cube/I-CUBE-HUAWEI/Middlewares/Third_Party/Huawei/iot_link/network/dtls/mbedtls/mbedtls-2.16.2/library\sha1.c ****     P( D, E, A, B, C, W[2]  );
 415              		.loc 1 182 5 view .LVU103
 416 00b8 089D     		ldr	r5, [sp, #32]
 181:D:/fchai/work/i-cube/I-CUBE-HUAWEI/Middlewares/Third_Party/Huawei/iot_link/network/dtls/mbedtls/mbedtls-2.16.2/library\sha1.c ****     P( D, E, A, B, C, W[2]  );
 417              		.loc 1 181 5 view .LVU104
 418 00ba 4FEAB600 		ror	r0, r6, #2
 419 00be 24BA     		rev	r4, r4
 420 00c0 0294     		str	r4, [sp, #8]
 421              		.loc 1 182 5 view .LVU105
 422 00c2 80EAB505 		eor	r5, r0, r5, ror #2
 423 00c6 089C     		ldr	r4, [sp, #32]
 424 00c8 3D40     		ands	r5, r5, r7
 181:D:/fchai/work/i-cube/I-CUBE-HUAWEI/Middlewares/Third_Party/Huawei/iot_link/network/dtls/mbedtls/mbedtls-2.16.2/library\sha1.c ****     P( D, E, A, B, C, W[2]  );
 425              		.loc 1 181 5 view .LVU106
 426 00ca 0CEBF76C 		add	ip, ip, r7, ror #27
 183:D:/fchai/work/i-cube/I-CUBE-HUAWEI/Middlewares/Third_Party/Huawei/iot_link/network/dtls/mbedtls/mbedtls-2.16.2/library\sha1.c ****     P( C, D, E, A, B, W[3]  );
 427              		.loc 1 183 5 view .LVU107
 428 00ce 80EAB706 		eor	r6, r0, r7, ror #2
 182:D:/fchai/work/i-cube/I-CUBE-HUAWEI/Middlewares/Third_Party/Huawei/iot_link/network/dtls/mbedtls/mbedtls-2.16.2/library\sha1.c ****     P( D, E, A, B, C, W[2]  );
 429              		.loc 1 182 5 view .LVU108
 430 00d2 85EAB405 		eor	r5, r5, r4, ror #2
 431 00d6 9644     		add	lr, lr, r2
 432 00d8 029A     		ldr	r2, [sp, #8]
 433 00da AE44     		add	lr, lr, r5
 434              		.loc 1 183 5 view .LVU109
 435 00dc 06EA0C06 		and	r6, r6, ip
 436 00e0 4FEABC04 		ror	r4, ip, #2
 437 00e4 4640     		eors	r6, r6, r0
 182:D:/fchai/work/i-cube/I-CUBE-HUAWEI/Middlewares/Third_Party/Huawei/iot_link/network/dtls/mbedtls/mbedtls-2.16.2/library\sha1.c ****     P( D, E, A, B, C, W[2]  );
 438              		.loc 1 182 5 view .LVU110
 439 00e6 0EEBFC6C 		add	ip, lr, ip, ror #27
 440 00ea 9044     		add	r8, r8, r2
 441 00ec 9AFA8AFE 		rev	lr, r10
 442 00f0 B044     		add	r8, r8, r6
 443 00f2 00F1B540 		add	r0, r0, #1518338048
 444 00f6 7646     		mov	r6, lr
 445 00f8 99FA89FE 		rev	lr, r9
 446 00fc 7246     		mov	r2, lr
 447 00fe 00F51E30 		add	r0, r0, #161792
 184:D:/fchai/work/i-cube/I-CUBE-HUAWEI/Middlewares/Third_Party/Huawei/iot_link/network/dtls/mbedtls/mbedtls-2.16.2/library\sha1.c ****     P( B, C, D, E, A, W[4]  );
 448              		.loc 1 184 5 view .LVU111
 449 0102 84EAB70E 		eor	lr, r4, r7, ror #2
 450 0106 0EEA0C0E 		and	lr, lr, ip
 451 010a 00F29910 		addw	r0, r0, #409
 452 010e 8EEAB70E 		eor	lr, lr, r7, ror #2
 453 0112 1044     		add	r0, r0, r2
 183:D:/fchai/work/i-cube/I-CUBE-HUAWEI/Middlewares/Third_Party/Huawei/iot_link/network/dtls/mbedtls/mbedtls-2.16.2/library\sha1.c ****     P( C, D, E, A, B, W[3]  );
 454              		.loc 1 183 5 view .LVU112
 455 0114 08EBFC68 		add	r8, r8, ip, ror #27
 456              	.LVL13:
 142:D:/fchai/work/i-cube/I-CUBE-HUAWEI/Middlewares/Third_Party/Huawei/iot_link/network/dtls/mbedtls/mbedtls-2.16.2/library\sha1.c ****     GET_UINT32_BE( W[ 5], data, 20 );
ARM GAS  T:\msys\tmp\ccBepS7m.s 			page 13


 457              		.loc 1 142 37 is_stmt 1 view .LVU113
 143:D:/fchai/work/i-cube/I-CUBE-HUAWEI/Middlewares/Third_Party/Huawei/iot_link/network/dtls/mbedtls/mbedtls-2.16.2/library\sha1.c ****     GET_UINT32_BE( W[ 6], data, 24 );
 458              		.loc 1 143 5 view .LVU114
 143:D:/fchai/work/i-cube/I-CUBE-HUAWEI/Middlewares/Third_Party/Huawei/iot_link/network/dtls/mbedtls/mbedtls-2.16.2/library\sha1.c ****     GET_UINT32_BE( W[ 6], data, 24 );
 459              		.loc 1 143 37 view .LVU115
 144:D:/fchai/work/i-cube/I-CUBE-HUAWEI/Middlewares/Third_Party/Huawei/iot_link/network/dtls/mbedtls/mbedtls-2.16.2/library\sha1.c ****     GET_UINT32_BE( W[ 7], data, 28 );
 460              		.loc 1 144 5 view .LVU116
 461 0118 7044     		add	r0, r0, lr
 462 011a 9BFA8BFE 		rev	lr, fp
 185:D:/fchai/work/i-cube/I-CUBE-HUAWEI/Middlewares/Third_Party/Huawei/iot_link/network/dtls/mbedtls/mbedtls-2.16.2/library\sha1.c ****     P( A, B, C, D, E, W[5]  );
 463              		.loc 1 185 5 is_stmt 0 view .LVU117
 464 011e 4FEAB80A 		ror	r10, r8, #2
 465 0122 84EABC05 		eor	r5, r4, ip, ror #2
 466 0126 CDF830E0 		str	lr, [sp, #48]
 467 012a 06F1B549 		add	r9, r6, #1518338048
 468 012e 0EF1B54E 		add	lr, lr, #1518338048
 469 0132 05EA0805 		and	r5, r5, r8
 470 0136 09F51E39 		add	r9, r9, #161792
 184:D:/fchai/work/i-cube/I-CUBE-HUAWEI/Middlewares/Third_Party/Huawei/iot_link/network/dtls/mbedtls/mbedtls-2.16.2/library\sha1.c ****     P( A, B, C, D, E, W[5]  );
 471              		.loc 1 184 5 view .LVU118
 472 013a 00EBF868 		add	r8, r0, r8, ror #27
 473 013e 0EF51E3E 		add	lr, lr, #161792
 186:D:/fchai/work/i-cube/I-CUBE-HUAWEI/Middlewares/Third_Party/Huawei/iot_link/network/dtls/mbedtls/mbedtls-2.16.2/library\sha1.c ****     P( E, A, B, C, D, W[6]  );
 474              		.loc 1 186 5 view .LVU119
 475 0142 8AEABC00 		eor	r0, r10, ip, ror #2
 476 0146 0B96     		str	r6, [sp, #44]
 477 0148 09F29919 		addw	r9, r9, #409
 478 014c 00EA0806 		and	r6, r0, r8
 479 0150 0EF2991E 		addw	lr, lr, #409
 480 0154 0498     		ldr	r0, [sp, #16]
 481 0156 0A92     		str	r2, [sp, #40]
 185:D:/fchai/work/i-cube/I-CUBE-HUAWEI/Middlewares/Third_Party/Huawei/iot_link/network/dtls/mbedtls/mbedtls-2.16.2/library\sha1.c ****     P( A, B, C, D, E, W[5]  );
 482              		.loc 1 185 5 view .LVU120
 483 0158 6540     		eors	r5, r5, r4
 484 015a 09EBB707 		add	r7, r9, r7, ror #2
 485 015e 7444     		add	r4, r4, lr
 486              		.loc 1 186 5 view .LVU121
 487 0160 86EABC06 		eor	r6, r6, ip, ror #2
 488 0164 2644     		add	r6, r6, r4
 489 0166 2F44     		add	r7, r7, r5
 490              	.LVL14:
 144:D:/fchai/work/i-cube/I-CUBE-HUAWEI/Middlewares/Third_Party/Huawei/iot_link/network/dtls/mbedtls/mbedtls-2.16.2/library\sha1.c ****     GET_UINT32_BE( W[ 7], data, 28 );
 491              		.loc 1 144 37 is_stmt 1 view .LVU122
 145:D:/fchai/work/i-cube/I-CUBE-HUAWEI/Middlewares/Third_Party/Huawei/iot_link/network/dtls/mbedtls/mbedtls-2.16.2/library\sha1.c ****     GET_UINT32_BE( W[ 8], data, 32 );
 492              		.loc 1 145 5 view .LVU123
 145:D:/fchai/work/i-cube/I-CUBE-HUAWEI/Middlewares/Third_Party/Huawei/iot_link/network/dtls/mbedtls/mbedtls-2.16.2/library\sha1.c ****     GET_UINT32_BE( W[ 8], data, 32 );
 493              		.loc 1 145 37 view .LVU124
 146:D:/fchai/work/i-cube/I-CUBE-HUAWEI/Middlewares/Third_Party/Huawei/iot_link/network/dtls/mbedtls/mbedtls-2.16.2/library\sha1.c ****     GET_UINT32_BE( W[ 9], data, 36 );
 494              		.loc 1 146 5 view .LVU125
 495 0168 00BA     		rev	r0, r0
 496 016a 974C     		ldr	r4, .L17
 497 016c DFF858E2 		ldr	lr, .L17
 185:D:/fchai/work/i-cube/I-CUBE-HUAWEI/Middlewares/Third_Party/Huawei/iot_link/network/dtls/mbedtls/mbedtls-2.16.2/library\sha1.c ****     P( E, A, B, C, D, W[6]  );
 498              		.loc 1 185 5 is_stmt 0 view .LVU126
 499 0170 07EBF867 		add	r7, r7, r8, ror #27
 500 0174 0246     		mov	r2, r0
 187:D:/fchai/work/i-cube/I-CUBE-HUAWEI/Middlewares/Third_Party/Huawei/iot_link/network/dtls/mbedtls/mbedtls-2.16.2/library\sha1.c ****     P( D, E, A, B, C, W[7]  );
ARM GAS  T:\msys\tmp\ccBepS7m.s 			page 14


 501              		.loc 1 187 5 view .LVU127
 502 0176 8AEAB800 		eor	r0, r10, r8, ror #2
 503 017a 1419     		adds	r4, r2, r4
 504 017c 3840     		ands	r0, r0, r7
 505 017e 80EA0A00 		eor	r0, r0, r10
 506 0182 04EBBC0C 		add	ip, r4, ip, ror #2
 507 0186 00EB0C04 		add	r4, r0, ip
 508 018a 0598     		ldr	r0, [sp, #20]
 509 018c 1292     		str	r2, [sp, #72]
 186:D:/fchai/work/i-cube/I-CUBE-HUAWEI/Middlewares/Third_Party/Huawei/iot_link/network/dtls/mbedtls/mbedtls-2.16.2/library\sha1.c ****     P( D, E, A, B, C, W[7]  );
 510              		.loc 1 186 5 view .LVU128
 511 018e 06EBF765 		add	r5, r6, r7, ror #27
 512              		.loc 1 187 5 view .LVU129
 513 0192 4FEAB709 		ror	r9, r7, #2
 146:D:/fchai/work/i-cube/I-CUBE-HUAWEI/Middlewares/Third_Party/Huawei/iot_link/network/dtls/mbedtls/mbedtls-2.16.2/library\sha1.c ****     GET_UINT32_BE( W[ 9], data, 36 );
 514              		.loc 1 146 37 is_stmt 1 view .LVU130
 147:D:/fchai/work/i-cube/I-CUBE-HUAWEI/Middlewares/Third_Party/Huawei/iot_link/network/dtls/mbedtls/mbedtls-2.16.2/library\sha1.c ****     GET_UINT32_BE( W[10], data, 40 );
 515              		.loc 1 147 5 view .LVU131
 147:D:/fchai/work/i-cube/I-CUBE-HUAWEI/Middlewares/Third_Party/Huawei/iot_link/network/dtls/mbedtls/mbedtls-2.16.2/library\sha1.c ****     GET_UINT32_BE( W[10], data, 40 );
 516              		.loc 1 147 37 view .LVU132
 148:D:/fchai/work/i-cube/I-CUBE-HUAWEI/Middlewares/Third_Party/Huawei/iot_link/network/dtls/mbedtls/mbedtls-2.16.2/library\sha1.c ****     GET_UINT32_BE( W[11], data, 44 );
 517              		.loc 1 148 5 view .LVU133
 518 0196 0D9F     		ldr	r7, [sp, #52]
 519 0198 00BA     		rev	r0, r0
 520 019a 3ABA     		rev	r2, r7
 521 019c 8644     		add	lr, r0, lr
 188:D:/fchai/work/i-cube/I-CUBE-HUAWEI/Middlewares/Third_Party/Huawei/iot_link/network/dtls/mbedtls/mbedtls-2.16.2/library\sha1.c ****     P( C, D, E, A, B, W[8]  );
 522              		.loc 1 188 5 is_stmt 0 view .LVU134
 523 019e 89EAB80C 		eor	ip, r9, r8, ror #2
 524 01a2 F244     		add	r10, r10, lr
 525 01a4 02F1B54E 		add	lr, r2, #1518338048
 187:D:/fchai/work/i-cube/I-CUBE-HUAWEI/Middlewares/Third_Party/Huawei/iot_link/network/dtls/mbedtls/mbedtls-2.16.2/library\sha1.c ****     P( C, D, E, A, B, W[8]  );
 526              		.loc 1 187 5 view .LVU135
 527 01a8 04EBF564 		add	r4, r4, r5, ror #27
 528 01ac 0390     		str	r0, [sp, #12]
 529              		.loc 1 188 5 view .LVU136
 530 01ae 0CEA050C 		and	ip, ip, r5
 189:D:/fchai/work/i-cube/I-CUBE-HUAWEI/Middlewares/Third_Party/Huawei/iot_link/network/dtls/mbedtls/mbedtls-2.16.2/library\sha1.c ****     P( B, C, D, E, A, W[9]  );
 531              		.loc 1 189 5 view .LVU137
 532 01b2 89EAB500 		eor	r0, r9, r5, ror #2
 533 01b6 0EF51E3E 		add	lr, lr, #161792
 188:D:/fchai/work/i-cube/I-CUBE-HUAWEI/Middlewares/Third_Party/Huawei/iot_link/network/dtls/mbedtls/mbedtls-2.16.2/library\sha1.c ****     P( C, D, E, A, B, W[8]  );
 534              		.loc 1 188 5 view .LVU138
 535 01ba 8CEAB80C 		eor	ip, ip, r8, ror #2
 536              		.loc 1 189 5 view .LVU139
 537 01be 2040     		ands	r0, r0, r4
 538 01c0 0EF2991E 		addw	lr, lr, #409
 539 01c4 0EEBB80E 		add	lr, lr, r8, ror #2
 540 01c8 D444     		add	ip, ip, r10
 541 01ca 80EA0900 		eor	r0, r0, r9
 188:D:/fchai/work/i-cube/I-CUBE-HUAWEI/Middlewares/Third_Party/Huawei/iot_link/network/dtls/mbedtls/mbedtls-2.16.2/library\sha1.c ****     P( C, D, E, A, B, W[8]  );
 542              		.loc 1 188 5 view .LVU140
 543 01ce 0CEBF46C 		add	ip, ip, r4, ror #27
 544 01d2 0E9F     		ldr	r7, [sp, #56]
 545 01d4 0D92     		str	r2, [sp, #52]
 546 01d6 7044     		add	r0, r0, lr
 547              		.loc 1 189 5 view .LVU141
ARM GAS  T:\msys\tmp\ccBepS7m.s 			page 15


 548 01d8 00EBFC6E 		add	lr, r0, ip, ror #27
 549 01dc 7A48     		ldr	r0, .L17
 550 01de 3FBA     		rev	r7, r7
 551 01e0 0E97     		str	r7, [sp, #56]
 552 01e2 3818     		adds	r0, r7, r0
 553 01e4 0F9F     		ldr	r7, [sp, #60]
 554 01e6 4FEAB408 		ror	r8, r4, #2
 148:D:/fchai/work/i-cube/I-CUBE-HUAWEI/Middlewares/Third_Party/Huawei/iot_link/network/dtls/mbedtls/mbedtls-2.16.2/library\sha1.c ****     GET_UINT32_BE( W[11], data, 44 );
 555              		.loc 1 148 37 is_stmt 1 view .LVU142
 149:D:/fchai/work/i-cube/I-CUBE-HUAWEI/Middlewares/Third_Party/Huawei/iot_link/network/dtls/mbedtls/mbedtls-2.16.2/library\sha1.c ****     GET_UINT32_BE( W[12], data, 48 );
 556              		.loc 1 149 5 view .LVU143
 149:D:/fchai/work/i-cube/I-CUBE-HUAWEI/Middlewares/Third_Party/Huawei/iot_link/network/dtls/mbedtls/mbedtls-2.16.2/library\sha1.c ****     GET_UINT32_BE( W[12], data, 48 );
 557              		.loc 1 149 37 view .LVU144
 150:D:/fchai/work/i-cube/I-CUBE-HUAWEI/Middlewares/Third_Party/Huawei/iot_link/network/dtls/mbedtls/mbedtls-2.16.2/library\sha1.c ****     GET_UINT32_BE( W[13], data, 52 );
 558              		.loc 1 150 5 view .LVU145
 559 01ea 3EBA     		rev	r6, r7
 190:D:/fchai/work/i-cube/I-CUBE-HUAWEI/Middlewares/Third_Party/Huawei/iot_link/network/dtls/mbedtls/mbedtls-2.16.2/library\sha1.c ****     P( A, B, C, D, E, W[10] );
 560              		.loc 1 190 5 is_stmt 0 view .LVU146
 561 01ec 88EAB50A 		eor	r10, r8, r5, ror #2
 562 01f0 109F     		ldr	r7, [sp, #64]
 563 01f2 0F96     		str	r6, [sp, #60]
 564 01f4 0AEA0C0A 		and	r10, r10, ip
 565 01f8 3ABA     		rev	r2, r7
 566 01fa 4844     		add	r0, r0, r9
 567 01fc 8AEAB50A 		eor	r10, r10, r5, ror #2
 568 0200 1092     		str	r2, [sp, #64]
 569 0202 8244     		add	r10, r10, r0
 570 0204 139F     		ldr	r7, [sp, #76]
 571 0206 DFF8C091 		ldr	r9, .L17
 572 020a 3046     		mov	r0, r6
 573 020c 6E4E     		ldr	r6, .L17
 191:D:/fchai/work/i-cube/I-CUBE-HUAWEI/Middlewares/Third_Party/Huawei/iot_link/network/dtls/mbedtls/mbedtls-2.16.2/library\sha1.c ****     P( E, A, B, C, D, W[11] );
 574              		.loc 1 191 5 view .LVU147
 575 020e 88EABC04 		eor	r4, r8, ip, ror #2
 576 0212 3FBA     		rev	r7, r7
 577 0214 04EA0E04 		and	r4, r4, lr
 578 0218 8619     		adds	r6, r0, r6
 579 021a 06EBB506 		add	r6, r6, r5, ror #2
 190:D:/fchai/work/i-cube/I-CUBE-HUAWEI/Middlewares/Third_Party/Huawei/iot_link/network/dtls/mbedtls/mbedtls-2.16.2/library\sha1.c ****     P( A, B, C, D, E, W[10] );
 580              		.loc 1 190 5 view .LVU148
 581 021e 0AEBFE60 		add	r0, r10, lr, ror #27
 582              		.loc 1 191 5 view .LVU149
 583 0222 4FEABE05 		ror	r5, lr, #2
 150:D:/fchai/work/i-cube/I-CUBE-HUAWEI/Middlewares/Third_Party/Huawei/iot_link/network/dtls/mbedtls/mbedtls-2.16.2/library\sha1.c ****     GET_UINT32_BE( W[13], data, 52 );
 584              		.loc 1 150 37 is_stmt 1 view .LVU150
 151:D:/fchai/work/i-cube/I-CUBE-HUAWEI/Middlewares/Third_Party/Huawei/iot_link/network/dtls/mbedtls/mbedtls-2.16.2/library\sha1.c ****     GET_UINT32_BE( W[14], data, 56 );
 585              		.loc 1 151 5 view .LVU151
 151:D:/fchai/work/i-cube/I-CUBE-HUAWEI/Middlewares/Third_Party/Huawei/iot_link/network/dtls/mbedtls/mbedtls-2.16.2/library\sha1.c ****     GET_UINT32_BE( W[14], data, 56 );
 586              		.loc 1 151 37 view .LVU152
 152:D:/fchai/work/i-cube/I-CUBE-HUAWEI/Middlewares/Third_Party/Huawei/iot_link/network/dtls/mbedtls/mbedtls-2.16.2/library\sha1.c ****     GET_UINT32_BE( W[15], data, 60 );
 587              		.loc 1 152 5 view .LVU153
 588              		.loc 1 191 5 is_stmt 0 view .LVU154
 589 0226 84EA0804 		eor	r4, r4, r8
 590 022a 07F1B54E 		add	lr, r7, #1518338048
 591 022e 3444     		add	r4, r4, r6
 592 0230 0EF51E3E 		add	lr, lr, #161792
 192:D:/fchai/work/i-cube/I-CUBE-HUAWEI/Middlewares/Third_Party/Huawei/iot_link/network/dtls/mbedtls/mbedtls-2.16.2/library\sha1.c ****     P( D, E, A, B, C, W[12] );
ARM GAS  T:\msys\tmp\ccBepS7m.s 			page 16


 593              		.loc 1 192 5 view .LVU155
 594 0234 85EABC06 		eor	r6, r5, ip, ror #2
 595 0238 0640     		ands	r6, r6, r0
 596 023a 0EF2991E 		addw	lr, lr, #409
 597 023e 0EEBBC0E 		add	lr, lr, ip, ror #2
 598 0242 9144     		add	r9, r2, r9
 599 0244 86EABC06 		eor	r6, r6, ip, ror #2
 600 0248 D1F838C0 		ldr	ip, [r1, #56]	@ unaligned
 601 024c 0497     		str	r7, [sp, #16]
 602 024e C144     		add	r9, r9, r8
 603 0250 CF6B     		ldr	r7, [r1, #60]	@ unaligned
 604 0252 5D49     		ldr	r1, .L17
 605              	.LVL15:
 193:D:/fchai/work/i-cube/I-CUBE-HUAWEI/Middlewares/Third_Party/Huawei/iot_link/network/dtls/mbedtls/mbedtls-2.16.2/library\sha1.c ****     P( C, D, E, A, B, W[13] );
 194:D:/fchai/work/i-cube/I-CUBE-HUAWEI/Middlewares/Third_Party/Huawei/iot_link/network/dtls/mbedtls/mbedtls-2.16.2/library\sha1.c ****     P( B, C, D, E, A, W[14] );
 195:D:/fchai/work/i-cube/I-CUBE-HUAWEI/Middlewares/Third_Party/Huawei/iot_link/network/dtls/mbedtls/mbedtls-2.16.2/library\sha1.c ****     P( A, B, C, D, E, W[15] );
 196:D:/fchai/work/i-cube/I-CUBE-HUAWEI/Middlewares/Third_Party/Huawei/iot_link/network/dtls/mbedtls/mbedtls-2.16.2/library\sha1.c ****     P( E, A, B, C, D, R(16) );
 197:D:/fchai/work/i-cube/I-CUBE-HUAWEI/Middlewares/Third_Party/Huawei/iot_link/network/dtls/mbedtls/mbedtls-2.16.2/library\sha1.c ****     P( D, E, A, B, C, R(17) );
 606              		.loc 1 197 5 view .LVU156
 607 0254 029A     		ldr	r2, [sp, #8]
 608 0256 DFF870A1 		ldr	r10, .L17
 609 025a 9CFA8CFC 		rev	ip, ip
 191:D:/fchai/work/i-cube/I-CUBE-HUAWEI/Middlewares/Third_Party/Huawei/iot_link/network/dtls/mbedtls/mbedtls-2.16.2/library\sha1.c ****     P( D, E, A, B, C, W[12] );
 610              		.loc 1 191 5 view .LVU157
 611 025e 04EBF064 		add	r4, r4, r0, ror #27
 193:D:/fchai/work/i-cube/I-CUBE-HUAWEI/Middlewares/Third_Party/Huawei/iot_link/network/dtls/mbedtls/mbedtls-2.16.2/library\sha1.c ****     P( C, D, E, A, B, W[13] );
 612              		.loc 1 193 5 view .LVU158
 613 0262 85EAB00B 		eor	fp, r5, r0, ror #2
 614 0266 4E44     		add	r6, r6, r9
 192:D:/fchai/work/i-cube/I-CUBE-HUAWEI/Middlewares/Third_Party/Huawei/iot_link/network/dtls/mbedtls/mbedtls-2.16.2/library\sha1.c ****     P( D, E, A, B, C, W[12] );
 615              		.loc 1 192 5 view .LVU159
 616 0268 06EBF469 		add	r9, r6, r4, ror #27
 152:D:/fchai/work/i-cube/I-CUBE-HUAWEI/Middlewares/Third_Party/Huawei/iot_link/network/dtls/mbedtls/mbedtls-2.16.2/library\sha1.c ****     GET_UINT32_BE( W[15], data, 60 );
 617              		.loc 1 152 37 is_stmt 1 view .LVU160
 153:D:/fchai/work/i-cube/I-CUBE-HUAWEI/Middlewares/Third_Party/Huawei/iot_link/network/dtls/mbedtls/mbedtls-2.16.2/library\sha1.c **** 
 618              		.loc 1 153 5 view .LVU161
 153:D:/fchai/work/i-cube/I-CUBE-HUAWEI/Middlewares/Third_Party/Huawei/iot_link/network/dtls/mbedtls/mbedtls-2.16.2/library\sha1.c **** 
 619              		.loc 1 153 37 view .LVU162
 171:D:/fchai/work/i-cube/I-CUBE-HUAWEI/Middlewares/Third_Party/Huawei/iot_link/network/dtls/mbedtls/mbedtls-2.16.2/library\sha1.c ****     B = ctx->state[1];
 620              		.loc 1 171 5 view .LVU163
 621              	.LVL16:
 172:D:/fchai/work/i-cube/I-CUBE-HUAWEI/Middlewares/Third_Party/Huawei/iot_link/network/dtls/mbedtls/mbedtls-2.16.2/library\sha1.c ****     C = ctx->state[2];
 622              		.loc 1 172 5 view .LVU164
 173:D:/fchai/work/i-cube/I-CUBE-HUAWEI/Middlewares/Third_Party/Huawei/iot_link/network/dtls/mbedtls/mbedtls-2.16.2/library\sha1.c ****     D = ctx->state[3];
 623              		.loc 1 173 5 view .LVU165
 174:D:/fchai/work/i-cube/I-CUBE-HUAWEI/Middlewares/Third_Party/Huawei/iot_link/network/dtls/mbedtls/mbedtls-2.16.2/library\sha1.c ****     E = ctx->state[4];
 624              		.loc 1 174 5 view .LVU166
 175:D:/fchai/work/i-cube/I-CUBE-HUAWEI/Middlewares/Third_Party/Huawei/iot_link/network/dtls/mbedtls/mbedtls-2.16.2/library\sha1.c **** 
 625              		.loc 1 175 5 view .LVU167
 180:D:/fchai/work/i-cube/I-CUBE-HUAWEI/Middlewares/Third_Party/Huawei/iot_link/network/dtls/mbedtls/mbedtls-2.16.2/library\sha1.c ****     P( E, A, B, C, D, W[1]  );
 626              		.loc 1 180 5 view .LVU168
 180:D:/fchai/work/i-cube/I-CUBE-HUAWEI/Middlewares/Third_Party/Huawei/iot_link/network/dtls/mbedtls/mbedtls-2.16.2/library\sha1.c ****     P( E, A, B, C, D, W[1]  );
 627              		.loc 1 180 5 view .LVU169
 180:D:/fchai/work/i-cube/I-CUBE-HUAWEI/Middlewares/Third_Party/Huawei/iot_link/network/dtls/mbedtls/mbedtls-2.16.2/library\sha1.c ****     P( E, A, B, C, D, W[1]  );
 628              		.loc 1 180 5 view .LVU170
 180:D:/fchai/work/i-cube/I-CUBE-HUAWEI/Middlewares/Third_Party/Huawei/iot_link/network/dtls/mbedtls/mbedtls-2.16.2/library\sha1.c ****     P( E, A, B, C, D, W[1]  );
 629              		.loc 1 180 5 view .LVU171
ARM GAS  T:\msys\tmp\ccBepS7m.s 			page 17


 181:D:/fchai/work/i-cube/I-CUBE-HUAWEI/Middlewares/Third_Party/Huawei/iot_link/network/dtls/mbedtls/mbedtls-2.16.2/library\sha1.c ****     P( D, E, A, B, C, W[2]  );
 630              		.loc 1 181 5 view .LVU172
 181:D:/fchai/work/i-cube/I-CUBE-HUAWEI/Middlewares/Third_Party/Huawei/iot_link/network/dtls/mbedtls/mbedtls-2.16.2/library\sha1.c ****     P( D, E, A, B, C, W[2]  );
 631              		.loc 1 181 5 view .LVU173
 181:D:/fchai/work/i-cube/I-CUBE-HUAWEI/Middlewares/Third_Party/Huawei/iot_link/network/dtls/mbedtls/mbedtls-2.16.2/library\sha1.c ****     P( D, E, A, B, C, W[2]  );
 632              		.loc 1 181 5 view .LVU174
 181:D:/fchai/work/i-cube/I-CUBE-HUAWEI/Middlewares/Third_Party/Huawei/iot_link/network/dtls/mbedtls/mbedtls-2.16.2/library\sha1.c ****     P( D, E, A, B, C, W[2]  );
 633              		.loc 1 181 5 view .LVU175
 182:D:/fchai/work/i-cube/I-CUBE-HUAWEI/Middlewares/Third_Party/Huawei/iot_link/network/dtls/mbedtls/mbedtls-2.16.2/library\sha1.c ****     P( C, D, E, A, B, W[3]  );
 634              		.loc 1 182 5 view .LVU176
 182:D:/fchai/work/i-cube/I-CUBE-HUAWEI/Middlewares/Third_Party/Huawei/iot_link/network/dtls/mbedtls/mbedtls-2.16.2/library\sha1.c ****     P( C, D, E, A, B, W[3]  );
 635              		.loc 1 182 5 view .LVU177
 182:D:/fchai/work/i-cube/I-CUBE-HUAWEI/Middlewares/Third_Party/Huawei/iot_link/network/dtls/mbedtls/mbedtls-2.16.2/library\sha1.c ****     P( C, D, E, A, B, W[3]  );
 636              		.loc 1 182 5 view .LVU178
 182:D:/fchai/work/i-cube/I-CUBE-HUAWEI/Middlewares/Third_Party/Huawei/iot_link/network/dtls/mbedtls/mbedtls-2.16.2/library\sha1.c ****     P( C, D, E, A, B, W[3]  );
 637              		.loc 1 182 5 view .LVU179
 183:D:/fchai/work/i-cube/I-CUBE-HUAWEI/Middlewares/Third_Party/Huawei/iot_link/network/dtls/mbedtls/mbedtls-2.16.2/library\sha1.c ****     P( B, C, D, E, A, W[4]  );
 638              		.loc 1 183 5 view .LVU180
 183:D:/fchai/work/i-cube/I-CUBE-HUAWEI/Middlewares/Third_Party/Huawei/iot_link/network/dtls/mbedtls/mbedtls-2.16.2/library\sha1.c ****     P( B, C, D, E, A, W[4]  );
 639              		.loc 1 183 5 view .LVU181
 183:D:/fchai/work/i-cube/I-CUBE-HUAWEI/Middlewares/Third_Party/Huawei/iot_link/network/dtls/mbedtls/mbedtls-2.16.2/library\sha1.c ****     P( B, C, D, E, A, W[4]  );
 640              		.loc 1 183 5 view .LVU182
 183:D:/fchai/work/i-cube/I-CUBE-HUAWEI/Middlewares/Third_Party/Huawei/iot_link/network/dtls/mbedtls/mbedtls-2.16.2/library\sha1.c ****     P( B, C, D, E, A, W[4]  );
 641              		.loc 1 183 5 view .LVU183
 184:D:/fchai/work/i-cube/I-CUBE-HUAWEI/Middlewares/Third_Party/Huawei/iot_link/network/dtls/mbedtls/mbedtls-2.16.2/library\sha1.c ****     P( A, B, C, D, E, W[5]  );
 642              		.loc 1 184 5 view .LVU184
 184:D:/fchai/work/i-cube/I-CUBE-HUAWEI/Middlewares/Third_Party/Huawei/iot_link/network/dtls/mbedtls/mbedtls-2.16.2/library\sha1.c ****     P( A, B, C, D, E, W[5]  );
 643              		.loc 1 184 5 view .LVU185
 184:D:/fchai/work/i-cube/I-CUBE-HUAWEI/Middlewares/Third_Party/Huawei/iot_link/network/dtls/mbedtls/mbedtls-2.16.2/library\sha1.c ****     P( A, B, C, D, E, W[5]  );
 644              		.loc 1 184 5 view .LVU186
 184:D:/fchai/work/i-cube/I-CUBE-HUAWEI/Middlewares/Third_Party/Huawei/iot_link/network/dtls/mbedtls/mbedtls-2.16.2/library\sha1.c ****     P( A, B, C, D, E, W[5]  );
 645              		.loc 1 184 5 view .LVU187
 185:D:/fchai/work/i-cube/I-CUBE-HUAWEI/Middlewares/Third_Party/Huawei/iot_link/network/dtls/mbedtls/mbedtls-2.16.2/library\sha1.c ****     P( E, A, B, C, D, W[6]  );
 646              		.loc 1 185 5 view .LVU188
 185:D:/fchai/work/i-cube/I-CUBE-HUAWEI/Middlewares/Third_Party/Huawei/iot_link/network/dtls/mbedtls/mbedtls-2.16.2/library\sha1.c ****     P( E, A, B, C, D, W[6]  );
 647              		.loc 1 185 5 view .LVU189
 185:D:/fchai/work/i-cube/I-CUBE-HUAWEI/Middlewares/Third_Party/Huawei/iot_link/network/dtls/mbedtls/mbedtls-2.16.2/library\sha1.c ****     P( E, A, B, C, D, W[6]  );
 648              		.loc 1 185 5 view .LVU190
 185:D:/fchai/work/i-cube/I-CUBE-HUAWEI/Middlewares/Third_Party/Huawei/iot_link/network/dtls/mbedtls/mbedtls-2.16.2/library\sha1.c ****     P( E, A, B, C, D, W[6]  );
 649              		.loc 1 185 5 view .LVU191
 186:D:/fchai/work/i-cube/I-CUBE-HUAWEI/Middlewares/Third_Party/Huawei/iot_link/network/dtls/mbedtls/mbedtls-2.16.2/library\sha1.c ****     P( D, E, A, B, C, W[7]  );
 650              		.loc 1 186 5 view .LVU192
 186:D:/fchai/work/i-cube/I-CUBE-HUAWEI/Middlewares/Third_Party/Huawei/iot_link/network/dtls/mbedtls/mbedtls-2.16.2/library\sha1.c ****     P( D, E, A, B, C, W[7]  );
 651              		.loc 1 186 5 view .LVU193
 186:D:/fchai/work/i-cube/I-CUBE-HUAWEI/Middlewares/Third_Party/Huawei/iot_link/network/dtls/mbedtls/mbedtls-2.16.2/library\sha1.c ****     P( D, E, A, B, C, W[7]  );
 652              		.loc 1 186 5 view .LVU194
 186:D:/fchai/work/i-cube/I-CUBE-HUAWEI/Middlewares/Third_Party/Huawei/iot_link/network/dtls/mbedtls/mbedtls-2.16.2/library\sha1.c ****     P( D, E, A, B, C, W[7]  );
 653              		.loc 1 186 5 view .LVU195
 187:D:/fchai/work/i-cube/I-CUBE-HUAWEI/Middlewares/Third_Party/Huawei/iot_link/network/dtls/mbedtls/mbedtls-2.16.2/library\sha1.c ****     P( C, D, E, A, B, W[8]  );
 654              		.loc 1 187 5 view .LVU196
 187:D:/fchai/work/i-cube/I-CUBE-HUAWEI/Middlewares/Third_Party/Huawei/iot_link/network/dtls/mbedtls/mbedtls-2.16.2/library\sha1.c ****     P( C, D, E, A, B, W[8]  );
 655              		.loc 1 187 5 view .LVU197
 187:D:/fchai/work/i-cube/I-CUBE-HUAWEI/Middlewares/Third_Party/Huawei/iot_link/network/dtls/mbedtls/mbedtls-2.16.2/library\sha1.c ****     P( C, D, E, A, B, W[8]  );
 656              		.loc 1 187 5 view .LVU198
 187:D:/fchai/work/i-cube/I-CUBE-HUAWEI/Middlewares/Third_Party/Huawei/iot_link/network/dtls/mbedtls/mbedtls-2.16.2/library\sha1.c ****     P( C, D, E, A, B, W[8]  );
 657              		.loc 1 187 5 view .LVU199
 188:D:/fchai/work/i-cube/I-CUBE-HUAWEI/Middlewares/Third_Party/Huawei/iot_link/network/dtls/mbedtls/mbedtls-2.16.2/library\sha1.c ****     P( B, C, D, E, A, W[9]  );
ARM GAS  T:\msys\tmp\ccBepS7m.s 			page 18


 658              		.loc 1 188 5 view .LVU200
 188:D:/fchai/work/i-cube/I-CUBE-HUAWEI/Middlewares/Third_Party/Huawei/iot_link/network/dtls/mbedtls/mbedtls-2.16.2/library\sha1.c ****     P( B, C, D, E, A, W[9]  );
 659              		.loc 1 188 5 view .LVU201
 188:D:/fchai/work/i-cube/I-CUBE-HUAWEI/Middlewares/Third_Party/Huawei/iot_link/network/dtls/mbedtls/mbedtls-2.16.2/library\sha1.c ****     P( B, C, D, E, A, W[9]  );
 660              		.loc 1 188 5 view .LVU202
 188:D:/fchai/work/i-cube/I-CUBE-HUAWEI/Middlewares/Third_Party/Huawei/iot_link/network/dtls/mbedtls/mbedtls-2.16.2/library\sha1.c ****     P( B, C, D, E, A, W[9]  );
 661              		.loc 1 188 5 view .LVU203
 189:D:/fchai/work/i-cube/I-CUBE-HUAWEI/Middlewares/Third_Party/Huawei/iot_link/network/dtls/mbedtls/mbedtls-2.16.2/library\sha1.c ****     P( A, B, C, D, E, W[10] );
 662              		.loc 1 189 5 view .LVU204
 189:D:/fchai/work/i-cube/I-CUBE-HUAWEI/Middlewares/Third_Party/Huawei/iot_link/network/dtls/mbedtls/mbedtls-2.16.2/library\sha1.c ****     P( A, B, C, D, E, W[10] );
 663              		.loc 1 189 5 view .LVU205
 189:D:/fchai/work/i-cube/I-CUBE-HUAWEI/Middlewares/Third_Party/Huawei/iot_link/network/dtls/mbedtls/mbedtls-2.16.2/library\sha1.c ****     P( A, B, C, D, E, W[10] );
 664              		.loc 1 189 5 view .LVU206
 189:D:/fchai/work/i-cube/I-CUBE-HUAWEI/Middlewares/Third_Party/Huawei/iot_link/network/dtls/mbedtls/mbedtls-2.16.2/library\sha1.c ****     P( A, B, C, D, E, W[10] );
 665              		.loc 1 189 5 view .LVU207
 190:D:/fchai/work/i-cube/I-CUBE-HUAWEI/Middlewares/Third_Party/Huawei/iot_link/network/dtls/mbedtls/mbedtls-2.16.2/library\sha1.c ****     P( E, A, B, C, D, W[11] );
 666              		.loc 1 190 5 view .LVU208
 190:D:/fchai/work/i-cube/I-CUBE-HUAWEI/Middlewares/Third_Party/Huawei/iot_link/network/dtls/mbedtls/mbedtls-2.16.2/library\sha1.c ****     P( E, A, B, C, D, W[11] );
 667              		.loc 1 190 5 view .LVU209
 190:D:/fchai/work/i-cube/I-CUBE-HUAWEI/Middlewares/Third_Party/Huawei/iot_link/network/dtls/mbedtls/mbedtls-2.16.2/library\sha1.c ****     P( E, A, B, C, D, W[11] );
 668              		.loc 1 190 5 view .LVU210
 190:D:/fchai/work/i-cube/I-CUBE-HUAWEI/Middlewares/Third_Party/Huawei/iot_link/network/dtls/mbedtls/mbedtls-2.16.2/library\sha1.c ****     P( E, A, B, C, D, W[11] );
 669              		.loc 1 190 5 view .LVU211
 191:D:/fchai/work/i-cube/I-CUBE-HUAWEI/Middlewares/Third_Party/Huawei/iot_link/network/dtls/mbedtls/mbedtls-2.16.2/library\sha1.c ****     P( D, E, A, B, C, W[12] );
 670              		.loc 1 191 5 view .LVU212
 191:D:/fchai/work/i-cube/I-CUBE-HUAWEI/Middlewares/Third_Party/Huawei/iot_link/network/dtls/mbedtls/mbedtls-2.16.2/library\sha1.c ****     P( D, E, A, B, C, W[12] );
 671              		.loc 1 191 5 view .LVU213
 191:D:/fchai/work/i-cube/I-CUBE-HUAWEI/Middlewares/Third_Party/Huawei/iot_link/network/dtls/mbedtls/mbedtls-2.16.2/library\sha1.c ****     P( D, E, A, B, C, W[12] );
 672              		.loc 1 191 5 view .LVU214
 191:D:/fchai/work/i-cube/I-CUBE-HUAWEI/Middlewares/Third_Party/Huawei/iot_link/network/dtls/mbedtls/mbedtls-2.16.2/library\sha1.c ****     P( D, E, A, B, C, W[12] );
 673              		.loc 1 191 5 view .LVU215
 192:D:/fchai/work/i-cube/I-CUBE-HUAWEI/Middlewares/Third_Party/Huawei/iot_link/network/dtls/mbedtls/mbedtls-2.16.2/library\sha1.c ****     P( C, D, E, A, B, W[13] );
 674              		.loc 1 192 5 view .LVU216
 192:D:/fchai/work/i-cube/I-CUBE-HUAWEI/Middlewares/Third_Party/Huawei/iot_link/network/dtls/mbedtls/mbedtls-2.16.2/library\sha1.c ****     P( C, D, E, A, B, W[13] );
 675              		.loc 1 192 5 view .LVU217
 192:D:/fchai/work/i-cube/I-CUBE-HUAWEI/Middlewares/Third_Party/Huawei/iot_link/network/dtls/mbedtls/mbedtls-2.16.2/library\sha1.c ****     P( C, D, E, A, B, W[13] );
 676              		.loc 1 192 5 view .LVU218
 192:D:/fchai/work/i-cube/I-CUBE-HUAWEI/Middlewares/Third_Party/Huawei/iot_link/network/dtls/mbedtls/mbedtls-2.16.2/library\sha1.c ****     P( C, D, E, A, B, W[13] );
 677              		.loc 1 192 5 view .LVU219
 193:D:/fchai/work/i-cube/I-CUBE-HUAWEI/Middlewares/Third_Party/Huawei/iot_link/network/dtls/mbedtls/mbedtls-2.16.2/library\sha1.c ****     P( B, C, D, E, A, W[14] );
 678              		.loc 1 193 5 view .LVU220
 193:D:/fchai/work/i-cube/I-CUBE-HUAWEI/Middlewares/Third_Party/Huawei/iot_link/network/dtls/mbedtls/mbedtls-2.16.2/library\sha1.c ****     P( B, C, D, E, A, W[14] );
 679              		.loc 1 193 5 view .LVU221
 680 026c 0BEA040B 		and	fp, fp, r4
 681 0270 3EBA     		rev	r6, r7
 682 0272 4FEAB404 		ror	r4, r4, #2
 683              	.LVL17:
 193:D:/fchai/work/i-cube/I-CUBE-HUAWEI/Middlewares/Third_Party/Huawei/iot_link/network/dtls/mbedtls/mbedtls-2.16.2/library\sha1.c ****     P( B, C, D, E, A, W[14] );
 684              		.loc 1 193 5 is_stmt 0 view .LVU222
 685 0276 6144     		add	r1, ip, r1
 196:D:/fchai/work/i-cube/I-CUBE-HUAWEI/Middlewares/Third_Party/Huawei/iot_link/network/dtls/mbedtls/mbedtls-2.16.2/library\sha1.c ****     P( D, E, A, B, C, R(17) );
 686              		.loc 1 196 5 view .LVU223
 687 0278 019F     		ldr	r7, [sp, #4]
 688 027a 0596     		str	r6, [sp, #20]
 689 027c 2944     		add	r1, r1, r5
 690 027e 099E     		ldr	r6, [sp, #36]
 193:D:/fchai/work/i-cube/I-CUBE-HUAWEI/Middlewares/Third_Party/Huawei/iot_link/network/dtls/mbedtls/mbedtls-2.16.2/library\sha1.c ****     P( B, C, D, E, A, W[14] );
ARM GAS  T:\msys\tmp\ccBepS7m.s 			page 19


 691              		.loc 1 193 5 view .LVU224
 692 0280 8BEA050B 		eor	fp, fp, r5
 194:D:/fchai/work/i-cube/I-CUBE-HUAWEI/Middlewares/Third_Party/Huawei/iot_link/network/dtls/mbedtls/mbedtls-2.16.2/library\sha1.c ****     P( A, B, C, D, E, W[15] );
 693              		.loc 1 194 5 view .LVU225
 694 0284 84EAB005 		eor	r5, r4, r0, ror #2
 695              	.LVL18:
 194:D:/fchai/work/i-cube/I-CUBE-HUAWEI/Middlewares/Third_Party/Huawei/iot_link/network/dtls/mbedtls/mbedtls-2.16.2/library\sha1.c ****     P( A, B, C, D, E, W[15] );
 696              		.loc 1 194 5 view .LVU226
 697 0288 05EA0905 		and	r5, r5, r9
 196:D:/fchai/work/i-cube/I-CUBE-HUAWEI/Middlewares/Third_Party/Huawei/iot_link/network/dtls/mbedtls/mbedtls-2.16.2/library\sha1.c ****     P( D, E, A, B, C, R(17) );
 698              		.loc 1 196 5 view .LVU227
 699 028c 7E40     		eors	r6, r6, r7
 194:D:/fchai/work/i-cube/I-CUBE-HUAWEI/Middlewares/Third_Party/Huawei/iot_link/network/dtls/mbedtls/mbedtls-2.16.2/library\sha1.c ****     P( A, B, C, D, E, W[15] );
 700              		.loc 1 194 5 view .LVU228
 701 028e 85EAB005 		eor	r5, r5, r0, ror #2
 702              		.loc 1 197 5 view .LVU229
 703 0292 069F     		ldr	r7, [sp, #24]
 704 0294 0D44     		add	r5, r5, r1
 705 0296 0599     		ldr	r1, [sp, #20]
 706 0298 5740     		eors	r7, r7, r2
 196:D:/fchai/work/i-cube/I-CUBE-HUAWEI/Middlewares/Third_Party/Huawei/iot_link/network/dtls/mbedtls/mbedtls-2.16.2/library\sha1.c ****     P( D, E, A, B, C, R(17) );
 707              		.loc 1 196 5 view .LVU230
 708 029a 039A     		ldr	r2, [sp, #12]
 196:D:/fchai/work/i-cube/I-CUBE-HUAWEI/Middlewares/Third_Party/Huawei/iot_link/network/dtls/mbedtls/mbedtls-2.16.2/library\sha1.c ****     P( D, E, A, B, C, R(17) );
 709              		.loc 1 196 5 view .LVU231
 710 029c F344     		add	fp, fp, lr
 711 029e 8A44     		add	r10, r1, r10
 193:D:/fchai/work/i-cube/I-CUBE-HUAWEI/Middlewares/Third_Party/Huawei/iot_link/network/dtls/mbedtls/mbedtls-2.16.2/library\sha1.c ****     P( B, C, D, E, A, W[14] );
 712              		.loc 1 193 5 view .LVU232
 713 02a0 0BEBF96B 		add	fp, fp, r9, ror #27
 714              	.LVL19:
 193:D:/fchai/work/i-cube/I-CUBE-HUAWEI/Middlewares/Third_Party/Huawei/iot_link/network/dtls/mbedtls/mbedtls-2.16.2/library\sha1.c ****     P( B, C, D, E, A, W[14] );
 715              		.loc 1 193 5 is_stmt 1 view .LVU233
 193:D:/fchai/work/i-cube/I-CUBE-HUAWEI/Middlewares/Third_Party/Huawei/iot_link/network/dtls/mbedtls/mbedtls-2.16.2/library\sha1.c ****     P( B, C, D, E, A, W[14] );
 716              		.loc 1 193 5 view .LVU234
 194:D:/fchai/work/i-cube/I-CUBE-HUAWEI/Middlewares/Third_Party/Huawei/iot_link/network/dtls/mbedtls/mbedtls-2.16.2/library\sha1.c ****     P( A, B, C, D, E, W[15] );
 717              		.loc 1 194 5 view .LVU235
 194:D:/fchai/work/i-cube/I-CUBE-HUAWEI/Middlewares/Third_Party/Huawei/iot_link/network/dtls/mbedtls/mbedtls-2.16.2/library\sha1.c ****     P( A, B, C, D, E, W[15] );
 718              		.loc 1 194 5 view .LVU236
 196:D:/fchai/work/i-cube/I-CUBE-HUAWEI/Middlewares/Third_Party/Huawei/iot_link/network/dtls/mbedtls/mbedtls-2.16.2/library\sha1.c ****     P( D, E, A, B, C, R(17) );
 719              		.loc 1 196 5 is_stmt 0 view .LVU237
 720 02a4 5640     		eors	r6, r6, r2
 721 02a6 0AEBB00A 		add	r10, r10, r0, ror #2
 722              		.loc 1 197 5 view .LVU238
 723 02aa 0D9A     		ldr	r2, [sp, #52]
 196:D:/fchai/work/i-cube/I-CUBE-HUAWEI/Middlewares/Third_Party/Huawei/iot_link/network/dtls/mbedtls/mbedtls-2.16.2/library\sha1.c ****     P( D, E, A, B, C, R(17) );
 724              		.loc 1 196 5 view .LVU239
 725 02ac 0498     		ldr	r0, [sp, #16]
 726              	.LVL20:
 195:D:/fchai/work/i-cube/I-CUBE-HUAWEI/Middlewares/Third_Party/Huawei/iot_link/network/dtls/mbedtls/mbedtls-2.16.2/library\sha1.c ****     P( E, A, B, C, D, R(16) );
 727              		.loc 1 195 5 view .LVU240
 728 02ae 84EAB901 		eor	r1, r4, r9, ror #2
 729 02b2 01EA0B01 		and	r1, r1, fp
 730 02b6 6140     		eors	r1, r1, r4
 731              		.loc 1 197 5 view .LVU241
 732 02b8 5740     		eors	r7, r7, r2
 196:D:/fchai/work/i-cube/I-CUBE-HUAWEI/Middlewares/Third_Party/Huawei/iot_link/network/dtls/mbedtls/mbedtls-2.16.2/library\sha1.c ****     P( D, E, A, B, C, R(17) );
ARM GAS  T:\msys\tmp\ccBepS7m.s 			page 20


 733              		.loc 1 196 5 view .LVU242
 734 02ba 86EA000E 		eor	lr, r6, r0
 735 02be 424A     		ldr	r2, .L17
 196:D:/fchai/work/i-cube/I-CUBE-HUAWEI/Middlewares/Third_Party/Huawei/iot_link/network/dtls/mbedtls/mbedtls-2.16.2/library\sha1.c ****     P( D, E, A, B, C, R(17) );
 736              		.loc 1 196 5 view .LVU243
 737 02c0 7646     		mov	r6, lr
 738 02c2 01EB0A00 		add	r0, r1, r10
 198:D:/fchai/work/i-cube/I-CUBE-HUAWEI/Middlewares/Third_Party/Huawei/iot_link/network/dtls/mbedtls/mbedtls-2.16.2/library\sha1.c ****     P( C, D, E, A, B, R(18) );
 739              		.loc 1 198 5 view .LVU244
 740 02c6 0999     		ldr	r1, [sp, #36]
 741 02c8 0696     		str	r6, [sp, #24]
 195:D:/fchai/work/i-cube/I-CUBE-HUAWEI/Middlewares/Third_Party/Huawei/iot_link/network/dtls/mbedtls/mbedtls-2.16.2/library\sha1.c ****     P( E, A, B, C, D, R(16) );
 742              		.loc 1 195 5 view .LVU245
 743 02ca 4FEABB0E 		ror	lr, fp, #2
 197:D:/fchai/work/i-cube/I-CUBE-HUAWEI/Middlewares/Third_Party/Huawei/iot_link/network/dtls/mbedtls/mbedtls-2.16.2/library\sha1.c ****     P( C, D, E, A, B, R(18) );
 744              		.loc 1 197 5 view .LVU246
 745 02ce 87EA0C08 		eor	r8, r7, ip
 746 02d2 02EBF677 		add	r7, r2, r6, ror #31
 194:D:/fchai/work/i-cube/I-CUBE-HUAWEI/Middlewares/Third_Party/Huawei/iot_link/network/dtls/mbedtls/mbedtls-2.16.2/library\sha1.c ****     P( A, B, C, D, E, W[15] );
 747              		.loc 1 194 5 view .LVU247
 748 02d6 05EBFB65 		add	r5, r5, fp, ror #27
 749              	.LVL21:
 194:D:/fchai/work/i-cube/I-CUBE-HUAWEI/Middlewares/Third_Party/Huawei/iot_link/network/dtls/mbedtls/mbedtls-2.16.2/library\sha1.c ****     P( A, B, C, D, E, W[15] );
 750              		.loc 1 194 5 is_stmt 1 view .LVU248
 194:D:/fchai/work/i-cube/I-CUBE-HUAWEI/Middlewares/Third_Party/Huawei/iot_link/network/dtls/mbedtls/mbedtls-2.16.2/library\sha1.c ****     P( A, B, C, D, E, W[15] );
 751              		.loc 1 194 5 view .LVU249
 195:D:/fchai/work/i-cube/I-CUBE-HUAWEI/Middlewares/Third_Party/Huawei/iot_link/network/dtls/mbedtls/mbedtls-2.16.2/library\sha1.c ****     P( E, A, B, C, D, R(16) );
 752              		.loc 1 195 5 view .LVU250
 195:D:/fchai/work/i-cube/I-CUBE-HUAWEI/Middlewares/Third_Party/Huawei/iot_link/network/dtls/mbedtls/mbedtls-2.16.2/library\sha1.c ****     P( E, A, B, C, D, R(16) );
 753              		.loc 1 195 5 view .LVU251
 197:D:/fchai/work/i-cube/I-CUBE-HUAWEI/Middlewares/Third_Party/Huawei/iot_link/network/dtls/mbedtls/mbedtls-2.16.2/library\sha1.c ****     P( C, D, E, A, B, R(18) );
 754              		.loc 1 197 5 is_stmt 0 view .LVU252
 755 02da CDF80480 		str	r8, [sp, #4]
 197:D:/fchai/work/i-cube/I-CUBE-HUAWEI/Middlewares/Third_Party/Huawei/iot_link/network/dtls/mbedtls/mbedtls-2.16.2/library\sha1.c ****     P( C, D, E, A, B, R(18) );
 756              		.loc 1 197 5 view .LVU253
 757 02de 3E19     		adds	r6, r7, r4
 758              		.loc 1 198 5 view .LVU254
 759 02e0 8846     		mov	r8, r1
 196:D:/fchai/work/i-cube/I-CUBE-HUAWEI/Middlewares/Third_Party/Huawei/iot_link/network/dtls/mbedtls/mbedtls-2.16.2/library\sha1.c ****     P( D, E, A, B, C, R(17) );
 760              		.loc 1 196 5 view .LVU255
 761 02e2 8EEAB907 		eor	r7, lr, r9, ror #2
 762              		.loc 1 198 5 view .LVU256
 763 02e6 0A99     		ldr	r1, [sp, #40]
 199:D:/fchai/work/i-cube/I-CUBE-HUAWEI/Middlewares/Third_Party/Huawei/iot_link/network/dtls/mbedtls/mbedtls-2.16.2/library\sha1.c ****     P( B, C, D, E, A, R(19) );
 764              		.loc 1 199 5 view .LVU257
 765 02e8 029C     		ldr	r4, [sp, #8]
 766              	.LVL22:
 198:D:/fchai/work/i-cube/I-CUBE-HUAWEI/Middlewares/Third_Party/Huawei/iot_link/network/dtls/mbedtls/mbedtls-2.16.2/library\sha1.c ****     P( B, C, D, E, A, R(19) );
 767              		.loc 1 198 5 view .LVU258
 768 02ea 0E9A     		ldr	r2, [sp, #56]
 196:D:/fchai/work/i-cube/I-CUBE-HUAWEI/Middlewares/Third_Party/Huawei/iot_link/network/dtls/mbedtls/mbedtls-2.16.2/library\sha1.c ****     P( D, E, A, B, C, R(17) );
 769              		.loc 1 196 5 view .LVU259
 770 02ec 2F40     		ands	r7, r7, r5
 198:D:/fchai/work/i-cube/I-CUBE-HUAWEI/Middlewares/Third_Party/Huawei/iot_link/network/dtls/mbedtls/mbedtls-2.16.2/library\sha1.c ****     P( B, C, D, E, A, R(19) );
 771              		.loc 1 198 5 view .LVU260
 772 02ee 88EA0101 		eor	r1, r8, r1
 196:D:/fchai/work/i-cube/I-CUBE-HUAWEI/Middlewares/Third_Party/Huawei/iot_link/network/dtls/mbedtls/mbedtls-2.16.2/library\sha1.c ****     P( D, E, A, B, C, R(17) );
ARM GAS  T:\msys\tmp\ccBepS7m.s 			page 21


 773              		.loc 1 196 5 view .LVU261
 774 02f2 87EAB907 		eor	r7, r7, r9, ror #2
 775              		.loc 1 199 5 view .LVU262
 776 02f6 A046     		mov	r8, r4
 198:D:/fchai/work/i-cube/I-CUBE-HUAWEI/Middlewares/Third_Party/Huawei/iot_link/network/dtls/mbedtls/mbedtls-2.16.2/library\sha1.c ****     P( B, C, D, E, A, R(19) );
 777              		.loc 1 198 5 view .LVU263
 778 02f8 5140     		eors	r1, r1, r2
 779              		.loc 1 199 5 view .LVU264
 780 02fa 0B9C     		ldr	r4, [sp, #44]
 781 02fc 324A     		ldr	r2, .L17
 782              		.loc 1 199 5 view .LVU265
 783 02fe 3744     		add	r7, r7, r6
 784 0300 019E     		ldr	r6, [sp, #4]
 785 0302 88EA0404 		eor	r4, r8, r4
 786 0306 02EBF678 		add	r8, r2, r6, ror #31
 198:D:/fchai/work/i-cube/I-CUBE-HUAWEI/Middlewares/Third_Party/Huawei/iot_link/network/dtls/mbedtls/mbedtls-2.16.2/library\sha1.c ****     P( B, C, D, E, A, R(19) );
 787              		.loc 1 198 5 view .LVU266
 788 030a 059E     		ldr	r6, [sp, #20]
 789              		.loc 1 199 5 view .LVU267
 790 030c 0F9A     		ldr	r2, [sp, #60]
 195:D:/fchai/work/i-cube/I-CUBE-HUAWEI/Middlewares/Third_Party/Huawei/iot_link/network/dtls/mbedtls/mbedtls-2.16.2/library\sha1.c ****     P( E, A, B, C, D, R(16) );
 791              		.loc 1 195 5 view .LVU268
 792 030e 00EBF560 		add	r0, r0, r5, ror #27
 793              	.LVL23:
 195:D:/fchai/work/i-cube/I-CUBE-HUAWEI/Middlewares/Third_Party/Huawei/iot_link/network/dtls/mbedtls/mbedtls-2.16.2/library\sha1.c ****     P( E, A, B, C, D, R(16) );
 794              		.loc 1 195 5 is_stmt 1 view .LVU269
 195:D:/fchai/work/i-cube/I-CUBE-HUAWEI/Middlewares/Third_Party/Huawei/iot_link/network/dtls/mbedtls/mbedtls-2.16.2/library\sha1.c ****     P( E, A, B, C, D, R(16) );
 795              		.loc 1 195 5 view .LVU270
 196:D:/fchai/work/i-cube/I-CUBE-HUAWEI/Middlewares/Third_Party/Huawei/iot_link/network/dtls/mbedtls/mbedtls-2.16.2/library\sha1.c ****     P( D, E, A, B, C, R(17) );
 796              		.loc 1 196 5 view .LVU271
 196:D:/fchai/work/i-cube/I-CUBE-HUAWEI/Middlewares/Third_Party/Huawei/iot_link/network/dtls/mbedtls/mbedtls-2.16.2/library\sha1.c ****     P( D, E, A, B, C, R(17) );
 797              		.loc 1 196 5 view .LVU272
 196:D:/fchai/work/i-cube/I-CUBE-HUAWEI/Middlewares/Third_Party/Huawei/iot_link/network/dtls/mbedtls/mbedtls-2.16.2/library\sha1.c ****     P( D, E, A, B, C, R(17) );
 798              		.loc 1 196 5 is_stmt 0 view .LVU273
 799 0312 08EBB909 		add	r9, r8, r9, ror #2
 800              	.LVL24:
 197:D:/fchai/work/i-cube/I-CUBE-HUAWEI/Middlewares/Third_Party/Huawei/iot_link/network/dtls/mbedtls/mbedtls-2.16.2/library\sha1.c ****     P( C, D, E, A, B, R(18) );
 801              		.loc 1 197 5 view .LVU274
 802 0316 8EEAB508 		eor	r8, lr, r5, ror #2
 198:D:/fchai/work/i-cube/I-CUBE-HUAWEI/Middlewares/Third_Party/Huawei/iot_link/network/dtls/mbedtls/mbedtls-2.16.2/library\sha1.c ****     P( B, C, D, E, A, R(19) );
 803              		.loc 1 198 5 view .LVU275
 804 031a 4E40     		eors	r6, r6, r1
 197:D:/fchai/work/i-cube/I-CUBE-HUAWEI/Middlewares/Third_Party/Huawei/iot_link/network/dtls/mbedtls/mbedtls-2.16.2/library\sha1.c ****     P( C, D, E, A, B, R(18) );
 805              		.loc 1 197 5 view .LVU276
 806 031c 08EA0008 		and	r8, r8, r0
 200:D:/fchai/work/i-cube/I-CUBE-HUAWEI/Middlewares/Third_Party/Huawei/iot_link/network/dtls/mbedtls/mbedtls-2.16.2/library\sha1.c **** 
 201:D:/fchai/work/i-cube/I-CUBE-HUAWEI/Middlewares/Third_Party/Huawei/iot_link/network/dtls/mbedtls/mbedtls-2.16.2/library\sha1.c **** #undef K
 202:D:/fchai/work/i-cube/I-CUBE-HUAWEI/Middlewares/Third_Party/Huawei/iot_link/network/dtls/mbedtls/mbedtls-2.16.2/library\sha1.c **** #undef F
 203:D:/fchai/work/i-cube/I-CUBE-HUAWEI/Middlewares/Third_Party/Huawei/iot_link/network/dtls/mbedtls/mbedtls-2.16.2/library\sha1.c **** 
 204:D:/fchai/work/i-cube/I-CUBE-HUAWEI/Middlewares/Third_Party/Huawei/iot_link/network/dtls/mbedtls/mbedtls-2.16.2/library\sha1.c **** #define F(x,y,z) ((x) ^ (y) ^ (z))
 205:D:/fchai/work/i-cube/I-CUBE-HUAWEI/Middlewares/Third_Party/Huawei/iot_link/network/dtls/mbedtls/mbedtls-2.16.2/library\sha1.c **** #define K 0x6ED9EBA1
 206:D:/fchai/work/i-cube/I-CUBE-HUAWEI/Middlewares/Third_Party/Huawei/iot_link/network/dtls/mbedtls/mbedtls-2.16.2/library\sha1.c **** 
 207:D:/fchai/work/i-cube/I-CUBE-HUAWEI/Middlewares/Third_Party/Huawei/iot_link/network/dtls/mbedtls/mbedtls-2.16.2/library\sha1.c ****     P( A, B, C, D, E, R(20) );
 807              		.loc 1 207 5 view .LVU277
 808 0320 0A99     		ldr	r1, [sp, #40]
 198:D:/fchai/work/i-cube/I-CUBE-HUAWEI/Middlewares/Third_Party/Huawei/iot_link/network/dtls/mbedtls/mbedtls-2.16.2/library\sha1.c ****     P( B, C, D, E, A, R(19) );
 809              		.loc 1 198 5 view .LVU278
ARM GAS  T:\msys\tmp\ccBepS7m.s 			page 22


 810 0322 0996     		str	r6, [sp, #36]
 811              	.LVL25:
 197:D:/fchai/work/i-cube/I-CUBE-HUAWEI/Middlewares/Third_Party/Huawei/iot_link/network/dtls/mbedtls/mbedtls-2.16.2/library\sha1.c ****     P( C, D, E, A, B, R(18) );
 812              		.loc 1 197 5 view .LVU279
 813 0324 88EA0E08 		eor	r8, r8, lr
 814 0328 C844     		add	r8, r8, r9
 815              		.loc 1 207 5 view .LVU280
 816 032a 8946     		mov	r9, r1
 817 032c 0C99     		ldr	r1, [sp, #48]
 199:D:/fchai/work/i-cube/I-CUBE-HUAWEI/Middlewares/Third_Party/Huawei/iot_link/network/dtls/mbedtls/mbedtls-2.16.2/library\sha1.c **** 
 818              		.loc 1 199 5 view .LVU281
 819 032e 069E     		ldr	r6, [sp, #24]
 820              		.loc 1 207 5 view .LVU282
 821 0330 89EA0109 		eor	r9, r9, r1
 208:D:/fchai/work/i-cube/I-CUBE-HUAWEI/Middlewares/Third_Party/Huawei/iot_link/network/dtls/mbedtls/mbedtls-2.16.2/library\sha1.c ****     P( E, A, B, C, D, R(21) );
 822              		.loc 1 208 5 view .LVU283
 823 0334 0B99     		ldr	r1, [sp, #44]
 824 0336 8A46     		mov	r10, r1
 825 0338 1299     		ldr	r1, [sp, #72]
 199:D:/fchai/work/i-cube/I-CUBE-HUAWEI/Middlewares/Third_Party/Huawei/iot_link/network/dtls/mbedtls/mbedtls-2.16.2/library\sha1.c **** 
 826              		.loc 1 199 5 view .LVU284
 827 033a 5440     		eors	r4, r4, r2
 828              		.loc 1 208 5 view .LVU285
 829 033c 8AEA010A 		eor	r10, r10, r1
 207:D:/fchai/work/i-cube/I-CUBE-HUAWEI/Middlewares/Third_Party/Huawei/iot_link/network/dtls/mbedtls/mbedtls-2.16.2/library\sha1.c ****     P( E, A, B, C, D, R(21) );
 830              		.loc 1 207 5 view .LVU286
 831 0340 1099     		ldr	r1, [sp, #64]
 832 0342 214A     		ldr	r2, .L17
 199:D:/fchai/work/i-cube/I-CUBE-HUAWEI/Middlewares/Third_Party/Huawei/iot_link/network/dtls/mbedtls/mbedtls-2.16.2/library\sha1.c **** 
 833              		.loc 1 199 5 view .LVU287
 834 0344 84EAF674 		eor	r4, r4, r6, ror #31
 835 0348 099E     		ldr	r6, [sp, #36]
 207:D:/fchai/work/i-cube/I-CUBE-HUAWEI/Middlewares/Third_Party/Huawei/iot_link/network/dtls/mbedtls/mbedtls-2.16.2/library\sha1.c ****     P( E, A, B, C, D, R(21) );
 836              		.loc 1 207 5 view .LVU288
 837 034a 89EA0109 		eor	r9, r9, r1
 838              		.loc 1 208 5 view .LVU289
 839 034e 0499     		ldr	r1, [sp, #16]
 840 0350 02EBF67B 		add	fp, r2, r6, ror #31
 841 0354 02EBF472 		add	r2, r2, r4, ror #31
 842              		.loc 1 208 5 view .LVU290
 843 0358 8AEA010A 		eor	r10, r10, r1
 844 035c 02EBB502 		add	r2, r2, r5, ror #2
 207:D:/fchai/work/i-cube/I-CUBE-HUAWEI/Middlewares/Third_Party/Huawei/iot_link/network/dtls/mbedtls/mbedtls-2.16.2/library\sha1.c ****     P( E, A, B, C, D, R(21) );
 845              		.loc 1 207 5 view .LVU291
 846 0360 0199     		ldr	r1, [sp, #4]
 847 0362 0A92     		str	r2, [sp, #40]
 196:D:/fchai/work/i-cube/I-CUBE-HUAWEI/Middlewares/Third_Party/Huawei/iot_link/network/dtls/mbedtls/mbedtls-2.16.2/library\sha1.c ****     P( D, E, A, B, C, R(17) );
 848              		.loc 1 196 5 view .LVU292
 849 0364 07EBF067 		add	r7, r7, r0, ror #27
 850              	.LVL26:
 196:D:/fchai/work/i-cube/I-CUBE-HUAWEI/Middlewares/Third_Party/Huawei/iot_link/network/dtls/mbedtls/mbedtls-2.16.2/library\sha1.c ****     P( D, E, A, B, C, R(17) );
 851              		.loc 1 196 5 is_stmt 1 view .LVU293
 196:D:/fchai/work/i-cube/I-CUBE-HUAWEI/Middlewares/Third_Party/Huawei/iot_link/network/dtls/mbedtls/mbedtls-2.16.2/library\sha1.c ****     P( D, E, A, B, C, R(17) );
 852              		.loc 1 196 5 view .LVU294
 197:D:/fchai/work/i-cube/I-CUBE-HUAWEI/Middlewares/Third_Party/Huawei/iot_link/network/dtls/mbedtls/mbedtls-2.16.2/library\sha1.c ****     P( C, D, E, A, B, R(18) );
 853              		.loc 1 197 5 view .LVU295
 197:D:/fchai/work/i-cube/I-CUBE-HUAWEI/Middlewares/Third_Party/Huawei/iot_link/network/dtls/mbedtls/mbedtls-2.16.2/library\sha1.c ****     P( C, D, E, A, B, R(18) );
ARM GAS  T:\msys\tmp\ccBepS7m.s 			page 23


 854              		.loc 1 197 5 view .LVU296
 209:D:/fchai/work/i-cube/I-CUBE-HUAWEI/Middlewares/Third_Party/Huawei/iot_link/network/dtls/mbedtls/mbedtls-2.16.2/library\sha1.c ****     P( D, E, A, B, C, R(22) );
 855              		.loc 1 209 5 is_stmt 0 view .LVU297
 856 0368 0C9A     		ldr	r2, [sp, #48]
 197:D:/fchai/work/i-cube/I-CUBE-HUAWEI/Middlewares/Third_Party/Huawei/iot_link/network/dtls/mbedtls/mbedtls-2.16.2/library\sha1.c ****     P( C, D, E, A, B, R(18) );
 857              		.loc 1 197 5 view .LVU298
 858 036a 4FEAB000 		ror	r0, r0, #2
 859              	.LVL27:
 198:D:/fchai/work/i-cube/I-CUBE-HUAWEI/Middlewares/Third_Party/Huawei/iot_link/network/dtls/mbedtls/mbedtls-2.16.2/library\sha1.c ****     P( B, C, D, E, A, R(19) );
 860              		.loc 1 198 5 view .LVU299
 861 036e 80EAB506 		eor	r6, r0, r5, ror #2
 207:D:/fchai/work/i-cube/I-CUBE-HUAWEI/Middlewares/Third_Party/Huawei/iot_link/network/dtls/mbedtls/mbedtls-2.16.2/library\sha1.c ****     P( E, A, B, C, D, R(21) );
 862              		.loc 1 207 5 view .LVU300
 863 0372 89EAF179 		eor	r9, r9, r1, ror #31
 864 0376 4946     		mov	r1, r9
 198:D:/fchai/work/i-cube/I-CUBE-HUAWEI/Middlewares/Third_Party/Huawei/iot_link/network/dtls/mbedtls/mbedtls-2.16.2/library\sha1.c ****     P( B, C, D, E, A, R(19) );
 865              		.loc 1 198 5 view .LVU301
 866 0378 3E40     		ands	r6, r6, r7
 867              		.loc 1 209 5 view .LVU302
 868 037a 9146     		mov	r9, r2
 869 037c 039A     		ldr	r2, [sp, #12]
 870 037e F344     		add	fp, fp, lr
 198:D:/fchai/work/i-cube/I-CUBE-HUAWEI/Middlewares/Third_Party/Huawei/iot_link/network/dtls/mbedtls/mbedtls-2.16.2/library\sha1.c ****     P( B, C, D, E, A, R(19) );
 871              		.loc 1 198 5 view .LVU303
 872 0380 86EAB506 		eor	r6, r6, r5, ror #2
 873 0384 5E44     		add	r6, r6, fp
 874              		.loc 1 209 5 view .LVU304
 875 0386 89EA020B 		eor	fp, r9, r2
 208:D:/fchai/work/i-cube/I-CUBE-HUAWEI/Middlewares/Third_Party/Huawei/iot_link/network/dtls/mbedtls/mbedtls-2.16.2/library\sha1.c ****     P( D, E, A, B, C, R(22) );
 876              		.loc 1 208 5 view .LVU305
 877 038a 099A     		ldr	r2, [sp, #36]
 197:D:/fchai/work/i-cube/I-CUBE-HUAWEI/Middlewares/Third_Party/Huawei/iot_link/network/dtls/mbedtls/mbedtls-2.16.2/library\sha1.c ****     P( C, D, E, A, B, R(18) );
 878              		.loc 1 197 5 view .LVU306
 879 038c 08EBF768 		add	r8, r8, r7, ror #27
 880              	.LVL28:
 197:D:/fchai/work/i-cube/I-CUBE-HUAWEI/Middlewares/Third_Party/Huawei/iot_link/network/dtls/mbedtls/mbedtls-2.16.2/library\sha1.c ****     P( C, D, E, A, B, R(18) );
 881              		.loc 1 197 5 is_stmt 1 view .LVU307
 197:D:/fchai/work/i-cube/I-CUBE-HUAWEI/Middlewares/Third_Party/Huawei/iot_link/network/dtls/mbedtls/mbedtls-2.16.2/library\sha1.c ****     P( C, D, E, A, B, R(18) );
 882              		.loc 1 197 5 view .LVU308
 198:D:/fchai/work/i-cube/I-CUBE-HUAWEI/Middlewares/Third_Party/Huawei/iot_link/network/dtls/mbedtls/mbedtls-2.16.2/library\sha1.c ****     P( B, C, D, E, A, R(19) );
 883              		.loc 1 198 5 view .LVU309
 198:D:/fchai/work/i-cube/I-CUBE-HUAWEI/Middlewares/Third_Party/Huawei/iot_link/network/dtls/mbedtls/mbedtls-2.16.2/library\sha1.c ****     P( B, C, D, E, A, R(19) );
 884              		.loc 1 198 5 view .LVU310
 199:D:/fchai/work/i-cube/I-CUBE-HUAWEI/Middlewares/Third_Party/Huawei/iot_link/network/dtls/mbedtls/mbedtls-2.16.2/library\sha1.c **** 
 885              		.loc 1 199 5 is_stmt 0 view .LVU311
 886 0390 80EAB70E 		eor	lr, r0, r7, ror #2
 887              	.LVL29:
 208:D:/fchai/work/i-cube/I-CUBE-HUAWEI/Middlewares/Third_Party/Huawei/iot_link/network/dtls/mbedtls/mbedtls-2.16.2/library\sha1.c ****     P( D, E, A, B, C, R(22) );
 888              		.loc 1 208 5 view .LVU312
 889 0394 8AEAF279 		eor	r9, r10, r2, ror #31
 199:D:/fchai/work/i-cube/I-CUBE-HUAWEI/Middlewares/Third_Party/Huawei/iot_link/network/dtls/mbedtls/mbedtls-2.16.2/library\sha1.c **** 
 890              		.loc 1 199 5 view .LVU313
 891 0398 0EEA080E 		and	lr, lr, r8
 892 039c 0A9A     		ldr	r2, [sp, #40]
 208:D:/fchai/work/i-cube/I-CUBE-HUAWEI/Middlewares/Third_Party/Huawei/iot_link/network/dtls/mbedtls/mbedtls-2.16.2/library\sha1.c ****     P( D, E, A, B, C, R(22) );
 893              		.loc 1 208 5 view .LVU314
 894 039e CDF80890 		str	r9, [sp, #8]
ARM GAS  T:\msys\tmp\ccBepS7m.s 			page 24


 199:D:/fchai/work/i-cube/I-CUBE-HUAWEI/Middlewares/Third_Party/Huawei/iot_link/network/dtls/mbedtls/mbedtls-2.16.2/library\sha1.c **** 
 895              		.loc 1 199 5 view .LVU315
 896 03a2 8EEA000E 		eor	lr, lr, r0
 897 03a6 4FEAB805 		ror	r5, r8, #2
 898              	.LVL30:
 199:D:/fchai/work/i-cube/I-CUBE-HUAWEI/Middlewares/Third_Party/Huawei/iot_link/network/dtls/mbedtls/mbedtls-2.16.2/library\sha1.c **** 
 899              		.loc 1 199 5 view .LVU316
 900 03aa 9644     		add	lr, lr, r2
 198:D:/fchai/work/i-cube/I-CUBE-HUAWEI/Middlewares/Third_Party/Huawei/iot_link/network/dtls/mbedtls/mbedtls-2.16.2/library\sha1.c ****     P( B, C, D, E, A, R(19) );
 901              		.loc 1 198 5 view .LVU317
 902 03ac 06EBF868 		add	r8, r6, r8, ror #27
 903              	.LVL31:
 210:D:/fchai/work/i-cube/I-CUBE-HUAWEI/Middlewares/Third_Party/Huawei/iot_link/network/dtls/mbedtls/mbedtls-2.16.2/library\sha1.c ****     P( C, D, E, A, B, R(23) );
 904              		.loc 1 210 5 view .LVU318
 905 03b0 0D9A     		ldr	r2, [sp, #52]
 906 03b2 129E     		ldr	r6, [sp, #72]
 907 03b4 0A91     		str	r1, [sp, #40]
 908 03b6 5640     		eors	r6, r6, r2
 909 03b8 029A     		ldr	r2, [sp, #8]
 910 03ba 03EBF17A 		add	r10, r3, r1, ror #31
 207:D:/fchai/work/i-cube/I-CUBE-HUAWEI/Middlewares/Third_Party/Huawei/iot_link/network/dtls/mbedtls/mbedtls-2.16.2/library\sha1.c ****     P( E, A, B, C, D, R(21) );
 911              		.loc 1 207 5 view .LVU319
 912 03be 85EAB709 		eor	r9, r5, r7, ror #2
 913 03c2 5044     		add	r0, r0, r10
 914 03c4 04E0     		b	.L18
 915              	.L19:
 916 03c6 00BF     		.align	2
 917              	.L17:
 918 03c8 9979825A 		.word	1518500249
 919 03cc A1EBD96E 		.word	1859775393
 920              	.L18:
 921              	.LVL32:
 207:D:/fchai/work/i-cube/I-CUBE-HUAWEI/Middlewares/Third_Party/Huawei/iot_link/network/dtls/mbedtls/mbedtls-2.16.2/library\sha1.c ****     P( E, A, B, C, D, R(21) );
 922              		.loc 1 207 5 view .LVU320
 923 03d0 89EA0809 		eor	r9, r9, r8
 924 03d4 03EBF272 		add	r2, r3, r2, ror #31
 925 03d8 8144     		add	r9, r9, r0
 926 03da 02EBB702 		add	r2, r2, r7, ror #2
 211:D:/fchai/work/i-cube/I-CUBE-HUAWEI/Middlewares/Third_Party/Huawei/iot_link/network/dtls/mbedtls/mbedtls-2.16.2/library\sha1.c ****     P( B, C, D, E, A, R(24) );
 927              		.loc 1 211 5 view .LVU321
 928 03de 0398     		ldr	r0, [sp, #12]
 929 03e0 0E9F     		ldr	r7, [sp, #56]
 930              	.LVL33:
 210:D:/fchai/work/i-cube/I-CUBE-HUAWEI/Middlewares/Third_Party/Huawei/iot_link/network/dtls/mbedtls/mbedtls-2.16.2/library\sha1.c ****     P( C, D, E, A, B, R(23) );
 931              		.loc 1 210 5 view .LVU322
 932 03e2 0599     		ldr	r1, [sp, #20]
 209:D:/fchai/work/i-cube/I-CUBE-HUAWEI/Middlewares/Third_Party/Huawei/iot_link/network/dtls/mbedtls/mbedtls-2.16.2/library\sha1.c ****     P( C, D, E, A, B, R(23) );
 933              		.loc 1 209 5 view .LVU323
 934 03e4 8BEA0C0B 		eor	fp, fp, ip
 935              		.loc 1 211 5 view .LVU324
 936 03e8 4740     		eors	r7, r7, r0
 210:D:/fchai/work/i-cube/I-CUBE-HUAWEI/Middlewares/Third_Party/Huawei/iot_link/network/dtls/mbedtls/mbedtls-2.16.2/library\sha1.c ****     P( B, C, D, E, A, R(24) );
 937              		.loc 1 210 5 view .LVU325
 938 03ea 0A98     		ldr	r0, [sp, #40]
 209:D:/fchai/work/i-cube/I-CUBE-HUAWEI/Middlewares/Third_Party/Huawei/iot_link/network/dtls/mbedtls/mbedtls-2.16.2/library\sha1.c ****     P( C, D, E, A, B, R(23) );
 939              		.loc 1 209 5 view .LVU326
 940 03ec 8BEAF47A 		eor	r10, fp, r4, ror #31
ARM GAS  T:\msys\tmp\ccBepS7m.s 			page 25


 210:D:/fchai/work/i-cube/I-CUBE-HUAWEI/Middlewares/Third_Party/Huawei/iot_link/network/dtls/mbedtls/mbedtls-2.16.2/library\sha1.c ****     P( B, C, D, E, A, R(24) );
 941              		.loc 1 210 5 view .LVU327
 942 03f0 4E40     		eors	r6, r6, r1
 209:D:/fchai/work/i-cube/I-CUBE-HUAWEI/Middlewares/Third_Party/Huawei/iot_link/network/dtls/mbedtls/mbedtls-2.16.2/library\sha1.c ****     P( C, D, E, A, B, R(23) );
 943              		.loc 1 209 5 view .LVU328
 944 03f2 CDF82CA0 		str	r10, [sp, #44]
 210:D:/fchai/work/i-cube/I-CUBE-HUAWEI/Middlewares/Third_Party/Huawei/iot_link/network/dtls/mbedtls/mbedtls-2.16.2/library\sha1.c ****     P( B, C, D, E, A, R(24) );
 945              		.loc 1 210 5 view .LVU329
 946 03f6 86EAF070 		eor	r0, r6, r0, ror #31
 947 03fa 0C90     		str	r0, [sp, #48]
 948 03fc 0B98     		ldr	r0, [sp, #44]
 949              		.loc 1 211 5 view .LVU330
 950 03fe 0699     		ldr	r1, [sp, #24]
 951 0400 03EBF076 		add	r6, r3, r0, ror #31
 212:D:/fchai/work/i-cube/I-CUBE-HUAWEI/Middlewares/Third_Party/Huawei/iot_link/network/dtls/mbedtls/mbedtls-2.16.2/library\sha1.c ****     P( A, B, C, D, E, R(25) );
 952              		.loc 1 212 5 view .LVU331
 953 0404 0D98     		ldr	r0, [sp, #52]
 199:D:/fchai/work/i-cube/I-CUBE-HUAWEI/Middlewares/Third_Party/Huawei/iot_link/network/dtls/mbedtls/mbedtls-2.16.2/library\sha1.c **** 
 954              		.loc 1 199 5 view .LVU332
 955 0406 0EEBF86E 		add	lr, lr, r8, ror #27
 208:D:/fchai/work/i-cube/I-CUBE-HUAWEI/Middlewares/Third_Party/Huawei/iot_link/network/dtls/mbedtls/mbedtls-2.16.2/library\sha1.c ****     P( D, E, A, B, C, R(22) );
 956              		.loc 1 208 5 view .LVU333
 957 040a 85EAB80B 		eor	fp, r5, r8, ror #2
 958 040e 4FEABE0A 		ror	r10, lr, #2
 211:D:/fchai/work/i-cube/I-CUBE-HUAWEI/Middlewares/Third_Party/Huawei/iot_link/network/dtls/mbedtls/mbedtls-2.16.2/library\sha1.c ****     P( A, B, C, D, E, R(25) );
 959              		.loc 1 211 5 view .LVU334
 960 0412 87EAF177 		eor	r7, r7, r1, ror #31
 208:D:/fchai/work/i-cube/I-CUBE-HUAWEI/Middlewares/Third_Party/Huawei/iot_link/network/dtls/mbedtls/mbedtls-2.16.2/library\sha1.c ****     P( D, E, A, B, C, R(22) );
 961              		.loc 1 208 5 view .LVU335
 962 0416 8BEA0E0B 		eor	fp, fp, lr
 211:D:/fchai/work/i-cube/I-CUBE-HUAWEI/Middlewares/Third_Party/Huawei/iot_link/network/dtls/mbedtls/mbedtls-2.16.2/library\sha1.c ****     P( A, B, C, D, E, R(25) );
 963              		.loc 1 211 5 view .LVU336
 964 041a 0299     		ldr	r1, [sp, #8]
 207:D:/fchai/work/i-cube/I-CUBE-HUAWEI/Middlewares/Third_Party/Huawei/iot_link/network/dtls/mbedtls/mbedtls-2.16.2/library\sha1.c ****     P( E, A, B, C, D, R(21) );
 965              		.loc 1 207 5 view .LVU337
 966 041c 09EBFE6E 		add	lr, r9, lr, ror #27
 967              		.loc 1 212 5 view .LVU338
 968 0420 8146     		mov	r9, r0
 969 0422 0F98     		ldr	r0, [sp, #60]
 970 0424 89EA0000 		eor	r0, r9, r0
 211:D:/fchai/work/i-cube/I-CUBE-HUAWEI/Middlewares/Third_Party/Huawei/iot_link/network/dtls/mbedtls/mbedtls-2.16.2/library\sha1.c ****     P( A, B, C, D, E, R(25) );
 971              		.loc 1 211 5 view .LVU339
 972 0428 87EAF179 		eor	r9, r7, r1, ror #31
 973              		.loc 1 212 5 view .LVU340
 974 042c 019F     		ldr	r7, [sp, #4]
 975 042e 3544     		add	r5, r5, r6
 976 0430 0C9E     		ldr	r6, [sp, #48]
 977 0432 80EAF770 		eor	r0, r0, r7, ror #31
 213:D:/fchai/work/i-cube/I-CUBE-HUAWEI/Middlewares/Third_Party/Huawei/iot_link/network/dtls/mbedtls/mbedtls-2.16.2/library\sha1.c ****     P( E, A, B, C, D, R(26) );
 978              		.loc 1 213 5 view .LVU341
 979 0436 0E9F     		ldr	r7, [sp, #56]
 980 0438 03EBF676 		add	r6, r3, r6, ror #31
 981 043c 9344     		add	fp, fp, r2
 982 043e 06EBB806 		add	r6, r6, r8, ror #2
 209:D:/fchai/work/i-cube/I-CUBE-HUAWEI/Middlewares/Third_Party/Huawei/iot_link/network/dtls/mbedtls/mbedtls-2.16.2/library\sha1.c ****     P( C, D, E, A, B, R(23) );
 983              		.loc 1 209 5 view .LVU342
 984 0442 8AEAB802 		eor	r2, r10, r8, ror #2
ARM GAS  T:\msys\tmp\ccBepS7m.s 			page 26


 985              		.loc 1 213 5 view .LVU343
 986 0446 B846     		mov	r8, r7
 987 0448 109F     		ldr	r7, [sp, #64]
 988 044a 88EA0708 		eor	r8, r8, r7
 212:D:/fchai/work/i-cube/I-CUBE-HUAWEI/Middlewares/Third_Party/Huawei/iot_link/network/dtls/mbedtls/mbedtls-2.16.2/library\sha1.c ****     P( E, A, B, C, D, R(26) );
 989              		.loc 1 212 5 view .LVU344
 990 044e 0B9F     		ldr	r7, [sp, #44]
 208:D:/fchai/work/i-cube/I-CUBE-HUAWEI/Middlewares/Third_Party/Huawei/iot_link/network/dtls/mbedtls/mbedtls-2.16.2/library\sha1.c ****     P( D, E, A, B, C, R(22) );
 991              		.loc 1 208 5 view .LVU345
 992 0450 0BEBFE6B 		add	fp, fp, lr, ror #27
 209:D:/fchai/work/i-cube/I-CUBE-HUAWEI/Middlewares/Third_Party/Huawei/iot_link/network/dtls/mbedtls/mbedtls-2.16.2/library\sha1.c ****     P( C, D, E, A, B, R(23) );
 993              		.loc 1 209 5 view .LVU346
 994 0454 82EA0E02 		eor	r2, r2, lr
 211:D:/fchai/work/i-cube/I-CUBE-HUAWEI/Middlewares/Third_Party/Huawei/iot_link/network/dtls/mbedtls/mbedtls-2.16.2/library\sha1.c ****     P( A, B, C, D, E, R(25) );
 995              		.loc 1 211 5 view .LVU347
 996 0458 4946     		mov	r1, r9
 997 045a 2A44     		add	r2, r2, r5
 210:D:/fchai/work/i-cube/I-CUBE-HUAWEI/Middlewares/Third_Party/Huawei/iot_link/network/dtls/mbedtls/mbedtls-2.16.2/library\sha1.c ****     P( B, C, D, E, A, R(24) );
 998              		.loc 1 210 5 view .LVU348
 999 045c 8AEABE09 		eor	r9, r10, lr, ror #2
 1000 0460 4FEABB05 		ror	r5, fp, #2
 212:D:/fchai/work/i-cube/I-CUBE-HUAWEI/Middlewares/Third_Party/Huawei/iot_link/network/dtls/mbedtls/mbedtls-2.16.2/library\sha1.c ****     P( E, A, B, C, D, R(26) );
 1001              		.loc 1 212 5 view .LVU349
 1002 0464 80EAF770 		eor	r0, r0, r7, ror #31
 210:D:/fchai/work/i-cube/I-CUBE-HUAWEI/Middlewares/Third_Party/Huawei/iot_link/network/dtls/mbedtls/mbedtls-2.16.2/library\sha1.c ****     P( B, C, D, E, A, R(24) );
 1003              		.loc 1 210 5 view .LVU350
 1004 0468 89EA0B09 		eor	r9, r9, fp
 1005 046c 0F46     		mov	r7, r1
 209:D:/fchai/work/i-cube/I-CUBE-HUAWEI/Middlewares/Third_Party/Huawei/iot_link/network/dtls/mbedtls/mbedtls-2.16.2/library\sha1.c ****     P( C, D, E, A, B, R(23) );
 1006              		.loc 1 209 5 view .LVU351
 1007 046e 02EBFB6B 		add	fp, r2, fp, ror #27
 212:D:/fchai/work/i-cube/I-CUBE-HUAWEI/Middlewares/Third_Party/Huawei/iot_link/network/dtls/mbedtls/mbedtls-2.16.2/library\sha1.c ****     P( E, A, B, C, D, R(26) );
 1008              		.loc 1 212 5 view .LVU352
 1009 0472 0390     		str	r0, [sp, #12]
 211:D:/fchai/work/i-cube/I-CUBE-HUAWEI/Middlewares/Third_Party/Huawei/iot_link/network/dtls/mbedtls/mbedtls-2.16.2/library\sha1.c ****     P( A, B, C, D, E, R(25) );
 1010              		.loc 1 211 5 view .LVU353
 1011 0474 0E95     		str	r5, [sp, #56]
 1012 0476 03EBF170 		add	r0, r3, r1, ror #31
 1013 047a 85EABE02 		eor	r2, r5, lr, ror #2
 214:D:/fchai/work/i-cube/I-CUBE-HUAWEI/Middlewares/Third_Party/Huawei/iot_link/network/dtls/mbedtls/mbedtls-2.16.2/library\sha1.c ****     P( D, E, A, B, C, R(27) );
 1014              		.loc 1 214 5 view .LVU354
 1015 047e 0499     		ldr	r1, [sp, #16]
 1016 0480 0F9D     		ldr	r5, [sp, #60]
 1017 0482 8244     		add	r10, r10, r0
 1018 0484 4D40     		eors	r5, r5, r1
 213:D:/fchai/work/i-cube/I-CUBE-HUAWEI/Middlewares/Third_Party/Huawei/iot_link/network/dtls/mbedtls/mbedtls-2.16.2/library\sha1.c ****     P( D, E, A, B, C, R(27) );
 1019              		.loc 1 213 5 view .LVU355
 1020 0486 0999     		ldr	r1, [sp, #36]
 1021 0488 0398     		ldr	r0, [sp, #12]
 1022              		.loc 1 214 5 view .LVU356
 1023 048a 1297     		str	r7, [sp, #72]
 1024 048c 85EAF475 		eor	r5, r5, r4, ror #31
 1025 0490 4E44     		add	r6, r6, r9
 1026 0492 03EBF079 		add	r9, r3, r0, ror #31
 213:D:/fchai/work/i-cube/I-CUBE-HUAWEI/Middlewares/Third_Party/Huawei/iot_link/network/dtls/mbedtls/mbedtls-2.16.2/library\sha1.c ****     P( D, E, A, B, C, R(27) );
 1027              		.loc 1 213 5 view .LVU357
 1028 0496 0C98     		ldr	r0, [sp, #48]
ARM GAS  T:\msys\tmp\ccBepS7m.s 			page 27


 1029 0498 88EAF178 		eor	r8, r8, r1, ror #31
 1030 049c 09EBBE0E 		add	lr, r9, lr, ror #2
 1031              		.loc 1 214 5 view .LVU358
 1032 04a0 85EAF779 		eor	r9, r5, r7, ror #31
 215:D:/fchai/work/i-cube/I-CUBE-HUAWEI/Middlewares/Third_Party/Huawei/iot_link/network/dtls/mbedtls/mbedtls-2.16.2/library\sha1.c ****     P( C, D, E, A, B, R(28) );
 1033              		.loc 1 215 5 view .LVU359
 1034 04a4 109F     		ldr	r7, [sp, #64]
 214:D:/fchai/work/i-cube/I-CUBE-HUAWEI/Middlewares/Third_Party/Huawei/iot_link/network/dtls/mbedtls/mbedtls-2.16.2/library\sha1.c ****     P( D, E, A, B, C, R(27) );
 1035              		.loc 1 214 5 view .LVU360
 1036 04a6 CDF83490 		str	r9, [sp, #52]
 213:D:/fchai/work/i-cube/I-CUBE-HUAWEI/Middlewares/Third_Party/Huawei/iot_link/network/dtls/mbedtls/mbedtls-2.16.2/library\sha1.c ****     P( D, E, A, B, C, R(27) );
 1037              		.loc 1 213 5 view .LVU361
 1038 04aa 88EAF078 		eor	r8, r8, r0, ror #31
 212:D:/fchai/work/i-cube/I-CUBE-HUAWEI/Middlewares/Third_Party/Huawei/iot_link/network/dtls/mbedtls/mbedtls-2.16.2/library\sha1.c ****     P( E, A, B, C, D, R(26) );
 1039              		.loc 1 212 5 view .LVU362
 1040 04ae 0E98     		ldr	r0, [sp, #56]
 1041              		.loc 1 215 5 view .LVU363
 1042 04b0 87EA0C05 		eor	r5, r7, ip
 211:D:/fchai/work/i-cube/I-CUBE-HUAWEI/Middlewares/Third_Party/Huawei/iot_link/network/dtls/mbedtls/mbedtls-2.16.2/library\sha1.c ****     P( A, B, C, D, E, R(25) );
 1043              		.loc 1 211 5 view .LVU364
 1044 04b4 82EA0B02 		eor	r2, r2, fp
 1045              		.loc 1 215 5 view .LVU365
 1046 04b8 0A9F     		ldr	r7, [sp, #40]
 210:D:/fchai/work/i-cube/I-CUBE-HUAWEI/Middlewares/Third_Party/Huawei/iot_link/network/dtls/mbedtls/mbedtls-2.16.2/library\sha1.c ****     P( B, C, D, E, A, R(24) );
 1047              		.loc 1 210 5 view .LVU366
 1048 04ba 06EBFB66 		add	r6, r6, fp, ror #27
 213:D:/fchai/work/i-cube/I-CUBE-HUAWEI/Middlewares/Third_Party/Huawei/iot_link/network/dtls/mbedtls/mbedtls-2.16.2/library\sha1.c ****     P( D, E, A, B, C, R(27) );
 1049              		.loc 1 213 5 view .LVU367
 1050 04be 4146     		mov	r1, r8
 1051 04c0 5244     		add	r2, r2, r10
 212:D:/fchai/work/i-cube/I-CUBE-HUAWEI/Middlewares/Third_Party/Huawei/iot_link/network/dtls/mbedtls/mbedtls-2.16.2/library\sha1.c ****     P( E, A, B, C, D, R(26) );
 1052              		.loc 1 212 5 view .LVU368
 1053 04c2 80EABB08 		eor	r8, r0, fp, ror #2
 1054 04c6 1391     		str	r1, [sp, #76]
 1055 04c8 4FEAB600 		ror	r0, r6, #2
 1056 04cc 88EA0608 		eor	r8, r8, r6
 1057              		.loc 1 215 5 view .LVU369
 1058 04d0 85EAF775 		eor	r5, r5, r7, ror #31
 211:D:/fchai/work/i-cube/I-CUBE-HUAWEI/Middlewares/Third_Party/Huawei/iot_link/network/dtls/mbedtls/mbedtls-2.16.2/library\sha1.c ****     P( A, B, C, D, E, R(25) );
 1059              		.loc 1 211 5 view .LVU370
 1060 04d4 02EBF666 		add	r6, r2, r6, ror #27
 1061 04d8 0E9F     		ldr	r7, [sp, #56]
 1062 04da 03EBF172 		add	r2, r3, r1, ror #31
 216:D:/fchai/work/i-cube/I-CUBE-HUAWEI/Middlewares/Third_Party/Huawei/iot_link/network/dtls/mbedtls/mbedtls-2.16.2/library\sha1.c ****     P( B, C, D, E, A, R(29) );
 1063              		.loc 1 216 5 view .LVU371
 1064 04de 0499     		ldr	r1, [sp, #16]
 1065 04e0 1744     		add	r7, r7, r2
 1066 04e2 C644     		add	lr, lr, r8
 1067 04e4 0D9A     		ldr	r2, [sp, #52]
 1068 04e6 8846     		mov	r8, r1
 1069 04e8 0599     		ldr	r1, [sp, #20]
 1070 04ea 88EA010A 		eor	r10, r8, r1
 1071 04ee 03EBF278 		add	r8, r3, r2, ror #31
 215:D:/fchai/work/i-cube/I-CUBE-HUAWEI/Middlewares/Third_Party/Huawei/iot_link/network/dtls/mbedtls/mbedtls-2.16.2/library\sha1.c ****     P( B, C, D, E, A, R(29) );
 1072              		.loc 1 215 5 view .LVU372
 1073 04f2 039A     		ldr	r2, [sp, #12]
 213:D:/fchai/work/i-cube/I-CUBE-HUAWEI/Middlewares/Third_Party/Huawei/iot_link/network/dtls/mbedtls/mbedtls-2.16.2/library\sha1.c ****     P( D, E, A, B, C, R(27) );
ARM GAS  T:\msys\tmp\ccBepS7m.s 			page 28


 1074              		.loc 1 213 5 view .LVU373
 1075 04f4 80EABB09 		eor	r9, r0, fp, ror #2
 215:D:/fchai/work/i-cube/I-CUBE-HUAWEI/Middlewares/Third_Party/Huawei/iot_link/network/dtls/mbedtls/mbedtls-2.16.2/library\sha1.c ****     P( B, C, D, E, A, R(29) );
 1076              		.loc 1 215 5 view .LVU374
 1077 04f8 85EAF275 		eor	r5, r5, r2, ror #31
 1078              		.loc 1 216 5 view .LVU375
 1079 04fc 029A     		ldr	r2, [sp, #8]
 215:D:/fchai/work/i-cube/I-CUBE-HUAWEI/Middlewares/Third_Party/Huawei/iot_link/network/dtls/mbedtls/mbedtls-2.16.2/library\sha1.c ****     P( B, C, D, E, A, R(29) );
 1080              		.loc 1 215 5 view .LVU376
 1081 04fe 0495     		str	r5, [sp, #16]
 212:D:/fchai/work/i-cube/I-CUBE-HUAWEI/Middlewares/Third_Party/Huawei/iot_link/network/dtls/mbedtls/mbedtls-2.16.2/library\sha1.c ****     P( E, A, B, C, D, R(26) );
 1082              		.loc 1 212 5 view .LVU377
 1083 0500 0EEBF66E 		add	lr, lr, r6, ror #27
 214:D:/fchai/work/i-cube/I-CUBE-HUAWEI/Middlewares/Third_Party/Huawei/iot_link/network/dtls/mbedtls/mbedtls-2.16.2/library\sha1.c ****     P( C, D, E, A, B, R(28) );
 1084              		.loc 1 214 5 view .LVU378
 1085 0504 80EAB605 		eor	r5, r0, r6, ror #2
 213:D:/fchai/work/i-cube/I-CUBE-HUAWEI/Middlewares/Third_Party/Huawei/iot_link/network/dtls/mbedtls/mbedtls-2.16.2/library\sha1.c ****     P( D, E, A, B, C, R(27) );
 1086              		.loc 1 213 5 view .LVU379
 1087 0508 89EA0609 		eor	r9, r9, r6
 1088              		.loc 1 216 5 view .LVU380
 1089 050c 8AEAF27A 		eor	r10, r10, r2, ror #31
 1090 0510 B944     		add	r9, r9, r7
 1091 0512 08EBBB02 		add	r2, r8, fp, ror #2
 1092 0516 139F     		ldr	r7, [sp, #76]
 214:D:/fchai/work/i-cube/I-CUBE-HUAWEI/Middlewares/Third_Party/Huawei/iot_link/network/dtls/mbedtls/mbedtls-2.16.2/library\sha1.c ****     P( C, D, E, A, B, R(28) );
 1093              		.loc 1 214 5 view .LVU381
 1094 0518 85EA0E05 		eor	r5, r5, lr
 1095 051c 1544     		add	r5, r5, r2
 1096 051e 049A     		ldr	r2, [sp, #16]
 1097              		.loc 1 216 5 view .LVU382
 1098 0520 8AEAF778 		eor	r8, r10, r7, ror #31
 217:D:/fchai/work/i-cube/I-CUBE-HUAWEI/Middlewares/Third_Party/Huawei/iot_link/network/dtls/mbedtls/mbedtls-2.16.2/library\sha1.c ****     P( A, B, C, D, E, R(30) );
 1099              		.loc 1 217 5 view .LVU383
 1100 0524 069F     		ldr	r7, [sp, #24]
 216:D:/fchai/work/i-cube/I-CUBE-HUAWEI/Middlewares/Third_Party/Huawei/iot_link/network/dtls/mbedtls/mbedtls-2.16.2/library\sha1.c ****     P( A, B, C, D, E, R(30) );
 1101              		.loc 1 216 5 view .LVU384
 1102 0526 CDF81480 		str	r8, [sp, #20]
 214:D:/fchai/work/i-cube/I-CUBE-HUAWEI/Middlewares/Third_Party/Huawei/iot_link/network/dtls/mbedtls/mbedtls-2.16.2/library\sha1.c ****     P( C, D, E, A, B, R(28) );
 1103              		.loc 1 214 5 view .LVU385
 1104 052a 4FEABE0B 		ror	fp, lr, #2
 213:D:/fchai/work/i-cube/I-CUBE-HUAWEI/Middlewares/Third_Party/Huawei/iot_link/network/dtls/mbedtls/mbedtls-2.16.2/library\sha1.c ****     P( D, E, A, B, C, R(27) );
 1105              		.loc 1 213 5 view .LVU386
 1106 052e 09EBFE6E 		add	lr, r9, lr, ror #27
 1107 0532 03EBF279 		add	r9, r3, r2, ror #31
 1108              		.loc 1 217 5 view .LVU387
 1109 0536 0B9A     		ldr	r2, [sp, #44]
 1110 0538 8CEAF77C 		eor	ip, ip, r7, ror #31
 1111 053c 8CEAF27C 		eor	ip, ip, r2, ror #31
 218:D:/fchai/work/i-cube/I-CUBE-HUAWEI/Middlewares/Third_Party/Huawei/iot_link/network/dtls/mbedtls/mbedtls-2.16.2/library\sha1.c ****     P( E, A, B, C, D, R(31) );
 1112              		.loc 1 218 5 view .LVU388
 1113 0540 019A     		ldr	r2, [sp, #4]
 1114 0542 81EAF277 		eor	r7, r1, r2, ror #31
 1115 0546 0599     		ldr	r1, [sp, #20]
 1116 0548 03EBF172 		add	r2, r3, r1, ror #31
 217:D:/fchai/work/i-cube/I-CUBE-HUAWEI/Middlewares/Third_Party/Huawei/iot_link/network/dtls/mbedtls/mbedtls-2.16.2/library\sha1.c ****     P( E, A, B, C, D, R(31) );
 1117              		.loc 1 217 5 view .LVU389
 1118 054c 0D99     		ldr	r1, [sp, #52]
ARM GAS  T:\msys\tmp\ccBepS7m.s 			page 29


 215:D:/fchai/work/i-cube/I-CUBE-HUAWEI/Middlewares/Third_Party/Huawei/iot_link/network/dtls/mbedtls/mbedtls-2.16.2/library\sha1.c ****     P( B, C, D, E, A, R(29) );
 1119              		.loc 1 215 5 view .LVU390
 1120 054e 8BEAB60A 		eor	r10, fp, r6, ror #2
 1121 0552 4844     		add	r0, r0, r9
 217:D:/fchai/work/i-cube/I-CUBE-HUAWEI/Middlewares/Third_Party/Huawei/iot_link/network/dtls/mbedtls/mbedtls-2.16.2/library\sha1.c ****     P( E, A, B, C, D, R(31) );
 1122              		.loc 1 217 5 view .LVU391
 1123 0554 8CEAF17C 		eor	ip, ip, r1, ror #31
 215:D:/fchai/work/i-cube/I-CUBE-HUAWEI/Middlewares/Third_Party/Huawei/iot_link/network/dtls/mbedtls/mbedtls-2.16.2/library\sha1.c ****     P( B, C, D, E, A, R(29) );
 1124              		.loc 1 215 5 view .LVU392
 1125 0558 8AEA0E0A 		eor	r10, r10, lr
 1126              		.loc 1 218 5 view .LVU393
 1127 055c 0C99     		ldr	r1, [sp, #48]
 217:D:/fchai/work/i-cube/I-CUBE-HUAWEI/Middlewares/Third_Party/Huawei/iot_link/network/dtls/mbedtls/mbedtls-2.16.2/library\sha1.c ****     P( E, A, B, C, D, R(31) );
 1128              		.loc 1 217 5 view .LVU394
 1129 055e CDF838C0 		str	ip, [sp, #56]
 1130 0562 8244     		add	r10, r10, r0
 1131              		.loc 1 218 5 view .LVU395
 1132 0564 0498     		ldr	r0, [sp, #16]
 1133 0566 87EAF177 		eor	r7, r7, r1, ror #31
 1134 056a 87EAF079 		eor	r9, r7, r0, ror #31
 198:D:/fchai/work/i-cube/I-CUBE-HUAWEI/Middlewares/Third_Party/Huawei/iot_link/network/dtls/mbedtls/mbedtls-2.16.2/library\sha1.c ****     P( B, C, D, E, A, R(19) );
 1135              		.loc 1 198 5 view .LVU396
 1136 056e 0999     		ldr	r1, [sp, #36]
 1137 0570 0E98     		ldr	r0, [sp, #56]
 219:D:/fchai/work/i-cube/I-CUBE-HUAWEI/Middlewares/Third_Party/Huawei/iot_link/network/dtls/mbedtls/mbedtls-2.16.2/library\sha1.c ****     P( D, E, A, B, C, R(32) );
 1138              		.loc 1 219 5 view .LVU397
 1139 0572 069F     		ldr	r7, [sp, #24]
 218:D:/fchai/work/i-cube/I-CUBE-HUAWEI/Middlewares/Third_Party/Huawei/iot_link/network/dtls/mbedtls/mbedtls-2.16.2/library\sha1.c ****     P( D, E, A, B, C, R(32) );
 1140              		.loc 1 218 5 view .LVU398
 1141 0574 CDF82490 		str	r9, [sp, #36]
 1142 0578 02EBB606 		add	r6, r2, r6, ror #2
 220:D:/fchai/work/i-cube/I-CUBE-HUAWEI/Middlewares/Third_Party/Huawei/iot_link/network/dtls/mbedtls/mbedtls-2.16.2/library\sha1.c ****     P( C, D, E, A, B, R(33) );
 1143              		.loc 1 220 5 view .LVU399
 1144 057c 019A     		ldr	r2, [sp, #4]
 214:D:/fchai/work/i-cube/I-CUBE-HUAWEI/Middlewares/Third_Party/Huawei/iot_link/network/dtls/mbedtls/mbedtls-2.16.2/library\sha1.c ****     P( C, D, E, A, B, R(28) );
 1145              		.loc 1 214 5 view .LVU400
 1146 057e 05EBFE65 		add	r5, r5, lr, ror #27
 216:D:/fchai/work/i-cube/I-CUBE-HUAWEI/Middlewares/Third_Party/Huawei/iot_link/network/dtls/mbedtls/mbedtls-2.16.2/library\sha1.c ****     P( A, B, C, D, E, R(30) );
 1147              		.loc 1 216 5 view .LVU401
 1148 0582 8BEABE0C 		eor	ip, fp, lr, ror #2
 199:D:/fchai/work/i-cube/I-CUBE-HUAWEI/Middlewares/Third_Party/Huawei/iot_link/network/dtls/mbedtls/mbedtls-2.16.2/library\sha1.c **** 
 1149              		.loc 1 199 5 view .LVU402
 1150 0586 4FEAF474 		ror	r4, r4, #31
 216:D:/fchai/work/i-cube/I-CUBE-HUAWEI/Middlewares/Third_Party/Huawei/iot_link/network/dtls/mbedtls/mbedtls-2.16.2/library\sha1.c ****     P( A, B, C, D, E, R(30) );
 1151              		.loc 1 216 5 view .LVU403
 1152 058a 4FEAB508 		ror	r8, r5, #2
 1153 058e 8CEA050C 		eor	ip, ip, r5
 198:D:/fchai/work/i-cube/I-CUBE-HUAWEI/Middlewares/Third_Party/Huawei/iot_link/network/dtls/mbedtls/mbedtls-2.16.2/library\sha1.c ****     P( B, C, D, E, A, R(19) );
 1154              		.loc 1 198 5 view .LVU404
 1155 0592 4FEAF171 		ror	r1, r1, #31
 1156              	.LVL34:
 198:D:/fchai/work/i-cube/I-CUBE-HUAWEI/Middlewares/Third_Party/Huawei/iot_link/network/dtls/mbedtls/mbedtls-2.16.2/library\sha1.c ****     P( B, C, D, E, A, R(19) );
 1157              		.loc 1 198 5 is_stmt 1 view .LVU405
 198:D:/fchai/work/i-cube/I-CUBE-HUAWEI/Middlewares/Third_Party/Huawei/iot_link/network/dtls/mbedtls/mbedtls-2.16.2/library\sha1.c ****     P( B, C, D, E, A, R(19) );
 1158              		.loc 1 198 5 view .LVU406
 199:D:/fchai/work/i-cube/I-CUBE-HUAWEI/Middlewares/Third_Party/Huawei/iot_link/network/dtls/mbedtls/mbedtls-2.16.2/library\sha1.c **** 
 1159              		.loc 1 199 5 view .LVU407
ARM GAS  T:\msys\tmp\ccBepS7m.s 			page 30


 199:D:/fchai/work/i-cube/I-CUBE-HUAWEI/Middlewares/Third_Party/Huawei/iot_link/network/dtls/mbedtls/mbedtls-2.16.2/library\sha1.c **** 
 1160              		.loc 1 199 5 view .LVU408
 199:D:/fchai/work/i-cube/I-CUBE-HUAWEI/Middlewares/Third_Party/Huawei/iot_link/network/dtls/mbedtls/mbedtls-2.16.2/library\sha1.c **** 
 1161              		.loc 1 199 5 view .LVU409
 199:D:/fchai/work/i-cube/I-CUBE-HUAWEI/Middlewares/Third_Party/Huawei/iot_link/network/dtls/mbedtls/mbedtls-2.16.2/library\sha1.c **** 
 1162              		.loc 1 199 5 view .LVU410
 207:D:/fchai/work/i-cube/I-CUBE-HUAWEI/Middlewares/Third_Party/Huawei/iot_link/network/dtls/mbedtls/mbedtls-2.16.2/library\sha1.c ****     P( E, A, B, C, D, R(21) );
 1163              		.loc 1 207 5 view .LVU411
 207:D:/fchai/work/i-cube/I-CUBE-HUAWEI/Middlewares/Third_Party/Huawei/iot_link/network/dtls/mbedtls/mbedtls-2.16.2/library\sha1.c ****     P( E, A, B, C, D, R(21) );
 1164              		.loc 1 207 5 view .LVU412
 207:D:/fchai/work/i-cube/I-CUBE-HUAWEI/Middlewares/Third_Party/Huawei/iot_link/network/dtls/mbedtls/mbedtls-2.16.2/library\sha1.c ****     P( E, A, B, C, D, R(21) );
 1165              		.loc 1 207 5 view .LVU413
 207:D:/fchai/work/i-cube/I-CUBE-HUAWEI/Middlewares/Third_Party/Huawei/iot_link/network/dtls/mbedtls/mbedtls-2.16.2/library\sha1.c ****     P( E, A, B, C, D, R(21) );
 1166              		.loc 1 207 5 view .LVU414
 208:D:/fchai/work/i-cube/I-CUBE-HUAWEI/Middlewares/Third_Party/Huawei/iot_link/network/dtls/mbedtls/mbedtls-2.16.2/library\sha1.c ****     P( D, E, A, B, C, R(22) );
 1167              		.loc 1 208 5 view .LVU415
 208:D:/fchai/work/i-cube/I-CUBE-HUAWEI/Middlewares/Third_Party/Huawei/iot_link/network/dtls/mbedtls/mbedtls-2.16.2/library\sha1.c ****     P( D, E, A, B, C, R(22) );
 1168              		.loc 1 208 5 view .LVU416
 208:D:/fchai/work/i-cube/I-CUBE-HUAWEI/Middlewares/Third_Party/Huawei/iot_link/network/dtls/mbedtls/mbedtls-2.16.2/library\sha1.c ****     P( D, E, A, B, C, R(22) );
 1169              		.loc 1 208 5 view .LVU417
 208:D:/fchai/work/i-cube/I-CUBE-HUAWEI/Middlewares/Third_Party/Huawei/iot_link/network/dtls/mbedtls/mbedtls-2.16.2/library\sha1.c ****     P( D, E, A, B, C, R(22) );
 1170              		.loc 1 208 5 view .LVU418
 209:D:/fchai/work/i-cube/I-CUBE-HUAWEI/Middlewares/Third_Party/Huawei/iot_link/network/dtls/mbedtls/mbedtls-2.16.2/library\sha1.c ****     P( C, D, E, A, B, R(23) );
 1171              		.loc 1 209 5 view .LVU419
 209:D:/fchai/work/i-cube/I-CUBE-HUAWEI/Middlewares/Third_Party/Huawei/iot_link/network/dtls/mbedtls/mbedtls-2.16.2/library\sha1.c ****     P( C, D, E, A, B, R(23) );
 1172              		.loc 1 209 5 view .LVU420
 215:D:/fchai/work/i-cube/I-CUBE-HUAWEI/Middlewares/Third_Party/Huawei/iot_link/network/dtls/mbedtls/mbedtls-2.16.2/library\sha1.c ****     P( B, C, D, E, A, R(29) );
 1173              		.loc 1 215 5 is_stmt 0 view .LVU421
 1174 0596 0AEBF565 		add	r5, r10, r5, ror #27
 1175 059a 03EBF07A 		add	r10, r3, r0, ror #31
 1176              		.loc 1 220 5 view .LVU422
 1177 059e 84EAF270 		eor	r0, r4, r2, ror #31
 219:D:/fchai/work/i-cube/I-CUBE-HUAWEI/Middlewares/Third_Party/Huawei/iot_link/network/dtls/mbedtls/mbedtls-2.16.2/library\sha1.c ****     P( C, D, E, A, B, R(33) );
 1178              		.loc 1 219 5 view .LVU423
 1179 05a2 129A     		ldr	r2, [sp, #72]
 1180 05a4 81EAF779 		eor	r9, r1, r7, ror #31
 1181 05a8 6644     		add	r6, r6, ip
 1182 05aa 89EAF279 		eor	r9, r9, r2, ror #31
 216:D:/fchai/work/i-cube/I-CUBE-HUAWEI/Middlewares/Third_Party/Huawei/iot_link/network/dtls/mbedtls/mbedtls-2.16.2/library\sha1.c ****     P( A, B, C, D, E, R(30) );
 1183              		.loc 1 216 5 view .LVU424
 1184 05ae 06EBF562 		add	r2, r6, r5, ror #27
 1185 05b2 0192     		str	r2, [sp, #4]
 1186 05b4 099E     		ldr	r6, [sp, #36]
 1187 05b6 03EBF672 		add	r2, r3, r6, ror #31
 217:D:/fchai/work/i-cube/I-CUBE-HUAWEI/Middlewares/Third_Party/Huawei/iot_link/network/dtls/mbedtls/mbedtls-2.16.2/library\sha1.c ****     P( E, A, B, C, D, R(31) );
 1188              		.loc 1 217 5 view .LVU425
 1189 05ba 88EABE07 		eor	r7, r8, lr, ror #2
 1190              		.loc 1 220 5 view .LVU426
 1191 05be 039E     		ldr	r6, [sp, #12]
 1192 05c0 02EBBE0E 		add	lr, r2, lr, ror #2
 218:D:/fchai/work/i-cube/I-CUBE-HUAWEI/Middlewares/Third_Party/Huawei/iot_link/network/dtls/mbedtls/mbedtls-2.16.2/library\sha1.c ****     P( D, E, A, B, C, R(32) );
 1193              		.loc 1 218 5 view .LVU427
 1194 05c4 019A     		ldr	r2, [sp, #4]
 1195 05c6 D344     		add	fp, fp, r10
 1196              		.loc 1 220 5 view .LVU428
 1197 05c8 80EAF67A 		eor	r10, r0, r6, ror #31
 219:D:/fchai/work/i-cube/I-CUBE-HUAWEI/Middlewares/Third_Party/Huawei/iot_link/network/dtls/mbedtls/mbedtls-2.16.2/library\sha1.c ****     P( C, D, E, A, B, R(33) );
ARM GAS  T:\msys\tmp\ccBepS7m.s 			page 31


 1198              		.loc 1 219 5 view .LVU429
 1199 05cc 059E     		ldr	r6, [sp, #20]
 218:D:/fchai/work/i-cube/I-CUBE-HUAWEI/Middlewares/Third_Party/Huawei/iot_link/network/dtls/mbedtls/mbedtls-2.16.2/library\sha1.c ****     P( D, E, A, B, C, R(32) );
 1200              		.loc 1 218 5 view .LVU430
 1201 05ce 4FEAB200 		ror	r0, r2, #2
 1202 05d2 1090     		str	r0, [sp, #64]
 217:D:/fchai/work/i-cube/I-CUBE-HUAWEI/Middlewares/Third_Party/Huawei/iot_link/network/dtls/mbedtls/mbedtls-2.16.2/library\sha1.c ****     P( E, A, B, C, D, R(31) );
 1203              		.loc 1 217 5 view .LVU431
 1204 05d4 6F40     		eors	r7, r7, r5
 1205              		.loc 1 220 5 view .LVU432
 1206 05d6 0E98     		ldr	r0, [sp, #56]
 219:D:/fchai/work/i-cube/I-CUBE-HUAWEI/Middlewares/Third_Party/Huawei/iot_link/network/dtls/mbedtls/mbedtls-2.16.2/library\sha1.c ****     P( C, D, E, A, B, R(33) );
 1207              		.loc 1 219 5 view .LVU433
 1208 05d8 89EAF67C 		eor	ip, r9, r6, ror #31
 1209 05dc 5F44     		add	r7, r7, fp
 1210              		.loc 1 220 5 view .LVU434
 1211 05de 8AEAF079 		eor	r9, r10, r0, ror #31
 219:D:/fchai/work/i-cube/I-CUBE-HUAWEI/Middlewares/Third_Party/Huawei/iot_link/network/dtls/mbedtls/mbedtls-2.16.2/library\sha1.c ****     P( C, D, E, A, B, R(33) );
 1212              		.loc 1 219 5 view .LVU435
 1213 05e2 6646     		mov	r6, ip
 217:D:/fchai/work/i-cube/I-CUBE-HUAWEI/Middlewares/Third_Party/Huawei/iot_link/network/dtls/mbedtls/mbedtls-2.16.2/library\sha1.c ****     P( E, A, B, C, D, R(31) );
 1214              		.loc 1 217 5 view .LVU436
 1215 05e4 07EBF267 		add	r7, r7, r2, ror #27
 218:D:/fchai/work/i-cube/I-CUBE-HUAWEI/Middlewares/Third_Party/Huawei/iot_link/network/dtls/mbedtls/mbedtls-2.16.2/library\sha1.c ****     P( D, E, A, B, C, R(32) );
 1216              		.loc 1 218 5 view .LVU437
 1217 05e8 88EAB50C 		eor	ip, r8, r5, ror #2
 1218              		.loc 1 220 5 view .LVU438
 1219 05ec CDF80490 		str	r9, [sp, #4]
 1220 05f0 0F96     		str	r6, [sp, #60]
 218:D:/fchai/work/i-cube/I-CUBE-HUAWEI/Middlewares/Third_Party/Huawei/iot_link/network/dtls/mbedtls/mbedtls-2.16.2/library\sha1.c ****     P( D, E, A, B, C, R(32) );
 1221              		.loc 1 218 5 view .LVU439
 1222 05f2 8CEA020C 		eor	ip, ip, r2
 1223 05f6 03EBF676 		add	r6, r3, r6, ror #31
 217:D:/fchai/work/i-cube/I-CUBE-HUAWEI/Middlewares/Third_Party/Huawei/iot_link/network/dtls/mbedtls/mbedtls-2.16.2/library\sha1.c ****     P( E, A, B, C, D, R(31) );
 1224              		.loc 1 217 5 view .LVU440
 1225 05fa 3A46     		mov	r2, r7
 221:D:/fchai/work/i-cube/I-CUBE-HUAWEI/Middlewares/Third_Party/Huawei/iot_link/network/dtls/mbedtls/mbedtls-2.16.2/library\sha1.c ****     P( B, C, D, E, A, R(34) );
 222:D:/fchai/work/i-cube/I-CUBE-HUAWEI/Middlewares/Third_Party/Huawei/iot_link/network/dtls/mbedtls/mbedtls-2.16.2/library\sha1.c ****     P( A, B, C, D, E, R(35) );
 1226              		.loc 1 222 5 view .LVU441
 1227 05fc 029F     		ldr	r7, [sp, #8]
 221:D:/fchai/work/i-cube/I-CUBE-HUAWEI/Middlewares/Third_Party/Huawei/iot_link/network/dtls/mbedtls/mbedtls-2.16.2/library\sha1.c ****     P( B, C, D, E, A, R(34) );
 1228              		.loc 1 221 5 view .LVU442
 1229 05fe 0A98     		ldr	r0, [sp, #40]
 219:D:/fchai/work/i-cube/I-CUBE-HUAWEI/Middlewares/Third_Party/Huawei/iot_link/network/dtls/mbedtls/mbedtls-2.16.2/library\sha1.c ****     P( C, D, E, A, B, R(33) );
 1230              		.loc 1 219 5 view .LVU443
 1231 0600 0692     		str	r2, [sp, #24]
 1232 0602 B044     		add	r8, r8, r6
 1233 0604 019E     		ldr	r6, [sp, #4]
 1234              		.loc 1 222 5 view .LVU444
 1235 0606 84EAF774 		eor	r4, r4, r7, ror #31
 1236              	.LVL35:
 221:D:/fchai/work/i-cube/I-CUBE-HUAWEI/Middlewares/Third_Party/Huawei/iot_link/network/dtls/mbedtls/mbedtls-2.16.2/library\sha1.c ****     P( B, C, D, E, A, R(34) );
 1237              		.loc 1 221 5 view .LVU445
 1238 060a 139F     		ldr	r7, [sp, #76]
 1239 060c 03EBF67A 		add	r10, r3, r6, ror #31
 1240 0610 81EAF071 		eor	r1, r1, r0, ror #31
 1241              	.LVL36:
ARM GAS  T:\msys\tmp\ccBepS7m.s 			page 32


 221:D:/fchai/work/i-cube/I-CUBE-HUAWEI/Middlewares/Third_Party/Huawei/iot_link/network/dtls/mbedtls/mbedtls-2.16.2/library\sha1.c ****     P( B, C, D, E, A, R(34) );
 1242              		.loc 1 221 5 view .LVU446
 1243 0614 099E     		ldr	r6, [sp, #36]
 1244 0616 81EAF771 		eor	r1, r1, r7, ror #31
 1245 061a E644     		add	lr, lr, ip
 1246 061c 81EAF67C 		eor	ip, r1, r6, ror #31
 209:D:/fchai/work/i-cube/I-CUBE-HUAWEI/Middlewares/Third_Party/Huawei/iot_link/network/dtls/mbedtls/mbedtls-2.16.2/library\sha1.c ****     P( C, D, E, A, B, R(23) );
 1247              		.loc 1 209 5 view .LVU447
 1248 0620 0B99     		ldr	r1, [sp, #44]
 1249              		.loc 1 222 5 view .LVU448
 1250 0622 0D9F     		ldr	r7, [sp, #52]
 220:D:/fchai/work/i-cube/I-CUBE-HUAWEI/Middlewares/Third_Party/Huawei/iot_link/network/dtls/mbedtls/mbedtls-2.16.2/library\sha1.c ****     P( B, C, D, E, A, R(34) );
 1251              		.loc 1 220 5 view .LVU449
 1252 0624 069E     		ldr	r6, [sp, #24]
 221:D:/fchai/work/i-cube/I-CUBE-HUAWEI/Middlewares/Third_Party/Huawei/iot_link/network/dtls/mbedtls/mbedtls-2.16.2/library\sha1.c ****     P( B, C, D, E, A, R(34) );
 1253              		.loc 1 221 5 view .LVU450
 1254 0626 8146     		mov	r9, r0
 219:D:/fchai/work/i-cube/I-CUBE-HUAWEI/Middlewares/Third_Party/Huawei/iot_link/network/dtls/mbedtls/mbedtls-2.16.2/library\sha1.c ****     P( C, D, E, A, B, R(33) );
 1255              		.loc 1 219 5 view .LVU451
 1256 0628 1098     		ldr	r0, [sp, #64]
 209:D:/fchai/work/i-cube/I-CUBE-HUAWEI/Middlewares/Third_Party/Huawei/iot_link/network/dtls/mbedtls/mbedtls-2.16.2/library\sha1.c ****     P( C, D, E, A, B, R(23) );
 1257              		.loc 1 209 5 view .LVU452
 1258 062a 4FEAF17B 		ror	fp, r1, #31
 220:D:/fchai/work/i-cube/I-CUBE-HUAWEI/Middlewares/Third_Party/Huawei/iot_link/network/dtls/mbedtls/mbedtls-2.16.2/library\sha1.c ****     P( B, C, D, E, A, R(34) );
 1259              		.loc 1 220 5 view .LVU453
 1260 062e 1099     		ldr	r1, [sp, #64]
 219:D:/fchai/work/i-cube/I-CUBE-HUAWEI/Middlewares/Third_Party/Huawei/iot_link/network/dtls/mbedtls/mbedtls-2.16.2/library\sha1.c ****     P( C, D, E, A, B, R(33) );
 1261              		.loc 1 219 5 view .LVU454
 1262 0630 80EAB500 		eor	r0, r0, r5, ror #2
 218:D:/fchai/work/i-cube/I-CUBE-HUAWEI/Middlewares/Third_Party/Huawei/iot_link/network/dtls/mbedtls/mbedtls-2.16.2/library\sha1.c ****     P( D, E, A, B, C, R(32) );
 1263              		.loc 1 218 5 view .LVU455
 1264 0634 0EEBF26E 		add	lr, lr, r2, ror #27
 1265              	.LVL37:
 209:D:/fchai/work/i-cube/I-CUBE-HUAWEI/Middlewares/Third_Party/Huawei/iot_link/network/dtls/mbedtls/mbedtls-2.16.2/library\sha1.c ****     P( C, D, E, A, B, R(23) );
 1266              		.loc 1 209 5 is_stmt 1 view .LVU456
 209:D:/fchai/work/i-cube/I-CUBE-HUAWEI/Middlewares/Third_Party/Huawei/iot_link/network/dtls/mbedtls/mbedtls-2.16.2/library\sha1.c ****     P( C, D, E, A, B, R(23) );
 1267              		.loc 1 209 5 view .LVU457
 210:D:/fchai/work/i-cube/I-CUBE-HUAWEI/Middlewares/Third_Party/Huawei/iot_link/network/dtls/mbedtls/mbedtls-2.16.2/library\sha1.c ****     P( B, C, D, E, A, R(24) );
 1268              		.loc 1 210 5 view .LVU458
 210:D:/fchai/work/i-cube/I-CUBE-HUAWEI/Middlewares/Third_Party/Huawei/iot_link/network/dtls/mbedtls/mbedtls-2.16.2/library\sha1.c ****     P( B, C, D, E, A, R(24) );
 1269              		.loc 1 210 5 view .LVU459
 1270              		.loc 1 222 5 is_stmt 0 view .LVU460
 1271 0638 84EAF774 		eor	r4, r4, r7, ror #31
 219:D:/fchai/work/i-cube/I-CUBE-HUAWEI/Middlewares/Third_Party/Huawei/iot_link/network/dtls/mbedtls/mbedtls-2.16.2/library\sha1.c ****     P( C, D, E, A, B, R(33) );
 1272              		.loc 1 219 5 view .LVU461
 1273 063c 5040     		eors	r0, r0, r2
 1274              		.loc 1 222 5 view .LVU462
 1275 063e 0F9F     		ldr	r7, [sp, #60]
 220:D:/fchai/work/i-cube/I-CUBE-HUAWEI/Middlewares/Third_Party/Huawei/iot_link/network/dtls/mbedtls/mbedtls-2.16.2/library\sha1.c ****     P( B, C, D, E, A, R(34) );
 1276              		.loc 1 220 5 view .LVU463
 1277 0640 81EAB601 		eor	r1, r1, r6, ror #2
 1278 0644 4044     		add	r0, r0, r8
 1279 0646 81EA0E01 		eor	r1, r1, lr
 1280 064a 0AEBB505 		add	r5, r10, r5, ror #2
 221:D:/fchai/work/i-cube/I-CUBE-HUAWEI/Middlewares/Third_Party/Huawei/iot_link/network/dtls/mbedtls/mbedtls-2.16.2/library\sha1.c ****     P( A, B, C, D, E, R(35) );
 1281              		.loc 1 221 5 view .LVU464
 1282 064e 6246     		mov	r2, ip
ARM GAS  T:\msys\tmp\ccBepS7m.s 			page 33


 1283              		.loc 1 222 5 view .LVU465
 1284 0650 84EAF778 		eor	r8, r4, r7, ror #31
 220:D:/fchai/work/i-cube/I-CUBE-HUAWEI/Middlewares/Third_Party/Huawei/iot_link/network/dtls/mbedtls/mbedtls-2.16.2/library\sha1.c ****     P( B, C, D, E, A, R(34) );
 1285              		.loc 1 220 5 view .LVU466
 1286 0654 4FEABE0C 		ror	ip, lr, #2
 210:D:/fchai/work/i-cube/I-CUBE-HUAWEI/Middlewares/Third_Party/Huawei/iot_link/network/dtls/mbedtls/mbedtls-2.16.2/library\sha1.c ****     P( B, C, D, E, A, R(24) );
 1287              		.loc 1 210 5 view .LVU467
 1288 0658 0C9C     		ldr	r4, [sp, #48]
 223:D:/fchai/work/i-cube/I-CUBE-HUAWEI/Middlewares/Third_Party/Huawei/iot_link/network/dtls/mbedtls/mbedtls-2.16.2/library\sha1.c ****     P( E, A, B, C, D, R(36) );
 224:D:/fchai/work/i-cube/I-CUBE-HUAWEI/Middlewares/Third_Party/Huawei/iot_link/network/dtls/mbedtls/mbedtls-2.16.2/library\sha1.c ****     P( D, E, A, B, C, R(37) );
 1289              		.loc 1 224 5 view .LVU468
 1290 065a 029F     		ldr	r7, [sp, #8]
 222:D:/fchai/work/i-cube/I-CUBE-HUAWEI/Middlewares/Third_Party/Huawei/iot_link/network/dtls/mbedtls/mbedtls-2.16.2/library\sha1.c ****     P( E, A, B, C, D, R(36) );
 1291              		.loc 1 222 5 view .LVU469
 1292 065c CDF82C80 		str	r8, [sp, #44]
 219:D:/fchai/work/i-cube/I-CUBE-HUAWEI/Middlewares/Third_Party/Huawei/iot_link/network/dtls/mbedtls/mbedtls-2.16.2/library\sha1.c ****     P( C, D, E, A, B, R(33) );
 1293              		.loc 1 219 5 view .LVU470
 1294 0660 00EBFE6E 		add	lr, r0, lr, ror #27
 1295 0664 0D44     		add	r5, r5, r1
 223:D:/fchai/work/i-cube/I-CUBE-HUAWEI/Middlewares/Third_Party/Huawei/iot_link/network/dtls/mbedtls/mbedtls-2.16.2/library\sha1.c ****     P( E, A, B, C, D, R(36) );
 1296              		.loc 1 223 5 view .LVU471
 1297 0666 0498     		ldr	r0, [sp, #16]
 221:D:/fchai/work/i-cube/I-CUBE-HUAWEI/Middlewares/Third_Party/Huawei/iot_link/network/dtls/mbedtls/mbedtls-2.16.2/library\sha1.c ****     P( A, B, C, D, E, R(35) );
 1298              		.loc 1 221 5 view .LVU472
 1299 0668 0699     		ldr	r1, [sp, #24]
 1300 066a 1492     		str	r2, [sp, #80]
 223:D:/fchai/work/i-cube/I-CUBE-HUAWEI/Middlewares/Third_Party/Huawei/iot_link/network/dtls/mbedtls/mbedtls-2.16.2/library\sha1.c ****     P( D, E, A, B, C, R(37) );
 1301              		.loc 1 223 5 view .LVU473
 1302 066c 8BEAF979 		eor	r9, fp, r9, ror #31
 1303 0670 03EBF278 		add	r8, r3, r2, ror #31
 210:D:/fchai/work/i-cube/I-CUBE-HUAWEI/Middlewares/Third_Party/Huawei/iot_link/network/dtls/mbedtls/mbedtls-2.16.2/library\sha1.c ****     P( B, C, D, E, A, R(24) );
 1304              		.loc 1 210 5 view .LVU474
 1305 0674 4FEAF476 		ror	r6, r4, #31
 1306              	.LVL38:
 210:D:/fchai/work/i-cube/I-CUBE-HUAWEI/Middlewares/Third_Party/Huawei/iot_link/network/dtls/mbedtls/mbedtls-2.16.2/library\sha1.c ****     P( B, C, D, E, A, R(24) );
 1307              		.loc 1 210 5 is_stmt 1 view .LVU475
 210:D:/fchai/work/i-cube/I-CUBE-HUAWEI/Middlewares/Third_Party/Huawei/iot_link/network/dtls/mbedtls/mbedtls-2.16.2/library\sha1.c ****     P( B, C, D, E, A, R(24) );
 1308              		.loc 1 210 5 view .LVU476
 211:D:/fchai/work/i-cube/I-CUBE-HUAWEI/Middlewares/Third_Party/Huawei/iot_link/network/dtls/mbedtls/mbedtls-2.16.2/library\sha1.c ****     P( A, B, C, D, E, R(25) );
 1309              		.loc 1 211 5 view .LVU477
 211:D:/fchai/work/i-cube/I-CUBE-HUAWEI/Middlewares/Third_Party/Huawei/iot_link/network/dtls/mbedtls/mbedtls-2.16.2/library\sha1.c ****     P( A, B, C, D, E, R(25) );
 1310              		.loc 1 211 5 view .LVU478
 211:D:/fchai/work/i-cube/I-CUBE-HUAWEI/Middlewares/Third_Party/Huawei/iot_link/network/dtls/mbedtls/mbedtls-2.16.2/library\sha1.c ****     P( A, B, C, D, E, R(25) );
 1311              		.loc 1 211 5 view .LVU479
 211:D:/fchai/work/i-cube/I-CUBE-HUAWEI/Middlewares/Third_Party/Huawei/iot_link/network/dtls/mbedtls/mbedtls-2.16.2/library\sha1.c ****     P( A, B, C, D, E, R(25) );
 1312              		.loc 1 211 5 view .LVU480
 212:D:/fchai/work/i-cube/I-CUBE-HUAWEI/Middlewares/Third_Party/Huawei/iot_link/network/dtls/mbedtls/mbedtls-2.16.2/library\sha1.c ****     P( E, A, B, C, D, R(26) );
 1313              		.loc 1 212 5 view .LVU481
 212:D:/fchai/work/i-cube/I-CUBE-HUAWEI/Middlewares/Third_Party/Huawei/iot_link/network/dtls/mbedtls/mbedtls-2.16.2/library\sha1.c ****     P( E, A, B, C, D, R(26) );
 1314              		.loc 1 212 5 view .LVU482
 212:D:/fchai/work/i-cube/I-CUBE-HUAWEI/Middlewares/Third_Party/Huawei/iot_link/network/dtls/mbedtls/mbedtls-2.16.2/library\sha1.c ****     P( E, A, B, C, D, R(26) );
 1315              		.loc 1 212 5 view .LVU483
 212:D:/fchai/work/i-cube/I-CUBE-HUAWEI/Middlewares/Third_Party/Huawei/iot_link/network/dtls/mbedtls/mbedtls-2.16.2/library\sha1.c ****     P( E, A, B, C, D, R(26) );
 1316              		.loc 1 212 5 view .LVU484
 213:D:/fchai/work/i-cube/I-CUBE-HUAWEI/Middlewares/Third_Party/Huawei/iot_link/network/dtls/mbedtls/mbedtls-2.16.2/library\sha1.c ****     P( D, E, A, B, C, R(27) );
 1317              		.loc 1 213 5 view .LVU485
 213:D:/fchai/work/i-cube/I-CUBE-HUAWEI/Middlewares/Third_Party/Huawei/iot_link/network/dtls/mbedtls/mbedtls-2.16.2/library\sha1.c ****     P( D, E, A, B, C, R(27) );
ARM GAS  T:\msys\tmp\ccBepS7m.s 			page 34


 1318              		.loc 1 213 5 view .LVU486
 213:D:/fchai/work/i-cube/I-CUBE-HUAWEI/Middlewares/Third_Party/Huawei/iot_link/network/dtls/mbedtls/mbedtls-2.16.2/library\sha1.c ****     P( D, E, A, B, C, R(27) );
 1319              		.loc 1 213 5 is_stmt 0 view .LVU487
 1320 0678 109A     		ldr	r2, [sp, #64]
 221:D:/fchai/work/i-cube/I-CUBE-HUAWEI/Middlewares/Third_Party/Huawei/iot_link/network/dtls/mbedtls/mbedtls-2.16.2/library\sha1.c ****     P( A, B, C, D, E, R(35) );
 1321              		.loc 1 221 5 view .LVU488
 1322 067a 8CEAB104 		eor	r4, ip, r1, ror #2
 223:D:/fchai/work/i-cube/I-CUBE-HUAWEI/Middlewares/Third_Party/Huawei/iot_link/network/dtls/mbedtls/mbedtls-2.16.2/library\sha1.c ****     P( D, E, A, B, C, R(37) );
 1323              		.loc 1 223 5 view .LVU489
 1324 067e 89EAF079 		eor	r9, r9, r0, ror #31
 1325 0682 0199     		ldr	r1, [sp, #4]
 1326 0684 0B98     		ldr	r0, [sp, #44]
 1327              		.loc 1 224 5 view .LVU490
 1328 0686 86EAF77A 		eor	r10, r6, r7, ror #31
 1329 068a 069F     		ldr	r7, [sp, #24]
 1330 068c 4244     		add	r2, r2, r8
 1331 068e 03EBF070 		add	r0, r3, r0, ror #31
 223:D:/fchai/work/i-cube/I-CUBE-HUAWEI/Middlewares/Third_Party/Huawei/iot_link/network/dtls/mbedtls/mbedtls-2.16.2/library\sha1.c ****     P( D, E, A, B, C, R(37) );
 1332              		.loc 1 223 5 view .LVU491
 1333 0692 89EAF178 		eor	r8, r9, r1, ror #31
 221:D:/fchai/work/i-cube/I-CUBE-HUAWEI/Middlewares/Third_Party/Huawei/iot_link/network/dtls/mbedtls/mbedtls-2.16.2/library\sha1.c ****     P( A, B, C, D, E, R(35) );
 1334              		.loc 1 221 5 view .LVU492
 1335 0696 84EA0E04 		eor	r4, r4, lr
 1336              		.loc 1 224 5 view .LVU493
 1337 069a 0599     		ldr	r1, [sp, #20]
 223:D:/fchai/work/i-cube/I-CUBE-HUAWEI/Middlewares/Third_Party/Huawei/iot_link/network/dtls/mbedtls/mbedtls-2.16.2/library\sha1.c ****     P( D, E, A, B, C, R(37) );
 1338              		.loc 1 223 5 view .LVU494
 1339 069c CDF80880 		str	r8, [sp, #8]
 1340              	.LVL39:
 223:D:/fchai/work/i-cube/I-CUBE-HUAWEI/Middlewares/Third_Party/Huawei/iot_link/network/dtls/mbedtls/mbedtls-2.16.2/library\sha1.c ****     P( D, E, A, B, C, R(37) );
 1341              		.loc 1 223 5 view .LVU495
 1342 06a0 1444     		add	r4, r4, r2
 1343 06a2 00EBB707 		add	r7, r0, r7, ror #2
 225:D:/fchai/work/i-cube/I-CUBE-HUAWEI/Middlewares/Third_Party/Huawei/iot_link/network/dtls/mbedtls/mbedtls-2.16.2/library\sha1.c ****     P( C, D, E, A, B, R(38) );
 1344              		.loc 1 225 5 view .LVU496
 1345 06a6 1298     		ldr	r0, [sp, #72]
 224:D:/fchai/work/i-cube/I-CUBE-HUAWEI/Middlewares/Third_Party/Huawei/iot_link/network/dtls/mbedtls/mbedtls-2.16.2/library\sha1.c ****     P( C, D, E, A, B, R(38) );
 1346              		.loc 1 224 5 view .LVU497
 1347 06a8 149A     		ldr	r2, [sp, #80]
 1348 06aa 8AEAF17A 		eor	r10, r10, r1, ror #31
 1349 06ae 8AEAF278 		eor	r8, r10, r2, ror #31
 1350 06b2 029A     		ldr	r2, [sp, #8]
 1351 06b4 CDF81880 		str	r8, [sp, #24]
 1352              		.loc 1 225 5 view .LVU498
 1353 06b8 8BEAF07B 		eor	fp, fp, r0, ror #31
 1354              	.LVL40:
 1355              		.loc 1 225 5 view .LVU499
 1356 06bc 0E98     		ldr	r0, [sp, #56]
 1357 06be 03EBF272 		add	r2, r3, r2, ror #31
 222:D:/fchai/work/i-cube/I-CUBE-HUAWEI/Middlewares/Third_Party/Huawei/iot_link/network/dtls/mbedtls/mbedtls-2.16.2/library\sha1.c ****     P( E, A, B, C, D, R(36) );
 1358              		.loc 1 222 5 view .LVU500
 1359 06c2 8CEABE09 		eor	r9, ip, lr, ror #2
 1360              		.loc 1 225 5 view .LVU501
 1361 06c6 8BEAF07B 		eor	fp, fp, r0, ror #31
 1362 06ca 9444     		add	ip, ip, r2
 226:D:/fchai/work/i-cube/I-CUBE-HUAWEI/Middlewares/Third_Party/Huawei/iot_link/network/dtls/mbedtls/mbedtls-2.16.2/library\sha1.c ****     P( B, C, D, E, A, R(39) );
 1363              		.loc 1 226 5 view .LVU502
ARM GAS  T:\msys\tmp\ccBepS7m.s 			page 35


 1364 06cc 0398     		ldr	r0, [sp, #12]
 1365 06ce 069A     		ldr	r2, [sp, #24]
 220:D:/fchai/work/i-cube/I-CUBE-HUAWEI/Middlewares/Third_Party/Huawei/iot_link/network/dtls/mbedtls/mbedtls-2.16.2/library\sha1.c ****     P( B, C, D, E, A, R(34) );
 1366              		.loc 1 220 5 view .LVU503
 1367 06d0 05EBFE65 		add	r5, r5, lr, ror #27
 221:D:/fchai/work/i-cube/I-CUBE-HUAWEI/Middlewares/Third_Party/Huawei/iot_link/network/dtls/mbedtls/mbedtls-2.16.2/library\sha1.c ****     P( A, B, C, D, E, R(35) );
 1368              		.loc 1 221 5 view .LVU504
 1369 06d4 04EBF564 		add	r4, r4, r5, ror #27
 222:D:/fchai/work/i-cube/I-CUBE-HUAWEI/Middlewares/Third_Party/Huawei/iot_link/network/dtls/mbedtls/mbedtls-2.16.2/library\sha1.c ****     P( E, A, B, C, D, R(36) );
 1370              		.loc 1 222 5 view .LVU505
 1371 06d8 4FEAB501 		ror	r1, r5, #2
 1372 06dc 89EA0509 		eor	r9, r9, r5
 1373              		.loc 1 226 5 view .LVU506
 1374 06e0 86EAF076 		eor	r6, r6, r0, ror #31
 1375              	.LVL41:
 225:D:/fchai/work/i-cube/I-CUBE-HUAWEI/Middlewares/Third_Party/Huawei/iot_link/network/dtls/mbedtls/mbedtls-2.16.2/library\sha1.c ****     P( B, C, D, E, A, R(39) );
 1376              		.loc 1 225 5 view .LVU507
 1377 06e4 0B9D     		ldr	r5, [sp, #44]
 1378 06e6 03EBF270 		add	r0, r3, r2, ror #31
 1379              		.loc 1 226 5 view .LVU508
 1380 06ea 099A     		ldr	r2, [sp, #36]
 225:D:/fchai/work/i-cube/I-CUBE-HUAWEI/Middlewares/Third_Party/Huawei/iot_link/network/dtls/mbedtls/mbedtls-2.16.2/library\sha1.c ****     P( B, C, D, E, A, R(39) );
 1381              		.loc 1 225 5 view .LVU509
 1382 06ec 8BEAF578 		eor	r8, fp, r5, ror #31
 223:D:/fchai/work/i-cube/I-CUBE-HUAWEI/Middlewares/Third_Party/Huawei/iot_link/network/dtls/mbedtls/mbedtls-2.16.2/library\sha1.c ****     P( D, E, A, B, C, R(37) );
 1383              		.loc 1 223 5 view .LVU510
 1384 06f0 81EABE0A 		eor	r10, r1, lr, ror #2
 1385              		.loc 1 226 5 view .LVU511
 1386 06f4 86EAF276 		eor	r6, r6, r2, ror #31
 1387 06f8 029A     		ldr	r2, [sp, #8]
 225:D:/fchai/work/i-cube/I-CUBE-HUAWEI/Middlewares/Third_Party/Huawei/iot_link/network/dtls/mbedtls/mbedtls-2.16.2/library\sha1.c ****     P( B, C, D, E, A, R(39) );
 1388              		.loc 1 225 5 view .LVU512
 1389 06fa CDF82880 		str	r8, [sp, #40]
 1390              	.LVL42:
 223:D:/fchai/work/i-cube/I-CUBE-HUAWEI/Middlewares/Third_Party/Huawei/iot_link/network/dtls/mbedtls/mbedtls-2.16.2/library\sha1.c ****     P( D, E, A, B, C, R(37) );
 1391              		.loc 1 223 5 view .LVU513
 1392 06fe 8AEA040A 		eor	r10, r10, r4
 1393 0702 4F44     		add	r7, r7, r9
 1394 0704 E244     		add	r10, r10, ip
 1395              		.loc 1 226 5 view .LVU514
 1396 0706 86EAF27C 		eor	ip, r6, r2, ror #31
 1397 070a 0A9A     		ldr	r2, [sp, #40]
 1398 070c CDF840C0 		str	ip, [sp, #64]
 222:D:/fchai/work/i-cube/I-CUBE-HUAWEI/Middlewares/Third_Party/Huawei/iot_link/network/dtls/mbedtls/mbedtls-2.16.2/library\sha1.c ****     P( E, A, B, C, D, R(36) );
 1399              		.loc 1 222 5 view .LVU515
 1400 0710 07EBF467 		add	r7, r7, r4, ror #27
 224:D:/fchai/work/i-cube/I-CUBE-HUAWEI/Middlewares/Third_Party/Huawei/iot_link/network/dtls/mbedtls/mbedtls-2.16.2/library\sha1.c ****     P( C, D, E, A, B, R(38) );
 1401              		.loc 1 224 5 view .LVU516
 1402 0714 81EAB405 		eor	r5, r1, r4, ror #2
 223:D:/fchai/work/i-cube/I-CUBE-HUAWEI/Middlewares/Third_Party/Huawei/iot_link/network/dtls/mbedtls/mbedtls-2.16.2/library\sha1.c ****     P( D, E, A, B, C, R(37) );
 1403              		.loc 1 223 5 view .LVU517
 1404 0718 0AEBF76A 		add	r10, r10, r7, ror #27
 224:D:/fchai/work/i-cube/I-CUBE-HUAWEI/Middlewares/Third_Party/Huawei/iot_link/network/dtls/mbedtls/mbedtls-2.16.2/library\sha1.c ****     P( C, D, E, A, B, R(38) );
 1405              		.loc 1 224 5 view .LVU518
 1406 071c 4FEAB70B 		ror	fp, r7, #2
 1407 0720 7D40     		eors	r5, r5, r7
 1408 0722 03EBF272 		add	r2, r3, r2, ror #31
ARM GAS  T:\msys\tmp\ccBepS7m.s 			page 36


 213:D:/fchai/work/i-cube/I-CUBE-HUAWEI/Middlewares/Third_Party/Huawei/iot_link/network/dtls/mbedtls/mbedtls-2.16.2/library\sha1.c ****     P( D, E, A, B, C, R(27) );
 1409              		.loc 1 213 5 view .LVU519
 1410 0726 139F     		ldr	r7, [sp, #76]
 1411 0728 00EBBE0E 		add	lr, r0, lr, ror #2
 1412 072c 1144     		add	r1, r1, r2
 214:D:/fchai/work/i-cube/I-CUBE-HUAWEI/Middlewares/Third_Party/Huawei/iot_link/network/dtls/mbedtls/mbedtls-2.16.2/library\sha1.c ****     P( C, D, E, A, B, R(28) );
 1413              		.loc 1 214 5 view .LVU520
 1414 072e 0D9A     		ldr	r2, [sp, #52]
 225:D:/fchai/work/i-cube/I-CUBE-HUAWEI/Middlewares/Third_Party/Huawei/iot_link/network/dtls/mbedtls/mbedtls-2.16.2/library\sha1.c ****     P( B, C, D, E, A, R(39) );
 1415              		.loc 1 225 5 view .LVU521
 1416 0730 8BEAB406 		eor	r6, fp, r4, ror #2
 213:D:/fchai/work/i-cube/I-CUBE-HUAWEI/Middlewares/Third_Party/Huawei/iot_link/network/dtls/mbedtls/mbedtls-2.16.2/library\sha1.c ****     P( D, E, A, B, C, R(27) );
 1417              		.loc 1 213 5 view .LVU522
 1418 0734 4FEAF778 		ror	r8, r7, #31
 213:D:/fchai/work/i-cube/I-CUBE-HUAWEI/Middlewares/Third_Party/Huawei/iot_link/network/dtls/mbedtls/mbedtls-2.16.2/library\sha1.c ****     P( D, E, A, B, C, R(27) );
 1419              		.loc 1 213 5 is_stmt 1 view .LVU523
 213:D:/fchai/work/i-cube/I-CUBE-HUAWEI/Middlewares/Third_Party/Huawei/iot_link/network/dtls/mbedtls/mbedtls-2.16.2/library\sha1.c ****     P( D, E, A, B, C, R(27) );
 1420              		.loc 1 213 5 view .LVU524
 214:D:/fchai/work/i-cube/I-CUBE-HUAWEI/Middlewares/Third_Party/Huawei/iot_link/network/dtls/mbedtls/mbedtls-2.16.2/library\sha1.c ****     P( C, D, E, A, B, R(28) );
 1421              		.loc 1 214 5 view .LVU525
 214:D:/fchai/work/i-cube/I-CUBE-HUAWEI/Middlewares/Third_Party/Huawei/iot_link/network/dtls/mbedtls/mbedtls-2.16.2/library\sha1.c ****     P( C, D, E, A, B, R(28) );
 1422              		.loc 1 214 5 view .LVU526
 1423              	.LVL43:
 214:D:/fchai/work/i-cube/I-CUBE-HUAWEI/Middlewares/Third_Party/Huawei/iot_link/network/dtls/mbedtls/mbedtls-2.16.2/library\sha1.c ****     P( C, D, E, A, B, R(28) );
 1424              		.loc 1 214 5 is_stmt 0 view .LVU527
 1425 0738 AE44     		add	lr, lr, r5
 227:D:/fchai/work/i-cube/I-CUBE-HUAWEI/Middlewares/Third_Party/Huawei/iot_link/network/dtls/mbedtls/mbedtls-2.16.2/library\sha1.c **** 
 228:D:/fchai/work/i-cube/I-CUBE-HUAWEI/Middlewares/Third_Party/Huawei/iot_link/network/dtls/mbedtls/mbedtls-2.16.2/library\sha1.c **** #undef K
 229:D:/fchai/work/i-cube/I-CUBE-HUAWEI/Middlewares/Third_Party/Huawei/iot_link/network/dtls/mbedtls/mbedtls-2.16.2/library\sha1.c **** #undef F
 230:D:/fchai/work/i-cube/I-CUBE-HUAWEI/Middlewares/Third_Party/Huawei/iot_link/network/dtls/mbedtls/mbedtls-2.16.2/library\sha1.c **** 
 231:D:/fchai/work/i-cube/I-CUBE-HUAWEI/Middlewares/Third_Party/Huawei/iot_link/network/dtls/mbedtls/mbedtls-2.16.2/library\sha1.c **** #define F(x,y,z) (((x) & (y)) | ((z) & ((x) | (y))))
 232:D:/fchai/work/i-cube/I-CUBE-HUAWEI/Middlewares/Third_Party/Huawei/iot_link/network/dtls/mbedtls/mbedtls-2.16.2/library\sha1.c **** #define K 0x8F1BBCDC
 233:D:/fchai/work/i-cube/I-CUBE-HUAWEI/Middlewares/Third_Party/Huawei/iot_link/network/dtls/mbedtls/mbedtls-2.16.2/library\sha1.c **** 
 234:D:/fchai/work/i-cube/I-CUBE-HUAWEI/Middlewares/Third_Party/Huawei/iot_link/network/dtls/mbedtls/mbedtls-2.16.2/library\sha1.c ****     P( A, B, C, D, E, R(40) );
 1426              		.loc 1 234 5 view .LVU528
 1427 073a 129F     		ldr	r7, [sp, #72]
 224:D:/fchai/work/i-cube/I-CUBE-HUAWEI/Middlewares/Third_Party/Huawei/iot_link/network/dtls/mbedtls/mbedtls-2.16.2/library\sha1.c ****     P( C, D, E, A, B, R(38) );
 1428              		.loc 1 224 5 view .LVU529
 1429 073c 0EEBFA6E 		add	lr, lr, r10, ror #27
 1430 0740 03EBFC73 		add	r3, r3, ip, ror #31
 225:D:/fchai/work/i-cube/I-CUBE-HUAWEI/Middlewares/Third_Party/Huawei/iot_link/network/dtls/mbedtls/mbedtls-2.16.2/library\sha1.c ****     P( B, C, D, E, A, R(39) );
 1431              		.loc 1 225 5 view .LVU530
 1432 0744 86EA0A06 		eor	r6, r6, r10
 226:D:/fchai/work/i-cube/I-CUBE-HUAWEI/Middlewares/Third_Party/Huawei/iot_link/network/dtls/mbedtls/mbedtls-2.16.2/library\sha1.c **** 
 1433              		.loc 1 226 5 view .LVU531
 1434 0748 8BEABA00 		eor	r0, fp, r10, ror #2
 214:D:/fchai/work/i-cube/I-CUBE-HUAWEI/Middlewares/Third_Party/Huawei/iot_link/network/dtls/mbedtls/mbedtls-2.16.2/library\sha1.c ****     P( C, D, E, A, B, R(28) );
 1435              		.loc 1 214 5 view .LVU532
 1436 074c 4FEAF275 		ror	r5, r2, #31
 214:D:/fchai/work/i-cube/I-CUBE-HUAWEI/Middlewares/Third_Party/Huawei/iot_link/network/dtls/mbedtls/mbedtls-2.16.2/library\sha1.c ****     P( C, D, E, A, B, R(28) );
 1437              		.loc 1 214 5 is_stmt 1 view .LVU533
 214:D:/fchai/work/i-cube/I-CUBE-HUAWEI/Middlewares/Third_Party/Huawei/iot_link/network/dtls/mbedtls/mbedtls-2.16.2/library\sha1.c ****     P( C, D, E, A, B, R(28) );
 1438              		.loc 1 214 5 view .LVU534
 215:D:/fchai/work/i-cube/I-CUBE-HUAWEI/Middlewares/Third_Party/Huawei/iot_link/network/dtls/mbedtls/mbedtls-2.16.2/library\sha1.c ****     P( B, C, D, E, A, R(29) );
 1439              		.loc 1 215 5 view .LVU535
 215:D:/fchai/work/i-cube/I-CUBE-HUAWEI/Middlewares/Third_Party/Huawei/iot_link/network/dtls/mbedtls/mbedtls-2.16.2/library\sha1.c ****     P( B, C, D, E, A, R(29) );
 1440              		.loc 1 215 5 view .LVU536
ARM GAS  T:\msys\tmp\ccBepS7m.s 			page 37


 1441              	.LVL44:
 215:D:/fchai/work/i-cube/I-CUBE-HUAWEI/Middlewares/Third_Party/Huawei/iot_link/network/dtls/mbedtls/mbedtls-2.16.2/library\sha1.c ****     P( B, C, D, E, A, R(29) );
 1442              		.loc 1 215 5 view .LVU537
 215:D:/fchai/work/i-cube/I-CUBE-HUAWEI/Middlewares/Third_Party/Huawei/iot_link/network/dtls/mbedtls/mbedtls-2.16.2/library\sha1.c ****     P( B, C, D, E, A, R(29) );
 1443              		.loc 1 215 5 view .LVU538
 216:D:/fchai/work/i-cube/I-CUBE-HUAWEI/Middlewares/Third_Party/Huawei/iot_link/network/dtls/mbedtls/mbedtls-2.16.2/library\sha1.c ****     P( A, B, C, D, E, R(30) );
 1444              		.loc 1 216 5 view .LVU539
 216:D:/fchai/work/i-cube/I-CUBE-HUAWEI/Middlewares/Third_Party/Huawei/iot_link/network/dtls/mbedtls/mbedtls-2.16.2/library\sha1.c ****     P( A, B, C, D, E, R(30) );
 1445              		.loc 1 216 5 view .LVU540
 216:D:/fchai/work/i-cube/I-CUBE-HUAWEI/Middlewares/Third_Party/Huawei/iot_link/network/dtls/mbedtls/mbedtls-2.16.2/library\sha1.c ****     P( A, B, C, D, E, R(30) );
 1446              		.loc 1 216 5 view .LVU541
 216:D:/fchai/work/i-cube/I-CUBE-HUAWEI/Middlewares/Third_Party/Huawei/iot_link/network/dtls/mbedtls/mbedtls-2.16.2/library\sha1.c ****     P( A, B, C, D, E, R(30) );
 1447              		.loc 1 216 5 view .LVU542
 217:D:/fchai/work/i-cube/I-CUBE-HUAWEI/Middlewares/Third_Party/Huawei/iot_link/network/dtls/mbedtls/mbedtls-2.16.2/library\sha1.c ****     P( E, A, B, C, D, R(31) );
 1448              		.loc 1 217 5 view .LVU543
 217:D:/fchai/work/i-cube/I-CUBE-HUAWEI/Middlewares/Third_Party/Huawei/iot_link/network/dtls/mbedtls/mbedtls-2.16.2/library\sha1.c ****     P( E, A, B, C, D, R(31) );
 1449              		.loc 1 217 5 view .LVU544
 1450              		.loc 1 234 5 is_stmt 0 view .LVU545
 1451 0750 0F9A     		ldr	r2, [sp, #60]
 226:D:/fchai/work/i-cube/I-CUBE-HUAWEI/Middlewares/Third_Party/Huawei/iot_link/network/dtls/mbedtls/mbedtls-2.16.2/library\sha1.c **** 
 1452              		.loc 1 226 5 view .LVU546
 1453 0752 80EA0E00 		eor	r0, r0, lr
 1454              		.loc 1 234 5 view .LVU547
 1455 0756 88EAF777 		eor	r7, r8, r7, ror #31
 1456 075a 03EBB404 		add	r4, r3, r4, ror #2
 1457 075e 3144     		add	r1, r1, r6
 235:D:/fchai/work/i-cube/I-CUBE-HUAWEI/Middlewares/Third_Party/Huawei/iot_link/network/dtls/mbedtls/mbedtls-2.16.2/library\sha1.c ****     P( E, A, B, C, D, R(41) );
 1458              		.loc 1 235 5 view .LVU548
 1459 0760 039E     		ldr	r6, [sp, #12]
 225:D:/fchai/work/i-cube/I-CUBE-HUAWEI/Middlewares/Third_Party/Huawei/iot_link/network/dtls/mbedtls/mbedtls-2.16.2/library\sha1.c ****     P( B, C, D, E, A, R(39) );
 1460              		.loc 1 225 5 view .LVU549
 1461 0762 01EBFE61 		add	r1, r1, lr, ror #27
 234:D:/fchai/work/i-cube/I-CUBE-HUAWEI/Middlewares/Third_Party/Huawei/iot_link/network/dtls/mbedtls/mbedtls-2.16.2/library\sha1.c ****     P( E, A, B, C, D, R(41) );
 1462              		.loc 1 234 5 view .LVU550
 1463 0766 87EAF277 		eor	r7, r7, r2, ror #31
 1464 076a 0444     		add	r4, r4, r0
 1465              		.loc 1 235 5 view .LVU551
 1466 076c 019A     		ldr	r2, [sp, #4]
 234:D:/fchai/work/i-cube/I-CUBE-HUAWEI/Middlewares/Third_Party/Huawei/iot_link/network/dtls/mbedtls/mbedtls-2.16.2/library\sha1.c ****     P( E, A, B, C, D, R(41) );
 1467              		.loc 1 234 5 view .LVU552
 1468 076e 0698     		ldr	r0, [sp, #24]
 226:D:/fchai/work/i-cube/I-CUBE-HUAWEI/Middlewares/Third_Party/Huawei/iot_link/network/dtls/mbedtls/mbedtls-2.16.2/library\sha1.c **** 
 1469              		.loc 1 226 5 view .LVU553
 1470 0770 04EBF163 		add	r3, r4, r1, ror #27
 1471              		.loc 1 235 5 view .LVU554
 1472 0774 85EAF67C 		eor	ip, r5, r6, ror #31
 1473 0778 D84C     		ldr	r4, .L20
 1474 077a 0A9E     		ldr	r6, [sp, #40]
 234:D:/fchai/work/i-cube/I-CUBE-HUAWEI/Middlewares/Third_Party/Huawei/iot_link/network/dtls/mbedtls/mbedtls-2.16.2/library\sha1.c ****     P( E, A, B, C, D, R(41) );
 1475              		.loc 1 234 5 view .LVU555
 1476 077c 87EAF079 		eor	r9, r7, r0, ror #31
 1477              		.loc 1 235 5 view .LVU556
 1478 0780 8CEAF27C 		eor	ip, ip, r2, ror #31
 1479 0784 04EBF970 		add	r0, r4, r9, ror #31
 1480 0788 8CEAF67C 		eor	ip, ip, r6, ror #31
 234:D:/fchai/work/i-cube/I-CUBE-HUAWEI/Middlewares/Third_Party/Huawei/iot_link/network/dtls/mbedtls/mbedtls-2.16.2/library\sha1.c ****     P( E, A, B, C, D, R(41) );
 1481              		.loc 1 234 5 view .LVU557
ARM GAS  T:\msys\tmp\ccBepS7m.s 			page 38


 1482 078c 41EABE06 		orr	r6, r1, lr, ror #2
 1483              		.loc 1 235 5 view .LVU558
 1484 0790 CDF80CC0 		str	ip, [sp, #12]
 1485 0794 8344     		add	fp, fp, r0
 234:D:/fchai/work/i-cube/I-CUBE-HUAWEI/Middlewares/Third_Party/Huawei/iot_link/network/dtls/mbedtls/mbedtls-2.16.2/library\sha1.c ****     P( E, A, B, C, D, R(41) );
 1486              		.loc 1 234 5 view .LVU559
 1487 0796 06EABA06 		and	r6, r6, r10, ror #2
 1488 079a 01EABE00 		and	r0, r1, lr, ror #2
 236:D:/fchai/work/i-cube/I-CUBE-HUAWEI/Middlewares/Third_Party/Huawei/iot_link/network/dtls/mbedtls/mbedtls-2.16.2/library\sha1.c ****     P( D, E, A, B, C, R(42) );
 1489              		.loc 1 236 5 view .LVU560
 1490 079e 049F     		ldr	r7, [sp, #16]
 1491 07a0 CDF83090 		str	r9, [sp, #48]
 1492              	.LVL45:
 234:D:/fchai/work/i-cube/I-CUBE-HUAWEI/Middlewares/Third_Party/Huawei/iot_link/network/dtls/mbedtls/mbedtls-2.16.2/library\sha1.c ****     P( E, A, B, C, D, R(41) );
 1493              		.loc 1 234 5 view .LVU561
 1494 07a4 0643     		orrs	r6, r6, r0
 1495 07a6 2046     		mov	r0, r4
 1496 07a8 039C     		ldr	r4, [sp, #12]
 235:D:/fchai/work/i-cube/I-CUBE-HUAWEI/Middlewares/Third_Party/Huawei/iot_link/network/dtls/mbedtls/mbedtls-2.16.2/library\sha1.c ****     P( D, E, A, B, C, R(42) );
 1497              		.loc 1 235 5 view .LVU562
 1498 07aa 43EAB102 		orr	r2, r3, r1, ror #2
 1499              		.loc 1 236 5 view .LVU563
 1500 07ae 88EAF778 		eor	r8, r8, r7, ror #31
 1501 07b2 00EBF477 		add	r7, r0, r4, ror #31
 1502 07b6 07EBBA0A 		add	r10, r7, r10, ror #2
 235:D:/fchai/work/i-cube/I-CUBE-HUAWEI/Middlewares/Third_Party/Huawei/iot_link/network/dtls/mbedtls/mbedtls-2.16.2/library\sha1.c ****     P( D, E, A, B, C, R(42) );
 1503              		.loc 1 235 5 view .LVU564
 1504 07ba 03EAB104 		and	r4, r3, r1, ror #2
 1505              		.loc 1 236 5 view .LVU565
 1506 07be 149F     		ldr	r7, [sp, #80]
 235:D:/fchai/work/i-cube/I-CUBE-HUAWEI/Middlewares/Third_Party/Huawei/iot_link/network/dtls/mbedtls/mbedtls-2.16.2/library\sha1.c ****     P( D, E, A, B, C, R(42) );
 1507              		.loc 1 235 5 view .LVU566
 1508 07c0 02EABE02 		and	r2, r2, lr, ror #2
 1509 07c4 2243     		orrs	r2, r2, r4
 1510              		.loc 1 236 5 view .LVU567
 1511 07c6 109C     		ldr	r4, [sp, #64]
 1512 07c8 88EAF778 		eor	r8, r8, r7, ror #31
 237:D:/fchai/work/i-cube/I-CUBE-HUAWEI/Middlewares/Third_Party/Huawei/iot_link/network/dtls/mbedtls/mbedtls-2.16.2/library\sha1.c ****     P( C, D, E, A, B, R(43) );
 1513              		.loc 1 237 5 view .LVU568
 1514 07cc 059F     		ldr	r7, [sp, #20]
 236:D:/fchai/work/i-cube/I-CUBE-HUAWEI/Middlewares/Third_Party/Huawei/iot_link/network/dtls/mbedtls/mbedtls-2.16.2/library\sha1.c ****     P( D, E, A, B, C, R(42) );
 1515              		.loc 1 236 5 view .LVU569
 1516 07ce 88EAF47C 		eor	ip, r8, r4, ror #31
 1517 07d2 0BEBF36B 		add	fp, fp, r3, ror #27
 1518              		.loc 1 237 5 view .LVU570
 1519 07d6 0B9C     		ldr	r4, [sp, #44]
 234:D:/fchai/work/i-cube/I-CUBE-HUAWEI/Middlewares/Third_Party/Huawei/iot_link/network/dtls/mbedtls/mbedtls-2.16.2/library\sha1.c ****     P( E, A, B, C, D, R(41) );
 1520              		.loc 1 234 5 view .LVU571
 1521 07d8 B344     		add	fp, fp, r6
 1522              		.loc 1 237 5 view .LVU572
 1523 07da 85EAF775 		eor	r5, r5, r7, ror #31
 1524 07de 0C9E     		ldr	r6, [sp, #48]
 1525 07e0 85EAF475 		eor	r5, r5, r4, ror #31
 236:D:/fchai/work/i-cube/I-CUBE-HUAWEI/Middlewares/Third_Party/Huawei/iot_link/network/dtls/mbedtls/mbedtls-2.16.2/library\sha1.c ****     P( C, D, E, A, B, R(43) );
 1526              		.loc 1 236 5 view .LVU573
 1527 07e4 6746     		mov	r7, ip
 1528              		.loc 1 237 5 view .LVU574
ARM GAS  T:\msys\tmp\ccBepS7m.s 			page 39


 1529 07e6 85EAF67C 		eor	ip, r5, r6, ror #31
 217:D:/fchai/work/i-cube/I-CUBE-HUAWEI/Middlewares/Third_Party/Huawei/iot_link/network/dtls/mbedtls/mbedtls-2.16.2/library\sha1.c ****     P( E, A, B, C, D, R(31) );
 1530              		.loc 1 217 5 view .LVU575
 1531 07ea 0E9C     		ldr	r4, [sp, #56]
 1532 07ec 1297     		str	r7, [sp, #72]
 1533              		.loc 1 237 5 view .LVU576
 1534 07ee 6646     		mov	r6, ip
 1535 07f0 5244     		add	r2, r2, r10
 235:D:/fchai/work/i-cube/I-CUBE-HUAWEI/Middlewares/Third_Party/Huawei/iot_link/network/dtls/mbedtls/mbedtls-2.16.2/library\sha1.c ****     P( D, E, A, B, C, R(42) );
 1536              		.loc 1 235 5 view .LVU577
 1537 07f2 02EBFB62 		add	r2, r2, fp, ror #27
 1538 07f6 00EBF775 		add	r5, r0, r7, ror #31
 236:D:/fchai/work/i-cube/I-CUBE-HUAWEI/Middlewares/Third_Party/Huawei/iot_link/network/dtls/mbedtls/mbedtls-2.16.2/library\sha1.c ****     P( C, D, E, A, B, R(43) );
 1539              		.loc 1 236 5 view .LVU578
 1540 07fa 4BEAB309 		orr	r9, fp, r3, ror #2
 238:D:/fchai/work/i-cube/I-CUBE-HUAWEI/Middlewares/Third_Party/Huawei/iot_link/network/dtls/mbedtls/mbedtls-2.16.2/library\sha1.c ****     P( B, C, D, E, A, R(44) );
 1541              		.loc 1 238 5 view .LVU579
 1542 07fe 049F     		ldr	r7, [sp, #16]
 1543 0800 0E96     		str	r6, [sp, #56]
 1544 0802 00EBF676 		add	r6, r0, r6, ror #31
 237:D:/fchai/work/i-cube/I-CUBE-HUAWEI/Middlewares/Third_Party/Huawei/iot_link/network/dtls/mbedtls/mbedtls-2.16.2/library\sha1.c ****     P( B, C, D, E, A, R(44) );
 1545              		.loc 1 237 5 view .LVU580
 1546 0806 42EABB08 		orr	r8, r2, fp, ror #2
 217:D:/fchai/work/i-cube/I-CUBE-HUAWEI/Middlewares/Third_Party/Huawei/iot_link/network/dtls/mbedtls/mbedtls-2.16.2/library\sha1.c ****     P( E, A, B, C, D, R(31) );
 1547              		.loc 1 217 5 view .LVU581
 1548 080a 4FEAF47C 		ror	ip, r4, #31
 217:D:/fchai/work/i-cube/I-CUBE-HUAWEI/Middlewares/Third_Party/Huawei/iot_link/network/dtls/mbedtls/mbedtls-2.16.2/library\sha1.c ****     P( E, A, B, C, D, R(31) );
 1549              		.loc 1 217 5 is_stmt 1 view .LVU582
 217:D:/fchai/work/i-cube/I-CUBE-HUAWEI/Middlewares/Third_Party/Huawei/iot_link/network/dtls/mbedtls/mbedtls-2.16.2/library\sha1.c ****     P( E, A, B, C, D, R(31) );
 1550              		.loc 1 217 5 view .LVU583
 218:D:/fchai/work/i-cube/I-CUBE-HUAWEI/Middlewares/Third_Party/Huawei/iot_link/network/dtls/mbedtls/mbedtls-2.16.2/library\sha1.c ****     P( D, E, A, B, C, R(32) );
 1551              		.loc 1 218 5 view .LVU584
 218:D:/fchai/work/i-cube/I-CUBE-HUAWEI/Middlewares/Third_Party/Huawei/iot_link/network/dtls/mbedtls/mbedtls-2.16.2/library\sha1.c ****     P( D, E, A, B, C, R(32) );
 1552              		.loc 1 218 5 view .LVU585
 236:D:/fchai/work/i-cube/I-CUBE-HUAWEI/Middlewares/Third_Party/Huawei/iot_link/network/dtls/mbedtls/mbedtls-2.16.2/library\sha1.c ****     P( C, D, E, A, B, R(43) );
 1553              		.loc 1 236 5 is_stmt 0 view .LVU586
 1554 080e 09EAB109 		and	r9, r9, r1, ror #2
 1555 0812 06EBB101 		add	r1, r6, r1, ror #2
 1556              		.loc 1 238 5 view .LVU587
 1557 0816 029E     		ldr	r6, [sp, #8]
 237:D:/fchai/work/i-cube/I-CUBE-HUAWEI/Middlewares/Third_Party/Huawei/iot_link/network/dtls/mbedtls/mbedtls-2.16.2/library\sha1.c ****     P( B, C, D, E, A, R(44) );
 1558              		.loc 1 237 5 view .LVU588
 1559 0818 02EABB00 		and	r0, r2, fp, ror #2
 1560 081c 05EBBE0E 		add	lr, r5, lr, ror #2
 1561 0820 08EAB308 		and	r8, r8, r3, ror #2
 1562              		.loc 1 238 5 view .LVU589
 1563 0824 8CEAF775 		eor	r5, ip, r7, ror #31
 218:D:/fchai/work/i-cube/I-CUBE-HUAWEI/Middlewares/Third_Party/Huawei/iot_link/network/dtls/mbedtls/mbedtls-2.16.2/library\sha1.c ****     P( D, E, A, B, C, R(32) );
 1564              		.loc 1 218 5 view .LVU590
 1565 0828 099F     		ldr	r7, [sp, #36]
 1566              		.loc 1 238 5 view .LVU591
 1567 082a 85EAF675 		eor	r5, r5, r6, ror #31
 237:D:/fchai/work/i-cube/I-CUBE-HUAWEI/Middlewares/Third_Party/Huawei/iot_link/network/dtls/mbedtls/mbedtls-2.16.2/library\sha1.c ****     P( B, C, D, E, A, R(44) );
 1568              		.loc 1 237 5 view .LVU592
 1569 082e 48EA0008 		orr	r8, r8, r0
 239:D:/fchai/work/i-cube/I-CUBE-HUAWEI/Middlewares/Third_Party/Huawei/iot_link/network/dtls/mbedtls/mbedtls-2.16.2/library\sha1.c ****     P( A, B, C, D, E, R(45) );
 1570              		.loc 1 239 5 view .LVU593
ARM GAS  T:\msys\tmp\ccBepS7m.s 			page 40


 1571 0832 059E     		ldr	r6, [sp, #20]
 1572 0834 A948     		ldr	r0, .L20
 236:D:/fchai/work/i-cube/I-CUBE-HUAWEI/Middlewares/Third_Party/Huawei/iot_link/network/dtls/mbedtls/mbedtls-2.16.2/library\sha1.c ****     P( C, D, E, A, B, R(43) );
 1573              		.loc 1 236 5 view .LVU594
 1574 0836 0BEAB304 		and	r4, fp, r3, ror #2
 218:D:/fchai/work/i-cube/I-CUBE-HUAWEI/Middlewares/Third_Party/Huawei/iot_link/network/dtls/mbedtls/mbedtls-2.16.2/library\sha1.c ****     P( D, E, A, B, C, R(32) );
 1575              		.loc 1 218 5 view .LVU595
 1576 083a 4FEAF777 		ror	r7, r7, #31
 218:D:/fchai/work/i-cube/I-CUBE-HUAWEI/Middlewares/Third_Party/Huawei/iot_link/network/dtls/mbedtls/mbedtls-2.16.2/library\sha1.c ****     P( D, E, A, B, C, R(32) );
 1577              		.loc 1 218 5 is_stmt 1 view .LVU596
 218:D:/fchai/work/i-cube/I-CUBE-HUAWEI/Middlewares/Third_Party/Huawei/iot_link/network/dtls/mbedtls/mbedtls-2.16.2/library\sha1.c ****     P( D, E, A, B, C, R(32) );
 1578              		.loc 1 218 5 view .LVU597
 219:D:/fchai/work/i-cube/I-CUBE-HUAWEI/Middlewares/Third_Party/Huawei/iot_link/network/dtls/mbedtls/mbedtls-2.16.2/library\sha1.c ****     P( C, D, E, A, B, R(33) );
 1579              		.loc 1 219 5 view .LVU598
 219:D:/fchai/work/i-cube/I-CUBE-HUAWEI/Middlewares/Third_Party/Huawei/iot_link/network/dtls/mbedtls/mbedtls-2.16.2/library\sha1.c ****     P( C, D, E, A, B, R(33) );
 1580              		.loc 1 219 5 view .LVU599
 1581              	.LVL46:
 219:D:/fchai/work/i-cube/I-CUBE-HUAWEI/Middlewares/Third_Party/Huawei/iot_link/network/dtls/mbedtls/mbedtls-2.16.2/library\sha1.c ****     P( C, D, E, A, B, R(33) );
 1582              		.loc 1 219 5 view .LVU600
 219:D:/fchai/work/i-cube/I-CUBE-HUAWEI/Middlewares/Third_Party/Huawei/iot_link/network/dtls/mbedtls/mbedtls-2.16.2/library\sha1.c ****     P( C, D, E, A, B, R(33) );
 1583              		.loc 1 219 5 view .LVU601
 220:D:/fchai/work/i-cube/I-CUBE-HUAWEI/Middlewares/Third_Party/Huawei/iot_link/network/dtls/mbedtls/mbedtls-2.16.2/library\sha1.c ****     P( B, C, D, E, A, R(34) );
 1584              		.loc 1 220 5 view .LVU602
 220:D:/fchai/work/i-cube/I-CUBE-HUAWEI/Middlewares/Third_Party/Huawei/iot_link/network/dtls/mbedtls/mbedtls-2.16.2/library\sha1.c ****     P( B, C, D, E, A, R(34) );
 1585              		.loc 1 220 5 view .LVU603
 220:D:/fchai/work/i-cube/I-CUBE-HUAWEI/Middlewares/Third_Party/Huawei/iot_link/network/dtls/mbedtls/mbedtls-2.16.2/library\sha1.c ****     P( B, C, D, E, A, R(34) );
 1586              		.loc 1 220 5 view .LVU604
 220:D:/fchai/work/i-cube/I-CUBE-HUAWEI/Middlewares/Third_Party/Huawei/iot_link/network/dtls/mbedtls/mbedtls-2.16.2/library\sha1.c ****     P( B, C, D, E, A, R(34) );
 1587              		.loc 1 220 5 view .LVU605
 221:D:/fchai/work/i-cube/I-CUBE-HUAWEI/Middlewares/Third_Party/Huawei/iot_link/network/dtls/mbedtls/mbedtls-2.16.2/library\sha1.c ****     P( A, B, C, D, E, R(35) );
 1588              		.loc 1 221 5 view .LVU606
 221:D:/fchai/work/i-cube/I-CUBE-HUAWEI/Middlewares/Third_Party/Huawei/iot_link/network/dtls/mbedtls/mbedtls-2.16.2/library\sha1.c ****     P( A, B, C, D, E, R(35) );
 1589              		.loc 1 221 5 view .LVU607
 221:D:/fchai/work/i-cube/I-CUBE-HUAWEI/Middlewares/Third_Party/Huawei/iot_link/network/dtls/mbedtls/mbedtls-2.16.2/library\sha1.c ****     P( A, B, C, D, E, R(35) );
 1590              		.loc 1 221 5 is_stmt 0 view .LVU608
 1591 083e 8844     		add	r8, r8, r1
 238:D:/fchai/work/i-cube/I-CUBE-HUAWEI/Middlewares/Third_Party/Huawei/iot_link/network/dtls/mbedtls/mbedtls-2.16.2/library\sha1.c ****     P( A, B, C, D, E, R(45) );
 1592              		.loc 1 238 5 view .LVU609
 1593 0840 0399     		ldr	r1, [sp, #12]
 236:D:/fchai/work/i-cube/I-CUBE-HUAWEI/Middlewares/Third_Party/Huawei/iot_link/network/dtls/mbedtls/mbedtls-2.16.2/library\sha1.c ****     P( C, D, E, A, B, R(43) );
 1594              		.loc 1 236 5 view .LVU610
 1595 0842 49EA0409 		orr	r9, r9, r4
 1596              		.loc 1 239 5 view .LVU611
 1597 0846 87EAF674 		eor	r4, r7, r6, ror #31
 1598 084a 069E     		ldr	r6, [sp, #24]
 238:D:/fchai/work/i-cube/I-CUBE-HUAWEI/Middlewares/Third_Party/Huawei/iot_link/network/dtls/mbedtls/mbedtls-2.16.2/library\sha1.c ****     P( A, B, C, D, E, R(45) );
 1599              		.loc 1 238 5 view .LVU612
 1600 084c 85EAF17A 		eor	r10, r5, r1, ror #31
 1601 0850 0EEBF26E 		add	lr, lr, r2, ror #27
 1602              		.loc 1 239 5 view .LVU613
 1603 0854 1299     		ldr	r1, [sp, #72]
 236:D:/fchai/work/i-cube/I-CUBE-HUAWEI/Middlewares/Third_Party/Huawei/iot_link/network/dtls/mbedtls/mbedtls-2.16.2/library\sha1.c ****     P( C, D, E, A, B, R(43) );
 1604              		.loc 1 236 5 view .LVU614
 1605 0856 F144     		add	r9, r9, lr
 1606              		.loc 1 239 5 view .LVU615
 1607 0858 84EAF674 		eor	r4, r4, r6, ror #31
 1608 085c 84EAF17E 		eor	lr, r4, r1, ror #31
ARM GAS  T:\msys\tmp\ccBepS7m.s 			page 41


 238:D:/fchai/work/i-cube/I-CUBE-HUAWEI/Middlewares/Third_Party/Huawei/iot_link/network/dtls/mbedtls/mbedtls-2.16.2/library\sha1.c ****     P( A, B, C, D, E, R(45) );
 1609              		.loc 1 238 5 view .LVU616
 1610 0860 49EAB205 		orr	r5, r9, r2, ror #2
 1611 0864 00EBFA74 		add	r4, r0, r10, ror #31
 1612              		.loc 1 239 5 view .LVU617
 1613 0868 CDF810E0 		str	lr, [sp, #16]
 238:D:/fchai/work/i-cube/I-CUBE-HUAWEI/Middlewares/Third_Party/Huawei/iot_link/network/dtls/mbedtls/mbedtls-2.16.2/library\sha1.c ****     P( A, B, C, D, E, R(45) );
 1614              		.loc 1 238 5 view .LVU618
 1615 086c 09EAB206 		and	r6, r9, r2, ror #2
 1616 0870 04EBB303 		add	r3, r4, r3, ror #2
 1617 0874 05EABB05 		and	r5, r5, fp, ror #2
 240:D:/fchai/work/i-cube/I-CUBE-HUAWEI/Middlewares/Third_Party/Huawei/iot_link/network/dtls/mbedtls/mbedtls-2.16.2/library\sha1.c ****     P( E, A, B, C, D, R(46) );
 1618              		.loc 1 240 5 view .LVU619
 1619 0878 0F9C     		ldr	r4, [sp, #60]
 238:D:/fchai/work/i-cube/I-CUBE-HUAWEI/Middlewares/Third_Party/Huawei/iot_link/network/dtls/mbedtls/mbedtls-2.16.2/library\sha1.c ****     P( A, B, C, D, E, R(45) );
 1620              		.loc 1 238 5 view .LVU620
 1621 087a 3543     		orrs	r5, r5, r6
 1622 087c 049E     		ldr	r6, [sp, #16]
 237:D:/fchai/work/i-cube/I-CUBE-HUAWEI/Middlewares/Third_Party/Huawei/iot_link/network/dtls/mbedtls/mbedtls-2.16.2/library\sha1.c ****     P( B, C, D, E, A, R(44) );
 1623              		.loc 1 237 5 view .LVU621
 1624 087e 08EBF968 		add	r8, r8, r9, ror #27
 1625              		.loc 1 240 5 view .LVU622
 1626 0882 8CEAF47C 		eor	ip, ip, r4, ror #31
 1627 0886 0A9C     		ldr	r4, [sp, #40]
 239:D:/fchai/work/i-cube/I-CUBE-HUAWEI/Middlewares/Third_Party/Huawei/iot_link/network/dtls/mbedtls/mbedtls-2.16.2/library\sha1.c ****     P( E, A, B, C, D, R(46) );
 1628              		.loc 1 239 5 view .LVU623
 1629 0888 48EAB901 		orr	r1, r8, r9, ror #2
 1630 088c 03EBF863 		add	r3, r3, r8, ror #27
 1631 0890 00EBF676 		add	r6, r0, r6, ror #31
 1632 0894 06EBBB0B 		add	fp, r6, fp, ror #2
 1633 0898 01EAB201 		and	r1, r1, r2, ror #2
 1634 089c 08EAB906 		and	r6, r8, r9, ror #2
 1635              		.loc 1 240 5 view .LVU624
 1636 08a0 8CEAF47C 		eor	ip, ip, r4, ror #31
 238:D:/fchai/work/i-cube/I-CUBE-HUAWEI/Middlewares/Third_Party/Huawei/iot_link/network/dtls/mbedtls/mbedtls-2.16.2/library\sha1.c ****     P( A, B, C, D, E, R(45) );
 1637              		.loc 1 238 5 view .LVU625
 1638 08a4 EC18     		adds	r4, r5, r3
 1639              		.loc 1 240 5 view .LVU626
 1640 08a6 0E9B     		ldr	r3, [sp, #56]
 239:D:/fchai/work/i-cube/I-CUBE-HUAWEI/Middlewares/Third_Party/Huawei/iot_link/network/dtls/mbedtls/mbedtls-2.16.2/library\sha1.c ****     P( E, A, B, C, D, R(46) );
 1641              		.loc 1 239 5 view .LVU627
 1642 08a8 3143     		orrs	r1, r1, r6
 241:D:/fchai/work/i-cube/I-CUBE-HUAWEI/Middlewares/Third_Party/Huawei/iot_link/network/dtls/mbedtls/mbedtls-2.16.2/library\sha1.c ****     P( D, E, A, B, C, R(47) );
 1643              		.loc 1 241 5 view .LVU628
 1644 08aa 019E     		ldr	r6, [sp, #4]
 240:D:/fchai/work/i-cube/I-CUBE-HUAWEI/Middlewares/Third_Party/Huawei/iot_link/network/dtls/mbedtls/mbedtls-2.16.2/library\sha1.c ****     P( D, E, A, B, C, R(47) );
 1645              		.loc 1 240 5 view .LVU629
 1646 08ac 8CEAF37C 		eor	ip, ip, r3, ror #31
 1647              		.loc 1 241 5 view .LVU630
 1648 08b0 109B     		ldr	r3, [sp, #64]
 1649 08b2 87EAF677 		eor	r7, r7, r6, ror #31
 240:D:/fchai/work/i-cube/I-CUBE-HUAWEI/Middlewares/Third_Party/Huawei/iot_link/network/dtls/mbedtls/mbedtls-2.16.2/library\sha1.c ****     P( D, E, A, B, C, R(47) );
 1650              		.loc 1 240 5 view .LVU631
 1651 08b6 6546     		mov	r5, ip
 1652              		.loc 1 241 5 view .LVU632
 1653 08b8 87EAF377 		eor	r7, r7, r3, ror #31
 1654 08bc 87EAFA7C 		eor	ip, r7, r10, ror #31
ARM GAS  T:\msys\tmp\ccBepS7m.s 			page 42


 1655 08c0 00EBF57E 		add	lr, r0, r5, ror #31
 1656 08c4 0746     		mov	r7, r0
 221:D:/fchai/work/i-cube/I-CUBE-HUAWEI/Middlewares/Third_Party/Huawei/iot_link/network/dtls/mbedtls/mbedtls-2.16.2/library\sha1.c ****     P( A, B, C, D, E, R(35) );
 1657              		.loc 1 221 5 view .LVU633
 1658 08c6 1498     		ldr	r0, [sp, #80]
 1659              		.loc 1 241 5 view .LVU634
 1660 08c8 CDF824C0 		str	ip, [sp, #36]
 240:D:/fchai/work/i-cube/I-CUBE-HUAWEI/Middlewares/Third_Party/Huawei/iot_link/network/dtls/mbedtls/mbedtls-2.16.2/library\sha1.c ****     P( D, E, A, B, C, R(47) );
 1661              		.loc 1 240 5 view .LVU635
 1662 08cc 44EAB806 		orr	r6, r4, r8, ror #2
 1663 08d0 5944     		add	r1, r1, fp
 239:D:/fchai/work/i-cube/I-CUBE-HUAWEI/Middlewares/Third_Party/Huawei/iot_link/network/dtls/mbedtls/mbedtls-2.16.2/library\sha1.c ****     P( E, A, B, C, D, R(46) );
 1664              		.loc 1 239 5 view .LVU636
 1665 08d2 01EBF46B 		add	fp, r1, r4, ror #27
 240:D:/fchai/work/i-cube/I-CUBE-HUAWEI/Middlewares/Third_Party/Huawei/iot_link/network/dtls/mbedtls/mbedtls-2.16.2/library\sha1.c ****     P( D, E, A, B, C, R(47) );
 1666              		.loc 1 240 5 view .LVU637
 1667 08d6 06EAB906 		and	r6, r6, r9, ror #2
 221:D:/fchai/work/i-cube/I-CUBE-HUAWEI/Middlewares/Third_Party/Huawei/iot_link/network/dtls/mbedtls/mbedtls-2.16.2/library\sha1.c ****     P( A, B, C, D, E, R(35) );
 1668              		.loc 1 221 5 view .LVU638
 1669 08da 4FEAF071 		ror	r1, r0, #31
 1670              	.LVL47:
 221:D:/fchai/work/i-cube/I-CUBE-HUAWEI/Middlewares/Third_Party/Huawei/iot_link/network/dtls/mbedtls/mbedtls-2.16.2/library\sha1.c ****     P( A, B, C, D, E, R(35) );
 1671              		.loc 1 221 5 is_stmt 1 view .LVU639
 221:D:/fchai/work/i-cube/I-CUBE-HUAWEI/Middlewares/Third_Party/Huawei/iot_link/network/dtls/mbedtls/mbedtls-2.16.2/library\sha1.c ****     P( A, B, C, D, E, R(35) );
 1672              		.loc 1 221 5 view .LVU640
 222:D:/fchai/work/i-cube/I-CUBE-HUAWEI/Middlewares/Third_Party/Huawei/iot_link/network/dtls/mbedtls/mbedtls-2.16.2/library\sha1.c ****     P( E, A, B, C, D, R(36) );
 1673              		.loc 1 222 5 view .LVU641
 222:D:/fchai/work/i-cube/I-CUBE-HUAWEI/Middlewares/Third_Party/Huawei/iot_link/network/dtls/mbedtls/mbedtls-2.16.2/library\sha1.c ****     P( E, A, B, C, D, R(36) );
 1674              		.loc 1 222 5 view .LVU642
 240:D:/fchai/work/i-cube/I-CUBE-HUAWEI/Middlewares/Third_Party/Huawei/iot_link/network/dtls/mbedtls/mbedtls-2.16.2/library\sha1.c ****     P( D, E, A, B, C, R(47) );
 1675              		.loc 1 240 5 is_stmt 0 view .LVU643
 1676 08de 04EAB800 		and	r0, r4, r8, ror #2
 1677 08e2 0643     		orrs	r6, r6, r0
 1678 08e4 0998     		ldr	r0, [sp, #36]
 1679 08e6 1395     		str	r5, [sp, #76]
 1680              		.loc 1 241 5 view .LVU644
 1681 08e8 4BEAB403 		orr	r3, fp, r4, ror #2
 1682 08ec 07EBF070 		add	r0, r7, r0, ror #31
 242:D:/fchai/work/i-cube/I-CUBE-HUAWEI/Middlewares/Third_Party/Huawei/iot_link/network/dtls/mbedtls/mbedtls-2.16.2/library\sha1.c ****     P( C, D, E, A, B, R(48) );
 1683              		.loc 1 242 5 view .LVU645
 1684 08f0 0F9D     		ldr	r5, [sp, #60]
 1685 08f2 00EBB909 		add	r9, r0, r9, ror #2
 1686 08f6 0EEBB202 		add	r2, lr, r2, ror #2
 241:D:/fchai/work/i-cube/I-CUBE-HUAWEI/Middlewares/Third_Party/Huawei/iot_link/network/dtls/mbedtls/mbedtls-2.16.2/library\sha1.c ****     P( C, D, E, A, B, R(48) );
 1687              		.loc 1 241 5 view .LVU646
 1688 08fa 0BEAB400 		and	r0, fp, r4, ror #2
 1689 08fe 03EAB803 		and	r3, r3, r8, ror #2
 1690 0902 02EBFB62 		add	r2, r2, fp, ror #27
 1691 0906 0343     		orrs	r3, r3, r0
 1692              		.loc 1 242 5 view .LVU647
 1693 0908 0C98     		ldr	r0, [sp, #48]
 240:D:/fchai/work/i-cube/I-CUBE-HUAWEI/Middlewares/Third_Party/Huawei/iot_link/network/dtls/mbedtls/mbedtls-2.16.2/library\sha1.c ****     P( D, E, A, B, C, R(47) );
 1694              		.loc 1 240 5 view .LVU648
 1695 090a 1644     		add	r6, r6, r2
 1696              		.loc 1 242 5 view .LVU649
 1697 090c 81EAF57E 		eor	lr, r1, r5, ror #31
 1698 0910 049A     		ldr	r2, [sp, #16]
ARM GAS  T:\msys\tmp\ccBepS7m.s 			page 43


 222:D:/fchai/work/i-cube/I-CUBE-HUAWEI/Middlewares/Third_Party/Huawei/iot_link/network/dtls/mbedtls/mbedtls-2.16.2/library\sha1.c ****     P( E, A, B, C, D, R(36) );
 1699              		.loc 1 222 5 view .LVU650
 1700 0912 0B9D     		ldr	r5, [sp, #44]
 1701              		.loc 1 242 5 view .LVU651
 1702 0914 8EEAF07E 		eor	lr, lr, r0, ror #31
 243:D:/fchai/work/i-cube/I-CUBE-HUAWEI/Middlewares/Third_Party/Huawei/iot_link/network/dtls/mbedtls/mbedtls-2.16.2/library\sha1.c ****     P( B, C, D, E, A, R(49) );
 1703              		.loc 1 243 5 view .LVU652
 1704 0918 0198     		ldr	r0, [sp, #4]
 242:D:/fchai/work/i-cube/I-CUBE-HUAWEI/Middlewares/Third_Party/Huawei/iot_link/network/dtls/mbedtls/mbedtls-2.16.2/library\sha1.c ****     P( B, C, D, E, A, R(49) );
 1705              		.loc 1 242 5 view .LVU653
 1706 091a 8EEAF27C 		eor	ip, lr, r2, ror #31
 222:D:/fchai/work/i-cube/I-CUBE-HUAWEI/Middlewares/Third_Party/Huawei/iot_link/network/dtls/mbedtls/mbedtls-2.16.2/library\sha1.c ****     P( E, A, B, C, D, R(36) );
 1707              		.loc 1 222 5 view .LVU654
 1708 091e 4FEAF575 		ror	r5, r5, #31
 1709              	.LVL48:
 222:D:/fchai/work/i-cube/I-CUBE-HUAWEI/Middlewares/Third_Party/Huawei/iot_link/network/dtls/mbedtls/mbedtls-2.16.2/library\sha1.c ****     P( E, A, B, C, D, R(36) );
 1710              		.loc 1 222 5 is_stmt 1 view .LVU655
 222:D:/fchai/work/i-cube/I-CUBE-HUAWEI/Middlewares/Third_Party/Huawei/iot_link/network/dtls/mbedtls/mbedtls-2.16.2/library\sha1.c ****     P( E, A, B, C, D, R(36) );
 1711              		.loc 1 222 5 view .LVU656
 223:D:/fchai/work/i-cube/I-CUBE-HUAWEI/Middlewares/Third_Party/Huawei/iot_link/network/dtls/mbedtls/mbedtls-2.16.2/library\sha1.c ****     P( D, E, A, B, C, R(37) );
 1712              		.loc 1 223 5 view .LVU657
 223:D:/fchai/work/i-cube/I-CUBE-HUAWEI/Middlewares/Third_Party/Huawei/iot_link/network/dtls/mbedtls/mbedtls-2.16.2/library\sha1.c ****     P( D, E, A, B, C, R(37) );
 1713              		.loc 1 223 5 view .LVU658
 223:D:/fchai/work/i-cube/I-CUBE-HUAWEI/Middlewares/Third_Party/Huawei/iot_link/network/dtls/mbedtls/mbedtls-2.16.2/library\sha1.c ****     P( D, E, A, B, C, R(37) );
 1714              		.loc 1 223 5 view .LVU659
 223:D:/fchai/work/i-cube/I-CUBE-HUAWEI/Middlewares/Third_Party/Huawei/iot_link/network/dtls/mbedtls/mbedtls-2.16.2/library\sha1.c ****     P( D, E, A, B, C, R(37) );
 1715              		.loc 1 223 5 view .LVU660
 224:D:/fchai/work/i-cube/I-CUBE-HUAWEI/Middlewares/Third_Party/Huawei/iot_link/network/dtls/mbedtls/mbedtls-2.16.2/library\sha1.c ****     P( C, D, E, A, B, R(38) );
 1716              		.loc 1 224 5 view .LVU661
 224:D:/fchai/work/i-cube/I-CUBE-HUAWEI/Middlewares/Third_Party/Huawei/iot_link/network/dtls/mbedtls/mbedtls-2.16.2/library\sha1.c ****     P( C, D, E, A, B, R(38) );
 1717              		.loc 1 224 5 view .LVU662
 224:D:/fchai/work/i-cube/I-CUBE-HUAWEI/Middlewares/Third_Party/Huawei/iot_link/network/dtls/mbedtls/mbedtls-2.16.2/library\sha1.c ****     P( C, D, E, A, B, R(38) );
 1718              		.loc 1 224 5 view .LVU663
 224:D:/fchai/work/i-cube/I-CUBE-HUAWEI/Middlewares/Third_Party/Huawei/iot_link/network/dtls/mbedtls/mbedtls-2.16.2/library\sha1.c ****     P( C, D, E, A, B, R(38) );
 1719              		.loc 1 224 5 view .LVU664
 225:D:/fchai/work/i-cube/I-CUBE-HUAWEI/Middlewares/Third_Party/Huawei/iot_link/network/dtls/mbedtls/mbedtls-2.16.2/library\sha1.c ****     P( B, C, D, E, A, R(39) );
 1720              		.loc 1 225 5 view .LVU665
 225:D:/fchai/work/i-cube/I-CUBE-HUAWEI/Middlewares/Third_Party/Huawei/iot_link/network/dtls/mbedtls/mbedtls-2.16.2/library\sha1.c ****     P( B, C, D, E, A, R(39) );
 1721              		.loc 1 225 5 view .LVU666
 1722              		.loc 1 243 5 is_stmt 0 view .LVU667
 1723 0922 039A     		ldr	r2, [sp, #12]
 242:D:/fchai/work/i-cube/I-CUBE-HUAWEI/Middlewares/Third_Party/Huawei/iot_link/network/dtls/mbedtls/mbedtls-2.16.2/library\sha1.c ****     P( B, C, D, E, A, R(49) );
 1724              		.loc 1 242 5 view .LVU668
 1725 0924 CDF804C0 		str	ip, [sp, #4]
 1726              	.LVL49:
 1727              		.loc 1 243 5 view .LVU669
 1728 0928 85EAF070 		eor	r0, r5, r0, ror #31
 1729              	.LVL50:
 1730              		.loc 1 243 5 view .LVU670
 1731 092c 80EAF270 		eor	r0, r0, r2, ror #31
 1732 0930 139A     		ldr	r2, [sp, #76]
 1733 0932 80EAF27C 		eor	ip, r0, r2, ror #31
 1734 0936 0198     		ldr	r0, [sp, #4]
 1735 0938 CDF814C0 		str	ip, [sp, #20]
 1736 093c 07EBF072 		add	r2, r7, r0, ror #31
 244:D:/fchai/work/i-cube/I-CUBE-HUAWEI/Middlewares/Third_Party/Huawei/iot_link/network/dtls/mbedtls/mbedtls-2.16.2/library\sha1.c ****     P( A, B, C, D, E, R(50) );
 1737              		.loc 1 244 5 view .LVU671
ARM GAS  T:\msys\tmp\ccBepS7m.s 			page 44


 1738 0940 029F     		ldr	r7, [sp, #8]
 242:D:/fchai/work/i-cube/I-CUBE-HUAWEI/Middlewares/Third_Party/Huawei/iot_link/network/dtls/mbedtls/mbedtls-2.16.2/library\sha1.c ****     P( B, C, D, E, A, R(49) );
 1739              		.loc 1 242 5 view .LVU672
 1740 0942 46EABB00 		orr	r0, r6, fp, ror #2
 1741 0946 02EBB808 		add	r8, r2, r8, ror #2
 1742 094a 00EAB400 		and	r0, r0, r4, ror #2
 1743 094e 06EABB02 		and	r2, r6, fp, ror #2
 1744 0952 4B44     		add	r3, r3, r9
 1745              		.loc 1 244 5 view .LVU673
 1746 0954 81EAF777 		eor	r7, r1, r7, ror #31
 242:D:/fchai/work/i-cube/I-CUBE-HUAWEI/Middlewares/Third_Party/Huawei/iot_link/network/dtls/mbedtls/mbedtls-2.16.2/library\sha1.c ****     P( B, C, D, E, A, R(49) );
 1747              		.loc 1 242 5 view .LVU674
 1748 0958 1043     		orrs	r0, r0, r2
 1749 095a 0599     		ldr	r1, [sp, #20]
 1750              	.LVL51:
 242:D:/fchai/work/i-cube/I-CUBE-HUAWEI/Middlewares/Third_Party/Huawei/iot_link/network/dtls/mbedtls/mbedtls-2.16.2/library\sha1.c ****     P( B, C, D, E, A, R(49) );
 1751              		.loc 1 242 5 view .LVU675
 1752 095c 5F4A     		ldr	r2, .L20
 241:D:/fchai/work/i-cube/I-CUBE-HUAWEI/Middlewares/Third_Party/Huawei/iot_link/network/dtls/mbedtls/mbedtls-2.16.2/library\sha1.c ****     P( C, D, E, A, B, R(48) );
 1753              		.loc 1 241 5 view .LVU676
 1754 095e 03EBF663 		add	r3, r3, r6, ror #27
 243:D:/fchai/work/i-cube/I-CUBE-HUAWEI/Middlewares/Third_Party/Huawei/iot_link/network/dtls/mbedtls/mbedtls-2.16.2/library\sha1.c ****     P( A, B, C, D, E, R(50) );
 1755              		.loc 1 243 5 view .LVU677
 1756 0962 43EAB60C 		orr	ip, r3, r6, ror #2
 1757 0966 02EBF171 		add	r1, r2, r1, ror #31
 1758 096a 01EBB404 		add	r4, r1, r4, ror #2
 1759 096e 0CEABB0C 		and	ip, ip, fp, ror #2
 1760 0972 03EAB601 		and	r1, r3, r6, ror #2
 1761 0976 4CEA010C 		orr	ip, ip, r1
 1762              		.loc 1 244 5 view .LVU678
 1763 097a 1299     		ldr	r1, [sp, #72]
 1764 097c A444     		add	ip, ip, r4
 1765 097e 87EAF177 		eor	r7, r7, r1, ror #31
 245:D:/fchai/work/i-cube/I-CUBE-HUAWEI/Middlewares/Third_Party/Huawei/iot_link/network/dtls/mbedtls/mbedtls-2.16.2/library\sha1.c ****     P( E, A, B, C, D, R(51) );
 1766              		.loc 1 245 5 view .LVU679
 1767 0982 0699     		ldr	r1, [sp, #24]
 244:D:/fchai/work/i-cube/I-CUBE-HUAWEI/Middlewares/Third_Party/Huawei/iot_link/network/dtls/mbedtls/mbedtls-2.16.2/library\sha1.c ****     P( E, A, B, C, D, R(51) );
 1768              		.loc 1 244 5 view .LVU680
 1769 0984 099C     		ldr	r4, [sp, #36]
 1770 0986 87EAF47E 		eor	lr, r7, r4, ror #31
 1771              		.loc 1 245 5 view .LVU681
 1772 098a 0E9F     		ldr	r7, [sp, #56]
 226:D:/fchai/work/i-cube/I-CUBE-HUAWEI/Middlewares/Third_Party/Huawei/iot_link/network/dtls/mbedtls/mbedtls-2.16.2/library\sha1.c **** 
 1773              		.loc 1 226 5 view .LVU682
 1774 098c 109C     		ldr	r4, [sp, #64]
 1775              		.loc 1 245 5 view .LVU683
 1776 098e 85EAF175 		eor	r5, r5, r1, ror #31
 1777              	.LVL52:
 1778              		.loc 1 245 5 view .LVU684
 1779 0992 08EBF368 		add	r8, r8, r3, ror #27
 1780 0996 85EAF775 		eor	r5, r5, r7, ror #31
 1781 099a 019F     		ldr	r7, [sp, #4]
 242:D:/fchai/work/i-cube/I-CUBE-HUAWEI/Middlewares/Third_Party/Huawei/iot_link/network/dtls/mbedtls/mbedtls-2.16.2/library\sha1.c ****     P( B, C, D, E, A, R(49) );
 1782              		.loc 1 242 5 view .LVU685
 1783 099c 4044     		add	r0, r0, r8
 243:D:/fchai/work/i-cube/I-CUBE-HUAWEI/Middlewares/Third_Party/Huawei/iot_link/network/dtls/mbedtls/mbedtls-2.16.2/library\sha1.c ****     P( A, B, C, D, E, R(50) );
 1784              		.loc 1 243 5 view .LVU686
ARM GAS  T:\msys\tmp\ccBepS7m.s 			page 45


 1785 099e 0CEBF06C 		add	ip, ip, r0, ror #27
 244:D:/fchai/work/i-cube/I-CUBE-HUAWEI/Middlewares/Third_Party/Huawei/iot_link/network/dtls/mbedtls/mbedtls-2.16.2/library\sha1.c ****     P( E, A, B, C, D, R(51) );
 1786              		.loc 1 244 5 view .LVU687
 1787 09a2 7146     		mov	r1, lr
 1788              		.loc 1 245 5 view .LVU688
 1789 09a4 85EAF77E 		eor	lr, r5, r7, ror #31
 225:D:/fchai/work/i-cube/I-CUBE-HUAWEI/Middlewares/Third_Party/Huawei/iot_link/network/dtls/mbedtls/mbedtls-2.16.2/library\sha1.c ****     P( B, C, D, E, A, R(39) );
 1790              		.loc 1 225 5 view .LVU689
 1791 09a8 0A9F     		ldr	r7, [sp, #40]
 1792              		.loc 1 245 5 view .LVU690
 1793 09aa CDF82CE0 		str	lr, [sp, #44]
 1794              	.LVL53:
 1795              		.loc 1 245 5 view .LVU691
 1796 09ae 0F91     		str	r1, [sp, #60]
 1797              	.LVL54:
 226:D:/fchai/work/i-cube/I-CUBE-HUAWEI/Middlewares/Third_Party/Huawei/iot_link/network/dtls/mbedtls/mbedtls-2.16.2/library\sha1.c **** 
 1798              		.loc 1 226 5 view .LVU692
 1799 09b0 4FEAF474 		ror	r4, r4, #31
 1800 09b4 02EBF171 		add	r1, r2, r1, ror #31
 1801              		.loc 1 245 5 view .LVU693
 1802 09b8 4CEAB002 		orr	r2, ip, r0, ror #2
 244:D:/fchai/work/i-cube/I-CUBE-HUAWEI/Middlewares/Third_Party/Huawei/iot_link/network/dtls/mbedtls/mbedtls-2.16.2/library\sha1.c ****     P( E, A, B, C, D, R(51) );
 1803              		.loc 1 244 5 view .LVU694
 1804 09bc 40EAB305 		orr	r5, r0, r3, ror #2
 225:D:/fchai/work/i-cube/I-CUBE-HUAWEI/Middlewares/Third_Party/Huawei/iot_link/network/dtls/mbedtls/mbedtls-2.16.2/library\sha1.c ****     P( B, C, D, E, A, R(39) );
 1805              		.loc 1 225 5 view .LVU695
 1806 09c0 4FEAF778 		ror	r8, r7, #31
 1807              	.LVL55:
 225:D:/fchai/work/i-cube/I-CUBE-HUAWEI/Middlewares/Third_Party/Huawei/iot_link/network/dtls/mbedtls/mbedtls-2.16.2/library\sha1.c ****     P( B, C, D, E, A, R(39) );
 1808              		.loc 1 225 5 is_stmt 1 view .LVU696
 225:D:/fchai/work/i-cube/I-CUBE-HUAWEI/Middlewares/Third_Party/Huawei/iot_link/network/dtls/mbedtls/mbedtls-2.16.2/library\sha1.c ****     P( B, C, D, E, A, R(39) );
 1809              		.loc 1 225 5 view .LVU697
 226:D:/fchai/work/i-cube/I-CUBE-HUAWEI/Middlewares/Third_Party/Huawei/iot_link/network/dtls/mbedtls/mbedtls-2.16.2/library\sha1.c **** 
 1810              		.loc 1 226 5 view .LVU698
 226:D:/fchai/work/i-cube/I-CUBE-HUAWEI/Middlewares/Third_Party/Huawei/iot_link/network/dtls/mbedtls/mbedtls-2.16.2/library\sha1.c **** 
 1811              		.loc 1 226 5 view .LVU699
 226:D:/fchai/work/i-cube/I-CUBE-HUAWEI/Middlewares/Third_Party/Huawei/iot_link/network/dtls/mbedtls/mbedtls-2.16.2/library\sha1.c **** 
 1812              		.loc 1 226 5 is_stmt 0 view .LVU700
 1813 09c4 01EBBB01 		add	r1, r1, fp, ror #2
 246:D:/fchai/work/i-cube/I-CUBE-HUAWEI/Middlewares/Third_Party/Huawei/iot_link/network/dtls/mbedtls/mbedtls-2.16.2/library\sha1.c ****     P( D, E, A, B, C, R(52) );
 1814              		.loc 1 246 5 view .LVU701
 1815 09c8 029F     		ldr	r7, [sp, #8]
 226:D:/fchai/work/i-cube/I-CUBE-HUAWEI/Middlewares/Third_Party/Huawei/iot_link/network/dtls/mbedtls/mbedtls-2.16.2/library\sha1.c **** 
 1816              		.loc 1 226 5 view .LVU702
 1817 09ca 0294     		str	r4, [sp, #8]
 1818              	.LVL56:
 245:D:/fchai/work/i-cube/I-CUBE-HUAWEI/Middlewares/Third_Party/Huawei/iot_link/network/dtls/mbedtls/mbedtls-2.16.2/library\sha1.c ****     P( D, E, A, B, C, R(52) );
 1819              		.loc 1 245 5 view .LVU703
 1820 09cc 02EAB30B 		and	fp, r2, r3, ror #2
 1821              	.LVL57:
 226:D:/fchai/work/i-cube/I-CUBE-HUAWEI/Middlewares/Third_Party/Huawei/iot_link/network/dtls/mbedtls/mbedtls-2.16.2/library\sha1.c **** 
 1822              		.loc 1 226 5 is_stmt 1 view .LVU704
 226:D:/fchai/work/i-cube/I-CUBE-HUAWEI/Middlewares/Third_Party/Huawei/iot_link/network/dtls/mbedtls/mbedtls-2.16.2/library\sha1.c **** 
 1823              		.loc 1 226 5 view .LVU705
 234:D:/fchai/work/i-cube/I-CUBE-HUAWEI/Middlewares/Third_Party/Huawei/iot_link/network/dtls/mbedtls/mbedtls-2.16.2/library\sha1.c ****     P( E, A, B, C, D, R(41) );
 1824              		.loc 1 234 5 view .LVU706
 234:D:/fchai/work/i-cube/I-CUBE-HUAWEI/Middlewares/Third_Party/Huawei/iot_link/network/dtls/mbedtls/mbedtls-2.16.2/library\sha1.c ****     P( E, A, B, C, D, R(41) );
ARM GAS  T:\msys\tmp\ccBepS7m.s 			page 46


 1825              		.loc 1 234 5 view .LVU707
 234:D:/fchai/work/i-cube/I-CUBE-HUAWEI/Middlewares/Third_Party/Huawei/iot_link/network/dtls/mbedtls/mbedtls-2.16.2/library\sha1.c ****     P( E, A, B, C, D, R(41) );
 1826              		.loc 1 234 5 view .LVU708
 234:D:/fchai/work/i-cube/I-CUBE-HUAWEI/Middlewares/Third_Party/Huawei/iot_link/network/dtls/mbedtls/mbedtls-2.16.2/library\sha1.c ****     P( E, A, B, C, D, R(41) );
 1827              		.loc 1 234 5 view .LVU709
 235:D:/fchai/work/i-cube/I-CUBE-HUAWEI/Middlewares/Third_Party/Huawei/iot_link/network/dtls/mbedtls/mbedtls-2.16.2/library\sha1.c ****     P( D, E, A, B, C, R(42) );
 1828              		.loc 1 235 5 view .LVU710
 235:D:/fchai/work/i-cube/I-CUBE-HUAWEI/Middlewares/Third_Party/Huawei/iot_link/network/dtls/mbedtls/mbedtls-2.16.2/library\sha1.c ****     P( D, E, A, B, C, R(42) );
 1829              		.loc 1 235 5 view .LVU711
 235:D:/fchai/work/i-cube/I-CUBE-HUAWEI/Middlewares/Third_Party/Huawei/iot_link/network/dtls/mbedtls/mbedtls-2.16.2/library\sha1.c ****     P( D, E, A, B, C, R(42) );
 1830              		.loc 1 235 5 view .LVU712
 235:D:/fchai/work/i-cube/I-CUBE-HUAWEI/Middlewares/Third_Party/Huawei/iot_link/network/dtls/mbedtls/mbedtls-2.16.2/library\sha1.c ****     P( D, E, A, B, C, R(42) );
 1831              		.loc 1 235 5 view .LVU713
 236:D:/fchai/work/i-cube/I-CUBE-HUAWEI/Middlewares/Third_Party/Huawei/iot_link/network/dtls/mbedtls/mbedtls-2.16.2/library\sha1.c ****     P( C, D, E, A, B, R(43) );
 1832              		.loc 1 236 5 view .LVU714
 236:D:/fchai/work/i-cube/I-CUBE-HUAWEI/Middlewares/Third_Party/Huawei/iot_link/network/dtls/mbedtls/mbedtls-2.16.2/library\sha1.c ****     P( C, D, E, A, B, R(43) );
 1833              		.loc 1 236 5 view .LVU715
 236:D:/fchai/work/i-cube/I-CUBE-HUAWEI/Middlewares/Third_Party/Huawei/iot_link/network/dtls/mbedtls/mbedtls-2.16.2/library\sha1.c ****     P( C, D, E, A, B, R(43) );
 1834              		.loc 1 236 5 is_stmt 0 view .LVU716
 1835 09d0 424C     		ldr	r4, .L20
 1836              	.LVL58:
 236:D:/fchai/work/i-cube/I-CUBE-HUAWEI/Middlewares/Third_Party/Huawei/iot_link/network/dtls/mbedtls/mbedtls-2.16.2/library\sha1.c ****     P( C, D, E, A, B, R(43) );
 1837              		.loc 1 236 5 view .LVU717
 1838 09d2 0B9A     		ldr	r2, [sp, #44]
 244:D:/fchai/work/i-cube/I-CUBE-HUAWEI/Middlewares/Third_Party/Huawei/iot_link/network/dtls/mbedtls/mbedtls-2.16.2/library\sha1.c ****     P( E, A, B, C, D, R(51) );
 1839              		.loc 1 244 5 view .LVU718
 1840 09d4 00EAB30E 		and	lr, r0, r3, ror #2
 1841 09d8 05EAB605 		and	r5, r5, r6, ror #2
 1842 09dc 45EA0E05 		orr	r5, r5, lr
 1843 09e0 04EBF27E 		add	lr, r4, r2, ror #31
 1844 09e4 0EEBB60E 		add	lr, lr, r6, ror #2
 245:D:/fchai/work/i-cube/I-CUBE-HUAWEI/Middlewares/Third_Party/Huawei/iot_link/network/dtls/mbedtls/mbedtls-2.16.2/library\sha1.c ****     P( D, E, A, B, C, R(52) );
 1845              		.loc 1 245 5 view .LVU719
 1846 09e8 0CEAB006 		and	r6, ip, r0, ror #2
 1847 09ec 4BEA0602 		orr	r2, fp, r6
 247:D:/fchai/work/i-cube/I-CUBE-HUAWEI/Middlewares/Third_Party/Huawei/iot_link/network/dtls/mbedtls/mbedtls-2.16.2/library\sha1.c ****     P( C, D, E, A, B, R(53) );
 1848              		.loc 1 247 5 view .LVU720
 1849 09f0 069E     		ldr	r6, [sp, #24]
 1850 09f2 B146     		mov	r9, r6
 1851 09f4 029E     		ldr	r6, [sp, #8]
 1852 09f6 01EBFC61 		add	r1, r1, ip, ror #27
 246:D:/fchai/work/i-cube/I-CUBE-HUAWEI/Middlewares/Third_Party/Huawei/iot_link/network/dtls/mbedtls/mbedtls-2.16.2/library\sha1.c ****     P( C, D, E, A, B, R(53) );
 1853              		.loc 1 246 5 view .LVU721
 1854 09fa 88EAF777 		eor	r7, r8, r7, ror #31
 1855              	.LVL59:
 1856              		.loc 1 247 5 view .LVU722
 1857 09fe 86EAF976 		eor	r6, r6, r9, ror #31
 244:D:/fchai/work/i-cube/I-CUBE-HUAWEI/Middlewares/Third_Party/Huawei/iot_link/network/dtls/mbedtls/mbedtls-2.16.2/library\sha1.c ****     P( E, A, B, C, D, R(51) );
 1858              		.loc 1 244 5 view .LVU723
 1859 0a02 05EB0109 		add	r9, r5, r1
 246:D:/fchai/work/i-cube/I-CUBE-HUAWEI/Middlewares/Third_Party/Huawei/iot_link/network/dtls/mbedtls/mbedtls-2.16.2/library\sha1.c ****     P( C, D, E, A, B, R(53) );
 1860              		.loc 1 246 5 view .LVU724
 1861 0a06 0599     		ldr	r1, [sp, #20]
 1862 0a08 87EAFA77 		eor	r7, r7, r10, ror #31
 1863 0a0c 7244     		add	r2, r2, lr
 1864 0a0e 87EAF17E 		eor	lr, r7, r1, ror #31
 1865              		.loc 1 247 5 view .LVU725
ARM GAS  T:\msys\tmp\ccBepS7m.s 			page 47


 1866 0a12 049F     		ldr	r7, [sp, #16]
 1867 0a14 86EAF776 		eor	r6, r6, r7, ror #31
 1868 0a18 0F9F     		ldr	r7, [sp, #60]
 246:D:/fchai/work/i-cube/I-CUBE-HUAWEI/Middlewares/Third_Party/Huawei/iot_link/network/dtls/mbedtls/mbedtls-2.16.2/library\sha1.c ****     P( C, D, E, A, B, R(53) );
 1869              		.loc 1 246 5 view .LVU726
 1870 0a1a 7546     		mov	r5, lr
 1871              		.loc 1 247 5 view .LVU727
 1872 0a1c 86EAF77E 		eor	lr, r6, r7, ror #31
 1873 0a20 2E4E     		ldr	r6, .L20
 248:D:/fchai/work/i-cube/I-CUBE-HUAWEI/Middlewares/Third_Party/Huawei/iot_link/network/dtls/mbedtls/mbedtls-2.16.2/library\sha1.c ****     P( B, C, D, E, A, R(54) );
 1874              		.loc 1 248 5 view .LVU728
 1875 0a22 0C9F     		ldr	r7, [sp, #48]
 1876 0a24 0695     		str	r5, [sp, #24]
 1877              	.LVL60:
 247:D:/fchai/work/i-cube/I-CUBE-HUAWEI/Middlewares/Third_Party/Huawei/iot_link/network/dtls/mbedtls/mbedtls-2.16.2/library\sha1.c ****     P( B, C, D, E, A, R(54) );
 1878              		.loc 1 247 5 view .LVU729
 1879 0a26 7446     		mov	r4, lr
 1880 0a28 06EBF575 		add	r5, r6, r5, ror #31
 246:D:/fchai/work/i-cube/I-CUBE-HUAWEI/Middlewares/Third_Party/Huawei/iot_link/network/dtls/mbedtls/mbedtls-2.16.2/library\sha1.c ****     P( C, D, E, A, B, R(53) );
 1881              		.loc 1 246 5 view .LVU730
 1882 0a2c 49EABC0E 		orr	lr, r9, ip, ror #2
 245:D:/fchai/work/i-cube/I-CUBE-HUAWEI/Middlewares/Third_Party/Huawei/iot_link/network/dtls/mbedtls/mbedtls-2.16.2/library\sha1.c ****     P( D, E, A, B, C, R(52) );
 1883              		.loc 1 245 5 view .LVU731
 1884 0a30 02EBF962 		add	r2, r2, r9, ror #27
 1885 0a34 05EBB303 		add	r3, r5, r3, ror #2
 246:D:/fchai/work/i-cube/I-CUBE-HUAWEI/Middlewares/Third_Party/Huawei/iot_link/network/dtls/mbedtls/mbedtls-2.16.2/library\sha1.c ****     P( C, D, E, A, B, R(53) );
 1886              		.loc 1 246 5 view .LVU732
 1887 0a38 0EEAB00E 		and	lr, lr, r0, ror #2
 1888 0a3c 09EABC05 		and	r5, r9, ip, ror #2
 1889 0a40 03EBF263 		add	r3, r3, r2, ror #27
 1890              		.loc 1 248 5 view .LVU733
 1891 0a44 88EAF778 		eor	r8, r8, r7, ror #31
 1892              	.LVL61:
 246:D:/fchai/work/i-cube/I-CUBE-HUAWEI/Middlewares/Third_Party/Huawei/iot_link/network/dtls/mbedtls/mbedtls-2.16.2/library\sha1.c ****     P( C, D, E, A, B, R(53) );
 1893              		.loc 1 246 5 view .LVU734
 1894 0a48 4EEA050E 		orr	lr, lr, r5
 1895              		.loc 1 248 5 view .LVU735
 1896 0a4c 139F     		ldr	r7, [sp, #76]
 1897 0a4e 0A94     		str	r4, [sp, #40]
 1898              	.LVL62:
 246:D:/fchai/work/i-cube/I-CUBE-HUAWEI/Middlewares/Third_Party/Huawei/iot_link/network/dtls/mbedtls/mbedtls-2.16.2/library\sha1.c ****     P( C, D, E, A, B, R(53) );
 1899              		.loc 1 246 5 view .LVU736
 1900 0a50 9E44     		add	lr, lr, r3
 1901              		.loc 1 248 5 view .LVU737
 1902 0a52 0B9B     		ldr	r3, [sp, #44]
 1903 0a54 06EBF475 		add	r5, r6, r4, ror #31
 1904 0a58 88EAF778 		eor	r8, r8, r7, ror #31
 249:D:/fchai/work/i-cube/I-CUBE-HUAWEI/Middlewares/Third_Party/Huawei/iot_link/network/dtls/mbedtls/mbedtls-2.16.2/library\sha1.c ****     P( A, B, C, D, E, R(55) );
 1905              		.loc 1 249 5 view .LVU738
 1906 0a5c 029C     		ldr	r4, [sp, #8]
 1907 0a5e 039F     		ldr	r7, [sp, #12]
 248:D:/fchai/work/i-cube/I-CUBE-HUAWEI/Middlewares/Third_Party/Huawei/iot_link/network/dtls/mbedtls/mbedtls-2.16.2/library\sha1.c ****     P( A, B, C, D, E, R(55) );
 1908              		.loc 1 248 5 view .LVU739
 1909 0a60 88EAF378 		eor	r8, r8, r3, ror #31
 1910              		.loc 1 249 5 view .LVU740
 1911 0a64 099B     		ldr	r3, [sp, #36]
 247:D:/fchai/work/i-cube/I-CUBE-HUAWEI/Middlewares/Third_Party/Huawei/iot_link/network/dtls/mbedtls/mbedtls-2.16.2/library\sha1.c ****     P( B, C, D, E, A, R(54) );
ARM GAS  T:\msys\tmp\ccBepS7m.s 			page 48


 1912              		.loc 1 247 5 view .LVU741
 1913 0a66 42EAB901 		orr	r1, r2, r9, ror #2
 1914              		.loc 1 249 5 view .LVU742
 1915 0a6a 84EAF774 		eor	r4, r4, r7, ror #31
 1916 0a6e 84EAF374 		eor	r4, r4, r3, ror #31
 247:D:/fchai/work/i-cube/I-CUBE-HUAWEI/Middlewares/Third_Party/Huawei/iot_link/network/dtls/mbedtls/mbedtls-2.16.2/library\sha1.c ****     P( B, C, D, E, A, R(54) );
 1917              		.loc 1 247 5 view .LVU743
 1918 0a72 01EABC01 		and	r1, r1, ip, ror #2
 1919              		.loc 1 249 5 view .LVU744
 1920 0a76 069B     		ldr	r3, [sp, #24]
 236:D:/fchai/work/i-cube/I-CUBE-HUAWEI/Middlewares/Third_Party/Huawei/iot_link/network/dtls/mbedtls/mbedtls-2.16.2/library\sha1.c ****     P( C, D, E, A, B, R(43) );
 1921              		.loc 1 236 5 view .LVU745
 1922 0a78 129F     		ldr	r7, [sp, #72]
 1923 0a7a 05EBB000 		add	r0, r5, r0, ror #2
 247:D:/fchai/work/i-cube/I-CUBE-HUAWEI/Middlewares/Third_Party/Huawei/iot_link/network/dtls/mbedtls/mbedtls-2.16.2/library\sha1.c ****     P( B, C, D, E, A, R(54) );
 1924              		.loc 1 247 5 view .LVU746
 1925 0a7e 02EAB905 		and	r5, r2, r9, ror #2
 1926 0a82 2943     		orrs	r1, r1, r5
 1927 0a84 0844     		add	r0, r0, r1
 248:D:/fchai/work/i-cube/I-CUBE-HUAWEI/Middlewares/Third_Party/Huawei/iot_link/network/dtls/mbedtls/mbedtls-2.16.2/library\sha1.c ****     P( A, B, C, D, E, R(55) );
 1928              		.loc 1 248 5 view .LVU747
 1929 0a86 4146     		mov	r1, r8
 1930              		.loc 1 249 5 view .LVU748
 1931 0a88 84EAF378 		eor	r8, r4, r3, ror #31
 248:D:/fchai/work/i-cube/I-CUBE-HUAWEI/Middlewares/Third_Party/Huawei/iot_link/network/dtls/mbedtls/mbedtls-2.16.2/library\sha1.c ****     P( A, B, C, D, E, R(55) );
 1932              		.loc 1 248 5 view .LVU749
 1933 0a8c 4EEAB203 		orr	r3, lr, r2, ror #2
 1934              		.loc 1 249 5 view .LVU750
 1935 0a90 CDF83480 		str	r8, [sp, #52]
 1936              	.LVL63:
 248:D:/fchai/work/i-cube/I-CUBE-HUAWEI/Middlewares/Third_Party/Huawei/iot_link/network/dtls/mbedtls/mbedtls-2.16.2/library\sha1.c ****     P( A, B, C, D, E, R(55) );
 1937              		.loc 1 248 5 view .LVU751
 1938 0a94 0EEAB205 		and	r5, lr, r2, ror #2
 1939 0a98 03EAB903 		and	r3, r3, r9, ror #2
 247:D:/fchai/work/i-cube/I-CUBE-HUAWEI/Middlewares/Third_Party/Huawei/iot_link/network/dtls/mbedtls/mbedtls-2.16.2/library\sha1.c ****     P( B, C, D, E, A, R(54) );
 1940              		.loc 1 247 5 view .LVU752
 1941 0a9c 00EBFE60 		add	r0, r0, lr, ror #27
 248:D:/fchai/work/i-cube/I-CUBE-HUAWEI/Middlewares/Third_Party/Huawei/iot_link/network/dtls/mbedtls/mbedtls-2.16.2/library\sha1.c ****     P( A, B, C, D, E, R(55) );
 1942              		.loc 1 248 5 view .LVU753
 1943 0aa0 2B43     		orrs	r3, r3, r5
 1944 0aa2 0D9D     		ldr	r5, [sp, #52]
 250:D:/fchai/work/i-cube/I-CUBE-HUAWEI/Middlewares/Third_Party/Huawei/iot_link/network/dtls/mbedtls/mbedtls-2.16.2/library\sha1.c ****     P( E, A, B, C, D, R(56) );
 1945              		.loc 1 250 5 view .LVU754
 1946 0aa4 0C9C     		ldr	r4, [sp, #48]
 1947 0aa6 1091     		str	r1, [sp, #64]
 249:D:/fchai/work/i-cube/I-CUBE-HUAWEI/Middlewares/Third_Party/Huawei/iot_link/network/dtls/mbedtls/mbedtls-2.16.2/library\sha1.c ****     P( E, A, B, C, D, R(56) );
 1948              		.loc 1 249 5 view .LVU755
 1949 0aa8 40EABE0B 		orr	fp, r0, lr, ror #2
 1950 0aac 06EBF171 		add	r1, r6, r1, ror #31
 1951 0ab0 0BEAB20B 		and	fp, fp, r2, ror #2
 1952 0ab4 06EBF575 		add	r5, r6, r5, ror #31
 1953 0ab8 00EABE06 		and	r6, r0, lr, ror #2
 236:D:/fchai/work/i-cube/I-CUBE-HUAWEI/Middlewares/Third_Party/Huawei/iot_link/network/dtls/mbedtls/mbedtls-2.16.2/library\sha1.c ****     P( C, D, E, A, B, R(43) );
 1954              		.loc 1 236 5 view .LVU756
 1955 0abc 4FEAF777 		ror	r7, r7, #31
 236:D:/fchai/work/i-cube/I-CUBE-HUAWEI/Middlewares/Third_Party/Huawei/iot_link/network/dtls/mbedtls/mbedtls-2.16.2/library\sha1.c ****     P( C, D, E, A, B, R(43) );
 1956              		.loc 1 236 5 is_stmt 1 view .LVU757
ARM GAS  T:\msys\tmp\ccBepS7m.s 			page 49


 236:D:/fchai/work/i-cube/I-CUBE-HUAWEI/Middlewares/Third_Party/Huawei/iot_link/network/dtls/mbedtls/mbedtls-2.16.2/library\sha1.c ****     P( C, D, E, A, B, R(43) );
 1957              		.loc 1 236 5 view .LVU758
 237:D:/fchai/work/i-cube/I-CUBE-HUAWEI/Middlewares/Third_Party/Huawei/iot_link/network/dtls/mbedtls/mbedtls-2.16.2/library\sha1.c ****     P( B, C, D, E, A, R(44) );
 1958              		.loc 1 237 5 view .LVU759
 237:D:/fchai/work/i-cube/I-CUBE-HUAWEI/Middlewares/Third_Party/Huawei/iot_link/network/dtls/mbedtls/mbedtls-2.16.2/library\sha1.c ****     P( B, C, D, E, A, R(44) );
 1959              		.loc 1 237 5 view .LVU760
 1960              	.LVL64:
 249:D:/fchai/work/i-cube/I-CUBE-HUAWEI/Middlewares/Third_Party/Huawei/iot_link/network/dtls/mbedtls/mbedtls-2.16.2/library\sha1.c ****     P( E, A, B, C, D, R(56) );
 1961              		.loc 1 249 5 is_stmt 0 view .LVU761
 1962 0ac0 4BEA060B 		orr	fp, fp, r6
 1963              		.loc 1 250 5 view .LVU762
 1964 0ac4 019E     		ldr	r6, [sp, #4]
 1965 0ac6 01EBBC01 		add	r1, r1, ip, ror #2
 1966 0aca 87EAF47C 		eor	ip, r7, r4, ror #31
 237:D:/fchai/work/i-cube/I-CUBE-HUAWEI/Middlewares/Third_Party/Huawei/iot_link/network/dtls/mbedtls/mbedtls-2.16.2/library\sha1.c ****     P( B, C, D, E, A, R(44) );
 1967              		.loc 1 237 5 view .LVU763
 1968 0ace 0E9C     		ldr	r4, [sp, #56]
 1969              	.LVL65:
 1970              		.loc 1 250 5 view .LVU764
 1971 0ad0 8CEAF67C 		eor	ip, ip, r6, ror #31
 251:D:/fchai/work/i-cube/I-CUBE-HUAWEI/Middlewares/Third_Party/Huawei/iot_link/network/dtls/mbedtls/mbedtls-2.16.2/library\sha1.c ****     P( D, E, A, B, C, R(57) );
 1972              		.loc 1 251 5 view .LVU765
 1973 0ad4 039E     		ldr	r6, [sp, #12]
 1974 0ad6 05EBB905 		add	r5, r5, r9, ror #2
 1975 0ada 01E0     		b	.L21
 1976              	.L22:
 1977              		.align	2
 1978              	.L20:
 1979 0adc DCBC1B8F 		.word	-1894007588
 1980              	.L21:
 237:D:/fchai/work/i-cube/I-CUBE-HUAWEI/Middlewares/Third_Party/Huawei/iot_link/network/dtls/mbedtls/mbedtls-2.16.2/library\sha1.c ****     P( B, C, D, E, A, R(44) );
 1981              		.loc 1 237 5 view .LVU766
 1982 0ae0 4FEAF474 		ror	r4, r4, #31
 237:D:/fchai/work/i-cube/I-CUBE-HUAWEI/Middlewares/Third_Party/Huawei/iot_link/network/dtls/mbedtls/mbedtls-2.16.2/library\sha1.c ****     P( B, C, D, E, A, R(44) );
 1983              		.loc 1 237 5 is_stmt 1 view .LVU767
 237:D:/fchai/work/i-cube/I-CUBE-HUAWEI/Middlewares/Third_Party/Huawei/iot_link/network/dtls/mbedtls/mbedtls-2.16.2/library\sha1.c ****     P( B, C, D, E, A, R(44) );
 1984              		.loc 1 237 5 view .LVU768
 238:D:/fchai/work/i-cube/I-CUBE-HUAWEI/Middlewares/Third_Party/Huawei/iot_link/network/dtls/mbedtls/mbedtls-2.16.2/library\sha1.c ****     P( A, B, C, D, E, R(45) );
 1985              		.loc 1 238 5 view .LVU769
 238:D:/fchai/work/i-cube/I-CUBE-HUAWEI/Middlewares/Third_Party/Huawei/iot_link/network/dtls/mbedtls/mbedtls-2.16.2/library\sha1.c ****     P( A, B, C, D, E, R(45) );
 1986              		.loc 1 238 5 view .LVU770
 1987              	.LVL66:
 238:D:/fchai/work/i-cube/I-CUBE-HUAWEI/Middlewares/Third_Party/Huawei/iot_link/network/dtls/mbedtls/mbedtls-2.16.2/library\sha1.c ****     P( A, B, C, D, E, R(45) );
 1988              		.loc 1 238 5 view .LVU771
 238:D:/fchai/work/i-cube/I-CUBE-HUAWEI/Middlewares/Third_Party/Huawei/iot_link/network/dtls/mbedtls/mbedtls-2.16.2/library\sha1.c ****     P( A, B, C, D, E, R(45) );
 1989              		.loc 1 238 5 view .LVU772
 239:D:/fchai/work/i-cube/I-CUBE-HUAWEI/Middlewares/Third_Party/Huawei/iot_link/network/dtls/mbedtls/mbedtls-2.16.2/library\sha1.c ****     P( E, A, B, C, D, R(46) );
 1990              		.loc 1 239 5 view .LVU773
 239:D:/fchai/work/i-cube/I-CUBE-HUAWEI/Middlewares/Third_Party/Huawei/iot_link/network/dtls/mbedtls/mbedtls-2.16.2/library\sha1.c ****     P( E, A, B, C, D, R(46) );
 1991              		.loc 1 239 5 view .LVU774
 239:D:/fchai/work/i-cube/I-CUBE-HUAWEI/Middlewares/Third_Party/Huawei/iot_link/network/dtls/mbedtls/mbedtls-2.16.2/library\sha1.c ****     P( E, A, B, C, D, R(46) );
 1992              		.loc 1 239 5 view .LVU775
 239:D:/fchai/work/i-cube/I-CUBE-HUAWEI/Middlewares/Third_Party/Huawei/iot_link/network/dtls/mbedtls/mbedtls-2.16.2/library\sha1.c ****     P( E, A, B, C, D, R(46) );
 1993              		.loc 1 239 5 view .LVU776
 240:D:/fchai/work/i-cube/I-CUBE-HUAWEI/Middlewares/Third_Party/Huawei/iot_link/network/dtls/mbedtls/mbedtls-2.16.2/library\sha1.c ****     P( D, E, A, B, C, R(47) );
 1994              		.loc 1 240 5 view .LVU777
 240:D:/fchai/work/i-cube/I-CUBE-HUAWEI/Middlewares/Third_Party/Huawei/iot_link/network/dtls/mbedtls/mbedtls-2.16.2/library\sha1.c ****     P( D, E, A, B, C, R(47) );
ARM GAS  T:\msys\tmp\ccBepS7m.s 			page 50


 1995              		.loc 1 240 5 view .LVU778
 240:D:/fchai/work/i-cube/I-CUBE-HUAWEI/Middlewares/Third_Party/Huawei/iot_link/network/dtls/mbedtls/mbedtls-2.16.2/library\sha1.c ****     P( D, E, A, B, C, R(47) );
 1996              		.loc 1 240 5 is_stmt 0 view .LVU779
 1997 0ae4 01EBF061 		add	r1, r1, r0, ror #27
 1998              		.loc 1 251 5 view .LVU780
 1999 0ae8 84EAF678 		eor	r8, r4, r6, ror #31
 2000 0aec AB44     		add	fp, fp, r5
 250:D:/fchai/work/i-cube/I-CUBE-HUAWEI/Middlewares/Third_Party/Huawei/iot_link/network/dtls/mbedtls/mbedtls-2.16.2/library\sha1.c ****     P( D, E, A, B, C, R(57) );
 2001              		.loc 1 250 5 view .LVU781
 2002 0aee 0A9E     		ldr	r6, [sp, #40]
 2003              		.loc 1 251 5 view .LVU782
 2004 0af0 059D     		ldr	r5, [sp, #20]
 248:D:/fchai/work/i-cube/I-CUBE-HUAWEI/Middlewares/Third_Party/Huawei/iot_link/network/dtls/mbedtls/mbedtls-2.16.2/library\sha1.c ****     P( A, B, C, D, E, R(55) );
 2005              		.loc 1 248 5 view .LVU783
 2006 0af2 0B44     		add	r3, r3, r1
 2007              		.loc 1 251 5 view .LVU784
 2008 0af4 1099     		ldr	r1, [sp, #64]
 2009 0af6 88EAF578 		eor	r8, r8, r5, ror #31
 250:D:/fchai/work/i-cube/I-CUBE-HUAWEI/Middlewares/Third_Party/Huawei/iot_link/network/dtls/mbedtls/mbedtls-2.16.2/library\sha1.c ****     P( D, E, A, B, C, R(57) );
 2010              		.loc 1 250 5 view .LVU785
 2011 0afa 8CEAF67C 		eor	ip, ip, r6, ror #31
 2012 0afe 6646     		mov	r6, ip
 2013              		.loc 1 251 5 view .LVU786
 2014 0b00 88EAF17C 		eor	ip, r8, r1, ror #31
 2015 0b04 D449     		ldr	r1, .L23
 2016 0b06 CDF808C0 		str	ip, [sp, #8]
 2017              	.LVL67:
 2018              		.loc 1 251 5 view .LVU787
 2019 0b0a 01EBF675 		add	r5, r1, r6, ror #31
 250:D:/fchai/work/i-cube/I-CUBE-HUAWEI/Middlewares/Third_Party/Huawei/iot_link/network/dtls/mbedtls/mbedtls-2.16.2/library\sha1.c ****     P( D, E, A, B, C, R(57) );
 2020              		.loc 1 250 5 view .LVU788
 2021 0b0e 43EAB009 		orr	r9, r3, r0, ror #2
 2022 0b12 05EBB205 		add	r5, r5, r2, ror #2
 2023 0b16 09EABE09 		and	r9, r9, lr, ror #2
 2024 0b1a 03EAB002 		and	r2, r3, r0, ror #2
 2025 0b1e 49EA0209 		orr	r9, r9, r2
 2026 0b22 029A     		ldr	r2, [sp, #8]
 2027 0b24 0396     		str	r6, [sp, #12]
 249:D:/fchai/work/i-cube/I-CUBE-HUAWEI/Middlewares/Third_Party/Huawei/iot_link/network/dtls/mbedtls/mbedtls-2.16.2/library\sha1.c ****     P( E, A, B, C, D, R(56) );
 2028              		.loc 1 249 5 view .LVU789
 2029 0b26 0BEBF36B 		add	fp, fp, r3, ror #27
 2030              		.loc 1 251 5 view .LVU790
 2031 0b2a 4BEAB308 		orr	r8, fp, r3, ror #2
 2032 0b2e 01EBF272 		add	r2, r1, r2, ror #31
 2033 0b32 02EBBE0E 		add	lr, r2, lr, ror #2
 2034 0b36 08EAB008 		and	r8, r8, r0, ror #2
 2035 0b3a 0BEAB302 		and	r2, fp, r3, ror #2
 2036 0b3e 48EA0208 		orr	r8, r8, r2
 252:D:/fchai/work/i-cube/I-CUBE-HUAWEI/Middlewares/Third_Party/Huawei/iot_link/network/dtls/mbedtls/mbedtls-2.16.2/library\sha1.c ****     P( C, D, E, A, B, R(58) );
 2037              		.loc 1 252 5 view .LVU791
 2038 0b42 0F9A     		ldr	r2, [sp, #60]
 253:D:/fchai/work/i-cube/I-CUBE-HUAWEI/Middlewares/Third_Party/Huawei/iot_link/network/dtls/mbedtls/mbedtls-2.16.2/library\sha1.c ****     P( B, C, D, E, A, R(59) );
 2039              		.loc 1 253 5 view .LVU792
 2040 0b44 049E     		ldr	r6, [sp, #16]
 252:D:/fchai/work/i-cube/I-CUBE-HUAWEI/Middlewares/Third_Party/Huawei/iot_link/network/dtls/mbedtls/mbedtls-2.16.2/library\sha1.c ****     P( C, D, E, A, B, R(58) );
 2041              		.loc 1 252 5 view .LVU793
 2042 0b46 87EAFA77 		eor	r7, r7, r10, ror #31
ARM GAS  T:\msys\tmp\ccBepS7m.s 			page 51


 2043 0b4a 87EAF277 		eor	r7, r7, r2, ror #31
 2044 0b4e 0D9A     		ldr	r2, [sp, #52]
 2045 0b50 87EAF27C 		eor	ip, r7, r2, ror #31
 2046              		.loc 1 253 5 view .LVU794
 2047 0b54 0B9F     		ldr	r7, [sp, #44]
 2048 0b56 039A     		ldr	r2, [sp, #12]
 2049 0b58 84EAF674 		eor	r4, r4, r6, ror #31
 2050 0b5c 05EBFB65 		add	r5, r5, fp, ror #27
 2051 0b60 84EAF774 		eor	r4, r4, r7, ror #31
 250:D:/fchai/work/i-cube/I-CUBE-HUAWEI/Middlewares/Third_Party/Huawei/iot_link/network/dtls/mbedtls/mbedtls-2.16.2/library\sha1.c ****     P( D, E, A, B, C, R(57) );
 2052              		.loc 1 250 5 view .LVU795
 2053 0b64 A944     		add	r9, r9, r5
 252:D:/fchai/work/i-cube/I-CUBE-HUAWEI/Middlewares/Third_Party/Huawei/iot_link/network/dtls/mbedtls/mbedtls-2.16.2/library\sha1.c ****     P( C, D, E, A, B, R(58) );
 2054              		.loc 1 252 5 view .LVU796
 2055 0b66 6546     		mov	r5, ip
 2056              		.loc 1 253 5 view .LVU797
 2057 0b68 84EAF27C 		eor	ip, r4, r2, ror #31
 241:D:/fchai/work/i-cube/I-CUBE-HUAWEI/Middlewares/Third_Party/Huawei/iot_link/network/dtls/mbedtls/mbedtls-2.16.2/library\sha1.c ****     P( C, D, E, A, B, R(48) );
 2058              		.loc 1 241 5 view .LVU798
 2059 0b6c 099A     		ldr	r2, [sp, #36]
 240:D:/fchai/work/i-cube/I-CUBE-HUAWEI/Middlewares/Third_Party/Huawei/iot_link/network/dtls/mbedtls/mbedtls-2.16.2/library\sha1.c ****     P( D, E, A, B, C, R(47) );
 2060              		.loc 1 240 5 view .LVU799
 2061 0b6e 139F     		ldr	r7, [sp, #76]
 2062              		.loc 1 253 5 view .LVU800
 2063 0b70 CDF830C0 		str	ip, [sp, #48]
 241:D:/fchai/work/i-cube/I-CUBE-HUAWEI/Middlewares/Third_Party/Huawei/iot_link/network/dtls/mbedtls/mbedtls-2.16.2/library\sha1.c ****     P( C, D, E, A, B, R(48) );
 2064              		.loc 1 241 5 view .LVU801
 2065 0b74 4FEAF27C 		ror	ip, r2, #31
 2066 0b78 0A46     		mov	r2, r1
 2067 0b7a 01EBF571 		add	r1, r1, r5, ror #31
 254:D:/fchai/work/i-cube/I-CUBE-HUAWEI/Middlewares/Third_Party/Huawei/iot_link/network/dtls/mbedtls/mbedtls-2.16.2/library\sha1.c **** 
 255:D:/fchai/work/i-cube/I-CUBE-HUAWEI/Middlewares/Third_Party/Huawei/iot_link/network/dtls/mbedtls/mbedtls-2.16.2/library\sha1.c **** #undef K
 256:D:/fchai/work/i-cube/I-CUBE-HUAWEI/Middlewares/Third_Party/Huawei/iot_link/network/dtls/mbedtls/mbedtls-2.16.2/library\sha1.c **** #undef F
 257:D:/fchai/work/i-cube/I-CUBE-HUAWEI/Middlewares/Third_Party/Huawei/iot_link/network/dtls/mbedtls/mbedtls-2.16.2/library\sha1.c **** 
 258:D:/fchai/work/i-cube/I-CUBE-HUAWEI/Middlewares/Third_Party/Huawei/iot_link/network/dtls/mbedtls/mbedtls-2.16.2/library\sha1.c **** #define F(x,y,z) ((x) ^ (y) ^ (z))
 259:D:/fchai/work/i-cube/I-CUBE-HUAWEI/Middlewares/Third_Party/Huawei/iot_link/network/dtls/mbedtls/mbedtls-2.16.2/library\sha1.c **** #define K 0xCA62C1D6
 260:D:/fchai/work/i-cube/I-CUBE-HUAWEI/Middlewares/Third_Party/Huawei/iot_link/network/dtls/mbedtls/mbedtls-2.16.2/library\sha1.c **** 
 261:D:/fchai/work/i-cube/I-CUBE-HUAWEI/Middlewares/Third_Party/Huawei/iot_link/network/dtls/mbedtls/mbedtls-2.16.2/library\sha1.c ****     P( A, B, C, D, E, R(60) );
 2068              		.loc 1 261 5 view .LVU802
 2069 0b7e 069C     		ldr	r4, [sp, #24]
 2070 0b80 0E95     		str	r5, [sp, #56]
 2071 0b82 F044     		add	r8, r8, lr
 262:D:/fchai/work/i-cube/I-CUBE-HUAWEI/Middlewares/Third_Party/Huawei/iot_link/network/dtls/mbedtls/mbedtls-2.16.2/library\sha1.c ****     P( E, A, B, C, D, R(61) );
 2072              		.loc 1 262 5 view .LVU803
 2073 0b84 049D     		ldr	r5, [sp, #16]
 240:D:/fchai/work/i-cube/I-CUBE-HUAWEI/Middlewares/Third_Party/Huawei/iot_link/network/dtls/mbedtls/mbedtls-2.16.2/library\sha1.c ****     P( D, E, A, B, C, R(47) );
 2074              		.loc 1 240 5 view .LVU804
 2075 0b86 4FEAF77E 		ror	lr, r7, #31
 240:D:/fchai/work/i-cube/I-CUBE-HUAWEI/Middlewares/Third_Party/Huawei/iot_link/network/dtls/mbedtls/mbedtls-2.16.2/library\sha1.c ****     P( D, E, A, B, C, R(47) );
 2076              		.loc 1 240 5 is_stmt 1 view .LVU805
 240:D:/fchai/work/i-cube/I-CUBE-HUAWEI/Middlewares/Third_Party/Huawei/iot_link/network/dtls/mbedtls/mbedtls-2.16.2/library\sha1.c ****     P( D, E, A, B, C, R(47) );
 2077              		.loc 1 240 5 view .LVU806
 241:D:/fchai/work/i-cube/I-CUBE-HUAWEI/Middlewares/Third_Party/Huawei/iot_link/network/dtls/mbedtls/mbedtls-2.16.2/library\sha1.c ****     P( C, D, E, A, B, R(48) );
 2078              		.loc 1 241 5 view .LVU807
 241:D:/fchai/work/i-cube/I-CUBE-HUAWEI/Middlewares/Third_Party/Huawei/iot_link/network/dtls/mbedtls/mbedtls-2.16.2/library\sha1.c ****     P( C, D, E, A, B, R(48) );
 2079              		.loc 1 241 5 view .LVU808
 2080              	.LVL68:
ARM GAS  T:\msys\tmp\ccBepS7m.s 			page 52


 241:D:/fchai/work/i-cube/I-CUBE-HUAWEI/Middlewares/Third_Party/Huawei/iot_link/network/dtls/mbedtls/mbedtls-2.16.2/library\sha1.c ****     P( C, D, E, A, B, R(48) );
 2081              		.loc 1 241 5 view .LVU809
 241:D:/fchai/work/i-cube/I-CUBE-HUAWEI/Middlewares/Third_Party/Huawei/iot_link/network/dtls/mbedtls/mbedtls-2.16.2/library\sha1.c ****     P( C, D, E, A, B, R(48) );
 2082              		.loc 1 241 5 view .LVU810
 242:D:/fchai/work/i-cube/I-CUBE-HUAWEI/Middlewares/Third_Party/Huawei/iot_link/network/dtls/mbedtls/mbedtls-2.16.2/library\sha1.c ****     P( B, C, D, E, A, R(49) );
 2083              		.loc 1 242 5 view .LVU811
 242:D:/fchai/work/i-cube/I-CUBE-HUAWEI/Middlewares/Third_Party/Huawei/iot_link/network/dtls/mbedtls/mbedtls-2.16.2/library\sha1.c ****     P( B, C, D, E, A, R(49) );
 2084              		.loc 1 242 5 view .LVU812
 242:D:/fchai/work/i-cube/I-CUBE-HUAWEI/Middlewares/Third_Party/Huawei/iot_link/network/dtls/mbedtls/mbedtls-2.16.2/library\sha1.c ****     P( B, C, D, E, A, R(49) );
 2085              		.loc 1 242 5 view .LVU813
 242:D:/fchai/work/i-cube/I-CUBE-HUAWEI/Middlewares/Third_Party/Huawei/iot_link/network/dtls/mbedtls/mbedtls-2.16.2/library\sha1.c ****     P( B, C, D, E, A, R(49) );
 2086              		.loc 1 242 5 view .LVU814
 243:D:/fchai/work/i-cube/I-CUBE-HUAWEI/Middlewares/Third_Party/Huawei/iot_link/network/dtls/mbedtls/mbedtls-2.16.2/library\sha1.c ****     P( A, B, C, D, E, R(50) );
 2087              		.loc 1 243 5 view .LVU815
 243:D:/fchai/work/i-cube/I-CUBE-HUAWEI/Middlewares/Third_Party/Huawei/iot_link/network/dtls/mbedtls/mbedtls-2.16.2/library\sha1.c ****     P( A, B, C, D, E, R(50) );
 2088              		.loc 1 243 5 view .LVU816
 243:D:/fchai/work/i-cube/I-CUBE-HUAWEI/Middlewares/Third_Party/Huawei/iot_link/network/dtls/mbedtls/mbedtls-2.16.2/library\sha1.c ****     P( A, B, C, D, E, R(50) );
 2089              		.loc 1 243 5 view .LVU817
 243:D:/fchai/work/i-cube/I-CUBE-HUAWEI/Middlewares/Third_Party/Huawei/iot_link/network/dtls/mbedtls/mbedtls-2.16.2/library\sha1.c ****     P( A, B, C, D, E, R(50) );
 2090              		.loc 1 243 5 view .LVU818
 244:D:/fchai/work/i-cube/I-CUBE-HUAWEI/Middlewares/Third_Party/Huawei/iot_link/network/dtls/mbedtls/mbedtls-2.16.2/library\sha1.c ****     P( E, A, B, C, D, R(51) );
 2091              		.loc 1 244 5 view .LVU819
 244:D:/fchai/work/i-cube/I-CUBE-HUAWEI/Middlewares/Third_Party/Huawei/iot_link/network/dtls/mbedtls/mbedtls-2.16.2/library\sha1.c ****     P( E, A, B, C, D, R(51) );
 2092              		.loc 1 244 5 view .LVU820
 244:D:/fchai/work/i-cube/I-CUBE-HUAWEI/Middlewares/Third_Party/Huawei/iot_link/network/dtls/mbedtls/mbedtls-2.16.2/library\sha1.c ****     P( E, A, B, C, D, R(51) );
 2093              		.loc 1 244 5 is_stmt 0 view .LVU821
 2094 0b8a 01EBB001 		add	r1, r1, r0, ror #2
 2095 0b8e 0C98     		ldr	r0, [sp, #48]
 261:D:/fchai/work/i-cube/I-CUBE-HUAWEI/Middlewares/Third_Party/Huawei/iot_link/network/dtls/mbedtls/mbedtls-2.16.2/library\sha1.c ****     P( E, A, B, C, D, R(61) );
 2096              		.loc 1 261 5 view .LVU822
 2097 0b90 8EEAFA77 		eor	r7, lr, r10, ror #31
 2098 0b94 87EAF477 		eor	r7, r7, r4, ror #31
 2099              		.loc 1 262 5 view .LVU823
 2100 0b98 8CEAF574 		eor	r4, ip, r5, ror #31
 2101 0b9c 02EBF075 		add	r5, r2, r0, ror #31
 261:D:/fchai/work/i-cube/I-CUBE-HUAWEI/Middlewares/Third_Party/Huawei/iot_link/network/dtls/mbedtls/mbedtls-2.16.2/library\sha1.c ****     P( E, A, B, C, D, R(61) );
 2102              		.loc 1 261 5 view .LVU824
 2103 0ba0 029A     		ldr	r2, [sp, #8]
 251:D:/fchai/work/i-cube/I-CUBE-HUAWEI/Middlewares/Third_Party/Huawei/iot_link/network/dtls/mbedtls/mbedtls-2.16.2/library\sha1.c ****     P( C, D, E, A, B, R(58) );
 2104              		.loc 1 251 5 view .LVU825
 2105 0ba2 08EBF968 		add	r8, r8, r9, ror #27
 261:D:/fchai/work/i-cube/I-CUBE-HUAWEI/Middlewares/Third_Party/Huawei/iot_link/network/dtls/mbedtls/mbedtls-2.16.2/library\sha1.c ****     P( E, A, B, C, D, R(61) );
 2106              		.loc 1 261 5 view .LVU826
 2107 0ba6 87EAF277 		eor	r7, r7, r2, ror #31
 252:D:/fchai/work/i-cube/I-CUBE-HUAWEI/Middlewares/Third_Party/Huawei/iot_link/network/dtls/mbedtls/mbedtls-2.16.2/library\sha1.c ****     P( B, C, D, E, A, R(59) );
 2108              		.loc 1 252 5 view .LVU827
 2109 0baa 49EABB06 		orr	r6, r9, fp, ror #2
 2110              		.loc 1 262 5 view .LVU828
 2111 0bae 0A9A     		ldr	r2, [sp, #40]
 252:D:/fchai/work/i-cube/I-CUBE-HUAWEI/Middlewares/Third_Party/Huawei/iot_link/network/dtls/mbedtls/mbedtls-2.16.2/library\sha1.c ****     P( B, C, D, E, A, R(59) );
 2112              		.loc 1 252 5 view .LVU829
 2113 0bb0 09EABB00 		and	r0, r9, fp, ror #2
 253:D:/fchai/work/i-cube/I-CUBE-HUAWEI/Middlewares/Third_Party/Huawei/iot_link/network/dtls/mbedtls/mbedtls-2.16.2/library\sha1.c **** 
 2114              		.loc 1 253 5 view .LVU830
 2115 0bb4 48EAB90A 		orr	r10, r8, r9, ror #2
 252:D:/fchai/work/i-cube/I-CUBE-HUAWEI/Middlewares/Third_Party/Huawei/iot_link/network/dtls/mbedtls/mbedtls-2.16.2/library\sha1.c ****     P( B, C, D, E, A, R(59) );
 2116              		.loc 1 252 5 view .LVU831
ARM GAS  T:\msys\tmp\ccBepS7m.s 			page 53


 2117 0bb8 06EAB306 		and	r6, r6, r3, ror #2
 2118              		.loc 1 262 5 view .LVU832
 2119 0bbc 84EAF274 		eor	r4, r4, r2, ror #31
 2120 0bc0 05EBB305 		add	r5, r5, r3, ror #2
 253:D:/fchai/work/i-cube/I-CUBE-HUAWEI/Middlewares/Third_Party/Huawei/iot_link/network/dtls/mbedtls/mbedtls-2.16.2/library\sha1.c **** 
 2121              		.loc 1 253 5 view .LVU833
 2122 0bc4 08EAB902 		and	r2, r8, r9, ror #2
 2123 0bc8 A44B     		ldr	r3, .L23+4
 2124 0bca 0AEABB0A 		and	r10, r10, fp, ror #2
 252:D:/fchai/work/i-cube/I-CUBE-HUAWEI/Middlewares/Third_Party/Huawei/iot_link/network/dtls/mbedtls/mbedtls-2.16.2/library\sha1.c ****     P( B, C, D, E, A, R(59) );
 2125              		.loc 1 252 5 view .LVU834
 2126 0bce 0643     		orrs	r6, r6, r0
 2127              		.loc 1 262 5 view .LVU835
 2128 0bd0 0E98     		ldr	r0, [sp, #56]
 2129 0bd2 01EBF861 		add	r1, r1, r8, ror #27
 253:D:/fchai/work/i-cube/I-CUBE-HUAWEI/Middlewares/Third_Party/Huawei/iot_link/network/dtls/mbedtls/mbedtls-2.16.2/library\sha1.c **** 
 2130              		.loc 1 253 5 view .LVU836
 2131 0bd6 4AEA020A 		orr	r10, r10, r2
 263:D:/fchai/work/i-cube/I-CUBE-HUAWEI/Middlewares/Third_Party/Huawei/iot_link/network/dtls/mbedtls/mbedtls-2.16.2/library\sha1.c ****     P( D, E, A, B, C, R(62) );
 2132              		.loc 1 263 5 view .LVU837
 2133 0bda 019A     		ldr	r2, [sp, #4]
 252:D:/fchai/work/i-cube/I-CUBE-HUAWEI/Middlewares/Third_Party/Huawei/iot_link/network/dtls/mbedtls/mbedtls-2.16.2/library\sha1.c ****     P( B, C, D, E, A, R(59) );
 2134              		.loc 1 252 5 view .LVU838
 2135 0bdc 0E44     		add	r6, r6, r1
 262:D:/fchai/work/i-cube/I-CUBE-HUAWEI/Middlewares/Third_Party/Huawei/iot_link/network/dtls/mbedtls/mbedtls-2.16.2/library\sha1.c ****     P( D, E, A, B, C, R(62) );
 2136              		.loc 1 262 5 view .LVU839
 2137 0bde 84EAF070 		eor	r0, r4, r0, ror #31
 2138 0be2 03EBF771 		add	r1, r3, r7, ror #31
 2139 0be6 3C46     		mov	r4, r7
 2140              		.loc 1 263 5 view .LVU840
 2141 0be8 109F     		ldr	r7, [sp, #64]
 2142 0bea 0490     		str	r0, [sp, #16]
 2143 0bec 8EEAF27E 		eor	lr, lr, r2, ror #31
 2144 0bf0 8EEAF77E 		eor	lr, lr, r7, ror #31
 264:D:/fchai/work/i-cube/I-CUBE-HUAWEI/Middlewares/Third_Party/Huawei/iot_link/network/dtls/mbedtls/mbedtls-2.16.2/library\sha1.c ****     P( C, D, E, A, B, R(63) );
 2145              		.loc 1 264 5 view .LVU841
 2146 0bf4 059F     		ldr	r7, [sp, #20]
 2147 0bf6 8CEAF77C 		eor	ip, ip, r7, ror #31
 263:D:/fchai/work/i-cube/I-CUBE-HUAWEI/Middlewares/Third_Party/Huawei/iot_link/network/dtls/mbedtls/mbedtls-2.16.2/library\sha1.c ****     P( D, E, A, B, C, R(62) );
 2148              		.loc 1 263 5 view .LVU842
 2149 0bfa 0C9F     		ldr	r7, [sp, #48]
 2150 0bfc 8EEAF77E 		eor	lr, lr, r7, ror #31
 2151              		.loc 1 264 5 view .LVU843
 2152 0c00 0D9F     		ldr	r7, [sp, #52]
 263:D:/fchai/work/i-cube/I-CUBE-HUAWEI/Middlewares/Third_Party/Huawei/iot_link/network/dtls/mbedtls/mbedtls-2.16.2/library\sha1.c ****     P( D, E, A, B, C, R(62) );
 2153              		.loc 1 263 5 view .LVU844
 2154 0c02 CDF824E0 		str	lr, [sp, #36]
 2155              		.loc 1 264 5 view .LVU845
 2156 0c06 8CEAF77C 		eor	ip, ip, r7, ror #31
 244:D:/fchai/work/i-cube/I-CUBE-HUAWEI/Middlewares/Third_Party/Huawei/iot_link/network/dtls/mbedtls/mbedtls-2.16.2/library\sha1.c ****     P( E, A, B, C, D, R(51) );
 2157              		.loc 1 244 5 view .LVU846
 2158 0c0a 0F9F     		ldr	r7, [sp, #60]
 2159              		.loc 1 264 5 view .LVU847
 2160 0c0c 0F94     		str	r4, [sp, #60]
 253:D:/fchai/work/i-cube/I-CUBE-HUAWEI/Middlewares/Third_Party/Huawei/iot_link/network/dtls/mbedtls/mbedtls-2.16.2/library\sha1.c **** 
 2161              		.loc 1 253 5 view .LVU848
 2162 0c0e 4FEAB808 		ror	r8, r8, #2
ARM GAS  T:\msys\tmp\ccBepS7m.s 			page 54


 2163 0c12 03EBF070 		add	r0, r3, r0, ror #31
 244:D:/fchai/work/i-cube/I-CUBE-HUAWEI/Middlewares/Third_Party/Huawei/iot_link/network/dtls/mbedtls/mbedtls-2.16.2/library\sha1.c ****     P( E, A, B, C, D, R(51) );
 2164              		.loc 1 244 5 view .LVU849
 2165 0c16 4FEAF777 		ror	r7, r7, #31
 2166 0c1a AA44     		add	r10, r10, r5
 2167 0c1c 1297     		str	r7, [sp, #72]
 261:D:/fchai/work/i-cube/I-CUBE-HUAWEI/Middlewares/Third_Party/Huawei/iot_link/network/dtls/mbedtls/mbedtls-2.16.2/library\sha1.c ****     P( E, A, B, C, D, R(61) );
 2168              		.loc 1 261 5 view .LVU850
 2169 0c1e 88EAB905 		eor	r5, r8, r9, ror #2
 2170 0c22 00EBB909 		add	r9, r0, r9, ror #2
 265:D:/fchai/work/i-cube/I-CUBE-HUAWEI/Middlewares/Third_Party/Huawei/iot_link/network/dtls/mbedtls/mbedtls-2.16.2/library\sha1.c ****     P( B, C, D, E, A, R(64) );
 2171              		.loc 1 265 5 view .LVU851
 2172 0c26 0198     		ldr	r0, [sp, #4]
 264:D:/fchai/work/i-cube/I-CUBE-HUAWEI/Middlewares/Third_Party/Huawei/iot_link/network/dtls/mbedtls/mbedtls-2.16.2/library\sha1.c ****     P( B, C, D, E, A, R(64) );
 2173              		.loc 1 264 5 view .LVU852
 2174 0c28 8CEAF47C 		eor	ip, ip, r4, ror #31
 2175 0c2c 6746     		mov	r7, ip
 2176              		.loc 1 265 5 view .LVU853
 2177 0c2e 8446     		mov	ip, r0
 2178 0c30 1298     		ldr	r0, [sp, #72]
 2179 0c32 01EBBB0B 		add	fp, r1, fp, ror #2
 261:D:/fchai/work/i-cube/I-CUBE-HUAWEI/Middlewares/Third_Party/Huawei/iot_link/network/dtls/mbedtls/mbedtls-2.16.2/library\sha1.c ****     P( E, A, B, C, D, R(61) );
 2180              		.loc 1 261 5 view .LVU854
 2181 0c36 7540     		eors	r5, r5, r6
 253:D:/fchai/work/i-cube/I-CUBE-HUAWEI/Middlewares/Third_Party/Huawei/iot_link/network/dtls/mbedtls/mbedtls-2.16.2/library\sha1.c **** 
 2182              		.loc 1 253 5 view .LVU855
 2183 0c38 0AEBF662 		add	r2, r10, r6, ror #27
 2184              	.LVL69:
 244:D:/fchai/work/i-cube/I-CUBE-HUAWEI/Middlewares/Third_Party/Huawei/iot_link/network/dtls/mbedtls/mbedtls-2.16.2/library\sha1.c ****     P( E, A, B, C, D, R(51) );
 2185              		.loc 1 244 5 is_stmt 1 view .LVU856
 244:D:/fchai/work/i-cube/I-CUBE-HUAWEI/Middlewares/Third_Party/Huawei/iot_link/network/dtls/mbedtls/mbedtls-2.16.2/library\sha1.c ****     P( E, A, B, C, D, R(51) );
 2186              		.loc 1 244 5 view .LVU857
 245:D:/fchai/work/i-cube/I-CUBE-HUAWEI/Middlewares/Third_Party/Huawei/iot_link/network/dtls/mbedtls/mbedtls-2.16.2/library\sha1.c ****     P( D, E, A, B, C, R(52) );
 2187              		.loc 1 245 5 view .LVU858
 245:D:/fchai/work/i-cube/I-CUBE-HUAWEI/Middlewares/Third_Party/Huawei/iot_link/network/dtls/mbedtls/mbedtls-2.16.2/library\sha1.c ****     P( D, E, A, B, C, R(52) );
 2188              		.loc 1 245 5 view .LVU859
 262:D:/fchai/work/i-cube/I-CUBE-HUAWEI/Middlewares/Third_Party/Huawei/iot_link/network/dtls/mbedtls/mbedtls-2.16.2/library\sha1.c ****     P( D, E, A, B, C, R(62) );
 2189              		.loc 1 262 5 is_stmt 0 view .LVU860
 2190 0c3c 88EAB601 		eor	r1, r8, r6, ror #2
 2191 0c40 5D44     		add	r5, r5, fp
 2192              		.loc 1 265 5 view .LVU861
 2193 0c42 80EAFC7E 		eor	lr, r0, ip, ror #31
 245:D:/fchai/work/i-cube/I-CUBE-HUAWEI/Middlewares/Third_Party/Huawei/iot_link/network/dtls/mbedtls/mbedtls-2.16.2/library\sha1.c ****     P( D, E, A, B, C, R(52) );
 2194              		.loc 1 245 5 view .LVU862
 2195 0c46 0B98     		ldr	r0, [sp, #44]
 2196 0c48 0B97     		str	r7, [sp, #44]
 261:D:/fchai/work/i-cube/I-CUBE-HUAWEI/Middlewares/Third_Party/Huawei/iot_link/network/dtls/mbedtls/mbedtls-2.16.2/library\sha1.c ****     P( E, A, B, C, D, R(61) );
 2197              		.loc 1 261 5 view .LVU863
 2198 0c4a 05EBF26A 		add	r10, r5, r2, ror #27
 262:D:/fchai/work/i-cube/I-CUBE-HUAWEI/Middlewares/Third_Party/Huawei/iot_link/network/dtls/mbedtls/mbedtls-2.16.2/library\sha1.c ****     P( D, E, A, B, C, R(62) );
 2199              		.loc 1 262 5 view .LVU864
 2200 0c4e 4FEAB20B 		ror	fp, r2, #2
 2201 0c52 5140     		eors	r1, r1, r2
 2202 0c54 099A     		ldr	r2, [sp, #36]
 245:D:/fchai/work/i-cube/I-CUBE-HUAWEI/Middlewares/Third_Party/Huawei/iot_link/network/dtls/mbedtls/mbedtls-2.16.2/library\sha1.c ****     P( D, E, A, B, C, R(52) );
 2203              		.loc 1 245 5 view .LVU865
 2204 0c56 4FEAF074 		ror	r4, r0, #31
ARM GAS  T:\msys\tmp\ccBepS7m.s 			page 55


 2205              	.LVL70:
 245:D:/fchai/work/i-cube/I-CUBE-HUAWEI/Middlewares/Third_Party/Huawei/iot_link/network/dtls/mbedtls/mbedtls-2.16.2/library\sha1.c ****     P( D, E, A, B, C, R(52) );
 2206              		.loc 1 245 5 is_stmt 1 view .LVU866
 245:D:/fchai/work/i-cube/I-CUBE-HUAWEI/Middlewares/Third_Party/Huawei/iot_link/network/dtls/mbedtls/mbedtls-2.16.2/library\sha1.c ****     P( D, E, A, B, C, R(52) );
 2207              		.loc 1 245 5 view .LVU867
 246:D:/fchai/work/i-cube/I-CUBE-HUAWEI/Middlewares/Third_Party/Huawei/iot_link/network/dtls/mbedtls/mbedtls-2.16.2/library\sha1.c ****     P( C, D, E, A, B, R(53) );
 2208              		.loc 1 246 5 view .LVU868
 246:D:/fchai/work/i-cube/I-CUBE-HUAWEI/Middlewares/Third_Party/Huawei/iot_link/network/dtls/mbedtls/mbedtls-2.16.2/library\sha1.c ****     P( C, D, E, A, B, R(53) );
 2209              		.loc 1 246 5 view .LVU869
 246:D:/fchai/work/i-cube/I-CUBE-HUAWEI/Middlewares/Third_Party/Huawei/iot_link/network/dtls/mbedtls/mbedtls-2.16.2/library\sha1.c ****     P( C, D, E, A, B, R(53) );
 2210              		.loc 1 246 5 view .LVU870
 246:D:/fchai/work/i-cube/I-CUBE-HUAWEI/Middlewares/Third_Party/Huawei/iot_link/network/dtls/mbedtls/mbedtls-2.16.2/library\sha1.c ****     P( C, D, E, A, B, R(53) );
 2211              		.loc 1 246 5 view .LVU871
 247:D:/fchai/work/i-cube/I-CUBE-HUAWEI/Middlewares/Third_Party/Huawei/iot_link/network/dtls/mbedtls/mbedtls-2.16.2/library\sha1.c ****     P( B, C, D, E, A, R(54) );
 2212              		.loc 1 247 5 view .LVU872
 247:D:/fchai/work/i-cube/I-CUBE-HUAWEI/Middlewares/Third_Party/Huawei/iot_link/network/dtls/mbedtls/mbedtls-2.16.2/library\sha1.c ****     P( B, C, D, E, A, R(54) );
 2213              		.loc 1 247 5 view .LVU873
 247:D:/fchai/work/i-cube/I-CUBE-HUAWEI/Middlewares/Third_Party/Huawei/iot_link/network/dtls/mbedtls/mbedtls-2.16.2/library\sha1.c ****     P( B, C, D, E, A, R(54) );
 2214              		.loc 1 247 5 view .LVU874
 247:D:/fchai/work/i-cube/I-CUBE-HUAWEI/Middlewares/Third_Party/Huawei/iot_link/network/dtls/mbedtls/mbedtls-2.16.2/library\sha1.c ****     P( B, C, D, E, A, R(54) );
 2215              		.loc 1 247 5 view .LVU875
 248:D:/fchai/work/i-cube/I-CUBE-HUAWEI/Middlewares/Third_Party/Huawei/iot_link/network/dtls/mbedtls/mbedtls-2.16.2/library\sha1.c ****     P( A, B, C, D, E, R(55) );
 2216              		.loc 1 248 5 view .LVU876
 248:D:/fchai/work/i-cube/I-CUBE-HUAWEI/Middlewares/Third_Party/Huawei/iot_link/network/dtls/mbedtls/mbedtls-2.16.2/library\sha1.c ****     P( A, B, C, D, E, R(55) );
 2217              		.loc 1 248 5 view .LVU877
 2218              		.loc 1 265 5 is_stmt 0 view .LVU878
 2219 0c5a 0398     		ldr	r0, [sp, #12]
 2220 0c5c 03EBF272 		add	r2, r3, r2, ror #31
 2221 0c60 4244     		add	r2, r2, r8
 2222 0c62 8EEAF07E 		eor	lr, lr, r0, ror #31
 2223 0c66 03EBF778 		add	r8, r3, r7, ror #31
 266:D:/fchai/work/i-cube/I-CUBE-HUAWEI/Middlewares/Third_Party/Huawei/iot_link/network/dtls/mbedtls/mbedtls-2.16.2/library\sha1.c ****     P( A, B, C, D, E, R(65) );
 2224              		.loc 1 266 5 view .LVU879
 2225 0c6a 0598     		ldr	r0, [sp, #20]
 265:D:/fchai/work/i-cube/I-CUBE-HUAWEI/Middlewares/Third_Party/Huawei/iot_link/network/dtls/mbedtls/mbedtls-2.16.2/library\sha1.c ****     P( A, B, C, D, E, R(65) );
 2226              		.loc 1 265 5 view .LVU880
 2227 0c6c 049F     		ldr	r7, [sp, #16]
 263:D:/fchai/work/i-cube/I-CUBE-HUAWEI/Middlewares/Third_Party/Huawei/iot_link/network/dtls/mbedtls/mbedtls-2.16.2/library\sha1.c ****     P( C, D, E, A, B, R(63) );
 2228              		.loc 1 263 5 view .LVU881
 2229 0c6e 8BEAB60C 		eor	ip, fp, r6, ror #2
 2230 0c72 4944     		add	r1, r1, r9
 2231 0c74 08EBB608 		add	r8, r8, r6, ror #2
 267:D:/fchai/work/i-cube/I-CUBE-HUAWEI/Middlewares/Third_Party/Huawei/iot_link/network/dtls/mbedtls/mbedtls-2.16.2/library\sha1.c ****     P( E, A, B, C, D, R(66) );
 2232              		.loc 1 267 5 view .LVU882
 2233 0c78 069E     		ldr	r6, [sp, #24]
 266:D:/fchai/work/i-cube/I-CUBE-HUAWEI/Middlewares/Third_Party/Huawei/iot_link/network/dtls/mbedtls/mbedtls-2.16.2/library\sha1.c ****     P( E, A, B, C, D, R(66) );
 2234              		.loc 1 266 5 view .LVU883
 2235 0c7a 84EAF075 		eor	r5, r4, r0, ror #31
 262:D:/fchai/work/i-cube/I-CUBE-HUAWEI/Middlewares/Third_Party/Huawei/iot_link/network/dtls/mbedtls/mbedtls-2.16.2/library\sha1.c ****     P( D, E, A, B, C, R(62) );
 2236              		.loc 1 262 5 view .LVU884
 2237 0c7e 01EBFA60 		add	r0, r1, r10, ror #27
 263:D:/fchai/work/i-cube/I-CUBE-HUAWEI/Middlewares/Third_Party/Huawei/iot_link/network/dtls/mbedtls/mbedtls-2.16.2/library\sha1.c ****     P( C, D, E, A, B, R(63) );
 2238              		.loc 1 263 5 view .LVU885
 2239 0c82 8CEA0A01 		eor	r1, ip, r10
