ARM GAS  T:\msys\tmp\ccLh2YRr.s 			page 1


   1              		.cpu cortex-m4
   2              		.eabi_attribute 27, 1
   3              		.eabi_attribute 28, 1
   4              		.eabi_attribute 20, 1
   5              		.eabi_attribute 21, 1
   6              		.eabi_attribute 23, 3
   7              		.eabi_attribute 24, 1
   8              		.eabi_attribute 25, 1
   9              		.eabi_attribute 26, 1
  10              		.eabi_attribute 30, 2
  11              		.eabi_attribute 34, 1
  12              		.eabi_attribute 18, 4
  13              		.file	"sha256.c"
  14              		.text
  15              	.Ltext0:
  16              		.cfi_sections	.debug_frame
  17              		.section	.text.mbedtls_sha256_init,"ax",%progbits
  18              		.align	1
  19              		.p2align 2,,3
  20              		.global	mbedtls_sha256_init
  21              		.arch armv7e-m
  22              		.syntax unified
  23              		.thumb
  24              		.thumb_func
  25              		.fpu fpv4-sp-d16
  27              	mbedtls_sha256_init:
  28              	.LVL0:
  29              	.LFB0:
  30              		.file 1 "D:/fchai/work/i-cube/I-CUBE-HUAWEI/Middlewares/Third_Party/Huawei/iot_link/network/dtls/m
   1:D:/fchai/work/i-cube/I-CUBE-HUAWEI/Middlewares/Third_Party/Huawei/iot_link/network/dtls/mbedtls/mbedtls-2.16.2/library\sha256.c **** /*
   2:D:/fchai/work/i-cube/I-CUBE-HUAWEI/Middlewares/Third_Party/Huawei/iot_link/network/dtls/mbedtls/mbedtls-2.16.2/library\sha256.c ****  *  FIPS-180-2 compliant SHA-256 implementation
   3:D:/fchai/work/i-cube/I-CUBE-HUAWEI/Middlewares/Third_Party/Huawei/iot_link/network/dtls/mbedtls/mbedtls-2.16.2/library\sha256.c ****  *
   4:D:/fchai/work/i-cube/I-CUBE-HUAWEI/Middlewares/Third_Party/Huawei/iot_link/network/dtls/mbedtls/mbedtls-2.16.2/library\sha256.c ****  *  Copyright (C) 2006-2015, ARM Limited, All Rights Reserved
   5:D:/fchai/work/i-cube/I-CUBE-HUAWEI/Middlewares/Third_Party/Huawei/iot_link/network/dtls/mbedtls/mbedtls-2.16.2/library\sha256.c ****  *  SPDX-License-Identifier: Apache-2.0
   6:D:/fchai/work/i-cube/I-CUBE-HUAWEI/Middlewares/Third_Party/Huawei/iot_link/network/dtls/mbedtls/mbedtls-2.16.2/library\sha256.c ****  *
   7:D:/fchai/work/i-cube/I-CUBE-HUAWEI/Middlewares/Third_Party/Huawei/iot_link/network/dtls/mbedtls/mbedtls-2.16.2/library\sha256.c ****  *  Licensed under the Apache License, Version 2.0 (the "License"); you may
   8:D:/fchai/work/i-cube/I-CUBE-HUAWEI/Middlewares/Third_Party/Huawei/iot_link/network/dtls/mbedtls/mbedtls-2.16.2/library\sha256.c ****  *  not use this file except in compliance with the License.
   9:D:/fchai/work/i-cube/I-CUBE-HUAWEI/Middlewares/Third_Party/Huawei/iot_link/network/dtls/mbedtls/mbedtls-2.16.2/library\sha256.c ****  *  You may obtain a copy of the License at
  10:D:/fchai/work/i-cube/I-CUBE-HUAWEI/Middlewares/Third_Party/Huawei/iot_link/network/dtls/mbedtls/mbedtls-2.16.2/library\sha256.c ****  *
  11:D:/fchai/work/i-cube/I-CUBE-HUAWEI/Middlewares/Third_Party/Huawei/iot_link/network/dtls/mbedtls/mbedtls-2.16.2/library\sha256.c ****  *  http://www.apache.org/licenses/LICENSE-2.0
  12:D:/fchai/work/i-cube/I-CUBE-HUAWEI/Middlewares/Third_Party/Huawei/iot_link/network/dtls/mbedtls/mbedtls-2.16.2/library\sha256.c ****  *
  13:D:/fchai/work/i-cube/I-CUBE-HUAWEI/Middlewares/Third_Party/Huawei/iot_link/network/dtls/mbedtls/mbedtls-2.16.2/library\sha256.c ****  *  Unless required by applicable law or agreed to in writing, software
  14:D:/fchai/work/i-cube/I-CUBE-HUAWEI/Middlewares/Third_Party/Huawei/iot_link/network/dtls/mbedtls/mbedtls-2.16.2/library\sha256.c ****  *  distributed under the License is distributed on an "AS IS" BASIS, WITHOUT
  15:D:/fchai/work/i-cube/I-CUBE-HUAWEI/Middlewares/Third_Party/Huawei/iot_link/network/dtls/mbedtls/mbedtls-2.16.2/library\sha256.c ****  *  WARRANTIES OR CONDITIONS OF ANY KIND, either express or implied.
  16:D:/fchai/work/i-cube/I-CUBE-HUAWEI/Middlewares/Third_Party/Huawei/iot_link/network/dtls/mbedtls/mbedtls-2.16.2/library\sha256.c ****  *  See the License for the specific language governing permissions and
  17:D:/fchai/work/i-cube/I-CUBE-HUAWEI/Middlewares/Third_Party/Huawei/iot_link/network/dtls/mbedtls/mbedtls-2.16.2/library\sha256.c ****  *  limitations under the License.
  18:D:/fchai/work/i-cube/I-CUBE-HUAWEI/Middlewares/Third_Party/Huawei/iot_link/network/dtls/mbedtls/mbedtls-2.16.2/library\sha256.c ****  *
  19:D:/fchai/work/i-cube/I-CUBE-HUAWEI/Middlewares/Third_Party/Huawei/iot_link/network/dtls/mbedtls/mbedtls-2.16.2/library\sha256.c ****  *  This file is part of mbed TLS (https://tls.mbed.org)
  20:D:/fchai/work/i-cube/I-CUBE-HUAWEI/Middlewares/Third_Party/Huawei/iot_link/network/dtls/mbedtls/mbedtls-2.16.2/library\sha256.c ****  */
  21:D:/fchai/work/i-cube/I-CUBE-HUAWEI/Middlewares/Third_Party/Huawei/iot_link/network/dtls/mbedtls/mbedtls-2.16.2/library\sha256.c **** /*
  22:D:/fchai/work/i-cube/I-CUBE-HUAWEI/Middlewares/Third_Party/Huawei/iot_link/network/dtls/mbedtls/mbedtls-2.16.2/library\sha256.c ****  *  The SHA-256 Secure Hash Standard was published by NIST in 2002.
  23:D:/fchai/work/i-cube/I-CUBE-HUAWEI/Middlewares/Third_Party/Huawei/iot_link/network/dtls/mbedtls/mbedtls-2.16.2/library\sha256.c ****  *
  24:D:/fchai/work/i-cube/I-CUBE-HUAWEI/Middlewares/Third_Party/Huawei/iot_link/network/dtls/mbedtls/mbedtls-2.16.2/library\sha256.c ****  *  http://csrc.nist.gov/publications/fips/fips180-2/fips180-2.pdf
  25:D:/fchai/work/i-cube/I-CUBE-HUAWEI/Middlewares/Third_Party/Huawei/iot_link/network/dtls/mbedtls/mbedtls-2.16.2/library\sha256.c ****  */
  26:D:/fchai/work/i-cube/I-CUBE-HUAWEI/Middlewares/Third_Party/Huawei/iot_link/network/dtls/mbedtls/mbedtls-2.16.2/library\sha256.c **** 
  27:D:/fchai/work/i-cube/I-CUBE-HUAWEI/Middlewares/Third_Party/Huawei/iot_link/network/dtls/mbedtls/mbedtls-2.16.2/library\sha256.c **** #if !defined(MBEDTLS_CONFIG_FILE)
  28:D:/fchai/work/i-cube/I-CUBE-HUAWEI/Middlewares/Third_Party/Huawei/iot_link/network/dtls/mbedtls/mbedtls-2.16.2/library\sha256.c **** #include "mbedtls/config.h"
ARM GAS  T:\msys\tmp\ccLh2YRr.s 			page 2


  29:D:/fchai/work/i-cube/I-CUBE-HUAWEI/Middlewares/Third_Party/Huawei/iot_link/network/dtls/mbedtls/mbedtls-2.16.2/library\sha256.c **** #else
  30:D:/fchai/work/i-cube/I-CUBE-HUAWEI/Middlewares/Third_Party/Huawei/iot_link/network/dtls/mbedtls/mbedtls-2.16.2/library\sha256.c **** #include MBEDTLS_CONFIG_FILE
  31:D:/fchai/work/i-cube/I-CUBE-HUAWEI/Middlewares/Third_Party/Huawei/iot_link/network/dtls/mbedtls/mbedtls-2.16.2/library\sha256.c **** #endif
  32:D:/fchai/work/i-cube/I-CUBE-HUAWEI/Middlewares/Third_Party/Huawei/iot_link/network/dtls/mbedtls/mbedtls-2.16.2/library\sha256.c **** 
  33:D:/fchai/work/i-cube/I-CUBE-HUAWEI/Middlewares/Third_Party/Huawei/iot_link/network/dtls/mbedtls/mbedtls-2.16.2/library\sha256.c **** #if defined(MBEDTLS_SHA256_C)
  34:D:/fchai/work/i-cube/I-CUBE-HUAWEI/Middlewares/Third_Party/Huawei/iot_link/network/dtls/mbedtls/mbedtls-2.16.2/library\sha256.c **** 
  35:D:/fchai/work/i-cube/I-CUBE-HUAWEI/Middlewares/Third_Party/Huawei/iot_link/network/dtls/mbedtls/mbedtls-2.16.2/library\sha256.c **** #include "mbedtls/sha256.h"
  36:D:/fchai/work/i-cube/I-CUBE-HUAWEI/Middlewares/Third_Party/Huawei/iot_link/network/dtls/mbedtls/mbedtls-2.16.2/library\sha256.c **** #include "mbedtls/platform_util.h"
  37:D:/fchai/work/i-cube/I-CUBE-HUAWEI/Middlewares/Third_Party/Huawei/iot_link/network/dtls/mbedtls/mbedtls-2.16.2/library\sha256.c **** 
  38:D:/fchai/work/i-cube/I-CUBE-HUAWEI/Middlewares/Third_Party/Huawei/iot_link/network/dtls/mbedtls/mbedtls-2.16.2/library\sha256.c **** #include <string.h>
  39:D:/fchai/work/i-cube/I-CUBE-HUAWEI/Middlewares/Third_Party/Huawei/iot_link/network/dtls/mbedtls/mbedtls-2.16.2/library\sha256.c **** 
  40:D:/fchai/work/i-cube/I-CUBE-HUAWEI/Middlewares/Third_Party/Huawei/iot_link/network/dtls/mbedtls/mbedtls-2.16.2/library\sha256.c **** #if defined(MBEDTLS_SELF_TEST)
  41:D:/fchai/work/i-cube/I-CUBE-HUAWEI/Middlewares/Third_Party/Huawei/iot_link/network/dtls/mbedtls/mbedtls-2.16.2/library\sha256.c **** #if defined(MBEDTLS_PLATFORM_C)
  42:D:/fchai/work/i-cube/I-CUBE-HUAWEI/Middlewares/Third_Party/Huawei/iot_link/network/dtls/mbedtls/mbedtls-2.16.2/library\sha256.c **** #include "mbedtls/platform.h"
  43:D:/fchai/work/i-cube/I-CUBE-HUAWEI/Middlewares/Third_Party/Huawei/iot_link/network/dtls/mbedtls/mbedtls-2.16.2/library\sha256.c **** #else
  44:D:/fchai/work/i-cube/I-CUBE-HUAWEI/Middlewares/Third_Party/Huawei/iot_link/network/dtls/mbedtls/mbedtls-2.16.2/library\sha256.c **** #include <stdio.h>
  45:D:/fchai/work/i-cube/I-CUBE-HUAWEI/Middlewares/Third_Party/Huawei/iot_link/network/dtls/mbedtls/mbedtls-2.16.2/library\sha256.c **** #include <stdlib.h>
  46:D:/fchai/work/i-cube/I-CUBE-HUAWEI/Middlewares/Third_Party/Huawei/iot_link/network/dtls/mbedtls/mbedtls-2.16.2/library\sha256.c **** #define mbedtls_printf printf
  47:D:/fchai/work/i-cube/I-CUBE-HUAWEI/Middlewares/Third_Party/Huawei/iot_link/network/dtls/mbedtls/mbedtls-2.16.2/library\sha256.c **** #define mbedtls_calloc    calloc
  48:D:/fchai/work/i-cube/I-CUBE-HUAWEI/Middlewares/Third_Party/Huawei/iot_link/network/dtls/mbedtls/mbedtls-2.16.2/library\sha256.c **** #define mbedtls_free       free
  49:D:/fchai/work/i-cube/I-CUBE-HUAWEI/Middlewares/Third_Party/Huawei/iot_link/network/dtls/mbedtls/mbedtls-2.16.2/library\sha256.c **** #endif /* MBEDTLS_PLATFORM_C */
  50:D:/fchai/work/i-cube/I-CUBE-HUAWEI/Middlewares/Third_Party/Huawei/iot_link/network/dtls/mbedtls/mbedtls-2.16.2/library\sha256.c **** #endif /* MBEDTLS_SELF_TEST */
  51:D:/fchai/work/i-cube/I-CUBE-HUAWEI/Middlewares/Third_Party/Huawei/iot_link/network/dtls/mbedtls/mbedtls-2.16.2/library\sha256.c **** 
  52:D:/fchai/work/i-cube/I-CUBE-HUAWEI/Middlewares/Third_Party/Huawei/iot_link/network/dtls/mbedtls/mbedtls-2.16.2/library\sha256.c **** #define SHA256_VALIDATE_RET(cond)                           \
  53:D:/fchai/work/i-cube/I-CUBE-HUAWEI/Middlewares/Third_Party/Huawei/iot_link/network/dtls/mbedtls/mbedtls-2.16.2/library\sha256.c ****     MBEDTLS_INTERNAL_VALIDATE_RET( cond, MBEDTLS_ERR_SHA256_BAD_INPUT_DATA )
  54:D:/fchai/work/i-cube/I-CUBE-HUAWEI/Middlewares/Third_Party/Huawei/iot_link/network/dtls/mbedtls/mbedtls-2.16.2/library\sha256.c **** #define SHA256_VALIDATE(cond)  MBEDTLS_INTERNAL_VALIDATE( cond )
  55:D:/fchai/work/i-cube/I-CUBE-HUAWEI/Middlewares/Third_Party/Huawei/iot_link/network/dtls/mbedtls/mbedtls-2.16.2/library\sha256.c **** 
  56:D:/fchai/work/i-cube/I-CUBE-HUAWEI/Middlewares/Third_Party/Huawei/iot_link/network/dtls/mbedtls/mbedtls-2.16.2/library\sha256.c **** #if !defined(MBEDTLS_SHA256_ALT)
  57:D:/fchai/work/i-cube/I-CUBE-HUAWEI/Middlewares/Third_Party/Huawei/iot_link/network/dtls/mbedtls/mbedtls-2.16.2/library\sha256.c **** 
  58:D:/fchai/work/i-cube/I-CUBE-HUAWEI/Middlewares/Third_Party/Huawei/iot_link/network/dtls/mbedtls/mbedtls-2.16.2/library\sha256.c **** /*
  59:D:/fchai/work/i-cube/I-CUBE-HUAWEI/Middlewares/Third_Party/Huawei/iot_link/network/dtls/mbedtls/mbedtls-2.16.2/library\sha256.c ****  * 32-bit integer manipulation macros (big endian)
  60:D:/fchai/work/i-cube/I-CUBE-HUAWEI/Middlewares/Third_Party/Huawei/iot_link/network/dtls/mbedtls/mbedtls-2.16.2/library\sha256.c ****  */
  61:D:/fchai/work/i-cube/I-CUBE-HUAWEI/Middlewares/Third_Party/Huawei/iot_link/network/dtls/mbedtls/mbedtls-2.16.2/library\sha256.c **** #ifndef GET_UINT32_BE
  62:D:/fchai/work/i-cube/I-CUBE-HUAWEI/Middlewares/Third_Party/Huawei/iot_link/network/dtls/mbedtls/mbedtls-2.16.2/library\sha256.c **** #define GET_UINT32_BE(n,b,i)                            \
  63:D:/fchai/work/i-cube/I-CUBE-HUAWEI/Middlewares/Third_Party/Huawei/iot_link/network/dtls/mbedtls/mbedtls-2.16.2/library\sha256.c **** do {                                                    \
  64:D:/fchai/work/i-cube/I-CUBE-HUAWEI/Middlewares/Third_Party/Huawei/iot_link/network/dtls/mbedtls/mbedtls-2.16.2/library\sha256.c ****     (n) = ( (uint32_t) (b)[(i)    ] << 24 )             \
  65:D:/fchai/work/i-cube/I-CUBE-HUAWEI/Middlewares/Third_Party/Huawei/iot_link/network/dtls/mbedtls/mbedtls-2.16.2/library\sha256.c ****         | ( (uint32_t) (b)[(i) + 1] << 16 )             \
  66:D:/fchai/work/i-cube/I-CUBE-HUAWEI/Middlewares/Third_Party/Huawei/iot_link/network/dtls/mbedtls/mbedtls-2.16.2/library\sha256.c ****         | ( (uint32_t) (b)[(i) + 2] <<  8 )             \
  67:D:/fchai/work/i-cube/I-CUBE-HUAWEI/Middlewares/Third_Party/Huawei/iot_link/network/dtls/mbedtls/mbedtls-2.16.2/library\sha256.c ****         | ( (uint32_t) (b)[(i) + 3]       );            \
  68:D:/fchai/work/i-cube/I-CUBE-HUAWEI/Middlewares/Third_Party/Huawei/iot_link/network/dtls/mbedtls/mbedtls-2.16.2/library\sha256.c **** } while( 0 )
  69:D:/fchai/work/i-cube/I-CUBE-HUAWEI/Middlewares/Third_Party/Huawei/iot_link/network/dtls/mbedtls/mbedtls-2.16.2/library\sha256.c **** #endif
  70:D:/fchai/work/i-cube/I-CUBE-HUAWEI/Middlewares/Third_Party/Huawei/iot_link/network/dtls/mbedtls/mbedtls-2.16.2/library\sha256.c **** 
  71:D:/fchai/work/i-cube/I-CUBE-HUAWEI/Middlewares/Third_Party/Huawei/iot_link/network/dtls/mbedtls/mbedtls-2.16.2/library\sha256.c **** #ifndef PUT_UINT32_BE
  72:D:/fchai/work/i-cube/I-CUBE-HUAWEI/Middlewares/Third_Party/Huawei/iot_link/network/dtls/mbedtls/mbedtls-2.16.2/library\sha256.c **** #define PUT_UINT32_BE(n,b,i)                            \
  73:D:/fchai/work/i-cube/I-CUBE-HUAWEI/Middlewares/Third_Party/Huawei/iot_link/network/dtls/mbedtls/mbedtls-2.16.2/library\sha256.c **** do {                                                    \
  74:D:/fchai/work/i-cube/I-CUBE-HUAWEI/Middlewares/Third_Party/Huawei/iot_link/network/dtls/mbedtls/mbedtls-2.16.2/library\sha256.c ****     (b)[(i)    ] = (unsigned char) ( (n) >> 24 );       \
  75:D:/fchai/work/i-cube/I-CUBE-HUAWEI/Middlewares/Third_Party/Huawei/iot_link/network/dtls/mbedtls/mbedtls-2.16.2/library\sha256.c ****     (b)[(i) + 1] = (unsigned char) ( (n) >> 16 );       \
  76:D:/fchai/work/i-cube/I-CUBE-HUAWEI/Middlewares/Third_Party/Huawei/iot_link/network/dtls/mbedtls/mbedtls-2.16.2/library\sha256.c ****     (b)[(i) + 2] = (unsigned char) ( (n) >>  8 );       \
  77:D:/fchai/work/i-cube/I-CUBE-HUAWEI/Middlewares/Third_Party/Huawei/iot_link/network/dtls/mbedtls/mbedtls-2.16.2/library\sha256.c ****     (b)[(i) + 3] = (unsigned char) ( (n)       );       \
  78:D:/fchai/work/i-cube/I-CUBE-HUAWEI/Middlewares/Third_Party/Huawei/iot_link/network/dtls/mbedtls/mbedtls-2.16.2/library\sha256.c **** } while( 0 )
  79:D:/fchai/work/i-cube/I-CUBE-HUAWEI/Middlewares/Third_Party/Huawei/iot_link/network/dtls/mbedtls/mbedtls-2.16.2/library\sha256.c **** #endif
  80:D:/fchai/work/i-cube/I-CUBE-HUAWEI/Middlewares/Third_Party/Huawei/iot_link/network/dtls/mbedtls/mbedtls-2.16.2/library\sha256.c **** 
  81:D:/fchai/work/i-cube/I-CUBE-HUAWEI/Middlewares/Third_Party/Huawei/iot_link/network/dtls/mbedtls/mbedtls-2.16.2/library\sha256.c **** void mbedtls_sha256_init( mbedtls_sha256_context *ctx )
  82:D:/fchai/work/i-cube/I-CUBE-HUAWEI/Middlewares/Third_Party/Huawei/iot_link/network/dtls/mbedtls/mbedtls-2.16.2/library\sha256.c **** {
  31              		.loc 1 82 1 view -0
  32              		.cfi_startproc
  33              		@ args = 0, pretend = 0, frame = 0
ARM GAS  T:\msys\tmp\ccLh2YRr.s 			page 3


  34              		@ frame_needed = 0, uses_anonymous_args = 0
  35              		@ link register save eliminated.
  83:D:/fchai/work/i-cube/I-CUBE-HUAWEI/Middlewares/Third_Party/Huawei/iot_link/network/dtls/mbedtls/mbedtls-2.16.2/library\sha256.c ****     SHA256_VALIDATE( ctx != NULL );
  36              		.loc 1 83 5 view .LVU1
  37              		.loc 1 83 5 view .LVU2
  38              		.loc 1 83 5 view .LVU3
  84:D:/fchai/work/i-cube/I-CUBE-HUAWEI/Middlewares/Third_Party/Huawei/iot_link/network/dtls/mbedtls/mbedtls-2.16.2/library\sha256.c **** 
  85:D:/fchai/work/i-cube/I-CUBE-HUAWEI/Middlewares/Third_Party/Huawei/iot_link/network/dtls/mbedtls/mbedtls-2.16.2/library\sha256.c ****     memset( ctx, 0, sizeof( mbedtls_sha256_context ) );
  39              		.loc 1 85 5 view .LVU4
  40 0000 6C22     		movs	r2, #108
  41 0002 0021     		movs	r1, #0
  42 0004 FFF7FEBF 		b	memset
  43              	.LVL1:
  44              		.loc 1 85 5 is_stmt 0 view .LVU5
  45              		.cfi_endproc
  46              	.LFE0:
  48              		.section	.text.mbedtls_sha256_free,"ax",%progbits
  49              		.align	1
  50              		.p2align 2,,3
  51              		.global	mbedtls_sha256_free
  52              		.syntax unified
  53              		.thumb
  54              		.thumb_func
  55              		.fpu fpv4-sp-d16
  57              	mbedtls_sha256_free:
  58              	.LVL2:
  59              	.LFB1:
  86:D:/fchai/work/i-cube/I-CUBE-HUAWEI/Middlewares/Third_Party/Huawei/iot_link/network/dtls/mbedtls/mbedtls-2.16.2/library\sha256.c **** }
  87:D:/fchai/work/i-cube/I-CUBE-HUAWEI/Middlewares/Third_Party/Huawei/iot_link/network/dtls/mbedtls/mbedtls-2.16.2/library\sha256.c **** 
  88:D:/fchai/work/i-cube/I-CUBE-HUAWEI/Middlewares/Third_Party/Huawei/iot_link/network/dtls/mbedtls/mbedtls-2.16.2/library\sha256.c **** void mbedtls_sha256_free( mbedtls_sha256_context *ctx )
  89:D:/fchai/work/i-cube/I-CUBE-HUAWEI/Middlewares/Third_Party/Huawei/iot_link/network/dtls/mbedtls/mbedtls-2.16.2/library\sha256.c **** {
  60              		.loc 1 89 1 is_stmt 1 view -0
  61              		.cfi_startproc
  62              		@ args = 0, pretend = 0, frame = 0
  63              		@ frame_needed = 0, uses_anonymous_args = 0
  64              		@ link register save eliminated.
  90:D:/fchai/work/i-cube/I-CUBE-HUAWEI/Middlewares/Third_Party/Huawei/iot_link/network/dtls/mbedtls/mbedtls-2.16.2/library\sha256.c ****     if( ctx == NULL )
  65              		.loc 1 90 5 view .LVU7
  66              		.loc 1 90 7 is_stmt 0 view .LVU8
  67 0000 10B1     		cbz	r0, .L3
  91:D:/fchai/work/i-cube/I-CUBE-HUAWEI/Middlewares/Third_Party/Huawei/iot_link/network/dtls/mbedtls/mbedtls-2.16.2/library\sha256.c ****         return;
  92:D:/fchai/work/i-cube/I-CUBE-HUAWEI/Middlewares/Third_Party/Huawei/iot_link/network/dtls/mbedtls/mbedtls-2.16.2/library\sha256.c **** 
  93:D:/fchai/work/i-cube/I-CUBE-HUAWEI/Middlewares/Third_Party/Huawei/iot_link/network/dtls/mbedtls/mbedtls-2.16.2/library\sha256.c ****     mbedtls_platform_zeroize( ctx, sizeof( mbedtls_sha256_context ) );
  68              		.loc 1 93 5 is_stmt 1 view .LVU9
  69 0002 6C21     		movs	r1, #108
  70 0004 FFF7FEBF 		b	mbedtls_platform_zeroize
  71              	.LVL3:
  72              	.L3:
  94:D:/fchai/work/i-cube/I-CUBE-HUAWEI/Middlewares/Third_Party/Huawei/iot_link/network/dtls/mbedtls/mbedtls-2.16.2/library\sha256.c **** }
  73              		.loc 1 94 1 is_stmt 0 view .LVU10
  74 0008 7047     		bx	lr
  75              		.cfi_endproc
  76              	.LFE1:
  78 000a 00BF     		.section	.text.mbedtls_sha256_clone,"ax",%progbits
  79              		.align	1
  80              		.p2align 2,,3
  81              		.global	mbedtls_sha256_clone
ARM GAS  T:\msys\tmp\ccLh2YRr.s 			page 4


  82              		.syntax unified
  83              		.thumb
  84              		.thumb_func
  85              		.fpu fpv4-sp-d16
  87              	mbedtls_sha256_clone:
  88              	.LVL4:
  89              	.LFB2:
  95:D:/fchai/work/i-cube/I-CUBE-HUAWEI/Middlewares/Third_Party/Huawei/iot_link/network/dtls/mbedtls/mbedtls-2.16.2/library\sha256.c **** 
  96:D:/fchai/work/i-cube/I-CUBE-HUAWEI/Middlewares/Third_Party/Huawei/iot_link/network/dtls/mbedtls/mbedtls-2.16.2/library\sha256.c **** void mbedtls_sha256_clone( mbedtls_sha256_context *dst,
  97:D:/fchai/work/i-cube/I-CUBE-HUAWEI/Middlewares/Third_Party/Huawei/iot_link/network/dtls/mbedtls/mbedtls-2.16.2/library\sha256.c ****                            const mbedtls_sha256_context *src )
  98:D:/fchai/work/i-cube/I-CUBE-HUAWEI/Middlewares/Third_Party/Huawei/iot_link/network/dtls/mbedtls/mbedtls-2.16.2/library\sha256.c **** {
  90              		.loc 1 98 1 is_stmt 1 view -0
  91              		.cfi_startproc
  92              		@ args = 0, pretend = 0, frame = 0
  93              		@ frame_needed = 0, uses_anonymous_args = 0
  99:D:/fchai/work/i-cube/I-CUBE-HUAWEI/Middlewares/Third_Party/Huawei/iot_link/network/dtls/mbedtls/mbedtls-2.16.2/library\sha256.c ****     SHA256_VALIDATE( dst != NULL );
  94              		.loc 1 99 5 view .LVU12
  95              		.loc 1 99 5 view .LVU13
  96              		.loc 1 99 5 view .LVU14
 100:D:/fchai/work/i-cube/I-CUBE-HUAWEI/Middlewares/Third_Party/Huawei/iot_link/network/dtls/mbedtls/mbedtls-2.16.2/library\sha256.c ****     SHA256_VALIDATE( src != NULL );
  97              		.loc 1 100 5 view .LVU15
  98              		.loc 1 100 5 view .LVU16
  99              		.loc 1 100 5 view .LVU17
 101:D:/fchai/work/i-cube/I-CUBE-HUAWEI/Middlewares/Third_Party/Huawei/iot_link/network/dtls/mbedtls/mbedtls-2.16.2/library\sha256.c **** 
 102:D:/fchai/work/i-cube/I-CUBE-HUAWEI/Middlewares/Third_Party/Huawei/iot_link/network/dtls/mbedtls/mbedtls-2.16.2/library\sha256.c ****     *dst = *src;
 100              		.loc 1 102 5 view .LVU18
  98:D:/fchai/work/i-cube/I-CUBE-HUAWEI/Middlewares/Third_Party/Huawei/iot_link/network/dtls/mbedtls/mbedtls-2.16.2/library\sha256.c ****     SHA256_VALIDATE( dst != NULL );
 101              		.loc 1 98 1 is_stmt 0 view .LVU19
 102 0000 08B5     		push	{r3, lr}
 103              	.LCFI0:
 104              		.cfi_def_cfa_offset 8
 105              		.cfi_offset 3, -8
 106              		.cfi_offset 14, -4
 107              		.loc 1 102 10 view .LVU20
 108 0002 6C22     		movs	r2, #108
 109 0004 FFF7FEFF 		bl	memcpy
 110              	.LVL5:
 103:D:/fchai/work/i-cube/I-CUBE-HUAWEI/Middlewares/Third_Party/Huawei/iot_link/network/dtls/mbedtls/mbedtls-2.16.2/library\sha256.c **** }
 111              		.loc 1 103 1 view .LVU21
 112 0008 08BD     		pop	{r3, pc}
 113              		.cfi_endproc
 114              	.LFE2:
 116 000a 00BF     		.section	.text.mbedtls_sha256_starts_ret,"ax",%progbits
 117              		.align	1
 118              		.p2align 2,,3
 119              		.global	mbedtls_sha256_starts_ret
 120              		.syntax unified
 121              		.thumb
 122              		.thumb_func
 123              		.fpu fpv4-sp-d16
 125              	mbedtls_sha256_starts_ret:
 126              	.LVL6:
 127              	.LFB3:
 104:D:/fchai/work/i-cube/I-CUBE-HUAWEI/Middlewares/Third_Party/Huawei/iot_link/network/dtls/mbedtls/mbedtls-2.16.2/library\sha256.c **** 
 105:D:/fchai/work/i-cube/I-CUBE-HUAWEI/Middlewares/Third_Party/Huawei/iot_link/network/dtls/mbedtls/mbedtls-2.16.2/library\sha256.c **** /*
 106:D:/fchai/work/i-cube/I-CUBE-HUAWEI/Middlewares/Third_Party/Huawei/iot_link/network/dtls/mbedtls/mbedtls-2.16.2/library\sha256.c ****  * SHA-256 context setup
 107:D:/fchai/work/i-cube/I-CUBE-HUAWEI/Middlewares/Third_Party/Huawei/iot_link/network/dtls/mbedtls/mbedtls-2.16.2/library\sha256.c ****  */
ARM GAS  T:\msys\tmp\ccLh2YRr.s 			page 5


 108:D:/fchai/work/i-cube/I-CUBE-HUAWEI/Middlewares/Third_Party/Huawei/iot_link/network/dtls/mbedtls/mbedtls-2.16.2/library\sha256.c **** int mbedtls_sha256_starts_ret( mbedtls_sha256_context *ctx, int is224 )
 109:D:/fchai/work/i-cube/I-CUBE-HUAWEI/Middlewares/Third_Party/Huawei/iot_link/network/dtls/mbedtls/mbedtls-2.16.2/library\sha256.c **** {
 128              		.loc 1 109 1 is_stmt 1 view -0
 129              		.cfi_startproc
 130              		@ args = 0, pretend = 0, frame = 0
 131              		@ frame_needed = 0, uses_anonymous_args = 0
 132              		@ link register save eliminated.
 110:D:/fchai/work/i-cube/I-CUBE-HUAWEI/Middlewares/Third_Party/Huawei/iot_link/network/dtls/mbedtls/mbedtls-2.16.2/library\sha256.c ****     SHA256_VALIDATE_RET( ctx != NULL );
 133              		.loc 1 110 5 view .LVU23
 134              		.loc 1 110 5 view .LVU24
 135              		.loc 1 110 5 view .LVU25
 111:D:/fchai/work/i-cube/I-CUBE-HUAWEI/Middlewares/Third_Party/Huawei/iot_link/network/dtls/mbedtls/mbedtls-2.16.2/library\sha256.c ****     SHA256_VALIDATE_RET( is224 == 0 || is224 == 1 );
 136              		.loc 1 111 5 view .LVU26
 137              		.loc 1 111 5 view .LVU27
 138              		.loc 1 111 5 view .LVU28
 112:D:/fchai/work/i-cube/I-CUBE-HUAWEI/Middlewares/Third_Party/Huawei/iot_link/network/dtls/mbedtls/mbedtls-2.16.2/library\sha256.c **** 
 113:D:/fchai/work/i-cube/I-CUBE-HUAWEI/Middlewares/Third_Party/Huawei/iot_link/network/dtls/mbedtls/mbedtls-2.16.2/library\sha256.c ****     ctx->total[0] = 0;
 139              		.loc 1 113 5 view .LVU29
 140              		.loc 1 113 19 is_stmt 0 view .LVU30
 141 0000 0023     		movs	r3, #0
 109:D:/fchai/work/i-cube/I-CUBE-HUAWEI/Middlewares/Third_Party/Huawei/iot_link/network/dtls/mbedtls/mbedtls-2.16.2/library\sha256.c ****     SHA256_VALIDATE_RET( ctx != NULL );
 142              		.loc 1 109 1 view .LVU31
 143 0002 30B4     		push	{r4, r5}
 144              	.LCFI1:
 145              		.cfi_def_cfa_offset 8
 146              		.cfi_offset 4, -8
 147              		.cfi_offset 5, -4
 114:D:/fchai/work/i-cube/I-CUBE-HUAWEI/Middlewares/Third_Party/Huawei/iot_link/network/dtls/mbedtls/mbedtls-2.16.2/library\sha256.c ****     ctx->total[1] = 0;
 148              		.loc 1 114 19 view .LVU32
 149 0004 C0E90033 		strd	r3, r3, [r0]
 115:D:/fchai/work/i-cube/I-CUBE-HUAWEI/Middlewares/Third_Party/Huawei/iot_link/network/dtls/mbedtls/mbedtls-2.16.2/library\sha256.c **** 
 116:D:/fchai/work/i-cube/I-CUBE-HUAWEI/Middlewares/Third_Party/Huawei/iot_link/network/dtls/mbedtls/mbedtls-2.16.2/library\sha256.c ****     if( is224 == 0 )
 150              		.loc 1 116 5 is_stmt 1 view .LVU33
 151              		.loc 1 116 7 is_stmt 0 view .LVU34
 152 0008 99B9     		cbnz	r1, .L8
 117:D:/fchai/work/i-cube/I-CUBE-HUAWEI/Middlewares/Third_Party/Huawei/iot_link/network/dtls/mbedtls/mbedtls-2.16.2/library\sha256.c ****     {
 118:D:/fchai/work/i-cube/I-CUBE-HUAWEI/Middlewares/Third_Party/Huawei/iot_link/network/dtls/mbedtls/mbedtls-2.16.2/library\sha256.c ****         /* SHA-256 */
 119:D:/fchai/work/i-cube/I-CUBE-HUAWEI/Middlewares/Third_Party/Huawei/iot_link/network/dtls/mbedtls/mbedtls-2.16.2/library\sha256.c ****         ctx->state[0] = 0x6A09E667;
 153              		.loc 1 119 9 is_stmt 1 view .LVU35
 154              		.loc 1 119 23 is_stmt 0 view .LVU36
 155 000a 164D     		ldr	r5, .L11
 120:D:/fchai/work/i-cube/I-CUBE-HUAWEI/Middlewares/Third_Party/Huawei/iot_link/network/dtls/mbedtls/mbedtls-2.16.2/library\sha256.c ****         ctx->state[1] = 0xBB67AE85;
 156              		.loc 1 120 23 view .LVU37
 157 000c 164C     		ldr	r4, .L11+4
 121:D:/fchai/work/i-cube/I-CUBE-HUAWEI/Middlewares/Third_Party/Huawei/iot_link/network/dtls/mbedtls/mbedtls-2.16.2/library\sha256.c ****         ctx->state[2] = 0x3C6EF372;
 158              		.loc 1 121 23 view .LVU38
 159 000e 174A     		ldr	r2, .L11+8
 122:D:/fchai/work/i-cube/I-CUBE-HUAWEI/Middlewares/Third_Party/Huawei/iot_link/network/dtls/mbedtls/mbedtls-2.16.2/library\sha256.c ****         ctx->state[3] = 0xA54FF53A;
 160              		.loc 1 122 23 view .LVU39
 161 0010 174B     		ldr	r3, .L11+12
 119:D:/fchai/work/i-cube/I-CUBE-HUAWEI/Middlewares/Third_Party/Huawei/iot_link/network/dtls/mbedtls/mbedtls-2.16.2/library\sha256.c ****         ctx->state[1] = 0xBB67AE85;
 162              		.loc 1 119 23 view .LVU40
 163 0012 8560     		str	r5, [r0, #8]
 120:D:/fchai/work/i-cube/I-CUBE-HUAWEI/Middlewares/Third_Party/Huawei/iot_link/network/dtls/mbedtls/mbedtls-2.16.2/library\sha256.c ****         ctx->state[2] = 0x3C6EF372;
 164              		.loc 1 120 9 is_stmt 1 view .LVU41
 120:D:/fchai/work/i-cube/I-CUBE-HUAWEI/Middlewares/Third_Party/Huawei/iot_link/network/dtls/mbedtls/mbedtls-2.16.2/library\sha256.c ****         ctx->state[2] = 0x3C6EF372;
 165              		.loc 1 120 23 is_stmt 0 view .LVU42
ARM GAS  T:\msys\tmp\ccLh2YRr.s 			page 6


 166 0014 C460     		str	r4, [r0, #12]
 121:D:/fchai/work/i-cube/I-CUBE-HUAWEI/Middlewares/Third_Party/Huawei/iot_link/network/dtls/mbedtls/mbedtls-2.16.2/library\sha256.c ****         ctx->state[3] = 0xA54FF53A;
 167              		.loc 1 121 9 is_stmt 1 view .LVU43
 123:D:/fchai/work/i-cube/I-CUBE-HUAWEI/Middlewares/Third_Party/Huawei/iot_link/network/dtls/mbedtls/mbedtls-2.16.2/library\sha256.c ****         ctx->state[4] = 0x510E527F;
 168              		.loc 1 123 23 is_stmt 0 view .LVU44
 169 0016 174D     		ldr	r5, .L11+16
 124:D:/fchai/work/i-cube/I-CUBE-HUAWEI/Middlewares/Third_Party/Huawei/iot_link/network/dtls/mbedtls/mbedtls-2.16.2/library\sha256.c ****         ctx->state[5] = 0x9B05688C;
 170              		.loc 1 124 23 view .LVU45
 171 0018 174C     		ldr	r4, .L11+20
 121:D:/fchai/work/i-cube/I-CUBE-HUAWEI/Middlewares/Third_Party/Huawei/iot_link/network/dtls/mbedtls/mbedtls-2.16.2/library\sha256.c ****         ctx->state[3] = 0xA54FF53A;
 172              		.loc 1 121 23 view .LVU46
 173 001a 0261     		str	r2, [r0, #16]
 122:D:/fchai/work/i-cube/I-CUBE-HUAWEI/Middlewares/Third_Party/Huawei/iot_link/network/dtls/mbedtls/mbedtls-2.16.2/library\sha256.c ****         ctx->state[4] = 0x510E527F;
 174              		.loc 1 122 9 is_stmt 1 view .LVU47
 122:D:/fchai/work/i-cube/I-CUBE-HUAWEI/Middlewares/Third_Party/Huawei/iot_link/network/dtls/mbedtls/mbedtls-2.16.2/library\sha256.c ****         ctx->state[4] = 0x510E527F;
 175              		.loc 1 122 23 is_stmt 0 view .LVU48
 176 001c 4361     		str	r3, [r0, #20]
 123:D:/fchai/work/i-cube/I-CUBE-HUAWEI/Middlewares/Third_Party/Huawei/iot_link/network/dtls/mbedtls/mbedtls-2.16.2/library\sha256.c ****         ctx->state[4] = 0x510E527F;
 177              		.loc 1 123 9 is_stmt 1 view .LVU49
 125:D:/fchai/work/i-cube/I-CUBE-HUAWEI/Middlewares/Third_Party/Huawei/iot_link/network/dtls/mbedtls/mbedtls-2.16.2/library\sha256.c ****         ctx->state[6] = 0x1F83D9AB;
 178              		.loc 1 125 23 is_stmt 0 view .LVU50
 179 001e 174A     		ldr	r2, .L11+24
 126:D:/fchai/work/i-cube/I-CUBE-HUAWEI/Middlewares/Third_Party/Huawei/iot_link/network/dtls/mbedtls/mbedtls-2.16.2/library\sha256.c ****         ctx->state[7] = 0x5BE0CD19;
 180              		.loc 1 126 23 view .LVU51
 181 0020 174B     		ldr	r3, .L11+28
 127:D:/fchai/work/i-cube/I-CUBE-HUAWEI/Middlewares/Third_Party/Huawei/iot_link/network/dtls/mbedtls/mbedtls-2.16.2/library\sha256.c ****     }
 128:D:/fchai/work/i-cube/I-CUBE-HUAWEI/Middlewares/Third_Party/Huawei/iot_link/network/dtls/mbedtls/mbedtls-2.16.2/library\sha256.c ****     else
 129:D:/fchai/work/i-cube/I-CUBE-HUAWEI/Middlewares/Third_Party/Huawei/iot_link/network/dtls/mbedtls/mbedtls-2.16.2/library\sha256.c ****     {
 130:D:/fchai/work/i-cube/I-CUBE-HUAWEI/Middlewares/Third_Party/Huawei/iot_link/network/dtls/mbedtls/mbedtls-2.16.2/library\sha256.c ****         /* SHA-224 */
 131:D:/fchai/work/i-cube/I-CUBE-HUAWEI/Middlewares/Third_Party/Huawei/iot_link/network/dtls/mbedtls/mbedtls-2.16.2/library\sha256.c ****         ctx->state[0] = 0xC1059ED8;
 132:D:/fchai/work/i-cube/I-CUBE-HUAWEI/Middlewares/Third_Party/Huawei/iot_link/network/dtls/mbedtls/mbedtls-2.16.2/library\sha256.c ****         ctx->state[1] = 0x367CD507;
 133:D:/fchai/work/i-cube/I-CUBE-HUAWEI/Middlewares/Third_Party/Huawei/iot_link/network/dtls/mbedtls/mbedtls-2.16.2/library\sha256.c ****         ctx->state[2] = 0x3070DD17;
 134:D:/fchai/work/i-cube/I-CUBE-HUAWEI/Middlewares/Third_Party/Huawei/iot_link/network/dtls/mbedtls/mbedtls-2.16.2/library\sha256.c ****         ctx->state[3] = 0xF70E5939;
 135:D:/fchai/work/i-cube/I-CUBE-HUAWEI/Middlewares/Third_Party/Huawei/iot_link/network/dtls/mbedtls/mbedtls-2.16.2/library\sha256.c ****         ctx->state[4] = 0xFFC00B31;
 136:D:/fchai/work/i-cube/I-CUBE-HUAWEI/Middlewares/Third_Party/Huawei/iot_link/network/dtls/mbedtls/mbedtls-2.16.2/library\sha256.c ****         ctx->state[5] = 0x68581511;
 137:D:/fchai/work/i-cube/I-CUBE-HUAWEI/Middlewares/Third_Party/Huawei/iot_link/network/dtls/mbedtls/mbedtls-2.16.2/library\sha256.c ****         ctx->state[6] = 0x64F98FA7;
 138:D:/fchai/work/i-cube/I-CUBE-HUAWEI/Middlewares/Third_Party/Huawei/iot_link/network/dtls/mbedtls/mbedtls-2.16.2/library\sha256.c ****         ctx->state[7] = 0xBEFA4FA4;
 139:D:/fchai/work/i-cube/I-CUBE-HUAWEI/Middlewares/Third_Party/Huawei/iot_link/network/dtls/mbedtls/mbedtls-2.16.2/library\sha256.c ****     }
 140:D:/fchai/work/i-cube/I-CUBE-HUAWEI/Middlewares/Third_Party/Huawei/iot_link/network/dtls/mbedtls/mbedtls-2.16.2/library\sha256.c **** 
 141:D:/fchai/work/i-cube/I-CUBE-HUAWEI/Middlewares/Third_Party/Huawei/iot_link/network/dtls/mbedtls/mbedtls-2.16.2/library\sha256.c ****     ctx->is224 = is224;
 182              		.loc 1 141 16 view .LVU52
 183 0022 8166     		str	r1, [r0, #104]
 124:D:/fchai/work/i-cube/I-CUBE-HUAWEI/Middlewares/Third_Party/Huawei/iot_link/network/dtls/mbedtls/mbedtls-2.16.2/library\sha256.c ****         ctx->state[6] = 0x1F83D9AB;
 184              		.loc 1 124 23 view .LVU53
 185 0024 C0E90654 		strd	r5, r4, [r0, #24]
 125:D:/fchai/work/i-cube/I-CUBE-HUAWEI/Middlewares/Third_Party/Huawei/iot_link/network/dtls/mbedtls/mbedtls-2.16.2/library\sha256.c ****         ctx->state[7] = 0x5BE0CD19;
 186              		.loc 1 125 9 is_stmt 1 view .LVU54
 126:D:/fchai/work/i-cube/I-CUBE-HUAWEI/Middlewares/Third_Party/Huawei/iot_link/network/dtls/mbedtls/mbedtls-2.16.2/library\sha256.c ****     }
 187              		.loc 1 126 23 is_stmt 0 view .LVU55
 188 0028 C0E90823 		strd	r2, r3, [r0, #32]
 189              		.loc 1 141 5 is_stmt 1 view .LVU56
 142:D:/fchai/work/i-cube/I-CUBE-HUAWEI/Middlewares/Third_Party/Huawei/iot_link/network/dtls/mbedtls/mbedtls-2.16.2/library\sha256.c **** 
 143:D:/fchai/work/i-cube/I-CUBE-HUAWEI/Middlewares/Third_Party/Huawei/iot_link/network/dtls/mbedtls/mbedtls-2.16.2/library\sha256.c ****     return( 0 );
 190              		.loc 1 143 5 view .LVU57
 144:D:/fchai/work/i-cube/I-CUBE-HUAWEI/Middlewares/Third_Party/Huawei/iot_link/network/dtls/mbedtls/mbedtls-2.16.2/library\sha256.c **** }
 191              		.loc 1 144 1 is_stmt 0 view .LVU58
 192 002c 30BC     		pop	{r4, r5}
ARM GAS  T:\msys\tmp\ccLh2YRr.s 			page 7


 193              	.LCFI2:
 194              		.cfi_remember_state
 195              		.cfi_restore 5
 196              		.cfi_restore 4
 197              		.cfi_def_cfa_offset 0
 198 002e 0020     		movs	r0, #0
 199              	.LVL7:
 200              		.loc 1 144 1 view .LVU59
 201 0030 7047     		bx	lr
 202              	.LVL8:
 203              	.L8:
 204              	.LCFI3:
 205              		.cfi_restore_state
 131:D:/fchai/work/i-cube/I-CUBE-HUAWEI/Middlewares/Third_Party/Huawei/iot_link/network/dtls/mbedtls/mbedtls-2.16.2/library\sha256.c ****         ctx->state[1] = 0x367CD507;
 206              		.loc 1 131 9 is_stmt 1 view .LVU60
 132:D:/fchai/work/i-cube/I-CUBE-HUAWEI/Middlewares/Third_Party/Huawei/iot_link/network/dtls/mbedtls/mbedtls-2.16.2/library\sha256.c ****         ctx->state[2] = 0x3070DD17;
 207              		.loc 1 132 23 is_stmt 0 view .LVU61
 208 0032 144C     		ldr	r4, .L11+32
 131:D:/fchai/work/i-cube/I-CUBE-HUAWEI/Middlewares/Third_Party/Huawei/iot_link/network/dtls/mbedtls/mbedtls-2.16.2/library\sha256.c ****         ctx->state[1] = 0x367CD507;
 209              		.loc 1 131 23 view .LVU62
 210 0034 144D     		ldr	r5, .L11+36
 133:D:/fchai/work/i-cube/I-CUBE-HUAWEI/Middlewares/Third_Party/Huawei/iot_link/network/dtls/mbedtls/mbedtls-2.16.2/library\sha256.c ****         ctx->state[3] = 0xF70E5939;
 211              		.loc 1 133 23 view .LVU63
 212 0036 154A     		ldr	r2, .L11+40
 134:D:/fchai/work/i-cube/I-CUBE-HUAWEI/Middlewares/Third_Party/Huawei/iot_link/network/dtls/mbedtls/mbedtls-2.16.2/library\sha256.c ****         ctx->state[4] = 0xFFC00B31;
 213              		.loc 1 134 23 view .LVU64
 214 0038 154B     		ldr	r3, .L11+44
 132:D:/fchai/work/i-cube/I-CUBE-HUAWEI/Middlewares/Third_Party/Huawei/iot_link/network/dtls/mbedtls/mbedtls-2.16.2/library\sha256.c ****         ctx->state[2] = 0x3070DD17;
 215              		.loc 1 132 23 view .LVU65
 216 003a C460     		str	r4, [r0, #12]
 136:D:/fchai/work/i-cube/I-CUBE-HUAWEI/Middlewares/Third_Party/Huawei/iot_link/network/dtls/mbedtls/mbedtls-2.16.2/library\sha256.c ****         ctx->state[6] = 0x64F98FA7;
 217              		.loc 1 136 23 view .LVU66
 218 003c 04F14754 		add	r4, r4, #834666496
 131:D:/fchai/work/i-cube/I-CUBE-HUAWEI/Middlewares/Third_Party/Huawei/iot_link/network/dtls/mbedtls/mbedtls-2.16.2/library\sha256.c ****         ctx->state[1] = 0x367CD507;
 219              		.loc 1 131 23 view .LVU67
 220 0040 8560     		str	r5, [r0, #8]
 132:D:/fchai/work/i-cube/I-CUBE-HUAWEI/Middlewares/Third_Party/Huawei/iot_link/network/dtls/mbedtls/mbedtls-2.16.2/library\sha256.c ****         ctx->state[2] = 0x3070DD17;
 221              		.loc 1 132 9 is_stmt 1 view .LVU68
 133:D:/fchai/work/i-cube/I-CUBE-HUAWEI/Middlewares/Third_Party/Huawei/iot_link/network/dtls/mbedtls/mbedtls-2.16.2/library\sha256.c ****         ctx->state[3] = 0xF70E5939;
 222              		.loc 1 133 9 view .LVU69
 133:D:/fchai/work/i-cube/I-CUBE-HUAWEI/Middlewares/Third_Party/Huawei/iot_link/network/dtls/mbedtls/mbedtls-2.16.2/library\sha256.c ****         ctx->state[3] = 0xF70E5939;
 223              		.loc 1 133 23 is_stmt 0 view .LVU70
 224 0042 0261     		str	r2, [r0, #16]
 134:D:/fchai/work/i-cube/I-CUBE-HUAWEI/Middlewares/Third_Party/Huawei/iot_link/network/dtls/mbedtls/mbedtls-2.16.2/library\sha256.c ****         ctx->state[4] = 0xFFC00B31;
 225              		.loc 1 134 9 is_stmt 1 view .LVU71
 135:D:/fchai/work/i-cube/I-CUBE-HUAWEI/Middlewares/Third_Party/Huawei/iot_link/network/dtls/mbedtls/mbedtls-2.16.2/library\sha256.c ****         ctx->state[5] = 0x68581511;
 226              		.loc 1 135 23 is_stmt 0 view .LVU72
 227 0044 134D     		ldr	r5, .L11+48
 134:D:/fchai/work/i-cube/I-CUBE-HUAWEI/Middlewares/Third_Party/Huawei/iot_link/network/dtls/mbedtls/mbedtls-2.16.2/library\sha256.c ****         ctx->state[4] = 0xFFC00B31;
 228              		.loc 1 134 23 view .LVU73
 229 0046 4361     		str	r3, [r0, #20]
 135:D:/fchai/work/i-cube/I-CUBE-HUAWEI/Middlewares/Third_Party/Huawei/iot_link/network/dtls/mbedtls/mbedtls-2.16.2/library\sha256.c ****         ctx->state[5] = 0x68581511;
 230              		.loc 1 135 9 is_stmt 1 view .LVU74
 137:D:/fchai/work/i-cube/I-CUBE-HUAWEI/Middlewares/Third_Party/Huawei/iot_link/network/dtls/mbedtls/mbedtls-2.16.2/library\sha256.c ****         ctx->state[7] = 0xBEFA4FA4;
 231              		.loc 1 137 23 is_stmt 0 view .LVU75
 232 0048 134A     		ldr	r2, .L11+52
 138:D:/fchai/work/i-cube/I-CUBE-HUAWEI/Middlewares/Third_Party/Huawei/iot_link/network/dtls/mbedtls/mbedtls-2.16.2/library\sha256.c ****     }
ARM GAS  T:\msys\tmp\ccLh2YRr.s 			page 8


 233              		.loc 1 138 23 view .LVU76
 234 004a 144B     		ldr	r3, .L11+56
 141:D:/fchai/work/i-cube/I-CUBE-HUAWEI/Middlewares/Third_Party/Huawei/iot_link/network/dtls/mbedtls/mbedtls-2.16.2/library\sha256.c **** 
 235              		.loc 1 141 16 view .LVU77
 236 004c 8166     		str	r1, [r0, #104]
 136:D:/fchai/work/i-cube/I-CUBE-HUAWEI/Middlewares/Third_Party/Huawei/iot_link/network/dtls/mbedtls/mbedtls-2.16.2/library\sha256.c ****         ctx->state[6] = 0x64F98FA7;
 237              		.loc 1 136 23 view .LVU78
 238 004e 04F5DA14 		add	r4, r4, #1785856
 239 0052 0A34     		adds	r4, r4, #10
 240 0054 C0E90654 		strd	r5, r4, [r0, #24]
 137:D:/fchai/work/i-cube/I-CUBE-HUAWEI/Middlewares/Third_Party/Huawei/iot_link/network/dtls/mbedtls/mbedtls-2.16.2/library\sha256.c ****         ctx->state[7] = 0xBEFA4FA4;
 241              		.loc 1 137 9 is_stmt 1 view .LVU79
 138:D:/fchai/work/i-cube/I-CUBE-HUAWEI/Middlewares/Third_Party/Huawei/iot_link/network/dtls/mbedtls/mbedtls-2.16.2/library\sha256.c ****     }
 242              		.loc 1 138 23 is_stmt 0 view .LVU80
 243 0058 C0E90823 		strd	r2, r3, [r0, #32]
 141:D:/fchai/work/i-cube/I-CUBE-HUAWEI/Middlewares/Third_Party/Huawei/iot_link/network/dtls/mbedtls/mbedtls-2.16.2/library\sha256.c **** 
 244              		.loc 1 141 5 is_stmt 1 view .LVU81
 143:D:/fchai/work/i-cube/I-CUBE-HUAWEI/Middlewares/Third_Party/Huawei/iot_link/network/dtls/mbedtls/mbedtls-2.16.2/library\sha256.c **** }
 245              		.loc 1 143 5 view .LVU82
 246              		.loc 1 144 1 is_stmt 0 view .LVU83
 247 005c 30BC     		pop	{r4, r5}
 248              	.LCFI4:
 249              		.cfi_restore 5
 250              		.cfi_restore 4
 251              		.cfi_def_cfa_offset 0
 252 005e 0020     		movs	r0, #0
 253              	.LVL9:
 254              		.loc 1 144 1 view .LVU84
 255 0060 7047     		bx	lr
 256              	.L12:
 257 0062 00BF     		.align	2
 258              	.L11:
 259 0064 67E6096A 		.word	1779033703
 260 0068 85AE67BB 		.word	-1150833019
 261 006c 72F36E3C 		.word	1013904242
 262 0070 3AF54FA5 		.word	-1521486534
 263 0074 7F520E51 		.word	1359893119
 264 0078 8C68059B 		.word	-1694144372
 265 007c ABD9831F 		.word	528734635
 266 0080 19CDE05B 		.word	1541459225
 267 0084 07D57C36 		.word	914150663
 268 0088 D89E05C1 		.word	-1056596264
 269 008c 17DD7030 		.word	812702999
 270 0090 39590EF7 		.word	-150054599
 271 0094 310BC0FF 		.word	-4191439
 272 0098 A78FF964 		.word	1694076839
 273 009c A44FFABE 		.word	-1090891868
 274              		.cfi_endproc
 275              	.LFE3:
 277              		.section	.text.mbedtls_sha256_starts,"ax",%progbits
 278              		.align	1
 279              		.p2align 2,,3
 280              		.global	mbedtls_sha256_starts
 281              		.syntax unified
 282              		.thumb
 283              		.thumb_func
 284              		.fpu fpv4-sp-d16
ARM GAS  T:\msys\tmp\ccLh2YRr.s 			page 9


 286              	mbedtls_sha256_starts:
 287              	.LVL10:
 288              	.LFB4:
 145:D:/fchai/work/i-cube/I-CUBE-HUAWEI/Middlewares/Third_Party/Huawei/iot_link/network/dtls/mbedtls/mbedtls-2.16.2/library\sha256.c **** 
 146:D:/fchai/work/i-cube/I-CUBE-HUAWEI/Middlewares/Third_Party/Huawei/iot_link/network/dtls/mbedtls/mbedtls-2.16.2/library\sha256.c **** #if !defined(MBEDTLS_DEPRECATED_REMOVED)
 147:D:/fchai/work/i-cube/I-CUBE-HUAWEI/Middlewares/Third_Party/Huawei/iot_link/network/dtls/mbedtls/mbedtls-2.16.2/library\sha256.c **** void mbedtls_sha256_starts( mbedtls_sha256_context *ctx,
 148:D:/fchai/work/i-cube/I-CUBE-HUAWEI/Middlewares/Third_Party/Huawei/iot_link/network/dtls/mbedtls/mbedtls-2.16.2/library\sha256.c ****                             int is224 )
 149:D:/fchai/work/i-cube/I-CUBE-HUAWEI/Middlewares/Third_Party/Huawei/iot_link/network/dtls/mbedtls/mbedtls-2.16.2/library\sha256.c **** {
 289              		.loc 1 149 1 is_stmt 1 view -0
 290              		.cfi_startproc
 291              		@ args = 0, pretend = 0, frame = 0
 292              		@ frame_needed = 0, uses_anonymous_args = 0
 293              		@ link register save eliminated.
 150:D:/fchai/work/i-cube/I-CUBE-HUAWEI/Middlewares/Third_Party/Huawei/iot_link/network/dtls/mbedtls/mbedtls-2.16.2/library\sha256.c ****     mbedtls_sha256_starts_ret( ctx, is224 );
 294              		.loc 1 150 5 view .LVU86
 295              	.LBB14:
 296              	.LBI14:
 108:D:/fchai/work/i-cube/I-CUBE-HUAWEI/Middlewares/Third_Party/Huawei/iot_link/network/dtls/mbedtls/mbedtls-2.16.2/library\sha256.c **** {
 297              		.loc 1 108 5 view .LVU87
 298              	.LBB15:
 110:D:/fchai/work/i-cube/I-CUBE-HUAWEI/Middlewares/Third_Party/Huawei/iot_link/network/dtls/mbedtls/mbedtls-2.16.2/library\sha256.c ****     SHA256_VALIDATE_RET( is224 == 0 || is224 == 1 );
 299              		.loc 1 110 5 view .LVU88
 110:D:/fchai/work/i-cube/I-CUBE-HUAWEI/Middlewares/Third_Party/Huawei/iot_link/network/dtls/mbedtls/mbedtls-2.16.2/library\sha256.c ****     SHA256_VALIDATE_RET( is224 == 0 || is224 == 1 );
 300              		.loc 1 110 5 view .LVU89
 110:D:/fchai/work/i-cube/I-CUBE-HUAWEI/Middlewares/Third_Party/Huawei/iot_link/network/dtls/mbedtls/mbedtls-2.16.2/library\sha256.c ****     SHA256_VALIDATE_RET( is224 == 0 || is224 == 1 );
 301              		.loc 1 110 5 view .LVU90
 111:D:/fchai/work/i-cube/I-CUBE-HUAWEI/Middlewares/Third_Party/Huawei/iot_link/network/dtls/mbedtls/mbedtls-2.16.2/library\sha256.c **** 
 302              		.loc 1 111 5 view .LVU91
 111:D:/fchai/work/i-cube/I-CUBE-HUAWEI/Middlewares/Third_Party/Huawei/iot_link/network/dtls/mbedtls/mbedtls-2.16.2/library\sha256.c **** 
 303              		.loc 1 111 5 view .LVU92
 111:D:/fchai/work/i-cube/I-CUBE-HUAWEI/Middlewares/Third_Party/Huawei/iot_link/network/dtls/mbedtls/mbedtls-2.16.2/library\sha256.c **** 
 304              		.loc 1 111 5 view .LVU93
 113:D:/fchai/work/i-cube/I-CUBE-HUAWEI/Middlewares/Third_Party/Huawei/iot_link/network/dtls/mbedtls/mbedtls-2.16.2/library\sha256.c ****     ctx->total[1] = 0;
 305              		.loc 1 113 5 view .LVU94
 113:D:/fchai/work/i-cube/I-CUBE-HUAWEI/Middlewares/Third_Party/Huawei/iot_link/network/dtls/mbedtls/mbedtls-2.16.2/library\sha256.c ****     ctx->total[1] = 0;
 306              		.loc 1 113 19 is_stmt 0 view .LVU95
 307 0000 0023     		movs	r3, #0
 308              	.LBE15:
 309              	.LBE14:
 149:D:/fchai/work/i-cube/I-CUBE-HUAWEI/Middlewares/Third_Party/Huawei/iot_link/network/dtls/mbedtls/mbedtls-2.16.2/library\sha256.c ****     mbedtls_sha256_starts_ret( ctx, is224 );
 310              		.loc 1 149 1 view .LVU96
 311 0002 30B4     		push	{r4, r5}
 312              	.LCFI5:
 313              		.cfi_def_cfa_offset 8
 314              		.cfi_offset 4, -8
 315              		.cfi_offset 5, -4
 316              	.LBB18:
 317              	.LBB16:
 114:D:/fchai/work/i-cube/I-CUBE-HUAWEI/Middlewares/Third_Party/Huawei/iot_link/network/dtls/mbedtls/mbedtls-2.16.2/library\sha256.c **** 
 318              		.loc 1 114 19 view .LVU97
 319 0004 C0E90033 		strd	r3, r3, [r0]
 116:D:/fchai/work/i-cube/I-CUBE-HUAWEI/Middlewares/Third_Party/Huawei/iot_link/network/dtls/mbedtls/mbedtls-2.16.2/library\sha256.c ****     {
 320              		.loc 1 116 5 is_stmt 1 view .LVU98
 116:D:/fchai/work/i-cube/I-CUBE-HUAWEI/Middlewares/Third_Party/Huawei/iot_link/network/dtls/mbedtls/mbedtls-2.16.2/library\sha256.c ****     {
 321              		.loc 1 116 7 is_stmt 0 view .LVU99
 322 0008 91B9     		cbnz	r1, .L14
 119:D:/fchai/work/i-cube/I-CUBE-HUAWEI/Middlewares/Third_Party/Huawei/iot_link/network/dtls/mbedtls/mbedtls-2.16.2/library\sha256.c ****         ctx->state[1] = 0xBB67AE85;
ARM GAS  T:\msys\tmp\ccLh2YRr.s 			page 10


 323              		.loc 1 119 9 is_stmt 1 view .LVU100
 119:D:/fchai/work/i-cube/I-CUBE-HUAWEI/Middlewares/Third_Party/Huawei/iot_link/network/dtls/mbedtls/mbedtls-2.16.2/library\sha256.c ****         ctx->state[1] = 0xBB67AE85;
 324              		.loc 1 119 23 is_stmt 0 view .LVU101
 325 000a 154D     		ldr	r5, .L17
 120:D:/fchai/work/i-cube/I-CUBE-HUAWEI/Middlewares/Third_Party/Huawei/iot_link/network/dtls/mbedtls/mbedtls-2.16.2/library\sha256.c ****         ctx->state[2] = 0x3C6EF372;
 326              		.loc 1 120 23 view .LVU102
 327 000c 154C     		ldr	r4, .L17+4
 121:D:/fchai/work/i-cube/I-CUBE-HUAWEI/Middlewares/Third_Party/Huawei/iot_link/network/dtls/mbedtls/mbedtls-2.16.2/library\sha256.c ****         ctx->state[3] = 0xA54FF53A;
 328              		.loc 1 121 23 view .LVU103
 329 000e 164A     		ldr	r2, .L17+8
 122:D:/fchai/work/i-cube/I-CUBE-HUAWEI/Middlewares/Third_Party/Huawei/iot_link/network/dtls/mbedtls/mbedtls-2.16.2/library\sha256.c ****         ctx->state[4] = 0x510E527F;
 330              		.loc 1 122 23 view .LVU104
 331 0010 164B     		ldr	r3, .L17+12
 119:D:/fchai/work/i-cube/I-CUBE-HUAWEI/Middlewares/Third_Party/Huawei/iot_link/network/dtls/mbedtls/mbedtls-2.16.2/library\sha256.c ****         ctx->state[1] = 0xBB67AE85;
 332              		.loc 1 119 23 view .LVU105
 333 0012 8560     		str	r5, [r0, #8]
 120:D:/fchai/work/i-cube/I-CUBE-HUAWEI/Middlewares/Third_Party/Huawei/iot_link/network/dtls/mbedtls/mbedtls-2.16.2/library\sha256.c ****         ctx->state[2] = 0x3C6EF372;
 334              		.loc 1 120 9 is_stmt 1 view .LVU106
 120:D:/fchai/work/i-cube/I-CUBE-HUAWEI/Middlewares/Third_Party/Huawei/iot_link/network/dtls/mbedtls/mbedtls-2.16.2/library\sha256.c ****         ctx->state[2] = 0x3C6EF372;
 335              		.loc 1 120 23 is_stmt 0 view .LVU107
 336 0014 C460     		str	r4, [r0, #12]
 121:D:/fchai/work/i-cube/I-CUBE-HUAWEI/Middlewares/Third_Party/Huawei/iot_link/network/dtls/mbedtls/mbedtls-2.16.2/library\sha256.c ****         ctx->state[3] = 0xA54FF53A;
 337              		.loc 1 121 9 is_stmt 1 view .LVU108
 123:D:/fchai/work/i-cube/I-CUBE-HUAWEI/Middlewares/Third_Party/Huawei/iot_link/network/dtls/mbedtls/mbedtls-2.16.2/library\sha256.c ****         ctx->state[5] = 0x9B05688C;
 338              		.loc 1 123 23 is_stmt 0 view .LVU109
 339 0016 164D     		ldr	r5, .L17+16
 124:D:/fchai/work/i-cube/I-CUBE-HUAWEI/Middlewares/Third_Party/Huawei/iot_link/network/dtls/mbedtls/mbedtls-2.16.2/library\sha256.c ****         ctx->state[6] = 0x1F83D9AB;
 340              		.loc 1 124 23 view .LVU110
 341 0018 164C     		ldr	r4, .L17+20
 121:D:/fchai/work/i-cube/I-CUBE-HUAWEI/Middlewares/Third_Party/Huawei/iot_link/network/dtls/mbedtls/mbedtls-2.16.2/library\sha256.c ****         ctx->state[3] = 0xA54FF53A;
 342              		.loc 1 121 23 view .LVU111
 343 001a 0261     		str	r2, [r0, #16]
 122:D:/fchai/work/i-cube/I-CUBE-HUAWEI/Middlewares/Third_Party/Huawei/iot_link/network/dtls/mbedtls/mbedtls-2.16.2/library\sha256.c ****         ctx->state[4] = 0x510E527F;
 344              		.loc 1 122 9 is_stmt 1 view .LVU112
 122:D:/fchai/work/i-cube/I-CUBE-HUAWEI/Middlewares/Third_Party/Huawei/iot_link/network/dtls/mbedtls/mbedtls-2.16.2/library\sha256.c ****         ctx->state[4] = 0x510E527F;
 345              		.loc 1 122 23 is_stmt 0 view .LVU113
 346 001c 4361     		str	r3, [r0, #20]
 123:D:/fchai/work/i-cube/I-CUBE-HUAWEI/Middlewares/Third_Party/Huawei/iot_link/network/dtls/mbedtls/mbedtls-2.16.2/library\sha256.c ****         ctx->state[5] = 0x9B05688C;
 347              		.loc 1 123 9 is_stmt 1 view .LVU114
 125:D:/fchai/work/i-cube/I-CUBE-HUAWEI/Middlewares/Third_Party/Huawei/iot_link/network/dtls/mbedtls/mbedtls-2.16.2/library\sha256.c ****         ctx->state[7] = 0x5BE0CD19;
 348              		.loc 1 125 23 is_stmt 0 view .LVU115
 349 001e 164A     		ldr	r2, .L17+24
 126:D:/fchai/work/i-cube/I-CUBE-HUAWEI/Middlewares/Third_Party/Huawei/iot_link/network/dtls/mbedtls/mbedtls-2.16.2/library\sha256.c ****     }
 350              		.loc 1 126 23 view .LVU116
 351 0020 164B     		ldr	r3, .L17+28
 141:D:/fchai/work/i-cube/I-CUBE-HUAWEI/Middlewares/Third_Party/Huawei/iot_link/network/dtls/mbedtls/mbedtls-2.16.2/library\sha256.c **** 
 352              		.loc 1 141 16 view .LVU117
 353 0022 8166     		str	r1, [r0, #104]
 124:D:/fchai/work/i-cube/I-CUBE-HUAWEI/Middlewares/Third_Party/Huawei/iot_link/network/dtls/mbedtls/mbedtls-2.16.2/library\sha256.c ****         ctx->state[6] = 0x1F83D9AB;
 354              		.loc 1 124 23 view .LVU118
 355 0024 C0E90654 		strd	r5, r4, [r0, #24]
 125:D:/fchai/work/i-cube/I-CUBE-HUAWEI/Middlewares/Third_Party/Huawei/iot_link/network/dtls/mbedtls/mbedtls-2.16.2/library\sha256.c ****         ctx->state[7] = 0x5BE0CD19;
 356              		.loc 1 125 9 is_stmt 1 view .LVU119
 126:D:/fchai/work/i-cube/I-CUBE-HUAWEI/Middlewares/Third_Party/Huawei/iot_link/network/dtls/mbedtls/mbedtls-2.16.2/library\sha256.c ****     }
 357              		.loc 1 126 23 is_stmt 0 view .LVU120
 358 0028 C0E90823 		strd	r2, r3, [r0, #32]
 141:D:/fchai/work/i-cube/I-CUBE-HUAWEI/Middlewares/Third_Party/Huawei/iot_link/network/dtls/mbedtls/mbedtls-2.16.2/library\sha256.c **** 
ARM GAS  T:\msys\tmp\ccLh2YRr.s 			page 11


 359              		.loc 1 141 5 is_stmt 1 view .LVU121
 143:D:/fchai/work/i-cube/I-CUBE-HUAWEI/Middlewares/Third_Party/Huawei/iot_link/network/dtls/mbedtls/mbedtls-2.16.2/library\sha256.c **** }
 360              		.loc 1 143 5 view .LVU122
 361              	.LVL11:
 143:D:/fchai/work/i-cube/I-CUBE-HUAWEI/Middlewares/Third_Party/Huawei/iot_link/network/dtls/mbedtls/mbedtls-2.16.2/library\sha256.c **** }
 362              		.loc 1 143 5 is_stmt 0 view .LVU123
 363              	.LBE16:
 364              	.LBE18:
 151:D:/fchai/work/i-cube/I-CUBE-HUAWEI/Middlewares/Third_Party/Huawei/iot_link/network/dtls/mbedtls/mbedtls-2.16.2/library\sha256.c **** }
 365              		.loc 1 151 1 view .LVU124
 366 002c 30BC     		pop	{r4, r5}
 367              	.LCFI6:
 368              		.cfi_remember_state
 369              		.cfi_restore 5
 370              		.cfi_restore 4
 371              		.cfi_def_cfa_offset 0
 372 002e 7047     		bx	lr
 373              	.LVL12:
 374              	.L14:
 375              	.LCFI7:
 376              		.cfi_restore_state
 377              	.LBB19:
 378              	.LBB17:
 131:D:/fchai/work/i-cube/I-CUBE-HUAWEI/Middlewares/Third_Party/Huawei/iot_link/network/dtls/mbedtls/mbedtls-2.16.2/library\sha256.c ****         ctx->state[1] = 0x367CD507;
 379              		.loc 1 131 9 is_stmt 1 view .LVU125
 132:D:/fchai/work/i-cube/I-CUBE-HUAWEI/Middlewares/Third_Party/Huawei/iot_link/network/dtls/mbedtls/mbedtls-2.16.2/library\sha256.c ****         ctx->state[2] = 0x3070DD17;
 380              		.loc 1 132 23 is_stmt 0 view .LVU126
 381 0030 134C     		ldr	r4, .L17+32
 131:D:/fchai/work/i-cube/I-CUBE-HUAWEI/Middlewares/Third_Party/Huawei/iot_link/network/dtls/mbedtls/mbedtls-2.16.2/library\sha256.c ****         ctx->state[1] = 0x367CD507;
 382              		.loc 1 131 23 view .LVU127
 383 0032 144D     		ldr	r5, .L17+36
 133:D:/fchai/work/i-cube/I-CUBE-HUAWEI/Middlewares/Third_Party/Huawei/iot_link/network/dtls/mbedtls/mbedtls-2.16.2/library\sha256.c ****         ctx->state[3] = 0xF70E5939;
 384              		.loc 1 133 23 view .LVU128
 385 0034 144A     		ldr	r2, .L17+40
 134:D:/fchai/work/i-cube/I-CUBE-HUAWEI/Middlewares/Third_Party/Huawei/iot_link/network/dtls/mbedtls/mbedtls-2.16.2/library\sha256.c ****         ctx->state[4] = 0xFFC00B31;
 386              		.loc 1 134 23 view .LVU129
 387 0036 154B     		ldr	r3, .L17+44
 132:D:/fchai/work/i-cube/I-CUBE-HUAWEI/Middlewares/Third_Party/Huawei/iot_link/network/dtls/mbedtls/mbedtls-2.16.2/library\sha256.c ****         ctx->state[2] = 0x3070DD17;
 388              		.loc 1 132 23 view .LVU130
 389 0038 C460     		str	r4, [r0, #12]
 136:D:/fchai/work/i-cube/I-CUBE-HUAWEI/Middlewares/Third_Party/Huawei/iot_link/network/dtls/mbedtls/mbedtls-2.16.2/library\sha256.c ****         ctx->state[6] = 0x64F98FA7;
 390              		.loc 1 136 23 view .LVU131
 391 003a 04F14754 		add	r4, r4, #834666496
 131:D:/fchai/work/i-cube/I-CUBE-HUAWEI/Middlewares/Third_Party/Huawei/iot_link/network/dtls/mbedtls/mbedtls-2.16.2/library\sha256.c ****         ctx->state[1] = 0x367CD507;
 392              		.loc 1 131 23 view .LVU132
 393 003e 8560     		str	r5, [r0, #8]
 132:D:/fchai/work/i-cube/I-CUBE-HUAWEI/Middlewares/Third_Party/Huawei/iot_link/network/dtls/mbedtls/mbedtls-2.16.2/library\sha256.c ****         ctx->state[2] = 0x3070DD17;
 394              		.loc 1 132 9 is_stmt 1 view .LVU133
 133:D:/fchai/work/i-cube/I-CUBE-HUAWEI/Middlewares/Third_Party/Huawei/iot_link/network/dtls/mbedtls/mbedtls-2.16.2/library\sha256.c ****         ctx->state[3] = 0xF70E5939;
 395              		.loc 1 133 9 view .LVU134
 136:D:/fchai/work/i-cube/I-CUBE-HUAWEI/Middlewares/Third_Party/Huawei/iot_link/network/dtls/mbedtls/mbedtls-2.16.2/library\sha256.c ****         ctx->state[6] = 0x64F98FA7;
 396              		.loc 1 136 23 is_stmt 0 view .LVU135
 397 0040 04F5DA14 		add	r4, r4, #1785856
 135:D:/fchai/work/i-cube/I-CUBE-HUAWEI/Middlewares/Third_Party/Huawei/iot_link/network/dtls/mbedtls/mbedtls-2.16.2/library\sha256.c ****         ctx->state[5] = 0x68581511;
 398              		.loc 1 135 23 view .LVU136
 399 0044 124D     		ldr	r5, .L17+48
 133:D:/fchai/work/i-cube/I-CUBE-HUAWEI/Middlewares/Third_Party/Huawei/iot_link/network/dtls/mbedtls/mbedtls-2.16.2/library\sha256.c ****         ctx->state[3] = 0xF70E5939;
ARM GAS  T:\msys\tmp\ccLh2YRr.s 			page 12


 400              		.loc 1 133 23 view .LVU137
 401 0046 0261     		str	r2, [r0, #16]
 134:D:/fchai/work/i-cube/I-CUBE-HUAWEI/Middlewares/Third_Party/Huawei/iot_link/network/dtls/mbedtls/mbedtls-2.16.2/library\sha256.c ****         ctx->state[4] = 0xFFC00B31;
 402              		.loc 1 134 9 is_stmt 1 view .LVU138
 134:D:/fchai/work/i-cube/I-CUBE-HUAWEI/Middlewares/Third_Party/Huawei/iot_link/network/dtls/mbedtls/mbedtls-2.16.2/library\sha256.c ****         ctx->state[4] = 0xFFC00B31;
 403              		.loc 1 134 23 is_stmt 0 view .LVU139
 404 0048 4361     		str	r3, [r0, #20]
 135:D:/fchai/work/i-cube/I-CUBE-HUAWEI/Middlewares/Third_Party/Huawei/iot_link/network/dtls/mbedtls/mbedtls-2.16.2/library\sha256.c ****         ctx->state[5] = 0x68581511;
 405              		.loc 1 135 9 is_stmt 1 view .LVU140
 137:D:/fchai/work/i-cube/I-CUBE-HUAWEI/Middlewares/Third_Party/Huawei/iot_link/network/dtls/mbedtls/mbedtls-2.16.2/library\sha256.c ****         ctx->state[7] = 0xBEFA4FA4;
 406              		.loc 1 137 23 is_stmt 0 view .LVU141
 407 004a 124A     		ldr	r2, .L17+52
 138:D:/fchai/work/i-cube/I-CUBE-HUAWEI/Middlewares/Third_Party/Huawei/iot_link/network/dtls/mbedtls/mbedtls-2.16.2/library\sha256.c ****     }
 408              		.loc 1 138 23 view .LVU142
 409 004c 124B     		ldr	r3, .L17+56
 141:D:/fchai/work/i-cube/I-CUBE-HUAWEI/Middlewares/Third_Party/Huawei/iot_link/network/dtls/mbedtls/mbedtls-2.16.2/library\sha256.c **** 
 410              		.loc 1 141 16 view .LVU143
 411 004e 8166     		str	r1, [r0, #104]
 136:D:/fchai/work/i-cube/I-CUBE-HUAWEI/Middlewares/Third_Party/Huawei/iot_link/network/dtls/mbedtls/mbedtls-2.16.2/library\sha256.c ****         ctx->state[6] = 0x64F98FA7;
 412              		.loc 1 136 23 view .LVU144
 413 0050 0A34     		adds	r4, r4, #10
 414 0052 C0E90654 		strd	r5, r4, [r0, #24]
 137:D:/fchai/work/i-cube/I-CUBE-HUAWEI/Middlewares/Third_Party/Huawei/iot_link/network/dtls/mbedtls/mbedtls-2.16.2/library\sha256.c ****         ctx->state[7] = 0xBEFA4FA4;
 415              		.loc 1 137 9 is_stmt 1 view .LVU145
 138:D:/fchai/work/i-cube/I-CUBE-HUAWEI/Middlewares/Third_Party/Huawei/iot_link/network/dtls/mbedtls/mbedtls-2.16.2/library\sha256.c ****     }
 416              		.loc 1 138 23 is_stmt 0 view .LVU146
 417 0056 C0E90823 		strd	r2, r3, [r0, #32]
 141:D:/fchai/work/i-cube/I-CUBE-HUAWEI/Middlewares/Third_Party/Huawei/iot_link/network/dtls/mbedtls/mbedtls-2.16.2/library\sha256.c **** 
 418              		.loc 1 141 5 is_stmt 1 view .LVU147
 143:D:/fchai/work/i-cube/I-CUBE-HUAWEI/Middlewares/Third_Party/Huawei/iot_link/network/dtls/mbedtls/mbedtls-2.16.2/library\sha256.c **** }
 419              		.loc 1 143 5 view .LVU148
 420              	.LVL13:
 143:D:/fchai/work/i-cube/I-CUBE-HUAWEI/Middlewares/Third_Party/Huawei/iot_link/network/dtls/mbedtls/mbedtls-2.16.2/library\sha256.c **** }
 421              		.loc 1 143 5 is_stmt 0 view .LVU149
 422              	.LBE17:
 423              	.LBE19:
 424              		.loc 1 151 1 view .LVU150
 425 005a 30BC     		pop	{r4, r5}
 426              	.LCFI8:
 427              		.cfi_restore 5
 428              		.cfi_restore 4
 429              		.cfi_def_cfa_offset 0
 430 005c 7047     		bx	lr
 431              	.L18:
 432 005e 00BF     		.align	2
 433              	.L17:
 434 0060 67E6096A 		.word	1779033703
 435 0064 85AE67BB 		.word	-1150833019
 436 0068 72F36E3C 		.word	1013904242
 437 006c 3AF54FA5 		.word	-1521486534
 438 0070 7F520E51 		.word	1359893119
 439 0074 8C68059B 		.word	-1694144372
 440 0078 ABD9831F 		.word	528734635
 441 007c 19CDE05B 		.word	1541459225
 442 0080 07D57C36 		.word	914150663
 443 0084 D89E05C1 		.word	-1056596264
 444 0088 17DD7030 		.word	812702999
ARM GAS  T:\msys\tmp\ccLh2YRr.s 			page 13


 445 008c 39590EF7 		.word	-150054599
 446 0090 310BC0FF 		.word	-4191439
 447 0094 A78FF964 		.word	1694076839
 448 0098 A44FFABE 		.word	-1090891868
 449              		.cfi_endproc
 450              	.LFE4:
 452              		.section	.text.mbedtls_internal_sha256_process,"ax",%progbits
 453              		.align	1
 454              		.p2align 2,,3
 455              		.global	mbedtls_internal_sha256_process
 456              		.syntax unified
 457              		.thumb
 458              		.thumb_func
 459              		.fpu fpv4-sp-d16
 461              	mbedtls_internal_sha256_process:
 462              	.LVL14:
 463              	.LFB5:
 152:D:/fchai/work/i-cube/I-CUBE-HUAWEI/Middlewares/Third_Party/Huawei/iot_link/network/dtls/mbedtls/mbedtls-2.16.2/library\sha256.c **** #endif
 153:D:/fchai/work/i-cube/I-CUBE-HUAWEI/Middlewares/Third_Party/Huawei/iot_link/network/dtls/mbedtls/mbedtls-2.16.2/library\sha256.c **** 
 154:D:/fchai/work/i-cube/I-CUBE-HUAWEI/Middlewares/Third_Party/Huawei/iot_link/network/dtls/mbedtls/mbedtls-2.16.2/library\sha256.c **** #if !defined(MBEDTLS_SHA256_PROCESS_ALT)
 155:D:/fchai/work/i-cube/I-CUBE-HUAWEI/Middlewares/Third_Party/Huawei/iot_link/network/dtls/mbedtls/mbedtls-2.16.2/library\sha256.c **** static const uint32_t K[] =
 156:D:/fchai/work/i-cube/I-CUBE-HUAWEI/Middlewares/Third_Party/Huawei/iot_link/network/dtls/mbedtls/mbedtls-2.16.2/library\sha256.c **** {
 157:D:/fchai/work/i-cube/I-CUBE-HUAWEI/Middlewares/Third_Party/Huawei/iot_link/network/dtls/mbedtls/mbedtls-2.16.2/library\sha256.c ****     0x428A2F98, 0x71374491, 0xB5C0FBCF, 0xE9B5DBA5,
 158:D:/fchai/work/i-cube/I-CUBE-HUAWEI/Middlewares/Third_Party/Huawei/iot_link/network/dtls/mbedtls/mbedtls-2.16.2/library\sha256.c ****     0x3956C25B, 0x59F111F1, 0x923F82A4, 0xAB1C5ED5,
 159:D:/fchai/work/i-cube/I-CUBE-HUAWEI/Middlewares/Third_Party/Huawei/iot_link/network/dtls/mbedtls/mbedtls-2.16.2/library\sha256.c ****     0xD807AA98, 0x12835B01, 0x243185BE, 0x550C7DC3,
 160:D:/fchai/work/i-cube/I-CUBE-HUAWEI/Middlewares/Third_Party/Huawei/iot_link/network/dtls/mbedtls/mbedtls-2.16.2/library\sha256.c ****     0x72BE5D74, 0x80DEB1FE, 0x9BDC06A7, 0xC19BF174,
 161:D:/fchai/work/i-cube/I-CUBE-HUAWEI/Middlewares/Third_Party/Huawei/iot_link/network/dtls/mbedtls/mbedtls-2.16.2/library\sha256.c ****     0xE49B69C1, 0xEFBE4786, 0x0FC19DC6, 0x240CA1CC,
 162:D:/fchai/work/i-cube/I-CUBE-HUAWEI/Middlewares/Third_Party/Huawei/iot_link/network/dtls/mbedtls/mbedtls-2.16.2/library\sha256.c ****     0x2DE92C6F, 0x4A7484AA, 0x5CB0A9DC, 0x76F988DA,
 163:D:/fchai/work/i-cube/I-CUBE-HUAWEI/Middlewares/Third_Party/Huawei/iot_link/network/dtls/mbedtls/mbedtls-2.16.2/library\sha256.c ****     0x983E5152, 0xA831C66D, 0xB00327C8, 0xBF597FC7,
 164:D:/fchai/work/i-cube/I-CUBE-HUAWEI/Middlewares/Third_Party/Huawei/iot_link/network/dtls/mbedtls/mbedtls-2.16.2/library\sha256.c ****     0xC6E00BF3, 0xD5A79147, 0x06CA6351, 0x14292967,
 165:D:/fchai/work/i-cube/I-CUBE-HUAWEI/Middlewares/Third_Party/Huawei/iot_link/network/dtls/mbedtls/mbedtls-2.16.2/library\sha256.c ****     0x27B70A85, 0x2E1B2138, 0x4D2C6DFC, 0x53380D13,
 166:D:/fchai/work/i-cube/I-CUBE-HUAWEI/Middlewares/Third_Party/Huawei/iot_link/network/dtls/mbedtls/mbedtls-2.16.2/library\sha256.c ****     0x650A7354, 0x766A0ABB, 0x81C2C92E, 0x92722C85,
 167:D:/fchai/work/i-cube/I-CUBE-HUAWEI/Middlewares/Third_Party/Huawei/iot_link/network/dtls/mbedtls/mbedtls-2.16.2/library\sha256.c ****     0xA2BFE8A1, 0xA81A664B, 0xC24B8B70, 0xC76C51A3,
 168:D:/fchai/work/i-cube/I-CUBE-HUAWEI/Middlewares/Third_Party/Huawei/iot_link/network/dtls/mbedtls/mbedtls-2.16.2/library\sha256.c ****     0xD192E819, 0xD6990624, 0xF40E3585, 0x106AA070,
 169:D:/fchai/work/i-cube/I-CUBE-HUAWEI/Middlewares/Third_Party/Huawei/iot_link/network/dtls/mbedtls/mbedtls-2.16.2/library\sha256.c ****     0x19A4C116, 0x1E376C08, 0x2748774C, 0x34B0BCB5,
 170:D:/fchai/work/i-cube/I-CUBE-HUAWEI/Middlewares/Third_Party/Huawei/iot_link/network/dtls/mbedtls/mbedtls-2.16.2/library\sha256.c ****     0x391C0CB3, 0x4ED8AA4A, 0x5B9CCA4F, 0x682E6FF3,
 171:D:/fchai/work/i-cube/I-CUBE-HUAWEI/Middlewares/Third_Party/Huawei/iot_link/network/dtls/mbedtls/mbedtls-2.16.2/library\sha256.c ****     0x748F82EE, 0x78A5636F, 0x84C87814, 0x8CC70208,
 172:D:/fchai/work/i-cube/I-CUBE-HUAWEI/Middlewares/Third_Party/Huawei/iot_link/network/dtls/mbedtls/mbedtls-2.16.2/library\sha256.c ****     0x90BEFFFA, 0xA4506CEB, 0xBEF9A3F7, 0xC67178F2,
 173:D:/fchai/work/i-cube/I-CUBE-HUAWEI/Middlewares/Third_Party/Huawei/iot_link/network/dtls/mbedtls/mbedtls-2.16.2/library\sha256.c **** };
 174:D:/fchai/work/i-cube/I-CUBE-HUAWEI/Middlewares/Third_Party/Huawei/iot_link/network/dtls/mbedtls/mbedtls-2.16.2/library\sha256.c **** 
 175:D:/fchai/work/i-cube/I-CUBE-HUAWEI/Middlewares/Third_Party/Huawei/iot_link/network/dtls/mbedtls/mbedtls-2.16.2/library\sha256.c **** #define  SHR(x,n) (((x) & 0xFFFFFFFF) >> (n))
 176:D:/fchai/work/i-cube/I-CUBE-HUAWEI/Middlewares/Third_Party/Huawei/iot_link/network/dtls/mbedtls/mbedtls-2.16.2/library\sha256.c **** #define ROTR(x,n) (SHR(x,n) | ((x) << (32 - (n))))
 177:D:/fchai/work/i-cube/I-CUBE-HUAWEI/Middlewares/Third_Party/Huawei/iot_link/network/dtls/mbedtls/mbedtls-2.16.2/library\sha256.c **** 
 178:D:/fchai/work/i-cube/I-CUBE-HUAWEI/Middlewares/Third_Party/Huawei/iot_link/network/dtls/mbedtls/mbedtls-2.16.2/library\sha256.c **** #define S0(x) (ROTR(x, 7) ^ ROTR(x,18) ^  SHR(x, 3))
 179:D:/fchai/work/i-cube/I-CUBE-HUAWEI/Middlewares/Third_Party/Huawei/iot_link/network/dtls/mbedtls/mbedtls-2.16.2/library\sha256.c **** #define S1(x) (ROTR(x,17) ^ ROTR(x,19) ^  SHR(x,10))
 180:D:/fchai/work/i-cube/I-CUBE-HUAWEI/Middlewares/Third_Party/Huawei/iot_link/network/dtls/mbedtls/mbedtls-2.16.2/library\sha256.c **** 
 181:D:/fchai/work/i-cube/I-CUBE-HUAWEI/Middlewares/Third_Party/Huawei/iot_link/network/dtls/mbedtls/mbedtls-2.16.2/library\sha256.c **** #define S2(x) (ROTR(x, 2) ^ ROTR(x,13) ^ ROTR(x,22))
 182:D:/fchai/work/i-cube/I-CUBE-HUAWEI/Middlewares/Third_Party/Huawei/iot_link/network/dtls/mbedtls/mbedtls-2.16.2/library\sha256.c **** #define S3(x) (ROTR(x, 6) ^ ROTR(x,11) ^ ROTR(x,25))
 183:D:/fchai/work/i-cube/I-CUBE-HUAWEI/Middlewares/Third_Party/Huawei/iot_link/network/dtls/mbedtls/mbedtls-2.16.2/library\sha256.c **** 
 184:D:/fchai/work/i-cube/I-CUBE-HUAWEI/Middlewares/Third_Party/Huawei/iot_link/network/dtls/mbedtls/mbedtls-2.16.2/library\sha256.c **** #define F0(x,y,z) (((x) & (y)) | ((z) & ((x) | (y))))
 185:D:/fchai/work/i-cube/I-CUBE-HUAWEI/Middlewares/Third_Party/Huawei/iot_link/network/dtls/mbedtls/mbedtls-2.16.2/library\sha256.c **** #define F1(x,y,z) ((z) ^ ((x) & ((y) ^ (z))))
 186:D:/fchai/work/i-cube/I-CUBE-HUAWEI/Middlewares/Third_Party/Huawei/iot_link/network/dtls/mbedtls/mbedtls-2.16.2/library\sha256.c **** 
 187:D:/fchai/work/i-cube/I-CUBE-HUAWEI/Middlewares/Third_Party/Huawei/iot_link/network/dtls/mbedtls/mbedtls-2.16.2/library\sha256.c **** #define R(t)                                    \
 188:D:/fchai/work/i-cube/I-CUBE-HUAWEI/Middlewares/Third_Party/Huawei/iot_link/network/dtls/mbedtls/mbedtls-2.16.2/library\sha256.c ****     (                                           \
 189:D:/fchai/work/i-cube/I-CUBE-HUAWEI/Middlewares/Third_Party/Huawei/iot_link/network/dtls/mbedtls/mbedtls-2.16.2/library\sha256.c ****         W[t] = S1(W[(t) -  2]) + W[(t) -  7] +  \
 190:D:/fchai/work/i-cube/I-CUBE-HUAWEI/Middlewares/Third_Party/Huawei/iot_link/network/dtls/mbedtls/mbedtls-2.16.2/library\sha256.c ****                S0(W[(t) - 15]) + W[(t) - 16]    \
 191:D:/fchai/work/i-cube/I-CUBE-HUAWEI/Middlewares/Third_Party/Huawei/iot_link/network/dtls/mbedtls/mbedtls-2.16.2/library\sha256.c ****     )
ARM GAS  T:\msys\tmp\ccLh2YRr.s 			page 14


 192:D:/fchai/work/i-cube/I-CUBE-HUAWEI/Middlewares/Third_Party/Huawei/iot_link/network/dtls/mbedtls/mbedtls-2.16.2/library\sha256.c **** 
 193:D:/fchai/work/i-cube/I-CUBE-HUAWEI/Middlewares/Third_Party/Huawei/iot_link/network/dtls/mbedtls/mbedtls-2.16.2/library\sha256.c **** #define P(a,b,c,d,e,f,g,h,x,K)                          \
 194:D:/fchai/work/i-cube/I-CUBE-HUAWEI/Middlewares/Third_Party/Huawei/iot_link/network/dtls/mbedtls/mbedtls-2.16.2/library\sha256.c ****     do                                                  \
 195:D:/fchai/work/i-cube/I-CUBE-HUAWEI/Middlewares/Third_Party/Huawei/iot_link/network/dtls/mbedtls/mbedtls-2.16.2/library\sha256.c ****     {                                                   \
 196:D:/fchai/work/i-cube/I-CUBE-HUAWEI/Middlewares/Third_Party/Huawei/iot_link/network/dtls/mbedtls/mbedtls-2.16.2/library\sha256.c ****         temp1 = (h) + S3(e) + F1((e),(f),(g)) + (K) + (x);      \
 197:D:/fchai/work/i-cube/I-CUBE-HUAWEI/Middlewares/Third_Party/Huawei/iot_link/network/dtls/mbedtls/mbedtls-2.16.2/library\sha256.c ****         temp2 = S2(a) + F0((a),(b),(c));                        \
 198:D:/fchai/work/i-cube/I-CUBE-HUAWEI/Middlewares/Third_Party/Huawei/iot_link/network/dtls/mbedtls/mbedtls-2.16.2/library\sha256.c ****         (d) += temp1; (h) = temp1 + temp2;              \
 199:D:/fchai/work/i-cube/I-CUBE-HUAWEI/Middlewares/Third_Party/Huawei/iot_link/network/dtls/mbedtls/mbedtls-2.16.2/library\sha256.c ****     } while( 0 )
 200:D:/fchai/work/i-cube/I-CUBE-HUAWEI/Middlewares/Third_Party/Huawei/iot_link/network/dtls/mbedtls/mbedtls-2.16.2/library\sha256.c **** 
 201:D:/fchai/work/i-cube/I-CUBE-HUAWEI/Middlewares/Third_Party/Huawei/iot_link/network/dtls/mbedtls/mbedtls-2.16.2/library\sha256.c **** int mbedtls_internal_sha256_process( mbedtls_sha256_context *ctx,
 202:D:/fchai/work/i-cube/I-CUBE-HUAWEI/Middlewares/Third_Party/Huawei/iot_link/network/dtls/mbedtls/mbedtls-2.16.2/library\sha256.c ****                                 const unsigned char data[64] )
 203:D:/fchai/work/i-cube/I-CUBE-HUAWEI/Middlewares/Third_Party/Huawei/iot_link/network/dtls/mbedtls/mbedtls-2.16.2/library\sha256.c **** {
 464              		.loc 1 203 1 is_stmt 1 view -0
 465              		.cfi_startproc
 466              		@ args = 0, pretend = 0, frame = 352
 467              		@ frame_needed = 0, uses_anonymous_args = 0
 204:D:/fchai/work/i-cube/I-CUBE-HUAWEI/Middlewares/Third_Party/Huawei/iot_link/network/dtls/mbedtls/mbedtls-2.16.2/library\sha256.c ****     uint32_t temp1, temp2, W[64];
 468              		.loc 1 204 5 view .LVU152
 205:D:/fchai/work/i-cube/I-CUBE-HUAWEI/Middlewares/Third_Party/Huawei/iot_link/network/dtls/mbedtls/mbedtls-2.16.2/library\sha256.c ****     uint32_t A[8];
 469              		.loc 1 205 5 view .LVU153
 206:D:/fchai/work/i-cube/I-CUBE-HUAWEI/Middlewares/Third_Party/Huawei/iot_link/network/dtls/mbedtls/mbedtls-2.16.2/library\sha256.c ****     unsigned int i;
 470              		.loc 1 206 5 view .LVU154
 207:D:/fchai/work/i-cube/I-CUBE-HUAWEI/Middlewares/Third_Party/Huawei/iot_link/network/dtls/mbedtls/mbedtls-2.16.2/library\sha256.c **** 
 208:D:/fchai/work/i-cube/I-CUBE-HUAWEI/Middlewares/Third_Party/Huawei/iot_link/network/dtls/mbedtls/mbedtls-2.16.2/library\sha256.c ****     SHA256_VALIDATE_RET( ctx != NULL );
 471              		.loc 1 208 5 view .LVU155
 472              		.loc 1 208 5 view .LVU156
 473              		.loc 1 208 5 view .LVU157
 209:D:/fchai/work/i-cube/I-CUBE-HUAWEI/Middlewares/Third_Party/Huawei/iot_link/network/dtls/mbedtls/mbedtls-2.16.2/library\sha256.c ****     SHA256_VALIDATE_RET( (const unsigned char *)data != NULL );
 474              		.loc 1 209 5 view .LVU158
 475              		.loc 1 209 5 view .LVU159
 476              		.loc 1 209 5 view .LVU160
 210:D:/fchai/work/i-cube/I-CUBE-HUAWEI/Middlewares/Third_Party/Huawei/iot_link/network/dtls/mbedtls/mbedtls-2.16.2/library\sha256.c **** 
 211:D:/fchai/work/i-cube/I-CUBE-HUAWEI/Middlewares/Third_Party/Huawei/iot_link/network/dtls/mbedtls/mbedtls-2.16.2/library\sha256.c ****     for( i = 0; i < 8; i++ )
 477              		.loc 1 211 5 view .LVU161
 478              		.loc 1 211 17 view .LVU162
 203:D:/fchai/work/i-cube/I-CUBE-HUAWEI/Middlewares/Third_Party/Huawei/iot_link/network/dtls/mbedtls/mbedtls-2.16.2/library\sha256.c ****     uint32_t temp1, temp2, W[64];
 479              		.loc 1 203 1 is_stmt 0 view .LVU163
 480 0000 2DE9F04F 		push	{r4, r5, r6, r7, r8, r9, r10, fp, lr}
 481              	.LCFI9:
 482              		.cfi_def_cfa_offset 36
 483              		.cfi_offset 4, -36
 484              		.cfi_offset 5, -32
 485              		.cfi_offset 6, -28
 486              		.cfi_offset 7, -24
 487              		.cfi_offset 8, -20
 488              		.cfi_offset 9, -16
 489              		.cfi_offset 10, -12
 490              		.cfi_offset 11, -8
 491              		.cfi_offset 14, -4
 492 0004 D9B0     		sub	sp, sp, #356
 493              	.LCFI10:
 494              		.cfi_def_cfa_offset 392
 495 0006 00F10803 		add	r3, r0, #8
 496 000a 00F12804 		add	r4, r0, #40
 497 000e 0F93     		str	r3, [sp, #60]
 498 0010 0E94     		str	r4, [sp, #56]
 499 0012 0FAA     		add	r2, sp, #60
ARM GAS  T:\msys\tmp\ccLh2YRr.s 			page 15


 500              	.LVL15:
 501              	.L20:
 212:D:/fchai/work/i-cube/I-CUBE-HUAWEI/Middlewares/Third_Party/Huawei/iot_link/network/dtls/mbedtls/mbedtls-2.16.2/library\sha256.c ****         A[i] = ctx->state[i];
 502              		.loc 1 212 9 is_stmt 1 discriminator 3 view .LVU164
 503              		.loc 1 212 26 is_stmt 0 discriminator 3 view .LVU165
 504 0014 53F8040B 		ldr	r0, [r3], #4
 505              		.loc 1 212 14 discriminator 3 view .LVU166
 506 0018 42F8040F 		str	r0, [r2, #4]!
 211:D:/fchai/work/i-cube/I-CUBE-HUAWEI/Middlewares/Third_Party/Huawei/iot_link/network/dtls/mbedtls/mbedtls-2.16.2/library\sha256.c ****         A[i] = ctx->state[i];
 507              		.loc 1 211 24 is_stmt 1 discriminator 3 view .LVU167
 211:D:/fchai/work/i-cube/I-CUBE-HUAWEI/Middlewares/Third_Party/Huawei/iot_link/network/dtls/mbedtls/mbedtls-2.16.2/library\sha256.c ****         A[i] = ctx->state[i];
 508              		.loc 1 211 17 discriminator 3 view .LVU168
 211:D:/fchai/work/i-cube/I-CUBE-HUAWEI/Middlewares/Third_Party/Huawei/iot_link/network/dtls/mbedtls/mbedtls-2.16.2/library\sha256.c ****         A[i] = ctx->state[i];
 509              		.loc 1 211 5 is_stmt 0 discriminator 3 view .LVU169
 510 001c 9C42     		cmp	r4, r3
 511 001e F9D1     		bne	.L20
 512 0020 0DF16009 		add	r9, sp, #96
 513 0024 17AA     		add	r2, sp, #92
 514 0026 27AE     		add	r6, sp, #156
 515              	.LVL16:
 516              	.L21:
 213:D:/fchai/work/i-cube/I-CUBE-HUAWEI/Middlewares/Third_Party/Huawei/iot_link/network/dtls/mbedtls/mbedtls-2.16.2/library\sha256.c **** 
 214:D:/fchai/work/i-cube/I-CUBE-HUAWEI/Middlewares/Third_Party/Huawei/iot_link/network/dtls/mbedtls/mbedtls-2.16.2/library\sha256.c **** #if defined(MBEDTLS_SHA256_SMALLER)
 215:D:/fchai/work/i-cube/I-CUBE-HUAWEI/Middlewares/Third_Party/Huawei/iot_link/network/dtls/mbedtls/mbedtls-2.16.2/library\sha256.c ****     for( i = 0; i < 64; i++ )
 216:D:/fchai/work/i-cube/I-CUBE-HUAWEI/Middlewares/Third_Party/Huawei/iot_link/network/dtls/mbedtls/mbedtls-2.16.2/library\sha256.c ****     {
 217:D:/fchai/work/i-cube/I-CUBE-HUAWEI/Middlewares/Third_Party/Huawei/iot_link/network/dtls/mbedtls/mbedtls-2.16.2/library\sha256.c ****         if( i < 16 )
 218:D:/fchai/work/i-cube/I-CUBE-HUAWEI/Middlewares/Third_Party/Huawei/iot_link/network/dtls/mbedtls/mbedtls-2.16.2/library\sha256.c ****             GET_UINT32_BE( W[i], data, 4 * i );
 219:D:/fchai/work/i-cube/I-CUBE-HUAWEI/Middlewares/Third_Party/Huawei/iot_link/network/dtls/mbedtls/mbedtls-2.16.2/library\sha256.c ****         else
 220:D:/fchai/work/i-cube/I-CUBE-HUAWEI/Middlewares/Third_Party/Huawei/iot_link/network/dtls/mbedtls/mbedtls-2.16.2/library\sha256.c ****             R( i );
 221:D:/fchai/work/i-cube/I-CUBE-HUAWEI/Middlewares/Third_Party/Huawei/iot_link/network/dtls/mbedtls/mbedtls-2.16.2/library\sha256.c **** 
 222:D:/fchai/work/i-cube/I-CUBE-HUAWEI/Middlewares/Third_Party/Huawei/iot_link/network/dtls/mbedtls/mbedtls-2.16.2/library\sha256.c ****         P( A[0], A[1], A[2], A[3], A[4], A[5], A[6], A[7], W[i], K[i] );
 223:D:/fchai/work/i-cube/I-CUBE-HUAWEI/Middlewares/Third_Party/Huawei/iot_link/network/dtls/mbedtls/mbedtls-2.16.2/library\sha256.c **** 
 224:D:/fchai/work/i-cube/I-CUBE-HUAWEI/Middlewares/Third_Party/Huawei/iot_link/network/dtls/mbedtls/mbedtls-2.16.2/library\sha256.c ****         temp1 = A[7]; A[7] = A[6]; A[6] = A[5]; A[5] = A[4]; A[4] = A[3];
 225:D:/fchai/work/i-cube/I-CUBE-HUAWEI/Middlewares/Third_Party/Huawei/iot_link/network/dtls/mbedtls/mbedtls-2.16.2/library\sha256.c ****         A[3] = A[2]; A[2] = A[1]; A[1] = A[0]; A[0] = temp1;
 226:D:/fchai/work/i-cube/I-CUBE-HUAWEI/Middlewares/Third_Party/Huawei/iot_link/network/dtls/mbedtls/mbedtls-2.16.2/library\sha256.c ****     }
 227:D:/fchai/work/i-cube/I-CUBE-HUAWEI/Middlewares/Third_Party/Huawei/iot_link/network/dtls/mbedtls/mbedtls-2.16.2/library\sha256.c **** #else /* MBEDTLS_SHA256_SMALLER */
 228:D:/fchai/work/i-cube/I-CUBE-HUAWEI/Middlewares/Third_Party/Huawei/iot_link/network/dtls/mbedtls/mbedtls-2.16.2/library\sha256.c ****     for( i = 0; i < 16; i++ )
 229:D:/fchai/work/i-cube/I-CUBE-HUAWEI/Middlewares/Third_Party/Huawei/iot_link/network/dtls/mbedtls/mbedtls-2.16.2/library\sha256.c ****         GET_UINT32_BE( W[i], data, 4 * i );
 517              		.loc 1 229 9 is_stmt 1 discriminator 3 view .LVU170
 518              		.loc 1 229 9 discriminator 3 view .LVU171
 519 0028 4B78     		ldrb	r3, [r1, #1]	@ zero_extendqisi2
 520 002a 0D78     		ldrb	r5, [r1]	@ zero_extendqisi2
 521 002c CC78     		ldrb	r4, [r1, #3]	@ zero_extendqisi2
 522 002e 8878     		ldrb	r0, [r1, #2]	@ zero_extendqisi2
 523 0030 1B04     		lsls	r3, r3, #16
 524 0032 43EA0563 		orr	r3, r3, r5, lsl #24
 525 0036 2343     		orrs	r3, r3, r4
 526 0038 43EA0023 		orr	r3, r3, r0, lsl #8
 527 003c 42F8043F 		str	r3, [r2, #4]!
 528              		.loc 1 229 9 discriminator 3 view .LVU172
 228:D:/fchai/work/i-cube/I-CUBE-HUAWEI/Middlewares/Third_Party/Huawei/iot_link/network/dtls/mbedtls/mbedtls-2.16.2/library\sha256.c ****         GET_UINT32_BE( W[i], data, 4 * i );
 529              		.loc 1 228 25 discriminator 3 view .LVU173
 228:D:/fchai/work/i-cube/I-CUBE-HUAWEI/Middlewares/Third_Party/Huawei/iot_link/network/dtls/mbedtls/mbedtls-2.16.2/library\sha256.c ****         GET_UINT32_BE( W[i], data, 4 * i );
 530              		.loc 1 228 17 discriminator 3 view .LVU174
 228:D:/fchai/work/i-cube/I-CUBE-HUAWEI/Middlewares/Third_Party/Huawei/iot_link/network/dtls/mbedtls/mbedtls-2.16.2/library\sha256.c ****         GET_UINT32_BE( W[i], data, 4 * i );
 531              		.loc 1 228 5 is_stmt 0 discriminator 3 view .LVU175
 532 0040 9642     		cmp	r6, r2
ARM GAS  T:\msys\tmp\ccLh2YRr.s 			page 16


 533 0042 01F10401 		add	r1, r1, #4
 534 0046 EFD1     		bne	.L21
 535 0048 179B     		ldr	r3, [sp, #92]
 536 004a 0193     		str	r3, [sp, #4]
 537 004c 14A9     		add	r1, sp, #80
 538 004e 4AC9     		ldm	r1, {r1, r3, r6}
 228:D:/fchai/work/i-cube/I-CUBE-HUAWEI/Middlewares/Third_Party/Huawei/iot_link/network/dtls/mbedtls/mbedtls-2.16.2/library\sha256.c ****         GET_UINT32_BE( W[i], data, 4 * i );
 539              		.loc 1 228 5 view .LVU176
 540 0050 C048     		ldr	r0, .L33
 541 0052 0293     		str	r3, [sp, #8]
 542 0054 C04B     		ldr	r3, .L33+4
 543 0056 DFF82CC3 		ldr	ip, .L33+48
 544 005a DFF82CA3 		ldr	r10, .L33+52
 545 005e BF4A     		ldr	r2, .L33+8
 546 0060 0692     		str	r2, [sp, #24]
 547 0062 CDE90830 		strd	r3, r0, [sp, #32]
 548 0066 BE4B     		ldr	r3, .L33+12
 549 0068 0793     		str	r3, [sp, #28]
 550 006a BE4B     		ldr	r3, .L33+16
 551 006c 0392     		str	r2, [sp, #12]
 552 006e DDE91048 		ldrd	r4, r8, [sp, #64]
 553 0072 DDE9125B 		ldrd	r5, fp, [sp, #72]
 554 0076 CDE9043C 		strd	r3, ip, [sp, #16]
 555 007a 18A8     		add	r0, sp, #96
 556 007c DFF80CC3 		ldr	ip, .L33+56
 557 0080 B94B     		ldr	r3, .L33+20
 558 0082 0090     		str	r0, [sp]
 559 0084 CDE90AA9 		strd	r10, r9, [sp, #40]
 560 0088 8A46     		mov	r10, r1
 561              	.L23:
 230:D:/fchai/work/i-cube/I-CUBE-HUAWEI/Middlewares/Third_Party/Huawei/iot_link/network/dtls/mbedtls/mbedtls-2.16.2/library\sha256.c **** 
 231:D:/fchai/work/i-cube/I-CUBE-HUAWEI/Middlewares/Third_Party/Huawei/iot_link/network/dtls/mbedtls/mbedtls-2.16.2/library\sha256.c ****     for( i = 0; i < 16; i += 8 )
 232:D:/fchai/work/i-cube/I-CUBE-HUAWEI/Middlewares/Third_Party/Huawei/iot_link/network/dtls/mbedtls/mbedtls-2.16.2/library\sha256.c ****     {
 233:D:/fchai/work/i-cube/I-CUBE-HUAWEI/Middlewares/Third_Party/Huawei/iot_link/network/dtls/mbedtls/mbedtls-2.16.2/library\sha256.c ****         P( A[0], A[1], A[2], A[3], A[4], A[5], A[6], A[7], W[i+0], K[i+0] );
 562              		.loc 1 233 9 is_stmt 1 discriminator 3 view .LVU177
 563              		.loc 1 233 9 discriminator 3 view .LVU178
 564 008a 029F     		ldr	r7, [sp, #8]
 565 008c 009A     		ldr	r2, [sp]
 566 008e 86EA0700 		eor	r0, r6, r7
 567 0092 4FEAFA21 		ror	r1, r10, #11
 568 0096 81EABA11 		eor	r1, r1, r10, ror #6
 569 009a 00EA0A00 		and	r0, r0, r10
 570 009e 7040     		eors	r0, r0, r6
 571 00a0 1268     		ldr	r2, [r2]
 572 00a2 81EA7A61 		eor	r1, r1, r10, ror #25
 573 00a6 0144     		add	r1, r1, r0
 574 00a8 1144     		add	r1, r1, r2
 575 00aa 019A     		ldr	r2, [sp, #4]
 234:D:/fchai/work/i-cube/I-CUBE-HUAWEI/Middlewares/Third_Party/Huawei/iot_link/network/dtls/mbedtls/mbedtls-2.16.2/library\sha256.c ****         P( A[7], A[0], A[1], A[2], A[3], A[4], A[5], A[6], W[i+1], K[i+1] );
 576              		.loc 1 234 9 is_stmt 0 discriminator 3 view .LVU179
 577 00ac 0098     		ldr	r0, [sp]
 233:D:/fchai/work/i-cube/I-CUBE-HUAWEI/Middlewares/Third_Party/Huawei/iot_link/network/dtls/mbedtls/mbedtls-2.16.2/library\sha256.c ****         P( A[7], A[0], A[1], A[2], A[3], A[4], A[5], A[6], W[i+1], K[i+1] );
 578              		.loc 1 233 9 discriminator 3 view .LVU180
 579 00ae 0A44     		add	r2, r2, r1
 580 00b0 1344     		add	r3, r3, r2
 581              	.LVL17:
 233:D:/fchai/work/i-cube/I-CUBE-HUAWEI/Middlewares/Third_Party/Huawei/iot_link/network/dtls/mbedtls/mbedtls-2.16.2/library\sha256.c ****         P( A[7], A[0], A[1], A[2], A[3], A[4], A[5], A[6], W[i+1], K[i+1] );
ARM GAS  T:\msys\tmp\ccLh2YRr.s 			page 17


 582              		.loc 1 233 9 is_stmt 1 discriminator 3 view .LVU181
 233:D:/fchai/work/i-cube/I-CUBE-HUAWEI/Middlewares/Third_Party/Huawei/iot_link/network/dtls/mbedtls/mbedtls-2.16.2/library\sha256.c ****         P( A[7], A[0], A[1], A[2], A[3], A[4], A[5], A[6], W[i+1], K[i+1] );
 583              		.loc 1 233 9 discriminator 3 view .LVU182
 584 00b2 0BEB0301 		add	r1, fp, r3
 233:D:/fchai/work/i-cube/I-CUBE-HUAWEI/Middlewares/Third_Party/Huawei/iot_link/network/dtls/mbedtls/mbedtls-2.16.2/library\sha256.c ****         P( A[7], A[0], A[1], A[2], A[3], A[4], A[5], A[6], W[i+1], K[i+1] );
 585              		.loc 1 233 9 discriminator 3 view .LVU183
 586              		.loc 1 234 9 is_stmt 0 discriminator 3 view .LVU184
 587 00b6 8AEA070E 		eor	lr, r10, r7
 588 00ba 4068     		ldr	r0, [r0, #4]
 589 00bc 0EEA010E 		and	lr, lr, r1
 590 00c0 4FEAF122 		ror	r2, r1, #11
 591 00c4 8EEA070E 		eor	lr, lr, r7
 592 00c8 3044     		add	r0, r0, r6
 593 00ca 82EAB112 		eor	r2, r2, r1, ror #6
 233:D:/fchai/work/i-cube/I-CUBE-HUAWEI/Middlewares/Third_Party/Huawei/iot_link/network/dtls/mbedtls/mbedtls-2.16.2/library\sha256.c ****         P( A[7], A[0], A[1], A[2], A[3], A[4], A[5], A[6], W[i+1], K[i+1] );
 594              		.loc 1 233 9 discriminator 3 view .LVU185
 595 00ce 44EA0806 		orr	r6, r4, r8
 596              		.loc 1 234 9 discriminator 3 view .LVU186
 597 00d2 82EA7162 		eor	r2, r2, r1, ror #25
 233:D:/fchai/work/i-cube/I-CUBE-HUAWEI/Middlewares/Third_Party/Huawei/iot_link/network/dtls/mbedtls/mbedtls-2.16.2/library\sha256.c ****         P( A[7], A[0], A[1], A[2], A[3], A[4], A[5], A[6], W[i+1], K[i+1] );
 598              		.loc 1 233 9 discriminator 3 view .LVU187
 599 00d6 4FEA743B 		ror	fp, r4, #13
 600              		.loc 1 234 9 discriminator 3 view .LVU188
 601 00da 7044     		add	r0, r0, lr
 233:D:/fchai/work/i-cube/I-CUBE-HUAWEI/Middlewares/Third_Party/Huawei/iot_link/network/dtls/mbedtls/mbedtls-2.16.2/library\sha256.c ****         P( A[7], A[0], A[1], A[2], A[3], A[4], A[5], A[6], W[i+1], K[i+1] );
 602              		.loc 1 233 9 discriminator 3 view .LVU189
 603 00dc 2E40     		ands	r6, r6, r5
 604 00de 04EA0809 		and	r9, r4, r8
 605              		.loc 1 234 9 discriminator 3 view .LVU190
 606 00e2 1044     		add	r0, r0, r2
 233:D:/fchai/work/i-cube/I-CUBE-HUAWEI/Middlewares/Third_Party/Huawei/iot_link/network/dtls/mbedtls/mbedtls-2.16.2/library\sha256.c ****         P( A[7], A[0], A[1], A[2], A[3], A[4], A[5], A[6], W[i+1], K[i+1] );
 607              		.loc 1 233 9 discriminator 3 view .LVU191
 608 00e4 8BEAB40B 		eor	fp, fp, r4, ror #2
 235:D:/fchai/work/i-cube/I-CUBE-HUAWEI/Middlewares/Third_Party/Huawei/iot_link/network/dtls/mbedtls/mbedtls-2.16.2/library\sha256.c ****         P( A[6], A[7], A[0], A[1], A[2], A[3], A[4], A[5], W[i+2], K[i+2] );
 609              		.loc 1 235 9 discriminator 3 view .LVU192
 610 00e8 009A     		ldr	r2, [sp]
 234:D:/fchai/work/i-cube/I-CUBE-HUAWEI/Middlewares/Third_Party/Huawei/iot_link/network/dtls/mbedtls/mbedtls-2.16.2/library\sha256.c ****         P( A[7], A[0], A[1], A[2], A[3], A[4], A[5], A[6], W[i+1], K[i+1] );
 611              		.loc 1 234 9 discriminator 3 view .LVU193
 612 00ea 8444     		add	ip, ip, r0
 233:D:/fchai/work/i-cube/I-CUBE-HUAWEI/Middlewares/Third_Party/Huawei/iot_link/network/dtls/mbedtls/mbedtls-2.16.2/library\sha256.c ****         P( A[7], A[0], A[1], A[2], A[3], A[4], A[5], A[6], W[i+1], K[i+1] );
 613              		.loc 1 233 9 discriminator 3 view .LVU194
 614 00ec 8BEAB45B 		eor	fp, fp, r4, ror #22
 615 00f0 46EA0909 		orr	r9, r6, r9
 234:D:/fchai/work/i-cube/I-CUBE-HUAWEI/Middlewares/Third_Party/Huawei/iot_link/network/dtls/mbedtls/mbedtls-2.16.2/library\sha256.c ****         P( A[7], A[0], A[1], A[2], A[3], A[4], A[5], A[6], W[i+1], K[i+1] );
 616              		.loc 1 234 9 discriminator 3 view .LVU195
 617 00f4 6544     		add	r5, r5, ip
 618              	.LVL18:
 619              		.loc 1 235 9 discriminator 3 view .LVU196
 620 00f6 9268     		ldr	r2, [r2, #8]
 233:D:/fchai/work/i-cube/I-CUBE-HUAWEI/Middlewares/Third_Party/Huawei/iot_link/network/dtls/mbedtls/mbedtls-2.16.2/library\sha256.c ****         P( A[7], A[0], A[1], A[2], A[3], A[4], A[5], A[6], W[i+1], K[i+1] );
 621              		.loc 1 233 9 discriminator 3 view .LVU197
 622 00f8 D944     		add	r9, r9, fp
 623              		.loc 1 235 9 discriminator 3 view .LVU198
 624 00fa 81EA0A0B 		eor	fp, r1, r10
 625 00fe 0BEA050B 		and	fp, fp, r5
 233:D:/fchai/work/i-cube/I-CUBE-HUAWEI/Middlewares/Third_Party/Huawei/iot_link/network/dtls/mbedtls/mbedtls-2.16.2/library\sha256.c ****         P( A[7], A[0], A[1], A[2], A[3], A[4], A[5], A[6], W[i+1], K[i+1] );
 626              		.loc 1 233 9 discriminator 3 view .LVU199
ARM GAS  T:\msys\tmp\ccLh2YRr.s 			page 18


 627 0102 9944     		add	r9, r9, r3
 233:D:/fchai/work/i-cube/I-CUBE-HUAWEI/Middlewares/Third_Party/Huawei/iot_link/network/dtls/mbedtls/mbedtls-2.16.2/library\sha256.c ****         P( A[7], A[0], A[1], A[2], A[3], A[4], A[5], A[6], W[i+1], K[i+1] );
 628              		.loc 1 233 9 is_stmt 1 discriminator 3 view .LVU200
 234:D:/fchai/work/i-cube/I-CUBE-HUAWEI/Middlewares/Third_Party/Huawei/iot_link/network/dtls/mbedtls/mbedtls-2.16.2/library\sha256.c ****         P( A[7], A[0], A[1], A[2], A[3], A[4], A[5], A[6], W[i+1], K[i+1] );
 629              		.loc 1 234 9 discriminator 3 view .LVU201
 234:D:/fchai/work/i-cube/I-CUBE-HUAWEI/Middlewares/Third_Party/Huawei/iot_link/network/dtls/mbedtls/mbedtls-2.16.2/library\sha256.c ****         P( A[7], A[0], A[1], A[2], A[3], A[4], A[5], A[6], W[i+1], K[i+1] );
 630              		.loc 1 234 9 discriminator 3 view .LVU202
 631              	.LVL19:
 234:D:/fchai/work/i-cube/I-CUBE-HUAWEI/Middlewares/Third_Party/Huawei/iot_link/network/dtls/mbedtls/mbedtls-2.16.2/library\sha256.c ****         P( A[7], A[0], A[1], A[2], A[3], A[4], A[5], A[6], W[i+1], K[i+1] );
 632              		.loc 1 234 9 discriminator 3 view .LVU203
 234:D:/fchai/work/i-cube/I-CUBE-HUAWEI/Middlewares/Third_Party/Huawei/iot_link/network/dtls/mbedtls/mbedtls-2.16.2/library\sha256.c ****         P( A[7], A[0], A[1], A[2], A[3], A[4], A[5], A[6], W[i+1], K[i+1] );
 633              		.loc 1 234 9 discriminator 3 view .LVU204
 234:D:/fchai/work/i-cube/I-CUBE-HUAWEI/Middlewares/Third_Party/Huawei/iot_link/network/dtls/mbedtls/mbedtls-2.16.2/library\sha256.c ****         P( A[7], A[0], A[1], A[2], A[3], A[4], A[5], A[6], W[i+1], K[i+1] );
 634              		.loc 1 234 9 discriminator 3 view .LVU205
 635              		.loc 1 235 9 is_stmt 0 discriminator 3 view .LVU206
 636 0104 8BEA0A0B 		eor	fp, fp, r10
 637 0108 BB18     		adds	r3, r7, r2
 638 010a 4FEAF52E 		ror	lr, r5, #11
 234:D:/fchai/work/i-cube/I-CUBE-HUAWEI/Middlewares/Third_Party/Huawei/iot_link/network/dtls/mbedtls/mbedtls-2.16.2/library\sha256.c ****         P( A[7], A[0], A[1], A[2], A[3], A[4], A[5], A[6], W[i+1], K[i+1] );
 639              		.loc 1 234 9 discriminator 3 view .LVU207
 640 010e 49EA0400 		orr	r0, r9, r4
 641              		.loc 1 235 9 discriminator 3 view .LVU208
 642 0112 0BEB0302 		add	r2, fp, r3
 643 0116 8EEAB51E 		eor	lr, lr, r5, ror #6
 234:D:/fchai/work/i-cube/I-CUBE-HUAWEI/Middlewares/Third_Party/Huawei/iot_link/network/dtls/mbedtls/mbedtls-2.16.2/library\sha256.c ****         P( A[7], A[0], A[1], A[2], A[3], A[4], A[5], A[6], W[i+1], K[i+1] );
 644              		.loc 1 234 9 discriminator 3 view .LVU209
 645 011a 4FEA793B 		ror	fp, r9, #13
 646 011e 00EA0806 		and	r6, r0, r8
 647              		.loc 1 235 9 discriminator 3 view .LVU210
 648 0122 8EEA756E 		eor	lr, lr, r5, ror #25
 234:D:/fchai/work/i-cube/I-CUBE-HUAWEI/Middlewares/Third_Party/Huawei/iot_link/network/dtls/mbedtls/mbedtls-2.16.2/library\sha256.c ****         P( A[7], A[0], A[1], A[2], A[3], A[4], A[5], A[6], W[i+1], K[i+1] );
 649              		.loc 1 234 9 discriminator 3 view .LVU211
 650 0126 09EA0400 		and	r0, r9, r4
 651 012a 8BEAB90B 		eor	fp, fp, r9, ror #2
 652              		.loc 1 235 9 discriminator 3 view .LVU212
 653 012e 02EB0E03 		add	r3, r2, lr
 234:D:/fchai/work/i-cube/I-CUBE-HUAWEI/Middlewares/Third_Party/Huawei/iot_link/network/dtls/mbedtls/mbedtls-2.16.2/library\sha256.c ****         P( A[7], A[0], A[1], A[2], A[3], A[4], A[5], A[6], W[i+1], K[i+1] );
 654              		.loc 1 234 9 discriminator 3 view .LVU213
 655 0132 8BEAB95B 		eor	fp, fp, r9, ror #22
 656 0136 3043     		orrs	r0, r0, r6
 657              		.loc 1 235 9 discriminator 3 view .LVU214
 658 0138 0A9A     		ldr	r2, [sp, #40]
 236:D:/fchai/work/i-cube/I-CUBE-HUAWEI/Middlewares/Third_Party/Huawei/iot_link/network/dtls/mbedtls/mbedtls-2.16.2/library\sha256.c ****         P( A[5], A[6], A[7], A[0], A[1], A[2], A[3], A[4], W[i+3], K[i+3] );
 659              		.loc 1 236 9 discriminator 3 view .LVU215
 660 013a 009F     		ldr	r7, [sp]
 234:D:/fchai/work/i-cube/I-CUBE-HUAWEI/Middlewares/Third_Party/Huawei/iot_link/network/dtls/mbedtls/mbedtls-2.16.2/library\sha256.c ****         P( A[6], A[7], A[0], A[1], A[2], A[3], A[4], A[5], W[i+2], K[i+2] );
 661              		.loc 1 234 9 discriminator 3 view .LVU216
 662 013c 5844     		add	r0, r0, fp
 663 013e 6044     		add	r0, r0, ip
 234:D:/fchai/work/i-cube/I-CUBE-HUAWEI/Middlewares/Third_Party/Huawei/iot_link/network/dtls/mbedtls/mbedtls-2.16.2/library\sha256.c ****         P( A[6], A[7], A[0], A[1], A[2], A[3], A[4], A[5], W[i+2], K[i+2] );
 664              		.loc 1 234 9 is_stmt 1 discriminator 3 view .LVU217
 235:D:/fchai/work/i-cube/I-CUBE-HUAWEI/Middlewares/Third_Party/Huawei/iot_link/network/dtls/mbedtls/mbedtls-2.16.2/library\sha256.c ****         P( A[6], A[7], A[0], A[1], A[2], A[3], A[4], A[5], W[i+2], K[i+2] );
 665              		.loc 1 235 9 discriminator 3 view .LVU218
 235:D:/fchai/work/i-cube/I-CUBE-HUAWEI/Middlewares/Third_Party/Huawei/iot_link/network/dtls/mbedtls/mbedtls-2.16.2/library\sha256.c ****         P( A[6], A[7], A[0], A[1], A[2], A[3], A[4], A[5], W[i+2], K[i+2] );
 666              		.loc 1 235 9 discriminator 3 view .LVU219
 667 0140 1A44     		add	r2, r2, r3
 668              	.LVL20:
ARM GAS  T:\msys\tmp\ccLh2YRr.s 			page 19


 235:D:/fchai/work/i-cube/I-CUBE-HUAWEI/Middlewares/Third_Party/Huawei/iot_link/network/dtls/mbedtls/mbedtls-2.16.2/library\sha256.c ****         P( A[6], A[7], A[0], A[1], A[2], A[3], A[4], A[5], W[i+2], K[i+2] );
 669              		.loc 1 235 9 discriminator 3 view .LVU220
 235:D:/fchai/work/i-cube/I-CUBE-HUAWEI/Middlewares/Third_Party/Huawei/iot_link/network/dtls/mbedtls/mbedtls-2.16.2/library\sha256.c ****         P( A[6], A[7], A[0], A[1], A[2], A[3], A[4], A[5], W[i+2], K[i+2] );
 670              		.loc 1 235 9 discriminator 3 view .LVU221
 671 0142 1646     		mov	r6, r2
 672 0144 4FEA703B 		ror	fp, r0, #13
 673 0148 4244     		add	r2, r8, r2
 674              	.LVL21:
 235:D:/fchai/work/i-cube/I-CUBE-HUAWEI/Middlewares/Third_Party/Huawei/iot_link/network/dtls/mbedtls/mbedtls-2.16.2/library\sha256.c ****         P( A[6], A[7], A[0], A[1], A[2], A[3], A[4], A[5], W[i+2], K[i+2] );
 675              		.loc 1 235 9 discriminator 3 view .LVU222
 676 014a 49EA0008 		orr	r8, r9, r0
 677              		.loc 1 236 9 is_stmt 0 discriminator 3 view .LVU223
 678 014e 81EA050E 		eor	lr, r1, r5
 235:D:/fchai/work/i-cube/I-CUBE-HUAWEI/Middlewares/Third_Party/Huawei/iot_link/network/dtls/mbedtls/mbedtls-2.16.2/library\sha256.c ****         P( A[6], A[7], A[0], A[1], A[2], A[3], A[4], A[5], W[i+2], K[i+2] );
 679              		.loc 1 235 9 discriminator 3 view .LVU224
 680 0152 08EA0408 		and	r8, r8, r4
 681 0156 09EA0003 		and	r3, r9, r0
 682 015a 8BEAB00B 		eor	fp, fp, r0, ror #2
 683              		.loc 1 236 9 discriminator 3 view .LVU225
 684 015e FF68     		ldr	r7, [r7, #12]
 685 0160 0EEA020E 		and	lr, lr, r2
 686 0164 4FEAF22C 		ror	ip, r2, #11
 235:D:/fchai/work/i-cube/I-CUBE-HUAWEI/Middlewares/Third_Party/Huawei/iot_link/network/dtls/mbedtls/mbedtls-2.16.2/library\sha256.c ****         P( A[6], A[7], A[0], A[1], A[2], A[3], A[4], A[5], W[i+2], K[i+2] );
 687              		.loc 1 235 9 discriminator 3 view .LVU226
 688 0168 48EA0303 		orr	r3, r8, r3
 689 016c 8BEAB058 		eor	r8, fp, r0, ror #22
 690              		.loc 1 236 9 discriminator 3 view .LVU227
 691 0170 8EEA010E 		eor	lr, lr, r1
 692 0174 BA44     		add	r10, r10, r7
 693 0176 8CEAB21C 		eor	ip, ip, r2, ror #6
 235:D:/fchai/work/i-cube/I-CUBE-HUAWEI/Middlewares/Third_Party/Huawei/iot_link/network/dtls/mbedtls/mbedtls-2.16.2/library\sha256.c ****         P( A[6], A[7], A[0], A[1], A[2], A[3], A[4], A[5], W[i+2], K[i+2] );
 694              		.loc 1 235 9 discriminator 3 view .LVU228
 695 017a 4344     		add	r3, r3, r8
 696 017c 3344     		add	r3, r3, r6
 235:D:/fchai/work/i-cube/I-CUBE-HUAWEI/Middlewares/Third_Party/Huawei/iot_link/network/dtls/mbedtls/mbedtls-2.16.2/library\sha256.c ****         P( A[6], A[7], A[0], A[1], A[2], A[3], A[4], A[5], W[i+2], K[i+2] );
 697              		.loc 1 235 9 is_stmt 1 discriminator 3 view .LVU229
 698              		.loc 1 236 9 discriminator 3 view .LVU230
 699              		.loc 1 236 9 discriminator 3 view .LVU231
 700 017e 8CEA726C 		eor	ip, ip, r2, ror #25
 701 0182 049E     		ldr	r6, [sp, #16]
 702              	.LVL22:
 703              		.loc 1 236 9 is_stmt 0 discriminator 3 view .LVU232
 704 0184 F244     		add	r10, r10, lr
 705 0186 E244     		add	r10, r10, ip
 706 0188 B244     		add	r10, r10, r6
 707              	.LVL23:
 708              		.loc 1 236 9 is_stmt 1 discriminator 3 view .LVU233
 709              		.loc 1 236 9 discriminator 3 view .LVU234
 710 018a 04EB0A0C 		add	ip, r4, r10
 711              		.loc 1 236 9 discriminator 3 view .LVU235
 237:D:/fchai/work/i-cube/I-CUBE-HUAWEI/Middlewares/Third_Party/Huawei/iot_link/network/dtls/mbedtls/mbedtls-2.16.2/library\sha256.c ****         P( A[4], A[5], A[6], A[7], A[0], A[1], A[2], A[3], W[i+4], K[i+4] );
 712              		.loc 1 237 9 is_stmt 0 discriminator 3 view .LVU236
 713 018e 009C     		ldr	r4, [sp]
 236:D:/fchai/work/i-cube/I-CUBE-HUAWEI/Middlewares/Third_Party/Huawei/iot_link/network/dtls/mbedtls/mbedtls-2.16.2/library\sha256.c ****         P( A[5], A[6], A[7], A[0], A[1], A[2], A[3], A[4], W[i+3], K[i+3] );
 714              		.loc 1 236 9 discriminator 3 view .LVU237
 715 0190 40EA030B 		orr	fp, r0, r3
 716 0194 00EA0308 		and	r8, r0, r3
ARM GAS  T:\msys\tmp\ccLh2YRr.s 			page 20


 717              		.loc 1 237 9 discriminator 3 view .LVU238
 718 0198 2669     		ldr	r6, [r4, #16]
 238:D:/fchai/work/i-cube/I-CUBE-HUAWEI/Middlewares/Third_Party/Huawei/iot_link/network/dtls/mbedtls/mbedtls-2.16.2/library\sha256.c ****         P( A[3], A[4], A[5], A[6], A[7], A[0], A[1], A[2], W[i+5], K[i+5] );
 239:D:/fchai/work/i-cube/I-CUBE-HUAWEI/Middlewares/Third_Party/Huawei/iot_link/network/dtls/mbedtls/mbedtls-2.16.2/library\sha256.c ****         P( A[2], A[3], A[4], A[5], A[6], A[7], A[0], A[1], W[i+6], K[i+6] );
 240:D:/fchai/work/i-cube/I-CUBE-HUAWEI/Middlewares/Third_Party/Huawei/iot_link/network/dtls/mbedtls/mbedtls-2.16.2/library\sha256.c ****         P( A[1], A[2], A[3], A[4], A[5], A[6], A[7], A[0], W[i+7], K[i+7] );
 719              		.loc 1 240 9 discriminator 3 view .LVU239
 720 019a E469     		ldr	r4, [r4, #28]
 236:D:/fchai/work/i-cube/I-CUBE-HUAWEI/Middlewares/Third_Party/Huawei/iot_link/network/dtls/mbedtls/mbedtls-2.16.2/library\sha256.c ****         P( A[4], A[5], A[6], A[7], A[0], A[1], A[2], A[3], W[i+4], K[i+4] );
 721              		.loc 1 236 9 discriminator 3 view .LVU240
 722 019c 0BEA090B 		and	fp, fp, r9
 723 01a0 4BEA080B 		orr	fp, fp, r8
 237:D:/fchai/work/i-cube/I-CUBE-HUAWEI/Middlewares/Third_Party/Huawei/iot_link/network/dtls/mbedtls/mbedtls-2.16.2/library\sha256.c ****         P( A[4], A[5], A[6], A[7], A[0], A[1], A[2], A[3], W[i+4], K[i+4] );
 724              		.loc 1 237 9 discriminator 3 view .LVU241
 725 01a4 85EA0208 		eor	r8, r5, r2
 236:D:/fchai/work/i-cube/I-CUBE-HUAWEI/Middlewares/Third_Party/Huawei/iot_link/network/dtls/mbedtls/mbedtls-2.16.2/library\sha256.c ****         P( A[4], A[5], A[6], A[7], A[0], A[1], A[2], A[3], W[i+4], K[i+4] );
 726              		.loc 1 236 9 discriminator 3 view .LVU242
 727 01a8 4FEA733E 		ror	lr, r3, #13
 237:D:/fchai/work/i-cube/I-CUBE-HUAWEI/Middlewares/Third_Party/Huawei/iot_link/network/dtls/mbedtls/mbedtls-2.16.2/library\sha256.c ****         P( A[4], A[5], A[6], A[7], A[0], A[1], A[2], A[3], W[i+4], K[i+4] );
 728              		.loc 1 237 9 discriminator 3 view .LVU243
 729 01ac 08EA0C08 		and	r8, r8, ip
 730 01b0 3144     		add	r1, r1, r6
 731 01b2 4FEAFC26 		ror	r6, ip, #11
 732 01b6 88EA0508 		eor	r8, r8, r5
 236:D:/fchai/work/i-cube/I-CUBE-HUAWEI/Middlewares/Third_Party/Huawei/iot_link/network/dtls/mbedtls/mbedtls-2.16.2/library\sha256.c ****         P( A[4], A[5], A[6], A[7], A[0], A[1], A[2], A[3], W[i+4], K[i+4] );
 733              		.loc 1 236 9 discriminator 3 view .LVU244
 734 01ba 8EEAB30E 		eor	lr, lr, r3, ror #2
 237:D:/fchai/work/i-cube/I-CUBE-HUAWEI/Middlewares/Third_Party/Huawei/iot_link/network/dtls/mbedtls/mbedtls-2.16.2/library\sha256.c ****         P( A[4], A[5], A[6], A[7], A[0], A[1], A[2], A[3], W[i+4], K[i+4] );
 735              		.loc 1 237 9 discriminator 3 view .LVU245
 736 01be 86EABC16 		eor	r6, r6, ip, ror #6
 737 01c2 4144     		add	r1, r1, r8
 236:D:/fchai/work/i-cube/I-CUBE-HUAWEI/Middlewares/Third_Party/Huawei/iot_link/network/dtls/mbedtls/mbedtls-2.16.2/library\sha256.c ****         P( A[4], A[5], A[6], A[7], A[0], A[1], A[2], A[3], W[i+4], K[i+4] );
 738              		.loc 1 236 9 discriminator 3 view .LVU246
 739 01c4 8EEAB35E 		eor	lr, lr, r3, ror #22
 237:D:/fchai/work/i-cube/I-CUBE-HUAWEI/Middlewares/Third_Party/Huawei/iot_link/network/dtls/mbedtls/mbedtls-2.16.2/library\sha256.c ****         P( A[4], A[5], A[6], A[7], A[0], A[1], A[2], A[3], W[i+4], K[i+4] );
 740              		.loc 1 237 9 discriminator 3 view .LVU247
 741 01c8 86EA7C66 		eor	r6, r6, ip, ror #25
 236:D:/fchai/work/i-cube/I-CUBE-HUAWEI/Middlewares/Third_Party/Huawei/iot_link/network/dtls/mbedtls/mbedtls-2.16.2/library\sha256.c ****         P( A[4], A[5], A[6], A[7], A[0], A[1], A[2], A[3], W[i+4], K[i+4] );
 742              		.loc 1 236 9 discriminator 3 view .LVU248
 743 01cc DE44     		add	lr, lr, fp
 237:D:/fchai/work/i-cube/I-CUBE-HUAWEI/Middlewares/Third_Party/Huawei/iot_link/network/dtls/mbedtls/mbedtls-2.16.2/library\sha256.c ****         P( A[4], A[5], A[6], A[7], A[0], A[1], A[2], A[3], W[i+4], K[i+4] );
 744              		.loc 1 237 9 discriminator 3 view .LVU249
 745 01ce 0E44     		add	r6, r6, r1
 746 01d0 0599     		ldr	r1, [sp, #20]
 236:D:/fchai/work/i-cube/I-CUBE-HUAWEI/Middlewares/Third_Party/Huawei/iot_link/network/dtls/mbedtls/mbedtls-2.16.2/library\sha256.c ****         P( A[4], A[5], A[6], A[7], A[0], A[1], A[2], A[3], W[i+4], K[i+4] );
 747              		.loc 1 236 9 discriminator 3 view .LVU250
 748 01d2 F244     		add	r10, r10, lr
 749              	.LVL24:
 236:D:/fchai/work/i-cube/I-CUBE-HUAWEI/Middlewares/Third_Party/Huawei/iot_link/network/dtls/mbedtls/mbedtls-2.16.2/library\sha256.c ****         P( A[4], A[5], A[6], A[7], A[0], A[1], A[2], A[3], W[i+4], K[i+4] );
 750              		.loc 1 236 9 is_stmt 1 discriminator 3 view .LVU251
 237:D:/fchai/work/i-cube/I-CUBE-HUAWEI/Middlewares/Third_Party/Huawei/iot_link/network/dtls/mbedtls/mbedtls-2.16.2/library\sha256.c ****         P( A[4], A[5], A[6], A[7], A[0], A[1], A[2], A[3], W[i+4], K[i+4] );
 751              		.loc 1 237 9 discriminator 3 view .LVU252
 237:D:/fchai/work/i-cube/I-CUBE-HUAWEI/Middlewares/Third_Party/Huawei/iot_link/network/dtls/mbedtls/mbedtls-2.16.2/library\sha256.c ****         P( A[4], A[5], A[6], A[7], A[0], A[1], A[2], A[3], W[i+4], K[i+4] );
 752              		.loc 1 237 9 discriminator 3 view .LVU253
 753 01d4 0E44     		add	r6, r6, r1
 754              	.LVL25:
 237:D:/fchai/work/i-cube/I-CUBE-HUAWEI/Middlewares/Third_Party/Huawei/iot_link/network/dtls/mbedtls/mbedtls-2.16.2/library\sha256.c ****         P( A[4], A[5], A[6], A[7], A[0], A[1], A[2], A[3], W[i+4], K[i+4] );
 755              		.loc 1 237 9 discriminator 3 view .LVU254
ARM GAS  T:\msys\tmp\ccLh2YRr.s 			page 21


 237:D:/fchai/work/i-cube/I-CUBE-HUAWEI/Middlewares/Third_Party/Huawei/iot_link/network/dtls/mbedtls/mbedtls-2.16.2/library\sha256.c ****         P( A[4], A[5], A[6], A[7], A[0], A[1], A[2], A[3], W[i+4], K[i+4] );
 756              		.loc 1 237 9 discriminator 3 view .LVU255
 237:D:/fchai/work/i-cube/I-CUBE-HUAWEI/Middlewares/Third_Party/Huawei/iot_link/network/dtls/mbedtls/mbedtls-2.16.2/library\sha256.c ****         P( A[4], A[5], A[6], A[7], A[0], A[1], A[2], A[3], W[i+4], K[i+4] );
 757              		.loc 1 237 9 discriminator 3 view .LVU256
 758 01d6 4FEA7A38 		ror	r8, r10, #13
 759 01da 43EA0A01 		orr	r1, r3, r10
 760 01de 09EB0607 		add	r7, r9, r6
 761 01e2 03EA0A0E 		and	lr, r3, r10
 762 01e6 88EABA09 		eor	r9, r8, r10, ror #2
 763 01ea 0140     		ands	r1, r1, r0
 238:D:/fchai/work/i-cube/I-CUBE-HUAWEI/Middlewares/Third_Party/Huawei/iot_link/network/dtls/mbedtls/mbedtls-2.16.2/library\sha256.c ****         P( A[3], A[4], A[5], A[6], A[7], A[0], A[1], A[2], W[i+5], K[i+5] );
 764              		.loc 1 238 9 is_stmt 0 discriminator 3 view .LVU257
 765 01ec 82EA0C08 		eor	r8, r2, ip
 766 01f0 0197     		str	r7, [sp, #4]
 237:D:/fchai/work/i-cube/I-CUBE-HUAWEI/Middlewares/Third_Party/Huawei/iot_link/network/dtls/mbedtls/mbedtls-2.16.2/library\sha256.c ****         P( A[4], A[5], A[6], A[7], A[0], A[1], A[2], A[3], W[i+4], K[i+4] );
 767              		.loc 1 237 9 discriminator 3 view .LVU258
 768 01f2 41EA0E01 		orr	r1, r1, lr
 238:D:/fchai/work/i-cube/I-CUBE-HUAWEI/Middlewares/Third_Party/Huawei/iot_link/network/dtls/mbedtls/mbedtls-2.16.2/library\sha256.c ****         P( A[3], A[4], A[5], A[6], A[7], A[0], A[1], A[2], W[i+5], K[i+5] );
 769              		.loc 1 238 9 discriminator 3 view .LVU259
 770 01f6 08EA0708 		and	r8, r8, r7
 771 01fa 4FEAF72E 		ror	lr, r7, #11
 772 01fe 009F     		ldr	r7, [sp]
 773 0200 7F69     		ldr	r7, [r7, #20]
 774 0202 3D44     		add	r5, r5, r7
 775 0204 019F     		ldr	r7, [sp, #4]
 237:D:/fchai/work/i-cube/I-CUBE-HUAWEI/Middlewares/Third_Party/Huawei/iot_link/network/dtls/mbedtls/mbedtls-2.16.2/library\sha256.c ****         P( A[4], A[5], A[6], A[7], A[0], A[1], A[2], A[3], W[i+4], K[i+4] );
 776              		.loc 1 237 9 discriminator 3 view .LVU260
 777 0206 89EABA59 		eor	r9, r9, r10, ror #22
 238:D:/fchai/work/i-cube/I-CUBE-HUAWEI/Middlewares/Third_Party/Huawei/iot_link/network/dtls/mbedtls/mbedtls-2.16.2/library\sha256.c ****         P( A[3], A[4], A[5], A[6], A[7], A[0], A[1], A[2], W[i+5], K[i+5] );
 778              		.loc 1 238 9 discriminator 3 view .LVU261
 779 020a 8EEAB71E 		eor	lr, lr, r7, ror #6
 237:D:/fchai/work/i-cube/I-CUBE-HUAWEI/Middlewares/Third_Party/Huawei/iot_link/network/dtls/mbedtls/mbedtls-2.16.2/library\sha256.c ****         P( A[4], A[5], A[6], A[7], A[0], A[1], A[2], A[3], W[i+4], K[i+4] );
 780              		.loc 1 237 9 discriminator 3 view .LVU262
 781 020e 4944     		add	r1, r1, r9
 238:D:/fchai/work/i-cube/I-CUBE-HUAWEI/Middlewares/Third_Party/Huawei/iot_link/network/dtls/mbedtls/mbedtls-2.16.2/library\sha256.c ****         P( A[3], A[4], A[5], A[6], A[7], A[0], A[1], A[2], W[i+5], K[i+5] );
 782              		.loc 1 238 9 discriminator 3 view .LVU263
 783 0210 88EA0208 		eor	r8, r8, r2
 784 0214 8EEA776E 		eor	lr, lr, r7, ror #25
 785 0218 079F     		ldr	r7, [sp, #28]
 237:D:/fchai/work/i-cube/I-CUBE-HUAWEI/Middlewares/Third_Party/Huawei/iot_link/network/dtls/mbedtls/mbedtls-2.16.2/library\sha256.c ****         P( A[4], A[5], A[6], A[7], A[0], A[1], A[2], A[3], W[i+4], K[i+4] );
 786              		.loc 1 237 9 discriminator 3 view .LVU264
 787 021a 01EB060B 		add	fp, r1, r6
 237:D:/fchai/work/i-cube/I-CUBE-HUAWEI/Middlewares/Third_Party/Huawei/iot_link/network/dtls/mbedtls/mbedtls-2.16.2/library\sha256.c ****         P( A[4], A[5], A[6], A[7], A[0], A[1], A[2], A[3], W[i+4], K[i+4] );
 788              		.loc 1 237 9 is_stmt 1 discriminator 3 view .LVU265
 238:D:/fchai/work/i-cube/I-CUBE-HUAWEI/Middlewares/Third_Party/Huawei/iot_link/network/dtls/mbedtls/mbedtls-2.16.2/library\sha256.c ****         P( A[3], A[4], A[5], A[6], A[7], A[0], A[1], A[2], W[i+5], K[i+5] );
 789              		.loc 1 238 9 discriminator 3 view .LVU266
 238:D:/fchai/work/i-cube/I-CUBE-HUAWEI/Middlewares/Third_Party/Huawei/iot_link/network/dtls/mbedtls/mbedtls-2.16.2/library\sha256.c ****         P( A[3], A[4], A[5], A[6], A[7], A[0], A[1], A[2], W[i+5], K[i+5] );
 790              		.loc 1 238 9 discriminator 3 view .LVU267
 791 021e 4544     		add	r5, r5, r8
 792 0220 7544     		add	r5, r5, lr
 793 0222 4AEA0B06 		orr	r6, r10, fp
 794              	.LVL26:
 238:D:/fchai/work/i-cube/I-CUBE-HUAWEI/Middlewares/Third_Party/Huawei/iot_link/network/dtls/mbedtls/mbedtls-2.16.2/library\sha256.c ****         P( A[3], A[4], A[5], A[6], A[7], A[0], A[1], A[2], W[i+5], K[i+5] );
 795              		.loc 1 238 9 is_stmt 0 discriminator 3 view .LVU268
 796 0226 BE46     		mov	lr, r7
 797 0228 4FEA7B31 		ror	r1, fp, #13
 798 022c AE44     		add	lr, lr, r5
ARM GAS  T:\msys\tmp\ccLh2YRr.s 			page 22


 799              	.LVL27:
 238:D:/fchai/work/i-cube/I-CUBE-HUAWEI/Middlewares/Third_Party/Huawei/iot_link/network/dtls/mbedtls/mbedtls-2.16.2/library\sha256.c ****         P( A[3], A[4], A[5], A[6], A[7], A[0], A[1], A[2], W[i+5], K[i+5] );
 800              		.loc 1 238 9 is_stmt 1 discriminator 3 view .LVU269
 238:D:/fchai/work/i-cube/I-CUBE-HUAWEI/Middlewares/Third_Party/Huawei/iot_link/network/dtls/mbedtls/mbedtls-2.16.2/library\sha256.c ****         P( A[3], A[4], A[5], A[6], A[7], A[0], A[1], A[2], W[i+5], K[i+5] );
 801              		.loc 1 238 9 discriminator 3 view .LVU270
 802 022e 0AEA0B08 		and	r8, r10, fp
 803 0232 06EA0305 		and	r5, r6, r3
 804 0236 81EABB01 		eor	r1, r1, fp, ror #2
 805 023a 45EA0805 		orr	r5, r5, r8
 806 023e 81EABB51 		eor	r1, r1, fp, ror #22
 807 0242 00EB0E06 		add	r6, r0, lr
 238:D:/fchai/work/i-cube/I-CUBE-HUAWEI/Middlewares/Third_Party/Huawei/iot_link/network/dtls/mbedtls/mbedtls-2.16.2/library\sha256.c ****         P( A[3], A[4], A[5], A[6], A[7], A[0], A[1], A[2], W[i+5], K[i+5] );
 808              		.loc 1 238 9 discriminator 3 view .LVU271
 809 0246 0D44     		add	r5, r5, r1
 239:D:/fchai/work/i-cube/I-CUBE-HUAWEI/Middlewares/Third_Party/Huawei/iot_link/network/dtls/mbedtls/mbedtls-2.16.2/library\sha256.c ****         P( A[1], A[2], A[3], A[4], A[5], A[6], A[7], A[0], W[i+7], K[i+7] );
 810              		.loc 1 239 9 is_stmt 0 discriminator 3 view .LVU272
 811 0248 0198     		ldr	r0, [sp, #4]
 812 024a 0099     		ldr	r1, [sp]
 813 024c 8CEA0000 		eor	r0, ip, r0
 814 0250 8969     		ldr	r1, [r1, #24]
 815 0252 3040     		ands	r0, r0, r6
 816 0254 4FEAF629 		ror	r9, r6, #11
 817 0258 80EA0C08 		eor	r8, r0, ip
 818 025c 0A44     		add	r2, r2, r1
 819 025e 89EAB619 		eor	r9, r9, r6, ror #6
 820 0262 89EA7661 		eor	r1, r9, r6, ror #25
 821 0266 4244     		add	r2, r2, r8
 238:D:/fchai/work/i-cube/I-CUBE-HUAWEI/Middlewares/Third_Party/Huawei/iot_link/network/dtls/mbedtls/mbedtls-2.16.2/library\sha256.c ****         P( A[3], A[4], A[5], A[6], A[7], A[0], A[1], A[2], W[i+5], K[i+5] );
 822              		.loc 1 238 9 discriminator 3 view .LVU273
 823 0268 7544     		add	r5, r5, lr
 238:D:/fchai/work/i-cube/I-CUBE-HUAWEI/Middlewares/Third_Party/Huawei/iot_link/network/dtls/mbedtls/mbedtls-2.16.2/library\sha256.c ****         P( A[3], A[4], A[5], A[6], A[7], A[0], A[1], A[2], W[i+5], K[i+5] );
 824              		.loc 1 238 9 is_stmt 1 discriminator 3 view .LVU274
 239:D:/fchai/work/i-cube/I-CUBE-HUAWEI/Middlewares/Third_Party/Huawei/iot_link/network/dtls/mbedtls/mbedtls-2.16.2/library\sha256.c ****         P( A[1], A[2], A[3], A[4], A[5], A[6], A[7], A[0], W[i+7], K[i+7] );
 825              		.loc 1 239 9 discriminator 3 view .LVU275
 239:D:/fchai/work/i-cube/I-CUBE-HUAWEI/Middlewares/Third_Party/Huawei/iot_link/network/dtls/mbedtls/mbedtls-2.16.2/library\sha256.c ****         P( A[1], A[2], A[3], A[4], A[5], A[6], A[7], A[0], W[i+7], K[i+7] );
 826              		.loc 1 239 9 discriminator 3 view .LVU276
 827 026a 02EB0108 		add	r8, r2, r1
 828 026e 0899     		ldr	r1, [sp, #32]
 829              		.loc 1 240 9 is_stmt 0 discriminator 3 view .LVU277
 830 0270 019A     		ldr	r2, [sp, #4]
 239:D:/fchai/work/i-cube/I-CUBE-HUAWEI/Middlewares/Third_Party/Huawei/iot_link/network/dtls/mbedtls/mbedtls-2.16.2/library\sha256.c ****         P( A[1], A[2], A[3], A[4], A[5], A[6], A[7], A[0], W[i+7], K[i+7] );
 831              		.loc 1 239 9 discriminator 3 view .LVU278
 832 0272 4BEA0509 		orr	r9, fp, r5
 833 0276 4FEA753E 		ror	lr, r5, #13
 834              	.LVL28:
 239:D:/fchai/work/i-cube/I-CUBE-HUAWEI/Middlewares/Third_Party/Huawei/iot_link/network/dtls/mbedtls/mbedtls-2.16.2/library\sha256.c ****         P( A[1], A[2], A[3], A[4], A[5], A[6], A[7], A[0], W[i+7], K[i+7] );
 835              		.loc 1 239 9 discriminator 3 view .LVU279
 836 027a 4144     		add	r1, r1, r8
 837              	.LVL29:
 239:D:/fchai/work/i-cube/I-CUBE-HUAWEI/Middlewares/Third_Party/Huawei/iot_link/network/dtls/mbedtls/mbedtls-2.16.2/library\sha256.c ****         P( A[1], A[2], A[3], A[4], A[5], A[6], A[7], A[0], W[i+7], K[i+7] );
 838              		.loc 1 239 9 is_stmt 1 discriminator 3 view .LVU280
 239:D:/fchai/work/i-cube/I-CUBE-HUAWEI/Middlewares/Third_Party/Huawei/iot_link/network/dtls/mbedtls/mbedtls-2.16.2/library\sha256.c ****         P( A[1], A[2], A[3], A[4], A[5], A[6], A[7], A[0], W[i+7], K[i+7] );
 839              		.loc 1 239 9 discriminator 3 view .LVU281
 840 027c 09EA0A09 		and	r9, r9, r10
 841 0280 0BEA0500 		and	r0, fp, r5
 842 0284 8EEAB50E 		eor	lr, lr, r5, ror #2
 843 0288 5F18     		adds	r7, r3, r1
ARM GAS  T:\msys\tmp\ccLh2YRr.s 			page 23


 844 028a 49EA0009 		orr	r9, r9, r0
 845              		.loc 1 240 9 is_stmt 0 discriminator 3 view .LVU282
 846 028e 1346     		mov	r3, r2
 239:D:/fchai/work/i-cube/I-CUBE-HUAWEI/Middlewares/Third_Party/Huawei/iot_link/network/dtls/mbedtls/mbedtls-2.16.2/library\sha256.c ****         P( A[1], A[2], A[3], A[4], A[5], A[6], A[7], A[0], W[i+7], K[i+7] );
 847              		.loc 1 239 9 discriminator 3 view .LVU283
 848 0290 8EEAB55E 		eor	lr, lr, r5, ror #22
 849              		.loc 1 240 9 discriminator 3 view .LVU284
 850 0294 7340     		eors	r3, r3, r6
 239:D:/fchai/work/i-cube/I-CUBE-HUAWEI/Middlewares/Third_Party/Huawei/iot_link/network/dtls/mbedtls/mbedtls-2.16.2/library\sha256.c ****         P( A[1], A[2], A[3], A[4], A[5], A[6], A[7], A[0], W[i+7], K[i+7] );
 851              		.loc 1 239 9 discriminator 3 view .LVU285
 852 0296 F144     		add	r9, r9, lr
 853 0298 09EB0108 		add	r8, r9, r1
 854              		.loc 1 240 9 discriminator 3 view .LVU286
 855 029c 03EA0701 		and	r1, r3, r7
 856              	.LVL30:
 857              		.loc 1 240 9 discriminator 3 view .LVU287
 858 02a0 5140     		eors	r1, r1, r2
 859 02a2 4FEAF723 		ror	r3, r7, #11
 860 02a6 6444     		add	r4, r4, ip
 861 02a8 45EA0802 		orr	r2, r5, r8
 862 02ac 83EAB71C 		eor	ip, r3, r7, ror #6
 863 02b0 0C44     		add	r4, r4, r1
 864 02b2 02EA0B02 		and	r2, r2, fp
 865 02b6 05EA0801 		and	r1, r5, r8
 866 02ba 0A43     		orrs	r2, r2, r1
 867 02bc 8CEA776C 		eor	ip, ip, r7, ror #25
 868 02c0 0999     		ldr	r1, [sp, #36]
 239:D:/fchai/work/i-cube/I-CUBE-HUAWEI/Middlewares/Third_Party/Huawei/iot_link/network/dtls/mbedtls/mbedtls-2.16.2/library\sha256.c ****         P( A[1], A[2], A[3], A[4], A[5], A[6], A[7], A[0], W[i+7], K[i+7] );
 869              		.loc 1 239 9 discriminator 3 view .LVU288
 870 02c2 0297     		str	r7, [sp, #8]
 239:D:/fchai/work/i-cube/I-CUBE-HUAWEI/Middlewares/Third_Party/Huawei/iot_link/network/dtls/mbedtls/mbedtls-2.16.2/library\sha256.c ****         P( A[1], A[2], A[3], A[4], A[5], A[6], A[7], A[0], W[i+7], K[i+7] );
 871              		.loc 1 239 9 is_stmt 1 discriminator 3 view .LVU289
 239:D:/fchai/work/i-cube/I-CUBE-HUAWEI/Middlewares/Third_Party/Huawei/iot_link/network/dtls/mbedtls/mbedtls-2.16.2/library\sha256.c ****         P( A[1], A[2], A[3], A[4], A[5], A[6], A[7], A[0], W[i+7], K[i+7] );
 872              		.loc 1 239 9 discriminator 3 view .LVU290
 873              		.loc 1 240 9 discriminator 3 view .LVU291
 874              		.loc 1 240 9 discriminator 3 view .LVU292
 875 02c4 4FEA7833 		ror	r3, r8, #13
 876 02c8 6444     		add	r4, r4, ip
 877 02ca 0C44     		add	r4, r4, r1
 878              	.LVL31:
 879              		.loc 1 240 9 discriminator 3 view .LVU293
 880              		.loc 1 240 9 discriminator 3 view .LVU294
 881 02cc 83EAB803 		eor	r3, r3, r8, ror #2
 882 02d0 0099     		ldr	r1, [sp]
 883 02d2 83EAB853 		eor	r3, r3, r8, ror #22
 884 02d6 1A44     		add	r2, r2, r3
 885 02d8 2031     		adds	r1, r1, #32
 886 02da 0091     		str	r1, [sp]
 887 02dc A244     		add	r10, r10, r4
 888              		.loc 1 240 9 discriminator 3 view .LVU295
 231:D:/fchai/work/i-cube/I-CUBE-HUAWEI/Middlewares/Third_Party/Huawei/iot_link/network/dtls/mbedtls/mbedtls-2.16.2/library\sha256.c ****     {
 889              		.loc 1 231 5 is_stmt 0 discriminator 3 view .LVU296
 890 02de 2349     		ldr	r1, .L33+24
 891              		.loc 1 240 9 discriminator 3 view .LVU297
 892 02e0 1444     		add	r4, r4, r2
 893              	.LVL32:
 894              		.loc 1 240 9 is_stmt 1 discriminator 3 view .LVU298
ARM GAS  T:\msys\tmp\ccLh2YRr.s 			page 24


 231:D:/fchai/work/i-cube/I-CUBE-HUAWEI/Middlewares/Third_Party/Huawei/iot_link/network/dtls/mbedtls/mbedtls-2.16.2/library\sha256.c ****     {
 895              		.loc 1 231 25 discriminator 3 view .LVU299
 231:D:/fchai/work/i-cube/I-CUBE-HUAWEI/Middlewares/Third_Party/Huawei/iot_link/network/dtls/mbedtls/mbedtls-2.16.2/library\sha256.c ****     {
 896              		.loc 1 231 17 discriminator 3 view .LVU300
 231:D:/fchai/work/i-cube/I-CUBE-HUAWEI/Middlewares/Third_Party/Huawei/iot_link/network/dtls/mbedtls/mbedtls-2.16.2/library\sha256.c ****     {
 897              		.loc 1 231 5 is_stmt 0 discriminator 3 view .LVU301
 898 02e2 039A     		ldr	r2, [sp, #12]
 899 02e4 9142     		cmp	r1, r2
 900 02e6 10D0     		beq	.L22
 901 02e8 D2E909C1 		ldrd	ip, r1, [r2, #36]
 902 02ec 0A91     		str	r1, [sp, #40]
 903 02ee D16A     		ldr	r1, [r2, #44]
 904 02f0 0491     		str	r1, [sp, #16]
 905 02f2 116B     		ldr	r1, [r2, #48]
 906 02f4 0591     		str	r1, [sp, #20]
 907 02f6 516B     		ldr	r1, [r2, #52]
 908 02f8 0791     		str	r1, [sp, #28]
 909 02fa 916B     		ldr	r1, [r2, #56]
 910 02fc 136A     		ldr	r3, [r2, #32]
 911 02fe 0891     		str	r1, [sp, #32]
 912 0300 2032     		adds	r2, r2, #32
 913 0302 D169     		ldr	r1, [r2, #28]
 914 0304 0991     		str	r1, [sp, #36]
 915 0306 0392     		str	r2, [sp, #12]
 916 0308 BFE6     		b	.L23
 917              	.L22:
 231:D:/fchai/work/i-cube/I-CUBE-HUAWEI/Middlewares/Third_Party/Huawei/iot_link/network/dtls/mbedtls/mbedtls-2.16.2/library\sha256.c ****     {
 918              		.loc 1 231 5 view .LVU302
 919 030a 194B     		ldr	r3, .L33+28
 920 030c 0C93     		str	r3, [sp, #48]
 921 030e A3F1D253 		sub	r3, r3, #440401920
 922 0312 A3F50D23 		sub	r3, r3, #577536
 923 0316 A3F6FE63 		subw	r3, r3, #3838
 924 031a DDF82C90 		ldr	r9, [sp, #44]
 925 031e 0B93     		str	r3, [sp, #44]
 926 0320 144B     		ldr	r3, .L33+32
 927 0322 0A93     		str	r3, [sp, #40]
 928 0324 A3F1E453 		sub	r3, r3, #478150656
 929 0328 A3F53523 		sub	r3, r3, #741376
 930 032c A3F63B03 		subw	r3, r3, #2107
 931 0330 114A     		ldr	r2, .L33+36
 932 0332 0993     		str	r3, [sp, #36]
 933 0334 114B     		ldr	r3, .L33+40
 934 0336 DFF858E0 		ldr	lr, .L33+60
 935 033a CDF80CA0 		str	r10, [sp, #12]
 936 033e CDE90732 		strd	r3, r2, [sp, #28]
 937 0342 0F4B     		ldr	r3, .L33+44
 938 0344 0593     		str	r3, [sp, #20]
 939 0346 48AB     		add	r3, sp, #288
 940 0348 029A     		ldr	r2, [sp, #8]
 941 034a 0D93     		str	r3, [sp, #52]
 942 034c 0094     		str	r4, [sp]
 231:D:/fchai/work/i-cube/I-CUBE-HUAWEI/Middlewares/Third_Party/Huawei/iot_link/network/dtls/mbedtls/mbedtls-2.16.2/library\sha256.c ****     {
 943              		.loc 1 231 5 view .LVU303
 944 034e 0295     		str	r5, [sp, #8]
 945 0350 2FE0     		b	.L25
 946              	.L34:
ARM GAS  T:\msys\tmp\ccLh2YRr.s 			page 25


 947 0352 00BF     		.align	2
 948              	.L33:
 949 0354 D55E1CAB 		.word	-1424204075
 950 0358 A4823F92 		.word	-1841331548
 951 035c 00000000 		.word	.LANCHOR0
 952 0360 F111F159 		.word	1508970993
 953 0364 A5DBB5E9 		.word	-373957723
 954 0368 982F8A42 		.word	1116352408
 955 036c 20000000 		.word	.LANCHOR0+32
 956 0370 DA88F976 		.word	1996064986
 957 0374 AA84744A 		.word	1249150122
 958 0378 CCA10C24 		.word	604807628
 959 037c C69DC10F 		.word	264347078
 960 0380 8647BEEF 		.word	-272742522
 961 0384 5BC25639 		.word	961987163
 962 0388 CFFBC0B5 		.word	-1245643825
 963 038c 91443771 		.word	1899447441
 964 0390 C1699BE4 		.word	-459576895
 965              	.LVL33:
 966              	.L31:
 231:D:/fchai/work/i-cube/I-CUBE-HUAWEI/Middlewares/Third_Party/Huawei/iot_link/network/dtls/mbedtls/mbedtls-2.16.2/library\sha256.c ****     {
 967              		.loc 1 231 5 view .LVU304
 968 0394 D3E910E1 		ldrd	lr, r1, [r3, #64]
 969 0398 0591     		str	r1, [sp, #20]
 970 039a 996C     		ldr	r1, [r3, #72]
 971 039c 0791     		str	r1, [sp, #28]
 972 039e D96C     		ldr	r1, [r3, #76]
 973 03a0 0891     		str	r1, [sp, #32]
 974 03a2 196D     		ldr	r1, [r3, #80]
 975 03a4 0991     		str	r1, [sp, #36]
 976 03a6 596D     		ldr	r1, [r3, #84]
 977 03a8 0A91     		str	r1, [sp, #40]
 978 03aa 996D     		ldr	r1, [r3, #88]
 979 03ac DB6D     		ldr	r3, [r3, #92]
 980 03ae 0B91     		str	r1, [sp, #44]
 981 03b0 0C93     		str	r3, [sp, #48]
 982              	.LVL34:
 983              	.L25:
 241:D:/fchai/work/i-cube/I-CUBE-HUAWEI/Middlewares/Third_Party/Huawei/iot_link/network/dtls/mbedtls/mbedtls-2.16.2/library\sha256.c ****     }
 242:D:/fchai/work/i-cube/I-CUBE-HUAWEI/Middlewares/Third_Party/Huawei/iot_link/network/dtls/mbedtls/mbedtls-2.16.2/library\sha256.c **** 
 243:D:/fchai/work/i-cube/I-CUBE-HUAWEI/Middlewares/Third_Party/Huawei/iot_link/network/dtls/mbedtls/mbedtls-2.16.2/library\sha256.c ****     for( i = 16; i < 64; i += 8 )
 244:D:/fchai/work/i-cube/I-CUBE-HUAWEI/Middlewares/Third_Party/Huawei/iot_link/network/dtls/mbedtls/mbedtls-2.16.2/library\sha256.c ****     {
 245:D:/fchai/work/i-cube/I-CUBE-HUAWEI/Middlewares/Third_Party/Huawei/iot_link/network/dtls/mbedtls/mbedtls-2.16.2/library\sha256.c ****         P( A[0], A[1], A[2], A[3], A[4], A[5], A[6], A[7], R(i+0), K[i+0] );
 984              		.loc 1 245 9 is_stmt 1 discriminator 3 view .LVU305
 985              		.loc 1 245 9 discriminator 3 view .LVU306
 986 03b2 D9F83810 		ldr	r1, [r9, #56]
 987 03b6 D9F83870 		ldr	r7, [r9, #56]
 988 03ba D9F82440 		ldr	r4, [r9, #36]
 989 03be D9F80030 		ldr	r3, [r9]
 990 03c2 D9F80450 		ldr	r5, [r9, #4]
 246:D:/fchai/work/i-cube/I-CUBE-HUAWEI/Middlewares/Third_Party/Huawei/iot_link/network/dtls/mbedtls/mbedtls-2.16.2/library\sha256.c ****         P( A[7], A[0], A[1], A[2], A[3], A[4], A[5], A[6], R(i+1), K[i+1] );
 991              		.loc 1 246 9 is_stmt 0 discriminator 3 view .LVU307
 992 03c6 D9F82800 		ldr	r0, [r9, #40]
 245:D:/fchai/work/i-cube/I-CUBE-HUAWEI/Middlewares/Third_Party/Huawei/iot_link/network/dtls/mbedtls/mbedtls-2.16.2/library\sha256.c ****         P( A[7], A[0], A[1], A[2], A[3], A[4], A[5], A[6], R(i+1), K[i+1] );
 993              		.loc 1 245 9 discriminator 3 view .LVU308
 994 03ca 4FEAF141 		ror	r1, r1, #19
 995 03ce 81EA7741 		eor	r1, r1, r7, ror #17
ARM GAS  T:\msys\tmp\ccLh2YRr.s 			page 26


 996 03d2 81EA9721 		eor	r1, r1, r7, lsr #10
 997 03d6 039F     		ldr	r7, [sp, #12]
 998 03d8 2344     		add	r3, r3, r4
 999 03da 86EA020C 		eor	ip, r6, r2
 1000 03de 0B44     		add	r3, r3, r1
 1001 03e0 4FEAF721 		ror	r1, r7, #11
 1002 03e4 4FEAB54A 		ror	r10, r5, #18
 1003 03e8 81EAB711 		eor	r1, r1, r7, ror #6
 1004 03ec 0CEA070C 		and	ip, ip, r7
 1005 03f0 81EA7761 		eor	r1, r1, r7, ror #25
 1006 03f4 8CEA060C 		eor	ip, ip, r6
 1007 03f8 8AEAF51A 		eor	r10, r10, r5, ror #7
 1008 03fc 8AEAD50A 		eor	r10, r10, r5, lsr #3
 1009 0400 01EB0C04 		add	r4, r1, ip
 1010              		.loc 1 246 9 discriminator 3 view .LVU309
 1011 0404 D9F83C10 		ldr	r1, [r9, #60]
 245:D:/fchai/work/i-cube/I-CUBE-HUAWEI/Middlewares/Third_Party/Huawei/iot_link/network/dtls/mbedtls/mbedtls-2.16.2/library\sha256.c ****         P( A[7], A[0], A[1], A[2], A[3], A[4], A[5], A[6], R(i+1), K[i+1] );
 1012              		.loc 1 245 9 discriminator 3 view .LVU310
 1013 0408 5344     		add	r3, r3, r10
 1014 040a 0493     		str	r3, [sp, #16]
 1015 040c 1C44     		add	r4, r4, r3
 1016              		.loc 1 246 9 discriminator 3 view .LVU311
 1017 040e 4FEAF143 		ror	r3, r1, #19
 1018 0412 83EA7143 		eor	r3, r3, r1, ror #17
 245:D:/fchai/work/i-cube/I-CUBE-HUAWEI/Middlewares/Third_Party/Huawei/iot_link/network/dtls/mbedtls/mbedtls-2.16.2/library\sha256.c ****         P( A[7], A[0], A[1], A[2], A[3], A[4], A[5], A[6], R(i+1), K[i+1] );
 1019              		.loc 1 245 9 discriminator 3 view .LVU312
 1020 0416 0199     		ldr	r1, [sp, #4]
 1021              		.loc 1 246 9 discriminator 3 view .LVU313
 1022 0418 0544     		add	r5, r5, r0
 1023 041a D9F83C00 		ldr	r0, [r9, #60]
 245:D:/fchai/work/i-cube/I-CUBE-HUAWEI/Middlewares/Third_Party/Huawei/iot_link/network/dtls/mbedtls/mbedtls-2.16.2/library\sha256.c ****         P( A[7], A[0], A[1], A[2], A[3], A[4], A[5], A[6], R(i+1), K[i+1] );
 1024              		.loc 1 245 9 discriminator 3 view .LVU314
 1025 041e 0C44     		add	r4, r4, r1
 1026              		.loc 1 246 9 discriminator 3 view .LVU315
 1027 0420 D9F80810 		ldr	r1, [r9, #8]
 1028 0424 83EA9023 		eor	r3, r3, r0, lsr #10
 1029 0428 D9F80800 		ldr	r0, [r9, #8]
 1030 042c 4FEAB141 		ror	r1, r1, #18
 245:D:/fchai/work/i-cube/I-CUBE-HUAWEI/Middlewares/Third_Party/Huawei/iot_link/network/dtls/mbedtls/mbedtls-2.16.2/library\sha256.c ****         P( A[7], A[0], A[1], A[2], A[3], A[4], A[5], A[6], R(i+1), K[i+1] );
 1031              		.loc 1 245 9 discriminator 3 view .LVU316
 1032 0430 7444     		add	r4, r4, lr
 1033              	.LVL35:
 245:D:/fchai/work/i-cube/I-CUBE-HUAWEI/Middlewares/Third_Party/Huawei/iot_link/network/dtls/mbedtls/mbedtls-2.16.2/library\sha256.c ****         P( A[7], A[0], A[1], A[2], A[3], A[4], A[5], A[6], R(i+1), K[i+1] );
 1034              		.loc 1 245 9 is_stmt 1 discriminator 3 view .LVU317
 245:D:/fchai/work/i-cube/I-CUBE-HUAWEI/Middlewares/Third_Party/Huawei/iot_link/network/dtls/mbedtls/mbedtls-2.16.2/library\sha256.c ****         P( A[7], A[0], A[1], A[2], A[3], A[4], A[5], A[6], R(i+1), K[i+1] );
 1035              		.loc 1 245 9 discriminator 3 view .LVU318
 1036              		.loc 1 246 9 is_stmt 0 discriminator 3 view .LVU319
 1037 0432 81EAF011 		eor	r1, r1, r0, ror #7
 1038 0436 1D44     		add	r5, r5, r3
 1039 0438 81EAD000 		eor	r0, r1, r0, lsr #3
 1040 043c 87EA0203 		eor	r3, r7, r2
 245:D:/fchai/work/i-cube/I-CUBE-HUAWEI/Middlewares/Third_Party/Huawei/iot_link/network/dtls/mbedtls/mbedtls-2.16.2/library\sha256.c ****         P( A[7], A[0], A[1], A[2], A[3], A[4], A[5], A[6], R(i+1), K[i+1] );
 1041              		.loc 1 245 9 discriminator 3 view .LVU320
 1042 0440 0BEB0401 		add	r1, fp, r4
 245:D:/fchai/work/i-cube/I-CUBE-HUAWEI/Middlewares/Third_Party/Huawei/iot_link/network/dtls/mbedtls/mbedtls-2.16.2/library\sha256.c ****         P( A[7], A[0], A[1], A[2], A[3], A[4], A[5], A[6], R(i+1), K[i+1] );
 1043              		.loc 1 245 9 is_stmt 1 discriminator 3 view .LVU321
 1044              		.loc 1 246 9 is_stmt 0 discriminator 3 view .LVU322
ARM GAS  T:\msys\tmp\ccLh2YRr.s 			page 27


 1045 0444 2844     		add	r0, r0, r5
 1046 0446 0B40     		ands	r3, r3, r1
 1047 0448 0644     		add	r6, r6, r0
 1048 044a 5340     		eors	r3, r3, r2
 1049 044c 3344     		add	r3, r3, r6
 245:D:/fchai/work/i-cube/I-CUBE-HUAWEI/Middlewares/Third_Party/Huawei/iot_link/network/dtls/mbedtls/mbedtls-2.16.2/library\sha256.c ****         P( A[7], A[0], A[1], A[2], A[3], A[4], A[5], A[6], R(i+1), K[i+1] );
 1050              		.loc 1 245 9 discriminator 3 view .LVU323
 1051 044e 009E     		ldr	r6, [sp]
 1052 0450 049F     		ldr	r7, [sp, #16]
 1053 0452 C9F84070 		str	r7, [r9, #64]
 1054 0456 4FEA7635 		ror	r5, r6, #13
 1055 045a 46EA080A 		orr	r10, r6, r8
 1056 045e 85EAB605 		eor	r5, r5, r6, ror #2
 1057 0462 029E     		ldr	r6, [sp, #8]
 1058              		.loc 1 246 9 discriminator 3 view .LVU324
 1059 0464 C9F84400 		str	r0, [r9, #68]
 247:D:/fchai/work/i-cube/I-CUBE-HUAWEI/Middlewares/Third_Party/Huawei/iot_link/network/dtls/mbedtls/mbedtls-2.16.2/library\sha256.c ****         P( A[6], A[7], A[0], A[1], A[2], A[3], A[4], A[5], R(i+2), K[i+2] );
 1060              		.loc 1 247 9 discriminator 3 view .LVU325
 1061 0468 4FEAF74C 		ror	ip, r7, #19
 245:D:/fchai/work/i-cube/I-CUBE-HUAWEI/Middlewares/Third_Party/Huawei/iot_link/network/dtls/mbedtls/mbedtls-2.16.2/library\sha256.c ****         P( A[7], A[0], A[1], A[2], A[3], A[4], A[5], A[6], R(i+1), K[i+1] );
 1062              		.loc 1 245 9 discriminator 3 view .LVU326
 1063 046c 0AEA060A 		and	r10, r10, r6
 1064              		.loc 1 247 9 discriminator 3 view .LVU327
 1065 0470 8CEA774C 		eor	ip, ip, r7, ror #17
 1066 0474 D9F80860 		ldr	r6, [r9, #8]
 1067 0478 D9F82C70 		ldr	r7, [r9, #44]
 246:D:/fchai/work/i-cube/I-CUBE-HUAWEI/Middlewares/Third_Party/Huawei/iot_link/network/dtls/mbedtls/mbedtls-2.16.2/library\sha256.c ****         P( A[7], A[0], A[1], A[2], A[3], A[4], A[5], A[6], R(i+1), K[i+1] );
 1068              		.loc 1 246 9 discriminator 3 view .LVU328
 1069 047c 4FEAF12E 		ror	lr, r1, #11
 1070 0480 8EEAB11E 		eor	lr, lr, r1, ror #6
 1071              		.loc 1 247 9 discriminator 3 view .LVU329
 1072 0484 3E44     		add	r6, r6, r7
 1073 0486 D9F80C70 		ldr	r7, [r9, #12]
 246:D:/fchai/work/i-cube/I-CUBE-HUAWEI/Middlewares/Third_Party/Huawei/iot_link/network/dtls/mbedtls/mbedtls-2.16.2/library\sha256.c ****         P( A[7], A[0], A[1], A[2], A[3], A[4], A[5], A[6], R(i+1), K[i+1] );
 1074              		.loc 1 246 9 discriminator 3 view .LVU330
 1075 048a 8EEA716E 		eor	lr, lr, r1, ror #25
 1076 048e 7344     		add	r3, r3, lr
 1077              		.loc 1 247 9 discriminator 3 view .LVU331
 1078 0490 4FEAB74E 		ror	lr, r7, #18
 1079 0494 049F     		ldr	r7, [sp, #16]
 1080 0496 8CEA972C 		eor	ip, ip, r7, lsr #10
 1081 049a D9F80C70 		ldr	r7, [r9, #12]
 1082 049e 8EEAF71E 		eor	lr, lr, r7, ror #7
 246:D:/fchai/work/i-cube/I-CUBE-HUAWEI/Middlewares/Third_Party/Huawei/iot_link/network/dtls/mbedtls/mbedtls-2.16.2/library\sha256.c ****         P( A[7], A[0], A[1], A[2], A[3], A[4], A[5], A[6], R(i+1), K[i+1] );
 1083              		.loc 1 246 9 discriminator 3 view .LVU332
 1084 04a2 059F     		ldr	r7, [sp, #20]
 1085 04a4 BB46     		mov	fp, r7
 245:D:/fchai/work/i-cube/I-CUBE-HUAWEI/Middlewares/Third_Party/Huawei/iot_link/network/dtls/mbedtls/mbedtls-2.16.2/library\sha256.c ****         P( A[7], A[0], A[1], A[2], A[3], A[4], A[5], A[6], R(i+1), K[i+1] );
 1086              		.loc 1 245 9 discriminator 3 view .LVU333
 1087 04a6 009F     		ldr	r7, [sp]
 246:D:/fchai/work/i-cube/I-CUBE-HUAWEI/Middlewares/Third_Party/Huawei/iot_link/network/dtls/mbedtls/mbedtls-2.16.2/library\sha256.c ****         P( A[7], A[0], A[1], A[2], A[3], A[4], A[5], A[6], R(i+1), K[i+1] );
 1088              		.loc 1 246 9 discriminator 3 view .LVU334
 1089 04a8 9B44     		add	fp, fp, r3
 245:D:/fchai/work/i-cube/I-CUBE-HUAWEI/Middlewares/Third_Party/Huawei/iot_link/network/dtls/mbedtls/mbedtls-2.16.2/library\sha256.c ****         P( A[7], A[0], A[1], A[2], A[3], A[4], A[5], A[6], R(i+1), K[i+1] );
 1090              		.loc 1 245 9 discriminator 3 view .LVU335
 1091 04aa 85EAB755 		eor	r5, r5, r7, ror #22
 1092 04ae 07EA0803 		and	r3, r7, r8
ARM GAS  T:\msys\tmp\ccLh2YRr.s 			page 28


 1093              		.loc 1 247 9 discriminator 3 view .LVU336
 1094 04b2 D9F80C70 		ldr	r7, [r9, #12]
 1095 04b6 8EEAD70E 		eor	lr, lr, r7, lsr #3
 246:D:/fchai/work/i-cube/I-CUBE-HUAWEI/Middlewares/Third_Party/Huawei/iot_link/network/dtls/mbedtls/mbedtls-2.16.2/library\sha256.c ****         P( A[7], A[0], A[1], A[2], A[3], A[4], A[5], A[6], R(i+1), K[i+1] );
 1096              		.loc 1 246 9 discriminator 3 view .LVU337
 1097 04ba 029F     		ldr	r7, [sp, #8]
 1098 04bc 5F44     		add	r7, r7, fp
 245:D:/fchai/work/i-cube/I-CUBE-HUAWEI/Middlewares/Third_Party/Huawei/iot_link/network/dtls/mbedtls/mbedtls-2.16.2/library\sha256.c ****         P( A[7], A[0], A[1], A[2], A[3], A[4], A[5], A[6], R(i+1), K[i+1] );
 1099              		.loc 1 245 9 discriminator 3 view .LVU338
 1100 04be 4AEA0303 		orr	r3, r10, r3
 246:D:/fchai/work/i-cube/I-CUBE-HUAWEI/Middlewares/Third_Party/Huawei/iot_link/network/dtls/mbedtls/mbedtls-2.16.2/library\sha256.c ****         P( A[7], A[0], A[1], A[2], A[3], A[4], A[5], A[6], R(i+1), K[i+1] );
 1101              		.loc 1 246 9 discriminator 3 view .LVU339
 1102 04c2 BA46     		mov	r10, r7
 1103              		.loc 1 247 9 discriminator 3 view .LVU340
 1104 04c4 039F     		ldr	r7, [sp, #12]
 245:D:/fchai/work/i-cube/I-CUBE-HUAWEI/Middlewares/Third_Party/Huawei/iot_link/network/dtls/mbedtls/mbedtls-2.16.2/library\sha256.c ****         P( A[7], A[0], A[1], A[2], A[3], A[4], A[5], A[6], R(i+1), K[i+1] );
 1105              		.loc 1 245 9 discriminator 3 view .LVU341
 1106 04c6 1D44     		add	r5, r5, r3
 1107 04c8 2544     		add	r5, r5, r4
 245:D:/fchai/work/i-cube/I-CUBE-HUAWEI/Middlewares/Third_Party/Huawei/iot_link/network/dtls/mbedtls/mbedtls-2.16.2/library\sha256.c ****         P( A[7], A[0], A[1], A[2], A[3], A[4], A[5], A[6], R(i+1), K[i+1] );
 1108              		.loc 1 245 9 is_stmt 1 discriminator 3 view .LVU342
 246:D:/fchai/work/i-cube/I-CUBE-HUAWEI/Middlewares/Third_Party/Huawei/iot_link/network/dtls/mbedtls/mbedtls-2.16.2/library\sha256.c ****         P( A[7], A[0], A[1], A[2], A[3], A[4], A[5], A[6], R(i+1), K[i+1] );
 1109              		.loc 1 246 9 discriminator 3 view .LVU343
 246:D:/fchai/work/i-cube/I-CUBE-HUAWEI/Middlewares/Third_Party/Huawei/iot_link/network/dtls/mbedtls/mbedtls-2.16.2/library\sha256.c ****         P( A[7], A[0], A[1], A[2], A[3], A[4], A[5], A[6], R(i+1), K[i+1] );
 1110              		.loc 1 246 9 discriminator 3 view .LVU344
 1111              	.LVL36:
 246:D:/fchai/work/i-cube/I-CUBE-HUAWEI/Middlewares/Third_Party/Huawei/iot_link/network/dtls/mbedtls/mbedtls-2.16.2/library\sha256.c ****         P( A[7], A[0], A[1], A[2], A[3], A[4], A[5], A[6], R(i+1), K[i+1] );
 1112              		.loc 1 246 9 discriminator 3 view .LVU345
 246:D:/fchai/work/i-cube/I-CUBE-HUAWEI/Middlewares/Third_Party/Huawei/iot_link/network/dtls/mbedtls/mbedtls-2.16.2/library\sha256.c ****         P( A[7], A[0], A[1], A[2], A[3], A[4], A[5], A[6], R(i+1), K[i+1] );
 1113              		.loc 1 246 9 discriminator 3 view .LVU346
 246:D:/fchai/work/i-cube/I-CUBE-HUAWEI/Middlewares/Third_Party/Huawei/iot_link/network/dtls/mbedtls/mbedtls-2.16.2/library\sha256.c ****         P( A[7], A[0], A[1], A[2], A[3], A[4], A[5], A[6], R(i+1), K[i+1] );
 1114              		.loc 1 246 9 discriminator 3 view .LVU347
 1115              		.loc 1 247 9 is_stmt 0 discriminator 3 view .LVU348
 1116 04ca 4F40     		eors	r7, r7, r1
 1117 04cc 039C     		ldr	r4, [sp, #12]
 1118 04ce 6644     		add	r6, r6, ip
 1119 04d0 07EA0A07 		and	r7, r7, r10
 1120 04d4 7644     		add	r6, r6, lr
 1121 04d6 6740     		eors	r7, r7, r4
 246:D:/fchai/work/i-cube/I-CUBE-HUAWEI/Middlewares/Third_Party/Huawei/iot_link/network/dtls/mbedtls/mbedtls-2.16.2/library\sha256.c ****         P( A[7], A[0], A[1], A[2], A[3], A[4], A[5], A[6], R(i+1), K[i+1] );
 1122              		.loc 1 246 9 discriminator 3 view .LVU349
 1123 04d8 009C     		ldr	r4, [sp]
 1124              		.loc 1 247 9 discriminator 3 view .LVU350
 1125 04da 0196     		str	r6, [sp, #4]
 1126 04dc 3244     		add	r2, r2, r6
 1127 04de 4FEAFA2C 		ror	ip, r10, #11
 246:D:/fchai/work/i-cube/I-CUBE-HUAWEI/Middlewares/Third_Party/Huawei/iot_link/network/dtls/mbedtls/mbedtls-2.16.2/library\sha256.c ****         P( A[7], A[0], A[1], A[2], A[3], A[4], A[5], A[6], R(i+1), K[i+1] );
 1128              		.loc 1 246 9 discriminator 3 view .LVU351
 1129 04e2 2346     		mov	r3, r4
 1130              		.loc 1 247 9 discriminator 3 view .LVU352
 1131 04e4 3A44     		add	r2, r2, r7
 248:D:/fchai/work/i-cube/I-CUBE-HUAWEI/Middlewares/Third_Party/Huawei/iot_link/network/dtls/mbedtls/mbedtls-2.16.2/library\sha256.c ****         P( A[5], A[6], A[7], A[0], A[1], A[2], A[3], A[4], R(i+3), K[i+3] );
 1132              		.loc 1 248 9 discriminator 3 view .LVU353
 1133 04e6 D9F83040 		ldr	r4, [r9, #48]
 247:D:/fchai/work/i-cube/I-CUBE-HUAWEI/Middlewares/Third_Party/Huawei/iot_link/network/dtls/mbedtls/mbedtls-2.16.2/library\sha256.c ****         P( A[6], A[7], A[0], A[1], A[2], A[3], A[4], A[5], R(i+2), K[i+2] );
 1134              		.loc 1 247 9 discriminator 3 view .LVU354
 1135 04ea C9F84860 		str	r6, [r9, #72]
ARM GAS  T:\msys\tmp\ccLh2YRr.s 			page 29


 246:D:/fchai/work/i-cube/I-CUBE-HUAWEI/Middlewares/Third_Party/Huawei/iot_link/network/dtls/mbedtls/mbedtls-2.16.2/library\sha256.c ****         P( A[6], A[7], A[0], A[1], A[2], A[3], A[4], A[5], R(i+2), K[i+2] );
 1136              		.loc 1 246 9 is_stmt 1 discriminator 3 view .LVU355
 247:D:/fchai/work/i-cube/I-CUBE-HUAWEI/Middlewares/Third_Party/Huawei/iot_link/network/dtls/mbedtls/mbedtls-2.16.2/library\sha256.c ****         P( A[6], A[7], A[0], A[1], A[2], A[3], A[4], A[5], R(i+2), K[i+2] );
 1137              		.loc 1 247 9 discriminator 3 view .LVU356
 247:D:/fchai/work/i-cube/I-CUBE-HUAWEI/Middlewares/Third_Party/Huawei/iot_link/network/dtls/mbedtls/mbedtls-2.16.2/library\sha256.c ****         P( A[6], A[7], A[0], A[1], A[2], A[3], A[4], A[5], R(i+2), K[i+2] );
 1138              		.loc 1 247 9 discriminator 3 view .LVU357
 1139              		.loc 1 248 9 is_stmt 0 discriminator 3 view .LVU358
 1140 04ee 4FEAF047 		ror	r7, r0, #19
 1141 04f2 D9F80C60 		ldr	r6, [r9, #12]
 247:D:/fchai/work/i-cube/I-CUBE-HUAWEI/Middlewares/Third_Party/Huawei/iot_link/network/dtls/mbedtls/mbedtls-2.16.2/library\sha256.c ****         P( A[6], A[7], A[0], A[1], A[2], A[3], A[4], A[5], R(i+2), K[i+2] );
 1142              		.loc 1 247 9 discriminator 3 view .LVU359
 1143 04f6 8CEABA1C 		eor	ip, ip, r10, ror #6
 1144              		.loc 1 248 9 discriminator 3 view .LVU360
 1145 04fa 87EA7047 		eor	r7, r7, r0, ror #17
 247:D:/fchai/work/i-cube/I-CUBE-HUAWEI/Middlewares/Third_Party/Huawei/iot_link/network/dtls/mbedtls/mbedtls-2.16.2/library\sha256.c ****         P( A[6], A[7], A[0], A[1], A[2], A[3], A[4], A[5], R(i+2), K[i+2] );
 1146              		.loc 1 247 9 discriminator 3 view .LVU361
 1147 04fe 8CEA7A6C 		eor	ip, ip, r10, ror #25
 1148              		.loc 1 248 9 discriminator 3 view .LVU362
 1149 0502 3444     		add	r4, r4, r6
 1150 0504 87EA9027 		eor	r7, r7, r0, lsr #10
 246:D:/fchai/work/i-cube/I-CUBE-HUAWEI/Middlewares/Third_Party/Huawei/iot_link/network/dtls/mbedtls/mbedtls-2.16.2/library\sha256.c ****         P( A[6], A[7], A[0], A[1], A[2], A[3], A[4], A[5], R(i+2), K[i+2] );
 1151              		.loc 1 246 9 discriminator 3 view .LVU363
 1152 0508 009E     		ldr	r6, [sp]
 247:D:/fchai/work/i-cube/I-CUBE-HUAWEI/Middlewares/Third_Party/Huawei/iot_link/network/dtls/mbedtls/mbedtls-2.16.2/library\sha256.c ****         P( A[6], A[7], A[0], A[1], A[2], A[3], A[4], A[5], R(i+2), K[i+2] );
 1153              		.loc 1 247 9 discriminator 3 view .LVU364
 1154 050a 0798     		ldr	r0, [sp, #28]
 1155 050c 6244     		add	r2, r2, ip
 246:D:/fchai/work/i-cube/I-CUBE-HUAWEI/Middlewares/Third_Party/Huawei/iot_link/network/dtls/mbedtls/mbedtls-2.16.2/library\sha256.c ****         P( A[6], A[7], A[0], A[1], A[2], A[3], A[4], A[5], R(i+2), K[i+2] );
 1156              		.loc 1 246 9 discriminator 3 view .LVU365
 1157 050e 2B43     		orrs	r3, r3, r5
 1158 0510 06EA050C 		and	ip, r6, r5
 247:D:/fchai/work/i-cube/I-CUBE-HUAWEI/Middlewares/Third_Party/Huawei/iot_link/network/dtls/mbedtls/mbedtls-2.16.2/library\sha256.c ****         P( A[6], A[7], A[0], A[1], A[2], A[3], A[4], A[5], R(i+2), K[i+2] );
 1159              		.loc 1 247 9 discriminator 3 view .LVU366
 1160 0514 1044     		add	r0, r0, r2
 1161              		.loc 1 248 9 discriminator 3 view .LVU367
 1162 0516 D9F81060 		ldr	r6, [r9, #16]
 246:D:/fchai/work/i-cube/I-CUBE-HUAWEI/Middlewares/Third_Party/Huawei/iot_link/network/dtls/mbedtls/mbedtls-2.16.2/library\sha256.c ****         P( A[6], A[7], A[0], A[1], A[2], A[3], A[4], A[5], R(i+2), K[i+2] );
 1163              		.loc 1 246 9 discriminator 3 view .LVU368
 1164 051a 4FEA753E 		ror	lr, r5, #13
 1165 051e 03EA0803 		and	r3, r3, r8
 1166 0522 8EEAB50E 		eor	lr, lr, r5, ror #2
 1167 0526 43EA0C03 		orr	r3, r3, ip
 247:D:/fchai/work/i-cube/I-CUBE-HUAWEI/Middlewares/Third_Party/Huawei/iot_link/network/dtls/mbedtls/mbedtls-2.16.2/library\sha256.c ****         P( A[6], A[7], A[0], A[1], A[2], A[3], A[4], A[5], R(i+2), K[i+2] );
 1168              		.loc 1 247 9 discriminator 3 view .LVU369
 1169 052a 8446     		mov	ip, r0
 1170              	.LVL37:
 247:D:/fchai/work/i-cube/I-CUBE-HUAWEI/Middlewares/Third_Party/Huawei/iot_link/network/dtls/mbedtls/mbedtls-2.16.2/library\sha256.c ****         P( A[6], A[7], A[0], A[1], A[2], A[3], A[4], A[5], R(i+2), K[i+2] );
 1171              		.loc 1 247 9 is_stmt 1 discriminator 3 view .LVU370
 1172              		.loc 1 248 9 is_stmt 0 discriminator 3 view .LVU371
 1173 052c D9F81000 		ldr	r0, [r9, #16]
 1174              	.LVL38:
 246:D:/fchai/work/i-cube/I-CUBE-HUAWEI/Middlewares/Third_Party/Huawei/iot_link/network/dtls/mbedtls/mbedtls-2.16.2/library\sha256.c ****         P( A[6], A[7], A[0], A[1], A[2], A[3], A[4], A[5], R(i+2), K[i+2] );
 1175              		.loc 1 246 9 discriminator 3 view .LVU372
 1176 0530 8EEAB55E 		eor	lr, lr, r5, ror #22
 1177              		.loc 1 248 9 discriminator 3 view .LVU373
 1178 0534 4FEAB646 		ror	r6, r6, #18
 246:D:/fchai/work/i-cube/I-CUBE-HUAWEI/Middlewares/Third_Party/Huawei/iot_link/network/dtls/mbedtls/mbedtls-2.16.2/library\sha256.c ****         P( A[6], A[7], A[0], A[1], A[2], A[3], A[4], A[5], R(i+2), K[i+2] );
ARM GAS  T:\msys\tmp\ccLh2YRr.s 			page 30


 1179              		.loc 1 246 9 discriminator 3 view .LVU374
 1180 0538 7344     		add	r3, r3, lr
 1181              		.loc 1 248 9 discriminator 3 view .LVU375
 1182 053a 86EAF012 		eor	r2, r6, r0, ror #7
 247:D:/fchai/work/i-cube/I-CUBE-HUAWEI/Middlewares/Third_Party/Huawei/iot_link/network/dtls/mbedtls/mbedtls-2.16.2/library\sha256.c ****         P( A[6], A[7], A[0], A[1], A[2], A[3], A[4], A[5], R(i+2), K[i+2] );
 1183              		.loc 1 247 9 discriminator 3 view .LVU376
 1184 053e 08EB0C00 		add	r0, r8, ip
 1185 0542 0646     		mov	r6, r0
 246:D:/fchai/work/i-cube/I-CUBE-HUAWEI/Middlewares/Third_Party/Huawei/iot_link/network/dtls/mbedtls/mbedtls-2.16.2/library\sha256.c ****         P( A[6], A[7], A[0], A[1], A[2], A[3], A[4], A[5], R(i+2), K[i+2] );
 1186              		.loc 1 246 9 discriminator 3 view .LVU377
 1187 0544 03EB0B00 		add	r0, r3, fp
 1188              	.LVL39:
 247:D:/fchai/work/i-cube/I-CUBE-HUAWEI/Middlewares/Third_Party/Huawei/iot_link/network/dtls/mbedtls/mbedtls-2.16.2/library\sha256.c ****         P( A[6], A[7], A[0], A[1], A[2], A[3], A[4], A[5], R(i+2), K[i+2] );
 1189              		.loc 1 247 9 is_stmt 1 discriminator 3 view .LVU378
 247:D:/fchai/work/i-cube/I-CUBE-HUAWEI/Middlewares/Third_Party/Huawei/iot_link/network/dtls/mbedtls/mbedtls-2.16.2/library\sha256.c ****         P( A[6], A[7], A[0], A[1], A[2], A[3], A[4], A[5], R(i+2), K[i+2] );
 1190              		.loc 1 247 9 discriminator 3 view .LVU379
 1191              		.loc 1 248 9 is_stmt 0 discriminator 3 view .LVU380
 1192 0548 D9F81030 		ldr	r3, [r9, #16]
 1193 054c 2744     		add	r7, r7, r4
 1194 054e 82EAD302 		eor	r2, r2, r3, lsr #3
 1195 0552 1744     		add	r7, r7, r2
 247:D:/fchai/work/i-cube/I-CUBE-HUAWEI/Middlewares/Third_Party/Huawei/iot_link/network/dtls/mbedtls/mbedtls-2.16.2/library\sha256.c ****         P( A[6], A[7], A[0], A[1], A[2], A[3], A[4], A[5], R(i+2), K[i+2] );
 1196              		.loc 1 247 9 discriminator 3 view .LVU381
 1197 0554 009A     		ldr	r2, [sp]
 1198              		.loc 1 248 9 discriminator 3 view .LVU382
 1199 0556 039C     		ldr	r4, [sp, #12]
 1200 0558 0396     		str	r6, [sp, #12]
 247:D:/fchai/work/i-cube/I-CUBE-HUAWEI/Middlewares/Third_Party/Huawei/iot_link/network/dtls/mbedtls/mbedtls-2.16.2/library\sha256.c ****         P( A[6], A[7], A[0], A[1], A[2], A[3], A[4], A[5], R(i+2), K[i+2] );
 1201              		.loc 1 247 9 discriminator 3 view .LVU383
 1202 055a 0346     		mov	r3, r0
 1203 055c 45EA000B 		orr	fp, r5, r0
 1204              		.loc 1 248 9 discriminator 3 view .LVU384
 1205 0560 81EA0A08 		eor	r8, r1, r10
 247:D:/fchai/work/i-cube/I-CUBE-HUAWEI/Middlewares/Third_Party/Huawei/iot_link/network/dtls/mbedtls/mbedtls-2.16.2/library\sha256.c ****         P( A[6], A[7], A[0], A[1], A[2], A[3], A[4], A[5], R(i+2), K[i+2] );
 1206              		.loc 1 247 9 discriminator 3 view .LVU385
 1207 0564 0293     		str	r3, [sp, #8]
 1208 0566 0BEA0202 		and	r2, fp, r2
 1209 056a 4FEA703E 		ror	lr, r0, #13
 1210 056e 05EA030B 		and	fp, r5, r3
 1211              		.loc 1 248 9 discriminator 3 view .LVU386
 1212 0572 08EA0608 		and	r8, r8, r6
 1213 0576 4FEAF620 		ror	r0, r6, #11
 1214              	.LVL40:
 247:D:/fchai/work/i-cube/I-CUBE-HUAWEI/Middlewares/Third_Party/Huawei/iot_link/network/dtls/mbedtls/mbedtls-2.16.2/library\sha256.c ****         P( A[6], A[7], A[0], A[1], A[2], A[3], A[4], A[5], R(i+2), K[i+2] );
 1215              		.loc 1 247 9 discriminator 3 view .LVU387
 1216 057a 8EEAB30E 		eor	lr, lr, r3, ror #2
 1217              		.loc 1 248 9 discriminator 3 view .LVU388
 1218 057e 3C44     		add	r4, r4, r7
 249:D:/fchai/work/i-cube/I-CUBE-HUAWEI/Middlewares/Third_Party/Huawei/iot_link/network/dtls/mbedtls/mbedtls-2.16.2/library\sha256.c ****         P( A[4], A[5], A[6], A[7], A[0], A[1], A[2], A[3], R(i+4), K[i+4] );
 1219              		.loc 1 249 9 discriminator 3 view .LVU389
 1220 0580 D9F81430 		ldr	r3, [r9, #20]
 1221              	.LVL41:
 248:D:/fchai/work/i-cube/I-CUBE-HUAWEI/Middlewares/Third_Party/Huawei/iot_link/network/dtls/mbedtls/mbedtls-2.16.2/library\sha256.c ****         P( A[5], A[6], A[7], A[0], A[1], A[2], A[3], A[4], R(i+3), K[i+3] );
 1222              		.loc 1 248 9 discriminator 3 view .LVU390
 1223 0584 C9F84C70 		str	r7, [r9, #76]
 1224 0588 80EAB610 		eor	r0, r0, r6, ror #6
 247:D:/fchai/work/i-cube/I-CUBE-HUAWEI/Middlewares/Third_Party/Huawei/iot_link/network/dtls/mbedtls/mbedtls-2.16.2/library\sha256.c ****         P( A[5], A[6], A[7], A[0], A[1], A[2], A[3], A[4], R(i+3), K[i+3] );
ARM GAS  T:\msys\tmp\ccLh2YRr.s 			page 31


 1225              		.loc 1 247 9 discriminator 3 view .LVU391
 1226 058c 42EA0B0B 		orr	fp, r2, fp
 248:D:/fchai/work/i-cube/I-CUBE-HUAWEI/Middlewares/Third_Party/Huawei/iot_link/network/dtls/mbedtls/mbedtls-2.16.2/library\sha256.c ****         P( A[4], A[5], A[6], A[7], A[0], A[1], A[2], A[3], R(i+4), K[i+4] );
 1227              		.loc 1 248 9 discriminator 3 view .LVU392
 1228 0590 88EA0108 		eor	r8, r8, r1
 247:D:/fchai/work/i-cube/I-CUBE-HUAWEI/Middlewares/Third_Party/Huawei/iot_link/network/dtls/mbedtls/mbedtls-2.16.2/library\sha256.c ****         P( A[5], A[6], A[7], A[0], A[1], A[2], A[3], A[4], R(i+3), K[i+3] );
 1229              		.loc 1 247 9 discriminator 3 view .LVU393
 1230 0594 029A     		ldr	r2, [sp, #8]
 248:D:/fchai/work/i-cube/I-CUBE-HUAWEI/Middlewares/Third_Party/Huawei/iot_link/network/dtls/mbedtls/mbedtls-2.16.2/library\sha256.c ****         P( A[4], A[5], A[6], A[7], A[0], A[1], A[2], A[3], R(i+4), K[i+4] );
 1231              		.loc 1 248 9 discriminator 3 view .LVU394
 1232 0596 A044     		add	r8, r8, r4
 1233 0598 80EA7664 		eor	r4, r0, r6, ror #25
 1234 059c 4444     		add	r4, r4, r8
 1235              		.loc 1 249 9 discriminator 3 view .LVU395
 1236 059e 019E     		ldr	r6, [sp, #4]
 1237 05a0 D9F83400 		ldr	r0, [r9, #52]
 247:D:/fchai/work/i-cube/I-CUBE-HUAWEI/Middlewares/Third_Party/Huawei/iot_link/network/dtls/mbedtls/mbedtls-2.16.2/library\sha256.c ****         P( A[5], A[6], A[7], A[0], A[1], A[2], A[3], A[4], R(i+3), K[i+3] );
 1238              		.loc 1 247 9 discriminator 3 view .LVU396
 1239 05a4 8EEAB252 		eor	r2, lr, r2, ror #22
 1240              		.loc 1 249 9 discriminator 3 view .LVU397
 1241 05a8 4FEAB348 		ror	r8, r3, #18
 1242 05ac 9E46     		mov	lr, r3
 248:D:/fchai/work/i-cube/I-CUBE-HUAWEI/Middlewares/Third_Party/Huawei/iot_link/network/dtls/mbedtls/mbedtls-2.16.2/library\sha256.c ****         P( A[4], A[5], A[6], A[7], A[0], A[1], A[2], A[3], R(i+4), K[i+4] );
 1243              		.loc 1 248 9 discriminator 3 view .LVU398
 1244 05ae 089B     		ldr	r3, [sp, #32]
 247:D:/fchai/work/i-cube/I-CUBE-HUAWEI/Middlewares/Third_Party/Huawei/iot_link/network/dtls/mbedtls/mbedtls-2.16.2/library\sha256.c ****         P( A[5], A[6], A[7], A[0], A[1], A[2], A[3], A[4], R(i+3), K[i+3] );
 1245              		.loc 1 247 9 discriminator 3 view .LVU399
 1246 05b0 5A44     		add	r2, r2, fp
 248:D:/fchai/work/i-cube/I-CUBE-HUAWEI/Middlewares/Third_Party/Huawei/iot_link/network/dtls/mbedtls/mbedtls-2.16.2/library\sha256.c ****         P( A[4], A[5], A[6], A[7], A[0], A[1], A[2], A[3], R(i+4), K[i+4] );
 1247              		.loc 1 248 9 discriminator 3 view .LVU400
 1248 05b2 2344     		add	r3, r3, r4
 1249              		.loc 1 249 9 discriminator 3 view .LVU401
 1250 05b4 4FEAF64B 		ror	fp, r6, #19
 1251 05b8 D9F81040 		ldr	r4, [r9, #16]
 1252 05bc 8BEA764B 		eor	fp, fp, r6, ror #17
 1253 05c0 0444     		add	r4, r4, r0
 1254 05c2 8BEA9626 		eor	r6, fp, r6, lsr #10
 248:D:/fchai/work/i-cube/I-CUBE-HUAWEI/Middlewares/Third_Party/Huawei/iot_link/network/dtls/mbedtls/mbedtls-2.16.2/library\sha256.c ****         P( A[4], A[5], A[6], A[7], A[0], A[1], A[2], A[3], R(i+4), K[i+4] );
 1255              		.loc 1 248 9 discriminator 3 view .LVU402
 1256 05c6 0098     		ldr	r0, [sp]
 1257              		.loc 1 249 9 discriminator 3 view .LVU403
 1258 05c8 2644     		add	r6, r6, r4
 1259 05ca 039C     		ldr	r4, [sp, #12]
 247:D:/fchai/work/i-cube/I-CUBE-HUAWEI/Middlewares/Third_Party/Huawei/iot_link/network/dtls/mbedtls/mbedtls-2.16.2/library\sha256.c ****         P( A[5], A[6], A[7], A[0], A[1], A[2], A[3], A[4], R(i+3), K[i+3] );
 1260              		.loc 1 247 9 discriminator 3 view .LVU404
 1261 05cc 6244     		add	r2, r2, ip
 247:D:/fchai/work/i-cube/I-CUBE-HUAWEI/Middlewares/Third_Party/Huawei/iot_link/network/dtls/mbedtls/mbedtls-2.16.2/library\sha256.c ****         P( A[5], A[6], A[7], A[0], A[1], A[2], A[3], A[4], R(i+3), K[i+3] );
 1262              		.loc 1 247 9 is_stmt 1 discriminator 3 view .LVU405
 248:D:/fchai/work/i-cube/I-CUBE-HUAWEI/Middlewares/Third_Party/Huawei/iot_link/network/dtls/mbedtls/mbedtls-2.16.2/library\sha256.c ****         P( A[4], A[5], A[6], A[7], A[0], A[1], A[2], A[3], R(i+4), K[i+4] );
 1263              		.loc 1 248 9 discriminator 3 view .LVU406
 248:D:/fchai/work/i-cube/I-CUBE-HUAWEI/Middlewares/Third_Party/Huawei/iot_link/network/dtls/mbedtls/mbedtls-2.16.2/library\sha256.c ****         P( A[4], A[5], A[6], A[7], A[0], A[1], A[2], A[3], R(i+4), K[i+4] );
 1264              		.loc 1 248 9 discriminator 3 view .LVU407
 1265              	.LVL42:
 248:D:/fchai/work/i-cube/I-CUBE-HUAWEI/Middlewares/Third_Party/Huawei/iot_link/network/dtls/mbedtls/mbedtls-2.16.2/library\sha256.c ****         P( A[4], A[5], A[6], A[7], A[0], A[1], A[2], A[3], R(i+4), K[i+4] );
 1266              		.loc 1 248 9 discriminator 3 view .LVU408
 248:D:/fchai/work/i-cube/I-CUBE-HUAWEI/Middlewares/Third_Party/Huawei/iot_link/network/dtls/mbedtls/mbedtls-2.16.2/library\sha256.c ****         P( A[4], A[5], A[6], A[7], A[0], A[1], A[2], A[3], R(i+4), K[i+4] );
 1267              		.loc 1 248 9 discriminator 3 view .LVU409
ARM GAS  T:\msys\tmp\ccLh2YRr.s 			page 32


 1268              		.loc 1 249 9 is_stmt 0 discriminator 3 view .LVU410
 1269 05ce 88EAFE18 		eor	r8, r8, lr, ror #7
 248:D:/fchai/work/i-cube/I-CUBE-HUAWEI/Middlewares/Third_Party/Huawei/iot_link/network/dtls/mbedtls/mbedtls-2.16.2/library\sha256.c ****         P( A[4], A[5], A[6], A[7], A[0], A[1], A[2], A[3], R(i+4), K[i+4] );
 1270              		.loc 1 248 9 discriminator 3 view .LVU411
 1271 05d2 8446     		mov	ip, r0
 1272 05d4 0298     		ldr	r0, [sp, #8]
 1273              		.loc 1 249 9 discriminator 3 view .LVU412
 1274 05d6 88EADE08 		eor	r8, r8, lr, lsr #3
 1275 05da 8AEA040E 		eor	lr, r10, r4
 248:D:/fchai/work/i-cube/I-CUBE-HUAWEI/Middlewares/Third_Party/Huawei/iot_link/network/dtls/mbedtls/mbedtls-2.16.2/library\sha256.c ****         P( A[4], A[5], A[6], A[7], A[0], A[1], A[2], A[3], R(i+4), K[i+4] );
 1276              		.loc 1 248 9 discriminator 3 view .LVU413
 1277 05de 029C     		ldr	r4, [sp, #8]
 1278 05e0 40EA020B 		orr	fp, r0, r2
 1279 05e4 4FEA7230 		ror	r0, r2, #13
 1280 05e8 1440     		ands	r4, r4, r2
 1281 05ea 0BEA050B 		and	fp, fp, r5
 1282 05ee 80EAB200 		eor	r0, r0, r2, ror #2
 1283 05f2 9C44     		add	ip, ip, r3
 248:D:/fchai/work/i-cube/I-CUBE-HUAWEI/Middlewares/Third_Party/Huawei/iot_link/network/dtls/mbedtls/mbedtls-2.16.2/library\sha256.c ****         P( A[4], A[5], A[6], A[7], A[0], A[1], A[2], A[3], R(i+4), K[i+4] );
 1284              		.loc 1 248 9 is_stmt 1 discriminator 3 view .LVU414
 1285 05f4 80EAB250 		eor	r0, r0, r2, ror #22
 1286 05f8 4BEA040B 		orr	fp, fp, r4
 1287              		.loc 1 249 9 is_stmt 0 discriminator 3 view .LVU415
 1288 05fc 4644     		add	r6, r6, r8
 248:D:/fchai/work/i-cube/I-CUBE-HUAWEI/Middlewares/Third_Party/Huawei/iot_link/network/dtls/mbedtls/mbedtls-2.16.2/library\sha256.c ****         P( A[4], A[5], A[6], A[7], A[0], A[1], A[2], A[3], R(i+4), K[i+4] );
 1289              		.loc 1 248 9 discriminator 3 view .LVU416
 1290 05fe 00EB0B04 		add	r4, r0, fp
 1291              		.loc 1 249 9 discriminator 3 view .LVU417
 1292 0602 0EEA0C0E 		and	lr, lr, ip
 1293 0606 4FEAFC28 		ror	r8, ip, #11
 248:D:/fchai/work/i-cube/I-CUBE-HUAWEI/Middlewares/Third_Party/Huawei/iot_link/network/dtls/mbedtls/mbedtls-2.16.2/library\sha256.c ****         P( A[4], A[5], A[6], A[7], A[0], A[1], A[2], A[3], R(i+4), K[i+4] );
 1294              		.loc 1 248 9 discriminator 3 view .LVU418
 1295 060a 1C44     		add	r4, r4, r3
 248:D:/fchai/work/i-cube/I-CUBE-HUAWEI/Middlewares/Third_Party/Huawei/iot_link/network/dtls/mbedtls/mbedtls-2.16.2/library\sha256.c ****         P( A[4], A[5], A[6], A[7], A[0], A[1], A[2], A[3], R(i+4), K[i+4] );
 1296              		.loc 1 248 9 is_stmt 1 discriminator 3 view .LVU419
 1297              		.loc 1 249 9 discriminator 3 view .LVU420
 1298              		.loc 1 249 9 discriminator 3 view .LVU421
 1299 060c 3144     		add	r1, r1, r6
 250:D:/fchai/work/i-cube/I-CUBE-HUAWEI/Middlewares/Third_Party/Huawei/iot_link/network/dtls/mbedtls/mbedtls-2.16.2/library\sha256.c ****         P( A[3], A[4], A[5], A[6], A[7], A[0], A[1], A[2], R(i+5), K[i+5] );
 1300              		.loc 1 250 9 is_stmt 0 discriminator 3 view .LVU422
 1301 060e D9F81830 		ldr	r3, [r9, #24]
 1302              	.LVL43:
 249:D:/fchai/work/i-cube/I-CUBE-HUAWEI/Middlewares/Third_Party/Huawei/iot_link/network/dtls/mbedtls/mbedtls-2.16.2/library\sha256.c ****         P( A[3], A[4], A[5], A[6], A[7], A[0], A[1], A[2], R(i+5), K[i+5] );
 1303              		.loc 1 249 9 discriminator 3 view .LVU423
 1304 0612 0596     		str	r6, [sp, #20]
 1305 0614 8EEA0A0E 		eor	lr, lr, r10
 1306 0618 88EABC18 		eor	r8, r8, ip, ror #6
 1307 061c 88EA7C68 		eor	r8, r8, ip, ror #25
 1308 0620 8E44     		add	lr, lr, r1
 1309              		.loc 1 250 9 discriminator 3 view .LVU424
 1310 0622 4FEAF74B 		ror	fp, r7, #19
 1311 0626 D9F81410 		ldr	r1, [r9, #20]
 1312 062a D9F81860 		ldr	r6, [r9, #24]
 249:D:/fchai/work/i-cube/I-CUBE-HUAWEI/Middlewares/Third_Party/Huawei/iot_link/network/dtls/mbedtls/mbedtls-2.16.2/library\sha256.c ****         P( A[3], A[4], A[5], A[6], A[7], A[0], A[1], A[2], R(i+5), K[i+5] );
 1313              		.loc 1 249 9 discriminator 3 view .LVU425
 1314 062e C644     		add	lr, lr, r8
 1315              		.loc 1 250 9 discriminator 3 view .LVU426
ARM GAS  T:\msys\tmp\ccLh2YRr.s 			page 33


 1316 0630 4FEAB348 		ror	r8, r3, #18
 1317 0634 D9F83830 		ldr	r3, [r9, #56]
 1318 0638 8BEA774B 		eor	fp, fp, r7, ror #17
 1319 063c 0B44     		add	r3, r3, r1
 1320 063e 8BEA9727 		eor	r7, fp, r7, lsr #10
 249:D:/fchai/work/i-cube/I-CUBE-HUAWEI/Middlewares/Third_Party/Huawei/iot_link/network/dtls/mbedtls/mbedtls-2.16.2/library\sha256.c ****         P( A[3], A[4], A[5], A[6], A[7], A[0], A[1], A[2], R(i+5), K[i+5] );
 1321              		.loc 1 249 9 discriminator 3 view .LVU427
 1322 0642 0999     		ldr	r1, [sp, #36]
 1323              		.loc 1 250 9 discriminator 3 view .LVU428
 1324 0644 1F44     		add	r7, r7, r3
 1325 0646 D9F81830 		ldr	r3, [r9, #24]
 249:D:/fchai/work/i-cube/I-CUBE-HUAWEI/Middlewares/Third_Party/Huawei/iot_link/network/dtls/mbedtls/mbedtls-2.16.2/library\sha256.c ****         P( A[3], A[4], A[5], A[6], A[7], A[0], A[1], A[2], R(i+5), K[i+5] );
 1326              		.loc 1 249 9 discriminator 3 view .LVU429
 1327 064a 8E44     		add	lr, lr, r1
 1328              	.LVL44:
 249:D:/fchai/work/i-cube/I-CUBE-HUAWEI/Middlewares/Third_Party/Huawei/iot_link/network/dtls/mbedtls/mbedtls-2.16.2/library\sha256.c ****         P( A[3], A[4], A[5], A[6], A[7], A[0], A[1], A[2], R(i+5), K[i+5] );
 1329              		.loc 1 249 9 is_stmt 1 discriminator 3 view .LVU430
 249:D:/fchai/work/i-cube/I-CUBE-HUAWEI/Middlewares/Third_Party/Huawei/iot_link/network/dtls/mbedtls/mbedtls-2.16.2/library\sha256.c ****         P( A[3], A[4], A[5], A[6], A[7], A[0], A[1], A[2], R(i+5), K[i+5] );
 1330              		.loc 1 249 9 discriminator 3 view .LVU431
 249:D:/fchai/work/i-cube/I-CUBE-HUAWEI/Middlewares/Third_Party/Huawei/iot_link/network/dtls/mbedtls/mbedtls-2.16.2/library\sha256.c ****         P( A[3], A[4], A[5], A[6], A[7], A[0], A[1], A[2], R(i+5), K[i+5] );
 1331              		.loc 1 249 9 discriminator 3 view .LVU432
 1332              		.loc 1 250 9 is_stmt 0 discriminator 3 view .LVU433
 1333 064c 88EAF618 		eor	r8, r8, r6, ror #7
 249:D:/fchai/work/i-cube/I-CUBE-HUAWEI/Middlewares/Third_Party/Huawei/iot_link/network/dtls/mbedtls/mbedtls-2.16.2/library\sha256.c ****         P( A[3], A[4], A[5], A[6], A[7], A[0], A[1], A[2], R(i+5), K[i+5] );
 1334              		.loc 1 249 9 discriminator 3 view .LVU434
 1335 0650 029E     		ldr	r6, [sp, #8]
 1336 0652 7544     		add	r5, r5, lr
 1337              		.loc 1 250 9 discriminator 3 view .LVU435
 1338 0654 88EAD308 		eor	r8, r8, r3, lsr #3
 249:D:/fchai/work/i-cube/I-CUBE-HUAWEI/Middlewares/Third_Party/Huawei/iot_link/network/dtls/mbedtls/mbedtls-2.16.2/library\sha256.c ****         P( A[3], A[4], A[5], A[6], A[7], A[0], A[1], A[2], R(i+5), K[i+5] );
 1339              		.loc 1 249 9 discriminator 3 view .LVU436
 1340 0658 42EA0401 		orr	r1, r2, r4
 1341 065c 0195     		str	r5, [sp, #4]
 1342 065e 3140     		ands	r1, r1, r6
 1343 0660 02EA0405 		and	r5, r2, r4
 1344              		.loc 1 250 9 discriminator 3 view .LVU437
 1345 0664 07EB0806 		add	r6, r7, r8
 249:D:/fchai/work/i-cube/I-CUBE-HUAWEI/Middlewares/Third_Party/Huawei/iot_link/network/dtls/mbedtls/mbedtls-2.16.2/library\sha256.c ****         P( A[3], A[4], A[5], A[6], A[7], A[0], A[1], A[2], R(i+5), K[i+5] );
 1346              		.loc 1 249 9 discriminator 3 view .LVU438
 1347 0668 4FEA7430 		ror	r0, r4, #13
 1348              		.loc 1 250 9 discriminator 3 view .LVU439
 1349 066c 039B     		ldr	r3, [sp, #12]
 1350 066e B244     		add	r10, r10, r6
 249:D:/fchai/work/i-cube/I-CUBE-HUAWEI/Middlewares/Third_Party/Huawei/iot_link/network/dtls/mbedtls/mbedtls-2.16.2/library\sha256.c ****         P( A[3], A[4], A[5], A[6], A[7], A[0], A[1], A[2], R(i+5), K[i+5] );
 1351              		.loc 1 249 9 discriminator 3 view .LVU440
 1352 0670 2943     		orrs	r1, r1, r5
 1353 0672 80EAB400 		eor	r0, r0, r4, ror #2
 1354              		.loc 1 250 9 discriminator 3 view .LVU441
 1355 0676 019D     		ldr	r5, [sp, #4]
 1356 0678 0096     		str	r6, [sp]
 249:D:/fchai/work/i-cube/I-CUBE-HUAWEI/Middlewares/Third_Party/Huawei/iot_link/network/dtls/mbedtls/mbedtls-2.16.2/library\sha256.c ****         P( A[3], A[4], A[5], A[6], A[7], A[0], A[1], A[2], R(i+5), K[i+5] );
 1357              		.loc 1 249 9 discriminator 3 view .LVU442
 1358 067a 059E     		ldr	r6, [sp, #20]
 1359 067c C9F85060 		str	r6, [r9, #80]
 1360 0680 80EAB450 		eor	r0, r0, r4, ror #22
 1361              		.loc 1 250 9 discriminator 3 view .LVU443
 1362 0684 83EA0C0B 		eor	fp, r3, ip
ARM GAS  T:\msys\tmp\ccLh2YRr.s 			page 34


 249:D:/fchai/work/i-cube/I-CUBE-HUAWEI/Middlewares/Third_Party/Huawei/iot_link/network/dtls/mbedtls/mbedtls-2.16.2/library\sha256.c ****         P( A[3], A[4], A[5], A[6], A[7], A[0], A[1], A[2], R(i+5), K[i+5] );
 1363              		.loc 1 249 9 discriminator 3 view .LVU444
 1364 0688 0144     		add	r1, r1, r0
 1365              		.loc 1 250 9 discriminator 3 view .LVU445
 1366 068a 039B     		ldr	r3, [sp, #12]
 251:D:/fchai/work/i-cube/I-CUBE-HUAWEI/Middlewares/Third_Party/Huawei/iot_link/network/dtls/mbedtls/mbedtls-2.16.2/library\sha256.c ****         P( A[2], A[3], A[4], A[5], A[6], A[7], A[0], A[1], R(i+6), K[i+6] );
 1367              		.loc 1 251 9 discriminator 3 view .LVU446
 1368 068c 4FEAF640 		ror	r0, r6, #19
 250:D:/fchai/work/i-cube/I-CUBE-HUAWEI/Middlewares/Third_Party/Huawei/iot_link/network/dtls/mbedtls/mbedtls-2.16.2/library\sha256.c ****         P( A[3], A[4], A[5], A[6], A[7], A[0], A[1], A[2], R(i+5), K[i+5] );
 1369              		.loc 1 250 9 discriminator 3 view .LVU447
 1370 0690 0BEA0507 		and	r7, fp, r5
 1371              		.loc 1 251 9 discriminator 3 view .LVU448
 1372 0694 80EA7640 		eor	r0, r0, r6, ror #17
 1373 0698 D9F81C60 		ldr	r6, [r9, #28]
 250:D:/fchai/work/i-cube/I-CUBE-HUAWEI/Middlewares/Third_Party/Huawei/iot_link/network/dtls/mbedtls/mbedtls-2.16.2/library\sha256.c ****         P( A[3], A[4], A[5], A[6], A[7], A[0], A[1], A[2], R(i+5), K[i+5] );
 1374              		.loc 1 250 9 discriminator 3 view .LVU449
 1375 069c 5F40     		eors	r7, r7, r3
 1376 069e 5744     		add	r7, r7, r10
 1377              		.loc 1 251 9 discriminator 3 view .LVU450
 1378 06a0 4FEAB64A 		ror	r10, r6, #18
 1379 06a4 D9F83C60 		ldr	r6, [r9, #60]
 249:D:/fchai/work/i-cube/I-CUBE-HUAWEI/Middlewares/Third_Party/Huawei/iot_link/network/dtls/mbedtls/mbedtls-2.16.2/library\sha256.c ****         P( A[3], A[4], A[5], A[6], A[7], A[0], A[1], A[2], R(i+5), K[i+5] );
 1380              		.loc 1 249 9 discriminator 3 view .LVU451
 1381 06a8 01EB0E0B 		add	fp, r1, lr
 249:D:/fchai/work/i-cube/I-CUBE-HUAWEI/Middlewares/Third_Party/Huawei/iot_link/network/dtls/mbedtls/mbedtls-2.16.2/library\sha256.c ****         P( A[3], A[4], A[5], A[6], A[7], A[0], A[1], A[2], R(i+5), K[i+5] );
 1382              		.loc 1 249 9 is_stmt 1 discriminator 3 view .LVU452
 250:D:/fchai/work/i-cube/I-CUBE-HUAWEI/Middlewares/Third_Party/Huawei/iot_link/network/dtls/mbedtls/mbedtls-2.16.2/library\sha256.c ****         P( A[3], A[4], A[5], A[6], A[7], A[0], A[1], A[2], R(i+5), K[i+5] );
 1383              		.loc 1 250 9 discriminator 3 view .LVU453
 250:D:/fchai/work/i-cube/I-CUBE-HUAWEI/Middlewares/Third_Party/Huawei/iot_link/network/dtls/mbedtls/mbedtls-2.16.2/library\sha256.c ****         P( A[3], A[4], A[5], A[6], A[7], A[0], A[1], A[2], R(i+5), K[i+5] );
 1384              		.loc 1 250 9 discriminator 3 view .LVU454
 1385 06ac 4FEAF528 		ror	r8, r5, #11
 1386              		.loc 1 251 9 is_stmt 0 discriminator 3 view .LVU455
 1387 06b0 B646     		mov	lr, r6
 1388              	.LVL45:
 1389              		.loc 1 251 9 discriminator 3 view .LVU456
 1390 06b2 D9F81860 		ldr	r6, [r9, #24]
 250:D:/fchai/work/i-cube/I-CUBE-HUAWEI/Middlewares/Third_Party/Huawei/iot_link/network/dtls/mbedtls/mbedtls-2.16.2/library\sha256.c ****         P( A[3], A[4], A[5], A[6], A[7], A[0], A[1], A[2], R(i+5), K[i+5] );
 1391              		.loc 1 250 9 discriminator 3 view .LVU457
 1392 06b6 88EAB518 		eor	r8, r8, r5, ror #6
 1393 06ba 88EA7561 		eor	r1, r8, r5, ror #25
 1394              		.loc 1 251 9 discriminator 3 view .LVU458
 1395 06be B644     		add	lr, lr, r6
 250:D:/fchai/work/i-cube/I-CUBE-HUAWEI/Middlewares/Third_Party/Huawei/iot_link/network/dtls/mbedtls/mbedtls-2.16.2/library\sha256.c ****         P( A[3], A[4], A[5], A[6], A[7], A[0], A[1], A[2], R(i+5), K[i+5] );
 1396              		.loc 1 250 9 discriminator 3 view .LVU459
 1397 06c0 0A9E     		ldr	r6, [sp, #40]
 1398 06c2 3944     		add	r1, r1, r7
 1399 06c4 3144     		add	r1, r1, r6
 1400              	.LVL46:
 250:D:/fchai/work/i-cube/I-CUBE-HUAWEI/Middlewares/Third_Party/Huawei/iot_link/network/dtls/mbedtls/mbedtls-2.16.2/library\sha256.c ****         P( A[3], A[4], A[5], A[6], A[7], A[0], A[1], A[2], R(i+5), K[i+5] );
 1401              		.loc 1 250 9 is_stmt 1 discriminator 3 view .LVU460
 250:D:/fchai/work/i-cube/I-CUBE-HUAWEI/Middlewares/Third_Party/Huawei/iot_link/network/dtls/mbedtls/mbedtls-2.16.2/library\sha256.c ****         P( A[3], A[4], A[5], A[6], A[7], A[0], A[1], A[2], R(i+5), K[i+5] );
 1402              		.loc 1 250 9 discriminator 3 view .LVU461
 1403              		.loc 1 251 9 is_stmt 0 discriminator 3 view .LVU462
 1404 06c6 059E     		ldr	r6, [sp, #20]
 250:D:/fchai/work/i-cube/I-CUBE-HUAWEI/Middlewares/Third_Party/Huawei/iot_link/network/dtls/mbedtls/mbedtls-2.16.2/library\sha256.c ****         P( A[3], A[4], A[5], A[6], A[7], A[0], A[1], A[2], R(i+5), K[i+5] );
 1405              		.loc 1 250 9 discriminator 3 view .LVU463
 1406 06c8 2B46     		mov	r3, r5
ARM GAS  T:\msys\tmp\ccLh2YRr.s 			page 35


 1407              		.loc 1 251 9 discriminator 3 view .LVU464
 1408 06ca 80EA9620 		eor	r0, r0, r6, lsr #10
 250:D:/fchai/work/i-cube/I-CUBE-HUAWEI/Middlewares/Third_Party/Huawei/iot_link/network/dtls/mbedtls/mbedtls-2.16.2/library\sha256.c ****         P( A[3], A[4], A[5], A[6], A[7], A[0], A[1], A[2], R(i+5), K[i+5] );
 1409              		.loc 1 250 9 discriminator 3 view .LVU465
 1410 06ce 44EA0B07 		orr	r7, r4, fp
 1411              		.loc 1 251 9 discriminator 3 view .LVU466
 1412 06d2 D9F81C60 		ldr	r6, [r9, #28]
 250:D:/fchai/work/i-cube/I-CUBE-HUAWEI/Middlewares/Third_Party/Huawei/iot_link/network/dtls/mbedtls/mbedtls-2.16.2/library\sha256.c ****         P( A[3], A[4], A[5], A[6], A[7], A[0], A[1], A[2], R(i+5), K[i+5] );
 1413              		.loc 1 250 9 discriminator 3 view .LVU467
 1414 06d6 4FEA7B35 		ror	r5, fp, #13
 1415 06da 04EA0B08 		and	r8, r4, fp
 1416 06de 1740     		ands	r7, r7, r2
 1417 06e0 85EABB05 		eor	r5, r5, fp, ror #2
 1418              		.loc 1 251 9 discriminator 3 view .LVU468
 1419 06e4 8AEAF61A 		eor	r10, r10, r6, ror #7
 250:D:/fchai/work/i-cube/I-CUBE-HUAWEI/Middlewares/Third_Party/Huawei/iot_link/network/dtls/mbedtls/mbedtls-2.16.2/library\sha256.c ****         P( A[3], A[4], A[5], A[6], A[7], A[0], A[1], A[2], R(i+5), K[i+5] );
 1420              		.loc 1 250 9 discriminator 3 view .LVU469
 1421 06e8 47EA0807 		orr	r7, r7, r8
 1422 06ec 029E     		ldr	r6, [sp, #8]
 1423 06ee 85EABB58 		eor	r8, r5, fp, ror #22
 1424              		.loc 1 251 9 discriminator 3 view .LVU470
 1425 06f2 D9F81C50 		ldr	r5, [r9, #28]
 250:D:/fchai/work/i-cube/I-CUBE-HUAWEI/Middlewares/Third_Party/Huawei/iot_link/network/dtls/mbedtls/mbedtls-2.16.2/library\sha256.c ****         P( A[3], A[4], A[5], A[6], A[7], A[0], A[1], A[2], R(i+5), K[i+5] );
 1426              		.loc 1 250 9 discriminator 3 view .LVU471
 1427 06f6 4744     		add	r7, r7, r8
 1428 06f8 0E44     		add	r6, r6, r1
 250:D:/fchai/work/i-cube/I-CUBE-HUAWEI/Middlewares/Third_Party/Huawei/iot_link/network/dtls/mbedtls/mbedtls-2.16.2/library\sha256.c ****         P( A[3], A[4], A[5], A[6], A[7], A[0], A[1], A[2], R(i+5), K[i+5] );
 1429              		.loc 1 250 9 is_stmt 1 discriminator 3 view .LVU472
 250:D:/fchai/work/i-cube/I-CUBE-HUAWEI/Middlewares/Third_Party/Huawei/iot_link/network/dtls/mbedtls/mbedtls-2.16.2/library\sha256.c ****         P( A[3], A[4], A[5], A[6], A[7], A[0], A[1], A[2], R(i+5), K[i+5] );
 1430              		.loc 1 250 9 discriminator 3 view .LVU473
 1431              		.loc 1 251 9 discriminator 3 view .LVU474
 1432              		.loc 1 251 9 discriminator 3 view .LVU475
 250:D:/fchai/work/i-cube/I-CUBE-HUAWEI/Middlewares/Third_Party/Huawei/iot_link/network/dtls/mbedtls/mbedtls-2.16.2/library\sha256.c ****         P( A[3], A[4], A[5], A[6], A[7], A[0], A[1], A[2], R(i+5), K[i+5] );
 1433              		.loc 1 250 9 is_stmt 0 discriminator 3 view .LVU476
 1434 06fa 0F44     		add	r7, r7, r1
 1435              		.loc 1 251 9 discriminator 3 view .LVU477
 1436 06fc 7044     		add	r0, r0, lr
 1437 06fe 0399     		ldr	r1, [sp, #12]
 1438              	.LVL47:
 1439              		.loc 1 251 9 discriminator 3 view .LVU478
 1440 0700 0297     		str	r7, [sp, #8]
 1441 0702 8AEAD50A 		eor	r10, r10, r5, lsr #3
 1442 0706 8CEA0303 		eor	r3, ip, r3
 1443              		.loc 1 251 9 discriminator 3 view .LVU479
 1444 070a 8244     		add	r10, r10, r0
 1445 070c 3340     		ands	r3, r3, r6
 1446 070e 4FEAF620 		ror	r0, r6, #11
 1447 0712 01EB0A0E 		add	lr, r1, r10
 1448 0716 83EA0C03 		eor	r3, r3, ip
 1449 071a 80EAB610 		eor	r0, r0, r6, ror #6
 1450 071e 03EB0E05 		add	r5, r3, lr
 1451 0722 80EA7661 		eor	r1, r0, r6, ror #25
 1452 0726 4BEA070E 		orr	lr, fp, r7
 1453 072a 4FEA7730 		ror	r0, r7, #13
 252:D:/fchai/work/i-cube/I-CUBE-HUAWEI/Middlewares/Third_Party/Huawei/iot_link/network/dtls/mbedtls/mbedtls-2.16.2/library\sha256.c ****         P( A[1], A[2], A[3], A[4], A[5], A[6], A[7], A[0], R(i+7), K[i+7] );
 1454              		.loc 1 252 9 discriminator 3 view .LVU480
 1455 072e 009F     		ldr	r7, [sp]
ARM GAS  T:\msys\tmp\ccLh2YRr.s 			page 36


 251:D:/fchai/work/i-cube/I-CUBE-HUAWEI/Middlewares/Third_Party/Huawei/iot_link/network/dtls/mbedtls/mbedtls-2.16.2/library\sha256.c ****         P( A[2], A[3], A[4], A[5], A[6], A[7], A[0], A[1], R(i+6), K[i+6] );
 1456              		.loc 1 251 9 discriminator 3 view .LVU481
 1457 0730 4D19     		adds	r5, r1, r5
 1458 0732 0299     		ldr	r1, [sp, #8]
 1459 0734 0395     		str	r5, [sp, #12]
 1460              		.loc 1 252 9 discriminator 3 view .LVU482
 1461 0736 4FEAF743 		ror	r3, r7, #19
 251:D:/fchai/work/i-cube/I-CUBE-HUAWEI/Middlewares/Third_Party/Huawei/iot_link/network/dtls/mbedtls/mbedtls-2.16.2/library\sha256.c ****         P( A[2], A[3], A[4], A[5], A[6], A[7], A[0], A[1], R(i+6), K[i+6] );
 1462              		.loc 1 251 9 discriminator 3 view .LVU483
 1463 073a 0BEA0108 		and	r8, fp, r1
 1464 073e 80EAB100 		eor	r0, r0, r1, ror #2
 1465              		.loc 1 252 9 discriminator 3 view .LVU484
 1466 0742 83EA7743 		eor	r3, r3, r7, ror #17
 1467 0746 D9F81C10 		ldr	r1, [r9, #28]
 1468 074a 049F     		ldr	r7, [sp, #16]
 1469 074c D9F82050 		ldr	r5, [r9, #32]
 1470 0750 0F44     		add	r7, r7, r1
 1471 0752 0497     		str	r7, [sp, #16]
 251:D:/fchai/work/i-cube/I-CUBE-HUAWEI/Middlewares/Third_Party/Huawei/iot_link/network/dtls/mbedtls/mbedtls-2.16.2/library\sha256.c ****         P( A[2], A[3], A[4], A[5], A[6], A[7], A[0], A[1], R(i+6), K[i+6] );
 1472              		.loc 1 251 9 discriminator 3 view .LVU485
 1473 0754 0B99     		ldr	r1, [sp, #44]
 1474 0756 039F     		ldr	r7, [sp, #12]
 1475 0758 0F44     		add	r7, r7, r1
 1476 075a 3946     		mov	r1, r7
 1477              	.LVL48:
 251:D:/fchai/work/i-cube/I-CUBE-HUAWEI/Middlewares/Third_Party/Huawei/iot_link/network/dtls/mbedtls/mbedtls-2.16.2/library\sha256.c ****         P( A[2], A[3], A[4], A[5], A[6], A[7], A[0], A[1], R(i+6), K[i+6] );
 1478              		.loc 1 251 9 is_stmt 1 discriminator 3 view .LVU486
 251:D:/fchai/work/i-cube/I-CUBE-HUAWEI/Middlewares/Third_Party/Huawei/iot_link/network/dtls/mbedtls/mbedtls-2.16.2/library\sha256.c ****         P( A[2], A[3], A[4], A[5], A[6], A[7], A[0], A[1], R(i+6), K[i+6] );
 1479              		.loc 1 251 9 discriminator 3 view .LVU487
 1480 075c 029F     		ldr	r7, [sp, #8]
 1481 075e 0EEA040E 		and	lr, lr, r4
 1482 0762 80EAB750 		eor	r0, r0, r7, ror #22
 1483 0766 4EEA080E 		orr	lr, lr, r8
 1484              		.loc 1 252 9 is_stmt 0 discriminator 3 view .LVU488
 1485 076a 009F     		ldr	r7, [sp]
 251:D:/fchai/work/i-cube/I-CUBE-HUAWEI/Middlewares/Third_Party/Huawei/iot_link/network/dtls/mbedtls/mbedtls-2.16.2/library\sha256.c ****         P( A[2], A[3], A[4], A[5], A[6], A[7], A[0], A[1], R(i+6), K[i+6] );
 1486              		.loc 1 251 9 discriminator 3 view .LVU489
 1487 076c 00EB0E08 		add	r8, r0, lr
 1488              		.loc 1 252 9 discriminator 3 view .LVU490
 1489 0770 0498     		ldr	r0, [sp, #16]
 1490 0772 83EA9723 		eor	r3, r3, r7, lsr #10
 1491 0776 D9F82070 		ldr	r7, [r9, #32]
 1492 077a 0344     		add	r3, r3, r0
 1493 077c 4FEAB545 		ror	r5, r5, #18
 1494 0780 0198     		ldr	r0, [sp, #4]
 1495 0782 85EAF715 		eor	r5, r5, r7, ror #7
 251:D:/fchai/work/i-cube/I-CUBE-HUAWEI/Middlewares/Third_Party/Huawei/iot_link/network/dtls/mbedtls/mbedtls-2.16.2/library\sha256.c ****         P( A[2], A[3], A[4], A[5], A[6], A[7], A[0], A[1], R(i+6), K[i+6] );
 1496              		.loc 1 251 9 discriminator 3 view .LVU491
 1497 0786 0A44     		add	r2, r2, r1
 251:D:/fchai/work/i-cube/I-CUBE-HUAWEI/Middlewares/Third_Party/Huawei/iot_link/network/dtls/mbedtls/mbedtls-2.16.2/library\sha256.c ****         P( A[2], A[3], A[4], A[5], A[6], A[7], A[0], A[1], R(i+6), K[i+6] );
 1498              		.loc 1 251 9 is_stmt 1 discriminator 3 view .LVU492
 1499              		.loc 1 252 9 is_stmt 0 discriminator 3 view .LVU493
 1500 0788 85EAD705 		eor	r5, r5, r7, lsr #3
 1501 078c 80EA060E 		eor	lr, r0, r6
 1502 0790 029F     		ldr	r7, [sp, #8]
 1503 0792 2B44     		add	r3, r3, r5
 1504 0794 0EEA020E 		and	lr, lr, r2
ARM GAS  T:\msys\tmp\ccLh2YRr.s 			page 37


 251:D:/fchai/work/i-cube/I-CUBE-HUAWEI/Middlewares/Third_Party/Huawei/iot_link/network/dtls/mbedtls/mbedtls-2.16.2/library\sha256.c ****         P( A[2], A[3], A[4], A[5], A[6], A[7], A[0], A[1], R(i+6), K[i+6] );
 1505              		.loc 1 251 9 discriminator 3 view .LVU494
 1506 0798 8844     		add	r8, r8, r1
 251:D:/fchai/work/i-cube/I-CUBE-HUAWEI/Middlewares/Third_Party/Huawei/iot_link/network/dtls/mbedtls/mbedtls-2.16.2/library\sha256.c ****         P( A[2], A[3], A[4], A[5], A[6], A[7], A[0], A[1], R(i+6), K[i+6] );
 1507              		.loc 1 251 9 is_stmt 1 discriminator 3 view .LVU495
 1508              		.loc 1 252 9 discriminator 3 view .LVU496
 1509              		.loc 1 252 9 discriminator 3 view .LVU497
 1510 079a 8EEA000E 		eor	lr, lr, r0
 1511 079e 9C44     		add	ip, ip, r3
 1512 07a0 47EA0805 		orr	r5, r7, r8
 1513 07a4 F444     		add	ip, ip, lr
 1514 07a6 4FEAF221 		ror	r1, r2, #11
 1515              	.LVL49:
 1516              		.loc 1 252 9 is_stmt 0 discriminator 3 view .LVU498
 1517 07aa 07EA080E 		and	lr, r7, r8
 250:D:/fchai/work/i-cube/I-CUBE-HUAWEI/Middlewares/Third_Party/Huawei/iot_link/network/dtls/mbedtls/mbedtls-2.16.2/library\sha256.c ****         P( A[2], A[3], A[4], A[5], A[6], A[7], A[0], A[1], R(i+6), K[i+6] );
 1518              		.loc 1 250 9 discriminator 3 view .LVU499
 1519 07ae 009F     		ldr	r7, [sp]
 1520              		.loc 1 252 9 discriminator 3 view .LVU500
 1521 07b0 C9F85C30 		str	r3, [r9, #92]
 1522 07b4 81EAB211 		eor	r1, r1, r2, ror #6
 251:D:/fchai/work/i-cube/I-CUBE-HUAWEI/Middlewares/Third_Party/Huawei/iot_link/network/dtls/mbedtls/mbedtls-2.16.2/library\sha256.c ****         P( A[2], A[3], A[4], A[5], A[6], A[7], A[0], A[1], R(i+6), K[i+6] );
 1523              		.loc 1 251 9 discriminator 3 view .LVU501
 1524 07b8 C9E9157A 		strd	r7, r10, [r9, #84]
 1525              		.loc 1 252 9 discriminator 3 view .LVU502
 1526 07bc 81EA7261 		eor	r1, r1, r2, ror #25
 1527 07c0 0C9B     		ldr	r3, [sp, #48]
 1528 07c2 4FEA7830 		ror	r0, r8, #13
 1529 07c6 8C44     		add	ip, ip, r1
 1530 07c8 05EA0B05 		and	r5, r5, fp
 1531 07cc 80EAB800 		eor	r0, r0, r8, ror #2
 1532 07d0 9C44     		add	ip, ip, r3
 1533              	.LVL50:
 1534              		.loc 1 252 9 is_stmt 1 discriminator 3 view .LVU503
 1535              		.loc 1 252 9 discriminator 3 view .LVU504
 1536 07d2 45EA0E05 		orr	r5, r5, lr
 1537 07d6 80EAB850 		eor	r0, r0, r8, ror #22
 1538 07da 04EB0C01 		add	r1, r4, ip
 1539 07de 0544     		add	r5, r5, r0
 1540 07e0 0391     		str	r1, [sp, #12]
 1541              		.loc 1 252 9 discriminator 3 view .LVU505
 1542 07e2 05EB0C01 		add	r1, r5, ip
 1543 07e6 069B     		ldr	r3, [sp, #24]
 1544 07e8 0091     		str	r1, [sp]
 1545              		.loc 1 252 9 discriminator 3 view .LVU506
 243:D:/fchai/work/i-cube/I-CUBE-HUAWEI/Middlewares/Third_Party/Huawei/iot_link/network/dtls/mbedtls/mbedtls-2.16.2/library\sha256.c ****     {
 1546              		.loc 1 243 26 discriminator 3 view .LVU507
 243:D:/fchai/work/i-cube/I-CUBE-HUAWEI/Middlewares/Third_Party/Huawei/iot_link/network/dtls/mbedtls/mbedtls-2.16.2/library\sha256.c ****     {
 1547              		.loc 1 243 18 discriminator 3 view .LVU508
 243:D:/fchai/work/i-cube/I-CUBE-HUAWEI/Middlewares/Third_Party/Huawei/iot_link/network/dtls/mbedtls/mbedtls-2.16.2/library\sha256.c ****     {
 1548              		.loc 1 243 5 is_stmt 0 discriminator 3 view .LVU509
 1549 07ea 0D99     		ldr	r1, [sp, #52]
 1550 07ec 09F12009 		add	r9, r9, #32
 1551 07f0 2033     		adds	r3, r3, #32
 1552 07f2 4945     		cmp	r1, r9
 1553 07f4 0693     		str	r3, [sp, #24]
 1554 07f6 7FF4CDAD 		bne	.L31
ARM GAS  T:\msys\tmp\ccLh2YRr.s 			page 38


 1555 07fa DDE90137 		ldrd	r3, r7, [sp, #4]
 1556 07fe 1793     		str	r3, [sp, #92]
 1557 0800 039B     		ldr	r3, [sp, #12]
 1558 0802 1493     		str	r3, [sp, #80]
 1559 0804 1592     		str	r2, [sp, #84]
 1560 0806 CDE9127B 		strd	r7, fp, [sp, #72]
 1561 080a DDE90E02 		ldrd	r0, r2, [sp, #56]
 1562 080e 009C     		ldr	r4, [sp]
 1563 0810 1696     		str	r6, [sp, #88]
 1564 0812 CDF84480 		str	r8, [sp, #68]
 1565 0816 11AB     		add	r3, sp, #68
 1566 0818 01E0     		b	.L27
 1567              	.L32:
 1568 081a 53F8044B 		ldr	r4, [r3], #4
 1569              	.L27:
 253:D:/fchai/work/i-cube/I-CUBE-HUAWEI/Middlewares/Third_Party/Huawei/iot_link/network/dtls/mbedtls/mbedtls-2.16.2/library\sha256.c ****     }
 254:D:/fchai/work/i-cube/I-CUBE-HUAWEI/Middlewares/Third_Party/Huawei/iot_link/network/dtls/mbedtls/mbedtls-2.16.2/library\sha256.c **** #endif /* MBEDTLS_SHA256_SMALLER */
 255:D:/fchai/work/i-cube/I-CUBE-HUAWEI/Middlewares/Third_Party/Huawei/iot_link/network/dtls/mbedtls/mbedtls-2.16.2/library\sha256.c **** 
 256:D:/fchai/work/i-cube/I-CUBE-HUAWEI/Middlewares/Third_Party/Huawei/iot_link/network/dtls/mbedtls/mbedtls-2.16.2/library\sha256.c ****     for( i = 0; i < 8; i++ )
 257:D:/fchai/work/i-cube/I-CUBE-HUAWEI/Middlewares/Third_Party/Huawei/iot_link/network/dtls/mbedtls/mbedtls-2.16.2/library\sha256.c ****         ctx->state[i] += A[i];
 1570              		.loc 1 257 9 is_stmt 1 discriminator 3 view .LVU510
 1571              		.loc 1 257 23 is_stmt 0 discriminator 3 view .LVU511
 1572 081e 1168     		ldr	r1, [r2]
 1573 0820 2144     		add	r1, r1, r4
 1574 0822 42F8041B 		str	r1, [r2], #4
 256:D:/fchai/work/i-cube/I-CUBE-HUAWEI/Middlewares/Third_Party/Huawei/iot_link/network/dtls/mbedtls/mbedtls-2.16.2/library\sha256.c ****         ctx->state[i] += A[i];
 1575              		.loc 1 256 24 is_stmt 1 discriminator 3 view .LVU512
 256:D:/fchai/work/i-cube/I-CUBE-HUAWEI/Middlewares/Third_Party/Huawei/iot_link/network/dtls/mbedtls/mbedtls-2.16.2/library\sha256.c ****         ctx->state[i] += A[i];
 1576              		.loc 1 256 17 discriminator 3 view .LVU513
 256:D:/fchai/work/i-cube/I-CUBE-HUAWEI/Middlewares/Third_Party/Huawei/iot_link/network/dtls/mbedtls/mbedtls-2.16.2/library\sha256.c ****         ctx->state[i] += A[i];
 1577              		.loc 1 256 5 is_stmt 0 discriminator 3 view .LVU514
 1578 0826 9042     		cmp	r0, r2
 1579 0828 F7D1     		bne	.L32
 258:D:/fchai/work/i-cube/I-CUBE-HUAWEI/Middlewares/Third_Party/Huawei/iot_link/network/dtls/mbedtls/mbedtls-2.16.2/library\sha256.c **** 
 259:D:/fchai/work/i-cube/I-CUBE-HUAWEI/Middlewares/Third_Party/Huawei/iot_link/network/dtls/mbedtls/mbedtls-2.16.2/library\sha256.c ****     return( 0 );
 1580              		.loc 1 259 5 is_stmt 1 view .LVU515
 260:D:/fchai/work/i-cube/I-CUBE-HUAWEI/Middlewares/Third_Party/Huawei/iot_link/network/dtls/mbedtls/mbedtls-2.16.2/library\sha256.c **** }
 1581              		.loc 1 260 1 is_stmt 0 view .LVU516
 1582 082a 0020     		movs	r0, #0
 1583 082c 59B0     		add	sp, sp, #356
 1584              	.LCFI11:
 1585              		.cfi_def_cfa_offset 36
 1586              		@ sp needed
 1587 082e BDE8F08F 		pop	{r4, r5, r6, r7, r8, r9, r10, fp, pc}
 1588              		.loc 1 260 1 view .LVU517
 1589              		.cfi_endproc
 1590              	.LFE5:
 1592 0832 00BF     		.section	.text.mbedtls_sha256_update_ret.part.0,"ax",%progbits
 1593              		.align	1
 1594              		.p2align 2,,3
 1595              		.syntax unified
 1596              		.thumb
 1597              		.thumb_func
 1598              		.fpu fpv4-sp-d16
 1600              	mbedtls_sha256_update_ret.part.0:
 1601              	.LVL51:
 1602              	.LFB13:
ARM GAS  T:\msys\tmp\ccLh2YRr.s 			page 39


 261:D:/fchai/work/i-cube/I-CUBE-HUAWEI/Middlewares/Third_Party/Huawei/iot_link/network/dtls/mbedtls/mbedtls-2.16.2/library\sha256.c **** 
 262:D:/fchai/work/i-cube/I-CUBE-HUAWEI/Middlewares/Third_Party/Huawei/iot_link/network/dtls/mbedtls/mbedtls-2.16.2/library\sha256.c **** #if !defined(MBEDTLS_DEPRECATED_REMOVED)
 263:D:/fchai/work/i-cube/I-CUBE-HUAWEI/Middlewares/Third_Party/Huawei/iot_link/network/dtls/mbedtls/mbedtls-2.16.2/library\sha256.c **** void mbedtls_sha256_process( mbedtls_sha256_context *ctx,
 264:D:/fchai/work/i-cube/I-CUBE-HUAWEI/Middlewares/Third_Party/Huawei/iot_link/network/dtls/mbedtls/mbedtls-2.16.2/library\sha256.c ****                              const unsigned char data[64] )
 265:D:/fchai/work/i-cube/I-CUBE-HUAWEI/Middlewares/Third_Party/Huawei/iot_link/network/dtls/mbedtls/mbedtls-2.16.2/library\sha256.c **** {
 266:D:/fchai/work/i-cube/I-CUBE-HUAWEI/Middlewares/Third_Party/Huawei/iot_link/network/dtls/mbedtls/mbedtls-2.16.2/library\sha256.c ****     mbedtls_internal_sha256_process( ctx, data );
 267:D:/fchai/work/i-cube/I-CUBE-HUAWEI/Middlewares/Third_Party/Huawei/iot_link/network/dtls/mbedtls/mbedtls-2.16.2/library\sha256.c **** }
 268:D:/fchai/work/i-cube/I-CUBE-HUAWEI/Middlewares/Third_Party/Huawei/iot_link/network/dtls/mbedtls/mbedtls-2.16.2/library\sha256.c **** #endif
 269:D:/fchai/work/i-cube/I-CUBE-HUAWEI/Middlewares/Third_Party/Huawei/iot_link/network/dtls/mbedtls/mbedtls-2.16.2/library\sha256.c **** #endif /* !MBEDTLS_SHA256_PROCESS_ALT */
 270:D:/fchai/work/i-cube/I-CUBE-HUAWEI/Middlewares/Third_Party/Huawei/iot_link/network/dtls/mbedtls/mbedtls-2.16.2/library\sha256.c **** 
 271:D:/fchai/work/i-cube/I-CUBE-HUAWEI/Middlewares/Third_Party/Huawei/iot_link/network/dtls/mbedtls/mbedtls-2.16.2/library\sha256.c **** /*
 272:D:/fchai/work/i-cube/I-CUBE-HUAWEI/Middlewares/Third_Party/Huawei/iot_link/network/dtls/mbedtls/mbedtls-2.16.2/library\sha256.c ****  * SHA-256 process buffer
 273:D:/fchai/work/i-cube/I-CUBE-HUAWEI/Middlewares/Third_Party/Huawei/iot_link/network/dtls/mbedtls/mbedtls-2.16.2/library\sha256.c ****  */
 274:D:/fchai/work/i-cube/I-CUBE-HUAWEI/Middlewares/Third_Party/Huawei/iot_link/network/dtls/mbedtls/mbedtls-2.16.2/library\sha256.c **** int mbedtls_sha256_update_ret( mbedtls_sha256_context *ctx,
 1603              		.loc 1 274 5 is_stmt 1 view -0
 1604              		.cfi_startproc
 1605              		@ args = 0, pretend = 0, frame = 0
 1606              		@ frame_needed = 0, uses_anonymous_args = 0
 275:D:/fchai/work/i-cube/I-CUBE-HUAWEI/Middlewares/Third_Party/Huawei/iot_link/network/dtls/mbedtls/mbedtls-2.16.2/library\sha256.c ****                                const unsigned char *input,
 276:D:/fchai/work/i-cube/I-CUBE-HUAWEI/Middlewares/Third_Party/Huawei/iot_link/network/dtls/mbedtls/mbedtls-2.16.2/library\sha256.c ****                                size_t ilen )
 277:D:/fchai/work/i-cube/I-CUBE-HUAWEI/Middlewares/Third_Party/Huawei/iot_link/network/dtls/mbedtls/mbedtls-2.16.2/library\sha256.c **** {
 278:D:/fchai/work/i-cube/I-CUBE-HUAWEI/Middlewares/Third_Party/Huawei/iot_link/network/dtls/mbedtls/mbedtls-2.16.2/library\sha256.c ****     int ret;
 279:D:/fchai/work/i-cube/I-CUBE-HUAWEI/Middlewares/Third_Party/Huawei/iot_link/network/dtls/mbedtls/mbedtls-2.16.2/library\sha256.c ****     size_t fill;
 280:D:/fchai/work/i-cube/I-CUBE-HUAWEI/Middlewares/Third_Party/Huawei/iot_link/network/dtls/mbedtls/mbedtls-2.16.2/library\sha256.c ****     uint32_t left;
 281:D:/fchai/work/i-cube/I-CUBE-HUAWEI/Middlewares/Third_Party/Huawei/iot_link/network/dtls/mbedtls/mbedtls-2.16.2/library\sha256.c **** 
 282:D:/fchai/work/i-cube/I-CUBE-HUAWEI/Middlewares/Third_Party/Huawei/iot_link/network/dtls/mbedtls/mbedtls-2.16.2/library\sha256.c ****     SHA256_VALIDATE_RET( ctx != NULL );
 283:D:/fchai/work/i-cube/I-CUBE-HUAWEI/Middlewares/Third_Party/Huawei/iot_link/network/dtls/mbedtls/mbedtls-2.16.2/library\sha256.c ****     SHA256_VALIDATE_RET( ilen == 0 || input != NULL );
 284:D:/fchai/work/i-cube/I-CUBE-HUAWEI/Middlewares/Third_Party/Huawei/iot_link/network/dtls/mbedtls/mbedtls-2.16.2/library\sha256.c **** 
 285:D:/fchai/work/i-cube/I-CUBE-HUAWEI/Middlewares/Third_Party/Huawei/iot_link/network/dtls/mbedtls/mbedtls-2.16.2/library\sha256.c ****     if( ilen == 0 )
 286:D:/fchai/work/i-cube/I-CUBE-HUAWEI/Middlewares/Third_Party/Huawei/iot_link/network/dtls/mbedtls/mbedtls-2.16.2/library\sha256.c ****         return( 0 );
 287:D:/fchai/work/i-cube/I-CUBE-HUAWEI/Middlewares/Third_Party/Huawei/iot_link/network/dtls/mbedtls/mbedtls-2.16.2/library\sha256.c **** 
 288:D:/fchai/work/i-cube/I-CUBE-HUAWEI/Middlewares/Third_Party/Huawei/iot_link/network/dtls/mbedtls/mbedtls-2.16.2/library\sha256.c ****     left = ctx->total[0] & 0x3F;
 1607              		.loc 1 288 5 view .LVU519
 274:D:/fchai/work/i-cube/I-CUBE-HUAWEI/Middlewares/Third_Party/Huawei/iot_link/network/dtls/mbedtls/mbedtls-2.16.2/library\sha256.c ****                                const unsigned char *input,
 1608              		.loc 1 274 5 is_stmt 0 view .LVU520
 1609 0000 2DE9F843 		push	{r3, r4, r5, r6, r7, r8, r9, lr}
 1610              	.LCFI12:
 1611              		.cfi_def_cfa_offset 32
 1612              		.cfi_offset 3, -32
 1613              		.cfi_offset 4, -28
 1614              		.cfi_offset 5, -24
 1615              		.cfi_offset 6, -20
 1616              		.cfi_offset 7, -16
 1617              		.cfi_offset 8, -12
 1618              		.cfi_offset 9, -8
 1619              		.cfi_offset 14, -4
 1620              		.loc 1 288 22 view .LVU521
 1621 0004 0468     		ldr	r4, [r0]
 274:D:/fchai/work/i-cube/I-CUBE-HUAWEI/Middlewares/Third_Party/Huawei/iot_link/network/dtls/mbedtls/mbedtls-2.16.2/library\sha256.c ****                                const unsigned char *input,
 1622              		.loc 1 274 5 view .LVU522
 1623 0006 1546     		mov	r5, r2
 1624 0008 A218     		adds	r2, r4, r2
 1625              	.LVL52:
 274:D:/fchai/work/i-cube/I-CUBE-HUAWEI/Middlewares/Third_Party/Huawei/iot_link/network/dtls/mbedtls/mbedtls-2.16.2/library\sha256.c ****                                const unsigned char *input,
 1626              		.loc 1 274 5 view .LVU523
 1627 000a 0646     		mov	r6, r0
 1628 000c 0F46     		mov	r7, r1
ARM GAS  T:\msys\tmp\ccLh2YRr.s 			page 40


 289:D:/fchai/work/i-cube/I-CUBE-HUAWEI/Middlewares/Third_Party/Huawei/iot_link/network/dtls/mbedtls/mbedtls-2.16.2/library\sha256.c ****     fill = 64 - left;
 290:D:/fchai/work/i-cube/I-CUBE-HUAWEI/Middlewares/Third_Party/Huawei/iot_link/network/dtls/mbedtls/mbedtls-2.16.2/library\sha256.c **** 
 291:D:/fchai/work/i-cube/I-CUBE-HUAWEI/Middlewares/Third_Party/Huawei/iot_link/network/dtls/mbedtls/mbedtls-2.16.2/library\sha256.c ****     ctx->total[0] += (uint32_t) ilen;
 1629              		.loc 1 291 19 view .LVU524
 1630 000e 0260     		str	r2, [r0]
 288:D:/fchai/work/i-cube/I-CUBE-HUAWEI/Middlewares/Third_Party/Huawei/iot_link/network/dtls/mbedtls/mbedtls-2.16.2/library\sha256.c ****     fill = 64 - left;
 1631              		.loc 1 288 10 view .LVU525
 1632 0010 04F03F04 		and	r4, r4, #63
 1633              	.LVL53:
 289:D:/fchai/work/i-cube/I-CUBE-HUAWEI/Middlewares/Third_Party/Huawei/iot_link/network/dtls/mbedtls/mbedtls-2.16.2/library\sha256.c ****     fill = 64 - left;
 1634              		.loc 1 289 5 is_stmt 1 view .LVU526
 1635              		.loc 1 291 5 view .LVU527
 292:D:/fchai/work/i-cube/I-CUBE-HUAWEI/Middlewares/Third_Party/Huawei/iot_link/network/dtls/mbedtls/mbedtls-2.16.2/library\sha256.c ****     ctx->total[0] &= 0xFFFFFFFF;
 1636              		.loc 1 292 5 view .LVU528
 293:D:/fchai/work/i-cube/I-CUBE-HUAWEI/Middlewares/Third_Party/Huawei/iot_link/network/dtls/mbedtls/mbedtls-2.16.2/library\sha256.c **** 
 294:D:/fchai/work/i-cube/I-CUBE-HUAWEI/Middlewares/Third_Party/Huawei/iot_link/network/dtls/mbedtls/mbedtls-2.16.2/library\sha256.c ****     if( ctx->total[0] < (uint32_t) ilen )
 1637              		.loc 1 294 5 view .LVU529
 1638              		.loc 1 294 7 is_stmt 0 view .LVU530
 1639 0014 02D3     		bcc	.L38
 295:D:/fchai/work/i-cube/I-CUBE-HUAWEI/Middlewares/Third_Party/Huawei/iot_link/network/dtls/mbedtls/mbedtls-2.16.2/library\sha256.c ****         ctx->total[1]++;
 1640              		.loc 1 295 9 is_stmt 1 view .LVU531
 1641              		.loc 1 295 22 is_stmt 0 view .LVU532
 1642 0016 4368     		ldr	r3, [r0, #4]
 1643 0018 0133     		adds	r3, r3, #1
 1644 001a 4360     		str	r3, [r0, #4]
 1645              	.L38:
 296:D:/fchai/work/i-cube/I-CUBE-HUAWEI/Middlewares/Third_Party/Huawei/iot_link/network/dtls/mbedtls/mbedtls-2.16.2/library\sha256.c **** 
 297:D:/fchai/work/i-cube/I-CUBE-HUAWEI/Middlewares/Third_Party/Huawei/iot_link/network/dtls/mbedtls/mbedtls-2.16.2/library\sha256.c ****     if( left && ilen >= fill )
 1646              		.loc 1 297 5 is_stmt 1 view .LVU533
 1647              		.loc 1 297 7 is_stmt 0 view .LVU534
 1648 001c D4B1     		cbz	r4, .L39
 289:D:/fchai/work/i-cube/I-CUBE-HUAWEI/Middlewares/Third_Party/Huawei/iot_link/network/dtls/mbedtls/mbedtls-2.16.2/library\sha256.c **** 
 1649              		.loc 1 289 10 view .LVU535
 1650 001e C4F14008 		rsb	r8, r4, #64
 1651              		.loc 1 297 14 view .LVU536
 1652 0022 A845     		cmp	r8, r5
 1653 0024 04D9     		bls	.L54
 298:D:/fchai/work/i-cube/I-CUBE-HUAWEI/Middlewares/Third_Party/Huawei/iot_link/network/dtls/mbedtls/mbedtls-2.16.2/library\sha256.c ****     {
 299:D:/fchai/work/i-cube/I-CUBE-HUAWEI/Middlewares/Third_Party/Huawei/iot_link/network/dtls/mbedtls/mbedtls-2.16.2/library\sha256.c ****         memcpy( (void *) (ctx->buffer + left), input, fill );
 300:D:/fchai/work/i-cube/I-CUBE-HUAWEI/Middlewares/Third_Party/Huawei/iot_link/network/dtls/mbedtls/mbedtls-2.16.2/library\sha256.c **** 
 301:D:/fchai/work/i-cube/I-CUBE-HUAWEI/Middlewares/Third_Party/Huawei/iot_link/network/dtls/mbedtls/mbedtls-2.16.2/library\sha256.c ****         if( ( ret = mbedtls_internal_sha256_process( ctx, ctx->buffer ) ) != 0 )
 302:D:/fchai/work/i-cube/I-CUBE-HUAWEI/Middlewares/Third_Party/Huawei/iot_link/network/dtls/mbedtls/mbedtls-2.16.2/library\sha256.c ****             return( ret );
 303:D:/fchai/work/i-cube/I-CUBE-HUAWEI/Middlewares/Third_Party/Huawei/iot_link/network/dtls/mbedtls/mbedtls-2.16.2/library\sha256.c **** 
 304:D:/fchai/work/i-cube/I-CUBE-HUAWEI/Middlewares/Third_Party/Huawei/iot_link/network/dtls/mbedtls/mbedtls-2.16.2/library\sha256.c ****         input += fill;
 305:D:/fchai/work/i-cube/I-CUBE-HUAWEI/Middlewares/Third_Party/Huawei/iot_link/network/dtls/mbedtls/mbedtls-2.16.2/library\sha256.c ****         ilen  -= fill;
 306:D:/fchai/work/i-cube/I-CUBE-HUAWEI/Middlewares/Third_Party/Huawei/iot_link/network/dtls/mbedtls/mbedtls-2.16.2/library\sha256.c ****         left = 0;
 307:D:/fchai/work/i-cube/I-CUBE-HUAWEI/Middlewares/Third_Party/Huawei/iot_link/network/dtls/mbedtls/mbedtls-2.16.2/library\sha256.c ****     }
 308:D:/fchai/work/i-cube/I-CUBE-HUAWEI/Middlewares/Third_Party/Huawei/iot_link/network/dtls/mbedtls/mbedtls-2.16.2/library\sha256.c **** 
 309:D:/fchai/work/i-cube/I-CUBE-HUAWEI/Middlewares/Third_Party/Huawei/iot_link/network/dtls/mbedtls/mbedtls-2.16.2/library\sha256.c ****     while( ilen >= 64 )
 1654              		.loc 1 309 10 view .LVU537
 1655 0026 2A46     		mov	r2, r5
 1656              	.LVL54:
 1657              	.L43:
 310:D:/fchai/work/i-cube/I-CUBE-HUAWEI/Middlewares/Third_Party/Huawei/iot_link/network/dtls/mbedtls/mbedtls-2.16.2/library\sha256.c ****     {
 311:D:/fchai/work/i-cube/I-CUBE-HUAWEI/Middlewares/Third_Party/Huawei/iot_link/network/dtls/mbedtls/mbedtls-2.16.2/library\sha256.c ****         if( ( ret = mbedtls_internal_sha256_process( ctx, input ) ) != 0 )
 312:D:/fchai/work/i-cube/I-CUBE-HUAWEI/Middlewares/Third_Party/Huawei/iot_link/network/dtls/mbedtls/mbedtls-2.16.2/library\sha256.c ****             return( ret );
 313:D:/fchai/work/i-cube/I-CUBE-HUAWEI/Middlewares/Third_Party/Huawei/iot_link/network/dtls/mbedtls/mbedtls-2.16.2/library\sha256.c **** 
ARM GAS  T:\msys\tmp\ccLh2YRr.s 			page 41


 314:D:/fchai/work/i-cube/I-CUBE-HUAWEI/Middlewares/Third_Party/Huawei/iot_link/network/dtls/mbedtls/mbedtls-2.16.2/library\sha256.c ****         input += 64;
 315:D:/fchai/work/i-cube/I-CUBE-HUAWEI/Middlewares/Third_Party/Huawei/iot_link/network/dtls/mbedtls/mbedtls-2.16.2/library\sha256.c ****         ilen  -= 64;
 316:D:/fchai/work/i-cube/I-CUBE-HUAWEI/Middlewares/Third_Party/Huawei/iot_link/network/dtls/mbedtls/mbedtls-2.16.2/library\sha256.c ****     }
 317:D:/fchai/work/i-cube/I-CUBE-HUAWEI/Middlewares/Third_Party/Huawei/iot_link/network/dtls/mbedtls/mbedtls-2.16.2/library\sha256.c **** 
 318:D:/fchai/work/i-cube/I-CUBE-HUAWEI/Middlewares/Third_Party/Huawei/iot_link/network/dtls/mbedtls/mbedtls-2.16.2/library\sha256.c ****     if( ilen > 0 )
 1658              		.loc 1 318 5 is_stmt 1 view .LVU538
 1659              		.loc 1 318 7 is_stmt 0 view .LVU539
 1660 0028 6ABB     		cbnz	r2, .L55
 1661              	.LVL55:
 1662              	.L45:
 319:D:/fchai/work/i-cube/I-CUBE-HUAWEI/Middlewares/Third_Party/Huawei/iot_link/network/dtls/mbedtls/mbedtls-2.16.2/library\sha256.c ****         memcpy( (void *) (ctx->buffer + left), input, ilen );
 320:D:/fchai/work/i-cube/I-CUBE-HUAWEI/Middlewares/Third_Party/Huawei/iot_link/network/dtls/mbedtls/mbedtls-2.16.2/library\sha256.c **** 
 321:D:/fchai/work/i-cube/I-CUBE-HUAWEI/Middlewares/Third_Party/Huawei/iot_link/network/dtls/mbedtls/mbedtls-2.16.2/library\sha256.c ****     return( 0 );
 1663              		.loc 1 321 11 view .LVU540
 1664 002a 1046     		mov	r0, r2
 1665              	.LVL56:
 1666              	.L35:
 322:D:/fchai/work/i-cube/I-CUBE-HUAWEI/Middlewares/Third_Party/Huawei/iot_link/network/dtls/mbedtls/mbedtls-2.16.2/library\sha256.c **** }
 1667              		.loc 1 322 1 view .LVU541
 1668 002c BDE8F883 		pop	{r3, r4, r5, r6, r7, r8, r9, pc}
 1669              	.LVL57:
 1670              	.L54:
 299:D:/fchai/work/i-cube/I-CUBE-HUAWEI/Middlewares/Third_Party/Huawei/iot_link/network/dtls/mbedtls/mbedtls-2.16.2/library\sha256.c **** 
 1671              		.loc 1 299 9 is_stmt 1 view .LVU542
 299:D:/fchai/work/i-cube/I-CUBE-HUAWEI/Middlewares/Third_Party/Huawei/iot_link/network/dtls/mbedtls/mbedtls-2.16.2/library\sha256.c **** 
 1672              		.loc 1 299 27 is_stmt 0 view .LVU543
 1673 0030 06F12809 		add	r9, r6, #40
 299:D:/fchai/work/i-cube/I-CUBE-HUAWEI/Middlewares/Third_Party/Huawei/iot_link/network/dtls/mbedtls/mbedtls-2.16.2/library\sha256.c **** 
 1674              		.loc 1 299 9 view .LVU544
 1675 0034 3946     		mov	r1, r7
 1676              	.LVL58:
 299:D:/fchai/work/i-cube/I-CUBE-HUAWEI/Middlewares/Third_Party/Huawei/iot_link/network/dtls/mbedtls/mbedtls-2.16.2/library\sha256.c **** 
 1677              		.loc 1 299 9 view .LVU545
 1678 0036 09EB0400 		add	r0, r9, r4
 1679              	.LVL59:
 299:D:/fchai/work/i-cube/I-CUBE-HUAWEI/Middlewares/Third_Party/Huawei/iot_link/network/dtls/mbedtls/mbedtls-2.16.2/library\sha256.c **** 
 1680              		.loc 1 299 9 view .LVU546
 1681 003a 4246     		mov	r2, r8
 1682 003c FFF7FEFF 		bl	memcpy
 1683              	.LVL60:
 301:D:/fchai/work/i-cube/I-CUBE-HUAWEI/Middlewares/Third_Party/Huawei/iot_link/network/dtls/mbedtls/mbedtls-2.16.2/library\sha256.c ****             return( ret );
 1684              		.loc 1 301 9 is_stmt 1 view .LVU547
 301:D:/fchai/work/i-cube/I-CUBE-HUAWEI/Middlewares/Third_Party/Huawei/iot_link/network/dtls/mbedtls/mbedtls-2.16.2/library\sha256.c ****             return( ret );
 1685              		.loc 1 301 21 is_stmt 0 view .LVU548
 1686 0040 4946     		mov	r1, r9
 1687 0042 3046     		mov	r0, r6
 1688 0044 FFF7FEFF 		bl	mbedtls_internal_sha256_process
 1689              	.LVL61:
 301:D:/fchai/work/i-cube/I-CUBE-HUAWEI/Middlewares/Third_Party/Huawei/iot_link/network/dtls/mbedtls/mbedtls-2.16.2/library\sha256.c ****             return( ret );
 1690              		.loc 1 301 11 view .LVU549
 1691 0048 0028     		cmp	r0, #0
 1692 004a EFD1     		bne	.L35
 304:D:/fchai/work/i-cube/I-CUBE-HUAWEI/Middlewares/Third_Party/Huawei/iot_link/network/dtls/mbedtls/mbedtls-2.16.2/library\sha256.c ****         ilen  -= fill;
 1693              		.loc 1 304 9 is_stmt 1 view .LVU550
 1694 004c A5F14002 		sub	r2, r5, #64
 305:D:/fchai/work/i-cube/I-CUBE-HUAWEI/Middlewares/Third_Party/Huawei/iot_link/network/dtls/mbedtls/mbedtls-2.16.2/library\sha256.c ****         left = 0;
 1695              		.loc 1 305 15 is_stmt 0 view .LVU551
ARM GAS  T:\msys\tmp\ccLh2YRr.s 			page 42


 1696 0050 A518     		adds	r5, r4, r2
 1697              	.LVL62:
 304:D:/fchai/work/i-cube/I-CUBE-HUAWEI/Middlewares/Third_Party/Huawei/iot_link/network/dtls/mbedtls/mbedtls-2.16.2/library\sha256.c ****         ilen  -= fill;
 1698              		.loc 1 304 15 view .LVU552
 1699 0052 4744     		add	r7, r7, r8
 1700              	.LVL63:
 305:D:/fchai/work/i-cube/I-CUBE-HUAWEI/Middlewares/Third_Party/Huawei/iot_link/network/dtls/mbedtls/mbedtls-2.16.2/library\sha256.c ****         left = 0;
 1701              		.loc 1 305 9 is_stmt 1 view .LVU553
 306:D:/fchai/work/i-cube/I-CUBE-HUAWEI/Middlewares/Third_Party/Huawei/iot_link/network/dtls/mbedtls/mbedtls-2.16.2/library\sha256.c ****     }
 1702              		.loc 1 306 9 view .LVU554
 1703              	.L39:
 309:D:/fchai/work/i-cube/I-CUBE-HUAWEI/Middlewares/Third_Party/Huawei/iot_link/network/dtls/mbedtls/mbedtls-2.16.2/library\sha256.c ****     {
 1704              		.loc 1 309 10 view .LVU555
 1705 0054 3F2D     		cmp	r5, #63
 1706 0056 1FD9     		bls	.L56
 309:D:/fchai/work/i-cube/I-CUBE-HUAWEI/Middlewares/Third_Party/Huawei/iot_link/network/dtls/mbedtls/mbedtls-2.16.2/library\sha256.c ****     {
 1707              		.loc 1 309 10 is_stmt 0 view .LVU556
 1708 0058 A5F14003 		sub	r3, r5, #64
 1709 005c 23F03F03 		bic	r3, r3, #63
 1710 0060 3C46     		mov	r4, r7
 1711              	.LVL64:
 309:D:/fchai/work/i-cube/I-CUBE-HUAWEI/Middlewares/Third_Party/Huawei/iot_link/network/dtls/mbedtls/mbedtls-2.16.2/library\sha256.c ****     {
 1712              		.loc 1 309 10 view .LVU557
 1713 0062 4033     		adds	r3, r3, #64
 1714 0064 1F44     		add	r7, r7, r3
 1715              	.LVL65:
 309:D:/fchai/work/i-cube/I-CUBE-HUAWEI/Middlewares/Third_Party/Huawei/iot_link/network/dtls/mbedtls/mbedtls-2.16.2/library\sha256.c ****     {
 1716              		.loc 1 309 10 view .LVU558
 1717 0066 2544     		add	r5, r5, r4
 1718              	.LVL66:
 309:D:/fchai/work/i-cube/I-CUBE-HUAWEI/Middlewares/Third_Party/Huawei/iot_link/network/dtls/mbedtls/mbedtls-2.16.2/library\sha256.c ****     {
 1719              		.loc 1 309 10 view .LVU559
 1720 0068 01E0     		b	.L42
 1721              	.LVL67:
 1722              	.L58:
 309:D:/fchai/work/i-cube/I-CUBE-HUAWEI/Middlewares/Third_Party/Huawei/iot_link/network/dtls/mbedtls/mbedtls-2.16.2/library\sha256.c ****     {
 1723              		.loc 1 309 10 view .LVU560
 1724 006a BC42     		cmp	r4, r7
 1725 006c 08D0     		beq	.L57
 1726              	.LVL68:
 1727              	.L42:
 311:D:/fchai/work/i-cube/I-CUBE-HUAWEI/Middlewares/Third_Party/Huawei/iot_link/network/dtls/mbedtls/mbedtls-2.16.2/library\sha256.c ****             return( ret );
 1728              		.loc 1 311 9 is_stmt 1 view .LVU561
 311:D:/fchai/work/i-cube/I-CUBE-HUAWEI/Middlewares/Third_Party/Huawei/iot_link/network/dtls/mbedtls/mbedtls-2.16.2/library\sha256.c ****             return( ret );
 1729              		.loc 1 311 21 is_stmt 0 view .LVU562
 1730 006e 2146     		mov	r1, r4
 1731 0070 3046     		mov	r0, r6
 1732 0072 FFF7FEFF 		bl	mbedtls_internal_sha256_process
 1733              	.LVL69:
 314:D:/fchai/work/i-cube/I-CUBE-HUAWEI/Middlewares/Third_Party/Huawei/iot_link/network/dtls/mbedtls/mbedtls-2.16.2/library\sha256.c ****         ilen  -= 64;
 1734              		.loc 1 314 9 is_stmt 1 view .LVU563
 314:D:/fchai/work/i-cube/I-CUBE-HUAWEI/Middlewares/Third_Party/Huawei/iot_link/network/dtls/mbedtls/mbedtls-2.16.2/library\sha256.c ****         ilen  -= 64;
 1735              		.loc 1 314 15 is_stmt 0 view .LVU564
 1736 0076 4034     		adds	r4, r4, #64
 1737              	.LVL70:
 315:D:/fchai/work/i-cube/I-CUBE-HUAWEI/Middlewares/Third_Party/Huawei/iot_link/network/dtls/mbedtls/mbedtls-2.16.2/library\sha256.c ****     }
 1738              		.loc 1 315 9 is_stmt 1 view .LVU565
ARM GAS  T:\msys\tmp\ccLh2YRr.s 			page 43


 315:D:/fchai/work/i-cube/I-CUBE-HUAWEI/Middlewares/Third_Party/Huawei/iot_link/network/dtls/mbedtls/mbedtls-2.16.2/library\sha256.c ****     }
 1739              		.loc 1 315 9 is_stmt 0 view .LVU566
 1740 0078 2A1B     		subs	r2, r5, r4
 1741              	.LVL71:
 309:D:/fchai/work/i-cube/I-CUBE-HUAWEI/Middlewares/Third_Party/Huawei/iot_link/network/dtls/mbedtls/mbedtls-2.16.2/library\sha256.c ****     {
 1742              		.loc 1 309 10 is_stmt 1 view .LVU567
 311:D:/fchai/work/i-cube/I-CUBE-HUAWEI/Middlewares/Third_Party/Huawei/iot_link/network/dtls/mbedtls/mbedtls-2.16.2/library\sha256.c ****             return( ret );
 1743              		.loc 1 311 11 is_stmt 0 view .LVU568
 1744 007a 0028     		cmp	r0, #0
 1745 007c F5D0     		beq	.L58
 1746 007e D5E7     		b	.L35
 1747              	.L57:
 311:D:/fchai/work/i-cube/I-CUBE-HUAWEI/Middlewares/Third_Party/Huawei/iot_link/network/dtls/mbedtls/mbedtls-2.16.2/library\sha256.c ****             return( ret );
 1748              		.loc 1 311 11 view .LVU569
 1749 0080 0446     		mov	r4, r0
 1750              	.LVL72:
 318:D:/fchai/work/i-cube/I-CUBE-HUAWEI/Middlewares/Third_Party/Huawei/iot_link/network/dtls/mbedtls/mbedtls-2.16.2/library\sha256.c ****         memcpy( (void *) (ctx->buffer + left), input, ilen );
 1751              		.loc 1 318 5 is_stmt 1 view .LVU570
 318:D:/fchai/work/i-cube/I-CUBE-HUAWEI/Middlewares/Third_Party/Huawei/iot_link/network/dtls/mbedtls/mbedtls-2.16.2/library\sha256.c ****         memcpy( (void *) (ctx->buffer + left), input, ilen );
 1752              		.loc 1 318 7 is_stmt 0 view .LVU571
 1753 0082 002A     		cmp	r2, #0
 1754 0084 D1D0     		beq	.L45
 1755              	.LVL73:
 1756              	.L55:
 319:D:/fchai/work/i-cube/I-CUBE-HUAWEI/Middlewares/Third_Party/Huawei/iot_link/network/dtls/mbedtls/mbedtls-2.16.2/library\sha256.c **** 
 1757              		.loc 1 319 9 is_stmt 1 view .LVU572
 319:D:/fchai/work/i-cube/I-CUBE-HUAWEI/Middlewares/Third_Party/Huawei/iot_link/network/dtls/mbedtls/mbedtls-2.16.2/library\sha256.c **** 
 1758              		.loc 1 319 27 is_stmt 0 view .LVU573
 1759 0086 06F12800 		add	r0, r6, #40
 319:D:/fchai/work/i-cube/I-CUBE-HUAWEI/Middlewares/Third_Party/Huawei/iot_link/network/dtls/mbedtls/mbedtls-2.16.2/library\sha256.c **** 
 1760              		.loc 1 319 9 view .LVU574
 1761 008a 2044     		add	r0, r0, r4
 1762 008c 3946     		mov	r1, r7
 1763 008e FFF7FEFF 		bl	memcpy
 1764              	.LVL74:
 321:D:/fchai/work/i-cube/I-CUBE-HUAWEI/Middlewares/Third_Party/Huawei/iot_link/network/dtls/mbedtls/mbedtls-2.16.2/library\sha256.c **** }
 1765              		.loc 1 321 11 view .LVU575
 1766 0092 0020     		movs	r0, #0
 1767              		.loc 1 322 1 view .LVU576
 1768 0094 BDE8F883 		pop	{r3, r4, r5, r6, r7, r8, r9, pc}
 1769              	.LVL75:
 1770              	.L56:
 309:D:/fchai/work/i-cube/I-CUBE-HUAWEI/Middlewares/Third_Party/Huawei/iot_link/network/dtls/mbedtls/mbedtls-2.16.2/library\sha256.c ****     {
 1771              		.loc 1 309 10 view .LVU577
 1772 0098 0024     		movs	r4, #0
 1773              	.LVL76:
 309:D:/fchai/work/i-cube/I-CUBE-HUAWEI/Middlewares/Third_Party/Huawei/iot_link/network/dtls/mbedtls/mbedtls-2.16.2/library\sha256.c ****     {
 1774              		.loc 1 309 10 view .LVU578
 1775 009a 2A46     		mov	r2, r5
 1776 009c C4E7     		b	.L43
 1777              		.cfi_endproc
 1778              	.LFE13:
 1780 009e 00BF     		.section	.text.mbedtls_sha256_process,"ax",%progbits
 1781              		.align	1
 1782              		.p2align 2,,3
 1783              		.global	mbedtls_sha256_process
 1784              		.syntax unified
ARM GAS  T:\msys\tmp\ccLh2YRr.s 			page 44


 1785              		.thumb
 1786              		.thumb_func
 1787              		.fpu fpv4-sp-d16
 1789              	mbedtls_sha256_process:
 1790              	.LVL77:
 1791              	.LFB6:
 265:D:/fchai/work/i-cube/I-CUBE-HUAWEI/Middlewares/Third_Party/Huawei/iot_link/network/dtls/mbedtls/mbedtls-2.16.2/library\sha256.c ****     mbedtls_internal_sha256_process( ctx, data );
 1792              		.loc 1 265 1 is_stmt 1 view -0
 1793              		.cfi_startproc
 1794              		@ args = 0, pretend = 0, frame = 0
 1795              		@ frame_needed = 0, uses_anonymous_args = 0
 1796              		@ link register save eliminated.
 266:D:/fchai/work/i-cube/I-CUBE-HUAWEI/Middlewares/Third_Party/Huawei/iot_link/network/dtls/mbedtls/mbedtls-2.16.2/library\sha256.c **** }
 1797              		.loc 1 266 5 view .LVU580
 1798 0000 FFF7FEBF 		b	mbedtls_internal_sha256_process
 1799              	.LVL78:
 266:D:/fchai/work/i-cube/I-CUBE-HUAWEI/Middlewares/Third_Party/Huawei/iot_link/network/dtls/mbedtls/mbedtls-2.16.2/library\sha256.c **** }
 1800              		.loc 1 266 5 is_stmt 0 view .LVU581
 1801              		.cfi_endproc
 1802              	.LFE6:
 1804              		.section	.text.mbedtls_sha256_update_ret,"ax",%progbits
 1805              		.align	1
 1806              		.p2align 2,,3
 1807              		.global	mbedtls_sha256_update_ret
 1808              		.syntax unified
 1809              		.thumb
 1810              		.thumb_func
 1811              		.fpu fpv4-sp-d16
 1813              	mbedtls_sha256_update_ret:
 1814              	.LVL79:
 1815              	.LFB7:
 277:D:/fchai/work/i-cube/I-CUBE-HUAWEI/Middlewares/Third_Party/Huawei/iot_link/network/dtls/mbedtls/mbedtls-2.16.2/library\sha256.c ****     int ret;
 1816              		.loc 1 277 1 is_stmt 1 view -0
 1817              		.cfi_startproc
 1818              		@ args = 0, pretend = 0, frame = 0
 1819              		@ frame_needed = 0, uses_anonymous_args = 0
 1820              		@ link register save eliminated.
 278:D:/fchai/work/i-cube/I-CUBE-HUAWEI/Middlewares/Third_Party/Huawei/iot_link/network/dtls/mbedtls/mbedtls-2.16.2/library\sha256.c ****     size_t fill;
 1821              		.loc 1 278 5 view .LVU583
 279:D:/fchai/work/i-cube/I-CUBE-HUAWEI/Middlewares/Third_Party/Huawei/iot_link/network/dtls/mbedtls/mbedtls-2.16.2/library\sha256.c ****     uint32_t left;
 1822              		.loc 1 279 5 view .LVU584
 280:D:/fchai/work/i-cube/I-CUBE-HUAWEI/Middlewares/Third_Party/Huawei/iot_link/network/dtls/mbedtls/mbedtls-2.16.2/library\sha256.c **** 
 1823              		.loc 1 280 5 view .LVU585
 282:D:/fchai/work/i-cube/I-CUBE-HUAWEI/Middlewares/Third_Party/Huawei/iot_link/network/dtls/mbedtls/mbedtls-2.16.2/library\sha256.c ****     SHA256_VALIDATE_RET( ilen == 0 || input != NULL );
 1824              		.loc 1 282 5 view .LVU586
 282:D:/fchai/work/i-cube/I-CUBE-HUAWEI/Middlewares/Third_Party/Huawei/iot_link/network/dtls/mbedtls/mbedtls-2.16.2/library\sha256.c ****     SHA256_VALIDATE_RET( ilen == 0 || input != NULL );
 1825              		.loc 1 282 5 view .LVU587
 282:D:/fchai/work/i-cube/I-CUBE-HUAWEI/Middlewares/Third_Party/Huawei/iot_link/network/dtls/mbedtls/mbedtls-2.16.2/library\sha256.c ****     SHA256_VALIDATE_RET( ilen == 0 || input != NULL );
 1826              		.loc 1 282 5 view .LVU588
 283:D:/fchai/work/i-cube/I-CUBE-HUAWEI/Middlewares/Third_Party/Huawei/iot_link/network/dtls/mbedtls/mbedtls-2.16.2/library\sha256.c **** 
 1827              		.loc 1 283 5 view .LVU589
 283:D:/fchai/work/i-cube/I-CUBE-HUAWEI/Middlewares/Third_Party/Huawei/iot_link/network/dtls/mbedtls/mbedtls-2.16.2/library\sha256.c **** 
 1828              		.loc 1 283 5 view .LVU590
 283:D:/fchai/work/i-cube/I-CUBE-HUAWEI/Middlewares/Third_Party/Huawei/iot_link/network/dtls/mbedtls/mbedtls-2.16.2/library\sha256.c **** 
 1829              		.loc 1 283 5 view .LVU591
 285:D:/fchai/work/i-cube/I-CUBE-HUAWEI/Middlewares/Third_Party/Huawei/iot_link/network/dtls/mbedtls/mbedtls-2.16.2/library\sha256.c ****         return( 0 );
 1830              		.loc 1 285 5 view .LVU592
ARM GAS  T:\msys\tmp\ccLh2YRr.s 			page 45


 285:D:/fchai/work/i-cube/I-CUBE-HUAWEI/Middlewares/Third_Party/Huawei/iot_link/network/dtls/mbedtls/mbedtls-2.16.2/library\sha256.c ****         return( 0 );
 1831              		.loc 1 285 7 is_stmt 0 view .LVU593
 1832 0000 0AB1     		cbz	r2, .L61
 1833 0002 FFF7FEBF 		b	mbedtls_sha256_update_ret.part.0
 1834              	.LVL80:
 1835              	.L61:
 1836              		.loc 1 322 1 view .LVU594
 1837 0006 1046     		mov	r0, r2
 1838              	.LVL81:
 1839              		.loc 1 322 1 view .LVU595
 1840 0008 7047     		bx	lr
 1841              		.cfi_endproc
 1842              	.LFE7:
 1844 000a 00BF     		.section	.text.mbedtls_sha256_update,"ax",%progbits
 1845              		.align	1
 1846              		.p2align 2,,3
 1847              		.global	mbedtls_sha256_update
 1848              		.syntax unified
 1849              		.thumb
 1850              		.thumb_func
 1851              		.fpu fpv4-sp-d16
 1853              	mbedtls_sha256_update:
 1854              	.LVL82:
 1855              	.LFB8:
 323:D:/fchai/work/i-cube/I-CUBE-HUAWEI/Middlewares/Third_Party/Huawei/iot_link/network/dtls/mbedtls/mbedtls-2.16.2/library\sha256.c **** 
 324:D:/fchai/work/i-cube/I-CUBE-HUAWEI/Middlewares/Third_Party/Huawei/iot_link/network/dtls/mbedtls/mbedtls-2.16.2/library\sha256.c **** #if !defined(MBEDTLS_DEPRECATED_REMOVED)
 325:D:/fchai/work/i-cube/I-CUBE-HUAWEI/Middlewares/Third_Party/Huawei/iot_link/network/dtls/mbedtls/mbedtls-2.16.2/library\sha256.c **** void mbedtls_sha256_update( mbedtls_sha256_context *ctx,
 326:D:/fchai/work/i-cube/I-CUBE-HUAWEI/Middlewares/Third_Party/Huawei/iot_link/network/dtls/mbedtls/mbedtls-2.16.2/library\sha256.c ****                             const unsigned char *input,
 327:D:/fchai/work/i-cube/I-CUBE-HUAWEI/Middlewares/Third_Party/Huawei/iot_link/network/dtls/mbedtls/mbedtls-2.16.2/library\sha256.c ****                             size_t ilen )
 328:D:/fchai/work/i-cube/I-CUBE-HUAWEI/Middlewares/Third_Party/Huawei/iot_link/network/dtls/mbedtls/mbedtls-2.16.2/library\sha256.c **** {
 1856              		.loc 1 328 1 is_stmt 1 view -0
 1857              		.cfi_startproc
 1858              		@ args = 0, pretend = 0, frame = 0
 1859              		@ frame_needed = 0, uses_anonymous_args = 0
 1860              		@ link register save eliminated.
 329:D:/fchai/work/i-cube/I-CUBE-HUAWEI/Middlewares/Third_Party/Huawei/iot_link/network/dtls/mbedtls/mbedtls-2.16.2/library\sha256.c ****     mbedtls_sha256_update_ret( ctx, input, ilen );
 1861              		.loc 1 329 5 view .LVU597
 1862              	.LBB20:
 1863              	.LBI20:
 274:D:/fchai/work/i-cube/I-CUBE-HUAWEI/Middlewares/Third_Party/Huawei/iot_link/network/dtls/mbedtls/mbedtls-2.16.2/library\sha256.c ****                                const unsigned char *input,
 1864              		.loc 1 274 5 view .LVU598
 1865              	.LBB21:
 278:D:/fchai/work/i-cube/I-CUBE-HUAWEI/Middlewares/Third_Party/Huawei/iot_link/network/dtls/mbedtls/mbedtls-2.16.2/library\sha256.c ****     size_t fill;
 1866              		.loc 1 278 5 view .LVU599
 279:D:/fchai/work/i-cube/I-CUBE-HUAWEI/Middlewares/Third_Party/Huawei/iot_link/network/dtls/mbedtls/mbedtls-2.16.2/library\sha256.c ****     uint32_t left;
 1867              		.loc 1 279 5 view .LVU600
 280:D:/fchai/work/i-cube/I-CUBE-HUAWEI/Middlewares/Third_Party/Huawei/iot_link/network/dtls/mbedtls/mbedtls-2.16.2/library\sha256.c **** 
 1868              		.loc 1 280 5 view .LVU601
 282:D:/fchai/work/i-cube/I-CUBE-HUAWEI/Middlewares/Third_Party/Huawei/iot_link/network/dtls/mbedtls/mbedtls-2.16.2/library\sha256.c ****     SHA256_VALIDATE_RET( ilen == 0 || input != NULL );
 1869              		.loc 1 282 5 view .LVU602
 282:D:/fchai/work/i-cube/I-CUBE-HUAWEI/Middlewares/Third_Party/Huawei/iot_link/network/dtls/mbedtls/mbedtls-2.16.2/library\sha256.c ****     SHA256_VALIDATE_RET( ilen == 0 || input != NULL );
 1870              		.loc 1 282 5 view .LVU603
 282:D:/fchai/work/i-cube/I-CUBE-HUAWEI/Middlewares/Third_Party/Huawei/iot_link/network/dtls/mbedtls/mbedtls-2.16.2/library\sha256.c ****     SHA256_VALIDATE_RET( ilen == 0 || input != NULL );
 1871              		.loc 1 282 5 view .LVU604
 283:D:/fchai/work/i-cube/I-CUBE-HUAWEI/Middlewares/Third_Party/Huawei/iot_link/network/dtls/mbedtls/mbedtls-2.16.2/library\sha256.c **** 
 1872              		.loc 1 283 5 view .LVU605
 283:D:/fchai/work/i-cube/I-CUBE-HUAWEI/Middlewares/Third_Party/Huawei/iot_link/network/dtls/mbedtls/mbedtls-2.16.2/library\sha256.c **** 
ARM GAS  T:\msys\tmp\ccLh2YRr.s 			page 46


 1873              		.loc 1 283 5 view .LVU606
 283:D:/fchai/work/i-cube/I-CUBE-HUAWEI/Middlewares/Third_Party/Huawei/iot_link/network/dtls/mbedtls/mbedtls-2.16.2/library\sha256.c **** 
 1874              		.loc 1 283 5 view .LVU607
 285:D:/fchai/work/i-cube/I-CUBE-HUAWEI/Middlewares/Third_Party/Huawei/iot_link/network/dtls/mbedtls/mbedtls-2.16.2/library\sha256.c ****         return( 0 );
 1875              		.loc 1 285 5 view .LVU608
 285:D:/fchai/work/i-cube/I-CUBE-HUAWEI/Middlewares/Third_Party/Huawei/iot_link/network/dtls/mbedtls/mbedtls-2.16.2/library\sha256.c ****         return( 0 );
 1876              		.loc 1 285 7 is_stmt 0 view .LVU609
 1877 0000 0AB1     		cbz	r2, .L62
 1878 0002 FFF7FEBF 		b	mbedtls_sha256_update_ret.part.0
 1879              	.LVL83:
 1880              	.L62:
 285:D:/fchai/work/i-cube/I-CUBE-HUAWEI/Middlewares/Third_Party/Huawei/iot_link/network/dtls/mbedtls/mbedtls-2.16.2/library\sha256.c ****         return( 0 );
 1881              		.loc 1 285 7 view .LVU610
 1882              	.LBE21:
 1883              	.LBE20:
 330:D:/fchai/work/i-cube/I-CUBE-HUAWEI/Middlewares/Third_Party/Huawei/iot_link/network/dtls/mbedtls/mbedtls-2.16.2/library\sha256.c **** }
 1884              		.loc 1 330 1 view .LVU611
 1885 0006 7047     		bx	lr
 1886              		.cfi_endproc
 1887              	.LFE8:
 1889              		.section	.text.mbedtls_sha256_finish_ret,"ax",%progbits
 1890              		.align	1
 1891              		.p2align 2,,3
 1892              		.global	mbedtls_sha256_finish_ret
 1893              		.syntax unified
 1894              		.thumb
 1895              		.thumb_func
 1896              		.fpu fpv4-sp-d16
 1898              	mbedtls_sha256_finish_ret:
 1899              	.LVL84:
 1900              	.LFB9:
 331:D:/fchai/work/i-cube/I-CUBE-HUAWEI/Middlewares/Third_Party/Huawei/iot_link/network/dtls/mbedtls/mbedtls-2.16.2/library\sha256.c **** #endif
 332:D:/fchai/work/i-cube/I-CUBE-HUAWEI/Middlewares/Third_Party/Huawei/iot_link/network/dtls/mbedtls/mbedtls-2.16.2/library\sha256.c **** 
 333:D:/fchai/work/i-cube/I-CUBE-HUAWEI/Middlewares/Third_Party/Huawei/iot_link/network/dtls/mbedtls/mbedtls-2.16.2/library\sha256.c **** /*
 334:D:/fchai/work/i-cube/I-CUBE-HUAWEI/Middlewares/Third_Party/Huawei/iot_link/network/dtls/mbedtls/mbedtls-2.16.2/library\sha256.c ****  * SHA-256 final digest
 335:D:/fchai/work/i-cube/I-CUBE-HUAWEI/Middlewares/Third_Party/Huawei/iot_link/network/dtls/mbedtls/mbedtls-2.16.2/library\sha256.c ****  */
 336:D:/fchai/work/i-cube/I-CUBE-HUAWEI/Middlewares/Third_Party/Huawei/iot_link/network/dtls/mbedtls/mbedtls-2.16.2/library\sha256.c **** int mbedtls_sha256_finish_ret( mbedtls_sha256_context *ctx,
 337:D:/fchai/work/i-cube/I-CUBE-HUAWEI/Middlewares/Third_Party/Huawei/iot_link/network/dtls/mbedtls/mbedtls-2.16.2/library\sha256.c ****                                unsigned char output[32] )
 338:D:/fchai/work/i-cube/I-CUBE-HUAWEI/Middlewares/Third_Party/Huawei/iot_link/network/dtls/mbedtls/mbedtls-2.16.2/library\sha256.c **** {
 1901              		.loc 1 338 1 is_stmt 1 view -0
 1902              		.cfi_startproc
 1903              		@ args = 0, pretend = 0, frame = 0
 1904              		@ frame_needed = 0, uses_anonymous_args = 0
 339:D:/fchai/work/i-cube/I-CUBE-HUAWEI/Middlewares/Third_Party/Huawei/iot_link/network/dtls/mbedtls/mbedtls-2.16.2/library\sha256.c ****     int ret;
 1905              		.loc 1 339 5 view .LVU613
 340:D:/fchai/work/i-cube/I-CUBE-HUAWEI/Middlewares/Third_Party/Huawei/iot_link/network/dtls/mbedtls/mbedtls-2.16.2/library\sha256.c ****     uint32_t used;
 1906              		.loc 1 340 5 view .LVU614
 341:D:/fchai/work/i-cube/I-CUBE-HUAWEI/Middlewares/Third_Party/Huawei/iot_link/network/dtls/mbedtls/mbedtls-2.16.2/library\sha256.c ****     uint32_t high, low;
 1907              		.loc 1 341 5 view .LVU615
 342:D:/fchai/work/i-cube/I-CUBE-HUAWEI/Middlewares/Third_Party/Huawei/iot_link/network/dtls/mbedtls/mbedtls-2.16.2/library\sha256.c **** 
 343:D:/fchai/work/i-cube/I-CUBE-HUAWEI/Middlewares/Third_Party/Huawei/iot_link/network/dtls/mbedtls/mbedtls-2.16.2/library\sha256.c ****     SHA256_VALIDATE_RET( ctx != NULL );
 1908              		.loc 1 343 5 view .LVU616
 1909              		.loc 1 343 5 view .LVU617
 1910              		.loc 1 343 5 view .LVU618
 344:D:/fchai/work/i-cube/I-CUBE-HUAWEI/Middlewares/Third_Party/Huawei/iot_link/network/dtls/mbedtls/mbedtls-2.16.2/library\sha256.c ****     SHA256_VALIDATE_RET( (unsigned char *)output != NULL );
 1911              		.loc 1 344 5 view .LVU619
 1912              		.loc 1 344 5 view .LVU620
ARM GAS  T:\msys\tmp\ccLh2YRr.s 			page 47


 1913              		.loc 1 344 5 view .LVU621
 345:D:/fchai/work/i-cube/I-CUBE-HUAWEI/Middlewares/Third_Party/Huawei/iot_link/network/dtls/mbedtls/mbedtls-2.16.2/library\sha256.c **** 
 346:D:/fchai/work/i-cube/I-CUBE-HUAWEI/Middlewares/Third_Party/Huawei/iot_link/network/dtls/mbedtls/mbedtls-2.16.2/library\sha256.c ****     /*
 347:D:/fchai/work/i-cube/I-CUBE-HUAWEI/Middlewares/Third_Party/Huawei/iot_link/network/dtls/mbedtls/mbedtls-2.16.2/library\sha256.c ****      * Add padding: 0x80 then 0x00 until 8 bytes remain for the length
 348:D:/fchai/work/i-cube/I-CUBE-HUAWEI/Middlewares/Third_Party/Huawei/iot_link/network/dtls/mbedtls/mbedtls-2.16.2/library\sha256.c ****      */
 349:D:/fchai/work/i-cube/I-CUBE-HUAWEI/Middlewares/Third_Party/Huawei/iot_link/network/dtls/mbedtls/mbedtls-2.16.2/library\sha256.c ****     used = ctx->total[0] & 0x3F;
 1914              		.loc 1 349 5 view .LVU622
 1915              		.loc 1 349 10 is_stmt 0 view .LVU623
 1916 0000 0268     		ldr	r2, [r0]
 1917 0002 02F03F02 		and	r2, r2, #63
 1918              	.LVL85:
 350:D:/fchai/work/i-cube/I-CUBE-HUAWEI/Middlewares/Third_Party/Huawei/iot_link/network/dtls/mbedtls/mbedtls-2.16.2/library\sha256.c **** 
 351:D:/fchai/work/i-cube/I-CUBE-HUAWEI/Middlewares/Third_Party/Huawei/iot_link/network/dtls/mbedtls/mbedtls-2.16.2/library\sha256.c ****     ctx->buffer[used++] = 0x80;
 1919              		.loc 1 351 5 is_stmt 1 view .LVU624
 338:D:/fchai/work/i-cube/I-CUBE-HUAWEI/Middlewares/Third_Party/Huawei/iot_link/network/dtls/mbedtls/mbedtls-2.16.2/library\sha256.c ****     int ret;
 1920              		.loc 1 338 1 is_stmt 0 view .LVU625
 1921 0006 70B5     		push	{r4, r5, r6, lr}
 1922              	.LCFI13:
 1923              		.cfi_def_cfa_offset 16
 1924              		.cfi_offset 4, -16
 1925              		.cfi_offset 5, -12
 1926              		.cfi_offset 6, -8
 1927              		.cfi_offset 14, -4
 1928              		.loc 1 351 25 view .LVU626
 1929 0008 8318     		adds	r3, r0, r2
 338:D:/fchai/work/i-cube/I-CUBE-HUAWEI/Middlewares/Third_Party/Huawei/iot_link/network/dtls/mbedtls/mbedtls-2.16.2/library\sha256.c ****     int ret;
 1930              		.loc 1 338 1 view .LVU627
 1931 000a 0446     		mov	r4, r0
 1932              		.loc 1 351 21 view .LVU628
 1933 000c 0132     		adds	r2, r2, #1
 1934              	.LVL86:
 1935              		.loc 1 351 25 view .LVU629
 1936 000e 8020     		movs	r0, #128
 1937              	.LVL87:
 352:D:/fchai/work/i-cube/I-CUBE-HUAWEI/Middlewares/Third_Party/Huawei/iot_link/network/dtls/mbedtls/mbedtls-2.16.2/library\sha256.c **** 
 353:D:/fchai/work/i-cube/I-CUBE-HUAWEI/Middlewares/Third_Party/Huawei/iot_link/network/dtls/mbedtls/mbedtls-2.16.2/library\sha256.c ****     if( used <= 56 )
 354:D:/fchai/work/i-cube/I-CUBE-HUAWEI/Middlewares/Third_Party/Huawei/iot_link/network/dtls/mbedtls/mbedtls-2.16.2/library\sha256.c ****     {
 355:D:/fchai/work/i-cube/I-CUBE-HUAWEI/Middlewares/Third_Party/Huawei/iot_link/network/dtls/mbedtls/mbedtls-2.16.2/library\sha256.c ****         /* Enough room for padding + length in current block */
 356:D:/fchai/work/i-cube/I-CUBE-HUAWEI/Middlewares/Third_Party/Huawei/iot_link/network/dtls/mbedtls/mbedtls-2.16.2/library\sha256.c ****         memset( ctx->buffer + used, 0, 56 - used );
 1938              		.loc 1 356 17 view .LVU630
 1939 0010 04F12806 		add	r6, r4, #40
 353:D:/fchai/work/i-cube/I-CUBE-HUAWEI/Middlewares/Third_Party/Huawei/iot_link/network/dtls/mbedtls/mbedtls-2.16.2/library\sha256.c ****     {
 1940              		.loc 1 353 7 view .LVU631
 1941 0014 382A     		cmp	r2, #56
 351:D:/fchai/work/i-cube/I-CUBE-HUAWEI/Middlewares/Third_Party/Huawei/iot_link/network/dtls/mbedtls/mbedtls-2.16.2/library\sha256.c **** 
 1942              		.loc 1 351 25 view .LVU632
 1943 0016 83F82800 		strb	r0, [r3, #40]
 353:D:/fchai/work/i-cube/I-CUBE-HUAWEI/Middlewares/Third_Party/Huawei/iot_link/network/dtls/mbedtls/mbedtls-2.16.2/library\sha256.c ****     {
 1944              		.loc 1 353 5 is_stmt 1 view .LVU633
 338:D:/fchai/work/i-cube/I-CUBE-HUAWEI/Middlewares/Third_Party/Huawei/iot_link/network/dtls/mbedtls/mbedtls-2.16.2/library\sha256.c ****     int ret;
 1945              		.loc 1 338 1 is_stmt 0 view .LVU634
 1946 001a 0D46     		mov	r5, r1
 1947              		.loc 1 356 9 view .LVU635
 1948 001c 06EB0200 		add	r0, r6, r2
 353:D:/fchai/work/i-cube/I-CUBE-HUAWEI/Middlewares/Third_Party/Huawei/iot_link/network/dtls/mbedtls/mbedtls-2.16.2/library\sha256.c ****     {
 1949              		.loc 1 353 7 view .LVU636
 1950 0020 61D8     		bhi	.L65
ARM GAS  T:\msys\tmp\ccLh2YRr.s 			page 48


 1951              		.loc 1 356 9 is_stmt 1 view .LVU637
 1952 0022 C2F13802 		rsb	r2, r2, #56
 1953              	.LVL88:
 1954              		.loc 1 356 9 is_stmt 0 view .LVU638
 1955 0026 0021     		movs	r1, #0
 1956              	.LVL89:
 1957              		.loc 1 356 9 view .LVU639
 1958 0028 FFF7FEFF 		bl	memset
 1959              	.LVL90:
 1960              	.L66:
 357:D:/fchai/work/i-cube/I-CUBE-HUAWEI/Middlewares/Third_Party/Huawei/iot_link/network/dtls/mbedtls/mbedtls-2.16.2/library\sha256.c ****     }
 358:D:/fchai/work/i-cube/I-CUBE-HUAWEI/Middlewares/Third_Party/Huawei/iot_link/network/dtls/mbedtls/mbedtls-2.16.2/library\sha256.c ****     else
 359:D:/fchai/work/i-cube/I-CUBE-HUAWEI/Middlewares/Third_Party/Huawei/iot_link/network/dtls/mbedtls/mbedtls-2.16.2/library\sha256.c ****     {
 360:D:/fchai/work/i-cube/I-CUBE-HUAWEI/Middlewares/Third_Party/Huawei/iot_link/network/dtls/mbedtls/mbedtls-2.16.2/library\sha256.c ****         /* We'll need an extra block */
 361:D:/fchai/work/i-cube/I-CUBE-HUAWEI/Middlewares/Third_Party/Huawei/iot_link/network/dtls/mbedtls/mbedtls-2.16.2/library\sha256.c ****         memset( ctx->buffer + used, 0, 64 - used );
 362:D:/fchai/work/i-cube/I-CUBE-HUAWEI/Middlewares/Third_Party/Huawei/iot_link/network/dtls/mbedtls/mbedtls-2.16.2/library\sha256.c **** 
 363:D:/fchai/work/i-cube/I-CUBE-HUAWEI/Middlewares/Third_Party/Huawei/iot_link/network/dtls/mbedtls/mbedtls-2.16.2/library\sha256.c ****         if( ( ret = mbedtls_internal_sha256_process( ctx, ctx->buffer ) ) != 0 )
 364:D:/fchai/work/i-cube/I-CUBE-HUAWEI/Middlewares/Third_Party/Huawei/iot_link/network/dtls/mbedtls/mbedtls-2.16.2/library\sha256.c ****             return( ret );
 365:D:/fchai/work/i-cube/I-CUBE-HUAWEI/Middlewares/Third_Party/Huawei/iot_link/network/dtls/mbedtls/mbedtls-2.16.2/library\sha256.c **** 
 366:D:/fchai/work/i-cube/I-CUBE-HUAWEI/Middlewares/Third_Party/Huawei/iot_link/network/dtls/mbedtls/mbedtls-2.16.2/library\sha256.c ****         memset( ctx->buffer, 0, 56 );
 367:D:/fchai/work/i-cube/I-CUBE-HUAWEI/Middlewares/Third_Party/Huawei/iot_link/network/dtls/mbedtls/mbedtls-2.16.2/library\sha256.c ****     }
 368:D:/fchai/work/i-cube/I-CUBE-HUAWEI/Middlewares/Third_Party/Huawei/iot_link/network/dtls/mbedtls/mbedtls-2.16.2/library\sha256.c **** 
 369:D:/fchai/work/i-cube/I-CUBE-HUAWEI/Middlewares/Third_Party/Huawei/iot_link/network/dtls/mbedtls/mbedtls-2.16.2/library\sha256.c ****     /*
 370:D:/fchai/work/i-cube/I-CUBE-HUAWEI/Middlewares/Third_Party/Huawei/iot_link/network/dtls/mbedtls/mbedtls-2.16.2/library\sha256.c ****      * Add message length
 371:D:/fchai/work/i-cube/I-CUBE-HUAWEI/Middlewares/Third_Party/Huawei/iot_link/network/dtls/mbedtls/mbedtls-2.16.2/library\sha256.c ****      */
 372:D:/fchai/work/i-cube/I-CUBE-HUAWEI/Middlewares/Third_Party/Huawei/iot_link/network/dtls/mbedtls/mbedtls-2.16.2/library\sha256.c ****     high = ( ctx->total[0] >> 29 )
 1961              		.loc 1 372 5 is_stmt 1 view .LVU640
 373:D:/fchai/work/i-cube/I-CUBE-HUAWEI/Middlewares/Third_Party/Huawei/iot_link/network/dtls/mbedtls/mbedtls-2.16.2/library\sha256.c ****          | ( ctx->total[1] <<  3 );
 1962              		.loc 1 373 28 is_stmt 0 view .LVU641
 1963 002c D4E90031 		ldrd	r3, r1, [r4]
 372:D:/fchai/work/i-cube/I-CUBE-HUAWEI/Middlewares/Third_Party/Huawei/iot_link/network/dtls/mbedtls/mbedtls-2.16.2/library\sha256.c ****          | ( ctx->total[1] <<  3 );
 1964              		.loc 1 372 28 view .LVU642
 1965 0030 5A0F     		lsrs	r2, r3, #29
 372:D:/fchai/work/i-cube/I-CUBE-HUAWEI/Middlewares/Third_Party/Huawei/iot_link/network/dtls/mbedtls/mbedtls-2.16.2/library\sha256.c ****          | ( ctx->total[1] <<  3 );
 1966              		.loc 1 372 10 view .LVU643
 1967 0032 42EAC102 		orr	r2, r2, r1, lsl #3
 374:D:/fchai/work/i-cube/I-CUBE-HUAWEI/Middlewares/Third_Party/Huawei/iot_link/network/dtls/mbedtls/mbedtls-2.16.2/library\sha256.c ****     low  = ( ctx->total[0] <<  3 );
 1968              		.loc 1 374 10 view .LVU644
 1969 0036 DB00     		lsls	r3, r3, #3
 1970 0038 1BBA     		rev	r3, r3
 1971 003a 12BA     		rev	r2, r2
 375:D:/fchai/work/i-cube/I-CUBE-HUAWEI/Middlewares/Third_Party/Huawei/iot_link/network/dtls/mbedtls/mbedtls-2.16.2/library\sha256.c **** 
 376:D:/fchai/work/i-cube/I-CUBE-HUAWEI/Middlewares/Third_Party/Huawei/iot_link/network/dtls/mbedtls/mbedtls-2.16.2/library\sha256.c ****     PUT_UINT32_BE( high, ctx->buffer, 56 );
 1972              		.loc 1 376 5 view .LVU645
 1973 003c C4E91823 		strd	r2, r3, [r4, #96]
 1974              		.loc 1 376 5 is_stmt 1 view .LVU646
 377:D:/fchai/work/i-cube/I-CUBE-HUAWEI/Middlewares/Third_Party/Huawei/iot_link/network/dtls/mbedtls/mbedtls-2.16.2/library\sha256.c ****     PUT_UINT32_BE( low,  ctx->buffer, 60 );
 1975              		.loc 1 377 5 view .LVU647
 1976              		.loc 1 377 5 view .LVU648
 1977              		.loc 1 377 5 view .LVU649
 1978              		.loc 1 377 5 view .LVU650
 1979              		.loc 1 377 5 view .LVU651
 1980              		.loc 1 377 5 view .LVU652
 378:D:/fchai/work/i-cube/I-CUBE-HUAWEI/Middlewares/Third_Party/Huawei/iot_link/network/dtls/mbedtls/mbedtls-2.16.2/library\sha256.c **** 
 379:D:/fchai/work/i-cube/I-CUBE-HUAWEI/Middlewares/Third_Party/Huawei/iot_link/network/dtls/mbedtls/mbedtls-2.16.2/library\sha256.c ****     if( ( ret = mbedtls_internal_sha256_process( ctx, ctx->buffer ) ) != 0 )
 1981              		.loc 1 379 5 view .LVU653
 1982              		.loc 1 379 17 is_stmt 0 view .LVU654
ARM GAS  T:\msys\tmp\ccLh2YRr.s 			page 49


 1983 0040 3146     		mov	r1, r6
 1984 0042 2046     		mov	r0, r4
 1985 0044 FFF7FEFF 		bl	mbedtls_internal_sha256_process
 1986              	.LVL91:
 1987              		.loc 1 379 7 view .LVU655
 1988 0048 0028     		cmp	r0, #0
 1989 004a 4BD1     		bne	.L64
 380:D:/fchai/work/i-cube/I-CUBE-HUAWEI/Middlewares/Third_Party/Huawei/iot_link/network/dtls/mbedtls/mbedtls-2.16.2/library\sha256.c ****         return( ret );
 381:D:/fchai/work/i-cube/I-CUBE-HUAWEI/Middlewares/Third_Party/Huawei/iot_link/network/dtls/mbedtls/mbedtls-2.16.2/library\sha256.c **** 
 382:D:/fchai/work/i-cube/I-CUBE-HUAWEI/Middlewares/Third_Party/Huawei/iot_link/network/dtls/mbedtls/mbedtls-2.16.2/library\sha256.c ****     /*
 383:D:/fchai/work/i-cube/I-CUBE-HUAWEI/Middlewares/Third_Party/Huawei/iot_link/network/dtls/mbedtls/mbedtls-2.16.2/library\sha256.c ****      * Output final state
 384:D:/fchai/work/i-cube/I-CUBE-HUAWEI/Middlewares/Third_Party/Huawei/iot_link/network/dtls/mbedtls/mbedtls-2.16.2/library\sha256.c ****      */
 385:D:/fchai/work/i-cube/I-CUBE-HUAWEI/Middlewares/Third_Party/Huawei/iot_link/network/dtls/mbedtls/mbedtls-2.16.2/library\sha256.c ****     PUT_UINT32_BE( ctx->state[0], output,  0 );
 1990              		.loc 1 385 5 is_stmt 1 view .LVU656
 1991              		.loc 1 385 5 view .LVU657
 1992 004c E37A     		ldrb	r3, [r4, #11]	@ zero_extendqisi2
 1993 004e 2B70     		strb	r3, [r5]
 1994              		.loc 1 385 5 view .LVU658
 1995 0050 6389     		ldrh	r3, [r4, #10]
 1996 0052 6B70     		strb	r3, [r5, #1]
 1997              		.loc 1 385 5 view .LVU659
 1998 0054 A368     		ldr	r3, [r4, #8]
 1999 0056 1B0A     		lsrs	r3, r3, #8
 2000 0058 AB70     		strb	r3, [r5, #2]
 2001              		.loc 1 385 5 view .LVU660
 2002 005a A368     		ldr	r3, [r4, #8]
 2003 005c EB70     		strb	r3, [r5, #3]
 2004              		.loc 1 385 5 view .LVU661
 386:D:/fchai/work/i-cube/I-CUBE-HUAWEI/Middlewares/Third_Party/Huawei/iot_link/network/dtls/mbedtls/mbedtls-2.16.2/library\sha256.c ****     PUT_UINT32_BE( ctx->state[1], output,  4 );
 2005              		.loc 1 386 5 view .LVU662
 2006              		.loc 1 386 5 view .LVU663
 2007 005e E37B     		ldrb	r3, [r4, #15]	@ zero_extendqisi2
 2008 0060 2B71     		strb	r3, [r5, #4]
 2009              		.loc 1 386 5 view .LVU664
 2010 0062 E389     		ldrh	r3, [r4, #14]
 2011 0064 6B71     		strb	r3, [r5, #5]
 2012              		.loc 1 386 5 view .LVU665
 2013 0066 E368     		ldr	r3, [r4, #12]
 2014 0068 1B0A     		lsrs	r3, r3, #8
 2015 006a AB71     		strb	r3, [r5, #6]
 2016              		.loc 1 386 5 view .LVU666
 2017 006c E368     		ldr	r3, [r4, #12]
 2018 006e EB71     		strb	r3, [r5, #7]
 2019              		.loc 1 386 5 view .LVU667
 387:D:/fchai/work/i-cube/I-CUBE-HUAWEI/Middlewares/Third_Party/Huawei/iot_link/network/dtls/mbedtls/mbedtls-2.16.2/library\sha256.c ****     PUT_UINT32_BE( ctx->state[2], output,  8 );
 2020              		.loc 1 387 5 view .LVU668
 2021              		.loc 1 387 5 view .LVU669
 2022 0070 E37C     		ldrb	r3, [r4, #19]	@ zero_extendqisi2
 2023 0072 2B72     		strb	r3, [r5, #8]
 2024              		.loc 1 387 5 view .LVU670
 2025 0074 638A     		ldrh	r3, [r4, #18]
 2026 0076 6B72     		strb	r3, [r5, #9]
 2027              		.loc 1 387 5 view .LVU671
 2028 0078 2369     		ldr	r3, [r4, #16]
 2029 007a 1B0A     		lsrs	r3, r3, #8
 2030 007c AB72     		strb	r3, [r5, #10]
 2031              		.loc 1 387 5 view .LVU672
ARM GAS  T:\msys\tmp\ccLh2YRr.s 			page 50


 2032 007e 2369     		ldr	r3, [r4, #16]
 2033 0080 EB72     		strb	r3, [r5, #11]
 2034              		.loc 1 387 5 view .LVU673
 388:D:/fchai/work/i-cube/I-CUBE-HUAWEI/Middlewares/Third_Party/Huawei/iot_link/network/dtls/mbedtls/mbedtls-2.16.2/library\sha256.c ****     PUT_UINT32_BE( ctx->state[3], output, 12 );
 2035              		.loc 1 388 5 view .LVU674
 2036              		.loc 1 388 5 view .LVU675
 2037 0082 E37D     		ldrb	r3, [r4, #23]	@ zero_extendqisi2
 2038 0084 2B73     		strb	r3, [r5, #12]
 2039              		.loc 1 388 5 view .LVU676
 2040 0086 E38A     		ldrh	r3, [r4, #22]
 2041 0088 6B73     		strb	r3, [r5, #13]
 2042              		.loc 1 388 5 view .LVU677
 2043 008a 6369     		ldr	r3, [r4, #20]
 2044 008c 1B0A     		lsrs	r3, r3, #8
 2045 008e AB73     		strb	r3, [r5, #14]
 2046              		.loc 1 388 5 view .LVU678
 2047 0090 6369     		ldr	r3, [r4, #20]
 2048 0092 EB73     		strb	r3, [r5, #15]
 2049              		.loc 1 388 5 view .LVU679
 389:D:/fchai/work/i-cube/I-CUBE-HUAWEI/Middlewares/Third_Party/Huawei/iot_link/network/dtls/mbedtls/mbedtls-2.16.2/library\sha256.c ****     PUT_UINT32_BE( ctx->state[4], output, 16 );
 2050              		.loc 1 389 5 view .LVU680
 2051              		.loc 1 389 5 view .LVU681
 2052 0094 E37E     		ldrb	r3, [r4, #27]	@ zero_extendqisi2
 2053 0096 2B74     		strb	r3, [r5, #16]
 2054              		.loc 1 389 5 view .LVU682
 2055 0098 638B     		ldrh	r3, [r4, #26]
 2056 009a 6B74     		strb	r3, [r5, #17]
 2057              		.loc 1 389 5 view .LVU683
 2058 009c A369     		ldr	r3, [r4, #24]
 2059 009e 1B0A     		lsrs	r3, r3, #8
 2060 00a0 AB74     		strb	r3, [r5, #18]
 2061              		.loc 1 389 5 view .LVU684
 2062 00a2 A369     		ldr	r3, [r4, #24]
 2063 00a4 EB74     		strb	r3, [r5, #19]
 2064              		.loc 1 389 5 view .LVU685
 390:D:/fchai/work/i-cube/I-CUBE-HUAWEI/Middlewares/Third_Party/Huawei/iot_link/network/dtls/mbedtls/mbedtls-2.16.2/library\sha256.c ****     PUT_UINT32_BE( ctx->state[5], output, 20 );
 2065              		.loc 1 390 5 view .LVU686
 2066              		.loc 1 390 5 view .LVU687
 2067 00a6 E37F     		ldrb	r3, [r4, #31]	@ zero_extendqisi2
 2068 00a8 2B75     		strb	r3, [r5, #20]
 2069              		.loc 1 390 5 view .LVU688
 2070 00aa E38B     		ldrh	r3, [r4, #30]
 2071 00ac 6B75     		strb	r3, [r5, #21]
 2072              		.loc 1 390 5 view .LVU689
 2073 00ae E369     		ldr	r3, [r4, #28]
 2074 00b0 1B0A     		lsrs	r3, r3, #8
 2075 00b2 AB75     		strb	r3, [r5, #22]
 2076              		.loc 1 390 5 view .LVU690
 2077 00b4 E369     		ldr	r3, [r4, #28]
 2078 00b6 EB75     		strb	r3, [r5, #23]
 2079              		.loc 1 390 5 view .LVU691
 391:D:/fchai/work/i-cube/I-CUBE-HUAWEI/Middlewares/Third_Party/Huawei/iot_link/network/dtls/mbedtls/mbedtls-2.16.2/library\sha256.c ****     PUT_UINT32_BE( ctx->state[6], output, 24 );
 2080              		.loc 1 391 5 view .LVU692
 2081              		.loc 1 391 5 view .LVU693
 2082 00b8 94F82330 		ldrb	r3, [r4, #35]	@ zero_extendqisi2
 2083 00bc 2B76     		strb	r3, [r5, #24]
 2084              		.loc 1 391 5 view .LVU694
ARM GAS  T:\msys\tmp\ccLh2YRr.s 			page 51


 2085 00be 638C     		ldrh	r3, [r4, #34]
 2086 00c0 6B76     		strb	r3, [r5, #25]
 2087              		.loc 1 391 5 view .LVU695
 2088 00c2 236A     		ldr	r3, [r4, #32]
 2089 00c4 1B0A     		lsrs	r3, r3, #8
 2090 00c6 AB76     		strb	r3, [r5, #26]
 2091              		.loc 1 391 5 view .LVU696
 2092 00c8 236A     		ldr	r3, [r4, #32]
 2093 00ca EB76     		strb	r3, [r5, #27]
 2094              		.loc 1 391 5 view .LVU697
 392:D:/fchai/work/i-cube/I-CUBE-HUAWEI/Middlewares/Third_Party/Huawei/iot_link/network/dtls/mbedtls/mbedtls-2.16.2/library\sha256.c **** 
 393:D:/fchai/work/i-cube/I-CUBE-HUAWEI/Middlewares/Third_Party/Huawei/iot_link/network/dtls/mbedtls/mbedtls-2.16.2/library\sha256.c ****     if( ctx->is224 == 0 )
 2095              		.loc 1 393 5 view .LVU698
 2096              		.loc 1 393 12 is_stmt 0 view .LVU699
 2097 00cc A36E     		ldr	r3, [r4, #104]
 2098              		.loc 1 393 7 view .LVU700
 2099 00ce 4BB9     		cbnz	r3, .L64
 394:D:/fchai/work/i-cube/I-CUBE-HUAWEI/Middlewares/Third_Party/Huawei/iot_link/network/dtls/mbedtls/mbedtls-2.16.2/library\sha256.c ****         PUT_UINT32_BE( ctx->state[7], output, 28 );
 2100              		.loc 1 394 9 is_stmt 1 view .LVU701
 2101              		.loc 1 394 9 view .LVU702
 2102 00d0 94F82730 		ldrb	r3, [r4, #39]	@ zero_extendqisi2
 2103 00d4 2B77     		strb	r3, [r5, #28]
 2104              		.loc 1 394 9 view .LVU703
 2105 00d6 E38C     		ldrh	r3, [r4, #38]
 2106 00d8 6B77     		strb	r3, [r5, #29]
 2107              		.loc 1 394 9 view .LVU704
 2108 00da 636A     		ldr	r3, [r4, #36]
 2109 00dc 1B0A     		lsrs	r3, r3, #8
 2110 00de AB77     		strb	r3, [r5, #30]
 2111              		.loc 1 394 9 view .LVU705
 2112 00e0 636A     		ldr	r3, [r4, #36]
 2113 00e2 EB77     		strb	r3, [r5, #31]
 2114              	.L64:
 395:D:/fchai/work/i-cube/I-CUBE-HUAWEI/Middlewares/Third_Party/Huawei/iot_link/network/dtls/mbedtls/mbedtls-2.16.2/library\sha256.c **** 
 396:D:/fchai/work/i-cube/I-CUBE-HUAWEI/Middlewares/Third_Party/Huawei/iot_link/network/dtls/mbedtls/mbedtls-2.16.2/library\sha256.c ****     return( 0 );
 397:D:/fchai/work/i-cube/I-CUBE-HUAWEI/Middlewares/Third_Party/Huawei/iot_link/network/dtls/mbedtls/mbedtls-2.16.2/library\sha256.c **** }
 2115              		.loc 1 397 1 is_stmt 0 view .LVU706
 2116 00e4 70BD     		pop	{r4, r5, r6, pc}
 2117              	.LVL92:
 2118              	.L65:
 361:D:/fchai/work/i-cube/I-CUBE-HUAWEI/Middlewares/Third_Party/Huawei/iot_link/network/dtls/mbedtls/mbedtls-2.16.2/library\sha256.c **** 
 2119              		.loc 1 361 9 is_stmt 1 view .LVU707
 2120 00e6 0021     		movs	r1, #0
 2121              	.LVL93:
 361:D:/fchai/work/i-cube/I-CUBE-HUAWEI/Middlewares/Third_Party/Huawei/iot_link/network/dtls/mbedtls/mbedtls-2.16.2/library\sha256.c **** 
 2122              		.loc 1 361 9 is_stmt 0 view .LVU708
 2123 00e8 C2F14002 		rsb	r2, r2, #64
 2124              	.LVL94:
 361:D:/fchai/work/i-cube/I-CUBE-HUAWEI/Middlewares/Third_Party/Huawei/iot_link/network/dtls/mbedtls/mbedtls-2.16.2/library\sha256.c **** 
 2125              		.loc 1 361 9 view .LVU709
 2126 00ec FFF7FEFF 		bl	memset
 2127              	.LVL95:
 363:D:/fchai/work/i-cube/I-CUBE-HUAWEI/Middlewares/Third_Party/Huawei/iot_link/network/dtls/mbedtls/mbedtls-2.16.2/library\sha256.c ****             return( ret );
 2128              		.loc 1 363 9 is_stmt 1 view .LVU710
 363:D:/fchai/work/i-cube/I-CUBE-HUAWEI/Middlewares/Third_Party/Huawei/iot_link/network/dtls/mbedtls/mbedtls-2.16.2/library\sha256.c ****             return( ret );
 2129              		.loc 1 363 21 is_stmt 0 view .LVU711
 2130 00f0 3146     		mov	r1, r6
ARM GAS  T:\msys\tmp\ccLh2YRr.s 			page 52


 2131 00f2 2046     		mov	r0, r4
 2132 00f4 FFF7FEFF 		bl	mbedtls_internal_sha256_process
 2133              	.LVL96:
 363:D:/fchai/work/i-cube/I-CUBE-HUAWEI/Middlewares/Third_Party/Huawei/iot_link/network/dtls/mbedtls/mbedtls-2.16.2/library\sha256.c ****             return( ret );
 2134              		.loc 1 363 11 view .LVU712
 2135 00f8 0028     		cmp	r0, #0
 2136 00fa F3D1     		bne	.L64
 366:D:/fchai/work/i-cube/I-CUBE-HUAWEI/Middlewares/Third_Party/Huawei/iot_link/network/dtls/mbedtls/mbedtls-2.16.2/library\sha256.c ****     }
 2137              		.loc 1 366 9 is_stmt 1 view .LVU713
 2138 00fc 0146     		mov	r1, r0
 2139 00fe 3822     		movs	r2, #56
 2140 0100 3046     		mov	r0, r6
 2141              	.LVL97:
 366:D:/fchai/work/i-cube/I-CUBE-HUAWEI/Middlewares/Third_Party/Huawei/iot_link/network/dtls/mbedtls/mbedtls-2.16.2/library\sha256.c ****     }
 2142              		.loc 1 366 9 is_stmt 0 view .LVU714
 2143 0102 FFF7FEFF 		bl	memset
 2144              	.LVL98:
 366:D:/fchai/work/i-cube/I-CUBE-HUAWEI/Middlewares/Third_Party/Huawei/iot_link/network/dtls/mbedtls/mbedtls-2.16.2/library\sha256.c ****     }
 2145              		.loc 1 366 9 view .LVU715
 2146 0106 91E7     		b	.L66
 2147              		.cfi_endproc
 2148              	.LFE9:
 2150              		.section	.text.mbedtls_sha256_finish,"ax",%progbits
 2151              		.align	1
 2152              		.p2align 2,,3
 2153              		.global	mbedtls_sha256_finish
 2154              		.syntax unified
 2155              		.thumb
 2156              		.thumb_func
 2157              		.fpu fpv4-sp-d16
 2159              	mbedtls_sha256_finish:
 2160              	.LVL99:
 2161              	.LFB10:
 398:D:/fchai/work/i-cube/I-CUBE-HUAWEI/Middlewares/Third_Party/Huawei/iot_link/network/dtls/mbedtls/mbedtls-2.16.2/library\sha256.c **** 
 399:D:/fchai/work/i-cube/I-CUBE-HUAWEI/Middlewares/Third_Party/Huawei/iot_link/network/dtls/mbedtls/mbedtls-2.16.2/library\sha256.c **** #if !defined(MBEDTLS_DEPRECATED_REMOVED)
 400:D:/fchai/work/i-cube/I-CUBE-HUAWEI/Middlewares/Third_Party/Huawei/iot_link/network/dtls/mbedtls/mbedtls-2.16.2/library\sha256.c **** void mbedtls_sha256_finish( mbedtls_sha256_context *ctx,
 401:D:/fchai/work/i-cube/I-CUBE-HUAWEI/Middlewares/Third_Party/Huawei/iot_link/network/dtls/mbedtls/mbedtls-2.16.2/library\sha256.c ****                             unsigned char output[32] )
 402:D:/fchai/work/i-cube/I-CUBE-HUAWEI/Middlewares/Third_Party/Huawei/iot_link/network/dtls/mbedtls/mbedtls-2.16.2/library\sha256.c **** {
 2162              		.loc 1 402 1 is_stmt 1 view -0
 2163              		.cfi_startproc
 2164              		@ args = 0, pretend = 0, frame = 0
 2165              		@ frame_needed = 0, uses_anonymous_args = 0
 2166              		@ link register save eliminated.
 403:D:/fchai/work/i-cube/I-CUBE-HUAWEI/Middlewares/Third_Party/Huawei/iot_link/network/dtls/mbedtls/mbedtls-2.16.2/library\sha256.c ****     mbedtls_sha256_finish_ret( ctx, output );
 2167              		.loc 1 403 5 view .LVU717
 2168 0000 FFF7FEBF 		b	mbedtls_sha256_finish_ret
 2169              	.LVL100:
 2170              		.loc 1 403 5 is_stmt 0 view .LVU718
 2171              		.cfi_endproc
 2172              	.LFE10:
 2174              		.section	.text.mbedtls_sha256_ret,"ax",%progbits
 2175              		.align	1
 2176              		.p2align 2,,3
 2177              		.global	mbedtls_sha256_ret
 2178              		.syntax unified
 2179              		.thumb
 2180              		.thumb_func
ARM GAS  T:\msys\tmp\ccLh2YRr.s 			page 53


 2181              		.fpu fpv4-sp-d16
 2183              	mbedtls_sha256_ret:
 2184              	.LVL101:
 2185              	.LFB11:
 404:D:/fchai/work/i-cube/I-CUBE-HUAWEI/Middlewares/Third_Party/Huawei/iot_link/network/dtls/mbedtls/mbedtls-2.16.2/library\sha256.c **** }
 405:D:/fchai/work/i-cube/I-CUBE-HUAWEI/Middlewares/Third_Party/Huawei/iot_link/network/dtls/mbedtls/mbedtls-2.16.2/library\sha256.c **** #endif
 406:D:/fchai/work/i-cube/I-CUBE-HUAWEI/Middlewares/Third_Party/Huawei/iot_link/network/dtls/mbedtls/mbedtls-2.16.2/library\sha256.c **** 
 407:D:/fchai/work/i-cube/I-CUBE-HUAWEI/Middlewares/Third_Party/Huawei/iot_link/network/dtls/mbedtls/mbedtls-2.16.2/library\sha256.c **** #endif /* !MBEDTLS_SHA256_ALT */
 408:D:/fchai/work/i-cube/I-CUBE-HUAWEI/Middlewares/Third_Party/Huawei/iot_link/network/dtls/mbedtls/mbedtls-2.16.2/library\sha256.c **** 
 409:D:/fchai/work/i-cube/I-CUBE-HUAWEI/Middlewares/Third_Party/Huawei/iot_link/network/dtls/mbedtls/mbedtls-2.16.2/library\sha256.c **** /*
 410:D:/fchai/work/i-cube/I-CUBE-HUAWEI/Middlewares/Third_Party/Huawei/iot_link/network/dtls/mbedtls/mbedtls-2.16.2/library\sha256.c ****  * output = SHA-256( input buffer )
 411:D:/fchai/work/i-cube/I-CUBE-HUAWEI/Middlewares/Third_Party/Huawei/iot_link/network/dtls/mbedtls/mbedtls-2.16.2/library\sha256.c ****  */
 412:D:/fchai/work/i-cube/I-CUBE-HUAWEI/Middlewares/Third_Party/Huawei/iot_link/network/dtls/mbedtls/mbedtls-2.16.2/library\sha256.c **** int mbedtls_sha256_ret( const unsigned char *input,
 413:D:/fchai/work/i-cube/I-CUBE-HUAWEI/Middlewares/Third_Party/Huawei/iot_link/network/dtls/mbedtls/mbedtls-2.16.2/library\sha256.c ****                         size_t ilen,
 414:D:/fchai/work/i-cube/I-CUBE-HUAWEI/Middlewares/Third_Party/Huawei/iot_link/network/dtls/mbedtls/mbedtls-2.16.2/library\sha256.c ****                         unsigned char output[32],
 415:D:/fchai/work/i-cube/I-CUBE-HUAWEI/Middlewares/Third_Party/Huawei/iot_link/network/dtls/mbedtls/mbedtls-2.16.2/library\sha256.c ****                         int is224 )
 416:D:/fchai/work/i-cube/I-CUBE-HUAWEI/Middlewares/Third_Party/Huawei/iot_link/network/dtls/mbedtls/mbedtls-2.16.2/library\sha256.c **** {
 2186              		.loc 1 416 1 is_stmt 1 view -0
 2187              		.cfi_startproc
 2188              		@ args = 0, pretend = 0, frame = 112
 2189              		@ frame_needed = 0, uses_anonymous_args = 0
 417:D:/fchai/work/i-cube/I-CUBE-HUAWEI/Middlewares/Third_Party/Huawei/iot_link/network/dtls/mbedtls/mbedtls-2.16.2/library\sha256.c ****     int ret;
 2190              		.loc 1 417 5 view .LVU720
 418:D:/fchai/work/i-cube/I-CUBE-HUAWEI/Middlewares/Third_Party/Huawei/iot_link/network/dtls/mbedtls/mbedtls-2.16.2/library\sha256.c ****     mbedtls_sha256_context ctx;
 2191              		.loc 1 418 5 view .LVU721
 419:D:/fchai/work/i-cube/I-CUBE-HUAWEI/Middlewares/Third_Party/Huawei/iot_link/network/dtls/mbedtls/mbedtls-2.16.2/library\sha256.c **** 
 420:D:/fchai/work/i-cube/I-CUBE-HUAWEI/Middlewares/Third_Party/Huawei/iot_link/network/dtls/mbedtls/mbedtls-2.16.2/library\sha256.c ****     SHA256_VALIDATE_RET( is224 == 0 || is224 == 1 );
 2192              		.loc 1 420 5 view .LVU722
 2193              		.loc 1 420 5 view .LVU723
 2194              		.loc 1 420 5 view .LVU724
 421:D:/fchai/work/i-cube/I-CUBE-HUAWEI/Middlewares/Third_Party/Huawei/iot_link/network/dtls/mbedtls/mbedtls-2.16.2/library\sha256.c ****     SHA256_VALIDATE_RET( ilen == 0 || input != NULL );
 2195              		.loc 1 421 5 view .LVU725
 2196              		.loc 1 421 5 view .LVU726
 2197              		.loc 1 421 5 view .LVU727
 422:D:/fchai/work/i-cube/I-CUBE-HUAWEI/Middlewares/Third_Party/Huawei/iot_link/network/dtls/mbedtls/mbedtls-2.16.2/library\sha256.c ****     SHA256_VALIDATE_RET( (unsigned char *)output != NULL );
 2198              		.loc 1 422 5 view .LVU728
 2199              		.loc 1 422 5 view .LVU729
 2200              		.loc 1 422 5 view .LVU730
 423:D:/fchai/work/i-cube/I-CUBE-HUAWEI/Middlewares/Third_Party/Huawei/iot_link/network/dtls/mbedtls/mbedtls-2.16.2/library\sha256.c **** 
 424:D:/fchai/work/i-cube/I-CUBE-HUAWEI/Middlewares/Third_Party/Huawei/iot_link/network/dtls/mbedtls/mbedtls-2.16.2/library\sha256.c ****     mbedtls_sha256_init( &ctx );
 2201              		.loc 1 424 5 view .LVU731
 416:D:/fchai/work/i-cube/I-CUBE-HUAWEI/Middlewares/Third_Party/Huawei/iot_link/network/dtls/mbedtls/mbedtls-2.16.2/library\sha256.c ****     int ret;
 2202              		.loc 1 416 1 is_stmt 0 view .LVU732
 2203 0000 2DE9F041 		push	{r4, r5, r6, r7, r8, lr}
 2204              	.LCFI14:
 2205              		.cfi_def_cfa_offset 24
 2206              		.cfi_offset 4, -24
 2207              		.cfi_offset 5, -20
 2208              		.cfi_offset 6, -16
 2209              		.cfi_offset 7, -12
 2210              		.cfi_offset 8, -8
 2211              		.cfi_offset 14, -4
 2212 0004 9CB0     		sub	sp, sp, #112
 2213              	.LCFI15:
 2214              		.cfi_def_cfa_offset 136
 2215              	.LVL102:
 2216              	.LBB22:
ARM GAS  T:\msys\tmp\ccLh2YRr.s 			page 54


 2217              	.LBI22:
  81:D:/fchai/work/i-cube/I-CUBE-HUAWEI/Middlewares/Third_Party/Huawei/iot_link/network/dtls/mbedtls/mbedtls-2.16.2/library\sha256.c **** {
 2218              		.loc 1 81 6 is_stmt 1 view .LVU733
 2219              	.LBB23:
  83:D:/fchai/work/i-cube/I-CUBE-HUAWEI/Middlewares/Third_Party/Huawei/iot_link/network/dtls/mbedtls/mbedtls-2.16.2/library\sha256.c **** 
 2220              		.loc 1 83 5 view .LVU734
