ARM GAS  T:\msys\tmp\ccv76qhU.s 			page 1


   1              		.cpu cortex-m4
   2              		.eabi_attribute 27, 1
   3              		.eabi_attribute 28, 1
   4              		.eabi_attribute 20, 1
   5              		.eabi_attribute 21, 1
   6              		.eabi_attribute 23, 3
   7              		.eabi_attribute 24, 1
   8              		.eabi_attribute 25, 1
   9              		.eabi_attribute 26, 1
  10              		.eabi_attribute 30, 2
  11              		.eabi_attribute 34, 1
  12              		.eabi_attribute 18, 4
  13              		.file	"ssl_cookie.c"
  14              		.text
  15              	.Ltext0:
  16              		.cfi_sections	.debug_frame
  17              		.section	.text.ssl_cookie_hmac,"ax",%progbits
  18              		.align	1
  19              		.p2align 2,,3
  20              		.arch armv7e-m
  21              		.syntax unified
  22              		.thumb
  23              		.thumb_func
  24              		.fpu fpv4-sp-d16
  26              	ssl_cookie_hmac:
  27              	.LVL0:
  28              	.LFB28:
  29              		.file 1 "D:/fchai/work/i-cube/I-CUBE-HUAWEI/Middlewares/Third_Party/Huawei/iot_link/network/dtls/m
   1:D:/fchai/work/i-cube/I-CUBE-HUAWEI/Middlewares/Third_Party/Huawei/iot_link/network/dtls/mbedtls/mbedtls-2.16.2/library\ssl_cookie.c **** /*
   2:D:/fchai/work/i-cube/I-CUBE-HUAWEI/Middlewares/Third_Party/Huawei/iot_link/network/dtls/mbedtls/mbedtls-2.16.2/library\ssl_cookie.c ****  *  DTLS cookie callbacks implementation
   3:D:/fchai/work/i-cube/I-CUBE-HUAWEI/Middlewares/Third_Party/Huawei/iot_link/network/dtls/mbedtls/mbedtls-2.16.2/library\ssl_cookie.c ****  *
   4:D:/fchai/work/i-cube/I-CUBE-HUAWEI/Middlewares/Third_Party/Huawei/iot_link/network/dtls/mbedtls/mbedtls-2.16.2/library\ssl_cookie.c ****  *  Copyright (C) 2006-2015, ARM Limited, All Rights Reserved
   5:D:/fchai/work/i-cube/I-CUBE-HUAWEI/Middlewares/Third_Party/Huawei/iot_link/network/dtls/mbedtls/mbedtls-2.16.2/library\ssl_cookie.c ****  *  SPDX-License-Identifier: Apache-2.0
   6:D:/fchai/work/i-cube/I-CUBE-HUAWEI/Middlewares/Third_Party/Huawei/iot_link/network/dtls/mbedtls/mbedtls-2.16.2/library\ssl_cookie.c ****  *
   7:D:/fchai/work/i-cube/I-CUBE-HUAWEI/Middlewares/Third_Party/Huawei/iot_link/network/dtls/mbedtls/mbedtls-2.16.2/library\ssl_cookie.c ****  *  Licensed under the Apache License, Version 2.0 (the "License"); you may
   8:D:/fchai/work/i-cube/I-CUBE-HUAWEI/Middlewares/Third_Party/Huawei/iot_link/network/dtls/mbedtls/mbedtls-2.16.2/library\ssl_cookie.c ****  *  not use this file except in compliance with the License.
   9:D:/fchai/work/i-cube/I-CUBE-HUAWEI/Middlewares/Third_Party/Huawei/iot_link/network/dtls/mbedtls/mbedtls-2.16.2/library\ssl_cookie.c ****  *  You may obtain a copy of the License at
  10:D:/fchai/work/i-cube/I-CUBE-HUAWEI/Middlewares/Third_Party/Huawei/iot_link/network/dtls/mbedtls/mbedtls-2.16.2/library\ssl_cookie.c ****  *
  11:D:/fchai/work/i-cube/I-CUBE-HUAWEI/Middlewares/Third_Party/Huawei/iot_link/network/dtls/mbedtls/mbedtls-2.16.2/library\ssl_cookie.c ****  *  http://www.apache.org/licenses/LICENSE-2.0
  12:D:/fchai/work/i-cube/I-CUBE-HUAWEI/Middlewares/Third_Party/Huawei/iot_link/network/dtls/mbedtls/mbedtls-2.16.2/library\ssl_cookie.c ****  *
  13:D:/fchai/work/i-cube/I-CUBE-HUAWEI/Middlewares/Third_Party/Huawei/iot_link/network/dtls/mbedtls/mbedtls-2.16.2/library\ssl_cookie.c ****  *  Unless required by applicable law or agreed to in writing, software
  14:D:/fchai/work/i-cube/I-CUBE-HUAWEI/Middlewares/Third_Party/Huawei/iot_link/network/dtls/mbedtls/mbedtls-2.16.2/library\ssl_cookie.c ****  *  distributed under the License is distributed on an "AS IS" BASIS, WITHOUT
  15:D:/fchai/work/i-cube/I-CUBE-HUAWEI/Middlewares/Third_Party/Huawei/iot_link/network/dtls/mbedtls/mbedtls-2.16.2/library\ssl_cookie.c ****  *  WARRANTIES OR CONDITIONS OF ANY KIND, either express or implied.
  16:D:/fchai/work/i-cube/I-CUBE-HUAWEI/Middlewares/Third_Party/Huawei/iot_link/network/dtls/mbedtls/mbedtls-2.16.2/library\ssl_cookie.c ****  *  See the License for the specific language governing permissions and
  17:D:/fchai/work/i-cube/I-CUBE-HUAWEI/Middlewares/Third_Party/Huawei/iot_link/network/dtls/mbedtls/mbedtls-2.16.2/library\ssl_cookie.c ****  *  limitations under the License.
  18:D:/fchai/work/i-cube/I-CUBE-HUAWEI/Middlewares/Third_Party/Huawei/iot_link/network/dtls/mbedtls/mbedtls-2.16.2/library\ssl_cookie.c ****  *
  19:D:/fchai/work/i-cube/I-CUBE-HUAWEI/Middlewares/Third_Party/Huawei/iot_link/network/dtls/mbedtls/mbedtls-2.16.2/library\ssl_cookie.c ****  *  This file is part of mbed TLS (https://tls.mbed.org)
  20:D:/fchai/work/i-cube/I-CUBE-HUAWEI/Middlewares/Third_Party/Huawei/iot_link/network/dtls/mbedtls/mbedtls-2.16.2/library\ssl_cookie.c ****  */
  21:D:/fchai/work/i-cube/I-CUBE-HUAWEI/Middlewares/Third_Party/Huawei/iot_link/network/dtls/mbedtls/mbedtls-2.16.2/library\ssl_cookie.c **** /*
  22:D:/fchai/work/i-cube/I-CUBE-HUAWEI/Middlewares/Third_Party/Huawei/iot_link/network/dtls/mbedtls/mbedtls-2.16.2/library\ssl_cookie.c ****  * These session callbacks use a simple chained list
  23:D:/fchai/work/i-cube/I-CUBE-HUAWEI/Middlewares/Third_Party/Huawei/iot_link/network/dtls/mbedtls/mbedtls-2.16.2/library\ssl_cookie.c ****  * to store and retrieve the session information.
  24:D:/fchai/work/i-cube/I-CUBE-HUAWEI/Middlewares/Third_Party/Huawei/iot_link/network/dtls/mbedtls/mbedtls-2.16.2/library\ssl_cookie.c ****  */
  25:D:/fchai/work/i-cube/I-CUBE-HUAWEI/Middlewares/Third_Party/Huawei/iot_link/network/dtls/mbedtls/mbedtls-2.16.2/library\ssl_cookie.c **** 
  26:D:/fchai/work/i-cube/I-CUBE-HUAWEI/Middlewares/Third_Party/Huawei/iot_link/network/dtls/mbedtls/mbedtls-2.16.2/library\ssl_cookie.c **** #if !defined(MBEDTLS_CONFIG_FILE)
  27:D:/fchai/work/i-cube/I-CUBE-HUAWEI/Middlewares/Third_Party/Huawei/iot_link/network/dtls/mbedtls/mbedtls-2.16.2/library\ssl_cookie.c **** #include "mbedtls/config.h"
  28:D:/fchai/work/i-cube/I-CUBE-HUAWEI/Middlewares/Third_Party/Huawei/iot_link/network/dtls/mbedtls/mbedtls-2.16.2/library\ssl_cookie.c **** #else
  29:D:/fchai/work/i-cube/I-CUBE-HUAWEI/Middlewares/Third_Party/Huawei/iot_link/network/dtls/mbedtls/mbedtls-2.16.2/library\ssl_cookie.c **** #include MBEDTLS_CONFIG_FILE
ARM GAS  T:\msys\tmp\ccv76qhU.s 			page 2


  30:D:/fchai/work/i-cube/I-CUBE-HUAWEI/Middlewares/Third_Party/Huawei/iot_link/network/dtls/mbedtls/mbedtls-2.16.2/library\ssl_cookie.c **** #endif
  31:D:/fchai/work/i-cube/I-CUBE-HUAWEI/Middlewares/Third_Party/Huawei/iot_link/network/dtls/mbedtls/mbedtls-2.16.2/library\ssl_cookie.c **** 
  32:D:/fchai/work/i-cube/I-CUBE-HUAWEI/Middlewares/Third_Party/Huawei/iot_link/network/dtls/mbedtls/mbedtls-2.16.2/library\ssl_cookie.c **** #if defined(MBEDTLS_SSL_COOKIE_C)
  33:D:/fchai/work/i-cube/I-CUBE-HUAWEI/Middlewares/Third_Party/Huawei/iot_link/network/dtls/mbedtls/mbedtls-2.16.2/library\ssl_cookie.c **** 
  34:D:/fchai/work/i-cube/I-CUBE-HUAWEI/Middlewares/Third_Party/Huawei/iot_link/network/dtls/mbedtls/mbedtls-2.16.2/library\ssl_cookie.c **** #if defined(MBEDTLS_PLATFORM_C)
  35:D:/fchai/work/i-cube/I-CUBE-HUAWEI/Middlewares/Third_Party/Huawei/iot_link/network/dtls/mbedtls/mbedtls-2.16.2/library\ssl_cookie.c **** #include "mbedtls/platform.h"
  36:D:/fchai/work/i-cube/I-CUBE-HUAWEI/Middlewares/Third_Party/Huawei/iot_link/network/dtls/mbedtls/mbedtls-2.16.2/library\ssl_cookie.c **** #else
  37:D:/fchai/work/i-cube/I-CUBE-HUAWEI/Middlewares/Third_Party/Huawei/iot_link/network/dtls/mbedtls/mbedtls-2.16.2/library\ssl_cookie.c **** #define mbedtls_calloc    calloc
  38:D:/fchai/work/i-cube/I-CUBE-HUAWEI/Middlewares/Third_Party/Huawei/iot_link/network/dtls/mbedtls/mbedtls-2.16.2/library\ssl_cookie.c **** #define mbedtls_free      free
  39:D:/fchai/work/i-cube/I-CUBE-HUAWEI/Middlewares/Third_Party/Huawei/iot_link/network/dtls/mbedtls/mbedtls-2.16.2/library\ssl_cookie.c **** #endif
  40:D:/fchai/work/i-cube/I-CUBE-HUAWEI/Middlewares/Third_Party/Huawei/iot_link/network/dtls/mbedtls/mbedtls-2.16.2/library\ssl_cookie.c **** 
  41:D:/fchai/work/i-cube/I-CUBE-HUAWEI/Middlewares/Third_Party/Huawei/iot_link/network/dtls/mbedtls/mbedtls-2.16.2/library\ssl_cookie.c **** #include "mbedtls/ssl_cookie.h"
  42:D:/fchai/work/i-cube/I-CUBE-HUAWEI/Middlewares/Third_Party/Huawei/iot_link/network/dtls/mbedtls/mbedtls-2.16.2/library\ssl_cookie.c **** #include "mbedtls/ssl_internal.h"
  43:D:/fchai/work/i-cube/I-CUBE-HUAWEI/Middlewares/Third_Party/Huawei/iot_link/network/dtls/mbedtls/mbedtls-2.16.2/library\ssl_cookie.c **** #include "mbedtls/platform_util.h"
  44:D:/fchai/work/i-cube/I-CUBE-HUAWEI/Middlewares/Third_Party/Huawei/iot_link/network/dtls/mbedtls/mbedtls-2.16.2/library\ssl_cookie.c **** 
  45:D:/fchai/work/i-cube/I-CUBE-HUAWEI/Middlewares/Third_Party/Huawei/iot_link/network/dtls/mbedtls/mbedtls-2.16.2/library\ssl_cookie.c **** #include <string.h>
  46:D:/fchai/work/i-cube/I-CUBE-HUAWEI/Middlewares/Third_Party/Huawei/iot_link/network/dtls/mbedtls/mbedtls-2.16.2/library\ssl_cookie.c **** 
  47:D:/fchai/work/i-cube/I-CUBE-HUAWEI/Middlewares/Third_Party/Huawei/iot_link/network/dtls/mbedtls/mbedtls-2.16.2/library\ssl_cookie.c **** /*
  48:D:/fchai/work/i-cube/I-CUBE-HUAWEI/Middlewares/Third_Party/Huawei/iot_link/network/dtls/mbedtls/mbedtls-2.16.2/library\ssl_cookie.c ****  * If DTLS is in use, then at least one of SHA-1, SHA-256, SHA-512 is
  49:D:/fchai/work/i-cube/I-CUBE-HUAWEI/Middlewares/Third_Party/Huawei/iot_link/network/dtls/mbedtls/mbedtls-2.16.2/library\ssl_cookie.c ****  * available. Try SHA-256 first, 512 wastes resources since we need to stay
  50:D:/fchai/work/i-cube/I-CUBE-HUAWEI/Middlewares/Third_Party/Huawei/iot_link/network/dtls/mbedtls/mbedtls-2.16.2/library\ssl_cookie.c ****  * with max 32 bytes of cookie for DTLS 1.0
  51:D:/fchai/work/i-cube/I-CUBE-HUAWEI/Middlewares/Third_Party/Huawei/iot_link/network/dtls/mbedtls/mbedtls-2.16.2/library\ssl_cookie.c ****  */
  52:D:/fchai/work/i-cube/I-CUBE-HUAWEI/Middlewares/Third_Party/Huawei/iot_link/network/dtls/mbedtls/mbedtls-2.16.2/library\ssl_cookie.c **** #if defined(MBEDTLS_SHA256_C)
  53:D:/fchai/work/i-cube/I-CUBE-HUAWEI/Middlewares/Third_Party/Huawei/iot_link/network/dtls/mbedtls/mbedtls-2.16.2/library\ssl_cookie.c **** #define COOKIE_MD           MBEDTLS_MD_SHA224
  54:D:/fchai/work/i-cube/I-CUBE-HUAWEI/Middlewares/Third_Party/Huawei/iot_link/network/dtls/mbedtls/mbedtls-2.16.2/library\ssl_cookie.c **** #define COOKIE_MD_OUTLEN    32
  55:D:/fchai/work/i-cube/I-CUBE-HUAWEI/Middlewares/Third_Party/Huawei/iot_link/network/dtls/mbedtls/mbedtls-2.16.2/library\ssl_cookie.c **** #define COOKIE_HMAC_LEN     28
  56:D:/fchai/work/i-cube/I-CUBE-HUAWEI/Middlewares/Third_Party/Huawei/iot_link/network/dtls/mbedtls/mbedtls-2.16.2/library\ssl_cookie.c **** #elif defined(MBEDTLS_SHA512_C)
  57:D:/fchai/work/i-cube/I-CUBE-HUAWEI/Middlewares/Third_Party/Huawei/iot_link/network/dtls/mbedtls/mbedtls-2.16.2/library\ssl_cookie.c **** #define COOKIE_MD           MBEDTLS_MD_SHA384
  58:D:/fchai/work/i-cube/I-CUBE-HUAWEI/Middlewares/Third_Party/Huawei/iot_link/network/dtls/mbedtls/mbedtls-2.16.2/library\ssl_cookie.c **** #define COOKIE_MD_OUTLEN    48
  59:D:/fchai/work/i-cube/I-CUBE-HUAWEI/Middlewares/Third_Party/Huawei/iot_link/network/dtls/mbedtls/mbedtls-2.16.2/library\ssl_cookie.c **** #define COOKIE_HMAC_LEN     28
  60:D:/fchai/work/i-cube/I-CUBE-HUAWEI/Middlewares/Third_Party/Huawei/iot_link/network/dtls/mbedtls/mbedtls-2.16.2/library\ssl_cookie.c **** #elif defined(MBEDTLS_SHA1_C)
  61:D:/fchai/work/i-cube/I-CUBE-HUAWEI/Middlewares/Third_Party/Huawei/iot_link/network/dtls/mbedtls/mbedtls-2.16.2/library\ssl_cookie.c **** #define COOKIE_MD           MBEDTLS_MD_SHA1
  62:D:/fchai/work/i-cube/I-CUBE-HUAWEI/Middlewares/Third_Party/Huawei/iot_link/network/dtls/mbedtls/mbedtls-2.16.2/library\ssl_cookie.c **** #define COOKIE_MD_OUTLEN    20
  63:D:/fchai/work/i-cube/I-CUBE-HUAWEI/Middlewares/Third_Party/Huawei/iot_link/network/dtls/mbedtls/mbedtls-2.16.2/library\ssl_cookie.c **** #define COOKIE_HMAC_LEN     20
  64:D:/fchai/work/i-cube/I-CUBE-HUAWEI/Middlewares/Third_Party/Huawei/iot_link/network/dtls/mbedtls/mbedtls-2.16.2/library\ssl_cookie.c **** #else
  65:D:/fchai/work/i-cube/I-CUBE-HUAWEI/Middlewares/Third_Party/Huawei/iot_link/network/dtls/mbedtls/mbedtls-2.16.2/library\ssl_cookie.c **** #error "DTLS hello verify needs SHA-1 or SHA-2"
  66:D:/fchai/work/i-cube/I-CUBE-HUAWEI/Middlewares/Third_Party/Huawei/iot_link/network/dtls/mbedtls/mbedtls-2.16.2/library\ssl_cookie.c **** #endif
  67:D:/fchai/work/i-cube/I-CUBE-HUAWEI/Middlewares/Third_Party/Huawei/iot_link/network/dtls/mbedtls/mbedtls-2.16.2/library\ssl_cookie.c **** 
  68:D:/fchai/work/i-cube/I-CUBE-HUAWEI/Middlewares/Third_Party/Huawei/iot_link/network/dtls/mbedtls/mbedtls-2.16.2/library\ssl_cookie.c **** /*
  69:D:/fchai/work/i-cube/I-CUBE-HUAWEI/Middlewares/Third_Party/Huawei/iot_link/network/dtls/mbedtls/mbedtls-2.16.2/library\ssl_cookie.c ****  * Cookies are formed of a 4-bytes timestamp (or serial number) and
  70:D:/fchai/work/i-cube/I-CUBE-HUAWEI/Middlewares/Third_Party/Huawei/iot_link/network/dtls/mbedtls/mbedtls-2.16.2/library\ssl_cookie.c ****  * an HMAC of timestemp and client ID.
  71:D:/fchai/work/i-cube/I-CUBE-HUAWEI/Middlewares/Third_Party/Huawei/iot_link/network/dtls/mbedtls/mbedtls-2.16.2/library\ssl_cookie.c ****  */
  72:D:/fchai/work/i-cube/I-CUBE-HUAWEI/Middlewares/Third_Party/Huawei/iot_link/network/dtls/mbedtls/mbedtls-2.16.2/library\ssl_cookie.c **** #define COOKIE_LEN      ( 4 + COOKIE_HMAC_LEN )
  73:D:/fchai/work/i-cube/I-CUBE-HUAWEI/Middlewares/Third_Party/Huawei/iot_link/network/dtls/mbedtls/mbedtls-2.16.2/library\ssl_cookie.c **** 
  74:D:/fchai/work/i-cube/I-CUBE-HUAWEI/Middlewares/Third_Party/Huawei/iot_link/network/dtls/mbedtls/mbedtls-2.16.2/library\ssl_cookie.c **** void mbedtls_ssl_cookie_init( mbedtls_ssl_cookie_ctx *ctx )
  75:D:/fchai/work/i-cube/I-CUBE-HUAWEI/Middlewares/Third_Party/Huawei/iot_link/network/dtls/mbedtls/mbedtls-2.16.2/library\ssl_cookie.c **** {
  76:D:/fchai/work/i-cube/I-CUBE-HUAWEI/Middlewares/Third_Party/Huawei/iot_link/network/dtls/mbedtls/mbedtls-2.16.2/library\ssl_cookie.c ****     mbedtls_md_init( &ctx->hmac_ctx );
  77:D:/fchai/work/i-cube/I-CUBE-HUAWEI/Middlewares/Third_Party/Huawei/iot_link/network/dtls/mbedtls/mbedtls-2.16.2/library\ssl_cookie.c **** #if !defined(MBEDTLS_HAVE_TIME)
  78:D:/fchai/work/i-cube/I-CUBE-HUAWEI/Middlewares/Third_Party/Huawei/iot_link/network/dtls/mbedtls/mbedtls-2.16.2/library\ssl_cookie.c ****     ctx->serial = 0;
  79:D:/fchai/work/i-cube/I-CUBE-HUAWEI/Middlewares/Third_Party/Huawei/iot_link/network/dtls/mbedtls/mbedtls-2.16.2/library\ssl_cookie.c **** #endif
  80:D:/fchai/work/i-cube/I-CUBE-HUAWEI/Middlewares/Third_Party/Huawei/iot_link/network/dtls/mbedtls/mbedtls-2.16.2/library\ssl_cookie.c ****     ctx->timeout = MBEDTLS_SSL_COOKIE_TIMEOUT;
  81:D:/fchai/work/i-cube/I-CUBE-HUAWEI/Middlewares/Third_Party/Huawei/iot_link/network/dtls/mbedtls/mbedtls-2.16.2/library\ssl_cookie.c **** 
  82:D:/fchai/work/i-cube/I-CUBE-HUAWEI/Middlewares/Third_Party/Huawei/iot_link/network/dtls/mbedtls/mbedtls-2.16.2/library\ssl_cookie.c **** #if defined(MBEDTLS_THREADING_C)
  83:D:/fchai/work/i-cube/I-CUBE-HUAWEI/Middlewares/Third_Party/Huawei/iot_link/network/dtls/mbedtls/mbedtls-2.16.2/library\ssl_cookie.c ****     mbedtls_mutex_init( &ctx->mutex );
  84:D:/fchai/work/i-cube/I-CUBE-HUAWEI/Middlewares/Third_Party/Huawei/iot_link/network/dtls/mbedtls/mbedtls-2.16.2/library\ssl_cookie.c **** #endif
  85:D:/fchai/work/i-cube/I-CUBE-HUAWEI/Middlewares/Third_Party/Huawei/iot_link/network/dtls/mbedtls/mbedtls-2.16.2/library\ssl_cookie.c **** }
  86:D:/fchai/work/i-cube/I-CUBE-HUAWEI/Middlewares/Third_Party/Huawei/iot_link/network/dtls/mbedtls/mbedtls-2.16.2/library\ssl_cookie.c **** 
ARM GAS  T:\msys\tmp\ccv76qhU.s 			page 3


  87:D:/fchai/work/i-cube/I-CUBE-HUAWEI/Middlewares/Third_Party/Huawei/iot_link/network/dtls/mbedtls/mbedtls-2.16.2/library\ssl_cookie.c **** void mbedtls_ssl_cookie_set_timeout( mbedtls_ssl_cookie_ctx *ctx, unsigned long delay )
  88:D:/fchai/work/i-cube/I-CUBE-HUAWEI/Middlewares/Third_Party/Huawei/iot_link/network/dtls/mbedtls/mbedtls-2.16.2/library\ssl_cookie.c **** {
  89:D:/fchai/work/i-cube/I-CUBE-HUAWEI/Middlewares/Third_Party/Huawei/iot_link/network/dtls/mbedtls/mbedtls-2.16.2/library\ssl_cookie.c ****     ctx->timeout = delay;
  90:D:/fchai/work/i-cube/I-CUBE-HUAWEI/Middlewares/Third_Party/Huawei/iot_link/network/dtls/mbedtls/mbedtls-2.16.2/library\ssl_cookie.c **** }
  91:D:/fchai/work/i-cube/I-CUBE-HUAWEI/Middlewares/Third_Party/Huawei/iot_link/network/dtls/mbedtls/mbedtls-2.16.2/library\ssl_cookie.c **** 
  92:D:/fchai/work/i-cube/I-CUBE-HUAWEI/Middlewares/Third_Party/Huawei/iot_link/network/dtls/mbedtls/mbedtls-2.16.2/library\ssl_cookie.c **** void mbedtls_ssl_cookie_free( mbedtls_ssl_cookie_ctx *ctx )
  93:D:/fchai/work/i-cube/I-CUBE-HUAWEI/Middlewares/Third_Party/Huawei/iot_link/network/dtls/mbedtls/mbedtls-2.16.2/library\ssl_cookie.c **** {
  94:D:/fchai/work/i-cube/I-CUBE-HUAWEI/Middlewares/Third_Party/Huawei/iot_link/network/dtls/mbedtls/mbedtls-2.16.2/library\ssl_cookie.c ****     mbedtls_md_free( &ctx->hmac_ctx );
  95:D:/fchai/work/i-cube/I-CUBE-HUAWEI/Middlewares/Third_Party/Huawei/iot_link/network/dtls/mbedtls/mbedtls-2.16.2/library\ssl_cookie.c **** 
  96:D:/fchai/work/i-cube/I-CUBE-HUAWEI/Middlewares/Third_Party/Huawei/iot_link/network/dtls/mbedtls/mbedtls-2.16.2/library\ssl_cookie.c **** #if defined(MBEDTLS_THREADING_C)
  97:D:/fchai/work/i-cube/I-CUBE-HUAWEI/Middlewares/Third_Party/Huawei/iot_link/network/dtls/mbedtls/mbedtls-2.16.2/library\ssl_cookie.c ****     mbedtls_mutex_free( &ctx->mutex );
  98:D:/fchai/work/i-cube/I-CUBE-HUAWEI/Middlewares/Third_Party/Huawei/iot_link/network/dtls/mbedtls/mbedtls-2.16.2/library\ssl_cookie.c **** #endif
  99:D:/fchai/work/i-cube/I-CUBE-HUAWEI/Middlewares/Third_Party/Huawei/iot_link/network/dtls/mbedtls/mbedtls-2.16.2/library\ssl_cookie.c **** 
 100:D:/fchai/work/i-cube/I-CUBE-HUAWEI/Middlewares/Third_Party/Huawei/iot_link/network/dtls/mbedtls/mbedtls-2.16.2/library\ssl_cookie.c ****     mbedtls_platform_zeroize( ctx, sizeof( mbedtls_ssl_cookie_ctx ) );
 101:D:/fchai/work/i-cube/I-CUBE-HUAWEI/Middlewares/Third_Party/Huawei/iot_link/network/dtls/mbedtls/mbedtls-2.16.2/library\ssl_cookie.c **** }
 102:D:/fchai/work/i-cube/I-CUBE-HUAWEI/Middlewares/Third_Party/Huawei/iot_link/network/dtls/mbedtls/mbedtls-2.16.2/library\ssl_cookie.c **** 
 103:D:/fchai/work/i-cube/I-CUBE-HUAWEI/Middlewares/Third_Party/Huawei/iot_link/network/dtls/mbedtls/mbedtls-2.16.2/library\ssl_cookie.c **** int mbedtls_ssl_cookie_setup( mbedtls_ssl_cookie_ctx *ctx,
 104:D:/fchai/work/i-cube/I-CUBE-HUAWEI/Middlewares/Third_Party/Huawei/iot_link/network/dtls/mbedtls/mbedtls-2.16.2/library\ssl_cookie.c ****                       int (*f_rng)(void *, unsigned char *, size_t),
 105:D:/fchai/work/i-cube/I-CUBE-HUAWEI/Middlewares/Third_Party/Huawei/iot_link/network/dtls/mbedtls/mbedtls-2.16.2/library\ssl_cookie.c ****                       void *p_rng )
 106:D:/fchai/work/i-cube/I-CUBE-HUAWEI/Middlewares/Third_Party/Huawei/iot_link/network/dtls/mbedtls/mbedtls-2.16.2/library\ssl_cookie.c **** {
 107:D:/fchai/work/i-cube/I-CUBE-HUAWEI/Middlewares/Third_Party/Huawei/iot_link/network/dtls/mbedtls/mbedtls-2.16.2/library\ssl_cookie.c ****     int ret;
 108:D:/fchai/work/i-cube/I-CUBE-HUAWEI/Middlewares/Third_Party/Huawei/iot_link/network/dtls/mbedtls/mbedtls-2.16.2/library\ssl_cookie.c ****     unsigned char key[COOKIE_MD_OUTLEN];
 109:D:/fchai/work/i-cube/I-CUBE-HUAWEI/Middlewares/Third_Party/Huawei/iot_link/network/dtls/mbedtls/mbedtls-2.16.2/library\ssl_cookie.c **** 
 110:D:/fchai/work/i-cube/I-CUBE-HUAWEI/Middlewares/Third_Party/Huawei/iot_link/network/dtls/mbedtls/mbedtls-2.16.2/library\ssl_cookie.c ****     if( ( ret = f_rng( p_rng, key, sizeof( key ) ) ) != 0 )
 111:D:/fchai/work/i-cube/I-CUBE-HUAWEI/Middlewares/Third_Party/Huawei/iot_link/network/dtls/mbedtls/mbedtls-2.16.2/library\ssl_cookie.c ****         return( ret );
 112:D:/fchai/work/i-cube/I-CUBE-HUAWEI/Middlewares/Third_Party/Huawei/iot_link/network/dtls/mbedtls/mbedtls-2.16.2/library\ssl_cookie.c **** 
 113:D:/fchai/work/i-cube/I-CUBE-HUAWEI/Middlewares/Third_Party/Huawei/iot_link/network/dtls/mbedtls/mbedtls-2.16.2/library\ssl_cookie.c ****     ret = mbedtls_md_setup( &ctx->hmac_ctx, mbedtls_md_info_from_type( COOKIE_MD ), 1 );
 114:D:/fchai/work/i-cube/I-CUBE-HUAWEI/Middlewares/Third_Party/Huawei/iot_link/network/dtls/mbedtls/mbedtls-2.16.2/library\ssl_cookie.c ****     if( ret != 0 )
 115:D:/fchai/work/i-cube/I-CUBE-HUAWEI/Middlewares/Third_Party/Huawei/iot_link/network/dtls/mbedtls/mbedtls-2.16.2/library\ssl_cookie.c ****         return( ret );
 116:D:/fchai/work/i-cube/I-CUBE-HUAWEI/Middlewares/Third_Party/Huawei/iot_link/network/dtls/mbedtls/mbedtls-2.16.2/library\ssl_cookie.c **** 
 117:D:/fchai/work/i-cube/I-CUBE-HUAWEI/Middlewares/Third_Party/Huawei/iot_link/network/dtls/mbedtls/mbedtls-2.16.2/library\ssl_cookie.c ****     ret = mbedtls_md_hmac_starts( &ctx->hmac_ctx, key, sizeof( key ) );
 118:D:/fchai/work/i-cube/I-CUBE-HUAWEI/Middlewares/Third_Party/Huawei/iot_link/network/dtls/mbedtls/mbedtls-2.16.2/library\ssl_cookie.c ****     if( ret != 0 )
 119:D:/fchai/work/i-cube/I-CUBE-HUAWEI/Middlewares/Third_Party/Huawei/iot_link/network/dtls/mbedtls/mbedtls-2.16.2/library\ssl_cookie.c ****         return( ret );
 120:D:/fchai/work/i-cube/I-CUBE-HUAWEI/Middlewares/Third_Party/Huawei/iot_link/network/dtls/mbedtls/mbedtls-2.16.2/library\ssl_cookie.c **** 
 121:D:/fchai/work/i-cube/I-CUBE-HUAWEI/Middlewares/Third_Party/Huawei/iot_link/network/dtls/mbedtls/mbedtls-2.16.2/library\ssl_cookie.c ****     mbedtls_platform_zeroize( key, sizeof( key ) );
 122:D:/fchai/work/i-cube/I-CUBE-HUAWEI/Middlewares/Third_Party/Huawei/iot_link/network/dtls/mbedtls/mbedtls-2.16.2/library\ssl_cookie.c **** 
 123:D:/fchai/work/i-cube/I-CUBE-HUAWEI/Middlewares/Third_Party/Huawei/iot_link/network/dtls/mbedtls/mbedtls-2.16.2/library\ssl_cookie.c ****     return( 0 );
 124:D:/fchai/work/i-cube/I-CUBE-HUAWEI/Middlewares/Third_Party/Huawei/iot_link/network/dtls/mbedtls/mbedtls-2.16.2/library\ssl_cookie.c **** }
 125:D:/fchai/work/i-cube/I-CUBE-HUAWEI/Middlewares/Third_Party/Huawei/iot_link/network/dtls/mbedtls/mbedtls-2.16.2/library\ssl_cookie.c **** 
 126:D:/fchai/work/i-cube/I-CUBE-HUAWEI/Middlewares/Third_Party/Huawei/iot_link/network/dtls/mbedtls/mbedtls-2.16.2/library\ssl_cookie.c **** /*
 127:D:/fchai/work/i-cube/I-CUBE-HUAWEI/Middlewares/Third_Party/Huawei/iot_link/network/dtls/mbedtls/mbedtls-2.16.2/library\ssl_cookie.c ****  * Generate the HMAC part of a cookie
 128:D:/fchai/work/i-cube/I-CUBE-HUAWEI/Middlewares/Third_Party/Huawei/iot_link/network/dtls/mbedtls/mbedtls-2.16.2/library\ssl_cookie.c ****  */
 129:D:/fchai/work/i-cube/I-CUBE-HUAWEI/Middlewares/Third_Party/Huawei/iot_link/network/dtls/mbedtls/mbedtls-2.16.2/library\ssl_cookie.c **** static int ssl_cookie_hmac( mbedtls_md_context_t *hmac_ctx,
 130:D:/fchai/work/i-cube/I-CUBE-HUAWEI/Middlewares/Third_Party/Huawei/iot_link/network/dtls/mbedtls/mbedtls-2.16.2/library\ssl_cookie.c ****                             const unsigned char time[4],
 131:D:/fchai/work/i-cube/I-CUBE-HUAWEI/Middlewares/Third_Party/Huawei/iot_link/network/dtls/mbedtls/mbedtls-2.16.2/library\ssl_cookie.c ****                             unsigned char **p, unsigned char *end,
 132:D:/fchai/work/i-cube/I-CUBE-HUAWEI/Middlewares/Third_Party/Huawei/iot_link/network/dtls/mbedtls/mbedtls-2.16.2/library\ssl_cookie.c ****                             const unsigned char *cli_id, size_t cli_id_len )
 133:D:/fchai/work/i-cube/I-CUBE-HUAWEI/Middlewares/Third_Party/Huawei/iot_link/network/dtls/mbedtls/mbedtls-2.16.2/library\ssl_cookie.c **** {
  30              		.loc 1 133 1 view -0
  31              		.cfi_startproc
  32              		@ args = 8, pretend = 0, frame = 32
  33              		@ frame_needed = 0, uses_anonymous_args = 0
 134:D:/fchai/work/i-cube/I-CUBE-HUAWEI/Middlewares/Third_Party/Huawei/iot_link/network/dtls/mbedtls/mbedtls-2.16.2/library\ssl_cookie.c ****     unsigned char hmac_out[COOKIE_MD_OUTLEN];
  34              		.loc 1 134 5 view .LVU1
 135:D:/fchai/work/i-cube/I-CUBE-HUAWEI/Middlewares/Third_Party/Huawei/iot_link/network/dtls/mbedtls/mbedtls-2.16.2/library\ssl_cookie.c **** 
 136:D:/fchai/work/i-cube/I-CUBE-HUAWEI/Middlewares/Third_Party/Huawei/iot_link/network/dtls/mbedtls/mbedtls-2.16.2/library\ssl_cookie.c ****     if( (size_t)( end - *p ) < COOKIE_HMAC_LEN )
  35              		.loc 1 136 5 view .LVU2
 133:D:/fchai/work/i-cube/I-CUBE-HUAWEI/Middlewares/Third_Party/Huawei/iot_link/network/dtls/mbedtls/mbedtls-2.16.2/library\ssl_cookie.c ****     unsigned char hmac_out[COOKIE_MD_OUTLEN];
ARM GAS  T:\msys\tmp\ccv76qhU.s 			page 4


  36              		.loc 1 133 1 is_stmt 0 view .LVU3
  37 0000 F0B5     		push	{r4, r5, r6, r7, lr}
  38              	.LCFI0:
  39              		.cfi_def_cfa_offset 20
  40              		.cfi_offset 4, -20
  41              		.cfi_offset 5, -16
  42              		.cfi_offset 6, -12
  43              		.cfi_offset 7, -8
  44              		.cfi_offset 14, -4
  45 0002 1646     		mov	r6, r2
  46              		.loc 1 136 23 view .LVU4
  47 0004 1268     		ldr	r2, [r2]
  48              	.LVL1:
  49              		.loc 1 136 23 view .LVU5
  50 0006 9B1A     		subs	r3, r3, r2
  51              	.LVL2:
  52              		.loc 1 136 7 view .LVU6
  53 0008 1B2B     		cmp	r3, #27
 133:D:/fchai/work/i-cube/I-CUBE-HUAWEI/Middlewares/Third_Party/Huawei/iot_link/network/dtls/mbedtls/mbedtls-2.16.2/library\ssl_cookie.c ****     unsigned char hmac_out[COOKIE_MD_OUTLEN];
  54              		.loc 1 133 1 view .LVU7
  55 000a 89B0     		sub	sp, sp, #36
  56              	.LCFI1:
  57              		.cfi_def_cfa_offset 56
  58              		.loc 1 136 7 view .LVU8
  59 000c 29D9     		bls	.L5
 137:D:/fchai/work/i-cube/I-CUBE-HUAWEI/Middlewares/Third_Party/Huawei/iot_link/network/dtls/mbedtls/mbedtls-2.16.2/library\ssl_cookie.c ****         return( MBEDTLS_ERR_SSL_BUFFER_TOO_SMALL );
 138:D:/fchai/work/i-cube/I-CUBE-HUAWEI/Middlewares/Third_Party/Huawei/iot_link/network/dtls/mbedtls/mbedtls-2.16.2/library\ssl_cookie.c **** 
 139:D:/fchai/work/i-cube/I-CUBE-HUAWEI/Middlewares/Third_Party/Huawei/iot_link/network/dtls/mbedtls/mbedtls-2.16.2/library\ssl_cookie.c ****     if( mbedtls_md_hmac_reset(  hmac_ctx ) != 0 ||
  60              		.loc 1 139 5 is_stmt 1 view .LVU9
  61 000e 0D46     		mov	r5, r1
  62 0010 0446     		mov	r4, r0
  63              		.loc 1 139 9 is_stmt 0 view .LVU10
  64 0012 FFF7FEFF 		bl	mbedtls_md_hmac_reset
  65              	.LVL3:
  66              		.loc 1 139 7 view .LVU11
  67 0016 10BB     		cbnz	r0, .L4
 140:D:/fchai/work/i-cube/I-CUBE-HUAWEI/Middlewares/Third_Party/Huawei/iot_link/network/dtls/mbedtls/mbedtls-2.16.2/library\ssl_cookie.c ****         mbedtls_md_hmac_update( hmac_ctx, time, 4 ) != 0 ||
  68              		.loc 1 140 9 discriminator 1 view .LVU12
  69 0018 2946     		mov	r1, r5
  70 001a 0422     		movs	r2, #4
  71 001c 2046     		mov	r0, r4
  72 001e FFF7FEFF 		bl	mbedtls_md_hmac_update
  73              	.LVL4:
 139:D:/fchai/work/i-cube/I-CUBE-HUAWEI/Middlewares/Third_Party/Huawei/iot_link/network/dtls/mbedtls/mbedtls-2.16.2/library\ssl_cookie.c ****         mbedtls_md_hmac_update( hmac_ctx, time, 4 ) != 0 ||
  74              		.loc 1 139 49 discriminator 1 view .LVU13
  75 0022 E0B9     		cbnz	r0, .L4
 141:D:/fchai/work/i-cube/I-CUBE-HUAWEI/Middlewares/Third_Party/Huawei/iot_link/network/dtls/mbedtls/mbedtls-2.16.2/library\ssl_cookie.c ****         mbedtls_md_hmac_update( hmac_ctx, cli_id, cli_id_len ) != 0 ||
  76              		.loc 1 141 9 view .LVU14
  77 0024 DDE90E12 		ldrd	r1, r2, [sp, #56]
  78 0028 2046     		mov	r0, r4
  79 002a FFF7FEFF 		bl	mbedtls_md_hmac_update
  80              	.LVL5:
 140:D:/fchai/work/i-cube/I-CUBE-HUAWEI/Middlewares/Third_Party/Huawei/iot_link/network/dtls/mbedtls/mbedtls-2.16.2/library\ssl_cookie.c ****         mbedtls_md_hmac_update( hmac_ctx, time, 4 ) != 0 ||
  81              		.loc 1 140 58 view .LVU15
  82 002e B0B9     		cbnz	r0, .L4
 142:D:/fchai/work/i-cube/I-CUBE-HUAWEI/Middlewares/Third_Party/Huawei/iot_link/network/dtls/mbedtls/mbedtls-2.16.2/library\ssl_cookie.c ****         mbedtls_md_hmac_finish( hmac_ctx, hmac_out ) != 0 )
  83              		.loc 1 142 9 view .LVU16
ARM GAS  T:\msys\tmp\ccv76qhU.s 			page 5


  84 0030 2046     		mov	r0, r4
  85 0032 6946     		mov	r1, sp
  86 0034 FFF7FEFF 		bl	mbedtls_md_hmac_finish
  87              	.LVL6:
 141:D:/fchai/work/i-cube/I-CUBE-HUAWEI/Middlewares/Third_Party/Huawei/iot_link/network/dtls/mbedtls/mbedtls-2.16.2/library\ssl_cookie.c ****         mbedtls_md_hmac_update( hmac_ctx, cli_id, cli_id_len ) != 0 ||
  88              		.loc 1 141 69 view .LVU17
  89 0038 0746     		mov	r7, r0
  90 003a 80B9     		cbnz	r0, .L4
 143:D:/fchai/work/i-cube/I-CUBE-HUAWEI/Middlewares/Third_Party/Huawei/iot_link/network/dtls/mbedtls/mbedtls-2.16.2/library\ssl_cookie.c ****     {
 144:D:/fchai/work/i-cube/I-CUBE-HUAWEI/Middlewares/Third_Party/Huawei/iot_link/network/dtls/mbedtls/mbedtls-2.16.2/library\ssl_cookie.c ****         return( MBEDTLS_ERR_SSL_INTERNAL_ERROR );
 145:D:/fchai/work/i-cube/I-CUBE-HUAWEI/Middlewares/Third_Party/Huawei/iot_link/network/dtls/mbedtls/mbedtls-2.16.2/library\ssl_cookie.c ****     }
 146:D:/fchai/work/i-cube/I-CUBE-HUAWEI/Middlewares/Third_Party/Huawei/iot_link/network/dtls/mbedtls/mbedtls-2.16.2/library\ssl_cookie.c **** 
 147:D:/fchai/work/i-cube/I-CUBE-HUAWEI/Middlewares/Third_Party/Huawei/iot_link/network/dtls/mbedtls/mbedtls-2.16.2/library\ssl_cookie.c ****     memcpy( *p, hmac_out, COOKIE_HMAC_LEN );
  91              		.loc 1 147 5 is_stmt 1 view .LVU18
  92 003c 6C46     		mov	r4, sp
  93              	.LVL7:
  94              		.loc 1 147 5 is_stmt 0 view .LVU19
  95 003e 0FCC     		ldmia	r4!, {r0, r1, r2, r3}
  96 0040 3568     		ldr	r5, [r6]
  97              	.LVL8:
  98              		.loc 1 147 5 view .LVU20
  99 0042 2860     		str	r0, [r5]	@ unaligned
 100 0044 6960     		str	r1, [r5, #4]	@ unaligned
 101 0046 AA60     		str	r2, [r5, #8]	@ unaligned
 102 0048 EB60     		str	r3, [r5, #12]	@ unaligned
 103 004a 07CC     		ldmia	r4!, {r0, r1, r2}
 104 004c 2861     		str	r0, [r5, #16]	@ unaligned
 105 004e 6961     		str	r1, [r5, #20]	@ unaligned
 106 0050 AA61     		str	r2, [r5, #24]	@ unaligned
 148:D:/fchai/work/i-cube/I-CUBE-HUAWEI/Middlewares/Third_Party/Huawei/iot_link/network/dtls/mbedtls/mbedtls-2.16.2/library\ssl_cookie.c ****     *p += COOKIE_HMAC_LEN;
 107              		.loc 1 148 5 is_stmt 1 view .LVU21
 108              		.loc 1 148 8 is_stmt 0 view .LVU22
 109 0052 3368     		ldr	r3, [r6]
 110 0054 1C33     		adds	r3, r3, #28
 111 0056 3360     		str	r3, [r6]
 149:D:/fchai/work/i-cube/I-CUBE-HUAWEI/Middlewares/Third_Party/Huawei/iot_link/network/dtls/mbedtls/mbedtls-2.16.2/library\ssl_cookie.c **** 
 150:D:/fchai/work/i-cube/I-CUBE-HUAWEI/Middlewares/Third_Party/Huawei/iot_link/network/dtls/mbedtls/mbedtls-2.16.2/library\ssl_cookie.c ****     return( 0 );
 112              		.loc 1 150 5 is_stmt 1 view .LVU23
 113              	.L1:
 151:D:/fchai/work/i-cube/I-CUBE-HUAWEI/Middlewares/Third_Party/Huawei/iot_link/network/dtls/mbedtls/mbedtls-2.16.2/library\ssl_cookie.c **** }
 114              		.loc 1 151 1 is_stmt 0 view .LVU24
 115 0058 3846     		mov	r0, r7
 116 005a 09B0     		add	sp, sp, #36
 117              	.LCFI2:
 118              		.cfi_remember_state
 119              		.cfi_def_cfa_offset 20
 120              		@ sp needed
 121 005c F0BD     		pop	{r4, r5, r6, r7, pc}
 122              	.LVL9:
 123              	.L4:
 124              	.LCFI3:
 125              		.cfi_restore_state
 144:D:/fchai/work/i-cube/I-CUBE-HUAWEI/Middlewares/Third_Party/Huawei/iot_link/network/dtls/mbedtls/mbedtls-2.16.2/library\ssl_cookie.c ****     }
 126              		.loc 1 144 15 view .LVU25
 127 005e 024F     		ldr	r7, .L8
 128 0060 FAE7     		b	.L1
 129              	.LVL10:
ARM GAS  T:\msys\tmp\ccv76qhU.s 			page 6


 130              	.L5:
 137:D:/fchai/work/i-cube/I-CUBE-HUAWEI/Middlewares/Third_Party/Huawei/iot_link/network/dtls/mbedtls/mbedtls-2.16.2/library\ssl_cookie.c **** 
 131              		.loc 1 137 15 view .LVU26
 132 0062 024F     		ldr	r7, .L8+4
 133 0064 F8E7     		b	.L1
 134              	.L9:
 135 0066 00BF     		.align	2
 136              	.L8:
 137 0068 0094FFFF 		.word	-27648
 138 006c 0096FFFF 		.word	-27136
 139              		.cfi_endproc
 140              	.LFE28:
 142              		.section	.text.mbedtls_ssl_cookie_init,"ax",%progbits
 143              		.align	1
 144              		.p2align 2,,3
 145              		.global	mbedtls_ssl_cookie_init
 146              		.syntax unified
 147              		.thumb
 148              		.thumb_func
 149              		.fpu fpv4-sp-d16
 151              	mbedtls_ssl_cookie_init:
 152              	.LVL11:
 153              	.LFB24:
  75:D:/fchai/work/i-cube/I-CUBE-HUAWEI/Middlewares/Third_Party/Huawei/iot_link/network/dtls/mbedtls/mbedtls-2.16.2/library\ssl_cookie.c ****     mbedtls_md_init( &ctx->hmac_ctx );
 154              		.loc 1 75 1 is_stmt 1 view -0
 155              		.cfi_startproc
 156              		@ args = 0, pretend = 0, frame = 0
 157              		@ frame_needed = 0, uses_anonymous_args = 0
  76:D:/fchai/work/i-cube/I-CUBE-HUAWEI/Middlewares/Third_Party/Huawei/iot_link/network/dtls/mbedtls/mbedtls-2.16.2/library\ssl_cookie.c **** #if !defined(MBEDTLS_HAVE_TIME)
 158              		.loc 1 76 5 view .LVU28
  75:D:/fchai/work/i-cube/I-CUBE-HUAWEI/Middlewares/Third_Party/Huawei/iot_link/network/dtls/mbedtls/mbedtls-2.16.2/library\ssl_cookie.c ****     mbedtls_md_init( &ctx->hmac_ctx );
 159              		.loc 1 75 1 is_stmt 0 view .LVU29
 160 0000 10B5     		push	{r4, lr}
 161              	.LCFI4:
 162              		.cfi_def_cfa_offset 8
 163              		.cfi_offset 4, -8
 164              		.cfi_offset 14, -4
  75:D:/fchai/work/i-cube/I-CUBE-HUAWEI/Middlewares/Third_Party/Huawei/iot_link/network/dtls/mbedtls/mbedtls-2.16.2/library\ssl_cookie.c ****     mbedtls_md_init( &ctx->hmac_ctx );
 165              		.loc 1 75 1 view .LVU30
 166 0002 0446     		mov	r4, r0
  76:D:/fchai/work/i-cube/I-CUBE-HUAWEI/Middlewares/Third_Party/Huawei/iot_link/network/dtls/mbedtls/mbedtls-2.16.2/library\ssl_cookie.c **** #if !defined(MBEDTLS_HAVE_TIME)
 167              		.loc 1 76 5 view .LVU31
 168 0004 FFF7FEFF 		bl	mbedtls_md_init
 169              	.LVL12:
  78:D:/fchai/work/i-cube/I-CUBE-HUAWEI/Middlewares/Third_Party/Huawei/iot_link/network/dtls/mbedtls/mbedtls-2.16.2/library\ssl_cookie.c **** #endif
 170              		.loc 1 78 5 is_stmt 1 view .LVU32
  80:D:/fchai/work/i-cube/I-CUBE-HUAWEI/Middlewares/Third_Party/Huawei/iot_link/network/dtls/mbedtls/mbedtls-2.16.2/library\ssl_cookie.c **** 
 171              		.loc 1 80 18 is_stmt 0 view .LVU33
 172 0008 0022     		movs	r2, #0
 173 000a 3C23     		movs	r3, #60
 174 000c C4E90323 		strd	r2, r3, [r4, #12]
  85:D:/fchai/work/i-cube/I-CUBE-HUAWEI/Middlewares/Third_Party/Huawei/iot_link/network/dtls/mbedtls/mbedtls-2.16.2/library\ssl_cookie.c **** 
 175              		.loc 1 85 1 view .LVU34
 176 0010 10BD     		pop	{r4, pc}
  85:D:/fchai/work/i-cube/I-CUBE-HUAWEI/Middlewares/Third_Party/Huawei/iot_link/network/dtls/mbedtls/mbedtls-2.16.2/library\ssl_cookie.c **** 
 177              		.loc 1 85 1 view .LVU35
 178              		.cfi_endproc
ARM GAS  T:\msys\tmp\ccv76qhU.s 			page 7


 179              	.LFE24:
 181 0012 00BF     		.section	.text.mbedtls_ssl_cookie_set_timeout,"ax",%progbits
 182              		.align	1
 183              		.p2align 2,,3
 184              		.global	mbedtls_ssl_cookie_set_timeout
 185              		.syntax unified
 186              		.thumb
 187              		.thumb_func
 188              		.fpu fpv4-sp-d16
 190              	mbedtls_ssl_cookie_set_timeout:
 191              	.LVL13:
 192              	.LFB25:
  88:D:/fchai/work/i-cube/I-CUBE-HUAWEI/Middlewares/Third_Party/Huawei/iot_link/network/dtls/mbedtls/mbedtls-2.16.2/library\ssl_cookie.c ****     ctx->timeout = delay;
 193              		.loc 1 88 1 is_stmt 1 view -0
 194              		.cfi_startproc
 195              		@ args = 0, pretend = 0, frame = 0
 196              		@ frame_needed = 0, uses_anonymous_args = 0
 197              		@ link register save eliminated.
  89:D:/fchai/work/i-cube/I-CUBE-HUAWEI/Middlewares/Third_Party/Huawei/iot_link/network/dtls/mbedtls/mbedtls-2.16.2/library\ssl_cookie.c **** }
 198              		.loc 1 89 5 view .LVU37
  89:D:/fchai/work/i-cube/I-CUBE-HUAWEI/Middlewares/Third_Party/Huawei/iot_link/network/dtls/mbedtls/mbedtls-2.16.2/library\ssl_cookie.c **** }
 199              		.loc 1 89 18 is_stmt 0 view .LVU38
 200 0000 0161     		str	r1, [r0, #16]
  90:D:/fchai/work/i-cube/I-CUBE-HUAWEI/Middlewares/Third_Party/Huawei/iot_link/network/dtls/mbedtls/mbedtls-2.16.2/library\ssl_cookie.c **** 
 201              		.loc 1 90 1 view .LVU39
 202 0002 7047     		bx	lr
 203              		.cfi_endproc
 204              	.LFE25:
 206              		.section	.text.mbedtls_ssl_cookie_free,"ax",%progbits
 207              		.align	1
 208              		.p2align 2,,3
 209              		.global	mbedtls_ssl_cookie_free
 210              		.syntax unified
 211              		.thumb
 212              		.thumb_func
 213              		.fpu fpv4-sp-d16
 215              	mbedtls_ssl_cookie_free:
 216              	.LVL14:
 217              	.LFB26:
  93:D:/fchai/work/i-cube/I-CUBE-HUAWEI/Middlewares/Third_Party/Huawei/iot_link/network/dtls/mbedtls/mbedtls-2.16.2/library\ssl_cookie.c ****     mbedtls_md_free( &ctx->hmac_ctx );
 218              		.loc 1 93 1 is_stmt 1 view -0
 219              		.cfi_startproc
 220              		@ args = 0, pretend = 0, frame = 0
 221              		@ frame_needed = 0, uses_anonymous_args = 0
  94:D:/fchai/work/i-cube/I-CUBE-HUAWEI/Middlewares/Third_Party/Huawei/iot_link/network/dtls/mbedtls/mbedtls-2.16.2/library\ssl_cookie.c **** 
 222              		.loc 1 94 5 view .LVU41
  93:D:/fchai/work/i-cube/I-CUBE-HUAWEI/Middlewares/Third_Party/Huawei/iot_link/network/dtls/mbedtls/mbedtls-2.16.2/library\ssl_cookie.c ****     mbedtls_md_free( &ctx->hmac_ctx );
 223              		.loc 1 93 1 is_stmt 0 view .LVU42
 224 0000 10B5     		push	{r4, lr}
 225              	.LCFI5:
 226              		.cfi_def_cfa_offset 8
 227              		.cfi_offset 4, -8
 228              		.cfi_offset 14, -4
  93:D:/fchai/work/i-cube/I-CUBE-HUAWEI/Middlewares/Third_Party/Huawei/iot_link/network/dtls/mbedtls/mbedtls-2.16.2/library\ssl_cookie.c ****     mbedtls_md_free( &ctx->hmac_ctx );
 229              		.loc 1 93 1 view .LVU43
 230 0002 0446     		mov	r4, r0
  94:D:/fchai/work/i-cube/I-CUBE-HUAWEI/Middlewares/Third_Party/Huawei/iot_link/network/dtls/mbedtls/mbedtls-2.16.2/library\ssl_cookie.c **** 
ARM GAS  T:\msys\tmp\ccv76qhU.s 			page 8


 231              		.loc 1 94 5 view .LVU44
 232 0004 FFF7FEFF 		bl	mbedtls_md_free
 233              	.LVL15:
 100:D:/fchai/work/i-cube/I-CUBE-HUAWEI/Middlewares/Third_Party/Huawei/iot_link/network/dtls/mbedtls/mbedtls-2.16.2/library\ssl_cookie.c **** }
 234              		.loc 1 100 5 is_stmt 1 view .LVU45
 235 0008 2046     		mov	r0, r4
 236 000a 1421     		movs	r1, #20
 101:D:/fchai/work/i-cube/I-CUBE-HUAWEI/Middlewares/Third_Party/Huawei/iot_link/network/dtls/mbedtls/mbedtls-2.16.2/library\ssl_cookie.c **** 
 237              		.loc 1 101 1 is_stmt 0 view .LVU46
 238 000c BDE81040 		pop	{r4, lr}
 239              	.LCFI6:
 240              		.cfi_restore 14
 241              		.cfi_restore 4
 242              		.cfi_def_cfa_offset 0
 243              	.LVL16:
 100:D:/fchai/work/i-cube/I-CUBE-HUAWEI/Middlewares/Third_Party/Huawei/iot_link/network/dtls/mbedtls/mbedtls-2.16.2/library\ssl_cookie.c **** }
 244              		.loc 1 100 5 view .LVU47
 245 0010 FFF7FEBF 		b	mbedtls_platform_zeroize
 246              	.LVL17:
 100:D:/fchai/work/i-cube/I-CUBE-HUAWEI/Middlewares/Third_Party/Huawei/iot_link/network/dtls/mbedtls/mbedtls-2.16.2/library\ssl_cookie.c **** }
 247              		.loc 1 100 5 view .LVU48
 248              		.cfi_endproc
 249              	.LFE26:
 251              		.section	.text.mbedtls_ssl_cookie_setup,"ax",%progbits
 252              		.align	1
 253              		.p2align 2,,3
 254              		.global	mbedtls_ssl_cookie_setup
 255              		.syntax unified
 256              		.thumb
 257              		.thumb_func
 258              		.fpu fpv4-sp-d16
 260              	mbedtls_ssl_cookie_setup:
 261              	.LVL18:
 262              	.LFB27:
 106:D:/fchai/work/i-cube/I-CUBE-HUAWEI/Middlewares/Third_Party/Huawei/iot_link/network/dtls/mbedtls/mbedtls-2.16.2/library\ssl_cookie.c ****     int ret;
 263              		.loc 1 106 1 is_stmt 1 view -0
 264              		.cfi_startproc
 265              		@ args = 0, pretend = 0, frame = 32
 266              		@ frame_needed = 0, uses_anonymous_args = 0
 107:D:/fchai/work/i-cube/I-CUBE-HUAWEI/Middlewares/Third_Party/Huawei/iot_link/network/dtls/mbedtls/mbedtls-2.16.2/library\ssl_cookie.c ****     unsigned char key[COOKIE_MD_OUTLEN];
 267              		.loc 1 107 5 view .LVU50
 108:D:/fchai/work/i-cube/I-CUBE-HUAWEI/Middlewares/Third_Party/Huawei/iot_link/network/dtls/mbedtls/mbedtls-2.16.2/library\ssl_cookie.c **** 
 268              		.loc 1 108 5 view .LVU51
 110:D:/fchai/work/i-cube/I-CUBE-HUAWEI/Middlewares/Third_Party/Huawei/iot_link/network/dtls/mbedtls/mbedtls-2.16.2/library\ssl_cookie.c ****         return( ret );
 269              		.loc 1 110 5 view .LVU52
 106:D:/fchai/work/i-cube/I-CUBE-HUAWEI/Middlewares/Third_Party/Huawei/iot_link/network/dtls/mbedtls/mbedtls-2.16.2/library\ssl_cookie.c ****     int ret;
 270              		.loc 1 106 1 is_stmt 0 view .LVU53
 271 0000 30B5     		push	{r4, r5, lr}
 272              	.LCFI7:
 273              		.cfi_def_cfa_offset 12
 274              		.cfi_offset 4, -12
 275              		.cfi_offset 5, -8
 276              		.cfi_offset 14, -4
 277 0002 89B0     		sub	sp, sp, #36
 278              	.LCFI8:
 279              		.cfi_def_cfa_offset 48
 106:D:/fchai/work/i-cube/I-CUBE-HUAWEI/Middlewares/Third_Party/Huawei/iot_link/network/dtls/mbedtls/mbedtls-2.16.2/library\ssl_cookie.c ****     int ret;
ARM GAS  T:\msys\tmp\ccv76qhU.s 			page 9


 280              		.loc 1 106 1 view .LVU54
 281 0004 0C46     		mov	r4, r1
 282 0006 0546     		mov	r5, r0
 110:D:/fchai/work/i-cube/I-CUBE-HUAWEI/Middlewares/Third_Party/Huawei/iot_link/network/dtls/mbedtls/mbedtls-2.16.2/library\ssl_cookie.c ****         return( ret );
 283              		.loc 1 110 17 view .LVU55
 284 0008 6946     		mov	r1, sp
 285              	.LVL19:
 110:D:/fchai/work/i-cube/I-CUBE-HUAWEI/Middlewares/Third_Party/Huawei/iot_link/network/dtls/mbedtls/mbedtls-2.16.2/library\ssl_cookie.c ****         return( ret );
 286              		.loc 1 110 17 view .LVU56
 287 000a 1046     		mov	r0, r2
 288              	.LVL20:
 110:D:/fchai/work/i-cube/I-CUBE-HUAWEI/Middlewares/Third_Party/Huawei/iot_link/network/dtls/mbedtls/mbedtls-2.16.2/library\ssl_cookie.c ****         return( ret );
 289              		.loc 1 110 17 view .LVU57
 290 000c 2022     		movs	r2, #32
 291              	.LVL21:
 110:D:/fchai/work/i-cube/I-CUBE-HUAWEI/Middlewares/Third_Party/Huawei/iot_link/network/dtls/mbedtls/mbedtls-2.16.2/library\ssl_cookie.c ****         return( ret );
 292              		.loc 1 110 17 view .LVU58
 293 000e A047     		blx	r4
 294              	.LVL22:
 110:D:/fchai/work/i-cube/I-CUBE-HUAWEI/Middlewares/Third_Party/Huawei/iot_link/network/dtls/mbedtls/mbedtls-2.16.2/library\ssl_cookie.c ****         return( ret );
 295              		.loc 1 110 7 view .LVU59
 296 0010 0446     		mov	r4, r0
 297              	.LVL23:
 110:D:/fchai/work/i-cube/I-CUBE-HUAWEI/Middlewares/Third_Party/Huawei/iot_link/network/dtls/mbedtls/mbedtls-2.16.2/library\ssl_cookie.c ****         return( ret );
 298              		.loc 1 110 7 view .LVU60
 299 0012 10B1     		cbz	r0, .L18
 300              	.L15:
 124:D:/fchai/work/i-cube/I-CUBE-HUAWEI/Middlewares/Third_Party/Huawei/iot_link/network/dtls/mbedtls/mbedtls-2.16.2/library\ssl_cookie.c **** 
 301              		.loc 1 124 1 view .LVU61
 302 0014 2046     		mov	r0, r4
 303              	.LVL24:
 124:D:/fchai/work/i-cube/I-CUBE-HUAWEI/Middlewares/Third_Party/Huawei/iot_link/network/dtls/mbedtls/mbedtls-2.16.2/library\ssl_cookie.c **** 
 304              		.loc 1 124 1 view .LVU62
 305 0016 09B0     		add	sp, sp, #36
 306              	.LCFI9:
 307              		.cfi_remember_state
 308              		.cfi_def_cfa_offset 12
 309              		@ sp needed
 310 0018 30BD     		pop	{r4, r5, pc}
 311              	.LVL25:
 312              	.L18:
 313              	.LCFI10:
 314              		.cfi_restore_state
 113:D:/fchai/work/i-cube/I-CUBE-HUAWEI/Middlewares/Third_Party/Huawei/iot_link/network/dtls/mbedtls/mbedtls-2.16.2/library\ssl_cookie.c ****     if( ret != 0 )
 315              		.loc 1 113 5 is_stmt 1 view .LVU63
 113:D:/fchai/work/i-cube/I-CUBE-HUAWEI/Middlewares/Third_Party/Huawei/iot_link/network/dtls/mbedtls/mbedtls-2.16.2/library\ssl_cookie.c ****     if( ret != 0 )
 316              		.loc 1 113 11 is_stmt 0 view .LVU64
 317 001a 0520     		movs	r0, #5
 318              	.LVL26:
 113:D:/fchai/work/i-cube/I-CUBE-HUAWEI/Middlewares/Third_Party/Huawei/iot_link/network/dtls/mbedtls/mbedtls-2.16.2/library\ssl_cookie.c ****     if( ret != 0 )
 319              		.loc 1 113 11 view .LVU65
 320 001c FFF7FEFF 		bl	mbedtls_md_info_from_type
 321              	.LVL27:
 322 0020 0122     		movs	r2, #1
 323 0022 0146     		mov	r1, r0
 324 0024 2846     		mov	r0, r5
 325 0026 FFF7FEFF 		bl	mbedtls_md_setup
ARM GAS  T:\msys\tmp\ccv76qhU.s 			page 10


 326              	.LVL28:
 114:D:/fchai/work/i-cube/I-CUBE-HUAWEI/Middlewares/Third_Party/Huawei/iot_link/network/dtls/mbedtls/mbedtls-2.16.2/library\ssl_cookie.c ****         return( ret );
 327              		.loc 1 114 5 is_stmt 1 view .LVU66
 114:D:/fchai/work/i-cube/I-CUBE-HUAWEI/Middlewares/Third_Party/Huawei/iot_link/network/dtls/mbedtls/mbedtls-2.16.2/library\ssl_cookie.c ****         return( ret );
 328              		.loc 1 114 7 is_stmt 0 view .LVU67
 329 002a 0446     		mov	r4, r0
 330 002c 0028     		cmp	r0, #0
 331 002e F1D1     		bne	.L15
 117:D:/fchai/work/i-cube/I-CUBE-HUAWEI/Middlewares/Third_Party/Huawei/iot_link/network/dtls/mbedtls/mbedtls-2.16.2/library\ssl_cookie.c ****     if( ret != 0 )
 332              		.loc 1 117 5 is_stmt 1 view .LVU68
 117:D:/fchai/work/i-cube/I-CUBE-HUAWEI/Middlewares/Third_Party/Huawei/iot_link/network/dtls/mbedtls/mbedtls-2.16.2/library\ssl_cookie.c ****     if( ret != 0 )
 333              		.loc 1 117 11 is_stmt 0 view .LVU69
 334 0030 2846     		mov	r0, r5
 335              	.LVL29:
 117:D:/fchai/work/i-cube/I-CUBE-HUAWEI/Middlewares/Third_Party/Huawei/iot_link/network/dtls/mbedtls/mbedtls-2.16.2/library\ssl_cookie.c ****     if( ret != 0 )
 336              		.loc 1 117 11 view .LVU70
 337 0032 2022     		movs	r2, #32
 338 0034 6946     		mov	r1, sp
 339 0036 FFF7FEFF 		bl	mbedtls_md_hmac_starts
 340              	.LVL30:
 118:D:/fchai/work/i-cube/I-CUBE-HUAWEI/Middlewares/Third_Party/Huawei/iot_link/network/dtls/mbedtls/mbedtls-2.16.2/library\ssl_cookie.c ****         return( ret );
 341              		.loc 1 118 5 is_stmt 1 view .LVU71
 118:D:/fchai/work/i-cube/I-CUBE-HUAWEI/Middlewares/Third_Party/Huawei/iot_link/network/dtls/mbedtls/mbedtls-2.16.2/library\ssl_cookie.c ****         return( ret );
 342              		.loc 1 118 7 is_stmt 0 view .LVU72
 343 003a 0446     		mov	r4, r0
 344 003c 0028     		cmp	r0, #0
 345 003e E9D1     		bne	.L15
 121:D:/fchai/work/i-cube/I-CUBE-HUAWEI/Middlewares/Third_Party/Huawei/iot_link/network/dtls/mbedtls/mbedtls-2.16.2/library\ssl_cookie.c **** 
 346              		.loc 1 121 5 is_stmt 1 view .LVU73
 347 0040 6846     		mov	r0, sp
 348              	.LVL31:
 121:D:/fchai/work/i-cube/I-CUBE-HUAWEI/Middlewares/Third_Party/Huawei/iot_link/network/dtls/mbedtls/mbedtls-2.16.2/library\ssl_cookie.c **** 
 349              		.loc 1 121 5 is_stmt 0 view .LVU74
 350 0042 2021     		movs	r1, #32
 351 0044 FFF7FEFF 		bl	mbedtls_platform_zeroize
 352              	.LVL32:
 123:D:/fchai/work/i-cube/I-CUBE-HUAWEI/Middlewares/Third_Party/Huawei/iot_link/network/dtls/mbedtls/mbedtls-2.16.2/library\ssl_cookie.c **** }
 353              		.loc 1 123 5 is_stmt 1 view .LVU75
 124:D:/fchai/work/i-cube/I-CUBE-HUAWEI/Middlewares/Third_Party/Huawei/iot_link/network/dtls/mbedtls/mbedtls-2.16.2/library\ssl_cookie.c **** 
 354              		.loc 1 124 1 is_stmt 0 view .LVU76
 355 0048 2046     		mov	r0, r4
 356 004a 09B0     		add	sp, sp, #36
 357              	.LCFI11:
 358              		.cfi_def_cfa_offset 12
 359              		@ sp needed
 360 004c 30BD     		pop	{r4, r5, pc}
 124:D:/fchai/work/i-cube/I-CUBE-HUAWEI/Middlewares/Third_Party/Huawei/iot_link/network/dtls/mbedtls/mbedtls-2.16.2/library\ssl_cookie.c **** 
 361              		.loc 1 124 1 view .LVU77
 362              		.cfi_endproc
 363              	.LFE27:
 365 004e 00BF     		.section	.text.mbedtls_ssl_cookie_write,"ax",%progbits
 366              		.align	1
 367              		.p2align 2,,3
 368              		.global	mbedtls_ssl_cookie_write
 369              		.syntax unified
 370              		.thumb
 371              		.thumb_func
ARM GAS  T:\msys\tmp\ccv76qhU.s 			page 11


 372              		.fpu fpv4-sp-d16
 374              	mbedtls_ssl_cookie_write:
 375              	.LVL33:
 376              	.LFB29:
 152:D:/fchai/work/i-cube/I-CUBE-HUAWEI/Middlewares/Third_Party/Huawei/iot_link/network/dtls/mbedtls/mbedtls-2.16.2/library\ssl_cookie.c **** 
 153:D:/fchai/work/i-cube/I-CUBE-HUAWEI/Middlewares/Third_Party/Huawei/iot_link/network/dtls/mbedtls/mbedtls-2.16.2/library\ssl_cookie.c **** /*
 154:D:/fchai/work/i-cube/I-CUBE-HUAWEI/Middlewares/Third_Party/Huawei/iot_link/network/dtls/mbedtls/mbedtls-2.16.2/library\ssl_cookie.c ****  * Generate cookie for DTLS ClientHello verification
 155:D:/fchai/work/i-cube/I-CUBE-HUAWEI/Middlewares/Third_Party/Huawei/iot_link/network/dtls/mbedtls/mbedtls-2.16.2/library\ssl_cookie.c ****  */
 156:D:/fchai/work/i-cube/I-CUBE-HUAWEI/Middlewares/Third_Party/Huawei/iot_link/network/dtls/mbedtls/mbedtls-2.16.2/library\ssl_cookie.c **** int mbedtls_ssl_cookie_write( void *p_ctx,
 157:D:/fchai/work/i-cube/I-CUBE-HUAWEI/Middlewares/Third_Party/Huawei/iot_link/network/dtls/mbedtls/mbedtls-2.16.2/library\ssl_cookie.c ****                       unsigned char **p, unsigned char *end,
 158:D:/fchai/work/i-cube/I-CUBE-HUAWEI/Middlewares/Third_Party/Huawei/iot_link/network/dtls/mbedtls/mbedtls-2.16.2/library\ssl_cookie.c ****                       const unsigned char *cli_id, size_t cli_id_len )
 159:D:/fchai/work/i-cube/I-CUBE-HUAWEI/Middlewares/Third_Party/Huawei/iot_link/network/dtls/mbedtls/mbedtls-2.16.2/library\ssl_cookie.c **** {
 377              		.loc 1 159 1 is_stmt 1 view -0
 378              		.cfi_startproc
 379              		@ args = 4, pretend = 0, frame = 0
 380              		@ frame_needed = 0, uses_anonymous_args = 0
 160:D:/fchai/work/i-cube/I-CUBE-HUAWEI/Middlewares/Third_Party/Huawei/iot_link/network/dtls/mbedtls/mbedtls-2.16.2/library\ssl_cookie.c ****     int ret;
 381              		.loc 1 160 5 view .LVU79
 161:D:/fchai/work/i-cube/I-CUBE-HUAWEI/Middlewares/Third_Party/Huawei/iot_link/network/dtls/mbedtls/mbedtls-2.16.2/library\ssl_cookie.c ****     mbedtls_ssl_cookie_ctx *ctx = (mbedtls_ssl_cookie_ctx *) p_ctx;
 382              		.loc 1 161 5 view .LVU80
 162:D:/fchai/work/i-cube/I-CUBE-HUAWEI/Middlewares/Third_Party/Huawei/iot_link/network/dtls/mbedtls/mbedtls-2.16.2/library\ssl_cookie.c ****     unsigned long t;
 383              		.loc 1 162 5 view .LVU81
 163:D:/fchai/work/i-cube/I-CUBE-HUAWEI/Middlewares/Third_Party/Huawei/iot_link/network/dtls/mbedtls/mbedtls-2.16.2/library\ssl_cookie.c **** 
 164:D:/fchai/work/i-cube/I-CUBE-HUAWEI/Middlewares/Third_Party/Huawei/iot_link/network/dtls/mbedtls/mbedtls-2.16.2/library\ssl_cookie.c ****     if( ctx == NULL || cli_id == NULL )
 384              		.loc 1 164 5 view .LVU82
 385              		.loc 1 164 7 is_stmt 0 view .LVU83
 386 0000 38B3     		cbz	r0, .L21
 159:D:/fchai/work/i-cube/I-CUBE-HUAWEI/Middlewares/Third_Party/Huawei/iot_link/network/dtls/mbedtls/mbedtls-2.16.2/library\ssl_cookie.c ****     int ret;
 387              		.loc 1 159 1 discriminator 1 view .LVU84
 388 0002 F0B5     		push	{r4, r5, r6, r7, lr}
 389              	.LCFI12:
 390              		.cfi_def_cfa_offset 20
 391              		.cfi_offset 4, -20
 392              		.cfi_offset 5, -16
 393              		.cfi_offset 6, -12
 394              		.cfi_offset 7, -8
 395              		.cfi_offset 14, -4
 396 0004 1E46     		mov	r6, r3
 397 0006 83B0     		sub	sp, sp, #12
 398              	.LCFI13:
 399              		.cfi_def_cfa_offset 32
 400              		.loc 1 164 21 discriminator 1 view .LVU85
 401 0008 0BB3     		cbz	r3, .L22
 165:D:/fchai/work/i-cube/I-CUBE-HUAWEI/Middlewares/Third_Party/Huawei/iot_link/network/dtls/mbedtls/mbedtls-2.16.2/library\ssl_cookie.c ****         return( MBEDTLS_ERR_SSL_BAD_INPUT_DATA );
 166:D:/fchai/work/i-cube/I-CUBE-HUAWEI/Middlewares/Third_Party/Huawei/iot_link/network/dtls/mbedtls/mbedtls-2.16.2/library\ssl_cookie.c **** 
 167:D:/fchai/work/i-cube/I-CUBE-HUAWEI/Middlewares/Third_Party/Huawei/iot_link/network/dtls/mbedtls/mbedtls-2.16.2/library\ssl_cookie.c ****     if( (size_t)( end - *p ) < COOKIE_LEN )
 402              		.loc 1 167 25 view .LVU86
 403 000a 0F68     		ldr	r7, [r1]
 404              		.loc 1 167 23 view .LVU87
 405 000c D31B     		subs	r3, r2, r7
 406              	.LVL34:
 407              		.loc 1 167 7 view .LVU88
 408 000e 1F2B     		cmp	r3, #31
 409 0010 0C46     		mov	r4, r1
 410              		.loc 1 167 5 is_stmt 1 view .LVU89
 411              		.loc 1 167 7 is_stmt 0 view .LVU90
 412 0012 1AD9     		bls	.L23
ARM GAS  T:\msys\tmp\ccv76qhU.s 			page 12


 168:D:/fchai/work/i-cube/I-CUBE-HUAWEI/Middlewares/Third_Party/Huawei/iot_link/network/dtls/mbedtls/mbedtls-2.16.2/library\ssl_cookie.c ****         return( MBEDTLS_ERR_SSL_BUFFER_TOO_SMALL );
 169:D:/fchai/work/i-cube/I-CUBE-HUAWEI/Middlewares/Third_Party/Huawei/iot_link/network/dtls/mbedtls/mbedtls-2.16.2/library\ssl_cookie.c **** 
 170:D:/fchai/work/i-cube/I-CUBE-HUAWEI/Middlewares/Third_Party/Huawei/iot_link/network/dtls/mbedtls/mbedtls-2.16.2/library\ssl_cookie.c **** #if defined(MBEDTLS_HAVE_TIME)
 171:D:/fchai/work/i-cube/I-CUBE-HUAWEI/Middlewares/Third_Party/Huawei/iot_link/network/dtls/mbedtls/mbedtls-2.16.2/library\ssl_cookie.c ****     t = (unsigned long) mbedtls_time( NULL );
 172:D:/fchai/work/i-cube/I-CUBE-HUAWEI/Middlewares/Third_Party/Huawei/iot_link/network/dtls/mbedtls/mbedtls-2.16.2/library\ssl_cookie.c **** #else
 173:D:/fchai/work/i-cube/I-CUBE-HUAWEI/Middlewares/Third_Party/Huawei/iot_link/network/dtls/mbedtls/mbedtls-2.16.2/library\ssl_cookie.c ****     t = ctx->serial++;
 413              		.loc 1 173 5 is_stmt 1 view .LVU91
 414              		.loc 1 173 12 is_stmt 0 view .LVU92
 415 0014 C568     		ldr	r5, [r0, #12]
 174:D:/fchai/work/i-cube/I-CUBE-HUAWEI/Middlewares/Third_Party/Huawei/iot_link/network/dtls/mbedtls/mbedtls-2.16.2/library\ssl_cookie.c **** #endif
 175:D:/fchai/work/i-cube/I-CUBE-HUAWEI/Middlewares/Third_Party/Huawei/iot_link/network/dtls/mbedtls/mbedtls-2.16.2/library\ssl_cookie.c **** 
 176:D:/fchai/work/i-cube/I-CUBE-HUAWEI/Middlewares/Third_Party/Huawei/iot_link/network/dtls/mbedtls/mbedtls-2.16.2/library\ssl_cookie.c ****     (*p)[0] = (unsigned char)( t >> 24 );
 416              		.loc 1 176 34 view .LVU93
 417 0016 2B0E     		lsrs	r3, r5, #24
 173:D:/fchai/work/i-cube/I-CUBE-HUAWEI/Middlewares/Third_Party/Huawei/iot_link/network/dtls/mbedtls/mbedtls-2.16.2/library\ssl_cookie.c **** #endif
 418              		.loc 1 173 20 view .LVU94
 419 0018 05F1010C 		add	ip, r5, #1
 420 001c C0F80CC0 		str	ip, [r0, #12]
 421              	.LVL35:
 422              		.loc 1 176 5 is_stmt 1 view .LVU95
 423              		.loc 1 176 15 is_stmt 0 view .LVU96
 424 0020 3B70     		strb	r3, [r7]
 177:D:/fchai/work/i-cube/I-CUBE-HUAWEI/Middlewares/Third_Party/Huawei/iot_link/network/dtls/mbedtls/mbedtls-2.16.2/library\ssl_cookie.c ****     (*p)[1] = (unsigned char)( t >> 16 );
 425              		.loc 1 177 5 is_stmt 1 view .LVU97
 426              		.loc 1 177 6 is_stmt 0 view .LVU98
 427 0022 0B68     		ldr	r3, [r1]
 428              		.loc 1 177 34 view .LVU99
 429 0024 290C     		lsrs	r1, r5, #16
 430              	.LVL36:
 431              		.loc 1 177 15 view .LVU100
 432 0026 5970     		strb	r1, [r3, #1]
 178:D:/fchai/work/i-cube/I-CUBE-HUAWEI/Middlewares/Third_Party/Huawei/iot_link/network/dtls/mbedtls/mbedtls-2.16.2/library\ssl_cookie.c ****     (*p)[2] = (unsigned char)( t >>  8 );
 433              		.loc 1 178 5 is_stmt 1 view .LVU101
 434              		.loc 1 178 6 is_stmt 0 view .LVU102
 435 0028 2368     		ldr	r3, [r4]
 436              		.loc 1 178 34 view .LVU103
 437 002a 290A     		lsrs	r1, r5, #8
 438              		.loc 1 178 15 view .LVU104
 439 002c 9970     		strb	r1, [r3, #2]
 179:D:/fchai/work/i-cube/I-CUBE-HUAWEI/Middlewares/Third_Party/Huawei/iot_link/network/dtls/mbedtls/mbedtls-2.16.2/library\ssl_cookie.c ****     (*p)[3] = (unsigned char)( t       );
 440              		.loc 1 179 5 is_stmt 1 view .LVU105
 441              		.loc 1 179 6 is_stmt 0 view .LVU106
 442 002e 2368     		ldr	r3, [r4]
 443              		.loc 1 179 15 view .LVU107
 444 0030 DD70     		strb	r5, [r3, #3]
 180:D:/fchai/work/i-cube/I-CUBE-HUAWEI/Middlewares/Third_Party/Huawei/iot_link/network/dtls/mbedtls/mbedtls-2.16.2/library\ssl_cookie.c ****     *p += 4;
 445              		.loc 1 180 5 is_stmt 1 view .LVU108
 446              		.loc 1 180 8 is_stmt 0 view .LVU109
 447 0032 2168     		ldr	r1, [r4]
 181:D:/fchai/work/i-cube/I-CUBE-HUAWEI/Middlewares/Third_Party/Huawei/iot_link/network/dtls/mbedtls/mbedtls-2.16.2/library\ssl_cookie.c **** 
 182:D:/fchai/work/i-cube/I-CUBE-HUAWEI/Middlewares/Third_Party/Huawei/iot_link/network/dtls/mbedtls/mbedtls-2.16.2/library\ssl_cookie.c **** #if defined(MBEDTLS_THREADING_C)
 183:D:/fchai/work/i-cube/I-CUBE-HUAWEI/Middlewares/Third_Party/Huawei/iot_link/network/dtls/mbedtls/mbedtls-2.16.2/library\ssl_cookie.c ****     if( ( ret = mbedtls_mutex_lock( &ctx->mutex ) ) != 0 )
 184:D:/fchai/work/i-cube/I-CUBE-HUAWEI/Middlewares/Third_Party/Huawei/iot_link/network/dtls/mbedtls/mbedtls-2.16.2/library\ssl_cookie.c ****         return( MBEDTLS_ERR_SSL_INTERNAL_ERROR + ret );
 185:D:/fchai/work/i-cube/I-CUBE-HUAWEI/Middlewares/Third_Party/Huawei/iot_link/network/dtls/mbedtls/mbedtls-2.16.2/library\ssl_cookie.c **** #endif
 186:D:/fchai/work/i-cube/I-CUBE-HUAWEI/Middlewares/Third_Party/Huawei/iot_link/network/dtls/mbedtls/mbedtls-2.16.2/library\ssl_cookie.c **** 
 187:D:/fchai/work/i-cube/I-CUBE-HUAWEI/Middlewares/Third_Party/Huawei/iot_link/network/dtls/mbedtls/mbedtls-2.16.2/library\ssl_cookie.c ****     ret = ssl_cookie_hmac( &ctx->hmac_ctx, *p - 4,
 448              		.loc 1 187 11 view .LVU110
ARM GAS  T:\msys\tmp\ccv76qhU.s 			page 13


 449 0034 089B     		ldr	r3, [sp, #32]
 450 0036 0193     		str	r3, [sp, #4]
 180:D:/fchai/work/i-cube/I-CUBE-HUAWEI/Middlewares/Third_Party/Huawei/iot_link/network/dtls/mbedtls/mbedtls-2.16.2/library\ssl_cookie.c ****     *p += 4;
 451              		.loc 1 180 8 view .LVU111
 452 0038 0D1D     		adds	r5, r1, #4
 453              	.LVL37:
 454              		.loc 1 187 11 view .LVU112
 455 003a 1346     		mov	r3, r2
 456 003c 0096     		str	r6, [sp]
 457 003e 2246     		mov	r2, r4
 458              	.LVL38:
 180:D:/fchai/work/i-cube/I-CUBE-HUAWEI/Middlewares/Third_Party/Huawei/iot_link/network/dtls/mbedtls/mbedtls-2.16.2/library\ssl_cookie.c ****     *p += 4;
 459              		.loc 1 180 8 view .LVU113
 460 0040 2560     		str	r5, [r4]
 461              		.loc 1 187 5 is_stmt 1 view .LVU114
 462              		.loc 1 187 11 is_stmt 0 view .LVU115
 463 0042 FFF7FEFF 		bl	ssl_cookie_hmac
 464              	.LVL39:
 188:D:/fchai/work/i-cube/I-CUBE-HUAWEI/Middlewares/Third_Party/Huawei/iot_link/network/dtls/mbedtls/mbedtls-2.16.2/library\ssl_cookie.c ****                            p, end, cli_id, cli_id_len );
 189:D:/fchai/work/i-cube/I-CUBE-HUAWEI/Middlewares/Third_Party/Huawei/iot_link/network/dtls/mbedtls/mbedtls-2.16.2/library\ssl_cookie.c **** 
 190:D:/fchai/work/i-cube/I-CUBE-HUAWEI/Middlewares/Third_Party/Huawei/iot_link/network/dtls/mbedtls/mbedtls-2.16.2/library\ssl_cookie.c **** #if defined(MBEDTLS_THREADING_C)
 191:D:/fchai/work/i-cube/I-CUBE-HUAWEI/Middlewares/Third_Party/Huawei/iot_link/network/dtls/mbedtls/mbedtls-2.16.2/library\ssl_cookie.c ****     if( mbedtls_mutex_unlock( &ctx->mutex ) != 0 )
 192:D:/fchai/work/i-cube/I-CUBE-HUAWEI/Middlewares/Third_Party/Huawei/iot_link/network/dtls/mbedtls/mbedtls-2.16.2/library\ssl_cookie.c ****         return( MBEDTLS_ERR_SSL_INTERNAL_ERROR +
 193:D:/fchai/work/i-cube/I-CUBE-HUAWEI/Middlewares/Third_Party/Huawei/iot_link/network/dtls/mbedtls/mbedtls-2.16.2/library\ssl_cookie.c ****                 MBEDTLS_ERR_THREADING_MUTEX_ERROR );
 194:D:/fchai/work/i-cube/I-CUBE-HUAWEI/Middlewares/Third_Party/Huawei/iot_link/network/dtls/mbedtls/mbedtls-2.16.2/library\ssl_cookie.c **** #endif
 195:D:/fchai/work/i-cube/I-CUBE-HUAWEI/Middlewares/Third_Party/Huawei/iot_link/network/dtls/mbedtls/mbedtls-2.16.2/library\ssl_cookie.c **** 
 196:D:/fchai/work/i-cube/I-CUBE-HUAWEI/Middlewares/Third_Party/Huawei/iot_link/network/dtls/mbedtls/mbedtls-2.16.2/library\ssl_cookie.c ****     return( ret );
 465              		.loc 1 196 5 is_stmt 1 view .LVU116
 466              	.L19:
 197:D:/fchai/work/i-cube/I-CUBE-HUAWEI/Middlewares/Third_Party/Huawei/iot_link/network/dtls/mbedtls/mbedtls-2.16.2/library\ssl_cookie.c **** }
 467              		.loc 1 197 1 is_stmt 0 view .LVU117
 468 0046 03B0     		add	sp, sp, #12
 469              	.LCFI14:
 470              		.cfi_remember_state
 471              		.cfi_def_cfa_offset 20
 472              		@ sp needed
 473 0048 F0BD     		pop	{r4, r5, r6, r7, pc}
 474              	.LVL40:
 475              	.L23:
 476              	.LCFI15:
 477              		.cfi_restore_state
 168:D:/fchai/work/i-cube/I-CUBE-HUAWEI/Middlewares/Third_Party/Huawei/iot_link/network/dtls/mbedtls/mbedtls-2.16.2/library\ssl_cookie.c **** 
 478              		.loc 1 168 15 view .LVU118
 479 004a 0348     		ldr	r0, .L28
 480              	.LVL41:
 168:D:/fchai/work/i-cube/I-CUBE-HUAWEI/Middlewares/Third_Party/Huawei/iot_link/network/dtls/mbedtls/mbedtls-2.16.2/library\ssl_cookie.c **** 
 481              		.loc 1 168 15 view .LVU119
 482 004c FBE7     		b	.L19
 483              	.LVL42:
 484              	.L22:
 165:D:/fchai/work/i-cube/I-CUBE-HUAWEI/Middlewares/Third_Party/Huawei/iot_link/network/dtls/mbedtls/mbedtls-2.16.2/library\ssl_cookie.c **** 
 485              		.loc 1 165 15 view .LVU120
 486 004e 0348     		ldr	r0, .L28+4
 487              	.LVL43:
 165:D:/fchai/work/i-cube/I-CUBE-HUAWEI/Middlewares/Third_Party/Huawei/iot_link/network/dtls/mbedtls/mbedtls-2.16.2/library\ssl_cookie.c **** 
 488              		.loc 1 165 15 view .LVU121
 489 0050 F9E7     		b	.L19
ARM GAS  T:\msys\tmp\ccv76qhU.s 			page 14


 490              	.LVL44:
 491              	.L21:
 492              	.LCFI16:
 493              		.cfi_def_cfa_offset 0
 494              		.cfi_restore 4
 495              		.cfi_restore 5
 496              		.cfi_restore 6
 497              		.cfi_restore 7
 498              		.cfi_restore 14
 165:D:/fchai/work/i-cube/I-CUBE-HUAWEI/Middlewares/Third_Party/Huawei/iot_link/network/dtls/mbedtls/mbedtls-2.16.2/library\ssl_cookie.c **** 
 499              		.loc 1 165 15 view .LVU122
 500 0052 0248     		ldr	r0, .L28+4
 501              	.LVL45:
 502              		.loc 1 197 1 view .LVU123
 503 0054 7047     		bx	lr
 504              	.L29:
 505 0056 00BF     		.align	2
 506              	.L28:
 507 0058 0096FFFF 		.word	-27136
 508 005c 008FFFFF 		.word	-28928
 509              		.cfi_endproc
 510              	.LFE29:
 512              		.section	.text.mbedtls_ssl_cookie_check,"ax",%progbits
 513              		.align	1
 514              		.p2align 2,,3
 515              		.global	mbedtls_ssl_cookie_check
 516              		.syntax unified
 517              		.thumb
 518              		.thumb_func
 519              		.fpu fpv4-sp-d16
 521              	mbedtls_ssl_cookie_check:
 522              	.LVL46:
 523              	.LFB30:
 198:D:/fchai/work/i-cube/I-CUBE-HUAWEI/Middlewares/Third_Party/Huawei/iot_link/network/dtls/mbedtls/mbedtls-2.16.2/library\ssl_cookie.c **** 
 199:D:/fchai/work/i-cube/I-CUBE-HUAWEI/Middlewares/Third_Party/Huawei/iot_link/network/dtls/mbedtls/mbedtls-2.16.2/library\ssl_cookie.c **** /*
 200:D:/fchai/work/i-cube/I-CUBE-HUAWEI/Middlewares/Third_Party/Huawei/iot_link/network/dtls/mbedtls/mbedtls-2.16.2/library\ssl_cookie.c ****  * Check a cookie
 201:D:/fchai/work/i-cube/I-CUBE-HUAWEI/Middlewares/Third_Party/Huawei/iot_link/network/dtls/mbedtls/mbedtls-2.16.2/library\ssl_cookie.c ****  */
 202:D:/fchai/work/i-cube/I-CUBE-HUAWEI/Middlewares/Third_Party/Huawei/iot_link/network/dtls/mbedtls/mbedtls-2.16.2/library\ssl_cookie.c **** int mbedtls_ssl_cookie_check( void *p_ctx,
 203:D:/fchai/work/i-cube/I-CUBE-HUAWEI/Middlewares/Third_Party/Huawei/iot_link/network/dtls/mbedtls/mbedtls-2.16.2/library\ssl_cookie.c ****                       const unsigned char *cookie, size_t cookie_len,
 204:D:/fchai/work/i-cube/I-CUBE-HUAWEI/Middlewares/Third_Party/Huawei/iot_link/network/dtls/mbedtls/mbedtls-2.16.2/library\ssl_cookie.c ****                       const unsigned char *cli_id, size_t cli_id_len )
 205:D:/fchai/work/i-cube/I-CUBE-HUAWEI/Middlewares/Third_Party/Huawei/iot_link/network/dtls/mbedtls/mbedtls-2.16.2/library\ssl_cookie.c **** {
 524              		.loc 1 205 1 is_stmt 1 view -0
 525              		.cfi_startproc
 526              		@ args = 4, pretend = 0, frame = 40
 527              		@ frame_needed = 0, uses_anonymous_args = 0
 206:D:/fchai/work/i-cube/I-CUBE-HUAWEI/Middlewares/Third_Party/Huawei/iot_link/network/dtls/mbedtls/mbedtls-2.16.2/library\ssl_cookie.c ****     unsigned char ref_hmac[COOKIE_HMAC_LEN];
 528              		.loc 1 206 5 view .LVU125
 207:D:/fchai/work/i-cube/I-CUBE-HUAWEI/Middlewares/Third_Party/Huawei/iot_link/network/dtls/mbedtls/mbedtls-2.16.2/library\ssl_cookie.c ****     int ret = 0;
 529              		.loc 1 207 5 view .LVU126
 208:D:/fchai/work/i-cube/I-CUBE-HUAWEI/Middlewares/Third_Party/Huawei/iot_link/network/dtls/mbedtls/mbedtls-2.16.2/library\ssl_cookie.c ****     unsigned char *p = ref_hmac;
 530              		.loc 1 208 5 view .LVU127
 205:D:/fchai/work/i-cube/I-CUBE-HUAWEI/Middlewares/Third_Party/Huawei/iot_link/network/dtls/mbedtls/mbedtls-2.16.2/library\ssl_cookie.c ****     unsigned char ref_hmac[COOKIE_HMAC_LEN];
 531              		.loc 1 205 1 is_stmt 0 view .LVU128
 532 0000 F0B5     		push	{r4, r5, r6, r7, lr}
 533              	.LCFI17:
 534              		.cfi_def_cfa_offset 20
 535              		.cfi_offset 4, -20
ARM GAS  T:\msys\tmp\ccv76qhU.s 			page 15


 536              		.cfi_offset 5, -16
 537              		.cfi_offset 6, -12
 538              		.cfi_offset 7, -8
 539              		.cfi_offset 14, -4
 540 0002 8DB0     		sub	sp, sp, #52
 541              	.LCFI18:
 542              		.cfi_def_cfa_offset 72
 543              		.loc 1 208 20 view .LVU129
 544 0004 05AC     		add	r4, sp, #20
 545 0006 0494     		str	r4, [sp, #16]
 209:D:/fchai/work/i-cube/I-CUBE-HUAWEI/Middlewares/Third_Party/Huawei/iot_link/network/dtls/mbedtls/mbedtls-2.16.2/library\ssl_cookie.c ****     mbedtls_ssl_cookie_ctx *ctx = (mbedtls_ssl_cookie_ctx *) p_ctx;
 546              		.loc 1 209 5 is_stmt 1 view .LVU130
 547              	.LVL47:
 210:D:/fchai/work/i-cube/I-CUBE-HUAWEI/Middlewares/Third_Party/Huawei/iot_link/network/dtls/mbedtls/mbedtls-2.16.2/library\ssl_cookie.c ****     unsigned long cur_time, cookie_time;
 548              		.loc 1 210 5 view .LVU131
 211:D:/fchai/work/i-cube/I-CUBE-HUAWEI/Middlewares/Third_Party/Huawei/iot_link/network/dtls/mbedtls/mbedtls-2.16.2/library\ssl_cookie.c **** 
 212:D:/fchai/work/i-cube/I-CUBE-HUAWEI/Middlewares/Third_Party/Huawei/iot_link/network/dtls/mbedtls/mbedtls-2.16.2/library\ssl_cookie.c ****     if( ctx == NULL || cli_id == NULL )
 549              		.loc 1 212 5 view .LVU132
 550              		.loc 1 212 7 is_stmt 0 view .LVU133
 551 0008 80B3     		cbz	r0, .L36
 552              		.loc 1 212 21 discriminator 1 view .LVU134
 553 000a 7BB3     		cbz	r3, .L36
 213:D:/fchai/work/i-cube/I-CUBE-HUAWEI/Middlewares/Third_Party/Huawei/iot_link/network/dtls/mbedtls/mbedtls-2.16.2/library\ssl_cookie.c ****         return( MBEDTLS_ERR_SSL_BAD_INPUT_DATA );
 214:D:/fchai/work/i-cube/I-CUBE-HUAWEI/Middlewares/Third_Party/Huawei/iot_link/network/dtls/mbedtls/mbedtls-2.16.2/library\ssl_cookie.c **** 
 215:D:/fchai/work/i-cube/I-CUBE-HUAWEI/Middlewares/Third_Party/Huawei/iot_link/network/dtls/mbedtls/mbedtls-2.16.2/library\ssl_cookie.c ****     if( cookie_len != COOKIE_LEN )
 554              		.loc 1 215 5 is_stmt 1 view .LVU135
 555              		.loc 1 215 7 is_stmt 0 view .LVU136
 556 000c 202A     		cmp	r2, #32
 557 000e 2AD1     		bne	.L33
 216:D:/fchai/work/i-cube/I-CUBE-HUAWEI/Middlewares/Third_Party/Huawei/iot_link/network/dtls/mbedtls/mbedtls-2.16.2/library\ssl_cookie.c ****         return( -1 );
 217:D:/fchai/work/i-cube/I-CUBE-HUAWEI/Middlewares/Third_Party/Huawei/iot_link/network/dtls/mbedtls/mbedtls-2.16.2/library\ssl_cookie.c **** 
 218:D:/fchai/work/i-cube/I-CUBE-HUAWEI/Middlewares/Third_Party/Huawei/iot_link/network/dtls/mbedtls/mbedtls-2.16.2/library\ssl_cookie.c **** #if defined(MBEDTLS_THREADING_C)
 219:D:/fchai/work/i-cube/I-CUBE-HUAWEI/Middlewares/Third_Party/Huawei/iot_link/network/dtls/mbedtls/mbedtls-2.16.2/library\ssl_cookie.c ****     if( ( ret = mbedtls_mutex_lock( &ctx->mutex ) ) != 0 )
 220:D:/fchai/work/i-cube/I-CUBE-HUAWEI/Middlewares/Third_Party/Huawei/iot_link/network/dtls/mbedtls/mbedtls-2.16.2/library\ssl_cookie.c ****         return( MBEDTLS_ERR_SSL_INTERNAL_ERROR + ret );
 221:D:/fchai/work/i-cube/I-CUBE-HUAWEI/Middlewares/Third_Party/Huawei/iot_link/network/dtls/mbedtls/mbedtls-2.16.2/library\ssl_cookie.c **** #endif
 222:D:/fchai/work/i-cube/I-CUBE-HUAWEI/Middlewares/Third_Party/Huawei/iot_link/network/dtls/mbedtls/mbedtls-2.16.2/library\ssl_cookie.c **** 
 223:D:/fchai/work/i-cube/I-CUBE-HUAWEI/Middlewares/Third_Party/Huawei/iot_link/network/dtls/mbedtls/mbedtls-2.16.2/library\ssl_cookie.c ****     if( ssl_cookie_hmac( &ctx->hmac_ctx, cookie,
 558              		.loc 1 223 5 is_stmt 1 view .LVU137
 559              		.loc 1 223 9 is_stmt 0 view .LVU138
 560 0010 129A     		ldr	r2, [sp, #72]
 561              	.LVL48:
 562              		.loc 1 223 9 view .LVU139
 563 0012 CDE90032 		strd	r3, r2, [sp]
 564 0016 0CAB     		add	r3, sp, #48
 565              	.LVL49:
 566              		.loc 1 223 9 view .LVU140
 567 0018 04AA     		add	r2, sp, #16
 568 001a 0546     		mov	r5, r0
 569 001c 0E46     		mov	r6, r1
 570 001e FFF7FEFF 		bl	ssl_cookie_hmac
 571              	.LVL50:
 572              		.loc 1 223 7 view .LVU141
 573 0022 00BB     		cbnz	r0, .L33
 224:D:/fchai/work/i-cube/I-CUBE-HUAWEI/Middlewares/Third_Party/Huawei/iot_link/network/dtls/mbedtls/mbedtls-2.16.2/library\ssl_cookie.c ****                          &p, p + sizeof( ref_hmac ),
 225:D:/fchai/work/i-cube/I-CUBE-HUAWEI/Middlewares/Third_Party/Huawei/iot_link/network/dtls/mbedtls/mbedtls-2.16.2/library\ssl_cookie.c ****                          cli_id, cli_id_len ) != 0 )
 226:D:/fchai/work/i-cube/I-CUBE-HUAWEI/Middlewares/Third_Party/Huawei/iot_link/network/dtls/mbedtls/mbedtls-2.16.2/library\ssl_cookie.c ****         ret = -1;
 227:D:/fchai/work/i-cube/I-CUBE-HUAWEI/Middlewares/Third_Party/Huawei/iot_link/network/dtls/mbedtls/mbedtls-2.16.2/library\ssl_cookie.c **** 
ARM GAS  T:\msys\tmp\ccv76qhU.s 			page 16


 228:D:/fchai/work/i-cube/I-CUBE-HUAWEI/Middlewares/Third_Party/Huawei/iot_link/network/dtls/mbedtls/mbedtls-2.16.2/library\ssl_cookie.c **** #if defined(MBEDTLS_THREADING_C)
 229:D:/fchai/work/i-cube/I-CUBE-HUAWEI/Middlewares/Third_Party/Huawei/iot_link/network/dtls/mbedtls/mbedtls-2.16.2/library\ssl_cookie.c ****     if( mbedtls_mutex_unlock( &ctx->mutex ) != 0 )
 230:D:/fchai/work/i-cube/I-CUBE-HUAWEI/Middlewares/Third_Party/Huawei/iot_link/network/dtls/mbedtls/mbedtls-2.16.2/library\ssl_cookie.c ****         return( MBEDTLS_ERR_SSL_INTERNAL_ERROR +
 231:D:/fchai/work/i-cube/I-CUBE-HUAWEI/Middlewares/Third_Party/Huawei/iot_link/network/dtls/mbedtls/mbedtls-2.16.2/library\ssl_cookie.c ****                 MBEDTLS_ERR_THREADING_MUTEX_ERROR );
 232:D:/fchai/work/i-cube/I-CUBE-HUAWEI/Middlewares/Third_Party/Huawei/iot_link/network/dtls/mbedtls/mbedtls-2.16.2/library\ssl_cookie.c **** #endif
 233:D:/fchai/work/i-cube/I-CUBE-HUAWEI/Middlewares/Third_Party/Huawei/iot_link/network/dtls/mbedtls/mbedtls-2.16.2/library\ssl_cookie.c **** 
 234:D:/fchai/work/i-cube/I-CUBE-HUAWEI/Middlewares/Third_Party/Huawei/iot_link/network/dtls/mbedtls/mbedtls-2.16.2/library\ssl_cookie.c ****     if( ret != 0 )
 574              		.loc 1 234 5 is_stmt 1 view .LVU142
 235:D:/fchai/work/i-cube/I-CUBE-HUAWEI/Middlewares/Third_Party/Huawei/iot_link/network/dtls/mbedtls/mbedtls-2.16.2/library\ssl_cookie.c ****         return( ret );
 236:D:/fchai/work/i-cube/I-CUBE-HUAWEI/Middlewares/Third_Party/Huawei/iot_link/network/dtls/mbedtls/mbedtls-2.16.2/library\ssl_cookie.c **** 
 237:D:/fchai/work/i-cube/I-CUBE-HUAWEI/Middlewares/Third_Party/Huawei/iot_link/network/dtls/mbedtls/mbedtls-2.16.2/library\ssl_cookie.c ****     if( mbedtls_ssl_safer_memcmp( cookie + 4, ref_hmac, sizeof( ref_hmac ) ) != 0 )
 575              		.loc 1 237 5 view .LVU143
 576              	.LVL51:
 577              	.LBB5:
 578              	.LBI5:
 579              		.file 2 "D:/fchai/work/i-cube/I-CUBE-HUAWEI/Middlewares/Third_Party/Huawei/iot_link/network/dtls/m
   1:D:/fchai/work/i-cube/I-CUBE-HUAWEI/Middlewares/Third_Party/Huawei/iot_link/network/dtls/mbedtls/mbedtls-2.16.2/include/mbedtls\ssl_internal.h **** /**
   2:D:/fchai/work/i-cube/I-CUBE-HUAWEI/Middlewares/Third_Party/Huawei/iot_link/network/dtls/mbedtls/mbedtls-2.16.2/include/mbedtls\ssl_internal.h ****  * \file ssl_internal.h
   3:D:/fchai/work/i-cube/I-CUBE-HUAWEI/Middlewares/Third_Party/Huawei/iot_link/network/dtls/mbedtls/mbedtls-2.16.2/include/mbedtls\ssl_internal.h ****  *
   4:D:/fchai/work/i-cube/I-CUBE-HUAWEI/Middlewares/Third_Party/Huawei/iot_link/network/dtls/mbedtls/mbedtls-2.16.2/include/mbedtls\ssl_internal.h ****  * \brief Internal functions shared by the SSL modules
   5:D:/fchai/work/i-cube/I-CUBE-HUAWEI/Middlewares/Third_Party/Huawei/iot_link/network/dtls/mbedtls/mbedtls-2.16.2/include/mbedtls\ssl_internal.h ****  */
   6:D:/fchai/work/i-cube/I-CUBE-HUAWEI/Middlewares/Third_Party/Huawei/iot_link/network/dtls/mbedtls/mbedtls-2.16.2/include/mbedtls\ssl_internal.h **** /*
   7:D:/fchai/work/i-cube/I-CUBE-HUAWEI/Middlewares/Third_Party/Huawei/iot_link/network/dtls/mbedtls/mbedtls-2.16.2/include/mbedtls\ssl_internal.h ****  *  Copyright (C) 2006-2015, ARM Limited, All Rights Reserved
   8:D:/fchai/work/i-cube/I-CUBE-HUAWEI/Middlewares/Third_Party/Huawei/iot_link/network/dtls/mbedtls/mbedtls-2.16.2/include/mbedtls\ssl_internal.h ****  *  SPDX-License-Identifier: Apache-2.0
   9:D:/fchai/work/i-cube/I-CUBE-HUAWEI/Middlewares/Third_Party/Huawei/iot_link/network/dtls/mbedtls/mbedtls-2.16.2/include/mbedtls\ssl_internal.h ****  *
  10:D:/fchai/work/i-cube/I-CUBE-HUAWEI/Middlewares/Third_Party/Huawei/iot_link/network/dtls/mbedtls/mbedtls-2.16.2/include/mbedtls\ssl_internal.h ****  *  Licensed under the Apache License, Version 2.0 (the "License"); you may
  11:D:/fchai/work/i-cube/I-CUBE-HUAWEI/Middlewares/Third_Party/Huawei/iot_link/network/dtls/mbedtls/mbedtls-2.16.2/include/mbedtls\ssl_internal.h ****  *  not use this file except in compliance with the License.
  12:D:/fchai/work/i-cube/I-CUBE-HUAWEI/Middlewares/Third_Party/Huawei/iot_link/network/dtls/mbedtls/mbedtls-2.16.2/include/mbedtls\ssl_internal.h ****  *  You may obtain a copy of the License at
  13:D:/fchai/work/i-cube/I-CUBE-HUAWEI/Middlewares/Third_Party/Huawei/iot_link/network/dtls/mbedtls/mbedtls-2.16.2/include/mbedtls\ssl_internal.h ****  *
  14:D:/fchai/work/i-cube/I-CUBE-HUAWEI/Middlewares/Third_Party/Huawei/iot_link/network/dtls/mbedtls/mbedtls-2.16.2/include/mbedtls\ssl_internal.h ****  *  http://www.apache.org/licenses/LICENSE-2.0
  15:D:/fchai/work/i-cube/I-CUBE-HUAWEI/Middlewares/Third_Party/Huawei/iot_link/network/dtls/mbedtls/mbedtls-2.16.2/include/mbedtls\ssl_internal.h ****  *
  16:D:/fchai/work/i-cube/I-CUBE-HUAWEI/Middlewares/Third_Party/Huawei/iot_link/network/dtls/mbedtls/mbedtls-2.16.2/include/mbedtls\ssl_internal.h ****  *  Unless required by applicable law or agreed to in writing, software
  17:D:/fchai/work/i-cube/I-CUBE-HUAWEI/Middlewares/Third_Party/Huawei/iot_link/network/dtls/mbedtls/mbedtls-2.16.2/include/mbedtls\ssl_internal.h ****  *  distributed under the License is distributed on an "AS IS" BASIS, WITHOUT
  18:D:/fchai/work/i-cube/I-CUBE-HUAWEI/Middlewares/Third_Party/Huawei/iot_link/network/dtls/mbedtls/mbedtls-2.16.2/include/mbedtls\ssl_internal.h ****  *  WARRANTIES OR CONDITIONS OF ANY KIND, either express or implied.
  19:D:/fchai/work/i-cube/I-CUBE-HUAWEI/Middlewares/Third_Party/Huawei/iot_link/network/dtls/mbedtls/mbedtls-2.16.2/include/mbedtls\ssl_internal.h ****  *  See the License for the specific language governing permissions and
  20:D:/fchai/work/i-cube/I-CUBE-HUAWEI/Middlewares/Third_Party/Huawei/iot_link/network/dtls/mbedtls/mbedtls-2.16.2/include/mbedtls\ssl_internal.h ****  *  limitations under the License.
  21:D:/fchai/work/i-cube/I-CUBE-HUAWEI/Middlewares/Third_Party/Huawei/iot_link/network/dtls/mbedtls/mbedtls-2.16.2/include/mbedtls\ssl_internal.h ****  *
  22:D:/fchai/work/i-cube/I-CUBE-HUAWEI/Middlewares/Third_Party/Huawei/iot_link/network/dtls/mbedtls/mbedtls-2.16.2/include/mbedtls\ssl_internal.h ****  *  This file is part of mbed TLS (https://tls.mbed.org)
  23:D:/fchai/work/i-cube/I-CUBE-HUAWEI/Middlewares/Third_Party/Huawei/iot_link/network/dtls/mbedtls/mbedtls-2.16.2/include/mbedtls\ssl_internal.h ****  */
  24:D:/fchai/work/i-cube/I-CUBE-HUAWEI/Middlewares/Third_Party/Huawei/iot_link/network/dtls/mbedtls/mbedtls-2.16.2/include/mbedtls\ssl_internal.h **** #ifndef MBEDTLS_SSL_INTERNAL_H
  25:D:/fchai/work/i-cube/I-CUBE-HUAWEI/Middlewares/Third_Party/Huawei/iot_link/network/dtls/mbedtls/mbedtls-2.16.2/include/mbedtls\ssl_internal.h **** #define MBEDTLS_SSL_INTERNAL_H
  26:D:/fchai/work/i-cube/I-CUBE-HUAWEI/Middlewares/Third_Party/Huawei/iot_link/network/dtls/mbedtls/mbedtls-2.16.2/include/mbedtls\ssl_internal.h **** 
  27:D:/fchai/work/i-cube/I-CUBE-HUAWEI/Middlewares/Third_Party/Huawei/iot_link/network/dtls/mbedtls/mbedtls-2.16.2/include/mbedtls\ssl_internal.h **** #if !defined(MBEDTLS_CONFIG_FILE)
  28:D:/fchai/work/i-cube/I-CUBE-HUAWEI/Middlewares/Third_Party/Huawei/iot_link/network/dtls/mbedtls/mbedtls-2.16.2/include/mbedtls\ssl_internal.h **** #include "config.h"
  29:D:/fchai/work/i-cube/I-CUBE-HUAWEI/Middlewares/Third_Party/Huawei/iot_link/network/dtls/mbedtls/mbedtls-2.16.2/include/mbedtls\ssl_internal.h **** #else
  30:D:/fchai/work/i-cube/I-CUBE-HUAWEI/Middlewares/Third_Party/Huawei/iot_link/network/dtls/mbedtls/mbedtls-2.16.2/include/mbedtls\ssl_internal.h **** #include MBEDTLS_CONFIG_FILE
  31:D:/fchai/work/i-cube/I-CUBE-HUAWEI/Middlewares/Third_Party/Huawei/iot_link/network/dtls/mbedtls/mbedtls-2.16.2/include/mbedtls\ssl_internal.h **** #endif
  32:D:/fchai/work/i-cube/I-CUBE-HUAWEI/Middlewares/Third_Party/Huawei/iot_link/network/dtls/mbedtls/mbedtls-2.16.2/include/mbedtls\ssl_internal.h **** 
  33:D:/fchai/work/i-cube/I-CUBE-HUAWEI/Middlewares/Third_Party/Huawei/iot_link/network/dtls/mbedtls/mbedtls-2.16.2/include/mbedtls\ssl_internal.h **** #include "ssl.h"
  34:D:/fchai/work/i-cube/I-CUBE-HUAWEI/Middlewares/Third_Party/Huawei/iot_link/network/dtls/mbedtls/mbedtls-2.16.2/include/mbedtls\ssl_internal.h **** #include "cipher.h"
  35:D:/fchai/work/i-cube/I-CUBE-HUAWEI/Middlewares/Third_Party/Huawei/iot_link/network/dtls/mbedtls/mbedtls-2.16.2/include/mbedtls\ssl_internal.h **** 
  36:D:/fchai/work/i-cube/I-CUBE-HUAWEI/Middlewares/Third_Party/Huawei/iot_link/network/dtls/mbedtls/mbedtls-2.16.2/include/mbedtls\ssl_internal.h **** #if defined(MBEDTLS_MD5_C)
  37:D:/fchai/work/i-cube/I-CUBE-HUAWEI/Middlewares/Third_Party/Huawei/iot_link/network/dtls/mbedtls/mbedtls-2.16.2/include/mbedtls\ssl_internal.h **** #include "md5.h"
  38:D:/fchai/work/i-cube/I-CUBE-HUAWEI/Middlewares/Third_Party/Huawei/iot_link/network/dtls/mbedtls/mbedtls-2.16.2/include/mbedtls\ssl_internal.h **** #endif
  39:D:/fchai/work/i-cube/I-CUBE-HUAWEI/Middlewares/Third_Party/Huawei/iot_link/network/dtls/mbedtls/mbedtls-2.16.2/include/mbedtls\ssl_internal.h **** 
  40:D:/fchai/work/i-cube/I-CUBE-HUAWEI/Middlewares/Third_Party/Huawei/iot_link/network/dtls/mbedtls/mbedtls-2.16.2/include/mbedtls\ssl_internal.h **** #if defined(MBEDTLS_SHA1_C)
  41:D:/fchai/work/i-cube/I-CUBE-HUAWEI/Middlewares/Third_Party/Huawei/iot_link/network/dtls/mbedtls/mbedtls-2.16.2/include/mbedtls\ssl_internal.h **** #include "sha1.h"
ARM GAS  T:\msys\tmp\ccv76qhU.s 			page 17


  42:D:/fchai/work/i-cube/I-CUBE-HUAWEI/Middlewares/Third_Party/Huawei/iot_link/network/dtls/mbedtls/mbedtls-2.16.2/include/mbedtls\ssl_internal.h **** #endif
  43:D:/fchai/work/i-cube/I-CUBE-HUAWEI/Middlewares/Third_Party/Huawei/iot_link/network/dtls/mbedtls/mbedtls-2.16.2/include/mbedtls\ssl_internal.h **** 
  44:D:/fchai/work/i-cube/I-CUBE-HUAWEI/Middlewares/Third_Party/Huawei/iot_link/network/dtls/mbedtls/mbedtls-2.16.2/include/mbedtls\ssl_internal.h **** #if defined(MBEDTLS_SHA256_C)
  45:D:/fchai/work/i-cube/I-CUBE-HUAWEI/Middlewares/Third_Party/Huawei/iot_link/network/dtls/mbedtls/mbedtls-2.16.2/include/mbedtls\ssl_internal.h **** #include "sha256.h"
  46:D:/fchai/work/i-cube/I-CUBE-HUAWEI/Middlewares/Third_Party/Huawei/iot_link/network/dtls/mbedtls/mbedtls-2.16.2/include/mbedtls\ssl_internal.h **** #endif
  47:D:/fchai/work/i-cube/I-CUBE-HUAWEI/Middlewares/Third_Party/Huawei/iot_link/network/dtls/mbedtls/mbedtls-2.16.2/include/mbedtls\ssl_internal.h **** 
  48:D:/fchai/work/i-cube/I-CUBE-HUAWEI/Middlewares/Third_Party/Huawei/iot_link/network/dtls/mbedtls/mbedtls-2.16.2/include/mbedtls\ssl_internal.h **** #if defined(MBEDTLS_SHA512_C)
  49:D:/fchai/work/i-cube/I-CUBE-HUAWEI/Middlewares/Third_Party/Huawei/iot_link/network/dtls/mbedtls/mbedtls-2.16.2/include/mbedtls\ssl_internal.h **** #include "sha512.h"
  50:D:/fchai/work/i-cube/I-CUBE-HUAWEI/Middlewares/Third_Party/Huawei/iot_link/network/dtls/mbedtls/mbedtls-2.16.2/include/mbedtls\ssl_internal.h **** #endif
  51:D:/fchai/work/i-cube/I-CUBE-HUAWEI/Middlewares/Third_Party/Huawei/iot_link/network/dtls/mbedtls/mbedtls-2.16.2/include/mbedtls\ssl_internal.h **** 
  52:D:/fchai/work/i-cube/I-CUBE-HUAWEI/Middlewares/Third_Party/Huawei/iot_link/network/dtls/mbedtls/mbedtls-2.16.2/include/mbedtls\ssl_internal.h **** #if defined(MBEDTLS_KEY_EXCHANGE_ECJPAKE_ENABLED)
  53:D:/fchai/work/i-cube/I-CUBE-HUAWEI/Middlewares/Third_Party/Huawei/iot_link/network/dtls/mbedtls/mbedtls-2.16.2/include/mbedtls\ssl_internal.h **** #include "ecjpake.h"
  54:D:/fchai/work/i-cube/I-CUBE-HUAWEI/Middlewares/Third_Party/Huawei/iot_link/network/dtls/mbedtls/mbedtls-2.16.2/include/mbedtls\ssl_internal.h **** #endif
  55:D:/fchai/work/i-cube/I-CUBE-HUAWEI/Middlewares/Third_Party/Huawei/iot_link/network/dtls/mbedtls/mbedtls-2.16.2/include/mbedtls\ssl_internal.h **** 
  56:D:/fchai/work/i-cube/I-CUBE-HUAWEI/Middlewares/Third_Party/Huawei/iot_link/network/dtls/mbedtls/mbedtls-2.16.2/include/mbedtls\ssl_internal.h **** #if ( defined(__ARMCC_VERSION) || defined(_MSC_VER) ) && \
  57:D:/fchai/work/i-cube/I-CUBE-HUAWEI/Middlewares/Third_Party/Huawei/iot_link/network/dtls/mbedtls/mbedtls-2.16.2/include/mbedtls\ssl_internal.h ****     !defined(inline) && !defined(__cplusplus)
  58:D:/fchai/work/i-cube/I-CUBE-HUAWEI/Middlewares/Third_Party/Huawei/iot_link/network/dtls/mbedtls/mbedtls-2.16.2/include/mbedtls\ssl_internal.h **** #define inline __inline
  59:D:/fchai/work/i-cube/I-CUBE-HUAWEI/Middlewares/Third_Party/Huawei/iot_link/network/dtls/mbedtls/mbedtls-2.16.2/include/mbedtls\ssl_internal.h **** #endif
  60:D:/fchai/work/i-cube/I-CUBE-HUAWEI/Middlewares/Third_Party/Huawei/iot_link/network/dtls/mbedtls/mbedtls-2.16.2/include/mbedtls\ssl_internal.h **** 
  61:D:/fchai/work/i-cube/I-CUBE-HUAWEI/Middlewares/Third_Party/Huawei/iot_link/network/dtls/mbedtls/mbedtls-2.16.2/include/mbedtls\ssl_internal.h **** /* Determine minimum supported version */
  62:D:/fchai/work/i-cube/I-CUBE-HUAWEI/Middlewares/Third_Party/Huawei/iot_link/network/dtls/mbedtls/mbedtls-2.16.2/include/mbedtls\ssl_internal.h **** #define MBEDTLS_SSL_MIN_MAJOR_VERSION           MBEDTLS_SSL_MAJOR_VERSION_3
  63:D:/fchai/work/i-cube/I-CUBE-HUAWEI/Middlewares/Third_Party/Huawei/iot_link/network/dtls/mbedtls/mbedtls-2.16.2/include/mbedtls\ssl_internal.h **** 
  64:D:/fchai/work/i-cube/I-CUBE-HUAWEI/Middlewares/Third_Party/Huawei/iot_link/network/dtls/mbedtls/mbedtls-2.16.2/include/mbedtls\ssl_internal.h **** #if defined(MBEDTLS_SSL_PROTO_SSL3)
  65:D:/fchai/work/i-cube/I-CUBE-HUAWEI/Middlewares/Third_Party/Huawei/iot_link/network/dtls/mbedtls/mbedtls-2.16.2/include/mbedtls\ssl_internal.h **** #define MBEDTLS_SSL_MIN_MINOR_VERSION           MBEDTLS_SSL_MINOR_VERSION_0
  66:D:/fchai/work/i-cube/I-CUBE-HUAWEI/Middlewares/Third_Party/Huawei/iot_link/network/dtls/mbedtls/mbedtls-2.16.2/include/mbedtls\ssl_internal.h **** #else
  67:D:/fchai/work/i-cube/I-CUBE-HUAWEI/Middlewares/Third_Party/Huawei/iot_link/network/dtls/mbedtls/mbedtls-2.16.2/include/mbedtls\ssl_internal.h **** #if defined(MBEDTLS_SSL_PROTO_TLS1)
  68:D:/fchai/work/i-cube/I-CUBE-HUAWEI/Middlewares/Third_Party/Huawei/iot_link/network/dtls/mbedtls/mbedtls-2.16.2/include/mbedtls\ssl_internal.h **** #define MBEDTLS_SSL_MIN_MINOR_VERSION           MBEDTLS_SSL_MINOR_VERSION_1
  69:D:/fchai/work/i-cube/I-CUBE-HUAWEI/Middlewares/Third_Party/Huawei/iot_link/network/dtls/mbedtls/mbedtls-2.16.2/include/mbedtls\ssl_internal.h **** #else
  70:D:/fchai/work/i-cube/I-CUBE-HUAWEI/Middlewares/Third_Party/Huawei/iot_link/network/dtls/mbedtls/mbedtls-2.16.2/include/mbedtls\ssl_internal.h **** #if defined(MBEDTLS_SSL_PROTO_TLS1_1)
  71:D:/fchai/work/i-cube/I-CUBE-HUAWEI/Middlewares/Third_Party/Huawei/iot_link/network/dtls/mbedtls/mbedtls-2.16.2/include/mbedtls\ssl_internal.h **** #define MBEDTLS_SSL_MIN_MINOR_VERSION           MBEDTLS_SSL_MINOR_VERSION_2
  72:D:/fchai/work/i-cube/I-CUBE-HUAWEI/Middlewares/Third_Party/Huawei/iot_link/network/dtls/mbedtls/mbedtls-2.16.2/include/mbedtls\ssl_internal.h **** #else
  73:D:/fchai/work/i-cube/I-CUBE-HUAWEI/Middlewares/Third_Party/Huawei/iot_link/network/dtls/mbedtls/mbedtls-2.16.2/include/mbedtls\ssl_internal.h **** #if defined(MBEDTLS_SSL_PROTO_TLS1_2)
  74:D:/fchai/work/i-cube/I-CUBE-HUAWEI/Middlewares/Third_Party/Huawei/iot_link/network/dtls/mbedtls/mbedtls-2.16.2/include/mbedtls\ssl_internal.h **** #define MBEDTLS_SSL_MIN_MINOR_VERSION           MBEDTLS_SSL_MINOR_VERSION_3
  75:D:/fchai/work/i-cube/I-CUBE-HUAWEI/Middlewares/Third_Party/Huawei/iot_link/network/dtls/mbedtls/mbedtls-2.16.2/include/mbedtls\ssl_internal.h **** #endif /* MBEDTLS_SSL_PROTO_TLS1_2 */
  76:D:/fchai/work/i-cube/I-CUBE-HUAWEI/Middlewares/Third_Party/Huawei/iot_link/network/dtls/mbedtls/mbedtls-2.16.2/include/mbedtls\ssl_internal.h **** #endif /* MBEDTLS_SSL_PROTO_TLS1_1 */
  77:D:/fchai/work/i-cube/I-CUBE-HUAWEI/Middlewares/Third_Party/Huawei/iot_link/network/dtls/mbedtls/mbedtls-2.16.2/include/mbedtls\ssl_internal.h **** #endif /* MBEDTLS_SSL_PROTO_TLS1   */
  78:D:/fchai/work/i-cube/I-CUBE-HUAWEI/Middlewares/Third_Party/Huawei/iot_link/network/dtls/mbedtls/mbedtls-2.16.2/include/mbedtls\ssl_internal.h **** #endif /* MBEDTLS_SSL_PROTO_SSL3   */
  79:D:/fchai/work/i-cube/I-CUBE-HUAWEI/Middlewares/Third_Party/Huawei/iot_link/network/dtls/mbedtls/mbedtls-2.16.2/include/mbedtls\ssl_internal.h **** 
  80:D:/fchai/work/i-cube/I-CUBE-HUAWEI/Middlewares/Third_Party/Huawei/iot_link/network/dtls/mbedtls/mbedtls-2.16.2/include/mbedtls\ssl_internal.h **** #define MBEDTLS_SSL_MIN_VALID_MINOR_VERSION MBEDTLS_SSL_MINOR_VERSION_1
  81:D:/fchai/work/i-cube/I-CUBE-HUAWEI/Middlewares/Third_Party/Huawei/iot_link/network/dtls/mbedtls/mbedtls-2.16.2/include/mbedtls\ssl_internal.h **** #define MBEDTLS_SSL_MIN_VALID_MAJOR_VERSION MBEDTLS_SSL_MAJOR_VERSION_3
  82:D:/fchai/work/i-cube/I-CUBE-HUAWEI/Middlewares/Third_Party/Huawei/iot_link/network/dtls/mbedtls/mbedtls-2.16.2/include/mbedtls\ssl_internal.h **** 
  83:D:/fchai/work/i-cube/I-CUBE-HUAWEI/Middlewares/Third_Party/Huawei/iot_link/network/dtls/mbedtls/mbedtls-2.16.2/include/mbedtls\ssl_internal.h **** /* Determine maximum supported version */
  84:D:/fchai/work/i-cube/I-CUBE-HUAWEI/Middlewares/Third_Party/Huawei/iot_link/network/dtls/mbedtls/mbedtls-2.16.2/include/mbedtls\ssl_internal.h **** #define MBEDTLS_SSL_MAX_MAJOR_VERSION           MBEDTLS_SSL_MAJOR_VERSION_3
  85:D:/fchai/work/i-cube/I-CUBE-HUAWEI/Middlewares/Third_Party/Huawei/iot_link/network/dtls/mbedtls/mbedtls-2.16.2/include/mbedtls\ssl_internal.h **** 
  86:D:/fchai/work/i-cube/I-CUBE-HUAWEI/Middlewares/Third_Party/Huawei/iot_link/network/dtls/mbedtls/mbedtls-2.16.2/include/mbedtls\ssl_internal.h **** #if defined(MBEDTLS_SSL_PROTO_TLS1_2)
  87:D:/fchai/work/i-cube/I-CUBE-HUAWEI/Middlewares/Third_Party/Huawei/iot_link/network/dtls/mbedtls/mbedtls-2.16.2/include/mbedtls\ssl_internal.h **** #define MBEDTLS_SSL_MAX_MINOR_VERSION           MBEDTLS_SSL_MINOR_VERSION_3
  88:D:/fchai/work/i-cube/I-CUBE-HUAWEI/Middlewares/Third_Party/Huawei/iot_link/network/dtls/mbedtls/mbedtls-2.16.2/include/mbedtls\ssl_internal.h **** #else
  89:D:/fchai/work/i-cube/I-CUBE-HUAWEI/Middlewares/Third_Party/Huawei/iot_link/network/dtls/mbedtls/mbedtls-2.16.2/include/mbedtls\ssl_internal.h **** #if defined(MBEDTLS_SSL_PROTO_TLS1_1)
  90:D:/fchai/work/i-cube/I-CUBE-HUAWEI/Middlewares/Third_Party/Huawei/iot_link/network/dtls/mbedtls/mbedtls-2.16.2/include/mbedtls\ssl_internal.h **** #define MBEDTLS_SSL_MAX_MINOR_VERSION           MBEDTLS_SSL_MINOR_VERSION_2
  91:D:/fchai/work/i-cube/I-CUBE-HUAWEI/Middlewares/Third_Party/Huawei/iot_link/network/dtls/mbedtls/mbedtls-2.16.2/include/mbedtls\ssl_internal.h **** #else
  92:D:/fchai/work/i-cube/I-CUBE-HUAWEI/Middlewares/Third_Party/Huawei/iot_link/network/dtls/mbedtls/mbedtls-2.16.2/include/mbedtls\ssl_internal.h **** #if defined(MBEDTLS_SSL_PROTO_TLS1)
  93:D:/fchai/work/i-cube/I-CUBE-HUAWEI/Middlewares/Third_Party/Huawei/iot_link/network/dtls/mbedtls/mbedtls-2.16.2/include/mbedtls\ssl_internal.h **** #define MBEDTLS_SSL_MAX_MINOR_VERSION           MBEDTLS_SSL_MINOR_VERSION_1
  94:D:/fchai/work/i-cube/I-CUBE-HUAWEI/Middlewares/Third_Party/Huawei/iot_link/network/dtls/mbedtls/mbedtls-2.16.2/include/mbedtls\ssl_internal.h **** #else
  95:D:/fchai/work/i-cube/I-CUBE-HUAWEI/Middlewares/Third_Party/Huawei/iot_link/network/dtls/mbedtls/mbedtls-2.16.2/include/mbedtls\ssl_internal.h **** #if defined(MBEDTLS_SSL_PROTO_SSL3)
  96:D:/fchai/work/i-cube/I-CUBE-HUAWEI/Middlewares/Third_Party/Huawei/iot_link/network/dtls/mbedtls/mbedtls-2.16.2/include/mbedtls\ssl_internal.h **** #define MBEDTLS_SSL_MAX_MINOR_VERSION           MBEDTLS_SSL_MINOR_VERSION_0
  97:D:/fchai/work/i-cube/I-CUBE-HUAWEI/Middlewares/Third_Party/Huawei/iot_link/network/dtls/mbedtls/mbedtls-2.16.2/include/mbedtls\ssl_internal.h **** #endif /* MBEDTLS_SSL_PROTO_SSL3   */
  98:D:/fchai/work/i-cube/I-CUBE-HUAWEI/Middlewares/Third_Party/Huawei/iot_link/network/dtls/mbedtls/mbedtls-2.16.2/include/mbedtls\ssl_internal.h **** #endif /* MBEDTLS_SSL_PROTO_TLS1   */
ARM GAS  T:\msys\tmp\ccv76qhU.s 			page 18


  99:D:/fchai/work/i-cube/I-CUBE-HUAWEI/Middlewares/Third_Party/Huawei/iot_link/network/dtls/mbedtls/mbedtls-2.16.2/include/mbedtls\ssl_internal.h **** #endif /* MBEDTLS_SSL_PROTO_TLS1_1 */
 100:D:/fchai/work/i-cube/I-CUBE-HUAWEI/Middlewares/Third_Party/Huawei/iot_link/network/dtls/mbedtls/mbedtls-2.16.2/include/mbedtls\ssl_internal.h **** #endif /* MBEDTLS_SSL_PROTO_TLS1_2 */
 101:D:/fchai/work/i-cube/I-CUBE-HUAWEI/Middlewares/Third_Party/Huawei/iot_link/network/dtls/mbedtls/mbedtls-2.16.2/include/mbedtls\ssl_internal.h **** 
 102:D:/fchai/work/i-cube/I-CUBE-HUAWEI/Middlewares/Third_Party/Huawei/iot_link/network/dtls/mbedtls/mbedtls-2.16.2/include/mbedtls\ssl_internal.h **** /* Shorthand for restartable ECC */
 103:D:/fchai/work/i-cube/I-CUBE-HUAWEI/Middlewares/Third_Party/Huawei/iot_link/network/dtls/mbedtls/mbedtls-2.16.2/include/mbedtls\ssl_internal.h **** #if defined(MBEDTLS_ECP_RESTARTABLE) && \
 104:D:/fchai/work/i-cube/I-CUBE-HUAWEI/Middlewares/Third_Party/Huawei/iot_link/network/dtls/mbedtls/mbedtls-2.16.2/include/mbedtls\ssl_internal.h ****     defined(MBEDTLS_SSL_CLI_C) && \
 105:D:/fchai/work/i-cube/I-CUBE-HUAWEI/Middlewares/Third_Party/Huawei/iot_link/network/dtls/mbedtls/mbedtls-2.16.2/include/mbedtls\ssl_internal.h ****     defined(MBEDTLS_SSL_PROTO_TLS1_2) && \
 106:D:/fchai/work/i-cube/I-CUBE-HUAWEI/Middlewares/Third_Party/Huawei/iot_link/network/dtls/mbedtls/mbedtls-2.16.2/include/mbedtls\ssl_internal.h ****     defined(MBEDTLS_KEY_EXCHANGE_ECDHE_ECDSA_ENABLED)
 107:D:/fchai/work/i-cube/I-CUBE-HUAWEI/Middlewares/Third_Party/Huawei/iot_link/network/dtls/mbedtls/mbedtls-2.16.2/include/mbedtls\ssl_internal.h **** #define MBEDTLS_SSL__ECP_RESTARTABLE
 108:D:/fchai/work/i-cube/I-CUBE-HUAWEI/Middlewares/Third_Party/Huawei/iot_link/network/dtls/mbedtls/mbedtls-2.16.2/include/mbedtls\ssl_internal.h **** #endif
 109:D:/fchai/work/i-cube/I-CUBE-HUAWEI/Middlewares/Third_Party/Huawei/iot_link/network/dtls/mbedtls/mbedtls-2.16.2/include/mbedtls\ssl_internal.h **** 
 110:D:/fchai/work/i-cube/I-CUBE-HUAWEI/Middlewares/Third_Party/Huawei/iot_link/network/dtls/mbedtls/mbedtls-2.16.2/include/mbedtls\ssl_internal.h **** #define MBEDTLS_SSL_INITIAL_HANDSHAKE           0
 111:D:/fchai/work/i-cube/I-CUBE-HUAWEI/Middlewares/Third_Party/Huawei/iot_link/network/dtls/mbedtls/mbedtls-2.16.2/include/mbedtls\ssl_internal.h **** #define MBEDTLS_SSL_RENEGOTIATION_IN_PROGRESS   1   /* In progress */
 112:D:/fchai/work/i-cube/I-CUBE-HUAWEI/Middlewares/Third_Party/Huawei/iot_link/network/dtls/mbedtls/mbedtls-2.16.2/include/mbedtls\ssl_internal.h **** #define MBEDTLS_SSL_RENEGOTIATION_DONE          2   /* Done or aborted */
 113:D:/fchai/work/i-cube/I-CUBE-HUAWEI/Middlewares/Third_Party/Huawei/iot_link/network/dtls/mbedtls/mbedtls-2.16.2/include/mbedtls\ssl_internal.h **** #define MBEDTLS_SSL_RENEGOTIATION_PENDING       3   /* Requested (server only) */
 114:D:/fchai/work/i-cube/I-CUBE-HUAWEI/Middlewares/Third_Party/Huawei/iot_link/network/dtls/mbedtls/mbedtls-2.16.2/include/mbedtls\ssl_internal.h **** 
 115:D:/fchai/work/i-cube/I-CUBE-HUAWEI/Middlewares/Third_Party/Huawei/iot_link/network/dtls/mbedtls/mbedtls-2.16.2/include/mbedtls\ssl_internal.h **** /*
 116:D:/fchai/work/i-cube/I-CUBE-HUAWEI/Middlewares/Third_Party/Huawei/iot_link/network/dtls/mbedtls/mbedtls-2.16.2/include/mbedtls\ssl_internal.h ****  * DTLS retransmission states, see RFC 6347 4.2.4
 117:D:/fchai/work/i-cube/I-CUBE-HUAWEI/Middlewares/Third_Party/Huawei/iot_link/network/dtls/mbedtls/mbedtls-2.16.2/include/mbedtls\ssl_internal.h ****  *
 118:D:/fchai/work/i-cube/I-CUBE-HUAWEI/Middlewares/Third_Party/Huawei/iot_link/network/dtls/mbedtls/mbedtls-2.16.2/include/mbedtls\ssl_internal.h ****  * The SENDING state is merged in PREPARING for initial sends,
 119:D:/fchai/work/i-cube/I-CUBE-HUAWEI/Middlewares/Third_Party/Huawei/iot_link/network/dtls/mbedtls/mbedtls-2.16.2/include/mbedtls\ssl_internal.h ****  * but is distinct for resends.
 120:D:/fchai/work/i-cube/I-CUBE-HUAWEI/Middlewares/Third_Party/Huawei/iot_link/network/dtls/mbedtls/mbedtls-2.16.2/include/mbedtls\ssl_internal.h ****  *
 121:D:/fchai/work/i-cube/I-CUBE-HUAWEI/Middlewares/Third_Party/Huawei/iot_link/network/dtls/mbedtls/mbedtls-2.16.2/include/mbedtls\ssl_internal.h ****  * Note: initial state is wrong for server, but is not used anyway.
 122:D:/fchai/work/i-cube/I-CUBE-HUAWEI/Middlewares/Third_Party/Huawei/iot_link/network/dtls/mbedtls/mbedtls-2.16.2/include/mbedtls\ssl_internal.h ****  */
 123:D:/fchai/work/i-cube/I-CUBE-HUAWEI/Middlewares/Third_Party/Huawei/iot_link/network/dtls/mbedtls/mbedtls-2.16.2/include/mbedtls\ssl_internal.h **** #define MBEDTLS_SSL_RETRANS_PREPARING       0
 124:D:/fchai/work/i-cube/I-CUBE-HUAWEI/Middlewares/Third_Party/Huawei/iot_link/network/dtls/mbedtls/mbedtls-2.16.2/include/mbedtls\ssl_internal.h **** #define MBEDTLS_SSL_RETRANS_SENDING         1
 125:D:/fchai/work/i-cube/I-CUBE-HUAWEI/Middlewares/Third_Party/Huawei/iot_link/network/dtls/mbedtls/mbedtls-2.16.2/include/mbedtls\ssl_internal.h **** #define MBEDTLS_SSL_RETRANS_WAITING         2
 126:D:/fchai/work/i-cube/I-CUBE-HUAWEI/Middlewares/Third_Party/Huawei/iot_link/network/dtls/mbedtls/mbedtls-2.16.2/include/mbedtls\ssl_internal.h **** #define MBEDTLS_SSL_RETRANS_FINISHED        3
 127:D:/fchai/work/i-cube/I-CUBE-HUAWEI/Middlewares/Third_Party/Huawei/iot_link/network/dtls/mbedtls/mbedtls-2.16.2/include/mbedtls\ssl_internal.h **** 
 128:D:/fchai/work/i-cube/I-CUBE-HUAWEI/Middlewares/Third_Party/Huawei/iot_link/network/dtls/mbedtls/mbedtls-2.16.2/include/mbedtls\ssl_internal.h **** /*
 129:D:/fchai/work/i-cube/I-CUBE-HUAWEI/Middlewares/Third_Party/Huawei/iot_link/network/dtls/mbedtls/mbedtls-2.16.2/include/mbedtls\ssl_internal.h ****  * Allow extra bytes for record, authentication and encryption overhead:
 130:D:/fchai/work/i-cube/I-CUBE-HUAWEI/Middlewares/Third_Party/Huawei/iot_link/network/dtls/mbedtls/mbedtls-2.16.2/include/mbedtls\ssl_internal.h ****  * counter (8) + header (5) + IV(16) + MAC (16-48) + padding (0-256)
 131:D:/fchai/work/i-cube/I-CUBE-HUAWEI/Middlewares/Third_Party/Huawei/iot_link/network/dtls/mbedtls/mbedtls-2.16.2/include/mbedtls\ssl_internal.h ****  * and allow for a maximum of 1024 of compression expansion if
 132:D:/fchai/work/i-cube/I-CUBE-HUAWEI/Middlewares/Third_Party/Huawei/iot_link/network/dtls/mbedtls/mbedtls-2.16.2/include/mbedtls\ssl_internal.h ****  * enabled.
 133:D:/fchai/work/i-cube/I-CUBE-HUAWEI/Middlewares/Third_Party/Huawei/iot_link/network/dtls/mbedtls/mbedtls-2.16.2/include/mbedtls\ssl_internal.h ****  */
 134:D:/fchai/work/i-cube/I-CUBE-HUAWEI/Middlewares/Third_Party/Huawei/iot_link/network/dtls/mbedtls/mbedtls-2.16.2/include/mbedtls\ssl_internal.h **** #if defined(MBEDTLS_ZLIB_SUPPORT)
 135:D:/fchai/work/i-cube/I-CUBE-HUAWEI/Middlewares/Third_Party/Huawei/iot_link/network/dtls/mbedtls/mbedtls-2.16.2/include/mbedtls\ssl_internal.h **** #define MBEDTLS_SSL_COMPRESSION_ADD          1024
 136:D:/fchai/work/i-cube/I-CUBE-HUAWEI/Middlewares/Third_Party/Huawei/iot_link/network/dtls/mbedtls/mbedtls-2.16.2/include/mbedtls\ssl_internal.h **** #else
 137:D:/fchai/work/i-cube/I-CUBE-HUAWEI/Middlewares/Third_Party/Huawei/iot_link/network/dtls/mbedtls/mbedtls-2.16.2/include/mbedtls\ssl_internal.h **** #define MBEDTLS_SSL_COMPRESSION_ADD             0
 138:D:/fchai/work/i-cube/I-CUBE-HUAWEI/Middlewares/Third_Party/Huawei/iot_link/network/dtls/mbedtls/mbedtls-2.16.2/include/mbedtls\ssl_internal.h **** #endif
 139:D:/fchai/work/i-cube/I-CUBE-HUAWEI/Middlewares/Third_Party/Huawei/iot_link/network/dtls/mbedtls/mbedtls-2.16.2/include/mbedtls\ssl_internal.h **** 
 140:D:/fchai/work/i-cube/I-CUBE-HUAWEI/Middlewares/Third_Party/Huawei/iot_link/network/dtls/mbedtls/mbedtls-2.16.2/include/mbedtls\ssl_internal.h **** #if defined(MBEDTLS_ARC4_C) || defined(MBEDTLS_CIPHER_MODE_CBC)
 141:D:/fchai/work/i-cube/I-CUBE-HUAWEI/Middlewares/Third_Party/Huawei/iot_link/network/dtls/mbedtls/mbedtls-2.16.2/include/mbedtls\ssl_internal.h **** /* Ciphersuites using HMAC */
 142:D:/fchai/work/i-cube/I-CUBE-HUAWEI/Middlewares/Third_Party/Huawei/iot_link/network/dtls/mbedtls/mbedtls-2.16.2/include/mbedtls\ssl_internal.h **** #if defined(MBEDTLS_SHA512_C)
 143:D:/fchai/work/i-cube/I-CUBE-HUAWEI/Middlewares/Third_Party/Huawei/iot_link/network/dtls/mbedtls/mbedtls-2.16.2/include/mbedtls\ssl_internal.h **** #define MBEDTLS_SSL_MAC_ADD                 48  /* SHA-384 used for HMAC */
 144:D:/fchai/work/i-cube/I-CUBE-HUAWEI/Middlewares/Third_Party/Huawei/iot_link/network/dtls/mbedtls/mbedtls-2.16.2/include/mbedtls\ssl_internal.h **** #elif defined(MBEDTLS_SHA256_C)
 145:D:/fchai/work/i-cube/I-CUBE-HUAWEI/Middlewares/Third_Party/Huawei/iot_link/network/dtls/mbedtls/mbedtls-2.16.2/include/mbedtls\ssl_internal.h **** #define MBEDTLS_SSL_MAC_ADD                 32  /* SHA-256 used for HMAC */
 146:D:/fchai/work/i-cube/I-CUBE-HUAWEI/Middlewares/Third_Party/Huawei/iot_link/network/dtls/mbedtls/mbedtls-2.16.2/include/mbedtls\ssl_internal.h **** #else
 147:D:/fchai/work/i-cube/I-CUBE-HUAWEI/Middlewares/Third_Party/Huawei/iot_link/network/dtls/mbedtls/mbedtls-2.16.2/include/mbedtls\ssl_internal.h **** #define MBEDTLS_SSL_MAC_ADD                 20  /* SHA-1   used for HMAC */
 148:D:/fchai/work/i-cube/I-CUBE-HUAWEI/Middlewares/Third_Party/Huawei/iot_link/network/dtls/mbedtls/mbedtls-2.16.2/include/mbedtls\ssl_internal.h **** #endif
 149:D:/fchai/work/i-cube/I-CUBE-HUAWEI/Middlewares/Third_Party/Huawei/iot_link/network/dtls/mbedtls/mbedtls-2.16.2/include/mbedtls\ssl_internal.h **** #else
 150:D:/fchai/work/i-cube/I-CUBE-HUAWEI/Middlewares/Third_Party/Huawei/iot_link/network/dtls/mbedtls/mbedtls-2.16.2/include/mbedtls\ssl_internal.h **** /* AEAD ciphersuites: GCM and CCM use a 128 bits tag */
 151:D:/fchai/work/i-cube/I-CUBE-HUAWEI/Middlewares/Third_Party/Huawei/iot_link/network/dtls/mbedtls/mbedtls-2.16.2/include/mbedtls\ssl_internal.h **** #define MBEDTLS_SSL_MAC_ADD                 16
 152:D:/fchai/work/i-cube/I-CUBE-HUAWEI/Middlewares/Third_Party/Huawei/iot_link/network/dtls/mbedtls/mbedtls-2.16.2/include/mbedtls\ssl_internal.h **** #endif
 153:D:/fchai/work/i-cube/I-CUBE-HUAWEI/Middlewares/Third_Party/Huawei/iot_link/network/dtls/mbedtls/mbedtls-2.16.2/include/mbedtls\ssl_internal.h **** 
 154:D:/fchai/work/i-cube/I-CUBE-HUAWEI/Middlewares/Third_Party/Huawei/iot_link/network/dtls/mbedtls/mbedtls-2.16.2/include/mbedtls\ssl_internal.h **** #if defined(MBEDTLS_CIPHER_MODE_CBC)
 155:D:/fchai/work/i-cube/I-CUBE-HUAWEI/Middlewares/Third_Party/Huawei/iot_link/network/dtls/mbedtls/mbedtls-2.16.2/include/mbedtls\ssl_internal.h **** #define MBEDTLS_SSL_PADDING_ADD            256
ARM GAS  T:\msys\tmp\ccv76qhU.s 			page 19


 156:D:/fchai/work/i-cube/I-CUBE-HUAWEI/Middlewares/Third_Party/Huawei/iot_link/network/dtls/mbedtls/mbedtls-2.16.2/include/mbedtls\ssl_internal.h **** #else
 157:D:/fchai/work/i-cube/I-CUBE-HUAWEI/Middlewares/Third_Party/Huawei/iot_link/network/dtls/mbedtls/mbedtls-2.16.2/include/mbedtls\ssl_internal.h **** #define MBEDTLS_SSL_PADDING_ADD              0
 158:D:/fchai/work/i-cube/I-CUBE-HUAWEI/Middlewares/Third_Party/Huawei/iot_link/network/dtls/mbedtls/mbedtls-2.16.2/include/mbedtls\ssl_internal.h **** #endif
 159:D:/fchai/work/i-cube/I-CUBE-HUAWEI/Middlewares/Third_Party/Huawei/iot_link/network/dtls/mbedtls/mbedtls-2.16.2/include/mbedtls\ssl_internal.h **** 
 160:D:/fchai/work/i-cube/I-CUBE-HUAWEI/Middlewares/Third_Party/Huawei/iot_link/network/dtls/mbedtls/mbedtls-2.16.2/include/mbedtls\ssl_internal.h **** #define MBEDTLS_SSL_PAYLOAD_OVERHEAD ( MBEDTLS_SSL_COMPRESSION_ADD +    \
 161:D:/fchai/work/i-cube/I-CUBE-HUAWEI/Middlewares/Third_Party/Huawei/iot_link/network/dtls/mbedtls/mbedtls-2.16.2/include/mbedtls\ssl_internal.h ****                                        MBEDTLS_MAX_IV_LENGTH +          \
 162:D:/fchai/work/i-cube/I-CUBE-HUAWEI/Middlewares/Third_Party/Huawei/iot_link/network/dtls/mbedtls/mbedtls-2.16.2/include/mbedtls\ssl_internal.h ****                                        MBEDTLS_SSL_MAC_ADD +            \
 163:D:/fchai/work/i-cube/I-CUBE-HUAWEI/Middlewares/Third_Party/Huawei/iot_link/network/dtls/mbedtls/mbedtls-2.16.2/include/mbedtls\ssl_internal.h ****                                        MBEDTLS_SSL_PADDING_ADD          \
 164:D:/fchai/work/i-cube/I-CUBE-HUAWEI/Middlewares/Third_Party/Huawei/iot_link/network/dtls/mbedtls/mbedtls-2.16.2/include/mbedtls\ssl_internal.h ****                                        )
 165:D:/fchai/work/i-cube/I-CUBE-HUAWEI/Middlewares/Third_Party/Huawei/iot_link/network/dtls/mbedtls/mbedtls-2.16.2/include/mbedtls\ssl_internal.h **** 
 166:D:/fchai/work/i-cube/I-CUBE-HUAWEI/Middlewares/Third_Party/Huawei/iot_link/network/dtls/mbedtls/mbedtls-2.16.2/include/mbedtls\ssl_internal.h **** #define MBEDTLS_SSL_IN_PAYLOAD_LEN ( MBEDTLS_SSL_PAYLOAD_OVERHEAD + \
 167:D:/fchai/work/i-cube/I-CUBE-HUAWEI/Middlewares/Third_Party/Huawei/iot_link/network/dtls/mbedtls/mbedtls-2.16.2/include/mbedtls\ssl_internal.h ****                                      ( MBEDTLS_SSL_IN_CONTENT_LEN ) )
 168:D:/fchai/work/i-cube/I-CUBE-HUAWEI/Middlewares/Third_Party/Huawei/iot_link/network/dtls/mbedtls/mbedtls-2.16.2/include/mbedtls\ssl_internal.h **** 
 169:D:/fchai/work/i-cube/I-CUBE-HUAWEI/Middlewares/Third_Party/Huawei/iot_link/network/dtls/mbedtls/mbedtls-2.16.2/include/mbedtls\ssl_internal.h **** #define MBEDTLS_SSL_OUT_PAYLOAD_LEN ( MBEDTLS_SSL_PAYLOAD_OVERHEAD + \
 170:D:/fchai/work/i-cube/I-CUBE-HUAWEI/Middlewares/Third_Party/Huawei/iot_link/network/dtls/mbedtls/mbedtls-2.16.2/include/mbedtls\ssl_internal.h ****                                       ( MBEDTLS_SSL_OUT_CONTENT_LEN ) )
 171:D:/fchai/work/i-cube/I-CUBE-HUAWEI/Middlewares/Third_Party/Huawei/iot_link/network/dtls/mbedtls/mbedtls-2.16.2/include/mbedtls\ssl_internal.h **** 
 172:D:/fchai/work/i-cube/I-CUBE-HUAWEI/Middlewares/Third_Party/Huawei/iot_link/network/dtls/mbedtls/mbedtls-2.16.2/include/mbedtls\ssl_internal.h **** /* The maximum number of buffered handshake messages. */
 173:D:/fchai/work/i-cube/I-CUBE-HUAWEI/Middlewares/Third_Party/Huawei/iot_link/network/dtls/mbedtls/mbedtls-2.16.2/include/mbedtls\ssl_internal.h **** #define MBEDTLS_SSL_MAX_BUFFERED_HS 4
 174:D:/fchai/work/i-cube/I-CUBE-HUAWEI/Middlewares/Third_Party/Huawei/iot_link/network/dtls/mbedtls/mbedtls-2.16.2/include/mbedtls\ssl_internal.h **** 
 175:D:/fchai/work/i-cube/I-CUBE-HUAWEI/Middlewares/Third_Party/Huawei/iot_link/network/dtls/mbedtls/mbedtls-2.16.2/include/mbedtls\ssl_internal.h **** /* Maximum length we can advertise as our max content length for
 176:D:/fchai/work/i-cube/I-CUBE-HUAWEI/Middlewares/Third_Party/Huawei/iot_link/network/dtls/mbedtls/mbedtls-2.16.2/include/mbedtls\ssl_internal.h ****    RFC 6066 max_fragment_length extension negotiation purposes
 177:D:/fchai/work/i-cube/I-CUBE-HUAWEI/Middlewares/Third_Party/Huawei/iot_link/network/dtls/mbedtls/mbedtls-2.16.2/include/mbedtls\ssl_internal.h ****    (the lesser of both sizes, if they are unequal.)
 178:D:/fchai/work/i-cube/I-CUBE-HUAWEI/Middlewares/Third_Party/Huawei/iot_link/network/dtls/mbedtls/mbedtls-2.16.2/include/mbedtls\ssl_internal.h ****  */
 179:D:/fchai/work/i-cube/I-CUBE-HUAWEI/Middlewares/Third_Party/Huawei/iot_link/network/dtls/mbedtls/mbedtls-2.16.2/include/mbedtls\ssl_internal.h **** #define MBEDTLS_TLS_EXT_ADV_CONTENT_LEN (                            \
 180:D:/fchai/work/i-cube/I-CUBE-HUAWEI/Middlewares/Third_Party/Huawei/iot_link/network/dtls/mbedtls/mbedtls-2.16.2/include/mbedtls\ssl_internal.h ****         (MBEDTLS_SSL_IN_CONTENT_LEN > MBEDTLS_SSL_OUT_CONTENT_LEN)   \
 181:D:/fchai/work/i-cube/I-CUBE-HUAWEI/Middlewares/Third_Party/Huawei/iot_link/network/dtls/mbedtls/mbedtls-2.16.2/include/mbedtls\ssl_internal.h ****         ? ( MBEDTLS_SSL_OUT_CONTENT_LEN )                            \
 182:D:/fchai/work/i-cube/I-CUBE-HUAWEI/Middlewares/Third_Party/Huawei/iot_link/network/dtls/mbedtls/mbedtls-2.16.2/include/mbedtls\ssl_internal.h ****         : ( MBEDTLS_SSL_IN_CONTENT_LEN )                             \
 183:D:/fchai/work/i-cube/I-CUBE-HUAWEI/Middlewares/Third_Party/Huawei/iot_link/network/dtls/mbedtls/mbedtls-2.16.2/include/mbedtls\ssl_internal.h ****         )
 184:D:/fchai/work/i-cube/I-CUBE-HUAWEI/Middlewares/Third_Party/Huawei/iot_link/network/dtls/mbedtls/mbedtls-2.16.2/include/mbedtls\ssl_internal.h **** 
 185:D:/fchai/work/i-cube/I-CUBE-HUAWEI/Middlewares/Third_Party/Huawei/iot_link/network/dtls/mbedtls/mbedtls-2.16.2/include/mbedtls\ssl_internal.h **** /*
 186:D:/fchai/work/i-cube/I-CUBE-HUAWEI/Middlewares/Third_Party/Huawei/iot_link/network/dtls/mbedtls/mbedtls-2.16.2/include/mbedtls\ssl_internal.h ****  * Check that we obey the standard's message size bounds
 187:D:/fchai/work/i-cube/I-CUBE-HUAWEI/Middlewares/Third_Party/Huawei/iot_link/network/dtls/mbedtls/mbedtls-2.16.2/include/mbedtls\ssl_internal.h ****  */
 188:D:/fchai/work/i-cube/I-CUBE-HUAWEI/Middlewares/Third_Party/Huawei/iot_link/network/dtls/mbedtls/mbedtls-2.16.2/include/mbedtls\ssl_internal.h **** 
 189:D:/fchai/work/i-cube/I-CUBE-HUAWEI/Middlewares/Third_Party/Huawei/iot_link/network/dtls/mbedtls/mbedtls-2.16.2/include/mbedtls\ssl_internal.h **** #if MBEDTLS_SSL_MAX_CONTENT_LEN > 16384
 190:D:/fchai/work/i-cube/I-CUBE-HUAWEI/Middlewares/Third_Party/Huawei/iot_link/network/dtls/mbedtls/mbedtls-2.16.2/include/mbedtls\ssl_internal.h **** #error "Bad configuration - record content too large."
 191:D:/fchai/work/i-cube/I-CUBE-HUAWEI/Middlewares/Third_Party/Huawei/iot_link/network/dtls/mbedtls/mbedtls-2.16.2/include/mbedtls\ssl_internal.h **** #endif
 192:D:/fchai/work/i-cube/I-CUBE-HUAWEI/Middlewares/Third_Party/Huawei/iot_link/network/dtls/mbedtls/mbedtls-2.16.2/include/mbedtls\ssl_internal.h **** 
 193:D:/fchai/work/i-cube/I-CUBE-HUAWEI/Middlewares/Third_Party/Huawei/iot_link/network/dtls/mbedtls/mbedtls-2.16.2/include/mbedtls\ssl_internal.h **** #if MBEDTLS_SSL_IN_CONTENT_LEN > MBEDTLS_SSL_MAX_CONTENT_LEN
 194:D:/fchai/work/i-cube/I-CUBE-HUAWEI/Middlewares/Third_Party/Huawei/iot_link/network/dtls/mbedtls/mbedtls-2.16.2/include/mbedtls\ssl_internal.h **** #error "Bad configuration - incoming record content should not be larger than MBEDTLS_SSL_MAX_CONTE
 195:D:/fchai/work/i-cube/I-CUBE-HUAWEI/Middlewares/Third_Party/Huawei/iot_link/network/dtls/mbedtls/mbedtls-2.16.2/include/mbedtls\ssl_internal.h **** #endif
 196:D:/fchai/work/i-cube/I-CUBE-HUAWEI/Middlewares/Third_Party/Huawei/iot_link/network/dtls/mbedtls/mbedtls-2.16.2/include/mbedtls\ssl_internal.h **** 
 197:D:/fchai/work/i-cube/I-CUBE-HUAWEI/Middlewares/Third_Party/Huawei/iot_link/network/dtls/mbedtls/mbedtls-2.16.2/include/mbedtls\ssl_internal.h **** #if MBEDTLS_SSL_OUT_CONTENT_LEN > MBEDTLS_SSL_MAX_CONTENT_LEN
 198:D:/fchai/work/i-cube/I-CUBE-HUAWEI/Middlewares/Third_Party/Huawei/iot_link/network/dtls/mbedtls/mbedtls-2.16.2/include/mbedtls\ssl_internal.h **** #error "Bad configuration - outgoing record content should not be larger than MBEDTLS_SSL_MAX_CONTE
 199:D:/fchai/work/i-cube/I-CUBE-HUAWEI/Middlewares/Third_Party/Huawei/iot_link/network/dtls/mbedtls/mbedtls-2.16.2/include/mbedtls\ssl_internal.h **** #endif
 200:D:/fchai/work/i-cube/I-CUBE-HUAWEI/Middlewares/Third_Party/Huawei/iot_link/network/dtls/mbedtls/mbedtls-2.16.2/include/mbedtls\ssl_internal.h **** 
 201:D:/fchai/work/i-cube/I-CUBE-HUAWEI/Middlewares/Third_Party/Huawei/iot_link/network/dtls/mbedtls/mbedtls-2.16.2/include/mbedtls\ssl_internal.h **** #if MBEDTLS_SSL_IN_PAYLOAD_LEN > MBEDTLS_SSL_MAX_CONTENT_LEN + 2048
 202:D:/fchai/work/i-cube/I-CUBE-HUAWEI/Middlewares/Third_Party/Huawei/iot_link/network/dtls/mbedtls/mbedtls-2.16.2/include/mbedtls\ssl_internal.h **** #error "Bad configuration - incoming protected record payload too large."
 203:D:/fchai/work/i-cube/I-CUBE-HUAWEI/Middlewares/Third_Party/Huawei/iot_link/network/dtls/mbedtls/mbedtls-2.16.2/include/mbedtls\ssl_internal.h **** #endif
 204:D:/fchai/work/i-cube/I-CUBE-HUAWEI/Middlewares/Third_Party/Huawei/iot_link/network/dtls/mbedtls/mbedtls-2.16.2/include/mbedtls\ssl_internal.h **** 
 205:D:/fchai/work/i-cube/I-CUBE-HUAWEI/Middlewares/Third_Party/Huawei/iot_link/network/dtls/mbedtls/mbedtls-2.16.2/include/mbedtls\ssl_internal.h **** #if MBEDTLS_SSL_OUT_PAYLOAD_LEN > MBEDTLS_SSL_MAX_CONTENT_LEN + 2048
 206:D:/fchai/work/i-cube/I-CUBE-HUAWEI/Middlewares/Third_Party/Huawei/iot_link/network/dtls/mbedtls/mbedtls-2.16.2/include/mbedtls\ssl_internal.h **** #error "Bad configuration - outgoing protected record payload too large."
 207:D:/fchai/work/i-cube/I-CUBE-HUAWEI/Middlewares/Third_Party/Huawei/iot_link/network/dtls/mbedtls/mbedtls-2.16.2/include/mbedtls\ssl_internal.h **** #endif
 208:D:/fchai/work/i-cube/I-CUBE-HUAWEI/Middlewares/Third_Party/Huawei/iot_link/network/dtls/mbedtls/mbedtls-2.16.2/include/mbedtls\ssl_internal.h **** 
 209:D:/fchai/work/i-cube/I-CUBE-HUAWEI/Middlewares/Third_Party/Huawei/iot_link/network/dtls/mbedtls/mbedtls-2.16.2/include/mbedtls\ssl_internal.h **** /* Calculate buffer sizes */
 210:D:/fchai/work/i-cube/I-CUBE-HUAWEI/Middlewares/Third_Party/Huawei/iot_link/network/dtls/mbedtls/mbedtls-2.16.2/include/mbedtls\ssl_internal.h **** 
 211:D:/fchai/work/i-cube/I-CUBE-HUAWEI/Middlewares/Third_Party/Huawei/iot_link/network/dtls/mbedtls/mbedtls-2.16.2/include/mbedtls\ssl_internal.h **** /* Note: Even though the TLS record header is only 5 bytes
 212:D:/fchai/work/i-cube/I-CUBE-HUAWEI/Middlewares/Third_Party/Huawei/iot_link/network/dtls/mbedtls/mbedtls-2.16.2/include/mbedtls\ssl_internal.h ****    long, we're internally using 8 bytes to store the
ARM GAS  T:\msys\tmp\ccv76qhU.s 			page 20


 213:D:/fchai/work/i-cube/I-CUBE-HUAWEI/Middlewares/Third_Party/Huawei/iot_link/network/dtls/mbedtls/mbedtls-2.16.2/include/mbedtls\ssl_internal.h ****    implicit sequence number. */
 214:D:/fchai/work/i-cube/I-CUBE-HUAWEI/Middlewares/Third_Party/Huawei/iot_link/network/dtls/mbedtls/mbedtls-2.16.2/include/mbedtls\ssl_internal.h **** #define MBEDTLS_SSL_HEADER_LEN 13
 215:D:/fchai/work/i-cube/I-CUBE-HUAWEI/Middlewares/Third_Party/Huawei/iot_link/network/dtls/mbedtls/mbedtls-2.16.2/include/mbedtls\ssl_internal.h **** 
 216:D:/fchai/work/i-cube/I-CUBE-HUAWEI/Middlewares/Third_Party/Huawei/iot_link/network/dtls/mbedtls/mbedtls-2.16.2/include/mbedtls\ssl_internal.h **** #define MBEDTLS_SSL_IN_BUFFER_LEN  \
 217:D:/fchai/work/i-cube/I-CUBE-HUAWEI/Middlewares/Third_Party/Huawei/iot_link/network/dtls/mbedtls/mbedtls-2.16.2/include/mbedtls\ssl_internal.h ****     ( ( MBEDTLS_SSL_HEADER_LEN ) + ( MBEDTLS_SSL_IN_PAYLOAD_LEN ) )
 218:D:/fchai/work/i-cube/I-CUBE-HUAWEI/Middlewares/Third_Party/Huawei/iot_link/network/dtls/mbedtls/mbedtls-2.16.2/include/mbedtls\ssl_internal.h **** 
 219:D:/fchai/work/i-cube/I-CUBE-HUAWEI/Middlewares/Third_Party/Huawei/iot_link/network/dtls/mbedtls/mbedtls-2.16.2/include/mbedtls\ssl_internal.h **** #define MBEDTLS_SSL_OUT_BUFFER_LEN  \
 220:D:/fchai/work/i-cube/I-CUBE-HUAWEI/Middlewares/Third_Party/Huawei/iot_link/network/dtls/mbedtls/mbedtls-2.16.2/include/mbedtls\ssl_internal.h ****     ( ( MBEDTLS_SSL_HEADER_LEN ) + ( MBEDTLS_SSL_OUT_PAYLOAD_LEN ) )
 221:D:/fchai/work/i-cube/I-CUBE-HUAWEI/Middlewares/Third_Party/Huawei/iot_link/network/dtls/mbedtls/mbedtls-2.16.2/include/mbedtls\ssl_internal.h **** 
 222:D:/fchai/work/i-cube/I-CUBE-HUAWEI/Middlewares/Third_Party/Huawei/iot_link/network/dtls/mbedtls/mbedtls-2.16.2/include/mbedtls\ssl_internal.h **** #ifdef MBEDTLS_ZLIB_SUPPORT
 223:D:/fchai/work/i-cube/I-CUBE-HUAWEI/Middlewares/Third_Party/Huawei/iot_link/network/dtls/mbedtls/mbedtls-2.16.2/include/mbedtls\ssl_internal.h **** /* Compression buffer holds both IN and OUT buffers, so should be size of the larger */
 224:D:/fchai/work/i-cube/I-CUBE-HUAWEI/Middlewares/Third_Party/Huawei/iot_link/network/dtls/mbedtls/mbedtls-2.16.2/include/mbedtls\ssl_internal.h **** #define MBEDTLS_SSL_COMPRESS_BUFFER_LEN (                               \
 225:D:/fchai/work/i-cube/I-CUBE-HUAWEI/Middlewares/Third_Party/Huawei/iot_link/network/dtls/mbedtls/mbedtls-2.16.2/include/mbedtls\ssl_internal.h ****         ( MBEDTLS_SSL_IN_BUFFER_LEN > MBEDTLS_SSL_OUT_BUFFER_LEN )      \
 226:D:/fchai/work/i-cube/I-CUBE-HUAWEI/Middlewares/Third_Party/Huawei/iot_link/network/dtls/mbedtls/mbedtls-2.16.2/include/mbedtls\ssl_internal.h ****         ? MBEDTLS_SSL_IN_BUFFER_LEN                                     \
 227:D:/fchai/work/i-cube/I-CUBE-HUAWEI/Middlewares/Third_Party/Huawei/iot_link/network/dtls/mbedtls/mbedtls-2.16.2/include/mbedtls\ssl_internal.h ****         : MBEDTLS_SSL_OUT_BUFFER_LEN                                    \
 228:D:/fchai/work/i-cube/I-CUBE-HUAWEI/Middlewares/Third_Party/Huawei/iot_link/network/dtls/mbedtls/mbedtls-2.16.2/include/mbedtls\ssl_internal.h ****         )
 229:D:/fchai/work/i-cube/I-CUBE-HUAWEI/Middlewares/Third_Party/Huawei/iot_link/network/dtls/mbedtls/mbedtls-2.16.2/include/mbedtls\ssl_internal.h **** #endif
 230:D:/fchai/work/i-cube/I-CUBE-HUAWEI/Middlewares/Third_Party/Huawei/iot_link/network/dtls/mbedtls/mbedtls-2.16.2/include/mbedtls\ssl_internal.h **** 
 231:D:/fchai/work/i-cube/I-CUBE-HUAWEI/Middlewares/Third_Party/Huawei/iot_link/network/dtls/mbedtls/mbedtls-2.16.2/include/mbedtls\ssl_internal.h **** /*
 232:D:/fchai/work/i-cube/I-CUBE-HUAWEI/Middlewares/Third_Party/Huawei/iot_link/network/dtls/mbedtls/mbedtls-2.16.2/include/mbedtls\ssl_internal.h ****  * TLS extension flags (for extensions with outgoing ServerHello content
 233:D:/fchai/work/i-cube/I-CUBE-HUAWEI/Middlewares/Third_Party/Huawei/iot_link/network/dtls/mbedtls/mbedtls-2.16.2/include/mbedtls\ssl_internal.h ****  * that need it (e.g. for RENEGOTIATION_INFO the server already knows because
 234:D:/fchai/work/i-cube/I-CUBE-HUAWEI/Middlewares/Third_Party/Huawei/iot_link/network/dtls/mbedtls/mbedtls-2.16.2/include/mbedtls\ssl_internal.h ****  * of state of the renegotiation flag, so no indicator is required)
 235:D:/fchai/work/i-cube/I-CUBE-HUAWEI/Middlewares/Third_Party/Huawei/iot_link/network/dtls/mbedtls/mbedtls-2.16.2/include/mbedtls\ssl_internal.h ****  */
 236:D:/fchai/work/i-cube/I-CUBE-HUAWEI/Middlewares/Third_Party/Huawei/iot_link/network/dtls/mbedtls/mbedtls-2.16.2/include/mbedtls\ssl_internal.h **** #define MBEDTLS_TLS_EXT_SUPPORTED_POINT_FORMATS_PRESENT (1 << 0)
 237:D:/fchai/work/i-cube/I-CUBE-HUAWEI/Middlewares/Third_Party/Huawei/iot_link/network/dtls/mbedtls/mbedtls-2.16.2/include/mbedtls\ssl_internal.h **** #define MBEDTLS_TLS_EXT_ECJPAKE_KKPP_OK                 (1 << 1)
 238:D:/fchai/work/i-cube/I-CUBE-HUAWEI/Middlewares/Third_Party/Huawei/iot_link/network/dtls/mbedtls/mbedtls-2.16.2/include/mbedtls\ssl_internal.h **** 
 239:D:/fchai/work/i-cube/I-CUBE-HUAWEI/Middlewares/Third_Party/Huawei/iot_link/network/dtls/mbedtls/mbedtls-2.16.2/include/mbedtls\ssl_internal.h **** #ifdef __cplusplus
 240:D:/fchai/work/i-cube/I-CUBE-HUAWEI/Middlewares/Third_Party/Huawei/iot_link/network/dtls/mbedtls/mbedtls-2.16.2/include/mbedtls\ssl_internal.h **** extern "C" {
 241:D:/fchai/work/i-cube/I-CUBE-HUAWEI/Middlewares/Third_Party/Huawei/iot_link/network/dtls/mbedtls/mbedtls-2.16.2/include/mbedtls\ssl_internal.h **** #endif
 242:D:/fchai/work/i-cube/I-CUBE-HUAWEI/Middlewares/Third_Party/Huawei/iot_link/network/dtls/mbedtls/mbedtls-2.16.2/include/mbedtls\ssl_internal.h **** 
 243:D:/fchai/work/i-cube/I-CUBE-HUAWEI/Middlewares/Third_Party/Huawei/iot_link/network/dtls/mbedtls/mbedtls-2.16.2/include/mbedtls\ssl_internal.h **** #if defined(MBEDTLS_SSL_PROTO_TLS1_2) && \
 244:D:/fchai/work/i-cube/I-CUBE-HUAWEI/Middlewares/Third_Party/Huawei/iot_link/network/dtls/mbedtls/mbedtls-2.16.2/include/mbedtls\ssl_internal.h ****     defined(MBEDTLS_KEY_EXCHANGE__WITH_CERT__ENABLED)
 245:D:/fchai/work/i-cube/I-CUBE-HUAWEI/Middlewares/Third_Party/Huawei/iot_link/network/dtls/mbedtls/mbedtls-2.16.2/include/mbedtls\ssl_internal.h **** /*
 246:D:/fchai/work/i-cube/I-CUBE-HUAWEI/Middlewares/Third_Party/Huawei/iot_link/network/dtls/mbedtls/mbedtls-2.16.2/include/mbedtls\ssl_internal.h ****  * Abstraction for a grid of allowed signature-hash-algorithm pairs.
 247:D:/fchai/work/i-cube/I-CUBE-HUAWEI/Middlewares/Third_Party/Huawei/iot_link/network/dtls/mbedtls/mbedtls-2.16.2/include/mbedtls\ssl_internal.h ****  */
 248:D:/fchai/work/i-cube/I-CUBE-HUAWEI/Middlewares/Third_Party/Huawei/iot_link/network/dtls/mbedtls/mbedtls-2.16.2/include/mbedtls\ssl_internal.h **** struct mbedtls_ssl_sig_hash_set_t
 249:D:/fchai/work/i-cube/I-CUBE-HUAWEI/Middlewares/Third_Party/Huawei/iot_link/network/dtls/mbedtls/mbedtls-2.16.2/include/mbedtls\ssl_internal.h **** {
 250:D:/fchai/work/i-cube/I-CUBE-HUAWEI/Middlewares/Third_Party/Huawei/iot_link/network/dtls/mbedtls/mbedtls-2.16.2/include/mbedtls\ssl_internal.h ****     /* At the moment, we only need to remember a single suitable
 251:D:/fchai/work/i-cube/I-CUBE-HUAWEI/Middlewares/Third_Party/Huawei/iot_link/network/dtls/mbedtls/mbedtls-2.16.2/include/mbedtls\ssl_internal.h ****      * hash algorithm per signature algorithm. As long as that's
 252:D:/fchai/work/i-cube/I-CUBE-HUAWEI/Middlewares/Third_Party/Huawei/iot_link/network/dtls/mbedtls/mbedtls-2.16.2/include/mbedtls\ssl_internal.h ****      * the case - and we don't need a general lookup function -
 253:D:/fchai/work/i-cube/I-CUBE-HUAWEI/Middlewares/Third_Party/Huawei/iot_link/network/dtls/mbedtls/mbedtls-2.16.2/include/mbedtls\ssl_internal.h ****      * we can implement the sig-hash-set as a map from signatures
 254:D:/fchai/work/i-cube/I-CUBE-HUAWEI/Middlewares/Third_Party/Huawei/iot_link/network/dtls/mbedtls/mbedtls-2.16.2/include/mbedtls\ssl_internal.h ****      * to hash algorithms. */
 255:D:/fchai/work/i-cube/I-CUBE-HUAWEI/Middlewares/Third_Party/Huawei/iot_link/network/dtls/mbedtls/mbedtls-2.16.2/include/mbedtls\ssl_internal.h ****     mbedtls_md_type_t rsa;
 256:D:/fchai/work/i-cube/I-CUBE-HUAWEI/Middlewares/Third_Party/Huawei/iot_link/network/dtls/mbedtls/mbedtls-2.16.2/include/mbedtls\ssl_internal.h ****     mbedtls_md_type_t ecdsa;
 257:D:/fchai/work/i-cube/I-CUBE-HUAWEI/Middlewares/Third_Party/Huawei/iot_link/network/dtls/mbedtls/mbedtls-2.16.2/include/mbedtls\ssl_internal.h **** };
 258:D:/fchai/work/i-cube/I-CUBE-HUAWEI/Middlewares/Third_Party/Huawei/iot_link/network/dtls/mbedtls/mbedtls-2.16.2/include/mbedtls\ssl_internal.h **** #endif /* MBEDTLS_SSL_PROTO_TLS1_2 &&
 259:D:/fchai/work/i-cube/I-CUBE-HUAWEI/Middlewares/Third_Party/Huawei/iot_link/network/dtls/mbedtls/mbedtls-2.16.2/include/mbedtls\ssl_internal.h ****           MBEDTLS_KEY_EXCHANGE__WITH_CERT__ENABLED */
 260:D:/fchai/work/i-cube/I-CUBE-HUAWEI/Middlewares/Third_Party/Huawei/iot_link/network/dtls/mbedtls/mbedtls-2.16.2/include/mbedtls\ssl_internal.h **** 
 261:D:/fchai/work/i-cube/I-CUBE-HUAWEI/Middlewares/Third_Party/Huawei/iot_link/network/dtls/mbedtls/mbedtls-2.16.2/include/mbedtls\ssl_internal.h **** /*
 262:D:/fchai/work/i-cube/I-CUBE-HUAWEI/Middlewares/Third_Party/Huawei/iot_link/network/dtls/mbedtls/mbedtls-2.16.2/include/mbedtls\ssl_internal.h ****  * This structure contains the parameters only needed during handshake.
 263:D:/fchai/work/i-cube/I-CUBE-HUAWEI/Middlewares/Third_Party/Huawei/iot_link/network/dtls/mbedtls/mbedtls-2.16.2/include/mbedtls\ssl_internal.h ****  */
 264:D:/fchai/work/i-cube/I-CUBE-HUAWEI/Middlewares/Third_Party/Huawei/iot_link/network/dtls/mbedtls/mbedtls-2.16.2/include/mbedtls\ssl_internal.h **** struct mbedtls_ssl_handshake_params
 265:D:/fchai/work/i-cube/I-CUBE-HUAWEI/Middlewares/Third_Party/Huawei/iot_link/network/dtls/mbedtls/mbedtls-2.16.2/include/mbedtls\ssl_internal.h **** {
 266:D:/fchai/work/i-cube/I-CUBE-HUAWEI/Middlewares/Third_Party/Huawei/iot_link/network/dtls/mbedtls/mbedtls-2.16.2/include/mbedtls\ssl_internal.h ****     /*
 267:D:/fchai/work/i-cube/I-CUBE-HUAWEI/Middlewares/Third_Party/Huawei/iot_link/network/dtls/mbedtls/mbedtls-2.16.2/include/mbedtls\ssl_internal.h ****      * Handshake specific crypto variables
 268:D:/fchai/work/i-cube/I-CUBE-HUAWEI/Middlewares/Third_Party/Huawei/iot_link/network/dtls/mbedtls/mbedtls-2.16.2/include/mbedtls\ssl_internal.h ****      */
 269:D:/fchai/work/i-cube/I-CUBE-HUAWEI/Middlewares/Third_Party/Huawei/iot_link/network/dtls/mbedtls/mbedtls-2.16.2/include/mbedtls\ssl_internal.h **** 
ARM GAS  T:\msys\tmp\ccv76qhU.s 			page 21


 270:D:/fchai/work/i-cube/I-CUBE-HUAWEI/Middlewares/Third_Party/Huawei/iot_link/network/dtls/mbedtls/mbedtls-2.16.2/include/mbedtls\ssl_internal.h **** #if defined(MBEDTLS_SSL_PROTO_TLS1_2) && \
 271:D:/fchai/work/i-cube/I-CUBE-HUAWEI/Middlewares/Third_Party/Huawei/iot_link/network/dtls/mbedtls/mbedtls-2.16.2/include/mbedtls\ssl_internal.h ****     defined(MBEDTLS_KEY_EXCHANGE__WITH_CERT__ENABLED)
 272:D:/fchai/work/i-cube/I-CUBE-HUAWEI/Middlewares/Third_Party/Huawei/iot_link/network/dtls/mbedtls/mbedtls-2.16.2/include/mbedtls\ssl_internal.h ****     mbedtls_ssl_sig_hash_set_t hash_algs;             /*!<  Set of suitable sig-hash pairs */
 273:D:/fchai/work/i-cube/I-CUBE-HUAWEI/Middlewares/Third_Party/Huawei/iot_link/network/dtls/mbedtls/mbedtls-2.16.2/include/mbedtls\ssl_internal.h **** #endif
 274:D:/fchai/work/i-cube/I-CUBE-HUAWEI/Middlewares/Third_Party/Huawei/iot_link/network/dtls/mbedtls/mbedtls-2.16.2/include/mbedtls\ssl_internal.h **** #if defined(MBEDTLS_DHM_C)
 275:D:/fchai/work/i-cube/I-CUBE-HUAWEI/Middlewares/Third_Party/Huawei/iot_link/network/dtls/mbedtls/mbedtls-2.16.2/include/mbedtls\ssl_internal.h ****     mbedtls_dhm_context dhm_ctx;                /*!<  DHM key exchange        */
 276:D:/fchai/work/i-cube/I-CUBE-HUAWEI/Middlewares/Third_Party/Huawei/iot_link/network/dtls/mbedtls/mbedtls-2.16.2/include/mbedtls\ssl_internal.h **** #endif
 277:D:/fchai/work/i-cube/I-CUBE-HUAWEI/Middlewares/Third_Party/Huawei/iot_link/network/dtls/mbedtls/mbedtls-2.16.2/include/mbedtls\ssl_internal.h **** #if defined(MBEDTLS_ECDH_C)
 278:D:/fchai/work/i-cube/I-CUBE-HUAWEI/Middlewares/Third_Party/Huawei/iot_link/network/dtls/mbedtls/mbedtls-2.16.2/include/mbedtls\ssl_internal.h ****     mbedtls_ecdh_context ecdh_ctx;              /*!<  ECDH key exchange       */
 279:D:/fchai/work/i-cube/I-CUBE-HUAWEI/Middlewares/Third_Party/Huawei/iot_link/network/dtls/mbedtls/mbedtls-2.16.2/include/mbedtls\ssl_internal.h **** #endif
 280:D:/fchai/work/i-cube/I-CUBE-HUAWEI/Middlewares/Third_Party/Huawei/iot_link/network/dtls/mbedtls/mbedtls-2.16.2/include/mbedtls\ssl_internal.h **** #if defined(MBEDTLS_KEY_EXCHANGE_ECJPAKE_ENABLED)
 281:D:/fchai/work/i-cube/I-CUBE-HUAWEI/Middlewares/Third_Party/Huawei/iot_link/network/dtls/mbedtls/mbedtls-2.16.2/include/mbedtls\ssl_internal.h ****     mbedtls_ecjpake_context ecjpake_ctx;        /*!< EC J-PAKE key exchange */
 282:D:/fchai/work/i-cube/I-CUBE-HUAWEI/Middlewares/Third_Party/Huawei/iot_link/network/dtls/mbedtls/mbedtls-2.16.2/include/mbedtls\ssl_internal.h **** #if defined(MBEDTLS_SSL_CLI_C)
 283:D:/fchai/work/i-cube/I-CUBE-HUAWEI/Middlewares/Third_Party/Huawei/iot_link/network/dtls/mbedtls/mbedtls-2.16.2/include/mbedtls\ssl_internal.h ****     unsigned char *ecjpake_cache;               /*!< Cache for ClientHello ext */
 284:D:/fchai/work/i-cube/I-CUBE-HUAWEI/Middlewares/Third_Party/Huawei/iot_link/network/dtls/mbedtls/mbedtls-2.16.2/include/mbedtls\ssl_internal.h ****     size_t ecjpake_cache_len;                   /*!< Length of cached data */
 285:D:/fchai/work/i-cube/I-CUBE-HUAWEI/Middlewares/Third_Party/Huawei/iot_link/network/dtls/mbedtls/mbedtls-2.16.2/include/mbedtls\ssl_internal.h **** #endif
 286:D:/fchai/work/i-cube/I-CUBE-HUAWEI/Middlewares/Third_Party/Huawei/iot_link/network/dtls/mbedtls/mbedtls-2.16.2/include/mbedtls\ssl_internal.h **** #endif /* MBEDTLS_KEY_EXCHANGE_ECJPAKE_ENABLED */
 287:D:/fchai/work/i-cube/I-CUBE-HUAWEI/Middlewares/Third_Party/Huawei/iot_link/network/dtls/mbedtls/mbedtls-2.16.2/include/mbedtls\ssl_internal.h **** #if defined(MBEDTLS_ECDH_C) || defined(MBEDTLS_ECDSA_C) || \
 288:D:/fchai/work/i-cube/I-CUBE-HUAWEI/Middlewares/Third_Party/Huawei/iot_link/network/dtls/mbedtls/mbedtls-2.16.2/include/mbedtls\ssl_internal.h ****     defined(MBEDTLS_KEY_EXCHANGE_ECJPAKE_ENABLED)
 289:D:/fchai/work/i-cube/I-CUBE-HUAWEI/Middlewares/Third_Party/Huawei/iot_link/network/dtls/mbedtls/mbedtls-2.16.2/include/mbedtls\ssl_internal.h ****     const mbedtls_ecp_curve_info **curves;      /*!<  Supported elliptic curves */
 290:D:/fchai/work/i-cube/I-CUBE-HUAWEI/Middlewares/Third_Party/Huawei/iot_link/network/dtls/mbedtls/mbedtls-2.16.2/include/mbedtls\ssl_internal.h **** #endif
 291:D:/fchai/work/i-cube/I-CUBE-HUAWEI/Middlewares/Third_Party/Huawei/iot_link/network/dtls/mbedtls/mbedtls-2.16.2/include/mbedtls\ssl_internal.h **** #if defined(MBEDTLS_KEY_EXCHANGE__SOME__PSK_ENABLED)
 292:D:/fchai/work/i-cube/I-CUBE-HUAWEI/Middlewares/Third_Party/Huawei/iot_link/network/dtls/mbedtls/mbedtls-2.16.2/include/mbedtls\ssl_internal.h ****     unsigned char *psk;                 /*!<  PSK from the callback         */
 293:D:/fchai/work/i-cube/I-CUBE-HUAWEI/Middlewares/Third_Party/Huawei/iot_link/network/dtls/mbedtls/mbedtls-2.16.2/include/mbedtls\ssl_internal.h ****     size_t psk_len;                     /*!<  Length of PSK from callback   */
 294:D:/fchai/work/i-cube/I-CUBE-HUAWEI/Middlewares/Third_Party/Huawei/iot_link/network/dtls/mbedtls/mbedtls-2.16.2/include/mbedtls\ssl_internal.h **** #endif
 295:D:/fchai/work/i-cube/I-CUBE-HUAWEI/Middlewares/Third_Party/Huawei/iot_link/network/dtls/mbedtls/mbedtls-2.16.2/include/mbedtls\ssl_internal.h **** #if defined(MBEDTLS_X509_CRT_PARSE_C)
 296:D:/fchai/work/i-cube/I-CUBE-HUAWEI/Middlewares/Third_Party/Huawei/iot_link/network/dtls/mbedtls/mbedtls-2.16.2/include/mbedtls\ssl_internal.h ****     mbedtls_ssl_key_cert *key_cert;     /*!< chosen key/cert pair (server)  */
 297:D:/fchai/work/i-cube/I-CUBE-HUAWEI/Middlewares/Third_Party/Huawei/iot_link/network/dtls/mbedtls/mbedtls-2.16.2/include/mbedtls\ssl_internal.h **** #if defined(MBEDTLS_SSL_SERVER_NAME_INDICATION)
 298:D:/fchai/work/i-cube/I-CUBE-HUAWEI/Middlewares/Third_Party/Huawei/iot_link/network/dtls/mbedtls/mbedtls-2.16.2/include/mbedtls\ssl_internal.h ****     int sni_authmode;                   /*!< authmode from SNI callback     */
 299:D:/fchai/work/i-cube/I-CUBE-HUAWEI/Middlewares/Third_Party/Huawei/iot_link/network/dtls/mbedtls/mbedtls-2.16.2/include/mbedtls\ssl_internal.h ****     mbedtls_ssl_key_cert *sni_key_cert; /*!< key/cert list from SNI         */
 300:D:/fchai/work/i-cube/I-CUBE-HUAWEI/Middlewares/Third_Party/Huawei/iot_link/network/dtls/mbedtls/mbedtls-2.16.2/include/mbedtls\ssl_internal.h ****     mbedtls_x509_crt *sni_ca_chain;     /*!< trusted CAs from SNI callback  */
 301:D:/fchai/work/i-cube/I-CUBE-HUAWEI/Middlewares/Third_Party/Huawei/iot_link/network/dtls/mbedtls/mbedtls-2.16.2/include/mbedtls\ssl_internal.h ****     mbedtls_x509_crl *sni_ca_crl;       /*!< trusted CAs CRLs from SNI      */
 302:D:/fchai/work/i-cube/I-CUBE-HUAWEI/Middlewares/Third_Party/Huawei/iot_link/network/dtls/mbedtls/mbedtls-2.16.2/include/mbedtls\ssl_internal.h **** #endif /* MBEDTLS_SSL_SERVER_NAME_INDICATION */
 303:D:/fchai/work/i-cube/I-CUBE-HUAWEI/Middlewares/Third_Party/Huawei/iot_link/network/dtls/mbedtls/mbedtls-2.16.2/include/mbedtls\ssl_internal.h **** #endif /* MBEDTLS_X509_CRT_PARSE_C */
 304:D:/fchai/work/i-cube/I-CUBE-HUAWEI/Middlewares/Third_Party/Huawei/iot_link/network/dtls/mbedtls/mbedtls-2.16.2/include/mbedtls\ssl_internal.h **** #if defined(MBEDTLS_SSL__ECP_RESTARTABLE)
 305:D:/fchai/work/i-cube/I-CUBE-HUAWEI/Middlewares/Third_Party/Huawei/iot_link/network/dtls/mbedtls/mbedtls-2.16.2/include/mbedtls\ssl_internal.h ****     int ecrs_enabled;                   /*!< Handshake supports EC restart? */
 306:D:/fchai/work/i-cube/I-CUBE-HUAWEI/Middlewares/Third_Party/Huawei/iot_link/network/dtls/mbedtls/mbedtls-2.16.2/include/mbedtls\ssl_internal.h ****     mbedtls_x509_crt_restart_ctx ecrs_ctx;  /*!< restart context            */
 307:D:/fchai/work/i-cube/I-CUBE-HUAWEI/Middlewares/Third_Party/Huawei/iot_link/network/dtls/mbedtls/mbedtls-2.16.2/include/mbedtls\ssl_internal.h ****     enum { /* this complements ssl->state with info on intra-state operations */
 308:D:/fchai/work/i-cube/I-CUBE-HUAWEI/Middlewares/Third_Party/Huawei/iot_link/network/dtls/mbedtls/mbedtls-2.16.2/include/mbedtls\ssl_internal.h ****         ssl_ecrs_none = 0,              /*!< nothing going on (yet)         */
 309:D:/fchai/work/i-cube/I-CUBE-HUAWEI/Middlewares/Third_Party/Huawei/iot_link/network/dtls/mbedtls/mbedtls-2.16.2/include/mbedtls\ssl_internal.h ****         ssl_ecrs_crt_verify,            /*!< Certificate: crt_verify()      */
 310:D:/fchai/work/i-cube/I-CUBE-HUAWEI/Middlewares/Third_Party/Huawei/iot_link/network/dtls/mbedtls/mbedtls-2.16.2/include/mbedtls\ssl_internal.h ****         ssl_ecrs_ske_start_processing,  /*!< ServerKeyExchange: pk_verify() */
 311:D:/fchai/work/i-cube/I-CUBE-HUAWEI/Middlewares/Third_Party/Huawei/iot_link/network/dtls/mbedtls/mbedtls-2.16.2/include/mbedtls\ssl_internal.h ****         ssl_ecrs_cke_ecdh_calc_secret,  /*!< ClientKeyExchange: ECDH step 2 */
 312:D:/fchai/work/i-cube/I-CUBE-HUAWEI/Middlewares/Third_Party/Huawei/iot_link/network/dtls/mbedtls/mbedtls-2.16.2/include/mbedtls\ssl_internal.h ****         ssl_ecrs_crt_vrfy_sign,         /*!< CertificateVerify: pk_sign()   */
 313:D:/fchai/work/i-cube/I-CUBE-HUAWEI/Middlewares/Third_Party/Huawei/iot_link/network/dtls/mbedtls/mbedtls-2.16.2/include/mbedtls\ssl_internal.h ****     } ecrs_state;                       /*!< current (or last) operation    */
 314:D:/fchai/work/i-cube/I-CUBE-HUAWEI/Middlewares/Third_Party/Huawei/iot_link/network/dtls/mbedtls/mbedtls-2.16.2/include/mbedtls\ssl_internal.h ****     size_t ecrs_n;                      /*!< place for saving a length      */
 315:D:/fchai/work/i-cube/I-CUBE-HUAWEI/Middlewares/Third_Party/Huawei/iot_link/network/dtls/mbedtls/mbedtls-2.16.2/include/mbedtls\ssl_internal.h **** #endif
 316:D:/fchai/work/i-cube/I-CUBE-HUAWEI/Middlewares/Third_Party/Huawei/iot_link/network/dtls/mbedtls/mbedtls-2.16.2/include/mbedtls\ssl_internal.h **** #if defined(MBEDTLS_SSL_PROTO_DTLS)
 317:D:/fchai/work/i-cube/I-CUBE-HUAWEI/Middlewares/Third_Party/Huawei/iot_link/network/dtls/mbedtls/mbedtls-2.16.2/include/mbedtls\ssl_internal.h ****     unsigned int out_msg_seq;           /*!<  Outgoing handshake sequence number */
 318:D:/fchai/work/i-cube/I-CUBE-HUAWEI/Middlewares/Third_Party/Huawei/iot_link/network/dtls/mbedtls/mbedtls-2.16.2/include/mbedtls\ssl_internal.h ****     unsigned int in_msg_seq;            /*!<  Incoming handshake sequence number */
 319:D:/fchai/work/i-cube/I-CUBE-HUAWEI/Middlewares/Third_Party/Huawei/iot_link/network/dtls/mbedtls/mbedtls-2.16.2/include/mbedtls\ssl_internal.h **** 
 320:D:/fchai/work/i-cube/I-CUBE-HUAWEI/Middlewares/Third_Party/Huawei/iot_link/network/dtls/mbedtls/mbedtls-2.16.2/include/mbedtls\ssl_internal.h ****     unsigned char *verify_cookie;       /*!<  Cli: HelloVerifyRequest cookie
 321:D:/fchai/work/i-cube/I-CUBE-HUAWEI/Middlewares/Third_Party/Huawei/iot_link/network/dtls/mbedtls/mbedtls-2.16.2/include/mbedtls\ssl_internal.h ****                                               Srv: unused                    */
 322:D:/fchai/work/i-cube/I-CUBE-HUAWEI/Middlewares/Third_Party/Huawei/iot_link/network/dtls/mbedtls/mbedtls-2.16.2/include/mbedtls\ssl_internal.h ****     unsigned char verify_cookie_len;    /*!<  Cli: cookie length
 323:D:/fchai/work/i-cube/I-CUBE-HUAWEI/Middlewares/Third_Party/Huawei/iot_link/network/dtls/mbedtls/mbedtls-2.16.2/include/mbedtls\ssl_internal.h ****                                               Srv: flag for sending a cookie */
 324:D:/fchai/work/i-cube/I-CUBE-HUAWEI/Middlewares/Third_Party/Huawei/iot_link/network/dtls/mbedtls/mbedtls-2.16.2/include/mbedtls\ssl_internal.h **** 
 325:D:/fchai/work/i-cube/I-CUBE-HUAWEI/Middlewares/Third_Party/Huawei/iot_link/network/dtls/mbedtls/mbedtls-2.16.2/include/mbedtls\ssl_internal.h ****     uint32_t retransmit_timeout;        /*!<  Current value of timeout       */
 326:D:/fchai/work/i-cube/I-CUBE-HUAWEI/Middlewares/Third_Party/Huawei/iot_link/network/dtls/mbedtls/mbedtls-2.16.2/include/mbedtls\ssl_internal.h ****     unsigned char retransmit_state;     /*!<  Retransmission state           */
ARM GAS  T:\msys\tmp\ccv76qhU.s 			page 22


 327:D:/fchai/work/i-cube/I-CUBE-HUAWEI/Middlewares/Third_Party/Huawei/iot_link/network/dtls/mbedtls/mbedtls-2.16.2/include/mbedtls\ssl_internal.h ****     mbedtls_ssl_flight_item *flight;    /*!<  Current outgoing flight        */
 328:D:/fchai/work/i-cube/I-CUBE-HUAWEI/Middlewares/Third_Party/Huawei/iot_link/network/dtls/mbedtls/mbedtls-2.16.2/include/mbedtls\ssl_internal.h ****     mbedtls_ssl_flight_item *cur_msg;   /*!<  Current message in flight      */
 329:D:/fchai/work/i-cube/I-CUBE-HUAWEI/Middlewares/Third_Party/Huawei/iot_link/network/dtls/mbedtls/mbedtls-2.16.2/include/mbedtls\ssl_internal.h ****     unsigned char *cur_msg_p;           /*!<  Position in current message    */
 330:D:/fchai/work/i-cube/I-CUBE-HUAWEI/Middlewares/Third_Party/Huawei/iot_link/network/dtls/mbedtls/mbedtls-2.16.2/include/mbedtls\ssl_internal.h ****     unsigned int in_flight_start_seq;   /*!<  Minimum message sequence in the
 331:D:/fchai/work/i-cube/I-CUBE-HUAWEI/Middlewares/Third_Party/Huawei/iot_link/network/dtls/mbedtls/mbedtls-2.16.2/include/mbedtls\ssl_internal.h ****                                               flight being received          */
 332:D:/fchai/work/i-cube/I-CUBE-HUAWEI/Middlewares/Third_Party/Huawei/iot_link/network/dtls/mbedtls/mbedtls-2.16.2/include/mbedtls\ssl_internal.h ****     mbedtls_ssl_transform *alt_transform_out;   /*!<  Alternative transform for
 333:D:/fchai/work/i-cube/I-CUBE-HUAWEI/Middlewares/Third_Party/Huawei/iot_link/network/dtls/mbedtls/mbedtls-2.16.2/include/mbedtls\ssl_internal.h ****                                               resending messages             */
 334:D:/fchai/work/i-cube/I-CUBE-HUAWEI/Middlewares/Third_Party/Huawei/iot_link/network/dtls/mbedtls/mbedtls-2.16.2/include/mbedtls\ssl_internal.h ****     unsigned char alt_out_ctr[8];       /*!<  Alternative record epoch/counter
 335:D:/fchai/work/i-cube/I-CUBE-HUAWEI/Middlewares/Third_Party/Huawei/iot_link/network/dtls/mbedtls/mbedtls-2.16.2/include/mbedtls\ssl_internal.h ****                                               for resending messages         */
 336:D:/fchai/work/i-cube/I-CUBE-HUAWEI/Middlewares/Third_Party/Huawei/iot_link/network/dtls/mbedtls/mbedtls-2.16.2/include/mbedtls\ssl_internal.h **** 
 337:D:/fchai/work/i-cube/I-CUBE-HUAWEI/Middlewares/Third_Party/Huawei/iot_link/network/dtls/mbedtls/mbedtls-2.16.2/include/mbedtls\ssl_internal.h ****     struct
 338:D:/fchai/work/i-cube/I-CUBE-HUAWEI/Middlewares/Third_Party/Huawei/iot_link/network/dtls/mbedtls/mbedtls-2.16.2/include/mbedtls\ssl_internal.h ****     {
 339:D:/fchai/work/i-cube/I-CUBE-HUAWEI/Middlewares/Third_Party/Huawei/iot_link/network/dtls/mbedtls/mbedtls-2.16.2/include/mbedtls\ssl_internal.h ****         size_t total_bytes_buffered; /*!< Cumulative size of heap allocated
 340:D:/fchai/work/i-cube/I-CUBE-HUAWEI/Middlewares/Third_Party/Huawei/iot_link/network/dtls/mbedtls/mbedtls-2.16.2/include/mbedtls\ssl_internal.h ****                                       *   buffers used for message buffering. */
 341:D:/fchai/work/i-cube/I-CUBE-HUAWEI/Middlewares/Third_Party/Huawei/iot_link/network/dtls/mbedtls/mbedtls-2.16.2/include/mbedtls\ssl_internal.h **** 
 342:D:/fchai/work/i-cube/I-CUBE-HUAWEI/Middlewares/Third_Party/Huawei/iot_link/network/dtls/mbedtls/mbedtls-2.16.2/include/mbedtls\ssl_internal.h ****         uint8_t seen_ccs;               /*!< Indicates if a CCS message has
 343:D:/fchai/work/i-cube/I-CUBE-HUAWEI/Middlewares/Third_Party/Huawei/iot_link/network/dtls/mbedtls/mbedtls-2.16.2/include/mbedtls\ssl_internal.h ****                                          *   been seen in the current flight. */
 344:D:/fchai/work/i-cube/I-CUBE-HUAWEI/Middlewares/Third_Party/Huawei/iot_link/network/dtls/mbedtls/mbedtls-2.16.2/include/mbedtls\ssl_internal.h **** 
 345:D:/fchai/work/i-cube/I-CUBE-HUAWEI/Middlewares/Third_Party/Huawei/iot_link/network/dtls/mbedtls/mbedtls-2.16.2/include/mbedtls\ssl_internal.h ****         struct mbedtls_ssl_hs_buffer
 346:D:/fchai/work/i-cube/I-CUBE-HUAWEI/Middlewares/Third_Party/Huawei/iot_link/network/dtls/mbedtls/mbedtls-2.16.2/include/mbedtls\ssl_internal.h ****         {
 347:D:/fchai/work/i-cube/I-CUBE-HUAWEI/Middlewares/Third_Party/Huawei/iot_link/network/dtls/mbedtls/mbedtls-2.16.2/include/mbedtls\ssl_internal.h ****             unsigned is_valid      : 1;
 348:D:/fchai/work/i-cube/I-CUBE-HUAWEI/Middlewares/Third_Party/Huawei/iot_link/network/dtls/mbedtls/mbedtls-2.16.2/include/mbedtls\ssl_internal.h ****             unsigned is_fragmented : 1;
 349:D:/fchai/work/i-cube/I-CUBE-HUAWEI/Middlewares/Third_Party/Huawei/iot_link/network/dtls/mbedtls/mbedtls-2.16.2/include/mbedtls\ssl_internal.h ****             unsigned is_complete   : 1;
 350:D:/fchai/work/i-cube/I-CUBE-HUAWEI/Middlewares/Third_Party/Huawei/iot_link/network/dtls/mbedtls/mbedtls-2.16.2/include/mbedtls\ssl_internal.h ****             unsigned char *data;
 351:D:/fchai/work/i-cube/I-CUBE-HUAWEI/Middlewares/Third_Party/Huawei/iot_link/network/dtls/mbedtls/mbedtls-2.16.2/include/mbedtls\ssl_internal.h ****             size_t data_len;
 352:D:/fchai/work/i-cube/I-CUBE-HUAWEI/Middlewares/Third_Party/Huawei/iot_link/network/dtls/mbedtls/mbedtls-2.16.2/include/mbedtls\ssl_internal.h ****         } hs[MBEDTLS_SSL_MAX_BUFFERED_HS];
 353:D:/fchai/work/i-cube/I-CUBE-HUAWEI/Middlewares/Third_Party/Huawei/iot_link/network/dtls/mbedtls/mbedtls-2.16.2/include/mbedtls\ssl_internal.h **** 
 354:D:/fchai/work/i-cube/I-CUBE-HUAWEI/Middlewares/Third_Party/Huawei/iot_link/network/dtls/mbedtls/mbedtls-2.16.2/include/mbedtls\ssl_internal.h ****         struct
 355:D:/fchai/work/i-cube/I-CUBE-HUAWEI/Middlewares/Third_Party/Huawei/iot_link/network/dtls/mbedtls/mbedtls-2.16.2/include/mbedtls\ssl_internal.h ****         {
 356:D:/fchai/work/i-cube/I-CUBE-HUAWEI/Middlewares/Third_Party/Huawei/iot_link/network/dtls/mbedtls/mbedtls-2.16.2/include/mbedtls\ssl_internal.h ****             unsigned char *data;
 357:D:/fchai/work/i-cube/I-CUBE-HUAWEI/Middlewares/Third_Party/Huawei/iot_link/network/dtls/mbedtls/mbedtls-2.16.2/include/mbedtls\ssl_internal.h ****             size_t len;
 358:D:/fchai/work/i-cube/I-CUBE-HUAWEI/Middlewares/Third_Party/Huawei/iot_link/network/dtls/mbedtls/mbedtls-2.16.2/include/mbedtls\ssl_internal.h ****             unsigned epoch;
 359:D:/fchai/work/i-cube/I-CUBE-HUAWEI/Middlewares/Third_Party/Huawei/iot_link/network/dtls/mbedtls/mbedtls-2.16.2/include/mbedtls\ssl_internal.h ****         } future_record;
 360:D:/fchai/work/i-cube/I-CUBE-HUAWEI/Middlewares/Third_Party/Huawei/iot_link/network/dtls/mbedtls/mbedtls-2.16.2/include/mbedtls\ssl_internal.h **** 
 361:D:/fchai/work/i-cube/I-CUBE-HUAWEI/Middlewares/Third_Party/Huawei/iot_link/network/dtls/mbedtls/mbedtls-2.16.2/include/mbedtls\ssl_internal.h ****     } buffering;
 362:D:/fchai/work/i-cube/I-CUBE-HUAWEI/Middlewares/Third_Party/Huawei/iot_link/network/dtls/mbedtls/mbedtls-2.16.2/include/mbedtls\ssl_internal.h **** 
 363:D:/fchai/work/i-cube/I-CUBE-HUAWEI/Middlewares/Third_Party/Huawei/iot_link/network/dtls/mbedtls/mbedtls-2.16.2/include/mbedtls\ssl_internal.h ****     uint16_t mtu;                       /*!<  Handshake mtu, used to fragment outgoing messages */
 364:D:/fchai/work/i-cube/I-CUBE-HUAWEI/Middlewares/Third_Party/Huawei/iot_link/network/dtls/mbedtls/mbedtls-2.16.2/include/mbedtls\ssl_internal.h **** #endif /* MBEDTLS_SSL_PROTO_DTLS */
 365:D:/fchai/work/i-cube/I-CUBE-HUAWEI/Middlewares/Third_Party/Huawei/iot_link/network/dtls/mbedtls/mbedtls-2.16.2/include/mbedtls\ssl_internal.h **** 
 366:D:/fchai/work/i-cube/I-CUBE-HUAWEI/Middlewares/Third_Party/Huawei/iot_link/network/dtls/mbedtls/mbedtls-2.16.2/include/mbedtls\ssl_internal.h ****     /*
 367:D:/fchai/work/i-cube/I-CUBE-HUAWEI/Middlewares/Third_Party/Huawei/iot_link/network/dtls/mbedtls/mbedtls-2.16.2/include/mbedtls\ssl_internal.h ****      * Checksum contexts
 368:D:/fchai/work/i-cube/I-CUBE-HUAWEI/Middlewares/Third_Party/Huawei/iot_link/network/dtls/mbedtls/mbedtls-2.16.2/include/mbedtls\ssl_internal.h ****      */
 369:D:/fchai/work/i-cube/I-CUBE-HUAWEI/Middlewares/Third_Party/Huawei/iot_link/network/dtls/mbedtls/mbedtls-2.16.2/include/mbedtls\ssl_internal.h **** #if defined(MBEDTLS_SSL_PROTO_SSL3) || defined(MBEDTLS_SSL_PROTO_TLS1) || \
 370:D:/fchai/work/i-cube/I-CUBE-HUAWEI/Middlewares/Third_Party/Huawei/iot_link/network/dtls/mbedtls/mbedtls-2.16.2/include/mbedtls\ssl_internal.h ****     defined(MBEDTLS_SSL_PROTO_TLS1_1)
 371:D:/fchai/work/i-cube/I-CUBE-HUAWEI/Middlewares/Third_Party/Huawei/iot_link/network/dtls/mbedtls/mbedtls-2.16.2/include/mbedtls\ssl_internal.h ****        mbedtls_md5_context fin_md5;
 372:D:/fchai/work/i-cube/I-CUBE-HUAWEI/Middlewares/Third_Party/Huawei/iot_link/network/dtls/mbedtls/mbedtls-2.16.2/include/mbedtls\ssl_internal.h ****       mbedtls_sha1_context fin_sha1;
 373:D:/fchai/work/i-cube/I-CUBE-HUAWEI/Middlewares/Third_Party/Huawei/iot_link/network/dtls/mbedtls/mbedtls-2.16.2/include/mbedtls\ssl_internal.h **** #endif
 374:D:/fchai/work/i-cube/I-CUBE-HUAWEI/Middlewares/Third_Party/Huawei/iot_link/network/dtls/mbedtls/mbedtls-2.16.2/include/mbedtls\ssl_internal.h **** #if defined(MBEDTLS_SSL_PROTO_TLS1_2)
 375:D:/fchai/work/i-cube/I-CUBE-HUAWEI/Middlewares/Third_Party/Huawei/iot_link/network/dtls/mbedtls/mbedtls-2.16.2/include/mbedtls\ssl_internal.h **** #if defined(MBEDTLS_SHA256_C)
 376:D:/fchai/work/i-cube/I-CUBE-HUAWEI/Middlewares/Third_Party/Huawei/iot_link/network/dtls/mbedtls/mbedtls-2.16.2/include/mbedtls\ssl_internal.h ****     mbedtls_sha256_context fin_sha256;
 377:D:/fchai/work/i-cube/I-CUBE-HUAWEI/Middlewares/Third_Party/Huawei/iot_link/network/dtls/mbedtls/mbedtls-2.16.2/include/mbedtls\ssl_internal.h **** #endif
 378:D:/fchai/work/i-cube/I-CUBE-HUAWEI/Middlewares/Third_Party/Huawei/iot_link/network/dtls/mbedtls/mbedtls-2.16.2/include/mbedtls\ssl_internal.h **** #if defined(MBEDTLS_SHA512_C)
 379:D:/fchai/work/i-cube/I-CUBE-HUAWEI/Middlewares/Third_Party/Huawei/iot_link/network/dtls/mbedtls/mbedtls-2.16.2/include/mbedtls\ssl_internal.h ****     mbedtls_sha512_context fin_sha512;
 380:D:/fchai/work/i-cube/I-CUBE-HUAWEI/Middlewares/Third_Party/Huawei/iot_link/network/dtls/mbedtls/mbedtls-2.16.2/include/mbedtls\ssl_internal.h **** #endif
 381:D:/fchai/work/i-cube/I-CUBE-HUAWEI/Middlewares/Third_Party/Huawei/iot_link/network/dtls/mbedtls/mbedtls-2.16.2/include/mbedtls\ssl_internal.h **** #endif /* MBEDTLS_SSL_PROTO_TLS1_2 */
 382:D:/fchai/work/i-cube/I-CUBE-HUAWEI/Middlewares/Third_Party/Huawei/iot_link/network/dtls/mbedtls/mbedtls-2.16.2/include/mbedtls\ssl_internal.h **** 
 383:D:/fchai/work/i-cube/I-CUBE-HUAWEI/Middlewares/Third_Party/Huawei/iot_link/network/dtls/mbedtls/mbedtls-2.16.2/include/mbedtls\ssl_internal.h ****     void (*update_checksum)(mbedtls_ssl_context *, const unsigned char *, size_t);
ARM GAS  T:\msys\tmp\ccv76qhU.s 			page 23


 384:D:/fchai/work/i-cube/I-CUBE-HUAWEI/Middlewares/Third_Party/Huawei/iot_link/network/dtls/mbedtls/mbedtls-2.16.2/include/mbedtls\ssl_internal.h ****     void (*calc_verify)(mbedtls_ssl_context *, unsigned char *);
 385:D:/fchai/work/i-cube/I-CUBE-HUAWEI/Middlewares/Third_Party/Huawei/iot_link/network/dtls/mbedtls/mbedtls-2.16.2/include/mbedtls\ssl_internal.h ****     void (*calc_finished)(mbedtls_ssl_context *, unsigned char *, int);
 386:D:/fchai/work/i-cube/I-CUBE-HUAWEI/Middlewares/Third_Party/Huawei/iot_link/network/dtls/mbedtls/mbedtls-2.16.2/include/mbedtls\ssl_internal.h ****     int  (*tls_prf)(const unsigned char *, size_t, const char *,
 387:D:/fchai/work/i-cube/I-CUBE-HUAWEI/Middlewares/Third_Party/Huawei/iot_link/network/dtls/mbedtls/mbedtls-2.16.2/include/mbedtls\ssl_internal.h ****                     const unsigned char *, size_t,
 388:D:/fchai/work/i-cube/I-CUBE-HUAWEI/Middlewares/Third_Party/Huawei/iot_link/network/dtls/mbedtls/mbedtls-2.16.2/include/mbedtls\ssl_internal.h ****                     unsigned char *, size_t);
 389:D:/fchai/work/i-cube/I-CUBE-HUAWEI/Middlewares/Third_Party/Huawei/iot_link/network/dtls/mbedtls/mbedtls-2.16.2/include/mbedtls\ssl_internal.h **** 
 390:D:/fchai/work/i-cube/I-CUBE-HUAWEI/Middlewares/Third_Party/Huawei/iot_link/network/dtls/mbedtls/mbedtls-2.16.2/include/mbedtls\ssl_internal.h ****     size_t pmslen;                      /*!<  premaster length        */
 391:D:/fchai/work/i-cube/I-CUBE-HUAWEI/Middlewares/Third_Party/Huawei/iot_link/network/dtls/mbedtls/mbedtls-2.16.2/include/mbedtls\ssl_internal.h **** 
 392:D:/fchai/work/i-cube/I-CUBE-HUAWEI/Middlewares/Third_Party/Huawei/iot_link/network/dtls/mbedtls/mbedtls-2.16.2/include/mbedtls\ssl_internal.h ****     unsigned char randbytes[64];        /*!<  random bytes            */
 393:D:/fchai/work/i-cube/I-CUBE-HUAWEI/Middlewares/Third_Party/Huawei/iot_link/network/dtls/mbedtls/mbedtls-2.16.2/include/mbedtls\ssl_internal.h ****     unsigned char premaster[MBEDTLS_PREMASTER_SIZE];
 394:D:/fchai/work/i-cube/I-CUBE-HUAWEI/Middlewares/Third_Party/Huawei/iot_link/network/dtls/mbedtls/mbedtls-2.16.2/include/mbedtls\ssl_internal.h ****                                         /*!<  premaster secret        */
 395:D:/fchai/work/i-cube/I-CUBE-HUAWEI/Middlewares/Third_Party/Huawei/iot_link/network/dtls/mbedtls/mbedtls-2.16.2/include/mbedtls\ssl_internal.h **** 
 396:D:/fchai/work/i-cube/I-CUBE-HUAWEI/Middlewares/Third_Party/Huawei/iot_link/network/dtls/mbedtls/mbedtls-2.16.2/include/mbedtls\ssl_internal.h ****     int resume;                         /*!<  session resume indicator*/
 397:D:/fchai/work/i-cube/I-CUBE-HUAWEI/Middlewares/Third_Party/Huawei/iot_link/network/dtls/mbedtls/mbedtls-2.16.2/include/mbedtls\ssl_internal.h ****     int max_major_ver;                  /*!< max. major version client*/
 398:D:/fchai/work/i-cube/I-CUBE-HUAWEI/Middlewares/Third_Party/Huawei/iot_link/network/dtls/mbedtls/mbedtls-2.16.2/include/mbedtls\ssl_internal.h ****     int max_minor_ver;                  /*!< max. minor version client*/
 399:D:/fchai/work/i-cube/I-CUBE-HUAWEI/Middlewares/Third_Party/Huawei/iot_link/network/dtls/mbedtls/mbedtls-2.16.2/include/mbedtls\ssl_internal.h ****     int cli_exts;                       /*!< client extension presence*/
 400:D:/fchai/work/i-cube/I-CUBE-HUAWEI/Middlewares/Third_Party/Huawei/iot_link/network/dtls/mbedtls/mbedtls-2.16.2/include/mbedtls\ssl_internal.h **** 
 401:D:/fchai/work/i-cube/I-CUBE-HUAWEI/Middlewares/Third_Party/Huawei/iot_link/network/dtls/mbedtls/mbedtls-2.16.2/include/mbedtls\ssl_internal.h **** #if defined(MBEDTLS_SSL_SESSION_TICKETS)
 402:D:/fchai/work/i-cube/I-CUBE-HUAWEI/Middlewares/Third_Party/Huawei/iot_link/network/dtls/mbedtls/mbedtls-2.16.2/include/mbedtls\ssl_internal.h ****     int new_session_ticket;             /*!< use NewSessionTicket?    */
 403:D:/fchai/work/i-cube/I-CUBE-HUAWEI/Middlewares/Third_Party/Huawei/iot_link/network/dtls/mbedtls/mbedtls-2.16.2/include/mbedtls\ssl_internal.h **** #endif /* MBEDTLS_SSL_SESSION_TICKETS */
 404:D:/fchai/work/i-cube/I-CUBE-HUAWEI/Middlewares/Third_Party/Huawei/iot_link/network/dtls/mbedtls/mbedtls-2.16.2/include/mbedtls\ssl_internal.h **** #if defined(MBEDTLS_SSL_EXTENDED_MASTER_SECRET)
 405:D:/fchai/work/i-cube/I-CUBE-HUAWEI/Middlewares/Third_Party/Huawei/iot_link/network/dtls/mbedtls/mbedtls-2.16.2/include/mbedtls\ssl_internal.h ****     int extended_ms;                    /*!< use Extended Master Secret? */
 406:D:/fchai/work/i-cube/I-CUBE-HUAWEI/Middlewares/Third_Party/Huawei/iot_link/network/dtls/mbedtls/mbedtls-2.16.2/include/mbedtls\ssl_internal.h **** #endif
 407:D:/fchai/work/i-cube/I-CUBE-HUAWEI/Middlewares/Third_Party/Huawei/iot_link/network/dtls/mbedtls/mbedtls-2.16.2/include/mbedtls\ssl_internal.h **** 
 408:D:/fchai/work/i-cube/I-CUBE-HUAWEI/Middlewares/Third_Party/Huawei/iot_link/network/dtls/mbedtls/mbedtls-2.16.2/include/mbedtls\ssl_internal.h **** #if defined(MBEDTLS_SSL_ASYNC_PRIVATE)
 409:D:/fchai/work/i-cube/I-CUBE-HUAWEI/Middlewares/Third_Party/Huawei/iot_link/network/dtls/mbedtls/mbedtls-2.16.2/include/mbedtls\ssl_internal.h ****     unsigned int async_in_progress : 1; /*!< an asynchronous operation is in progress */
 410:D:/fchai/work/i-cube/I-CUBE-HUAWEI/Middlewares/Third_Party/Huawei/iot_link/network/dtls/mbedtls/mbedtls-2.16.2/include/mbedtls\ssl_internal.h **** #endif /* MBEDTLS_SSL_ASYNC_PRIVATE */
 411:D:/fchai/work/i-cube/I-CUBE-HUAWEI/Middlewares/Third_Party/Huawei/iot_link/network/dtls/mbedtls/mbedtls-2.16.2/include/mbedtls\ssl_internal.h **** 
 412:D:/fchai/work/i-cube/I-CUBE-HUAWEI/Middlewares/Third_Party/Huawei/iot_link/network/dtls/mbedtls/mbedtls-2.16.2/include/mbedtls\ssl_internal.h **** #if defined(MBEDTLS_SSL_ASYNC_PRIVATE)
 413:D:/fchai/work/i-cube/I-CUBE-HUAWEI/Middlewares/Third_Party/Huawei/iot_link/network/dtls/mbedtls/mbedtls-2.16.2/include/mbedtls\ssl_internal.h ****     /** Asynchronous operation context. This field is meant for use by the
 414:D:/fchai/work/i-cube/I-CUBE-HUAWEI/Middlewares/Third_Party/Huawei/iot_link/network/dtls/mbedtls/mbedtls-2.16.2/include/mbedtls\ssl_internal.h ****      * asynchronous operation callbacks (mbedtls_ssl_config::f_async_sign_start,
 415:D:/fchai/work/i-cube/I-CUBE-HUAWEI/Middlewares/Third_Party/Huawei/iot_link/network/dtls/mbedtls/mbedtls-2.16.2/include/mbedtls\ssl_internal.h ****      * mbedtls_ssl_config::f_async_decrypt_start,
 416:D:/fchai/work/i-cube/I-CUBE-HUAWEI/Middlewares/Third_Party/Huawei/iot_link/network/dtls/mbedtls/mbedtls-2.16.2/include/mbedtls\ssl_internal.h ****      * mbedtls_ssl_config::f_async_resume, mbedtls_ssl_config::f_async_cancel).
 417:D:/fchai/work/i-cube/I-CUBE-HUAWEI/Middlewares/Third_Party/Huawei/iot_link/network/dtls/mbedtls/mbedtls-2.16.2/include/mbedtls\ssl_internal.h ****      * The library does not use it internally. */
 418:D:/fchai/work/i-cube/I-CUBE-HUAWEI/Middlewares/Third_Party/Huawei/iot_link/network/dtls/mbedtls/mbedtls-2.16.2/include/mbedtls\ssl_internal.h ****     void *user_async_ctx;
 419:D:/fchai/work/i-cube/I-CUBE-HUAWEI/Middlewares/Third_Party/Huawei/iot_link/network/dtls/mbedtls/mbedtls-2.16.2/include/mbedtls\ssl_internal.h **** #endif /* MBEDTLS_SSL_ASYNC_PRIVATE */
 420:D:/fchai/work/i-cube/I-CUBE-HUAWEI/Middlewares/Third_Party/Huawei/iot_link/network/dtls/mbedtls/mbedtls-2.16.2/include/mbedtls\ssl_internal.h **** };
 421:D:/fchai/work/i-cube/I-CUBE-HUAWEI/Middlewares/Third_Party/Huawei/iot_link/network/dtls/mbedtls/mbedtls-2.16.2/include/mbedtls\ssl_internal.h **** 
 422:D:/fchai/work/i-cube/I-CUBE-HUAWEI/Middlewares/Third_Party/Huawei/iot_link/network/dtls/mbedtls/mbedtls-2.16.2/include/mbedtls\ssl_internal.h **** typedef struct mbedtls_ssl_hs_buffer mbedtls_ssl_hs_buffer;
 423:D:/fchai/work/i-cube/I-CUBE-HUAWEI/Middlewares/Third_Party/Huawei/iot_link/network/dtls/mbedtls/mbedtls-2.16.2/include/mbedtls\ssl_internal.h **** 
 424:D:/fchai/work/i-cube/I-CUBE-HUAWEI/Middlewares/Third_Party/Huawei/iot_link/network/dtls/mbedtls/mbedtls-2.16.2/include/mbedtls\ssl_internal.h **** /*
 425:D:/fchai/work/i-cube/I-CUBE-HUAWEI/Middlewares/Third_Party/Huawei/iot_link/network/dtls/mbedtls/mbedtls-2.16.2/include/mbedtls\ssl_internal.h ****  * This structure contains a full set of runtime transform parameters
 426:D:/fchai/work/i-cube/I-CUBE-HUAWEI/Middlewares/Third_Party/Huawei/iot_link/network/dtls/mbedtls/mbedtls-2.16.2/include/mbedtls\ssl_internal.h ****  * either in negotiation or active.
 427:D:/fchai/work/i-cube/I-CUBE-HUAWEI/Middlewares/Third_Party/Huawei/iot_link/network/dtls/mbedtls/mbedtls-2.16.2/include/mbedtls\ssl_internal.h ****  */
 428:D:/fchai/work/i-cube/I-CUBE-HUAWEI/Middlewares/Third_Party/Huawei/iot_link/network/dtls/mbedtls/mbedtls-2.16.2/include/mbedtls\ssl_internal.h **** struct mbedtls_ssl_transform
 429:D:/fchai/work/i-cube/I-CUBE-HUAWEI/Middlewares/Third_Party/Huawei/iot_link/network/dtls/mbedtls/mbedtls-2.16.2/include/mbedtls\ssl_internal.h **** {
 430:D:/fchai/work/i-cube/I-CUBE-HUAWEI/Middlewares/Third_Party/Huawei/iot_link/network/dtls/mbedtls/mbedtls-2.16.2/include/mbedtls\ssl_internal.h ****     /*
 431:D:/fchai/work/i-cube/I-CUBE-HUAWEI/Middlewares/Third_Party/Huawei/iot_link/network/dtls/mbedtls/mbedtls-2.16.2/include/mbedtls\ssl_internal.h ****      * Session specific crypto layer
 432:D:/fchai/work/i-cube/I-CUBE-HUAWEI/Middlewares/Third_Party/Huawei/iot_link/network/dtls/mbedtls/mbedtls-2.16.2/include/mbedtls\ssl_internal.h ****      */
 433:D:/fchai/work/i-cube/I-CUBE-HUAWEI/Middlewares/Third_Party/Huawei/iot_link/network/dtls/mbedtls/mbedtls-2.16.2/include/mbedtls\ssl_internal.h ****     const mbedtls_ssl_ciphersuite_t *ciphersuite_info;
 434:D:/fchai/work/i-cube/I-CUBE-HUAWEI/Middlewares/Third_Party/Huawei/iot_link/network/dtls/mbedtls/mbedtls-2.16.2/include/mbedtls\ssl_internal.h ****                                         /*!<  Chosen cipersuite_info  */
 435:D:/fchai/work/i-cube/I-CUBE-HUAWEI/Middlewares/Third_Party/Huawei/iot_link/network/dtls/mbedtls/mbedtls-2.16.2/include/mbedtls\ssl_internal.h ****     unsigned int keylen;                /*!<  symmetric key length (bytes)  */
 436:D:/fchai/work/i-cube/I-CUBE-HUAWEI/Middlewares/Third_Party/Huawei/iot_link/network/dtls/mbedtls/mbedtls-2.16.2/include/mbedtls\ssl_internal.h ****     size_t minlen;                      /*!<  min. ciphertext length  */
 437:D:/fchai/work/i-cube/I-CUBE-HUAWEI/Middlewares/Third_Party/Huawei/iot_link/network/dtls/mbedtls/mbedtls-2.16.2/include/mbedtls\ssl_internal.h ****     size_t ivlen;                       /*!<  IV length               */
 438:D:/fchai/work/i-cube/I-CUBE-HUAWEI/Middlewares/Third_Party/Huawei/iot_link/network/dtls/mbedtls/mbedtls-2.16.2/include/mbedtls\ssl_internal.h ****     size_t fixed_ivlen;                 /*!<  Fixed part of IV (AEAD) */
 439:D:/fchai/work/i-cube/I-CUBE-HUAWEI/Middlewares/Third_Party/Huawei/iot_link/network/dtls/mbedtls/mbedtls-2.16.2/include/mbedtls\ssl_internal.h ****     size_t maclen;                      /*!<  MAC length              */
 440:D:/fchai/work/i-cube/I-CUBE-HUAWEI/Middlewares/Third_Party/Huawei/iot_link/network/dtls/mbedtls/mbedtls-2.16.2/include/mbedtls\ssl_internal.h **** 
ARM GAS  T:\msys\tmp\ccv76qhU.s 			page 24


 441:D:/fchai/work/i-cube/I-CUBE-HUAWEI/Middlewares/Third_Party/Huawei/iot_link/network/dtls/mbedtls/mbedtls-2.16.2/include/mbedtls\ssl_internal.h ****     unsigned char iv_enc[16];           /*!<  IV (encryption)         */
 442:D:/fchai/work/i-cube/I-CUBE-HUAWEI/Middlewares/Third_Party/Huawei/iot_link/network/dtls/mbedtls/mbedtls-2.16.2/include/mbedtls\ssl_internal.h ****     unsigned char iv_dec[16];           /*!<  IV (decryption)         */
 443:D:/fchai/work/i-cube/I-CUBE-HUAWEI/Middlewares/Third_Party/Huawei/iot_link/network/dtls/mbedtls/mbedtls-2.16.2/include/mbedtls\ssl_internal.h **** 
 444:D:/fchai/work/i-cube/I-CUBE-HUAWEI/Middlewares/Third_Party/Huawei/iot_link/network/dtls/mbedtls/mbedtls-2.16.2/include/mbedtls\ssl_internal.h **** #if defined(MBEDTLS_SSL_PROTO_SSL3)
 445:D:/fchai/work/i-cube/I-CUBE-HUAWEI/Middlewares/Third_Party/Huawei/iot_link/network/dtls/mbedtls/mbedtls-2.16.2/include/mbedtls\ssl_internal.h ****     /* Needed only for SSL v3.0 secret */
 446:D:/fchai/work/i-cube/I-CUBE-HUAWEI/Middlewares/Third_Party/Huawei/iot_link/network/dtls/mbedtls/mbedtls-2.16.2/include/mbedtls\ssl_internal.h ****     unsigned char mac_enc[20];          /*!<  SSL v3.0 secret (enc)   */
 447:D:/fchai/work/i-cube/I-CUBE-HUAWEI/Middlewares/Third_Party/Huawei/iot_link/network/dtls/mbedtls/mbedtls-2.16.2/include/mbedtls\ssl_internal.h ****     unsigned char mac_dec[20];          /*!<  SSL v3.0 secret (dec)   */
 448:D:/fchai/work/i-cube/I-CUBE-HUAWEI/Middlewares/Third_Party/Huawei/iot_link/network/dtls/mbedtls/mbedtls-2.16.2/include/mbedtls\ssl_internal.h **** #endif /* MBEDTLS_SSL_PROTO_SSL3 */
 449:D:/fchai/work/i-cube/I-CUBE-HUAWEI/Middlewares/Third_Party/Huawei/iot_link/network/dtls/mbedtls/mbedtls-2.16.2/include/mbedtls\ssl_internal.h **** 
 450:D:/fchai/work/i-cube/I-CUBE-HUAWEI/Middlewares/Third_Party/Huawei/iot_link/network/dtls/mbedtls/mbedtls-2.16.2/include/mbedtls\ssl_internal.h ****     mbedtls_md_context_t md_ctx_enc;            /*!<  MAC (encryption)        */
 451:D:/fchai/work/i-cube/I-CUBE-HUAWEI/Middlewares/Third_Party/Huawei/iot_link/network/dtls/mbedtls/mbedtls-2.16.2/include/mbedtls\ssl_internal.h ****     mbedtls_md_context_t md_ctx_dec;            /*!<  MAC (decryption)        */
 452:D:/fchai/work/i-cube/I-CUBE-HUAWEI/Middlewares/Third_Party/Huawei/iot_link/network/dtls/mbedtls/mbedtls-2.16.2/include/mbedtls\ssl_internal.h **** 
 453:D:/fchai/work/i-cube/I-CUBE-HUAWEI/Middlewares/Third_Party/Huawei/iot_link/network/dtls/mbedtls/mbedtls-2.16.2/include/mbedtls\ssl_internal.h ****     mbedtls_cipher_context_t cipher_ctx_enc;    /*!<  encryption context      */
 454:D:/fchai/work/i-cube/I-CUBE-HUAWEI/Middlewares/Third_Party/Huawei/iot_link/network/dtls/mbedtls/mbedtls-2.16.2/include/mbedtls\ssl_internal.h ****     mbedtls_cipher_context_t cipher_ctx_dec;    /*!<  decryption context      */
 455:D:/fchai/work/i-cube/I-CUBE-HUAWEI/Middlewares/Third_Party/Huawei/iot_link/network/dtls/mbedtls/mbedtls-2.16.2/include/mbedtls\ssl_internal.h **** 
 456:D:/fchai/work/i-cube/I-CUBE-HUAWEI/Middlewares/Third_Party/Huawei/iot_link/network/dtls/mbedtls/mbedtls-2.16.2/include/mbedtls\ssl_internal.h ****     /*
 457:D:/fchai/work/i-cube/I-CUBE-HUAWEI/Middlewares/Third_Party/Huawei/iot_link/network/dtls/mbedtls/mbedtls-2.16.2/include/mbedtls\ssl_internal.h ****      * Session specific compression layer
 458:D:/fchai/work/i-cube/I-CUBE-HUAWEI/Middlewares/Third_Party/Huawei/iot_link/network/dtls/mbedtls/mbedtls-2.16.2/include/mbedtls\ssl_internal.h ****      */
 459:D:/fchai/work/i-cube/I-CUBE-HUAWEI/Middlewares/Third_Party/Huawei/iot_link/network/dtls/mbedtls/mbedtls-2.16.2/include/mbedtls\ssl_internal.h **** #if defined(MBEDTLS_ZLIB_SUPPORT)
 460:D:/fchai/work/i-cube/I-CUBE-HUAWEI/Middlewares/Third_Party/Huawei/iot_link/network/dtls/mbedtls/mbedtls-2.16.2/include/mbedtls\ssl_internal.h ****     z_stream ctx_deflate;               /*!<  compression context     */
 461:D:/fchai/work/i-cube/I-CUBE-HUAWEI/Middlewares/Third_Party/Huawei/iot_link/network/dtls/mbedtls/mbedtls-2.16.2/include/mbedtls\ssl_internal.h ****     z_stream ctx_inflate;               /*!<  decompression context   */
 462:D:/fchai/work/i-cube/I-CUBE-HUAWEI/Middlewares/Third_Party/Huawei/iot_link/network/dtls/mbedtls/mbedtls-2.16.2/include/mbedtls\ssl_internal.h **** #endif
 463:D:/fchai/work/i-cube/I-CUBE-HUAWEI/Middlewares/Third_Party/Huawei/iot_link/network/dtls/mbedtls/mbedtls-2.16.2/include/mbedtls\ssl_internal.h **** };
 464:D:/fchai/work/i-cube/I-CUBE-HUAWEI/Middlewares/Third_Party/Huawei/iot_link/network/dtls/mbedtls/mbedtls-2.16.2/include/mbedtls\ssl_internal.h **** 
 465:D:/fchai/work/i-cube/I-CUBE-HUAWEI/Middlewares/Third_Party/Huawei/iot_link/network/dtls/mbedtls/mbedtls-2.16.2/include/mbedtls\ssl_internal.h **** #if defined(MBEDTLS_X509_CRT_PARSE_C)
 466:D:/fchai/work/i-cube/I-CUBE-HUAWEI/Middlewares/Third_Party/Huawei/iot_link/network/dtls/mbedtls/mbedtls-2.16.2/include/mbedtls\ssl_internal.h **** /*
 467:D:/fchai/work/i-cube/I-CUBE-HUAWEI/Middlewares/Third_Party/Huawei/iot_link/network/dtls/mbedtls/mbedtls-2.16.2/include/mbedtls\ssl_internal.h ****  * List of certificate + private key pairs
 468:D:/fchai/work/i-cube/I-CUBE-HUAWEI/Middlewares/Third_Party/Huawei/iot_link/network/dtls/mbedtls/mbedtls-2.16.2/include/mbedtls\ssl_internal.h ****  */
 469:D:/fchai/work/i-cube/I-CUBE-HUAWEI/Middlewares/Third_Party/Huawei/iot_link/network/dtls/mbedtls/mbedtls-2.16.2/include/mbedtls\ssl_internal.h **** struct mbedtls_ssl_key_cert
 470:D:/fchai/work/i-cube/I-CUBE-HUAWEI/Middlewares/Third_Party/Huawei/iot_link/network/dtls/mbedtls/mbedtls-2.16.2/include/mbedtls\ssl_internal.h **** {
 471:D:/fchai/work/i-cube/I-CUBE-HUAWEI/Middlewares/Third_Party/Huawei/iot_link/network/dtls/mbedtls/mbedtls-2.16.2/include/mbedtls\ssl_internal.h ****     mbedtls_x509_crt *cert;                 /*!< cert                       */
 472:D:/fchai/work/i-cube/I-CUBE-HUAWEI/Middlewares/Third_Party/Huawei/iot_link/network/dtls/mbedtls/mbedtls-2.16.2/include/mbedtls\ssl_internal.h ****     mbedtls_pk_context *key;                /*!< private key                */
 473:D:/fchai/work/i-cube/I-CUBE-HUAWEI/Middlewares/Third_Party/Huawei/iot_link/network/dtls/mbedtls/mbedtls-2.16.2/include/mbedtls\ssl_internal.h ****     mbedtls_ssl_key_cert *next;             /*!< next key/cert pair         */
 474:D:/fchai/work/i-cube/I-CUBE-HUAWEI/Middlewares/Third_Party/Huawei/iot_link/network/dtls/mbedtls/mbedtls-2.16.2/include/mbedtls\ssl_internal.h **** };
 475:D:/fchai/work/i-cube/I-CUBE-HUAWEI/Middlewares/Third_Party/Huawei/iot_link/network/dtls/mbedtls/mbedtls-2.16.2/include/mbedtls\ssl_internal.h **** #endif /* MBEDTLS_X509_CRT_PARSE_C */
 476:D:/fchai/work/i-cube/I-CUBE-HUAWEI/Middlewares/Third_Party/Huawei/iot_link/network/dtls/mbedtls/mbedtls-2.16.2/include/mbedtls\ssl_internal.h **** 
 477:D:/fchai/work/i-cube/I-CUBE-HUAWEI/Middlewares/Third_Party/Huawei/iot_link/network/dtls/mbedtls/mbedtls-2.16.2/include/mbedtls\ssl_internal.h **** #if defined(MBEDTLS_SSL_PROTO_DTLS)
 478:D:/fchai/work/i-cube/I-CUBE-HUAWEI/Middlewares/Third_Party/Huawei/iot_link/network/dtls/mbedtls/mbedtls-2.16.2/include/mbedtls\ssl_internal.h **** /*
 479:D:/fchai/work/i-cube/I-CUBE-HUAWEI/Middlewares/Third_Party/Huawei/iot_link/network/dtls/mbedtls/mbedtls-2.16.2/include/mbedtls\ssl_internal.h ****  * List of handshake messages kept around for resending
 480:D:/fchai/work/i-cube/I-CUBE-HUAWEI/Middlewares/Third_Party/Huawei/iot_link/network/dtls/mbedtls/mbedtls-2.16.2/include/mbedtls\ssl_internal.h ****  */
 481:D:/fchai/work/i-cube/I-CUBE-HUAWEI/Middlewares/Third_Party/Huawei/iot_link/network/dtls/mbedtls/mbedtls-2.16.2/include/mbedtls\ssl_internal.h **** struct mbedtls_ssl_flight_item
 482:D:/fchai/work/i-cube/I-CUBE-HUAWEI/Middlewares/Third_Party/Huawei/iot_link/network/dtls/mbedtls/mbedtls-2.16.2/include/mbedtls\ssl_internal.h **** {
 483:D:/fchai/work/i-cube/I-CUBE-HUAWEI/Middlewares/Third_Party/Huawei/iot_link/network/dtls/mbedtls/mbedtls-2.16.2/include/mbedtls\ssl_internal.h ****     unsigned char *p;       /*!< message, including handshake headers   */
 484:D:/fchai/work/i-cube/I-CUBE-HUAWEI/Middlewares/Third_Party/Huawei/iot_link/network/dtls/mbedtls/mbedtls-2.16.2/include/mbedtls\ssl_internal.h ****     size_t len;             /*!< length of p                            */
 485:D:/fchai/work/i-cube/I-CUBE-HUAWEI/Middlewares/Third_Party/Huawei/iot_link/network/dtls/mbedtls/mbedtls-2.16.2/include/mbedtls\ssl_internal.h ****     unsigned char type;     /*!< type of the message: handshake or CCS  */
 486:D:/fchai/work/i-cube/I-CUBE-HUAWEI/Middlewares/Third_Party/Huawei/iot_link/network/dtls/mbedtls/mbedtls-2.16.2/include/mbedtls\ssl_internal.h ****     mbedtls_ssl_flight_item *next;  /*!< next handshake message(s)              */
 487:D:/fchai/work/i-cube/I-CUBE-HUAWEI/Middlewares/Third_Party/Huawei/iot_link/network/dtls/mbedtls/mbedtls-2.16.2/include/mbedtls\ssl_internal.h **** };
 488:D:/fchai/work/i-cube/I-CUBE-HUAWEI/Middlewares/Third_Party/Huawei/iot_link/network/dtls/mbedtls/mbedtls-2.16.2/include/mbedtls\ssl_internal.h **** #endif /* MBEDTLS_SSL_PROTO_DTLS */
 489:D:/fchai/work/i-cube/I-CUBE-HUAWEI/Middlewares/Third_Party/Huawei/iot_link/network/dtls/mbedtls/mbedtls-2.16.2/include/mbedtls\ssl_internal.h **** 
 490:D:/fchai/work/i-cube/I-CUBE-HUAWEI/Middlewares/Third_Party/Huawei/iot_link/network/dtls/mbedtls/mbedtls-2.16.2/include/mbedtls\ssl_internal.h **** #if defined(MBEDTLS_SSL_PROTO_TLS1_2) && \
 491:D:/fchai/work/i-cube/I-CUBE-HUAWEI/Middlewares/Third_Party/Huawei/iot_link/network/dtls/mbedtls/mbedtls-2.16.2/include/mbedtls\ssl_internal.h ****     defined(MBEDTLS_KEY_EXCHANGE__WITH_CERT__ENABLED)
 492:D:/fchai/work/i-cube/I-CUBE-HUAWEI/Middlewares/Third_Party/Huawei/iot_link/network/dtls/mbedtls/mbedtls-2.16.2/include/mbedtls\ssl_internal.h **** 
 493:D:/fchai/work/i-cube/I-CUBE-HUAWEI/Middlewares/Third_Party/Huawei/iot_link/network/dtls/mbedtls/mbedtls-2.16.2/include/mbedtls\ssl_internal.h **** /* Find an entry in a signature-hash set matching a given hash algorithm. */
 494:D:/fchai/work/i-cube/I-CUBE-HUAWEI/Middlewares/Third_Party/Huawei/iot_link/network/dtls/mbedtls/mbedtls-2.16.2/include/mbedtls\ssl_internal.h **** mbedtls_md_type_t mbedtls_ssl_sig_hash_set_find( mbedtls_ssl_sig_hash_set_t *set,
 495:D:/fchai/work/i-cube/I-CUBE-HUAWEI/Middlewares/Third_Party/Huawei/iot_link/network/dtls/mbedtls/mbedtls-2.16.2/include/mbedtls\ssl_internal.h ****                                                  mbedtls_pk_type_t sig_alg );
 496:D:/fchai/work/i-cube/I-CUBE-HUAWEI/Middlewares/Third_Party/Huawei/iot_link/network/dtls/mbedtls/mbedtls-2.16.2/include/mbedtls\ssl_internal.h **** /* Add a signature-hash-pair to a signature-hash set */
 497:D:/fchai/work/i-cube/I-CUBE-HUAWEI/Middlewares/Third_Party/Huawei/iot_link/network/dtls/mbedtls/mbedtls-2.16.2/include/mbedtls\ssl_internal.h **** void mbedtls_ssl_sig_hash_set_add( mbedtls_ssl_sig_hash_set_t *set,
ARM GAS  T:\msys\tmp\ccv76qhU.s 			page 25


 498:D:/fchai/work/i-cube/I-CUBE-HUAWEI/Middlewares/Third_Party/Huawei/iot_link/network/dtls/mbedtls/mbedtls-2.16.2/include/mbedtls\ssl_internal.h ****                                    mbedtls_pk_type_t sig_alg,
 499:D:/fchai/work/i-cube/I-CUBE-HUAWEI/Middlewares/Third_Party/Huawei/iot_link/network/dtls/mbedtls/mbedtls-2.16.2/include/mbedtls\ssl_internal.h ****                                    mbedtls_md_type_t md_alg );
 500:D:/fchai/work/i-cube/I-CUBE-HUAWEI/Middlewares/Third_Party/Huawei/iot_link/network/dtls/mbedtls/mbedtls-2.16.2/include/mbedtls\ssl_internal.h **** /* Allow exactly one hash algorithm for each signature. */
 501:D:/fchai/work/i-cube/I-CUBE-HUAWEI/Middlewares/Third_Party/Huawei/iot_link/network/dtls/mbedtls/mbedtls-2.16.2/include/mbedtls\ssl_internal.h **** void mbedtls_ssl_sig_hash_set_const_hash( mbedtls_ssl_sig_hash_set_t *set,
 502:D:/fchai/work/i-cube/I-CUBE-HUAWEI/Middlewares/Third_Party/Huawei/iot_link/network/dtls/mbedtls/mbedtls-2.16.2/include/mbedtls\ssl_internal.h ****                                           mbedtls_md_type_t md_alg );
 503:D:/fchai/work/i-cube/I-CUBE-HUAWEI/Middlewares/Third_Party/Huawei/iot_link/network/dtls/mbedtls/mbedtls-2.16.2/include/mbedtls\ssl_internal.h **** 
 504:D:/fchai/work/i-cube/I-CUBE-HUAWEI/Middlewares/Third_Party/Huawei/iot_link/network/dtls/mbedtls/mbedtls-2.16.2/include/mbedtls\ssl_internal.h **** /* Setup an empty signature-hash set */
 505:D:/fchai/work/i-cube/I-CUBE-HUAWEI/Middlewares/Third_Party/Huawei/iot_link/network/dtls/mbedtls/mbedtls-2.16.2/include/mbedtls\ssl_internal.h **** static inline void mbedtls_ssl_sig_hash_set_init( mbedtls_ssl_sig_hash_set_t *set )
 506:D:/fchai/work/i-cube/I-CUBE-HUAWEI/Middlewares/Third_Party/Huawei/iot_link/network/dtls/mbedtls/mbedtls-2.16.2/include/mbedtls\ssl_internal.h **** {
 507:D:/fchai/work/i-cube/I-CUBE-HUAWEI/Middlewares/Third_Party/Huawei/iot_link/network/dtls/mbedtls/mbedtls-2.16.2/include/mbedtls\ssl_internal.h ****     mbedtls_ssl_sig_hash_set_const_hash( set, MBEDTLS_MD_NONE );
 508:D:/fchai/work/i-cube/I-CUBE-HUAWEI/Middlewares/Third_Party/Huawei/iot_link/network/dtls/mbedtls/mbedtls-2.16.2/include/mbedtls\ssl_internal.h **** }
 509:D:/fchai/work/i-cube/I-CUBE-HUAWEI/Middlewares/Third_Party/Huawei/iot_link/network/dtls/mbedtls/mbedtls-2.16.2/include/mbedtls\ssl_internal.h **** 
 510:D:/fchai/work/i-cube/I-CUBE-HUAWEI/Middlewares/Third_Party/Huawei/iot_link/network/dtls/mbedtls/mbedtls-2.16.2/include/mbedtls\ssl_internal.h **** #endif /* MBEDTLS_SSL_PROTO_TLS1_2) &&
 511:D:/fchai/work/i-cube/I-CUBE-HUAWEI/Middlewares/Third_Party/Huawei/iot_link/network/dtls/mbedtls/mbedtls-2.16.2/include/mbedtls\ssl_internal.h ****           MBEDTLS_KEY_EXCHANGE__WITH_CERT__ENABLED */
 512:D:/fchai/work/i-cube/I-CUBE-HUAWEI/Middlewares/Third_Party/Huawei/iot_link/network/dtls/mbedtls/mbedtls-2.16.2/include/mbedtls\ssl_internal.h **** 
 513:D:/fchai/work/i-cube/I-CUBE-HUAWEI/Middlewares/Third_Party/Huawei/iot_link/network/dtls/mbedtls/mbedtls-2.16.2/include/mbedtls\ssl_internal.h **** /**
 514:D:/fchai/work/i-cube/I-CUBE-HUAWEI/Middlewares/Third_Party/Huawei/iot_link/network/dtls/mbedtls/mbedtls-2.16.2/include/mbedtls\ssl_internal.h ****  * \brief           Free referenced items in an SSL transform context and clear
 515:D:/fchai/work/i-cube/I-CUBE-HUAWEI/Middlewares/Third_Party/Huawei/iot_link/network/dtls/mbedtls/mbedtls-2.16.2/include/mbedtls\ssl_internal.h ****  *                  memory
 516:D:/fchai/work/i-cube/I-CUBE-HUAWEI/Middlewares/Third_Party/Huawei/iot_link/network/dtls/mbedtls/mbedtls-2.16.2/include/mbedtls\ssl_internal.h ****  *
 517:D:/fchai/work/i-cube/I-CUBE-HUAWEI/Middlewares/Third_Party/Huawei/iot_link/network/dtls/mbedtls/mbedtls-2.16.2/include/mbedtls\ssl_internal.h ****  * \param transform SSL transform context
 518:D:/fchai/work/i-cube/I-CUBE-HUAWEI/Middlewares/Third_Party/Huawei/iot_link/network/dtls/mbedtls/mbedtls-2.16.2/include/mbedtls\ssl_internal.h ****  */
 519:D:/fchai/work/i-cube/I-CUBE-HUAWEI/Middlewares/Third_Party/Huawei/iot_link/network/dtls/mbedtls/mbedtls-2.16.2/include/mbedtls\ssl_internal.h **** void mbedtls_ssl_transform_free( mbedtls_ssl_transform *transform );
 520:D:/fchai/work/i-cube/I-CUBE-HUAWEI/Middlewares/Third_Party/Huawei/iot_link/network/dtls/mbedtls/mbedtls-2.16.2/include/mbedtls\ssl_internal.h **** 
 521:D:/fchai/work/i-cube/I-CUBE-HUAWEI/Middlewares/Third_Party/Huawei/iot_link/network/dtls/mbedtls/mbedtls-2.16.2/include/mbedtls\ssl_internal.h **** /**
 522:D:/fchai/work/i-cube/I-CUBE-HUAWEI/Middlewares/Third_Party/Huawei/iot_link/network/dtls/mbedtls/mbedtls-2.16.2/include/mbedtls\ssl_internal.h ****  * \brief           Free referenced items in an SSL handshake context and clear
 523:D:/fchai/work/i-cube/I-CUBE-HUAWEI/Middlewares/Third_Party/Huawei/iot_link/network/dtls/mbedtls/mbedtls-2.16.2/include/mbedtls\ssl_internal.h ****  *                  memory
 524:D:/fchai/work/i-cube/I-CUBE-HUAWEI/Middlewares/Third_Party/Huawei/iot_link/network/dtls/mbedtls/mbedtls-2.16.2/include/mbedtls\ssl_internal.h ****  *
 525:D:/fchai/work/i-cube/I-CUBE-HUAWEI/Middlewares/Third_Party/Huawei/iot_link/network/dtls/mbedtls/mbedtls-2.16.2/include/mbedtls\ssl_internal.h ****  * \param ssl       SSL context
 526:D:/fchai/work/i-cube/I-CUBE-HUAWEI/Middlewares/Third_Party/Huawei/iot_link/network/dtls/mbedtls/mbedtls-2.16.2/include/mbedtls\ssl_internal.h ****  */
 527:D:/fchai/work/i-cube/I-CUBE-HUAWEI/Middlewares/Third_Party/Huawei/iot_link/network/dtls/mbedtls/mbedtls-2.16.2/include/mbedtls\ssl_internal.h **** void mbedtls_ssl_handshake_free( mbedtls_ssl_context *ssl );
 528:D:/fchai/work/i-cube/I-CUBE-HUAWEI/Middlewares/Third_Party/Huawei/iot_link/network/dtls/mbedtls/mbedtls-2.16.2/include/mbedtls\ssl_internal.h **** 
 529:D:/fchai/work/i-cube/I-CUBE-HUAWEI/Middlewares/Third_Party/Huawei/iot_link/network/dtls/mbedtls/mbedtls-2.16.2/include/mbedtls\ssl_internal.h **** int mbedtls_ssl_handshake_client_step( mbedtls_ssl_context *ssl );
 530:D:/fchai/work/i-cube/I-CUBE-HUAWEI/Middlewares/Third_Party/Huawei/iot_link/network/dtls/mbedtls/mbedtls-2.16.2/include/mbedtls\ssl_internal.h **** int mbedtls_ssl_handshake_server_step( mbedtls_ssl_context *ssl );
 531:D:/fchai/work/i-cube/I-CUBE-HUAWEI/Middlewares/Third_Party/Huawei/iot_link/network/dtls/mbedtls/mbedtls-2.16.2/include/mbedtls\ssl_internal.h **** void mbedtls_ssl_handshake_wrapup( mbedtls_ssl_context *ssl );
 532:D:/fchai/work/i-cube/I-CUBE-HUAWEI/Middlewares/Third_Party/Huawei/iot_link/network/dtls/mbedtls/mbedtls-2.16.2/include/mbedtls\ssl_internal.h **** 
 533:D:/fchai/work/i-cube/I-CUBE-HUAWEI/Middlewares/Third_Party/Huawei/iot_link/network/dtls/mbedtls/mbedtls-2.16.2/include/mbedtls\ssl_internal.h **** int mbedtls_ssl_send_fatal_handshake_failure( mbedtls_ssl_context *ssl );
 534:D:/fchai/work/i-cube/I-CUBE-HUAWEI/Middlewares/Third_Party/Huawei/iot_link/network/dtls/mbedtls/mbedtls-2.16.2/include/mbedtls\ssl_internal.h **** 
 535:D:/fchai/work/i-cube/I-CUBE-HUAWEI/Middlewares/Third_Party/Huawei/iot_link/network/dtls/mbedtls/mbedtls-2.16.2/include/mbedtls\ssl_internal.h **** void mbedtls_ssl_reset_checksum( mbedtls_ssl_context *ssl );
 536:D:/fchai/work/i-cube/I-CUBE-HUAWEI/Middlewares/Third_Party/Huawei/iot_link/network/dtls/mbedtls/mbedtls-2.16.2/include/mbedtls\ssl_internal.h **** int mbedtls_ssl_derive_keys( mbedtls_ssl_context *ssl );
 537:D:/fchai/work/i-cube/I-CUBE-HUAWEI/Middlewares/Third_Party/Huawei/iot_link/network/dtls/mbedtls/mbedtls-2.16.2/include/mbedtls\ssl_internal.h **** 
 538:D:/fchai/work/i-cube/I-CUBE-HUAWEI/Middlewares/Third_Party/Huawei/iot_link/network/dtls/mbedtls/mbedtls-2.16.2/include/mbedtls\ssl_internal.h **** int mbedtls_ssl_handle_message_type( mbedtls_ssl_context *ssl );
 539:D:/fchai/work/i-cube/I-CUBE-HUAWEI/Middlewares/Third_Party/Huawei/iot_link/network/dtls/mbedtls/mbedtls-2.16.2/include/mbedtls\ssl_internal.h **** int mbedtls_ssl_prepare_handshake_record( mbedtls_ssl_context *ssl );
 540:D:/fchai/work/i-cube/I-CUBE-HUAWEI/Middlewares/Third_Party/Huawei/iot_link/network/dtls/mbedtls/mbedtls-2.16.2/include/mbedtls\ssl_internal.h **** void mbedtls_ssl_update_handshake_status( mbedtls_ssl_context *ssl );
 541:D:/fchai/work/i-cube/I-CUBE-HUAWEI/Middlewares/Third_Party/Huawei/iot_link/network/dtls/mbedtls/mbedtls-2.16.2/include/mbedtls\ssl_internal.h **** 
 542:D:/fchai/work/i-cube/I-CUBE-HUAWEI/Middlewares/Third_Party/Huawei/iot_link/network/dtls/mbedtls/mbedtls-2.16.2/include/mbedtls\ssl_internal.h **** /**
 543:D:/fchai/work/i-cube/I-CUBE-HUAWEI/Middlewares/Third_Party/Huawei/iot_link/network/dtls/mbedtls/mbedtls-2.16.2/include/mbedtls\ssl_internal.h ****  * \brief       Update record layer
 544:D:/fchai/work/i-cube/I-CUBE-HUAWEI/Middlewares/Third_Party/Huawei/iot_link/network/dtls/mbedtls/mbedtls-2.16.2/include/mbedtls\ssl_internal.h ****  *
 545:D:/fchai/work/i-cube/I-CUBE-HUAWEI/Middlewares/Third_Party/Huawei/iot_link/network/dtls/mbedtls/mbedtls-2.16.2/include/mbedtls\ssl_internal.h ****  *              This function roughly separates the implementation
 546:D:/fchai/work/i-cube/I-CUBE-HUAWEI/Middlewares/Third_Party/Huawei/iot_link/network/dtls/mbedtls/mbedtls-2.16.2/include/mbedtls\ssl_internal.h ****  *              of the logic of (D)TLS from the implementation
 547:D:/fchai/work/i-cube/I-CUBE-HUAWEI/Middlewares/Third_Party/Huawei/iot_link/network/dtls/mbedtls/mbedtls-2.16.2/include/mbedtls\ssl_internal.h ****  *              of the secure transport.
 548:D:/fchai/work/i-cube/I-CUBE-HUAWEI/Middlewares/Third_Party/Huawei/iot_link/network/dtls/mbedtls/mbedtls-2.16.2/include/mbedtls\ssl_internal.h ****  *
 549:D:/fchai/work/i-cube/I-CUBE-HUAWEI/Middlewares/Third_Party/Huawei/iot_link/network/dtls/mbedtls/mbedtls-2.16.2/include/mbedtls\ssl_internal.h ****  * \param  ssl              The SSL context to use.
 550:D:/fchai/work/i-cube/I-CUBE-HUAWEI/Middlewares/Third_Party/Huawei/iot_link/network/dtls/mbedtls/mbedtls-2.16.2/include/mbedtls\ssl_internal.h ****  * \param  update_hs_digest This indicates if the handshake digest
 551:D:/fchai/work/i-cube/I-CUBE-HUAWEI/Middlewares/Third_Party/Huawei/iot_link/network/dtls/mbedtls/mbedtls-2.16.2/include/mbedtls\ssl_internal.h ****  *                          should be automatically updated in case
 552:D:/fchai/work/i-cube/I-CUBE-HUAWEI/Middlewares/Third_Party/Huawei/iot_link/network/dtls/mbedtls/mbedtls-2.16.2/include/mbedtls\ssl_internal.h ****  *                          a handshake message is found.
 553:D:/fchai/work/i-cube/I-CUBE-HUAWEI/Middlewares/Third_Party/Huawei/iot_link/network/dtls/mbedtls/mbedtls-2.16.2/include/mbedtls\ssl_internal.h ****  *
 554:D:/fchai/work/i-cube/I-CUBE-HUAWEI/Middlewares/Third_Party/Huawei/iot_link/network/dtls/mbedtls/mbedtls-2.16.2/include/mbedtls\ssl_internal.h ****  * \return      0 or non-zero error code.
ARM GAS  T:\msys\tmp\ccv76qhU.s 			page 26


 555:D:/fchai/work/i-cube/I-CUBE-HUAWEI/Middlewares/Third_Party/Huawei/iot_link/network/dtls/mbedtls/mbedtls-2.16.2/include/mbedtls\ssl_internal.h ****  *
 556:D:/fchai/work/i-cube/I-CUBE-HUAWEI/Middlewares/Third_Party/Huawei/iot_link/network/dtls/mbedtls/mbedtls-2.16.2/include/mbedtls\ssl_internal.h ****  * \note        A clarification on what is called 'record layer' here
 557:D:/fchai/work/i-cube/I-CUBE-HUAWEI/Middlewares/Third_Party/Huawei/iot_link/network/dtls/mbedtls/mbedtls-2.16.2/include/mbedtls\ssl_internal.h ****  *              is in order, as many sensible definitions are possible:
 558:D:/fchai/work/i-cube/I-CUBE-HUAWEI/Middlewares/Third_Party/Huawei/iot_link/network/dtls/mbedtls/mbedtls-2.16.2/include/mbedtls\ssl_internal.h ****  *
 559:D:/fchai/work/i-cube/I-CUBE-HUAWEI/Middlewares/Third_Party/Huawei/iot_link/network/dtls/mbedtls/mbedtls-2.16.2/include/mbedtls\ssl_internal.h ****  *              The record layer takes as input an untrusted underlying
 560:D:/fchai/work/i-cube/I-CUBE-HUAWEI/Middlewares/Third_Party/Huawei/iot_link/network/dtls/mbedtls/mbedtls-2.16.2/include/mbedtls\ssl_internal.h ****  *              transport (stream or datagram) and transforms it into
 561:D:/fchai/work/i-cube/I-CUBE-HUAWEI/Middlewares/Third_Party/Huawei/iot_link/network/dtls/mbedtls/mbedtls-2.16.2/include/mbedtls\ssl_internal.h ****  *              a serially multiplexed, secure transport, which
 562:D:/fchai/work/i-cube/I-CUBE-HUAWEI/Middlewares/Third_Party/Huawei/iot_link/network/dtls/mbedtls/mbedtls-2.16.2/include/mbedtls\ssl_internal.h ****  *              conceptually provides the following:
 563:D:/fchai/work/i-cube/I-CUBE-HUAWEI/Middlewares/Third_Party/Huawei/iot_link/network/dtls/mbedtls/mbedtls-2.16.2/include/mbedtls\ssl_internal.h ****  *
 564:D:/fchai/work/i-cube/I-CUBE-HUAWEI/Middlewares/Third_Party/Huawei/iot_link/network/dtls/mbedtls/mbedtls-2.16.2/include/mbedtls\ssl_internal.h ****  *              (1) Three datagram based, content-agnostic transports
 565:D:/fchai/work/i-cube/I-CUBE-HUAWEI/Middlewares/Third_Party/Huawei/iot_link/network/dtls/mbedtls/mbedtls-2.16.2/include/mbedtls\ssl_internal.h ****  *                  for handshake, alert and CCS messages.
 566:D:/fchai/work/i-cube/I-CUBE-HUAWEI/Middlewares/Third_Party/Huawei/iot_link/network/dtls/mbedtls/mbedtls-2.16.2/include/mbedtls\ssl_internal.h ****  *              (2) One stream- or datagram-based transport
 567:D:/fchai/work/i-cube/I-CUBE-HUAWEI/Middlewares/Third_Party/Huawei/iot_link/network/dtls/mbedtls/mbedtls-2.16.2/include/mbedtls\ssl_internal.h ****  *                  for application data.
 568:D:/fchai/work/i-cube/I-CUBE-HUAWEI/Middlewares/Third_Party/Huawei/iot_link/network/dtls/mbedtls/mbedtls-2.16.2/include/mbedtls\ssl_internal.h ****  *              (3) Functionality for changing the underlying transform
 569:D:/fchai/work/i-cube/I-CUBE-HUAWEI/Middlewares/Third_Party/Huawei/iot_link/network/dtls/mbedtls/mbedtls-2.16.2/include/mbedtls\ssl_internal.h ****  *                  securing the contents.
 570:D:/fchai/work/i-cube/I-CUBE-HUAWEI/Middlewares/Third_Party/Huawei/iot_link/network/dtls/mbedtls/mbedtls-2.16.2/include/mbedtls\ssl_internal.h ****  *
 571:D:/fchai/work/i-cube/I-CUBE-HUAWEI/Middlewares/Third_Party/Huawei/iot_link/network/dtls/mbedtls/mbedtls-2.16.2/include/mbedtls\ssl_internal.h ****  *              The interface to this functionality is given as follows:
 572:D:/fchai/work/i-cube/I-CUBE-HUAWEI/Middlewares/Third_Party/Huawei/iot_link/network/dtls/mbedtls/mbedtls-2.16.2/include/mbedtls\ssl_internal.h ****  *
 573:D:/fchai/work/i-cube/I-CUBE-HUAWEI/Middlewares/Third_Party/Huawei/iot_link/network/dtls/mbedtls/mbedtls-2.16.2/include/mbedtls\ssl_internal.h ****  *              a Updating
 574:D:/fchai/work/i-cube/I-CUBE-HUAWEI/Middlewares/Third_Party/Huawei/iot_link/network/dtls/mbedtls/mbedtls-2.16.2/include/mbedtls\ssl_internal.h ****  *                [Currently implemented by mbedtls_ssl_read_record]
 575:D:/fchai/work/i-cube/I-CUBE-HUAWEI/Middlewares/Third_Party/Huawei/iot_link/network/dtls/mbedtls/mbedtls-2.16.2/include/mbedtls\ssl_internal.h ****  *
 576:D:/fchai/work/i-cube/I-CUBE-HUAWEI/Middlewares/Third_Party/Huawei/iot_link/network/dtls/mbedtls/mbedtls-2.16.2/include/mbedtls\ssl_internal.h ****  *                Check if and on which of the four 'ports' data is pending:
 577:D:/fchai/work/i-cube/I-CUBE-HUAWEI/Middlewares/Third_Party/Huawei/iot_link/network/dtls/mbedtls/mbedtls-2.16.2/include/mbedtls\ssl_internal.h ****  *                Nothing, a controlling datagram of type (1), or application
 578:D:/fchai/work/i-cube/I-CUBE-HUAWEI/Middlewares/Third_Party/Huawei/iot_link/network/dtls/mbedtls/mbedtls-2.16.2/include/mbedtls\ssl_internal.h ****  *                data (2). In any case data is present, internal buffers
 579:D:/fchai/work/i-cube/I-CUBE-HUAWEI/Middlewares/Third_Party/Huawei/iot_link/network/dtls/mbedtls/mbedtls-2.16.2/include/mbedtls\ssl_internal.h ****  *                provide access to the data for the user to process it.
 580:D:/fchai/work/i-cube/I-CUBE-HUAWEI/Middlewares/Third_Party/Huawei/iot_link/network/dtls/mbedtls/mbedtls-2.16.2/include/mbedtls\ssl_internal.h ****  *                Consumption of type (1) datagrams is done automatically
 581:D:/fchai/work/i-cube/I-CUBE-HUAWEI/Middlewares/Third_Party/Huawei/iot_link/network/dtls/mbedtls/mbedtls-2.16.2/include/mbedtls\ssl_internal.h ****  *                on the next update, invalidating that the internal buffers
 582:D:/fchai/work/i-cube/I-CUBE-HUAWEI/Middlewares/Third_Party/Huawei/iot_link/network/dtls/mbedtls/mbedtls-2.16.2/include/mbedtls\ssl_internal.h ****  *                for previous datagrams, while consumption of application
 583:D:/fchai/work/i-cube/I-CUBE-HUAWEI/Middlewares/Third_Party/Huawei/iot_link/network/dtls/mbedtls/mbedtls-2.16.2/include/mbedtls\ssl_internal.h ****  *                data (2) is user-controlled.
 584:D:/fchai/work/i-cube/I-CUBE-HUAWEI/Middlewares/Third_Party/Huawei/iot_link/network/dtls/mbedtls/mbedtls-2.16.2/include/mbedtls\ssl_internal.h ****  *
 585:D:/fchai/work/i-cube/I-CUBE-HUAWEI/Middlewares/Third_Party/Huawei/iot_link/network/dtls/mbedtls/mbedtls-2.16.2/include/mbedtls\ssl_internal.h ****  *              b Reading of application data
 586:D:/fchai/work/i-cube/I-CUBE-HUAWEI/Middlewares/Third_Party/Huawei/iot_link/network/dtls/mbedtls/mbedtls-2.16.2/include/mbedtls\ssl_internal.h ****  *                [Currently manual adaption of ssl->in_offt pointer]
 587:D:/fchai/work/i-cube/I-CUBE-HUAWEI/Middlewares/Third_Party/Huawei/iot_link/network/dtls/mbedtls/mbedtls-2.16.2/include/mbedtls\ssl_internal.h ****  *
 588:D:/fchai/work/i-cube/I-CUBE-HUAWEI/Middlewares/Third_Party/Huawei/iot_link/network/dtls/mbedtls/mbedtls-2.16.2/include/mbedtls\ssl_internal.h ****  *                As mentioned in the last paragraph, consumption of data
 589:D:/fchai/work/i-cube/I-CUBE-HUAWEI/Middlewares/Third_Party/Huawei/iot_link/network/dtls/mbedtls/mbedtls-2.16.2/include/mbedtls\ssl_internal.h ****  *                is different from the automatic consumption of control
 590:D:/fchai/work/i-cube/I-CUBE-HUAWEI/Middlewares/Third_Party/Huawei/iot_link/network/dtls/mbedtls/mbedtls-2.16.2/include/mbedtls\ssl_internal.h ****  *                datagrams (1) because application data is treated as a stream.
 591:D:/fchai/work/i-cube/I-CUBE-HUAWEI/Middlewares/Third_Party/Huawei/iot_link/network/dtls/mbedtls/mbedtls-2.16.2/include/mbedtls\ssl_internal.h ****  *
 592:D:/fchai/work/i-cube/I-CUBE-HUAWEI/Middlewares/Third_Party/Huawei/iot_link/network/dtls/mbedtls/mbedtls-2.16.2/include/mbedtls\ssl_internal.h ****  *              c Tracking availability of application data
 593:D:/fchai/work/i-cube/I-CUBE-HUAWEI/Middlewares/Third_Party/Huawei/iot_link/network/dtls/mbedtls/mbedtls-2.16.2/include/mbedtls\ssl_internal.h ****  *                [Currently manually through decreasing ssl->in_msglen]
 594:D:/fchai/work/i-cube/I-CUBE-HUAWEI/Middlewares/Third_Party/Huawei/iot_link/network/dtls/mbedtls/mbedtls-2.16.2/include/mbedtls\ssl_internal.h ****  *
 595:D:/fchai/work/i-cube/I-CUBE-HUAWEI/Middlewares/Third_Party/Huawei/iot_link/network/dtls/mbedtls/mbedtls-2.16.2/include/mbedtls\ssl_internal.h ****  *                For efficiency and to retain datagram semantics for
 596:D:/fchai/work/i-cube/I-CUBE-HUAWEI/Middlewares/Third_Party/Huawei/iot_link/network/dtls/mbedtls/mbedtls-2.16.2/include/mbedtls\ssl_internal.h ****  *                application data in case of DTLS, the record layer
 597:D:/fchai/work/i-cube/I-CUBE-HUAWEI/Middlewares/Third_Party/Huawei/iot_link/network/dtls/mbedtls/mbedtls-2.16.2/include/mbedtls\ssl_internal.h ****  *                provides functionality for checking how much application
 598:D:/fchai/work/i-cube/I-CUBE-HUAWEI/Middlewares/Third_Party/Huawei/iot_link/network/dtls/mbedtls/mbedtls-2.16.2/include/mbedtls\ssl_internal.h ****  *                data is still available in the internal buffer.
 599:D:/fchai/work/i-cube/I-CUBE-HUAWEI/Middlewares/Third_Party/Huawei/iot_link/network/dtls/mbedtls/mbedtls-2.16.2/include/mbedtls\ssl_internal.h ****  *
 600:D:/fchai/work/i-cube/I-CUBE-HUAWEI/Middlewares/Third_Party/Huawei/iot_link/network/dtls/mbedtls/mbedtls-2.16.2/include/mbedtls\ssl_internal.h ****  *              d Changing the transformation securing the communication.
 601:D:/fchai/work/i-cube/I-CUBE-HUAWEI/Middlewares/Third_Party/Huawei/iot_link/network/dtls/mbedtls/mbedtls-2.16.2/include/mbedtls\ssl_internal.h ****  *
 602:D:/fchai/work/i-cube/I-CUBE-HUAWEI/Middlewares/Third_Party/Huawei/iot_link/network/dtls/mbedtls/mbedtls-2.16.2/include/mbedtls\ssl_internal.h ****  *              Given an opaque implementation of the record layer in the
 603:D:/fchai/work/i-cube/I-CUBE-HUAWEI/Middlewares/Third_Party/Huawei/iot_link/network/dtls/mbedtls/mbedtls-2.16.2/include/mbedtls\ssl_internal.h ****  *              above sense, it should be possible to implement the logic
 604:D:/fchai/work/i-cube/I-CUBE-HUAWEI/Middlewares/Third_Party/Huawei/iot_link/network/dtls/mbedtls/mbedtls-2.16.2/include/mbedtls\ssl_internal.h ****  *              of (D)TLS on top of it without the need to know anything
 605:D:/fchai/work/i-cube/I-CUBE-HUAWEI/Middlewares/Third_Party/Huawei/iot_link/network/dtls/mbedtls/mbedtls-2.16.2/include/mbedtls\ssl_internal.h ****  *              about the record layer's internals. This is done e.g.
 606:D:/fchai/work/i-cube/I-CUBE-HUAWEI/Middlewares/Third_Party/Huawei/iot_link/network/dtls/mbedtls/mbedtls-2.16.2/include/mbedtls\ssl_internal.h ****  *              in all the handshake handling functions, and in the
 607:D:/fchai/work/i-cube/I-CUBE-HUAWEI/Middlewares/Third_Party/Huawei/iot_link/network/dtls/mbedtls/mbedtls-2.16.2/include/mbedtls\ssl_internal.h ****  *              application data reading function mbedtls_ssl_read.
 608:D:/fchai/work/i-cube/I-CUBE-HUAWEI/Middlewares/Third_Party/Huawei/iot_link/network/dtls/mbedtls/mbedtls-2.16.2/include/mbedtls\ssl_internal.h ****  *
 609:D:/fchai/work/i-cube/I-CUBE-HUAWEI/Middlewares/Third_Party/Huawei/iot_link/network/dtls/mbedtls/mbedtls-2.16.2/include/mbedtls\ssl_internal.h ****  * \note        The above tries to give a conceptual picture of the
 610:D:/fchai/work/i-cube/I-CUBE-HUAWEI/Middlewares/Third_Party/Huawei/iot_link/network/dtls/mbedtls/mbedtls-2.16.2/include/mbedtls\ssl_internal.h ****  *              record layer, but the current implementation deviates
 611:D:/fchai/work/i-cube/I-CUBE-HUAWEI/Middlewares/Third_Party/Huawei/iot_link/network/dtls/mbedtls/mbedtls-2.16.2/include/mbedtls\ssl_internal.h ****  *              from it in some places. For example, our implementation of
ARM GAS  T:\msys\tmp\ccv76qhU.s 			page 27


 612:D:/fchai/work/i-cube/I-CUBE-HUAWEI/Middlewares/Third_Party/Huawei/iot_link/network/dtls/mbedtls/mbedtls-2.16.2/include/mbedtls\ssl_internal.h ****  *              the update functionality through mbedtls_ssl_read_record
 613:D:/fchai/work/i-cube/I-CUBE-HUAWEI/Middlewares/Third_Party/Huawei/iot_link/network/dtls/mbedtls/mbedtls-2.16.2/include/mbedtls\ssl_internal.h ****  *              discards datagrams depending on the current state, which
 614:D:/fchai/work/i-cube/I-CUBE-HUAWEI/Middlewares/Third_Party/Huawei/iot_link/network/dtls/mbedtls/mbedtls-2.16.2/include/mbedtls\ssl_internal.h ****  *              wouldn't fall under the record layer's responsibility
 615:D:/fchai/work/i-cube/I-CUBE-HUAWEI/Middlewares/Third_Party/Huawei/iot_link/network/dtls/mbedtls/mbedtls-2.16.2/include/mbedtls\ssl_internal.h ****  *              following the above definition.
 616:D:/fchai/work/i-cube/I-CUBE-HUAWEI/Middlewares/Third_Party/Huawei/iot_link/network/dtls/mbedtls/mbedtls-2.16.2/include/mbedtls\ssl_internal.h ****  *
 617:D:/fchai/work/i-cube/I-CUBE-HUAWEI/Middlewares/Third_Party/Huawei/iot_link/network/dtls/mbedtls/mbedtls-2.16.2/include/mbedtls\ssl_internal.h ****  */
 618:D:/fchai/work/i-cube/I-CUBE-HUAWEI/Middlewares/Third_Party/Huawei/iot_link/network/dtls/mbedtls/mbedtls-2.16.2/include/mbedtls\ssl_internal.h **** int mbedtls_ssl_read_record( mbedtls_ssl_context *ssl,
 619:D:/fchai/work/i-cube/I-CUBE-HUAWEI/Middlewares/Third_Party/Huawei/iot_link/network/dtls/mbedtls/mbedtls-2.16.2/include/mbedtls\ssl_internal.h ****                              unsigned update_hs_digest );
 620:D:/fchai/work/i-cube/I-CUBE-HUAWEI/Middlewares/Third_Party/Huawei/iot_link/network/dtls/mbedtls/mbedtls-2.16.2/include/mbedtls\ssl_internal.h **** int mbedtls_ssl_fetch_input( mbedtls_ssl_context *ssl, size_t nb_want );
 621:D:/fchai/work/i-cube/I-CUBE-HUAWEI/Middlewares/Third_Party/Huawei/iot_link/network/dtls/mbedtls/mbedtls-2.16.2/include/mbedtls\ssl_internal.h **** 
 622:D:/fchai/work/i-cube/I-CUBE-HUAWEI/Middlewares/Third_Party/Huawei/iot_link/network/dtls/mbedtls/mbedtls-2.16.2/include/mbedtls\ssl_internal.h **** int mbedtls_ssl_write_handshake_msg( mbedtls_ssl_context *ssl );
 623:D:/fchai/work/i-cube/I-CUBE-HUAWEI/Middlewares/Third_Party/Huawei/iot_link/network/dtls/mbedtls/mbedtls-2.16.2/include/mbedtls\ssl_internal.h **** int mbedtls_ssl_write_record( mbedtls_ssl_context *ssl, uint8_t force_flush );
 624:D:/fchai/work/i-cube/I-CUBE-HUAWEI/Middlewares/Third_Party/Huawei/iot_link/network/dtls/mbedtls/mbedtls-2.16.2/include/mbedtls\ssl_internal.h **** int mbedtls_ssl_flush_output( mbedtls_ssl_context *ssl );
 625:D:/fchai/work/i-cube/I-CUBE-HUAWEI/Middlewares/Third_Party/Huawei/iot_link/network/dtls/mbedtls/mbedtls-2.16.2/include/mbedtls\ssl_internal.h **** 
 626:D:/fchai/work/i-cube/I-CUBE-HUAWEI/Middlewares/Third_Party/Huawei/iot_link/network/dtls/mbedtls/mbedtls-2.16.2/include/mbedtls\ssl_internal.h **** int mbedtls_ssl_parse_certificate( mbedtls_ssl_context *ssl );
 627:D:/fchai/work/i-cube/I-CUBE-HUAWEI/Middlewares/Third_Party/Huawei/iot_link/network/dtls/mbedtls/mbedtls-2.16.2/include/mbedtls\ssl_internal.h **** int mbedtls_ssl_write_certificate( mbedtls_ssl_context *ssl );
 628:D:/fchai/work/i-cube/I-CUBE-HUAWEI/Middlewares/Third_Party/Huawei/iot_link/network/dtls/mbedtls/mbedtls-2.16.2/include/mbedtls\ssl_internal.h **** 
 629:D:/fchai/work/i-cube/I-CUBE-HUAWEI/Middlewares/Third_Party/Huawei/iot_link/network/dtls/mbedtls/mbedtls-2.16.2/include/mbedtls\ssl_internal.h **** int mbedtls_ssl_parse_change_cipher_spec( mbedtls_ssl_context *ssl );
 630:D:/fchai/work/i-cube/I-CUBE-HUAWEI/Middlewares/Third_Party/Huawei/iot_link/network/dtls/mbedtls/mbedtls-2.16.2/include/mbedtls\ssl_internal.h **** int mbedtls_ssl_write_change_cipher_spec( mbedtls_ssl_context *ssl );
 631:D:/fchai/work/i-cube/I-CUBE-HUAWEI/Middlewares/Third_Party/Huawei/iot_link/network/dtls/mbedtls/mbedtls-2.16.2/include/mbedtls\ssl_internal.h **** 
 632:D:/fchai/work/i-cube/I-CUBE-HUAWEI/Middlewares/Third_Party/Huawei/iot_link/network/dtls/mbedtls/mbedtls-2.16.2/include/mbedtls\ssl_internal.h **** int mbedtls_ssl_parse_finished( mbedtls_ssl_context *ssl );
 633:D:/fchai/work/i-cube/I-CUBE-HUAWEI/Middlewares/Third_Party/Huawei/iot_link/network/dtls/mbedtls/mbedtls-2.16.2/include/mbedtls\ssl_internal.h **** int mbedtls_ssl_write_finished( mbedtls_ssl_context *ssl );
 634:D:/fchai/work/i-cube/I-CUBE-HUAWEI/Middlewares/Third_Party/Huawei/iot_link/network/dtls/mbedtls/mbedtls-2.16.2/include/mbedtls\ssl_internal.h **** 
 635:D:/fchai/work/i-cube/I-CUBE-HUAWEI/Middlewares/Third_Party/Huawei/iot_link/network/dtls/mbedtls/mbedtls-2.16.2/include/mbedtls\ssl_internal.h **** void mbedtls_ssl_optimize_checksum( mbedtls_ssl_context *ssl,
 636:D:/fchai/work/i-cube/I-CUBE-HUAWEI/Middlewares/Third_Party/Huawei/iot_link/network/dtls/mbedtls/mbedtls-2.16.2/include/mbedtls\ssl_internal.h ****                             const mbedtls_ssl_ciphersuite_t *ciphersuite_info );
 637:D:/fchai/work/i-cube/I-CUBE-HUAWEI/Middlewares/Third_Party/Huawei/iot_link/network/dtls/mbedtls/mbedtls-2.16.2/include/mbedtls\ssl_internal.h **** 
 638:D:/fchai/work/i-cube/I-CUBE-HUAWEI/Middlewares/Third_Party/Huawei/iot_link/network/dtls/mbedtls/mbedtls-2.16.2/include/mbedtls\ssl_internal.h **** #if defined(MBEDTLS_KEY_EXCHANGE__SOME__PSK_ENABLED)
 639:D:/fchai/work/i-cube/I-CUBE-HUAWEI/Middlewares/Third_Party/Huawei/iot_link/network/dtls/mbedtls/mbedtls-2.16.2/include/mbedtls\ssl_internal.h **** int mbedtls_ssl_psk_derive_premaster( mbedtls_ssl_context *ssl, mbedtls_key_exchange_type_t key_ex 
 640:D:/fchai/work/i-cube/I-CUBE-HUAWEI/Middlewares/Third_Party/Huawei/iot_link/network/dtls/mbedtls/mbedtls-2.16.2/include/mbedtls\ssl_internal.h **** #endif
 641:D:/fchai/work/i-cube/I-CUBE-HUAWEI/Middlewares/Third_Party/Huawei/iot_link/network/dtls/mbedtls/mbedtls-2.16.2/include/mbedtls\ssl_internal.h **** 
 642:D:/fchai/work/i-cube/I-CUBE-HUAWEI/Middlewares/Third_Party/Huawei/iot_link/network/dtls/mbedtls/mbedtls-2.16.2/include/mbedtls\ssl_internal.h **** #if defined(MBEDTLS_PK_C)
 643:D:/fchai/work/i-cube/I-CUBE-HUAWEI/Middlewares/Third_Party/Huawei/iot_link/network/dtls/mbedtls/mbedtls-2.16.2/include/mbedtls\ssl_internal.h **** unsigned char mbedtls_ssl_sig_from_pk( mbedtls_pk_context *pk );
 644:D:/fchai/work/i-cube/I-CUBE-HUAWEI/Middlewares/Third_Party/Huawei/iot_link/network/dtls/mbedtls/mbedtls-2.16.2/include/mbedtls\ssl_internal.h **** unsigned char mbedtls_ssl_sig_from_pk_alg( mbedtls_pk_type_t type );
 645:D:/fchai/work/i-cube/I-CUBE-HUAWEI/Middlewares/Third_Party/Huawei/iot_link/network/dtls/mbedtls/mbedtls-2.16.2/include/mbedtls\ssl_internal.h **** mbedtls_pk_type_t mbedtls_ssl_pk_alg_from_sig( unsigned char sig );
 646:D:/fchai/work/i-cube/I-CUBE-HUAWEI/Middlewares/Third_Party/Huawei/iot_link/network/dtls/mbedtls/mbedtls-2.16.2/include/mbedtls\ssl_internal.h **** #endif
 647:D:/fchai/work/i-cube/I-CUBE-HUAWEI/Middlewares/Third_Party/Huawei/iot_link/network/dtls/mbedtls/mbedtls-2.16.2/include/mbedtls\ssl_internal.h **** 
 648:D:/fchai/work/i-cube/I-CUBE-HUAWEI/Middlewares/Third_Party/Huawei/iot_link/network/dtls/mbedtls/mbedtls-2.16.2/include/mbedtls\ssl_internal.h **** mbedtls_md_type_t mbedtls_ssl_md_alg_from_hash( unsigned char hash );
 649:D:/fchai/work/i-cube/I-CUBE-HUAWEI/Middlewares/Third_Party/Huawei/iot_link/network/dtls/mbedtls/mbedtls-2.16.2/include/mbedtls\ssl_internal.h **** unsigned char mbedtls_ssl_hash_from_md_alg( int md );
 650:D:/fchai/work/i-cube/I-CUBE-HUAWEI/Middlewares/Third_Party/Huawei/iot_link/network/dtls/mbedtls/mbedtls-2.16.2/include/mbedtls\ssl_internal.h **** int mbedtls_ssl_set_calc_verify_md( mbedtls_ssl_context *ssl, int md );
 651:D:/fchai/work/i-cube/I-CUBE-HUAWEI/Middlewares/Third_Party/Huawei/iot_link/network/dtls/mbedtls/mbedtls-2.16.2/include/mbedtls\ssl_internal.h **** 
 652:D:/fchai/work/i-cube/I-CUBE-HUAWEI/Middlewares/Third_Party/Huawei/iot_link/network/dtls/mbedtls/mbedtls-2.16.2/include/mbedtls\ssl_internal.h **** #if defined(MBEDTLS_ECP_C)
 653:D:/fchai/work/i-cube/I-CUBE-HUAWEI/Middlewares/Third_Party/Huawei/iot_link/network/dtls/mbedtls/mbedtls-2.16.2/include/mbedtls\ssl_internal.h **** int mbedtls_ssl_check_curve( const mbedtls_ssl_context *ssl, mbedtls_ecp_group_id grp_id );
 654:D:/fchai/work/i-cube/I-CUBE-HUAWEI/Middlewares/Third_Party/Huawei/iot_link/network/dtls/mbedtls/mbedtls-2.16.2/include/mbedtls\ssl_internal.h **** #endif
 655:D:/fchai/work/i-cube/I-CUBE-HUAWEI/Middlewares/Third_Party/Huawei/iot_link/network/dtls/mbedtls/mbedtls-2.16.2/include/mbedtls\ssl_internal.h **** 
 656:D:/fchai/work/i-cube/I-CUBE-HUAWEI/Middlewares/Third_Party/Huawei/iot_link/network/dtls/mbedtls/mbedtls-2.16.2/include/mbedtls\ssl_internal.h **** #if defined(MBEDTLS_KEY_EXCHANGE__WITH_CERT__ENABLED)
 657:D:/fchai/work/i-cube/I-CUBE-HUAWEI/Middlewares/Third_Party/Huawei/iot_link/network/dtls/mbedtls/mbedtls-2.16.2/include/mbedtls\ssl_internal.h **** int mbedtls_ssl_check_sig_hash( const mbedtls_ssl_context *ssl,
 658:D:/fchai/work/i-cube/I-CUBE-HUAWEI/Middlewares/Third_Party/Huawei/iot_link/network/dtls/mbedtls/mbedtls-2.16.2/include/mbedtls\ssl_internal.h ****                                 mbedtls_md_type_t md );
 659:D:/fchai/work/i-cube/I-CUBE-HUAWEI/Middlewares/Third_Party/Huawei/iot_link/network/dtls/mbedtls/mbedtls-2.16.2/include/mbedtls\ssl_internal.h **** #endif
 660:D:/fchai/work/i-cube/I-CUBE-HUAWEI/Middlewares/Third_Party/Huawei/iot_link/network/dtls/mbedtls/mbedtls-2.16.2/include/mbedtls\ssl_internal.h **** 
 661:D:/fchai/work/i-cube/I-CUBE-HUAWEI/Middlewares/Third_Party/Huawei/iot_link/network/dtls/mbedtls/mbedtls-2.16.2/include/mbedtls\ssl_internal.h **** #if defined(MBEDTLS_X509_CRT_PARSE_C)
 662:D:/fchai/work/i-cube/I-CUBE-HUAWEI/Middlewares/Third_Party/Huawei/iot_link/network/dtls/mbedtls/mbedtls-2.16.2/include/mbedtls\ssl_internal.h **** static inline mbedtls_pk_context *mbedtls_ssl_own_key( mbedtls_ssl_context *ssl )
 663:D:/fchai/work/i-cube/I-CUBE-HUAWEI/Middlewares/Third_Party/Huawei/iot_link/network/dtls/mbedtls/mbedtls-2.16.2/include/mbedtls\ssl_internal.h **** {
 664:D:/fchai/work/i-cube/I-CUBE-HUAWEI/Middlewares/Third_Party/Huawei/iot_link/network/dtls/mbedtls/mbedtls-2.16.2/include/mbedtls\ssl_internal.h ****     mbedtls_ssl_key_cert *key_cert;
 665:D:/fchai/work/i-cube/I-CUBE-HUAWEI/Middlewares/Third_Party/Huawei/iot_link/network/dtls/mbedtls/mbedtls-2.16.2/include/mbedtls\ssl_internal.h **** 
 666:D:/fchai/work/i-cube/I-CUBE-HUAWEI/Middlewares/Third_Party/Huawei/iot_link/network/dtls/mbedtls/mbedtls-2.16.2/include/mbedtls\ssl_internal.h ****     if( ssl->handshake != NULL && ssl->handshake->key_cert != NULL )
 667:D:/fchai/work/i-cube/I-CUBE-HUAWEI/Middlewares/Third_Party/Huawei/iot_link/network/dtls/mbedtls/mbedtls-2.16.2/include/mbedtls\ssl_internal.h ****         key_cert = ssl->handshake->key_cert;
 668:D:/fchai/work/i-cube/I-CUBE-HUAWEI/Middlewares/Third_Party/Huawei/iot_link/network/dtls/mbedtls/mbedtls-2.16.2/include/mbedtls\ssl_internal.h ****     else
ARM GAS  T:\msys\tmp\ccv76qhU.s 			page 28


 669:D:/fchai/work/i-cube/I-CUBE-HUAWEI/Middlewares/Third_Party/Huawei/iot_link/network/dtls/mbedtls/mbedtls-2.16.2/include/mbedtls\ssl_internal.h ****         key_cert = ssl->conf->key_cert;
 670:D:/fchai/work/i-cube/I-CUBE-HUAWEI/Middlewares/Third_Party/Huawei/iot_link/network/dtls/mbedtls/mbedtls-2.16.2/include/mbedtls\ssl_internal.h **** 
 671:D:/fchai/work/i-cube/I-CUBE-HUAWEI/Middlewares/Third_Party/Huawei/iot_link/network/dtls/mbedtls/mbedtls-2.16.2/include/mbedtls\ssl_internal.h ****     return( key_cert == NULL ? NULL : key_cert->key );
 672:D:/fchai/work/i-cube/I-CUBE-HUAWEI/Middlewares/Third_Party/Huawei/iot_link/network/dtls/mbedtls/mbedtls-2.16.2/include/mbedtls\ssl_internal.h **** }
 673:D:/fchai/work/i-cube/I-CUBE-HUAWEI/Middlewares/Third_Party/Huawei/iot_link/network/dtls/mbedtls/mbedtls-2.16.2/include/mbedtls\ssl_internal.h **** 
 674:D:/fchai/work/i-cube/I-CUBE-HUAWEI/Middlewares/Third_Party/Huawei/iot_link/network/dtls/mbedtls/mbedtls-2.16.2/include/mbedtls\ssl_internal.h **** static inline mbedtls_x509_crt *mbedtls_ssl_own_cert( mbedtls_ssl_context *ssl )
 675:D:/fchai/work/i-cube/I-CUBE-HUAWEI/Middlewares/Third_Party/Huawei/iot_link/network/dtls/mbedtls/mbedtls-2.16.2/include/mbedtls\ssl_internal.h **** {
 676:D:/fchai/work/i-cube/I-CUBE-HUAWEI/Middlewares/Third_Party/Huawei/iot_link/network/dtls/mbedtls/mbedtls-2.16.2/include/mbedtls\ssl_internal.h ****     mbedtls_ssl_key_cert *key_cert;
 677:D:/fchai/work/i-cube/I-CUBE-HUAWEI/Middlewares/Third_Party/Huawei/iot_link/network/dtls/mbedtls/mbedtls-2.16.2/include/mbedtls\ssl_internal.h **** 
 678:D:/fchai/work/i-cube/I-CUBE-HUAWEI/Middlewares/Third_Party/Huawei/iot_link/network/dtls/mbedtls/mbedtls-2.16.2/include/mbedtls\ssl_internal.h ****     if( ssl->handshake != NULL && ssl->handshake->key_cert != NULL )
 679:D:/fchai/work/i-cube/I-CUBE-HUAWEI/Middlewares/Third_Party/Huawei/iot_link/network/dtls/mbedtls/mbedtls-2.16.2/include/mbedtls\ssl_internal.h ****         key_cert = ssl->handshake->key_cert;
 680:D:/fchai/work/i-cube/I-CUBE-HUAWEI/Middlewares/Third_Party/Huawei/iot_link/network/dtls/mbedtls/mbedtls-2.16.2/include/mbedtls\ssl_internal.h ****     else
 681:D:/fchai/work/i-cube/I-CUBE-HUAWEI/Middlewares/Third_Party/Huawei/iot_link/network/dtls/mbedtls/mbedtls-2.16.2/include/mbedtls\ssl_internal.h ****         key_cert = ssl->conf->key_cert;
 682:D:/fchai/work/i-cube/I-CUBE-HUAWEI/Middlewares/Third_Party/Huawei/iot_link/network/dtls/mbedtls/mbedtls-2.16.2/include/mbedtls\ssl_internal.h **** 
 683:D:/fchai/work/i-cube/I-CUBE-HUAWEI/Middlewares/Third_Party/Huawei/iot_link/network/dtls/mbedtls/mbedtls-2.16.2/include/mbedtls\ssl_internal.h ****     return( key_cert == NULL ? NULL : key_cert->cert );
 684:D:/fchai/work/i-cube/I-CUBE-HUAWEI/Middlewares/Third_Party/Huawei/iot_link/network/dtls/mbedtls/mbedtls-2.16.2/include/mbedtls\ssl_internal.h **** }
 685:D:/fchai/work/i-cube/I-CUBE-HUAWEI/Middlewares/Third_Party/Huawei/iot_link/network/dtls/mbedtls/mbedtls-2.16.2/include/mbedtls\ssl_internal.h **** 
 686:D:/fchai/work/i-cube/I-CUBE-HUAWEI/Middlewares/Third_Party/Huawei/iot_link/network/dtls/mbedtls/mbedtls-2.16.2/include/mbedtls\ssl_internal.h **** /*
 687:D:/fchai/work/i-cube/I-CUBE-HUAWEI/Middlewares/Third_Party/Huawei/iot_link/network/dtls/mbedtls/mbedtls-2.16.2/include/mbedtls\ssl_internal.h ****  * Check usage of a certificate wrt extensions:
 688:D:/fchai/work/i-cube/I-CUBE-HUAWEI/Middlewares/Third_Party/Huawei/iot_link/network/dtls/mbedtls/mbedtls-2.16.2/include/mbedtls\ssl_internal.h ****  * keyUsage, extendedKeyUsage (later), and nSCertType (later).
 689:D:/fchai/work/i-cube/I-CUBE-HUAWEI/Middlewares/Third_Party/Huawei/iot_link/network/dtls/mbedtls/mbedtls-2.16.2/include/mbedtls\ssl_internal.h ****  *
 690:D:/fchai/work/i-cube/I-CUBE-HUAWEI/Middlewares/Third_Party/Huawei/iot_link/network/dtls/mbedtls/mbedtls-2.16.2/include/mbedtls\ssl_internal.h ****  * Warning: cert_endpoint is the endpoint of the cert (ie, of our peer when we
 691:D:/fchai/work/i-cube/I-CUBE-HUAWEI/Middlewares/Third_Party/Huawei/iot_link/network/dtls/mbedtls/mbedtls-2.16.2/include/mbedtls\ssl_internal.h ****  * check a cert we received from them)!
 692:D:/fchai/work/i-cube/I-CUBE-HUAWEI/Middlewares/Third_Party/Huawei/iot_link/network/dtls/mbedtls/mbedtls-2.16.2/include/mbedtls\ssl_internal.h ****  *
 693:D:/fchai/work/i-cube/I-CUBE-HUAWEI/Middlewares/Third_Party/Huawei/iot_link/network/dtls/mbedtls/mbedtls-2.16.2/include/mbedtls\ssl_internal.h ****  * Return 0 if everything is OK, -1 if not.
 694:D:/fchai/work/i-cube/I-CUBE-HUAWEI/Middlewares/Third_Party/Huawei/iot_link/network/dtls/mbedtls/mbedtls-2.16.2/include/mbedtls\ssl_internal.h ****  */
 695:D:/fchai/work/i-cube/I-CUBE-HUAWEI/Middlewares/Third_Party/Huawei/iot_link/network/dtls/mbedtls/mbedtls-2.16.2/include/mbedtls\ssl_internal.h **** int mbedtls_ssl_check_cert_usage( const mbedtls_x509_crt *cert,
 696:D:/fchai/work/i-cube/I-CUBE-HUAWEI/Middlewares/Third_Party/Huawei/iot_link/network/dtls/mbedtls/mbedtls-2.16.2/include/mbedtls\ssl_internal.h ****                           const mbedtls_ssl_ciphersuite_t *ciphersuite,
 697:D:/fchai/work/i-cube/I-CUBE-HUAWEI/Middlewares/Third_Party/Huawei/iot_link/network/dtls/mbedtls/mbedtls-2.16.2/include/mbedtls\ssl_internal.h ****                           int cert_endpoint,
 698:D:/fchai/work/i-cube/I-CUBE-HUAWEI/Middlewares/Third_Party/Huawei/iot_link/network/dtls/mbedtls/mbedtls-2.16.2/include/mbedtls\ssl_internal.h ****                           uint32_t *flags );
 699:D:/fchai/work/i-cube/I-CUBE-HUAWEI/Middlewares/Third_Party/Huawei/iot_link/network/dtls/mbedtls/mbedtls-2.16.2/include/mbedtls\ssl_internal.h **** #endif /* MBEDTLS_X509_CRT_PARSE_C */
 700:D:/fchai/work/i-cube/I-CUBE-HUAWEI/Middlewares/Third_Party/Huawei/iot_link/network/dtls/mbedtls/mbedtls-2.16.2/include/mbedtls\ssl_internal.h **** 
 701:D:/fchai/work/i-cube/I-CUBE-HUAWEI/Middlewares/Third_Party/Huawei/iot_link/network/dtls/mbedtls/mbedtls-2.16.2/include/mbedtls\ssl_internal.h **** void mbedtls_ssl_write_version( int major, int minor, int transport,
 702:D:/fchai/work/i-cube/I-CUBE-HUAWEI/Middlewares/Third_Party/Huawei/iot_link/network/dtls/mbedtls/mbedtls-2.16.2/include/mbedtls\ssl_internal.h ****                         unsigned char ver[2] );
 703:D:/fchai/work/i-cube/I-CUBE-HUAWEI/Middlewares/Third_Party/Huawei/iot_link/network/dtls/mbedtls/mbedtls-2.16.2/include/mbedtls\ssl_internal.h **** void mbedtls_ssl_read_version( int *major, int *minor, int transport,
 704:D:/fchai/work/i-cube/I-CUBE-HUAWEI/Middlewares/Third_Party/Huawei/iot_link/network/dtls/mbedtls/mbedtls-2.16.2/include/mbedtls\ssl_internal.h ****                        const unsigned char ver[2] );
 705:D:/fchai/work/i-cube/I-CUBE-HUAWEI/Middlewares/Third_Party/Huawei/iot_link/network/dtls/mbedtls/mbedtls-2.16.2/include/mbedtls\ssl_internal.h **** 
 706:D:/fchai/work/i-cube/I-CUBE-HUAWEI/Middlewares/Third_Party/Huawei/iot_link/network/dtls/mbedtls/mbedtls-2.16.2/include/mbedtls\ssl_internal.h **** static inline size_t mbedtls_ssl_hdr_len( const mbedtls_ssl_context *ssl )
 707:D:/fchai/work/i-cube/I-CUBE-HUAWEI/Middlewares/Third_Party/Huawei/iot_link/network/dtls/mbedtls/mbedtls-2.16.2/include/mbedtls\ssl_internal.h **** {
 708:D:/fchai/work/i-cube/I-CUBE-HUAWEI/Middlewares/Third_Party/Huawei/iot_link/network/dtls/mbedtls/mbedtls-2.16.2/include/mbedtls\ssl_internal.h **** #if defined(MBEDTLS_SSL_PROTO_DTLS)
 709:D:/fchai/work/i-cube/I-CUBE-HUAWEI/Middlewares/Third_Party/Huawei/iot_link/network/dtls/mbedtls/mbedtls-2.16.2/include/mbedtls\ssl_internal.h ****     if( ssl->conf->transport == MBEDTLS_SSL_TRANSPORT_DATAGRAM )
 710:D:/fchai/work/i-cube/I-CUBE-HUAWEI/Middlewares/Third_Party/Huawei/iot_link/network/dtls/mbedtls/mbedtls-2.16.2/include/mbedtls\ssl_internal.h ****         return( 13 );
 711:D:/fchai/work/i-cube/I-CUBE-HUAWEI/Middlewares/Third_Party/Huawei/iot_link/network/dtls/mbedtls/mbedtls-2.16.2/include/mbedtls\ssl_internal.h **** #else
 712:D:/fchai/work/i-cube/I-CUBE-HUAWEI/Middlewares/Third_Party/Huawei/iot_link/network/dtls/mbedtls/mbedtls-2.16.2/include/mbedtls\ssl_internal.h ****     ((void) ssl);
 713:D:/fchai/work/i-cube/I-CUBE-HUAWEI/Middlewares/Third_Party/Huawei/iot_link/network/dtls/mbedtls/mbedtls-2.16.2/include/mbedtls\ssl_internal.h **** #endif
 714:D:/fchai/work/i-cube/I-CUBE-HUAWEI/Middlewares/Third_Party/Huawei/iot_link/network/dtls/mbedtls/mbedtls-2.16.2/include/mbedtls\ssl_internal.h ****     return( 5 );
 715:D:/fchai/work/i-cube/I-CUBE-HUAWEI/Middlewares/Third_Party/Huawei/iot_link/network/dtls/mbedtls/mbedtls-2.16.2/include/mbedtls\ssl_internal.h **** }
 716:D:/fchai/work/i-cube/I-CUBE-HUAWEI/Middlewares/Third_Party/Huawei/iot_link/network/dtls/mbedtls/mbedtls-2.16.2/include/mbedtls\ssl_internal.h **** 
 717:D:/fchai/work/i-cube/I-CUBE-HUAWEI/Middlewares/Third_Party/Huawei/iot_link/network/dtls/mbedtls/mbedtls-2.16.2/include/mbedtls\ssl_internal.h **** static inline size_t mbedtls_ssl_hs_hdr_len( const mbedtls_ssl_context *ssl )
 718:D:/fchai/work/i-cube/I-CUBE-HUAWEI/Middlewares/Third_Party/Huawei/iot_link/network/dtls/mbedtls/mbedtls-2.16.2/include/mbedtls\ssl_internal.h **** {
 719:D:/fchai/work/i-cube/I-CUBE-HUAWEI/Middlewares/Third_Party/Huawei/iot_link/network/dtls/mbedtls/mbedtls-2.16.2/include/mbedtls\ssl_internal.h **** #if defined(MBEDTLS_SSL_PROTO_DTLS)
 720:D:/fchai/work/i-cube/I-CUBE-HUAWEI/Middlewares/Third_Party/Huawei/iot_link/network/dtls/mbedtls/mbedtls-2.16.2/include/mbedtls\ssl_internal.h ****     if( ssl->conf->transport == MBEDTLS_SSL_TRANSPORT_DATAGRAM )
 721:D:/fchai/work/i-cube/I-CUBE-HUAWEI/Middlewares/Third_Party/Huawei/iot_link/network/dtls/mbedtls/mbedtls-2.16.2/include/mbedtls\ssl_internal.h ****         return( 12 );
 722:D:/fchai/work/i-cube/I-CUBE-HUAWEI/Middlewares/Third_Party/Huawei/iot_link/network/dtls/mbedtls/mbedtls-2.16.2/include/mbedtls\ssl_internal.h **** #else
 723:D:/fchai/work/i-cube/I-CUBE-HUAWEI/Middlewares/Third_Party/Huawei/iot_link/network/dtls/mbedtls/mbedtls-2.16.2/include/mbedtls\ssl_internal.h ****     ((void) ssl);
 724:D:/fchai/work/i-cube/I-CUBE-HUAWEI/Middlewares/Third_Party/Huawei/iot_link/network/dtls/mbedtls/mbedtls-2.16.2/include/mbedtls\ssl_internal.h **** #endif
 725:D:/fchai/work/i-cube/I-CUBE-HUAWEI/Middlewares/Third_Party/Huawei/iot_link/network/dtls/mbedtls/mbedtls-2.16.2/include/mbedtls\ssl_internal.h ****     return( 4 );
ARM GAS  T:\msys\tmp\ccv76qhU.s 			page 29


 726:D:/fchai/work/i-cube/I-CUBE-HUAWEI/Middlewares/Third_Party/Huawei/iot_link/network/dtls/mbedtls/mbedtls-2.16.2/include/mbedtls\ssl_internal.h **** }
 727:D:/fchai/work/i-cube/I-CUBE-HUAWEI/Middlewares/Third_Party/Huawei/iot_link/network/dtls/mbedtls/mbedtls-2.16.2/include/mbedtls\ssl_internal.h **** 
 728:D:/fchai/work/i-cube/I-CUBE-HUAWEI/Middlewares/Third_Party/Huawei/iot_link/network/dtls/mbedtls/mbedtls-2.16.2/include/mbedtls\ssl_internal.h **** #if defined(MBEDTLS_SSL_PROTO_DTLS)
 729:D:/fchai/work/i-cube/I-CUBE-HUAWEI/Middlewares/Third_Party/Huawei/iot_link/network/dtls/mbedtls/mbedtls-2.16.2/include/mbedtls\ssl_internal.h **** void mbedtls_ssl_send_flight_completed( mbedtls_ssl_context *ssl );
 730:D:/fchai/work/i-cube/I-CUBE-HUAWEI/Middlewares/Third_Party/Huawei/iot_link/network/dtls/mbedtls/mbedtls-2.16.2/include/mbedtls\ssl_internal.h **** void mbedtls_ssl_recv_flight_completed( mbedtls_ssl_context *ssl );
 731:D:/fchai/work/i-cube/I-CUBE-HUAWEI/Middlewares/Third_Party/Huawei/iot_link/network/dtls/mbedtls/mbedtls-2.16.2/include/mbedtls\ssl_internal.h **** int mbedtls_ssl_resend( mbedtls_ssl_context *ssl );
 732:D:/fchai/work/i-cube/I-CUBE-HUAWEI/Middlewares/Third_Party/Huawei/iot_link/network/dtls/mbedtls/mbedtls-2.16.2/include/mbedtls\ssl_internal.h **** int mbedtls_ssl_flight_transmit( mbedtls_ssl_context *ssl );
 733:D:/fchai/work/i-cube/I-CUBE-HUAWEI/Middlewares/Third_Party/Huawei/iot_link/network/dtls/mbedtls/mbedtls-2.16.2/include/mbedtls\ssl_internal.h **** #endif
 734:D:/fchai/work/i-cube/I-CUBE-HUAWEI/Middlewares/Third_Party/Huawei/iot_link/network/dtls/mbedtls/mbedtls-2.16.2/include/mbedtls\ssl_internal.h **** 
 735:D:/fchai/work/i-cube/I-CUBE-HUAWEI/Middlewares/Third_Party/Huawei/iot_link/network/dtls/mbedtls/mbedtls-2.16.2/include/mbedtls\ssl_internal.h **** /* Visible for testing purposes only */
 736:D:/fchai/work/i-cube/I-CUBE-HUAWEI/Middlewares/Third_Party/Huawei/iot_link/network/dtls/mbedtls/mbedtls-2.16.2/include/mbedtls\ssl_internal.h **** #if defined(MBEDTLS_SSL_DTLS_ANTI_REPLAY)
 737:D:/fchai/work/i-cube/I-CUBE-HUAWEI/Middlewares/Third_Party/Huawei/iot_link/network/dtls/mbedtls/mbedtls-2.16.2/include/mbedtls\ssl_internal.h **** int mbedtls_ssl_dtls_replay_check( mbedtls_ssl_context *ssl );
 738:D:/fchai/work/i-cube/I-CUBE-HUAWEI/Middlewares/Third_Party/Huawei/iot_link/network/dtls/mbedtls/mbedtls-2.16.2/include/mbedtls\ssl_internal.h **** void mbedtls_ssl_dtls_replay_update( mbedtls_ssl_context *ssl );
 739:D:/fchai/work/i-cube/I-CUBE-HUAWEI/Middlewares/Third_Party/Huawei/iot_link/network/dtls/mbedtls/mbedtls-2.16.2/include/mbedtls\ssl_internal.h **** #endif
 740:D:/fchai/work/i-cube/I-CUBE-HUAWEI/Middlewares/Third_Party/Huawei/iot_link/network/dtls/mbedtls/mbedtls-2.16.2/include/mbedtls\ssl_internal.h **** 
 741:D:/fchai/work/i-cube/I-CUBE-HUAWEI/Middlewares/Third_Party/Huawei/iot_link/network/dtls/mbedtls/mbedtls-2.16.2/include/mbedtls\ssl_internal.h **** /* constant-time buffer comparison */
 742:D:/fchai/work/i-cube/I-CUBE-HUAWEI/Middlewares/Third_Party/Huawei/iot_link/network/dtls/mbedtls/mbedtls-2.16.2/include/mbedtls\ssl_internal.h **** static inline int mbedtls_ssl_safer_memcmp( const void *a, const void *b, size_t n )
 580              		.loc 2 742 19 view .LVU144
 581              	.LBB6:
 743:D:/fchai/work/i-cube/I-CUBE-HUAWEI/Middlewares/Third_Party/Huawei/iot_link/network/dtls/mbedtls/mbedtls-2.16.2/include/mbedtls\ssl_internal.h **** {
 744:D:/fchai/work/i-cube/I-CUBE-HUAWEI/Middlewares/Third_Party/Huawei/iot_link/network/dtls/mbedtls/mbedtls-2.16.2/include/mbedtls\ssl_internal.h ****     size_t i;
 582              		.loc 2 744 5 view .LVU145
 745:D:/fchai/work/i-cube/I-CUBE-HUAWEI/Middlewares/Third_Party/Huawei/iot_link/network/dtls/mbedtls/mbedtls-2.16.2/include/mbedtls\ssl_internal.h ****     volatile const unsigned char *A = (volatile const unsigned char *) a;
 583              		.loc 2 745 5 view .LVU146
 746:D:/fchai/work/i-cube/I-CUBE-HUAWEI/Middlewares/Third_Party/Huawei/iot_link/network/dtls/mbedtls/mbedtls-2.16.2/include/mbedtls\ssl_internal.h ****     volatile const unsigned char *B = (volatile const unsigned char *) b;
 584              		.loc 2 746 5 view .LVU147
 747:D:/fchai/work/i-cube/I-CUBE-HUAWEI/Middlewares/Third_Party/Huawei/iot_link/network/dtls/mbedtls/mbedtls-2.16.2/include/mbedtls\ssl_internal.h ****     volatile unsigned char diff = 0;
 585              		.loc 2 747 5 view .LVU148
 586              		.loc 2 747 28 is_stmt 0 view .LVU149
 587 0024 8DF80F00 		strb	r0, [sp, #15]
 748:D:/fchai/work/i-cube/I-CUBE-HUAWEI/Middlewares/Third_Party/Huawei/iot_link/network/dtls/mbedtls/mbedtls-2.16.2/include/mbedtls\ssl_internal.h **** 
 749:D:/fchai/work/i-cube/I-CUBE-HUAWEI/Middlewares/Third_Party/Huawei/iot_link/network/dtls/mbedtls/mbedtls-2.16.2/include/mbedtls\ssl_internal.h ****     for( i = 0; i < n; i++ )
 588              		.loc 2 749 5 is_stmt 1 view .LVU150
 589              	.LVL52:
 590              		.loc 2 749 17 view .LVU151
 591 0028 311D     		adds	r1, r6, #4
 592              	.LVL53:
 593              		.loc 2 749 17 is_stmt 0 view .LVU152
 594 002a 0DF1300C 		add	ip, sp, #48
 595              	.LVL54:
 596              	.L34:
 597              	.LBB7:
 750:D:/fchai/work/i-cube/I-CUBE-HUAWEI/Middlewares/Third_Party/Huawei/iot_link/network/dtls/mbedtls/mbedtls-2.16.2/include/mbedtls\ssl_internal.h ****     {
 751:D:/fchai/work/i-cube/I-CUBE-HUAWEI/Middlewares/Third_Party/Huawei/iot_link/network/dtls/mbedtls/mbedtls-2.16.2/include/mbedtls\ssl_internal.h ****         /* Read volatile data in order before computing diff.
 752:D:/fchai/work/i-cube/I-CUBE-HUAWEI/Middlewares/Third_Party/Huawei/iot_link/network/dtls/mbedtls/mbedtls-2.16.2/include/mbedtls\ssl_internal.h ****          * This avoids IAR compiler warning:
 753:D:/fchai/work/i-cube/I-CUBE-HUAWEI/Middlewares/Third_Party/Huawei/iot_link/network/dtls/mbedtls/mbedtls-2.16.2/include/mbedtls\ssl_internal.h ****          * 'the order of volatile accesses is undefined ..' */
 754:D:/fchai/work/i-cube/I-CUBE-HUAWEI/Middlewares/Third_Party/Huawei/iot_link/network/dtls/mbedtls/mbedtls-2.16.2/include/mbedtls\ssl_internal.h ****         unsigned char x = A[i], y = B[i];
 598              		.loc 2 754 9 is_stmt 1 view .LVU153
 599              		.loc 2 754 23 is_stmt 0 view .LVU154
 600 002e 11F8012B 		ldrb	r2, [r1], #1	@ zero_extendqisi2
 601              	.LVL55:
 602              		.loc 2 754 33 view .LVU155
 603 0032 14F8017B 		ldrb	r7, [r4], #1	@ zero_extendqisi2
 604              	.LVL56:
 755:D:/fchai/work/i-cube/I-CUBE-HUAWEI/Middlewares/Third_Party/Huawei/iot_link/network/dtls/mbedtls/mbedtls-2.16.2/include/mbedtls\ssl_internal.h ****         diff |= x ^ y;
 605              		.loc 2 755 9 is_stmt 1 view .LVU156
 606              		.loc 2 755 14 is_stmt 0 view .LVU157
ARM GAS  T:\msys\tmp\ccv76qhU.s 			page 30


 607 0036 9DF80F30 		ldrb	r3, [sp, #15]	@ zero_extendqisi2
 608 003a 7A40     		eors	r2, r2, r7
 609              	.LVL57:
 610              		.loc 2 755 14 view .LVU158
 611 003c 1343     		orrs	r3, r3, r2
 612              	.LBE7:
 749:D:/fchai/work/i-cube/I-CUBE-HUAWEI/Middlewares/Third_Party/Huawei/iot_link/network/dtls/mbedtls/mbedtls-2.16.2/include/mbedtls\ssl_internal.h ****     {
 613              		.loc 2 749 5 view .LVU159
 614 003e 6445     		cmp	r4, ip
 615              	.LBB8:
 616              		.loc 2 755 14 view .LVU160
 617 0040 8DF80F30 		strb	r3, [sp, #15]
 618              	.LBE8:
 749:D:/fchai/work/i-cube/I-CUBE-HUAWEI/Middlewares/Third_Party/Huawei/iot_link/network/dtls/mbedtls/mbedtls-2.16.2/include/mbedtls\ssl_internal.h ****     {
 619              		.loc 2 749 24 is_stmt 1 view .LVU161
 749:D:/fchai/work/i-cube/I-CUBE-HUAWEI/Middlewares/Third_Party/Huawei/iot_link/network/dtls/mbedtls/mbedtls-2.16.2/include/mbedtls\ssl_internal.h ****     {
 620              		.loc 2 749 17 view .LVU162
 749:D:/fchai/work/i-cube/I-CUBE-HUAWEI/Middlewares/Third_Party/Huawei/iot_link/network/dtls/mbedtls/mbedtls-2.16.2/include/mbedtls\ssl_internal.h ****     {
 621              		.loc 2 749 5 is_stmt 0 view .LVU163
 622 0044 F3D1     		bne	.L34
 756:D:/fchai/work/i-cube/I-CUBE-HUAWEI/Middlewares/Third_Party/Huawei/iot_link/network/dtls/mbedtls/mbedtls-2.16.2/include/mbedtls\ssl_internal.h ****     }
 757:D:/fchai/work/i-cube/I-CUBE-HUAWEI/Middlewares/Third_Party/Huawei/iot_link/network/dtls/mbedtls/mbedtls-2.16.2/include/mbedtls\ssl_internal.h **** 
 758:D:/fchai/work/i-cube/I-CUBE-HUAWEI/Middlewares/Third_Party/Huawei/iot_link/network/dtls/mbedtls/mbedtls-2.16.2/include/mbedtls\ssl_internal.h ****     return( diff );
 623              		.loc 2 758 5 is_stmt 1 view .LVU164
 624              	.LVL58:
 625              		.loc 2 758 11 is_stmt 0 view .LVU165
 626 0046 9DF80F30 		ldrb	r3, [sp, #15]	@ zero_extendqisi2
 627              	.LBE6:
 628              	.LBE5:
 629              		.loc 1 237 7 view .LVU166
 630 004a 63B9     		cbnz	r3, .L33
 238:D:/fchai/work/i-cube/I-CUBE-HUAWEI/Middlewares/Third_Party/Huawei/iot_link/network/dtls/mbedtls/mbedtls-2.16.2/library\ssl_cookie.c ****         return( -1 );
 239:D:/fchai/work/i-cube/I-CUBE-HUAWEI/Middlewares/Third_Party/Huawei/iot_link/network/dtls/mbedtls/mbedtls-2.16.2/library\ssl_cookie.c **** 
 240:D:/fchai/work/i-cube/I-CUBE-HUAWEI/Middlewares/Third_Party/Huawei/iot_link/network/dtls/mbedtls/mbedtls-2.16.2/library\ssl_cookie.c **** #if defined(MBEDTLS_HAVE_TIME)
 241:D:/fchai/work/i-cube/I-CUBE-HUAWEI/Middlewares/Third_Party/Huawei/iot_link/network/dtls/mbedtls/mbedtls-2.16.2/library\ssl_cookie.c ****     cur_time = (unsigned long) mbedtls_time( NULL );
 242:D:/fchai/work/i-cube/I-CUBE-HUAWEI/Middlewares/Third_Party/Huawei/iot_link/network/dtls/mbedtls/mbedtls-2.16.2/library\ssl_cookie.c **** #else
 243:D:/fchai/work/i-cube/I-CUBE-HUAWEI/Middlewares/Third_Party/Huawei/iot_link/network/dtls/mbedtls/mbedtls-2.16.2/library\ssl_cookie.c ****     cur_time = ctx->serial;
 631              		.loc 1 243 5 is_stmt 1 view .LVU167
 632              	.LVL59:
 244:D:/fchai/work/i-cube/I-CUBE-HUAWEI/Middlewares/Third_Party/Huawei/iot_link/network/dtls/mbedtls/mbedtls-2.16.2/library\ssl_cookie.c **** #endif
 245:D:/fchai/work/i-cube/I-CUBE-HUAWEI/Middlewares/Third_Party/Huawei/iot_link/network/dtls/mbedtls/mbedtls-2.16.2/library\ssl_cookie.c **** 
 246:D:/fchai/work/i-cube/I-CUBE-HUAWEI/Middlewares/Third_Party/Huawei/iot_link/network/dtls/mbedtls/mbedtls-2.16.2/library\ssl_cookie.c ****     cookie_time = ( (unsigned long) cookie[0] << 24 ) |
 633              		.loc 1 246 5 view .LVU168
 247:D:/fchai/work/i-cube/I-CUBE-HUAWEI/Middlewares/Third_Party/Huawei/iot_link/network/dtls/mbedtls/mbedtls-2.16.2/library\ssl_cookie.c ****                   ( (unsigned long) cookie[1] << 16 ) |
 248:D:/fchai/work/i-cube/I-CUBE-HUAWEI/Middlewares/Third_Party/Huawei/iot_link/network/dtls/mbedtls/mbedtls-2.16.2/library\ssl_cookie.c ****                   ( (unsigned long) cookie[2] <<  8 ) |
 249:D:/fchai/work/i-cube/I-CUBE-HUAWEI/Middlewares/Third_Party/Huawei/iot_link/network/dtls/mbedtls/mbedtls-2.16.2/library\ssl_cookie.c ****                   ( (unsigned long) cookie[3]       );
 250:D:/fchai/work/i-cube/I-CUBE-HUAWEI/Middlewares/Third_Party/Huawei/iot_link/network/dtls/mbedtls/mbedtls-2.16.2/library\ssl_cookie.c **** 
 251:D:/fchai/work/i-cube/I-CUBE-HUAWEI/Middlewares/Third_Party/Huawei/iot_link/network/dtls/mbedtls/mbedtls-2.16.2/library\ssl_cookie.c ****     if( ctx->timeout != 0 && cur_time - cookie_time > ctx->timeout )
 634              		.loc 1 251 5 view .LVU169
 635              		.loc 1 251 12 is_stmt 0 view .LVU170
 636 004c 2B69     		ldr	r3, [r5, #16]
 637              		.loc 1 251 7 view .LVU171
 638 004e 43B1     		cbz	r3, .L30
 639 0050 3268     		ldr	r2, [r6]	@ unaligned
 640              		.loc 1 251 39 discriminator 1 view .LVU172
 641 0052 E868     		ldr	r0, [r5, #12]
 642 0054 12BA     		rev	r2, r2
ARM GAS  T:\msys\tmp\ccv76qhU.s 			page 31


 643 0056 801A     		subs	r0, r0, r2
 644              		.loc 1 251 27 discriminator 1 view .LVU173
 645 0058 8342     		cmp	r3, r0
 646 005a 4FF0FF30 		mov	r0, #-1
 647 005e 28BF     		it	cs
 648 0060 0020     		movcs	r0, #0
 649              	.LVL60:
 650              	.L30:
 252:D:/fchai/work/i-cube/I-CUBE-HUAWEI/Middlewares/Third_Party/Huawei/iot_link/network/dtls/mbedtls/mbedtls-2.16.2/library\ssl_cookie.c ****         return( -1 );
 253:D:/fchai/work/i-cube/I-CUBE-HUAWEI/Middlewares/Third_Party/Huawei/iot_link/network/dtls/mbedtls/mbedtls-2.16.2/library\ssl_cookie.c **** 
 254:D:/fchai/work/i-cube/I-CUBE-HUAWEI/Middlewares/Third_Party/Huawei/iot_link/network/dtls/mbedtls/mbedtls-2.16.2/library\ssl_cookie.c ****     return( 0 );
 255:D:/fchai/work/i-cube/I-CUBE-HUAWEI/Middlewares/Third_Party/Huawei/iot_link/network/dtls/mbedtls/mbedtls-2.16.2/library\ssl_cookie.c **** }
 651              		.loc 1 255 1 view .LVU174
 652 0062 0DB0     		add	sp, sp, #52
 653              	.LCFI19:
 654              		.cfi_remember_state
 655              		.cfi_def_cfa_offset 20
 656              		@ sp needed
 657 0064 F0BD     		pop	{r4, r5, r6, r7, pc}
 658              	.LVL61:
 659              	.L33:
 660              	.LCFI20:
 661              		.cfi_restore_state
 216:D:/fchai/work/i-cube/I-CUBE-HUAWEI/Middlewares/Third_Party/Huawei/iot_link/network/dtls/mbedtls/mbedtls-2.16.2/library\ssl_cookie.c **** 
 662              		.loc 1 216 15 view .LVU175
 663 0066 4FF0FF30 		mov	r0, #-1
 664 006a FAE7     		b	.L30
 665              	.LVL62:
 666              	.L36:
 213:D:/fchai/work/i-cube/I-CUBE-HUAWEI/Middlewares/Third_Party/Huawei/iot_link/network/dtls/mbedtls/mbedtls-2.16.2/library\ssl_cookie.c **** 
 667              		.loc 1 213 15 view .LVU176
 668 006c 0048     		ldr	r0, .L42
 669              	.LVL63:
 213:D:/fchai/work/i-cube/I-CUBE-HUAWEI/Middlewares/Third_Party/Huawei/iot_link/network/dtls/mbedtls/mbedtls-2.16.2/library\ssl_cookie.c **** 
 670              		.loc 1 213 15 view .LVU177
 671 006e F8E7     		b	.L30
 672              	.L43:
 673              		.align	2
 674              	.L42:
 675 0070 008FFFFF 		.word	-28928
 676              		.cfi_endproc
 677              	.LFE30:
 679              		.text
 680              	.Letext0:
 681              		.file 3 "t:\\msys\\3rd\\gcc-arm-none-eabi-9-2020-q2-update-win32\\arm-none-eabi\\include\\machine\
 682              		.file 4 "t:\\msys\\3rd\\gcc-arm-none-eabi-9-2020-q2-update-win32\\lib\\gcc\\arm-none-eabi\\9.3.1\\
 683              		.file 5 "t:\\msys\\3rd\\gcc-arm-none-eabi-9-2020-q2-update-win32\\arm-none-eabi\\include\\sys\\_ty
 684              		.file 6 "t:\\msys\\3rd\\gcc-arm-none-eabi-9-2020-q2-update-win32\\arm-none-eabi\\include\\sys\\ree
 685              		.file 7 "t:\\msys\\3rd\\gcc-arm-none-eabi-9-2020-q2-update-win32\\arm-none-eabi\\include\\sys\\loc
 686              		.file 8 "t:\\msys\\3rd\\gcc-arm-none-eabi-9-2020-q2-update-win32\\arm-none-eabi\\include\\sys\\_st
 687              		.file 9 "t:\\msys\\3rd\\gcc-arm-none-eabi-9-2020-q2-update-win32\\arm-none-eabi\\include\\stdlib.h
 688              		.file 10 "t:\\msys\\3rd\\gcc-arm-none-eabi-9-2020-q2-update-win32\\arm-none-eabi\\include\\time.h"
 689              		.file 11 "D:/fchai/work/i-cube/I-CUBE-HUAWEI/Middlewares/Third_Party/Huawei/iot_link/network/dtls/
 690              		.file 12 "D:/fchai/work/i-cube/I-CUBE-HUAWEI/Middlewares/Third_Party/Huawei/iot_link/network/dtls/
 691              		.file 13 "D:/fchai/work/i-cube/I-CUBE-HUAWEI/Middlewares/Third_Party/Huawei/iot_link/network/dtls/
 692              		.file 14 "D:/fchai/work/i-cube/I-CUBE-HUAWEI/Middlewares/Third_Party/Huawei/iot_link/network/dtls/
 693              		.file 15 "D:/fchai/work/i-cube/I-CUBE-HUAWEI/Middlewares/Third_Party/Huawei/iot_link/network/dtls/
ARM GAS  T:\msys\tmp\ccv76qhU.s 			page 32


ARM GAS  T:\msys\tmp\ccv76qhU.s 			page 33

