ARM GAS  T:\msys\tmp\ccGq53OE.s 			page 1


   1              		.cpu cortex-m4
   2              		.eabi_attribute 27, 1
   3              		.eabi_attribute 28, 1
   4              		.eabi_attribute 20, 1
   5              		.eabi_attribute 21, 1
   6              		.eabi_attribute 23, 3
   7              		.eabi_attribute 24, 1
   8              		.eabi_attribute 25, 1
   9              		.eabi_attribute 26, 1
  10              		.eabi_attribute 30, 2
  11              		.eabi_attribute 34, 1
  12              		.eabi_attribute 18, 4
  13              		.file	"x509_crl.c"
  14              		.text
  15              	.Ltext0:
  16              		.cfi_sections	.debug_frame
  17              		.section	.text.mbedtls_x509_crl_free.part.0,"ax",%progbits
  18              		.align	1
  19              		.p2align 2,,3
  20              		.arch armv7e-m
  21              		.syntax unified
  22              		.thumb
  23              		.thumb_func
  24              		.fpu fpv4-sp-d16
  26              	mbedtls_x509_crl_free.part.0:
  27              	.LVL0:
  28              	.LFB22:
  29              		.file 1 "D:/fchai/work/i-cube/I-CUBE-HUAWEI/Middlewares/Third_Party/Huawei/iot_link/network/dtls/m
   1:D:/fchai/work/i-cube/I-CUBE-HUAWEI/Middlewares/Third_Party/Huawei/iot_link/network/dtls/mbedtls/mbedtls-2.16.2/library\x509_crl.c **** /*
   2:D:/fchai/work/i-cube/I-CUBE-HUAWEI/Middlewares/Third_Party/Huawei/iot_link/network/dtls/mbedtls/mbedtls-2.16.2/library\x509_crl.c ****  *  X.509 Certidicate Revocation List (CRL) parsing
   3:D:/fchai/work/i-cube/I-CUBE-HUAWEI/Middlewares/Third_Party/Huawei/iot_link/network/dtls/mbedtls/mbedtls-2.16.2/library\x509_crl.c ****  *
   4:D:/fchai/work/i-cube/I-CUBE-HUAWEI/Middlewares/Third_Party/Huawei/iot_link/network/dtls/mbedtls/mbedtls-2.16.2/library\x509_crl.c ****  *  Copyright (C) 2006-2015, ARM Limited, All Rights Reserved
   5:D:/fchai/work/i-cube/I-CUBE-HUAWEI/Middlewares/Third_Party/Huawei/iot_link/network/dtls/mbedtls/mbedtls-2.16.2/library\x509_crl.c ****  *  SPDX-License-Identifier: Apache-2.0
   6:D:/fchai/work/i-cube/I-CUBE-HUAWEI/Middlewares/Third_Party/Huawei/iot_link/network/dtls/mbedtls/mbedtls-2.16.2/library\x509_crl.c ****  *
   7:D:/fchai/work/i-cube/I-CUBE-HUAWEI/Middlewares/Third_Party/Huawei/iot_link/network/dtls/mbedtls/mbedtls-2.16.2/library\x509_crl.c ****  *  Licensed under the Apache License, Version 2.0 (the "License"); you may
   8:D:/fchai/work/i-cube/I-CUBE-HUAWEI/Middlewares/Third_Party/Huawei/iot_link/network/dtls/mbedtls/mbedtls-2.16.2/library\x509_crl.c ****  *  not use this file except in compliance with the License.
   9:D:/fchai/work/i-cube/I-CUBE-HUAWEI/Middlewares/Third_Party/Huawei/iot_link/network/dtls/mbedtls/mbedtls-2.16.2/library\x509_crl.c ****  *  You may obtain a copy of the License at
  10:D:/fchai/work/i-cube/I-CUBE-HUAWEI/Middlewares/Third_Party/Huawei/iot_link/network/dtls/mbedtls/mbedtls-2.16.2/library\x509_crl.c ****  *
  11:D:/fchai/work/i-cube/I-CUBE-HUAWEI/Middlewares/Third_Party/Huawei/iot_link/network/dtls/mbedtls/mbedtls-2.16.2/library\x509_crl.c ****  *  http://www.apache.org/licenses/LICENSE-2.0
  12:D:/fchai/work/i-cube/I-CUBE-HUAWEI/Middlewares/Third_Party/Huawei/iot_link/network/dtls/mbedtls/mbedtls-2.16.2/library\x509_crl.c ****  *
  13:D:/fchai/work/i-cube/I-CUBE-HUAWEI/Middlewares/Third_Party/Huawei/iot_link/network/dtls/mbedtls/mbedtls-2.16.2/library\x509_crl.c ****  *  Unless required by applicable law or agreed to in writing, software
  14:D:/fchai/work/i-cube/I-CUBE-HUAWEI/Middlewares/Third_Party/Huawei/iot_link/network/dtls/mbedtls/mbedtls-2.16.2/library\x509_crl.c ****  *  distributed under the License is distributed on an "AS IS" BASIS, WITHOUT
  15:D:/fchai/work/i-cube/I-CUBE-HUAWEI/Middlewares/Third_Party/Huawei/iot_link/network/dtls/mbedtls/mbedtls-2.16.2/library\x509_crl.c ****  *  WARRANTIES OR CONDITIONS OF ANY KIND, either express or implied.
  16:D:/fchai/work/i-cube/I-CUBE-HUAWEI/Middlewares/Third_Party/Huawei/iot_link/network/dtls/mbedtls/mbedtls-2.16.2/library\x509_crl.c ****  *  See the License for the specific language governing permissions and
  17:D:/fchai/work/i-cube/I-CUBE-HUAWEI/Middlewares/Third_Party/Huawei/iot_link/network/dtls/mbedtls/mbedtls-2.16.2/library\x509_crl.c ****  *  limitations under the License.
  18:D:/fchai/work/i-cube/I-CUBE-HUAWEI/Middlewares/Third_Party/Huawei/iot_link/network/dtls/mbedtls/mbedtls-2.16.2/library\x509_crl.c ****  *
  19:D:/fchai/work/i-cube/I-CUBE-HUAWEI/Middlewares/Third_Party/Huawei/iot_link/network/dtls/mbedtls/mbedtls-2.16.2/library\x509_crl.c ****  *  This file is part of mbed TLS (https://tls.mbed.org)
  20:D:/fchai/work/i-cube/I-CUBE-HUAWEI/Middlewares/Third_Party/Huawei/iot_link/network/dtls/mbedtls/mbedtls-2.16.2/library\x509_crl.c ****  */
  21:D:/fchai/work/i-cube/I-CUBE-HUAWEI/Middlewares/Third_Party/Huawei/iot_link/network/dtls/mbedtls/mbedtls-2.16.2/library\x509_crl.c **** /*
  22:D:/fchai/work/i-cube/I-CUBE-HUAWEI/Middlewares/Third_Party/Huawei/iot_link/network/dtls/mbedtls/mbedtls-2.16.2/library\x509_crl.c ****  *  The ITU-T X.509 standard defines a certificate format for PKI.
  23:D:/fchai/work/i-cube/I-CUBE-HUAWEI/Middlewares/Third_Party/Huawei/iot_link/network/dtls/mbedtls/mbedtls-2.16.2/library\x509_crl.c ****  *
  24:D:/fchai/work/i-cube/I-CUBE-HUAWEI/Middlewares/Third_Party/Huawei/iot_link/network/dtls/mbedtls/mbedtls-2.16.2/library\x509_crl.c ****  *  http://www.ietf.org/rfc/rfc5280.txt (Certificates and CRLs)
  25:D:/fchai/work/i-cube/I-CUBE-HUAWEI/Middlewares/Third_Party/Huawei/iot_link/network/dtls/mbedtls/mbedtls-2.16.2/library\x509_crl.c ****  *  http://www.ietf.org/rfc/rfc3279.txt (Alg IDs for CRLs)
  26:D:/fchai/work/i-cube/I-CUBE-HUAWEI/Middlewares/Third_Party/Huawei/iot_link/network/dtls/mbedtls/mbedtls-2.16.2/library\x509_crl.c ****  *  http://www.ietf.org/rfc/rfc2986.txt (CSRs, aka PKCS#10)
  27:D:/fchai/work/i-cube/I-CUBE-HUAWEI/Middlewares/Third_Party/Huawei/iot_link/network/dtls/mbedtls/mbedtls-2.16.2/library\x509_crl.c ****  *
  28:D:/fchai/work/i-cube/I-CUBE-HUAWEI/Middlewares/Third_Party/Huawei/iot_link/network/dtls/mbedtls/mbedtls-2.16.2/library\x509_crl.c ****  *  http://www.itu.int/ITU-T/studygroups/com17/languages/X.680-0207.pdf
  29:D:/fchai/work/i-cube/I-CUBE-HUAWEI/Middlewares/Third_Party/Huawei/iot_link/network/dtls/mbedtls/mbedtls-2.16.2/library\x509_crl.c ****  *  http://www.itu.int/ITU-T/studygroups/com17/languages/X.690-0207.pdf
ARM GAS  T:\msys\tmp\ccGq53OE.s 			page 2


  30:D:/fchai/work/i-cube/I-CUBE-HUAWEI/Middlewares/Third_Party/Huawei/iot_link/network/dtls/mbedtls/mbedtls-2.16.2/library\x509_crl.c ****  */
  31:D:/fchai/work/i-cube/I-CUBE-HUAWEI/Middlewares/Third_Party/Huawei/iot_link/network/dtls/mbedtls/mbedtls-2.16.2/library\x509_crl.c **** 
  32:D:/fchai/work/i-cube/I-CUBE-HUAWEI/Middlewares/Third_Party/Huawei/iot_link/network/dtls/mbedtls/mbedtls-2.16.2/library\x509_crl.c **** #if !defined(MBEDTLS_CONFIG_FILE)
  33:D:/fchai/work/i-cube/I-CUBE-HUAWEI/Middlewares/Third_Party/Huawei/iot_link/network/dtls/mbedtls/mbedtls-2.16.2/library\x509_crl.c **** #include "mbedtls/config.h"
  34:D:/fchai/work/i-cube/I-CUBE-HUAWEI/Middlewares/Third_Party/Huawei/iot_link/network/dtls/mbedtls/mbedtls-2.16.2/library\x509_crl.c **** #else
  35:D:/fchai/work/i-cube/I-CUBE-HUAWEI/Middlewares/Third_Party/Huawei/iot_link/network/dtls/mbedtls/mbedtls-2.16.2/library\x509_crl.c **** #include MBEDTLS_CONFIG_FILE
  36:D:/fchai/work/i-cube/I-CUBE-HUAWEI/Middlewares/Third_Party/Huawei/iot_link/network/dtls/mbedtls/mbedtls-2.16.2/library\x509_crl.c **** #endif
  37:D:/fchai/work/i-cube/I-CUBE-HUAWEI/Middlewares/Third_Party/Huawei/iot_link/network/dtls/mbedtls/mbedtls-2.16.2/library\x509_crl.c **** 
  38:D:/fchai/work/i-cube/I-CUBE-HUAWEI/Middlewares/Third_Party/Huawei/iot_link/network/dtls/mbedtls/mbedtls-2.16.2/library\x509_crl.c **** #if defined(MBEDTLS_X509_CRL_PARSE_C)
  39:D:/fchai/work/i-cube/I-CUBE-HUAWEI/Middlewares/Third_Party/Huawei/iot_link/network/dtls/mbedtls/mbedtls-2.16.2/library\x509_crl.c **** 
  40:D:/fchai/work/i-cube/I-CUBE-HUAWEI/Middlewares/Third_Party/Huawei/iot_link/network/dtls/mbedtls/mbedtls-2.16.2/library\x509_crl.c **** #include "mbedtls/x509_crl.h"
  41:D:/fchai/work/i-cube/I-CUBE-HUAWEI/Middlewares/Third_Party/Huawei/iot_link/network/dtls/mbedtls/mbedtls-2.16.2/library\x509_crl.c **** #include "mbedtls/oid.h"
  42:D:/fchai/work/i-cube/I-CUBE-HUAWEI/Middlewares/Third_Party/Huawei/iot_link/network/dtls/mbedtls/mbedtls-2.16.2/library\x509_crl.c **** #include "mbedtls/platform_util.h"
  43:D:/fchai/work/i-cube/I-CUBE-HUAWEI/Middlewares/Third_Party/Huawei/iot_link/network/dtls/mbedtls/mbedtls-2.16.2/library\x509_crl.c **** 
  44:D:/fchai/work/i-cube/I-CUBE-HUAWEI/Middlewares/Third_Party/Huawei/iot_link/network/dtls/mbedtls/mbedtls-2.16.2/library\x509_crl.c **** #include <string.h>
  45:D:/fchai/work/i-cube/I-CUBE-HUAWEI/Middlewares/Third_Party/Huawei/iot_link/network/dtls/mbedtls/mbedtls-2.16.2/library\x509_crl.c **** 
  46:D:/fchai/work/i-cube/I-CUBE-HUAWEI/Middlewares/Third_Party/Huawei/iot_link/network/dtls/mbedtls/mbedtls-2.16.2/library\x509_crl.c **** #if defined(MBEDTLS_PEM_PARSE_C)
  47:D:/fchai/work/i-cube/I-CUBE-HUAWEI/Middlewares/Third_Party/Huawei/iot_link/network/dtls/mbedtls/mbedtls-2.16.2/library\x509_crl.c **** #include "mbedtls/pem.h"
  48:D:/fchai/work/i-cube/I-CUBE-HUAWEI/Middlewares/Third_Party/Huawei/iot_link/network/dtls/mbedtls/mbedtls-2.16.2/library\x509_crl.c **** #endif
  49:D:/fchai/work/i-cube/I-CUBE-HUAWEI/Middlewares/Third_Party/Huawei/iot_link/network/dtls/mbedtls/mbedtls-2.16.2/library\x509_crl.c **** 
  50:D:/fchai/work/i-cube/I-CUBE-HUAWEI/Middlewares/Third_Party/Huawei/iot_link/network/dtls/mbedtls/mbedtls-2.16.2/library\x509_crl.c **** #if defined(MBEDTLS_PLATFORM_C)
  51:D:/fchai/work/i-cube/I-CUBE-HUAWEI/Middlewares/Third_Party/Huawei/iot_link/network/dtls/mbedtls/mbedtls-2.16.2/library\x509_crl.c **** #include "mbedtls/platform.h"
  52:D:/fchai/work/i-cube/I-CUBE-HUAWEI/Middlewares/Third_Party/Huawei/iot_link/network/dtls/mbedtls/mbedtls-2.16.2/library\x509_crl.c **** #else
  53:D:/fchai/work/i-cube/I-CUBE-HUAWEI/Middlewares/Third_Party/Huawei/iot_link/network/dtls/mbedtls/mbedtls-2.16.2/library\x509_crl.c **** #include <stdlib.h>
  54:D:/fchai/work/i-cube/I-CUBE-HUAWEI/Middlewares/Third_Party/Huawei/iot_link/network/dtls/mbedtls/mbedtls-2.16.2/library\x509_crl.c **** #include <stdio.h>
  55:D:/fchai/work/i-cube/I-CUBE-HUAWEI/Middlewares/Third_Party/Huawei/iot_link/network/dtls/mbedtls/mbedtls-2.16.2/library\x509_crl.c **** #define mbedtls_free       free
  56:D:/fchai/work/i-cube/I-CUBE-HUAWEI/Middlewares/Third_Party/Huawei/iot_link/network/dtls/mbedtls/mbedtls-2.16.2/library\x509_crl.c **** #define mbedtls_calloc    calloc
  57:D:/fchai/work/i-cube/I-CUBE-HUAWEI/Middlewares/Third_Party/Huawei/iot_link/network/dtls/mbedtls/mbedtls-2.16.2/library\x509_crl.c **** #define mbedtls_snprintf   snprintf
  58:D:/fchai/work/i-cube/I-CUBE-HUAWEI/Middlewares/Third_Party/Huawei/iot_link/network/dtls/mbedtls/mbedtls-2.16.2/library\x509_crl.c **** #endif
  59:D:/fchai/work/i-cube/I-CUBE-HUAWEI/Middlewares/Third_Party/Huawei/iot_link/network/dtls/mbedtls/mbedtls-2.16.2/library\x509_crl.c **** 
  60:D:/fchai/work/i-cube/I-CUBE-HUAWEI/Middlewares/Third_Party/Huawei/iot_link/network/dtls/mbedtls/mbedtls-2.16.2/library\x509_crl.c **** #if defined(_WIN32) && !defined(EFIX64) && !defined(EFI32)
  61:D:/fchai/work/i-cube/I-CUBE-HUAWEI/Middlewares/Third_Party/Huawei/iot_link/network/dtls/mbedtls/mbedtls-2.16.2/library\x509_crl.c **** #include <windows.h>
  62:D:/fchai/work/i-cube/I-CUBE-HUAWEI/Middlewares/Third_Party/Huawei/iot_link/network/dtls/mbedtls/mbedtls-2.16.2/library\x509_crl.c **** #else
  63:D:/fchai/work/i-cube/I-CUBE-HUAWEI/Middlewares/Third_Party/Huawei/iot_link/network/dtls/mbedtls/mbedtls-2.16.2/library\x509_crl.c **** #include <time.h>
  64:D:/fchai/work/i-cube/I-CUBE-HUAWEI/Middlewares/Third_Party/Huawei/iot_link/network/dtls/mbedtls/mbedtls-2.16.2/library\x509_crl.c **** #endif
  65:D:/fchai/work/i-cube/I-CUBE-HUAWEI/Middlewares/Third_Party/Huawei/iot_link/network/dtls/mbedtls/mbedtls-2.16.2/library\x509_crl.c **** 
  66:D:/fchai/work/i-cube/I-CUBE-HUAWEI/Middlewares/Third_Party/Huawei/iot_link/network/dtls/mbedtls/mbedtls-2.16.2/library\x509_crl.c **** #if defined(MBEDTLS_FS_IO) || defined(EFIX64) || defined(EFI32)
  67:D:/fchai/work/i-cube/I-CUBE-HUAWEI/Middlewares/Third_Party/Huawei/iot_link/network/dtls/mbedtls/mbedtls-2.16.2/library\x509_crl.c **** #include <stdio.h>
  68:D:/fchai/work/i-cube/I-CUBE-HUAWEI/Middlewares/Third_Party/Huawei/iot_link/network/dtls/mbedtls/mbedtls-2.16.2/library\x509_crl.c **** #endif
  69:D:/fchai/work/i-cube/I-CUBE-HUAWEI/Middlewares/Third_Party/Huawei/iot_link/network/dtls/mbedtls/mbedtls-2.16.2/library\x509_crl.c **** 
  70:D:/fchai/work/i-cube/I-CUBE-HUAWEI/Middlewares/Third_Party/Huawei/iot_link/network/dtls/mbedtls/mbedtls-2.16.2/library\x509_crl.c **** /*
  71:D:/fchai/work/i-cube/I-CUBE-HUAWEI/Middlewares/Third_Party/Huawei/iot_link/network/dtls/mbedtls/mbedtls-2.16.2/library\x509_crl.c ****  *  Version  ::=  INTEGER  {  v1(0), v2(1)  }
  72:D:/fchai/work/i-cube/I-CUBE-HUAWEI/Middlewares/Third_Party/Huawei/iot_link/network/dtls/mbedtls/mbedtls-2.16.2/library\x509_crl.c ****  */
  73:D:/fchai/work/i-cube/I-CUBE-HUAWEI/Middlewares/Third_Party/Huawei/iot_link/network/dtls/mbedtls/mbedtls-2.16.2/library\x509_crl.c **** static int x509_crl_get_version( unsigned char **p,
  74:D:/fchai/work/i-cube/I-CUBE-HUAWEI/Middlewares/Third_Party/Huawei/iot_link/network/dtls/mbedtls/mbedtls-2.16.2/library\x509_crl.c ****                              const unsigned char *end,
  75:D:/fchai/work/i-cube/I-CUBE-HUAWEI/Middlewares/Third_Party/Huawei/iot_link/network/dtls/mbedtls/mbedtls-2.16.2/library\x509_crl.c ****                              int *ver )
  76:D:/fchai/work/i-cube/I-CUBE-HUAWEI/Middlewares/Third_Party/Huawei/iot_link/network/dtls/mbedtls/mbedtls-2.16.2/library\x509_crl.c **** {
  77:D:/fchai/work/i-cube/I-CUBE-HUAWEI/Middlewares/Third_Party/Huawei/iot_link/network/dtls/mbedtls/mbedtls-2.16.2/library\x509_crl.c ****     int ret;
  78:D:/fchai/work/i-cube/I-CUBE-HUAWEI/Middlewares/Third_Party/Huawei/iot_link/network/dtls/mbedtls/mbedtls-2.16.2/library\x509_crl.c **** 
  79:D:/fchai/work/i-cube/I-CUBE-HUAWEI/Middlewares/Third_Party/Huawei/iot_link/network/dtls/mbedtls/mbedtls-2.16.2/library\x509_crl.c ****     if( ( ret = mbedtls_asn1_get_int( p, end, ver ) ) != 0 )
  80:D:/fchai/work/i-cube/I-CUBE-HUAWEI/Middlewares/Third_Party/Huawei/iot_link/network/dtls/mbedtls/mbedtls-2.16.2/library\x509_crl.c ****     {
  81:D:/fchai/work/i-cube/I-CUBE-HUAWEI/Middlewares/Third_Party/Huawei/iot_link/network/dtls/mbedtls/mbedtls-2.16.2/library\x509_crl.c ****         if( ret == MBEDTLS_ERR_ASN1_UNEXPECTED_TAG )
  82:D:/fchai/work/i-cube/I-CUBE-HUAWEI/Middlewares/Third_Party/Huawei/iot_link/network/dtls/mbedtls/mbedtls-2.16.2/library\x509_crl.c ****         {
  83:D:/fchai/work/i-cube/I-CUBE-HUAWEI/Middlewares/Third_Party/Huawei/iot_link/network/dtls/mbedtls/mbedtls-2.16.2/library\x509_crl.c ****             *ver = 0;
  84:D:/fchai/work/i-cube/I-CUBE-HUAWEI/Middlewares/Third_Party/Huawei/iot_link/network/dtls/mbedtls/mbedtls-2.16.2/library\x509_crl.c ****             return( 0 );
  85:D:/fchai/work/i-cube/I-CUBE-HUAWEI/Middlewares/Third_Party/Huawei/iot_link/network/dtls/mbedtls/mbedtls-2.16.2/library\x509_crl.c ****         }
  86:D:/fchai/work/i-cube/I-CUBE-HUAWEI/Middlewares/Third_Party/Huawei/iot_link/network/dtls/mbedtls/mbedtls-2.16.2/library\x509_crl.c **** 
ARM GAS  T:\msys\tmp\ccGq53OE.s 			page 3


  87:D:/fchai/work/i-cube/I-CUBE-HUAWEI/Middlewares/Third_Party/Huawei/iot_link/network/dtls/mbedtls/mbedtls-2.16.2/library\x509_crl.c ****         return( MBEDTLS_ERR_X509_INVALID_VERSION + ret );
  88:D:/fchai/work/i-cube/I-CUBE-HUAWEI/Middlewares/Third_Party/Huawei/iot_link/network/dtls/mbedtls/mbedtls-2.16.2/library\x509_crl.c ****     }
  89:D:/fchai/work/i-cube/I-CUBE-HUAWEI/Middlewares/Third_Party/Huawei/iot_link/network/dtls/mbedtls/mbedtls-2.16.2/library\x509_crl.c **** 
  90:D:/fchai/work/i-cube/I-CUBE-HUAWEI/Middlewares/Third_Party/Huawei/iot_link/network/dtls/mbedtls/mbedtls-2.16.2/library\x509_crl.c ****     return( 0 );
  91:D:/fchai/work/i-cube/I-CUBE-HUAWEI/Middlewares/Third_Party/Huawei/iot_link/network/dtls/mbedtls/mbedtls-2.16.2/library\x509_crl.c **** }
  92:D:/fchai/work/i-cube/I-CUBE-HUAWEI/Middlewares/Third_Party/Huawei/iot_link/network/dtls/mbedtls/mbedtls-2.16.2/library\x509_crl.c **** 
  93:D:/fchai/work/i-cube/I-CUBE-HUAWEI/Middlewares/Third_Party/Huawei/iot_link/network/dtls/mbedtls/mbedtls-2.16.2/library\x509_crl.c **** /*
  94:D:/fchai/work/i-cube/I-CUBE-HUAWEI/Middlewares/Third_Party/Huawei/iot_link/network/dtls/mbedtls/mbedtls-2.16.2/library\x509_crl.c ****  * X.509 CRL v2 extensions
  95:D:/fchai/work/i-cube/I-CUBE-HUAWEI/Middlewares/Third_Party/Huawei/iot_link/network/dtls/mbedtls/mbedtls-2.16.2/library\x509_crl.c ****  *
  96:D:/fchai/work/i-cube/I-CUBE-HUAWEI/Middlewares/Third_Party/Huawei/iot_link/network/dtls/mbedtls/mbedtls-2.16.2/library\x509_crl.c ****  * We currently don't parse any extension's content, but we do check that the
  97:D:/fchai/work/i-cube/I-CUBE-HUAWEI/Middlewares/Third_Party/Huawei/iot_link/network/dtls/mbedtls/mbedtls-2.16.2/library\x509_crl.c ****  * list of extensions is well-formed and abort on critical extensions (that
  98:D:/fchai/work/i-cube/I-CUBE-HUAWEI/Middlewares/Third_Party/Huawei/iot_link/network/dtls/mbedtls/mbedtls-2.16.2/library\x509_crl.c ****  * are unsupported as we don't support any extension so far)
  99:D:/fchai/work/i-cube/I-CUBE-HUAWEI/Middlewares/Third_Party/Huawei/iot_link/network/dtls/mbedtls/mbedtls-2.16.2/library\x509_crl.c ****  */
 100:D:/fchai/work/i-cube/I-CUBE-HUAWEI/Middlewares/Third_Party/Huawei/iot_link/network/dtls/mbedtls/mbedtls-2.16.2/library\x509_crl.c **** static int x509_get_crl_ext( unsigned char **p,
 101:D:/fchai/work/i-cube/I-CUBE-HUAWEI/Middlewares/Third_Party/Huawei/iot_link/network/dtls/mbedtls/mbedtls-2.16.2/library\x509_crl.c ****                              const unsigned char *end,
 102:D:/fchai/work/i-cube/I-CUBE-HUAWEI/Middlewares/Third_Party/Huawei/iot_link/network/dtls/mbedtls/mbedtls-2.16.2/library\x509_crl.c ****                              mbedtls_x509_buf *ext )
 103:D:/fchai/work/i-cube/I-CUBE-HUAWEI/Middlewares/Third_Party/Huawei/iot_link/network/dtls/mbedtls/mbedtls-2.16.2/library\x509_crl.c **** {
 104:D:/fchai/work/i-cube/I-CUBE-HUAWEI/Middlewares/Third_Party/Huawei/iot_link/network/dtls/mbedtls/mbedtls-2.16.2/library\x509_crl.c ****     int ret;
 105:D:/fchai/work/i-cube/I-CUBE-HUAWEI/Middlewares/Third_Party/Huawei/iot_link/network/dtls/mbedtls/mbedtls-2.16.2/library\x509_crl.c **** 
 106:D:/fchai/work/i-cube/I-CUBE-HUAWEI/Middlewares/Third_Party/Huawei/iot_link/network/dtls/mbedtls/mbedtls-2.16.2/library\x509_crl.c ****     if( *p == end )
 107:D:/fchai/work/i-cube/I-CUBE-HUAWEI/Middlewares/Third_Party/Huawei/iot_link/network/dtls/mbedtls/mbedtls-2.16.2/library\x509_crl.c ****         return( 0 );
 108:D:/fchai/work/i-cube/I-CUBE-HUAWEI/Middlewares/Third_Party/Huawei/iot_link/network/dtls/mbedtls/mbedtls-2.16.2/library\x509_crl.c **** 
 109:D:/fchai/work/i-cube/I-CUBE-HUAWEI/Middlewares/Third_Party/Huawei/iot_link/network/dtls/mbedtls/mbedtls-2.16.2/library\x509_crl.c ****     /*
 110:D:/fchai/work/i-cube/I-CUBE-HUAWEI/Middlewares/Third_Party/Huawei/iot_link/network/dtls/mbedtls/mbedtls-2.16.2/library\x509_crl.c ****      * crlExtensions           [0]  EXPLICIT Extensions OPTIONAL
 111:D:/fchai/work/i-cube/I-CUBE-HUAWEI/Middlewares/Third_Party/Huawei/iot_link/network/dtls/mbedtls/mbedtls-2.16.2/library\x509_crl.c ****      *                              -- if present, version MUST be v2
 112:D:/fchai/work/i-cube/I-CUBE-HUAWEI/Middlewares/Third_Party/Huawei/iot_link/network/dtls/mbedtls/mbedtls-2.16.2/library\x509_crl.c ****      */
 113:D:/fchai/work/i-cube/I-CUBE-HUAWEI/Middlewares/Third_Party/Huawei/iot_link/network/dtls/mbedtls/mbedtls-2.16.2/library\x509_crl.c ****     if( ( ret = mbedtls_x509_get_ext( p, end, ext, 0 ) ) != 0 )
 114:D:/fchai/work/i-cube/I-CUBE-HUAWEI/Middlewares/Third_Party/Huawei/iot_link/network/dtls/mbedtls/mbedtls-2.16.2/library\x509_crl.c ****         return( ret );
 115:D:/fchai/work/i-cube/I-CUBE-HUAWEI/Middlewares/Third_Party/Huawei/iot_link/network/dtls/mbedtls/mbedtls-2.16.2/library\x509_crl.c **** 
 116:D:/fchai/work/i-cube/I-CUBE-HUAWEI/Middlewares/Third_Party/Huawei/iot_link/network/dtls/mbedtls/mbedtls-2.16.2/library\x509_crl.c ****     end = ext->p + ext->len;
 117:D:/fchai/work/i-cube/I-CUBE-HUAWEI/Middlewares/Third_Party/Huawei/iot_link/network/dtls/mbedtls/mbedtls-2.16.2/library\x509_crl.c **** 
 118:D:/fchai/work/i-cube/I-CUBE-HUAWEI/Middlewares/Third_Party/Huawei/iot_link/network/dtls/mbedtls/mbedtls-2.16.2/library\x509_crl.c ****     while( *p < end )
 119:D:/fchai/work/i-cube/I-CUBE-HUAWEI/Middlewares/Third_Party/Huawei/iot_link/network/dtls/mbedtls/mbedtls-2.16.2/library\x509_crl.c ****     {
 120:D:/fchai/work/i-cube/I-CUBE-HUAWEI/Middlewares/Third_Party/Huawei/iot_link/network/dtls/mbedtls/mbedtls-2.16.2/library\x509_crl.c ****         /*
 121:D:/fchai/work/i-cube/I-CUBE-HUAWEI/Middlewares/Third_Party/Huawei/iot_link/network/dtls/mbedtls/mbedtls-2.16.2/library\x509_crl.c ****          * Extension  ::=  SEQUENCE  {
 122:D:/fchai/work/i-cube/I-CUBE-HUAWEI/Middlewares/Third_Party/Huawei/iot_link/network/dtls/mbedtls/mbedtls-2.16.2/library\x509_crl.c ****          *      extnID      OBJECT IDENTIFIER,
 123:D:/fchai/work/i-cube/I-CUBE-HUAWEI/Middlewares/Third_Party/Huawei/iot_link/network/dtls/mbedtls/mbedtls-2.16.2/library\x509_crl.c ****          *      critical    BOOLEAN DEFAULT FALSE,
 124:D:/fchai/work/i-cube/I-CUBE-HUAWEI/Middlewares/Third_Party/Huawei/iot_link/network/dtls/mbedtls/mbedtls-2.16.2/library\x509_crl.c ****          *      extnValue   OCTET STRING  }
 125:D:/fchai/work/i-cube/I-CUBE-HUAWEI/Middlewares/Third_Party/Huawei/iot_link/network/dtls/mbedtls/mbedtls-2.16.2/library\x509_crl.c ****          */
 126:D:/fchai/work/i-cube/I-CUBE-HUAWEI/Middlewares/Third_Party/Huawei/iot_link/network/dtls/mbedtls/mbedtls-2.16.2/library\x509_crl.c ****         int is_critical = 0;
 127:D:/fchai/work/i-cube/I-CUBE-HUAWEI/Middlewares/Third_Party/Huawei/iot_link/network/dtls/mbedtls/mbedtls-2.16.2/library\x509_crl.c ****         const unsigned char *end_ext_data;
 128:D:/fchai/work/i-cube/I-CUBE-HUAWEI/Middlewares/Third_Party/Huawei/iot_link/network/dtls/mbedtls/mbedtls-2.16.2/library\x509_crl.c ****         size_t len;
 129:D:/fchai/work/i-cube/I-CUBE-HUAWEI/Middlewares/Third_Party/Huawei/iot_link/network/dtls/mbedtls/mbedtls-2.16.2/library\x509_crl.c **** 
 130:D:/fchai/work/i-cube/I-CUBE-HUAWEI/Middlewares/Third_Party/Huawei/iot_link/network/dtls/mbedtls/mbedtls-2.16.2/library\x509_crl.c ****         /* Get enclosing sequence tag */
 131:D:/fchai/work/i-cube/I-CUBE-HUAWEI/Middlewares/Third_Party/Huawei/iot_link/network/dtls/mbedtls/mbedtls-2.16.2/library\x509_crl.c ****         if( ( ret = mbedtls_asn1_get_tag( p, end, &len,
 132:D:/fchai/work/i-cube/I-CUBE-HUAWEI/Middlewares/Third_Party/Huawei/iot_link/network/dtls/mbedtls/mbedtls-2.16.2/library\x509_crl.c ****                 MBEDTLS_ASN1_CONSTRUCTED | MBEDTLS_ASN1_SEQUENCE ) ) != 0 )
 133:D:/fchai/work/i-cube/I-CUBE-HUAWEI/Middlewares/Third_Party/Huawei/iot_link/network/dtls/mbedtls/mbedtls-2.16.2/library\x509_crl.c ****             return( MBEDTLS_ERR_X509_INVALID_EXTENSIONS + ret );
 134:D:/fchai/work/i-cube/I-CUBE-HUAWEI/Middlewares/Third_Party/Huawei/iot_link/network/dtls/mbedtls/mbedtls-2.16.2/library\x509_crl.c **** 
 135:D:/fchai/work/i-cube/I-CUBE-HUAWEI/Middlewares/Third_Party/Huawei/iot_link/network/dtls/mbedtls/mbedtls-2.16.2/library\x509_crl.c ****         end_ext_data = *p + len;
 136:D:/fchai/work/i-cube/I-CUBE-HUAWEI/Middlewares/Third_Party/Huawei/iot_link/network/dtls/mbedtls/mbedtls-2.16.2/library\x509_crl.c **** 
 137:D:/fchai/work/i-cube/I-CUBE-HUAWEI/Middlewares/Third_Party/Huawei/iot_link/network/dtls/mbedtls/mbedtls-2.16.2/library\x509_crl.c ****         /* Get OID (currently ignored) */
 138:D:/fchai/work/i-cube/I-CUBE-HUAWEI/Middlewares/Third_Party/Huawei/iot_link/network/dtls/mbedtls/mbedtls-2.16.2/library\x509_crl.c ****         if( ( ret = mbedtls_asn1_get_tag( p, end_ext_data, &len,
 139:D:/fchai/work/i-cube/I-CUBE-HUAWEI/Middlewares/Third_Party/Huawei/iot_link/network/dtls/mbedtls/mbedtls-2.16.2/library\x509_crl.c ****                                           MBEDTLS_ASN1_OID ) ) != 0 )
 140:D:/fchai/work/i-cube/I-CUBE-HUAWEI/Middlewares/Third_Party/Huawei/iot_link/network/dtls/mbedtls/mbedtls-2.16.2/library\x509_crl.c ****         {
 141:D:/fchai/work/i-cube/I-CUBE-HUAWEI/Middlewares/Third_Party/Huawei/iot_link/network/dtls/mbedtls/mbedtls-2.16.2/library\x509_crl.c ****             return( MBEDTLS_ERR_X509_INVALID_EXTENSIONS + ret );
 142:D:/fchai/work/i-cube/I-CUBE-HUAWEI/Middlewares/Third_Party/Huawei/iot_link/network/dtls/mbedtls/mbedtls-2.16.2/library\x509_crl.c ****         }
 143:D:/fchai/work/i-cube/I-CUBE-HUAWEI/Middlewares/Third_Party/Huawei/iot_link/network/dtls/mbedtls/mbedtls-2.16.2/library\x509_crl.c ****         *p += len;
ARM GAS  T:\msys\tmp\ccGq53OE.s 			page 4


 144:D:/fchai/work/i-cube/I-CUBE-HUAWEI/Middlewares/Third_Party/Huawei/iot_link/network/dtls/mbedtls/mbedtls-2.16.2/library\x509_crl.c **** 
 145:D:/fchai/work/i-cube/I-CUBE-HUAWEI/Middlewares/Third_Party/Huawei/iot_link/network/dtls/mbedtls/mbedtls-2.16.2/library\x509_crl.c ****         /* Get optional critical */
 146:D:/fchai/work/i-cube/I-CUBE-HUAWEI/Middlewares/Third_Party/Huawei/iot_link/network/dtls/mbedtls/mbedtls-2.16.2/library\x509_crl.c ****         if( ( ret = mbedtls_asn1_get_bool( p, end_ext_data,
 147:D:/fchai/work/i-cube/I-CUBE-HUAWEI/Middlewares/Third_Party/Huawei/iot_link/network/dtls/mbedtls/mbedtls-2.16.2/library\x509_crl.c ****                                            &is_critical ) ) != 0 &&
 148:D:/fchai/work/i-cube/I-CUBE-HUAWEI/Middlewares/Third_Party/Huawei/iot_link/network/dtls/mbedtls/mbedtls-2.16.2/library\x509_crl.c ****             ( ret != MBEDTLS_ERR_ASN1_UNEXPECTED_TAG ) )
 149:D:/fchai/work/i-cube/I-CUBE-HUAWEI/Middlewares/Third_Party/Huawei/iot_link/network/dtls/mbedtls/mbedtls-2.16.2/library\x509_crl.c ****         {
 150:D:/fchai/work/i-cube/I-CUBE-HUAWEI/Middlewares/Third_Party/Huawei/iot_link/network/dtls/mbedtls/mbedtls-2.16.2/library\x509_crl.c ****             return( MBEDTLS_ERR_X509_INVALID_EXTENSIONS + ret );
 151:D:/fchai/work/i-cube/I-CUBE-HUAWEI/Middlewares/Third_Party/Huawei/iot_link/network/dtls/mbedtls/mbedtls-2.16.2/library\x509_crl.c ****         }
 152:D:/fchai/work/i-cube/I-CUBE-HUAWEI/Middlewares/Third_Party/Huawei/iot_link/network/dtls/mbedtls/mbedtls-2.16.2/library\x509_crl.c **** 
 153:D:/fchai/work/i-cube/I-CUBE-HUAWEI/Middlewares/Third_Party/Huawei/iot_link/network/dtls/mbedtls/mbedtls-2.16.2/library\x509_crl.c ****         /* Data should be octet string type */
 154:D:/fchai/work/i-cube/I-CUBE-HUAWEI/Middlewares/Third_Party/Huawei/iot_link/network/dtls/mbedtls/mbedtls-2.16.2/library\x509_crl.c ****         if( ( ret = mbedtls_asn1_get_tag( p, end_ext_data, &len,
 155:D:/fchai/work/i-cube/I-CUBE-HUAWEI/Middlewares/Third_Party/Huawei/iot_link/network/dtls/mbedtls/mbedtls-2.16.2/library\x509_crl.c ****                 MBEDTLS_ASN1_OCTET_STRING ) ) != 0 )
 156:D:/fchai/work/i-cube/I-CUBE-HUAWEI/Middlewares/Third_Party/Huawei/iot_link/network/dtls/mbedtls/mbedtls-2.16.2/library\x509_crl.c ****             return( MBEDTLS_ERR_X509_INVALID_EXTENSIONS + ret );
 157:D:/fchai/work/i-cube/I-CUBE-HUAWEI/Middlewares/Third_Party/Huawei/iot_link/network/dtls/mbedtls/mbedtls-2.16.2/library\x509_crl.c **** 
 158:D:/fchai/work/i-cube/I-CUBE-HUAWEI/Middlewares/Third_Party/Huawei/iot_link/network/dtls/mbedtls/mbedtls-2.16.2/library\x509_crl.c ****         /* Ignore data so far and just check its length */
 159:D:/fchai/work/i-cube/I-CUBE-HUAWEI/Middlewares/Third_Party/Huawei/iot_link/network/dtls/mbedtls/mbedtls-2.16.2/library\x509_crl.c ****         *p += len;
 160:D:/fchai/work/i-cube/I-CUBE-HUAWEI/Middlewares/Third_Party/Huawei/iot_link/network/dtls/mbedtls/mbedtls-2.16.2/library\x509_crl.c ****         if( *p != end_ext_data )
 161:D:/fchai/work/i-cube/I-CUBE-HUAWEI/Middlewares/Third_Party/Huawei/iot_link/network/dtls/mbedtls/mbedtls-2.16.2/library\x509_crl.c ****             return( MBEDTLS_ERR_X509_INVALID_EXTENSIONS +
 162:D:/fchai/work/i-cube/I-CUBE-HUAWEI/Middlewares/Third_Party/Huawei/iot_link/network/dtls/mbedtls/mbedtls-2.16.2/library\x509_crl.c ****                     MBEDTLS_ERR_ASN1_LENGTH_MISMATCH );
 163:D:/fchai/work/i-cube/I-CUBE-HUAWEI/Middlewares/Third_Party/Huawei/iot_link/network/dtls/mbedtls/mbedtls-2.16.2/library\x509_crl.c **** 
 164:D:/fchai/work/i-cube/I-CUBE-HUAWEI/Middlewares/Third_Party/Huawei/iot_link/network/dtls/mbedtls/mbedtls-2.16.2/library\x509_crl.c ****         /* Abort on (unsupported) critical extensions */
 165:D:/fchai/work/i-cube/I-CUBE-HUAWEI/Middlewares/Third_Party/Huawei/iot_link/network/dtls/mbedtls/mbedtls-2.16.2/library\x509_crl.c ****         if( is_critical )
 166:D:/fchai/work/i-cube/I-CUBE-HUAWEI/Middlewares/Third_Party/Huawei/iot_link/network/dtls/mbedtls/mbedtls-2.16.2/library\x509_crl.c ****             return( MBEDTLS_ERR_X509_INVALID_EXTENSIONS +
 167:D:/fchai/work/i-cube/I-CUBE-HUAWEI/Middlewares/Third_Party/Huawei/iot_link/network/dtls/mbedtls/mbedtls-2.16.2/library\x509_crl.c ****                     MBEDTLS_ERR_ASN1_UNEXPECTED_TAG );
 168:D:/fchai/work/i-cube/I-CUBE-HUAWEI/Middlewares/Third_Party/Huawei/iot_link/network/dtls/mbedtls/mbedtls-2.16.2/library\x509_crl.c ****     }
 169:D:/fchai/work/i-cube/I-CUBE-HUAWEI/Middlewares/Third_Party/Huawei/iot_link/network/dtls/mbedtls/mbedtls-2.16.2/library\x509_crl.c **** 
 170:D:/fchai/work/i-cube/I-CUBE-HUAWEI/Middlewares/Third_Party/Huawei/iot_link/network/dtls/mbedtls/mbedtls-2.16.2/library\x509_crl.c ****     if( *p != end )
 171:D:/fchai/work/i-cube/I-CUBE-HUAWEI/Middlewares/Third_Party/Huawei/iot_link/network/dtls/mbedtls/mbedtls-2.16.2/library\x509_crl.c ****         return( MBEDTLS_ERR_X509_INVALID_EXTENSIONS +
 172:D:/fchai/work/i-cube/I-CUBE-HUAWEI/Middlewares/Third_Party/Huawei/iot_link/network/dtls/mbedtls/mbedtls-2.16.2/library\x509_crl.c ****                 MBEDTLS_ERR_ASN1_LENGTH_MISMATCH );
 173:D:/fchai/work/i-cube/I-CUBE-HUAWEI/Middlewares/Third_Party/Huawei/iot_link/network/dtls/mbedtls/mbedtls-2.16.2/library\x509_crl.c **** 
 174:D:/fchai/work/i-cube/I-CUBE-HUAWEI/Middlewares/Third_Party/Huawei/iot_link/network/dtls/mbedtls/mbedtls-2.16.2/library\x509_crl.c ****     return( 0 );
 175:D:/fchai/work/i-cube/I-CUBE-HUAWEI/Middlewares/Third_Party/Huawei/iot_link/network/dtls/mbedtls/mbedtls-2.16.2/library\x509_crl.c **** }
 176:D:/fchai/work/i-cube/I-CUBE-HUAWEI/Middlewares/Third_Party/Huawei/iot_link/network/dtls/mbedtls/mbedtls-2.16.2/library\x509_crl.c **** 
 177:D:/fchai/work/i-cube/I-CUBE-HUAWEI/Middlewares/Third_Party/Huawei/iot_link/network/dtls/mbedtls/mbedtls-2.16.2/library\x509_crl.c **** /*
 178:D:/fchai/work/i-cube/I-CUBE-HUAWEI/Middlewares/Third_Party/Huawei/iot_link/network/dtls/mbedtls/mbedtls-2.16.2/library\x509_crl.c ****  * X.509 CRL v2 entry extensions (no extensions parsed yet.)
 179:D:/fchai/work/i-cube/I-CUBE-HUAWEI/Middlewares/Third_Party/Huawei/iot_link/network/dtls/mbedtls/mbedtls-2.16.2/library\x509_crl.c ****  */
 180:D:/fchai/work/i-cube/I-CUBE-HUAWEI/Middlewares/Third_Party/Huawei/iot_link/network/dtls/mbedtls/mbedtls-2.16.2/library\x509_crl.c **** static int x509_get_crl_entry_ext( unsigned char **p,
 181:D:/fchai/work/i-cube/I-CUBE-HUAWEI/Middlewares/Third_Party/Huawei/iot_link/network/dtls/mbedtls/mbedtls-2.16.2/library\x509_crl.c ****                              const unsigned char *end,
 182:D:/fchai/work/i-cube/I-CUBE-HUAWEI/Middlewares/Third_Party/Huawei/iot_link/network/dtls/mbedtls/mbedtls-2.16.2/library\x509_crl.c ****                              mbedtls_x509_buf *ext )
 183:D:/fchai/work/i-cube/I-CUBE-HUAWEI/Middlewares/Third_Party/Huawei/iot_link/network/dtls/mbedtls/mbedtls-2.16.2/library\x509_crl.c **** {
 184:D:/fchai/work/i-cube/I-CUBE-HUAWEI/Middlewares/Third_Party/Huawei/iot_link/network/dtls/mbedtls/mbedtls-2.16.2/library\x509_crl.c ****     int ret;
 185:D:/fchai/work/i-cube/I-CUBE-HUAWEI/Middlewares/Third_Party/Huawei/iot_link/network/dtls/mbedtls/mbedtls-2.16.2/library\x509_crl.c ****     size_t len = 0;
 186:D:/fchai/work/i-cube/I-CUBE-HUAWEI/Middlewares/Third_Party/Huawei/iot_link/network/dtls/mbedtls/mbedtls-2.16.2/library\x509_crl.c **** 
 187:D:/fchai/work/i-cube/I-CUBE-HUAWEI/Middlewares/Third_Party/Huawei/iot_link/network/dtls/mbedtls/mbedtls-2.16.2/library\x509_crl.c ****     /* OPTIONAL */
 188:D:/fchai/work/i-cube/I-CUBE-HUAWEI/Middlewares/Third_Party/Huawei/iot_link/network/dtls/mbedtls/mbedtls-2.16.2/library\x509_crl.c ****     if( end <= *p )
 189:D:/fchai/work/i-cube/I-CUBE-HUAWEI/Middlewares/Third_Party/Huawei/iot_link/network/dtls/mbedtls/mbedtls-2.16.2/library\x509_crl.c ****         return( 0 );
 190:D:/fchai/work/i-cube/I-CUBE-HUAWEI/Middlewares/Third_Party/Huawei/iot_link/network/dtls/mbedtls/mbedtls-2.16.2/library\x509_crl.c **** 
 191:D:/fchai/work/i-cube/I-CUBE-HUAWEI/Middlewares/Third_Party/Huawei/iot_link/network/dtls/mbedtls/mbedtls-2.16.2/library\x509_crl.c ****     ext->tag = **p;
 192:D:/fchai/work/i-cube/I-CUBE-HUAWEI/Middlewares/Third_Party/Huawei/iot_link/network/dtls/mbedtls/mbedtls-2.16.2/library\x509_crl.c ****     ext->p = *p;
 193:D:/fchai/work/i-cube/I-CUBE-HUAWEI/Middlewares/Third_Party/Huawei/iot_link/network/dtls/mbedtls/mbedtls-2.16.2/library\x509_crl.c **** 
 194:D:/fchai/work/i-cube/I-CUBE-HUAWEI/Middlewares/Third_Party/Huawei/iot_link/network/dtls/mbedtls/mbedtls-2.16.2/library\x509_crl.c ****     /*
 195:D:/fchai/work/i-cube/I-CUBE-HUAWEI/Middlewares/Third_Party/Huawei/iot_link/network/dtls/mbedtls/mbedtls-2.16.2/library\x509_crl.c ****      * Get CRL-entry extension sequence header
 196:D:/fchai/work/i-cube/I-CUBE-HUAWEI/Middlewares/Third_Party/Huawei/iot_link/network/dtls/mbedtls/mbedtls-2.16.2/library\x509_crl.c ****      * crlEntryExtensions      Extensions OPTIONAL  -- if present, MUST be v2
 197:D:/fchai/work/i-cube/I-CUBE-HUAWEI/Middlewares/Third_Party/Huawei/iot_link/network/dtls/mbedtls/mbedtls-2.16.2/library\x509_crl.c ****      */
 198:D:/fchai/work/i-cube/I-CUBE-HUAWEI/Middlewares/Third_Party/Huawei/iot_link/network/dtls/mbedtls/mbedtls-2.16.2/library\x509_crl.c ****     if( ( ret = mbedtls_asn1_get_tag( p, end, &ext->len,
 199:D:/fchai/work/i-cube/I-CUBE-HUAWEI/Middlewares/Third_Party/Huawei/iot_link/network/dtls/mbedtls/mbedtls-2.16.2/library\x509_crl.c ****             MBEDTLS_ASN1_CONSTRUCTED | MBEDTLS_ASN1_SEQUENCE ) ) != 0 )
 200:D:/fchai/work/i-cube/I-CUBE-HUAWEI/Middlewares/Third_Party/Huawei/iot_link/network/dtls/mbedtls/mbedtls-2.16.2/library\x509_crl.c ****     {
ARM GAS  T:\msys\tmp\ccGq53OE.s 			page 5


 201:D:/fchai/work/i-cube/I-CUBE-HUAWEI/Middlewares/Third_Party/Huawei/iot_link/network/dtls/mbedtls/mbedtls-2.16.2/library\x509_crl.c ****         if( ret == MBEDTLS_ERR_ASN1_UNEXPECTED_TAG )
 202:D:/fchai/work/i-cube/I-CUBE-HUAWEI/Middlewares/Third_Party/Huawei/iot_link/network/dtls/mbedtls/mbedtls-2.16.2/library\x509_crl.c ****         {
 203:D:/fchai/work/i-cube/I-CUBE-HUAWEI/Middlewares/Third_Party/Huawei/iot_link/network/dtls/mbedtls/mbedtls-2.16.2/library\x509_crl.c ****             ext->p = NULL;
 204:D:/fchai/work/i-cube/I-CUBE-HUAWEI/Middlewares/Third_Party/Huawei/iot_link/network/dtls/mbedtls/mbedtls-2.16.2/library\x509_crl.c ****             return( 0 );
 205:D:/fchai/work/i-cube/I-CUBE-HUAWEI/Middlewares/Third_Party/Huawei/iot_link/network/dtls/mbedtls/mbedtls-2.16.2/library\x509_crl.c ****         }
 206:D:/fchai/work/i-cube/I-CUBE-HUAWEI/Middlewares/Third_Party/Huawei/iot_link/network/dtls/mbedtls/mbedtls-2.16.2/library\x509_crl.c ****         return( MBEDTLS_ERR_X509_INVALID_EXTENSIONS + ret );
 207:D:/fchai/work/i-cube/I-CUBE-HUAWEI/Middlewares/Third_Party/Huawei/iot_link/network/dtls/mbedtls/mbedtls-2.16.2/library\x509_crl.c ****     }
 208:D:/fchai/work/i-cube/I-CUBE-HUAWEI/Middlewares/Third_Party/Huawei/iot_link/network/dtls/mbedtls/mbedtls-2.16.2/library\x509_crl.c **** 
 209:D:/fchai/work/i-cube/I-CUBE-HUAWEI/Middlewares/Third_Party/Huawei/iot_link/network/dtls/mbedtls/mbedtls-2.16.2/library\x509_crl.c ****     end = *p + ext->len;
 210:D:/fchai/work/i-cube/I-CUBE-HUAWEI/Middlewares/Third_Party/Huawei/iot_link/network/dtls/mbedtls/mbedtls-2.16.2/library\x509_crl.c **** 
 211:D:/fchai/work/i-cube/I-CUBE-HUAWEI/Middlewares/Third_Party/Huawei/iot_link/network/dtls/mbedtls/mbedtls-2.16.2/library\x509_crl.c ****     if( end != *p + ext->len )
 212:D:/fchai/work/i-cube/I-CUBE-HUAWEI/Middlewares/Third_Party/Huawei/iot_link/network/dtls/mbedtls/mbedtls-2.16.2/library\x509_crl.c ****         return( MBEDTLS_ERR_X509_INVALID_EXTENSIONS +
 213:D:/fchai/work/i-cube/I-CUBE-HUAWEI/Middlewares/Third_Party/Huawei/iot_link/network/dtls/mbedtls/mbedtls-2.16.2/library\x509_crl.c ****                 MBEDTLS_ERR_ASN1_LENGTH_MISMATCH );
 214:D:/fchai/work/i-cube/I-CUBE-HUAWEI/Middlewares/Third_Party/Huawei/iot_link/network/dtls/mbedtls/mbedtls-2.16.2/library\x509_crl.c **** 
 215:D:/fchai/work/i-cube/I-CUBE-HUAWEI/Middlewares/Third_Party/Huawei/iot_link/network/dtls/mbedtls/mbedtls-2.16.2/library\x509_crl.c ****     while( *p < end )
 216:D:/fchai/work/i-cube/I-CUBE-HUAWEI/Middlewares/Third_Party/Huawei/iot_link/network/dtls/mbedtls/mbedtls-2.16.2/library\x509_crl.c ****     {
 217:D:/fchai/work/i-cube/I-CUBE-HUAWEI/Middlewares/Third_Party/Huawei/iot_link/network/dtls/mbedtls/mbedtls-2.16.2/library\x509_crl.c ****         if( ( ret = mbedtls_asn1_get_tag( p, end, &len,
 218:D:/fchai/work/i-cube/I-CUBE-HUAWEI/Middlewares/Third_Party/Huawei/iot_link/network/dtls/mbedtls/mbedtls-2.16.2/library\x509_crl.c ****                 MBEDTLS_ASN1_CONSTRUCTED | MBEDTLS_ASN1_SEQUENCE ) ) != 0 )
 219:D:/fchai/work/i-cube/I-CUBE-HUAWEI/Middlewares/Third_Party/Huawei/iot_link/network/dtls/mbedtls/mbedtls-2.16.2/library\x509_crl.c ****             return( MBEDTLS_ERR_X509_INVALID_EXTENSIONS + ret );
 220:D:/fchai/work/i-cube/I-CUBE-HUAWEI/Middlewares/Third_Party/Huawei/iot_link/network/dtls/mbedtls/mbedtls-2.16.2/library\x509_crl.c **** 
 221:D:/fchai/work/i-cube/I-CUBE-HUAWEI/Middlewares/Third_Party/Huawei/iot_link/network/dtls/mbedtls/mbedtls-2.16.2/library\x509_crl.c ****         *p += len;
 222:D:/fchai/work/i-cube/I-CUBE-HUAWEI/Middlewares/Third_Party/Huawei/iot_link/network/dtls/mbedtls/mbedtls-2.16.2/library\x509_crl.c ****     }
 223:D:/fchai/work/i-cube/I-CUBE-HUAWEI/Middlewares/Third_Party/Huawei/iot_link/network/dtls/mbedtls/mbedtls-2.16.2/library\x509_crl.c **** 
 224:D:/fchai/work/i-cube/I-CUBE-HUAWEI/Middlewares/Third_Party/Huawei/iot_link/network/dtls/mbedtls/mbedtls-2.16.2/library\x509_crl.c ****     if( *p != end )
 225:D:/fchai/work/i-cube/I-CUBE-HUAWEI/Middlewares/Third_Party/Huawei/iot_link/network/dtls/mbedtls/mbedtls-2.16.2/library\x509_crl.c ****         return( MBEDTLS_ERR_X509_INVALID_EXTENSIONS +
 226:D:/fchai/work/i-cube/I-CUBE-HUAWEI/Middlewares/Third_Party/Huawei/iot_link/network/dtls/mbedtls/mbedtls-2.16.2/library\x509_crl.c ****                 MBEDTLS_ERR_ASN1_LENGTH_MISMATCH );
 227:D:/fchai/work/i-cube/I-CUBE-HUAWEI/Middlewares/Third_Party/Huawei/iot_link/network/dtls/mbedtls/mbedtls-2.16.2/library\x509_crl.c **** 
 228:D:/fchai/work/i-cube/I-CUBE-HUAWEI/Middlewares/Third_Party/Huawei/iot_link/network/dtls/mbedtls/mbedtls-2.16.2/library\x509_crl.c ****     return( 0 );
 229:D:/fchai/work/i-cube/I-CUBE-HUAWEI/Middlewares/Third_Party/Huawei/iot_link/network/dtls/mbedtls/mbedtls-2.16.2/library\x509_crl.c **** }
 230:D:/fchai/work/i-cube/I-CUBE-HUAWEI/Middlewares/Third_Party/Huawei/iot_link/network/dtls/mbedtls/mbedtls-2.16.2/library\x509_crl.c **** 
 231:D:/fchai/work/i-cube/I-CUBE-HUAWEI/Middlewares/Third_Party/Huawei/iot_link/network/dtls/mbedtls/mbedtls-2.16.2/library\x509_crl.c **** /*
 232:D:/fchai/work/i-cube/I-CUBE-HUAWEI/Middlewares/Third_Party/Huawei/iot_link/network/dtls/mbedtls/mbedtls-2.16.2/library\x509_crl.c ****  * X.509 CRL Entries
 233:D:/fchai/work/i-cube/I-CUBE-HUAWEI/Middlewares/Third_Party/Huawei/iot_link/network/dtls/mbedtls/mbedtls-2.16.2/library\x509_crl.c ****  */
 234:D:/fchai/work/i-cube/I-CUBE-HUAWEI/Middlewares/Third_Party/Huawei/iot_link/network/dtls/mbedtls/mbedtls-2.16.2/library\x509_crl.c **** static int x509_get_entries( unsigned char **p,
 235:D:/fchai/work/i-cube/I-CUBE-HUAWEI/Middlewares/Third_Party/Huawei/iot_link/network/dtls/mbedtls/mbedtls-2.16.2/library\x509_crl.c ****                              const unsigned char *end,
 236:D:/fchai/work/i-cube/I-CUBE-HUAWEI/Middlewares/Third_Party/Huawei/iot_link/network/dtls/mbedtls/mbedtls-2.16.2/library\x509_crl.c ****                              mbedtls_x509_crl_entry *entry )
 237:D:/fchai/work/i-cube/I-CUBE-HUAWEI/Middlewares/Third_Party/Huawei/iot_link/network/dtls/mbedtls/mbedtls-2.16.2/library\x509_crl.c **** {
 238:D:/fchai/work/i-cube/I-CUBE-HUAWEI/Middlewares/Third_Party/Huawei/iot_link/network/dtls/mbedtls/mbedtls-2.16.2/library\x509_crl.c ****     int ret;
 239:D:/fchai/work/i-cube/I-CUBE-HUAWEI/Middlewares/Third_Party/Huawei/iot_link/network/dtls/mbedtls/mbedtls-2.16.2/library\x509_crl.c ****     size_t entry_len;
 240:D:/fchai/work/i-cube/I-CUBE-HUAWEI/Middlewares/Third_Party/Huawei/iot_link/network/dtls/mbedtls/mbedtls-2.16.2/library\x509_crl.c ****     mbedtls_x509_crl_entry *cur_entry = entry;
 241:D:/fchai/work/i-cube/I-CUBE-HUAWEI/Middlewares/Third_Party/Huawei/iot_link/network/dtls/mbedtls/mbedtls-2.16.2/library\x509_crl.c **** 
 242:D:/fchai/work/i-cube/I-CUBE-HUAWEI/Middlewares/Third_Party/Huawei/iot_link/network/dtls/mbedtls/mbedtls-2.16.2/library\x509_crl.c ****     if( *p == end )
 243:D:/fchai/work/i-cube/I-CUBE-HUAWEI/Middlewares/Third_Party/Huawei/iot_link/network/dtls/mbedtls/mbedtls-2.16.2/library\x509_crl.c ****         return( 0 );
 244:D:/fchai/work/i-cube/I-CUBE-HUAWEI/Middlewares/Third_Party/Huawei/iot_link/network/dtls/mbedtls/mbedtls-2.16.2/library\x509_crl.c **** 
 245:D:/fchai/work/i-cube/I-CUBE-HUAWEI/Middlewares/Third_Party/Huawei/iot_link/network/dtls/mbedtls/mbedtls-2.16.2/library\x509_crl.c ****     if( ( ret = mbedtls_asn1_get_tag( p, end, &entry_len,
 246:D:/fchai/work/i-cube/I-CUBE-HUAWEI/Middlewares/Third_Party/Huawei/iot_link/network/dtls/mbedtls/mbedtls-2.16.2/library\x509_crl.c ****             MBEDTLS_ASN1_SEQUENCE | MBEDTLS_ASN1_CONSTRUCTED ) ) != 0 )
 247:D:/fchai/work/i-cube/I-CUBE-HUAWEI/Middlewares/Third_Party/Huawei/iot_link/network/dtls/mbedtls/mbedtls-2.16.2/library\x509_crl.c ****     {
 248:D:/fchai/work/i-cube/I-CUBE-HUAWEI/Middlewares/Third_Party/Huawei/iot_link/network/dtls/mbedtls/mbedtls-2.16.2/library\x509_crl.c ****         if( ret == MBEDTLS_ERR_ASN1_UNEXPECTED_TAG )
 249:D:/fchai/work/i-cube/I-CUBE-HUAWEI/Middlewares/Third_Party/Huawei/iot_link/network/dtls/mbedtls/mbedtls-2.16.2/library\x509_crl.c ****             return( 0 );
 250:D:/fchai/work/i-cube/I-CUBE-HUAWEI/Middlewares/Third_Party/Huawei/iot_link/network/dtls/mbedtls/mbedtls-2.16.2/library\x509_crl.c **** 
 251:D:/fchai/work/i-cube/I-CUBE-HUAWEI/Middlewares/Third_Party/Huawei/iot_link/network/dtls/mbedtls/mbedtls-2.16.2/library\x509_crl.c ****         return( ret );
 252:D:/fchai/work/i-cube/I-CUBE-HUAWEI/Middlewares/Third_Party/Huawei/iot_link/network/dtls/mbedtls/mbedtls-2.16.2/library\x509_crl.c ****     }
 253:D:/fchai/work/i-cube/I-CUBE-HUAWEI/Middlewares/Third_Party/Huawei/iot_link/network/dtls/mbedtls/mbedtls-2.16.2/library\x509_crl.c **** 
 254:D:/fchai/work/i-cube/I-CUBE-HUAWEI/Middlewares/Third_Party/Huawei/iot_link/network/dtls/mbedtls/mbedtls-2.16.2/library\x509_crl.c ****     end = *p + entry_len;
 255:D:/fchai/work/i-cube/I-CUBE-HUAWEI/Middlewares/Third_Party/Huawei/iot_link/network/dtls/mbedtls/mbedtls-2.16.2/library\x509_crl.c **** 
 256:D:/fchai/work/i-cube/I-CUBE-HUAWEI/Middlewares/Third_Party/Huawei/iot_link/network/dtls/mbedtls/mbedtls-2.16.2/library\x509_crl.c ****     while( *p < end )
 257:D:/fchai/work/i-cube/I-CUBE-HUAWEI/Middlewares/Third_Party/Huawei/iot_link/network/dtls/mbedtls/mbedtls-2.16.2/library\x509_crl.c ****     {
ARM GAS  T:\msys\tmp\ccGq53OE.s 			page 6


 258:D:/fchai/work/i-cube/I-CUBE-HUAWEI/Middlewares/Third_Party/Huawei/iot_link/network/dtls/mbedtls/mbedtls-2.16.2/library\x509_crl.c ****         size_t len2;
 259:D:/fchai/work/i-cube/I-CUBE-HUAWEI/Middlewares/Third_Party/Huawei/iot_link/network/dtls/mbedtls/mbedtls-2.16.2/library\x509_crl.c ****         const unsigned char *end2;
 260:D:/fchai/work/i-cube/I-CUBE-HUAWEI/Middlewares/Third_Party/Huawei/iot_link/network/dtls/mbedtls/mbedtls-2.16.2/library\x509_crl.c **** 
 261:D:/fchai/work/i-cube/I-CUBE-HUAWEI/Middlewares/Third_Party/Huawei/iot_link/network/dtls/mbedtls/mbedtls-2.16.2/library\x509_crl.c ****         if( ( ret = mbedtls_asn1_get_tag( p, end, &len2,
 262:D:/fchai/work/i-cube/I-CUBE-HUAWEI/Middlewares/Third_Party/Huawei/iot_link/network/dtls/mbedtls/mbedtls-2.16.2/library\x509_crl.c ****                 MBEDTLS_ASN1_SEQUENCE | MBEDTLS_ASN1_CONSTRUCTED ) ) != 0 )
 263:D:/fchai/work/i-cube/I-CUBE-HUAWEI/Middlewares/Third_Party/Huawei/iot_link/network/dtls/mbedtls/mbedtls-2.16.2/library\x509_crl.c ****         {
 264:D:/fchai/work/i-cube/I-CUBE-HUAWEI/Middlewares/Third_Party/Huawei/iot_link/network/dtls/mbedtls/mbedtls-2.16.2/library\x509_crl.c ****             return( ret );
 265:D:/fchai/work/i-cube/I-CUBE-HUAWEI/Middlewares/Third_Party/Huawei/iot_link/network/dtls/mbedtls/mbedtls-2.16.2/library\x509_crl.c ****         }
 266:D:/fchai/work/i-cube/I-CUBE-HUAWEI/Middlewares/Third_Party/Huawei/iot_link/network/dtls/mbedtls/mbedtls-2.16.2/library\x509_crl.c **** 
 267:D:/fchai/work/i-cube/I-CUBE-HUAWEI/Middlewares/Third_Party/Huawei/iot_link/network/dtls/mbedtls/mbedtls-2.16.2/library\x509_crl.c ****         cur_entry->raw.tag = **p;
 268:D:/fchai/work/i-cube/I-CUBE-HUAWEI/Middlewares/Third_Party/Huawei/iot_link/network/dtls/mbedtls/mbedtls-2.16.2/library\x509_crl.c ****         cur_entry->raw.p = *p;
 269:D:/fchai/work/i-cube/I-CUBE-HUAWEI/Middlewares/Third_Party/Huawei/iot_link/network/dtls/mbedtls/mbedtls-2.16.2/library\x509_crl.c ****         cur_entry->raw.len = len2;
 270:D:/fchai/work/i-cube/I-CUBE-HUAWEI/Middlewares/Third_Party/Huawei/iot_link/network/dtls/mbedtls/mbedtls-2.16.2/library\x509_crl.c ****         end2 = *p + len2;
 271:D:/fchai/work/i-cube/I-CUBE-HUAWEI/Middlewares/Third_Party/Huawei/iot_link/network/dtls/mbedtls/mbedtls-2.16.2/library\x509_crl.c **** 
 272:D:/fchai/work/i-cube/I-CUBE-HUAWEI/Middlewares/Third_Party/Huawei/iot_link/network/dtls/mbedtls/mbedtls-2.16.2/library\x509_crl.c ****         if( ( ret = mbedtls_x509_get_serial( p, end2, &cur_entry->serial ) ) != 0 )
 273:D:/fchai/work/i-cube/I-CUBE-HUAWEI/Middlewares/Third_Party/Huawei/iot_link/network/dtls/mbedtls/mbedtls-2.16.2/library\x509_crl.c ****             return( ret );
 274:D:/fchai/work/i-cube/I-CUBE-HUAWEI/Middlewares/Third_Party/Huawei/iot_link/network/dtls/mbedtls/mbedtls-2.16.2/library\x509_crl.c **** 
 275:D:/fchai/work/i-cube/I-CUBE-HUAWEI/Middlewares/Third_Party/Huawei/iot_link/network/dtls/mbedtls/mbedtls-2.16.2/library\x509_crl.c ****         if( ( ret = mbedtls_x509_get_time( p, end2,
 276:D:/fchai/work/i-cube/I-CUBE-HUAWEI/Middlewares/Third_Party/Huawei/iot_link/network/dtls/mbedtls/mbedtls-2.16.2/library\x509_crl.c ****                                    &cur_entry->revocation_date ) ) != 0 )
 277:D:/fchai/work/i-cube/I-CUBE-HUAWEI/Middlewares/Third_Party/Huawei/iot_link/network/dtls/mbedtls/mbedtls-2.16.2/library\x509_crl.c ****             return( ret );
 278:D:/fchai/work/i-cube/I-CUBE-HUAWEI/Middlewares/Third_Party/Huawei/iot_link/network/dtls/mbedtls/mbedtls-2.16.2/library\x509_crl.c **** 
 279:D:/fchai/work/i-cube/I-CUBE-HUAWEI/Middlewares/Third_Party/Huawei/iot_link/network/dtls/mbedtls/mbedtls-2.16.2/library\x509_crl.c ****         if( ( ret = x509_get_crl_entry_ext( p, end2,
 280:D:/fchai/work/i-cube/I-CUBE-HUAWEI/Middlewares/Third_Party/Huawei/iot_link/network/dtls/mbedtls/mbedtls-2.16.2/library\x509_crl.c ****                                             &cur_entry->entry_ext ) ) != 0 )
 281:D:/fchai/work/i-cube/I-CUBE-HUAWEI/Middlewares/Third_Party/Huawei/iot_link/network/dtls/mbedtls/mbedtls-2.16.2/library\x509_crl.c ****             return( ret );
 282:D:/fchai/work/i-cube/I-CUBE-HUAWEI/Middlewares/Third_Party/Huawei/iot_link/network/dtls/mbedtls/mbedtls-2.16.2/library\x509_crl.c **** 
 283:D:/fchai/work/i-cube/I-CUBE-HUAWEI/Middlewares/Third_Party/Huawei/iot_link/network/dtls/mbedtls/mbedtls-2.16.2/library\x509_crl.c ****         if( *p < end )
 284:D:/fchai/work/i-cube/I-CUBE-HUAWEI/Middlewares/Third_Party/Huawei/iot_link/network/dtls/mbedtls/mbedtls-2.16.2/library\x509_crl.c ****         {
 285:D:/fchai/work/i-cube/I-CUBE-HUAWEI/Middlewares/Third_Party/Huawei/iot_link/network/dtls/mbedtls/mbedtls-2.16.2/library\x509_crl.c ****             cur_entry->next = mbedtls_calloc( 1, sizeof( mbedtls_x509_crl_entry ) );
 286:D:/fchai/work/i-cube/I-CUBE-HUAWEI/Middlewares/Third_Party/Huawei/iot_link/network/dtls/mbedtls/mbedtls-2.16.2/library\x509_crl.c **** 
 287:D:/fchai/work/i-cube/I-CUBE-HUAWEI/Middlewares/Third_Party/Huawei/iot_link/network/dtls/mbedtls/mbedtls-2.16.2/library\x509_crl.c ****             if( cur_entry->next == NULL )
 288:D:/fchai/work/i-cube/I-CUBE-HUAWEI/Middlewares/Third_Party/Huawei/iot_link/network/dtls/mbedtls/mbedtls-2.16.2/library\x509_crl.c ****                 return( MBEDTLS_ERR_X509_ALLOC_FAILED );
 289:D:/fchai/work/i-cube/I-CUBE-HUAWEI/Middlewares/Third_Party/Huawei/iot_link/network/dtls/mbedtls/mbedtls-2.16.2/library\x509_crl.c **** 
 290:D:/fchai/work/i-cube/I-CUBE-HUAWEI/Middlewares/Third_Party/Huawei/iot_link/network/dtls/mbedtls/mbedtls-2.16.2/library\x509_crl.c ****             cur_entry = cur_entry->next;
 291:D:/fchai/work/i-cube/I-CUBE-HUAWEI/Middlewares/Third_Party/Huawei/iot_link/network/dtls/mbedtls/mbedtls-2.16.2/library\x509_crl.c ****         }
 292:D:/fchai/work/i-cube/I-CUBE-HUAWEI/Middlewares/Third_Party/Huawei/iot_link/network/dtls/mbedtls/mbedtls-2.16.2/library\x509_crl.c ****     }
 293:D:/fchai/work/i-cube/I-CUBE-HUAWEI/Middlewares/Third_Party/Huawei/iot_link/network/dtls/mbedtls/mbedtls-2.16.2/library\x509_crl.c **** 
 294:D:/fchai/work/i-cube/I-CUBE-HUAWEI/Middlewares/Third_Party/Huawei/iot_link/network/dtls/mbedtls/mbedtls-2.16.2/library\x509_crl.c ****     return( 0 );
 295:D:/fchai/work/i-cube/I-CUBE-HUAWEI/Middlewares/Third_Party/Huawei/iot_link/network/dtls/mbedtls/mbedtls-2.16.2/library\x509_crl.c **** }
 296:D:/fchai/work/i-cube/I-CUBE-HUAWEI/Middlewares/Third_Party/Huawei/iot_link/network/dtls/mbedtls/mbedtls-2.16.2/library\x509_crl.c **** 
 297:D:/fchai/work/i-cube/I-CUBE-HUAWEI/Middlewares/Third_Party/Huawei/iot_link/network/dtls/mbedtls/mbedtls-2.16.2/library\x509_crl.c **** /*
 298:D:/fchai/work/i-cube/I-CUBE-HUAWEI/Middlewares/Third_Party/Huawei/iot_link/network/dtls/mbedtls/mbedtls-2.16.2/library\x509_crl.c ****  * Parse one  CRLs in DER format and append it to the chained list
 299:D:/fchai/work/i-cube/I-CUBE-HUAWEI/Middlewares/Third_Party/Huawei/iot_link/network/dtls/mbedtls/mbedtls-2.16.2/library\x509_crl.c ****  */
 300:D:/fchai/work/i-cube/I-CUBE-HUAWEI/Middlewares/Third_Party/Huawei/iot_link/network/dtls/mbedtls/mbedtls-2.16.2/library\x509_crl.c **** int mbedtls_x509_crl_parse_der( mbedtls_x509_crl *chain,
 301:D:/fchai/work/i-cube/I-CUBE-HUAWEI/Middlewares/Third_Party/Huawei/iot_link/network/dtls/mbedtls/mbedtls-2.16.2/library\x509_crl.c ****                         const unsigned char *buf, size_t buflen )
 302:D:/fchai/work/i-cube/I-CUBE-HUAWEI/Middlewares/Third_Party/Huawei/iot_link/network/dtls/mbedtls/mbedtls-2.16.2/library\x509_crl.c **** {
 303:D:/fchai/work/i-cube/I-CUBE-HUAWEI/Middlewares/Third_Party/Huawei/iot_link/network/dtls/mbedtls/mbedtls-2.16.2/library\x509_crl.c ****     int ret;
 304:D:/fchai/work/i-cube/I-CUBE-HUAWEI/Middlewares/Third_Party/Huawei/iot_link/network/dtls/mbedtls/mbedtls-2.16.2/library\x509_crl.c ****     size_t len;
 305:D:/fchai/work/i-cube/I-CUBE-HUAWEI/Middlewares/Third_Party/Huawei/iot_link/network/dtls/mbedtls/mbedtls-2.16.2/library\x509_crl.c ****     unsigned char *p = NULL, *end = NULL;
 306:D:/fchai/work/i-cube/I-CUBE-HUAWEI/Middlewares/Third_Party/Huawei/iot_link/network/dtls/mbedtls/mbedtls-2.16.2/library\x509_crl.c ****     mbedtls_x509_buf sig_params1, sig_params2, sig_oid2;
 307:D:/fchai/work/i-cube/I-CUBE-HUAWEI/Middlewares/Third_Party/Huawei/iot_link/network/dtls/mbedtls/mbedtls-2.16.2/library\x509_crl.c ****     mbedtls_x509_crl *crl = chain;
 308:D:/fchai/work/i-cube/I-CUBE-HUAWEI/Middlewares/Third_Party/Huawei/iot_link/network/dtls/mbedtls/mbedtls-2.16.2/library\x509_crl.c **** 
 309:D:/fchai/work/i-cube/I-CUBE-HUAWEI/Middlewares/Third_Party/Huawei/iot_link/network/dtls/mbedtls/mbedtls-2.16.2/library\x509_crl.c ****     /*
 310:D:/fchai/work/i-cube/I-CUBE-HUAWEI/Middlewares/Third_Party/Huawei/iot_link/network/dtls/mbedtls/mbedtls-2.16.2/library\x509_crl.c ****      * Check for valid input
 311:D:/fchai/work/i-cube/I-CUBE-HUAWEI/Middlewares/Third_Party/Huawei/iot_link/network/dtls/mbedtls/mbedtls-2.16.2/library\x509_crl.c ****      */
 312:D:/fchai/work/i-cube/I-CUBE-HUAWEI/Middlewares/Third_Party/Huawei/iot_link/network/dtls/mbedtls/mbedtls-2.16.2/library\x509_crl.c ****     if( crl == NULL || buf == NULL )
 313:D:/fchai/work/i-cube/I-CUBE-HUAWEI/Middlewares/Third_Party/Huawei/iot_link/network/dtls/mbedtls/mbedtls-2.16.2/library\x509_crl.c ****         return( MBEDTLS_ERR_X509_BAD_INPUT_DATA );
 314:D:/fchai/work/i-cube/I-CUBE-HUAWEI/Middlewares/Third_Party/Huawei/iot_link/network/dtls/mbedtls/mbedtls-2.16.2/library\x509_crl.c **** 
ARM GAS  T:\msys\tmp\ccGq53OE.s 			page 7


 315:D:/fchai/work/i-cube/I-CUBE-HUAWEI/Middlewares/Third_Party/Huawei/iot_link/network/dtls/mbedtls/mbedtls-2.16.2/library\x509_crl.c ****     memset( &sig_params1, 0, sizeof( mbedtls_x509_buf ) );
 316:D:/fchai/work/i-cube/I-CUBE-HUAWEI/Middlewares/Third_Party/Huawei/iot_link/network/dtls/mbedtls/mbedtls-2.16.2/library\x509_crl.c ****     memset( &sig_params2, 0, sizeof( mbedtls_x509_buf ) );
 317:D:/fchai/work/i-cube/I-CUBE-HUAWEI/Middlewares/Third_Party/Huawei/iot_link/network/dtls/mbedtls/mbedtls-2.16.2/library\x509_crl.c ****     memset( &sig_oid2, 0, sizeof( mbedtls_x509_buf ) );
 318:D:/fchai/work/i-cube/I-CUBE-HUAWEI/Middlewares/Third_Party/Huawei/iot_link/network/dtls/mbedtls/mbedtls-2.16.2/library\x509_crl.c **** 
 319:D:/fchai/work/i-cube/I-CUBE-HUAWEI/Middlewares/Third_Party/Huawei/iot_link/network/dtls/mbedtls/mbedtls-2.16.2/library\x509_crl.c ****     /*
 320:D:/fchai/work/i-cube/I-CUBE-HUAWEI/Middlewares/Third_Party/Huawei/iot_link/network/dtls/mbedtls/mbedtls-2.16.2/library\x509_crl.c ****      * Add new CRL on the end of the chain if needed.
 321:D:/fchai/work/i-cube/I-CUBE-HUAWEI/Middlewares/Third_Party/Huawei/iot_link/network/dtls/mbedtls/mbedtls-2.16.2/library\x509_crl.c ****      */
 322:D:/fchai/work/i-cube/I-CUBE-HUAWEI/Middlewares/Third_Party/Huawei/iot_link/network/dtls/mbedtls/mbedtls-2.16.2/library\x509_crl.c ****     while( crl->version != 0 && crl->next != NULL )
 323:D:/fchai/work/i-cube/I-CUBE-HUAWEI/Middlewares/Third_Party/Huawei/iot_link/network/dtls/mbedtls/mbedtls-2.16.2/library\x509_crl.c ****         crl = crl->next;
 324:D:/fchai/work/i-cube/I-CUBE-HUAWEI/Middlewares/Third_Party/Huawei/iot_link/network/dtls/mbedtls/mbedtls-2.16.2/library\x509_crl.c **** 
 325:D:/fchai/work/i-cube/I-CUBE-HUAWEI/Middlewares/Third_Party/Huawei/iot_link/network/dtls/mbedtls/mbedtls-2.16.2/library\x509_crl.c ****     if( crl->version != 0 && crl->next == NULL )
 326:D:/fchai/work/i-cube/I-CUBE-HUAWEI/Middlewares/Third_Party/Huawei/iot_link/network/dtls/mbedtls/mbedtls-2.16.2/library\x509_crl.c ****     {
 327:D:/fchai/work/i-cube/I-CUBE-HUAWEI/Middlewares/Third_Party/Huawei/iot_link/network/dtls/mbedtls/mbedtls-2.16.2/library\x509_crl.c ****         crl->next = mbedtls_calloc( 1, sizeof( mbedtls_x509_crl ) );
 328:D:/fchai/work/i-cube/I-CUBE-HUAWEI/Middlewares/Third_Party/Huawei/iot_link/network/dtls/mbedtls/mbedtls-2.16.2/library\x509_crl.c **** 
 329:D:/fchai/work/i-cube/I-CUBE-HUAWEI/Middlewares/Third_Party/Huawei/iot_link/network/dtls/mbedtls/mbedtls-2.16.2/library\x509_crl.c ****         if( crl->next == NULL )
 330:D:/fchai/work/i-cube/I-CUBE-HUAWEI/Middlewares/Third_Party/Huawei/iot_link/network/dtls/mbedtls/mbedtls-2.16.2/library\x509_crl.c ****         {
 331:D:/fchai/work/i-cube/I-CUBE-HUAWEI/Middlewares/Third_Party/Huawei/iot_link/network/dtls/mbedtls/mbedtls-2.16.2/library\x509_crl.c ****             mbedtls_x509_crl_free( crl );
 332:D:/fchai/work/i-cube/I-CUBE-HUAWEI/Middlewares/Third_Party/Huawei/iot_link/network/dtls/mbedtls/mbedtls-2.16.2/library\x509_crl.c ****             return( MBEDTLS_ERR_X509_ALLOC_FAILED );
 333:D:/fchai/work/i-cube/I-CUBE-HUAWEI/Middlewares/Third_Party/Huawei/iot_link/network/dtls/mbedtls/mbedtls-2.16.2/library\x509_crl.c ****         }
 334:D:/fchai/work/i-cube/I-CUBE-HUAWEI/Middlewares/Third_Party/Huawei/iot_link/network/dtls/mbedtls/mbedtls-2.16.2/library\x509_crl.c **** 
 335:D:/fchai/work/i-cube/I-CUBE-HUAWEI/Middlewares/Third_Party/Huawei/iot_link/network/dtls/mbedtls/mbedtls-2.16.2/library\x509_crl.c ****         mbedtls_x509_crl_init( crl->next );
 336:D:/fchai/work/i-cube/I-CUBE-HUAWEI/Middlewares/Third_Party/Huawei/iot_link/network/dtls/mbedtls/mbedtls-2.16.2/library\x509_crl.c ****         crl = crl->next;
 337:D:/fchai/work/i-cube/I-CUBE-HUAWEI/Middlewares/Third_Party/Huawei/iot_link/network/dtls/mbedtls/mbedtls-2.16.2/library\x509_crl.c ****     }
 338:D:/fchai/work/i-cube/I-CUBE-HUAWEI/Middlewares/Third_Party/Huawei/iot_link/network/dtls/mbedtls/mbedtls-2.16.2/library\x509_crl.c **** 
 339:D:/fchai/work/i-cube/I-CUBE-HUAWEI/Middlewares/Third_Party/Huawei/iot_link/network/dtls/mbedtls/mbedtls-2.16.2/library\x509_crl.c ****     /*
 340:D:/fchai/work/i-cube/I-CUBE-HUAWEI/Middlewares/Third_Party/Huawei/iot_link/network/dtls/mbedtls/mbedtls-2.16.2/library\x509_crl.c ****      * Copy raw DER-encoded CRL
 341:D:/fchai/work/i-cube/I-CUBE-HUAWEI/Middlewares/Third_Party/Huawei/iot_link/network/dtls/mbedtls/mbedtls-2.16.2/library\x509_crl.c ****      */
 342:D:/fchai/work/i-cube/I-CUBE-HUAWEI/Middlewares/Third_Party/Huawei/iot_link/network/dtls/mbedtls/mbedtls-2.16.2/library\x509_crl.c ****     if( buflen == 0 )
 343:D:/fchai/work/i-cube/I-CUBE-HUAWEI/Middlewares/Third_Party/Huawei/iot_link/network/dtls/mbedtls/mbedtls-2.16.2/library\x509_crl.c ****         return( MBEDTLS_ERR_X509_INVALID_FORMAT );
 344:D:/fchai/work/i-cube/I-CUBE-HUAWEI/Middlewares/Third_Party/Huawei/iot_link/network/dtls/mbedtls/mbedtls-2.16.2/library\x509_crl.c **** 
 345:D:/fchai/work/i-cube/I-CUBE-HUAWEI/Middlewares/Third_Party/Huawei/iot_link/network/dtls/mbedtls/mbedtls-2.16.2/library\x509_crl.c ****     p = mbedtls_calloc( 1, buflen );
 346:D:/fchai/work/i-cube/I-CUBE-HUAWEI/Middlewares/Third_Party/Huawei/iot_link/network/dtls/mbedtls/mbedtls-2.16.2/library\x509_crl.c ****     if( p == NULL )
 347:D:/fchai/work/i-cube/I-CUBE-HUAWEI/Middlewares/Third_Party/Huawei/iot_link/network/dtls/mbedtls/mbedtls-2.16.2/library\x509_crl.c ****         return( MBEDTLS_ERR_X509_ALLOC_FAILED );
 348:D:/fchai/work/i-cube/I-CUBE-HUAWEI/Middlewares/Third_Party/Huawei/iot_link/network/dtls/mbedtls/mbedtls-2.16.2/library\x509_crl.c **** 
 349:D:/fchai/work/i-cube/I-CUBE-HUAWEI/Middlewares/Third_Party/Huawei/iot_link/network/dtls/mbedtls/mbedtls-2.16.2/library\x509_crl.c ****     memcpy( p, buf, buflen );
 350:D:/fchai/work/i-cube/I-CUBE-HUAWEI/Middlewares/Third_Party/Huawei/iot_link/network/dtls/mbedtls/mbedtls-2.16.2/library\x509_crl.c **** 
 351:D:/fchai/work/i-cube/I-CUBE-HUAWEI/Middlewares/Third_Party/Huawei/iot_link/network/dtls/mbedtls/mbedtls-2.16.2/library\x509_crl.c ****     crl->raw.p = p;
 352:D:/fchai/work/i-cube/I-CUBE-HUAWEI/Middlewares/Third_Party/Huawei/iot_link/network/dtls/mbedtls/mbedtls-2.16.2/library\x509_crl.c ****     crl->raw.len = buflen;
 353:D:/fchai/work/i-cube/I-CUBE-HUAWEI/Middlewares/Third_Party/Huawei/iot_link/network/dtls/mbedtls/mbedtls-2.16.2/library\x509_crl.c **** 
 354:D:/fchai/work/i-cube/I-CUBE-HUAWEI/Middlewares/Third_Party/Huawei/iot_link/network/dtls/mbedtls/mbedtls-2.16.2/library\x509_crl.c ****     end = p + buflen;
 355:D:/fchai/work/i-cube/I-CUBE-HUAWEI/Middlewares/Third_Party/Huawei/iot_link/network/dtls/mbedtls/mbedtls-2.16.2/library\x509_crl.c **** 
 356:D:/fchai/work/i-cube/I-CUBE-HUAWEI/Middlewares/Third_Party/Huawei/iot_link/network/dtls/mbedtls/mbedtls-2.16.2/library\x509_crl.c ****     /*
 357:D:/fchai/work/i-cube/I-CUBE-HUAWEI/Middlewares/Third_Party/Huawei/iot_link/network/dtls/mbedtls/mbedtls-2.16.2/library\x509_crl.c ****      * CertificateList  ::=  SEQUENCE  {
 358:D:/fchai/work/i-cube/I-CUBE-HUAWEI/Middlewares/Third_Party/Huawei/iot_link/network/dtls/mbedtls/mbedtls-2.16.2/library\x509_crl.c ****      *      tbsCertList          TBSCertList,
 359:D:/fchai/work/i-cube/I-CUBE-HUAWEI/Middlewares/Third_Party/Huawei/iot_link/network/dtls/mbedtls/mbedtls-2.16.2/library\x509_crl.c ****      *      signatureAlgorithm   AlgorithmIdentifier,
 360:D:/fchai/work/i-cube/I-CUBE-HUAWEI/Middlewares/Third_Party/Huawei/iot_link/network/dtls/mbedtls/mbedtls-2.16.2/library\x509_crl.c ****      *      signatureValue       BIT STRING  }
 361:D:/fchai/work/i-cube/I-CUBE-HUAWEI/Middlewares/Third_Party/Huawei/iot_link/network/dtls/mbedtls/mbedtls-2.16.2/library\x509_crl.c ****      */
 362:D:/fchai/work/i-cube/I-CUBE-HUAWEI/Middlewares/Third_Party/Huawei/iot_link/network/dtls/mbedtls/mbedtls-2.16.2/library\x509_crl.c ****     if( ( ret = mbedtls_asn1_get_tag( &p, end, &len,
 363:D:/fchai/work/i-cube/I-CUBE-HUAWEI/Middlewares/Third_Party/Huawei/iot_link/network/dtls/mbedtls/mbedtls-2.16.2/library\x509_crl.c ****             MBEDTLS_ASN1_CONSTRUCTED | MBEDTLS_ASN1_SEQUENCE ) ) != 0 )
 364:D:/fchai/work/i-cube/I-CUBE-HUAWEI/Middlewares/Third_Party/Huawei/iot_link/network/dtls/mbedtls/mbedtls-2.16.2/library\x509_crl.c ****     {
 365:D:/fchai/work/i-cube/I-CUBE-HUAWEI/Middlewares/Third_Party/Huawei/iot_link/network/dtls/mbedtls/mbedtls-2.16.2/library\x509_crl.c ****         mbedtls_x509_crl_free( crl );
 366:D:/fchai/work/i-cube/I-CUBE-HUAWEI/Middlewares/Third_Party/Huawei/iot_link/network/dtls/mbedtls/mbedtls-2.16.2/library\x509_crl.c ****         return( MBEDTLS_ERR_X509_INVALID_FORMAT );
 367:D:/fchai/work/i-cube/I-CUBE-HUAWEI/Middlewares/Third_Party/Huawei/iot_link/network/dtls/mbedtls/mbedtls-2.16.2/library\x509_crl.c ****     }
 368:D:/fchai/work/i-cube/I-CUBE-HUAWEI/Middlewares/Third_Party/Huawei/iot_link/network/dtls/mbedtls/mbedtls-2.16.2/library\x509_crl.c **** 
 369:D:/fchai/work/i-cube/I-CUBE-HUAWEI/Middlewares/Third_Party/Huawei/iot_link/network/dtls/mbedtls/mbedtls-2.16.2/library\x509_crl.c ****     if( len != (size_t) ( end - p ) )
 370:D:/fchai/work/i-cube/I-CUBE-HUAWEI/Middlewares/Third_Party/Huawei/iot_link/network/dtls/mbedtls/mbedtls-2.16.2/library\x509_crl.c ****     {
 371:D:/fchai/work/i-cube/I-CUBE-HUAWEI/Middlewares/Third_Party/Huawei/iot_link/network/dtls/mbedtls/mbedtls-2.16.2/library\x509_crl.c ****         mbedtls_x509_crl_free( crl );
ARM GAS  T:\msys\tmp\ccGq53OE.s 			page 8


 372:D:/fchai/work/i-cube/I-CUBE-HUAWEI/Middlewares/Third_Party/Huawei/iot_link/network/dtls/mbedtls/mbedtls-2.16.2/library\x509_crl.c ****         return( MBEDTLS_ERR_X509_INVALID_FORMAT +
 373:D:/fchai/work/i-cube/I-CUBE-HUAWEI/Middlewares/Third_Party/Huawei/iot_link/network/dtls/mbedtls/mbedtls-2.16.2/library\x509_crl.c ****                 MBEDTLS_ERR_ASN1_LENGTH_MISMATCH );
 374:D:/fchai/work/i-cube/I-CUBE-HUAWEI/Middlewares/Third_Party/Huawei/iot_link/network/dtls/mbedtls/mbedtls-2.16.2/library\x509_crl.c ****     }
 375:D:/fchai/work/i-cube/I-CUBE-HUAWEI/Middlewares/Third_Party/Huawei/iot_link/network/dtls/mbedtls/mbedtls-2.16.2/library\x509_crl.c **** 
 376:D:/fchai/work/i-cube/I-CUBE-HUAWEI/Middlewares/Third_Party/Huawei/iot_link/network/dtls/mbedtls/mbedtls-2.16.2/library\x509_crl.c ****     /*
 377:D:/fchai/work/i-cube/I-CUBE-HUAWEI/Middlewares/Third_Party/Huawei/iot_link/network/dtls/mbedtls/mbedtls-2.16.2/library\x509_crl.c ****      * TBSCertList  ::=  SEQUENCE  {
 378:D:/fchai/work/i-cube/I-CUBE-HUAWEI/Middlewares/Third_Party/Huawei/iot_link/network/dtls/mbedtls/mbedtls-2.16.2/library\x509_crl.c ****      */
 379:D:/fchai/work/i-cube/I-CUBE-HUAWEI/Middlewares/Third_Party/Huawei/iot_link/network/dtls/mbedtls/mbedtls-2.16.2/library\x509_crl.c ****     crl->tbs.p = p;
 380:D:/fchai/work/i-cube/I-CUBE-HUAWEI/Middlewares/Third_Party/Huawei/iot_link/network/dtls/mbedtls/mbedtls-2.16.2/library\x509_crl.c **** 
 381:D:/fchai/work/i-cube/I-CUBE-HUAWEI/Middlewares/Third_Party/Huawei/iot_link/network/dtls/mbedtls/mbedtls-2.16.2/library\x509_crl.c ****     if( ( ret = mbedtls_asn1_get_tag( &p, end, &len,
 382:D:/fchai/work/i-cube/I-CUBE-HUAWEI/Middlewares/Third_Party/Huawei/iot_link/network/dtls/mbedtls/mbedtls-2.16.2/library\x509_crl.c ****             MBEDTLS_ASN1_CONSTRUCTED | MBEDTLS_ASN1_SEQUENCE ) ) != 0 )
 383:D:/fchai/work/i-cube/I-CUBE-HUAWEI/Middlewares/Third_Party/Huawei/iot_link/network/dtls/mbedtls/mbedtls-2.16.2/library\x509_crl.c ****     {
 384:D:/fchai/work/i-cube/I-CUBE-HUAWEI/Middlewares/Third_Party/Huawei/iot_link/network/dtls/mbedtls/mbedtls-2.16.2/library\x509_crl.c ****         mbedtls_x509_crl_free( crl );
 385:D:/fchai/work/i-cube/I-CUBE-HUAWEI/Middlewares/Third_Party/Huawei/iot_link/network/dtls/mbedtls/mbedtls-2.16.2/library\x509_crl.c ****         return( MBEDTLS_ERR_X509_INVALID_FORMAT + ret );
 386:D:/fchai/work/i-cube/I-CUBE-HUAWEI/Middlewares/Third_Party/Huawei/iot_link/network/dtls/mbedtls/mbedtls-2.16.2/library\x509_crl.c ****     }
 387:D:/fchai/work/i-cube/I-CUBE-HUAWEI/Middlewares/Third_Party/Huawei/iot_link/network/dtls/mbedtls/mbedtls-2.16.2/library\x509_crl.c **** 
 388:D:/fchai/work/i-cube/I-CUBE-HUAWEI/Middlewares/Third_Party/Huawei/iot_link/network/dtls/mbedtls/mbedtls-2.16.2/library\x509_crl.c ****     end = p + len;
 389:D:/fchai/work/i-cube/I-CUBE-HUAWEI/Middlewares/Third_Party/Huawei/iot_link/network/dtls/mbedtls/mbedtls-2.16.2/library\x509_crl.c ****     crl->tbs.len = end - crl->tbs.p;
 390:D:/fchai/work/i-cube/I-CUBE-HUAWEI/Middlewares/Third_Party/Huawei/iot_link/network/dtls/mbedtls/mbedtls-2.16.2/library\x509_crl.c **** 
 391:D:/fchai/work/i-cube/I-CUBE-HUAWEI/Middlewares/Third_Party/Huawei/iot_link/network/dtls/mbedtls/mbedtls-2.16.2/library\x509_crl.c ****     /*
 392:D:/fchai/work/i-cube/I-CUBE-HUAWEI/Middlewares/Third_Party/Huawei/iot_link/network/dtls/mbedtls/mbedtls-2.16.2/library\x509_crl.c ****      * Version  ::=  INTEGER  OPTIONAL {  v1(0), v2(1)  }
 393:D:/fchai/work/i-cube/I-CUBE-HUAWEI/Middlewares/Third_Party/Huawei/iot_link/network/dtls/mbedtls/mbedtls-2.16.2/library\x509_crl.c ****      *               -- if present, MUST be v2
 394:D:/fchai/work/i-cube/I-CUBE-HUAWEI/Middlewares/Third_Party/Huawei/iot_link/network/dtls/mbedtls/mbedtls-2.16.2/library\x509_crl.c ****      *
 395:D:/fchai/work/i-cube/I-CUBE-HUAWEI/Middlewares/Third_Party/Huawei/iot_link/network/dtls/mbedtls/mbedtls-2.16.2/library\x509_crl.c ****      * signature            AlgorithmIdentifier
 396:D:/fchai/work/i-cube/I-CUBE-HUAWEI/Middlewares/Third_Party/Huawei/iot_link/network/dtls/mbedtls/mbedtls-2.16.2/library\x509_crl.c ****      */
 397:D:/fchai/work/i-cube/I-CUBE-HUAWEI/Middlewares/Third_Party/Huawei/iot_link/network/dtls/mbedtls/mbedtls-2.16.2/library\x509_crl.c ****     if( ( ret = x509_crl_get_version( &p, end, &crl->version ) ) != 0 ||
 398:D:/fchai/work/i-cube/I-CUBE-HUAWEI/Middlewares/Third_Party/Huawei/iot_link/network/dtls/mbedtls/mbedtls-2.16.2/library\x509_crl.c ****         ( ret = mbedtls_x509_get_alg( &p, end, &crl->sig_oid, &sig_params1 ) ) != 0 )
 399:D:/fchai/work/i-cube/I-CUBE-HUAWEI/Middlewares/Third_Party/Huawei/iot_link/network/dtls/mbedtls/mbedtls-2.16.2/library\x509_crl.c ****     {
 400:D:/fchai/work/i-cube/I-CUBE-HUAWEI/Middlewares/Third_Party/Huawei/iot_link/network/dtls/mbedtls/mbedtls-2.16.2/library\x509_crl.c ****         mbedtls_x509_crl_free( crl );
 401:D:/fchai/work/i-cube/I-CUBE-HUAWEI/Middlewares/Third_Party/Huawei/iot_link/network/dtls/mbedtls/mbedtls-2.16.2/library\x509_crl.c ****         return( ret );
 402:D:/fchai/work/i-cube/I-CUBE-HUAWEI/Middlewares/Third_Party/Huawei/iot_link/network/dtls/mbedtls/mbedtls-2.16.2/library\x509_crl.c ****     }
 403:D:/fchai/work/i-cube/I-CUBE-HUAWEI/Middlewares/Third_Party/Huawei/iot_link/network/dtls/mbedtls/mbedtls-2.16.2/library\x509_crl.c **** 
 404:D:/fchai/work/i-cube/I-CUBE-HUAWEI/Middlewares/Third_Party/Huawei/iot_link/network/dtls/mbedtls/mbedtls-2.16.2/library\x509_crl.c ****     if( crl->version < 0 || crl->version > 1 )
 405:D:/fchai/work/i-cube/I-CUBE-HUAWEI/Middlewares/Third_Party/Huawei/iot_link/network/dtls/mbedtls/mbedtls-2.16.2/library\x509_crl.c ****     {
 406:D:/fchai/work/i-cube/I-CUBE-HUAWEI/Middlewares/Third_Party/Huawei/iot_link/network/dtls/mbedtls/mbedtls-2.16.2/library\x509_crl.c ****         mbedtls_x509_crl_free( crl );
 407:D:/fchai/work/i-cube/I-CUBE-HUAWEI/Middlewares/Third_Party/Huawei/iot_link/network/dtls/mbedtls/mbedtls-2.16.2/library\x509_crl.c ****         return( MBEDTLS_ERR_X509_UNKNOWN_VERSION );
 408:D:/fchai/work/i-cube/I-CUBE-HUAWEI/Middlewares/Third_Party/Huawei/iot_link/network/dtls/mbedtls/mbedtls-2.16.2/library\x509_crl.c ****     }
 409:D:/fchai/work/i-cube/I-CUBE-HUAWEI/Middlewares/Third_Party/Huawei/iot_link/network/dtls/mbedtls/mbedtls-2.16.2/library\x509_crl.c **** 
 410:D:/fchai/work/i-cube/I-CUBE-HUAWEI/Middlewares/Third_Party/Huawei/iot_link/network/dtls/mbedtls/mbedtls-2.16.2/library\x509_crl.c ****     crl->version++;
 411:D:/fchai/work/i-cube/I-CUBE-HUAWEI/Middlewares/Third_Party/Huawei/iot_link/network/dtls/mbedtls/mbedtls-2.16.2/library\x509_crl.c **** 
 412:D:/fchai/work/i-cube/I-CUBE-HUAWEI/Middlewares/Third_Party/Huawei/iot_link/network/dtls/mbedtls/mbedtls-2.16.2/library\x509_crl.c ****     if( ( ret = mbedtls_x509_get_sig_alg( &crl->sig_oid, &sig_params1,
 413:D:/fchai/work/i-cube/I-CUBE-HUAWEI/Middlewares/Third_Party/Huawei/iot_link/network/dtls/mbedtls/mbedtls-2.16.2/library\x509_crl.c ****                                   &crl->sig_md, &crl->sig_pk,
 414:D:/fchai/work/i-cube/I-CUBE-HUAWEI/Middlewares/Third_Party/Huawei/iot_link/network/dtls/mbedtls/mbedtls-2.16.2/library\x509_crl.c ****                                   &crl->sig_opts ) ) != 0 )
 415:D:/fchai/work/i-cube/I-CUBE-HUAWEI/Middlewares/Third_Party/Huawei/iot_link/network/dtls/mbedtls/mbedtls-2.16.2/library\x509_crl.c ****     {
 416:D:/fchai/work/i-cube/I-CUBE-HUAWEI/Middlewares/Third_Party/Huawei/iot_link/network/dtls/mbedtls/mbedtls-2.16.2/library\x509_crl.c ****         mbedtls_x509_crl_free( crl );
 417:D:/fchai/work/i-cube/I-CUBE-HUAWEI/Middlewares/Third_Party/Huawei/iot_link/network/dtls/mbedtls/mbedtls-2.16.2/library\x509_crl.c ****         return( MBEDTLS_ERR_X509_UNKNOWN_SIG_ALG );
 418:D:/fchai/work/i-cube/I-CUBE-HUAWEI/Middlewares/Third_Party/Huawei/iot_link/network/dtls/mbedtls/mbedtls-2.16.2/library\x509_crl.c ****     }
 419:D:/fchai/work/i-cube/I-CUBE-HUAWEI/Middlewares/Third_Party/Huawei/iot_link/network/dtls/mbedtls/mbedtls-2.16.2/library\x509_crl.c **** 
 420:D:/fchai/work/i-cube/I-CUBE-HUAWEI/Middlewares/Third_Party/Huawei/iot_link/network/dtls/mbedtls/mbedtls-2.16.2/library\x509_crl.c ****     /*
 421:D:/fchai/work/i-cube/I-CUBE-HUAWEI/Middlewares/Third_Party/Huawei/iot_link/network/dtls/mbedtls/mbedtls-2.16.2/library\x509_crl.c ****      * issuer               Name
 422:D:/fchai/work/i-cube/I-CUBE-HUAWEI/Middlewares/Third_Party/Huawei/iot_link/network/dtls/mbedtls/mbedtls-2.16.2/library\x509_crl.c ****      */
 423:D:/fchai/work/i-cube/I-CUBE-HUAWEI/Middlewares/Third_Party/Huawei/iot_link/network/dtls/mbedtls/mbedtls-2.16.2/library\x509_crl.c ****     crl->issuer_raw.p = p;
 424:D:/fchai/work/i-cube/I-CUBE-HUAWEI/Middlewares/Third_Party/Huawei/iot_link/network/dtls/mbedtls/mbedtls-2.16.2/library\x509_crl.c **** 
 425:D:/fchai/work/i-cube/I-CUBE-HUAWEI/Middlewares/Third_Party/Huawei/iot_link/network/dtls/mbedtls/mbedtls-2.16.2/library\x509_crl.c ****     if( ( ret = mbedtls_asn1_get_tag( &p, end, &len,
 426:D:/fchai/work/i-cube/I-CUBE-HUAWEI/Middlewares/Third_Party/Huawei/iot_link/network/dtls/mbedtls/mbedtls-2.16.2/library\x509_crl.c ****             MBEDTLS_ASN1_CONSTRUCTED | MBEDTLS_ASN1_SEQUENCE ) ) != 0 )
 427:D:/fchai/work/i-cube/I-CUBE-HUAWEI/Middlewares/Third_Party/Huawei/iot_link/network/dtls/mbedtls/mbedtls-2.16.2/library\x509_crl.c ****     {
 428:D:/fchai/work/i-cube/I-CUBE-HUAWEI/Middlewares/Third_Party/Huawei/iot_link/network/dtls/mbedtls/mbedtls-2.16.2/library\x509_crl.c ****         mbedtls_x509_crl_free( crl );
ARM GAS  T:\msys\tmp\ccGq53OE.s 			page 9


 429:D:/fchai/work/i-cube/I-CUBE-HUAWEI/Middlewares/Third_Party/Huawei/iot_link/network/dtls/mbedtls/mbedtls-2.16.2/library\x509_crl.c ****         return( MBEDTLS_ERR_X509_INVALID_FORMAT + ret );
 430:D:/fchai/work/i-cube/I-CUBE-HUAWEI/Middlewares/Third_Party/Huawei/iot_link/network/dtls/mbedtls/mbedtls-2.16.2/library\x509_crl.c ****     }
 431:D:/fchai/work/i-cube/I-CUBE-HUAWEI/Middlewares/Third_Party/Huawei/iot_link/network/dtls/mbedtls/mbedtls-2.16.2/library\x509_crl.c **** 
 432:D:/fchai/work/i-cube/I-CUBE-HUAWEI/Middlewares/Third_Party/Huawei/iot_link/network/dtls/mbedtls/mbedtls-2.16.2/library\x509_crl.c ****     if( ( ret = mbedtls_x509_get_name( &p, p + len, &crl->issuer ) ) != 0 )
 433:D:/fchai/work/i-cube/I-CUBE-HUAWEI/Middlewares/Third_Party/Huawei/iot_link/network/dtls/mbedtls/mbedtls-2.16.2/library\x509_crl.c ****     {
 434:D:/fchai/work/i-cube/I-CUBE-HUAWEI/Middlewares/Third_Party/Huawei/iot_link/network/dtls/mbedtls/mbedtls-2.16.2/library\x509_crl.c ****         mbedtls_x509_crl_free( crl );
 435:D:/fchai/work/i-cube/I-CUBE-HUAWEI/Middlewares/Third_Party/Huawei/iot_link/network/dtls/mbedtls/mbedtls-2.16.2/library\x509_crl.c ****         return( ret );
 436:D:/fchai/work/i-cube/I-CUBE-HUAWEI/Middlewares/Third_Party/Huawei/iot_link/network/dtls/mbedtls/mbedtls-2.16.2/library\x509_crl.c ****     }
 437:D:/fchai/work/i-cube/I-CUBE-HUAWEI/Middlewares/Third_Party/Huawei/iot_link/network/dtls/mbedtls/mbedtls-2.16.2/library\x509_crl.c **** 
 438:D:/fchai/work/i-cube/I-CUBE-HUAWEI/Middlewares/Third_Party/Huawei/iot_link/network/dtls/mbedtls/mbedtls-2.16.2/library\x509_crl.c ****     crl->issuer_raw.len = p - crl->issuer_raw.p;
 439:D:/fchai/work/i-cube/I-CUBE-HUAWEI/Middlewares/Third_Party/Huawei/iot_link/network/dtls/mbedtls/mbedtls-2.16.2/library\x509_crl.c **** 
 440:D:/fchai/work/i-cube/I-CUBE-HUAWEI/Middlewares/Third_Party/Huawei/iot_link/network/dtls/mbedtls/mbedtls-2.16.2/library\x509_crl.c ****     /*
 441:D:/fchai/work/i-cube/I-CUBE-HUAWEI/Middlewares/Third_Party/Huawei/iot_link/network/dtls/mbedtls/mbedtls-2.16.2/library\x509_crl.c ****      * thisUpdate          Time
 442:D:/fchai/work/i-cube/I-CUBE-HUAWEI/Middlewares/Third_Party/Huawei/iot_link/network/dtls/mbedtls/mbedtls-2.16.2/library\x509_crl.c ****      * nextUpdate          Time OPTIONAL
 443:D:/fchai/work/i-cube/I-CUBE-HUAWEI/Middlewares/Third_Party/Huawei/iot_link/network/dtls/mbedtls/mbedtls-2.16.2/library\x509_crl.c ****      */
 444:D:/fchai/work/i-cube/I-CUBE-HUAWEI/Middlewares/Third_Party/Huawei/iot_link/network/dtls/mbedtls/mbedtls-2.16.2/library\x509_crl.c ****     if( ( ret = mbedtls_x509_get_time( &p, end, &crl->this_update ) ) != 0 )
 445:D:/fchai/work/i-cube/I-CUBE-HUAWEI/Middlewares/Third_Party/Huawei/iot_link/network/dtls/mbedtls/mbedtls-2.16.2/library\x509_crl.c ****     {
 446:D:/fchai/work/i-cube/I-CUBE-HUAWEI/Middlewares/Third_Party/Huawei/iot_link/network/dtls/mbedtls/mbedtls-2.16.2/library\x509_crl.c ****         mbedtls_x509_crl_free( crl );
 447:D:/fchai/work/i-cube/I-CUBE-HUAWEI/Middlewares/Third_Party/Huawei/iot_link/network/dtls/mbedtls/mbedtls-2.16.2/library\x509_crl.c ****         return( ret );
 448:D:/fchai/work/i-cube/I-CUBE-HUAWEI/Middlewares/Third_Party/Huawei/iot_link/network/dtls/mbedtls/mbedtls-2.16.2/library\x509_crl.c ****     }
 449:D:/fchai/work/i-cube/I-CUBE-HUAWEI/Middlewares/Third_Party/Huawei/iot_link/network/dtls/mbedtls/mbedtls-2.16.2/library\x509_crl.c **** 
 450:D:/fchai/work/i-cube/I-CUBE-HUAWEI/Middlewares/Third_Party/Huawei/iot_link/network/dtls/mbedtls/mbedtls-2.16.2/library\x509_crl.c ****     if( ( ret = mbedtls_x509_get_time( &p, end, &crl->next_update ) ) != 0 )
 451:D:/fchai/work/i-cube/I-CUBE-HUAWEI/Middlewares/Third_Party/Huawei/iot_link/network/dtls/mbedtls/mbedtls-2.16.2/library\x509_crl.c ****     {
 452:D:/fchai/work/i-cube/I-CUBE-HUAWEI/Middlewares/Third_Party/Huawei/iot_link/network/dtls/mbedtls/mbedtls-2.16.2/library\x509_crl.c ****         if( ret != ( MBEDTLS_ERR_X509_INVALID_DATE +
 453:D:/fchai/work/i-cube/I-CUBE-HUAWEI/Middlewares/Third_Party/Huawei/iot_link/network/dtls/mbedtls/mbedtls-2.16.2/library\x509_crl.c ****                         MBEDTLS_ERR_ASN1_UNEXPECTED_TAG ) &&
 454:D:/fchai/work/i-cube/I-CUBE-HUAWEI/Middlewares/Third_Party/Huawei/iot_link/network/dtls/mbedtls/mbedtls-2.16.2/library\x509_crl.c ****             ret != ( MBEDTLS_ERR_X509_INVALID_DATE +
 455:D:/fchai/work/i-cube/I-CUBE-HUAWEI/Middlewares/Third_Party/Huawei/iot_link/network/dtls/mbedtls/mbedtls-2.16.2/library\x509_crl.c ****                         MBEDTLS_ERR_ASN1_OUT_OF_DATA ) )
 456:D:/fchai/work/i-cube/I-CUBE-HUAWEI/Middlewares/Third_Party/Huawei/iot_link/network/dtls/mbedtls/mbedtls-2.16.2/library\x509_crl.c ****         {
 457:D:/fchai/work/i-cube/I-CUBE-HUAWEI/Middlewares/Third_Party/Huawei/iot_link/network/dtls/mbedtls/mbedtls-2.16.2/library\x509_crl.c ****             mbedtls_x509_crl_free( crl );
 458:D:/fchai/work/i-cube/I-CUBE-HUAWEI/Middlewares/Third_Party/Huawei/iot_link/network/dtls/mbedtls/mbedtls-2.16.2/library\x509_crl.c ****             return( ret );
 459:D:/fchai/work/i-cube/I-CUBE-HUAWEI/Middlewares/Third_Party/Huawei/iot_link/network/dtls/mbedtls/mbedtls-2.16.2/library\x509_crl.c ****         }
 460:D:/fchai/work/i-cube/I-CUBE-HUAWEI/Middlewares/Third_Party/Huawei/iot_link/network/dtls/mbedtls/mbedtls-2.16.2/library\x509_crl.c ****     }
 461:D:/fchai/work/i-cube/I-CUBE-HUAWEI/Middlewares/Third_Party/Huawei/iot_link/network/dtls/mbedtls/mbedtls-2.16.2/library\x509_crl.c **** 
 462:D:/fchai/work/i-cube/I-CUBE-HUAWEI/Middlewares/Third_Party/Huawei/iot_link/network/dtls/mbedtls/mbedtls-2.16.2/library\x509_crl.c ****     /*
 463:D:/fchai/work/i-cube/I-CUBE-HUAWEI/Middlewares/Third_Party/Huawei/iot_link/network/dtls/mbedtls/mbedtls-2.16.2/library\x509_crl.c ****      * revokedCertificates    SEQUENCE OF SEQUENCE   {
 464:D:/fchai/work/i-cube/I-CUBE-HUAWEI/Middlewares/Third_Party/Huawei/iot_link/network/dtls/mbedtls/mbedtls-2.16.2/library\x509_crl.c ****      *      userCertificate        CertificateSerialNumber,
 465:D:/fchai/work/i-cube/I-CUBE-HUAWEI/Middlewares/Third_Party/Huawei/iot_link/network/dtls/mbedtls/mbedtls-2.16.2/library\x509_crl.c ****      *      revocationDate         Time,
 466:D:/fchai/work/i-cube/I-CUBE-HUAWEI/Middlewares/Third_Party/Huawei/iot_link/network/dtls/mbedtls/mbedtls-2.16.2/library\x509_crl.c ****      *      crlEntryExtensions     Extensions OPTIONAL
 467:D:/fchai/work/i-cube/I-CUBE-HUAWEI/Middlewares/Third_Party/Huawei/iot_link/network/dtls/mbedtls/mbedtls-2.16.2/library\x509_crl.c ****      *                                   -- if present, MUST be v2
 468:D:/fchai/work/i-cube/I-CUBE-HUAWEI/Middlewares/Third_Party/Huawei/iot_link/network/dtls/mbedtls/mbedtls-2.16.2/library\x509_crl.c ****      *                        } OPTIONAL
 469:D:/fchai/work/i-cube/I-CUBE-HUAWEI/Middlewares/Third_Party/Huawei/iot_link/network/dtls/mbedtls/mbedtls-2.16.2/library\x509_crl.c ****      */
 470:D:/fchai/work/i-cube/I-CUBE-HUAWEI/Middlewares/Third_Party/Huawei/iot_link/network/dtls/mbedtls/mbedtls-2.16.2/library\x509_crl.c ****     if( ( ret = x509_get_entries( &p, end, &crl->entry ) ) != 0 )
 471:D:/fchai/work/i-cube/I-CUBE-HUAWEI/Middlewares/Third_Party/Huawei/iot_link/network/dtls/mbedtls/mbedtls-2.16.2/library\x509_crl.c ****     {
 472:D:/fchai/work/i-cube/I-CUBE-HUAWEI/Middlewares/Third_Party/Huawei/iot_link/network/dtls/mbedtls/mbedtls-2.16.2/library\x509_crl.c ****         mbedtls_x509_crl_free( crl );
 473:D:/fchai/work/i-cube/I-CUBE-HUAWEI/Middlewares/Third_Party/Huawei/iot_link/network/dtls/mbedtls/mbedtls-2.16.2/library\x509_crl.c ****         return( ret );
 474:D:/fchai/work/i-cube/I-CUBE-HUAWEI/Middlewares/Third_Party/Huawei/iot_link/network/dtls/mbedtls/mbedtls-2.16.2/library\x509_crl.c ****     }
 475:D:/fchai/work/i-cube/I-CUBE-HUAWEI/Middlewares/Third_Party/Huawei/iot_link/network/dtls/mbedtls/mbedtls-2.16.2/library\x509_crl.c **** 
 476:D:/fchai/work/i-cube/I-CUBE-HUAWEI/Middlewares/Third_Party/Huawei/iot_link/network/dtls/mbedtls/mbedtls-2.16.2/library\x509_crl.c ****     /*
 477:D:/fchai/work/i-cube/I-CUBE-HUAWEI/Middlewares/Third_Party/Huawei/iot_link/network/dtls/mbedtls/mbedtls-2.16.2/library\x509_crl.c ****      * crlExtensions          EXPLICIT Extensions OPTIONAL
 478:D:/fchai/work/i-cube/I-CUBE-HUAWEI/Middlewares/Third_Party/Huawei/iot_link/network/dtls/mbedtls/mbedtls-2.16.2/library\x509_crl.c ****      *                              -- if present, MUST be v2
 479:D:/fchai/work/i-cube/I-CUBE-HUAWEI/Middlewares/Third_Party/Huawei/iot_link/network/dtls/mbedtls/mbedtls-2.16.2/library\x509_crl.c ****      */
 480:D:/fchai/work/i-cube/I-CUBE-HUAWEI/Middlewares/Third_Party/Huawei/iot_link/network/dtls/mbedtls/mbedtls-2.16.2/library\x509_crl.c ****     if( crl->version == 2 )
 481:D:/fchai/work/i-cube/I-CUBE-HUAWEI/Middlewares/Third_Party/Huawei/iot_link/network/dtls/mbedtls/mbedtls-2.16.2/library\x509_crl.c ****     {
 482:D:/fchai/work/i-cube/I-CUBE-HUAWEI/Middlewares/Third_Party/Huawei/iot_link/network/dtls/mbedtls/mbedtls-2.16.2/library\x509_crl.c ****         ret = x509_get_crl_ext( &p, end, &crl->crl_ext );
 483:D:/fchai/work/i-cube/I-CUBE-HUAWEI/Middlewares/Third_Party/Huawei/iot_link/network/dtls/mbedtls/mbedtls-2.16.2/library\x509_crl.c **** 
 484:D:/fchai/work/i-cube/I-CUBE-HUAWEI/Middlewares/Third_Party/Huawei/iot_link/network/dtls/mbedtls/mbedtls-2.16.2/library\x509_crl.c ****         if( ret != 0 )
 485:D:/fchai/work/i-cube/I-CUBE-HUAWEI/Middlewares/Third_Party/Huawei/iot_link/network/dtls/mbedtls/mbedtls-2.16.2/library\x509_crl.c ****         {
ARM GAS  T:\msys\tmp\ccGq53OE.s 			page 10


 486:D:/fchai/work/i-cube/I-CUBE-HUAWEI/Middlewares/Third_Party/Huawei/iot_link/network/dtls/mbedtls/mbedtls-2.16.2/library\x509_crl.c ****             mbedtls_x509_crl_free( crl );
 487:D:/fchai/work/i-cube/I-CUBE-HUAWEI/Middlewares/Third_Party/Huawei/iot_link/network/dtls/mbedtls/mbedtls-2.16.2/library\x509_crl.c ****             return( ret );
 488:D:/fchai/work/i-cube/I-CUBE-HUAWEI/Middlewares/Third_Party/Huawei/iot_link/network/dtls/mbedtls/mbedtls-2.16.2/library\x509_crl.c ****         }
 489:D:/fchai/work/i-cube/I-CUBE-HUAWEI/Middlewares/Third_Party/Huawei/iot_link/network/dtls/mbedtls/mbedtls-2.16.2/library\x509_crl.c ****     }
 490:D:/fchai/work/i-cube/I-CUBE-HUAWEI/Middlewares/Third_Party/Huawei/iot_link/network/dtls/mbedtls/mbedtls-2.16.2/library\x509_crl.c **** 
 491:D:/fchai/work/i-cube/I-CUBE-HUAWEI/Middlewares/Third_Party/Huawei/iot_link/network/dtls/mbedtls/mbedtls-2.16.2/library\x509_crl.c ****     if( p != end )
 492:D:/fchai/work/i-cube/I-CUBE-HUAWEI/Middlewares/Third_Party/Huawei/iot_link/network/dtls/mbedtls/mbedtls-2.16.2/library\x509_crl.c ****     {
 493:D:/fchai/work/i-cube/I-CUBE-HUAWEI/Middlewares/Third_Party/Huawei/iot_link/network/dtls/mbedtls/mbedtls-2.16.2/library\x509_crl.c ****         mbedtls_x509_crl_free( crl );
 494:D:/fchai/work/i-cube/I-CUBE-HUAWEI/Middlewares/Third_Party/Huawei/iot_link/network/dtls/mbedtls/mbedtls-2.16.2/library\x509_crl.c ****         return( MBEDTLS_ERR_X509_INVALID_FORMAT +
 495:D:/fchai/work/i-cube/I-CUBE-HUAWEI/Middlewares/Third_Party/Huawei/iot_link/network/dtls/mbedtls/mbedtls-2.16.2/library\x509_crl.c ****                 MBEDTLS_ERR_ASN1_LENGTH_MISMATCH );
 496:D:/fchai/work/i-cube/I-CUBE-HUAWEI/Middlewares/Third_Party/Huawei/iot_link/network/dtls/mbedtls/mbedtls-2.16.2/library\x509_crl.c ****     }
 497:D:/fchai/work/i-cube/I-CUBE-HUAWEI/Middlewares/Third_Party/Huawei/iot_link/network/dtls/mbedtls/mbedtls-2.16.2/library\x509_crl.c **** 
 498:D:/fchai/work/i-cube/I-CUBE-HUAWEI/Middlewares/Third_Party/Huawei/iot_link/network/dtls/mbedtls/mbedtls-2.16.2/library\x509_crl.c ****     end = crl->raw.p + crl->raw.len;
 499:D:/fchai/work/i-cube/I-CUBE-HUAWEI/Middlewares/Third_Party/Huawei/iot_link/network/dtls/mbedtls/mbedtls-2.16.2/library\x509_crl.c **** 
 500:D:/fchai/work/i-cube/I-CUBE-HUAWEI/Middlewares/Third_Party/Huawei/iot_link/network/dtls/mbedtls/mbedtls-2.16.2/library\x509_crl.c ****     /*
 501:D:/fchai/work/i-cube/I-CUBE-HUAWEI/Middlewares/Third_Party/Huawei/iot_link/network/dtls/mbedtls/mbedtls-2.16.2/library\x509_crl.c ****      *  signatureAlgorithm   AlgorithmIdentifier,
 502:D:/fchai/work/i-cube/I-CUBE-HUAWEI/Middlewares/Third_Party/Huawei/iot_link/network/dtls/mbedtls/mbedtls-2.16.2/library\x509_crl.c ****      *  signatureValue       BIT STRING
 503:D:/fchai/work/i-cube/I-CUBE-HUAWEI/Middlewares/Third_Party/Huawei/iot_link/network/dtls/mbedtls/mbedtls-2.16.2/library\x509_crl.c ****      */
 504:D:/fchai/work/i-cube/I-CUBE-HUAWEI/Middlewares/Third_Party/Huawei/iot_link/network/dtls/mbedtls/mbedtls-2.16.2/library\x509_crl.c ****     if( ( ret = mbedtls_x509_get_alg( &p, end, &sig_oid2, &sig_params2 ) ) != 0 )
 505:D:/fchai/work/i-cube/I-CUBE-HUAWEI/Middlewares/Third_Party/Huawei/iot_link/network/dtls/mbedtls/mbedtls-2.16.2/library\x509_crl.c ****     {
 506:D:/fchai/work/i-cube/I-CUBE-HUAWEI/Middlewares/Third_Party/Huawei/iot_link/network/dtls/mbedtls/mbedtls-2.16.2/library\x509_crl.c ****         mbedtls_x509_crl_free( crl );
 507:D:/fchai/work/i-cube/I-CUBE-HUAWEI/Middlewares/Third_Party/Huawei/iot_link/network/dtls/mbedtls/mbedtls-2.16.2/library\x509_crl.c ****         return( ret );
 508:D:/fchai/work/i-cube/I-CUBE-HUAWEI/Middlewares/Third_Party/Huawei/iot_link/network/dtls/mbedtls/mbedtls-2.16.2/library\x509_crl.c ****     }
 509:D:/fchai/work/i-cube/I-CUBE-HUAWEI/Middlewares/Third_Party/Huawei/iot_link/network/dtls/mbedtls/mbedtls-2.16.2/library\x509_crl.c **** 
 510:D:/fchai/work/i-cube/I-CUBE-HUAWEI/Middlewares/Third_Party/Huawei/iot_link/network/dtls/mbedtls/mbedtls-2.16.2/library\x509_crl.c ****     if( crl->sig_oid.len != sig_oid2.len ||
 511:D:/fchai/work/i-cube/I-CUBE-HUAWEI/Middlewares/Third_Party/Huawei/iot_link/network/dtls/mbedtls/mbedtls-2.16.2/library\x509_crl.c ****         memcmp( crl->sig_oid.p, sig_oid2.p, crl->sig_oid.len ) != 0 ||
 512:D:/fchai/work/i-cube/I-CUBE-HUAWEI/Middlewares/Third_Party/Huawei/iot_link/network/dtls/mbedtls/mbedtls-2.16.2/library\x509_crl.c ****         sig_params1.len != sig_params2.len ||
 513:D:/fchai/work/i-cube/I-CUBE-HUAWEI/Middlewares/Third_Party/Huawei/iot_link/network/dtls/mbedtls/mbedtls-2.16.2/library\x509_crl.c ****         ( sig_params1.len != 0 &&
 514:D:/fchai/work/i-cube/I-CUBE-HUAWEI/Middlewares/Third_Party/Huawei/iot_link/network/dtls/mbedtls/mbedtls-2.16.2/library\x509_crl.c ****           memcmp( sig_params1.p, sig_params2.p, sig_params1.len ) != 0 ) )
 515:D:/fchai/work/i-cube/I-CUBE-HUAWEI/Middlewares/Third_Party/Huawei/iot_link/network/dtls/mbedtls/mbedtls-2.16.2/library\x509_crl.c ****     {
 516:D:/fchai/work/i-cube/I-CUBE-HUAWEI/Middlewares/Third_Party/Huawei/iot_link/network/dtls/mbedtls/mbedtls-2.16.2/library\x509_crl.c ****         mbedtls_x509_crl_free( crl );
 517:D:/fchai/work/i-cube/I-CUBE-HUAWEI/Middlewares/Third_Party/Huawei/iot_link/network/dtls/mbedtls/mbedtls-2.16.2/library\x509_crl.c ****         return( MBEDTLS_ERR_X509_SIG_MISMATCH );
 518:D:/fchai/work/i-cube/I-CUBE-HUAWEI/Middlewares/Third_Party/Huawei/iot_link/network/dtls/mbedtls/mbedtls-2.16.2/library\x509_crl.c ****     }
 519:D:/fchai/work/i-cube/I-CUBE-HUAWEI/Middlewares/Third_Party/Huawei/iot_link/network/dtls/mbedtls/mbedtls-2.16.2/library\x509_crl.c **** 
 520:D:/fchai/work/i-cube/I-CUBE-HUAWEI/Middlewares/Third_Party/Huawei/iot_link/network/dtls/mbedtls/mbedtls-2.16.2/library\x509_crl.c ****     if( ( ret = mbedtls_x509_get_sig( &p, end, &crl->sig ) ) != 0 )
 521:D:/fchai/work/i-cube/I-CUBE-HUAWEI/Middlewares/Third_Party/Huawei/iot_link/network/dtls/mbedtls/mbedtls-2.16.2/library\x509_crl.c ****     {
 522:D:/fchai/work/i-cube/I-CUBE-HUAWEI/Middlewares/Third_Party/Huawei/iot_link/network/dtls/mbedtls/mbedtls-2.16.2/library\x509_crl.c ****         mbedtls_x509_crl_free( crl );
 523:D:/fchai/work/i-cube/I-CUBE-HUAWEI/Middlewares/Third_Party/Huawei/iot_link/network/dtls/mbedtls/mbedtls-2.16.2/library\x509_crl.c ****         return( ret );
 524:D:/fchai/work/i-cube/I-CUBE-HUAWEI/Middlewares/Third_Party/Huawei/iot_link/network/dtls/mbedtls/mbedtls-2.16.2/library\x509_crl.c ****     }
 525:D:/fchai/work/i-cube/I-CUBE-HUAWEI/Middlewares/Third_Party/Huawei/iot_link/network/dtls/mbedtls/mbedtls-2.16.2/library\x509_crl.c **** 
 526:D:/fchai/work/i-cube/I-CUBE-HUAWEI/Middlewares/Third_Party/Huawei/iot_link/network/dtls/mbedtls/mbedtls-2.16.2/library\x509_crl.c ****     if( p != end )
 527:D:/fchai/work/i-cube/I-CUBE-HUAWEI/Middlewares/Third_Party/Huawei/iot_link/network/dtls/mbedtls/mbedtls-2.16.2/library\x509_crl.c ****     {
 528:D:/fchai/work/i-cube/I-CUBE-HUAWEI/Middlewares/Third_Party/Huawei/iot_link/network/dtls/mbedtls/mbedtls-2.16.2/library\x509_crl.c ****         mbedtls_x509_crl_free( crl );
 529:D:/fchai/work/i-cube/I-CUBE-HUAWEI/Middlewares/Third_Party/Huawei/iot_link/network/dtls/mbedtls/mbedtls-2.16.2/library\x509_crl.c ****         return( MBEDTLS_ERR_X509_INVALID_FORMAT +
 530:D:/fchai/work/i-cube/I-CUBE-HUAWEI/Middlewares/Third_Party/Huawei/iot_link/network/dtls/mbedtls/mbedtls-2.16.2/library\x509_crl.c ****                 MBEDTLS_ERR_ASN1_LENGTH_MISMATCH );
 531:D:/fchai/work/i-cube/I-CUBE-HUAWEI/Middlewares/Third_Party/Huawei/iot_link/network/dtls/mbedtls/mbedtls-2.16.2/library\x509_crl.c ****     }
 532:D:/fchai/work/i-cube/I-CUBE-HUAWEI/Middlewares/Third_Party/Huawei/iot_link/network/dtls/mbedtls/mbedtls-2.16.2/library\x509_crl.c **** 
 533:D:/fchai/work/i-cube/I-CUBE-HUAWEI/Middlewares/Third_Party/Huawei/iot_link/network/dtls/mbedtls/mbedtls-2.16.2/library\x509_crl.c ****     return( 0 );
 534:D:/fchai/work/i-cube/I-CUBE-HUAWEI/Middlewares/Third_Party/Huawei/iot_link/network/dtls/mbedtls/mbedtls-2.16.2/library\x509_crl.c **** }
 535:D:/fchai/work/i-cube/I-CUBE-HUAWEI/Middlewares/Third_Party/Huawei/iot_link/network/dtls/mbedtls/mbedtls-2.16.2/library\x509_crl.c **** 
 536:D:/fchai/work/i-cube/I-CUBE-HUAWEI/Middlewares/Third_Party/Huawei/iot_link/network/dtls/mbedtls/mbedtls-2.16.2/library\x509_crl.c **** /*
 537:D:/fchai/work/i-cube/I-CUBE-HUAWEI/Middlewares/Third_Party/Huawei/iot_link/network/dtls/mbedtls/mbedtls-2.16.2/library\x509_crl.c ****  * Parse one or more CRLs and add them to the chained list
 538:D:/fchai/work/i-cube/I-CUBE-HUAWEI/Middlewares/Third_Party/Huawei/iot_link/network/dtls/mbedtls/mbedtls-2.16.2/library\x509_crl.c ****  */
 539:D:/fchai/work/i-cube/I-CUBE-HUAWEI/Middlewares/Third_Party/Huawei/iot_link/network/dtls/mbedtls/mbedtls-2.16.2/library\x509_crl.c **** int mbedtls_x509_crl_parse( mbedtls_x509_crl *chain, const unsigned char *buf, size_t buflen )
 540:D:/fchai/work/i-cube/I-CUBE-HUAWEI/Middlewares/Third_Party/Huawei/iot_link/network/dtls/mbedtls/mbedtls-2.16.2/library\x509_crl.c **** {
 541:D:/fchai/work/i-cube/I-CUBE-HUAWEI/Middlewares/Third_Party/Huawei/iot_link/network/dtls/mbedtls/mbedtls-2.16.2/library\x509_crl.c **** #if defined(MBEDTLS_PEM_PARSE_C)
 542:D:/fchai/work/i-cube/I-CUBE-HUAWEI/Middlewares/Third_Party/Huawei/iot_link/network/dtls/mbedtls/mbedtls-2.16.2/library\x509_crl.c ****     int ret;
ARM GAS  T:\msys\tmp\ccGq53OE.s 			page 11


 543:D:/fchai/work/i-cube/I-CUBE-HUAWEI/Middlewares/Third_Party/Huawei/iot_link/network/dtls/mbedtls/mbedtls-2.16.2/library\x509_crl.c ****     size_t use_len;
 544:D:/fchai/work/i-cube/I-CUBE-HUAWEI/Middlewares/Third_Party/Huawei/iot_link/network/dtls/mbedtls/mbedtls-2.16.2/library\x509_crl.c ****     mbedtls_pem_context pem;
 545:D:/fchai/work/i-cube/I-CUBE-HUAWEI/Middlewares/Third_Party/Huawei/iot_link/network/dtls/mbedtls/mbedtls-2.16.2/library\x509_crl.c ****     int is_pem = 0;
 546:D:/fchai/work/i-cube/I-CUBE-HUAWEI/Middlewares/Third_Party/Huawei/iot_link/network/dtls/mbedtls/mbedtls-2.16.2/library\x509_crl.c **** 
 547:D:/fchai/work/i-cube/I-CUBE-HUAWEI/Middlewares/Third_Party/Huawei/iot_link/network/dtls/mbedtls/mbedtls-2.16.2/library\x509_crl.c ****     if( chain == NULL || buf == NULL )
 548:D:/fchai/work/i-cube/I-CUBE-HUAWEI/Middlewares/Third_Party/Huawei/iot_link/network/dtls/mbedtls/mbedtls-2.16.2/library\x509_crl.c ****         return( MBEDTLS_ERR_X509_BAD_INPUT_DATA );
 549:D:/fchai/work/i-cube/I-CUBE-HUAWEI/Middlewares/Third_Party/Huawei/iot_link/network/dtls/mbedtls/mbedtls-2.16.2/library\x509_crl.c **** 
 550:D:/fchai/work/i-cube/I-CUBE-HUAWEI/Middlewares/Third_Party/Huawei/iot_link/network/dtls/mbedtls/mbedtls-2.16.2/library\x509_crl.c ****     do
 551:D:/fchai/work/i-cube/I-CUBE-HUAWEI/Middlewares/Third_Party/Huawei/iot_link/network/dtls/mbedtls/mbedtls-2.16.2/library\x509_crl.c ****     {
 552:D:/fchai/work/i-cube/I-CUBE-HUAWEI/Middlewares/Third_Party/Huawei/iot_link/network/dtls/mbedtls/mbedtls-2.16.2/library\x509_crl.c ****         mbedtls_pem_init( &pem );
 553:D:/fchai/work/i-cube/I-CUBE-HUAWEI/Middlewares/Third_Party/Huawei/iot_link/network/dtls/mbedtls/mbedtls-2.16.2/library\x509_crl.c **** 
 554:D:/fchai/work/i-cube/I-CUBE-HUAWEI/Middlewares/Third_Party/Huawei/iot_link/network/dtls/mbedtls/mbedtls-2.16.2/library\x509_crl.c ****         // Avoid calling mbedtls_pem_read_buffer() on non-null-terminated
 555:D:/fchai/work/i-cube/I-CUBE-HUAWEI/Middlewares/Third_Party/Huawei/iot_link/network/dtls/mbedtls/mbedtls-2.16.2/library\x509_crl.c ****         // string
 556:D:/fchai/work/i-cube/I-CUBE-HUAWEI/Middlewares/Third_Party/Huawei/iot_link/network/dtls/mbedtls/mbedtls-2.16.2/library\x509_crl.c ****         if( buflen == 0 || buf[buflen - 1] != '\0' )
 557:D:/fchai/work/i-cube/I-CUBE-HUAWEI/Middlewares/Third_Party/Huawei/iot_link/network/dtls/mbedtls/mbedtls-2.16.2/library\x509_crl.c ****             ret = MBEDTLS_ERR_PEM_NO_HEADER_FOOTER_PRESENT;
 558:D:/fchai/work/i-cube/I-CUBE-HUAWEI/Middlewares/Third_Party/Huawei/iot_link/network/dtls/mbedtls/mbedtls-2.16.2/library\x509_crl.c ****         else
 559:D:/fchai/work/i-cube/I-CUBE-HUAWEI/Middlewares/Third_Party/Huawei/iot_link/network/dtls/mbedtls/mbedtls-2.16.2/library\x509_crl.c ****             ret = mbedtls_pem_read_buffer( &pem,
 560:D:/fchai/work/i-cube/I-CUBE-HUAWEI/Middlewares/Third_Party/Huawei/iot_link/network/dtls/mbedtls/mbedtls-2.16.2/library\x509_crl.c ****                                            "-----BEGIN X509 CRL-----",
 561:D:/fchai/work/i-cube/I-CUBE-HUAWEI/Middlewares/Third_Party/Huawei/iot_link/network/dtls/mbedtls/mbedtls-2.16.2/library\x509_crl.c ****                                            "-----END X509 CRL-----",
 562:D:/fchai/work/i-cube/I-CUBE-HUAWEI/Middlewares/Third_Party/Huawei/iot_link/network/dtls/mbedtls/mbedtls-2.16.2/library\x509_crl.c ****                                             buf, NULL, 0, &use_len );
 563:D:/fchai/work/i-cube/I-CUBE-HUAWEI/Middlewares/Third_Party/Huawei/iot_link/network/dtls/mbedtls/mbedtls-2.16.2/library\x509_crl.c **** 
 564:D:/fchai/work/i-cube/I-CUBE-HUAWEI/Middlewares/Third_Party/Huawei/iot_link/network/dtls/mbedtls/mbedtls-2.16.2/library\x509_crl.c ****         if( ret == 0 )
 565:D:/fchai/work/i-cube/I-CUBE-HUAWEI/Middlewares/Third_Party/Huawei/iot_link/network/dtls/mbedtls/mbedtls-2.16.2/library\x509_crl.c ****         {
 566:D:/fchai/work/i-cube/I-CUBE-HUAWEI/Middlewares/Third_Party/Huawei/iot_link/network/dtls/mbedtls/mbedtls-2.16.2/library\x509_crl.c ****             /*
 567:D:/fchai/work/i-cube/I-CUBE-HUAWEI/Middlewares/Third_Party/Huawei/iot_link/network/dtls/mbedtls/mbedtls-2.16.2/library\x509_crl.c ****              * Was PEM encoded
 568:D:/fchai/work/i-cube/I-CUBE-HUAWEI/Middlewares/Third_Party/Huawei/iot_link/network/dtls/mbedtls/mbedtls-2.16.2/library\x509_crl.c ****              */
 569:D:/fchai/work/i-cube/I-CUBE-HUAWEI/Middlewares/Third_Party/Huawei/iot_link/network/dtls/mbedtls/mbedtls-2.16.2/library\x509_crl.c ****             is_pem = 1;
 570:D:/fchai/work/i-cube/I-CUBE-HUAWEI/Middlewares/Third_Party/Huawei/iot_link/network/dtls/mbedtls/mbedtls-2.16.2/library\x509_crl.c **** 
 571:D:/fchai/work/i-cube/I-CUBE-HUAWEI/Middlewares/Third_Party/Huawei/iot_link/network/dtls/mbedtls/mbedtls-2.16.2/library\x509_crl.c ****             buflen -= use_len;
 572:D:/fchai/work/i-cube/I-CUBE-HUAWEI/Middlewares/Third_Party/Huawei/iot_link/network/dtls/mbedtls/mbedtls-2.16.2/library\x509_crl.c ****             buf += use_len;
 573:D:/fchai/work/i-cube/I-CUBE-HUAWEI/Middlewares/Third_Party/Huawei/iot_link/network/dtls/mbedtls/mbedtls-2.16.2/library\x509_crl.c **** 
 574:D:/fchai/work/i-cube/I-CUBE-HUAWEI/Middlewares/Third_Party/Huawei/iot_link/network/dtls/mbedtls/mbedtls-2.16.2/library\x509_crl.c ****             if( ( ret = mbedtls_x509_crl_parse_der( chain,
 575:D:/fchai/work/i-cube/I-CUBE-HUAWEI/Middlewares/Third_Party/Huawei/iot_link/network/dtls/mbedtls/mbedtls-2.16.2/library\x509_crl.c ****                                             pem.buf, pem.buflen ) ) != 0 )
 576:D:/fchai/work/i-cube/I-CUBE-HUAWEI/Middlewares/Third_Party/Huawei/iot_link/network/dtls/mbedtls/mbedtls-2.16.2/library\x509_crl.c ****             {
 577:D:/fchai/work/i-cube/I-CUBE-HUAWEI/Middlewares/Third_Party/Huawei/iot_link/network/dtls/mbedtls/mbedtls-2.16.2/library\x509_crl.c ****                 mbedtls_pem_free( &pem );
 578:D:/fchai/work/i-cube/I-CUBE-HUAWEI/Middlewares/Third_Party/Huawei/iot_link/network/dtls/mbedtls/mbedtls-2.16.2/library\x509_crl.c ****                 return( ret );
 579:D:/fchai/work/i-cube/I-CUBE-HUAWEI/Middlewares/Third_Party/Huawei/iot_link/network/dtls/mbedtls/mbedtls-2.16.2/library\x509_crl.c ****             }
 580:D:/fchai/work/i-cube/I-CUBE-HUAWEI/Middlewares/Third_Party/Huawei/iot_link/network/dtls/mbedtls/mbedtls-2.16.2/library\x509_crl.c ****         }
 581:D:/fchai/work/i-cube/I-CUBE-HUAWEI/Middlewares/Third_Party/Huawei/iot_link/network/dtls/mbedtls/mbedtls-2.16.2/library\x509_crl.c ****         else if( is_pem )
 582:D:/fchai/work/i-cube/I-CUBE-HUAWEI/Middlewares/Third_Party/Huawei/iot_link/network/dtls/mbedtls/mbedtls-2.16.2/library\x509_crl.c ****         {
 583:D:/fchai/work/i-cube/I-CUBE-HUAWEI/Middlewares/Third_Party/Huawei/iot_link/network/dtls/mbedtls/mbedtls-2.16.2/library\x509_crl.c ****             mbedtls_pem_free( &pem );
 584:D:/fchai/work/i-cube/I-CUBE-HUAWEI/Middlewares/Third_Party/Huawei/iot_link/network/dtls/mbedtls/mbedtls-2.16.2/library\x509_crl.c ****             return( ret );
 585:D:/fchai/work/i-cube/I-CUBE-HUAWEI/Middlewares/Third_Party/Huawei/iot_link/network/dtls/mbedtls/mbedtls-2.16.2/library\x509_crl.c ****         }
 586:D:/fchai/work/i-cube/I-CUBE-HUAWEI/Middlewares/Third_Party/Huawei/iot_link/network/dtls/mbedtls/mbedtls-2.16.2/library\x509_crl.c **** 
 587:D:/fchai/work/i-cube/I-CUBE-HUAWEI/Middlewares/Third_Party/Huawei/iot_link/network/dtls/mbedtls/mbedtls-2.16.2/library\x509_crl.c ****         mbedtls_pem_free( &pem );
 588:D:/fchai/work/i-cube/I-CUBE-HUAWEI/Middlewares/Third_Party/Huawei/iot_link/network/dtls/mbedtls/mbedtls-2.16.2/library\x509_crl.c ****     }
 589:D:/fchai/work/i-cube/I-CUBE-HUAWEI/Middlewares/Third_Party/Huawei/iot_link/network/dtls/mbedtls/mbedtls-2.16.2/library\x509_crl.c ****     /* In the PEM case, buflen is 1 at the end, for the terminated NULL byte.
 590:D:/fchai/work/i-cube/I-CUBE-HUAWEI/Middlewares/Third_Party/Huawei/iot_link/network/dtls/mbedtls/mbedtls-2.16.2/library\x509_crl.c ****      * And a valid CRL cannot be less than 1 byte anyway. */
 591:D:/fchai/work/i-cube/I-CUBE-HUAWEI/Middlewares/Third_Party/Huawei/iot_link/network/dtls/mbedtls/mbedtls-2.16.2/library\x509_crl.c ****     while( is_pem && buflen > 1 );
 592:D:/fchai/work/i-cube/I-CUBE-HUAWEI/Middlewares/Third_Party/Huawei/iot_link/network/dtls/mbedtls/mbedtls-2.16.2/library\x509_crl.c **** 
 593:D:/fchai/work/i-cube/I-CUBE-HUAWEI/Middlewares/Third_Party/Huawei/iot_link/network/dtls/mbedtls/mbedtls-2.16.2/library\x509_crl.c ****     if( is_pem )
 594:D:/fchai/work/i-cube/I-CUBE-HUAWEI/Middlewares/Third_Party/Huawei/iot_link/network/dtls/mbedtls/mbedtls-2.16.2/library\x509_crl.c ****         return( 0 );
 595:D:/fchai/work/i-cube/I-CUBE-HUAWEI/Middlewares/Third_Party/Huawei/iot_link/network/dtls/mbedtls/mbedtls-2.16.2/library\x509_crl.c ****     else
 596:D:/fchai/work/i-cube/I-CUBE-HUAWEI/Middlewares/Third_Party/Huawei/iot_link/network/dtls/mbedtls/mbedtls-2.16.2/library\x509_crl.c **** #endif /* MBEDTLS_PEM_PARSE_C */
 597:D:/fchai/work/i-cube/I-CUBE-HUAWEI/Middlewares/Third_Party/Huawei/iot_link/network/dtls/mbedtls/mbedtls-2.16.2/library\x509_crl.c ****         return( mbedtls_x509_crl_parse_der( chain, buf, buflen ) );
 598:D:/fchai/work/i-cube/I-CUBE-HUAWEI/Middlewares/Third_Party/Huawei/iot_link/network/dtls/mbedtls/mbedtls-2.16.2/library\x509_crl.c **** }
 599:D:/fchai/work/i-cube/I-CUBE-HUAWEI/Middlewares/Third_Party/Huawei/iot_link/network/dtls/mbedtls/mbedtls-2.16.2/library\x509_crl.c **** 
ARM GAS  T:\msys\tmp\ccGq53OE.s 			page 12


 600:D:/fchai/work/i-cube/I-CUBE-HUAWEI/Middlewares/Third_Party/Huawei/iot_link/network/dtls/mbedtls/mbedtls-2.16.2/library\x509_crl.c **** #if defined(MBEDTLS_FS_IO)
 601:D:/fchai/work/i-cube/I-CUBE-HUAWEI/Middlewares/Third_Party/Huawei/iot_link/network/dtls/mbedtls/mbedtls-2.16.2/library\x509_crl.c **** /*
 602:D:/fchai/work/i-cube/I-CUBE-HUAWEI/Middlewares/Third_Party/Huawei/iot_link/network/dtls/mbedtls/mbedtls-2.16.2/library\x509_crl.c ****  * Load one or more CRLs and add them to the chained list
 603:D:/fchai/work/i-cube/I-CUBE-HUAWEI/Middlewares/Third_Party/Huawei/iot_link/network/dtls/mbedtls/mbedtls-2.16.2/library\x509_crl.c ****  */
 604:D:/fchai/work/i-cube/I-CUBE-HUAWEI/Middlewares/Third_Party/Huawei/iot_link/network/dtls/mbedtls/mbedtls-2.16.2/library\x509_crl.c **** int mbedtls_x509_crl_parse_file( mbedtls_x509_crl *chain, const char *path )
 605:D:/fchai/work/i-cube/I-CUBE-HUAWEI/Middlewares/Third_Party/Huawei/iot_link/network/dtls/mbedtls/mbedtls-2.16.2/library\x509_crl.c **** {
 606:D:/fchai/work/i-cube/I-CUBE-HUAWEI/Middlewares/Third_Party/Huawei/iot_link/network/dtls/mbedtls/mbedtls-2.16.2/library\x509_crl.c ****     int ret;
 607:D:/fchai/work/i-cube/I-CUBE-HUAWEI/Middlewares/Third_Party/Huawei/iot_link/network/dtls/mbedtls/mbedtls-2.16.2/library\x509_crl.c ****     size_t n;
 608:D:/fchai/work/i-cube/I-CUBE-HUAWEI/Middlewares/Third_Party/Huawei/iot_link/network/dtls/mbedtls/mbedtls-2.16.2/library\x509_crl.c ****     unsigned char *buf;
 609:D:/fchai/work/i-cube/I-CUBE-HUAWEI/Middlewares/Third_Party/Huawei/iot_link/network/dtls/mbedtls/mbedtls-2.16.2/library\x509_crl.c **** 
 610:D:/fchai/work/i-cube/I-CUBE-HUAWEI/Middlewares/Third_Party/Huawei/iot_link/network/dtls/mbedtls/mbedtls-2.16.2/library\x509_crl.c ****     if( ( ret = mbedtls_pk_load_file( path, &buf, &n ) ) != 0 )
 611:D:/fchai/work/i-cube/I-CUBE-HUAWEI/Middlewares/Third_Party/Huawei/iot_link/network/dtls/mbedtls/mbedtls-2.16.2/library\x509_crl.c ****         return( ret );
 612:D:/fchai/work/i-cube/I-CUBE-HUAWEI/Middlewares/Third_Party/Huawei/iot_link/network/dtls/mbedtls/mbedtls-2.16.2/library\x509_crl.c **** 
 613:D:/fchai/work/i-cube/I-CUBE-HUAWEI/Middlewares/Third_Party/Huawei/iot_link/network/dtls/mbedtls/mbedtls-2.16.2/library\x509_crl.c ****     ret = mbedtls_x509_crl_parse( chain, buf, n );
 614:D:/fchai/work/i-cube/I-CUBE-HUAWEI/Middlewares/Third_Party/Huawei/iot_link/network/dtls/mbedtls/mbedtls-2.16.2/library\x509_crl.c **** 
 615:D:/fchai/work/i-cube/I-CUBE-HUAWEI/Middlewares/Third_Party/Huawei/iot_link/network/dtls/mbedtls/mbedtls-2.16.2/library\x509_crl.c ****     mbedtls_platform_zeroize( buf, n );
 616:D:/fchai/work/i-cube/I-CUBE-HUAWEI/Middlewares/Third_Party/Huawei/iot_link/network/dtls/mbedtls/mbedtls-2.16.2/library\x509_crl.c ****     mbedtls_free( buf );
 617:D:/fchai/work/i-cube/I-CUBE-HUAWEI/Middlewares/Third_Party/Huawei/iot_link/network/dtls/mbedtls/mbedtls-2.16.2/library\x509_crl.c **** 
 618:D:/fchai/work/i-cube/I-CUBE-HUAWEI/Middlewares/Third_Party/Huawei/iot_link/network/dtls/mbedtls/mbedtls-2.16.2/library\x509_crl.c ****     return( ret );
 619:D:/fchai/work/i-cube/I-CUBE-HUAWEI/Middlewares/Third_Party/Huawei/iot_link/network/dtls/mbedtls/mbedtls-2.16.2/library\x509_crl.c **** }
 620:D:/fchai/work/i-cube/I-CUBE-HUAWEI/Middlewares/Third_Party/Huawei/iot_link/network/dtls/mbedtls/mbedtls-2.16.2/library\x509_crl.c **** #endif /* MBEDTLS_FS_IO */
 621:D:/fchai/work/i-cube/I-CUBE-HUAWEI/Middlewares/Third_Party/Huawei/iot_link/network/dtls/mbedtls/mbedtls-2.16.2/library\x509_crl.c **** 
 622:D:/fchai/work/i-cube/I-CUBE-HUAWEI/Middlewares/Third_Party/Huawei/iot_link/network/dtls/mbedtls/mbedtls-2.16.2/library\x509_crl.c **** /*
 623:D:/fchai/work/i-cube/I-CUBE-HUAWEI/Middlewares/Third_Party/Huawei/iot_link/network/dtls/mbedtls/mbedtls-2.16.2/library\x509_crl.c ****  * Return an informational string about the certificate.
 624:D:/fchai/work/i-cube/I-CUBE-HUAWEI/Middlewares/Third_Party/Huawei/iot_link/network/dtls/mbedtls/mbedtls-2.16.2/library\x509_crl.c ****  */
 625:D:/fchai/work/i-cube/I-CUBE-HUAWEI/Middlewares/Third_Party/Huawei/iot_link/network/dtls/mbedtls/mbedtls-2.16.2/library\x509_crl.c **** #define BEFORE_COLON    14
 626:D:/fchai/work/i-cube/I-CUBE-HUAWEI/Middlewares/Third_Party/Huawei/iot_link/network/dtls/mbedtls/mbedtls-2.16.2/library\x509_crl.c **** #define BC              "14"
 627:D:/fchai/work/i-cube/I-CUBE-HUAWEI/Middlewares/Third_Party/Huawei/iot_link/network/dtls/mbedtls/mbedtls-2.16.2/library\x509_crl.c **** /*
 628:D:/fchai/work/i-cube/I-CUBE-HUAWEI/Middlewares/Third_Party/Huawei/iot_link/network/dtls/mbedtls/mbedtls-2.16.2/library\x509_crl.c ****  * Return an informational string about the CRL.
 629:D:/fchai/work/i-cube/I-CUBE-HUAWEI/Middlewares/Third_Party/Huawei/iot_link/network/dtls/mbedtls/mbedtls-2.16.2/library\x509_crl.c ****  */
 630:D:/fchai/work/i-cube/I-CUBE-HUAWEI/Middlewares/Third_Party/Huawei/iot_link/network/dtls/mbedtls/mbedtls-2.16.2/library\x509_crl.c **** int mbedtls_x509_crl_info( char *buf, size_t size, const char *prefix,
 631:D:/fchai/work/i-cube/I-CUBE-HUAWEI/Middlewares/Third_Party/Huawei/iot_link/network/dtls/mbedtls/mbedtls-2.16.2/library\x509_crl.c ****                    const mbedtls_x509_crl *crl )
 632:D:/fchai/work/i-cube/I-CUBE-HUAWEI/Middlewares/Third_Party/Huawei/iot_link/network/dtls/mbedtls/mbedtls-2.16.2/library\x509_crl.c **** {
 633:D:/fchai/work/i-cube/I-CUBE-HUAWEI/Middlewares/Third_Party/Huawei/iot_link/network/dtls/mbedtls/mbedtls-2.16.2/library\x509_crl.c ****     int ret;
 634:D:/fchai/work/i-cube/I-CUBE-HUAWEI/Middlewares/Third_Party/Huawei/iot_link/network/dtls/mbedtls/mbedtls-2.16.2/library\x509_crl.c ****     size_t n;
 635:D:/fchai/work/i-cube/I-CUBE-HUAWEI/Middlewares/Third_Party/Huawei/iot_link/network/dtls/mbedtls/mbedtls-2.16.2/library\x509_crl.c ****     char *p;
 636:D:/fchai/work/i-cube/I-CUBE-HUAWEI/Middlewares/Third_Party/Huawei/iot_link/network/dtls/mbedtls/mbedtls-2.16.2/library\x509_crl.c ****     const mbedtls_x509_crl_entry *entry;
 637:D:/fchai/work/i-cube/I-CUBE-HUAWEI/Middlewares/Third_Party/Huawei/iot_link/network/dtls/mbedtls/mbedtls-2.16.2/library\x509_crl.c **** 
 638:D:/fchai/work/i-cube/I-CUBE-HUAWEI/Middlewares/Third_Party/Huawei/iot_link/network/dtls/mbedtls/mbedtls-2.16.2/library\x509_crl.c ****     p = buf;
 639:D:/fchai/work/i-cube/I-CUBE-HUAWEI/Middlewares/Third_Party/Huawei/iot_link/network/dtls/mbedtls/mbedtls-2.16.2/library\x509_crl.c ****     n = size;
 640:D:/fchai/work/i-cube/I-CUBE-HUAWEI/Middlewares/Third_Party/Huawei/iot_link/network/dtls/mbedtls/mbedtls-2.16.2/library\x509_crl.c **** 
 641:D:/fchai/work/i-cube/I-CUBE-HUAWEI/Middlewares/Third_Party/Huawei/iot_link/network/dtls/mbedtls/mbedtls-2.16.2/library\x509_crl.c ****     ret = mbedtls_snprintf( p, n, "%sCRL version   : %d",
 642:D:/fchai/work/i-cube/I-CUBE-HUAWEI/Middlewares/Third_Party/Huawei/iot_link/network/dtls/mbedtls/mbedtls-2.16.2/library\x509_crl.c ****                                prefix, crl->version );
 643:D:/fchai/work/i-cube/I-CUBE-HUAWEI/Middlewares/Third_Party/Huawei/iot_link/network/dtls/mbedtls/mbedtls-2.16.2/library\x509_crl.c ****     MBEDTLS_X509_SAFE_SNPRINTF;
 644:D:/fchai/work/i-cube/I-CUBE-HUAWEI/Middlewares/Third_Party/Huawei/iot_link/network/dtls/mbedtls/mbedtls-2.16.2/library\x509_crl.c **** 
 645:D:/fchai/work/i-cube/I-CUBE-HUAWEI/Middlewares/Third_Party/Huawei/iot_link/network/dtls/mbedtls/mbedtls-2.16.2/library\x509_crl.c ****     ret = mbedtls_snprintf( p, n, "\n%sissuer name   : ", prefix );
 646:D:/fchai/work/i-cube/I-CUBE-HUAWEI/Middlewares/Third_Party/Huawei/iot_link/network/dtls/mbedtls/mbedtls-2.16.2/library\x509_crl.c ****     MBEDTLS_X509_SAFE_SNPRINTF;
 647:D:/fchai/work/i-cube/I-CUBE-HUAWEI/Middlewares/Third_Party/Huawei/iot_link/network/dtls/mbedtls/mbedtls-2.16.2/library\x509_crl.c ****     ret = mbedtls_x509_dn_gets( p, n, &crl->issuer );
 648:D:/fchai/work/i-cube/I-CUBE-HUAWEI/Middlewares/Third_Party/Huawei/iot_link/network/dtls/mbedtls/mbedtls-2.16.2/library\x509_crl.c ****     MBEDTLS_X509_SAFE_SNPRINTF;
 649:D:/fchai/work/i-cube/I-CUBE-HUAWEI/Middlewares/Third_Party/Huawei/iot_link/network/dtls/mbedtls/mbedtls-2.16.2/library\x509_crl.c **** 
 650:D:/fchai/work/i-cube/I-CUBE-HUAWEI/Middlewares/Third_Party/Huawei/iot_link/network/dtls/mbedtls/mbedtls-2.16.2/library\x509_crl.c ****     ret = mbedtls_snprintf( p, n, "\n%sthis update   : " \
 651:D:/fchai/work/i-cube/I-CUBE-HUAWEI/Middlewares/Third_Party/Huawei/iot_link/network/dtls/mbedtls/mbedtls-2.16.2/library\x509_crl.c ****                    "%04d-%02d-%02d %02d:%02d:%02d", prefix,
 652:D:/fchai/work/i-cube/I-CUBE-HUAWEI/Middlewares/Third_Party/Huawei/iot_link/network/dtls/mbedtls/mbedtls-2.16.2/library\x509_crl.c ****                    crl->this_update.year, crl->this_update.mon,
 653:D:/fchai/work/i-cube/I-CUBE-HUAWEI/Middlewares/Third_Party/Huawei/iot_link/network/dtls/mbedtls/mbedtls-2.16.2/library\x509_crl.c ****                    crl->this_update.day,  crl->this_update.hour,
 654:D:/fchai/work/i-cube/I-CUBE-HUAWEI/Middlewares/Third_Party/Huawei/iot_link/network/dtls/mbedtls/mbedtls-2.16.2/library\x509_crl.c ****                    crl->this_update.min,  crl->this_update.sec );
 655:D:/fchai/work/i-cube/I-CUBE-HUAWEI/Middlewares/Third_Party/Huawei/iot_link/network/dtls/mbedtls/mbedtls-2.16.2/library\x509_crl.c ****     MBEDTLS_X509_SAFE_SNPRINTF;
 656:D:/fchai/work/i-cube/I-CUBE-HUAWEI/Middlewares/Third_Party/Huawei/iot_link/network/dtls/mbedtls/mbedtls-2.16.2/library\x509_crl.c **** 
ARM GAS  T:\msys\tmp\ccGq53OE.s 			page 13


 657:D:/fchai/work/i-cube/I-CUBE-HUAWEI/Middlewares/Third_Party/Huawei/iot_link/network/dtls/mbedtls/mbedtls-2.16.2/library\x509_crl.c ****     ret = mbedtls_snprintf( p, n, "\n%snext update   : " \
 658:D:/fchai/work/i-cube/I-CUBE-HUAWEI/Middlewares/Third_Party/Huawei/iot_link/network/dtls/mbedtls/mbedtls-2.16.2/library\x509_crl.c ****                    "%04d-%02d-%02d %02d:%02d:%02d", prefix,
 659:D:/fchai/work/i-cube/I-CUBE-HUAWEI/Middlewares/Third_Party/Huawei/iot_link/network/dtls/mbedtls/mbedtls-2.16.2/library\x509_crl.c ****                    crl->next_update.year, crl->next_update.mon,
 660:D:/fchai/work/i-cube/I-CUBE-HUAWEI/Middlewares/Third_Party/Huawei/iot_link/network/dtls/mbedtls/mbedtls-2.16.2/library\x509_crl.c ****                    crl->next_update.day,  crl->next_update.hour,
 661:D:/fchai/work/i-cube/I-CUBE-HUAWEI/Middlewares/Third_Party/Huawei/iot_link/network/dtls/mbedtls/mbedtls-2.16.2/library\x509_crl.c ****                    crl->next_update.min,  crl->next_update.sec );
 662:D:/fchai/work/i-cube/I-CUBE-HUAWEI/Middlewares/Third_Party/Huawei/iot_link/network/dtls/mbedtls/mbedtls-2.16.2/library\x509_crl.c ****     MBEDTLS_X509_SAFE_SNPRINTF;
 663:D:/fchai/work/i-cube/I-CUBE-HUAWEI/Middlewares/Third_Party/Huawei/iot_link/network/dtls/mbedtls/mbedtls-2.16.2/library\x509_crl.c **** 
 664:D:/fchai/work/i-cube/I-CUBE-HUAWEI/Middlewares/Third_Party/Huawei/iot_link/network/dtls/mbedtls/mbedtls-2.16.2/library\x509_crl.c ****     entry = &crl->entry;
 665:D:/fchai/work/i-cube/I-CUBE-HUAWEI/Middlewares/Third_Party/Huawei/iot_link/network/dtls/mbedtls/mbedtls-2.16.2/library\x509_crl.c **** 
 666:D:/fchai/work/i-cube/I-CUBE-HUAWEI/Middlewares/Third_Party/Huawei/iot_link/network/dtls/mbedtls/mbedtls-2.16.2/library\x509_crl.c ****     ret = mbedtls_snprintf( p, n, "\n%sRevoked certificates:",
 667:D:/fchai/work/i-cube/I-CUBE-HUAWEI/Middlewares/Third_Party/Huawei/iot_link/network/dtls/mbedtls/mbedtls-2.16.2/library\x509_crl.c ****                                prefix );
 668:D:/fchai/work/i-cube/I-CUBE-HUAWEI/Middlewares/Third_Party/Huawei/iot_link/network/dtls/mbedtls/mbedtls-2.16.2/library\x509_crl.c ****     MBEDTLS_X509_SAFE_SNPRINTF;
 669:D:/fchai/work/i-cube/I-CUBE-HUAWEI/Middlewares/Third_Party/Huawei/iot_link/network/dtls/mbedtls/mbedtls-2.16.2/library\x509_crl.c **** 
 670:D:/fchai/work/i-cube/I-CUBE-HUAWEI/Middlewares/Third_Party/Huawei/iot_link/network/dtls/mbedtls/mbedtls-2.16.2/library\x509_crl.c ****     while( entry != NULL && entry->raw.len != 0 )
 671:D:/fchai/work/i-cube/I-CUBE-HUAWEI/Middlewares/Third_Party/Huawei/iot_link/network/dtls/mbedtls/mbedtls-2.16.2/library\x509_crl.c ****     {
 672:D:/fchai/work/i-cube/I-CUBE-HUAWEI/Middlewares/Third_Party/Huawei/iot_link/network/dtls/mbedtls/mbedtls-2.16.2/library\x509_crl.c ****         ret = mbedtls_snprintf( p, n, "\n%sserial number: ",
 673:D:/fchai/work/i-cube/I-CUBE-HUAWEI/Middlewares/Third_Party/Huawei/iot_link/network/dtls/mbedtls/mbedtls-2.16.2/library\x509_crl.c ****                                prefix );
 674:D:/fchai/work/i-cube/I-CUBE-HUAWEI/Middlewares/Third_Party/Huawei/iot_link/network/dtls/mbedtls/mbedtls-2.16.2/library\x509_crl.c ****         MBEDTLS_X509_SAFE_SNPRINTF;
 675:D:/fchai/work/i-cube/I-CUBE-HUAWEI/Middlewares/Third_Party/Huawei/iot_link/network/dtls/mbedtls/mbedtls-2.16.2/library\x509_crl.c **** 
 676:D:/fchai/work/i-cube/I-CUBE-HUAWEI/Middlewares/Third_Party/Huawei/iot_link/network/dtls/mbedtls/mbedtls-2.16.2/library\x509_crl.c ****         ret = mbedtls_x509_serial_gets( p, n, &entry->serial );
 677:D:/fchai/work/i-cube/I-CUBE-HUAWEI/Middlewares/Third_Party/Huawei/iot_link/network/dtls/mbedtls/mbedtls-2.16.2/library\x509_crl.c ****         MBEDTLS_X509_SAFE_SNPRINTF;
 678:D:/fchai/work/i-cube/I-CUBE-HUAWEI/Middlewares/Third_Party/Huawei/iot_link/network/dtls/mbedtls/mbedtls-2.16.2/library\x509_crl.c **** 
 679:D:/fchai/work/i-cube/I-CUBE-HUAWEI/Middlewares/Third_Party/Huawei/iot_link/network/dtls/mbedtls/mbedtls-2.16.2/library\x509_crl.c ****         ret = mbedtls_snprintf( p, n, " revocation date: " \
 680:D:/fchai/work/i-cube/I-CUBE-HUAWEI/Middlewares/Third_Party/Huawei/iot_link/network/dtls/mbedtls/mbedtls-2.16.2/library\x509_crl.c ****                    "%04d-%02d-%02d %02d:%02d:%02d",
 681:D:/fchai/work/i-cube/I-CUBE-HUAWEI/Middlewares/Third_Party/Huawei/iot_link/network/dtls/mbedtls/mbedtls-2.16.2/library\x509_crl.c ****                    entry->revocation_date.year, entry->revocation_date.mon,
 682:D:/fchai/work/i-cube/I-CUBE-HUAWEI/Middlewares/Third_Party/Huawei/iot_link/network/dtls/mbedtls/mbedtls-2.16.2/library\x509_crl.c ****                    entry->revocation_date.day,  entry->revocation_date.hour,
 683:D:/fchai/work/i-cube/I-CUBE-HUAWEI/Middlewares/Third_Party/Huawei/iot_link/network/dtls/mbedtls/mbedtls-2.16.2/library\x509_crl.c ****                    entry->revocation_date.min,  entry->revocation_date.sec );
 684:D:/fchai/work/i-cube/I-CUBE-HUAWEI/Middlewares/Third_Party/Huawei/iot_link/network/dtls/mbedtls/mbedtls-2.16.2/library\x509_crl.c ****         MBEDTLS_X509_SAFE_SNPRINTF;
 685:D:/fchai/work/i-cube/I-CUBE-HUAWEI/Middlewares/Third_Party/Huawei/iot_link/network/dtls/mbedtls/mbedtls-2.16.2/library\x509_crl.c **** 
 686:D:/fchai/work/i-cube/I-CUBE-HUAWEI/Middlewares/Third_Party/Huawei/iot_link/network/dtls/mbedtls/mbedtls-2.16.2/library\x509_crl.c ****         entry = entry->next;
 687:D:/fchai/work/i-cube/I-CUBE-HUAWEI/Middlewares/Third_Party/Huawei/iot_link/network/dtls/mbedtls/mbedtls-2.16.2/library\x509_crl.c ****     }
 688:D:/fchai/work/i-cube/I-CUBE-HUAWEI/Middlewares/Third_Party/Huawei/iot_link/network/dtls/mbedtls/mbedtls-2.16.2/library\x509_crl.c **** 
 689:D:/fchai/work/i-cube/I-CUBE-HUAWEI/Middlewares/Third_Party/Huawei/iot_link/network/dtls/mbedtls/mbedtls-2.16.2/library\x509_crl.c ****     ret = mbedtls_snprintf( p, n, "\n%ssigned using  : ", prefix );
 690:D:/fchai/work/i-cube/I-CUBE-HUAWEI/Middlewares/Third_Party/Huawei/iot_link/network/dtls/mbedtls/mbedtls-2.16.2/library\x509_crl.c ****     MBEDTLS_X509_SAFE_SNPRINTF;
 691:D:/fchai/work/i-cube/I-CUBE-HUAWEI/Middlewares/Third_Party/Huawei/iot_link/network/dtls/mbedtls/mbedtls-2.16.2/library\x509_crl.c **** 
 692:D:/fchai/work/i-cube/I-CUBE-HUAWEI/Middlewares/Third_Party/Huawei/iot_link/network/dtls/mbedtls/mbedtls-2.16.2/library\x509_crl.c ****     ret = mbedtls_x509_sig_alg_gets( p, n, &crl->sig_oid, crl->sig_pk, crl->sig_md,
 693:D:/fchai/work/i-cube/I-CUBE-HUAWEI/Middlewares/Third_Party/Huawei/iot_link/network/dtls/mbedtls/mbedtls-2.16.2/library\x509_crl.c ****                              crl->sig_opts );
 694:D:/fchai/work/i-cube/I-CUBE-HUAWEI/Middlewares/Third_Party/Huawei/iot_link/network/dtls/mbedtls/mbedtls-2.16.2/library\x509_crl.c ****     MBEDTLS_X509_SAFE_SNPRINTF;
 695:D:/fchai/work/i-cube/I-CUBE-HUAWEI/Middlewares/Third_Party/Huawei/iot_link/network/dtls/mbedtls/mbedtls-2.16.2/library\x509_crl.c **** 
 696:D:/fchai/work/i-cube/I-CUBE-HUAWEI/Middlewares/Third_Party/Huawei/iot_link/network/dtls/mbedtls/mbedtls-2.16.2/library\x509_crl.c ****     ret = mbedtls_snprintf( p, n, "\n" );
 697:D:/fchai/work/i-cube/I-CUBE-HUAWEI/Middlewares/Third_Party/Huawei/iot_link/network/dtls/mbedtls/mbedtls-2.16.2/library\x509_crl.c ****     MBEDTLS_X509_SAFE_SNPRINTF;
 698:D:/fchai/work/i-cube/I-CUBE-HUAWEI/Middlewares/Third_Party/Huawei/iot_link/network/dtls/mbedtls/mbedtls-2.16.2/library\x509_crl.c **** 
 699:D:/fchai/work/i-cube/I-CUBE-HUAWEI/Middlewares/Third_Party/Huawei/iot_link/network/dtls/mbedtls/mbedtls-2.16.2/library\x509_crl.c ****     return( (int) ( size - n ) );
 700:D:/fchai/work/i-cube/I-CUBE-HUAWEI/Middlewares/Third_Party/Huawei/iot_link/network/dtls/mbedtls/mbedtls-2.16.2/library\x509_crl.c **** }
 701:D:/fchai/work/i-cube/I-CUBE-HUAWEI/Middlewares/Third_Party/Huawei/iot_link/network/dtls/mbedtls/mbedtls-2.16.2/library\x509_crl.c **** 
 702:D:/fchai/work/i-cube/I-CUBE-HUAWEI/Middlewares/Third_Party/Huawei/iot_link/network/dtls/mbedtls/mbedtls-2.16.2/library\x509_crl.c **** /*
 703:D:/fchai/work/i-cube/I-CUBE-HUAWEI/Middlewares/Third_Party/Huawei/iot_link/network/dtls/mbedtls/mbedtls-2.16.2/library\x509_crl.c ****  * Initialize a CRL chain
 704:D:/fchai/work/i-cube/I-CUBE-HUAWEI/Middlewares/Third_Party/Huawei/iot_link/network/dtls/mbedtls/mbedtls-2.16.2/library\x509_crl.c ****  */
 705:D:/fchai/work/i-cube/I-CUBE-HUAWEI/Middlewares/Third_Party/Huawei/iot_link/network/dtls/mbedtls/mbedtls-2.16.2/library\x509_crl.c **** void mbedtls_x509_crl_init( mbedtls_x509_crl *crl )
 706:D:/fchai/work/i-cube/I-CUBE-HUAWEI/Middlewares/Third_Party/Huawei/iot_link/network/dtls/mbedtls/mbedtls-2.16.2/library\x509_crl.c **** {
 707:D:/fchai/work/i-cube/I-CUBE-HUAWEI/Middlewares/Third_Party/Huawei/iot_link/network/dtls/mbedtls/mbedtls-2.16.2/library\x509_crl.c ****     memset( crl, 0, sizeof(mbedtls_x509_crl) );
 708:D:/fchai/work/i-cube/I-CUBE-HUAWEI/Middlewares/Third_Party/Huawei/iot_link/network/dtls/mbedtls/mbedtls-2.16.2/library\x509_crl.c **** }
 709:D:/fchai/work/i-cube/I-CUBE-HUAWEI/Middlewares/Third_Party/Huawei/iot_link/network/dtls/mbedtls/mbedtls-2.16.2/library\x509_crl.c **** 
 710:D:/fchai/work/i-cube/I-CUBE-HUAWEI/Middlewares/Third_Party/Huawei/iot_link/network/dtls/mbedtls/mbedtls-2.16.2/library\x509_crl.c **** /*
 711:D:/fchai/work/i-cube/I-CUBE-HUAWEI/Middlewares/Third_Party/Huawei/iot_link/network/dtls/mbedtls/mbedtls-2.16.2/library\x509_crl.c ****  * Unallocate all CRL data
 712:D:/fchai/work/i-cube/I-CUBE-HUAWEI/Middlewares/Third_Party/Huawei/iot_link/network/dtls/mbedtls/mbedtls-2.16.2/library\x509_crl.c ****  */
 713:D:/fchai/work/i-cube/I-CUBE-HUAWEI/Middlewares/Third_Party/Huawei/iot_link/network/dtls/mbedtls/mbedtls-2.16.2/library\x509_crl.c **** void mbedtls_x509_crl_free( mbedtls_x509_crl *crl )
ARM GAS  T:\msys\tmp\ccGq53OE.s 			page 14


  30              		.loc 1 713 6 view -0
  31              		.cfi_startproc
  32              		@ args = 0, pretend = 0, frame = 8
  33              		@ frame_needed = 0, uses_anonymous_args = 0
  34              		.loc 1 713 6 is_stmt 0 view .LVU1
  35 0000 70B5     		push	{r4, r5, r6, lr}
  36              	.LCFI0:
  37              		.cfi_def_cfa_offset 16
  38              		.cfi_offset 4, -16
  39              		.cfi_offset 5, -12
  40              		.cfi_offset 6, -8
  41              		.cfi_offset 14, -4
  42 0002 0646     		mov	r6, r0
  43 0004 82B0     		sub	sp, sp, #8
  44              	.LCFI1:
  45              		.cfi_def_cfa_offset 24
  46              		.loc 1 713 6 view .LVU2
  47 0006 0546     		mov	r5, r0
  48              	.LVL1:
  49              	.L7:
 714:D:/fchai/work/i-cube/I-CUBE-HUAWEI/Middlewares/Third_Party/Huawei/iot_link/network/dtls/mbedtls/mbedtls-2.16.2/library\x509_crl.c **** {
 715:D:/fchai/work/i-cube/I-CUBE-HUAWEI/Middlewares/Third_Party/Huawei/iot_link/network/dtls/mbedtls/mbedtls-2.16.2/library\x509_crl.c ****     mbedtls_x509_crl *crl_cur = crl;
 716:D:/fchai/work/i-cube/I-CUBE-HUAWEI/Middlewares/Third_Party/Huawei/iot_link/network/dtls/mbedtls/mbedtls-2.16.2/library\x509_crl.c ****     mbedtls_x509_crl *crl_prv;
 717:D:/fchai/work/i-cube/I-CUBE-HUAWEI/Middlewares/Third_Party/Huawei/iot_link/network/dtls/mbedtls/mbedtls-2.16.2/library\x509_crl.c ****     mbedtls_x509_name *name_cur;
 718:D:/fchai/work/i-cube/I-CUBE-HUAWEI/Middlewares/Third_Party/Huawei/iot_link/network/dtls/mbedtls/mbedtls-2.16.2/library\x509_crl.c ****     mbedtls_x509_name *name_prv;
 719:D:/fchai/work/i-cube/I-CUBE-HUAWEI/Middlewares/Third_Party/Huawei/iot_link/network/dtls/mbedtls/mbedtls-2.16.2/library\x509_crl.c ****     mbedtls_x509_crl_entry *entry_cur;
 720:D:/fchai/work/i-cube/I-CUBE-HUAWEI/Middlewares/Third_Party/Huawei/iot_link/network/dtls/mbedtls/mbedtls-2.16.2/library\x509_crl.c ****     mbedtls_x509_crl_entry *entry_prv;
 721:D:/fchai/work/i-cube/I-CUBE-HUAWEI/Middlewares/Third_Party/Huawei/iot_link/network/dtls/mbedtls/mbedtls-2.16.2/library\x509_crl.c **** 
 722:D:/fchai/work/i-cube/I-CUBE-HUAWEI/Middlewares/Third_Party/Huawei/iot_link/network/dtls/mbedtls/mbedtls-2.16.2/library\x509_crl.c ****     if( crl == NULL )
 723:D:/fchai/work/i-cube/I-CUBE-HUAWEI/Middlewares/Third_Party/Huawei/iot_link/network/dtls/mbedtls/mbedtls-2.16.2/library\x509_crl.c ****         return;
 724:D:/fchai/work/i-cube/I-CUBE-HUAWEI/Middlewares/Third_Party/Huawei/iot_link/network/dtls/mbedtls/mbedtls-2.16.2/library\x509_crl.c **** 
 725:D:/fchai/work/i-cube/I-CUBE-HUAWEI/Middlewares/Third_Party/Huawei/iot_link/network/dtls/mbedtls/mbedtls-2.16.2/library\x509_crl.c ****     do
  50              		.loc 1 725 5 is_stmt 1 view .LVU3
 726:D:/fchai/work/i-cube/I-CUBE-HUAWEI/Middlewares/Third_Party/Huawei/iot_link/network/dtls/mbedtls/mbedtls-2.16.2/library\x509_crl.c ****     {
 727:D:/fchai/work/i-cube/I-CUBE-HUAWEI/Middlewares/Third_Party/Huawei/iot_link/network/dtls/mbedtls/mbedtls-2.16.2/library\x509_crl.c **** #if defined(MBEDTLS_X509_RSASSA_PSS_SUPPORT)
 728:D:/fchai/work/i-cube/I-CUBE-HUAWEI/Middlewares/Third_Party/Huawei/iot_link/network/dtls/mbedtls/mbedtls-2.16.2/library\x509_crl.c ****         mbedtls_free( crl_cur->sig_opts );
  51              		.loc 1 728 9 view .LVU4
  52 0008 D5F8EC00 		ldr	r0, [r5, #236]
  53 000c FFF7FEFF 		bl	mbedtls_free
  54              	.LVL2:
 729:D:/fchai/work/i-cube/I-CUBE-HUAWEI/Middlewares/Third_Party/Huawei/iot_link/network/dtls/mbedtls/mbedtls-2.16.2/library\x509_crl.c **** #endif
 730:D:/fchai/work/i-cube/I-CUBE-HUAWEI/Middlewares/Third_Party/Huawei/iot_link/network/dtls/mbedtls/mbedtls-2.16.2/library\x509_crl.c **** 
 731:D:/fchai/work/i-cube/I-CUBE-HUAWEI/Middlewares/Third_Party/Huawei/iot_link/network/dtls/mbedtls/mbedtls-2.16.2/library\x509_crl.c ****         name_cur = crl_cur->issuer.next;
  55              		.loc 1 731 9 view .LVU5
  56              		.loc 1 731 18 is_stmt 0 view .LVU6
  57 0010 EC6C     		ldr	r4, [r5, #76]
  58              	.LVL3:
 732:D:/fchai/work/i-cube/I-CUBE-HUAWEI/Middlewares/Third_Party/Huawei/iot_link/network/dtls/mbedtls/mbedtls-2.16.2/library\x509_crl.c ****         while( name_cur != NULL )
  59              		.loc 1 732 9 is_stmt 1 view .LVU7
  60              		.loc 1 732 14 view .LVU8
  61 0012 54B1     		cbz	r4, .L2
  62              	.L3:
 733:D:/fchai/work/i-cube/I-CUBE-HUAWEI/Middlewares/Third_Party/Huawei/iot_link/network/dtls/mbedtls/mbedtls-2.16.2/library\x509_crl.c ****         {
 734:D:/fchai/work/i-cube/I-CUBE-HUAWEI/Middlewares/Third_Party/Huawei/iot_link/network/dtls/mbedtls/mbedtls-2.16.2/library\x509_crl.c ****             name_prv = name_cur;
  63              		.loc 1 734 13 view .LVU9
  64              	.LVL4:
 735:D:/fchai/work/i-cube/I-CUBE-HUAWEI/Middlewares/Third_Party/Huawei/iot_link/network/dtls/mbedtls/mbedtls-2.16.2/library\x509_crl.c ****             name_cur = name_cur->next;
ARM GAS  T:\msys\tmp\ccGq53OE.s 			page 15


  65              		.loc 1 735 13 view .LVU10
  66 0014 2046     		mov	r0, r4
 736:D:/fchai/work/i-cube/I-CUBE-HUAWEI/Middlewares/Third_Party/Huawei/iot_link/network/dtls/mbedtls/mbedtls-2.16.2/library\x509_crl.c ****             mbedtls_platform_zeroize( name_prv, sizeof( mbedtls_x509_name ) );
  67              		.loc 1 736 13 is_stmt 0 view .LVU11
  68 0016 0194     		str	r4, [sp, #4]
  69 0018 2021     		movs	r1, #32
 735:D:/fchai/work/i-cube/I-CUBE-HUAWEI/Middlewares/Third_Party/Huawei/iot_link/network/dtls/mbedtls/mbedtls-2.16.2/library\x509_crl.c ****             name_cur = name_cur->next;
  70              		.loc 1 735 22 view .LVU12
  71 001a A469     		ldr	r4, [r4, #24]
  72              	.LVL5:
  73              		.loc 1 736 13 is_stmt 1 view .LVU13
  74 001c FFF7FEFF 		bl	mbedtls_platform_zeroize
  75              	.LVL6:
 737:D:/fchai/work/i-cube/I-CUBE-HUAWEI/Middlewares/Third_Party/Huawei/iot_link/network/dtls/mbedtls/mbedtls-2.16.2/library\x509_crl.c ****             mbedtls_free( name_prv );
  76              		.loc 1 737 13 view .LVU14
  77 0020 0198     		ldr	r0, [sp, #4]
  78 0022 FFF7FEFF 		bl	mbedtls_free
  79              	.LVL7:
 732:D:/fchai/work/i-cube/I-CUBE-HUAWEI/Middlewares/Third_Party/Huawei/iot_link/network/dtls/mbedtls/mbedtls-2.16.2/library\x509_crl.c ****         {
  80              		.loc 1 732 14 view .LVU15
  81 0026 002C     		cmp	r4, #0
  82 0028 F4D1     		bne	.L3
  83              	.LVL8:
  84              	.L2:
 738:D:/fchai/work/i-cube/I-CUBE-HUAWEI/Middlewares/Third_Party/Huawei/iot_link/network/dtls/mbedtls/mbedtls-2.16.2/library\x509_crl.c ****         }
 739:D:/fchai/work/i-cube/I-CUBE-HUAWEI/Middlewares/Third_Party/Huawei/iot_link/network/dtls/mbedtls/mbedtls-2.16.2/library\x509_crl.c **** 
 740:D:/fchai/work/i-cube/I-CUBE-HUAWEI/Middlewares/Third_Party/Huawei/iot_link/network/dtls/mbedtls/mbedtls-2.16.2/library\x509_crl.c ****         entry_cur = crl_cur->entry.next;
  85              		.loc 1 740 9 view .LVU16
  86              		.loc 1 740 19 is_stmt 0 view .LVU17
  87 002a D5F8C040 		ldr	r4, [r5, #192]
  88              	.LVL9:
 741:D:/fchai/work/i-cube/I-CUBE-HUAWEI/Middlewares/Third_Party/Huawei/iot_link/network/dtls/mbedtls/mbedtls-2.16.2/library\x509_crl.c ****         while( entry_cur != NULL )
  89              		.loc 1 741 9 is_stmt 1 view .LVU18
  90              		.loc 1 741 14 view .LVU19
  91 002e 54B1     		cbz	r4, .L4
  92              	.L5:
 742:D:/fchai/work/i-cube/I-CUBE-HUAWEI/Middlewares/Third_Party/Huawei/iot_link/network/dtls/mbedtls/mbedtls-2.16.2/library\x509_crl.c ****         {
 743:D:/fchai/work/i-cube/I-CUBE-HUAWEI/Middlewares/Third_Party/Huawei/iot_link/network/dtls/mbedtls/mbedtls-2.16.2/library\x509_crl.c ****             entry_prv = entry_cur;
  93              		.loc 1 743 13 view .LVU20
  94              	.LVL10:
 744:D:/fchai/work/i-cube/I-CUBE-HUAWEI/Middlewares/Third_Party/Huawei/iot_link/network/dtls/mbedtls/mbedtls-2.16.2/library\x509_crl.c ****             entry_cur = entry_cur->next;
  95              		.loc 1 744 13 view .LVU21
  96 0030 2046     		mov	r0, r4
 745:D:/fchai/work/i-cube/I-CUBE-HUAWEI/Middlewares/Third_Party/Huawei/iot_link/network/dtls/mbedtls/mbedtls-2.16.2/library\x509_crl.c ****             mbedtls_platform_zeroize( entry_prv,
  97              		.loc 1 745 13 is_stmt 0 view .LVU22
  98 0032 0194     		str	r4, [sp, #4]
  99 0034 4021     		movs	r1, #64
 744:D:/fchai/work/i-cube/I-CUBE-HUAWEI/Middlewares/Third_Party/Huawei/iot_link/network/dtls/mbedtls/mbedtls-2.16.2/library\x509_crl.c ****             entry_cur = entry_cur->next;
 100              		.loc 1 744 23 view .LVU23
 101 0036 E46B     		ldr	r4, [r4, #60]
 102              	.LVL11:
 103              		.loc 1 745 13 is_stmt 1 view .LVU24
 104 0038 FFF7FEFF 		bl	mbedtls_platform_zeroize
 105              	.LVL12:
 746:D:/fchai/work/i-cube/I-CUBE-HUAWEI/Middlewares/Third_Party/Huawei/iot_link/network/dtls/mbedtls/mbedtls-2.16.2/library\x509_crl.c ****                                       sizeof( mbedtls_x509_crl_entry ) );
 747:D:/fchai/work/i-cube/I-CUBE-HUAWEI/Middlewares/Third_Party/Huawei/iot_link/network/dtls/mbedtls/mbedtls-2.16.2/library\x509_crl.c ****             mbedtls_free( entry_prv );
 106              		.loc 1 747 13 view .LVU25
ARM GAS  T:\msys\tmp\ccGq53OE.s 			page 16


 107 003c 0198     		ldr	r0, [sp, #4]
 108 003e FFF7FEFF 		bl	mbedtls_free
 109              	.LVL13:
 741:D:/fchai/work/i-cube/I-CUBE-HUAWEI/Middlewares/Third_Party/Huawei/iot_link/network/dtls/mbedtls/mbedtls-2.16.2/library\x509_crl.c ****         {
 110              		.loc 1 741 14 view .LVU26
 111 0042 002C     		cmp	r4, #0
 112 0044 F4D1     		bne	.L5
 113              	.LVL14:
 114              	.L4:
 748:D:/fchai/work/i-cube/I-CUBE-HUAWEI/Middlewares/Third_Party/Huawei/iot_link/network/dtls/mbedtls/mbedtls-2.16.2/library\x509_crl.c ****         }
 749:D:/fchai/work/i-cube/I-CUBE-HUAWEI/Middlewares/Third_Party/Huawei/iot_link/network/dtls/mbedtls/mbedtls-2.16.2/library\x509_crl.c **** 
 750:D:/fchai/work/i-cube/I-CUBE-HUAWEI/Middlewares/Third_Party/Huawei/iot_link/network/dtls/mbedtls/mbedtls-2.16.2/library\x509_crl.c ****         if( crl_cur->raw.p != NULL )
 115              		.loc 1 750 9 view .LVU27
 116              		.loc 1 750 25 is_stmt 0 view .LVU28
 117 0046 A868     		ldr	r0, [r5, #8]
 118              		.loc 1 750 11 view .LVU29
 119 0048 28B1     		cbz	r0, .L6
 751:D:/fchai/work/i-cube/I-CUBE-HUAWEI/Middlewares/Third_Party/Huawei/iot_link/network/dtls/mbedtls/mbedtls-2.16.2/library\x509_crl.c ****         {
 752:D:/fchai/work/i-cube/I-CUBE-HUAWEI/Middlewares/Third_Party/Huawei/iot_link/network/dtls/mbedtls/mbedtls-2.16.2/library\x509_crl.c ****             mbedtls_platform_zeroize( crl_cur->raw.p, crl_cur->raw.len );
 120              		.loc 1 752 13 is_stmt 1 view .LVU30
 121 004a 6968     		ldr	r1, [r5, #4]
 122 004c FFF7FEFF 		bl	mbedtls_platform_zeroize
 123              	.LVL15:
 753:D:/fchai/work/i-cube/I-CUBE-HUAWEI/Middlewares/Third_Party/Huawei/iot_link/network/dtls/mbedtls/mbedtls-2.16.2/library\x509_crl.c ****             mbedtls_free( crl_cur->raw.p );
 124              		.loc 1 753 13 view .LVU31
 125 0050 A868     		ldr	r0, [r5, #8]
 126 0052 FFF7FEFF 		bl	mbedtls_free
 127              	.LVL16:
 128              	.L6:
 754:D:/fchai/work/i-cube/I-CUBE-HUAWEI/Middlewares/Third_Party/Huawei/iot_link/network/dtls/mbedtls/mbedtls-2.16.2/library\x509_crl.c ****         }
 755:D:/fchai/work/i-cube/I-CUBE-HUAWEI/Middlewares/Third_Party/Huawei/iot_link/network/dtls/mbedtls/mbedtls-2.16.2/library\x509_crl.c **** 
 756:D:/fchai/work/i-cube/I-CUBE-HUAWEI/Middlewares/Third_Party/Huawei/iot_link/network/dtls/mbedtls/mbedtls-2.16.2/library\x509_crl.c ****         crl_cur = crl_cur->next;
 129              		.loc 1 756 9 view .LVU32
 130              		.loc 1 756 17 is_stmt 0 view .LVU33
 131 0056 D5F8F050 		ldr	r5, [r5, #240]
 132              	.LVL17:
 757:D:/fchai/work/i-cube/I-CUBE-HUAWEI/Middlewares/Third_Party/Huawei/iot_link/network/dtls/mbedtls/mbedtls-2.16.2/library\x509_crl.c ****     }
 758:D:/fchai/work/i-cube/I-CUBE-HUAWEI/Middlewares/Third_Party/Huawei/iot_link/network/dtls/mbedtls/mbedtls-2.16.2/library\x509_crl.c ****     while( crl_cur != NULL );
 133              		.loc 1 758 10 is_stmt 1 view .LVU34
 134              		.loc 1 758 5 is_stmt 0 view .LVU35
 135 005a 002D     		cmp	r5, #0
 136 005c D4D1     		bne	.L7
 137              	.LVL18:
 759:D:/fchai/work/i-cube/I-CUBE-HUAWEI/Middlewares/Third_Party/Huawei/iot_link/network/dtls/mbedtls/mbedtls-2.16.2/library\x509_crl.c **** 
 760:D:/fchai/work/i-cube/I-CUBE-HUAWEI/Middlewares/Third_Party/Huawei/iot_link/network/dtls/mbedtls/mbedtls-2.16.2/library\x509_crl.c ****     crl_cur = crl;
 761:D:/fchai/work/i-cube/I-CUBE-HUAWEI/Middlewares/Third_Party/Huawei/iot_link/network/dtls/mbedtls/mbedtls-2.16.2/library\x509_crl.c ****     do
 138              		.loc 1 761 5 is_stmt 1 view .LVU36
 762:D:/fchai/work/i-cube/I-CUBE-HUAWEI/Middlewares/Third_Party/Huawei/iot_link/network/dtls/mbedtls/mbedtls-2.16.2/library\x509_crl.c ****     {
 763:D:/fchai/work/i-cube/I-CUBE-HUAWEI/Middlewares/Third_Party/Huawei/iot_link/network/dtls/mbedtls/mbedtls-2.16.2/library\x509_crl.c ****         crl_prv = crl_cur;
 139              		.loc 1 763 9 view .LVU37
 764:D:/fchai/work/i-cube/I-CUBE-HUAWEI/Middlewares/Third_Party/Huawei/iot_link/network/dtls/mbedtls/mbedtls-2.16.2/library\x509_crl.c ****         crl_cur = crl_cur->next;
 140              		.loc 1 764 9 view .LVU38
 141              		.loc 1 764 17 is_stmt 0 view .LVU39
 142 005e D6F8F040 		ldr	r4, [r6, #240]
 143              	.LVL19:
 765:D:/fchai/work/i-cube/I-CUBE-HUAWEI/Middlewares/Third_Party/Huawei/iot_link/network/dtls/mbedtls/mbedtls-2.16.2/library\x509_crl.c **** 
 766:D:/fchai/work/i-cube/I-CUBE-HUAWEI/Middlewares/Third_Party/Huawei/iot_link/network/dtls/mbedtls/mbedtls-2.16.2/library\x509_crl.c ****         mbedtls_platform_zeroize( crl_prv, sizeof( mbedtls_x509_crl ) );
ARM GAS  T:\msys\tmp\ccGq53OE.s 			page 17


 144              		.loc 1 766 9 is_stmt 1 view .LVU40
 145 0062 F421     		movs	r1, #244
 146 0064 3046     		mov	r0, r6
 147 0066 FFF7FEFF 		bl	mbedtls_platform_zeroize
 148              	.LVL20:
 767:D:/fchai/work/i-cube/I-CUBE-HUAWEI/Middlewares/Third_Party/Huawei/iot_link/network/dtls/mbedtls/mbedtls-2.16.2/library\x509_crl.c ****         if( crl_prv != crl )
 149              		.loc 1 767 9 view .LVU41
 761:D:/fchai/work/i-cube/I-CUBE-HUAWEI/Middlewares/Third_Party/Huawei/iot_link/network/dtls/mbedtls/mbedtls-2.16.2/library\x509_crl.c ****     {
 150              		.loc 1 761 5 view .LVU42
 763:D:/fchai/work/i-cube/I-CUBE-HUAWEI/Middlewares/Third_Party/Huawei/iot_link/network/dtls/mbedtls/mbedtls-2.16.2/library\x509_crl.c ****         crl_cur = crl_cur->next;
 151              		.loc 1 763 9 view .LVU43
 764:D:/fchai/work/i-cube/I-CUBE-HUAWEI/Middlewares/Third_Party/Huawei/iot_link/network/dtls/mbedtls/mbedtls-2.16.2/library\x509_crl.c **** 
 152              		.loc 1 764 9 view .LVU44
 768:D:/fchai/work/i-cube/I-CUBE-HUAWEI/Middlewares/Third_Party/Huawei/iot_link/network/dtls/mbedtls/mbedtls-2.16.2/library\x509_crl.c ****             mbedtls_free( crl_prv );
 769:D:/fchai/work/i-cube/I-CUBE-HUAWEI/Middlewares/Third_Party/Huawei/iot_link/network/dtls/mbedtls/mbedtls-2.16.2/library\x509_crl.c ****     }
 770:D:/fchai/work/i-cube/I-CUBE-HUAWEI/Middlewares/Third_Party/Huawei/iot_link/network/dtls/mbedtls/mbedtls-2.16.2/library\x509_crl.c ****     while( crl_cur != NULL );
 153              		.loc 1 770 10 view .LVU45
 766:D:/fchai/work/i-cube/I-CUBE-HUAWEI/Middlewares/Third_Party/Huawei/iot_link/network/dtls/mbedtls/mbedtls-2.16.2/library\x509_crl.c ****         if( crl_prv != crl )
 154              		.loc 1 766 9 is_stmt 0 view .LVU46
 155 006a 2046     		mov	r0, r4
 156 006c F421     		movs	r1, #244
 157              		.loc 1 770 5 view .LVU47
 158 006e 6CB1     		cbz	r4, .L28
 159              	.LVL21:
 160              	.L10:
 764:D:/fchai/work/i-cube/I-CUBE-HUAWEI/Middlewares/Third_Party/Huawei/iot_link/network/dtls/mbedtls/mbedtls-2.16.2/library\x509_crl.c **** 
 161              		.loc 1 764 17 view .LVU48
 162 0070 D4F8F050 		ldr	r5, [r4, #240]
 163              	.LVL22:
 766:D:/fchai/work/i-cube/I-CUBE-HUAWEI/Middlewares/Third_Party/Huawei/iot_link/network/dtls/mbedtls/mbedtls-2.16.2/library\x509_crl.c ****         if( crl_prv != crl )
 164              		.loc 1 766 9 is_stmt 1 view .LVU49
 165 0074 FFF7FEFF 		bl	mbedtls_platform_zeroize
 166              	.LVL23:
 767:D:/fchai/work/i-cube/I-CUBE-HUAWEI/Middlewares/Third_Party/Huawei/iot_link/network/dtls/mbedtls/mbedtls-2.16.2/library\x509_crl.c ****             mbedtls_free( crl_prv );
 167              		.loc 1 767 9 view .LVU50
 768:D:/fchai/work/i-cube/I-CUBE-HUAWEI/Middlewares/Third_Party/Huawei/iot_link/network/dtls/mbedtls/mbedtls-2.16.2/library\x509_crl.c ****             mbedtls_free( crl_prv );
 168              		.loc 1 768 13 view .LVU51
 767:D:/fchai/work/i-cube/I-CUBE-HUAWEI/Middlewares/Third_Party/Huawei/iot_link/network/dtls/mbedtls/mbedtls-2.16.2/library\x509_crl.c ****             mbedtls_free( crl_prv );
 169              		.loc 1 767 11 is_stmt 0 view .LVU52
 170 0078 B442     		cmp	r4, r6
 768:D:/fchai/work/i-cube/I-CUBE-HUAWEI/Middlewares/Third_Party/Huawei/iot_link/network/dtls/mbedtls/mbedtls-2.16.2/library\x509_crl.c ****             mbedtls_free( crl_prv );
 171              		.loc 1 768 13 view .LVU53
 172 007a 2046     		mov	r0, r4
 767:D:/fchai/work/i-cube/I-CUBE-HUAWEI/Middlewares/Third_Party/Huawei/iot_link/network/dtls/mbedtls/mbedtls-2.16.2/library\x509_crl.c ****             mbedtls_free( crl_prv );
 173              		.loc 1 767 11 view .LVU54
 174 007c 01D0     		beq	.L9
 175              	.LVL24:
 768:D:/fchai/work/i-cube/I-CUBE-HUAWEI/Middlewares/Third_Party/Huawei/iot_link/network/dtls/mbedtls/mbedtls-2.16.2/library\x509_crl.c ****             mbedtls_free( crl_prv );
 176              		.loc 1 768 13 view .LVU55
 177 007e FFF7FEFF 		bl	mbedtls_free
 178              	.LVL25:
 179              	.L9:
 764:D:/fchai/work/i-cube/I-CUBE-HUAWEI/Middlewares/Third_Party/Huawei/iot_link/network/dtls/mbedtls/mbedtls-2.16.2/library\x509_crl.c **** 
 180              		.loc 1 764 17 view .LVU56
 181 0082 2C46     		mov	r4, r5
 182              	.LVL26:
 761:D:/fchai/work/i-cube/I-CUBE-HUAWEI/Middlewares/Third_Party/Huawei/iot_link/network/dtls/mbedtls/mbedtls-2.16.2/library\x509_crl.c ****     {
ARM GAS  T:\msys\tmp\ccGq53OE.s 			page 18


 183              		.loc 1 761 5 is_stmt 1 view .LVU57
 763:D:/fchai/work/i-cube/I-CUBE-HUAWEI/Middlewares/Third_Party/Huawei/iot_link/network/dtls/mbedtls/mbedtls-2.16.2/library\x509_crl.c ****         crl_cur = crl_cur->next;
 184              		.loc 1 763 9 view .LVU58
 764:D:/fchai/work/i-cube/I-CUBE-HUAWEI/Middlewares/Third_Party/Huawei/iot_link/network/dtls/mbedtls/mbedtls-2.16.2/library\x509_crl.c **** 
 185              		.loc 1 764 9 view .LVU59
 186              		.loc 1 770 10 view .LVU60
 766:D:/fchai/work/i-cube/I-CUBE-HUAWEI/Middlewares/Third_Party/Huawei/iot_link/network/dtls/mbedtls/mbedtls-2.16.2/library\x509_crl.c ****         if( crl_prv != crl )
 187              		.loc 1 766 9 is_stmt 0 view .LVU61
 188 0084 2046     		mov	r0, r4
 189 0086 F421     		movs	r1, #244
 190              		.loc 1 770 5 view .LVU62
 191 0088 002C     		cmp	r4, #0
 192 008a F1D1     		bne	.L10
 193              	.LVL27:
 194              	.L28:
 771:D:/fchai/work/i-cube/I-CUBE-HUAWEI/Middlewares/Third_Party/Huawei/iot_link/network/dtls/mbedtls/mbedtls-2.16.2/library\x509_crl.c **** }
 195              		.loc 1 771 1 view .LVU63
 196 008c 02B0     		add	sp, sp, #8
 197              	.LCFI2:
 198              		.cfi_def_cfa_offset 16
 199              		@ sp needed
 200 008e 70BD     		pop	{r4, r5, r6, pc}
 201              		.loc 1 771 1 view .LVU64
 202              		.cfi_endproc
 203              	.LFE22:
 205              		.section	.text.mbedtls_x509_crl_parse_der,"ax",%progbits
 206              		.align	1
 207              		.p2align 2,,3
 208              		.global	mbedtls_x509_crl_parse_der
 209              		.syntax unified
 210              		.thumb
 211              		.thumb_func
 212              		.fpu fpv4-sp-d16
 214              	mbedtls_x509_crl_parse_der:
 215              	.LVL28:
 216              	.LFB17:
 302:D:/fchai/work/i-cube/I-CUBE-HUAWEI/Middlewares/Third_Party/Huawei/iot_link/network/dtls/mbedtls/mbedtls-2.16.2/library\x509_crl.c ****     int ret;
 217              		.loc 1 302 1 is_stmt 1 view -0
 218              		.cfi_startproc
 219              		@ args = 0, pretend = 0, frame = 64
 220              		@ frame_needed = 0, uses_anonymous_args = 0
 303:D:/fchai/work/i-cube/I-CUBE-HUAWEI/Middlewares/Third_Party/Huawei/iot_link/network/dtls/mbedtls/mbedtls-2.16.2/library\x509_crl.c ****     size_t len;
 221              		.loc 1 303 5 view .LVU66
 304:D:/fchai/work/i-cube/I-CUBE-HUAWEI/Middlewares/Third_Party/Huawei/iot_link/network/dtls/mbedtls/mbedtls-2.16.2/library\x509_crl.c ****     unsigned char *p = NULL, *end = NULL;
 222              		.loc 1 304 5 view .LVU67
 305:D:/fchai/work/i-cube/I-CUBE-HUAWEI/Middlewares/Third_Party/Huawei/iot_link/network/dtls/mbedtls/mbedtls-2.16.2/library\x509_crl.c ****     mbedtls_x509_buf sig_params1, sig_params2, sig_oid2;
 223              		.loc 1 305 5 view .LVU68
 302:D:/fchai/work/i-cube/I-CUBE-HUAWEI/Middlewares/Third_Party/Huawei/iot_link/network/dtls/mbedtls/mbedtls-2.16.2/library\x509_crl.c ****     int ret;
 224              		.loc 1 302 1 is_stmt 0 view .LVU69
 225 0000 2DE9F043 		push	{r4, r5, r6, r7, r8, r9, lr}
 226              	.LCFI3:
 227              		.cfi_def_cfa_offset 28
 228              		.cfi_offset 4, -28
 229              		.cfi_offset 5, -24
 230              		.cfi_offset 6, -20
 231              		.cfi_offset 7, -16
 232              		.cfi_offset 8, -12
ARM GAS  T:\msys\tmp\ccGq53OE.s 			page 19


 233              		.cfi_offset 9, -8
 234              		.cfi_offset 14, -4
 235 0004 93B0     		sub	sp, sp, #76
 236              	.LCFI4:
 237              		.cfi_def_cfa_offset 104
 305:D:/fchai/work/i-cube/I-CUBE-HUAWEI/Middlewares/Third_Party/Huawei/iot_link/network/dtls/mbedtls/mbedtls-2.16.2/library\x509_crl.c ****     mbedtls_x509_buf sig_params1, sig_params2, sig_oid2;
 238              		.loc 1 305 20 view .LVU70
 239 0006 0023     		movs	r3, #0
 240 0008 0593     		str	r3, [sp, #20]
 241              	.LVL29:
 306:D:/fchai/work/i-cube/I-CUBE-HUAWEI/Middlewares/Third_Party/Huawei/iot_link/network/dtls/mbedtls/mbedtls-2.16.2/library\x509_crl.c ****     mbedtls_x509_crl *crl = chain;
 242              		.loc 1 306 5 is_stmt 1 view .LVU71
 307:D:/fchai/work/i-cube/I-CUBE-HUAWEI/Middlewares/Third_Party/Huawei/iot_link/network/dtls/mbedtls/mbedtls-2.16.2/library\x509_crl.c **** 
 243              		.loc 1 307 5 view .LVU72
 312:D:/fchai/work/i-cube/I-CUBE-HUAWEI/Middlewares/Third_Party/Huawei/iot_link/network/dtls/mbedtls/mbedtls-2.16.2/library\x509_crl.c ****         return( MBEDTLS_ERR_X509_BAD_INPUT_DATA );
 244              		.loc 1 312 5 view .LVU73
 312:D:/fchai/work/i-cube/I-CUBE-HUAWEI/Middlewares/Third_Party/Huawei/iot_link/network/dtls/mbedtls/mbedtls-2.16.2/library\x509_crl.c ****         return( MBEDTLS_ERR_X509_BAD_INPUT_DATA );
 245              		.loc 1 312 7 is_stmt 0 view .LVU74
 246 000a 0028     		cmp	r0, #0
 247 000c 00F08D81 		beq	.L83
 248 0010 0F46     		mov	r7, r1
 312:D:/fchai/work/i-cube/I-CUBE-HUAWEI/Middlewares/Third_Party/Huawei/iot_link/network/dtls/mbedtls/mbedtls-2.16.2/library\x509_crl.c ****         return( MBEDTLS_ERR_X509_BAD_INPUT_DATA );
 249              		.loc 1 312 21 discriminator 1 view .LVU75
 250 0012 0029     		cmp	r1, #0
 251 0014 00F08981 		beq	.L83
 315:D:/fchai/work/i-cube/I-CUBE-HUAWEI/Middlewares/Third_Party/Huawei/iot_link/network/dtls/mbedtls/mbedtls-2.16.2/library\x509_crl.c ****     memset( &sig_params2, 0, sizeof( mbedtls_x509_buf ) );
 252              		.loc 1 315 5 view .LVU76
 253 0018 CDE90A33 		strd	r3, r3, [sp, #40]
 316:D:/fchai/work/i-cube/I-CUBE-HUAWEI/Middlewares/Third_Party/Huawei/iot_link/network/dtls/mbedtls/mbedtls-2.16.2/library\x509_crl.c ****     memset( &sig_oid2, 0, sizeof( mbedtls_x509_buf ) );
 254              		.loc 1 316 5 view .LVU77
 255 001c CDE90D33 		strd	r3, r3, [sp, #52]
 317:D:/fchai/work/i-cube/I-CUBE-HUAWEI/Middlewares/Third_Party/Huawei/iot_link/network/dtls/mbedtls/mbedtls-2.16.2/library\x509_crl.c **** 
 256              		.loc 1 317 5 view .LVU78
 257 0020 CDE91033 		strd	r3, r3, [sp, #64]
 258 0024 1646     		mov	r6, r2
 259 0026 0446     		mov	r4, r0
 315:D:/fchai/work/i-cube/I-CUBE-HUAWEI/Middlewares/Third_Party/Huawei/iot_link/network/dtls/mbedtls/mbedtls-2.16.2/library\x509_crl.c ****     memset( &sig_params2, 0, sizeof( mbedtls_x509_buf ) );
 260              		.loc 1 315 5 is_stmt 1 view .LVU79
 316:D:/fchai/work/i-cube/I-CUBE-HUAWEI/Middlewares/Third_Party/Huawei/iot_link/network/dtls/mbedtls/mbedtls-2.16.2/library\x509_crl.c ****     memset( &sig_oid2, 0, sizeof( mbedtls_x509_buf ) );
 261              		.loc 1 316 5 view .LVU80
 317:D:/fchai/work/i-cube/I-CUBE-HUAWEI/Middlewares/Third_Party/Huawei/iot_link/network/dtls/mbedtls/mbedtls-2.16.2/library\x509_crl.c **** 
 262              		.loc 1 317 5 view .LVU81
 322:D:/fchai/work/i-cube/I-CUBE-HUAWEI/Middlewares/Third_Party/Huawei/iot_link/network/dtls/mbedtls/mbedtls-2.16.2/library\x509_crl.c ****         crl = crl->next;
 263              		.loc 1 322 5 view .LVU82
 315:D:/fchai/work/i-cube/I-CUBE-HUAWEI/Middlewares/Third_Party/Huawei/iot_link/network/dtls/mbedtls/mbedtls-2.16.2/library\x509_crl.c ****     memset( &sig_params2, 0, sizeof( mbedtls_x509_buf ) );
 264              		.loc 1 315 5 is_stmt 0 view .LVU83
 265 0028 0993     		str	r3, [sp, #36]
 316:D:/fchai/work/i-cube/I-CUBE-HUAWEI/Middlewares/Third_Party/Huawei/iot_link/network/dtls/mbedtls/mbedtls-2.16.2/library\x509_crl.c ****     memset( &sig_oid2, 0, sizeof( mbedtls_x509_buf ) );
 266              		.loc 1 316 5 view .LVU84
 267 002a 0C93     		str	r3, [sp, #48]
 317:D:/fchai/work/i-cube/I-CUBE-HUAWEI/Middlewares/Third_Party/Huawei/iot_link/network/dtls/mbedtls/mbedtls-2.16.2/library\x509_crl.c **** 
 268              		.loc 1 317 5 view .LVU85
 269 002c 0F93     		str	r3, [sp, #60]
 322:D:/fchai/work/i-cube/I-CUBE-HUAWEI/Middlewares/Third_Party/Huawei/iot_link/network/dtls/mbedtls/mbedtls-2.16.2/library\x509_crl.c ****         crl = crl->next;
 270              		.loc 1 322 10 view .LVU86
 271 002e 05E0     		b	.L32
 272              	.LVL30:
ARM GAS  T:\msys\tmp\ccGq53OE.s 			page 20


 273              	.L125:
 322:D:/fchai/work/i-cube/I-CUBE-HUAWEI/Middlewares/Third_Party/Huawei/iot_link/network/dtls/mbedtls/mbedtls-2.16.2/library\x509_crl.c ****         crl = crl->next;
 274              		.loc 1 322 36 discriminator 1 view .LVU87
 275 0030 D4F8F050 		ldr	r5, [r4, #240]
 322:D:/fchai/work/i-cube/I-CUBE-HUAWEI/Middlewares/Third_Party/Huawei/iot_link/network/dtls/mbedtls/mbedtls-2.16.2/library\x509_crl.c ****         crl = crl->next;
 276              		.loc 1 322 30 discriminator 1 view .LVU88
 277 0034 002D     		cmp	r5, #0
 278 0036 00F01A81 		beq	.L124
 322:D:/fchai/work/i-cube/I-CUBE-HUAWEI/Middlewares/Third_Party/Huawei/iot_link/network/dtls/mbedtls/mbedtls-2.16.2/library\x509_crl.c ****         crl = crl->next;
 279              		.loc 1 322 30 discriminator 1 view .LVU89
 280 003a 2C46     		mov	r4, r5
 281              	.LVL31:
 282              	.L32:
 322:D:/fchai/work/i-cube/I-CUBE-HUAWEI/Middlewares/Third_Party/Huawei/iot_link/network/dtls/mbedtls/mbedtls-2.16.2/library\x509_crl.c ****         crl = crl->next;
 283              		.loc 1 322 10 is_stmt 1 view .LVU90
 284 003c A369     		ldr	r3, [r4, #24]
 285 003e 002B     		cmp	r3, #0
 286 0040 F6D1     		bne	.L125
 287              	.LVL32:
 288              	.L31:
 342:D:/fchai/work/i-cube/I-CUBE-HUAWEI/Middlewares/Third_Party/Huawei/iot_link/network/dtls/mbedtls/mbedtls-2.16.2/library\x509_crl.c ****         return( MBEDTLS_ERR_X509_INVALID_FORMAT );
 289              		.loc 1 342 5 view .LVU91
 342:D:/fchai/work/i-cube/I-CUBE-HUAWEI/Middlewares/Third_Party/Huawei/iot_link/network/dtls/mbedtls/mbedtls-2.16.2/library\x509_crl.c ****         return( MBEDTLS_ERR_X509_INVALID_FORMAT );
 290              		.loc 1 342 7 is_stmt 0 view .LVU92
 291 0042 002E     		cmp	r6, #0
 292 0044 00F06F81 		beq	.L85
 345:D:/fchai/work/i-cube/I-CUBE-HUAWEI/Middlewares/Third_Party/Huawei/iot_link/network/dtls/mbedtls/mbedtls-2.16.2/library\x509_crl.c ****     if( p == NULL )
 293              		.loc 1 345 5 is_stmt 1 view .LVU93
 345:D:/fchai/work/i-cube/I-CUBE-HUAWEI/Middlewares/Third_Party/Huawei/iot_link/network/dtls/mbedtls/mbedtls-2.16.2/library\x509_crl.c ****     if( p == NULL )
 294              		.loc 1 345 9 is_stmt 0 view .LVU94
 295 0048 3146     		mov	r1, r6
 296 004a 0120     		movs	r0, #1
 297 004c FFF7FEFF 		bl	mbedtls_calloc
 298              	.LVL33:
 345:D:/fchai/work/i-cube/I-CUBE-HUAWEI/Middlewares/Third_Party/Huawei/iot_link/network/dtls/mbedtls/mbedtls-2.16.2/library\x509_crl.c ****     if( p == NULL )
 299              		.loc 1 345 7 view .LVU95
 300 0050 0590     		str	r0, [sp, #20]
 346:D:/fchai/work/i-cube/I-CUBE-HUAWEI/Middlewares/Third_Party/Huawei/iot_link/network/dtls/mbedtls/mbedtls-2.16.2/library\x509_crl.c ****         return( MBEDTLS_ERR_X509_ALLOC_FAILED );
 301              		.loc 1 346 5 is_stmt 1 view .LVU96
 346:D:/fchai/work/i-cube/I-CUBE-HUAWEI/Middlewares/Third_Party/Huawei/iot_link/network/dtls/mbedtls/mbedtls-2.16.2/library\x509_crl.c ****         return( MBEDTLS_ERR_X509_ALLOC_FAILED );
 302              		.loc 1 346 7 is_stmt 0 view .LVU97
 303 0052 0028     		cmp	r0, #0
 304 0054 00F06B81 		beq	.L86
 349:D:/fchai/work/i-cube/I-CUBE-HUAWEI/Middlewares/Third_Party/Huawei/iot_link/network/dtls/mbedtls/mbedtls-2.16.2/library\x509_crl.c **** 
 305              		.loc 1 349 5 is_stmt 1 view .LVU98
 306 0058 3246     		mov	r2, r6
 307 005a 3946     		mov	r1, r7
 308 005c FFF7FEFF 		bl	memcpy
 309              	.LVL34:
 351:D:/fchai/work/i-cube/I-CUBE-HUAWEI/Middlewares/Third_Party/Huawei/iot_link/network/dtls/mbedtls/mbedtls-2.16.2/library\x509_crl.c ****     crl->raw.len = buflen;
 310              		.loc 1 351 5 view .LVU99
 351:D:/fchai/work/i-cube/I-CUBE-HUAWEI/Middlewares/Third_Party/Huawei/iot_link/network/dtls/mbedtls/mbedtls-2.16.2/library\x509_crl.c ****     crl->raw.len = buflen;
 311              		.loc 1 351 16 is_stmt 0 view .LVU100
 312 0060 059B     		ldr	r3, [sp, #20]
 352:D:/fchai/work/i-cube/I-CUBE-HUAWEI/Middlewares/Third_Party/Huawei/iot_link/network/dtls/mbedtls/mbedtls-2.16.2/library\x509_crl.c **** 
 313              		.loc 1 352 18 view .LVU101
 314 0062 6660     		str	r6, [r4, #4]
ARM GAS  T:\msys\tmp\ccGq53OE.s 			page 21


 354:D:/fchai/work/i-cube/I-CUBE-HUAWEI/Middlewares/Third_Party/Huawei/iot_link/network/dtls/mbedtls/mbedtls-2.16.2/library\x509_crl.c **** 
 315              		.loc 1 354 9 view .LVU102
 316 0064 1E44     		add	r6, r6, r3
 317              	.LVL35:
 351:D:/fchai/work/i-cube/I-CUBE-HUAWEI/Middlewares/Third_Party/Huawei/iot_link/network/dtls/mbedtls/mbedtls-2.16.2/library\x509_crl.c ****     crl->raw.len = buflen;
 318              		.loc 1 351 16 view .LVU103
 319 0066 A360     		str	r3, [r4, #8]
 352:D:/fchai/work/i-cube/I-CUBE-HUAWEI/Middlewares/Third_Party/Huawei/iot_link/network/dtls/mbedtls/mbedtls-2.16.2/library\x509_crl.c **** 
 320              		.loc 1 352 5 is_stmt 1 view .LVU104
 354:D:/fchai/work/i-cube/I-CUBE-HUAWEI/Middlewares/Third_Party/Huawei/iot_link/network/dtls/mbedtls/mbedtls-2.16.2/library\x509_crl.c **** 
 321              		.loc 1 354 5 view .LVU105
 322              	.LVL36:
 362:D:/fchai/work/i-cube/I-CUBE-HUAWEI/Middlewares/Third_Party/Huawei/iot_link/network/dtls/mbedtls/mbedtls-2.16.2/library\x509_crl.c ****             MBEDTLS_ASN1_CONSTRUCTED | MBEDTLS_ASN1_SEQUENCE ) ) != 0 )
 323              		.loc 1 362 5 view .LVU106
 362:D:/fchai/work/i-cube/I-CUBE-HUAWEI/Middlewares/Third_Party/Huawei/iot_link/network/dtls/mbedtls/mbedtls-2.16.2/library\x509_crl.c ****             MBEDTLS_ASN1_CONSTRUCTED | MBEDTLS_ASN1_SEQUENCE ) ) != 0 )
 324              		.loc 1 362 17 is_stmt 0 view .LVU107
 325 0068 3146     		mov	r1, r6
 326 006a 04AA     		add	r2, sp, #16
 327 006c 05A8     		add	r0, sp, #20
 328 006e 3023     		movs	r3, #48
 329 0070 FFF7FEFF 		bl	mbedtls_asn1_get_tag
 330              	.LVL37:
 362:D:/fchai/work/i-cube/I-CUBE-HUAWEI/Middlewares/Third_Party/Huawei/iot_link/network/dtls/mbedtls/mbedtls-2.16.2/library\x509_crl.c ****             MBEDTLS_ASN1_CONSTRUCTED | MBEDTLS_ASN1_SEQUENCE ) ) != 0 )
 331              		.loc 1 362 7 view .LVU108
 332 0074 0028     		cmp	r0, #0
 333 0076 40F0B681 		bne	.L126
 369:D:/fchai/work/i-cube/I-CUBE-HUAWEI/Middlewares/Third_Party/Huawei/iot_link/network/dtls/mbedtls/mbedtls-2.16.2/library\x509_crl.c ****     {
 334              		.loc 1 369 5 is_stmt 1 view .LVU109
 369:D:/fchai/work/i-cube/I-CUBE-HUAWEI/Middlewares/Third_Party/Huawei/iot_link/network/dtls/mbedtls/mbedtls-2.16.2/library\x509_crl.c ****     {
 335              		.loc 1 369 7 is_stmt 0 view .LVU110
 336 007a DDE90423 		ldrd	r2, r3, [sp, #16]
 369:D:/fchai/work/i-cube/I-CUBE-HUAWEI/Middlewares/Third_Party/Huawei/iot_link/network/dtls/mbedtls/mbedtls-2.16.2/library\x509_crl.c ****     {
 337              		.loc 1 369 31 view .LVU111
 338 007e F11A     		subs	r1, r6, r3
 369:D:/fchai/work/i-cube/I-CUBE-HUAWEI/Middlewares/Third_Party/Huawei/iot_link/network/dtls/mbedtls/mbedtls-2.16.2/library\x509_crl.c ****     {
 339              		.loc 1 369 7 view .LVU112
 340 0080 9142     		cmp	r1, r2
 341 0082 40F04381 		bne	.L123
 379:D:/fchai/work/i-cube/I-CUBE-HUAWEI/Middlewares/Third_Party/Huawei/iot_link/network/dtls/mbedtls/mbedtls-2.16.2/library\x509_crl.c **** 
 342              		.loc 1 379 5 is_stmt 1 view .LVU113
 379:D:/fchai/work/i-cube/I-CUBE-HUAWEI/Middlewares/Third_Party/Huawei/iot_link/network/dtls/mbedtls/mbedtls-2.16.2/library\x509_crl.c **** 
 343              		.loc 1 379 16 is_stmt 0 view .LVU114
 344 0086 6361     		str	r3, [r4, #20]
 381:D:/fchai/work/i-cube/I-CUBE-HUAWEI/Middlewares/Third_Party/Huawei/iot_link/network/dtls/mbedtls/mbedtls-2.16.2/library\x509_crl.c ****             MBEDTLS_ASN1_CONSTRUCTED | MBEDTLS_ASN1_SEQUENCE ) ) != 0 )
 345              		.loc 1 381 5 is_stmt 1 view .LVU115
 381:D:/fchai/work/i-cube/I-CUBE-HUAWEI/Middlewares/Third_Party/Huawei/iot_link/network/dtls/mbedtls/mbedtls-2.16.2/library\x509_crl.c ****             MBEDTLS_ASN1_CONSTRUCTED | MBEDTLS_ASN1_SEQUENCE ) ) != 0 )
 346              		.loc 1 381 17 is_stmt 0 view .LVU116
 347 0088 3146     		mov	r1, r6
 348 008a 3023     		movs	r3, #48
 349 008c 04AA     		add	r2, sp, #16
 350 008e 05A8     		add	r0, sp, #20
 351              	.LVL38:
 381:D:/fchai/work/i-cube/I-CUBE-HUAWEI/Middlewares/Third_Party/Huawei/iot_link/network/dtls/mbedtls/mbedtls-2.16.2/library\x509_crl.c ****             MBEDTLS_ASN1_CONSTRUCTED | MBEDTLS_ASN1_SEQUENCE ) ) != 0 )
 352              		.loc 1 381 17 view .LVU117
 353 0090 FFF7FEFF 		bl	mbedtls_asn1_get_tag
 354              	.LVL39:
 381:D:/fchai/work/i-cube/I-CUBE-HUAWEI/Middlewares/Third_Party/Huawei/iot_link/network/dtls/mbedtls/mbedtls-2.16.2/library\x509_crl.c ****             MBEDTLS_ASN1_CONSTRUCTED | MBEDTLS_ASN1_SEQUENCE ) ) != 0 )
ARM GAS  T:\msys\tmp\ccGq53OE.s 			page 22


 355              		.loc 1 381 7 view .LVU118
 356 0094 0546     		mov	r5, r0
 357 0096 0028     		cmp	r0, #0
 358 0098 40F0F980 		bne	.L122
 388:D:/fchai/work/i-cube/I-CUBE-HUAWEI/Middlewares/Third_Party/Huawei/iot_link/network/dtls/mbedtls/mbedtls-2.16.2/library\x509_crl.c ****     crl->tbs.len = end - crl->tbs.p;
 359              		.loc 1 388 5 is_stmt 1 view .LVU119
 388:D:/fchai/work/i-cube/I-CUBE-HUAWEI/Middlewares/Third_Party/Huawei/iot_link/network/dtls/mbedtls/mbedtls-2.16.2/library\x509_crl.c ****     crl->tbs.len = end - crl->tbs.p;
 360              		.loc 1 388 9 is_stmt 0 view .LVU120
 361 009c DDE90427 		ldrd	r2, r7, [sp, #16]
 362              	.LVL40:
 389:D:/fchai/work/i-cube/I-CUBE-HUAWEI/Middlewares/Third_Party/Huawei/iot_link/network/dtls/mbedtls/mbedtls-2.16.2/library\x509_crl.c **** 
 363              		.loc 1 389 24 view .LVU121
 364 00a0 6369     		ldr	r3, [r4, #20]
 388:D:/fchai/work/i-cube/I-CUBE-HUAWEI/Middlewares/Third_Party/Huawei/iot_link/network/dtls/mbedtls/mbedtls-2.16.2/library\x509_crl.c ****     crl->tbs.len = end - crl->tbs.p;
 365              		.loc 1 388 9 view .LVU122
 366 00a2 1744     		add	r7, r7, r2
 367              	.LVL41:
 389:D:/fchai/work/i-cube/I-CUBE-HUAWEI/Middlewares/Third_Party/Huawei/iot_link/network/dtls/mbedtls/mbedtls-2.16.2/library\x509_crl.c **** 
 368              		.loc 1 389 5 is_stmt 1 view .LVU123
 389:D:/fchai/work/i-cube/I-CUBE-HUAWEI/Middlewares/Third_Party/Huawei/iot_link/network/dtls/mbedtls/mbedtls-2.16.2/library\x509_crl.c **** 
 369              		.loc 1 389 24 is_stmt 0 view .LVU124
 370 00a4 FB1A     		subs	r3, r7, r3
 389:D:/fchai/work/i-cube/I-CUBE-HUAWEI/Middlewares/Third_Party/Huawei/iot_link/network/dtls/mbedtls/mbedtls-2.16.2/library\x509_crl.c **** 
 371              		.loc 1 389 18 view .LVU125
 372 00a6 2361     		str	r3, [r4, #16]
 397:D:/fchai/work/i-cube/I-CUBE-HUAWEI/Middlewares/Third_Party/Huawei/iot_link/network/dtls/mbedtls/mbedtls-2.16.2/library\x509_crl.c ****         ( ret = mbedtls_x509_get_alg( &p, end, &crl->sig_oid, &sig_params1 ) ) != 0 )
 373              		.loc 1 397 5 is_stmt 1 view .LVU126
 374              	.LVL42:
 375              	.LBB90:
 376              	.LBI90:
  73:D:/fchai/work/i-cube/I-CUBE-HUAWEI/Middlewares/Third_Party/Huawei/iot_link/network/dtls/mbedtls/mbedtls-2.16.2/library\x509_crl.c ****                              const unsigned char *end,
 377              		.loc 1 73 12 view .LVU127
 378              	.LBB91:
  77:D:/fchai/work/i-cube/I-CUBE-HUAWEI/Middlewares/Third_Party/Huawei/iot_link/network/dtls/mbedtls/mbedtls-2.16.2/library\x509_crl.c **** 
 379              		.loc 1 77 5 view .LVU128
  79:D:/fchai/work/i-cube/I-CUBE-HUAWEI/Middlewares/Third_Party/Huawei/iot_link/network/dtls/mbedtls/mbedtls-2.16.2/library\x509_crl.c ****     {
 380              		.loc 1 79 5 view .LVU129
  79:D:/fchai/work/i-cube/I-CUBE-HUAWEI/Middlewares/Third_Party/Huawei/iot_link/network/dtls/mbedtls/mbedtls-2.16.2/library\x509_crl.c ****     {
 381              		.loc 1 79 17 is_stmt 0 view .LVU130
 382 00a8 3946     		mov	r1, r7
 383 00aa 04F11802 		add	r2, r4, #24
 384              	.LVL43:
  79:D:/fchai/work/i-cube/I-CUBE-HUAWEI/Middlewares/Third_Party/Huawei/iot_link/network/dtls/mbedtls/mbedtls-2.16.2/library\x509_crl.c ****     {
 385              		.loc 1 79 17 view .LVU131
 386 00ae 05A8     		add	r0, sp, #20
 387              	.LVL44:
  79:D:/fchai/work/i-cube/I-CUBE-HUAWEI/Middlewares/Third_Party/Huawei/iot_link/network/dtls/mbedtls/mbedtls-2.16.2/library\x509_crl.c ****     {
 388              		.loc 1 79 17 view .LVU132
 389 00b0 FFF7FEFF 		bl	mbedtls_asn1_get_int
 390              	.LVL45:
  79:D:/fchai/work/i-cube/I-CUBE-HUAWEI/Middlewares/Third_Party/Huawei/iot_link/network/dtls/mbedtls/mbedtls-2.16.2/library\x509_crl.c ****     {
 391              		.loc 1 79 7 view .LVU133
 392 00b4 38B1     		cbz	r0, .L37
  81:D:/fchai/work/i-cube/I-CUBE-HUAWEI/Middlewares/Third_Party/Huawei/iot_link/network/dtls/mbedtls/mbedtls-2.16.2/library\x509_crl.c ****         {
 393              		.loc 1 81 9 is_stmt 1 view .LVU134
  81:D:/fchai/work/i-cube/I-CUBE-HUAWEI/Middlewares/Third_Party/Huawei/iot_link/network/dtls/mbedtls/mbedtls-2.16.2/library\x509_crl.c ****         {
 394              		.loc 1 81 11 is_stmt 0 view .LVU135
ARM GAS  T:\msys\tmp\ccGq53OE.s 			page 23


 395 00b6 10F1620F 		cmn	r0, #98
 396 00ba 00F0F180 		beq	.L127
  87:D:/fchai/work/i-cube/I-CUBE-HUAWEI/Middlewares/Third_Party/Huawei/iot_link/network/dtls/mbedtls/mbedtls-2.16.2/library\x509_crl.c ****     }
 397              		.loc 1 87 9 is_stmt 1 view .LVU136
 398              	.LVL46:
  87:D:/fchai/work/i-cube/I-CUBE-HUAWEI/Middlewares/Third_Party/Huawei/iot_link/network/dtls/mbedtls/mbedtls-2.16.2/library\x509_crl.c ****     }
 399              		.loc 1 87 9 is_stmt 0 view .LVU137
 400              	.LBE91:
 401              	.LBE90:
 397:D:/fchai/work/i-cube/I-CUBE-HUAWEI/Middlewares/Third_Party/Huawei/iot_link/network/dtls/mbedtls/mbedtls-2.16.2/library\x509_crl.c ****         ( ret = mbedtls_x509_get_alg( &p, end, &crl->sig_oid, &sig_params1 ) ) != 0 )
 402              		.loc 1 397 7 view .LVU138
 403 00be B0F50855 		subs	r5, r0, #8704
 404              	.LVL47:
 397:D:/fchai/work/i-cube/I-CUBE-HUAWEI/Middlewares/Third_Party/Huawei/iot_link/network/dtls/mbedtls/mbedtls-2.16.2/library\x509_crl.c ****         ( ret = mbedtls_x509_get_alg( &p, end, &crl->sig_oid, &sig_params1 ) ) != 0 )
 405              		.loc 1 397 7 view .LVU139
 406 00c2 40F0CD80 		bne	.L50
 407              	.LVL48:
 408              	.L37:
 398:D:/fchai/work/i-cube/I-CUBE-HUAWEI/Middlewares/Third_Party/Huawei/iot_link/network/dtls/mbedtls/mbedtls-2.16.2/library\x509_crl.c ****     {
 409              		.loc 1 398 17 discriminator 1 view .LVU140
 410 00c6 04F11C06 		add	r6, r4, #28
 411 00ca 3246     		mov	r2, r6
 412 00cc 09AB     		add	r3, sp, #36
 413 00ce 3946     		mov	r1, r7
 414 00d0 05A8     		add	r0, sp, #20
 415 00d2 FFF7FEFF 		bl	mbedtls_x509_get_alg
 416              	.LVL49:
 397:D:/fchai/work/i-cube/I-CUBE-HUAWEI/Middlewares/Third_Party/Huawei/iot_link/network/dtls/mbedtls/mbedtls-2.16.2/library\x509_crl.c ****         ( ret = mbedtls_x509_get_alg( &p, end, &crl->sig_oid, &sig_params1 ) ) != 0 )
 417              		.loc 1 397 71 discriminator 1 view .LVU141
 418 00d6 0546     		mov	r5, r0
 419 00d8 0028     		cmp	r0, #0
 420 00da 40F0C180 		bne	.L50
 404:D:/fchai/work/i-cube/I-CUBE-HUAWEI/Middlewares/Third_Party/Huawei/iot_link/network/dtls/mbedtls/mbedtls-2.16.2/library\x509_crl.c ****     {
 421              		.loc 1 404 5 is_stmt 1 view .LVU142
 404:D:/fchai/work/i-cube/I-CUBE-HUAWEI/Middlewares/Third_Party/Huawei/iot_link/network/dtls/mbedtls/mbedtls-2.16.2/library\x509_crl.c ****     {
 422              		.loc 1 404 12 is_stmt 0 view .LVU143
 423 00de A369     		ldr	r3, [r4, #24]
 404:D:/fchai/work/i-cube/I-CUBE-HUAWEI/Middlewares/Third_Party/Huawei/iot_link/network/dtls/mbedtls/mbedtls-2.16.2/library\x509_crl.c ****     {
 424              		.loc 1 404 7 view .LVU144
 425 00e0 012B     		cmp	r3, #1
 426 00e2 00F27B81 		bhi	.L128
 410:D:/fchai/work/i-cube/I-CUBE-HUAWEI/Middlewares/Third_Party/Huawei/iot_link/network/dtls/mbedtls/mbedtls-2.16.2/library\x509_crl.c **** 
 427              		.loc 1 410 5 is_stmt 1 view .LVU145
 410:D:/fchai/work/i-cube/I-CUBE-HUAWEI/Middlewares/Third_Party/Huawei/iot_link/network/dtls/mbedtls/mbedtls-2.16.2/library\x509_crl.c **** 
 428              		.loc 1 410 17 is_stmt 0 view .LVU146
 429 00e6 0133     		adds	r3, r3, #1
 412:D:/fchai/work/i-cube/I-CUBE-HUAWEI/Middlewares/Third_Party/Huawei/iot_link/network/dtls/mbedtls/mbedtls-2.16.2/library\x509_crl.c ****                                   &crl->sig_md, &crl->sig_pk,
 430              		.loc 1 412 17 view .LVU147
 431 00e8 04F1EC02 		add	r2, r4, #236
 410:D:/fchai/work/i-cube/I-CUBE-HUAWEI/Middlewares/Third_Party/Huawei/iot_link/network/dtls/mbedtls/mbedtls-2.16.2/library\x509_crl.c **** 
 432              		.loc 1 410 17 view .LVU148
 433 00ec A361     		str	r3, [r4, #24]
 412:D:/fchai/work/i-cube/I-CUBE-HUAWEI/Middlewares/Third_Party/Huawei/iot_link/network/dtls/mbedtls/mbedtls-2.16.2/library\x509_crl.c ****                                   &crl->sig_md, &crl->sig_pk,
 434              		.loc 1 412 5 is_stmt 1 view .LVU149
 412:D:/fchai/work/i-cube/I-CUBE-HUAWEI/Middlewares/Third_Party/Huawei/iot_link/network/dtls/mbedtls/mbedtls-2.16.2/library\x509_crl.c ****                                   &crl->sig_md, &crl->sig_pk,
 435              		.loc 1 412 17 is_stmt 0 view .LVU150
 436 00ee 09A9     		add	r1, sp, #36
ARM GAS  T:\msys\tmp\ccGq53OE.s 			page 24


 437 00f0 0092     		str	r2, [sp]
 438 00f2 3046     		mov	r0, r6
 439              	.LVL50:
 412:D:/fchai/work/i-cube/I-CUBE-HUAWEI/Middlewares/Third_Party/Huawei/iot_link/network/dtls/mbedtls/mbedtls-2.16.2/library\x509_crl.c ****                                   &crl->sig_md, &crl->sig_pk,
 440              		.loc 1 412 17 view .LVU151
 441 00f4 04F1E903 		add	r3, r4, #233
 442 00f8 04F1E802 		add	r2, r4, #232
 443 00fc FFF7FEFF 		bl	mbedtls_x509_get_sig_alg
 444              	.LVL51:
 412:D:/fchai/work/i-cube/I-CUBE-HUAWEI/Middlewares/Third_Party/Huawei/iot_link/network/dtls/mbedtls/mbedtls-2.16.2/library\x509_crl.c ****                                   &crl->sig_md, &crl->sig_pk,
 445              		.loc 1 412 7 view .LVU152
 446 0100 0028     		cmp	r0, #0
 447 0102 40F07581 		bne	.L129
 423:D:/fchai/work/i-cube/I-CUBE-HUAWEI/Middlewares/Third_Party/Huawei/iot_link/network/dtls/mbedtls/mbedtls-2.16.2/library\x509_crl.c **** 
 448              		.loc 1 423 5 is_stmt 1 view .LVU153
 423:D:/fchai/work/i-cube/I-CUBE-HUAWEI/Middlewares/Third_Party/Huawei/iot_link/network/dtls/mbedtls/mbedtls-2.16.2/library\x509_crl.c **** 
 449              		.loc 1 423 23 is_stmt 0 view .LVU154
 450 0106 059B     		ldr	r3, [sp, #20]
 451 0108 2363     		str	r3, [r4, #48]
 425:D:/fchai/work/i-cube/I-CUBE-HUAWEI/Middlewares/Third_Party/Huawei/iot_link/network/dtls/mbedtls/mbedtls-2.16.2/library\x509_crl.c ****             MBEDTLS_ASN1_CONSTRUCTED | MBEDTLS_ASN1_SEQUENCE ) ) != 0 )
 452              		.loc 1 425 5 is_stmt 1 view .LVU155
 425:D:/fchai/work/i-cube/I-CUBE-HUAWEI/Middlewares/Third_Party/Huawei/iot_link/network/dtls/mbedtls/mbedtls-2.16.2/library\x509_crl.c ****             MBEDTLS_ASN1_CONSTRUCTED | MBEDTLS_ASN1_SEQUENCE ) ) != 0 )
 453              		.loc 1 425 17 is_stmt 0 view .LVU156
 454 010a 04AA     		add	r2, sp, #16
 455 010c 3023     		movs	r3, #48
 456 010e 3946     		mov	r1, r7
 457 0110 05A8     		add	r0, sp, #20
 458              	.LVL52:
 425:D:/fchai/work/i-cube/I-CUBE-HUAWEI/Middlewares/Third_Party/Huawei/iot_link/network/dtls/mbedtls/mbedtls-2.16.2/library\x509_crl.c ****             MBEDTLS_ASN1_CONSTRUCTED | MBEDTLS_ASN1_SEQUENCE ) ) != 0 )
 459              		.loc 1 425 17 view .LVU157
 460 0112 FFF7FEFF 		bl	mbedtls_asn1_get_tag
 461              	.LVL53:
 425:D:/fchai/work/i-cube/I-CUBE-HUAWEI/Middlewares/Third_Party/Huawei/iot_link/network/dtls/mbedtls/mbedtls-2.16.2/library\x509_crl.c ****             MBEDTLS_ASN1_CONSTRUCTED | MBEDTLS_ASN1_SEQUENCE ) ) != 0 )
 462              		.loc 1 425 7 view .LVU158
 463 0116 0546     		mov	r5, r0
 464 0118 0028     		cmp	r0, #0
 465 011a 40F0B880 		bne	.L122
 432:D:/fchai/work/i-cube/I-CUBE-HUAWEI/Middlewares/Third_Party/Huawei/iot_link/network/dtls/mbedtls/mbedtls-2.16.2/library\x509_crl.c ****     {
 466              		.loc 1 432 5 is_stmt 1 view .LVU159
 432:D:/fchai/work/i-cube/I-CUBE-HUAWEI/Middlewares/Third_Party/Huawei/iot_link/network/dtls/mbedtls/mbedtls-2.16.2/library\x509_crl.c ****     {
 467              		.loc 1 432 46 is_stmt 0 view .LVU160
 468 011e DDE90431 		ldrd	r3, r1, [sp, #16]
 432:D:/fchai/work/i-cube/I-CUBE-HUAWEI/Middlewares/Third_Party/Huawei/iot_link/network/dtls/mbedtls/mbedtls-2.16.2/library\x509_crl.c ****     {
 469              		.loc 1 432 17 view .LVU161
 470 0122 04F13402 		add	r2, r4, #52
 471 0126 1944     		add	r1, r1, r3
 472 0128 05A8     		add	r0, sp, #20
 473              	.LVL54:
 432:D:/fchai/work/i-cube/I-CUBE-HUAWEI/Middlewares/Third_Party/Huawei/iot_link/network/dtls/mbedtls/mbedtls-2.16.2/library\x509_crl.c ****     {
 474              		.loc 1 432 17 view .LVU162
 475 012a FFF7FEFF 		bl	mbedtls_x509_get_name
 476              	.LVL55:
 432:D:/fchai/work/i-cube/I-CUBE-HUAWEI/Middlewares/Third_Party/Huawei/iot_link/network/dtls/mbedtls/mbedtls-2.16.2/library\x509_crl.c ****     {
 477              		.loc 1 432 7 view .LVU163
 478 012e 0546     		mov	r5, r0
 479 0130 0028     		cmp	r0, #0
 480 0132 40F09580 		bne	.L50
ARM GAS  T:\msys\tmp\ccGq53OE.s 			page 25


 438:D:/fchai/work/i-cube/I-CUBE-HUAWEI/Middlewares/Third_Party/Huawei/iot_link/network/dtls/mbedtls/mbedtls-2.16.2/library\x509_crl.c **** 
 481              		.loc 1 438 5 is_stmt 1 view .LVU164
 438:D:/fchai/work/i-cube/I-CUBE-HUAWEI/Middlewares/Third_Party/Huawei/iot_link/network/dtls/mbedtls/mbedtls-2.16.2/library\x509_crl.c **** 
 482              		.loc 1 438 29 is_stmt 0 view .LVU165
 483 0136 226B     		ldr	r2, [r4, #48]
 484 0138 059B     		ldr	r3, [sp, #20]
 485 013a 9B1A     		subs	r3, r3, r2
 438:D:/fchai/work/i-cube/I-CUBE-HUAWEI/Middlewares/Third_Party/Huawei/iot_link/network/dtls/mbedtls/mbedtls-2.16.2/library\x509_crl.c **** 
 486              		.loc 1 438 25 view .LVU166
 487 013c E362     		str	r3, [r4, #44]
 444:D:/fchai/work/i-cube/I-CUBE-HUAWEI/Middlewares/Third_Party/Huawei/iot_link/network/dtls/mbedtls/mbedtls-2.16.2/library\x509_crl.c ****     {
 488              		.loc 1 444 5 is_stmt 1 view .LVU167
 444:D:/fchai/work/i-cube/I-CUBE-HUAWEI/Middlewares/Third_Party/Huawei/iot_link/network/dtls/mbedtls/mbedtls-2.16.2/library\x509_crl.c ****     {
 489              		.loc 1 444 17 is_stmt 0 view .LVU168
 490 013e 04F15402 		add	r2, r4, #84
 491 0142 3946     		mov	r1, r7
 492 0144 05A8     		add	r0, sp, #20
 493              	.LVL56:
 444:D:/fchai/work/i-cube/I-CUBE-HUAWEI/Middlewares/Third_Party/Huawei/iot_link/network/dtls/mbedtls/mbedtls-2.16.2/library\x509_crl.c ****     {
 494              		.loc 1 444 17 view .LVU169
 495 0146 FFF7FEFF 		bl	mbedtls_x509_get_time
 496              	.LVL57:
 444:D:/fchai/work/i-cube/I-CUBE-HUAWEI/Middlewares/Third_Party/Huawei/iot_link/network/dtls/mbedtls/mbedtls-2.16.2/library\x509_crl.c ****     {
 497              		.loc 1 444 7 view .LVU170
 498 014a 0546     		mov	r5, r0
 499 014c 0028     		cmp	r0, #0
 500 014e 40F08780 		bne	.L50
 450:D:/fchai/work/i-cube/I-CUBE-HUAWEI/Middlewares/Third_Party/Huawei/iot_link/network/dtls/mbedtls/mbedtls-2.16.2/library\x509_crl.c ****     {
 501              		.loc 1 450 5 is_stmt 1 view .LVU171
 450:D:/fchai/work/i-cube/I-CUBE-HUAWEI/Middlewares/Third_Party/Huawei/iot_link/network/dtls/mbedtls/mbedtls-2.16.2/library\x509_crl.c ****     {
 502              		.loc 1 450 17 is_stmt 0 view .LVU172
 503 0152 04F16C02 		add	r2, r4, #108
 504 0156 3946     		mov	r1, r7
 505 0158 05A8     		add	r0, sp, #20
 506              	.LVL58:
 450:D:/fchai/work/i-cube/I-CUBE-HUAWEI/Middlewares/Third_Party/Huawei/iot_link/network/dtls/mbedtls/mbedtls-2.16.2/library\x509_crl.c ****     {
 507              		.loc 1 450 17 view .LVU173
 508 015a FFF7FEFF 		bl	mbedtls_x509_get_time
 509              	.LVL59:
 450:D:/fchai/work/i-cube/I-CUBE-HUAWEI/Middlewares/Third_Party/Huawei/iot_link/network/dtls/mbedtls/mbedtls-2.16.2/library\x509_crl.c ****     {
 510              		.loc 1 450 7 view .LVU174
 511 015e 0546     		mov	r5, r0
 512 0160 28B1     		cbz	r0, .L46
 452:D:/fchai/work/i-cube/I-CUBE-HUAWEI/Middlewares/Third_Party/Huawei/iot_link/network/dtls/mbedtls/mbedtls-2.16.2/library\x509_crl.c ****                         MBEDTLS_ERR_ASN1_UNEXPECTED_TAG ) &&
 513              		.loc 1 452 9 is_stmt 1 view .LVU175
 452:D:/fchai/work/i-cube/I-CUBE-HUAWEI/Middlewares/Third_Party/Huawei/iot_link/network/dtls/mbedtls/mbedtls-2.16.2/library\x509_crl.c ****                         MBEDTLS_ERR_ASN1_UNEXPECTED_TAG ) &&
 514              		.loc 1 452 11 is_stmt 0 view .LVU176
 515 0162 AB4B     		ldr	r3, .L136
 516 0164 9842     		cmp	r0, r3
 517 0166 02D0     		beq	.L46
 453:D:/fchai/work/i-cube/I-CUBE-HUAWEI/Middlewares/Third_Party/Huawei/iot_link/network/dtls/mbedtls/mbedtls-2.16.2/library\x509_crl.c ****             ret != ( MBEDTLS_ERR_X509_INVALID_DATE +
 518              		.loc 1 453 59 view .LVU177
 519 0168 0233     		adds	r3, r3, #2
 520 016a 9842     		cmp	r0, r3
 521 016c 78D1     		bne	.L50
 522              	.L46:
 470:D:/fchai/work/i-cube/I-CUBE-HUAWEI/Middlewares/Third_Party/Huawei/iot_link/network/dtls/mbedtls/mbedtls-2.16.2/library\x509_crl.c ****     {
ARM GAS  T:\msys\tmp\ccGq53OE.s 			page 26


 523              		.loc 1 470 5 is_stmt 1 view .LVU178
 524              	.LVL60:
 525              	.LBB93:
 526              	.LBI93:
 234:D:/fchai/work/i-cube/I-CUBE-HUAWEI/Middlewares/Third_Party/Huawei/iot_link/network/dtls/mbedtls/mbedtls-2.16.2/library\x509_crl.c ****                              const unsigned char *end,
 527              		.loc 1 234 12 view .LVU179
 528              	.LBB94:
 238:D:/fchai/work/i-cube/I-CUBE-HUAWEI/Middlewares/Third_Party/Huawei/iot_link/network/dtls/mbedtls/mbedtls-2.16.2/library\x509_crl.c ****     size_t entry_len;
 529              		.loc 1 238 5 view .LVU180
 239:D:/fchai/work/i-cube/I-CUBE-HUAWEI/Middlewares/Third_Party/Huawei/iot_link/network/dtls/mbedtls/mbedtls-2.16.2/library\x509_crl.c ****     mbedtls_x509_crl_entry *cur_entry = entry;
 530              		.loc 1 239 5 view .LVU181
 240:D:/fchai/work/i-cube/I-CUBE-HUAWEI/Middlewares/Third_Party/Huawei/iot_link/network/dtls/mbedtls/mbedtls-2.16.2/library\x509_crl.c **** 
 531              		.loc 1 240 5 view .LVU182
 242:D:/fchai/work/i-cube/I-CUBE-HUAWEI/Middlewares/Third_Party/Huawei/iot_link/network/dtls/mbedtls/mbedtls-2.16.2/library\x509_crl.c ****         return( 0 );
 532              		.loc 1 242 5 view .LVU183
 242:D:/fchai/work/i-cube/I-CUBE-HUAWEI/Middlewares/Third_Party/Huawei/iot_link/network/dtls/mbedtls/mbedtls-2.16.2/library\x509_crl.c ****         return( 0 );
 533              		.loc 1 242 7 is_stmt 0 view .LVU184
 534 016e 059B     		ldr	r3, [sp, #20]
 535 0170 9F42     		cmp	r7, r3
 536 0172 00F0A080 		beq	.L48
 245:D:/fchai/work/i-cube/I-CUBE-HUAWEI/Middlewares/Third_Party/Huawei/iot_link/network/dtls/mbedtls/mbedtls-2.16.2/library\x509_crl.c ****             MBEDTLS_ASN1_SEQUENCE | MBEDTLS_ASN1_CONSTRUCTED ) ) != 0 )
 537              		.loc 1 245 5 is_stmt 1 view .LVU185
 245:D:/fchai/work/i-cube/I-CUBE-HUAWEI/Middlewares/Third_Party/Huawei/iot_link/network/dtls/mbedtls/mbedtls-2.16.2/library\x509_crl.c ****             MBEDTLS_ASN1_SEQUENCE | MBEDTLS_ASN1_CONSTRUCTED ) ) != 0 )
 538              		.loc 1 245 17 is_stmt 0 view .LVU186
 539 0176 3023     		movs	r3, #48
 540 0178 06AA     		add	r2, sp, #24
 541 017a 3946     		mov	r1, r7
 542 017c 05A8     		add	r0, sp, #20
 543              	.LVL61:
 245:D:/fchai/work/i-cube/I-CUBE-HUAWEI/Middlewares/Third_Party/Huawei/iot_link/network/dtls/mbedtls/mbedtls-2.16.2/library\x509_crl.c ****             MBEDTLS_ASN1_SEQUENCE | MBEDTLS_ASN1_CONSTRUCTED ) ) != 0 )
 544              		.loc 1 245 17 view .LVU187
 545 017e FFF7FEFF 		bl	mbedtls_asn1_get_tag
 546              	.LVL62:
 245:D:/fchai/work/i-cube/I-CUBE-HUAWEI/Middlewares/Third_Party/Huawei/iot_link/network/dtls/mbedtls/mbedtls-2.16.2/library\x509_crl.c ****             MBEDTLS_ASN1_SEQUENCE | MBEDTLS_ASN1_CONSTRUCTED ) ) != 0 )
 547              		.loc 1 245 7 view .LVU188
 548 0182 0546     		mov	r5, r0
 549              	.LVL63:
 245:D:/fchai/work/i-cube/I-CUBE-HUAWEI/Middlewares/Third_Party/Huawei/iot_link/network/dtls/mbedtls/mbedtls-2.16.2/library\x509_crl.c ****             MBEDTLS_ASN1_SEQUENCE | MBEDTLS_ASN1_CONSTRUCTED ) ) != 0 )
 550              		.loc 1 245 7 view .LVU189
 551 0184 0028     		cmp	r0, #0
 552 0186 40F08D80 		bne	.L130
 254:D:/fchai/work/i-cube/I-CUBE-HUAWEI/Middlewares/Third_Party/Huawei/iot_link/network/dtls/mbedtls/mbedtls-2.16.2/library\x509_crl.c **** 
 553              		.loc 1 254 5 is_stmt 1 view .LVU190
 254:D:/fchai/work/i-cube/I-CUBE-HUAWEI/Middlewares/Third_Party/Huawei/iot_link/network/dtls/mbedtls/mbedtls-2.16.2/library\x509_crl.c **** 
 554              		.loc 1 254 9 is_stmt 0 view .LVU191
 555 018a DDE90532 		ldrd	r3, r2, [sp, #20]
 556 018e 03EB0208 		add	r8, r3, r2
 557              	.LVL64:
 256:D:/fchai/work/i-cube/I-CUBE-HUAWEI/Middlewares/Third_Party/Huawei/iot_link/network/dtls/mbedtls/mbedtls-2.16.2/library\x509_crl.c ****     {
 558              		.loc 1 256 5 is_stmt 1 view .LVU192
 256:D:/fchai/work/i-cube/I-CUBE-HUAWEI/Middlewares/Third_Party/Huawei/iot_link/network/dtls/mbedtls/mbedtls-2.16.2/library\x509_crl.c ****     {
 559              		.loc 1 256 10 view .LVU193
 560 0192 4345     		cmp	r3, r8
 561 0194 80F08A80 		bcs	.L51
 562              	.LBE94:
 563              	.LBE93:
 470:D:/fchai/work/i-cube/I-CUBE-HUAWEI/Middlewares/Third_Party/Huawei/iot_link/network/dtls/mbedtls/mbedtls-2.16.2/library\x509_crl.c ****     {
ARM GAS  T:\msys\tmp\ccGq53OE.s 			page 27


 564              		.loc 1 470 17 is_stmt 0 view .LVU194
 565 0198 04F18406 		add	r6, r4, #132
 566              	.LVL65:
 470:D:/fchai/work/i-cube/I-CUBE-HUAWEI/Middlewares/Third_Party/Huawei/iot_link/network/dtls/mbedtls/mbedtls-2.16.2/library\x509_crl.c ****     {
 567              		.loc 1 470 17 view .LVU195
 568 019c 16E0     		b	.L64
 569              	.LVL66:
 570              	.L132:
 571              	.LBB109:
 572              	.LBB105:
 573              	.LBB95:
 574              	.LBB96:
 575              	.LBB97:
 201:D:/fchai/work/i-cube/I-CUBE-HUAWEI/Middlewares/Third_Party/Huawei/iot_link/network/dtls/mbedtls/mbedtls-2.16.2/library\x509_crl.c ****         {
 576              		.loc 1 201 9 is_stmt 1 view .LVU196
 201:D:/fchai/work/i-cube/I-CUBE-HUAWEI/Middlewares/Third_Party/Huawei/iot_link/network/dtls/mbedtls/mbedtls-2.16.2/library\x509_crl.c ****         {
 577              		.loc 1 201 11 is_stmt 0 view .LVU197
 578 019e 10F1620F 		cmn	r0, #98
 579 01a2 00F0BD80 		beq	.L131
 580              	.LVL67:
 581              	.L118:
 219:D:/fchai/work/i-cube/I-CUBE-HUAWEI/Middlewares/Third_Party/Huawei/iot_link/network/dtls/mbedtls/mbedtls-2.16.2/library\x509_crl.c **** 
 582              		.loc 1 219 13 is_stmt 1 view .LVU198
 219:D:/fchai/work/i-cube/I-CUBE-HUAWEI/Middlewares/Third_Party/Huawei/iot_link/network/dtls/mbedtls/mbedtls-2.16.2/library\x509_crl.c **** 
 583              		.loc 1 219 57 is_stmt 0 view .LVU199
 584 01a6 A0F51455 		sub	r5, r0, #9472
 585              	.LVL68:
 219:D:/fchai/work/i-cube/I-CUBE-HUAWEI/Middlewares/Third_Party/Huawei/iot_link/network/dtls/mbedtls/mbedtls-2.16.2/library\x509_crl.c **** 
 586              		.loc 1 219 57 view .LVU200
 587              	.LBE97:
 588              	.LBE96:
 279:D:/fchai/work/i-cube/I-CUBE-HUAWEI/Middlewares/Third_Party/Huawei/iot_link/network/dtls/mbedtls/mbedtls-2.16.2/library\x509_crl.c ****                                             &cur_entry->entry_ext ) ) != 0 )
 589              		.loc 1 279 11 view .LVU201
 590 01aa 002D     		cmp	r5, #0
 591 01ac 58D1     		bne	.L50
 592 01ae 059B     		ldr	r3, [sp, #20]
 593              	.LVL69:
 594              	.L55:
 283:D:/fchai/work/i-cube/I-CUBE-HUAWEI/Middlewares/Third_Party/Huawei/iot_link/network/dtls/mbedtls/mbedtls-2.16.2/library\x509_crl.c ****         {
 595              		.loc 1 283 9 is_stmt 1 view .LVU202
 283:D:/fchai/work/i-cube/I-CUBE-HUAWEI/Middlewares/Third_Party/Huawei/iot_link/network/dtls/mbedtls/mbedtls-2.16.2/library\x509_crl.c ****         {
 596              		.loc 1 283 11 is_stmt 0 view .LVU203
 597 01b0 9845     		cmp	r8, r3
 598 01b2 7BD9     		bls	.L51
 285:D:/fchai/work/i-cube/I-CUBE-HUAWEI/Middlewares/Third_Party/Huawei/iot_link/network/dtls/mbedtls/mbedtls-2.16.2/library\x509_crl.c **** 
 599              		.loc 1 285 13 is_stmt 1 view .LVU204
 285:D:/fchai/work/i-cube/I-CUBE-HUAWEI/Middlewares/Third_Party/Huawei/iot_link/network/dtls/mbedtls/mbedtls-2.16.2/library\x509_crl.c **** 
 600              		.loc 1 285 31 is_stmt 0 view .LVU205
 601 01b4 4021     		movs	r1, #64
 602 01b6 0120     		movs	r0, #1
 603 01b8 FFF7FEFF 		bl	mbedtls_calloc
 604              	.LVL70:
 285:D:/fchai/work/i-cube/I-CUBE-HUAWEI/Middlewares/Third_Party/Huawei/iot_link/network/dtls/mbedtls/mbedtls-2.16.2/library\x509_crl.c **** 
 605              		.loc 1 285 29 view .LVU206
 606 01bc F063     		str	r0, [r6, #60]
 287:D:/fchai/work/i-cube/I-CUBE-HUAWEI/Middlewares/Third_Party/Huawei/iot_link/network/dtls/mbedtls/mbedtls-2.16.2/library\x509_crl.c ****                 return( MBEDTLS_ERR_X509_ALLOC_FAILED );
 607              		.loc 1 287 13 is_stmt 1 view .LVU207
ARM GAS  T:\msys\tmp\ccGq53OE.s 			page 28


 287:D:/fchai/work/i-cube/I-CUBE-HUAWEI/Middlewares/Third_Party/Huawei/iot_link/network/dtls/mbedtls/mbedtls-2.16.2/library\x509_crl.c ****                 return( MBEDTLS_ERR_X509_ALLOC_FAILED );
 608              		.loc 1 287 15 is_stmt 0 view .LVU208
 609 01be 0028     		cmp	r0, #0
 610 01c0 00F01B81 		beq	.L87
 287:D:/fchai/work/i-cube/I-CUBE-HUAWEI/Middlewares/Third_Party/Huawei/iot_link/network/dtls/mbedtls/mbedtls-2.16.2/library\x509_crl.c ****                 return( MBEDTLS_ERR_X509_ALLOC_FAILED );
 611              		.loc 1 287 15 view .LVU209
 612 01c4 059B     		ldr	r3, [sp, #20]
 613              	.LVL71:
 287:D:/fchai/work/i-cube/I-CUBE-HUAWEI/Middlewares/Third_Party/Huawei/iot_link/network/dtls/mbedtls/mbedtls-2.16.2/library\x509_crl.c ****                 return( MBEDTLS_ERR_X509_ALLOC_FAILED );
 614              		.loc 1 287 15 view .LVU210
 615              	.LBE95:
 256:D:/fchai/work/i-cube/I-CUBE-HUAWEI/Middlewares/Third_Party/Huawei/iot_link/network/dtls/mbedtls/mbedtls-2.16.2/library\x509_crl.c ****     {
 616              		.loc 1 256 10 is_stmt 1 view .LVU211
 617 01c6 9845     		cmp	r8, r3
 618 01c8 70D9     		bls	.L51
 619 01ca 0646     		mov	r6, r0
 620              	.LVL72:
 621              	.L64:
 622              	.LBB102:
 258:D:/fchai/work/i-cube/I-CUBE-HUAWEI/Middlewares/Third_Party/Huawei/iot_link/network/dtls/mbedtls/mbedtls-2.16.2/library\x509_crl.c ****         const unsigned char *end2;
 623              		.loc 1 258 9 view .LVU212
 259:D:/fchai/work/i-cube/I-CUBE-HUAWEI/Middlewares/Third_Party/Huawei/iot_link/network/dtls/mbedtls/mbedtls-2.16.2/library\x509_crl.c **** 
 624              		.loc 1 259 9 view .LVU213
 261:D:/fchai/work/i-cube/I-CUBE-HUAWEI/Middlewares/Third_Party/Huawei/iot_link/network/dtls/mbedtls/mbedtls-2.16.2/library\x509_crl.c ****                 MBEDTLS_ASN1_SEQUENCE | MBEDTLS_ASN1_CONSTRUCTED ) ) != 0 )
 625              		.loc 1 261 9 view .LVU214
 261:D:/fchai/work/i-cube/I-CUBE-HUAWEI/Middlewares/Third_Party/Huawei/iot_link/network/dtls/mbedtls/mbedtls-2.16.2/library\x509_crl.c ****                 MBEDTLS_ASN1_SEQUENCE | MBEDTLS_ASN1_CONSTRUCTED ) ) != 0 )
 626              		.loc 1 261 21 is_stmt 0 view .LVU215
 627 01cc 3023     		movs	r3, #48
 628 01ce 07AA     		add	r2, sp, #28
 629 01d0 4146     		mov	r1, r8
 630 01d2 05A8     		add	r0, sp, #20
 631              	.LVL73:
 261:D:/fchai/work/i-cube/I-CUBE-HUAWEI/Middlewares/Third_Party/Huawei/iot_link/network/dtls/mbedtls/mbedtls-2.16.2/library\x509_crl.c ****                 MBEDTLS_ASN1_SEQUENCE | MBEDTLS_ASN1_CONSTRUCTED ) ) != 0 )
 632              		.loc 1 261 21 view .LVU216
 633 01d4 FFF7FEFF 		bl	mbedtls_asn1_get_tag
 634              	.LVL74:
 261:D:/fchai/work/i-cube/I-CUBE-HUAWEI/Middlewares/Third_Party/Huawei/iot_link/network/dtls/mbedtls/mbedtls-2.16.2/library\x509_crl.c ****                 MBEDTLS_ASN1_SEQUENCE | MBEDTLS_ASN1_CONSTRUCTED ) ) != 0 )
 635              		.loc 1 261 11 view .LVU217
 636 01d8 0546     		mov	r5, r0
 637 01da 0028     		cmp	r0, #0
 638 01dc 40D1     		bne	.L50
 267:D:/fchai/work/i-cube/I-CUBE-HUAWEI/Middlewares/Third_Party/Huawei/iot_link/network/dtls/mbedtls/mbedtls-2.16.2/library\x509_crl.c ****         cur_entry->raw.p = *p;
 639              		.loc 1 267 9 is_stmt 1 view .LVU218
 267:D:/fchai/work/i-cube/I-CUBE-HUAWEI/Middlewares/Third_Party/Huawei/iot_link/network/dtls/mbedtls/mbedtls-2.16.2/library\x509_crl.c ****         cur_entry->raw.p = *p;
 640              		.loc 1 267 31 is_stmt 0 view .LVU219
 641 01de 0599     		ldr	r1, [sp, #20]
 267:D:/fchai/work/i-cube/I-CUBE-HUAWEI/Middlewares/Third_Party/Huawei/iot_link/network/dtls/mbedtls/mbedtls-2.16.2/library\x509_crl.c ****         cur_entry->raw.p = *p;
 642              		.loc 1 267 30 view .LVU220
 643 01e0 0B78     		ldrb	r3, [r1]	@ zero_extendqisi2
 644 01e2 3360     		str	r3, [r6]
 268:D:/fchai/work/i-cube/I-CUBE-HUAWEI/Middlewares/Third_Party/Huawei/iot_link/network/dtls/mbedtls/mbedtls-2.16.2/library\x509_crl.c ****         cur_entry->raw.len = len2;
 645              		.loc 1 268 9 is_stmt 1 view .LVU221
 269:D:/fchai/work/i-cube/I-CUBE-HUAWEI/Middlewares/Third_Party/Huawei/iot_link/network/dtls/mbedtls/mbedtls-2.16.2/library\x509_crl.c ****         end2 = *p + len2;
 646              		.loc 1 269 28 is_stmt 0 view .LVU222
 647 01e4 079B     		ldr	r3, [sp, #28]
 648 01e6 7360     		str	r3, [r6, #4]
 268:D:/fchai/work/i-cube/I-CUBE-HUAWEI/Middlewares/Third_Party/Huawei/iot_link/network/dtls/mbedtls/mbedtls-2.16.2/library\x509_crl.c ****         cur_entry->raw.len = len2;
ARM GAS  T:\msys\tmp\ccGq53OE.s 			page 29


 649              		.loc 1 268 26 view .LVU223
 650 01e8 B160     		str	r1, [r6, #8]
 269:D:/fchai/work/i-cube/I-CUBE-HUAWEI/Middlewares/Third_Party/Huawei/iot_link/network/dtls/mbedtls/mbedtls-2.16.2/library\x509_crl.c ****         end2 = *p + len2;
 651              		.loc 1 269 9 is_stmt 1 view .LVU224
 270:D:/fchai/work/i-cube/I-CUBE-HUAWEI/Middlewares/Third_Party/Huawei/iot_link/network/dtls/mbedtls/mbedtls-2.16.2/library\x509_crl.c **** 
 652              		.loc 1 270 9 view .LVU225
 272:D:/fchai/work/i-cube/I-CUBE-HUAWEI/Middlewares/Third_Party/Huawei/iot_link/network/dtls/mbedtls/mbedtls-2.16.2/library\x509_crl.c ****             return( ret );
 653              		.loc 1 272 21 is_stmt 0 view .LVU226
 654 01ea 06F10C02 		add	r2, r6, #12
 270:D:/fchai/work/i-cube/I-CUBE-HUAWEI/Middlewares/Third_Party/Huawei/iot_link/network/dtls/mbedtls/mbedtls-2.16.2/library\x509_crl.c **** 
 655              		.loc 1 270 14 view .LVU227
 656 01ee 1944     		add	r1, r1, r3
 657              	.LVL75:
 272:D:/fchai/work/i-cube/I-CUBE-HUAWEI/Middlewares/Third_Party/Huawei/iot_link/network/dtls/mbedtls/mbedtls-2.16.2/library\x509_crl.c ****             return( ret );
 658              		.loc 1 272 9 is_stmt 1 view .LVU228
 272:D:/fchai/work/i-cube/I-CUBE-HUAWEI/Middlewares/Third_Party/Huawei/iot_link/network/dtls/mbedtls/mbedtls-2.16.2/library\x509_crl.c ****             return( ret );
 659              		.loc 1 272 21 is_stmt 0 view .LVU229
 660 01f0 05A8     		add	r0, sp, #20
 661              	.LVL76:
 272:D:/fchai/work/i-cube/I-CUBE-HUAWEI/Middlewares/Third_Party/Huawei/iot_link/network/dtls/mbedtls/mbedtls-2.16.2/library\x509_crl.c ****             return( ret );
 662              		.loc 1 272 21 view .LVU230
 663 01f2 0391     		str	r1, [sp, #12]
 664 01f4 FFF7FEFF 		bl	mbedtls_x509_get_serial
 665              	.LVL77:
 272:D:/fchai/work/i-cube/I-CUBE-HUAWEI/Middlewares/Third_Party/Huawei/iot_link/network/dtls/mbedtls/mbedtls-2.16.2/library\x509_crl.c ****             return( ret );
 666              		.loc 1 272 11 view .LVU231
 667 01f8 0546     		mov	r5, r0
 668 01fa 0028     		cmp	r0, #0
 669 01fc 30D1     		bne	.L50
 275:D:/fchai/work/i-cube/I-CUBE-HUAWEI/Middlewares/Third_Party/Huawei/iot_link/network/dtls/mbedtls/mbedtls-2.16.2/library\x509_crl.c ****                                    &cur_entry->revocation_date ) ) != 0 )
 670              		.loc 1 275 9 is_stmt 1 view .LVU232
 275:D:/fchai/work/i-cube/I-CUBE-HUAWEI/Middlewares/Third_Party/Huawei/iot_link/network/dtls/mbedtls/mbedtls-2.16.2/library\x509_crl.c ****                                    &cur_entry->revocation_date ) ) != 0 )
 671              		.loc 1 275 21 is_stmt 0 view .LVU233
 672 01fe 0399     		ldr	r1, [sp, #12]
 673 0200 06F11802 		add	r2, r6, #24
 674 0204 05A8     		add	r0, sp, #20
 675              	.LVL78:
 275:D:/fchai/work/i-cube/I-CUBE-HUAWEI/Middlewares/Third_Party/Huawei/iot_link/network/dtls/mbedtls/mbedtls-2.16.2/library\x509_crl.c ****                                    &cur_entry->revocation_date ) ) != 0 )
 676              		.loc 1 275 21 view .LVU234
 677 0206 FFF7FEFF 		bl	mbedtls_x509_get_time
 678              	.LVL79:
 275:D:/fchai/work/i-cube/I-CUBE-HUAWEI/Middlewares/Third_Party/Huawei/iot_link/network/dtls/mbedtls/mbedtls-2.16.2/library\x509_crl.c ****                                    &cur_entry->revocation_date ) ) != 0 )
 679              		.loc 1 275 11 view .LVU235
 680 020a 0546     		mov	r5, r0
 681 020c 40BB     		cbnz	r0, .L50
 279:D:/fchai/work/i-cube/I-CUBE-HUAWEI/Middlewares/Third_Party/Huawei/iot_link/network/dtls/mbedtls/mbedtls-2.16.2/library\x509_crl.c ****                                             &cur_entry->entry_ext ) ) != 0 )
 682              		.loc 1 279 9 is_stmt 1 view .LVU236
 683              	.LVL80:
 684              	.LBB100:
 685              	.LBI96:
 180:D:/fchai/work/i-cube/I-CUBE-HUAWEI/Middlewares/Third_Party/Huawei/iot_link/network/dtls/mbedtls/mbedtls-2.16.2/library\x509_crl.c ****                              const unsigned char *end,
 686              		.loc 1 180 12 view .LVU237
 687              	.LBB98:
 184:D:/fchai/work/i-cube/I-CUBE-HUAWEI/Middlewares/Third_Party/Huawei/iot_link/network/dtls/mbedtls/mbedtls-2.16.2/library\x509_crl.c ****     size_t len = 0;
 688              		.loc 1 184 5 view .LVU238
 185:D:/fchai/work/i-cube/I-CUBE-HUAWEI/Middlewares/Third_Party/Huawei/iot_link/network/dtls/mbedtls/mbedtls-2.16.2/library\x509_crl.c **** 
 689              		.loc 1 185 5 view .LVU239
ARM GAS  T:\msys\tmp\ccGq53OE.s 			page 30


 188:D:/fchai/work/i-cube/I-CUBE-HUAWEI/Middlewares/Third_Party/Huawei/iot_link/network/dtls/mbedtls/mbedtls-2.16.2/library\x509_crl.c ****         return( 0 );
 690              		.loc 1 188 16 is_stmt 0 view .LVU240
 691 020e 059B     		ldr	r3, [sp, #20]
 188:D:/fchai/work/i-cube/I-CUBE-HUAWEI/Middlewares/Third_Party/Huawei/iot_link/network/dtls/mbedtls/mbedtls-2.16.2/library\x509_crl.c ****         return( 0 );
 692              		.loc 1 188 7 view .LVU241
 693 0210 0399     		ldr	r1, [sp, #12]
 185:D:/fchai/work/i-cube/I-CUBE-HUAWEI/Middlewares/Third_Party/Huawei/iot_link/network/dtls/mbedtls/mbedtls-2.16.2/library\x509_crl.c **** 
 694              		.loc 1 185 12 view .LVU242
 695 0212 0890     		str	r0, [sp, #32]
 188:D:/fchai/work/i-cube/I-CUBE-HUAWEI/Middlewares/Third_Party/Huawei/iot_link/network/dtls/mbedtls/mbedtls-2.16.2/library\x509_crl.c ****         return( 0 );
 696              		.loc 1 188 5 is_stmt 1 view .LVU243
 188:D:/fchai/work/i-cube/I-CUBE-HUAWEI/Middlewares/Third_Party/Huawei/iot_link/network/dtls/mbedtls/mbedtls-2.16.2/library\x509_crl.c ****         return( 0 );
 697              		.loc 1 188 7 is_stmt 0 view .LVU244
 698 0214 9942     		cmp	r1, r3
 699 0216 CBD9     		bls	.L55
 191:D:/fchai/work/i-cube/I-CUBE-HUAWEI/Middlewares/Third_Party/Huawei/iot_link/network/dtls/mbedtls/mbedtls-2.16.2/library\x509_crl.c ****     ext->p = *p;
 700              		.loc 1 191 5 is_stmt 1 view .LVU245
 191:D:/fchai/work/i-cube/I-CUBE-HUAWEI/Middlewares/Third_Party/Huawei/iot_link/network/dtls/mbedtls/mbedtls-2.16.2/library\x509_crl.c ****     ext->p = *p;
 701              		.loc 1 191 16 is_stmt 0 view .LVU246
 702 0218 1A78     		ldrb	r2, [r3]	@ zero_extendqisi2
 703 021a 3263     		str	r2, [r6, #48]
 192:D:/fchai/work/i-cube/I-CUBE-HUAWEI/Middlewares/Third_Party/Huawei/iot_link/network/dtls/mbedtls/mbedtls-2.16.2/library\x509_crl.c **** 
 704              		.loc 1 192 5 is_stmt 1 view .LVU247
 192:D:/fchai/work/i-cube/I-CUBE-HUAWEI/Middlewares/Third_Party/Huawei/iot_link/network/dtls/mbedtls/mbedtls-2.16.2/library\x509_crl.c **** 
 705              		.loc 1 192 12 is_stmt 0 view .LVU248
 706 021c B363     		str	r3, [r6, #56]
 198:D:/fchai/work/i-cube/I-CUBE-HUAWEI/Middlewares/Third_Party/Huawei/iot_link/network/dtls/mbedtls/mbedtls-2.16.2/library\x509_crl.c ****             MBEDTLS_ASN1_CONSTRUCTED | MBEDTLS_ASN1_SEQUENCE ) ) != 0 )
 707              		.loc 1 198 5 is_stmt 1 view .LVU249
 198:D:/fchai/work/i-cube/I-CUBE-HUAWEI/Middlewares/Third_Party/Huawei/iot_link/network/dtls/mbedtls/mbedtls-2.16.2/library\x509_crl.c ****             MBEDTLS_ASN1_CONSTRUCTED | MBEDTLS_ASN1_SEQUENCE ) ) != 0 )
 708              		.loc 1 198 17 is_stmt 0 view .LVU250
 709 021e 06F13402 		add	r2, r6, #52
 710 0222 3023     		movs	r3, #48
 711 0224 05A8     		add	r0, sp, #20
 712              	.LVL81:
 198:D:/fchai/work/i-cube/I-CUBE-HUAWEI/Middlewares/Third_Party/Huawei/iot_link/network/dtls/mbedtls/mbedtls-2.16.2/library\x509_crl.c ****             MBEDTLS_ASN1_CONSTRUCTED | MBEDTLS_ASN1_SEQUENCE ) ) != 0 )
 713              		.loc 1 198 17 view .LVU251
 714 0226 FFF7FEFF 		bl	mbedtls_asn1_get_tag
 715              	.LVL82:
 198:D:/fchai/work/i-cube/I-CUBE-HUAWEI/Middlewares/Third_Party/Huawei/iot_link/network/dtls/mbedtls/mbedtls-2.16.2/library\x509_crl.c ****             MBEDTLS_ASN1_CONSTRUCTED | MBEDTLS_ASN1_SEQUENCE ) ) != 0 )
 716              		.loc 1 198 7 view .LVU252
 717 022a 0028     		cmp	r0, #0
 718 022c B7D1     		bne	.L132
 209:D:/fchai/work/i-cube/I-CUBE-HUAWEI/Middlewares/Third_Party/Huawei/iot_link/network/dtls/mbedtls/mbedtls-2.16.2/library\x509_crl.c **** 
 719              		.loc 1 209 5 is_stmt 1 view .LVU253
 209:D:/fchai/work/i-cube/I-CUBE-HUAWEI/Middlewares/Third_Party/Huawei/iot_link/network/dtls/mbedtls/mbedtls-2.16.2/library\x509_crl.c **** 
 720              		.loc 1 209 11 is_stmt 0 view .LVU254
 721 022e 059B     		ldr	r3, [sp, #20]
 209:D:/fchai/work/i-cube/I-CUBE-HUAWEI/Middlewares/Third_Party/Huawei/iot_link/network/dtls/mbedtls/mbedtls-2.16.2/library\x509_crl.c **** 
 722              		.loc 1 209 9 view .LVU255
 723 0230 726B     		ldr	r2, [r6, #52]
 724 0232 03EB0209 		add	r9, r3, r2
 725              	.LVL83:
 211:D:/fchai/work/i-cube/I-CUBE-HUAWEI/Middlewares/Third_Party/Huawei/iot_link/network/dtls/mbedtls/mbedtls-2.16.2/library\x509_crl.c ****         return( MBEDTLS_ERR_X509_INVALID_EXTENSIONS +
 726              		.loc 1 211 5 is_stmt 1 view .LVU256
 215:D:/fchai/work/i-cube/I-CUBE-HUAWEI/Middlewares/Third_Party/Huawei/iot_link/network/dtls/mbedtls/mbedtls-2.16.2/library\x509_crl.c ****     {
 727              		.loc 1 215 10 view .LVU257
 728 0236 4B45     		cmp	r3, r9
ARM GAS  T:\msys\tmp\ccGq53OE.s 			page 31


 209:D:/fchai/work/i-cube/I-CUBE-HUAWEI/Middlewares/Third_Party/Huawei/iot_link/network/dtls/mbedtls/mbedtls-2.16.2/library\x509_crl.c **** 
 729              		.loc 1 209 11 is_stmt 0 view .LVU258
 730 0238 1A46     		mov	r2, r3
 215:D:/fchai/work/i-cube/I-CUBE-HUAWEI/Middlewares/Third_Party/Huawei/iot_link/network/dtls/mbedtls/mbedtls-2.16.2/library\x509_crl.c ****     {
 731              		.loc 1 215 10 view .LVU259
 732 023a 0ED2     		bcs	.L59
 733              	.L61:
 217:D:/fchai/work/i-cube/I-CUBE-HUAWEI/Middlewares/Third_Party/Huawei/iot_link/network/dtls/mbedtls/mbedtls-2.16.2/library\x509_crl.c ****                 MBEDTLS_ASN1_CONSTRUCTED | MBEDTLS_ASN1_SEQUENCE ) ) != 0 )
 734              		.loc 1 217 9 is_stmt 1 view .LVU260
 217:D:/fchai/work/i-cube/I-CUBE-HUAWEI/Middlewares/Third_Party/Huawei/iot_link/network/dtls/mbedtls/mbedtls-2.16.2/library\x509_crl.c ****                 MBEDTLS_ASN1_CONSTRUCTED | MBEDTLS_ASN1_SEQUENCE ) ) != 0 )
 735              		.loc 1 217 21 is_stmt 0 view .LVU261
 736 023c 3023     		movs	r3, #48
 737 023e 08AA     		add	r2, sp, #32
 738 0240 4946     		mov	r1, r9
 739 0242 05A8     		add	r0, sp, #20
 740              	.LVL84:
 217:D:/fchai/work/i-cube/I-CUBE-HUAWEI/Middlewares/Third_Party/Huawei/iot_link/network/dtls/mbedtls/mbedtls-2.16.2/library\x509_crl.c ****                 MBEDTLS_ASN1_CONSTRUCTED | MBEDTLS_ASN1_SEQUENCE ) ) != 0 )
 741              		.loc 1 217 21 view .LVU262
 742 0244 FFF7FEFF 		bl	mbedtls_asn1_get_tag
 743              	.LVL85:
 221:D:/fchai/work/i-cube/I-CUBE-HUAWEI/Middlewares/Third_Party/Huawei/iot_link/network/dtls/mbedtls/mbedtls-2.16.2/library\x509_crl.c ****     }
 744              		.loc 1 221 9 is_stmt 1 view .LVU263
 217:D:/fchai/work/i-cube/I-CUBE-HUAWEI/Middlewares/Third_Party/Huawei/iot_link/network/dtls/mbedtls/mbedtls-2.16.2/library\x509_crl.c ****                 MBEDTLS_ASN1_CONSTRUCTED | MBEDTLS_ASN1_SEQUENCE ) ) != 0 )
 745              		.loc 1 217 11 is_stmt 0 view .LVU264
 746 0248 0028     		cmp	r0, #0
 747 024a ACD1     		bne	.L118
 221:D:/fchai/work/i-cube/I-CUBE-HUAWEI/Middlewares/Third_Party/Huawei/iot_link/network/dtls/mbedtls/mbedtls-2.16.2/library\x509_crl.c ****     }
 748              		.loc 1 221 12 view .LVU265
 749 024c 059B     		ldr	r3, [sp, #20]
 750 024e 089A     		ldr	r2, [sp, #32]
 751 0250 1A44     		add	r2, r2, r3
 215:D:/fchai/work/i-cube/I-CUBE-HUAWEI/Middlewares/Third_Party/Huawei/iot_link/network/dtls/mbedtls/mbedtls-2.16.2/library\x509_crl.c ****     {
 752              		.loc 1 215 10 view .LVU266
 753 0252 9145     		cmp	r9, r2
 221:D:/fchai/work/i-cube/I-CUBE-HUAWEI/Middlewares/Third_Party/Huawei/iot_link/network/dtls/mbedtls/mbedtls-2.16.2/library\x509_crl.c ****     }
 754              		.loc 1 221 12 view .LVU267
 755 0254 0592     		str	r2, [sp, #20]
 215:D:/fchai/work/i-cube/I-CUBE-HUAWEI/Middlewares/Third_Party/Huawei/iot_link/network/dtls/mbedtls/mbedtls-2.16.2/library\x509_crl.c ****     {
 756              		.loc 1 215 10 is_stmt 1 view .LVU268
 221:D:/fchai/work/i-cube/I-CUBE-HUAWEI/Middlewares/Third_Party/Huawei/iot_link/network/dtls/mbedtls/mbedtls-2.16.2/library\x509_crl.c ****     }
 757              		.loc 1 221 12 is_stmt 0 view .LVU269
 758 0256 1346     		mov	r3, r2
 215:D:/fchai/work/i-cube/I-CUBE-HUAWEI/Middlewares/Third_Party/Huawei/iot_link/network/dtls/mbedtls/mbedtls-2.16.2/library\x509_crl.c ****     {
 759              		.loc 1 215 10 view .LVU270
 760 0258 F0D8     		bhi	.L61
 761              	.L59:
 224:D:/fchai/work/i-cube/I-CUBE-HUAWEI/Middlewares/Third_Party/Huawei/iot_link/network/dtls/mbedtls/mbedtls-2.16.2/library\x509_crl.c ****         return( MBEDTLS_ERR_X509_INVALID_EXTENSIONS +
 762              		.loc 1 224 5 is_stmt 1 view .LVU271
 224:D:/fchai/work/i-cube/I-CUBE-HUAWEI/Middlewares/Third_Party/Huawei/iot_link/network/dtls/mbedtls/mbedtls-2.16.2/library\x509_crl.c ****         return( MBEDTLS_ERR_X509_INVALID_EXTENSIONS +
 763              		.loc 1 224 7 is_stmt 0 view .LVU272
 764 025a 9145     		cmp	r9, r2
 765 025c A8D0     		beq	.L55
 766              	.LVL86:
 767              	.L120:
 224:D:/fchai/work/i-cube/I-CUBE-HUAWEI/Middlewares/Third_Party/Huawei/iot_link/network/dtls/mbedtls/mbedtls-2.16.2/library\x509_crl.c ****         return( MBEDTLS_ERR_X509_INVALID_EXTENSIONS +
 768              		.loc 1 224 7 view .LVU273
 769              	.LBE98:
ARM GAS  T:\msys\tmp\ccGq53OE.s 			page 32


 770              	.LBE100:
 771              	.LBE102:
 772              	.LBE105:
 773              	.LBE109:
 774              	.LBB110:
 775              	.LBB111:
 171:D:/fchai/work/i-cube/I-CUBE-HUAWEI/Middlewares/Third_Party/Huawei/iot_link/network/dtls/mbedtls/mbedtls-2.16.2/library\x509_crl.c ****                 MBEDTLS_ERR_ASN1_LENGTH_MISMATCH );
 776              		.loc 1 171 15 view .LVU274
 777 025e 6D4D     		ldr	r5, .L136+4
 778              	.LBE111:
 779              	.LBE110:
 486:D:/fchai/work/i-cube/I-CUBE-HUAWEI/Middlewares/Third_Party/Huawei/iot_link/network/dtls/mbedtls/mbedtls-2.16.2/library\x509_crl.c ****             return( ret );
 780              		.loc 1 486 13 is_stmt 1 view .LVU275
 781              	.LVL87:
 782              	.LBB120:
 783              	.LBI120:
 713:D:/fchai/work/i-cube/I-CUBE-HUAWEI/Middlewares/Third_Party/Huawei/iot_link/network/dtls/mbedtls/mbedtls-2.16.2/library\x509_crl.c **** {
 784              		.loc 1 713 6 view .LVU276
 785              	.LBB121:
 715:D:/fchai/work/i-cube/I-CUBE-HUAWEI/Middlewares/Third_Party/Huawei/iot_link/network/dtls/mbedtls/mbedtls-2.16.2/library\x509_crl.c ****     mbedtls_x509_crl *crl_prv;
 786              		.loc 1 715 5 view .LVU277
 716:D:/fchai/work/i-cube/I-CUBE-HUAWEI/Middlewares/Third_Party/Huawei/iot_link/network/dtls/mbedtls/mbedtls-2.16.2/library\x509_crl.c ****     mbedtls_x509_name *name_cur;
 787              		.loc 1 716 5 view .LVU278
 717:D:/fchai/work/i-cube/I-CUBE-HUAWEI/Middlewares/Third_Party/Huawei/iot_link/network/dtls/mbedtls/mbedtls-2.16.2/library\x509_crl.c ****     mbedtls_x509_name *name_prv;
 788              		.loc 1 717 5 view .LVU279
 718:D:/fchai/work/i-cube/I-CUBE-HUAWEI/Middlewares/Third_Party/Huawei/iot_link/network/dtls/mbedtls/mbedtls-2.16.2/library\x509_crl.c ****     mbedtls_x509_crl_entry *entry_cur;
 789              		.loc 1 718 5 view .LVU280
 719:D:/fchai/work/i-cube/I-CUBE-HUAWEI/Middlewares/Third_Party/Huawei/iot_link/network/dtls/mbedtls/mbedtls-2.16.2/library\x509_crl.c ****     mbedtls_x509_crl_entry *entry_prv;
 790              		.loc 1 719 5 view .LVU281
 720:D:/fchai/work/i-cube/I-CUBE-HUAWEI/Middlewares/Third_Party/Huawei/iot_link/network/dtls/mbedtls/mbedtls-2.16.2/library\x509_crl.c **** 
 791              		.loc 1 720 5 view .LVU282
 722:D:/fchai/work/i-cube/I-CUBE-HUAWEI/Middlewares/Third_Party/Huawei/iot_link/network/dtls/mbedtls/mbedtls-2.16.2/library\x509_crl.c ****         return;
 792              		.loc 1 722 5 view .LVU283
 793              	.L50:
 722:D:/fchai/work/i-cube/I-CUBE-HUAWEI/Middlewares/Third_Party/Huawei/iot_link/network/dtls/mbedtls/mbedtls-2.16.2/library\x509_crl.c ****         return;
 794              		.loc 1 722 5 is_stmt 0 view .LVU284
 795              	.LBE121:
 796              	.LBE120:
 472:D:/fchai/work/i-cube/I-CUBE-HUAWEI/Middlewares/Third_Party/Huawei/iot_link/network/dtls/mbedtls/mbedtls-2.16.2/library\x509_crl.c ****         return( ret );
 797              		.loc 1 472 9 is_stmt 1 view .LVU285
 798              	.LBB122:
 799              	.LBI122:
 713:D:/fchai/work/i-cube/I-CUBE-HUAWEI/Middlewares/Third_Party/Huawei/iot_link/network/dtls/mbedtls/mbedtls-2.16.2/library\x509_crl.c **** {
 800              		.loc 1 713 6 view .LVU286
 801              	.LBB123:
 715:D:/fchai/work/i-cube/I-CUBE-HUAWEI/Middlewares/Third_Party/Huawei/iot_link/network/dtls/mbedtls/mbedtls-2.16.2/library\x509_crl.c ****     mbedtls_x509_crl *crl_prv;
 802              		.loc 1 715 5 view .LVU287
 716:D:/fchai/work/i-cube/I-CUBE-HUAWEI/Middlewares/Third_Party/Huawei/iot_link/network/dtls/mbedtls/mbedtls-2.16.2/library\x509_crl.c ****     mbedtls_x509_name *name_cur;
 803              		.loc 1 716 5 view .LVU288
 717:D:/fchai/work/i-cube/I-CUBE-HUAWEI/Middlewares/Third_Party/Huawei/iot_link/network/dtls/mbedtls/mbedtls-2.16.2/library\x509_crl.c ****     mbedtls_x509_name *name_prv;
 804              		.loc 1 717 5 view .LVU289
 718:D:/fchai/work/i-cube/I-CUBE-HUAWEI/Middlewares/Third_Party/Huawei/iot_link/network/dtls/mbedtls/mbedtls-2.16.2/library\x509_crl.c ****     mbedtls_x509_crl_entry *entry_cur;
 805              		.loc 1 718 5 view .LVU290
 719:D:/fchai/work/i-cube/I-CUBE-HUAWEI/Middlewares/Third_Party/Huawei/iot_link/network/dtls/mbedtls/mbedtls-2.16.2/library\x509_crl.c ****     mbedtls_x509_crl_entry *entry_prv;
 806              		.loc 1 719 5 view .LVU291
 720:D:/fchai/work/i-cube/I-CUBE-HUAWEI/Middlewares/Third_Party/Huawei/iot_link/network/dtls/mbedtls/mbedtls-2.16.2/library\x509_crl.c **** 
 807              		.loc 1 720 5 view .LVU292
ARM GAS  T:\msys\tmp\ccGq53OE.s 			page 33


 722:D:/fchai/work/i-cube/I-CUBE-HUAWEI/Middlewares/Third_Party/Huawei/iot_link/network/dtls/mbedtls/mbedtls-2.16.2/library\x509_crl.c ****         return;
 808              		.loc 1 722 5 view .LVU293
 809 0260 2046     		mov	r0, r4
 810 0262 FFF7FEFF 		bl	mbedtls_x509_crl_free.part.0
 811              	.LVL88:
 722:D:/fchai/work/i-cube/I-CUBE-HUAWEI/Middlewares/Third_Party/Huawei/iot_link/network/dtls/mbedtls/mbedtls-2.16.2/library\x509_crl.c ****         return;
 812              		.loc 1 722 5 is_stmt 0 view .LVU294
 813              	.LBE123:
 814              	.LBE122:
 473:D:/fchai/work/i-cube/I-CUBE-HUAWEI/Middlewares/Third_Party/Huawei/iot_link/network/dtls/mbedtls/mbedtls-2.16.2/library\x509_crl.c ****     }
 815              		.loc 1 473 9 is_stmt 1 view .LVU295
 816              	.L29:
 534:D:/fchai/work/i-cube/I-CUBE-HUAWEI/Middlewares/Third_Party/Huawei/iot_link/network/dtls/mbedtls/mbedtls-2.16.2/library\x509_crl.c **** 
 817              		.loc 1 534 1 is_stmt 0 view .LVU296
 818 0266 2846     		mov	r0, r5
 819 0268 13B0     		add	sp, sp, #76
 820              	.LCFI5:
 821              		.cfi_remember_state
 822              		.cfi_def_cfa_offset 28
 823              		@ sp needed
 824 026a BDE8F083 		pop	{r4, r5, r6, r7, r8, r9, pc}
 825              	.LVL89:
 826              	.L124:
 827              	.LCFI6:
 828              		.cfi_restore_state
 325:D:/fchai/work/i-cube/I-CUBE-HUAWEI/Middlewares/Third_Party/Huawei/iot_link/network/dtls/mbedtls/mbedtls-2.16.2/library\x509_crl.c ****     {
 829              		.loc 1 325 5 is_stmt 1 view .LVU297
 327:D:/fchai/work/i-cube/I-CUBE-HUAWEI/Middlewares/Third_Party/Huawei/iot_link/network/dtls/mbedtls/mbedtls-2.16.2/library\x509_crl.c **** 
 830              		.loc 1 327 9 view .LVU298
 327:D:/fchai/work/i-cube/I-CUBE-HUAWEI/Middlewares/Third_Party/Huawei/iot_link/network/dtls/mbedtls/mbedtls-2.16.2/library\x509_crl.c **** 
 831              		.loc 1 327 21 is_stmt 0 view .LVU299
 832 026e F421     		movs	r1, #244
 833              	.LVL90:
 327:D:/fchai/work/i-cube/I-CUBE-HUAWEI/Middlewares/Third_Party/Huawei/iot_link/network/dtls/mbedtls/mbedtls-2.16.2/library\x509_crl.c **** 
 834              		.loc 1 327 21 view .LVU300
 835 0270 0120     		movs	r0, #1
 836              	.LVL91:
 327:D:/fchai/work/i-cube/I-CUBE-HUAWEI/Middlewares/Third_Party/Huawei/iot_link/network/dtls/mbedtls/mbedtls-2.16.2/library\x509_crl.c **** 
 837              		.loc 1 327 21 view .LVU301
 838 0272 FFF7FEFF 		bl	mbedtls_calloc
 839              	.LVL92:
 327:D:/fchai/work/i-cube/I-CUBE-HUAWEI/Middlewares/Third_Party/Huawei/iot_link/network/dtls/mbedtls/mbedtls-2.16.2/library\x509_crl.c **** 
 840              		.loc 1 327 19 view .LVU302
 841 0276 C4F8F000 		str	r0, [r4, #240]
 329:D:/fchai/work/i-cube/I-CUBE-HUAWEI/Middlewares/Third_Party/Huawei/iot_link/network/dtls/mbedtls/mbedtls-2.16.2/library\x509_crl.c ****         {
 842              		.loc 1 329 9 is_stmt 1 view .LVU303
 329:D:/fchai/work/i-cube/I-CUBE-HUAWEI/Middlewares/Third_Party/Huawei/iot_link/network/dtls/mbedtls/mbedtls-2.16.2/library\x509_crl.c ****         {
 843              		.loc 1 329 11 is_stmt 0 view .LVU304
 844 027a 0028     		cmp	r0, #0
 845 027c 00F0DC80 		beq	.L133
 335:D:/fchai/work/i-cube/I-CUBE-HUAWEI/Middlewares/Third_Party/Huawei/iot_link/network/dtls/mbedtls/mbedtls-2.16.2/library\x509_crl.c ****         crl = crl->next;
 846              		.loc 1 335 9 is_stmt 1 view .LVU305
 847              	.LVL93:
 848              	.LBB124:
 849              	.LBI124:
 705:D:/fchai/work/i-cube/I-CUBE-HUAWEI/Middlewares/Third_Party/Huawei/iot_link/network/dtls/mbedtls/mbedtls-2.16.2/library\x509_crl.c **** {
 850              		.loc 1 705 6 view .LVU306
ARM GAS  T:\msys\tmp\ccGq53OE.s 			page 34


 851              	.LBB125:
 707:D:/fchai/work/i-cube/I-CUBE-HUAWEI/Middlewares/Third_Party/Huawei/iot_link/network/dtls/mbedtls/mbedtls-2.16.2/library\x509_crl.c **** }
 852              		.loc 1 707 5 view .LVU307
 853 0280 2946     		mov	r1, r5
 854 0282 F422     		movs	r2, #244
 855 0284 FFF7FEFF 		bl	memset
 856              	.LVL94:
 707:D:/fchai/work/i-cube/I-CUBE-HUAWEI/Middlewares/Third_Party/Huawei/iot_link/network/dtls/mbedtls/mbedtls-2.16.2/library\x509_crl.c **** }
 857              		.loc 1 707 5 is_stmt 0 view .LVU308
 858              	.LBE125:
 859              	.LBE124:
 336:D:/fchai/work/i-cube/I-CUBE-HUAWEI/Middlewares/Third_Party/Huawei/iot_link/network/dtls/mbedtls/mbedtls-2.16.2/library\x509_crl.c ****     }
 860              		.loc 1 336 9 is_stmt 1 view .LVU309
 336:D:/fchai/work/i-cube/I-CUBE-HUAWEI/Middlewares/Third_Party/Huawei/iot_link/network/dtls/mbedtls/mbedtls-2.16.2/library\x509_crl.c ****     }
 861              		.loc 1 336 13 is_stmt 0 view .LVU310
 862 0288 D4F8F040 		ldr	r4, [r4, #240]
 863              	.LVL95:
 336:D:/fchai/work/i-cube/I-CUBE-HUAWEI/Middlewares/Third_Party/Huawei/iot_link/network/dtls/mbedtls/mbedtls-2.16.2/library\x509_crl.c ****     }
 864              		.loc 1 336 13 view .LVU311
 865 028c D9E6     		b	.L31
 866              	.LVL96:
 867              	.L122:
 428:D:/fchai/work/i-cube/I-CUBE-HUAWEI/Middlewares/Third_Party/Huawei/iot_link/network/dtls/mbedtls/mbedtls-2.16.2/library\x509_crl.c ****         return( MBEDTLS_ERR_X509_INVALID_FORMAT + ret );
 868              		.loc 1 428 9 is_stmt 1 view .LVU312
 869              	.LBB126:
 870              	.LBI126:
 713:D:/fchai/work/i-cube/I-CUBE-HUAWEI/Middlewares/Third_Party/Huawei/iot_link/network/dtls/mbedtls/mbedtls-2.16.2/library\x509_crl.c **** {
 871              		.loc 1 713 6 view .LVU313
 872              	.LBB127:
 715:D:/fchai/work/i-cube/I-CUBE-HUAWEI/Middlewares/Third_Party/Huawei/iot_link/network/dtls/mbedtls/mbedtls-2.16.2/library\x509_crl.c ****     mbedtls_x509_crl *crl_prv;
 873              		.loc 1 715 5 view .LVU314
 716:D:/fchai/work/i-cube/I-CUBE-HUAWEI/Middlewares/Third_Party/Huawei/iot_link/network/dtls/mbedtls/mbedtls-2.16.2/library\x509_crl.c ****     mbedtls_x509_name *name_cur;
 874              		.loc 1 716 5 view .LVU315
 717:D:/fchai/work/i-cube/I-CUBE-HUAWEI/Middlewares/Third_Party/Huawei/iot_link/network/dtls/mbedtls/mbedtls-2.16.2/library\x509_crl.c ****     mbedtls_x509_name *name_prv;
 875              		.loc 1 717 5 view .LVU316
 718:D:/fchai/work/i-cube/I-CUBE-HUAWEI/Middlewares/Third_Party/Huawei/iot_link/network/dtls/mbedtls/mbedtls-2.16.2/library\x509_crl.c ****     mbedtls_x509_crl_entry *entry_cur;
 876              		.loc 1 718 5 view .LVU317
 719:D:/fchai/work/i-cube/I-CUBE-HUAWEI/Middlewares/Third_Party/Huawei/iot_link/network/dtls/mbedtls/mbedtls-2.16.2/library\x509_crl.c ****     mbedtls_x509_crl_entry *entry_prv;
 877              		.loc 1 719 5 view .LVU318
 720:D:/fchai/work/i-cube/I-CUBE-HUAWEI/Middlewares/Third_Party/Huawei/iot_link/network/dtls/mbedtls/mbedtls-2.16.2/library\x509_crl.c **** 
 878              		.loc 1 720 5 view .LVU319
 722:D:/fchai/work/i-cube/I-CUBE-HUAWEI/Middlewares/Third_Party/Huawei/iot_link/network/dtls/mbedtls/mbedtls-2.16.2/library\x509_crl.c ****         return;
 879              		.loc 1 722 5 view .LVU320
 880 028e 2046     		mov	r0, r4
 881              	.LVL97:
 722:D:/fchai/work/i-cube/I-CUBE-HUAWEI/Middlewares/Third_Party/Huawei/iot_link/network/dtls/mbedtls/mbedtls-2.16.2/library\x509_crl.c ****         return;
 882              		.loc 1 722 5 is_stmt 0 view .LVU321
 883 0290 FFF7FEFF 		bl	mbedtls_x509_crl_free.part.0
 884              	.LVL98:
 722:D:/fchai/work/i-cube/I-CUBE-HUAWEI/Middlewares/Third_Party/Huawei/iot_link/network/dtls/mbedtls/mbedtls-2.16.2/library\x509_crl.c ****         return;
 885              		.loc 1 722 5 view .LVU322
 886              	.LBE127:
 887              	.LBE126:
 429:D:/fchai/work/i-cube/I-CUBE-HUAWEI/Middlewares/Third_Party/Huawei/iot_link/network/dtls/mbedtls/mbedtls-2.16.2/library\x509_crl.c ****     }
 888              		.loc 1 429 9 is_stmt 1 view .LVU323
 429:D:/fchai/work/i-cube/I-CUBE-HUAWEI/Middlewares/Third_Party/Huawei/iot_link/network/dtls/mbedtls/mbedtls-2.16.2/library\x509_crl.c ****     }
 889              		.loc 1 429 49 is_stmt 0 view .LVU324
ARM GAS  T:\msys\tmp\ccGq53OE.s 			page 35


 890 0294 A5F50655 		sub	r5, r5, #8576
 891              	.LVL99:
 534:D:/fchai/work/i-cube/I-CUBE-HUAWEI/Middlewares/Third_Party/Huawei/iot_link/network/dtls/mbedtls/mbedtls-2.16.2/library\x509_crl.c **** 
 892              		.loc 1 534 1 view .LVU325
 893 0298 2846     		mov	r0, r5
 894 029a 13B0     		add	sp, sp, #76
 895              	.LCFI7:
 896              		.cfi_remember_state
 897              		.cfi_def_cfa_offset 28
 898              		@ sp needed
 899 029c BDE8F083 		pop	{r4, r5, r6, r7, r8, r9, pc}
 900              	.LVL100:
 901              	.L127:
 902              	.LCFI8:
 903              		.cfi_restore_state
 904              	.LBB128:
 905              	.LBB92:
  83:D:/fchai/work/i-cube/I-CUBE-HUAWEI/Middlewares/Third_Party/Huawei/iot_link/network/dtls/mbedtls/mbedtls-2.16.2/library\x509_crl.c ****             return( 0 );
 906              		.loc 1 83 13 is_stmt 1 view .LVU326
  83:D:/fchai/work/i-cube/I-CUBE-HUAWEI/Middlewares/Third_Party/Huawei/iot_link/network/dtls/mbedtls/mbedtls-2.16.2/library\x509_crl.c ****             return( 0 );
 907              		.loc 1 83 18 is_stmt 0 view .LVU327
 908 02a0 A561     		str	r5, [r4, #24]
  84:D:/fchai/work/i-cube/I-CUBE-HUAWEI/Middlewares/Third_Party/Huawei/iot_link/network/dtls/mbedtls/mbedtls-2.16.2/library\x509_crl.c ****         }
 909              		.loc 1 84 13 is_stmt 1 view .LVU328
 910              	.LVL101:
  84:D:/fchai/work/i-cube/I-CUBE-HUAWEI/Middlewares/Third_Party/Huawei/iot_link/network/dtls/mbedtls/mbedtls-2.16.2/library\x509_crl.c ****         }
 911              		.loc 1 84 13 is_stmt 0 view .LVU329
 912 02a2 10E7     		b	.L37
 913              	.LVL102:
 914              	.L130:
  84:D:/fchai/work/i-cube/I-CUBE-HUAWEI/Middlewares/Third_Party/Huawei/iot_link/network/dtls/mbedtls/mbedtls-2.16.2/library\x509_crl.c ****         }
 915              		.loc 1 84 13 view .LVU330
 916              	.LBE92:
 917              	.LBE128:
 918              	.LBB129:
 919              	.LBB106:
 248:D:/fchai/work/i-cube/I-CUBE-HUAWEI/Middlewares/Third_Party/Huawei/iot_link/network/dtls/mbedtls/mbedtls-2.16.2/library\x509_crl.c ****             return( 0 );
 920              		.loc 1 248 9 is_stmt 1 view .LVU331
 248:D:/fchai/work/i-cube/I-CUBE-HUAWEI/Middlewares/Third_Party/Huawei/iot_link/network/dtls/mbedtls/mbedtls-2.16.2/library\x509_crl.c ****             return( 0 );
 921              		.loc 1 248 11 is_stmt 0 view .LVU332
 922 02a4 10F1620F 		cmn	r0, #98
 923 02a8 DAD1     		bne	.L50
 924              	.LVL103:
 248:D:/fchai/work/i-cube/I-CUBE-HUAWEI/Middlewares/Third_Party/Huawei/iot_link/network/dtls/mbedtls/mbedtls-2.16.2/library\x509_crl.c ****             return( 0 );
 925              		.loc 1 248 11 view .LVU333
 926 02aa 059B     		ldr	r3, [sp, #20]
 927              	.LVL104:
 928              	.L51:
 248:D:/fchai/work/i-cube/I-CUBE-HUAWEI/Middlewares/Third_Party/Huawei/iot_link/network/dtls/mbedtls/mbedtls-2.16.2/library\x509_crl.c ****             return( 0 );
 929              		.loc 1 248 11 view .LVU334
 930              	.LBE106:
 931              	.LBE129:
 480:D:/fchai/work/i-cube/I-CUBE-HUAWEI/Middlewares/Third_Party/Huawei/iot_link/network/dtls/mbedtls/mbedtls-2.16.2/library\x509_crl.c ****     {
 932              		.loc 1 480 5 is_stmt 1 view .LVU335
 480:D:/fchai/work/i-cube/I-CUBE-HUAWEI/Middlewares/Third_Party/Huawei/iot_link/network/dtls/mbedtls/mbedtls-2.16.2/library\x509_crl.c ****     {
 933              		.loc 1 480 7 is_stmt 0 view .LVU336
 934 02ac A269     		ldr	r2, [r4, #24]
ARM GAS  T:\msys\tmp\ccGq53OE.s 			page 36


 935 02ae 022A     		cmp	r2, #2
 936 02b0 3FD0     		beq	.L134
 937              	.L65:
 491:D:/fchai/work/i-cube/I-CUBE-HUAWEI/Middlewares/Third_Party/Huawei/iot_link/network/dtls/mbedtls/mbedtls-2.16.2/library\x509_crl.c ****     {
 938              		.loc 1 491 5 is_stmt 1 view .LVU337
 491:D:/fchai/work/i-cube/I-CUBE-HUAWEI/Middlewares/Third_Party/Huawei/iot_link/network/dtls/mbedtls/mbedtls-2.16.2/library\x509_crl.c ****     {
 939              		.loc 1 491 7 is_stmt 0 view .LVU338
 940 02b2 9F42     		cmp	r7, r3
 941 02b4 2AD1     		bne	.L123
 942              	.L48:
 498:D:/fchai/work/i-cube/I-CUBE-HUAWEI/Middlewares/Third_Party/Huawei/iot_link/network/dtls/mbedtls/mbedtls-2.16.2/library\x509_crl.c **** 
 943              		.loc 1 498 5 is_stmt 1 view .LVU339
 498:D:/fchai/work/i-cube/I-CUBE-HUAWEI/Middlewares/Third_Party/Huawei/iot_link/network/dtls/mbedtls/mbedtls-2.16.2/library\x509_crl.c **** 
 944              		.loc 1 498 9 is_stmt 0 view .LVU340
 945 02b6 D4E90136 		ldrd	r3, r6, [r4, #4]
 946 02ba 1E44     		add	r6, r6, r3
 947              	.LVL105:
 504:D:/fchai/work/i-cube/I-CUBE-HUAWEI/Middlewares/Third_Party/Huawei/iot_link/network/dtls/mbedtls/mbedtls-2.16.2/library\x509_crl.c ****     {
 948              		.loc 1 504 5 is_stmt 1 view .LVU341
 504:D:/fchai/work/i-cube/I-CUBE-HUAWEI/Middlewares/Third_Party/Huawei/iot_link/network/dtls/mbedtls/mbedtls-2.16.2/library\x509_crl.c ****     {
 949              		.loc 1 504 17 is_stmt 0 view .LVU342
 950 02bc 0FAA     		add	r2, sp, #60
 951 02be 0CAB     		add	r3, sp, #48
 952 02c0 3146     		mov	r1, r6
 953 02c2 05A8     		add	r0, sp, #20
 954 02c4 FFF7FEFF 		bl	mbedtls_x509_get_alg
 955              	.LVL106:
 504:D:/fchai/work/i-cube/I-CUBE-HUAWEI/Middlewares/Third_Party/Huawei/iot_link/network/dtls/mbedtls/mbedtls-2.16.2/library\x509_crl.c ****     {
 956              		.loc 1 504 7 view .LVU343
 957 02c8 0546     		mov	r5, r0
 958 02ca 0028     		cmp	r0, #0
 959 02cc C8D1     		bne	.L50
 510:D:/fchai/work/i-cube/I-CUBE-HUAWEI/Middlewares/Third_Party/Huawei/iot_link/network/dtls/mbedtls/mbedtls-2.16.2/library\x509_crl.c ****         memcmp( crl->sig_oid.p, sig_oid2.p, crl->sig_oid.len ) != 0 ||
 960              		.loc 1 510 5 is_stmt 1 view .LVU344
 510:D:/fchai/work/i-cube/I-CUBE-HUAWEI/Middlewares/Third_Party/Huawei/iot_link/network/dtls/mbedtls/mbedtls-2.16.2/library\x509_crl.c ****         memcmp( crl->sig_oid.p, sig_oid2.p, crl->sig_oid.len ) != 0 ||
 961              		.loc 1 510 21 is_stmt 0 view .LVU345
 962 02ce 226A     		ldr	r2, [r4, #32]
 510:D:/fchai/work/i-cube/I-CUBE-HUAWEI/Middlewares/Third_Party/Huawei/iot_link/network/dtls/mbedtls/mbedtls-2.16.2/library\x509_crl.c ****         memcmp( crl->sig_oid.p, sig_oid2.p, crl->sig_oid.len ) != 0 ||
 963              		.loc 1 510 7 view .LVU346
 964 02d0 109B     		ldr	r3, [sp, #64]
 965 02d2 9A42     		cmp	r2, r3
 966 02d4 1FD1     		bne	.L76
 511:D:/fchai/work/i-cube/I-CUBE-HUAWEI/Middlewares/Third_Party/Huawei/iot_link/network/dtls/mbedtls/mbedtls-2.16.2/library\x509_crl.c ****         sig_params1.len != sig_params2.len ||
 967              		.loc 1 511 9 discriminator 1 view .LVU347
 968 02d6 1199     		ldr	r1, [sp, #68]
 969 02d8 606A     		ldr	r0, [r4, #36]
 970              	.LVL107:
 511:D:/fchai/work/i-cube/I-CUBE-HUAWEI/Middlewares/Third_Party/Huawei/iot_link/network/dtls/mbedtls/mbedtls-2.16.2/library\x509_crl.c ****         sig_params1.len != sig_params2.len ||
 971              		.loc 1 511 9 discriminator 1 view .LVU348
 972 02da FFF7FEFF 		bl	memcmp
 973              	.LVL108:
 510:D:/fchai/work/i-cube/I-CUBE-HUAWEI/Middlewares/Third_Party/Huawei/iot_link/network/dtls/mbedtls/mbedtls-2.16.2/library\x509_crl.c ****         memcmp( crl->sig_oid.p, sig_oid2.p, crl->sig_oid.len ) != 0 ||
 974              		.loc 1 510 42 discriminator 1 view .LVU349
 975 02de D0B9     		cbnz	r0, .L76
 512:D:/fchai/work/i-cube/I-CUBE-HUAWEI/Middlewares/Third_Party/Huawei/iot_link/network/dtls/mbedtls/mbedtls-2.16.2/library\x509_crl.c ****         ( sig_params1.len != 0 &&
 976              		.loc 1 512 20 view .LVU350
 977 02e0 0A9A     		ldr	r2, [sp, #40]
ARM GAS  T:\msys\tmp\ccGq53OE.s 			page 37


 511:D:/fchai/work/i-cube/I-CUBE-HUAWEI/Middlewares/Third_Party/Huawei/iot_link/network/dtls/mbedtls/mbedtls-2.16.2/library\x509_crl.c ****         sig_params1.len != sig_params2.len ||
 978              		.loc 1 511 69 view .LVU351
 979 02e2 0D9B     		ldr	r3, [sp, #52]
 980 02e4 9A42     		cmp	r2, r3
 981 02e6 16D1     		bne	.L76
 512:D:/fchai/work/i-cube/I-CUBE-HUAWEI/Middlewares/Third_Party/Huawei/iot_link/network/dtls/mbedtls/mbedtls-2.16.2/library\x509_crl.c ****         ( sig_params1.len != 0 &&
 982              		.loc 1 512 44 view .LVU352
 983 02e8 22B1     		cbz	r2, .L77
 514:D:/fchai/work/i-cube/I-CUBE-HUAWEI/Middlewares/Third_Party/Huawei/iot_link/network/dtls/mbedtls/mbedtls-2.16.2/library\x509_crl.c ****     {
 984              		.loc 1 514 11 view .LVU353
 985 02ea 0E99     		ldr	r1, [sp, #56]
 986 02ec 0B98     		ldr	r0, [sp, #44]
 987 02ee FFF7FEFF 		bl	memcmp
 988              	.LVL109:
 513:D:/fchai/work/i-cube/I-CUBE-HUAWEI/Middlewares/Third_Party/Huawei/iot_link/network/dtls/mbedtls/mbedtls-2.16.2/library\x509_crl.c ****           memcmp( sig_params1.p, sig_params2.p, sig_params1.len ) != 0 ) )
 989              		.loc 1 513 32 view .LVU354
 990 02f2 80B9     		cbnz	r0, .L76
 991              	.L77:
 520:D:/fchai/work/i-cube/I-CUBE-HUAWEI/Middlewares/Third_Party/Huawei/iot_link/network/dtls/mbedtls/mbedtls-2.16.2/library\x509_crl.c ****     {
 992              		.loc 1 520 5 is_stmt 1 view .LVU355
 520:D:/fchai/work/i-cube/I-CUBE-HUAWEI/Middlewares/Third_Party/Huawei/iot_link/network/dtls/mbedtls/mbedtls-2.16.2/library\x509_crl.c ****     {
 993              		.loc 1 520 17 is_stmt 0 view .LVU356
 994 02f4 05A8     		add	r0, sp, #20
 995 02f6 04F1DC02 		add	r2, r4, #220
 996 02fa 3146     		mov	r1, r6
 997 02fc FFF7FEFF 		bl	mbedtls_x509_get_sig
 998              	.LVL110:
 520:D:/fchai/work/i-cube/I-CUBE-HUAWEI/Middlewares/Third_Party/Huawei/iot_link/network/dtls/mbedtls/mbedtls-2.16.2/library\x509_crl.c ****     {
 999              		.loc 1 520 7 view .LVU357
 1000 0300 0546     		mov	r5, r0
 1001 0302 0028     		cmp	r0, #0
 1002 0304 ACD1     		bne	.L50
 526:D:/fchai/work/i-cube/I-CUBE-HUAWEI/Middlewares/Third_Party/Huawei/iot_link/network/dtls/mbedtls/mbedtls-2.16.2/library\x509_crl.c ****     {
 1003              		.loc 1 526 5 is_stmt 1 view .LVU358
 526:D:/fchai/work/i-cube/I-CUBE-HUAWEI/Middlewares/Third_Party/Huawei/iot_link/network/dtls/mbedtls/mbedtls-2.16.2/library\x509_crl.c ****     {
 1004              		.loc 1 526 7 is_stmt 0 view .LVU359
 1005 0306 059B     		ldr	r3, [sp, #20]
 1006 0308 B342     		cmp	r3, r6
 1007 030a ACD0     		beq	.L29
 1008              	.LVL111:
 1009              	.L123:
 528:D:/fchai/work/i-cube/I-CUBE-HUAWEI/Middlewares/Third_Party/Huawei/iot_link/network/dtls/mbedtls/mbedtls-2.16.2/library\x509_crl.c ****         return( MBEDTLS_ERR_X509_INVALID_FORMAT +
 1010              		.loc 1 528 9 is_stmt 1 view .LVU360
 1011              	.LBB130:
 1012              	.LBI130:
 713:D:/fchai/work/i-cube/I-CUBE-HUAWEI/Middlewares/Third_Party/Huawei/iot_link/network/dtls/mbedtls/mbedtls-2.16.2/library\x509_crl.c **** {
 1013              		.loc 1 713 6 view .LVU361
 1014              	.LBB131:
 715:D:/fchai/work/i-cube/I-CUBE-HUAWEI/Middlewares/Third_Party/Huawei/iot_link/network/dtls/mbedtls/mbedtls-2.16.2/library\x509_crl.c ****     mbedtls_x509_crl *crl_prv;
 1015              		.loc 1 715 5 view .LVU362
 716:D:/fchai/work/i-cube/I-CUBE-HUAWEI/Middlewares/Third_Party/Huawei/iot_link/network/dtls/mbedtls/mbedtls-2.16.2/library\x509_crl.c ****     mbedtls_x509_name *name_cur;
 1016              		.loc 1 716 5 view .LVU363
 717:D:/fchai/work/i-cube/I-CUBE-HUAWEI/Middlewares/Third_Party/Huawei/iot_link/network/dtls/mbedtls/mbedtls-2.16.2/library\x509_crl.c ****     mbedtls_x509_name *name_prv;
 1017              		.loc 1 717 5 view .LVU364
 718:D:/fchai/work/i-cube/I-CUBE-HUAWEI/Middlewares/Third_Party/Huawei/iot_link/network/dtls/mbedtls/mbedtls-2.16.2/library\x509_crl.c ****     mbedtls_x509_crl_entry *entry_cur;
 1018              		.loc 1 718 5 view .LVU365
 719:D:/fchai/work/i-cube/I-CUBE-HUAWEI/Middlewares/Third_Party/Huawei/iot_link/network/dtls/mbedtls/mbedtls-2.16.2/library\x509_crl.c ****     mbedtls_x509_crl_entry *entry_prv;
ARM GAS  T:\msys\tmp\ccGq53OE.s 			page 38


 1019              		.loc 1 719 5 view .LVU366
 720:D:/fchai/work/i-cube/I-CUBE-HUAWEI/Middlewares/Third_Party/Huawei/iot_link/network/dtls/mbedtls/mbedtls-2.16.2/library\x509_crl.c **** 
 1020              		.loc 1 720 5 view .LVU367
 722:D:/fchai/work/i-cube/I-CUBE-HUAWEI/Middlewares/Third_Party/Huawei/iot_link/network/dtls/mbedtls/mbedtls-2.16.2/library\x509_crl.c ****         return;
 1021              		.loc 1 722 5 view .LVU368
 1022 030c 2046     		mov	r0, r4
 1023 030e FFF7FEFF 		bl	mbedtls_x509_crl_free.part.0
 1024              	.LVL112:
 722:D:/fchai/work/i-cube/I-CUBE-HUAWEI/Middlewares/Third_Party/Huawei/iot_link/network/dtls/mbedtls/mbedtls-2.16.2/library\x509_crl.c ****         return;
 1025              		.loc 1 722 5 is_stmt 0 view .LVU369
 1026              	.LBE131:
 1027              	.LBE130:
 529:D:/fchai/work/i-cube/I-CUBE-HUAWEI/Middlewares/Third_Party/Huawei/iot_link/network/dtls/mbedtls/mbedtls-2.16.2/library\x509_crl.c ****                 MBEDTLS_ERR_ASN1_LENGTH_MISMATCH );
 1028              		.loc 1 529 9 is_stmt 1 view .LVU370
 529:D:/fchai/work/i-cube/I-CUBE-HUAWEI/Middlewares/Third_Party/Huawei/iot_link/network/dtls/mbedtls/mbedtls-2.16.2/library\x509_crl.c ****                 MBEDTLS_ERR_ASN1_LENGTH_MISMATCH );
 1029              		.loc 1 529 15 is_stmt 0 view .LVU371
 1030 0312 414D     		ldr	r5, .L136+8
 1031 0314 A7E7     		b	.L29
 1032              	.LVL113:
 1033              	.L76:
 516:D:/fchai/work/i-cube/I-CUBE-HUAWEI/Middlewares/Third_Party/Huawei/iot_link/network/dtls/mbedtls/mbedtls-2.16.2/library\x509_crl.c ****         return( MBEDTLS_ERR_X509_SIG_MISMATCH );
 1034              		.loc 1 516 9 is_stmt 1 view .LVU372
 1035              	.LBB132:
 1036              	.LBI132:
 713:D:/fchai/work/i-cube/I-CUBE-HUAWEI/Middlewares/Third_Party/Huawei/iot_link/network/dtls/mbedtls/mbedtls-2.16.2/library\x509_crl.c **** {
 1037              		.loc 1 713 6 view .LVU373
 1038              	.LBB133:
 715:D:/fchai/work/i-cube/I-CUBE-HUAWEI/Middlewares/Third_Party/Huawei/iot_link/network/dtls/mbedtls/mbedtls-2.16.2/library\x509_crl.c ****     mbedtls_x509_crl *crl_prv;
 1039              		.loc 1 715 5 view .LVU374
 716:D:/fchai/work/i-cube/I-CUBE-HUAWEI/Middlewares/Third_Party/Huawei/iot_link/network/dtls/mbedtls/mbedtls-2.16.2/library\x509_crl.c ****     mbedtls_x509_name *name_cur;
 1040              		.loc 1 716 5 view .LVU375
 717:D:/fchai/work/i-cube/I-CUBE-HUAWEI/Middlewares/Third_Party/Huawei/iot_link/network/dtls/mbedtls/mbedtls-2.16.2/library\x509_crl.c ****     mbedtls_x509_name *name_prv;
 1041              		.loc 1 717 5 view .LVU376
 718:D:/fchai/work/i-cube/I-CUBE-HUAWEI/Middlewares/Third_Party/Huawei/iot_link/network/dtls/mbedtls/mbedtls-2.16.2/library\x509_crl.c ****     mbedtls_x509_crl_entry *entry_cur;
 1042              		.loc 1 718 5 view .LVU377
 719:D:/fchai/work/i-cube/I-CUBE-HUAWEI/Middlewares/Third_Party/Huawei/iot_link/network/dtls/mbedtls/mbedtls-2.16.2/library\x509_crl.c ****     mbedtls_x509_crl_entry *entry_prv;
 1043              		.loc 1 719 5 view .LVU378
 720:D:/fchai/work/i-cube/I-CUBE-HUAWEI/Middlewares/Third_Party/Huawei/iot_link/network/dtls/mbedtls/mbedtls-2.16.2/library\x509_crl.c **** 
 1044              		.loc 1 720 5 view .LVU379
 722:D:/fchai/work/i-cube/I-CUBE-HUAWEI/Middlewares/Third_Party/Huawei/iot_link/network/dtls/mbedtls/mbedtls-2.16.2/library\x509_crl.c ****         return;
 1045              		.loc 1 722 5 view .LVU380
 1046 0316 2046     		mov	r0, r4
 1047 0318 FFF7FEFF 		bl	mbedtls_x509_crl_free.part.0
 1048              	.LVL114:
 722:D:/fchai/work/i-cube/I-CUBE-HUAWEI/Middlewares/Third_Party/Huawei/iot_link/network/dtls/mbedtls/mbedtls-2.16.2/library\x509_crl.c ****         return;
 1049              		.loc 1 722 5 is_stmt 0 view .LVU381
 1050              	.LBE133:
 1051              	.LBE132:
 517:D:/fchai/work/i-cube/I-CUBE-HUAWEI/Middlewares/Third_Party/Huawei/iot_link/network/dtls/mbedtls/mbedtls-2.16.2/library\x509_crl.c ****     }
 1052              		.loc 1 517 9 is_stmt 1 view .LVU382
 517:D:/fchai/work/i-cube/I-CUBE-HUAWEI/Middlewares/Third_Party/Huawei/iot_link/network/dtls/mbedtls/mbedtls-2.16.2/library\x509_crl.c ****     }
 1053              		.loc 1 517 15 is_stmt 0 view .LVU383
 1054 031c 3F4D     		ldr	r5, .L136+12
 1055              	.LVL115:
 517:D:/fchai/work/i-cube/I-CUBE-HUAWEI/Middlewares/Third_Party/Huawei/iot_link/network/dtls/mbedtls/mbedtls-2.16.2/library\x509_crl.c ****     }
 1056              		.loc 1 517 15 view .LVU384
 1057 031e A2E7     		b	.L29
ARM GAS  T:\msys\tmp\ccGq53OE.s 			page 39


 1058              	.LVL116:
 1059              	.L131:
 1060              	.LBB134:
 1061              	.LBB107:
 1062              	.LBB103:
 1063              	.LBB101:
 1064              	.LBB99:
 203:D:/fchai/work/i-cube/I-CUBE-HUAWEI/Middlewares/Third_Party/Huawei/iot_link/network/dtls/mbedtls/mbedtls-2.16.2/library\x509_crl.c ****             return( 0 );
 1065              		.loc 1 203 13 is_stmt 1 view .LVU385
 1066 0320 059B     		ldr	r3, [sp, #20]
 203:D:/fchai/work/i-cube/I-CUBE-HUAWEI/Middlewares/Third_Party/Huawei/iot_link/network/dtls/mbedtls/mbedtls-2.16.2/library\x509_crl.c ****             return( 0 );
 1067              		.loc 1 203 20 is_stmt 0 view .LVU386
 1068 0322 B563     		str	r5, [r6, #56]
 204:D:/fchai/work/i-cube/I-CUBE-HUAWEI/Middlewares/Third_Party/Huawei/iot_link/network/dtls/mbedtls/mbedtls-2.16.2/library\x509_crl.c ****         }
 1069              		.loc 1 204 13 is_stmt 1 view .LVU387
 1070              	.LVL117:
 204:D:/fchai/work/i-cube/I-CUBE-HUAWEI/Middlewares/Third_Party/Huawei/iot_link/network/dtls/mbedtls/mbedtls-2.16.2/library\x509_crl.c ****         }
 1071              		.loc 1 204 13 is_stmt 0 view .LVU388
 1072 0324 44E7     		b	.L55
 1073              	.LVL118:
 1074              	.L85:
 204:D:/fchai/work/i-cube/I-CUBE-HUAWEI/Middlewares/Third_Party/Huawei/iot_link/network/dtls/mbedtls/mbedtls-2.16.2/library\x509_crl.c ****         }
 1075              		.loc 1 204 13 view .LVU389
 1076              	.LBE99:
 1077              	.LBE101:
 1078              	.LBE103:
 1079              	.LBE107:
 1080              	.LBE134:
 343:D:/fchai/work/i-cube/I-CUBE-HUAWEI/Middlewares/Third_Party/Huawei/iot_link/network/dtls/mbedtls/mbedtls-2.16.2/library\x509_crl.c **** 
 1081              		.loc 1 343 15 view .LVU390
 1082 0326 3E4D     		ldr	r5, .L136+16
 1083 0328 9DE7     		b	.L29
 1084              	.LVL119:
 1085              	.L83:
 313:D:/fchai/work/i-cube/I-CUBE-HUAWEI/Middlewares/Third_Party/Huawei/iot_link/network/dtls/mbedtls/mbedtls-2.16.2/library\x509_crl.c **** 
 1086              		.loc 1 313 15 view .LVU391
 1087 032a 3E4D     		ldr	r5, .L136+20
 1088 032c 9BE7     		b	.L29
 1089              	.LVL120:
 1090              	.L86:
 347:D:/fchai/work/i-cube/I-CUBE-HUAWEI/Middlewares/Third_Party/Huawei/iot_link/network/dtls/mbedtls/mbedtls-2.16.2/library\x509_crl.c **** 
 1091              		.loc 1 347 15 view .LVU392
 1092 032e 3E4D     		ldr	r5, .L136+24
 1093 0330 99E7     		b	.L29
 1094              	.LVL121:
 1095              	.L134:
 482:D:/fchai/work/i-cube/I-CUBE-HUAWEI/Middlewares/Third_Party/Huawei/iot_link/network/dtls/mbedtls/mbedtls-2.16.2/library\x509_crl.c **** 
 1096              		.loc 1 482 9 is_stmt 1 view .LVU393
 1097              	.LBB135:
 1098              	.LBI110:
 100:D:/fchai/work/i-cube/I-CUBE-HUAWEI/Middlewares/Third_Party/Huawei/iot_link/network/dtls/mbedtls/mbedtls-2.16.2/library\x509_crl.c ****                              const unsigned char *end,
 1099              		.loc 1 100 12 view .LVU394
 1100              	.LBB117:
 104:D:/fchai/work/i-cube/I-CUBE-HUAWEI/Middlewares/Third_Party/Huawei/iot_link/network/dtls/mbedtls/mbedtls-2.16.2/library\x509_crl.c **** 
 1101              		.loc 1 104 5 view .LVU395
 106:D:/fchai/work/i-cube/I-CUBE-HUAWEI/Middlewares/Third_Party/Huawei/iot_link/network/dtls/mbedtls/mbedtls-2.16.2/library\x509_crl.c ****         return( 0 );
 1102              		.loc 1 106 5 view .LVU396
ARM GAS  T:\msys\tmp\ccGq53OE.s 			page 40


 106:D:/fchai/work/i-cube/I-CUBE-HUAWEI/Middlewares/Third_Party/Huawei/iot_link/network/dtls/mbedtls/mbedtls-2.16.2/library\x509_crl.c ****         return( 0 );
 1103              		.loc 1 106 7 is_stmt 0 view .LVU397
 1104 0332 9F42     		cmp	r7, r3
 1105 0334 BFD0     		beq	.L48
 113:D:/fchai/work/i-cube/I-CUBE-HUAWEI/Middlewares/Third_Party/Huawei/iot_link/network/dtls/mbedtls/mbedtls-2.16.2/library\x509_crl.c ****         return( ret );
 1106              		.loc 1 113 5 is_stmt 1 view .LVU398
 113:D:/fchai/work/i-cube/I-CUBE-HUAWEI/Middlewares/Third_Party/Huawei/iot_link/network/dtls/mbedtls/mbedtls-2.16.2/library\x509_crl.c ****         return( ret );
 1107              		.loc 1 113 17 is_stmt 0 view .LVU399
 1108 0336 0023     		movs	r3, #0
 1109 0338 04F1C402 		add	r2, r4, #196
 1110              	.LVL122:
 113:D:/fchai/work/i-cube/I-CUBE-HUAWEI/Middlewares/Third_Party/Huawei/iot_link/network/dtls/mbedtls/mbedtls-2.16.2/library\x509_crl.c ****         return( ret );
 1111              		.loc 1 113 17 view .LVU400
 1112 033c 3946     		mov	r1, r7
 1113 033e 05A8     		add	r0, sp, #20
 1114              	.LVL123:
 113:D:/fchai/work/i-cube/I-CUBE-HUAWEI/Middlewares/Third_Party/Huawei/iot_link/network/dtls/mbedtls/mbedtls-2.16.2/library\x509_crl.c ****         return( ret );
 1115              		.loc 1 113 17 view .LVU401
 1116 0340 FFF7FEFF 		bl	mbedtls_x509_get_ext
 1117              	.LVL124:
 113:D:/fchai/work/i-cube/I-CUBE-HUAWEI/Middlewares/Third_Party/Huawei/iot_link/network/dtls/mbedtls/mbedtls-2.16.2/library\x509_crl.c ****         return( ret );
 1118              		.loc 1 113 7 view .LVU402
 1119 0344 0546     		mov	r5, r0
 1120 0346 0028     		cmp	r0, #0
 1121 0348 8AD1     		bne	.L50
 116:D:/fchai/work/i-cube/I-CUBE-HUAWEI/Middlewares/Third_Party/Huawei/iot_link/network/dtls/mbedtls/mbedtls-2.16.2/library\x509_crl.c **** 
 1122              		.loc 1 116 5 is_stmt 1 view .LVU403
 116:D:/fchai/work/i-cube/I-CUBE-HUAWEI/Middlewares/Third_Party/Huawei/iot_link/network/dtls/mbedtls/mbedtls-2.16.2/library\x509_crl.c **** 
 1123              		.loc 1 116 9 is_stmt 0 view .LVU404
 1124 034a D4E93226 		ldrd	r2, r6, [r4, #200]
 118:D:/fchai/work/i-cube/I-CUBE-HUAWEI/Middlewares/Third_Party/Huawei/iot_link/network/dtls/mbedtls/mbedtls-2.16.2/library\x509_crl.c ****     {
 1125              		.loc 1 118 12 view .LVU405
 1126 034e 059B     		ldr	r3, [sp, #20]
 116:D:/fchai/work/i-cube/I-CUBE-HUAWEI/Middlewares/Third_Party/Huawei/iot_link/network/dtls/mbedtls/mbedtls-2.16.2/library\x509_crl.c **** 
 1127              		.loc 1 116 9 view .LVU406
 1128 0350 1644     		add	r6, r6, r2
 1129              	.LVL125:
 118:D:/fchai/work/i-cube/I-CUBE-HUAWEI/Middlewares/Third_Party/Huawei/iot_link/network/dtls/mbedtls/mbedtls-2.16.2/library\x509_crl.c ****     {
 1130              		.loc 1 118 5 is_stmt 1 view .LVU407
 118:D:/fchai/work/i-cube/I-CUBE-HUAWEI/Middlewares/Third_Party/Huawei/iot_link/network/dtls/mbedtls/mbedtls-2.16.2/library\x509_crl.c ****     {
 1131              		.loc 1 118 10 view .LVU408
 1132 0352 9E42     		cmp	r6, r3
 118:D:/fchai/work/i-cube/I-CUBE-HUAWEI/Middlewares/Third_Party/Huawei/iot_link/network/dtls/mbedtls/mbedtls-2.16.2/library\x509_crl.c ****     {
 1133              		.loc 1 118 12 is_stmt 0 view .LVU409
 1134 0354 1A46     		mov	r2, r3
 118:D:/fchai/work/i-cube/I-CUBE-HUAWEI/Middlewares/Third_Party/Huawei/iot_link/network/dtls/mbedtls/mbedtls-2.16.2/library\x509_crl.c ****     {
 1135              		.loc 1 118 10 view .LVU410
 1136 0356 52D9     		bls	.L67
 1137              	.LBB112:
 126:D:/fchai/work/i-cube/I-CUBE-HUAWEI/Middlewares/Third_Party/Huawei/iot_link/network/dtls/mbedtls/mbedtls-2.16.2/library\x509_crl.c ****         const unsigned char *end_ext_data;
 1138              		.loc 1 126 13 view .LVU411
 1139 0358 8046     		mov	r8, r0
 1140 035a 2AE0     		b	.L74
 1141              	.LVL126:
 1142              	.L68:
 135:D:/fchai/work/i-cube/I-CUBE-HUAWEI/Middlewares/Third_Party/Huawei/iot_link/network/dtls/mbedtls/mbedtls-2.16.2/library\x509_crl.c **** 
 1143              		.loc 1 135 22 view .LVU412
ARM GAS  T:\msys\tmp\ccGq53OE.s 			page 41


 1144 035c 059D     		ldr	r5, [sp, #20]
 1145              	.LVL127:
 135:D:/fchai/work/i-cube/I-CUBE-HUAWEI/Middlewares/Third_Party/Huawei/iot_link/network/dtls/mbedtls/mbedtls-2.16.2/library\x509_crl.c **** 
 1146              		.loc 1 135 22 view .LVU413
 1147 035e 0899     		ldr	r1, [sp, #32]
 1148 0360 05EB0109 		add	r9, r5, r1
 1149              	.LVL128:
 138:D:/fchai/work/i-cube/I-CUBE-HUAWEI/Middlewares/Third_Party/Huawei/iot_link/network/dtls/mbedtls/mbedtls-2.16.2/library\x509_crl.c ****                                           MBEDTLS_ASN1_OID ) ) != 0 )
 1150              		.loc 1 138 9 is_stmt 1 view .LVU414
 138:D:/fchai/work/i-cube/I-CUBE-HUAWEI/Middlewares/Third_Party/Huawei/iot_link/network/dtls/mbedtls/mbedtls-2.16.2/library\x509_crl.c ****                                           MBEDTLS_ASN1_OID ) ) != 0 )
 1151              		.loc 1 138 21 is_stmt 0 view .LVU415
 1152 0364 4946     		mov	r1, r9
 1153 0366 FFF7FEFF 		bl	mbedtls_asn1_get_tag
 1154              	.LVL129:
 143:D:/fchai/work/i-cube/I-CUBE-HUAWEI/Middlewares/Third_Party/Huawei/iot_link/network/dtls/mbedtls/mbedtls-2.16.2/library\x509_crl.c **** 
 1155              		.loc 1 143 9 is_stmt 1 view .LVU416
 138:D:/fchai/work/i-cube/I-CUBE-HUAWEI/Middlewares/Third_Party/Huawei/iot_link/network/dtls/mbedtls/mbedtls-2.16.2/library\x509_crl.c ****                                           MBEDTLS_ASN1_OID ) ) != 0 )
 1156              		.loc 1 138 21 is_stmt 0 view .LVU417
 1157 036a 0546     		mov	r5, r0
 1158              	.LVL130:
 146:D:/fchai/work/i-cube/I-CUBE-HUAWEI/Middlewares/Third_Party/Huawei/iot_link/network/dtls/mbedtls/mbedtls-2.16.2/library\x509_crl.c ****                                            &is_critical ) ) != 0 &&
 1159              		.loc 1 146 21 view .LVU418
 1160 036c 07AA     		add	r2, sp, #28
 1161 036e 4946     		mov	r1, r9
 1162 0370 05A8     		add	r0, sp, #20
 1163              	.LVL131:
 138:D:/fchai/work/i-cube/I-CUBE-HUAWEI/Middlewares/Third_Party/Huawei/iot_link/network/dtls/mbedtls/mbedtls-2.16.2/library\x509_crl.c ****                                           MBEDTLS_ASN1_OID ) ) != 0 )
 1164              		.loc 1 138 11 view .LVU419
 1165 0372 65BB     		cbnz	r5, .L119
 143:D:/fchai/work/i-cube/I-CUBE-HUAWEI/Middlewares/Third_Party/Huawei/iot_link/network/dtls/mbedtls/mbedtls-2.16.2/library\x509_crl.c **** 
 1166              		.loc 1 143 12 view .LVU420
 1167 0374 059B     		ldr	r3, [sp, #20]
 1168 0376 089D     		ldr	r5, [sp, #32]
 1169              	.LVL132:
 143:D:/fchai/work/i-cube/I-CUBE-HUAWEI/Middlewares/Third_Party/Huawei/iot_link/network/dtls/mbedtls/mbedtls-2.16.2/library\x509_crl.c **** 
 1170              		.loc 1 143 12 view .LVU421
 1171 0378 2B44     		add	r3, r3, r5
 1172 037a 0593     		str	r3, [sp, #20]
 146:D:/fchai/work/i-cube/I-CUBE-HUAWEI/Middlewares/Third_Party/Huawei/iot_link/network/dtls/mbedtls/mbedtls-2.16.2/library\x509_crl.c ****                                            &is_critical ) ) != 0 &&
 1173              		.loc 1 146 9 is_stmt 1 view .LVU422
 146:D:/fchai/work/i-cube/I-CUBE-HUAWEI/Middlewares/Third_Party/Huawei/iot_link/network/dtls/mbedtls/mbedtls-2.16.2/library\x509_crl.c ****                                            &is_critical ) ) != 0 &&
 1174              		.loc 1 146 21 is_stmt 0 view .LVU423
 1175 037c FFF7FEFF 		bl	mbedtls_asn1_get_bool
 1176              	.LVL133:
 154:D:/fchai/work/i-cube/I-CUBE-HUAWEI/Middlewares/Third_Party/Huawei/iot_link/network/dtls/mbedtls/mbedtls-2.16.2/library\x509_crl.c ****                 MBEDTLS_ASN1_OCTET_STRING ) ) != 0 )
 1177              		.loc 1 154 9 is_stmt 1 view .LVU424
 146:D:/fchai/work/i-cube/I-CUBE-HUAWEI/Middlewares/Third_Party/Huawei/iot_link/network/dtls/mbedtls/mbedtls-2.16.2/library\x509_crl.c ****                                            &is_critical ) ) != 0 &&
 1178              		.loc 1 146 21 is_stmt 0 view .LVU425
 1179 0380 0546     		mov	r5, r0
 1180              	.LVL134:
 154:D:/fchai/work/i-cube/I-CUBE-HUAWEI/Middlewares/Third_Party/Huawei/iot_link/network/dtls/mbedtls/mbedtls-2.16.2/library\x509_crl.c ****                 MBEDTLS_ASN1_OCTET_STRING ) ) != 0 )
 1181              		.loc 1 154 21 view .LVU426
 1182 0382 0423     		movs	r3, #4
 1183 0384 08AA     		add	r2, sp, #32
 1184 0386 4946     		mov	r1, r9
 1185 0388 05A8     		add	r0, sp, #20
 1186              	.LVL135:
ARM GAS  T:\msys\tmp\ccGq53OE.s 			page 42


 146:D:/fchai/work/i-cube/I-CUBE-HUAWEI/Middlewares/Third_Party/Huawei/iot_link/network/dtls/mbedtls/mbedtls-2.16.2/library\x509_crl.c ****                                            &is_critical ) ) != 0 &&
 1187              		.loc 1 146 11 view .LVU427
 1188 038a 15B1     		cbz	r5, .L71
 147:D:/fchai/work/i-cube/I-CUBE-HUAWEI/Middlewares/Third_Party/Huawei/iot_link/network/dtls/mbedtls/mbedtls-2.16.2/library\x509_crl.c ****             ( ret != MBEDTLS_ERR_ASN1_UNEXPECTED_TAG ) )
 1189              		.loc 1 147 66 view .LVU428
 1190 038c 15F1620F 		cmn	r5, #98
 1191 0390 1DD1     		bne	.L119
 1192              	.L71:
 154:D:/fchai/work/i-cube/I-CUBE-HUAWEI/Middlewares/Third_Party/Huawei/iot_link/network/dtls/mbedtls/mbedtls-2.16.2/library\x509_crl.c ****                 MBEDTLS_ASN1_OCTET_STRING ) ) != 0 )
 1193              		.loc 1 154 21 view .LVU429
 1194 0392 FFF7FEFF 		bl	mbedtls_asn1_get_tag
 1195              	.LVL136:
 159:D:/fchai/work/i-cube/I-CUBE-HUAWEI/Middlewares/Third_Party/Huawei/iot_link/network/dtls/mbedtls/mbedtls-2.16.2/library\x509_crl.c ****         if( *p != end_ext_data )
 1196              		.loc 1 159 9 is_stmt 1 view .LVU430
 165:D:/fchai/work/i-cube/I-CUBE-HUAWEI/Middlewares/Third_Party/Huawei/iot_link/network/dtls/mbedtls/mbedtls-2.16.2/library\x509_crl.c ****             return( MBEDTLS_ERR_X509_INVALID_EXTENSIONS +
 1197              		.loc 1 165 9 view .LVU431
 1198              	.LBE112:
 118:D:/fchai/work/i-cube/I-CUBE-HUAWEI/Middlewares/Third_Party/Huawei/iot_link/network/dtls/mbedtls/mbedtls-2.16.2/library\x509_crl.c ****     {
 1199              		.loc 1 118 10 view .LVU432
 1200              	.LBB113:
 154:D:/fchai/work/i-cube/I-CUBE-HUAWEI/Middlewares/Third_Party/Huawei/iot_link/network/dtls/mbedtls/mbedtls-2.16.2/library\x509_crl.c ****                 MBEDTLS_ASN1_OCTET_STRING ) ) != 0 )
 1201              		.loc 1 154 11 is_stmt 0 view .LVU433
 1202 0396 0028     		cmp	r0, #0
 1203 0398 37D1     		bne	.L135
 159:D:/fchai/work/i-cube/I-CUBE-HUAWEI/Middlewares/Third_Party/Huawei/iot_link/network/dtls/mbedtls/mbedtls-2.16.2/library\x509_crl.c ****         if( *p != end_ext_data )
 1204              		.loc 1 159 12 view .LVU434
 1205 039a 059B     		ldr	r3, [sp, #20]
 1206 039c 089A     		ldr	r2, [sp, #32]
 1207 039e 1A44     		add	r2, r2, r3
 160:D:/fchai/work/i-cube/I-CUBE-HUAWEI/Middlewares/Third_Party/Huawei/iot_link/network/dtls/mbedtls/mbedtls-2.16.2/library\x509_crl.c ****             return( MBEDTLS_ERR_X509_INVALID_EXTENSIONS +
 1208              		.loc 1 160 11 view .LVU435
 1209 03a0 9145     		cmp	r9, r2
 159:D:/fchai/work/i-cube/I-CUBE-HUAWEI/Middlewares/Third_Party/Huawei/iot_link/network/dtls/mbedtls/mbedtls-2.16.2/library\x509_crl.c ****         if( *p != end_ext_data )
 1210              		.loc 1 159 12 view .LVU436
 1211 03a2 0592     		str	r2, [sp, #20]
 160:D:/fchai/work/i-cube/I-CUBE-HUAWEI/Middlewares/Third_Party/Huawei/iot_link/network/dtls/mbedtls/mbedtls-2.16.2/library\x509_crl.c ****             return( MBEDTLS_ERR_X509_INVALID_EXTENSIONS +
 1212              		.loc 1 160 9 is_stmt 1 view .LVU437
 159:D:/fchai/work/i-cube/I-CUBE-HUAWEI/Middlewares/Third_Party/Huawei/iot_link/network/dtls/mbedtls/mbedtls-2.16.2/library\x509_crl.c ****         if( *p != end_ext_data )
 1213              		.loc 1 159 12 is_stmt 0 view .LVU438
 1214 03a4 1346     		mov	r3, r2
 160:D:/fchai/work/i-cube/I-CUBE-HUAWEI/Middlewares/Third_Party/Huawei/iot_link/network/dtls/mbedtls/mbedtls-2.16.2/library\x509_crl.c ****             return( MBEDTLS_ERR_X509_INVALID_EXTENSIONS +
 1215              		.loc 1 160 11 view .LVU439
 1216 03a6 7FF45AAF 		bne	.L120
 165:D:/fchai/work/i-cube/I-CUBE-HUAWEI/Middlewares/Third_Party/Huawei/iot_link/network/dtls/mbedtls/mbedtls-2.16.2/library\x509_crl.c ****             return( MBEDTLS_ERR_X509_INVALID_EXTENSIONS +
 1217              		.loc 1 165 11 view .LVU440
 1218 03aa 0799     		ldr	r1, [sp, #28]
 1219 03ac 59BB     		cbnz	r1, .L90
 1220              	.LBE113:
 118:D:/fchai/work/i-cube/I-CUBE-HUAWEI/Middlewares/Third_Party/Huawei/iot_link/network/dtls/mbedtls/mbedtls-2.16.2/library\x509_crl.c ****     {
 1221              		.loc 1 118 10 view .LVU441
 1222 03ae 9642     		cmp	r6, r2
 1223 03b0 25D9     		bls	.L67
 1224              	.LVL137:
 1225              	.L74:
 1226              	.LBB114:
 126:D:/fchai/work/i-cube/I-CUBE-HUAWEI/Middlewares/Third_Party/Huawei/iot_link/network/dtls/mbedtls/mbedtls-2.16.2/library\x509_crl.c ****         const unsigned char *end_ext_data;
 1227              		.loc 1 126 9 is_stmt 1 view .LVU442
ARM GAS  T:\msys\tmp\ccGq53OE.s 			page 43


 131:D:/fchai/work/i-cube/I-CUBE-HUAWEI/Middlewares/Third_Party/Huawei/iot_link/network/dtls/mbedtls/mbedtls-2.16.2/library\x509_crl.c ****                 MBEDTLS_ASN1_CONSTRUCTED | MBEDTLS_ASN1_SEQUENCE ) ) != 0 )
 1228              		.loc 1 131 21 is_stmt 0 view .LVU443
 1229 03b2 3023     		movs	r3, #48
 1230 03b4 08AA     		add	r2, sp, #32
 1231 03b6 3146     		mov	r1, r6
 1232 03b8 05A8     		add	r0, sp, #20
 1233              	.LVL138:
 126:D:/fchai/work/i-cube/I-CUBE-HUAWEI/Middlewares/Third_Party/Huawei/iot_link/network/dtls/mbedtls/mbedtls-2.16.2/library\x509_crl.c ****         const unsigned char *end_ext_data;
 1234              		.loc 1 126 13 view .LVU444
 1235 03ba CDF81C80 		str	r8, [sp, #28]
 127:D:/fchai/work/i-cube/I-CUBE-HUAWEI/Middlewares/Third_Party/Huawei/iot_link/network/dtls/mbedtls/mbedtls-2.16.2/library\x509_crl.c ****         size_t len;
 1236              		.loc 1 127 9 is_stmt 1 view .LVU445
 128:D:/fchai/work/i-cube/I-CUBE-HUAWEI/Middlewares/Third_Party/Huawei/iot_link/network/dtls/mbedtls/mbedtls-2.16.2/library\x509_crl.c **** 
 1237              		.loc 1 128 9 view .LVU446
 131:D:/fchai/work/i-cube/I-CUBE-HUAWEI/Middlewares/Third_Party/Huawei/iot_link/network/dtls/mbedtls/mbedtls-2.16.2/library\x509_crl.c ****                 MBEDTLS_ASN1_CONSTRUCTED | MBEDTLS_ASN1_SEQUENCE ) ) != 0 )
 1238              		.loc 1 131 9 view .LVU447
 131:D:/fchai/work/i-cube/I-CUBE-HUAWEI/Middlewares/Third_Party/Huawei/iot_link/network/dtls/mbedtls/mbedtls-2.16.2/library\x509_crl.c ****                 MBEDTLS_ASN1_CONSTRUCTED | MBEDTLS_ASN1_SEQUENCE ) ) != 0 )
 1239              		.loc 1 131 21 is_stmt 0 view .LVU448
 1240 03be FFF7FEFF 		bl	mbedtls_asn1_get_tag
 1241              	.LVL139:
 135:D:/fchai/work/i-cube/I-CUBE-HUAWEI/Middlewares/Third_Party/Huawei/iot_link/network/dtls/mbedtls/mbedtls-2.16.2/library\x509_crl.c **** 
 1242              		.loc 1 135 9 is_stmt 1 view .LVU449
 131:D:/fchai/work/i-cube/I-CUBE-HUAWEI/Middlewares/Third_Party/Huawei/iot_link/network/dtls/mbedtls/mbedtls-2.16.2/library\x509_crl.c ****                 MBEDTLS_ASN1_CONSTRUCTED | MBEDTLS_ASN1_SEQUENCE ) ) != 0 )
 1243              		.loc 1 131 21 is_stmt 0 view .LVU450
 1244 03c2 0546     		mov	r5, r0
 1245              	.LVL140:
 138:D:/fchai/work/i-cube/I-CUBE-HUAWEI/Middlewares/Third_Party/Huawei/iot_link/network/dtls/mbedtls/mbedtls-2.16.2/library\x509_crl.c ****                                           MBEDTLS_ASN1_OID ) ) != 0 )
 1246              		.loc 1 138 21 view .LVU451
 1247 03c4 0623     		movs	r3, #6
 1248 03c6 08AA     		add	r2, sp, #32
 1249 03c8 05A8     		add	r0, sp, #20
 1250              	.LVL141:
 131:D:/fchai/work/i-cube/I-CUBE-HUAWEI/Middlewares/Third_Party/Huawei/iot_link/network/dtls/mbedtls/mbedtls-2.16.2/library\x509_crl.c ****                 MBEDTLS_ASN1_CONSTRUCTED | MBEDTLS_ASN1_SEQUENCE ) ) != 0 )
 1251              		.loc 1 131 11 view .LVU452
 1252 03ca 002D     		cmp	r5, #0
 1253 03cc C6D0     		beq	.L68
 1254              	.L119:
 150:D:/fchai/work/i-cube/I-CUBE-HUAWEI/Middlewares/Third_Party/Huawei/iot_link/network/dtls/mbedtls/mbedtls-2.16.2/library\x509_crl.c ****         }
 1255              		.loc 1 150 13 is_stmt 1 view .LVU453
 150:D:/fchai/work/i-cube/I-CUBE-HUAWEI/Middlewares/Third_Party/Huawei/iot_link/network/dtls/mbedtls/mbedtls-2.16.2/library\x509_crl.c ****         }
 1256              		.loc 1 150 57 is_stmt 0 view .LVU454
 1257 03ce A5F51455 		sub	r5, r5, #9472
 1258              	.LVL142:
 1259              	.L69:
 150:D:/fchai/work/i-cube/I-CUBE-HUAWEI/Middlewares/Third_Party/Huawei/iot_link/network/dtls/mbedtls/mbedtls-2.16.2/library\x509_crl.c ****         }
 1260              		.loc 1 150 57 view .LVU455
 1261              	.LBE114:
 1262              	.LBE117:
 1263              	.LBE135:
 484:D:/fchai/work/i-cube/I-CUBE-HUAWEI/Middlewares/Third_Party/Huawei/iot_link/network/dtls/mbedtls/mbedtls-2.16.2/library\x509_crl.c ****         {
 1264              		.loc 1 484 9 is_stmt 1 view .LVU456
 484:D:/fchai/work/i-cube/I-CUBE-HUAWEI/Middlewares/Third_Party/Huawei/iot_link/network/dtls/mbedtls/mbedtls-2.16.2/library\x509_crl.c ****         {
 1265              		.loc 1 484 11 is_stmt 0 view .LVU457
 1266 03d2 002D     		cmp	r5, #0
 1267 03d4 7FF444AF 		bne	.L50
 1268 03d8 059B     		ldr	r3, [sp, #20]
 1269 03da 6AE7     		b	.L65
ARM GAS  T:\msys\tmp\ccGq53OE.s 			page 44


 1270              	.LVL143:
 1271              	.L128:
 406:D:/fchai/work/i-cube/I-CUBE-HUAWEI/Middlewares/Third_Party/Huawei/iot_link/network/dtls/mbedtls/mbedtls-2.16.2/library\x509_crl.c ****         return( MBEDTLS_ERR_X509_UNKNOWN_VERSION );
 1272              		.loc 1 406 9 is_stmt 1 view .LVU458
 1273              	.LBB136:
 1274              	.LBI136:
 713:D:/fchai/work/i-cube/I-CUBE-HUAWEI/Middlewares/Third_Party/Huawei/iot_link/network/dtls/mbedtls/mbedtls-2.16.2/library\x509_crl.c **** {
 1275              		.loc 1 713 6 view .LVU459
 1276              	.LBB137:
 715:D:/fchai/work/i-cube/I-CUBE-HUAWEI/Middlewares/Third_Party/Huawei/iot_link/network/dtls/mbedtls/mbedtls-2.16.2/library\x509_crl.c ****     mbedtls_x509_crl *crl_prv;
 1277              		.loc 1 715 5 view .LVU460
 716:D:/fchai/work/i-cube/I-CUBE-HUAWEI/Middlewares/Third_Party/Huawei/iot_link/network/dtls/mbedtls/mbedtls-2.16.2/library\x509_crl.c ****     mbedtls_x509_name *name_cur;
 1278              		.loc 1 716 5 view .LVU461
 717:D:/fchai/work/i-cube/I-CUBE-HUAWEI/Middlewares/Third_Party/Huawei/iot_link/network/dtls/mbedtls/mbedtls-2.16.2/library\x509_crl.c ****     mbedtls_x509_name *name_prv;
 1279              		.loc 1 717 5 view .LVU462
 718:D:/fchai/work/i-cube/I-CUBE-HUAWEI/Middlewares/Third_Party/Huawei/iot_link/network/dtls/mbedtls/mbedtls-2.16.2/library\x509_crl.c ****     mbedtls_x509_crl_entry *entry_cur;
 1280              		.loc 1 718 5 view .LVU463
 719:D:/fchai/work/i-cube/I-CUBE-HUAWEI/Middlewares/Third_Party/Huawei/iot_link/network/dtls/mbedtls/mbedtls-2.16.2/library\x509_crl.c ****     mbedtls_x509_crl_entry *entry_prv;
 1281              		.loc 1 719 5 view .LVU464
 720:D:/fchai/work/i-cube/I-CUBE-HUAWEI/Middlewares/Third_Party/Huawei/iot_link/network/dtls/mbedtls/mbedtls-2.16.2/library\x509_crl.c **** 
 1282              		.loc 1 720 5 view .LVU465
 722:D:/fchai/work/i-cube/I-CUBE-HUAWEI/Middlewares/Third_Party/Huawei/iot_link/network/dtls/mbedtls/mbedtls-2.16.2/library\x509_crl.c ****         return;
 1283              		.loc 1 722 5 view .LVU466
 1284 03dc 2046     		mov	r0, r4
 1285              	.LVL144:
 722:D:/fchai/work/i-cube/I-CUBE-HUAWEI/Middlewares/Third_Party/Huawei/iot_link/network/dtls/mbedtls/mbedtls-2.16.2/library\x509_crl.c ****         return;
 1286              		.loc 1 722 5 is_stmt 0 view .LVU467
 1287 03de FFF7FEFF 		bl	mbedtls_x509_crl_free.part.0
 1288              	.LVL145:
 722:D:/fchai/work/i-cube/I-CUBE-HUAWEI/Middlewares/Third_Party/Huawei/iot_link/network/dtls/mbedtls/mbedtls-2.16.2/library\x509_crl.c ****         return;
 1289              		.loc 1 722 5 view .LVU468
 1290              	.LBE137:
 1291              	.LBE136:
 407:D:/fchai/work/i-cube/I-CUBE-HUAWEI/Middlewares/Third_Party/Huawei/iot_link/network/dtls/mbedtls/mbedtls-2.16.2/library\x509_crl.c ****     }
 1292              		.loc 1 407 9 is_stmt 1 view .LVU469
 407:D:/fchai/work/i-cube/I-CUBE-HUAWEI/Middlewares/Third_Party/Huawei/iot_link/network/dtls/mbedtls/mbedtls-2.16.2/library\x509_crl.c ****     }
 1293              		.loc 1 407 15 is_stmt 0 view .LVU470
 1294 03e2 124D     		ldr	r5, .L136+28
 1295              	.LVL146:
 407:D:/fchai/work/i-cube/I-CUBE-HUAWEI/Middlewares/Third_Party/Huawei/iot_link/network/dtls/mbedtls/mbedtls-2.16.2/library\x509_crl.c ****     }
 1296              		.loc 1 407 15 view .LVU471
 1297 03e4 3FE7     		b	.L29
 1298              	.LVL147:
 1299              	.L126:
 365:D:/fchai/work/i-cube/I-CUBE-HUAWEI/Middlewares/Third_Party/Huawei/iot_link/network/dtls/mbedtls/mbedtls-2.16.2/library\x509_crl.c ****         return( MBEDTLS_ERR_X509_INVALID_FORMAT );
 1300              		.loc 1 365 9 is_stmt 1 view .LVU472
 1301              	.LBB138:
 1302              	.LBI138:
 713:D:/fchai/work/i-cube/I-CUBE-HUAWEI/Middlewares/Third_Party/Huawei/iot_link/network/dtls/mbedtls/mbedtls-2.16.2/library\x509_crl.c **** {
 1303              		.loc 1 713 6 view .LVU473
 1304              	.LBB139:
 715:D:/fchai/work/i-cube/I-CUBE-HUAWEI/Middlewares/Third_Party/Huawei/iot_link/network/dtls/mbedtls/mbedtls-2.16.2/library\x509_crl.c ****     mbedtls_x509_crl *crl_prv;
 1305              		.loc 1 715 5 view .LVU474
 716:D:/fchai/work/i-cube/I-CUBE-HUAWEI/Middlewares/Third_Party/Huawei/iot_link/network/dtls/mbedtls/mbedtls-2.16.2/library\x509_crl.c ****     mbedtls_x509_name *name_cur;
 1306              		.loc 1 716 5 view .LVU475
 717:D:/fchai/work/i-cube/I-CUBE-HUAWEI/Middlewares/Third_Party/Huawei/iot_link/network/dtls/mbedtls/mbedtls-2.16.2/library\x509_crl.c ****     mbedtls_x509_name *name_prv;
 1307              		.loc 1 717 5 view .LVU476
ARM GAS  T:\msys\tmp\ccGq53OE.s 			page 45


 718:D:/fchai/work/i-cube/I-CUBE-HUAWEI/Middlewares/Third_Party/Huawei/iot_link/network/dtls/mbedtls/mbedtls-2.16.2/library\x509_crl.c ****     mbedtls_x509_crl_entry *entry_cur;
 1308              		.loc 1 718 5 view .LVU477
 719:D:/fchai/work/i-cube/I-CUBE-HUAWEI/Middlewares/Third_Party/Huawei/iot_link/network/dtls/mbedtls/mbedtls-2.16.2/library\x509_crl.c ****     mbedtls_x509_crl_entry *entry_prv;
 1309              		.loc 1 719 5 view .LVU478
 720:D:/fchai/work/i-cube/I-CUBE-HUAWEI/Middlewares/Third_Party/Huawei/iot_link/network/dtls/mbedtls/mbedtls-2.16.2/library\x509_crl.c **** 
 1310              		.loc 1 720 5 view .LVU479
 722:D:/fchai/work/i-cube/I-CUBE-HUAWEI/Middlewares/Third_Party/Huawei/iot_link/network/dtls/mbedtls/mbedtls-2.16.2/library\x509_crl.c ****         return;
 1311              		.loc 1 722 5 view .LVU480
 1312 03e6 2046     		mov	r0, r4
 1313              	.LVL148:
 722:D:/fchai/work/i-cube/I-CUBE-HUAWEI/Middlewares/Third_Party/Huawei/iot_link/network/dtls/mbedtls/mbedtls-2.16.2/library\x509_crl.c ****         return;
 1314              		.loc 1 722 5 is_stmt 0 view .LVU481
 1315 03e8 FFF7FEFF 		bl	mbedtls_x509_crl_free.part.0
 1316              	.LVL149:
 722:D:/fchai/work/i-cube/I-CUBE-HUAWEI/Middlewares/Third_Party/Huawei/iot_link/network/dtls/mbedtls/mbedtls-2.16.2/library\x509_crl.c ****         return;
 1317              		.loc 1 722 5 view .LVU482
 1318              	.LBE139:
 1319              	.LBE138:
 366:D:/fchai/work/i-cube/I-CUBE-HUAWEI/Middlewares/Third_Party/Huawei/iot_link/network/dtls/mbedtls/mbedtls-2.16.2/library\x509_crl.c ****     }
 1320              		.loc 1 366 9 is_stmt 1 view .LVU483
 366:D:/fchai/work/i-cube/I-CUBE-HUAWEI/Middlewares/Third_Party/Huawei/iot_link/network/dtls/mbedtls/mbedtls-2.16.2/library\x509_crl.c ****     }
 1321              		.loc 1 366 15 is_stmt 0 view .LVU484
 1322 03ec 0C4D     		ldr	r5, .L136+16
 1323 03ee 3AE7     		b	.L29
 1324              	.LVL150:
 1325              	.L129:
 416:D:/fchai/work/i-cube/I-CUBE-HUAWEI/Middlewares/Third_Party/Huawei/iot_link/network/dtls/mbedtls/mbedtls-2.16.2/library\x509_crl.c ****         return( MBEDTLS_ERR_X509_UNKNOWN_SIG_ALG );
 1326              		.loc 1 416 9 is_stmt 1 view .LVU485
 1327              	.LBB140:
 1328              	.LBI140:
 713:D:/fchai/work/i-cube/I-CUBE-HUAWEI/Middlewares/Third_Party/Huawei/iot_link/network/dtls/mbedtls/mbedtls-2.16.2/library\x509_crl.c **** {
 1329              		.loc 1 713 6 view .LVU486
 1330              	.LBB141:
 715:D:/fchai/work/i-cube/I-CUBE-HUAWEI/Middlewares/Third_Party/Huawei/iot_link/network/dtls/mbedtls/mbedtls-2.16.2/library\x509_crl.c ****     mbedtls_x509_crl *crl_prv;
 1331              		.loc 1 715 5 view .LVU487
 716:D:/fchai/work/i-cube/I-CUBE-HUAWEI/Middlewares/Third_Party/Huawei/iot_link/network/dtls/mbedtls/mbedtls-2.16.2/library\x509_crl.c ****     mbedtls_x509_name *name_cur;
 1332              		.loc 1 716 5 view .LVU488
 717:D:/fchai/work/i-cube/I-CUBE-HUAWEI/Middlewares/Third_Party/Huawei/iot_link/network/dtls/mbedtls/mbedtls-2.16.2/library\x509_crl.c ****     mbedtls_x509_name *name_prv;
 1333              		.loc 1 717 5 view .LVU489
 718:D:/fchai/work/i-cube/I-CUBE-HUAWEI/Middlewares/Third_Party/Huawei/iot_link/network/dtls/mbedtls/mbedtls-2.16.2/library\x509_crl.c ****     mbedtls_x509_crl_entry *entry_cur;
 1334              		.loc 1 718 5 view .LVU490
 719:D:/fchai/work/i-cube/I-CUBE-HUAWEI/Middlewares/Third_Party/Huawei/iot_link/network/dtls/mbedtls/mbedtls-2.16.2/library\x509_crl.c ****     mbedtls_x509_crl_entry *entry_prv;
 1335              		.loc 1 719 5 view .LVU491
 720:D:/fchai/work/i-cube/I-CUBE-HUAWEI/Middlewares/Third_Party/Huawei/iot_link/network/dtls/mbedtls/mbedtls-2.16.2/library\x509_crl.c **** 
 1336              		.loc 1 720 5 view .LVU492
 722:D:/fchai/work/i-cube/I-CUBE-HUAWEI/Middlewares/Third_Party/Huawei/iot_link/network/dtls/mbedtls/mbedtls-2.16.2/library\x509_crl.c ****         return;
 1337              		.loc 1 722 5 view .LVU493
 1338 03f0 2046     		mov	r0, r4
 1339              	.LVL151:
 722:D:/fchai/work/i-cube/I-CUBE-HUAWEI/Middlewares/Third_Party/Huawei/iot_link/network/dtls/mbedtls/mbedtls-2.16.2/library\x509_crl.c ****         return;
 1340              		.loc 1 722 5 is_stmt 0 view .LVU494
 1341 03f2 FFF7FEFF 		bl	mbedtls_x509_crl_free.part.0
 1342              	.LVL152:
 722:D:/fchai/work/i-cube/I-CUBE-HUAWEI/Middlewares/Third_Party/Huawei/iot_link/network/dtls/mbedtls/mbedtls-2.16.2/library\x509_crl.c ****         return;
 1343              		.loc 1 722 5 view .LVU495
 1344              	.LBE141:
 1345              	.LBE140:
ARM GAS  T:\msys\tmp\ccGq53OE.s 			page 46


 417:D:/fchai/work/i-cube/I-CUBE-HUAWEI/Middlewares/Third_Party/Huawei/iot_link/network/dtls/mbedtls/mbedtls-2.16.2/library\x509_crl.c ****     }
 1346              		.loc 1 417 9 is_stmt 1 view .LVU496
 417:D:/fchai/work/i-cube/I-CUBE-HUAWEI/Middlewares/Third_Party/Huawei/iot_link/network/dtls/mbedtls/mbedtls-2.16.2/library\x509_crl.c ****     }
 1347              		.loc 1 417 15 is_stmt 0 view .LVU497
 1348 03f6 0E4D     		ldr	r5, .L136+32
 1349 03f8 35E7     		b	.L29
 1350              	.LVL153:
 1351              	.L87:
 1352              	.LBB142:
 1353              	.LBB108:
 1354              	.LBB104:
 288:D:/fchai/work/i-cube/I-CUBE-HUAWEI/Middlewares/Third_Party/Huawei/iot_link/network/dtls/mbedtls/mbedtls-2.16.2/library\x509_crl.c **** 
 1355              		.loc 1 288 23 view .LVU498
 1356 03fa 0B4D     		ldr	r5, .L136+24
 1357 03fc 30E7     		b	.L50
 1358              	.LVL154:
 1359              	.L67:
 288:D:/fchai/work/i-cube/I-CUBE-HUAWEI/Middlewares/Third_Party/Huawei/iot_link/network/dtls/mbedtls/mbedtls-2.16.2/library\x509_crl.c **** 
 1360              		.loc 1 288 23 view .LVU499
 1361              	.LBE104:
 1362              	.LBE108:
 1363              	.LBE142:
 1364              	.LBB143:
 1365              	.LBB118:
 170:D:/fchai/work/i-cube/I-CUBE-HUAWEI/Middlewares/Third_Party/Huawei/iot_link/network/dtls/mbedtls/mbedtls-2.16.2/library\x509_crl.c ****         return( MBEDTLS_ERR_X509_INVALID_EXTENSIONS +
 1366              		.loc 1 170 5 is_stmt 1 view .LVU500
 170:D:/fchai/work/i-cube/I-CUBE-HUAWEI/Middlewares/Third_Party/Huawei/iot_link/network/dtls/mbedtls/mbedtls-2.16.2/library\x509_crl.c ****         return( MBEDTLS_ERR_X509_INVALID_EXTENSIONS +
 1367              		.loc 1 170 7 is_stmt 0 view .LVU501
 1368 03fe 9642     		cmp	r6, r2
 1369 0400 3FF457AF 		beq	.L65
 1370 0404 2BE7     		b	.L120
 1371              	.LVL155:
 1372              	.L90:
 1373              	.LBB115:
 166:D:/fchai/work/i-cube/I-CUBE-HUAWEI/Middlewares/Third_Party/Huawei/iot_link/network/dtls/mbedtls/mbedtls-2.16.2/library\x509_crl.c ****                     MBEDTLS_ERR_ASN1_UNEXPECTED_TAG );
 1374              		.loc 1 166 19 view .LVU502
 1375 0406 0B4D     		ldr	r5, .L136+36
 1376              	.LVL156:
 166:D:/fchai/work/i-cube/I-CUBE-HUAWEI/Middlewares/Third_Party/Huawei/iot_link/network/dtls/mbedtls/mbedtls-2.16.2/library\x509_crl.c ****                     MBEDTLS_ERR_ASN1_UNEXPECTED_TAG );
 1377              		.loc 1 166 19 view .LVU503
 1378              	.LBE115:
 1379              	.LBE118:
 1380              	.LBE143:
 484:D:/fchai/work/i-cube/I-CUBE-HUAWEI/Middlewares/Third_Party/Huawei/iot_link/network/dtls/mbedtls/mbedtls-2.16.2/library\x509_crl.c ****         {
 1381              		.loc 1 484 9 is_stmt 1 view .LVU504
 1382 0408 2AE7     		b	.L50
 1383              	.LVL157:
 1384              	.L135:
 1385              	.LBB144:
 1386              	.LBB119:
 1387              	.LBB116:
 156:D:/fchai/work/i-cube/I-CUBE-HUAWEI/Middlewares/Third_Party/Huawei/iot_link/network/dtls/mbedtls/mbedtls-2.16.2/library\x509_crl.c **** 
 1388              		.loc 1 156 13 view .LVU505
 156:D:/fchai/work/i-cube/I-CUBE-HUAWEI/Middlewares/Third_Party/Huawei/iot_link/network/dtls/mbedtls/mbedtls-2.16.2/library\x509_crl.c **** 
 1389              		.loc 1 156 57 is_stmt 0 view .LVU506
 1390 040a A0F51455 		sub	r5, r0, #9472
 1391 040e E0E7     		b	.L69
ARM GAS  T:\msys\tmp\ccGq53OE.s 			page 47


 1392              	.L137:
 1393              		.align	2
 1394              	.L136:
 1395 0410 9EDBFFFF 		.word	-9314
 1396 0414 9ADAFFFF 		.word	-9574
 1397 0418 1ADEFFFF 		.word	-8678
 1398 041c 80D9FFFF 		.word	-9856
 1399 0420 80DEFFFF 		.word	-8576
 1400 0424 00D8FFFF 		.word	-10240
 1401 0428 80D7FFFF 		.word	-10368
 1402 042c 80DAFFFF 		.word	-9600
 1403 0430 00DAFFFF 		.word	-9728
 1404 0434 9EDAFFFF 		.word	-9570
 1405              	.LVL158:
 1406              	.L133:
 156:D:/fchai/work/i-cube/I-CUBE-HUAWEI/Middlewares/Third_Party/Huawei/iot_link/network/dtls/mbedtls/mbedtls-2.16.2/library\x509_crl.c **** 
 1407              		.loc 1 156 57 view .LVU507
 1408              	.LBE116:
 1409              	.LBE119:
 1410              	.LBE144:
 331:D:/fchai/work/i-cube/I-CUBE-HUAWEI/Middlewares/Third_Party/Huawei/iot_link/network/dtls/mbedtls/mbedtls-2.16.2/library\x509_crl.c ****             return( MBEDTLS_ERR_X509_ALLOC_FAILED );
 1411              		.loc 1 331 13 is_stmt 1 view .LVU508
 1412              	.LBB145:
 1413              	.LBI145:
 713:D:/fchai/work/i-cube/I-CUBE-HUAWEI/Middlewares/Third_Party/Huawei/iot_link/network/dtls/mbedtls/mbedtls-2.16.2/library\x509_crl.c **** {
 1414              		.loc 1 713 6 view .LVU509
 1415              	.LBB146:
 715:D:/fchai/work/i-cube/I-CUBE-HUAWEI/Middlewares/Third_Party/Huawei/iot_link/network/dtls/mbedtls/mbedtls-2.16.2/library\x509_crl.c ****     mbedtls_x509_crl *crl_prv;
 1416              		.loc 1 715 5 view .LVU510
 716:D:/fchai/work/i-cube/I-CUBE-HUAWEI/Middlewares/Third_Party/Huawei/iot_link/network/dtls/mbedtls/mbedtls-2.16.2/library\x509_crl.c ****     mbedtls_x509_name *name_cur;
 1417              		.loc 1 716 5 view .LVU511
 717:D:/fchai/work/i-cube/I-CUBE-HUAWEI/Middlewares/Third_Party/Huawei/iot_link/network/dtls/mbedtls/mbedtls-2.16.2/library\x509_crl.c ****     mbedtls_x509_name *name_prv;
 1418              		.loc 1 717 5 view .LVU512
 718:D:/fchai/work/i-cube/I-CUBE-HUAWEI/Middlewares/Third_Party/Huawei/iot_link/network/dtls/mbedtls/mbedtls-2.16.2/library\x509_crl.c ****     mbedtls_x509_crl_entry *entry_cur;
 1419              		.loc 1 718 5 view .LVU513
 719:D:/fchai/work/i-cube/I-CUBE-HUAWEI/Middlewares/Third_Party/Huawei/iot_link/network/dtls/mbedtls/mbedtls-2.16.2/library\x509_crl.c ****     mbedtls_x509_crl_entry *entry_prv;
 1420              		.loc 1 719 5 view .LVU514
 720:D:/fchai/work/i-cube/I-CUBE-HUAWEI/Middlewares/Third_Party/Huawei/iot_link/network/dtls/mbedtls/mbedtls-2.16.2/library\x509_crl.c **** 
 1421              		.loc 1 720 5 view .LVU515
 722:D:/fchai/work/i-cube/I-CUBE-HUAWEI/Middlewares/Third_Party/Huawei/iot_link/network/dtls/mbedtls/mbedtls-2.16.2/library\x509_crl.c ****         return;
 1422              		.loc 1 722 5 view .LVU516
 1423 0438 2046     		mov	r0, r4
 1424 043a FFF7FEFF 		bl	mbedtls_x509_crl_free.part.0
 1425              	.LVL159:
 722:D:/fchai/work/i-cube/I-CUBE-HUAWEI/Middlewares/Third_Party/Huawei/iot_link/network/dtls/mbedtls/mbedtls-2.16.2/library\x509_crl.c ****         return;
 1426              		.loc 1 722 5 is_stmt 0 view .LVU517
 1427              	.LBE146:
 1428              	.LBE145:
 332:D:/fchai/work/i-cube/I-CUBE-HUAWEI/Middlewares/Third_Party/Huawei/iot_link/network/dtls/mbedtls/mbedtls-2.16.2/library\x509_crl.c ****         }
 1429              		.loc 1 332 13 is_stmt 1 view .LVU518
 332:D:/fchai/work/i-cube/I-CUBE-HUAWEI/Middlewares/Third_Party/Huawei/iot_link/network/dtls/mbedtls/mbedtls-2.16.2/library\x509_crl.c ****         }
 1430              		.loc 1 332 19 is_stmt 0 view .LVU519
 1431 043e 014D     		ldr	r5, .L138
 1432 0440 11E7     		b	.L29
 1433              	.L139:
 1434 0442 00BF     		.align	2
 1435              	.L138:
ARM GAS  T:\msys\tmp\ccGq53OE.s 			page 48


 1436 0444 80D7FFFF 		.word	-10368
 1437              		.cfi_endproc
 1438              	.LFE17:
 1440              		.section	.rodata.mbedtls_x509_crl_parse.str1.4,"aMS",%progbits,1
 1441              		.align	2
 1442              	.LC0:
 1443 0000 2D2D2D2D 		.ascii	"-----END X509 CRL-----\000"
 1443      2D454E44 
 1443      20583530 
 1443      39204352 
 1443      4C2D2D2D 
 1444 0017 00       		.align	2
 1445              	.LC1:
 1446 0018 2D2D2D2D 		.ascii	"-----BEGIN X509 CRL-----\000"
 1446      2D424547 
 1446      494E2058 
 1446      35303920 
 1446      43524C2D 
 1447              		.section	.text.mbedtls_x509_crl_parse,"ax",%progbits
 1448              		.align	1
 1449              		.p2align 2,,3
 1450              		.global	mbedtls_x509_crl_parse
 1451              		.syntax unified
 1452              		.thumb
 1453              		.thumb_func
 1454              		.fpu fpv4-sp-d16
 1456              	mbedtls_x509_crl_parse:
 1457              	.LVL160:
 1458              	.LFB18:
 540:D:/fchai/work/i-cube/I-CUBE-HUAWEI/Middlewares/Third_Party/Huawei/iot_link/network/dtls/mbedtls/mbedtls-2.16.2/library\x509_crl.c **** #if defined(MBEDTLS_PEM_PARSE_C)
 1459              		.loc 1 540 1 is_stmt 1 view -0
 1460              		.cfi_startproc
 1461              		@ args = 0, pretend = 0, frame = 16
 1462              		@ frame_needed = 0, uses_anonymous_args = 0
 542:D:/fchai/work/i-cube/I-CUBE-HUAWEI/Middlewares/Third_Party/Huawei/iot_link/network/dtls/mbedtls/mbedtls-2.16.2/library\x509_crl.c ****     size_t use_len;
 1463              		.loc 1 542 5 view .LVU521
 543:D:/fchai/work/i-cube/I-CUBE-HUAWEI/Middlewares/Third_Party/Huawei/iot_link/network/dtls/mbedtls/mbedtls-2.16.2/library\x509_crl.c ****     mbedtls_pem_context pem;
 1464              		.loc 1 543 5 view .LVU522
 544:D:/fchai/work/i-cube/I-CUBE-HUAWEI/Middlewares/Third_Party/Huawei/iot_link/network/dtls/mbedtls/mbedtls-2.16.2/library\x509_crl.c ****     int is_pem = 0;
 1465              		.loc 1 544 5 view .LVU523
 545:D:/fchai/work/i-cube/I-CUBE-HUAWEI/Middlewares/Third_Party/Huawei/iot_link/network/dtls/mbedtls/mbedtls-2.16.2/library\x509_crl.c **** 
 1466              		.loc 1 545 5 view .LVU524
 547:D:/fchai/work/i-cube/I-CUBE-HUAWEI/Middlewares/Third_Party/Huawei/iot_link/network/dtls/mbedtls/mbedtls-2.16.2/library\x509_crl.c ****         return( MBEDTLS_ERR_X509_BAD_INPUT_DATA );
 1467              		.loc 1 547 5 view .LVU525
 540:D:/fchai/work/i-cube/I-CUBE-HUAWEI/Middlewares/Third_Party/Huawei/iot_link/network/dtls/mbedtls/mbedtls-2.16.2/library\x509_crl.c **** #if defined(MBEDTLS_PEM_PARSE_C)
 1468              		.loc 1 540 1 is_stmt 0 view .LVU526
 1469 0000 2DE9F04F 		push	{r4, r5, r6, r7, r8, r9, r10, fp, lr}
 1470              	.LCFI9:
 1471              		.cfi_def_cfa_offset 36
 1472              		.cfi_offset 4, -36
 1473              		.cfi_offset 5, -32
 1474              		.cfi_offset 6, -28
 1475              		.cfi_offset 7, -24
 1476              		.cfi_offset 8, -20
 1477              		.cfi_offset 9, -16
 1478              		.cfi_offset 10, -12
 1479              		.cfi_offset 11, -8
ARM GAS  T:\msys\tmp\ccGq53OE.s 			page 49


 1480              		.cfi_offset 14, -4
 1481 0004 89B0     		sub	sp, sp, #36
 1482              	.LCFI10:
 1483              		.cfi_def_cfa_offset 72
 547:D:/fchai/work/i-cube/I-CUBE-HUAWEI/Middlewares/Third_Party/Huawei/iot_link/network/dtls/mbedtls/mbedtls-2.16.2/library\x509_crl.c ****         return( MBEDTLS_ERR_X509_BAD_INPUT_DATA );
 1484              		.loc 1 547 7 view .LVU527
 1485 0006 0028     		cmp	r0, #0
 1486 0008 4BD0     		beq	.L148
 1487 000a 0E46     		mov	r6, r1
 547:D:/fchai/work/i-cube/I-CUBE-HUAWEI/Middlewares/Third_Party/Huawei/iot_link/network/dtls/mbedtls/mbedtls-2.16.2/library\x509_crl.c ****         return( MBEDTLS_ERR_X509_BAD_INPUT_DATA );
 1488              		.loc 1 547 23 discriminator 1 view .LVU528
 1489 000c 0029     		cmp	r1, #0
 1490 000e 48D0     		beq	.L148
 559:D:/fchai/work/i-cube/I-CUBE-HUAWEI/Middlewares/Third_Party/Huawei/iot_link/network/dtls/mbedtls/mbedtls-2.16.2/library\x509_crl.c ****                                            "-----BEGIN X509 CRL-----",
 1491              		.loc 1 559 19 view .LVU529
 1492 0010 DFF89CB0 		ldr	fp, .L156+8
 1493 0014 DFF89CA0 		ldr	r10, .L156+12
 1494 0018 1546     		mov	r5, r2
 1495 001a 8046     		mov	r8, r0
 545:D:/fchai/work/i-cube/I-CUBE-HUAWEI/Middlewares/Third_Party/Huawei/iot_link/network/dtls/mbedtls/mbedtls-2.16.2/library\x509_crl.c **** 
 1496              		.loc 1 545 9 view .LVU530
 1497 001c 4FF00009 		mov	r9, #0
 559:D:/fchai/work/i-cube/I-CUBE-HUAWEI/Middlewares/Third_Party/Huawei/iot_link/network/dtls/mbedtls/mbedtls-2.16.2/library\x509_crl.c ****                                            "-----BEGIN X509 CRL-----",
 1498              		.loc 1 559 19 view .LVU531
 1499 0020 04AF     		add	r7, sp, #16
 1500              	.LVL161:
 1501              	.L146:
 550:D:/fchai/work/i-cube/I-CUBE-HUAWEI/Middlewares/Third_Party/Huawei/iot_link/network/dtls/mbedtls/mbedtls-2.16.2/library\x509_crl.c ****     {
 1502              		.loc 1 550 5 is_stmt 1 view .LVU532
 552:D:/fchai/work/i-cube/I-CUBE-HUAWEI/Middlewares/Third_Party/Huawei/iot_link/network/dtls/mbedtls/mbedtls-2.16.2/library\x509_crl.c **** 
 1503              		.loc 1 552 9 view .LVU533
 1504 0022 05A8     		add	r0, sp, #20
 1505 0024 FFF7FEFF 		bl	mbedtls_pem_init
 1506              	.LVL162:
 556:D:/fchai/work/i-cube/I-CUBE-HUAWEI/Middlewares/Third_Party/Huawei/iot_link/network/dtls/mbedtls/mbedtls-2.16.2/library\x509_crl.c ****             ret = MBEDTLS_ERR_PEM_NO_HEADER_FOOTER_PRESENT;
 1507              		.loc 1 556 9 view .LVU534
 556:D:/fchai/work/i-cube/I-CUBE-HUAWEI/Middlewares/Third_Party/Huawei/iot_link/network/dtls/mbedtls/mbedtls-2.16.2/library\x509_crl.c ****             ret = MBEDTLS_ERR_PEM_NO_HEADER_FOOTER_PRESENT;
 1508              		.loc 1 556 31 is_stmt 0 view .LVU535
 1509 0028 7319     		adds	r3, r6, r5
 556:D:/fchai/work/i-cube/I-CUBE-HUAWEI/Middlewares/Third_Party/Huawei/iot_link/network/dtls/mbedtls/mbedtls-2.16.2/library\x509_crl.c ****             ret = MBEDTLS_ERR_PEM_NO_HEADER_FOOTER_PRESENT;
 1510              		.loc 1 556 11 view .LVU536
 1511 002a 15B1     		cbz	r5, .L142
 556:D:/fchai/work/i-cube/I-CUBE-HUAWEI/Middlewares/Third_Party/Huawei/iot_link/network/dtls/mbedtls/mbedtls-2.16.2/library\x509_crl.c ****             ret = MBEDTLS_ERR_PEM_NO_HEADER_FOOTER_PRESENT;
 1512              		.loc 1 556 25 discriminator 1 view .LVU537
 1513 002c 13F8013C 		ldrb	r3, [r3, #-1]	@ zero_extendqisi2
 1514 0030 83B1     		cbz	r3, .L155
 1515              	.L142:
 557:D:/fchai/work/i-cube/I-CUBE-HUAWEI/Middlewares/Third_Party/Huawei/iot_link/network/dtls/mbedtls/mbedtls-2.16.2/library\x509_crl.c ****         else
 1516              		.loc 1 557 17 view .LVU538
 1517 0032 1D4C     		ldr	r4, .L156
 1518              	.L143:
 581:D:/fchai/work/i-cube/I-CUBE-HUAWEI/Middlewares/Third_Party/Huawei/iot_link/network/dtls/mbedtls/mbedtls-2.16.2/library\x509_crl.c ****         {
 1519              		.loc 1 581 14 is_stmt 1 view .LVU539
 583:D:/fchai/work/i-cube/I-CUBE-HUAWEI/Middlewares/Third_Party/Huawei/iot_link/network/dtls/mbedtls/mbedtls-2.16.2/library\x509_crl.c ****             return( ret );
 1520              		.loc 1 583 13 is_stmt 0 view .LVU540
 1521 0034 05A8     		add	r0, sp, #20
 581:D:/fchai/work/i-cube/I-CUBE-HUAWEI/Middlewares/Third_Party/Huawei/iot_link/network/dtls/mbedtls/mbedtls-2.16.2/library\x509_crl.c ****         {
ARM GAS  T:\msys\tmp\ccGq53OE.s 			page 50


 1522              		.loc 1 581 16 view .LVU541
 1523 0036 B9F1000F 		cmp	r9, #0
 1524 003a 2CD1     		bne	.L154
 1525              	.LVL163:
 587:D:/fchai/work/i-cube/I-CUBE-HUAWEI/Middlewares/Third_Party/Huawei/iot_link/network/dtls/mbedtls/mbedtls-2.16.2/library\x509_crl.c ****     }
 1526              		.loc 1 587 9 is_stmt 1 view .LVU542
 1527 003c FFF7FEFF 		bl	mbedtls_pem_free
 1528              	.LVL164:
 591:D:/fchai/work/i-cube/I-CUBE-HUAWEI/Middlewares/Third_Party/Huawei/iot_link/network/dtls/mbedtls/mbedtls-2.16.2/library\x509_crl.c **** 
 1529              		.loc 1 591 10 view .LVU543
 593:D:/fchai/work/i-cube/I-CUBE-HUAWEI/Middlewares/Third_Party/Huawei/iot_link/network/dtls/mbedtls/mbedtls-2.16.2/library\x509_crl.c ****         return( 0 );
 1530              		.loc 1 593 5 view .LVU544
 597:D:/fchai/work/i-cube/I-CUBE-HUAWEI/Middlewares/Third_Party/Huawei/iot_link/network/dtls/mbedtls/mbedtls-2.16.2/library\x509_crl.c **** }
 1531              		.loc 1 597 9 view .LVU545
 597:D:/fchai/work/i-cube/I-CUBE-HUAWEI/Middlewares/Third_Party/Huawei/iot_link/network/dtls/mbedtls/mbedtls-2.16.2/library\x509_crl.c **** }
 1532              		.loc 1 597 17 is_stmt 0 view .LVU546
 1533 0040 2A46     		mov	r2, r5
 1534 0042 3146     		mov	r1, r6
 1535 0044 4046     		mov	r0, r8
 1536 0046 FFF7FEFF 		bl	mbedtls_x509_crl_parse_der
 1537              	.LVL165:
 1538 004a 0446     		mov	r4, r0
 1539              	.LVL166:
 1540              	.L140:
 598:D:/fchai/work/i-cube/I-CUBE-HUAWEI/Middlewares/Third_Party/Huawei/iot_link/network/dtls/mbedtls/mbedtls-2.16.2/library\x509_crl.c **** 
 1541              		.loc 1 598 1 view .LVU547
 1542 004c 2046     		mov	r0, r4
 1543 004e 09B0     		add	sp, sp, #36
 1544              	.LCFI11:
 1545              		.cfi_remember_state
 1546              		.cfi_def_cfa_offset 36
 1547              		@ sp needed
 1548 0050 BDE8F08F 		pop	{r4, r5, r6, r7, r8, r9, r10, fp, pc}
 1549              	.LVL167:
 1550              	.L155:
 1551              	.LCFI12:
 1552              		.cfi_restore_state
 559:D:/fchai/work/i-cube/I-CUBE-HUAWEI/Middlewares/Third_Party/Huawei/iot_link/network/dtls/mbedtls/mbedtls-2.16.2/library\x509_crl.c ****                                            "-----BEGIN X509 CRL-----",
 1553              		.loc 1 559 13 is_stmt 1 view .LVU548
 559:D:/fchai/work/i-cube/I-CUBE-HUAWEI/Middlewares/Third_Party/Huawei/iot_link/network/dtls/mbedtls/mbedtls-2.16.2/library\x509_crl.c ****                                            "-----BEGIN X509 CRL-----",
 1554              		.loc 1 559 19 is_stmt 0 view .LVU549
 1555 0054 CDE90137 		strd	r3, r7, [sp, #4]
 1556 0058 0093     		str	r3, [sp]
 1557 005a 5A46     		mov	r2, fp
 1558 005c 3346     		mov	r3, r6
 1559 005e 5146     		mov	r1, r10
 1560 0060 05A8     		add	r0, sp, #20
 1561 0062 FFF7FEFF 		bl	mbedtls_pem_read_buffer
 1562              	.LVL168:
 564:D:/fchai/work/i-cube/I-CUBE-HUAWEI/Middlewares/Third_Party/Huawei/iot_link/network/dtls/mbedtls/mbedtls-2.16.2/library\x509_crl.c ****         {
 1563              		.loc 1 564 9 is_stmt 1 view .LVU550
 564:D:/fchai/work/i-cube/I-CUBE-HUAWEI/Middlewares/Third_Party/Huawei/iot_link/network/dtls/mbedtls/mbedtls-2.16.2/library\x509_crl.c ****         {
 1564              		.loc 1 564 11 is_stmt 0 view .LVU551
 1565 0066 0446     		mov	r4, r0
 1566 0068 0028     		cmp	r0, #0
 1567 006a E3D1     		bne	.L143
 569:D:/fchai/work/i-cube/I-CUBE-HUAWEI/Middlewares/Third_Party/Huawei/iot_link/network/dtls/mbedtls/mbedtls-2.16.2/library\x509_crl.c **** 
ARM GAS  T:\msys\tmp\ccGq53OE.s 			page 51


 1568              		.loc 1 569 13 is_stmt 1 view .LVU552
 1569              	.LVL169:
 571:D:/fchai/work/i-cube/I-CUBE-HUAWEI/Middlewares/Third_Party/Huawei/iot_link/network/dtls/mbedtls/mbedtls-2.16.2/library\x509_crl.c ****             buf += use_len;
 1570              		.loc 1 571 13 view .LVU553
 571:D:/fchai/work/i-cube/I-CUBE-HUAWEI/Middlewares/Third_Party/Huawei/iot_link/network/dtls/mbedtls/mbedtls-2.16.2/library\x509_crl.c ****             buf += use_len;
 1571              		.loc 1 571 20 is_stmt 0 view .LVU554
 1572 006c 049B     		ldr	r3, [sp, #16]
 574:D:/fchai/work/i-cube/I-CUBE-HUAWEI/Middlewares/Third_Party/Huawei/iot_link/network/dtls/mbedtls/mbedtls-2.16.2/library\x509_crl.c ****                                             pem.buf, pem.buflen ) ) != 0 )
 1573              		.loc 1 574 25 view .LVU555
 1574 006e DDE90512 		ldrd	r1, r2, [sp, #20]
 1575 0072 4046     		mov	r0, r8
 1576              	.LVL170:
 571:D:/fchai/work/i-cube/I-CUBE-HUAWEI/Middlewares/Third_Party/Huawei/iot_link/network/dtls/mbedtls/mbedtls-2.16.2/library\x509_crl.c ****             buf += use_len;
 1577              		.loc 1 571 20 view .LVU556
 1578 0074 ED1A     		subs	r5, r5, r3
 1579              	.LVL171:
 572:D:/fchai/work/i-cube/I-CUBE-HUAWEI/Middlewares/Third_Party/Huawei/iot_link/network/dtls/mbedtls/mbedtls-2.16.2/library\x509_crl.c **** 
 1580              		.loc 1 572 13 is_stmt 1 view .LVU557
 572:D:/fchai/work/i-cube/I-CUBE-HUAWEI/Middlewares/Third_Party/Huawei/iot_link/network/dtls/mbedtls/mbedtls-2.16.2/library\x509_crl.c **** 
 1581              		.loc 1 572 17 is_stmt 0 view .LVU558
 1582 0076 1E44     		add	r6, r6, r3
 1583              	.LVL172:
 574:D:/fchai/work/i-cube/I-CUBE-HUAWEI/Middlewares/Third_Party/Huawei/iot_link/network/dtls/mbedtls/mbedtls-2.16.2/library\x509_crl.c ****                                             pem.buf, pem.buflen ) ) != 0 )
 1584              		.loc 1 574 13 is_stmt 1 view .LVU559
 574:D:/fchai/work/i-cube/I-CUBE-HUAWEI/Middlewares/Third_Party/Huawei/iot_link/network/dtls/mbedtls/mbedtls-2.16.2/library\x509_crl.c ****                                             pem.buf, pem.buflen ) ) != 0 )
 1585              		.loc 1 574 25 is_stmt 0 view .LVU560
 1586 0078 FFF7FEFF 		bl	mbedtls_x509_crl_parse_der
 1587              	.LVL173:
 587:D:/fchai/work/i-cube/I-CUBE-HUAWEI/Middlewares/Third_Party/Huawei/iot_link/network/dtls/mbedtls/mbedtls-2.16.2/library\x509_crl.c ****     }
 1588              		.loc 1 587 9 is_stmt 1 view .LVU561
 574:D:/fchai/work/i-cube/I-CUBE-HUAWEI/Middlewares/Third_Party/Huawei/iot_link/network/dtls/mbedtls/mbedtls-2.16.2/library\x509_crl.c ****                                             pem.buf, pem.buflen ) ) != 0 )
 1589              		.loc 1 574 25 is_stmt 0 view .LVU562
 1590 007c 0446     		mov	r4, r0
 1591              	.LVL174:
 574:D:/fchai/work/i-cube/I-CUBE-HUAWEI/Middlewares/Third_Party/Huawei/iot_link/network/dtls/mbedtls/mbedtls-2.16.2/library\x509_crl.c ****                                             pem.buf, pem.buflen ) ) != 0 )
 1592              		.loc 1 574 25 view .LVU563
 1593 007e 4FF00109 		mov	r9, #1
 587:D:/fchai/work/i-cube/I-CUBE-HUAWEI/Middlewares/Third_Party/Huawei/iot_link/network/dtls/mbedtls/mbedtls-2.16.2/library\x509_crl.c ****     }
 1594              		.loc 1 587 9 view .LVU564
 1595 0082 05A8     		add	r0, sp, #20
 1596              	.LVL175:
 574:D:/fchai/work/i-cube/I-CUBE-HUAWEI/Middlewares/Third_Party/Huawei/iot_link/network/dtls/mbedtls/mbedtls-2.16.2/library\x509_crl.c ****                                             pem.buf, pem.buflen ) ) != 0 )
 1597              		.loc 1 574 15 view .LVU565
 1598 0084 3CB9     		cbnz	r4, .L154
 587:D:/fchai/work/i-cube/I-CUBE-HUAWEI/Middlewares/Third_Party/Huawei/iot_link/network/dtls/mbedtls/mbedtls-2.16.2/library\x509_crl.c ****     }
 1599              		.loc 1 587 9 view .LVU566
 1600 0086 FFF7FEFF 		bl	mbedtls_pem_free
 1601              	.LVL176:
 591:D:/fchai/work/i-cube/I-CUBE-HUAWEI/Middlewares/Third_Party/Huawei/iot_link/network/dtls/mbedtls/mbedtls-2.16.2/library\x509_crl.c **** 
 1602              		.loc 1 591 10 is_stmt 1 view .LVU567
 591:D:/fchai/work/i-cube/I-CUBE-HUAWEI/Middlewares/Third_Party/Huawei/iot_link/network/dtls/mbedtls/mbedtls-2.16.2/library\x509_crl.c **** 
 1603              		.loc 1 591 19 is_stmt 0 view .LVU568
 1604 008a 012D     		cmp	r5, #1
 1605 008c C9D8     		bhi	.L146
 598:D:/fchai/work/i-cube/I-CUBE-HUAWEI/Middlewares/Third_Party/Huawei/iot_link/network/dtls/mbedtls/mbedtls-2.16.2/library\x509_crl.c **** 
 1606              		.loc 1 598 1 view .LVU569
 1607 008e 2046     		mov	r0, r4
ARM GAS  T:\msys\tmp\ccGq53OE.s 			page 52


 1608 0090 09B0     		add	sp, sp, #36
 1609              	.LCFI13:
 1610              		.cfi_remember_state
 1611              		.cfi_def_cfa_offset 36
 1612              		@ sp needed
 1613 0092 BDE8F08F 		pop	{r4, r5, r6, r7, r8, r9, r10, fp, pc}
 1614              	.LVL177:
 1615              	.L154:
 1616              	.LCFI14:
 1617              		.cfi_restore_state
 583:D:/fchai/work/i-cube/I-CUBE-HUAWEI/Middlewares/Third_Party/Huawei/iot_link/network/dtls/mbedtls/mbedtls-2.16.2/library\x509_crl.c ****             return( ret );
 1618              		.loc 1 583 13 is_stmt 1 view .LVU570
 1619 0096 FFF7FEFF 		bl	mbedtls_pem_free
 1620              	.LVL178:
 584:D:/fchai/work/i-cube/I-CUBE-HUAWEI/Middlewares/Third_Party/Huawei/iot_link/network/dtls/mbedtls/mbedtls-2.16.2/library\x509_crl.c ****         }
 1621              		.loc 1 584 13 view .LVU571
 598:D:/fchai/work/i-cube/I-CUBE-HUAWEI/Middlewares/Third_Party/Huawei/iot_link/network/dtls/mbedtls/mbedtls-2.16.2/library\x509_crl.c **** 
 1622              		.loc 1 598 1 is_stmt 0 view .LVU572
 1623 009a 2046     		mov	r0, r4
 1624 009c 09B0     		add	sp, sp, #36
 1625              	.LCFI15:
 1626              		.cfi_remember_state
 1627              		.cfi_def_cfa_offset 36
 1628              		@ sp needed
 1629 009e BDE8F08F 		pop	{r4, r5, r6, r7, r8, r9, r10, fp, pc}
 1630              	.LVL179:
 1631              	.L148:
 1632              	.LCFI16:
 1633              		.cfi_restore_state
 548:D:/fchai/work/i-cube/I-CUBE-HUAWEI/Middlewares/Third_Party/Huawei/iot_link/network/dtls/mbedtls/mbedtls-2.16.2/library\x509_crl.c **** 
 1634              		.loc 1 548 15 view .LVU573
 1635 00a2 024C     		ldr	r4, .L156+4
 1636 00a4 D2E7     		b	.L140
 1637              	.L157:
 1638 00a6 00BF     		.align	2
 1639              	.L156:
 1640 00a8 80EFFFFF 		.word	-4224
 1641 00ac 00D8FFFF 		.word	-10240
 1642 00b0 00000000 		.word	.LC0
 1643 00b4 18000000 		.word	.LC1
 1644              		.cfi_endproc
 1645              	.LFE18:
 1647              		.section	.rodata.mbedtls_x509_crl_info.str1.4,"aMS",%progbits,1
 1648              		.align	2
 1649              	.LC2:
 1650 0000 25734352 		.ascii	"%sCRL version   : %d\000"
 1650      4C207665 
 1650      7273696F 
 1650      6E202020 
 1650      3A202564 
 1651 0015 000000   		.align	2
 1652              	.LC3:
 1653 0018 0A257369 		.ascii	"\012%sissuer name   : \000"
 1653      73737565 
 1653      72206E61 
 1653      6D652020 
 1653      203A2000 
ARM GAS  T:\msys\tmp\ccGq53OE.s 			page 53


 1654              		.align	2
 1655              	.LC4:
 1656 002c 0A257374 		.ascii	"\012%sthis update   : %04d-%02d-%02d %02d:%02d:%02d"
 1656      68697320 
 1656      75706461 
 1656      74652020 
 1656      203A2025 
 1657 005c 00       		.ascii	"\000"
 1658 005d 000000   		.align	2
 1659              	.LC5:
 1660 0060 0A25736E 		.ascii	"\012%snext update   : %04d-%02d-%02d %02d:%02d:%02d"
 1660      65787420 
 1660      75706461 
 1660      74652020 
 1660      203A2025 
 1661 0090 00       		.ascii	"\000"
 1662 0091 000000   		.align	2
 1663              	.LC6:
 1664 0094 0A257352 		.ascii	"\012%sRevoked certificates:\000"
 1664      65766F6B 
 1664      65642063 
 1664      65727469 
 1664      66696361 
 1665 00ad 000000   		.align	2
 1666              	.LC7:
 1667 00b0 0A257373 		.ascii	"\012%sserial number: \000"
 1667      65726961 
 1667      6C206E75 
 1667      6D626572 
 1667      3A2000
 1668 00c3 00       		.align	2
 1669              	.LC8:
 1670 00c4 20726576 		.ascii	" revocation date: %04d-%02d-%02d %02d:%02d:%02d\000"
 1670      6F636174 
 1670      696F6E20 
 1670      64617465 
 1670      3A202530 
 1671              		.align	2
 1672              	.LC9:
 1673 00f4 0A257373 		.ascii	"\012%ssigned using  : \000"
 1673      69676E65 
 1673      64207573 
 1673      696E6720 
 1673      203A2000 
 1674              		.align	2
 1675              	.LC10:
 1676 0108 0A00     		.ascii	"\012\000"
 1677              		.section	.text.mbedtls_x509_crl_info,"ax",%progbits
 1678              		.align	1
 1679              		.p2align 2,,3
 1680              		.global	mbedtls_x509_crl_info
 1681              		.syntax unified
 1682              		.thumb
 1683              		.thumb_func
 1684              		.fpu fpv4-sp-d16
 1686              	mbedtls_x509_crl_info:
 1687              	.LVL180:
ARM GAS  T:\msys\tmp\ccGq53OE.s 			page 54


 1688              	.LFB19:
 632:D:/fchai/work/i-cube/I-CUBE-HUAWEI/Middlewares/Third_Party/Huawei/iot_link/network/dtls/mbedtls/mbedtls-2.16.2/library\x509_crl.c ****     int ret;
 1689              		.loc 1 632 1 is_stmt 1 view -0
 1690              		.cfi_startproc
 1691              		@ args = 0, pretend = 0, frame = 8
 1692              		@ frame_needed = 0, uses_anonymous_args = 0
 633:D:/fchai/work/i-cube/I-CUBE-HUAWEI/Middlewares/Third_Party/Huawei/iot_link/network/dtls/mbedtls/mbedtls-2.16.2/library\x509_crl.c ****     size_t n;
 1693              		.loc 1 633 5 view .LVU575
 634:D:/fchai/work/i-cube/I-CUBE-HUAWEI/Middlewares/Third_Party/Huawei/iot_link/network/dtls/mbedtls/mbedtls-2.16.2/library\x509_crl.c ****     char *p;
 1694              		.loc 1 634 5 view .LVU576
 635:D:/fchai/work/i-cube/I-CUBE-HUAWEI/Middlewares/Third_Party/Huawei/iot_link/network/dtls/mbedtls/mbedtls-2.16.2/library\x509_crl.c ****     const mbedtls_x509_crl_entry *entry;
 1695              		.loc 1 635 5 view .LVU577
 636:D:/fchai/work/i-cube/I-CUBE-HUAWEI/Middlewares/Third_Party/Huawei/iot_link/network/dtls/mbedtls/mbedtls-2.16.2/library\x509_crl.c **** 
 1696              		.loc 1 636 5 view .LVU578
 638:D:/fchai/work/i-cube/I-CUBE-HUAWEI/Middlewares/Third_Party/Huawei/iot_link/network/dtls/mbedtls/mbedtls-2.16.2/library\x509_crl.c ****     n = size;
 1697              		.loc 1 638 5 view .LVU579
 632:D:/fchai/work/i-cube/I-CUBE-HUAWEI/Middlewares/Third_Party/Huawei/iot_link/network/dtls/mbedtls/mbedtls-2.16.2/library\x509_crl.c ****     int ret;
 1698              		.loc 1 632 1 is_stmt 0 view .LVU580
 1699 0000 2DE9F04F 		push	{r4, r5, r6, r7, r8, r9, r10, fp, lr}
 1700              	.LCFI17:
 1701              		.cfi_def_cfa_offset 36
 1702              		.cfi_offset 4, -36
 1703              		.cfi_offset 5, -32
 1704              		.cfi_offset 6, -28
 1705              		.cfi_offset 7, -24
 1706              		.cfi_offset 8, -20
 1707              		.cfi_offset 9, -16
 1708              		.cfi_offset 10, -12
 1709              		.cfi_offset 11, -8
 1710              		.cfi_offset 14, -4
 641:D:/fchai/work/i-cube/I-CUBE-HUAWEI/Middlewares/Third_Party/Huawei/iot_link/network/dtls/mbedtls/mbedtls-2.16.2/library\x509_crl.c ****                                prefix, crl->version );
 1711              		.loc 1 641 11 view .LVU581
 1712 0004 DFF8FC91 		ldr	r9, .L169+36
 632:D:/fchai/work/i-cube/I-CUBE-HUAWEI/Middlewares/Third_Party/Huawei/iot_link/network/dtls/mbedtls/mbedtls-2.16.2/library\x509_crl.c ****     int ret;
 1713              		.loc 1 632 1 view .LVU582
 1714 0008 89B0     		sub	sp, sp, #36
 1715              	.LCFI18:
 1716              		.cfi_def_cfa_offset 72
 632:D:/fchai/work/i-cube/I-CUBE-HUAWEI/Middlewares/Third_Party/Huawei/iot_link/network/dtls/mbedtls/mbedtls-2.16.2/library\x509_crl.c ****     int ret;
 1717              		.loc 1 632 1 view .LVU583
 1718 000a 9846     		mov	r8, r3
 641:D:/fchai/work/i-cube/I-CUBE-HUAWEI/Middlewares/Third_Party/Huawei/iot_link/network/dtls/mbedtls/mbedtls-2.16.2/library\x509_crl.c ****                                prefix, crl->version );
 1719              		.loc 1 641 11 view .LVU584
 1720 000c 9B69     		ldr	r3, [r3, #24]
 1721              	.LVL181:
 641:D:/fchai/work/i-cube/I-CUBE-HUAWEI/Middlewares/Third_Party/Huawei/iot_link/network/dtls/mbedtls/mbedtls-2.16.2/library\x509_crl.c ****                                prefix, crl->version );
 1722              		.loc 1 641 11 view .LVU585
 1723 000e 0093     		str	r3, [sp]
 1724 0010 D9F80040 		ldr	r4, [r9]
 632:D:/fchai/work/i-cube/I-CUBE-HUAWEI/Middlewares/Third_Party/Huawei/iot_link/network/dtls/mbedtls/mbedtls-2.16.2/library\x509_crl.c ****     int ret;
 1725              		.loc 1 632 1 view .LVU586
 1726 0014 0791     		str	r1, [sp, #28]
 641:D:/fchai/work/i-cube/I-CUBE-HUAWEI/Middlewares/Third_Party/Huawei/iot_link/network/dtls/mbedtls/mbedtls-2.16.2/library\x509_crl.c ****                                prefix, crl->version );
 1727              		.loc 1 641 11 view .LVU587
 1728 0016 1346     		mov	r3, r2
 632:D:/fchai/work/i-cube/I-CUBE-HUAWEI/Middlewares/Third_Party/Huawei/iot_link/network/dtls/mbedtls/mbedtls-2.16.2/library\x509_crl.c ****     int ret;
 1729              		.loc 1 632 1 view .LVU588
ARM GAS  T:\msys\tmp\ccGq53OE.s 			page 55


 1730 0018 9246     		mov	r10, r2
 641:D:/fchai/work/i-cube/I-CUBE-HUAWEI/Middlewares/Third_Party/Huawei/iot_link/network/dtls/mbedtls/mbedtls-2.16.2/library\x509_crl.c ****                                prefix, crl->version );
 1731              		.loc 1 641 11 view .LVU589
 1732 001a 714A     		ldr	r2, .L169
 1733              	.LVL182:
 632:D:/fchai/work/i-cube/I-CUBE-HUAWEI/Middlewares/Third_Party/Huawei/iot_link/network/dtls/mbedtls/mbedtls-2.16.2/library\x509_crl.c ****     int ret;
 1734              		.loc 1 632 1 view .LVU590
 1735 001c 0646     		mov	r6, r0
 1736              	.LVL183:
 639:D:/fchai/work/i-cube/I-CUBE-HUAWEI/Middlewares/Third_Party/Huawei/iot_link/network/dtls/mbedtls/mbedtls-2.16.2/library\x509_crl.c **** 
 1737              		.loc 1 639 5 is_stmt 1 view .LVU591
 641:D:/fchai/work/i-cube/I-CUBE-HUAWEI/Middlewares/Third_Party/Huawei/iot_link/network/dtls/mbedtls/mbedtls-2.16.2/library\x509_crl.c ****                                prefix, crl->version );
 1738              		.loc 1 641 5 view .LVU592
 641:D:/fchai/work/i-cube/I-CUBE-HUAWEI/Middlewares/Third_Party/Huawei/iot_link/network/dtls/mbedtls/mbedtls-2.16.2/library\x509_crl.c ****                                prefix, crl->version );
 1739              		.loc 1 641 11 is_stmt 0 view .LVU593
 1740 001e A047     		blx	r4
 1741              	.LVL184:
 643:D:/fchai/work/i-cube/I-CUBE-HUAWEI/Middlewares/Third_Party/Huawei/iot_link/network/dtls/mbedtls/mbedtls-2.16.2/library\x509_crl.c **** 
 1742              		.loc 1 643 5 is_stmt 1 view .LVU594
 643:D:/fchai/work/i-cube/I-CUBE-HUAWEI/Middlewares/Third_Party/Huawei/iot_link/network/dtls/mbedtls/mbedtls-2.16.2/library\x509_crl.c **** 
 1743              		.loc 1 643 5 view .LVU595
 1744 0020 011E     		subs	r1, r0, #0
 1745 0022 C0F2D980 		blt	.L161
 643:D:/fchai/work/i-cube/I-CUBE-HUAWEI/Middlewares/Third_Party/Huawei/iot_link/network/dtls/mbedtls/mbedtls-2.16.2/library\x509_crl.c **** 
 1746              		.loc 1 643 5 is_stmt 0 discriminator 2 view .LVU596
 1747 0026 079B     		ldr	r3, [sp, #28]
 1748 0028 9942     		cmp	r1, r3
 1749 002a 80F0D580 		bcs	.L161
 643:D:/fchai/work/i-cube/I-CUBE-HUAWEI/Middlewares/Third_Party/Huawei/iot_link/network/dtls/mbedtls/mbedtls-2.16.2/library\x509_crl.c **** 
 1750              		.loc 1 643 5 is_stmt 1 discriminator 4 view .LVU597
 1751 002e 0E44     		add	r6, r6, r1
 1752              	.LVL185:
 643:D:/fchai/work/i-cube/I-CUBE-HUAWEI/Middlewares/Third_Party/Huawei/iot_link/network/dtls/mbedtls/mbedtls-2.16.2/library\x509_crl.c **** 
 1753              		.loc 1 643 5 is_stmt 0 discriminator 4 view .LVU598
 1754 0030 5D1A     		subs	r5, r3, r1
 1755              	.LVL186:
 643:D:/fchai/work/i-cube/I-CUBE-HUAWEI/Middlewares/Third_Party/Huawei/iot_link/network/dtls/mbedtls/mbedtls-2.16.2/library\x509_crl.c **** 
 1756              		.loc 1 643 5 is_stmt 1 discriminator 4 view .LVU599
 643:D:/fchai/work/i-cube/I-CUBE-HUAWEI/Middlewares/Third_Party/Huawei/iot_link/network/dtls/mbedtls/mbedtls-2.16.2/library\x509_crl.c **** 
 1757              		.loc 1 643 5 discriminator 4 view .LVU600
 645:D:/fchai/work/i-cube/I-CUBE-HUAWEI/Middlewares/Third_Party/Huawei/iot_link/network/dtls/mbedtls/mbedtls-2.16.2/library\x509_crl.c ****     MBEDTLS_X509_SAFE_SNPRINTF;
 1758              		.loc 1 645 5 discriminator 4 view .LVU601
 645:D:/fchai/work/i-cube/I-CUBE-HUAWEI/Middlewares/Third_Party/Huawei/iot_link/network/dtls/mbedtls/mbedtls-2.16.2/library\x509_crl.c ****     MBEDTLS_X509_SAFE_SNPRINTF;
 1759              		.loc 1 645 11 is_stmt 0 discriminator 4 view .LVU602
 1760 0032 D9F80040 		ldr	r4, [r9]
 1761 0036 6B4A     		ldr	r2, .L169+4
 1762 0038 2946     		mov	r1, r5
 1763 003a 3046     		mov	r0, r6
 1764              	.LVL187:
 645:D:/fchai/work/i-cube/I-CUBE-HUAWEI/Middlewares/Third_Party/Huawei/iot_link/network/dtls/mbedtls/mbedtls-2.16.2/library\x509_crl.c ****     MBEDTLS_X509_SAFE_SNPRINTF;
 1765              		.loc 1 645 11 discriminator 4 view .LVU603
 1766 003c 5346     		mov	r3, r10
 1767 003e A047     		blx	r4
 1768              	.LVL188:
 646:D:/fchai/work/i-cube/I-CUBE-HUAWEI/Middlewares/Third_Party/Huawei/iot_link/network/dtls/mbedtls/mbedtls-2.16.2/library\x509_crl.c ****     ret = mbedtls_x509_dn_gets( p, n, &crl->issuer );
 1769              		.loc 1 646 5 is_stmt 1 discriminator 4 view .LVU604
 646:D:/fchai/work/i-cube/I-CUBE-HUAWEI/Middlewares/Third_Party/Huawei/iot_link/network/dtls/mbedtls/mbedtls-2.16.2/library\x509_crl.c ****     ret = mbedtls_x509_dn_gets( p, n, &crl->issuer );
ARM GAS  T:\msys\tmp\ccGq53OE.s 			page 56


 1770              		.loc 1 646 5 discriminator 4 view .LVU605
 1771 0040 0028     		cmp	r0, #0
 646:D:/fchai/work/i-cube/I-CUBE-HUAWEI/Middlewares/Third_Party/Huawei/iot_link/network/dtls/mbedtls/mbedtls-2.16.2/library\x509_crl.c ****     ret = mbedtls_x509_dn_gets( p, n, &crl->issuer );
 1772              		.loc 1 646 5 is_stmt 0 discriminator 4 view .LVU606
 1773 0042 C0F2C980 		blt	.L161
 646:D:/fchai/work/i-cube/I-CUBE-HUAWEI/Middlewares/Third_Party/Huawei/iot_link/network/dtls/mbedtls/mbedtls-2.16.2/library\x509_crl.c ****     ret = mbedtls_x509_dn_gets( p, n, &crl->issuer );
 1774              		.loc 1 646 5 discriminator 2 view .LVU607
 1775 0046 A842     		cmp	r0, r5
 1776 0048 80F0C680 		bcs	.L161
 646:D:/fchai/work/i-cube/I-CUBE-HUAWEI/Middlewares/Third_Party/Huawei/iot_link/network/dtls/mbedtls/mbedtls-2.16.2/library\x509_crl.c ****     ret = mbedtls_x509_dn_gets( p, n, &crl->issuer );
 1777              		.loc 1 646 5 is_stmt 1 discriminator 4 view .LVU608
 1778 004c 2D1A     		subs	r5, r5, r0
 1779              	.LVL189:
 646:D:/fchai/work/i-cube/I-CUBE-HUAWEI/Middlewares/Third_Party/Huawei/iot_link/network/dtls/mbedtls/mbedtls-2.16.2/library\x509_crl.c ****     ret = mbedtls_x509_dn_gets( p, n, &crl->issuer );
 1780              		.loc 1 646 5 discriminator 4 view .LVU609
 1781 004e 0644     		add	r6, r6, r0
 1782              	.LVL190:
 646:D:/fchai/work/i-cube/I-CUBE-HUAWEI/Middlewares/Third_Party/Huawei/iot_link/network/dtls/mbedtls/mbedtls-2.16.2/library\x509_crl.c ****     ret = mbedtls_x509_dn_gets( p, n, &crl->issuer );
 1783              		.loc 1 646 5 discriminator 4 view .LVU610
 647:D:/fchai/work/i-cube/I-CUBE-HUAWEI/Middlewares/Third_Party/Huawei/iot_link/network/dtls/mbedtls/mbedtls-2.16.2/library\x509_crl.c ****     MBEDTLS_X509_SAFE_SNPRINTF;
 1784              		.loc 1 647 5 discriminator 4 view .LVU611
 647:D:/fchai/work/i-cube/I-CUBE-HUAWEI/Middlewares/Third_Party/Huawei/iot_link/network/dtls/mbedtls/mbedtls-2.16.2/library\x509_crl.c ****     MBEDTLS_X509_SAFE_SNPRINTF;
 1785              		.loc 1 647 11 is_stmt 0 discriminator 4 view .LVU612
 1786 0050 2946     		mov	r1, r5
 1787 0052 3046     		mov	r0, r6
 1788              	.LVL191:
 647:D:/fchai/work/i-cube/I-CUBE-HUAWEI/Middlewares/Third_Party/Huawei/iot_link/network/dtls/mbedtls/mbedtls-2.16.2/library\x509_crl.c ****     MBEDTLS_X509_SAFE_SNPRINTF;
 1789              		.loc 1 647 11 discriminator 4 view .LVU613
 1790 0054 08F13402 		add	r2, r8, #52
 1791 0058 FFF7FEFF 		bl	mbedtls_x509_dn_gets
 1792              	.LVL192:
 648:D:/fchai/work/i-cube/I-CUBE-HUAWEI/Middlewares/Third_Party/Huawei/iot_link/network/dtls/mbedtls/mbedtls-2.16.2/library\x509_crl.c **** 
 1793              		.loc 1 648 5 is_stmt 1 discriminator 4 view .LVU614
 648:D:/fchai/work/i-cube/I-CUBE-HUAWEI/Middlewares/Third_Party/Huawei/iot_link/network/dtls/mbedtls/mbedtls-2.16.2/library\x509_crl.c **** 
 1794              		.loc 1 648 5 discriminator 4 view .LVU615
 1795 005c 0028     		cmp	r0, #0
 648:D:/fchai/work/i-cube/I-CUBE-HUAWEI/Middlewares/Third_Party/Huawei/iot_link/network/dtls/mbedtls/mbedtls-2.16.2/library\x509_crl.c **** 
 1796              		.loc 1 648 5 is_stmt 0 discriminator 4 view .LVU616
 1797 005e C0F2BB80 		blt	.L161
 648:D:/fchai/work/i-cube/I-CUBE-HUAWEI/Middlewares/Third_Party/Huawei/iot_link/network/dtls/mbedtls/mbedtls-2.16.2/library\x509_crl.c **** 
 1798              		.loc 1 648 5 discriminator 2 view .LVU617
 1799 0062 A842     		cmp	r0, r5
 1800 0064 80F0B880 		bcs	.L161
 648:D:/fchai/work/i-cube/I-CUBE-HUAWEI/Middlewares/Third_Party/Huawei/iot_link/network/dtls/mbedtls/mbedtls-2.16.2/library\x509_crl.c **** 
 1801              		.loc 1 648 5 is_stmt 1 discriminator 4 view .LVU618
 1802 0068 2C1A     		subs	r4, r5, r0
 1803              	.LVL193:
 648:D:/fchai/work/i-cube/I-CUBE-HUAWEI/Middlewares/Third_Party/Huawei/iot_link/network/dtls/mbedtls/mbedtls-2.16.2/library\x509_crl.c **** 
 1804              		.loc 1 648 5 discriminator 4 view .LVU619
 1805 006a 0644     		add	r6, r6, r0
 1806              	.LVL194:
 648:D:/fchai/work/i-cube/I-CUBE-HUAWEI/Middlewares/Third_Party/Huawei/iot_link/network/dtls/mbedtls/mbedtls-2.16.2/library\x509_crl.c **** 
 1807              		.loc 1 648 5 discriminator 4 view .LVU620
 650:D:/fchai/work/i-cube/I-CUBE-HUAWEI/Middlewares/Third_Party/Huawei/iot_link/network/dtls/mbedtls/mbedtls-2.16.2/library\x509_crl.c ****                    "%04d-%02d-%02d %02d:%02d:%02d", prefix,
 1808              		.loc 1 650 5 discriminator 4 view .LVU621
 650:D:/fchai/work/i-cube/I-CUBE-HUAWEI/Middlewares/Third_Party/Huawei/iot_link/network/dtls/mbedtls/mbedtls-2.16.2/library\x509_crl.c ****                    "%04d-%02d-%02d %02d:%02d:%02d", prefix,
 1809              		.loc 1 650 11 is_stmt 0 discriminator 4 view .LVU622
ARM GAS  T:\msys\tmp\ccGq53OE.s 			page 57


 1810 006c D8E91903 		ldrd	r0, r3, [r8, #100]
 1811              	.LVL195:
 650:D:/fchai/work/i-cube/I-CUBE-HUAWEI/Middlewares/Third_Party/Huawei/iot_link/network/dtls/mbedtls/mbedtls-2.16.2/library\x509_crl.c ****                    "%04d-%02d-%02d %02d:%02d:%02d", prefix,
 1812              		.loc 1 650 11 discriminator 4 view .LVU623
 1813 0070 D8E91751 		ldrd	r5, r1, [r8, #92]
 1814 0074 0593     		str	r3, [sp, #20]
 1815 0076 D8F85820 		ldr	r2, [r8, #88]
 1816 007a 0490     		str	r0, [sp, #16]
 1817 007c D8F85430 		ldr	r3, [r8, #84]
 1818 0080 0093     		str	r3, [sp]
 1819 0082 CDE90125 		strd	r2, r5, [sp, #4]
 1820 0086 0391     		str	r1, [sp, #12]
 1821 0088 D9F80050 		ldr	r5, [r9]
 1822 008c 564A     		ldr	r2, .L169+8
 1823 008e 2146     		mov	r1, r4
 1824 0090 3046     		mov	r0, r6
 1825 0092 5346     		mov	r3, r10
 1826 0094 A847     		blx	r5
 1827              	.LVL196:
 655:D:/fchai/work/i-cube/I-CUBE-HUAWEI/Middlewares/Third_Party/Huawei/iot_link/network/dtls/mbedtls/mbedtls-2.16.2/library\x509_crl.c **** 
 1828              		.loc 1 655 5 is_stmt 1 discriminator 4 view .LVU624
 655:D:/fchai/work/i-cube/I-CUBE-HUAWEI/Middlewares/Third_Party/Huawei/iot_link/network/dtls/mbedtls/mbedtls-2.16.2/library\x509_crl.c **** 
 1829              		.loc 1 655 5 discriminator 4 view .LVU625
 1830 0096 0028     		cmp	r0, #0
 655:D:/fchai/work/i-cube/I-CUBE-HUAWEI/Middlewares/Third_Party/Huawei/iot_link/network/dtls/mbedtls/mbedtls-2.16.2/library\x509_crl.c **** 
 1831              		.loc 1 655 5 is_stmt 0 discriminator 4 view .LVU626
 1832 0098 C0F29E80 		blt	.L161
 655:D:/fchai/work/i-cube/I-CUBE-HUAWEI/Middlewares/Third_Party/Huawei/iot_link/network/dtls/mbedtls/mbedtls-2.16.2/library\x509_crl.c **** 
 1833              		.loc 1 655 5 discriminator 2 view .LVU627
 1834 009c A042     		cmp	r0, r4
 1835 009e 80F09B80 		bcs	.L161
 655:D:/fchai/work/i-cube/I-CUBE-HUAWEI/Middlewares/Third_Party/Huawei/iot_link/network/dtls/mbedtls/mbedtls-2.16.2/library\x509_crl.c **** 
 1836              		.loc 1 655 5 is_stmt 1 discriminator 4 view .LVU628
 1837 00a2 241A     		subs	r4, r4, r0
 1838              	.LVL197:
 655:D:/fchai/work/i-cube/I-CUBE-HUAWEI/Middlewares/Third_Party/Huawei/iot_link/network/dtls/mbedtls/mbedtls-2.16.2/library\x509_crl.c **** 
 1839              		.loc 1 655 5 discriminator 4 view .LVU629
 1840 00a4 0644     		add	r6, r6, r0
 1841              	.LVL198:
 655:D:/fchai/work/i-cube/I-CUBE-HUAWEI/Middlewares/Third_Party/Huawei/iot_link/network/dtls/mbedtls/mbedtls-2.16.2/library\x509_crl.c **** 
 1842              		.loc 1 655 5 discriminator 4 view .LVU630
 657:D:/fchai/work/i-cube/I-CUBE-HUAWEI/Middlewares/Third_Party/Huawei/iot_link/network/dtls/mbedtls/mbedtls-2.16.2/library\x509_crl.c ****                    "%04d-%02d-%02d %02d:%02d:%02d", prefix,
 1843              		.loc 1 657 5 discriminator 4 view .LVU631
 657:D:/fchai/work/i-cube/I-CUBE-HUAWEI/Middlewares/Third_Party/Huawei/iot_link/network/dtls/mbedtls/mbedtls-2.16.2/library\x509_crl.c ****                    "%04d-%02d-%02d %02d:%02d:%02d", prefix,
 1844              		.loc 1 657 11 is_stmt 0 discriminator 4 view .LVU632
 1845 00a6 D8E91F03 		ldrd	r0, r3, [r8, #124]
 1846              	.LVL199:
 657:D:/fchai/work/i-cube/I-CUBE-HUAWEI/Middlewares/Third_Party/Huawei/iot_link/network/dtls/mbedtls/mbedtls-2.16.2/library\x509_crl.c ****                    "%04d-%02d-%02d %02d:%02d:%02d", prefix,
 1847              		.loc 1 657 11 discriminator 4 view .LVU633
 1848 00aa D8E91D51 		ldrd	r5, r1, [r8, #116]
 1849 00ae 0593     		str	r3, [sp, #20]
 1850 00b0 D8F87020 		ldr	r2, [r8, #112]
 1851 00b4 0490     		str	r0, [sp, #16]
 1852 00b6 D8F86C30 		ldr	r3, [r8, #108]
 1853 00ba 0093     		str	r3, [sp]
 1854 00bc CDE90125 		strd	r2, r5, [sp, #4]
 1855 00c0 0391     		str	r1, [sp, #12]
ARM GAS  T:\msys\tmp\ccGq53OE.s 			page 58


 1856 00c2 D9F80050 		ldr	r5, [r9]
 1857 00c6 494A     		ldr	r2, .L169+12
 1858 00c8 2146     		mov	r1, r4
 1859 00ca 3046     		mov	r0, r6
 1860 00cc 5346     		mov	r3, r10
 1861 00ce A847     		blx	r5
 1862              	.LVL200:
 662:D:/fchai/work/i-cube/I-CUBE-HUAWEI/Middlewares/Third_Party/Huawei/iot_link/network/dtls/mbedtls/mbedtls-2.16.2/library\x509_crl.c **** 
 1863              		.loc 1 662 5 is_stmt 1 discriminator 4 view .LVU634
 662:D:/fchai/work/i-cube/I-CUBE-HUAWEI/Middlewares/Third_Party/Huawei/iot_link/network/dtls/mbedtls/mbedtls-2.16.2/library\x509_crl.c **** 
 1864              		.loc 1 662 5 discriminator 4 view .LVU635
 1865 00d0 0028     		cmp	r0, #0
 662:D:/fchai/work/i-cube/I-CUBE-HUAWEI/Middlewares/Third_Party/Huawei/iot_link/network/dtls/mbedtls/mbedtls-2.16.2/library\x509_crl.c **** 
 1866              		.loc 1 662 5 is_stmt 0 discriminator 4 view .LVU636
 1867 00d2 C0F28180 		blt	.L161
 662:D:/fchai/work/i-cube/I-CUBE-HUAWEI/Middlewares/Third_Party/Huawei/iot_link/network/dtls/mbedtls/mbedtls-2.16.2/library\x509_crl.c **** 
 1868              		.loc 1 662 5 discriminator 2 view .LVU637
 1869 00d6 A042     		cmp	r0, r4
 1870 00d8 7ED2     		bcs	.L161
 662:D:/fchai/work/i-cube/I-CUBE-HUAWEI/Middlewares/Third_Party/Huawei/iot_link/network/dtls/mbedtls/mbedtls-2.16.2/library\x509_crl.c **** 
 1871              		.loc 1 662 5 is_stmt 1 discriminator 4 view .LVU638
 1872 00da 241A     		subs	r4, r4, r0
 1873              	.LVL201:
 662:D:/fchai/work/i-cube/I-CUBE-HUAWEI/Middlewares/Third_Party/Huawei/iot_link/network/dtls/mbedtls/mbedtls-2.16.2/library\x509_crl.c **** 
 1874              		.loc 1 662 5 discriminator 4 view .LVU639
 1875 00dc 3718     		adds	r7, r6, r0
 1876              	.LVL202:
 662:D:/fchai/work/i-cube/I-CUBE-HUAWEI/Middlewares/Third_Party/Huawei/iot_link/network/dtls/mbedtls/mbedtls-2.16.2/library\x509_crl.c **** 
 1877              		.loc 1 662 5 discriminator 4 view .LVU640
 664:D:/fchai/work/i-cube/I-CUBE-HUAWEI/Middlewares/Third_Party/Huawei/iot_link/network/dtls/mbedtls/mbedtls-2.16.2/library\x509_crl.c **** 
 1878              		.loc 1 664 5 discriminator 4 view .LVU641
 666:D:/fchai/work/i-cube/I-CUBE-HUAWEI/Middlewares/Third_Party/Huawei/iot_link/network/dtls/mbedtls/mbedtls-2.16.2/library\x509_crl.c ****                                prefix );
 1879              		.loc 1 666 11 is_stmt 0 discriminator 4 view .LVU642
 1880 00de 444A     		ldr	r2, .L169+16
 1881 00e0 D9F80060 		ldr	r6, [r9]
 1882 00e4 2146     		mov	r1, r4
 1883 00e6 3846     		mov	r0, r7
 1884              	.LVL203:
 666:D:/fchai/work/i-cube/I-CUBE-HUAWEI/Middlewares/Third_Party/Huawei/iot_link/network/dtls/mbedtls/mbedtls-2.16.2/library\x509_crl.c ****                                prefix );
 1885              		.loc 1 666 11 discriminator 4 view .LVU643
 1886 00e8 5346     		mov	r3, r10
 1887 00ea B047     		blx	r6
 1888              	.LVL204:
 668:D:/fchai/work/i-cube/I-CUBE-HUAWEI/Middlewares/Third_Party/Huawei/iot_link/network/dtls/mbedtls/mbedtls-2.16.2/library\x509_crl.c **** 
 1889              		.loc 1 668 5 discriminator 4 view .LVU644
 1890 00ec 0028     		cmp	r0, #0
 664:D:/fchai/work/i-cube/I-CUBE-HUAWEI/Middlewares/Third_Party/Huawei/iot_link/network/dtls/mbedtls/mbedtls-2.16.2/library\x509_crl.c **** 
 1891              		.loc 1 664 11 discriminator 4 view .LVU645
 1892 00ee 08F18406 		add	r6, r8, #132
 1893              	.LVL205:
 666:D:/fchai/work/i-cube/I-CUBE-HUAWEI/Middlewares/Third_Party/Huawei/iot_link/network/dtls/mbedtls/mbedtls-2.16.2/library\x509_crl.c ****                                prefix );
 1894              		.loc 1 666 5 is_stmt 1 discriminator 4 view .LVU646
 668:D:/fchai/work/i-cube/I-CUBE-HUAWEI/Middlewares/Third_Party/Huawei/iot_link/network/dtls/mbedtls/mbedtls-2.16.2/library\x509_crl.c **** 
 1895              		.loc 1 668 5 discriminator 4 view .LVU647
 668:D:/fchai/work/i-cube/I-CUBE-HUAWEI/Middlewares/Third_Party/Huawei/iot_link/network/dtls/mbedtls/mbedtls-2.16.2/library\x509_crl.c **** 
 1896              		.loc 1 668 5 discriminator 4 view .LVU648
 1897 00f2 71DB     		blt	.L161
ARM GAS  T:\msys\tmp\ccGq53OE.s 			page 59


 668:D:/fchai/work/i-cube/I-CUBE-HUAWEI/Middlewares/Third_Party/Huawei/iot_link/network/dtls/mbedtls/mbedtls-2.16.2/library\x509_crl.c **** 
 1898              		.loc 1 668 5 is_stmt 0 discriminator 2 view .LVU649
 1899 00f4 A042     		cmp	r0, r4
 1900 00f6 6FD2     		bcs	.L161
 668:D:/fchai/work/i-cube/I-CUBE-HUAWEI/Middlewares/Third_Party/Huawei/iot_link/network/dtls/mbedtls/mbedtls-2.16.2/library\x509_crl.c **** 
 1901              		.loc 1 668 5 is_stmt 1 discriminator 4 view .LVU650
 672:D:/fchai/work/i-cube/I-CUBE-HUAWEI/Middlewares/Third_Party/Huawei/iot_link/network/dtls/mbedtls/mbedtls-2.16.2/library\x509_crl.c ****                                prefix );
 1902              		.loc 1 672 15 is_stmt 0 discriminator 4 view .LVU651
 1903 00f8 DFF80CB1 		ldr	fp, .L169+40
 668:D:/fchai/work/i-cube/I-CUBE-HUAWEI/Middlewares/Third_Party/Huawei/iot_link/network/dtls/mbedtls/mbedtls-2.16.2/library\x509_crl.c **** 
 1904              		.loc 1 668 5 discriminator 4 view .LVU652
 1905 00fc 241A     		subs	r4, r4, r0
 1906              	.LVL206:
 668:D:/fchai/work/i-cube/I-CUBE-HUAWEI/Middlewares/Third_Party/Huawei/iot_link/network/dtls/mbedtls/mbedtls-2.16.2/library\x509_crl.c **** 
 1907              		.loc 1 668 5 is_stmt 1 discriminator 4 view .LVU653
 1908 00fe 3D18     		adds	r5, r7, r0
 1909              	.LVL207:
 668:D:/fchai/work/i-cube/I-CUBE-HUAWEI/Middlewares/Third_Party/Huawei/iot_link/network/dtls/mbedtls/mbedtls-2.16.2/library\x509_crl.c **** 
 1910              		.loc 1 668 5 discriminator 4 view .LVU654
 670:D:/fchai/work/i-cube/I-CUBE-HUAWEI/Middlewares/Third_Party/Huawei/iot_link/network/dtls/mbedtls/mbedtls-2.16.2/library\x509_crl.c ****     {
 1911              		.loc 1 670 5 discriminator 4 view .LVU655
 670:D:/fchai/work/i-cube/I-CUBE-HUAWEI/Middlewares/Third_Party/Huawei/iot_link/network/dtls/mbedtls/mbedtls-2.16.2/library\x509_crl.c ****     {
 1912              		.loc 1 670 10 discriminator 4 view .LVU656
 1913              	.L162:
 672:D:/fchai/work/i-cube/I-CUBE-HUAWEI/Middlewares/Third_Party/Huawei/iot_link/network/dtls/mbedtls/mbedtls-2.16.2/library\x509_crl.c ****                                prefix );
 1914              		.loc 1 672 9 discriminator 1 view .LVU657
 670:D:/fchai/work/i-cube/I-CUBE-HUAWEI/Middlewares/Third_Party/Huawei/iot_link/network/dtls/mbedtls/mbedtls-2.16.2/library\x509_crl.c ****     {
 1915              		.loc 1 670 26 is_stmt 0 discriminator 1 view .LVU658
 1916 0100 7768     		ldr	r7, [r6, #4]
 672:D:/fchai/work/i-cube/I-CUBE-HUAWEI/Middlewares/Third_Party/Huawei/iot_link/network/dtls/mbedtls/mbedtls-2.16.2/library\x509_crl.c ****                                prefix );
 1917              		.loc 1 672 15 discriminator 1 view .LVU659
 1918 0102 5346     		mov	r3, r10
 1919 0104 2146     		mov	r1, r4
 1920 0106 5A46     		mov	r2, fp
 1921 0108 2846     		mov	r0, r5
 670:D:/fchai/work/i-cube/I-CUBE-HUAWEI/Middlewares/Third_Party/Huawei/iot_link/network/dtls/mbedtls/mbedtls-2.16.2/library\x509_crl.c ****     {
 1922              		.loc 1 670 26 discriminator 1 view .LVU660
 1923 010a 002F     		cmp	r7, #0
 1924 010c 30D0     		beq	.L163
 1925              	.LVL208:
 672:D:/fchai/work/i-cube/I-CUBE-HUAWEI/Middlewares/Third_Party/Huawei/iot_link/network/dtls/mbedtls/mbedtls-2.16.2/library\x509_crl.c ****                                prefix );
 1926              		.loc 1 672 15 view .LVU661
 1927 010e D9F80070 		ldr	r7, [r9]
 1928 0112 B847     		blx	r7
 1929              	.LVL209:
 674:D:/fchai/work/i-cube/I-CUBE-HUAWEI/Middlewares/Third_Party/Huawei/iot_link/network/dtls/mbedtls/mbedtls-2.16.2/library\x509_crl.c **** 
 1930              		.loc 1 674 9 is_stmt 1 view .LVU662
 674:D:/fchai/work/i-cube/I-CUBE-HUAWEI/Middlewares/Third_Party/Huawei/iot_link/network/dtls/mbedtls/mbedtls-2.16.2/library\x509_crl.c **** 
 1931              		.loc 1 674 9 view .LVU663
 674:D:/fchai/work/i-cube/I-CUBE-HUAWEI/Middlewares/Third_Party/Huawei/iot_link/network/dtls/mbedtls/mbedtls-2.16.2/library\x509_crl.c **** 
 1932              		.loc 1 674 9 view .LVU664
 1933 0114 031E     		subs	r3, r0, #0
 1934 0116 A4EB0307 		sub	r7, r4, r3
 1935              	.LVL210:
 674:D:/fchai/work/i-cube/I-CUBE-HUAWEI/Middlewares/Third_Party/Huawei/iot_link/network/dtls/mbedtls/mbedtls-2.16.2/library\x509_crl.c **** 
 1936              		.loc 1 674 9 view .LVU665
 1937 011a 1D44     		add	r5, r5, r3
ARM GAS  T:\msys\tmp\ccGq53OE.s 			page 60


 1938              	.LVL211:
 674:D:/fchai/work/i-cube/I-CUBE-HUAWEI/Middlewares/Third_Party/Huawei/iot_link/network/dtls/mbedtls/mbedtls-2.16.2/library\x509_crl.c **** 
 1939              		.loc 1 674 9 view .LVU666
 676:D:/fchai/work/i-cube/I-CUBE-HUAWEI/Middlewares/Third_Party/Huawei/iot_link/network/dtls/mbedtls/mbedtls-2.16.2/library\x509_crl.c ****         MBEDTLS_X509_SAFE_SNPRINTF;
 1940              		.loc 1 676 9 view .LVU667
 676:D:/fchai/work/i-cube/I-CUBE-HUAWEI/Middlewares/Third_Party/Huawei/iot_link/network/dtls/mbedtls/mbedtls-2.16.2/library\x509_crl.c ****         MBEDTLS_X509_SAFE_SNPRINTF;
 1941              		.loc 1 676 15 is_stmt 0 view .LVU668
 1942 011c 06F10C02 		add	r2, r6, #12
 1943 0120 3946     		mov	r1, r7
 1944 0122 2846     		mov	r0, r5
 1945              	.LVL212:
 674:D:/fchai/work/i-cube/I-CUBE-HUAWEI/Middlewares/Third_Party/Huawei/iot_link/network/dtls/mbedtls/mbedtls-2.16.2/library\x509_crl.c **** 
 1946              		.loc 1 674 9 view .LVU669
 1947 0124 58DB     		blt	.L161
 674:D:/fchai/work/i-cube/I-CUBE-HUAWEI/Middlewares/Third_Party/Huawei/iot_link/network/dtls/mbedtls/mbedtls-2.16.2/library\x509_crl.c **** 
 1948              		.loc 1 674 9 discriminator 2 view .LVU670
 1949 0126 A342     		cmp	r3, r4
 1950 0128 56D2     		bcs	.L161
 676:D:/fchai/work/i-cube/I-CUBE-HUAWEI/Middlewares/Third_Party/Huawei/iot_link/network/dtls/mbedtls/mbedtls-2.16.2/library\x509_crl.c ****         MBEDTLS_X509_SAFE_SNPRINTF;
 1951              		.loc 1 676 15 discriminator 4 view .LVU671
 1952 012a FFF7FEFF 		bl	mbedtls_x509_serial_gets
 1953              	.LVL213:
 677:D:/fchai/work/i-cube/I-CUBE-HUAWEI/Middlewares/Third_Party/Huawei/iot_link/network/dtls/mbedtls/mbedtls-2.16.2/library\x509_crl.c **** 
 1954              		.loc 1 677 9 is_stmt 1 discriminator 4 view .LVU672
 677:D:/fchai/work/i-cube/I-CUBE-HUAWEI/Middlewares/Third_Party/Huawei/iot_link/network/dtls/mbedtls/mbedtls-2.16.2/library\x509_crl.c **** 
 1955              		.loc 1 677 9 discriminator 4 view .LVU673
 677:D:/fchai/work/i-cube/I-CUBE-HUAWEI/Middlewares/Third_Party/Huawei/iot_link/network/dtls/mbedtls/mbedtls-2.16.2/library\x509_crl.c **** 
 1956              		.loc 1 677 9 discriminator 4 view .LVU674
 1957 012e 031E     		subs	r3, r0, #0
 1958 0130 A7EB0304 		sub	r4, r7, r3
 1959              	.LVL214:
 677:D:/fchai/work/i-cube/I-CUBE-HUAWEI/Middlewares/Third_Party/Huawei/iot_link/network/dtls/mbedtls/mbedtls-2.16.2/library\x509_crl.c **** 
 1960              		.loc 1 677 9 discriminator 4 view .LVU675
 1961 0134 1D44     		add	r5, r5, r3
 1962              	.LVL215:
 677:D:/fchai/work/i-cube/I-CUBE-HUAWEI/Middlewares/Third_Party/Huawei/iot_link/network/dtls/mbedtls/mbedtls-2.16.2/library\x509_crl.c **** 
 1963              		.loc 1 677 9 discriminator 4 view .LVU676
 679:D:/fchai/work/i-cube/I-CUBE-HUAWEI/Middlewares/Third_Party/Huawei/iot_link/network/dtls/mbedtls/mbedtls-2.16.2/library\x509_crl.c ****                    "%04d-%02d-%02d %02d:%02d:%02d",
 1964              		.loc 1 679 9 discriminator 4 view .LVU677
 679:D:/fchai/work/i-cube/I-CUBE-HUAWEI/Middlewares/Third_Party/Huawei/iot_link/network/dtls/mbedtls/mbedtls-2.16.2/library\x509_crl.c ****                    "%04d-%02d-%02d %02d:%02d:%02d",
 1965              		.loc 1 679 15 is_stmt 0 discriminator 4 view .LVU678
 1966 0136 2F4A     		ldr	r2, .L169+20
 1967 0138 2146     		mov	r1, r4
 1968 013a 2846     		mov	r0, r5
 1969              	.LVL216:
 677:D:/fchai/work/i-cube/I-CUBE-HUAWEI/Middlewares/Third_Party/Huawei/iot_link/network/dtls/mbedtls/mbedtls-2.16.2/library\x509_crl.c **** 
 1970              		.loc 1 677 9 discriminator 4 view .LVU679
 1971 013c 4CDB     		blt	.L161
 677:D:/fchai/work/i-cube/I-CUBE-HUAWEI/Middlewares/Third_Party/Huawei/iot_link/network/dtls/mbedtls/mbedtls-2.16.2/library\x509_crl.c **** 
 1972              		.loc 1 677 9 discriminator 2 view .LVU680
 1973 013e BB42     		cmp	r3, r7
 1974 0140 4AD2     		bcs	.L161
 679:D:/fchai/work/i-cube/I-CUBE-HUAWEI/Middlewares/Third_Party/Huawei/iot_link/network/dtls/mbedtls/mbedtls-2.16.2/library\x509_crl.c ****                    "%04d-%02d-%02d %02d:%02d:%02d",
 1975              		.loc 1 679 15 discriminator 4 view .LVU681
 1976 0142 F76A     		ldr	r7, [r6, #44]
 1977 0144 B369     		ldr	r3, [r6, #24]
 1978              	.LVL217:
ARM GAS  T:\msys\tmp\ccGq53OE.s 			page 61


 679:D:/fchai/work/i-cube/I-CUBE-HUAWEI/Middlewares/Third_Party/Huawei/iot_link/network/dtls/mbedtls/mbedtls-2.16.2/library\x509_crl.c ****                    "%04d-%02d-%02d %02d:%02d:%02d",
 1979              		.loc 1 679 15 discriminator 4 view .LVU682
 1980 0146 0497     		str	r7, [sp, #16]
 1981 0148 B76A     		ldr	r7, [r6, #40]
 1982 014a 0397     		str	r7, [sp, #12]
 1983 014c 776A     		ldr	r7, [r6, #36]
 1984 014e 0297     		str	r7, [sp, #8]
 1985 0150 376A     		ldr	r7, [r6, #32]
 1986 0152 0197     		str	r7, [sp, #4]
 1987 0154 F769     		ldr	r7, [r6, #28]
 1988 0156 0097     		str	r7, [sp]
 1989 0158 D9F80070 		ldr	r7, [r9]
 1990 015c B847     		blx	r7
 1991              	.LVL218:
 684:D:/fchai/work/i-cube/I-CUBE-HUAWEI/Middlewares/Third_Party/Huawei/iot_link/network/dtls/mbedtls/mbedtls-2.16.2/library\x509_crl.c **** 
 1992              		.loc 1 684 9 is_stmt 1 discriminator 4 view .LVU683
 684:D:/fchai/work/i-cube/I-CUBE-HUAWEI/Middlewares/Third_Party/Huawei/iot_link/network/dtls/mbedtls/mbedtls-2.16.2/library\x509_crl.c **** 
 1993              		.loc 1 684 9 discriminator 4 view .LVU684
 684:D:/fchai/work/i-cube/I-CUBE-HUAWEI/Middlewares/Third_Party/Huawei/iot_link/network/dtls/mbedtls/mbedtls-2.16.2/library\x509_crl.c **** 
 1994              		.loc 1 684 9 discriminator 4 view .LVU685
 1995 015e 0028     		cmp	r0, #0
 684:D:/fchai/work/i-cube/I-CUBE-HUAWEI/Middlewares/Third_Party/Huawei/iot_link/network/dtls/mbedtls/mbedtls-2.16.2/library\x509_crl.c **** 
 1996              		.loc 1 684 9 is_stmt 0 discriminator 4 view .LVU686
 1997 0160 3ADB     		blt	.L161
 684:D:/fchai/work/i-cube/I-CUBE-HUAWEI/Middlewares/Third_Party/Huawei/iot_link/network/dtls/mbedtls/mbedtls-2.16.2/library\x509_crl.c **** 
 1998              		.loc 1 684 9 discriminator 2 view .LVU687
 1999 0162 A042     		cmp	r0, r4
 2000 0164 38D2     		bcs	.L161
 686:D:/fchai/work/i-cube/I-CUBE-HUAWEI/Middlewares/Third_Party/Huawei/iot_link/network/dtls/mbedtls/mbedtls-2.16.2/library\x509_crl.c ****     }
 2001              		.loc 1 686 15 discriminator 4 view .LVU688
 2002 0166 F66B     		ldr	r6, [r6, #60]
 2003              	.LVL219:
 684:D:/fchai/work/i-cube/I-CUBE-HUAWEI/Middlewares/Third_Party/Huawei/iot_link/network/dtls/mbedtls/mbedtls-2.16.2/library\x509_crl.c **** 
 2004              		.loc 1 684 9 discriminator 4 view .LVU689
 2005 0168 241A     		subs	r4, r4, r0
 2006              	.LVL220:
 684:D:/fchai/work/i-cube/I-CUBE-HUAWEI/Middlewares/Third_Party/Huawei/iot_link/network/dtls/mbedtls/mbedtls-2.16.2/library\x509_crl.c **** 
 2007              		.loc 1 684 9 is_stmt 1 discriminator 4 view .LVU690
 2008 016a 0544     		add	r5, r5, r0
 2009              	.LVL221:
 684:D:/fchai/work/i-cube/I-CUBE-HUAWEI/Middlewares/Third_Party/Huawei/iot_link/network/dtls/mbedtls/mbedtls-2.16.2/library\x509_crl.c **** 
 2010              		.loc 1 684 9 discriminator 4 view .LVU691
 686:D:/fchai/work/i-cube/I-CUBE-HUAWEI/Middlewares/Third_Party/Huawei/iot_link/network/dtls/mbedtls/mbedtls-2.16.2/library\x509_crl.c ****     }
 2011              		.loc 1 686 9 discriminator 4 view .LVU692
 670:D:/fchai/work/i-cube/I-CUBE-HUAWEI/Middlewares/Third_Party/Huawei/iot_link/network/dtls/mbedtls/mbedtls-2.16.2/library\x509_crl.c ****     {
 2012              		.loc 1 670 10 discriminator 4 view .LVU693
 2013 016c 002E     		cmp	r6, #0
 2014 016e C7D1     		bne	.L162
 2015              	.LVL222:
 2016              	.L163:
 689:D:/fchai/work/i-cube/I-CUBE-HUAWEI/Middlewares/Third_Party/Huawei/iot_link/network/dtls/mbedtls/mbedtls-2.16.2/library\x509_crl.c ****     MBEDTLS_X509_SAFE_SNPRINTF;
 2017              		.loc 1 689 5 view .LVU694
 689:D:/fchai/work/i-cube/I-CUBE-HUAWEI/Middlewares/Third_Party/Huawei/iot_link/network/dtls/mbedtls/mbedtls-2.16.2/library\x509_crl.c ****     MBEDTLS_X509_SAFE_SNPRINTF;
 2018              		.loc 1 689 11 is_stmt 0 view .LVU695
 2019 0170 D9F80060 		ldr	r6, [r9]
 2020              	.LVL223:
 689:D:/fchai/work/i-cube/I-CUBE-HUAWEI/Middlewares/Third_Party/Huawei/iot_link/network/dtls/mbedtls/mbedtls-2.16.2/library\x509_crl.c ****     MBEDTLS_X509_SAFE_SNPRINTF;
ARM GAS  T:\msys\tmp\ccGq53OE.s 			page 62


 2021              		.loc 1 689 11 view .LVU696
 2022 0174 204A     		ldr	r2, .L169+24
 2023 0176 5346     		mov	r3, r10
 2024 0178 2146     		mov	r1, r4
 2025 017a 2846     		mov	r0, r5
 2026 017c B047     		blx	r6
 2027              	.LVL224:
 690:D:/fchai/work/i-cube/I-CUBE-HUAWEI/Middlewares/Third_Party/Huawei/iot_link/network/dtls/mbedtls/mbedtls-2.16.2/library\x509_crl.c **** 
 2028              		.loc 1 690 5 is_stmt 1 view .LVU697
 690:D:/fchai/work/i-cube/I-CUBE-HUAWEI/Middlewares/Third_Party/Huawei/iot_link/network/dtls/mbedtls/mbedtls-2.16.2/library\x509_crl.c **** 
 2029              		.loc 1 690 5 view .LVU698
 2030 017e 061E     		subs	r6, r0, #0
 2031 0180 2ADB     		blt	.L161
 690:D:/fchai/work/i-cube/I-CUBE-HUAWEI/Middlewares/Third_Party/Huawei/iot_link/network/dtls/mbedtls/mbedtls-2.16.2/library\x509_crl.c **** 
 2032              		.loc 1 690 5 is_stmt 0 discriminator 2 view .LVU699
 2033 0182 B442     		cmp	r4, r6
 2034 0184 28D9     		bls	.L161
 690:D:/fchai/work/i-cube/I-CUBE-HUAWEI/Middlewares/Third_Party/Huawei/iot_link/network/dtls/mbedtls/mbedtls-2.16.2/library\x509_crl.c **** 
 2035              		.loc 1 690 5 is_stmt 1 discriminator 4 view .LVU700
 692:D:/fchai/work/i-cube/I-CUBE-HUAWEI/Middlewares/Third_Party/Huawei/iot_link/network/dtls/mbedtls/mbedtls-2.16.2/library\x509_crl.c ****                              crl->sig_opts );
 2036              		.loc 1 692 11 is_stmt 0 discriminator 4 view .LVU701
 2037 0186 D8F8EC20 		ldr	r2, [r8, #236]
 2038 018a 98F8E830 		ldrb	r3, [r8, #232]	@ zero_extendqisi2
 2039 018e 0093     		str	r3, [sp]
 2040 0190 0192     		str	r2, [sp, #4]
 690:D:/fchai/work/i-cube/I-CUBE-HUAWEI/Middlewares/Third_Party/Huawei/iot_link/network/dtls/mbedtls/mbedtls-2.16.2/library\x509_crl.c **** 
 2041              		.loc 1 690 5 discriminator 4 view .LVU702
 2042 0192 3544     		add	r5, r5, r6
 2043              	.LVL225:
 690:D:/fchai/work/i-cube/I-CUBE-HUAWEI/Middlewares/Third_Party/Huawei/iot_link/network/dtls/mbedtls/mbedtls-2.16.2/library\x509_crl.c **** 
 2044              		.loc 1 690 5 discriminator 4 view .LVU703
 2045 0194 A4EB060A 		sub	r10, r4, r6
 2046              	.LVL226:
 690:D:/fchai/work/i-cube/I-CUBE-HUAWEI/Middlewares/Third_Party/Huawei/iot_link/network/dtls/mbedtls/mbedtls-2.16.2/library\x509_crl.c **** 
 2047              		.loc 1 690 5 is_stmt 1 discriminator 4 view .LVU704
 690:D:/fchai/work/i-cube/I-CUBE-HUAWEI/Middlewares/Third_Party/Huawei/iot_link/network/dtls/mbedtls/mbedtls-2.16.2/library\x509_crl.c **** 
 2048              		.loc 1 690 5 discriminator 4 view .LVU705
 692:D:/fchai/work/i-cube/I-CUBE-HUAWEI/Middlewares/Third_Party/Huawei/iot_link/network/dtls/mbedtls/mbedtls-2.16.2/library\x509_crl.c ****                              crl->sig_opts );
 2049              		.loc 1 692 5 discriminator 4 view .LVU706
 692:D:/fchai/work/i-cube/I-CUBE-HUAWEI/Middlewares/Third_Party/Huawei/iot_link/network/dtls/mbedtls/mbedtls-2.16.2/library\x509_crl.c ****                              crl->sig_opts );
 2050              		.loc 1 692 11 is_stmt 0 discriminator 4 view .LVU707
 2051 0198 98F8E930 		ldrb	r3, [r8, #233]	@ zero_extendqisi2
 2052 019c 2846     		mov	r0, r5
 2053              	.LVL227:
 692:D:/fchai/work/i-cube/I-CUBE-HUAWEI/Middlewares/Third_Party/Huawei/iot_link/network/dtls/mbedtls/mbedtls-2.16.2/library\x509_crl.c ****                              crl->sig_opts );
 2054              		.loc 1 692 11 discriminator 4 view .LVU708
 2055 019e 5146     		mov	r1, r10
 2056 01a0 08F11C02 		add	r2, r8, #28
 2057 01a4 FFF7FEFF 		bl	mbedtls_x509_sig_alg_gets
 2058              	.LVL228:
 694:D:/fchai/work/i-cube/I-CUBE-HUAWEI/Middlewares/Third_Party/Huawei/iot_link/network/dtls/mbedtls/mbedtls-2.16.2/library\x509_crl.c **** 
 2059              		.loc 1 694 5 is_stmt 1 discriminator 4 view .LVU709
 694:D:/fchai/work/i-cube/I-CUBE-HUAWEI/Middlewares/Third_Party/Huawei/iot_link/network/dtls/mbedtls/mbedtls-2.16.2/library\x509_crl.c **** 
 2060              		.loc 1 694 5 discriminator 4 view .LVU710
 2061 01a8 071E     		subs	r7, r0, #0
 2062 01aa 15DB     		blt	.L161
 694:D:/fchai/work/i-cube/I-CUBE-HUAWEI/Middlewares/Third_Party/Huawei/iot_link/network/dtls/mbedtls/mbedtls-2.16.2/library\x509_crl.c **** 
ARM GAS  T:\msys\tmp\ccGq53OE.s 			page 63


 2063              		.loc 1 694 5 is_stmt 0 discriminator 2 view .LVU711
 2064 01ac 5745     		cmp	r7, r10
 2065 01ae 13D2     		bcs	.L161
 694:D:/fchai/work/i-cube/I-CUBE-HUAWEI/Middlewares/Third_Party/Huawei/iot_link/network/dtls/mbedtls/mbedtls-2.16.2/library\x509_crl.c **** 
 2066              		.loc 1 694 5 is_stmt 1 discriminator 4 view .LVU712
 2067 01b0 AAEB070A 		sub	r10, r10, r7
 2068              	.LVL229:
 694:D:/fchai/work/i-cube/I-CUBE-HUAWEI/Middlewares/Third_Party/Huawei/iot_link/network/dtls/mbedtls/mbedtls-2.16.2/library\x509_crl.c **** 
 2069              		.loc 1 694 5 discriminator 4 view .LVU713
 694:D:/fchai/work/i-cube/I-CUBE-HUAWEI/Middlewares/Third_Party/Huawei/iot_link/network/dtls/mbedtls/mbedtls-2.16.2/library\x509_crl.c **** 
 2070              		.loc 1 694 5 discriminator 4 view .LVU714
 696:D:/fchai/work/i-cube/I-CUBE-HUAWEI/Middlewares/Third_Party/Huawei/iot_link/network/dtls/mbedtls/mbedtls-2.16.2/library\x509_crl.c ****     MBEDTLS_X509_SAFE_SNPRINTF;
 2071              		.loc 1 696 5 discriminator 4 view .LVU715
 696:D:/fchai/work/i-cube/I-CUBE-HUAWEI/Middlewares/Third_Party/Huawei/iot_link/network/dtls/mbedtls/mbedtls-2.16.2/library\x509_crl.c ****     MBEDTLS_X509_SAFE_SNPRINTF;
 2072              		.loc 1 696 11 is_stmt 0 discriminator 4 view .LVU716
 2073 01b4 D9F80030 		ldr	r3, [r9]
 2074 01b8 104A     		ldr	r2, .L169+28
 2075 01ba E819     		adds	r0, r5, r7
 2076              	.LVL230:
 696:D:/fchai/work/i-cube/I-CUBE-HUAWEI/Middlewares/Third_Party/Huawei/iot_link/network/dtls/mbedtls/mbedtls-2.16.2/library\x509_crl.c ****     MBEDTLS_X509_SAFE_SNPRINTF;
 2077              		.loc 1 696 11 discriminator 4 view .LVU717
 2078 01bc 5146     		mov	r1, r10
 2079 01be 9847     		blx	r3
 2080              	.LVL231:
 697:D:/fchai/work/i-cube/I-CUBE-HUAWEI/Middlewares/Third_Party/Huawei/iot_link/network/dtls/mbedtls/mbedtls-2.16.2/library\x509_crl.c **** 
 2081              		.loc 1 697 5 is_stmt 1 discriminator 4 view .LVU718
 697:D:/fchai/work/i-cube/I-CUBE-HUAWEI/Middlewares/Third_Party/Huawei/iot_link/network/dtls/mbedtls/mbedtls-2.16.2/library\x509_crl.c **** 
 2082              		.loc 1 697 5 discriminator 4 view .LVU719
 2083 01c0 0028     		cmp	r0, #0
 697:D:/fchai/work/i-cube/I-CUBE-HUAWEI/Middlewares/Third_Party/Huawei/iot_link/network/dtls/mbedtls/mbedtls-2.16.2/library\x509_crl.c **** 
 2084              		.loc 1 697 5 is_stmt 0 discriminator 4 view .LVU720
 2085 01c2 09DB     		blt	.L161
 697:D:/fchai/work/i-cube/I-CUBE-HUAWEI/Middlewares/Third_Party/Huawei/iot_link/network/dtls/mbedtls/mbedtls-2.16.2/library\x509_crl.c **** 
 2086              		.loc 1 697 5 discriminator 2 view .LVU721
 2087 01c4 5045     		cmp	r0, r10
 2088 01c6 07D2     		bcs	.L161
 697:D:/fchai/work/i-cube/I-CUBE-HUAWEI/Middlewares/Third_Party/Huawei/iot_link/network/dtls/mbedtls/mbedtls-2.16.2/library\x509_crl.c **** 
 2089              		.loc 1 697 5 is_stmt 1 discriminator 4 view .LVU722
 2090              	.LVL232:
 697:D:/fchai/work/i-cube/I-CUBE-HUAWEI/Middlewares/Third_Party/Huawei/iot_link/network/dtls/mbedtls/mbedtls-2.16.2/library\x509_crl.c **** 
 2091              		.loc 1 697 5 discriminator 4 view .LVU723
 697:D:/fchai/work/i-cube/I-CUBE-HUAWEI/Middlewares/Third_Party/Huawei/iot_link/network/dtls/mbedtls/mbedtls-2.16.2/library\x509_crl.c **** 
 2092              		.loc 1 697 5 discriminator 4 view .LVU724
 699:D:/fchai/work/i-cube/I-CUBE-HUAWEI/Middlewares/Third_Party/Huawei/iot_link/network/dtls/mbedtls/mbedtls-2.16.2/library\x509_crl.c **** }
 2093              		.loc 1 699 5 discriminator 4 view .LVU725
 699:D:/fchai/work/i-cube/I-CUBE-HUAWEI/Middlewares/Third_Party/Huawei/iot_link/network/dtls/mbedtls/mbedtls-2.16.2/library\x509_crl.c **** }
 2094              		.loc 1 699 26 is_stmt 0 discriminator 4 view .LVU726
 2095 01c8 079A     		ldr	r2, [sp, #28]
 2096 01ca 331B     		subs	r3, r6, r4
 2097 01cc 1344     		add	r3, r3, r2
 2098 01ce 3B44     		add	r3, r3, r7
 2099 01d0 1844     		add	r0, r0, r3
 2100              	.LVL233:
 700:D:/fchai/work/i-cube/I-CUBE-HUAWEI/Middlewares/Third_Party/Huawei/iot_link/network/dtls/mbedtls/mbedtls-2.16.2/library\x509_crl.c **** 
 2101              		.loc 1 700 1 discriminator 4 view .LVU727
 2102 01d2 09B0     		add	sp, sp, #36
 2103              	.LCFI19:
ARM GAS  T:\msys\tmp\ccGq53OE.s 			page 64


 2104              		.cfi_remember_state
 2105              		.cfi_def_cfa_offset 36
 2106              		@ sp needed
 2107 01d4 BDE8F08F 		pop	{r4, r5, r6, r7, r8, r9, r10, fp, pc}
 2108              	.LVL234:
 2109              	.L161:
 2110              	.LCFI20:
 2111              		.cfi_restore_state
 643:D:/fchai/work/i-cube/I-CUBE-HUAWEI/Middlewares/Third_Party/Huawei/iot_link/network/dtls/mbedtls/mbedtls-2.16.2/library\x509_crl.c **** 
 2112              		.loc 1 643 5 view .LVU728
 2113 01d8 0948     		ldr	r0, .L169+32
 700:D:/fchai/work/i-cube/I-CUBE-HUAWEI/Middlewares/Third_Party/Huawei/iot_link/network/dtls/mbedtls/mbedtls-2.16.2/library\x509_crl.c **** 
 2114              		.loc 1 700 1 view .LVU729
 2115 01da 09B0     		add	sp, sp, #36
 2116              	.LCFI21:
 2117              		.cfi_def_cfa_offset 36
 2118              		@ sp needed
 2119 01dc BDE8F08F 		pop	{r4, r5, r6, r7, r8, r9, r10, fp, pc}
 2120              	.LVL235:
 2121              	.L170:
 700:D:/fchai/work/i-cube/I-CUBE-HUAWEI/Middlewares/Third_Party/Huawei/iot_link/network/dtls/mbedtls/mbedtls-2.16.2/library\x509_crl.c **** 
 2122              		.loc 1 700 1 view .LVU730
 2123              		.align	2
 2124              	.L169:
 2125 01e0 00000000 		.word	.LC2
 2126 01e4 18000000 		.word	.LC3
 2127 01e8 2C000000 		.word	.LC4
 2128 01ec 60000000 		.word	.LC5
 2129 01f0 94000000 		.word	.LC6
 2130 01f4 C4000000 		.word	.LC8
 2131 01f8 F4000000 		.word	.LC9
 2132 01fc 08010000 		.word	.LC10
 2133 0200 80D6FFFF 		.word	-10624
 2134 0204 00000000 		.word	mbedtls_snprintf
 2135 0208 B0000000 		.word	.LC7
 2136              		.cfi_endproc
 2137              	.LFE19:
 2139              		.section	.text.mbedtls_x509_crl_init,"ax",%progbits
 2140              		.align	1
 2141              		.p2align 2,,3
 2142              		.global	mbedtls_x509_crl_init
 2143              		.syntax unified
 2144              		.thumb
 2145              		.thumb_func
 2146              		.fpu fpv4-sp-d16
 2148              	mbedtls_x509_crl_init:
 2149              	.LVL236:
 2150              	.LFB20:
 706:D:/fchai/work/i-cube/I-CUBE-HUAWEI/Middlewares/Third_Party/Huawei/iot_link/network/dtls/mbedtls/mbedtls-2.16.2/library\x509_crl.c ****     memset( crl, 0, sizeof(mbedtls_x509_crl) );
 2151              		.loc 1 706 1 is_stmt 1 view -0
 2152              		.cfi_startproc
 2153              		@ args = 0, pretend = 0, frame = 0
 2154              		@ frame_needed = 0, uses_anonymous_args = 0
 2155              		@ link register save eliminated.
 707:D:/fchai/work/i-cube/I-CUBE-HUAWEI/Middlewares/Third_Party/Huawei/iot_link/network/dtls/mbedtls/mbedtls-2.16.2/library\x509_crl.c **** }
 2156              		.loc 1 707 5 view .LVU732
 2157 0000 F422     		movs	r2, #244
ARM GAS  T:\msys\tmp\ccGq53OE.s 			page 65


 2158 0002 0021     		movs	r1, #0
 2159 0004 FFF7FEBF 		b	memset
 2160              	.LVL237:
 707:D:/fchai/work/i-cube/I-CUBE-HUAWEI/Middlewares/Third_Party/Huawei/iot_link/network/dtls/mbedtls/mbedtls-2.16.2/library\x509_crl.c **** }
 2161              		.loc 1 707 5 is_stmt 0 view .LVU733
 2162              		.cfi_endproc
 2163              	.LFE20:
 2165              		.section	.text.mbedtls_x509_crl_free,"ax",%progbits
 2166              		.align	1
 2167              		.p2align 2,,3
 2168              		.global	mbedtls_x509_crl_free
 2169              		.syntax unified
 2170              		.thumb
 2171              		.thumb_func
 2172              		.fpu fpv4-sp-d16
 2174              	mbedtls_x509_crl_free:
 2175              	.LVL238:
 2176              	.LFB21:
 714:D:/fchai/work/i-cube/I-CUBE-HUAWEI/Middlewares/Third_Party/Huawei/iot_link/network/dtls/mbedtls/mbedtls-2.16.2/library\x509_crl.c ****     mbedtls_x509_crl *crl_cur = crl;
 2177              		.loc 1 714 1 is_stmt 1 view -0
 2178              		.cfi_startproc
 2179              		@ args = 0, pretend = 0, frame = 0
 2180              		@ frame_needed = 0, uses_anonymous_args = 0
 2181              		@ link register save eliminated.
 715:D:/fchai/work/i-cube/I-CUBE-HUAWEI/Middlewares/Third_Party/Huawei/iot_link/network/dtls/mbedtls/mbedtls-2.16.2/library\x509_crl.c ****     mbedtls_x509_crl *crl_prv;
 2182              		.loc 1 715 5 view .LVU735
 716:D:/fchai/work/i-cube/I-CUBE-HUAWEI/Middlewares/Third_Party/Huawei/iot_link/network/dtls/mbedtls/mbedtls-2.16.2/library\x509_crl.c ****     mbedtls_x509_name *name_cur;
 2183              		.loc 1 716 5 view .LVU736
 717:D:/fchai/work/i-cube/I-CUBE-HUAWEI/Middlewares/Third_Party/Huawei/iot_link/network/dtls/mbedtls/mbedtls-2.16.2/library\x509_crl.c ****     mbedtls_x509_name *name_prv;
 2184              		.loc 1 717 5 view .LVU737
 718:D:/fchai/work/i-cube/I-CUBE-HUAWEI/Middlewares/Third_Party/Huawei/iot_link/network/dtls/mbedtls/mbedtls-2.16.2/library\x509_crl.c ****     mbedtls_x509_crl_entry *entry_cur;
 2185              		.loc 1 718 5 view .LVU738
 719:D:/fchai/work/i-cube/I-CUBE-HUAWEI/Middlewares/Third_Party/Huawei/iot_link/network/dtls/mbedtls/mbedtls-2.16.2/library\x509_crl.c ****     mbedtls_x509_crl_entry *entry_prv;
 2186              		.loc 1 719 5 view .LVU739
 720:D:/fchai/work/i-cube/I-CUBE-HUAWEI/Middlewares/Third_Party/Huawei/iot_link/network/dtls/mbedtls/mbedtls-2.16.2/library\x509_crl.c **** 
 2187              		.loc 1 720 5 view .LVU740
 722:D:/fchai/work/i-cube/I-CUBE-HUAWEI/Middlewares/Third_Party/Huawei/iot_link/network/dtls/mbedtls/mbedtls-2.16.2/library\x509_crl.c ****         return;
 2188              		.loc 1 722 5 view .LVU741
 722:D:/fchai/work/i-cube/I-CUBE-HUAWEI/Middlewares/Third_Party/Huawei/iot_link/network/dtls/mbedtls/mbedtls-2.16.2/library\x509_crl.c ****         return;
 2189              		.loc 1 722 7 is_stmt 0 view .LVU742
 2190 0000 08B1     		cbz	r0, .L172
 2191 0002 FFF7FEBF 		b	mbedtls_x509_crl_free.part.0
 2192              	.LVL239:
 2193              	.L172:
 2194              		.loc 1 771 1 view .LVU743
 2195 0006 7047     		bx	lr
 2196              		.cfi_endproc
 2197              	.LFE21:
 2199              		.text
 2200              	.Letext0:
 2201              		.file 2 "D:/fchai/work/i-cube/I-CUBE-HUAWEI/Middlewares/Third_Party/Huawei/iot_link/network/dtls/m
 2202              		.file 3 "t:\\msys\\3rd\\gcc-arm-none-eabi-9-2020-q2-update-win32\\lib\\gcc\\arm-none-eabi\\9.3.1\\
 2203              		.file 4 "D:/fchai/work/i-cube/I-CUBE-HUAWEI/Middlewares/Third_Party/Huawei/iot_link/network/dtls/m
 2204              		.file 5 "D:/fchai/work/i-cube/I-CUBE-HUAWEI/Middlewares/Third_Party/Huawei/iot_link/network/dtls/m
 2205              		.file 6 "D:/fchai/work/i-cube/I-CUBE-HUAWEI/Middlewares/Third_Party/Huawei/iot_link/network/dtls/m
 2206              		.file 7 "D:/fchai/work/i-cube/I-CUBE-HUAWEI/Middlewares/Third_Party/Huawei/iot_link/network/dtls/m
 2207              		.file 8 "t:\\msys\\3rd\\gcc-arm-none-eabi-9-2020-q2-update-win32\\arm-none-eabi\\include\\sys\\_ty
ARM GAS  T:\msys\tmp\ccGq53OE.s 			page 66


 2208              		.file 9 "t:\\msys\\3rd\\gcc-arm-none-eabi-9-2020-q2-update-win32\\arm-none-eabi\\include\\sys\\ree
 2209              		.file 10 "t:\\msys\\3rd\\gcc-arm-none-eabi-9-2020-q2-update-win32\\arm-none-eabi\\include\\sys\\lo
 2210              		.file 11 "D:/fchai/work/i-cube/I-CUBE-HUAWEI/Middlewares/Third_Party/Huawei/iot_link/network/dtls/
 2211              		.file 12 "t:\\msys\\3rd\\gcc-arm-none-eabi-9-2020-q2-update-win32\\arm-none-eabi\\include\\stdlib.
 2212              		.file 13 "t:\\msys\\3rd\\gcc-arm-none-eabi-9-2020-q2-update-win32\\arm-none-eabi\\include\\time.h"
 2213              		.file 14 "D:/fchai/work/i-cube/I-CUBE-HUAWEI/Middlewares/Third_Party/Huawei/iot_link/network/dtls/
 2214              		.file 15 "<built-in>"
 2215              		.file 16 "D:/fchai/work/i-cube/I-CUBE-HUAWEI/Middlewares/Third_Party/Huawei/iot_link/network/dtls/
ARM GAS  T:\msys\tmp\ccGq53OE.s 			page 67


DEFINED SYMBOLS
                            *ABS*:00000000 x509_crl.c
T:\msys\tmp\ccGq53OE.s:18     .text.mbedtls_x509_crl_free.part.0:00000000 $t
T:\msys\tmp\ccGq53OE.s:26     .text.mbedtls_x509_crl_free.part.0:00000000 mbedtls_x509_crl_free.part.0
T:\msys\tmp\ccGq53OE.s:206    .text.mbedtls_x509_crl_parse_der:00000000 $t
T:\msys\tmp\ccGq53OE.s:214    .text.mbedtls_x509_crl_parse_der:00000000 mbedtls_x509_crl_parse_der
T:\msys\tmp\ccGq53OE.s:1395   .text.mbedtls_x509_crl_parse_der:00000410 $d
T:\msys\tmp\ccGq53OE.s:1423   .text.mbedtls_x509_crl_parse_der:00000438 $t
T:\msys\tmp\ccGq53OE.s:1436   .text.mbedtls_x509_crl_parse_der:00000444 $d
T:\msys\tmp\ccGq53OE.s:1441   .rodata.mbedtls_x509_crl_parse.str1.4:00000000 $d
T:\msys\tmp\ccGq53OE.s:1448   .text.mbedtls_x509_crl_parse:00000000 $t
T:\msys\tmp\ccGq53OE.s:1456   .text.mbedtls_x509_crl_parse:00000000 mbedtls_x509_crl_parse
T:\msys\tmp\ccGq53OE.s:1640   .text.mbedtls_x509_crl_parse:000000a8 $d
T:\msys\tmp\ccGq53OE.s:1648   .rodata.mbedtls_x509_crl_info.str1.4:00000000 $d
T:\msys\tmp\ccGq53OE.s:1678   .text.mbedtls_x509_crl_info:00000000 $t
T:\msys\tmp\ccGq53OE.s:1686   .text.mbedtls_x509_crl_info:00000000 mbedtls_x509_crl_info
T:\msys\tmp\ccGq53OE.s:2125   .text.mbedtls_x509_crl_info:000001e0 $d
T:\msys\tmp\ccGq53OE.s:2140   .text.mbedtls_x509_crl_init:00000000 $t
T:\msys\tmp\ccGq53OE.s:2148   .text.mbedtls_x509_crl_init:00000000 mbedtls_x509_crl_init
T:\msys\tmp\ccGq53OE.s:2166   .text.mbedtls_x509_crl_free:00000000 $t
T:\msys\tmp\ccGq53OE.s:2174   .text.mbedtls_x509_crl_free:00000000 mbedtls_x509_crl_free

UNDEFINED SYMBOLS
mbedtls_free
mbedtls_platform_zeroize
mbedtls_calloc
memcpy
mbedtls_asn1_get_tag
mbedtls_asn1_get_int
mbedtls_x509_get_alg
mbedtls_x509_get_sig_alg
mbedtls_x509_get_name
mbedtls_x509_get_time
mbedtls_x509_get_serial
memset
memcmp
mbedtls_x509_get_sig
mbedtls_x509_get_ext
mbedtls_asn1_get_bool
mbedtls_pem_init
mbedtls_pem_free
mbedtls_pem_read_buffer
mbedtls_x509_dn_gets
mbedtls_x509_serial_gets
mbedtls_x509_sig_alg_gets
mbedtls_snprintf
