ARM GAS  T:\msys\tmp\cc1WsHhn.s 			page 1


   1              		.cpu cortex-m4
   2              		.eabi_attribute 27, 1
   3              		.eabi_attribute 28, 1
   4              		.eabi_attribute 20, 1
   5              		.eabi_attribute 21, 1
   6              		.eabi_attribute 23, 3
   7              		.eabi_attribute 24, 1
   8              		.eabi_attribute 25, 1
   9              		.eabi_attribute 26, 1
  10              		.eabi_attribute 30, 2
  11              		.eabi_attribute 34, 1
  12              		.eabi_attribute 18, 4
  13              		.file	"x509write_crt.c"
  14              		.text
  15              	.Ltext0:
  16              		.cfi_sections	.debug_frame
  17              		.section	.text.x509_write_time.constprop.0,"ax",%progbits
  18              		.align	1
  19              		.p2align 2,,3
  20              		.arch armv7e-m
  21              		.syntax unified
  22              		.thumb
  23              		.thumb_func
  24              		.fpu fpv4-sp-d16
  26              	x509_write_time.constprop.0:
  27              	.LVL0:
  28              	.LFB30:
  29              		.file 1 "D:/fchai/work/i-cube/I-CUBE-HUAWEI/Middlewares/Third_Party/Huawei/iot_link/network/dtls/m
   1:D:/fchai/work/i-cube/I-CUBE-HUAWEI/Middlewares/Third_Party/Huawei/iot_link/network/dtls/mbedtls/mbedtls-2.16.2/library\x509write_crt.c **** /*
   2:D:/fchai/work/i-cube/I-CUBE-HUAWEI/Middlewares/Third_Party/Huawei/iot_link/network/dtls/mbedtls/mbedtls-2.16.2/library\x509write_crt.c ****  *  X.509 certificate writing
   3:D:/fchai/work/i-cube/I-CUBE-HUAWEI/Middlewares/Third_Party/Huawei/iot_link/network/dtls/mbedtls/mbedtls-2.16.2/library\x509write_crt.c ****  *
   4:D:/fchai/work/i-cube/I-CUBE-HUAWEI/Middlewares/Third_Party/Huawei/iot_link/network/dtls/mbedtls/mbedtls-2.16.2/library\x509write_crt.c ****  *  Copyright (C) 2006-2015, ARM Limited, All Rights Reserved
   5:D:/fchai/work/i-cube/I-CUBE-HUAWEI/Middlewares/Third_Party/Huawei/iot_link/network/dtls/mbedtls/mbedtls-2.16.2/library\x509write_crt.c ****  *  SPDX-License-Identifier: Apache-2.0
   6:D:/fchai/work/i-cube/I-CUBE-HUAWEI/Middlewares/Third_Party/Huawei/iot_link/network/dtls/mbedtls/mbedtls-2.16.2/library\x509write_crt.c ****  *
   7:D:/fchai/work/i-cube/I-CUBE-HUAWEI/Middlewares/Third_Party/Huawei/iot_link/network/dtls/mbedtls/mbedtls-2.16.2/library\x509write_crt.c ****  *  Licensed under the Apache License, Version 2.0 (the "License"); you may
   8:D:/fchai/work/i-cube/I-CUBE-HUAWEI/Middlewares/Third_Party/Huawei/iot_link/network/dtls/mbedtls/mbedtls-2.16.2/library\x509write_crt.c ****  *  not use this file except in compliance with the License.
   9:D:/fchai/work/i-cube/I-CUBE-HUAWEI/Middlewares/Third_Party/Huawei/iot_link/network/dtls/mbedtls/mbedtls-2.16.2/library\x509write_crt.c ****  *  You may obtain a copy of the License at
  10:D:/fchai/work/i-cube/I-CUBE-HUAWEI/Middlewares/Third_Party/Huawei/iot_link/network/dtls/mbedtls/mbedtls-2.16.2/library\x509write_crt.c ****  *
  11:D:/fchai/work/i-cube/I-CUBE-HUAWEI/Middlewares/Third_Party/Huawei/iot_link/network/dtls/mbedtls/mbedtls-2.16.2/library\x509write_crt.c ****  *  http://www.apache.org/licenses/LICENSE-2.0
  12:D:/fchai/work/i-cube/I-CUBE-HUAWEI/Middlewares/Third_Party/Huawei/iot_link/network/dtls/mbedtls/mbedtls-2.16.2/library\x509write_crt.c ****  *
  13:D:/fchai/work/i-cube/I-CUBE-HUAWEI/Middlewares/Third_Party/Huawei/iot_link/network/dtls/mbedtls/mbedtls-2.16.2/library\x509write_crt.c ****  *  Unless required by applicable law or agreed to in writing, software
  14:D:/fchai/work/i-cube/I-CUBE-HUAWEI/Middlewares/Third_Party/Huawei/iot_link/network/dtls/mbedtls/mbedtls-2.16.2/library\x509write_crt.c ****  *  distributed under the License is distributed on an "AS IS" BASIS, WITHOUT
  15:D:/fchai/work/i-cube/I-CUBE-HUAWEI/Middlewares/Third_Party/Huawei/iot_link/network/dtls/mbedtls/mbedtls-2.16.2/library\x509write_crt.c ****  *  WARRANTIES OR CONDITIONS OF ANY KIND, either express or implied.
  16:D:/fchai/work/i-cube/I-CUBE-HUAWEI/Middlewares/Third_Party/Huawei/iot_link/network/dtls/mbedtls/mbedtls-2.16.2/library\x509write_crt.c ****  *  See the License for the specific language governing permissions and
  17:D:/fchai/work/i-cube/I-CUBE-HUAWEI/Middlewares/Third_Party/Huawei/iot_link/network/dtls/mbedtls/mbedtls-2.16.2/library\x509write_crt.c ****  *  limitations under the License.
  18:D:/fchai/work/i-cube/I-CUBE-HUAWEI/Middlewares/Third_Party/Huawei/iot_link/network/dtls/mbedtls/mbedtls-2.16.2/library\x509write_crt.c ****  *
  19:D:/fchai/work/i-cube/I-CUBE-HUAWEI/Middlewares/Third_Party/Huawei/iot_link/network/dtls/mbedtls/mbedtls-2.16.2/library\x509write_crt.c ****  *  This file is part of mbed TLS (https://tls.mbed.org)
  20:D:/fchai/work/i-cube/I-CUBE-HUAWEI/Middlewares/Third_Party/Huawei/iot_link/network/dtls/mbedtls/mbedtls-2.16.2/library\x509write_crt.c ****  */
  21:D:/fchai/work/i-cube/I-CUBE-HUAWEI/Middlewares/Third_Party/Huawei/iot_link/network/dtls/mbedtls/mbedtls-2.16.2/library\x509write_crt.c **** /*
  22:D:/fchai/work/i-cube/I-CUBE-HUAWEI/Middlewares/Third_Party/Huawei/iot_link/network/dtls/mbedtls/mbedtls-2.16.2/library\x509write_crt.c ****  * References:
  23:D:/fchai/work/i-cube/I-CUBE-HUAWEI/Middlewares/Third_Party/Huawei/iot_link/network/dtls/mbedtls/mbedtls-2.16.2/library\x509write_crt.c ****  * - certificates: RFC 5280, updated by RFC 6818
  24:D:/fchai/work/i-cube/I-CUBE-HUAWEI/Middlewares/Third_Party/Huawei/iot_link/network/dtls/mbedtls/mbedtls-2.16.2/library\x509write_crt.c ****  * - CSRs: PKCS#10 v1.7 aka RFC 2986
  25:D:/fchai/work/i-cube/I-CUBE-HUAWEI/Middlewares/Third_Party/Huawei/iot_link/network/dtls/mbedtls/mbedtls-2.16.2/library\x509write_crt.c ****  * - attributes: PKCS#9 v2.0 aka RFC 2985
  26:D:/fchai/work/i-cube/I-CUBE-HUAWEI/Middlewares/Third_Party/Huawei/iot_link/network/dtls/mbedtls/mbedtls-2.16.2/library\x509write_crt.c ****  */
  27:D:/fchai/work/i-cube/I-CUBE-HUAWEI/Middlewares/Third_Party/Huawei/iot_link/network/dtls/mbedtls/mbedtls-2.16.2/library\x509write_crt.c **** 
  28:D:/fchai/work/i-cube/I-CUBE-HUAWEI/Middlewares/Third_Party/Huawei/iot_link/network/dtls/mbedtls/mbedtls-2.16.2/library\x509write_crt.c **** #if !defined(MBEDTLS_CONFIG_FILE)
  29:D:/fchai/work/i-cube/I-CUBE-HUAWEI/Middlewares/Third_Party/Huawei/iot_link/network/dtls/mbedtls/mbedtls-2.16.2/library\x509write_crt.c **** #include "mbedtls/config.h"
ARM GAS  T:\msys\tmp\cc1WsHhn.s 			page 2


  30:D:/fchai/work/i-cube/I-CUBE-HUAWEI/Middlewares/Third_Party/Huawei/iot_link/network/dtls/mbedtls/mbedtls-2.16.2/library\x509write_crt.c **** #else
  31:D:/fchai/work/i-cube/I-CUBE-HUAWEI/Middlewares/Third_Party/Huawei/iot_link/network/dtls/mbedtls/mbedtls-2.16.2/library\x509write_crt.c **** #include MBEDTLS_CONFIG_FILE
  32:D:/fchai/work/i-cube/I-CUBE-HUAWEI/Middlewares/Third_Party/Huawei/iot_link/network/dtls/mbedtls/mbedtls-2.16.2/library\x509write_crt.c **** #endif
  33:D:/fchai/work/i-cube/I-CUBE-HUAWEI/Middlewares/Third_Party/Huawei/iot_link/network/dtls/mbedtls/mbedtls-2.16.2/library\x509write_crt.c **** 
  34:D:/fchai/work/i-cube/I-CUBE-HUAWEI/Middlewares/Third_Party/Huawei/iot_link/network/dtls/mbedtls/mbedtls-2.16.2/library\x509write_crt.c **** #if defined(MBEDTLS_X509_CRT_WRITE_C)
  35:D:/fchai/work/i-cube/I-CUBE-HUAWEI/Middlewares/Third_Party/Huawei/iot_link/network/dtls/mbedtls/mbedtls-2.16.2/library\x509write_crt.c **** 
  36:D:/fchai/work/i-cube/I-CUBE-HUAWEI/Middlewares/Third_Party/Huawei/iot_link/network/dtls/mbedtls/mbedtls-2.16.2/library\x509write_crt.c **** #include "mbedtls/x509_crt.h"
  37:D:/fchai/work/i-cube/I-CUBE-HUAWEI/Middlewares/Third_Party/Huawei/iot_link/network/dtls/mbedtls/mbedtls-2.16.2/library\x509write_crt.c **** #include "mbedtls/oid.h"
  38:D:/fchai/work/i-cube/I-CUBE-HUAWEI/Middlewares/Third_Party/Huawei/iot_link/network/dtls/mbedtls/mbedtls-2.16.2/library\x509write_crt.c **** #include "mbedtls/asn1write.h"
  39:D:/fchai/work/i-cube/I-CUBE-HUAWEI/Middlewares/Third_Party/Huawei/iot_link/network/dtls/mbedtls/mbedtls-2.16.2/library\x509write_crt.c **** #include "mbedtls/sha1.h"
  40:D:/fchai/work/i-cube/I-CUBE-HUAWEI/Middlewares/Third_Party/Huawei/iot_link/network/dtls/mbedtls/mbedtls-2.16.2/library\x509write_crt.c **** #include "mbedtls/platform_util.h"
  41:D:/fchai/work/i-cube/I-CUBE-HUAWEI/Middlewares/Third_Party/Huawei/iot_link/network/dtls/mbedtls/mbedtls-2.16.2/library\x509write_crt.c **** 
  42:D:/fchai/work/i-cube/I-CUBE-HUAWEI/Middlewares/Third_Party/Huawei/iot_link/network/dtls/mbedtls/mbedtls-2.16.2/library\x509write_crt.c **** #include <string.h>
  43:D:/fchai/work/i-cube/I-CUBE-HUAWEI/Middlewares/Third_Party/Huawei/iot_link/network/dtls/mbedtls/mbedtls-2.16.2/library\x509write_crt.c **** 
  44:D:/fchai/work/i-cube/I-CUBE-HUAWEI/Middlewares/Third_Party/Huawei/iot_link/network/dtls/mbedtls/mbedtls-2.16.2/library\x509write_crt.c **** #if defined(MBEDTLS_PEM_WRITE_C)
  45:D:/fchai/work/i-cube/I-CUBE-HUAWEI/Middlewares/Third_Party/Huawei/iot_link/network/dtls/mbedtls/mbedtls-2.16.2/library\x509write_crt.c **** #include "mbedtls/pem.h"
  46:D:/fchai/work/i-cube/I-CUBE-HUAWEI/Middlewares/Third_Party/Huawei/iot_link/network/dtls/mbedtls/mbedtls-2.16.2/library\x509write_crt.c **** #endif /* MBEDTLS_PEM_WRITE_C */
  47:D:/fchai/work/i-cube/I-CUBE-HUAWEI/Middlewares/Third_Party/Huawei/iot_link/network/dtls/mbedtls/mbedtls-2.16.2/library\x509write_crt.c **** 
  48:D:/fchai/work/i-cube/I-CUBE-HUAWEI/Middlewares/Third_Party/Huawei/iot_link/network/dtls/mbedtls/mbedtls-2.16.2/library\x509write_crt.c **** void mbedtls_x509write_crt_init( mbedtls_x509write_cert *ctx )
  49:D:/fchai/work/i-cube/I-CUBE-HUAWEI/Middlewares/Third_Party/Huawei/iot_link/network/dtls/mbedtls/mbedtls-2.16.2/library\x509write_crt.c **** {
  50:D:/fchai/work/i-cube/I-CUBE-HUAWEI/Middlewares/Third_Party/Huawei/iot_link/network/dtls/mbedtls/mbedtls-2.16.2/library\x509write_crt.c ****     memset( ctx, 0, sizeof( mbedtls_x509write_cert ) );
  51:D:/fchai/work/i-cube/I-CUBE-HUAWEI/Middlewares/Third_Party/Huawei/iot_link/network/dtls/mbedtls/mbedtls-2.16.2/library\x509write_crt.c **** 
  52:D:/fchai/work/i-cube/I-CUBE-HUAWEI/Middlewares/Third_Party/Huawei/iot_link/network/dtls/mbedtls/mbedtls-2.16.2/library\x509write_crt.c ****     mbedtls_mpi_init( &ctx->serial );
  53:D:/fchai/work/i-cube/I-CUBE-HUAWEI/Middlewares/Third_Party/Huawei/iot_link/network/dtls/mbedtls/mbedtls-2.16.2/library\x509write_crt.c ****     ctx->version = MBEDTLS_X509_CRT_VERSION_3;
  54:D:/fchai/work/i-cube/I-CUBE-HUAWEI/Middlewares/Third_Party/Huawei/iot_link/network/dtls/mbedtls/mbedtls-2.16.2/library\x509write_crt.c **** }
  55:D:/fchai/work/i-cube/I-CUBE-HUAWEI/Middlewares/Third_Party/Huawei/iot_link/network/dtls/mbedtls/mbedtls-2.16.2/library\x509write_crt.c **** 
  56:D:/fchai/work/i-cube/I-CUBE-HUAWEI/Middlewares/Third_Party/Huawei/iot_link/network/dtls/mbedtls/mbedtls-2.16.2/library\x509write_crt.c **** void mbedtls_x509write_crt_free( mbedtls_x509write_cert *ctx )
  57:D:/fchai/work/i-cube/I-CUBE-HUAWEI/Middlewares/Third_Party/Huawei/iot_link/network/dtls/mbedtls/mbedtls-2.16.2/library\x509write_crt.c **** {
  58:D:/fchai/work/i-cube/I-CUBE-HUAWEI/Middlewares/Third_Party/Huawei/iot_link/network/dtls/mbedtls/mbedtls-2.16.2/library\x509write_crt.c ****     mbedtls_mpi_free( &ctx->serial );
  59:D:/fchai/work/i-cube/I-CUBE-HUAWEI/Middlewares/Third_Party/Huawei/iot_link/network/dtls/mbedtls/mbedtls-2.16.2/library\x509write_crt.c **** 
  60:D:/fchai/work/i-cube/I-CUBE-HUAWEI/Middlewares/Third_Party/Huawei/iot_link/network/dtls/mbedtls/mbedtls-2.16.2/library\x509write_crt.c ****     mbedtls_asn1_free_named_data_list( &ctx->subject );
  61:D:/fchai/work/i-cube/I-CUBE-HUAWEI/Middlewares/Third_Party/Huawei/iot_link/network/dtls/mbedtls/mbedtls-2.16.2/library\x509write_crt.c ****     mbedtls_asn1_free_named_data_list( &ctx->issuer );
  62:D:/fchai/work/i-cube/I-CUBE-HUAWEI/Middlewares/Third_Party/Huawei/iot_link/network/dtls/mbedtls/mbedtls-2.16.2/library\x509write_crt.c ****     mbedtls_asn1_free_named_data_list( &ctx->extensions );
  63:D:/fchai/work/i-cube/I-CUBE-HUAWEI/Middlewares/Third_Party/Huawei/iot_link/network/dtls/mbedtls/mbedtls-2.16.2/library\x509write_crt.c **** 
  64:D:/fchai/work/i-cube/I-CUBE-HUAWEI/Middlewares/Third_Party/Huawei/iot_link/network/dtls/mbedtls/mbedtls-2.16.2/library\x509write_crt.c ****     mbedtls_platform_zeroize( ctx, sizeof( mbedtls_x509write_cert ) );
  65:D:/fchai/work/i-cube/I-CUBE-HUAWEI/Middlewares/Third_Party/Huawei/iot_link/network/dtls/mbedtls/mbedtls-2.16.2/library\x509write_crt.c **** }
  66:D:/fchai/work/i-cube/I-CUBE-HUAWEI/Middlewares/Third_Party/Huawei/iot_link/network/dtls/mbedtls/mbedtls-2.16.2/library\x509write_crt.c **** 
  67:D:/fchai/work/i-cube/I-CUBE-HUAWEI/Middlewares/Third_Party/Huawei/iot_link/network/dtls/mbedtls/mbedtls-2.16.2/library\x509write_crt.c **** void mbedtls_x509write_crt_set_version( mbedtls_x509write_cert *ctx, int version )
  68:D:/fchai/work/i-cube/I-CUBE-HUAWEI/Middlewares/Third_Party/Huawei/iot_link/network/dtls/mbedtls/mbedtls-2.16.2/library\x509write_crt.c **** {
  69:D:/fchai/work/i-cube/I-CUBE-HUAWEI/Middlewares/Third_Party/Huawei/iot_link/network/dtls/mbedtls/mbedtls-2.16.2/library\x509write_crt.c ****     ctx->version = version;
  70:D:/fchai/work/i-cube/I-CUBE-HUAWEI/Middlewares/Third_Party/Huawei/iot_link/network/dtls/mbedtls/mbedtls-2.16.2/library\x509write_crt.c **** }
  71:D:/fchai/work/i-cube/I-CUBE-HUAWEI/Middlewares/Third_Party/Huawei/iot_link/network/dtls/mbedtls/mbedtls-2.16.2/library\x509write_crt.c **** 
  72:D:/fchai/work/i-cube/I-CUBE-HUAWEI/Middlewares/Third_Party/Huawei/iot_link/network/dtls/mbedtls/mbedtls-2.16.2/library\x509write_crt.c **** void mbedtls_x509write_crt_set_md_alg( mbedtls_x509write_cert *ctx, mbedtls_md_type_t md_alg )
  73:D:/fchai/work/i-cube/I-CUBE-HUAWEI/Middlewares/Third_Party/Huawei/iot_link/network/dtls/mbedtls/mbedtls-2.16.2/library\x509write_crt.c **** {
  74:D:/fchai/work/i-cube/I-CUBE-HUAWEI/Middlewares/Third_Party/Huawei/iot_link/network/dtls/mbedtls/mbedtls-2.16.2/library\x509write_crt.c ****     ctx->md_alg = md_alg;
  75:D:/fchai/work/i-cube/I-CUBE-HUAWEI/Middlewares/Third_Party/Huawei/iot_link/network/dtls/mbedtls/mbedtls-2.16.2/library\x509write_crt.c **** }
  76:D:/fchai/work/i-cube/I-CUBE-HUAWEI/Middlewares/Third_Party/Huawei/iot_link/network/dtls/mbedtls/mbedtls-2.16.2/library\x509write_crt.c **** 
  77:D:/fchai/work/i-cube/I-CUBE-HUAWEI/Middlewares/Third_Party/Huawei/iot_link/network/dtls/mbedtls/mbedtls-2.16.2/library\x509write_crt.c **** void mbedtls_x509write_crt_set_subject_key( mbedtls_x509write_cert *ctx, mbedtls_pk_context *key )
  78:D:/fchai/work/i-cube/I-CUBE-HUAWEI/Middlewares/Third_Party/Huawei/iot_link/network/dtls/mbedtls/mbedtls-2.16.2/library\x509write_crt.c **** {
  79:D:/fchai/work/i-cube/I-CUBE-HUAWEI/Middlewares/Third_Party/Huawei/iot_link/network/dtls/mbedtls/mbedtls-2.16.2/library\x509write_crt.c ****     ctx->subject_key = key;
  80:D:/fchai/work/i-cube/I-CUBE-HUAWEI/Middlewares/Third_Party/Huawei/iot_link/network/dtls/mbedtls/mbedtls-2.16.2/library\x509write_crt.c **** }
  81:D:/fchai/work/i-cube/I-CUBE-HUAWEI/Middlewares/Third_Party/Huawei/iot_link/network/dtls/mbedtls/mbedtls-2.16.2/library\x509write_crt.c **** 
  82:D:/fchai/work/i-cube/I-CUBE-HUAWEI/Middlewares/Third_Party/Huawei/iot_link/network/dtls/mbedtls/mbedtls-2.16.2/library\x509write_crt.c **** void mbedtls_x509write_crt_set_issuer_key( mbedtls_x509write_cert *ctx, mbedtls_pk_context *key )
  83:D:/fchai/work/i-cube/I-CUBE-HUAWEI/Middlewares/Third_Party/Huawei/iot_link/network/dtls/mbedtls/mbedtls-2.16.2/library\x509write_crt.c **** {
  84:D:/fchai/work/i-cube/I-CUBE-HUAWEI/Middlewares/Third_Party/Huawei/iot_link/network/dtls/mbedtls/mbedtls-2.16.2/library\x509write_crt.c ****     ctx->issuer_key = key;
  85:D:/fchai/work/i-cube/I-CUBE-HUAWEI/Middlewares/Third_Party/Huawei/iot_link/network/dtls/mbedtls/mbedtls-2.16.2/library\x509write_crt.c **** }
  86:D:/fchai/work/i-cube/I-CUBE-HUAWEI/Middlewares/Third_Party/Huawei/iot_link/network/dtls/mbedtls/mbedtls-2.16.2/library\x509write_crt.c **** 
ARM GAS  T:\msys\tmp\cc1WsHhn.s 			page 3


  87:D:/fchai/work/i-cube/I-CUBE-HUAWEI/Middlewares/Third_Party/Huawei/iot_link/network/dtls/mbedtls/mbedtls-2.16.2/library\x509write_crt.c **** int mbedtls_x509write_crt_set_subject_name( mbedtls_x509write_cert *ctx,
  88:D:/fchai/work/i-cube/I-CUBE-HUAWEI/Middlewares/Third_Party/Huawei/iot_link/network/dtls/mbedtls/mbedtls-2.16.2/library\x509write_crt.c ****                                     const char *subject_name )
  89:D:/fchai/work/i-cube/I-CUBE-HUAWEI/Middlewares/Third_Party/Huawei/iot_link/network/dtls/mbedtls/mbedtls-2.16.2/library\x509write_crt.c **** {
  90:D:/fchai/work/i-cube/I-CUBE-HUAWEI/Middlewares/Third_Party/Huawei/iot_link/network/dtls/mbedtls/mbedtls-2.16.2/library\x509write_crt.c ****     return mbedtls_x509_string_to_names( &ctx->subject, subject_name );
  91:D:/fchai/work/i-cube/I-CUBE-HUAWEI/Middlewares/Third_Party/Huawei/iot_link/network/dtls/mbedtls/mbedtls-2.16.2/library\x509write_crt.c **** }
  92:D:/fchai/work/i-cube/I-CUBE-HUAWEI/Middlewares/Third_Party/Huawei/iot_link/network/dtls/mbedtls/mbedtls-2.16.2/library\x509write_crt.c **** 
  93:D:/fchai/work/i-cube/I-CUBE-HUAWEI/Middlewares/Third_Party/Huawei/iot_link/network/dtls/mbedtls/mbedtls-2.16.2/library\x509write_crt.c **** int mbedtls_x509write_crt_set_issuer_name( mbedtls_x509write_cert *ctx,
  94:D:/fchai/work/i-cube/I-CUBE-HUAWEI/Middlewares/Third_Party/Huawei/iot_link/network/dtls/mbedtls/mbedtls-2.16.2/library\x509write_crt.c ****                                    const char *issuer_name )
  95:D:/fchai/work/i-cube/I-CUBE-HUAWEI/Middlewares/Third_Party/Huawei/iot_link/network/dtls/mbedtls/mbedtls-2.16.2/library\x509write_crt.c **** {
  96:D:/fchai/work/i-cube/I-CUBE-HUAWEI/Middlewares/Third_Party/Huawei/iot_link/network/dtls/mbedtls/mbedtls-2.16.2/library\x509write_crt.c ****     return mbedtls_x509_string_to_names( &ctx->issuer, issuer_name );
  97:D:/fchai/work/i-cube/I-CUBE-HUAWEI/Middlewares/Third_Party/Huawei/iot_link/network/dtls/mbedtls/mbedtls-2.16.2/library\x509write_crt.c **** }
  98:D:/fchai/work/i-cube/I-CUBE-HUAWEI/Middlewares/Third_Party/Huawei/iot_link/network/dtls/mbedtls/mbedtls-2.16.2/library\x509write_crt.c **** 
  99:D:/fchai/work/i-cube/I-CUBE-HUAWEI/Middlewares/Third_Party/Huawei/iot_link/network/dtls/mbedtls/mbedtls-2.16.2/library\x509write_crt.c **** int mbedtls_x509write_crt_set_serial( mbedtls_x509write_cert *ctx, const mbedtls_mpi *serial )
 100:D:/fchai/work/i-cube/I-CUBE-HUAWEI/Middlewares/Third_Party/Huawei/iot_link/network/dtls/mbedtls/mbedtls-2.16.2/library\x509write_crt.c **** {
 101:D:/fchai/work/i-cube/I-CUBE-HUAWEI/Middlewares/Third_Party/Huawei/iot_link/network/dtls/mbedtls/mbedtls-2.16.2/library\x509write_crt.c ****     int ret;
 102:D:/fchai/work/i-cube/I-CUBE-HUAWEI/Middlewares/Third_Party/Huawei/iot_link/network/dtls/mbedtls/mbedtls-2.16.2/library\x509write_crt.c **** 
 103:D:/fchai/work/i-cube/I-CUBE-HUAWEI/Middlewares/Third_Party/Huawei/iot_link/network/dtls/mbedtls/mbedtls-2.16.2/library\x509write_crt.c ****     if( ( ret = mbedtls_mpi_copy( &ctx->serial, serial ) ) != 0 )
 104:D:/fchai/work/i-cube/I-CUBE-HUAWEI/Middlewares/Third_Party/Huawei/iot_link/network/dtls/mbedtls/mbedtls-2.16.2/library\x509write_crt.c ****         return( ret );
 105:D:/fchai/work/i-cube/I-CUBE-HUAWEI/Middlewares/Third_Party/Huawei/iot_link/network/dtls/mbedtls/mbedtls-2.16.2/library\x509write_crt.c **** 
 106:D:/fchai/work/i-cube/I-CUBE-HUAWEI/Middlewares/Third_Party/Huawei/iot_link/network/dtls/mbedtls/mbedtls-2.16.2/library\x509write_crt.c ****     return( 0 );
 107:D:/fchai/work/i-cube/I-CUBE-HUAWEI/Middlewares/Third_Party/Huawei/iot_link/network/dtls/mbedtls/mbedtls-2.16.2/library\x509write_crt.c **** }
 108:D:/fchai/work/i-cube/I-CUBE-HUAWEI/Middlewares/Third_Party/Huawei/iot_link/network/dtls/mbedtls/mbedtls-2.16.2/library\x509write_crt.c **** 
 109:D:/fchai/work/i-cube/I-CUBE-HUAWEI/Middlewares/Third_Party/Huawei/iot_link/network/dtls/mbedtls/mbedtls-2.16.2/library\x509write_crt.c **** int mbedtls_x509write_crt_set_validity( mbedtls_x509write_cert *ctx, const char *not_before,
 110:D:/fchai/work/i-cube/I-CUBE-HUAWEI/Middlewares/Third_Party/Huawei/iot_link/network/dtls/mbedtls/mbedtls-2.16.2/library\x509write_crt.c ****                                 const char *not_after )
 111:D:/fchai/work/i-cube/I-CUBE-HUAWEI/Middlewares/Third_Party/Huawei/iot_link/network/dtls/mbedtls/mbedtls-2.16.2/library\x509write_crt.c **** {
 112:D:/fchai/work/i-cube/I-CUBE-HUAWEI/Middlewares/Third_Party/Huawei/iot_link/network/dtls/mbedtls/mbedtls-2.16.2/library\x509write_crt.c ****     if( strlen( not_before ) != MBEDTLS_X509_RFC5280_UTC_TIME_LEN - 1 ||
 113:D:/fchai/work/i-cube/I-CUBE-HUAWEI/Middlewares/Third_Party/Huawei/iot_link/network/dtls/mbedtls/mbedtls-2.16.2/library\x509write_crt.c ****         strlen( not_after )  != MBEDTLS_X509_RFC5280_UTC_TIME_LEN - 1 )
 114:D:/fchai/work/i-cube/I-CUBE-HUAWEI/Middlewares/Third_Party/Huawei/iot_link/network/dtls/mbedtls/mbedtls-2.16.2/library\x509write_crt.c ****     {
 115:D:/fchai/work/i-cube/I-CUBE-HUAWEI/Middlewares/Third_Party/Huawei/iot_link/network/dtls/mbedtls/mbedtls-2.16.2/library\x509write_crt.c ****         return( MBEDTLS_ERR_X509_BAD_INPUT_DATA );
 116:D:/fchai/work/i-cube/I-CUBE-HUAWEI/Middlewares/Third_Party/Huawei/iot_link/network/dtls/mbedtls/mbedtls-2.16.2/library\x509write_crt.c ****     }
 117:D:/fchai/work/i-cube/I-CUBE-HUAWEI/Middlewares/Third_Party/Huawei/iot_link/network/dtls/mbedtls/mbedtls-2.16.2/library\x509write_crt.c ****     strncpy( ctx->not_before, not_before, MBEDTLS_X509_RFC5280_UTC_TIME_LEN );
 118:D:/fchai/work/i-cube/I-CUBE-HUAWEI/Middlewares/Third_Party/Huawei/iot_link/network/dtls/mbedtls/mbedtls-2.16.2/library\x509write_crt.c ****     strncpy( ctx->not_after , not_after , MBEDTLS_X509_RFC5280_UTC_TIME_LEN );
 119:D:/fchai/work/i-cube/I-CUBE-HUAWEI/Middlewares/Third_Party/Huawei/iot_link/network/dtls/mbedtls/mbedtls-2.16.2/library\x509write_crt.c ****     ctx->not_before[MBEDTLS_X509_RFC5280_UTC_TIME_LEN - 1] = 'Z';
 120:D:/fchai/work/i-cube/I-CUBE-HUAWEI/Middlewares/Third_Party/Huawei/iot_link/network/dtls/mbedtls/mbedtls-2.16.2/library\x509write_crt.c ****     ctx->not_after[MBEDTLS_X509_RFC5280_UTC_TIME_LEN - 1] = 'Z';
 121:D:/fchai/work/i-cube/I-CUBE-HUAWEI/Middlewares/Third_Party/Huawei/iot_link/network/dtls/mbedtls/mbedtls-2.16.2/library\x509write_crt.c **** 
 122:D:/fchai/work/i-cube/I-CUBE-HUAWEI/Middlewares/Third_Party/Huawei/iot_link/network/dtls/mbedtls/mbedtls-2.16.2/library\x509write_crt.c ****     return( 0 );
 123:D:/fchai/work/i-cube/I-CUBE-HUAWEI/Middlewares/Third_Party/Huawei/iot_link/network/dtls/mbedtls/mbedtls-2.16.2/library\x509write_crt.c **** }
 124:D:/fchai/work/i-cube/I-CUBE-HUAWEI/Middlewares/Third_Party/Huawei/iot_link/network/dtls/mbedtls/mbedtls-2.16.2/library\x509write_crt.c **** 
 125:D:/fchai/work/i-cube/I-CUBE-HUAWEI/Middlewares/Third_Party/Huawei/iot_link/network/dtls/mbedtls/mbedtls-2.16.2/library\x509write_crt.c **** int mbedtls_x509write_crt_set_extension( mbedtls_x509write_cert *ctx,
 126:D:/fchai/work/i-cube/I-CUBE-HUAWEI/Middlewares/Third_Party/Huawei/iot_link/network/dtls/mbedtls/mbedtls-2.16.2/library\x509write_crt.c ****                                  const char *oid, size_t oid_len,
 127:D:/fchai/work/i-cube/I-CUBE-HUAWEI/Middlewares/Third_Party/Huawei/iot_link/network/dtls/mbedtls/mbedtls-2.16.2/library\x509write_crt.c ****                                  int critical,
 128:D:/fchai/work/i-cube/I-CUBE-HUAWEI/Middlewares/Third_Party/Huawei/iot_link/network/dtls/mbedtls/mbedtls-2.16.2/library\x509write_crt.c ****                                  const unsigned char *val, size_t val_len )
 129:D:/fchai/work/i-cube/I-CUBE-HUAWEI/Middlewares/Third_Party/Huawei/iot_link/network/dtls/mbedtls/mbedtls-2.16.2/library\x509write_crt.c **** {
 130:D:/fchai/work/i-cube/I-CUBE-HUAWEI/Middlewares/Third_Party/Huawei/iot_link/network/dtls/mbedtls/mbedtls-2.16.2/library\x509write_crt.c ****     return mbedtls_x509_set_extension( &ctx->extensions, oid, oid_len,
 131:D:/fchai/work/i-cube/I-CUBE-HUAWEI/Middlewares/Third_Party/Huawei/iot_link/network/dtls/mbedtls/mbedtls-2.16.2/library\x509write_crt.c ****                                critical, val, val_len );
 132:D:/fchai/work/i-cube/I-CUBE-HUAWEI/Middlewares/Third_Party/Huawei/iot_link/network/dtls/mbedtls/mbedtls-2.16.2/library\x509write_crt.c **** }
 133:D:/fchai/work/i-cube/I-CUBE-HUAWEI/Middlewares/Third_Party/Huawei/iot_link/network/dtls/mbedtls/mbedtls-2.16.2/library\x509write_crt.c **** 
 134:D:/fchai/work/i-cube/I-CUBE-HUAWEI/Middlewares/Third_Party/Huawei/iot_link/network/dtls/mbedtls/mbedtls-2.16.2/library\x509write_crt.c **** int mbedtls_x509write_crt_set_basic_constraints( mbedtls_x509write_cert *ctx,
 135:D:/fchai/work/i-cube/I-CUBE-HUAWEI/Middlewares/Third_Party/Huawei/iot_link/network/dtls/mbedtls/mbedtls-2.16.2/library\x509write_crt.c ****                                          int is_ca, int max_pathlen )
 136:D:/fchai/work/i-cube/I-CUBE-HUAWEI/Middlewares/Third_Party/Huawei/iot_link/network/dtls/mbedtls/mbedtls-2.16.2/library\x509write_crt.c **** {
 137:D:/fchai/work/i-cube/I-CUBE-HUAWEI/Middlewares/Third_Party/Huawei/iot_link/network/dtls/mbedtls/mbedtls-2.16.2/library\x509write_crt.c ****     int ret;
 138:D:/fchai/work/i-cube/I-CUBE-HUAWEI/Middlewares/Third_Party/Huawei/iot_link/network/dtls/mbedtls/mbedtls-2.16.2/library\x509write_crt.c ****     unsigned char buf[9];
 139:D:/fchai/work/i-cube/I-CUBE-HUAWEI/Middlewares/Third_Party/Huawei/iot_link/network/dtls/mbedtls/mbedtls-2.16.2/library\x509write_crt.c ****     unsigned char *c = buf + sizeof(buf);
 140:D:/fchai/work/i-cube/I-CUBE-HUAWEI/Middlewares/Third_Party/Huawei/iot_link/network/dtls/mbedtls/mbedtls-2.16.2/library\x509write_crt.c ****     size_t len = 0;
 141:D:/fchai/work/i-cube/I-CUBE-HUAWEI/Middlewares/Third_Party/Huawei/iot_link/network/dtls/mbedtls/mbedtls-2.16.2/library\x509write_crt.c **** 
 142:D:/fchai/work/i-cube/I-CUBE-HUAWEI/Middlewares/Third_Party/Huawei/iot_link/network/dtls/mbedtls/mbedtls-2.16.2/library\x509write_crt.c ****     memset( buf, 0, sizeof(buf) );
 143:D:/fchai/work/i-cube/I-CUBE-HUAWEI/Middlewares/Third_Party/Huawei/iot_link/network/dtls/mbedtls/mbedtls-2.16.2/library\x509write_crt.c **** 
ARM GAS  T:\msys\tmp\cc1WsHhn.s 			page 4


 144:D:/fchai/work/i-cube/I-CUBE-HUAWEI/Middlewares/Third_Party/Huawei/iot_link/network/dtls/mbedtls/mbedtls-2.16.2/library\x509write_crt.c ****     if( is_ca && max_pathlen > 127 )
 145:D:/fchai/work/i-cube/I-CUBE-HUAWEI/Middlewares/Third_Party/Huawei/iot_link/network/dtls/mbedtls/mbedtls-2.16.2/library\x509write_crt.c ****         return( MBEDTLS_ERR_X509_BAD_INPUT_DATA );
 146:D:/fchai/work/i-cube/I-CUBE-HUAWEI/Middlewares/Third_Party/Huawei/iot_link/network/dtls/mbedtls/mbedtls-2.16.2/library\x509write_crt.c **** 
 147:D:/fchai/work/i-cube/I-CUBE-HUAWEI/Middlewares/Third_Party/Huawei/iot_link/network/dtls/mbedtls/mbedtls-2.16.2/library\x509write_crt.c ****     if( is_ca )
 148:D:/fchai/work/i-cube/I-CUBE-HUAWEI/Middlewares/Third_Party/Huawei/iot_link/network/dtls/mbedtls/mbedtls-2.16.2/library\x509write_crt.c ****     {
 149:D:/fchai/work/i-cube/I-CUBE-HUAWEI/Middlewares/Third_Party/Huawei/iot_link/network/dtls/mbedtls/mbedtls-2.16.2/library\x509write_crt.c ****         if( max_pathlen >= 0 )
 150:D:/fchai/work/i-cube/I-CUBE-HUAWEI/Middlewares/Third_Party/Huawei/iot_link/network/dtls/mbedtls/mbedtls-2.16.2/library\x509write_crt.c ****         {
 151:D:/fchai/work/i-cube/I-CUBE-HUAWEI/Middlewares/Third_Party/Huawei/iot_link/network/dtls/mbedtls/mbedtls-2.16.2/library\x509write_crt.c ****             MBEDTLS_ASN1_CHK_ADD( len, mbedtls_asn1_write_int( &c, buf, max_pathlen ) );
 152:D:/fchai/work/i-cube/I-CUBE-HUAWEI/Middlewares/Third_Party/Huawei/iot_link/network/dtls/mbedtls/mbedtls-2.16.2/library\x509write_crt.c ****         }
 153:D:/fchai/work/i-cube/I-CUBE-HUAWEI/Middlewares/Third_Party/Huawei/iot_link/network/dtls/mbedtls/mbedtls-2.16.2/library\x509write_crt.c ****         MBEDTLS_ASN1_CHK_ADD( len, mbedtls_asn1_write_bool( &c, buf, 1 ) );
 154:D:/fchai/work/i-cube/I-CUBE-HUAWEI/Middlewares/Third_Party/Huawei/iot_link/network/dtls/mbedtls/mbedtls-2.16.2/library\x509write_crt.c ****     }
 155:D:/fchai/work/i-cube/I-CUBE-HUAWEI/Middlewares/Third_Party/Huawei/iot_link/network/dtls/mbedtls/mbedtls-2.16.2/library\x509write_crt.c **** 
 156:D:/fchai/work/i-cube/I-CUBE-HUAWEI/Middlewares/Third_Party/Huawei/iot_link/network/dtls/mbedtls/mbedtls-2.16.2/library\x509write_crt.c ****     MBEDTLS_ASN1_CHK_ADD( len, mbedtls_asn1_write_len( &c, buf, len ) );
 157:D:/fchai/work/i-cube/I-CUBE-HUAWEI/Middlewares/Third_Party/Huawei/iot_link/network/dtls/mbedtls/mbedtls-2.16.2/library\x509write_crt.c ****     MBEDTLS_ASN1_CHK_ADD( len, mbedtls_asn1_write_tag( &c, buf, MBEDTLS_ASN1_CONSTRUCTED |
 158:D:/fchai/work/i-cube/I-CUBE-HUAWEI/Middlewares/Third_Party/Huawei/iot_link/network/dtls/mbedtls/mbedtls-2.16.2/library\x509write_crt.c ****                                                 MBEDTLS_ASN1_SEQUENCE ) );
 159:D:/fchai/work/i-cube/I-CUBE-HUAWEI/Middlewares/Third_Party/Huawei/iot_link/network/dtls/mbedtls/mbedtls-2.16.2/library\x509write_crt.c **** 
 160:D:/fchai/work/i-cube/I-CUBE-HUAWEI/Middlewares/Third_Party/Huawei/iot_link/network/dtls/mbedtls/mbedtls-2.16.2/library\x509write_crt.c ****     return mbedtls_x509write_crt_set_extension( ctx, MBEDTLS_OID_BASIC_CONSTRAINTS,
 161:D:/fchai/work/i-cube/I-CUBE-HUAWEI/Middlewares/Third_Party/Huawei/iot_link/network/dtls/mbedtls/mbedtls-2.16.2/library\x509write_crt.c ****                                         MBEDTLS_OID_SIZE( MBEDTLS_OID_BASIC_CONSTRAINTS ),
 162:D:/fchai/work/i-cube/I-CUBE-HUAWEI/Middlewares/Third_Party/Huawei/iot_link/network/dtls/mbedtls/mbedtls-2.16.2/library\x509write_crt.c ****                                         0, buf + sizeof(buf) - len, len );
 163:D:/fchai/work/i-cube/I-CUBE-HUAWEI/Middlewares/Third_Party/Huawei/iot_link/network/dtls/mbedtls/mbedtls-2.16.2/library\x509write_crt.c **** }
 164:D:/fchai/work/i-cube/I-CUBE-HUAWEI/Middlewares/Third_Party/Huawei/iot_link/network/dtls/mbedtls/mbedtls-2.16.2/library\x509write_crt.c **** 
 165:D:/fchai/work/i-cube/I-CUBE-HUAWEI/Middlewares/Third_Party/Huawei/iot_link/network/dtls/mbedtls/mbedtls-2.16.2/library\x509write_crt.c **** #if defined(MBEDTLS_SHA1_C)
 166:D:/fchai/work/i-cube/I-CUBE-HUAWEI/Middlewares/Third_Party/Huawei/iot_link/network/dtls/mbedtls/mbedtls-2.16.2/library\x509write_crt.c **** int mbedtls_x509write_crt_set_subject_key_identifier( mbedtls_x509write_cert *ctx )
 167:D:/fchai/work/i-cube/I-CUBE-HUAWEI/Middlewares/Third_Party/Huawei/iot_link/network/dtls/mbedtls/mbedtls-2.16.2/library\x509write_crt.c **** {
 168:D:/fchai/work/i-cube/I-CUBE-HUAWEI/Middlewares/Third_Party/Huawei/iot_link/network/dtls/mbedtls/mbedtls-2.16.2/library\x509write_crt.c ****     int ret;
 169:D:/fchai/work/i-cube/I-CUBE-HUAWEI/Middlewares/Third_Party/Huawei/iot_link/network/dtls/mbedtls/mbedtls-2.16.2/library\x509write_crt.c ****     unsigned char buf[MBEDTLS_MPI_MAX_SIZE * 2 + 20]; /* tag, length + 2xMPI */
 170:D:/fchai/work/i-cube/I-CUBE-HUAWEI/Middlewares/Third_Party/Huawei/iot_link/network/dtls/mbedtls/mbedtls-2.16.2/library\x509write_crt.c ****     unsigned char *c = buf + sizeof(buf);
 171:D:/fchai/work/i-cube/I-CUBE-HUAWEI/Middlewares/Third_Party/Huawei/iot_link/network/dtls/mbedtls/mbedtls-2.16.2/library\x509write_crt.c ****     size_t len = 0;
 172:D:/fchai/work/i-cube/I-CUBE-HUAWEI/Middlewares/Third_Party/Huawei/iot_link/network/dtls/mbedtls/mbedtls-2.16.2/library\x509write_crt.c **** 
 173:D:/fchai/work/i-cube/I-CUBE-HUAWEI/Middlewares/Third_Party/Huawei/iot_link/network/dtls/mbedtls/mbedtls-2.16.2/library\x509write_crt.c ****     memset( buf, 0, sizeof(buf) );
 174:D:/fchai/work/i-cube/I-CUBE-HUAWEI/Middlewares/Third_Party/Huawei/iot_link/network/dtls/mbedtls/mbedtls-2.16.2/library\x509write_crt.c ****     MBEDTLS_ASN1_CHK_ADD( len, mbedtls_pk_write_pubkey( &c, buf, ctx->subject_key ) );
 175:D:/fchai/work/i-cube/I-CUBE-HUAWEI/Middlewares/Third_Party/Huawei/iot_link/network/dtls/mbedtls/mbedtls-2.16.2/library\x509write_crt.c **** 
 176:D:/fchai/work/i-cube/I-CUBE-HUAWEI/Middlewares/Third_Party/Huawei/iot_link/network/dtls/mbedtls/mbedtls-2.16.2/library\x509write_crt.c ****     ret = mbedtls_sha1_ret( buf + sizeof( buf ) - len, len,
 177:D:/fchai/work/i-cube/I-CUBE-HUAWEI/Middlewares/Third_Party/Huawei/iot_link/network/dtls/mbedtls/mbedtls-2.16.2/library\x509write_crt.c ****                             buf + sizeof( buf ) - 20 );
 178:D:/fchai/work/i-cube/I-CUBE-HUAWEI/Middlewares/Third_Party/Huawei/iot_link/network/dtls/mbedtls/mbedtls-2.16.2/library\x509write_crt.c ****     if( ret != 0 )
 179:D:/fchai/work/i-cube/I-CUBE-HUAWEI/Middlewares/Third_Party/Huawei/iot_link/network/dtls/mbedtls/mbedtls-2.16.2/library\x509write_crt.c ****         return( ret );
 180:D:/fchai/work/i-cube/I-CUBE-HUAWEI/Middlewares/Third_Party/Huawei/iot_link/network/dtls/mbedtls/mbedtls-2.16.2/library\x509write_crt.c ****     c = buf + sizeof( buf ) - 20;
 181:D:/fchai/work/i-cube/I-CUBE-HUAWEI/Middlewares/Third_Party/Huawei/iot_link/network/dtls/mbedtls/mbedtls-2.16.2/library\x509write_crt.c ****     len = 20;
 182:D:/fchai/work/i-cube/I-CUBE-HUAWEI/Middlewares/Third_Party/Huawei/iot_link/network/dtls/mbedtls/mbedtls-2.16.2/library\x509write_crt.c **** 
 183:D:/fchai/work/i-cube/I-CUBE-HUAWEI/Middlewares/Third_Party/Huawei/iot_link/network/dtls/mbedtls/mbedtls-2.16.2/library\x509write_crt.c ****     MBEDTLS_ASN1_CHK_ADD( len, mbedtls_asn1_write_len( &c, buf, len ) );
 184:D:/fchai/work/i-cube/I-CUBE-HUAWEI/Middlewares/Third_Party/Huawei/iot_link/network/dtls/mbedtls/mbedtls-2.16.2/library\x509write_crt.c ****     MBEDTLS_ASN1_CHK_ADD( len, mbedtls_asn1_write_tag( &c, buf, MBEDTLS_ASN1_OCTET_STRING ) );
 185:D:/fchai/work/i-cube/I-CUBE-HUAWEI/Middlewares/Third_Party/Huawei/iot_link/network/dtls/mbedtls/mbedtls-2.16.2/library\x509write_crt.c **** 
 186:D:/fchai/work/i-cube/I-CUBE-HUAWEI/Middlewares/Third_Party/Huawei/iot_link/network/dtls/mbedtls/mbedtls-2.16.2/library\x509write_crt.c ****     return mbedtls_x509write_crt_set_extension( ctx, MBEDTLS_OID_SUBJECT_KEY_IDENTIFIER,
 187:D:/fchai/work/i-cube/I-CUBE-HUAWEI/Middlewares/Third_Party/Huawei/iot_link/network/dtls/mbedtls/mbedtls-2.16.2/library\x509write_crt.c ****                                         MBEDTLS_OID_SIZE( MBEDTLS_OID_SUBJECT_KEY_IDENTIFIER ),
 188:D:/fchai/work/i-cube/I-CUBE-HUAWEI/Middlewares/Third_Party/Huawei/iot_link/network/dtls/mbedtls/mbedtls-2.16.2/library\x509write_crt.c ****                                         0, buf + sizeof(buf) - len, len );
 189:D:/fchai/work/i-cube/I-CUBE-HUAWEI/Middlewares/Third_Party/Huawei/iot_link/network/dtls/mbedtls/mbedtls-2.16.2/library\x509write_crt.c **** }
 190:D:/fchai/work/i-cube/I-CUBE-HUAWEI/Middlewares/Third_Party/Huawei/iot_link/network/dtls/mbedtls/mbedtls-2.16.2/library\x509write_crt.c **** 
 191:D:/fchai/work/i-cube/I-CUBE-HUAWEI/Middlewares/Third_Party/Huawei/iot_link/network/dtls/mbedtls/mbedtls-2.16.2/library\x509write_crt.c **** int mbedtls_x509write_crt_set_authority_key_identifier( mbedtls_x509write_cert *ctx )
 192:D:/fchai/work/i-cube/I-CUBE-HUAWEI/Middlewares/Third_Party/Huawei/iot_link/network/dtls/mbedtls/mbedtls-2.16.2/library\x509write_crt.c **** {
 193:D:/fchai/work/i-cube/I-CUBE-HUAWEI/Middlewares/Third_Party/Huawei/iot_link/network/dtls/mbedtls/mbedtls-2.16.2/library\x509write_crt.c ****     int ret;
 194:D:/fchai/work/i-cube/I-CUBE-HUAWEI/Middlewares/Third_Party/Huawei/iot_link/network/dtls/mbedtls/mbedtls-2.16.2/library\x509write_crt.c ****     unsigned char buf[MBEDTLS_MPI_MAX_SIZE * 2 + 20]; /* tag, length + 2xMPI */
 195:D:/fchai/work/i-cube/I-CUBE-HUAWEI/Middlewares/Third_Party/Huawei/iot_link/network/dtls/mbedtls/mbedtls-2.16.2/library\x509write_crt.c ****     unsigned char *c = buf + sizeof( buf );
 196:D:/fchai/work/i-cube/I-CUBE-HUAWEI/Middlewares/Third_Party/Huawei/iot_link/network/dtls/mbedtls/mbedtls-2.16.2/library\x509write_crt.c ****     size_t len = 0;
 197:D:/fchai/work/i-cube/I-CUBE-HUAWEI/Middlewares/Third_Party/Huawei/iot_link/network/dtls/mbedtls/mbedtls-2.16.2/library\x509write_crt.c **** 
 198:D:/fchai/work/i-cube/I-CUBE-HUAWEI/Middlewares/Third_Party/Huawei/iot_link/network/dtls/mbedtls/mbedtls-2.16.2/library\x509write_crt.c ****     memset( buf, 0, sizeof(buf) );
 199:D:/fchai/work/i-cube/I-CUBE-HUAWEI/Middlewares/Third_Party/Huawei/iot_link/network/dtls/mbedtls/mbedtls-2.16.2/library\x509write_crt.c ****     MBEDTLS_ASN1_CHK_ADD( len, mbedtls_pk_write_pubkey( &c, buf, ctx->issuer_key ) );
 200:D:/fchai/work/i-cube/I-CUBE-HUAWEI/Middlewares/Third_Party/Huawei/iot_link/network/dtls/mbedtls/mbedtls-2.16.2/library\x509write_crt.c **** 
ARM GAS  T:\msys\tmp\cc1WsHhn.s 			page 5


 201:D:/fchai/work/i-cube/I-CUBE-HUAWEI/Middlewares/Third_Party/Huawei/iot_link/network/dtls/mbedtls/mbedtls-2.16.2/library\x509write_crt.c ****     ret = mbedtls_sha1_ret( buf + sizeof( buf ) - len, len,
 202:D:/fchai/work/i-cube/I-CUBE-HUAWEI/Middlewares/Third_Party/Huawei/iot_link/network/dtls/mbedtls/mbedtls-2.16.2/library\x509write_crt.c ****                             buf + sizeof( buf ) - 20 );
 203:D:/fchai/work/i-cube/I-CUBE-HUAWEI/Middlewares/Third_Party/Huawei/iot_link/network/dtls/mbedtls/mbedtls-2.16.2/library\x509write_crt.c ****     if( ret != 0 )
 204:D:/fchai/work/i-cube/I-CUBE-HUAWEI/Middlewares/Third_Party/Huawei/iot_link/network/dtls/mbedtls/mbedtls-2.16.2/library\x509write_crt.c ****         return( ret );
 205:D:/fchai/work/i-cube/I-CUBE-HUAWEI/Middlewares/Third_Party/Huawei/iot_link/network/dtls/mbedtls/mbedtls-2.16.2/library\x509write_crt.c ****     c = buf + sizeof( buf ) - 20;
 206:D:/fchai/work/i-cube/I-CUBE-HUAWEI/Middlewares/Third_Party/Huawei/iot_link/network/dtls/mbedtls/mbedtls-2.16.2/library\x509write_crt.c ****     len = 20;
 207:D:/fchai/work/i-cube/I-CUBE-HUAWEI/Middlewares/Third_Party/Huawei/iot_link/network/dtls/mbedtls/mbedtls-2.16.2/library\x509write_crt.c **** 
 208:D:/fchai/work/i-cube/I-CUBE-HUAWEI/Middlewares/Third_Party/Huawei/iot_link/network/dtls/mbedtls/mbedtls-2.16.2/library\x509write_crt.c ****     MBEDTLS_ASN1_CHK_ADD( len, mbedtls_asn1_write_len( &c, buf, len ) );
 209:D:/fchai/work/i-cube/I-CUBE-HUAWEI/Middlewares/Third_Party/Huawei/iot_link/network/dtls/mbedtls/mbedtls-2.16.2/library\x509write_crt.c ****     MBEDTLS_ASN1_CHK_ADD( len, mbedtls_asn1_write_tag( &c, buf, MBEDTLS_ASN1_CONTEXT_SPECIFIC | 0 )
 210:D:/fchai/work/i-cube/I-CUBE-HUAWEI/Middlewares/Third_Party/Huawei/iot_link/network/dtls/mbedtls/mbedtls-2.16.2/library\x509write_crt.c **** 
 211:D:/fchai/work/i-cube/I-CUBE-HUAWEI/Middlewares/Third_Party/Huawei/iot_link/network/dtls/mbedtls/mbedtls-2.16.2/library\x509write_crt.c ****     MBEDTLS_ASN1_CHK_ADD( len, mbedtls_asn1_write_len( &c, buf, len ) );
 212:D:/fchai/work/i-cube/I-CUBE-HUAWEI/Middlewares/Third_Party/Huawei/iot_link/network/dtls/mbedtls/mbedtls-2.16.2/library\x509write_crt.c ****     MBEDTLS_ASN1_CHK_ADD( len, mbedtls_asn1_write_tag( &c, buf, MBEDTLS_ASN1_CONSTRUCTED |
 213:D:/fchai/work/i-cube/I-CUBE-HUAWEI/Middlewares/Third_Party/Huawei/iot_link/network/dtls/mbedtls/mbedtls-2.16.2/library\x509write_crt.c ****                                                 MBEDTLS_ASN1_SEQUENCE ) );
 214:D:/fchai/work/i-cube/I-CUBE-HUAWEI/Middlewares/Third_Party/Huawei/iot_link/network/dtls/mbedtls/mbedtls-2.16.2/library\x509write_crt.c **** 
 215:D:/fchai/work/i-cube/I-CUBE-HUAWEI/Middlewares/Third_Party/Huawei/iot_link/network/dtls/mbedtls/mbedtls-2.16.2/library\x509write_crt.c ****     return mbedtls_x509write_crt_set_extension( ctx, MBEDTLS_OID_AUTHORITY_KEY_IDENTIFIER,
 216:D:/fchai/work/i-cube/I-CUBE-HUAWEI/Middlewares/Third_Party/Huawei/iot_link/network/dtls/mbedtls/mbedtls-2.16.2/library\x509write_crt.c ****                                    MBEDTLS_OID_SIZE( MBEDTLS_OID_AUTHORITY_KEY_IDENTIFIER ),
 217:D:/fchai/work/i-cube/I-CUBE-HUAWEI/Middlewares/Third_Party/Huawei/iot_link/network/dtls/mbedtls/mbedtls-2.16.2/library\x509write_crt.c ****                                    0, buf + sizeof( buf ) - len, len );
 218:D:/fchai/work/i-cube/I-CUBE-HUAWEI/Middlewares/Third_Party/Huawei/iot_link/network/dtls/mbedtls/mbedtls-2.16.2/library\x509write_crt.c **** }
 219:D:/fchai/work/i-cube/I-CUBE-HUAWEI/Middlewares/Third_Party/Huawei/iot_link/network/dtls/mbedtls/mbedtls-2.16.2/library\x509write_crt.c **** #endif /* MBEDTLS_SHA1_C */
 220:D:/fchai/work/i-cube/I-CUBE-HUAWEI/Middlewares/Third_Party/Huawei/iot_link/network/dtls/mbedtls/mbedtls-2.16.2/library\x509write_crt.c **** 
 221:D:/fchai/work/i-cube/I-CUBE-HUAWEI/Middlewares/Third_Party/Huawei/iot_link/network/dtls/mbedtls/mbedtls-2.16.2/library\x509write_crt.c **** static size_t crt_get_unused_bits_for_named_bitstring( unsigned char bitstring,
 222:D:/fchai/work/i-cube/I-CUBE-HUAWEI/Middlewares/Third_Party/Huawei/iot_link/network/dtls/mbedtls/mbedtls-2.16.2/library\x509write_crt.c ****                                                        size_t bit_offset )
 223:D:/fchai/work/i-cube/I-CUBE-HUAWEI/Middlewares/Third_Party/Huawei/iot_link/network/dtls/mbedtls/mbedtls-2.16.2/library\x509write_crt.c **** {
 224:D:/fchai/work/i-cube/I-CUBE-HUAWEI/Middlewares/Third_Party/Huawei/iot_link/network/dtls/mbedtls/mbedtls-2.16.2/library\x509write_crt.c ****     size_t unused_bits;
 225:D:/fchai/work/i-cube/I-CUBE-HUAWEI/Middlewares/Third_Party/Huawei/iot_link/network/dtls/mbedtls/mbedtls-2.16.2/library\x509write_crt.c **** 
 226:D:/fchai/work/i-cube/I-CUBE-HUAWEI/Middlewares/Third_Party/Huawei/iot_link/network/dtls/mbedtls/mbedtls-2.16.2/library\x509write_crt.c ****      /* Count the unused bits removing trailing 0s */
 227:D:/fchai/work/i-cube/I-CUBE-HUAWEI/Middlewares/Third_Party/Huawei/iot_link/network/dtls/mbedtls/mbedtls-2.16.2/library\x509write_crt.c ****     for( unused_bits = bit_offset; unused_bits < 8; unused_bits++ )
 228:D:/fchai/work/i-cube/I-CUBE-HUAWEI/Middlewares/Third_Party/Huawei/iot_link/network/dtls/mbedtls/mbedtls-2.16.2/library\x509write_crt.c ****         if( ( ( bitstring >> unused_bits ) & 0x1 ) != 0 )
 229:D:/fchai/work/i-cube/I-CUBE-HUAWEI/Middlewares/Third_Party/Huawei/iot_link/network/dtls/mbedtls/mbedtls-2.16.2/library\x509write_crt.c ****             break;
 230:D:/fchai/work/i-cube/I-CUBE-HUAWEI/Middlewares/Third_Party/Huawei/iot_link/network/dtls/mbedtls/mbedtls-2.16.2/library\x509write_crt.c **** 
 231:D:/fchai/work/i-cube/I-CUBE-HUAWEI/Middlewares/Third_Party/Huawei/iot_link/network/dtls/mbedtls/mbedtls-2.16.2/library\x509write_crt.c ****      return( unused_bits );
 232:D:/fchai/work/i-cube/I-CUBE-HUAWEI/Middlewares/Third_Party/Huawei/iot_link/network/dtls/mbedtls/mbedtls-2.16.2/library\x509write_crt.c **** }
 233:D:/fchai/work/i-cube/I-CUBE-HUAWEI/Middlewares/Third_Party/Huawei/iot_link/network/dtls/mbedtls/mbedtls-2.16.2/library\x509write_crt.c **** 
 234:D:/fchai/work/i-cube/I-CUBE-HUAWEI/Middlewares/Third_Party/Huawei/iot_link/network/dtls/mbedtls/mbedtls-2.16.2/library\x509write_crt.c **** int mbedtls_x509write_crt_set_key_usage( mbedtls_x509write_cert *ctx,
 235:D:/fchai/work/i-cube/I-CUBE-HUAWEI/Middlewares/Third_Party/Huawei/iot_link/network/dtls/mbedtls/mbedtls-2.16.2/library\x509write_crt.c ****                                          unsigned int key_usage )
 236:D:/fchai/work/i-cube/I-CUBE-HUAWEI/Middlewares/Third_Party/Huawei/iot_link/network/dtls/mbedtls/mbedtls-2.16.2/library\x509write_crt.c **** {
 237:D:/fchai/work/i-cube/I-CUBE-HUAWEI/Middlewares/Third_Party/Huawei/iot_link/network/dtls/mbedtls/mbedtls-2.16.2/library\x509write_crt.c ****     unsigned char buf[4], ku;
 238:D:/fchai/work/i-cube/I-CUBE-HUAWEI/Middlewares/Third_Party/Huawei/iot_link/network/dtls/mbedtls/mbedtls-2.16.2/library\x509write_crt.c ****     unsigned char *c;
 239:D:/fchai/work/i-cube/I-CUBE-HUAWEI/Middlewares/Third_Party/Huawei/iot_link/network/dtls/mbedtls/mbedtls-2.16.2/library\x509write_crt.c ****     int ret;
 240:D:/fchai/work/i-cube/I-CUBE-HUAWEI/Middlewares/Third_Party/Huawei/iot_link/network/dtls/mbedtls/mbedtls-2.16.2/library\x509write_crt.c ****     size_t unused_bits;
 241:D:/fchai/work/i-cube/I-CUBE-HUAWEI/Middlewares/Third_Party/Huawei/iot_link/network/dtls/mbedtls/mbedtls-2.16.2/library\x509write_crt.c ****     const unsigned int allowed_bits = MBEDTLS_X509_KU_DIGITAL_SIGNATURE |
 242:D:/fchai/work/i-cube/I-CUBE-HUAWEI/Middlewares/Third_Party/Huawei/iot_link/network/dtls/mbedtls/mbedtls-2.16.2/library\x509write_crt.c ****         MBEDTLS_X509_KU_NON_REPUDIATION   |
 243:D:/fchai/work/i-cube/I-CUBE-HUAWEI/Middlewares/Third_Party/Huawei/iot_link/network/dtls/mbedtls/mbedtls-2.16.2/library\x509write_crt.c ****         MBEDTLS_X509_KU_KEY_ENCIPHERMENT  |
 244:D:/fchai/work/i-cube/I-CUBE-HUAWEI/Middlewares/Third_Party/Huawei/iot_link/network/dtls/mbedtls/mbedtls-2.16.2/library\x509write_crt.c ****         MBEDTLS_X509_KU_DATA_ENCIPHERMENT |
 245:D:/fchai/work/i-cube/I-CUBE-HUAWEI/Middlewares/Third_Party/Huawei/iot_link/network/dtls/mbedtls/mbedtls-2.16.2/library\x509write_crt.c ****         MBEDTLS_X509_KU_KEY_AGREEMENT     |
 246:D:/fchai/work/i-cube/I-CUBE-HUAWEI/Middlewares/Third_Party/Huawei/iot_link/network/dtls/mbedtls/mbedtls-2.16.2/library\x509write_crt.c ****         MBEDTLS_X509_KU_KEY_CERT_SIGN     |
 247:D:/fchai/work/i-cube/I-CUBE-HUAWEI/Middlewares/Third_Party/Huawei/iot_link/network/dtls/mbedtls/mbedtls-2.16.2/library\x509write_crt.c ****         MBEDTLS_X509_KU_CRL_SIGN;
 248:D:/fchai/work/i-cube/I-CUBE-HUAWEI/Middlewares/Third_Party/Huawei/iot_link/network/dtls/mbedtls/mbedtls-2.16.2/library\x509write_crt.c **** 
 249:D:/fchai/work/i-cube/I-CUBE-HUAWEI/Middlewares/Third_Party/Huawei/iot_link/network/dtls/mbedtls/mbedtls-2.16.2/library\x509write_crt.c ****     /* Check that nothing other than the allowed flags is set */
 250:D:/fchai/work/i-cube/I-CUBE-HUAWEI/Middlewares/Third_Party/Huawei/iot_link/network/dtls/mbedtls/mbedtls-2.16.2/library\x509write_crt.c ****     if( ( key_usage & ~allowed_bits ) != 0 )
 251:D:/fchai/work/i-cube/I-CUBE-HUAWEI/Middlewares/Third_Party/Huawei/iot_link/network/dtls/mbedtls/mbedtls-2.16.2/library\x509write_crt.c ****         return( MBEDTLS_ERR_X509_FEATURE_UNAVAILABLE );
 252:D:/fchai/work/i-cube/I-CUBE-HUAWEI/Middlewares/Third_Party/Huawei/iot_link/network/dtls/mbedtls/mbedtls-2.16.2/library\x509write_crt.c **** 
 253:D:/fchai/work/i-cube/I-CUBE-HUAWEI/Middlewares/Third_Party/Huawei/iot_link/network/dtls/mbedtls/mbedtls-2.16.2/library\x509write_crt.c ****     c = buf + 4;
 254:D:/fchai/work/i-cube/I-CUBE-HUAWEI/Middlewares/Third_Party/Huawei/iot_link/network/dtls/mbedtls/mbedtls-2.16.2/library\x509write_crt.c ****     ku = (unsigned char)key_usage;
 255:D:/fchai/work/i-cube/I-CUBE-HUAWEI/Middlewares/Third_Party/Huawei/iot_link/network/dtls/mbedtls/mbedtls-2.16.2/library\x509write_crt.c ****     unused_bits = crt_get_unused_bits_for_named_bitstring( ku, 1 );
 256:D:/fchai/work/i-cube/I-CUBE-HUAWEI/Middlewares/Third_Party/Huawei/iot_link/network/dtls/mbedtls/mbedtls-2.16.2/library\x509write_crt.c ****     ret = mbedtls_asn1_write_bitstring( &c, buf, &ku, 8 - unused_bits );
 257:D:/fchai/work/i-cube/I-CUBE-HUAWEI/Middlewares/Third_Party/Huawei/iot_link/network/dtls/mbedtls/mbedtls-2.16.2/library\x509write_crt.c **** 
ARM GAS  T:\msys\tmp\cc1WsHhn.s 			page 6


 258:D:/fchai/work/i-cube/I-CUBE-HUAWEI/Middlewares/Third_Party/Huawei/iot_link/network/dtls/mbedtls/mbedtls-2.16.2/library\x509write_crt.c ****     if( ret < 0 )
 259:D:/fchai/work/i-cube/I-CUBE-HUAWEI/Middlewares/Third_Party/Huawei/iot_link/network/dtls/mbedtls/mbedtls-2.16.2/library\x509write_crt.c ****         return( ret );
 260:D:/fchai/work/i-cube/I-CUBE-HUAWEI/Middlewares/Third_Party/Huawei/iot_link/network/dtls/mbedtls/mbedtls-2.16.2/library\x509write_crt.c ****     else if( ret < 3 || ret > 4 )
 261:D:/fchai/work/i-cube/I-CUBE-HUAWEI/Middlewares/Third_Party/Huawei/iot_link/network/dtls/mbedtls/mbedtls-2.16.2/library\x509write_crt.c ****         return( MBEDTLS_ERR_X509_INVALID_FORMAT );
 262:D:/fchai/work/i-cube/I-CUBE-HUAWEI/Middlewares/Third_Party/Huawei/iot_link/network/dtls/mbedtls/mbedtls-2.16.2/library\x509write_crt.c **** 
 263:D:/fchai/work/i-cube/I-CUBE-HUAWEI/Middlewares/Third_Party/Huawei/iot_link/network/dtls/mbedtls/mbedtls-2.16.2/library\x509write_crt.c ****     ret = mbedtls_x509write_crt_set_extension( ctx, MBEDTLS_OID_KEY_USAGE,
 264:D:/fchai/work/i-cube/I-CUBE-HUAWEI/Middlewares/Third_Party/Huawei/iot_link/network/dtls/mbedtls/mbedtls-2.16.2/library\x509write_crt.c ****                                        MBEDTLS_OID_SIZE( MBEDTLS_OID_KEY_USAGE ),
 265:D:/fchai/work/i-cube/I-CUBE-HUAWEI/Middlewares/Third_Party/Huawei/iot_link/network/dtls/mbedtls/mbedtls-2.16.2/library\x509write_crt.c ****                                        1, c, (size_t)ret );
 266:D:/fchai/work/i-cube/I-CUBE-HUAWEI/Middlewares/Third_Party/Huawei/iot_link/network/dtls/mbedtls/mbedtls-2.16.2/library\x509write_crt.c ****     if( ret != 0 )
 267:D:/fchai/work/i-cube/I-CUBE-HUAWEI/Middlewares/Third_Party/Huawei/iot_link/network/dtls/mbedtls/mbedtls-2.16.2/library\x509write_crt.c ****         return( ret );
 268:D:/fchai/work/i-cube/I-CUBE-HUAWEI/Middlewares/Third_Party/Huawei/iot_link/network/dtls/mbedtls/mbedtls-2.16.2/library\x509write_crt.c **** 
 269:D:/fchai/work/i-cube/I-CUBE-HUAWEI/Middlewares/Third_Party/Huawei/iot_link/network/dtls/mbedtls/mbedtls-2.16.2/library\x509write_crt.c ****     return( 0 );
 270:D:/fchai/work/i-cube/I-CUBE-HUAWEI/Middlewares/Third_Party/Huawei/iot_link/network/dtls/mbedtls/mbedtls-2.16.2/library\x509write_crt.c **** }
 271:D:/fchai/work/i-cube/I-CUBE-HUAWEI/Middlewares/Third_Party/Huawei/iot_link/network/dtls/mbedtls/mbedtls-2.16.2/library\x509write_crt.c **** 
 272:D:/fchai/work/i-cube/I-CUBE-HUAWEI/Middlewares/Third_Party/Huawei/iot_link/network/dtls/mbedtls/mbedtls-2.16.2/library\x509write_crt.c **** int mbedtls_x509write_crt_set_ns_cert_type( mbedtls_x509write_cert *ctx,
 273:D:/fchai/work/i-cube/I-CUBE-HUAWEI/Middlewares/Third_Party/Huawei/iot_link/network/dtls/mbedtls/mbedtls-2.16.2/library\x509write_crt.c ****                                     unsigned char ns_cert_type )
 274:D:/fchai/work/i-cube/I-CUBE-HUAWEI/Middlewares/Third_Party/Huawei/iot_link/network/dtls/mbedtls/mbedtls-2.16.2/library\x509write_crt.c **** {
 275:D:/fchai/work/i-cube/I-CUBE-HUAWEI/Middlewares/Third_Party/Huawei/iot_link/network/dtls/mbedtls/mbedtls-2.16.2/library\x509write_crt.c ****     unsigned char buf[4];
 276:D:/fchai/work/i-cube/I-CUBE-HUAWEI/Middlewares/Third_Party/Huawei/iot_link/network/dtls/mbedtls/mbedtls-2.16.2/library\x509write_crt.c ****     unsigned char *c;
 277:D:/fchai/work/i-cube/I-CUBE-HUAWEI/Middlewares/Third_Party/Huawei/iot_link/network/dtls/mbedtls/mbedtls-2.16.2/library\x509write_crt.c ****     size_t unused_bits;
 278:D:/fchai/work/i-cube/I-CUBE-HUAWEI/Middlewares/Third_Party/Huawei/iot_link/network/dtls/mbedtls/mbedtls-2.16.2/library\x509write_crt.c ****     int ret;
 279:D:/fchai/work/i-cube/I-CUBE-HUAWEI/Middlewares/Third_Party/Huawei/iot_link/network/dtls/mbedtls/mbedtls-2.16.2/library\x509write_crt.c **** 
 280:D:/fchai/work/i-cube/I-CUBE-HUAWEI/Middlewares/Third_Party/Huawei/iot_link/network/dtls/mbedtls/mbedtls-2.16.2/library\x509write_crt.c ****     c = buf + 4;
 281:D:/fchai/work/i-cube/I-CUBE-HUAWEI/Middlewares/Third_Party/Huawei/iot_link/network/dtls/mbedtls/mbedtls-2.16.2/library\x509write_crt.c **** 
 282:D:/fchai/work/i-cube/I-CUBE-HUAWEI/Middlewares/Third_Party/Huawei/iot_link/network/dtls/mbedtls/mbedtls-2.16.2/library\x509write_crt.c ****     unused_bits = crt_get_unused_bits_for_named_bitstring( ns_cert_type, 0 );
 283:D:/fchai/work/i-cube/I-CUBE-HUAWEI/Middlewares/Third_Party/Huawei/iot_link/network/dtls/mbedtls/mbedtls-2.16.2/library\x509write_crt.c ****     ret = mbedtls_asn1_write_bitstring( &c,
 284:D:/fchai/work/i-cube/I-CUBE-HUAWEI/Middlewares/Third_Party/Huawei/iot_link/network/dtls/mbedtls/mbedtls-2.16.2/library\x509write_crt.c ****                                         buf,
 285:D:/fchai/work/i-cube/I-CUBE-HUAWEI/Middlewares/Third_Party/Huawei/iot_link/network/dtls/mbedtls/mbedtls-2.16.2/library\x509write_crt.c ****                                         &ns_cert_type,
 286:D:/fchai/work/i-cube/I-CUBE-HUAWEI/Middlewares/Third_Party/Huawei/iot_link/network/dtls/mbedtls/mbedtls-2.16.2/library\x509write_crt.c ****                                         8 - unused_bits );
 287:D:/fchai/work/i-cube/I-CUBE-HUAWEI/Middlewares/Third_Party/Huawei/iot_link/network/dtls/mbedtls/mbedtls-2.16.2/library\x509write_crt.c ****     if( ret < 3 || ret > 4 )
 288:D:/fchai/work/i-cube/I-CUBE-HUAWEI/Middlewares/Third_Party/Huawei/iot_link/network/dtls/mbedtls/mbedtls-2.16.2/library\x509write_crt.c ****         return( ret );
 289:D:/fchai/work/i-cube/I-CUBE-HUAWEI/Middlewares/Third_Party/Huawei/iot_link/network/dtls/mbedtls/mbedtls-2.16.2/library\x509write_crt.c **** 
 290:D:/fchai/work/i-cube/I-CUBE-HUAWEI/Middlewares/Third_Party/Huawei/iot_link/network/dtls/mbedtls/mbedtls-2.16.2/library\x509write_crt.c ****     ret = mbedtls_x509write_crt_set_extension( ctx, MBEDTLS_OID_NS_CERT_TYPE,
 291:D:/fchai/work/i-cube/I-CUBE-HUAWEI/Middlewares/Third_Party/Huawei/iot_link/network/dtls/mbedtls/mbedtls-2.16.2/library\x509write_crt.c ****                                        MBEDTLS_OID_SIZE( MBEDTLS_OID_NS_CERT_TYPE ),
 292:D:/fchai/work/i-cube/I-CUBE-HUAWEI/Middlewares/Third_Party/Huawei/iot_link/network/dtls/mbedtls/mbedtls-2.16.2/library\x509write_crt.c ****                                        0, c, (size_t)ret );
 293:D:/fchai/work/i-cube/I-CUBE-HUAWEI/Middlewares/Third_Party/Huawei/iot_link/network/dtls/mbedtls/mbedtls-2.16.2/library\x509write_crt.c ****     if( ret != 0 )
 294:D:/fchai/work/i-cube/I-CUBE-HUAWEI/Middlewares/Third_Party/Huawei/iot_link/network/dtls/mbedtls/mbedtls-2.16.2/library\x509write_crt.c ****         return( ret );
 295:D:/fchai/work/i-cube/I-CUBE-HUAWEI/Middlewares/Third_Party/Huawei/iot_link/network/dtls/mbedtls/mbedtls-2.16.2/library\x509write_crt.c **** 
 296:D:/fchai/work/i-cube/I-CUBE-HUAWEI/Middlewares/Third_Party/Huawei/iot_link/network/dtls/mbedtls/mbedtls-2.16.2/library\x509write_crt.c ****     return( 0 );
 297:D:/fchai/work/i-cube/I-CUBE-HUAWEI/Middlewares/Third_Party/Huawei/iot_link/network/dtls/mbedtls/mbedtls-2.16.2/library\x509write_crt.c **** }
 298:D:/fchai/work/i-cube/I-CUBE-HUAWEI/Middlewares/Third_Party/Huawei/iot_link/network/dtls/mbedtls/mbedtls-2.16.2/library\x509write_crt.c **** 
 299:D:/fchai/work/i-cube/I-CUBE-HUAWEI/Middlewares/Third_Party/Huawei/iot_link/network/dtls/mbedtls/mbedtls-2.16.2/library\x509write_crt.c **** static int x509_write_time( unsigned char **p, unsigned char *start,
  30              		.loc 1 299 12 view -0
  31              		.cfi_startproc
  32              		@ args = 0, pretend = 0, frame = 0
  33              		@ frame_needed = 0, uses_anonymous_args = 0
 300:D:/fchai/work/i-cube/I-CUBE-HUAWEI/Middlewares/Third_Party/Huawei/iot_link/network/dtls/mbedtls/mbedtls-2.16.2/library\x509write_crt.c ****                             const char *t, size_t size )
 301:D:/fchai/work/i-cube/I-CUBE-HUAWEI/Middlewares/Third_Party/Huawei/iot_link/network/dtls/mbedtls/mbedtls-2.16.2/library\x509write_crt.c **** {
 302:D:/fchai/work/i-cube/I-CUBE-HUAWEI/Middlewares/Third_Party/Huawei/iot_link/network/dtls/mbedtls/mbedtls-2.16.2/library\x509write_crt.c ****     int ret;
  34              		.loc 1 302 5 view .LVU1
 303:D:/fchai/work/i-cube/I-CUBE-HUAWEI/Middlewares/Third_Party/Huawei/iot_link/network/dtls/mbedtls/mbedtls-2.16.2/library\x509write_crt.c ****     size_t len = 0;
  35              		.loc 1 303 5 view .LVU2
 304:D:/fchai/work/i-cube/I-CUBE-HUAWEI/Middlewares/Third_Party/Huawei/iot_link/network/dtls/mbedtls/mbedtls-2.16.2/library\x509write_crt.c **** 
 305:D:/fchai/work/i-cube/I-CUBE-HUAWEI/Middlewares/Third_Party/Huawei/iot_link/network/dtls/mbedtls/mbedtls-2.16.2/library\x509write_crt.c ****     /*
 306:D:/fchai/work/i-cube/I-CUBE-HUAWEI/Middlewares/Third_Party/Huawei/iot_link/network/dtls/mbedtls/mbedtls-2.16.2/library\x509write_crt.c ****      * write MBEDTLS_ASN1_UTC_TIME if year < 2050 (2 bytes shorter)
 307:D:/fchai/work/i-cube/I-CUBE-HUAWEI/Middlewares/Third_Party/Huawei/iot_link/network/dtls/mbedtls/mbedtls-2.16.2/library\x509write_crt.c ****      */
 308:D:/fchai/work/i-cube/I-CUBE-HUAWEI/Middlewares/Third_Party/Huawei/iot_link/network/dtls/mbedtls/mbedtls-2.16.2/library\x509write_crt.c ****     if( t[0] == '2' && t[1] == '0' && t[2] < '5' )
ARM GAS  T:\msys\tmp\cc1WsHhn.s 			page 7


  36              		.loc 1 308 5 view .LVU3
 299:D:/fchai/work/i-cube/I-CUBE-HUAWEI/Middlewares/Third_Party/Huawei/iot_link/network/dtls/mbedtls/mbedtls-2.16.2/library\x509write_crt.c ****                             const char *t, size_t size )
  37              		.loc 1 299 12 is_stmt 0 view .LVU4
  38 0000 F8B5     		push	{r3, r4, r5, r6, r7, lr}
  39              	.LCFI0:
  40              		.cfi_def_cfa_offset 24
  41              		.cfi_offset 3, -24
  42              		.cfi_offset 4, -20
  43              		.cfi_offset 5, -16
  44              		.cfi_offset 6, -12
  45              		.cfi_offset 7, -8
  46              		.cfi_offset 14, -4
  47              		.loc 1 308 7 view .LVU5
  48 0002 1378     		ldrb	r3, [r2]	@ zero_extendqisi2
  49 0004 322B     		cmp	r3, #50
 299:D:/fchai/work/i-cube/I-CUBE-HUAWEI/Middlewares/Third_Party/Huawei/iot_link/network/dtls/mbedtls/mbedtls-2.16.2/library\x509write_crt.c ****                             const char *t, size_t size )
  50              		.loc 1 299 12 view .LVU6
  51 0006 0546     		mov	r5, r0
  52 0008 0E46     		mov	r6, r1
  53              		.loc 1 308 7 view .LVU7
  54 000a 02D1     		bne	.L2
  55              		.loc 1 308 21 view .LVU8
  56 000c 5378     		ldrb	r3, [r2, #1]	@ zero_extendqisi2
  57 000e 302B     		cmp	r3, #48
  58 0010 19D0     		beq	.L10
  59              	.L2:
 309:D:/fchai/work/i-cube/I-CUBE-HUAWEI/Middlewares/Third_Party/Huawei/iot_link/network/dtls/mbedtls/mbedtls-2.16.2/library\x509write_crt.c ****     {
 310:D:/fchai/work/i-cube/I-CUBE-HUAWEI/Middlewares/Third_Party/Huawei/iot_link/network/dtls/mbedtls/mbedtls-2.16.2/library\x509write_crt.c ****         MBEDTLS_ASN1_CHK_ADD( len, mbedtls_asn1_write_raw_buffer( p, start,
 311:D:/fchai/work/i-cube/I-CUBE-HUAWEI/Middlewares/Third_Party/Huawei/iot_link/network/dtls/mbedtls/mbedtls-2.16.2/library\x509write_crt.c ****                                              (const unsigned char *) t + 2,
 312:D:/fchai/work/i-cube/I-CUBE-HUAWEI/Middlewares/Third_Party/Huawei/iot_link/network/dtls/mbedtls/mbedtls-2.16.2/library\x509write_crt.c ****                                              size - 2 ) );
 313:D:/fchai/work/i-cube/I-CUBE-HUAWEI/Middlewares/Third_Party/Huawei/iot_link/network/dtls/mbedtls/mbedtls-2.16.2/library\x509write_crt.c ****         MBEDTLS_ASN1_CHK_ADD( len, mbedtls_asn1_write_len( p, start, len ) );
 314:D:/fchai/work/i-cube/I-CUBE-HUAWEI/Middlewares/Third_Party/Huawei/iot_link/network/dtls/mbedtls/mbedtls-2.16.2/library\x509write_crt.c ****         MBEDTLS_ASN1_CHK_ADD( len, mbedtls_asn1_write_tag( p, start, MBEDTLS_ASN1_UTC_TIME ) );
 315:D:/fchai/work/i-cube/I-CUBE-HUAWEI/Middlewares/Third_Party/Huawei/iot_link/network/dtls/mbedtls/mbedtls-2.16.2/library\x509write_crt.c ****     }
 316:D:/fchai/work/i-cube/I-CUBE-HUAWEI/Middlewares/Third_Party/Huawei/iot_link/network/dtls/mbedtls/mbedtls-2.16.2/library\x509write_crt.c ****     else
 317:D:/fchai/work/i-cube/I-CUBE-HUAWEI/Middlewares/Third_Party/Huawei/iot_link/network/dtls/mbedtls/mbedtls-2.16.2/library\x509write_crt.c ****     {
 318:D:/fchai/work/i-cube/I-CUBE-HUAWEI/Middlewares/Third_Party/Huawei/iot_link/network/dtls/mbedtls/mbedtls-2.16.2/library\x509write_crt.c ****         MBEDTLS_ASN1_CHK_ADD( len, mbedtls_asn1_write_raw_buffer( p, start,
  60              		.loc 1 318 9 is_stmt 1 view .LVU9
  61              		.loc 1 318 9 view .LVU10
  62 0012 0F23     		movs	r3, #15
  63 0014 3146     		mov	r1, r6
  64              	.LVL1:
  65              		.loc 1 318 9 is_stmt 0 view .LVU11
  66 0016 2846     		mov	r0, r5
  67              	.LVL2:
  68              		.loc 1 318 9 view .LVU12
  69 0018 FFF7FEFF 		bl	mbedtls_asn1_write_raw_buffer
  70              	.LVL3:
  71              		.loc 1 318 9 view .LVU13
  72 001c 041E     		subs	r4, r0, #0
  73 001e 10DB     		blt	.L1
  74              		.loc 1 318 9 is_stmt 1 view .LVU14
 319:D:/fchai/work/i-cube/I-CUBE-HUAWEI/Middlewares/Third_Party/Huawei/iot_link/network/dtls/mbedtls/mbedtls-2.16.2/library\x509write_crt.c ****                                                   (const unsigned char *) t,
 320:D:/fchai/work/i-cube/I-CUBE-HUAWEI/Middlewares/Third_Party/Huawei/iot_link/network/dtls/mbedtls/mbedtls-2.16.2/library\x509write_crt.c ****                                                   size ) );
 321:D:/fchai/work/i-cube/I-CUBE-HUAWEI/Middlewares/Third_Party/Huawei/iot_link/network/dtls/mbedtls/mbedtls-2.16.2/library\x509write_crt.c ****         MBEDTLS_ASN1_CHK_ADD( len, mbedtls_asn1_write_len( p, start, len ) );
  75              		.loc 1 321 9 is_stmt 0 view .LVU15
  76 0020 2246     		mov	r2, r4
  77 0022 3146     		mov	r1, r6
ARM GAS  T:\msys\tmp\cc1WsHhn.s 			page 8


  78 0024 2846     		mov	r0, r5
  79              	.LVL4:
  80              		.loc 1 321 9 view .LVU16
  81 0026 FFF7FEFF 		bl	mbedtls_asn1_write_len
  82              	.LVL5:
 318:D:/fchai/work/i-cube/I-CUBE-HUAWEI/Middlewares/Third_Party/Huawei/iot_link/network/dtls/mbedtls/mbedtls-2.16.2/library\x509write_crt.c ****                                                   (const unsigned char *) t,
  83              		.loc 1 318 9 view .LVU17
  84 002a 2746     		mov	r7, r4
  85              	.LVL6:
 318:D:/fchai/work/i-cube/I-CUBE-HUAWEI/Middlewares/Third_Party/Huawei/iot_link/network/dtls/mbedtls/mbedtls-2.16.2/library\x509write_crt.c ****                                                   (const unsigned char *) t,
  86              		.loc 1 318 9 is_stmt 1 view .LVU18
  87              		.loc 1 321 9 view .LVU19
  88              		.loc 1 321 9 view .LVU20
  89              		.loc 1 321 9 is_stmt 0 view .LVU21
  90 002c 041E     		subs	r4, r0, #0
  91              	.LVL7:
  92              		.loc 1 321 9 view .LVU22
  93 002e 08DB     		blt	.L1
  94              		.loc 1 321 9 is_stmt 1 view .LVU23
  95              	.LVL8:
  96              		.loc 1 321 9 view .LVU24
 322:D:/fchai/work/i-cube/I-CUBE-HUAWEI/Middlewares/Third_Party/Huawei/iot_link/network/dtls/mbedtls/mbedtls-2.16.2/library\x509write_crt.c ****         MBEDTLS_ASN1_CHK_ADD( len, mbedtls_asn1_write_tag( p, start, MBEDTLS_ASN1_GENERALIZED_TIME 
  97              		.loc 1 322 9 view .LVU25
  98              		.loc 1 322 9 view .LVU26
  99 0030 3146     		mov	r1, r6
 100 0032 2846     		mov	r0, r5
 101              	.LVL9:
 102              		.loc 1 322 9 is_stmt 0 view .LVU27
 103 0034 1822     		movs	r2, #24
 104 0036 FFF7FEFF 		bl	mbedtls_asn1_write_tag
 105              	.LVL10:
 106              		.loc 1 322 9 view .LVU28
 107 003a 0028     		cmp	r0, #0
 108              		.loc 1 322 9 view .LVU29
 109 003c 1BDB     		blt	.L6
 110              	.LVL11:
 111              	.L8:
 112              		.loc 1 322 9 is_stmt 1 view .LVU30
 321:D:/fchai/work/i-cube/I-CUBE-HUAWEI/Middlewares/Third_Party/Huawei/iot_link/network/dtls/mbedtls/mbedtls-2.16.2/library\x509write_crt.c ****         MBEDTLS_ASN1_CHK_ADD( len, mbedtls_asn1_write_tag( p, start, MBEDTLS_ASN1_GENERALIZED_TIME 
 113              		.loc 1 321 9 is_stmt 0 view .LVU31
 114 003e 3C44     		add	r4, r4, r7
 115              		.loc 1 322 9 view .LVU32
 116 0040 0444     		add	r4, r4, r0
 117              	.LVL12:
 118              		.loc 1 322 9 is_stmt 1 view .LVU33
 323:D:/fchai/work/i-cube/I-CUBE-HUAWEI/Middlewares/Third_Party/Huawei/iot_link/network/dtls/mbedtls/mbedtls-2.16.2/library\x509write_crt.c ****     }
 324:D:/fchai/work/i-cube/I-CUBE-HUAWEI/Middlewares/Third_Party/Huawei/iot_link/network/dtls/mbedtls/mbedtls-2.16.2/library\x509write_crt.c **** 
 325:D:/fchai/work/i-cube/I-CUBE-HUAWEI/Middlewares/Third_Party/Huawei/iot_link/network/dtls/mbedtls/mbedtls-2.16.2/library\x509write_crt.c ****     return( (int) len );
 119              		.loc 1 325 5 view .LVU34
 120              	.L1:
 326:D:/fchai/work/i-cube/I-CUBE-HUAWEI/Middlewares/Third_Party/Huawei/iot_link/network/dtls/mbedtls/mbedtls-2.16.2/library\x509write_crt.c **** }
 121              		.loc 1 326 1 is_stmt 0 view .LVU35
 122 0042 2046     		mov	r0, r4
 123              	.LVL13:
 124              		.loc 1 326 1 view .LVU36
 125 0044 F8BD     		pop	{r3, r4, r5, r6, r7, pc}
 126              	.LVL14:
ARM GAS  T:\msys\tmp\cc1WsHhn.s 			page 9


 127              	.L10:
 308:D:/fchai/work/i-cube/I-CUBE-HUAWEI/Middlewares/Third_Party/Huawei/iot_link/network/dtls/mbedtls/mbedtls-2.16.2/library\x509write_crt.c ****     {
 128              		.loc 1 308 36 view .LVU37
 129 0046 9378     		ldrb	r3, [r2, #2]	@ zero_extendqisi2
 130 0048 342B     		cmp	r3, #52
 131 004a E2D8     		bhi	.L2
 310:D:/fchai/work/i-cube/I-CUBE-HUAWEI/Middlewares/Third_Party/Huawei/iot_link/network/dtls/mbedtls/mbedtls-2.16.2/library\x509write_crt.c ****                                              (const unsigned char *) t + 2,
 132              		.loc 1 310 9 is_stmt 1 view .LVU38
 310:D:/fchai/work/i-cube/I-CUBE-HUAWEI/Middlewares/Third_Party/Huawei/iot_link/network/dtls/mbedtls/mbedtls-2.16.2/library\x509write_crt.c ****                                              (const unsigned char *) t + 2,
 133              		.loc 1 310 9 view .LVU39
 134 004c 0232     		adds	r2, r2, #2
 135              	.LVL15:
 310:D:/fchai/work/i-cube/I-CUBE-HUAWEI/Middlewares/Third_Party/Huawei/iot_link/network/dtls/mbedtls/mbedtls-2.16.2/library\x509write_crt.c ****                                              (const unsigned char *) t + 2,
 136              		.loc 1 310 9 is_stmt 0 view .LVU40
 137 004e 0D23     		movs	r3, #13
 138 0050 FFF7FEFF 		bl	mbedtls_asn1_write_raw_buffer
 139              	.LVL16:
 310:D:/fchai/work/i-cube/I-CUBE-HUAWEI/Middlewares/Third_Party/Huawei/iot_link/network/dtls/mbedtls/mbedtls-2.16.2/library\x509write_crt.c ****                                              (const unsigned char *) t + 2,
 140              		.loc 1 310 9 view .LVU41
 141 0054 041E     		subs	r4, r0, #0
 142 0056 F4DB     		blt	.L1
 310:D:/fchai/work/i-cube/I-CUBE-HUAWEI/Middlewares/Third_Party/Huawei/iot_link/network/dtls/mbedtls/mbedtls-2.16.2/library\x509write_crt.c ****                                              (const unsigned char *) t + 2,
 143              		.loc 1 310 9 is_stmt 1 view .LVU42
 313:D:/fchai/work/i-cube/I-CUBE-HUAWEI/Middlewares/Third_Party/Huawei/iot_link/network/dtls/mbedtls/mbedtls-2.16.2/library\x509write_crt.c ****         MBEDTLS_ASN1_CHK_ADD( len, mbedtls_asn1_write_tag( p, start, MBEDTLS_ASN1_UTC_TIME ) );
 144              		.loc 1 313 9 is_stmt 0 view .LVU43
 145 0058 2246     		mov	r2, r4
 146 005a 3146     		mov	r1, r6
 147 005c 2846     		mov	r0, r5
 148              	.LVL17:
 313:D:/fchai/work/i-cube/I-CUBE-HUAWEI/Middlewares/Third_Party/Huawei/iot_link/network/dtls/mbedtls/mbedtls-2.16.2/library\x509write_crt.c ****         MBEDTLS_ASN1_CHK_ADD( len, mbedtls_asn1_write_tag( p, start, MBEDTLS_ASN1_UTC_TIME ) );
 149              		.loc 1 313 9 view .LVU44
 150 005e FFF7FEFF 		bl	mbedtls_asn1_write_len
 151              	.LVL18:
 310:D:/fchai/work/i-cube/I-CUBE-HUAWEI/Middlewares/Third_Party/Huawei/iot_link/network/dtls/mbedtls/mbedtls-2.16.2/library\x509write_crt.c ****                                              (const unsigned char *) t + 2,
 152              		.loc 1 310 9 view .LVU45
 153 0062 2746     		mov	r7, r4
 154              	.LVL19:
 310:D:/fchai/work/i-cube/I-CUBE-HUAWEI/Middlewares/Third_Party/Huawei/iot_link/network/dtls/mbedtls/mbedtls-2.16.2/library\x509write_crt.c ****                                              (const unsigned char *) t + 2,
 155              		.loc 1 310 9 is_stmt 1 view .LVU46
 313:D:/fchai/work/i-cube/I-CUBE-HUAWEI/Middlewares/Third_Party/Huawei/iot_link/network/dtls/mbedtls/mbedtls-2.16.2/library\x509write_crt.c ****         MBEDTLS_ASN1_CHK_ADD( len, mbedtls_asn1_write_tag( p, start, MBEDTLS_ASN1_UTC_TIME ) );
 156              		.loc 1 313 9 view .LVU47
 313:D:/fchai/work/i-cube/I-CUBE-HUAWEI/Middlewares/Third_Party/Huawei/iot_link/network/dtls/mbedtls/mbedtls-2.16.2/library\x509write_crt.c ****         MBEDTLS_ASN1_CHK_ADD( len, mbedtls_asn1_write_tag( p, start, MBEDTLS_ASN1_UTC_TIME ) );
 157              		.loc 1 313 9 view .LVU48
 313:D:/fchai/work/i-cube/I-CUBE-HUAWEI/Middlewares/Third_Party/Huawei/iot_link/network/dtls/mbedtls/mbedtls-2.16.2/library\x509write_crt.c ****         MBEDTLS_ASN1_CHK_ADD( len, mbedtls_asn1_write_tag( p, start, MBEDTLS_ASN1_UTC_TIME ) );
 158              		.loc 1 313 9 is_stmt 0 view .LVU49
 159 0064 041E     		subs	r4, r0, #0
 160              	.LVL20:
 313:D:/fchai/work/i-cube/I-CUBE-HUAWEI/Middlewares/Third_Party/Huawei/iot_link/network/dtls/mbedtls/mbedtls-2.16.2/library\x509write_crt.c ****         MBEDTLS_ASN1_CHK_ADD( len, mbedtls_asn1_write_tag( p, start, MBEDTLS_ASN1_UTC_TIME ) );
 161              		.loc 1 313 9 view .LVU50
 162 0066 ECDB     		blt	.L1
 313:D:/fchai/work/i-cube/I-CUBE-HUAWEI/Middlewares/Third_Party/Huawei/iot_link/network/dtls/mbedtls/mbedtls-2.16.2/library\x509write_crt.c ****         MBEDTLS_ASN1_CHK_ADD( len, mbedtls_asn1_write_tag( p, start, MBEDTLS_ASN1_UTC_TIME ) );
 163              		.loc 1 313 9 is_stmt 1 view .LVU51
 164              	.LVL21:
 313:D:/fchai/work/i-cube/I-CUBE-HUAWEI/Middlewares/Third_Party/Huawei/iot_link/network/dtls/mbedtls/mbedtls-2.16.2/library\x509write_crt.c ****         MBEDTLS_ASN1_CHK_ADD( len, mbedtls_asn1_write_tag( p, start, MBEDTLS_ASN1_UTC_TIME ) );
 165              		.loc 1 313 9 view .LVU52
 314:D:/fchai/work/i-cube/I-CUBE-HUAWEI/Middlewares/Third_Party/Huawei/iot_link/network/dtls/mbedtls/mbedtls-2.16.2/library\x509write_crt.c ****     }
 166              		.loc 1 314 9 view .LVU53
ARM GAS  T:\msys\tmp\cc1WsHhn.s 			page 10


 314:D:/fchai/work/i-cube/I-CUBE-HUAWEI/Middlewares/Third_Party/Huawei/iot_link/network/dtls/mbedtls/mbedtls-2.16.2/library\x509write_crt.c ****     }
 167              		.loc 1 314 9 view .LVU54
 168 0068 3146     		mov	r1, r6
 169 006a 2846     		mov	r0, r5
 170              	.LVL22:
 314:D:/fchai/work/i-cube/I-CUBE-HUAWEI/Middlewares/Third_Party/Huawei/iot_link/network/dtls/mbedtls/mbedtls-2.16.2/library\x509write_crt.c ****     }
 171              		.loc 1 314 9 is_stmt 0 view .LVU55
 172 006c 1722     		movs	r2, #23
 173 006e FFF7FEFF 		bl	mbedtls_asn1_write_tag
 174              	.LVL23:
 314:D:/fchai/work/i-cube/I-CUBE-HUAWEI/Middlewares/Third_Party/Huawei/iot_link/network/dtls/mbedtls/mbedtls-2.16.2/library\x509write_crt.c ****     }
 175              		.loc 1 314 9 view .LVU56
 176 0072 0028     		cmp	r0, #0
 314:D:/fchai/work/i-cube/I-CUBE-HUAWEI/Middlewares/Third_Party/Huawei/iot_link/network/dtls/mbedtls/mbedtls-2.16.2/library\x509write_crt.c ****     }
 177              		.loc 1 314 9 view .LVU57
 178 0074 E3DA     		bge	.L8
 179              	.LVL24:
 180              	.L6:
 314:D:/fchai/work/i-cube/I-CUBE-HUAWEI/Middlewares/Third_Party/Huawei/iot_link/network/dtls/mbedtls/mbedtls-2.16.2/library\x509write_crt.c ****     }
 181              		.loc 1 314 9 view .LVU58
 182 0076 0446     		mov	r4, r0
 183 0078 E3E7     		b	.L1
 184              		.cfi_endproc
 185              	.LFE30:
 187 007a 00BF     		.section	.text.mbedtls_x509write_crt_init,"ax",%progbits
 188              		.align	1
 189              		.p2align 2,,3
 190              		.global	mbedtls_x509write_crt_init
 191              		.syntax unified
 192              		.thumb
 193              		.thumb_func
 194              		.fpu fpv4-sp-d16
 196              	mbedtls_x509write_crt_init:
 197              	.LVL25:
 198              	.LFB10:
  49:D:/fchai/work/i-cube/I-CUBE-HUAWEI/Middlewares/Third_Party/Huawei/iot_link/network/dtls/mbedtls/mbedtls-2.16.2/library\x509write_crt.c ****     memset( ctx, 0, sizeof( mbedtls_x509write_cert ) );
 199              		.loc 1 49 1 is_stmt 1 view -0
 200              		.cfi_startproc
 201              		@ args = 0, pretend = 0, frame = 0
 202              		@ frame_needed = 0, uses_anonymous_args = 0
  50:D:/fchai/work/i-cube/I-CUBE-HUAWEI/Middlewares/Third_Party/Huawei/iot_link/network/dtls/mbedtls/mbedtls-2.16.2/library\x509write_crt.c **** 
 203              		.loc 1 50 5 view .LVU60
  49:D:/fchai/work/i-cube/I-CUBE-HUAWEI/Middlewares/Third_Party/Huawei/iot_link/network/dtls/mbedtls/mbedtls-2.16.2/library\x509write_crt.c ****     memset( ctx, 0, sizeof( mbedtls_x509write_cert ) );
 204              		.loc 1 49 1 is_stmt 0 view .LVU61
 205 0000 10B5     		push	{r4, lr}
 206              	.LCFI1:
 207              		.cfi_def_cfa_offset 8
 208              		.cfi_offset 4, -8
 209              		.cfi_offset 14, -4
  50:D:/fchai/work/i-cube/I-CUBE-HUAWEI/Middlewares/Third_Party/Huawei/iot_link/network/dtls/mbedtls/mbedtls-2.16.2/library\x509write_crt.c **** 
 210              		.loc 1 50 5 view .LVU62
 211 0002 4822     		movs	r2, #72
  49:D:/fchai/work/i-cube/I-CUBE-HUAWEI/Middlewares/Third_Party/Huawei/iot_link/network/dtls/mbedtls/mbedtls-2.16.2/library\x509write_crt.c ****     memset( ctx, 0, sizeof( mbedtls_x509write_cert ) );
 212              		.loc 1 49 1 view .LVU63
 213 0004 0446     		mov	r4, r0
  50:D:/fchai/work/i-cube/I-CUBE-HUAWEI/Middlewares/Third_Party/Huawei/iot_link/network/dtls/mbedtls/mbedtls-2.16.2/library\x509write_crt.c **** 
 214              		.loc 1 50 5 view .LVU64
ARM GAS  T:\msys\tmp\cc1WsHhn.s 			page 11


 215 0006 0021     		movs	r1, #0
 216 0008 FFF7FEFF 		bl	memset
 217              	.LVL26:
  52:D:/fchai/work/i-cube/I-CUBE-HUAWEI/Middlewares/Third_Party/Huawei/iot_link/network/dtls/mbedtls/mbedtls-2.16.2/library\x509write_crt.c ****     ctx->version = MBEDTLS_X509_CRT_VERSION_3;
 218              		.loc 1 52 5 is_stmt 1 view .LVU65
 219 000c 201D     		adds	r0, r4, #4
 220 000e FFF7FEFF 		bl	mbedtls_mpi_init
 221              	.LVL27:
  53:D:/fchai/work/i-cube/I-CUBE-HUAWEI/Middlewares/Third_Party/Huawei/iot_link/network/dtls/mbedtls/mbedtls-2.16.2/library\x509write_crt.c **** }
 222              		.loc 1 53 5 view .LVU66
  53:D:/fchai/work/i-cube/I-CUBE-HUAWEI/Middlewares/Third_Party/Huawei/iot_link/network/dtls/mbedtls/mbedtls-2.16.2/library\x509write_crt.c **** }
 223              		.loc 1 53 18 is_stmt 0 view .LVU67
 224 0012 0223     		movs	r3, #2
 225 0014 2360     		str	r3, [r4]
  54:D:/fchai/work/i-cube/I-CUBE-HUAWEI/Middlewares/Third_Party/Huawei/iot_link/network/dtls/mbedtls/mbedtls-2.16.2/library\x509write_crt.c **** 
 226              		.loc 1 54 1 view .LVU68
 227 0016 10BD     		pop	{r4, pc}
  54:D:/fchai/work/i-cube/I-CUBE-HUAWEI/Middlewares/Third_Party/Huawei/iot_link/network/dtls/mbedtls/mbedtls-2.16.2/library\x509write_crt.c **** 
 228              		.loc 1 54 1 view .LVU69
 229              		.cfi_endproc
 230              	.LFE10:
 232              		.section	.text.mbedtls_x509write_crt_free,"ax",%progbits
 233              		.align	1
 234              		.p2align 2,,3
 235              		.global	mbedtls_x509write_crt_free
 236              		.syntax unified
 237              		.thumb
 238              		.thumb_func
 239              		.fpu fpv4-sp-d16
 241              	mbedtls_x509write_crt_free:
 242              	.LVL28:
 243              	.LFB11:
  57:D:/fchai/work/i-cube/I-CUBE-HUAWEI/Middlewares/Third_Party/Huawei/iot_link/network/dtls/mbedtls/mbedtls-2.16.2/library\x509write_crt.c ****     mbedtls_mpi_free( &ctx->serial );
 244              		.loc 1 57 1 is_stmt 1 view -0
 245              		.cfi_startproc
 246              		@ args = 0, pretend = 0, frame = 0
 247              		@ frame_needed = 0, uses_anonymous_args = 0
  58:D:/fchai/work/i-cube/I-CUBE-HUAWEI/Middlewares/Third_Party/Huawei/iot_link/network/dtls/mbedtls/mbedtls-2.16.2/library\x509write_crt.c **** 
 248              		.loc 1 58 5 view .LVU71
  57:D:/fchai/work/i-cube/I-CUBE-HUAWEI/Middlewares/Third_Party/Huawei/iot_link/network/dtls/mbedtls/mbedtls-2.16.2/library\x509write_crt.c ****     mbedtls_mpi_free( &ctx->serial );
 249              		.loc 1 57 1 is_stmt 0 view .LVU72
 250 0000 10B5     		push	{r4, lr}
 251              	.LCFI2:
 252              		.cfi_def_cfa_offset 8
 253              		.cfi_offset 4, -8
 254              		.cfi_offset 14, -4
  57:D:/fchai/work/i-cube/I-CUBE-HUAWEI/Middlewares/Third_Party/Huawei/iot_link/network/dtls/mbedtls/mbedtls-2.16.2/library\x509write_crt.c ****     mbedtls_mpi_free( &ctx->serial );
 255              		.loc 1 57 1 view .LVU73
 256 0002 0446     		mov	r4, r0
  58:D:/fchai/work/i-cube/I-CUBE-HUAWEI/Middlewares/Third_Party/Huawei/iot_link/network/dtls/mbedtls/mbedtls-2.16.2/library\x509write_crt.c **** 
 257              		.loc 1 58 5 view .LVU74
 258 0004 0430     		adds	r0, r0, #4
 259              	.LVL29:
  58:D:/fchai/work/i-cube/I-CUBE-HUAWEI/Middlewares/Third_Party/Huawei/iot_link/network/dtls/mbedtls/mbedtls-2.16.2/library\x509write_crt.c **** 
 260              		.loc 1 58 5 view .LVU75
 261 0006 FFF7FEFF 		bl	mbedtls_mpi_free
 262              	.LVL30:
ARM GAS  T:\msys\tmp\cc1WsHhn.s 			page 12


  60:D:/fchai/work/i-cube/I-CUBE-HUAWEI/Middlewares/Third_Party/Huawei/iot_link/network/dtls/mbedtls/mbedtls-2.16.2/library\x509write_crt.c ****     mbedtls_asn1_free_named_data_list( &ctx->issuer );
 263              		.loc 1 60 5 is_stmt 1 view .LVU76
 264 000a 04F11800 		add	r0, r4, #24
 265 000e FFF7FEFF 		bl	mbedtls_asn1_free_named_data_list
 266              	.LVL31:
  61:D:/fchai/work/i-cube/I-CUBE-HUAWEI/Middlewares/Third_Party/Huawei/iot_link/network/dtls/mbedtls/mbedtls-2.16.2/library\x509write_crt.c ****     mbedtls_asn1_free_named_data_list( &ctx->extensions );
 267              		.loc 1 61 5 view .LVU77
 268 0012 04F11C00 		add	r0, r4, #28
 269 0016 FFF7FEFF 		bl	mbedtls_asn1_free_named_data_list
 270              	.LVL32:
  62:D:/fchai/work/i-cube/I-CUBE-HUAWEI/Middlewares/Third_Party/Huawei/iot_link/network/dtls/mbedtls/mbedtls-2.16.2/library\x509write_crt.c **** 
 271              		.loc 1 62 5 view .LVU78
 272 001a 04F14400 		add	r0, r4, #68
 273 001e FFF7FEFF 		bl	mbedtls_asn1_free_named_data_list
 274              	.LVL33:
  64:D:/fchai/work/i-cube/I-CUBE-HUAWEI/Middlewares/Third_Party/Huawei/iot_link/network/dtls/mbedtls/mbedtls-2.16.2/library\x509write_crt.c **** }
 275              		.loc 1 64 5 view .LVU79
 276 0022 2046     		mov	r0, r4
 277 0024 4821     		movs	r1, #72
  65:D:/fchai/work/i-cube/I-CUBE-HUAWEI/Middlewares/Third_Party/Huawei/iot_link/network/dtls/mbedtls/mbedtls-2.16.2/library\x509write_crt.c **** 
 278              		.loc 1 65 1 is_stmt 0 view .LVU80
 279 0026 BDE81040 		pop	{r4, lr}
 280              	.LCFI3:
 281              		.cfi_restore 14
 282              		.cfi_restore 4
 283              		.cfi_def_cfa_offset 0
 284              	.LVL34:
  64:D:/fchai/work/i-cube/I-CUBE-HUAWEI/Middlewares/Third_Party/Huawei/iot_link/network/dtls/mbedtls/mbedtls-2.16.2/library\x509write_crt.c **** }
 285              		.loc 1 64 5 view .LVU81
 286 002a FFF7FEBF 		b	mbedtls_platform_zeroize
 287              	.LVL35:
  64:D:/fchai/work/i-cube/I-CUBE-HUAWEI/Middlewares/Third_Party/Huawei/iot_link/network/dtls/mbedtls/mbedtls-2.16.2/library\x509write_crt.c **** }
 288              		.loc 1 64 5 view .LVU82
 289              		.cfi_endproc
 290              	.LFE11:
 292 002e 00BF     		.section	.text.mbedtls_x509write_crt_set_version,"ax",%progbits
 293              		.align	1
 294              		.p2align 2,,3
 295              		.global	mbedtls_x509write_crt_set_version
 296              		.syntax unified
 297              		.thumb
 298              		.thumb_func
 299              		.fpu fpv4-sp-d16
 301              	mbedtls_x509write_crt_set_version:
 302              	.LVL36:
 303              	.LFB12:
  68:D:/fchai/work/i-cube/I-CUBE-HUAWEI/Middlewares/Third_Party/Huawei/iot_link/network/dtls/mbedtls/mbedtls-2.16.2/library\x509write_crt.c ****     ctx->version = version;
 304              		.loc 1 68 1 is_stmt 1 view -0
 305              		.cfi_startproc
 306              		@ args = 0, pretend = 0, frame = 0
 307              		@ frame_needed = 0, uses_anonymous_args = 0
 308              		@ link register save eliminated.
  69:D:/fchai/work/i-cube/I-CUBE-HUAWEI/Middlewares/Third_Party/Huawei/iot_link/network/dtls/mbedtls/mbedtls-2.16.2/library\x509write_crt.c **** }
 309              		.loc 1 69 5 view .LVU84
  69:D:/fchai/work/i-cube/I-CUBE-HUAWEI/Middlewares/Third_Party/Huawei/iot_link/network/dtls/mbedtls/mbedtls-2.16.2/library\x509write_crt.c **** }
 310              		.loc 1 69 18 is_stmt 0 view .LVU85
 311 0000 0160     		str	r1, [r0]
ARM GAS  T:\msys\tmp\cc1WsHhn.s 			page 13


  70:D:/fchai/work/i-cube/I-CUBE-HUAWEI/Middlewares/Third_Party/Huawei/iot_link/network/dtls/mbedtls/mbedtls-2.16.2/library\x509write_crt.c **** 
 312              		.loc 1 70 1 view .LVU86
 313 0002 7047     		bx	lr
 314              		.cfi_endproc
 315              	.LFE12:
 317              		.section	.text.mbedtls_x509write_crt_set_md_alg,"ax",%progbits
 318              		.align	1
 319              		.p2align 2,,3
 320              		.global	mbedtls_x509write_crt_set_md_alg
 321              		.syntax unified
 322              		.thumb
 323              		.thumb_func
 324              		.fpu fpv4-sp-d16
 326              	mbedtls_x509write_crt_set_md_alg:
 327              	.LVL37:
 328              	.LFB13:
  73:D:/fchai/work/i-cube/I-CUBE-HUAWEI/Middlewares/Third_Party/Huawei/iot_link/network/dtls/mbedtls/mbedtls-2.16.2/library\x509write_crt.c ****     ctx->md_alg = md_alg;
 329              		.loc 1 73 1 is_stmt 1 view -0
 330              		.cfi_startproc
 331              		@ args = 0, pretend = 0, frame = 0
 332              		@ frame_needed = 0, uses_anonymous_args = 0
 333              		@ link register save eliminated.
  74:D:/fchai/work/i-cube/I-CUBE-HUAWEI/Middlewares/Third_Party/Huawei/iot_link/network/dtls/mbedtls/mbedtls-2.16.2/library\x509write_crt.c **** }
 334              		.loc 1 74 5 view .LVU88
  74:D:/fchai/work/i-cube/I-CUBE-HUAWEI/Middlewares/Third_Party/Huawei/iot_link/network/dtls/mbedtls/mbedtls-2.16.2/library\x509write_crt.c **** }
 335              		.loc 1 74 17 is_stmt 0 view .LVU89
 336 0000 80F82010 		strb	r1, [r0, #32]
  75:D:/fchai/work/i-cube/I-CUBE-HUAWEI/Middlewares/Third_Party/Huawei/iot_link/network/dtls/mbedtls/mbedtls-2.16.2/library\x509write_crt.c **** 
 337              		.loc 1 75 1 view .LVU90
 338 0004 7047     		bx	lr
 339              		.cfi_endproc
 340              	.LFE13:
 342 0006 00BF     		.section	.text.mbedtls_x509write_crt_set_subject_key,"ax",%progbits
 343              		.align	1
 344              		.p2align 2,,3
 345              		.global	mbedtls_x509write_crt_set_subject_key
 346              		.syntax unified
 347              		.thumb
 348              		.thumb_func
 349              		.fpu fpv4-sp-d16
 351              	mbedtls_x509write_crt_set_subject_key:
 352              	.LVL38:
 353              	.LFB14:
  78:D:/fchai/work/i-cube/I-CUBE-HUAWEI/Middlewares/Third_Party/Huawei/iot_link/network/dtls/mbedtls/mbedtls-2.16.2/library\x509write_crt.c ****     ctx->subject_key = key;
 354              		.loc 1 78 1 is_stmt 1 view -0
 355              		.cfi_startproc
 356              		@ args = 0, pretend = 0, frame = 0
 357              		@ frame_needed = 0, uses_anonymous_args = 0
 358              		@ link register save eliminated.
  79:D:/fchai/work/i-cube/I-CUBE-HUAWEI/Middlewares/Third_Party/Huawei/iot_link/network/dtls/mbedtls/mbedtls-2.16.2/library\x509write_crt.c **** }
 359              		.loc 1 79 5 view .LVU92
  79:D:/fchai/work/i-cube/I-CUBE-HUAWEI/Middlewares/Third_Party/Huawei/iot_link/network/dtls/mbedtls/mbedtls-2.16.2/library\x509write_crt.c **** }
 360              		.loc 1 79 22 is_stmt 0 view .LVU93
 361 0000 0161     		str	r1, [r0, #16]
  80:D:/fchai/work/i-cube/I-CUBE-HUAWEI/Middlewares/Third_Party/Huawei/iot_link/network/dtls/mbedtls/mbedtls-2.16.2/library\x509write_crt.c **** 
 362              		.loc 1 80 1 view .LVU94
 363 0002 7047     		bx	lr
ARM GAS  T:\msys\tmp\cc1WsHhn.s 			page 14


 364              		.cfi_endproc
 365              	.LFE14:
 367              		.section	.text.mbedtls_x509write_crt_set_issuer_key,"ax",%progbits
 368              		.align	1
 369              		.p2align 2,,3
 370              		.global	mbedtls_x509write_crt_set_issuer_key
 371              		.syntax unified
 372              		.thumb
 373              		.thumb_func
 374              		.fpu fpv4-sp-d16
 376              	mbedtls_x509write_crt_set_issuer_key:
 377              	.LVL39:
 378              	.LFB15:
  83:D:/fchai/work/i-cube/I-CUBE-HUAWEI/Middlewares/Third_Party/Huawei/iot_link/network/dtls/mbedtls/mbedtls-2.16.2/library\x509write_crt.c ****     ctx->issuer_key = key;
 379              		.loc 1 83 1 is_stmt 1 view -0
 380              		.cfi_startproc
 381              		@ args = 0, pretend = 0, frame = 0
 382              		@ frame_needed = 0, uses_anonymous_args = 0
 383              		@ link register save eliminated.
  84:D:/fchai/work/i-cube/I-CUBE-HUAWEI/Middlewares/Third_Party/Huawei/iot_link/network/dtls/mbedtls/mbedtls-2.16.2/library\x509write_crt.c **** }
 384              		.loc 1 84 5 view .LVU96
  84:D:/fchai/work/i-cube/I-CUBE-HUAWEI/Middlewares/Third_Party/Huawei/iot_link/network/dtls/mbedtls/mbedtls-2.16.2/library\x509write_crt.c **** }
 385              		.loc 1 84 21 is_stmt 0 view .LVU97
 386 0000 4161     		str	r1, [r0, #20]
  85:D:/fchai/work/i-cube/I-CUBE-HUAWEI/Middlewares/Third_Party/Huawei/iot_link/network/dtls/mbedtls/mbedtls-2.16.2/library\x509write_crt.c **** 
 387              		.loc 1 85 1 view .LVU98
 388 0002 7047     		bx	lr
 389              		.cfi_endproc
 390              	.LFE15:
 392              		.section	.text.mbedtls_x509write_crt_set_subject_name,"ax",%progbits
 393              		.align	1
 394              		.p2align 2,,3
 395              		.global	mbedtls_x509write_crt_set_subject_name
 396              		.syntax unified
 397              		.thumb
 398              		.thumb_func
 399              		.fpu fpv4-sp-d16
 401              	mbedtls_x509write_crt_set_subject_name:
 402              	.LVL40:
 403              	.LFB16:
  89:D:/fchai/work/i-cube/I-CUBE-HUAWEI/Middlewares/Third_Party/Huawei/iot_link/network/dtls/mbedtls/mbedtls-2.16.2/library\x509write_crt.c ****     return mbedtls_x509_string_to_names( &ctx->subject, subject_name );
 404              		.loc 1 89 1 is_stmt 1 view -0
 405              		.cfi_startproc
 406              		@ args = 0, pretend = 0, frame = 0
 407              		@ frame_needed = 0, uses_anonymous_args = 0
 408              		@ link register save eliminated.
  90:D:/fchai/work/i-cube/I-CUBE-HUAWEI/Middlewares/Third_Party/Huawei/iot_link/network/dtls/mbedtls/mbedtls-2.16.2/library\x509write_crt.c **** }
 409              		.loc 1 90 5 view .LVU100
  90:D:/fchai/work/i-cube/I-CUBE-HUAWEI/Middlewares/Third_Party/Huawei/iot_link/network/dtls/mbedtls/mbedtls-2.16.2/library\x509write_crt.c **** }
 410              		.loc 1 90 12 is_stmt 0 view .LVU101
 411 0000 1830     		adds	r0, r0, #24
 412              	.LVL41:
  90:D:/fchai/work/i-cube/I-CUBE-HUAWEI/Middlewares/Third_Party/Huawei/iot_link/network/dtls/mbedtls/mbedtls-2.16.2/library\x509write_crt.c **** }
 413              		.loc 1 90 12 view .LVU102
 414 0002 FFF7FEBF 		b	mbedtls_x509_string_to_names
 415              	.LVL42:
  90:D:/fchai/work/i-cube/I-CUBE-HUAWEI/Middlewares/Third_Party/Huawei/iot_link/network/dtls/mbedtls/mbedtls-2.16.2/library\x509write_crt.c **** }
ARM GAS  T:\msys\tmp\cc1WsHhn.s 			page 15


 416              		.loc 1 90 12 view .LVU103
 417              		.cfi_endproc
 418              	.LFE16:
 420 0006 00BF     		.section	.text.mbedtls_x509write_crt_set_issuer_name,"ax",%progbits
 421              		.align	1
 422              		.p2align 2,,3
 423              		.global	mbedtls_x509write_crt_set_issuer_name
 424              		.syntax unified
 425              		.thumb
 426              		.thumb_func
 427              		.fpu fpv4-sp-d16
 429              	mbedtls_x509write_crt_set_issuer_name:
 430              	.LVL43:
 431              	.LFB17:
  95:D:/fchai/work/i-cube/I-CUBE-HUAWEI/Middlewares/Third_Party/Huawei/iot_link/network/dtls/mbedtls/mbedtls-2.16.2/library\x509write_crt.c ****     return mbedtls_x509_string_to_names( &ctx->issuer, issuer_name );
 432              		.loc 1 95 1 is_stmt 1 view -0
 433              		.cfi_startproc
 434              		@ args = 0, pretend = 0, frame = 0
 435              		@ frame_needed = 0, uses_anonymous_args = 0
 436              		@ link register save eliminated.
  96:D:/fchai/work/i-cube/I-CUBE-HUAWEI/Middlewares/Third_Party/Huawei/iot_link/network/dtls/mbedtls/mbedtls-2.16.2/library\x509write_crt.c **** }
 437              		.loc 1 96 5 view .LVU105
  96:D:/fchai/work/i-cube/I-CUBE-HUAWEI/Middlewares/Third_Party/Huawei/iot_link/network/dtls/mbedtls/mbedtls-2.16.2/library\x509write_crt.c **** }
 438              		.loc 1 96 12 is_stmt 0 view .LVU106
 439 0000 1C30     		adds	r0, r0, #28
 440              	.LVL44:
  96:D:/fchai/work/i-cube/I-CUBE-HUAWEI/Middlewares/Third_Party/Huawei/iot_link/network/dtls/mbedtls/mbedtls-2.16.2/library\x509write_crt.c **** }
 441              		.loc 1 96 12 view .LVU107
 442 0002 FFF7FEBF 		b	mbedtls_x509_string_to_names
 443              	.LVL45:
  96:D:/fchai/work/i-cube/I-CUBE-HUAWEI/Middlewares/Third_Party/Huawei/iot_link/network/dtls/mbedtls/mbedtls-2.16.2/library\x509write_crt.c **** }
 444              		.loc 1 96 12 view .LVU108
 445              		.cfi_endproc
 446              	.LFE17:
 448 0006 00BF     		.section	.text.mbedtls_x509write_crt_set_serial,"ax",%progbits
 449              		.align	1
 450              		.p2align 2,,3
 451              		.global	mbedtls_x509write_crt_set_serial
 452              		.syntax unified
 453              		.thumb
 454              		.thumb_func
 455              		.fpu fpv4-sp-d16
 457              	mbedtls_x509write_crt_set_serial:
 458              	.LVL46:
 459              	.LFB18:
 100:D:/fchai/work/i-cube/I-CUBE-HUAWEI/Middlewares/Third_Party/Huawei/iot_link/network/dtls/mbedtls/mbedtls-2.16.2/library\x509write_crt.c ****     int ret;
 460              		.loc 1 100 1 is_stmt 1 view -0
 461              		.cfi_startproc
 462              		@ args = 0, pretend = 0, frame = 0
 463              		@ frame_needed = 0, uses_anonymous_args = 0
 464              		@ link register save eliminated.
 101:D:/fchai/work/i-cube/I-CUBE-HUAWEI/Middlewares/Third_Party/Huawei/iot_link/network/dtls/mbedtls/mbedtls-2.16.2/library\x509write_crt.c **** 
 465              		.loc 1 101 5 view .LVU110
 103:D:/fchai/work/i-cube/I-CUBE-HUAWEI/Middlewares/Third_Party/Huawei/iot_link/network/dtls/mbedtls/mbedtls-2.16.2/library\x509write_crt.c ****         return( ret );
 466              		.loc 1 103 5 view .LVU111
 103:D:/fchai/work/i-cube/I-CUBE-HUAWEI/Middlewares/Third_Party/Huawei/iot_link/network/dtls/mbedtls/mbedtls-2.16.2/library\x509write_crt.c ****         return( ret );
 467              		.loc 1 103 17 is_stmt 0 view .LVU112
ARM GAS  T:\msys\tmp\cc1WsHhn.s 			page 16


 468 0000 0430     		adds	r0, r0, #4
 469              	.LVL47:
 103:D:/fchai/work/i-cube/I-CUBE-HUAWEI/Middlewares/Third_Party/Huawei/iot_link/network/dtls/mbedtls/mbedtls-2.16.2/library\x509write_crt.c ****         return( ret );
 470              		.loc 1 103 17 view .LVU113
 471 0002 FFF7FEBF 		b	mbedtls_mpi_copy
 472              	.LVL48:
 103:D:/fchai/work/i-cube/I-CUBE-HUAWEI/Middlewares/Third_Party/Huawei/iot_link/network/dtls/mbedtls/mbedtls-2.16.2/library\x509write_crt.c ****         return( ret );
 473              		.loc 1 103 17 view .LVU114
 474              		.cfi_endproc
 475              	.LFE18:
 477 0006 00BF     		.section	.text.mbedtls_x509write_crt_set_validity,"ax",%progbits
 478              		.align	1
 479              		.p2align 2,,3
 480              		.global	mbedtls_x509write_crt_set_validity
 481              		.syntax unified
 482              		.thumb
 483              		.thumb_func
 484              		.fpu fpv4-sp-d16
 486              	mbedtls_x509write_crt_set_validity:
 487              	.LVL49:
 488              	.LFB19:
 111:D:/fchai/work/i-cube/I-CUBE-HUAWEI/Middlewares/Third_Party/Huawei/iot_link/network/dtls/mbedtls/mbedtls-2.16.2/library\x509write_crt.c ****     if( strlen( not_before ) != MBEDTLS_X509_RFC5280_UTC_TIME_LEN - 1 ||
 489              		.loc 1 111 1 is_stmt 1 view -0
 490              		.cfi_startproc
 491              		@ args = 0, pretend = 0, frame = 0
 492              		@ frame_needed = 0, uses_anonymous_args = 0
 112:D:/fchai/work/i-cube/I-CUBE-HUAWEI/Middlewares/Third_Party/Huawei/iot_link/network/dtls/mbedtls/mbedtls-2.16.2/library\x509write_crt.c ****         strlen( not_after )  != MBEDTLS_X509_RFC5280_UTC_TIME_LEN - 1 )
 493              		.loc 1 112 5 view .LVU116
 111:D:/fchai/work/i-cube/I-CUBE-HUAWEI/Middlewares/Third_Party/Huawei/iot_link/network/dtls/mbedtls/mbedtls-2.16.2/library\x509write_crt.c ****     if( strlen( not_before ) != MBEDTLS_X509_RFC5280_UTC_TIME_LEN - 1 ||
 494              		.loc 1 111 1 is_stmt 0 view .LVU117
 495 0000 70B5     		push	{r4, r5, r6, lr}
 496              	.LCFI4:
 497              		.cfi_def_cfa_offset 16
 498              		.cfi_offset 4, -16
 499              		.cfi_offset 5, -12
 500              		.cfi_offset 6, -8
 501              		.cfi_offset 14, -4
 111:D:/fchai/work/i-cube/I-CUBE-HUAWEI/Middlewares/Third_Party/Huawei/iot_link/network/dtls/mbedtls/mbedtls-2.16.2/library\x509write_crt.c ****     if( strlen( not_before ) != MBEDTLS_X509_RFC5280_UTC_TIME_LEN - 1 ||
 502              		.loc 1 111 1 view .LVU118
 503 0002 0446     		mov	r4, r0
 112:D:/fchai/work/i-cube/I-CUBE-HUAWEI/Middlewares/Third_Party/Huawei/iot_link/network/dtls/mbedtls/mbedtls-2.16.2/library\x509write_crt.c ****         strlen( not_after )  != MBEDTLS_X509_RFC5280_UTC_TIME_LEN - 1 )
 504              		.loc 1 112 9 view .LVU119
 505 0004 0846     		mov	r0, r1
 506              	.LVL50:
 111:D:/fchai/work/i-cube/I-CUBE-HUAWEI/Middlewares/Third_Party/Huawei/iot_link/network/dtls/mbedtls/mbedtls-2.16.2/library\x509write_crt.c ****     if( strlen( not_before ) != MBEDTLS_X509_RFC5280_UTC_TIME_LEN - 1 ||
 507              		.loc 1 111 1 view .LVU120
 508 0006 0D46     		mov	r5, r1
 509 0008 1646     		mov	r6, r2
 112:D:/fchai/work/i-cube/I-CUBE-HUAWEI/Middlewares/Third_Party/Huawei/iot_link/network/dtls/mbedtls/mbedtls-2.16.2/library\x509write_crt.c ****         strlen( not_after )  != MBEDTLS_X509_RFC5280_UTC_TIME_LEN - 1 )
 510              		.loc 1 112 9 view .LVU121
 511 000a FFF7FEFF 		bl	strlen
 512              	.LVL51:
 112:D:/fchai/work/i-cube/I-CUBE-HUAWEI/Middlewares/Third_Party/Huawei/iot_link/network/dtls/mbedtls/mbedtls-2.16.2/library\x509write_crt.c ****         strlen( not_after )  != MBEDTLS_X509_RFC5280_UTC_TIME_LEN - 1 )
 513              		.loc 1 112 7 view .LVU122
 514 000e 0E28     		cmp	r0, #14
 515 0010 17D1     		bne	.L25
 113:D:/fchai/work/i-cube/I-CUBE-HUAWEI/Middlewares/Third_Party/Huawei/iot_link/network/dtls/mbedtls/mbedtls-2.16.2/library\x509write_crt.c ****     {
ARM GAS  T:\msys\tmp\cc1WsHhn.s 			page 17


 516              		.loc 1 113 9 discriminator 1 view .LVU123
 517 0012 3046     		mov	r0, r6
 518 0014 FFF7FEFF 		bl	strlen
 519              	.LVL52:
 112:D:/fchai/work/i-cube/I-CUBE-HUAWEI/Middlewares/Third_Party/Huawei/iot_link/network/dtls/mbedtls/mbedtls-2.16.2/library\x509write_crt.c ****         strlen( not_after )  != MBEDTLS_X509_RFC5280_UTC_TIME_LEN - 1 )
 520              		.loc 1 112 71 discriminator 1 view .LVU124
 521 0018 0E28     		cmp	r0, #14
 522 001a 12D1     		bne	.L25
 117:D:/fchai/work/i-cube/I-CUBE-HUAWEI/Middlewares/Third_Party/Huawei/iot_link/network/dtls/mbedtls/mbedtls-2.16.2/library\x509write_crt.c ****     strncpy( ctx->not_after , not_after , MBEDTLS_X509_RFC5280_UTC_TIME_LEN );
 523              		.loc 1 117 5 is_stmt 1 view .LVU125
 524 001c 2946     		mov	r1, r5
 525 001e 0F22     		movs	r2, #15
 526 0020 04F12100 		add	r0, r4, #33
 527 0024 FFF7FEFF 		bl	strncpy
 528              	.LVL53:
 118:D:/fchai/work/i-cube/I-CUBE-HUAWEI/Middlewares/Third_Party/Huawei/iot_link/network/dtls/mbedtls/mbedtls-2.16.2/library\x509write_crt.c ****     ctx->not_before[MBEDTLS_X509_RFC5280_UTC_TIME_LEN - 1] = 'Z';
 529              		.loc 1 118 5 view .LVU126
 530 0028 3146     		mov	r1, r6
 531 002a 0F22     		movs	r2, #15
 532 002c 04F13100 		add	r0, r4, #49
 533 0030 FFF7FEFF 		bl	strncpy
 534              	.LVL54:
 119:D:/fchai/work/i-cube/I-CUBE-HUAWEI/Middlewares/Third_Party/Huawei/iot_link/network/dtls/mbedtls/mbedtls-2.16.2/library\x509write_crt.c ****     ctx->not_after[MBEDTLS_X509_RFC5280_UTC_TIME_LEN - 1] = 'Z';
 535              		.loc 1 119 5 view .LVU127
 119:D:/fchai/work/i-cube/I-CUBE-HUAWEI/Middlewares/Third_Party/Huawei/iot_link/network/dtls/mbedtls/mbedtls-2.16.2/library\x509write_crt.c ****     ctx->not_after[MBEDTLS_X509_RFC5280_UTC_TIME_LEN - 1] = 'Z';
 536              		.loc 1 119 60 is_stmt 0 view .LVU128
 537 0034 5A23     		movs	r3, #90
 538 0036 84F82F30 		strb	r3, [r4, #47]
 120:D:/fchai/work/i-cube/I-CUBE-HUAWEI/Middlewares/Third_Party/Huawei/iot_link/network/dtls/mbedtls/mbedtls-2.16.2/library\x509write_crt.c **** 
 539              		.loc 1 120 5 is_stmt 1 view .LVU129
 120:D:/fchai/work/i-cube/I-CUBE-HUAWEI/Middlewares/Third_Party/Huawei/iot_link/network/dtls/mbedtls/mbedtls-2.16.2/library\x509write_crt.c **** 
 540              		.loc 1 120 59 is_stmt 0 view .LVU130
 541 003a 84F83F30 		strb	r3, [r4, #63]
 122:D:/fchai/work/i-cube/I-CUBE-HUAWEI/Middlewares/Third_Party/Huawei/iot_link/network/dtls/mbedtls/mbedtls-2.16.2/library\x509write_crt.c **** }
 542              		.loc 1 122 5 is_stmt 1 view .LVU131
 122:D:/fchai/work/i-cube/I-CUBE-HUAWEI/Middlewares/Third_Party/Huawei/iot_link/network/dtls/mbedtls/mbedtls-2.16.2/library\x509write_crt.c **** }
 543              		.loc 1 122 11 is_stmt 0 view .LVU132
 544 003e 0020     		movs	r0, #0
 123:D:/fchai/work/i-cube/I-CUBE-HUAWEI/Middlewares/Third_Party/Huawei/iot_link/network/dtls/mbedtls/mbedtls-2.16.2/library\x509write_crt.c **** 
 545              		.loc 1 123 1 view .LVU133
 546 0040 70BD     		pop	{r4, r5, r6, pc}
 547              	.LVL55:
 548              	.L25:
 115:D:/fchai/work/i-cube/I-CUBE-HUAWEI/Middlewares/Third_Party/Huawei/iot_link/network/dtls/mbedtls/mbedtls-2.16.2/library\x509write_crt.c ****     }
 549              		.loc 1 115 15 view .LVU134
 550 0042 0148     		ldr	r0, .L27
 123:D:/fchai/work/i-cube/I-CUBE-HUAWEI/Middlewares/Third_Party/Huawei/iot_link/network/dtls/mbedtls/mbedtls-2.16.2/library\x509write_crt.c **** 
 551              		.loc 1 123 1 view .LVU135
 552 0044 70BD     		pop	{r4, r5, r6, pc}
 553              	.LVL56:
 554              	.L28:
 123:D:/fchai/work/i-cube/I-CUBE-HUAWEI/Middlewares/Third_Party/Huawei/iot_link/network/dtls/mbedtls/mbedtls-2.16.2/library\x509write_crt.c **** 
 555              		.loc 1 123 1 view .LVU136
 556 0046 00BF     		.align	2
 557              	.L27:
 558 0048 00D8FFFF 		.word	-10240
 559              		.cfi_endproc
ARM GAS  T:\msys\tmp\cc1WsHhn.s 			page 18


 560              	.LFE19:
 562              		.section	.text.mbedtls_x509write_crt_set_extension,"ax",%progbits
 563              		.align	1
 564              		.p2align 2,,3
 565              		.global	mbedtls_x509write_crt_set_extension
 566              		.syntax unified
 567              		.thumb
 568              		.thumb_func
 569              		.fpu fpv4-sp-d16
 571              	mbedtls_x509write_crt_set_extension:
 572              	.LVL57:
 573              	.LFB20:
 129:D:/fchai/work/i-cube/I-CUBE-HUAWEI/Middlewares/Third_Party/Huawei/iot_link/network/dtls/mbedtls/mbedtls-2.16.2/library\x509write_crt.c ****     return mbedtls_x509_set_extension( &ctx->extensions, oid, oid_len,
 574              		.loc 1 129 1 is_stmt 1 view -0
 575              		.cfi_startproc
 576              		@ args = 8, pretend = 0, frame = 0
 577              		@ frame_needed = 0, uses_anonymous_args = 0
 578              		@ link register save eliminated.
 130:D:/fchai/work/i-cube/I-CUBE-HUAWEI/Middlewares/Third_Party/Huawei/iot_link/network/dtls/mbedtls/mbedtls-2.16.2/library\x509write_crt.c ****                                critical, val, val_len );
 579              		.loc 1 130 5 view .LVU138
 130:D:/fchai/work/i-cube/I-CUBE-HUAWEI/Middlewares/Third_Party/Huawei/iot_link/network/dtls/mbedtls/mbedtls-2.16.2/library\x509write_crt.c ****                                critical, val, val_len );
 580              		.loc 1 130 12 is_stmt 0 view .LVU139
 581 0000 4430     		adds	r0, r0, #68
 582              	.LVL58:
 130:D:/fchai/work/i-cube/I-CUBE-HUAWEI/Middlewares/Third_Party/Huawei/iot_link/network/dtls/mbedtls/mbedtls-2.16.2/library\x509write_crt.c ****                                critical, val, val_len );
 583              		.loc 1 130 12 view .LVU140
 584 0002 FFF7FEBF 		b	mbedtls_x509_set_extension
 585              	.LVL59:
 130:D:/fchai/work/i-cube/I-CUBE-HUAWEI/Middlewares/Third_Party/Huawei/iot_link/network/dtls/mbedtls/mbedtls-2.16.2/library\x509write_crt.c ****                                critical, val, val_len );
 586              		.loc 1 130 12 view .LVU141
 587              		.cfi_endproc
 588              	.LFE20:
 590 0006 00BF     		.section	.rodata.mbedtls_x509write_crt_set_basic_constraints.str1.4,"aMS",%progbits,1
 591              		.align	2
 592              	.LC0:
 593 0000 551D1300 		.ascii	"U\035\023\000"
 594              		.section	.text.mbedtls_x509write_crt_set_basic_constraints,"ax",%progbits
 595              		.align	1
 596              		.p2align 2,,3
 597              		.global	mbedtls_x509write_crt_set_basic_constraints
 598              		.syntax unified
 599              		.thumb
 600              		.thumb_func
 601              		.fpu fpv4-sp-d16
 603              	mbedtls_x509write_crt_set_basic_constraints:
 604              	.LVL60:
 605              	.LFB21:
 136:D:/fchai/work/i-cube/I-CUBE-HUAWEI/Middlewares/Third_Party/Huawei/iot_link/network/dtls/mbedtls/mbedtls-2.16.2/library\x509write_crt.c ****     int ret;
 606              		.loc 1 136 1 is_stmt 1 view -0
 607              		.cfi_startproc
 608              		@ args = 0, pretend = 0, frame = 16
 609              		@ frame_needed = 0, uses_anonymous_args = 0
 137:D:/fchai/work/i-cube/I-CUBE-HUAWEI/Middlewares/Third_Party/Huawei/iot_link/network/dtls/mbedtls/mbedtls-2.16.2/library\x509write_crt.c ****     unsigned char buf[9];
 610              		.loc 1 137 5 view .LVU143
 138:D:/fchai/work/i-cube/I-CUBE-HUAWEI/Middlewares/Third_Party/Huawei/iot_link/network/dtls/mbedtls/mbedtls-2.16.2/library\x509write_crt.c ****     unsigned char *c = buf + sizeof(buf);
 611              		.loc 1 138 5 view .LVU144
 139:D:/fchai/work/i-cube/I-CUBE-HUAWEI/Middlewares/Third_Party/Huawei/iot_link/network/dtls/mbedtls/mbedtls-2.16.2/library\x509write_crt.c ****     size_t len = 0;
ARM GAS  T:\msys\tmp\cc1WsHhn.s 			page 19


 612              		.loc 1 139 5 view .LVU145
 136:D:/fchai/work/i-cube/I-CUBE-HUAWEI/Middlewares/Third_Party/Huawei/iot_link/network/dtls/mbedtls/mbedtls-2.16.2/library\x509write_crt.c ****     int ret;
 613              		.loc 1 136 1 is_stmt 0 view .LVU146
 614 0000 F0B5     		push	{r4, r5, r6, r7, lr}
 615              	.LCFI5:
 616              		.cfi_def_cfa_offset 20
 617              		.cfi_offset 4, -20
 618              		.cfi_offset 5, -16
 619              		.cfi_offset 6, -12
 620              		.cfi_offset 7, -8
 621              		.cfi_offset 14, -4
 622 0002 87B0     		sub	sp, sp, #28
 623              	.LCFI6:
 624              		.cfi_def_cfa_offset 48
 142:D:/fchai/work/i-cube/I-CUBE-HUAWEI/Middlewares/Third_Party/Huawei/iot_link/network/dtls/mbedtls/mbedtls-2.16.2/library\x509write_crt.c **** 
 625              		.loc 1 142 5 view .LVU147
 626 0004 0026     		movs	r6, #0
 139:D:/fchai/work/i-cube/I-CUBE-HUAWEI/Middlewares/Third_Party/Huawei/iot_link/network/dtls/mbedtls/mbedtls-2.16.2/library\x509write_crt.c ****     size_t len = 0;
 627              		.loc 1 139 20 view .LVU148
 628 0006 0DF11504 		add	r4, sp, #21
 142:D:/fchai/work/i-cube/I-CUBE-HUAWEI/Middlewares/Third_Party/Huawei/iot_link/network/dtls/mbedtls/mbedtls-2.16.2/library\x509write_crt.c **** 
 629              		.loc 1 142 5 view .LVU149
 630 000a CDE90366 		strd	r6, r6, [sp, #12]
 136:D:/fchai/work/i-cube/I-CUBE-HUAWEI/Middlewares/Third_Party/Huawei/iot_link/network/dtls/mbedtls/mbedtls-2.16.2/library\x509write_crt.c ****     int ret;
 631              		.loc 1 136 1 view .LVU150
 632 000e 0546     		mov	r5, r0
 142:D:/fchai/work/i-cube/I-CUBE-HUAWEI/Middlewares/Third_Party/Huawei/iot_link/network/dtls/mbedtls/mbedtls-2.16.2/library\x509write_crt.c **** 
 633              		.loc 1 142 5 view .LVU151
 634 0010 8DF81460 		strb	r6, [sp, #20]
 139:D:/fchai/work/i-cube/I-CUBE-HUAWEI/Middlewares/Third_Party/Huawei/iot_link/network/dtls/mbedtls/mbedtls-2.16.2/library\x509write_crt.c ****     size_t len = 0;
 635              		.loc 1 139 20 view .LVU152
 636 0014 0294     		str	r4, [sp, #8]
 140:D:/fchai/work/i-cube/I-CUBE-HUAWEI/Middlewares/Third_Party/Huawei/iot_link/network/dtls/mbedtls/mbedtls-2.16.2/library\x509write_crt.c **** 
 637              		.loc 1 140 5 is_stmt 1 view .LVU153
 638              	.LVL61:
 142:D:/fchai/work/i-cube/I-CUBE-HUAWEI/Middlewares/Third_Party/Huawei/iot_link/network/dtls/mbedtls/mbedtls-2.16.2/library\x509write_crt.c **** 
 639              		.loc 1 142 5 view .LVU154
 144:D:/fchai/work/i-cube/I-CUBE-HUAWEI/Middlewares/Third_Party/Huawei/iot_link/network/dtls/mbedtls/mbedtls-2.16.2/library\x509write_crt.c ****         return( MBEDTLS_ERR_X509_BAD_INPUT_DATA );
 640              		.loc 1 144 5 view .LVU155
 144:D:/fchai/work/i-cube/I-CUBE-HUAWEI/Middlewares/Third_Party/Huawei/iot_link/network/dtls/mbedtls/mbedtls-2.16.2/library\x509write_crt.c ****         return( MBEDTLS_ERR_X509_BAD_INPUT_DATA );
 641              		.loc 1 144 7 is_stmt 0 view .LVU156
 642 0016 A1B3     		cbz	r1, .L34
 144:D:/fchai/work/i-cube/I-CUBE-HUAWEI/Middlewares/Third_Party/Huawei/iot_link/network/dtls/mbedtls/mbedtls-2.16.2/library\x509write_crt.c ****         return( MBEDTLS_ERR_X509_BAD_INPUT_DATA );
 643              		.loc 1 144 15 discriminator 1 view .LVU157
 644 0018 7F2A     		cmp	r2, #127
 645 001a 40DC     		bgt	.L35
 147:D:/fchai/work/i-cube/I-CUBE-HUAWEI/Middlewares/Third_Party/Huawei/iot_link/network/dtls/mbedtls/mbedtls-2.16.2/library\x509write_crt.c ****     {
 646              		.loc 1 147 5 is_stmt 1 view .LVU158
 149:D:/fchai/work/i-cube/I-CUBE-HUAWEI/Middlewares/Third_Party/Huawei/iot_link/network/dtls/mbedtls/mbedtls-2.16.2/library\x509write_crt.c ****         {
 647              		.loc 1 149 9 view .LVU159
 149:D:/fchai/work/i-cube/I-CUBE-HUAWEI/Middlewares/Third_Party/Huawei/iot_link/network/dtls/mbedtls/mbedtls-2.16.2/library\x509write_crt.c ****         {
 648              		.loc 1 149 11 is_stmt 0 view .LVU160
 649 001c B242     		cmp	r2, r6
 151:D:/fchai/work/i-cube/I-CUBE-HUAWEI/Middlewares/Third_Party/Huawei/iot_link/network/dtls/mbedtls/mbedtls-2.16.2/library\x509write_crt.c ****         }
 650              		.loc 1 151 13 view .LVU161
 651 001e 02AF     		add	r7, sp, #8
 149:D:/fchai/work/i-cube/I-CUBE-HUAWEI/Middlewares/Third_Party/Huawei/iot_link/network/dtls/mbedtls/mbedtls-2.16.2/library\x509write_crt.c ****         {
ARM GAS  T:\msys\tmp\cc1WsHhn.s 			page 20


 652              		.loc 1 149 11 view .LVU162
 653 0020 06DB     		blt	.L33
 151:D:/fchai/work/i-cube/I-CUBE-HUAWEI/Middlewares/Third_Party/Huawei/iot_link/network/dtls/mbedtls/mbedtls-2.16.2/library\x509write_crt.c ****         }
 654              		.loc 1 151 13 is_stmt 1 view .LVU163
 151:D:/fchai/work/i-cube/I-CUBE-HUAWEI/Middlewares/Third_Party/Huawei/iot_link/network/dtls/mbedtls/mbedtls-2.16.2/library\x509write_crt.c ****         }
 655              		.loc 1 151 13 view .LVU164
 656 0022 3846     		mov	r0, r7
 657              	.LVL62:
 151:D:/fchai/work/i-cube/I-CUBE-HUAWEI/Middlewares/Third_Party/Huawei/iot_link/network/dtls/mbedtls/mbedtls-2.16.2/library\x509write_crt.c ****         }
 658              		.loc 1 151 13 is_stmt 0 view .LVU165
 659 0024 03A9     		add	r1, sp, #12
 660              	.LVL63:
 151:D:/fchai/work/i-cube/I-CUBE-HUAWEI/Middlewares/Third_Party/Huawei/iot_link/network/dtls/mbedtls/mbedtls-2.16.2/library\x509write_crt.c ****         }
 661              		.loc 1 151 13 view .LVU166
 662 0026 FFF7FEFF 		bl	mbedtls_asn1_write_int
 663              	.LVL64:
 151:D:/fchai/work/i-cube/I-CUBE-HUAWEI/Middlewares/Third_Party/Huawei/iot_link/network/dtls/mbedtls/mbedtls-2.16.2/library\x509write_crt.c ****         }
 664              		.loc 1 151 13 view .LVU167
 665 002a 041E     		subs	r4, r0, #0
 666 002c 26DB     		blt	.L30
 151:D:/fchai/work/i-cube/I-CUBE-HUAWEI/Middlewares/Third_Party/Huawei/iot_link/network/dtls/mbedtls/mbedtls-2.16.2/library\x509write_crt.c ****         }
 667              		.loc 1 151 13 is_stmt 1 discriminator 2 view .LVU168
 668 002e 2646     		mov	r6, r4
 669              	.LVL65:
 670              	.L33:
 151:D:/fchai/work/i-cube/I-CUBE-HUAWEI/Middlewares/Third_Party/Huawei/iot_link/network/dtls/mbedtls/mbedtls-2.16.2/library\x509write_crt.c ****         }
 671              		.loc 1 151 13 discriminator 3 view .LVU169
 153:D:/fchai/work/i-cube/I-CUBE-HUAWEI/Middlewares/Third_Party/Huawei/iot_link/network/dtls/mbedtls/mbedtls-2.16.2/library\x509write_crt.c ****     }
 672              		.loc 1 153 9 discriminator 3 view .LVU170
 153:D:/fchai/work/i-cube/I-CUBE-HUAWEI/Middlewares/Third_Party/Huawei/iot_link/network/dtls/mbedtls/mbedtls-2.16.2/library\x509write_crt.c ****     }
 673              		.loc 1 153 9 discriminator 3 view .LVU171
 674 0030 0122     		movs	r2, #1
 675 0032 03A9     		add	r1, sp, #12
 676 0034 3846     		mov	r0, r7
 677 0036 FFF7FEFF 		bl	mbedtls_asn1_write_bool
 678              	.LVL66:
 153:D:/fchai/work/i-cube/I-CUBE-HUAWEI/Middlewares/Third_Party/Huawei/iot_link/network/dtls/mbedtls/mbedtls-2.16.2/library\x509write_crt.c ****     }
 679              		.loc 1 153 9 is_stmt 0 discriminator 3 view .LVU172
 680 003a 041E     		subs	r4, r0, #0
 681 003c 1EDB     		blt	.L30
 153:D:/fchai/work/i-cube/I-CUBE-HUAWEI/Middlewares/Third_Party/Huawei/iot_link/network/dtls/mbedtls/mbedtls-2.16.2/library\x509write_crt.c ****     }
 682              		.loc 1 153 9 is_stmt 1 discriminator 2 view .LVU173
 683 003e 2644     		add	r6, r6, r4
 684              	.LVL67:
 153:D:/fchai/work/i-cube/I-CUBE-HUAWEI/Middlewares/Third_Party/Huawei/iot_link/network/dtls/mbedtls/mbedtls-2.16.2/library\x509write_crt.c ****     }
 685              		.loc 1 153 9 discriminator 2 view .LVU174
 156:D:/fchai/work/i-cube/I-CUBE-HUAWEI/Middlewares/Third_Party/Huawei/iot_link/network/dtls/mbedtls/mbedtls-2.16.2/library\x509write_crt.c ****     MBEDTLS_ASN1_CHK_ADD( len, mbedtls_asn1_write_tag( &c, buf, MBEDTLS_ASN1_CONSTRUCTED |
 686              		.loc 1 156 5 discriminator 2 view .LVU175
 156:D:/fchai/work/i-cube/I-CUBE-HUAWEI/Middlewares/Third_Party/Huawei/iot_link/network/dtls/mbedtls/mbedtls-2.16.2/library\x509write_crt.c ****     MBEDTLS_ASN1_CHK_ADD( len, mbedtls_asn1_write_tag( &c, buf, MBEDTLS_ASN1_CONSTRUCTED |
 687              		.loc 1 156 5 discriminator 2 view .LVU176
 688 0040 3246     		mov	r2, r6
 689 0042 03A9     		add	r1, sp, #12
 690 0044 3846     		mov	r0, r7
 691              	.LVL68:
 156:D:/fchai/work/i-cube/I-CUBE-HUAWEI/Middlewares/Third_Party/Huawei/iot_link/network/dtls/mbedtls/mbedtls-2.16.2/library\x509write_crt.c ****     MBEDTLS_ASN1_CHK_ADD( len, mbedtls_asn1_write_tag( &c, buf, MBEDTLS_ASN1_CONSTRUCTED |
 692              		.loc 1 156 5 is_stmt 0 discriminator 2 view .LVU177
 693 0046 FFF7FEFF 		bl	mbedtls_asn1_write_len
ARM GAS  T:\msys\tmp\cc1WsHhn.s 			page 21


 694              	.LVL69:
 156:D:/fchai/work/i-cube/I-CUBE-HUAWEI/Middlewares/Third_Party/Huawei/iot_link/network/dtls/mbedtls/mbedtls-2.16.2/library\x509write_crt.c ****     MBEDTLS_ASN1_CHK_ADD( len, mbedtls_asn1_write_tag( &c, buf, MBEDTLS_ASN1_CONSTRUCTED |
 695              		.loc 1 156 5 discriminator 2 view .LVU178
 696 004a 041E     		subs	r4, r0, #0
 697 004c 16DB     		blt	.L30
 698              	.L39:
 156:D:/fchai/work/i-cube/I-CUBE-HUAWEI/Middlewares/Third_Party/Huawei/iot_link/network/dtls/mbedtls/mbedtls-2.16.2/library\x509write_crt.c ****     MBEDTLS_ASN1_CHK_ADD( len, mbedtls_asn1_write_tag( &c, buf, MBEDTLS_ASN1_CONSTRUCTED |
 699              		.loc 1 156 5 is_stmt 1 discriminator 2 view .LVU179
 700              	.LVL70:
 156:D:/fchai/work/i-cube/I-CUBE-HUAWEI/Middlewares/Third_Party/Huawei/iot_link/network/dtls/mbedtls/mbedtls-2.16.2/library\x509write_crt.c ****     MBEDTLS_ASN1_CHK_ADD( len, mbedtls_asn1_write_tag( &c, buf, MBEDTLS_ASN1_CONSTRUCTED |
 701              		.loc 1 156 5 discriminator 2 view .LVU180
 157:D:/fchai/work/i-cube/I-CUBE-HUAWEI/Middlewares/Third_Party/Huawei/iot_link/network/dtls/mbedtls/mbedtls-2.16.2/library\x509write_crt.c ****                                                 MBEDTLS_ASN1_SEQUENCE ) );
 702              		.loc 1 157 5 discriminator 2 view .LVU181
 157:D:/fchai/work/i-cube/I-CUBE-HUAWEI/Middlewares/Third_Party/Huawei/iot_link/network/dtls/mbedtls/mbedtls-2.16.2/library\x509write_crt.c ****                                                 MBEDTLS_ASN1_SEQUENCE ) );
 703              		.loc 1 157 5 discriminator 2 view .LVU182
 704 004e 3846     		mov	r0, r7
 705              	.LVL71:
 157:D:/fchai/work/i-cube/I-CUBE-HUAWEI/Middlewares/Third_Party/Huawei/iot_link/network/dtls/mbedtls/mbedtls-2.16.2/library\x509write_crt.c ****                                                 MBEDTLS_ASN1_SEQUENCE ) );
 706              		.loc 1 157 5 is_stmt 0 discriminator 2 view .LVU183
 707 0050 3022     		movs	r2, #48
 708 0052 03A9     		add	r1, sp, #12
 709 0054 FFF7FEFF 		bl	mbedtls_asn1_write_tag
 710              	.LVL72:
 157:D:/fchai/work/i-cube/I-CUBE-HUAWEI/Middlewares/Third_Party/Huawei/iot_link/network/dtls/mbedtls/mbedtls-2.16.2/library\x509write_crt.c ****                                                 MBEDTLS_ASN1_SEQUENCE ) );
 711              		.loc 1 157 5 discriminator 2 view .LVU184
 712 0058 0028     		cmp	r0, #0
 157:D:/fchai/work/i-cube/I-CUBE-HUAWEI/Middlewares/Third_Party/Huawei/iot_link/network/dtls/mbedtls/mbedtls-2.16.2/library\x509write_crt.c ****                                                 MBEDTLS_ASN1_SEQUENCE ) );
 713              		.loc 1 157 5 discriminator 2 view .LVU185
 714 005a 1CDB     		blt	.L37
 157:D:/fchai/work/i-cube/I-CUBE-HUAWEI/Middlewares/Third_Party/Huawei/iot_link/network/dtls/mbedtls/mbedtls-2.16.2/library\x509write_crt.c ****                                                 MBEDTLS_ASN1_SEQUENCE ) );
 715              		.loc 1 157 5 is_stmt 1 discriminator 2 view .LVU186
 156:D:/fchai/work/i-cube/I-CUBE-HUAWEI/Middlewares/Third_Party/Huawei/iot_link/network/dtls/mbedtls/mbedtls-2.16.2/library\x509write_crt.c ****     MBEDTLS_ASN1_CHK_ADD( len, mbedtls_asn1_write_tag( &c, buf, MBEDTLS_ASN1_CONSTRUCTED |
 716              		.loc 1 156 5 is_stmt 0 discriminator 2 view .LVU187
 717 005c A119     		adds	r1, r4, r6
 157:D:/fchai/work/i-cube/I-CUBE-HUAWEI/Middlewares/Third_Party/Huawei/iot_link/network/dtls/mbedtls/mbedtls-2.16.2/library\x509write_crt.c ****                                                 MBEDTLS_ASN1_SEQUENCE ) );
 718              		.loc 1 157 5 discriminator 2 view .LVU188
 719 005e 0844     		add	r0, r0, r1
 720              	.LVL73:
 157:D:/fchai/work/i-cube/I-CUBE-HUAWEI/Middlewares/Third_Party/Huawei/iot_link/network/dtls/mbedtls/mbedtls-2.16.2/library\x509write_crt.c ****                                                 MBEDTLS_ASN1_SEQUENCE ) );
 721              		.loc 1 157 5 is_stmt 1 discriminator 2 view .LVU189
 160:D:/fchai/work/i-cube/I-CUBE-HUAWEI/Middlewares/Third_Party/Huawei/iot_link/network/dtls/mbedtls/mbedtls-2.16.2/library\x509write_crt.c ****                                         MBEDTLS_OID_SIZE( MBEDTLS_OID_BASIC_CONSTRAINTS ),
 722              		.loc 1 160 5 discriminator 2 view .LVU190
 723              	.LBB16:
 724              	.LBI16:
 125:D:/fchai/work/i-cube/I-CUBE-HUAWEI/Middlewares/Third_Party/Huawei/iot_link/network/dtls/mbedtls/mbedtls-2.16.2/library\x509write_crt.c ****                                  const char *oid, size_t oid_len,
 725              		.loc 1 125 5 discriminator 2 view .LVU191
 726              	.LBB17:
 130:D:/fchai/work/i-cube/I-CUBE-HUAWEI/Middlewares/Third_Party/Huawei/iot_link/network/dtls/mbedtls/mbedtls-2.16.2/library\x509write_crt.c ****                                critical, val, val_len );
 727              		.loc 1 130 5 discriminator 2 view .LVU192
 728              	.LBE17:
 729              	.LBE16:
 162:D:/fchai/work/i-cube/I-CUBE-HUAWEI/Middlewares/Third_Party/Huawei/iot_link/network/dtls/mbedtls/mbedtls-2.16.2/library\x509write_crt.c **** }
 730              		.loc 1 162 62 is_stmt 0 discriminator 2 view .LVU193
 731 0060 C0F10903 		rsb	r3, r0, #9
 160:D:/fchai/work/i-cube/I-CUBE-HUAWEI/Middlewares/Third_Party/Huawei/iot_link/network/dtls/mbedtls/mbedtls-2.16.2/library\x509write_crt.c ****                                         MBEDTLS_OID_SIZE( MBEDTLS_OID_BASIC_CONSTRAINTS ),
 732              		.loc 1 160 12 discriminator 2 view .LVU194
 733 0064 03AA     		add	r2, sp, #12
ARM GAS  T:\msys\tmp\cc1WsHhn.s 			page 22


 734 0066 1344     		add	r3, r3, r2
 735              	.LBB19:
 736              	.LBB18:
 130:D:/fchai/work/i-cube/I-CUBE-HUAWEI/Middlewares/Third_Party/Huawei/iot_link/network/dtls/mbedtls/mbedtls-2.16.2/library\x509write_crt.c ****                                critical, val, val_len );
 737              		.loc 1 130 12 discriminator 2 view .LVU195
 738 0068 CDE90030 		strd	r3, r0, [sp]
 739 006c 0D49     		ldr	r1, .L40
 740 006e 05F14400 		add	r0, r5, #68
 741              	.LVL74:
 130:D:/fchai/work/i-cube/I-CUBE-HUAWEI/Middlewares/Third_Party/Huawei/iot_link/network/dtls/mbedtls/mbedtls-2.16.2/library\x509write_crt.c ****                                critical, val, val_len );
 742              		.loc 1 130 12 discriminator 2 view .LVU196
 743 0072 0023     		movs	r3, #0
 744 0074 0322     		movs	r2, #3
 745 0076 FFF7FEFF 		bl	mbedtls_x509_set_extension
 746              	.LVL75:
 130:D:/fchai/work/i-cube/I-CUBE-HUAWEI/Middlewares/Third_Party/Huawei/iot_link/network/dtls/mbedtls/mbedtls-2.16.2/library\x509write_crt.c ****                                critical, val, val_len );
 747              		.loc 1 130 12 discriminator 2 view .LVU197
 748 007a 0446     		mov	r4, r0
 749              	.LVL76:
 750              	.L30:
 130:D:/fchai/work/i-cube/I-CUBE-HUAWEI/Middlewares/Third_Party/Huawei/iot_link/network/dtls/mbedtls/mbedtls-2.16.2/library\x509write_crt.c ****                                critical, val, val_len );
 751              		.loc 1 130 12 discriminator 2 view .LVU198
 752              	.LBE18:
 753              	.LBE19:
 163:D:/fchai/work/i-cube/I-CUBE-HUAWEI/Middlewares/Third_Party/Huawei/iot_link/network/dtls/mbedtls/mbedtls-2.16.2/library\x509write_crt.c **** 
 754              		.loc 1 163 1 view .LVU199
 755 007c 2046     		mov	r0, r4
 756 007e 07B0     		add	sp, sp, #28
 757              	.LCFI7:
 758              		.cfi_remember_state
 759              		.cfi_def_cfa_offset 20
 760              		@ sp needed
 761 0080 F0BD     		pop	{r4, r5, r6, r7, pc}
 762              	.LVL77:
 763              	.L34:
 764              	.LCFI8:
 765              		.cfi_restore_state
 140:D:/fchai/work/i-cube/I-CUBE-HUAWEI/Middlewares/Third_Party/Huawei/iot_link/network/dtls/mbedtls/mbedtls-2.16.2/library\x509write_crt.c **** 
 766              		.loc 1 140 12 view .LVU200
 767 0082 0E46     		mov	r6, r1
 768              	.LVL78:
 153:D:/fchai/work/i-cube/I-CUBE-HUAWEI/Middlewares/Third_Party/Huawei/iot_link/network/dtls/mbedtls/mbedtls-2.16.2/library\x509write_crt.c ****     }
 769              		.loc 1 153 9 is_stmt 1 view .LVU201
 156:D:/fchai/work/i-cube/I-CUBE-HUAWEI/Middlewares/Third_Party/Huawei/iot_link/network/dtls/mbedtls/mbedtls-2.16.2/library\x509write_crt.c ****     MBEDTLS_ASN1_CHK_ADD( len, mbedtls_asn1_write_tag( &c, buf, MBEDTLS_ASN1_CONSTRUCTED |
 770              		.loc 1 156 5 view .LVU202
 156:D:/fchai/work/i-cube/I-CUBE-HUAWEI/Middlewares/Third_Party/Huawei/iot_link/network/dtls/mbedtls/mbedtls-2.16.2/library\x509write_crt.c ****     MBEDTLS_ASN1_CHK_ADD( len, mbedtls_asn1_write_tag( &c, buf, MBEDTLS_ASN1_CONSTRUCTED |
 771              		.loc 1 156 5 view .LVU203
 772 0084 02AF     		add	r7, sp, #8
 773 0086 3246     		mov	r2, r6
 774              	.LVL79:
 156:D:/fchai/work/i-cube/I-CUBE-HUAWEI/Middlewares/Third_Party/Huawei/iot_link/network/dtls/mbedtls/mbedtls-2.16.2/library\x509write_crt.c ****     MBEDTLS_ASN1_CHK_ADD( len, mbedtls_asn1_write_tag( &c, buf, MBEDTLS_ASN1_CONSTRUCTED |
 775              		.loc 1 156 5 is_stmt 0 view .LVU204
 776 0088 03A9     		add	r1, sp, #12
 777              	.LVL80:
 156:D:/fchai/work/i-cube/I-CUBE-HUAWEI/Middlewares/Third_Party/Huawei/iot_link/network/dtls/mbedtls/mbedtls-2.16.2/library\x509write_crt.c ****     MBEDTLS_ASN1_CHK_ADD( len, mbedtls_asn1_write_tag( &c, buf, MBEDTLS_ASN1_CONSTRUCTED |
 778              		.loc 1 156 5 view .LVU205
 779 008a 3846     		mov	r0, r7
ARM GAS  T:\msys\tmp\cc1WsHhn.s 			page 23


 780              	.LVL81:
 156:D:/fchai/work/i-cube/I-CUBE-HUAWEI/Middlewares/Third_Party/Huawei/iot_link/network/dtls/mbedtls/mbedtls-2.16.2/library\x509write_crt.c ****     MBEDTLS_ASN1_CHK_ADD( len, mbedtls_asn1_write_tag( &c, buf, MBEDTLS_ASN1_CONSTRUCTED |
 781              		.loc 1 156 5 view .LVU206
 782 008c FFF7FEFF 		bl	mbedtls_asn1_write_len
 783              	.LVL82:
 156:D:/fchai/work/i-cube/I-CUBE-HUAWEI/Middlewares/Third_Party/Huawei/iot_link/network/dtls/mbedtls/mbedtls-2.16.2/library\x509write_crt.c ****     MBEDTLS_ASN1_CHK_ADD( len, mbedtls_asn1_write_tag( &c, buf, MBEDTLS_ASN1_CONSTRUCTED |
 784              		.loc 1 156 5 view .LVU207
 785 0090 041E     		subs	r4, r0, #0
 786 0092 DCDA     		bge	.L39
 156:D:/fchai/work/i-cube/I-CUBE-HUAWEI/Middlewares/Third_Party/Huawei/iot_link/network/dtls/mbedtls/mbedtls-2.16.2/library\x509write_crt.c ****     MBEDTLS_ASN1_CHK_ADD( len, mbedtls_asn1_write_tag( &c, buf, MBEDTLS_ASN1_CONSTRUCTED |
 787              		.loc 1 156 5 view .LVU208
 788 0094 F2E7     		b	.L30
 789              	.LVL83:
 790              	.L37:
 156:D:/fchai/work/i-cube/I-CUBE-HUAWEI/Middlewares/Third_Party/Huawei/iot_link/network/dtls/mbedtls/mbedtls-2.16.2/library\x509write_crt.c ****     MBEDTLS_ASN1_CHK_ADD( len, mbedtls_asn1_write_tag( &c, buf, MBEDTLS_ASN1_CONSTRUCTED |
 791              		.loc 1 156 5 view .LVU209
 792 0096 0446     		mov	r4, r0
 163:D:/fchai/work/i-cube/I-CUBE-HUAWEI/Middlewares/Third_Party/Huawei/iot_link/network/dtls/mbedtls/mbedtls-2.16.2/library\x509write_crt.c **** 
 793              		.loc 1 163 1 view .LVU210
 794 0098 2046     		mov	r0, r4
 163:D:/fchai/work/i-cube/I-CUBE-HUAWEI/Middlewares/Third_Party/Huawei/iot_link/network/dtls/mbedtls/mbedtls-2.16.2/library\x509write_crt.c **** 
 795              		.loc 1 163 1 view .LVU211
 796 009a 07B0     		add	sp, sp, #28
 797              	.LCFI9:
 798              		.cfi_remember_state
 799              		.cfi_def_cfa_offset 20
 800              		@ sp needed
 801 009c F0BD     		pop	{r4, r5, r6, r7, pc}
 802              	.LVL84:
 803              	.L35:
 804              	.LCFI10:
 805              		.cfi_restore_state
 145:D:/fchai/work/i-cube/I-CUBE-HUAWEI/Middlewares/Third_Party/Huawei/iot_link/network/dtls/mbedtls/mbedtls-2.16.2/library\x509write_crt.c **** 
 806              		.loc 1 145 15 view .LVU212
 807 009e 024C     		ldr	r4, .L40+4
 808 00a0 ECE7     		b	.L30
 809              	.L41:
 810 00a2 00BF     		.align	2
 811              	.L40:
 812 00a4 00000000 		.word	.LC0
 813 00a8 00D8FFFF 		.word	-10240
 814              		.cfi_endproc
 815              	.LFE21:
 817              		.section	.rodata.mbedtls_x509write_crt_set_subject_key_identifier.str1.4,"aMS",%progbits,1
 818              		.align	2
 819              	.LC1:
 820 0000 551D0E00 		.ascii	"U\035\016\000"
 821              		.section	.text.mbedtls_x509write_crt_set_subject_key_identifier,"ax",%progbits
 822              		.align	1
 823              		.p2align 2,,3
 824              		.global	mbedtls_x509write_crt_set_subject_key_identifier
 825              		.syntax unified
 826              		.thumb
 827              		.thumb_func
 828              		.fpu fpv4-sp-d16
 830              	mbedtls_x509write_crt_set_subject_key_identifier:
 831              	.LVL85:
ARM GAS  T:\msys\tmp\cc1WsHhn.s 			page 24


 832              	.LFB22:
 167:D:/fchai/work/i-cube/I-CUBE-HUAWEI/Middlewares/Third_Party/Huawei/iot_link/network/dtls/mbedtls/mbedtls-2.16.2/library\x509write_crt.c ****     int ret;
 833              		.loc 1 167 1 is_stmt 1 view -0
 834              		.cfi_startproc
 835              		@ args = 0, pretend = 0, frame = 2072
 836              		@ frame_needed = 0, uses_anonymous_args = 0
 168:D:/fchai/work/i-cube/I-CUBE-HUAWEI/Middlewares/Third_Party/Huawei/iot_link/network/dtls/mbedtls/mbedtls-2.16.2/library\x509write_crt.c ****     unsigned char buf[MBEDTLS_MPI_MAX_SIZE * 2 + 20]; /* tag, length + 2xMPI */
 837              		.loc 1 168 5 view .LVU214
 169:D:/fchai/work/i-cube/I-CUBE-HUAWEI/Middlewares/Third_Party/Huawei/iot_link/network/dtls/mbedtls/mbedtls-2.16.2/library\x509write_crt.c ****     unsigned char *c = buf + sizeof(buf);
 838              		.loc 1 169 5 view .LVU215
 170:D:/fchai/work/i-cube/I-CUBE-HUAWEI/Middlewares/Third_Party/Huawei/iot_link/network/dtls/mbedtls/mbedtls-2.16.2/library\x509write_crt.c ****     size_t len = 0;
 839              		.loc 1 170 5 view .LVU216
 167:D:/fchai/work/i-cube/I-CUBE-HUAWEI/Middlewares/Third_Party/Huawei/iot_link/network/dtls/mbedtls/mbedtls-2.16.2/library\x509write_crt.c ****     int ret;
 840              		.loc 1 167 1 is_stmt 0 view .LVU217
 841 0000 70B5     		push	{r4, r5, r6, lr}
 842              	.LCFI11:
 843              		.cfi_def_cfa_offset 16
 844              		.cfi_offset 4, -16
 845              		.cfi_offset 5, -12
 846              		.cfi_offset 6, -8
 847              		.cfi_offset 14, -4
 848 0002 0546     		mov	r5, r0
 849 0004 ADF5026D 		sub	sp, sp, #2080
 850              	.LCFI12:
 851              		.cfi_def_cfa_offset 2096
 173:D:/fchai/work/i-cube/I-CUBE-HUAWEI/Middlewares/Third_Party/Huawei/iot_link/network/dtls/mbedtls/mbedtls-2.16.2/library\x509write_crt.c ****     MBEDTLS_ASN1_CHK_ADD( len, mbedtls_pk_write_pubkey( &c, buf, ctx->subject_key ) );
 852              		.loc 1 173 5 view .LVU218
 853 0008 40F61406 		movw	r6, #2068
 170:D:/fchai/work/i-cube/I-CUBE-HUAWEI/Middlewares/Third_Party/Huawei/iot_link/network/dtls/mbedtls/mbedtls-2.16.2/library\x509write_crt.c ****     size_t len = 0;
 854              		.loc 1 170 20 view .LVU219
 855 000c 0DF50263 		add	r3, sp, #2080
 173:D:/fchai/work/i-cube/I-CUBE-HUAWEI/Middlewares/Third_Party/Huawei/iot_link/network/dtls/mbedtls/mbedtls-2.16.2/library\x509write_crt.c ****     MBEDTLS_ASN1_CHK_ADD( len, mbedtls_pk_write_pubkey( &c, buf, ctx->subject_key ) );
 856              		.loc 1 173 5 view .LVU220
 857 0010 3246     		mov	r2, r6
 858 0012 0021     		movs	r1, #0
 859 0014 03A8     		add	r0, sp, #12
 860              	.LVL86:
 170:D:/fchai/work/i-cube/I-CUBE-HUAWEI/Middlewares/Third_Party/Huawei/iot_link/network/dtls/mbedtls/mbedtls-2.16.2/library\x509write_crt.c ****     size_t len = 0;
 861              		.loc 1 170 20 view .LVU221
 862 0016 0293     		str	r3, [sp, #8]
 171:D:/fchai/work/i-cube/I-CUBE-HUAWEI/Middlewares/Third_Party/Huawei/iot_link/network/dtls/mbedtls/mbedtls-2.16.2/library\x509write_crt.c **** 
 863              		.loc 1 171 5 is_stmt 1 view .LVU222
 864              	.LVL87:
 173:D:/fchai/work/i-cube/I-CUBE-HUAWEI/Middlewares/Third_Party/Huawei/iot_link/network/dtls/mbedtls/mbedtls-2.16.2/library\x509write_crt.c ****     MBEDTLS_ASN1_CHK_ADD( len, mbedtls_pk_write_pubkey( &c, buf, ctx->subject_key ) );
 865              		.loc 1 173 5 view .LVU223
 866 0018 FFF7FEFF 		bl	memset
 867              	.LVL88:
 174:D:/fchai/work/i-cube/I-CUBE-HUAWEI/Middlewares/Third_Party/Huawei/iot_link/network/dtls/mbedtls/mbedtls-2.16.2/library\x509write_crt.c **** 
 868              		.loc 1 174 5 view .LVU224
 174:D:/fchai/work/i-cube/I-CUBE-HUAWEI/Middlewares/Third_Party/Huawei/iot_link/network/dtls/mbedtls/mbedtls-2.16.2/library\x509write_crt.c **** 
 869              		.loc 1 174 5 view .LVU225
 870 001c 2A69     		ldr	r2, [r5, #16]
 871 001e 03A9     		add	r1, sp, #12
 872 0020 02A8     		add	r0, sp, #8
 873 0022 FFF7FEFF 		bl	mbedtls_pk_write_pubkey
 874              	.LVL89:
 174:D:/fchai/work/i-cube/I-CUBE-HUAWEI/Middlewares/Third_Party/Huawei/iot_link/network/dtls/mbedtls/mbedtls-2.16.2/library\x509write_crt.c **** 
ARM GAS  T:\msys\tmp\cc1WsHhn.s 			page 25


 875              		.loc 1 174 5 is_stmt 0 view .LVU226
 876 0026 041E     		subs	r4, r0, #0
 877 0028 09DB     		blt	.L42
 174:D:/fchai/work/i-cube/I-CUBE-HUAWEI/Middlewares/Third_Party/Huawei/iot_link/network/dtls/mbedtls/mbedtls-2.16.2/library\x509write_crt.c **** 
 878              		.loc 1 174 5 is_stmt 1 discriminator 2 view .LVU227
 879              	.LVL90:
 174:D:/fchai/work/i-cube/I-CUBE-HUAWEI/Middlewares/Third_Party/Huawei/iot_link/network/dtls/mbedtls/mbedtls-2.16.2/library\x509write_crt.c **** 
 880              		.loc 1 174 5 discriminator 2 view .LVU228
 176:D:/fchai/work/i-cube/I-CUBE-HUAWEI/Middlewares/Third_Party/Huawei/iot_link/network/dtls/mbedtls/mbedtls-2.16.2/library\x509write_crt.c ****                             buf + sizeof( buf ) - 20 );
 881              		.loc 1 176 5 discriminator 2 view .LVU229
 176:D:/fchai/work/i-cube/I-CUBE-HUAWEI/Middlewares/Third_Party/Huawei/iot_link/network/dtls/mbedtls/mbedtls-2.16.2/library\x509write_crt.c ****                             buf + sizeof( buf ) - 20 );
 882              		.loc 1 176 49 is_stmt 0 discriminator 2 view .LVU230
 883 002a 301B     		subs	r0, r6, r4
 884              	.LVL91:
 176:D:/fchai/work/i-cube/I-CUBE-HUAWEI/Middlewares/Third_Party/Huawei/iot_link/network/dtls/mbedtls/mbedtls-2.16.2/library\x509write_crt.c ****                             buf + sizeof( buf ) - 20 );
 885              		.loc 1 176 11 discriminator 2 view .LVU231
 886 002c 03AB     		add	r3, sp, #12
 887 002e 2146     		mov	r1, r4
 888 0030 0DF60C02 		addw	r2, sp, #2060
 889 0034 1844     		add	r0, r0, r3
 890 0036 FFF7FEFF 		bl	mbedtls_sha1_ret
 891              	.LVL92:
 178:D:/fchai/work/i-cube/I-CUBE-HUAWEI/Middlewares/Third_Party/Huawei/iot_link/network/dtls/mbedtls/mbedtls-2.16.2/library\x509write_crt.c ****         return( ret );
 892              		.loc 1 178 5 is_stmt 1 discriminator 2 view .LVU232
 178:D:/fchai/work/i-cube/I-CUBE-HUAWEI/Middlewares/Third_Party/Huawei/iot_link/network/dtls/mbedtls/mbedtls-2.16.2/library\x509write_crt.c ****         return( ret );
 893              		.loc 1 178 7 is_stmt 0 discriminator 2 view .LVU233
 894 003a 0446     		mov	r4, r0
 895              	.LVL93:
 178:D:/fchai/work/i-cube/I-CUBE-HUAWEI/Middlewares/Third_Party/Huawei/iot_link/network/dtls/mbedtls/mbedtls-2.16.2/library\x509write_crt.c ****         return( ret );
 896              		.loc 1 178 7 discriminator 2 view .LVU234
 897 003c 18B1     		cbz	r0, .L46
 898              	.LVL94:
 899              	.L42:
 189:D:/fchai/work/i-cube/I-CUBE-HUAWEI/Middlewares/Third_Party/Huawei/iot_link/network/dtls/mbedtls/mbedtls-2.16.2/library\x509write_crt.c **** 
 900              		.loc 1 189 1 view .LVU235
 901 003e 2046     		mov	r0, r4
 902 0040 0DF5026D 		add	sp, sp, #2080
 903              	.LCFI13:
 904              		.cfi_remember_state
 905              		.cfi_def_cfa_offset 16
 906              		@ sp needed
 907 0044 70BD     		pop	{r4, r5, r6, pc}
 908              	.LVL95:
 909              	.L46:
 910              	.LCFI14:
 911              		.cfi_restore_state
 180:D:/fchai/work/i-cube/I-CUBE-HUAWEI/Middlewares/Third_Party/Huawei/iot_link/network/dtls/mbedtls/mbedtls-2.16.2/library\x509write_crt.c ****     len = 20;
 912              		.loc 1 180 5 is_stmt 1 view .LVU236
 180:D:/fchai/work/i-cube/I-CUBE-HUAWEI/Middlewares/Third_Party/Huawei/iot_link/network/dtls/mbedtls/mbedtls-2.16.2/library\x509write_crt.c ****     len = 20;
 913              		.loc 1 180 7 is_stmt 0 view .LVU237
 914 0046 0DF60C03 		addw	r3, sp, #2060
 183:D:/fchai/work/i-cube/I-CUBE-HUAWEI/Middlewares/Third_Party/Huawei/iot_link/network/dtls/mbedtls/mbedtls-2.16.2/library\x509write_crt.c ****     MBEDTLS_ASN1_CHK_ADD( len, mbedtls_asn1_write_tag( &c, buf, MBEDTLS_ASN1_OCTET_STRING ) );
 915              		.loc 1 183 5 view .LVU238
 916 004a 1422     		movs	r2, #20
 917 004c 03A9     		add	r1, sp, #12
 918 004e 02A8     		add	r0, sp, #8
 919              	.LVL96:
ARM GAS  T:\msys\tmp\cc1WsHhn.s 			page 26


 180:D:/fchai/work/i-cube/I-CUBE-HUAWEI/Middlewares/Third_Party/Huawei/iot_link/network/dtls/mbedtls/mbedtls-2.16.2/library\x509write_crt.c ****     len = 20;
 920              		.loc 1 180 7 view .LVU239
 921 0050 0293     		str	r3, [sp, #8]
 181:D:/fchai/work/i-cube/I-CUBE-HUAWEI/Middlewares/Third_Party/Huawei/iot_link/network/dtls/mbedtls/mbedtls-2.16.2/library\x509write_crt.c **** 
 922              		.loc 1 181 5 is_stmt 1 view .LVU240
 923              	.LVL97:
 183:D:/fchai/work/i-cube/I-CUBE-HUAWEI/Middlewares/Third_Party/Huawei/iot_link/network/dtls/mbedtls/mbedtls-2.16.2/library\x509write_crt.c ****     MBEDTLS_ASN1_CHK_ADD( len, mbedtls_asn1_write_tag( &c, buf, MBEDTLS_ASN1_OCTET_STRING ) );
 924              		.loc 1 183 5 view .LVU241
 183:D:/fchai/work/i-cube/I-CUBE-HUAWEI/Middlewares/Third_Party/Huawei/iot_link/network/dtls/mbedtls/mbedtls-2.16.2/library\x509write_crt.c ****     MBEDTLS_ASN1_CHK_ADD( len, mbedtls_asn1_write_tag( &c, buf, MBEDTLS_ASN1_OCTET_STRING ) );
 925              		.loc 1 183 5 view .LVU242
 926 0052 FFF7FEFF 		bl	mbedtls_asn1_write_len
 927              	.LVL98:
 183:D:/fchai/work/i-cube/I-CUBE-HUAWEI/Middlewares/Third_Party/Huawei/iot_link/network/dtls/mbedtls/mbedtls-2.16.2/library\x509write_crt.c ****     MBEDTLS_ASN1_CHK_ADD( len, mbedtls_asn1_write_tag( &c, buf, MBEDTLS_ASN1_OCTET_STRING ) );
 928              		.loc 1 183 5 is_stmt 0 view .LVU243
 929 0056 041E     		subs	r4, r0, #0
 930 0058 F1DB     		blt	.L42
 183:D:/fchai/work/i-cube/I-CUBE-HUAWEI/Middlewares/Third_Party/Huawei/iot_link/network/dtls/mbedtls/mbedtls-2.16.2/library\x509write_crt.c ****     MBEDTLS_ASN1_CHK_ADD( len, mbedtls_asn1_write_tag( &c, buf, MBEDTLS_ASN1_OCTET_STRING ) );
 931              		.loc 1 183 5 is_stmt 1 discriminator 2 view .LVU244
 932              	.LVL99:
 183:D:/fchai/work/i-cube/I-CUBE-HUAWEI/Middlewares/Third_Party/Huawei/iot_link/network/dtls/mbedtls/mbedtls-2.16.2/library\x509write_crt.c ****     MBEDTLS_ASN1_CHK_ADD( len, mbedtls_asn1_write_tag( &c, buf, MBEDTLS_ASN1_OCTET_STRING ) );
 933              		.loc 1 183 5 discriminator 2 view .LVU245
 184:D:/fchai/work/i-cube/I-CUBE-HUAWEI/Middlewares/Third_Party/Huawei/iot_link/network/dtls/mbedtls/mbedtls-2.16.2/library\x509write_crt.c **** 
 934              		.loc 1 184 5 discriminator 2 view .LVU246
 184:D:/fchai/work/i-cube/I-CUBE-HUAWEI/Middlewares/Third_Party/Huawei/iot_link/network/dtls/mbedtls/mbedtls-2.16.2/library\x509write_crt.c **** 
 935              		.loc 1 184 5 discriminator 2 view .LVU247
 936 005a 02A8     		add	r0, sp, #8
 937              	.LVL100:
 184:D:/fchai/work/i-cube/I-CUBE-HUAWEI/Middlewares/Third_Party/Huawei/iot_link/network/dtls/mbedtls/mbedtls-2.16.2/library\x509write_crt.c **** 
 938              		.loc 1 184 5 is_stmt 0 discriminator 2 view .LVU248
 939 005c 0422     		movs	r2, #4
 940 005e 03A9     		add	r1, sp, #12
 941 0060 FFF7FEFF 		bl	mbedtls_asn1_write_tag
 942              	.LVL101:
 184:D:/fchai/work/i-cube/I-CUBE-HUAWEI/Middlewares/Third_Party/Huawei/iot_link/network/dtls/mbedtls/mbedtls-2.16.2/library\x509write_crt.c **** 
 943              		.loc 1 184 5 discriminator 2 view .LVU249
 944 0064 0028     		cmp	r0, #0
 184:D:/fchai/work/i-cube/I-CUBE-HUAWEI/Middlewares/Third_Party/Huawei/iot_link/network/dtls/mbedtls/mbedtls-2.16.2/library\x509write_crt.c **** 
 945              		.loc 1 184 5 discriminator 2 view .LVU250
 946 0066 0FDB     		blt	.L44
 184:D:/fchai/work/i-cube/I-CUBE-HUAWEI/Middlewares/Third_Party/Huawei/iot_link/network/dtls/mbedtls/mbedtls-2.16.2/library\x509write_crt.c **** 
 947              		.loc 1 184 5 is_stmt 1 discriminator 2 view .LVU251
 183:D:/fchai/work/i-cube/I-CUBE-HUAWEI/Middlewares/Third_Party/Huawei/iot_link/network/dtls/mbedtls/mbedtls-2.16.2/library\x509write_crt.c ****     MBEDTLS_ASN1_CHK_ADD( len, mbedtls_asn1_write_tag( &c, buf, MBEDTLS_ASN1_OCTET_STRING ) );
 948              		.loc 1 183 5 is_stmt 0 discriminator 2 view .LVU252
 949 0068 1434     		adds	r4, r4, #20
 950              	.LVL102:
 184:D:/fchai/work/i-cube/I-CUBE-HUAWEI/Middlewares/Third_Party/Huawei/iot_link/network/dtls/mbedtls/mbedtls-2.16.2/library\x509write_crt.c **** 
 951              		.loc 1 184 5 discriminator 2 view .LVU253
 952 006a 2044     		add	r0, r0, r4
 953              	.LVL103:
 184:D:/fchai/work/i-cube/I-CUBE-HUAWEI/Middlewares/Third_Party/Huawei/iot_link/network/dtls/mbedtls/mbedtls-2.16.2/library\x509write_crt.c **** 
 954              		.loc 1 184 5 is_stmt 1 discriminator 2 view .LVU254
 186:D:/fchai/work/i-cube/I-CUBE-HUAWEI/Middlewares/Third_Party/Huawei/iot_link/network/dtls/mbedtls/mbedtls-2.16.2/library\x509write_crt.c ****                                         MBEDTLS_OID_SIZE( MBEDTLS_OID_SUBJECT_KEY_IDENTIFIER ),
 955              		.loc 1 186 5 discriminator 2 view .LVU255
 956              	.LBB20:
 957              	.LBI20:
 125:D:/fchai/work/i-cube/I-CUBE-HUAWEI/Middlewares/Third_Party/Huawei/iot_link/network/dtls/mbedtls/mbedtls-2.16.2/library\x509write_crt.c ****                                  const char *oid, size_t oid_len,
 958              		.loc 1 125 5 discriminator 2 view .LVU256
ARM GAS  T:\msys\tmp\cc1WsHhn.s 			page 27


 959              	.LBB21:
 130:D:/fchai/work/i-cube/I-CUBE-HUAWEI/Middlewares/Third_Party/Huawei/iot_link/network/dtls/mbedtls/mbedtls-2.16.2/library\x509write_crt.c ****                                critical, val, val_len );
 960              		.loc 1 130 5 discriminator 2 view .LVU257
 961              	.LBE21:
 962              	.LBE20:
 188:D:/fchai/work/i-cube/I-CUBE-HUAWEI/Middlewares/Third_Party/Huawei/iot_link/network/dtls/mbedtls/mbedtls-2.16.2/library\x509write_crt.c **** }
 963              		.loc 1 188 62 is_stmt 0 discriminator 2 view .LVU258
 964 006c 331A     		subs	r3, r6, r0
 186:D:/fchai/work/i-cube/I-CUBE-HUAWEI/Middlewares/Third_Party/Huawei/iot_link/network/dtls/mbedtls/mbedtls-2.16.2/library\x509write_crt.c ****                                         MBEDTLS_OID_SIZE( MBEDTLS_OID_SUBJECT_KEY_IDENTIFIER ),
 965              		.loc 1 186 12 discriminator 2 view .LVU259
 966 006e 03AA     		add	r2, sp, #12
 967 0070 1344     		add	r3, r3, r2
 968              	.LBB23:
 969              	.LBB22:
 130:D:/fchai/work/i-cube/I-CUBE-HUAWEI/Middlewares/Third_Party/Huawei/iot_link/network/dtls/mbedtls/mbedtls-2.16.2/library\x509write_crt.c ****                                critical, val, val_len );
 970              		.loc 1 130 12 discriminator 2 view .LVU260
 971 0072 CDE90030 		strd	r3, r0, [sp]
 972 0076 0549     		ldr	r1, .L47
 973 0078 05F14400 		add	r0, r5, #68
 974              	.LVL104:
 130:D:/fchai/work/i-cube/I-CUBE-HUAWEI/Middlewares/Third_Party/Huawei/iot_link/network/dtls/mbedtls/mbedtls-2.16.2/library\x509write_crt.c ****                                critical, val, val_len );
 975              		.loc 1 130 12 discriminator 2 view .LVU261
 976 007c 0023     		movs	r3, #0
 977 007e 0322     		movs	r2, #3
 978 0080 FFF7FEFF 		bl	mbedtls_x509_set_extension
 979              	.LVL105:
 130:D:/fchai/work/i-cube/I-CUBE-HUAWEI/Middlewares/Third_Party/Huawei/iot_link/network/dtls/mbedtls/mbedtls-2.16.2/library\x509write_crt.c ****                                critical, val, val_len );
 980              		.loc 1 130 12 discriminator 2 view .LVU262
 981 0084 0446     		mov	r4, r0
 982              	.LVL106:
 130:D:/fchai/work/i-cube/I-CUBE-HUAWEI/Middlewares/Third_Party/Huawei/iot_link/network/dtls/mbedtls/mbedtls-2.16.2/library\x509write_crt.c ****                                critical, val, val_len );
 983              		.loc 1 130 12 discriminator 2 view .LVU263
 984              	.LBE22:
 985              	.LBE23:
 186:D:/fchai/work/i-cube/I-CUBE-HUAWEI/Middlewares/Third_Party/Huawei/iot_link/network/dtls/mbedtls/mbedtls-2.16.2/library\x509write_crt.c ****                                         MBEDTLS_OID_SIZE( MBEDTLS_OID_SUBJECT_KEY_IDENTIFIER ),
 986              		.loc 1 186 12 discriminator 2 view .LVU264
 987 0086 DAE7     		b	.L42
 988              	.LVL107:
 989              	.L44:
 186:D:/fchai/work/i-cube/I-CUBE-HUAWEI/Middlewares/Third_Party/Huawei/iot_link/network/dtls/mbedtls/mbedtls-2.16.2/library\x509write_crt.c ****                                         MBEDTLS_OID_SIZE( MBEDTLS_OID_SUBJECT_KEY_IDENTIFIER ),
 990              		.loc 1 186 12 discriminator 2 view .LVU265
 991 0088 0446     		mov	r4, r0
 992              	.LVL108:
 186:D:/fchai/work/i-cube/I-CUBE-HUAWEI/Middlewares/Third_Party/Huawei/iot_link/network/dtls/mbedtls/mbedtls-2.16.2/library\x509write_crt.c ****                                         MBEDTLS_OID_SIZE( MBEDTLS_OID_SUBJECT_KEY_IDENTIFIER ),
 993              		.loc 1 186 12 discriminator 2 view .LVU266
 994 008a D8E7     		b	.L42
 995              	.L48:
 996              		.align	2
 997              	.L47:
 998 008c 00000000 		.word	.LC1
 999              		.cfi_endproc
 1000              	.LFE22:
 1002              		.section	.rodata.mbedtls_x509write_crt_set_authority_key_identifier.str1.4,"aMS",%progbits,1
 1003              		.align	2
 1004              	.LC2:
 1005 0000 551D2300 		.ascii	"U\035#\000"
 1006              		.section	.text.mbedtls_x509write_crt_set_authority_key_identifier,"ax",%progbits
ARM GAS  T:\msys\tmp\cc1WsHhn.s 			page 28


 1007              		.align	1
 1008              		.p2align 2,,3
 1009              		.global	mbedtls_x509write_crt_set_authority_key_identifier
 1010              		.syntax unified
 1011              		.thumb
 1012              		.thumb_func
 1013              		.fpu fpv4-sp-d16
 1015              	mbedtls_x509write_crt_set_authority_key_identifier:
 1016              	.LVL109:
 1017              	.LFB23:
 192:D:/fchai/work/i-cube/I-CUBE-HUAWEI/Middlewares/Third_Party/Huawei/iot_link/network/dtls/mbedtls/mbedtls-2.16.2/library\x509write_crt.c ****     int ret;
 1018              		.loc 1 192 1 is_stmt 1 view -0
 1019              		.cfi_startproc
 1020              		@ args = 0, pretend = 0, frame = 2072
 1021              		@ frame_needed = 0, uses_anonymous_args = 0
 193:D:/fchai/work/i-cube/I-CUBE-HUAWEI/Middlewares/Third_Party/Huawei/iot_link/network/dtls/mbedtls/mbedtls-2.16.2/library\x509write_crt.c ****     unsigned char buf[MBEDTLS_MPI_MAX_SIZE * 2 + 20]; /* tag, length + 2xMPI */
 1022              		.loc 1 193 5 view .LVU268
 194:D:/fchai/work/i-cube/I-CUBE-HUAWEI/Middlewares/Third_Party/Huawei/iot_link/network/dtls/mbedtls/mbedtls-2.16.2/library\x509write_crt.c ****     unsigned char *c = buf + sizeof( buf );
 1023              		.loc 1 194 5 view .LVU269
 195:D:/fchai/work/i-cube/I-CUBE-HUAWEI/Middlewares/Third_Party/Huawei/iot_link/network/dtls/mbedtls/mbedtls-2.16.2/library\x509write_crt.c ****     size_t len = 0;
 1024              		.loc 1 195 5 view .LVU270
 192:D:/fchai/work/i-cube/I-CUBE-HUAWEI/Middlewares/Third_Party/Huawei/iot_link/network/dtls/mbedtls/mbedtls-2.16.2/library\x509write_crt.c ****     int ret;
 1025              		.loc 1 192 1 is_stmt 0 view .LVU271
 1026 0000 F0B5     		push	{r4, r5, r6, r7, lr}
 1027              	.LCFI15:
 1028              		.cfi_def_cfa_offset 20
 1029              		.cfi_offset 4, -20
 1030              		.cfi_offset 5, -16
 1031              		.cfi_offset 6, -12
 1032              		.cfi_offset 7, -8
 1033              		.cfi_offset 14, -4
 1034 0002 0546     		mov	r5, r0
 1035 0004 ADF6240D 		subw	sp, sp, #2084
 1036              	.LCFI16:
 1037              		.cfi_def_cfa_offset 2104
 198:D:/fchai/work/i-cube/I-CUBE-HUAWEI/Middlewares/Third_Party/Huawei/iot_link/network/dtls/mbedtls/mbedtls-2.16.2/library\x509write_crt.c ****     MBEDTLS_ASN1_CHK_ADD( len, mbedtls_pk_write_pubkey( &c, buf, ctx->issuer_key ) );
 1038              		.loc 1 198 5 view .LVU272
 1039 0008 40F61406 		movw	r6, #2068
 195:D:/fchai/work/i-cube/I-CUBE-HUAWEI/Middlewares/Third_Party/Huawei/iot_link/network/dtls/mbedtls/mbedtls-2.16.2/library\x509write_crt.c ****     size_t len = 0;
 1040              		.loc 1 195 20 view .LVU273
 1041 000c 0DF50263 		add	r3, sp, #2080
 198:D:/fchai/work/i-cube/I-CUBE-HUAWEI/Middlewares/Third_Party/Huawei/iot_link/network/dtls/mbedtls/mbedtls-2.16.2/library\x509write_crt.c ****     MBEDTLS_ASN1_CHK_ADD( len, mbedtls_pk_write_pubkey( &c, buf, ctx->issuer_key ) );
 1042              		.loc 1 198 5 view .LVU274
 1043 0010 3246     		mov	r2, r6
 1044 0012 0021     		movs	r1, #0
 1045 0014 03A8     		add	r0, sp, #12
 1046              	.LVL110:
 195:D:/fchai/work/i-cube/I-CUBE-HUAWEI/Middlewares/Third_Party/Huawei/iot_link/network/dtls/mbedtls/mbedtls-2.16.2/library\x509write_crt.c ****     size_t len = 0;
 1047              		.loc 1 195 20 view .LVU275
 1048 0016 0293     		str	r3, [sp, #8]
 196:D:/fchai/work/i-cube/I-CUBE-HUAWEI/Middlewares/Third_Party/Huawei/iot_link/network/dtls/mbedtls/mbedtls-2.16.2/library\x509write_crt.c **** 
 1049              		.loc 1 196 5 is_stmt 1 view .LVU276
 1050              	.LVL111:
 198:D:/fchai/work/i-cube/I-CUBE-HUAWEI/Middlewares/Third_Party/Huawei/iot_link/network/dtls/mbedtls/mbedtls-2.16.2/library\x509write_crt.c ****     MBEDTLS_ASN1_CHK_ADD( len, mbedtls_pk_write_pubkey( &c, buf, ctx->issuer_key ) );
 1051              		.loc 1 198 5 view .LVU277
 1052 0018 FFF7FEFF 		bl	memset
 1053              	.LVL112:
ARM GAS  T:\msys\tmp\cc1WsHhn.s 			page 29


 199:D:/fchai/work/i-cube/I-CUBE-HUAWEI/Middlewares/Third_Party/Huawei/iot_link/network/dtls/mbedtls/mbedtls-2.16.2/library\x509write_crt.c **** 
 1054              		.loc 1 199 5 view .LVU278
 199:D:/fchai/work/i-cube/I-CUBE-HUAWEI/Middlewares/Third_Party/Huawei/iot_link/network/dtls/mbedtls/mbedtls-2.16.2/library\x509write_crt.c **** 
 1055              		.loc 1 199 5 view .LVU279
 1056 001c 6A69     		ldr	r2, [r5, #20]
 1057 001e 03A9     		add	r1, sp, #12
 1058 0020 02A8     		add	r0, sp, #8
 1059 0022 FFF7FEFF 		bl	mbedtls_pk_write_pubkey
 1060              	.LVL113:
 199:D:/fchai/work/i-cube/I-CUBE-HUAWEI/Middlewares/Third_Party/Huawei/iot_link/network/dtls/mbedtls/mbedtls-2.16.2/library\x509write_crt.c **** 
 1061              		.loc 1 199 5 is_stmt 0 view .LVU280
 1062 0026 041E     		subs	r4, r0, #0
 1063 0028 09DB     		blt	.L49
 199:D:/fchai/work/i-cube/I-CUBE-HUAWEI/Middlewares/Third_Party/Huawei/iot_link/network/dtls/mbedtls/mbedtls-2.16.2/library\x509write_crt.c **** 
 1064              		.loc 1 199 5 is_stmt 1 discriminator 2 view .LVU281
 1065              	.LVL114:
 199:D:/fchai/work/i-cube/I-CUBE-HUAWEI/Middlewares/Third_Party/Huawei/iot_link/network/dtls/mbedtls/mbedtls-2.16.2/library\x509write_crt.c **** 
 1066              		.loc 1 199 5 discriminator 2 view .LVU282
 201:D:/fchai/work/i-cube/I-CUBE-HUAWEI/Middlewares/Third_Party/Huawei/iot_link/network/dtls/mbedtls/mbedtls-2.16.2/library\x509write_crt.c ****                             buf + sizeof( buf ) - 20 );
 1067              		.loc 1 201 5 discriminator 2 view .LVU283
 201:D:/fchai/work/i-cube/I-CUBE-HUAWEI/Middlewares/Third_Party/Huawei/iot_link/network/dtls/mbedtls/mbedtls-2.16.2/library\x509write_crt.c ****                             buf + sizeof( buf ) - 20 );
 1068              		.loc 1 201 49 is_stmt 0 discriminator 2 view .LVU284
 1069 002a 301B     		subs	r0, r6, r4
 1070              	.LVL115:
 201:D:/fchai/work/i-cube/I-CUBE-HUAWEI/Middlewares/Third_Party/Huawei/iot_link/network/dtls/mbedtls/mbedtls-2.16.2/library\x509write_crt.c ****                             buf + sizeof( buf ) - 20 );
 1071              		.loc 1 201 11 discriminator 2 view .LVU285
 1072 002c 03AB     		add	r3, sp, #12
 1073 002e 2146     		mov	r1, r4
 1074 0030 0DF60C02 		addw	r2, sp, #2060
 1075 0034 1844     		add	r0, r0, r3
 1076 0036 FFF7FEFF 		bl	mbedtls_sha1_ret
 1077              	.LVL116:
 203:D:/fchai/work/i-cube/I-CUBE-HUAWEI/Middlewares/Third_Party/Huawei/iot_link/network/dtls/mbedtls/mbedtls-2.16.2/library\x509write_crt.c ****         return( ret );
 1078              		.loc 1 203 5 is_stmt 1 discriminator 2 view .LVU286
 203:D:/fchai/work/i-cube/I-CUBE-HUAWEI/Middlewares/Third_Party/Huawei/iot_link/network/dtls/mbedtls/mbedtls-2.16.2/library\x509write_crt.c ****         return( ret );
 1079              		.loc 1 203 7 is_stmt 0 discriminator 2 view .LVU287
 1080 003a 0446     		mov	r4, r0
 1081              	.LVL117:
 203:D:/fchai/work/i-cube/I-CUBE-HUAWEI/Middlewares/Third_Party/Huawei/iot_link/network/dtls/mbedtls/mbedtls-2.16.2/library\x509write_crt.c ****         return( ret );
 1082              		.loc 1 203 7 discriminator 2 view .LVU288
 1083 003c 18B1     		cbz	r0, .L54
 1084              	.LVL118:
 1085              	.L49:
 218:D:/fchai/work/i-cube/I-CUBE-HUAWEI/Middlewares/Third_Party/Huawei/iot_link/network/dtls/mbedtls/mbedtls-2.16.2/library\x509write_crt.c **** #endif /* MBEDTLS_SHA1_C */
 1086              		.loc 1 218 1 view .LVU289
 1087 003e 2046     		mov	r0, r4
 1088 0040 0DF6240D 		addw	sp, sp, #2084
 1089              	.LCFI17:
 1090              		.cfi_remember_state
 1091              		.cfi_def_cfa_offset 20
 1092              		@ sp needed
 1093 0044 F0BD     		pop	{r4, r5, r6, r7, pc}
 1094              	.LVL119:
 1095              	.L54:
 1096              	.LCFI18:
 1097              		.cfi_restore_state
 205:D:/fchai/work/i-cube/I-CUBE-HUAWEI/Middlewares/Third_Party/Huawei/iot_link/network/dtls/mbedtls/mbedtls-2.16.2/library\x509write_crt.c ****     len = 20;
ARM GAS  T:\msys\tmp\cc1WsHhn.s 			page 30


 1098              		.loc 1 205 5 is_stmt 1 view .LVU290
 205:D:/fchai/work/i-cube/I-CUBE-HUAWEI/Middlewares/Third_Party/Huawei/iot_link/network/dtls/mbedtls/mbedtls-2.16.2/library\x509write_crt.c ****     len = 20;
 1099              		.loc 1 205 7 is_stmt 0 view .LVU291
 1100 0046 0DF60C03 		addw	r3, sp, #2060
 208:D:/fchai/work/i-cube/I-CUBE-HUAWEI/Middlewares/Third_Party/Huawei/iot_link/network/dtls/mbedtls/mbedtls-2.16.2/library\x509write_crt.c ****     MBEDTLS_ASN1_CHK_ADD( len, mbedtls_asn1_write_tag( &c, buf, MBEDTLS_ASN1_CONTEXT_SPECIFIC | 0 )
 1101              		.loc 1 208 5 view .LVU292
 1102 004a 1422     		movs	r2, #20
 1103 004c 03A9     		add	r1, sp, #12
 1104 004e 02A8     		add	r0, sp, #8
 1105              	.LVL120:
 205:D:/fchai/work/i-cube/I-CUBE-HUAWEI/Middlewares/Third_Party/Huawei/iot_link/network/dtls/mbedtls/mbedtls-2.16.2/library\x509write_crt.c ****     len = 20;
 1106              		.loc 1 205 7 view .LVU293
 1107 0050 0293     		str	r3, [sp, #8]
 206:D:/fchai/work/i-cube/I-CUBE-HUAWEI/Middlewares/Third_Party/Huawei/iot_link/network/dtls/mbedtls/mbedtls-2.16.2/library\x509write_crt.c **** 
 1108              		.loc 1 206 5 is_stmt 1 view .LVU294
 1109              	.LVL121:
 208:D:/fchai/work/i-cube/I-CUBE-HUAWEI/Middlewares/Third_Party/Huawei/iot_link/network/dtls/mbedtls/mbedtls-2.16.2/library\x509write_crt.c ****     MBEDTLS_ASN1_CHK_ADD( len, mbedtls_asn1_write_tag( &c, buf, MBEDTLS_ASN1_CONTEXT_SPECIFIC | 0 )
 1110              		.loc 1 208 5 view .LVU295
 208:D:/fchai/work/i-cube/I-CUBE-HUAWEI/Middlewares/Third_Party/Huawei/iot_link/network/dtls/mbedtls/mbedtls-2.16.2/library\x509write_crt.c ****     MBEDTLS_ASN1_CHK_ADD( len, mbedtls_asn1_write_tag( &c, buf, MBEDTLS_ASN1_CONTEXT_SPECIFIC | 0 )
 1111              		.loc 1 208 5 view .LVU296
 1112 0052 FFF7FEFF 		bl	mbedtls_asn1_write_len
 1113              	.LVL122:
 208:D:/fchai/work/i-cube/I-CUBE-HUAWEI/Middlewares/Third_Party/Huawei/iot_link/network/dtls/mbedtls/mbedtls-2.16.2/library\x509write_crt.c ****     MBEDTLS_ASN1_CHK_ADD( len, mbedtls_asn1_write_tag( &c, buf, MBEDTLS_ASN1_CONTEXT_SPECIFIC | 0 )
 1114              		.loc 1 208 5 is_stmt 0 view .LVU297
 1115 0056 041E     		subs	r4, r0, #0
 1116 0058 F1DB     		blt	.L49
 208:D:/fchai/work/i-cube/I-CUBE-HUAWEI/Middlewares/Third_Party/Huawei/iot_link/network/dtls/mbedtls/mbedtls-2.16.2/library\x509write_crt.c ****     MBEDTLS_ASN1_CHK_ADD( len, mbedtls_asn1_write_tag( &c, buf, MBEDTLS_ASN1_CONTEXT_SPECIFIC | 0 )
 1117              		.loc 1 208 5 is_stmt 1 discriminator 2 view .LVU298
 1118              	.LVL123:
 208:D:/fchai/work/i-cube/I-CUBE-HUAWEI/Middlewares/Third_Party/Huawei/iot_link/network/dtls/mbedtls/mbedtls-2.16.2/library\x509write_crt.c ****     MBEDTLS_ASN1_CHK_ADD( len, mbedtls_asn1_write_tag( &c, buf, MBEDTLS_ASN1_CONTEXT_SPECIFIC | 0 )
 1119              		.loc 1 208 5 discriminator 2 view .LVU299
 209:D:/fchai/work/i-cube/I-CUBE-HUAWEI/Middlewares/Third_Party/Huawei/iot_link/network/dtls/mbedtls/mbedtls-2.16.2/library\x509write_crt.c **** 
 1120              		.loc 1 209 5 discriminator 2 view .LVU300
 209:D:/fchai/work/i-cube/I-CUBE-HUAWEI/Middlewares/Third_Party/Huawei/iot_link/network/dtls/mbedtls/mbedtls-2.16.2/library\x509write_crt.c **** 
 1121              		.loc 1 209 5 discriminator 2 view .LVU301
 1122 005a 8022     		movs	r2, #128
 1123 005c 03A9     		add	r1, sp, #12
 1124 005e 02A8     		add	r0, sp, #8
 1125              	.LVL124:
 209:D:/fchai/work/i-cube/I-CUBE-HUAWEI/Middlewares/Third_Party/Huawei/iot_link/network/dtls/mbedtls/mbedtls-2.16.2/library\x509write_crt.c **** 
 1126              		.loc 1 209 5 is_stmt 0 discriminator 2 view .LVU302
 1127 0060 FFF7FEFF 		bl	mbedtls_asn1_write_tag
 1128              	.LVL125:
 209:D:/fchai/work/i-cube/I-CUBE-HUAWEI/Middlewares/Third_Party/Huawei/iot_link/network/dtls/mbedtls/mbedtls-2.16.2/library\x509write_crt.c **** 
 1129              		.loc 1 209 5 discriminator 2 view .LVU303
 1130 0064 0028     		cmp	r0, #0
 209:D:/fchai/work/i-cube/I-CUBE-HUAWEI/Middlewares/Third_Party/Huawei/iot_link/network/dtls/mbedtls/mbedtls-2.16.2/library\x509write_crt.c **** 
 1131              		.loc 1 209 5 discriminator 2 view .LVU304
 1132 0066 1FDB     		blt	.L52
 209:D:/fchai/work/i-cube/I-CUBE-HUAWEI/Middlewares/Third_Party/Huawei/iot_link/network/dtls/mbedtls/mbedtls-2.16.2/library\x509write_crt.c **** 
 1133              		.loc 1 209 5 is_stmt 1 discriminator 2 view .LVU305
 208:D:/fchai/work/i-cube/I-CUBE-HUAWEI/Middlewares/Third_Party/Huawei/iot_link/network/dtls/mbedtls/mbedtls-2.16.2/library\x509write_crt.c ****     MBEDTLS_ASN1_CHK_ADD( len, mbedtls_asn1_write_tag( &c, buf, MBEDTLS_ASN1_CONTEXT_SPECIFIC | 0 )
 1134              		.loc 1 208 5 is_stmt 0 discriminator 2 view .LVU306
 1135 0068 1434     		adds	r4, r4, #20
 1136              	.LVL126:
 209:D:/fchai/work/i-cube/I-CUBE-HUAWEI/Middlewares/Third_Party/Huawei/iot_link/network/dtls/mbedtls/mbedtls-2.16.2/library\x509write_crt.c **** 
 1137              		.loc 1 209 5 discriminator 2 view .LVU307
ARM GAS  T:\msys\tmp\cc1WsHhn.s 			page 31


 1138 006a 0719     		adds	r7, r0, r4
 1139              	.LVL127:
 209:D:/fchai/work/i-cube/I-CUBE-HUAWEI/Middlewares/Third_Party/Huawei/iot_link/network/dtls/mbedtls/mbedtls-2.16.2/library\x509write_crt.c **** 
 1140              		.loc 1 209 5 is_stmt 1 discriminator 2 view .LVU308
 211:D:/fchai/work/i-cube/I-CUBE-HUAWEI/Middlewares/Third_Party/Huawei/iot_link/network/dtls/mbedtls/mbedtls-2.16.2/library\x509write_crt.c ****     MBEDTLS_ASN1_CHK_ADD( len, mbedtls_asn1_write_tag( &c, buf, MBEDTLS_ASN1_CONSTRUCTED |
 1141              		.loc 1 211 5 discriminator 2 view .LVU309
 211:D:/fchai/work/i-cube/I-CUBE-HUAWEI/Middlewares/Third_Party/Huawei/iot_link/network/dtls/mbedtls/mbedtls-2.16.2/library\x509write_crt.c ****     MBEDTLS_ASN1_CHK_ADD( len, mbedtls_asn1_write_tag( &c, buf, MBEDTLS_ASN1_CONSTRUCTED |
 1142              		.loc 1 211 5 discriminator 2 view .LVU310
 1143 006c 3A46     		mov	r2, r7
 1144 006e 03A9     		add	r1, sp, #12
 1145 0070 02A8     		add	r0, sp, #8
 1146              	.LVL128:
 211:D:/fchai/work/i-cube/I-CUBE-HUAWEI/Middlewares/Third_Party/Huawei/iot_link/network/dtls/mbedtls/mbedtls-2.16.2/library\x509write_crt.c ****     MBEDTLS_ASN1_CHK_ADD( len, mbedtls_asn1_write_tag( &c, buf, MBEDTLS_ASN1_CONSTRUCTED |
 1147              		.loc 1 211 5 is_stmt 0 discriminator 2 view .LVU311
 1148 0072 FFF7FEFF 		bl	mbedtls_asn1_write_len
 1149              	.LVL129:
 211:D:/fchai/work/i-cube/I-CUBE-HUAWEI/Middlewares/Third_Party/Huawei/iot_link/network/dtls/mbedtls/mbedtls-2.16.2/library\x509write_crt.c ****     MBEDTLS_ASN1_CHK_ADD( len, mbedtls_asn1_write_tag( &c, buf, MBEDTLS_ASN1_CONSTRUCTED |
 1150              		.loc 1 211 5 discriminator 2 view .LVU312
 1151 0076 041E     		subs	r4, r0, #0
 1152 0078 E1DB     		blt	.L49
 211:D:/fchai/work/i-cube/I-CUBE-HUAWEI/Middlewares/Third_Party/Huawei/iot_link/network/dtls/mbedtls/mbedtls-2.16.2/library\x509write_crt.c ****     MBEDTLS_ASN1_CHK_ADD( len, mbedtls_asn1_write_tag( &c, buf, MBEDTLS_ASN1_CONSTRUCTED |
 1153              		.loc 1 211 5 is_stmt 1 discriminator 2 view .LVU313
 1154              	.LVL130:
 211:D:/fchai/work/i-cube/I-CUBE-HUAWEI/Middlewares/Third_Party/Huawei/iot_link/network/dtls/mbedtls/mbedtls-2.16.2/library\x509write_crt.c ****     MBEDTLS_ASN1_CHK_ADD( len, mbedtls_asn1_write_tag( &c, buf, MBEDTLS_ASN1_CONSTRUCTED |
 1155              		.loc 1 211 5 discriminator 2 view .LVU314
 212:D:/fchai/work/i-cube/I-CUBE-HUAWEI/Middlewares/Third_Party/Huawei/iot_link/network/dtls/mbedtls/mbedtls-2.16.2/library\x509write_crt.c ****                                                 MBEDTLS_ASN1_SEQUENCE ) );
 1156              		.loc 1 212 5 discriminator 2 view .LVU315
 212:D:/fchai/work/i-cube/I-CUBE-HUAWEI/Middlewares/Third_Party/Huawei/iot_link/network/dtls/mbedtls/mbedtls-2.16.2/library\x509write_crt.c ****                                                 MBEDTLS_ASN1_SEQUENCE ) );
 1157              		.loc 1 212 5 discriminator 2 view .LVU316
 1158 007a 02A8     		add	r0, sp, #8
 1159              	.LVL131:
 212:D:/fchai/work/i-cube/I-CUBE-HUAWEI/Middlewares/Third_Party/Huawei/iot_link/network/dtls/mbedtls/mbedtls-2.16.2/library\x509write_crt.c ****                                                 MBEDTLS_ASN1_SEQUENCE ) );
 1160              		.loc 1 212 5 is_stmt 0 discriminator 2 view .LVU317
 1161 007c 3022     		movs	r2, #48
 1162 007e 03A9     		add	r1, sp, #12
 1163 0080 FFF7FEFF 		bl	mbedtls_asn1_write_tag
 1164              	.LVL132:
 212:D:/fchai/work/i-cube/I-CUBE-HUAWEI/Middlewares/Third_Party/Huawei/iot_link/network/dtls/mbedtls/mbedtls-2.16.2/library\x509write_crt.c ****                                                 MBEDTLS_ASN1_SEQUENCE ) );
 1165              		.loc 1 212 5 discriminator 2 view .LVU318
 1166 0084 0028     		cmp	r0, #0
 212:D:/fchai/work/i-cube/I-CUBE-HUAWEI/Middlewares/Third_Party/Huawei/iot_link/network/dtls/mbedtls/mbedtls-2.16.2/library\x509write_crt.c ****                                                 MBEDTLS_ASN1_SEQUENCE ) );
 1167              		.loc 1 212 5 discriminator 2 view .LVU319
 1168 0086 0FDB     		blt	.L52
 212:D:/fchai/work/i-cube/I-CUBE-HUAWEI/Middlewares/Third_Party/Huawei/iot_link/network/dtls/mbedtls/mbedtls-2.16.2/library\x509write_crt.c ****                                                 MBEDTLS_ASN1_SEQUENCE ) );
 1169              		.loc 1 212 5 is_stmt 1 discriminator 2 view .LVU320
 211:D:/fchai/work/i-cube/I-CUBE-HUAWEI/Middlewares/Third_Party/Huawei/iot_link/network/dtls/mbedtls/mbedtls-2.16.2/library\x509write_crt.c ****     MBEDTLS_ASN1_CHK_ADD( len, mbedtls_asn1_write_tag( &c, buf, MBEDTLS_ASN1_CONSTRUCTED |
 1170              		.loc 1 211 5 is_stmt 0 discriminator 2 view .LVU321
 1171 0088 3C44     		add	r4, r4, r7
 1172              	.LVL133:
 212:D:/fchai/work/i-cube/I-CUBE-HUAWEI/Middlewares/Third_Party/Huawei/iot_link/network/dtls/mbedtls/mbedtls-2.16.2/library\x509write_crt.c ****                                                 MBEDTLS_ASN1_SEQUENCE ) );
 1173              		.loc 1 212 5 discriminator 2 view .LVU322
 1174 008a 0444     		add	r4, r4, r0
 1175              	.LVL134:
 212:D:/fchai/work/i-cube/I-CUBE-HUAWEI/Middlewares/Third_Party/Huawei/iot_link/network/dtls/mbedtls/mbedtls-2.16.2/library\x509write_crt.c ****                                                 MBEDTLS_ASN1_SEQUENCE ) );
 1176              		.loc 1 212 5 is_stmt 1 discriminator 2 view .LVU323
 215:D:/fchai/work/i-cube/I-CUBE-HUAWEI/Middlewares/Third_Party/Huawei/iot_link/network/dtls/mbedtls/mbedtls-2.16.2/library\x509write_crt.c ****                                    MBEDTLS_OID_SIZE( MBEDTLS_OID_AUTHORITY_KEY_IDENTIFIER ),
 1177              		.loc 1 215 5 discriminator 2 view .LVU324
ARM GAS  T:\msys\tmp\cc1WsHhn.s 			page 32


 1178              	.LBB24:
 1179              	.LBI24:
 125:D:/fchai/work/i-cube/I-CUBE-HUAWEI/Middlewares/Third_Party/Huawei/iot_link/network/dtls/mbedtls/mbedtls-2.16.2/library\x509write_crt.c ****                                  const char *oid, size_t oid_len,
 1180              		.loc 1 125 5 discriminator 2 view .LVU325
 1181              	.LBB25:
 130:D:/fchai/work/i-cube/I-CUBE-HUAWEI/Middlewares/Third_Party/Huawei/iot_link/network/dtls/mbedtls/mbedtls-2.16.2/library\x509write_crt.c ****                                critical, val, val_len );
 1182              		.loc 1 130 5 discriminator 2 view .LVU326
 1183              	.LBE25:
 1184              	.LBE24:
 217:D:/fchai/work/i-cube/I-CUBE-HUAWEI/Middlewares/Third_Party/Huawei/iot_link/network/dtls/mbedtls/mbedtls-2.16.2/library\x509write_crt.c **** }
 1185              		.loc 1 217 59 is_stmt 0 discriminator 2 view .LVU327
 1186 008c 361B     		subs	r6, r6, r4
 215:D:/fchai/work/i-cube/I-CUBE-HUAWEI/Middlewares/Third_Party/Huawei/iot_link/network/dtls/mbedtls/mbedtls-2.16.2/library\x509write_crt.c ****                                    MBEDTLS_OID_SIZE( MBEDTLS_OID_AUTHORITY_KEY_IDENTIFIER ),
 1187              		.loc 1 215 12 discriminator 2 view .LVU328
 1188 008e 03AB     		add	r3, sp, #12
 1189 0090 1E44     		add	r6, r6, r3
 1190              	.LBB27:
 1191              	.LBB26:
 130:D:/fchai/work/i-cube/I-CUBE-HUAWEI/Middlewares/Third_Party/Huawei/iot_link/network/dtls/mbedtls/mbedtls-2.16.2/library\x509write_crt.c ****                                critical, val, val_len );
 1192              		.loc 1 130 12 discriminator 2 view .LVU329
 1193 0092 CDE90064 		strd	r6, r4, [sp]
 1194 0096 0549     		ldr	r1, .L55
 1195 0098 05F14400 		add	r0, r5, #68
 1196              	.LVL135:
 130:D:/fchai/work/i-cube/I-CUBE-HUAWEI/Middlewares/Third_Party/Huawei/iot_link/network/dtls/mbedtls/mbedtls-2.16.2/library\x509write_crt.c ****                                critical, val, val_len );
 1197              		.loc 1 130 12 discriminator 2 view .LVU330
 1198 009c 0023     		movs	r3, #0
 1199 009e 0322     		movs	r2, #3
 1200 00a0 FFF7FEFF 		bl	mbedtls_x509_set_extension
 1201              	.LVL136:
 1202 00a4 0446     		mov	r4, r0
 1203              	.LVL137:
 130:D:/fchai/work/i-cube/I-CUBE-HUAWEI/Middlewares/Third_Party/Huawei/iot_link/network/dtls/mbedtls/mbedtls-2.16.2/library\x509write_crt.c ****                                critical, val, val_len );
 1204              		.loc 1 130 12 discriminator 2 view .LVU331
 1205              	.LBE26:
 1206              	.LBE27:
 215:D:/fchai/work/i-cube/I-CUBE-HUAWEI/Middlewares/Third_Party/Huawei/iot_link/network/dtls/mbedtls/mbedtls-2.16.2/library\x509write_crt.c ****                                    MBEDTLS_OID_SIZE( MBEDTLS_OID_AUTHORITY_KEY_IDENTIFIER ),
 1207              		.loc 1 215 12 discriminator 2 view .LVU332
 1208 00a6 CAE7     		b	.L49
 1209              	.LVL138:
 1210              	.L52:
 215:D:/fchai/work/i-cube/I-CUBE-HUAWEI/Middlewares/Third_Party/Huawei/iot_link/network/dtls/mbedtls/mbedtls-2.16.2/library\x509write_crt.c ****                                    MBEDTLS_OID_SIZE( MBEDTLS_OID_AUTHORITY_KEY_IDENTIFIER ),
 1211              		.loc 1 215 12 discriminator 2 view .LVU333
 1212 00a8 0446     		mov	r4, r0
 1213 00aa C8E7     		b	.L49
 1214              	.L56:
 1215              		.align	2
 1216              	.L55:
 1217 00ac 00000000 		.word	.LC2
 1218              		.cfi_endproc
 1219              	.LFE23:
 1221              		.section	.rodata.mbedtls_x509write_crt_set_key_usage.str1.4,"aMS",%progbits,1
 1222              		.align	2
 1223              	.LC3:
 1224 0000 551D0F00 		.ascii	"U\035\017\000"
 1225              		.section	.text.mbedtls_x509write_crt_set_key_usage,"ax",%progbits
 1226              		.align	1
ARM GAS  T:\msys\tmp\cc1WsHhn.s 			page 33


 1227              		.p2align 2,,3
 1228              		.global	mbedtls_x509write_crt_set_key_usage
 1229              		.syntax unified
 1230              		.thumb
 1231              		.thumb_func
 1232              		.fpu fpv4-sp-d16
 1234              	mbedtls_x509write_crt_set_key_usage:
 1235              	.LVL139:
 1236              	.LFB25:
 236:D:/fchai/work/i-cube/I-CUBE-HUAWEI/Middlewares/Third_Party/Huawei/iot_link/network/dtls/mbedtls/mbedtls-2.16.2/library\x509write_crt.c ****     unsigned char buf[4], ku;
 1237              		.loc 1 236 1 is_stmt 1 view -0
 1238              		.cfi_startproc
 1239              		@ args = 0, pretend = 0, frame = 16
 1240              		@ frame_needed = 0, uses_anonymous_args = 0
 237:D:/fchai/work/i-cube/I-CUBE-HUAWEI/Middlewares/Third_Party/Huawei/iot_link/network/dtls/mbedtls/mbedtls-2.16.2/library\x509write_crt.c ****     unsigned char *c;
 1241              		.loc 1 237 5 view .LVU335
 238:D:/fchai/work/i-cube/I-CUBE-HUAWEI/Middlewares/Third_Party/Huawei/iot_link/network/dtls/mbedtls/mbedtls-2.16.2/library\x509write_crt.c ****     int ret;
 1242              		.loc 1 238 5 view .LVU336
 239:D:/fchai/work/i-cube/I-CUBE-HUAWEI/Middlewares/Third_Party/Huawei/iot_link/network/dtls/mbedtls/mbedtls-2.16.2/library\x509write_crt.c ****     size_t unused_bits;
 1243              		.loc 1 239 5 view .LVU337
 240:D:/fchai/work/i-cube/I-CUBE-HUAWEI/Middlewares/Third_Party/Huawei/iot_link/network/dtls/mbedtls/mbedtls-2.16.2/library\x509write_crt.c ****     const unsigned int allowed_bits = MBEDTLS_X509_KU_DIGITAL_SIGNATURE |
 1244              		.loc 1 240 5 view .LVU338
 241:D:/fchai/work/i-cube/I-CUBE-HUAWEI/Middlewares/Third_Party/Huawei/iot_link/network/dtls/mbedtls/mbedtls-2.16.2/library\x509write_crt.c ****         MBEDTLS_X509_KU_NON_REPUDIATION   |
 1245              		.loc 1 241 5 view .LVU339
 250:D:/fchai/work/i-cube/I-CUBE-HUAWEI/Middlewares/Third_Party/Huawei/iot_link/network/dtls/mbedtls/mbedtls-2.16.2/library\x509write_crt.c ****         return( MBEDTLS_ERR_X509_FEATURE_UNAVAILABLE );
 1246              		.loc 1 250 5 view .LVU340
 250:D:/fchai/work/i-cube/I-CUBE-HUAWEI/Middlewares/Third_Party/Huawei/iot_link/network/dtls/mbedtls/mbedtls-2.16.2/library\x509write_crt.c ****         return( MBEDTLS_ERR_X509_FEATURE_UNAVAILABLE );
 1247              		.loc 1 250 7 is_stmt 0 view .LVU341
 1248 0000 31F0FE03 		bics	r3, r1, #254
 1249 0004 29D1     		bne	.L62
 236:D:/fchai/work/i-cube/I-CUBE-HUAWEI/Middlewares/Third_Party/Huawei/iot_link/network/dtls/mbedtls/mbedtls-2.16.2/library\x509write_crt.c ****     unsigned char buf[4], ku;
 1250              		.loc 1 236 1 view .LVU342
 1251 0006 30B5     		push	{r4, r5, lr}
 1252              	.LCFI19:
 1253              		.cfi_def_cfa_offset 12
 1254              		.cfi_offset 4, -12
 1255              		.cfi_offset 5, -8
 1256              		.cfi_offset 14, -4
 1257 0008 87B0     		sub	sp, sp, #28
 1258              	.LCFI20:
 1259              		.cfi_def_cfa_offset 40
 1260 000a 0546     		mov	r5, r0
 253:D:/fchai/work/i-cube/I-CUBE-HUAWEI/Middlewares/Third_Party/Huawei/iot_link/network/dtls/mbedtls/mbedtls-2.16.2/library\x509write_crt.c ****     ku = (unsigned char)key_usage;
 1261              		.loc 1 253 5 is_stmt 1 view .LVU343
 253:D:/fchai/work/i-cube/I-CUBE-HUAWEI/Middlewares/Third_Party/Huawei/iot_link/network/dtls/mbedtls/mbedtls-2.16.2/library\x509write_crt.c ****     ku = (unsigned char)key_usage;
 1262              		.loc 1 253 7 is_stmt 0 view .LVU344
 1263 000c 05A8     		add	r0, sp, #20
 1264              	.LVL140:
 254:D:/fchai/work/i-cube/I-CUBE-HUAWEI/Middlewares/Third_Party/Huawei/iot_link/network/dtls/mbedtls/mbedtls-2.16.2/library\x509write_crt.c ****     unused_bits = crt_get_unused_bits_for_named_bitstring( ku, 1 );
 1265              		.loc 1 254 10 view .LVU345
 1266 000e 8DF80F10 		strb	r1, [sp, #15]
 253:D:/fchai/work/i-cube/I-CUBE-HUAWEI/Middlewares/Third_Party/Huawei/iot_link/network/dtls/mbedtls/mbedtls-2.16.2/library\x509write_crt.c ****     ku = (unsigned char)key_usage;
 1267              		.loc 1 253 7 view .LVU346
 1268 0012 0590     		str	r0, [sp, #20]
 254:D:/fchai/work/i-cube/I-CUBE-HUAWEI/Middlewares/Third_Party/Huawei/iot_link/network/dtls/mbedtls/mbedtls-2.16.2/library\x509write_crt.c ****     unused_bits = crt_get_unused_bits_for_named_bitstring( ku, 1 );
 1269              		.loc 1 254 5 is_stmt 1 view .LVU347
 255:D:/fchai/work/i-cube/I-CUBE-HUAWEI/Middlewares/Third_Party/Huawei/iot_link/network/dtls/mbedtls/mbedtls-2.16.2/library\x509write_crt.c ****     ret = mbedtls_asn1_write_bitstring( &c, buf, &ku, 8 - unused_bits );
ARM GAS  T:\msys\tmp\cc1WsHhn.s 			page 34


 1270              		.loc 1 255 5 view .LVU348
 1271              	.LVL141:
 1272              	.LBB28:
 1273              	.LBI28:
 221:D:/fchai/work/i-cube/I-CUBE-HUAWEI/Middlewares/Third_Party/Huawei/iot_link/network/dtls/mbedtls/mbedtls-2.16.2/library\x509write_crt.c ****                                                        size_t bit_offset )
 1274              		.loc 1 221 15 view .LVU349
 1275              	.LBB29:
 224:D:/fchai/work/i-cube/I-CUBE-HUAWEI/Middlewares/Third_Party/Huawei/iot_link/network/dtls/mbedtls/mbedtls-2.16.2/library\x509write_crt.c **** 
 1276              		.loc 1 224 5 view .LVU350
 227:D:/fchai/work/i-cube/I-CUBE-HUAWEI/Middlewares/Third_Party/Huawei/iot_link/network/dtls/mbedtls/mbedtls-2.16.2/library\x509write_crt.c ****         if( ( ( bitstring >> unused_bits ) & 0x1 ) != 0 )
 1277              		.loc 1 227 5 view .LVU351
 227:D:/fchai/work/i-cube/I-CUBE-HUAWEI/Middlewares/Third_Party/Huawei/iot_link/network/dtls/mbedtls/mbedtls-2.16.2/library\x509write_crt.c ****         if( ( ( bitstring >> unused_bits ) & 0x1 ) != 0 )
 1278              		.loc 1 227 36 view .LVU352
 227:D:/fchai/work/i-cube/I-CUBE-HUAWEI/Middlewares/Third_Party/Huawei/iot_link/network/dtls/mbedtls/mbedtls-2.16.2/library\x509write_crt.c ****         if( ( ( bitstring >> unused_bits ) & 0x1 ) != 0 )
 1279              		.loc 1 227 22 is_stmt 0 view .LVU353
 1280 0014 0122     		movs	r2, #1
 1281              	.LVL142:
 1282              	.L60:
 228:D:/fchai/work/i-cube/I-CUBE-HUAWEI/Middlewares/Third_Party/Huawei/iot_link/network/dtls/mbedtls/mbedtls-2.16.2/library\x509write_crt.c ****             break;
 1283              		.loc 1 228 9 is_stmt 1 view .LVU354
 227:D:/fchai/work/i-cube/I-CUBE-HUAWEI/Middlewares/Third_Party/Huawei/iot_link/network/dtls/mbedtls/mbedtls-2.16.2/library\x509write_crt.c ****         if( ( ( bitstring >> unused_bits ) & 0x1 ) != 0 )
 1284              		.loc 1 227 53 view .LVU355
 228:D:/fchai/work/i-cube/I-CUBE-HUAWEI/Middlewares/Third_Party/Huawei/iot_link/network/dtls/mbedtls/mbedtls-2.16.2/library\x509write_crt.c ****             break;
 1285              		.loc 1 228 27 is_stmt 0 view .LVU356
 1286 0016 41FA02F4 		asr	r4, r1, r2
 228:D:/fchai/work/i-cube/I-CUBE-HUAWEI/Middlewares/Third_Party/Huawei/iot_link/network/dtls/mbedtls/mbedtls-2.16.2/library\x509write_crt.c ****             break;
 1287              		.loc 1 228 11 view .LVU357
 1288 001a E407     		lsls	r4, r4, #31
 1289 001c 18D4     		bmi	.L59
 227:D:/fchai/work/i-cube/I-CUBE-HUAWEI/Middlewares/Third_Party/Huawei/iot_link/network/dtls/mbedtls/mbedtls-2.16.2/library\x509write_crt.c ****         if( ( ( bitstring >> unused_bits ) & 0x1 ) != 0 )
 1290              		.loc 1 227 64 view .LVU358
 1291 001e 0132     		adds	r2, r2, #1
 1292              	.LVL143:
 227:D:/fchai/work/i-cube/I-CUBE-HUAWEI/Middlewares/Third_Party/Huawei/iot_link/network/dtls/mbedtls/mbedtls-2.16.2/library\x509write_crt.c ****         if( ( ( bitstring >> unused_bits ) & 0x1 ) != 0 )
 1293              		.loc 1 227 36 is_stmt 1 view .LVU359
 227:D:/fchai/work/i-cube/I-CUBE-HUAWEI/Middlewares/Third_Party/Huawei/iot_link/network/dtls/mbedtls/mbedtls-2.16.2/library\x509write_crt.c ****         if( ( ( bitstring >> unused_bits ) & 0x1 ) != 0 )
 1294              		.loc 1 227 5 is_stmt 0 view .LVU360
 1295 0020 082A     		cmp	r2, #8
 1296 0022 F8D1     		bne	.L60
 1297              	.L61:
 231:D:/fchai/work/i-cube/I-CUBE-HUAWEI/Middlewares/Third_Party/Huawei/iot_link/network/dtls/mbedtls/mbedtls-2.16.2/library\x509write_crt.c **** }
 1298              		.loc 1 231 6 is_stmt 1 view .LVU361
 1299              	.LVL144:
 231:D:/fchai/work/i-cube/I-CUBE-HUAWEI/Middlewares/Third_Party/Huawei/iot_link/network/dtls/mbedtls/mbedtls-2.16.2/library\x509write_crt.c **** }
 1300              		.loc 1 231 6 is_stmt 0 view .LVU362
 1301              	.LBE29:
 1302              	.LBE28:
 256:D:/fchai/work/i-cube/I-CUBE-HUAWEI/Middlewares/Third_Party/Huawei/iot_link/network/dtls/mbedtls/mbedtls-2.16.2/library\x509write_crt.c **** 
 1303              		.loc 1 256 5 is_stmt 1 view .LVU363
 256:D:/fchai/work/i-cube/I-CUBE-HUAWEI/Middlewares/Third_Party/Huawei/iot_link/network/dtls/mbedtls/mbedtls-2.16.2/library\x509write_crt.c **** 
 1304              		.loc 1 256 11 is_stmt 0 view .LVU364
 1305 0024 0DF10F02 		add	r2, sp, #15
 1306 0028 04A9     		add	r1, sp, #16
 1307              	.LVL145:
 256:D:/fchai/work/i-cube/I-CUBE-HUAWEI/Middlewares/Third_Party/Huawei/iot_link/network/dtls/mbedtls/mbedtls-2.16.2/library\x509write_crt.c **** 
 1308              		.loc 1 256 11 view .LVU365
 1309 002a FFF7FEFF 		bl	mbedtls_asn1_write_bitstring
ARM GAS  T:\msys\tmp\cc1WsHhn.s 			page 35


 1310              	.LVL146:
 258:D:/fchai/work/i-cube/I-CUBE-HUAWEI/Middlewares/Third_Party/Huawei/iot_link/network/dtls/mbedtls/mbedtls-2.16.2/library\x509write_crt.c ****         return( ret );
 1311              		.loc 1 258 5 is_stmt 1 view .LVU366
 258:D:/fchai/work/i-cube/I-CUBE-HUAWEI/Middlewares/Third_Party/Huawei/iot_link/network/dtls/mbedtls/mbedtls-2.16.2/library\x509write_crt.c ****         return( ret );
 1312              		.loc 1 258 7 is_stmt 0 view .LVU367
 1313 002e 0028     		cmp	r0, #0
 258:D:/fchai/work/i-cube/I-CUBE-HUAWEI/Middlewares/Third_Party/Huawei/iot_link/network/dtls/mbedtls/mbedtls-2.16.2/library\x509write_crt.c ****         return( ret );
 1314              		.loc 1 258 7 view .LVU368
 1315 0030 0CDB     		blt	.L57
 260:D:/fchai/work/i-cube/I-CUBE-HUAWEI/Middlewares/Third_Party/Huawei/iot_link/network/dtls/mbedtls/mbedtls-2.16.2/library\x509write_crt.c ****         return( MBEDTLS_ERR_X509_INVALID_FORMAT );
 1316              		.loc 1 260 10 is_stmt 1 view .LVU369
 260:D:/fchai/work/i-cube/I-CUBE-HUAWEI/Middlewares/Third_Party/Huawei/iot_link/network/dtls/mbedtls/mbedtls-2.16.2/library\x509write_crt.c ****         return( MBEDTLS_ERR_X509_INVALID_FORMAT );
 1317              		.loc 1 260 22 is_stmt 0 view .LVU370
 1318 0032 C31E     		subs	r3, r0, #3
 260:D:/fchai/work/i-cube/I-CUBE-HUAWEI/Middlewares/Third_Party/Huawei/iot_link/network/dtls/mbedtls/mbedtls-2.16.2/library\x509write_crt.c ****         return( MBEDTLS_ERR_X509_INVALID_FORMAT );
 1319              		.loc 1 260 12 view .LVU371
 1320 0034 012B     		cmp	r3, #1
 1321 0036 0ED8     		bhi	.L63
 263:D:/fchai/work/i-cube/I-CUBE-HUAWEI/Middlewares/Third_Party/Huawei/iot_link/network/dtls/mbedtls/mbedtls-2.16.2/library\x509write_crt.c ****                                        MBEDTLS_OID_SIZE( MBEDTLS_OID_KEY_USAGE ),
 1322              		.loc 1 263 5 is_stmt 1 view .LVU372
 1323              	.LVL147:
 1324              	.LBB30:
 1325              	.LBI30:
 125:D:/fchai/work/i-cube/I-CUBE-HUAWEI/Middlewares/Third_Party/Huawei/iot_link/network/dtls/mbedtls/mbedtls-2.16.2/library\x509write_crt.c ****                                  const char *oid, size_t oid_len,
 1326              		.loc 1 125 5 view .LVU373
 1327              	.LBB31:
 130:D:/fchai/work/i-cube/I-CUBE-HUAWEI/Middlewares/Third_Party/Huawei/iot_link/network/dtls/mbedtls/mbedtls-2.16.2/library\x509write_crt.c ****                                critical, val, val_len );
 1328              		.loc 1 130 5 view .LVU374
 130:D:/fchai/work/i-cube/I-CUBE-HUAWEI/Middlewares/Third_Party/Huawei/iot_link/network/dtls/mbedtls/mbedtls-2.16.2/library\x509write_crt.c ****                                critical, val, val_len );
 1329              		.loc 1 130 12 is_stmt 0 view .LVU375
 1330 0038 059B     		ldr	r3, [sp, #20]
 1331 003a 0190     		str	r0, [sp, #4]
 1332 003c 0093     		str	r3, [sp]
 1333 003e 0849     		ldr	r1, .L69
 1334 0040 05F14400 		add	r0, r5, #68
 1335              	.LVL148:
 130:D:/fchai/work/i-cube/I-CUBE-HUAWEI/Middlewares/Third_Party/Huawei/iot_link/network/dtls/mbedtls/mbedtls-2.16.2/library\x509write_crt.c ****                                critical, val, val_len );
 1336              		.loc 1 130 12 view .LVU376
 1337 0044 0123     		movs	r3, #1
 1338 0046 0322     		movs	r2, #3
 1339 0048 FFF7FEFF 		bl	mbedtls_x509_set_extension
 1340              	.LVL149:
 130:D:/fchai/work/i-cube/I-CUBE-HUAWEI/Middlewares/Third_Party/Huawei/iot_link/network/dtls/mbedtls/mbedtls-2.16.2/library\x509write_crt.c ****                                critical, val, val_len );
 1341              		.loc 1 130 12 view .LVU377
 1342              	.LBE31:
 1343              	.LBE30:
 266:D:/fchai/work/i-cube/I-CUBE-HUAWEI/Middlewares/Third_Party/Huawei/iot_link/network/dtls/mbedtls/mbedtls-2.16.2/library\x509write_crt.c ****         return( ret );
 1344              		.loc 1 266 5 is_stmt 1 view .LVU378
 1345              	.L57:
 270:D:/fchai/work/i-cube/I-CUBE-HUAWEI/Middlewares/Third_Party/Huawei/iot_link/network/dtls/mbedtls/mbedtls-2.16.2/library\x509write_crt.c **** 
 1346              		.loc 1 270 1 is_stmt 0 view .LVU379
 1347 004c 07B0     		add	sp, sp, #28
 1348              	.LCFI21:
 1349              		.cfi_remember_state
 1350              		.cfi_def_cfa_offset 12
 1351              		@ sp needed
 1352 004e 30BD     		pop	{r4, r5, pc}
ARM GAS  T:\msys\tmp\cc1WsHhn.s 			page 36


 1353              	.LVL150:
 1354              	.L59:
 1355              	.LCFI22:
 1356              		.cfi_restore_state
 270:D:/fchai/work/i-cube/I-CUBE-HUAWEI/Middlewares/Third_Party/Huawei/iot_link/network/dtls/mbedtls/mbedtls-2.16.2/library\x509write_crt.c **** 
 1357              		.loc 1 270 1 view .LVU380
 1358 0050 C2F10803 		rsb	r3, r2, #8
 1359 0054 E6E7     		b	.L61
 1360              	.LVL151:
 1361              	.L63:
 261:D:/fchai/work/i-cube/I-CUBE-HUAWEI/Middlewares/Third_Party/Huawei/iot_link/network/dtls/mbedtls/mbedtls-2.16.2/library\x509write_crt.c **** 
 1362              		.loc 1 261 15 view .LVU381
 1363 0056 0348     		ldr	r0, .L69+4
 1364              	.LVL152:
 261:D:/fchai/work/i-cube/I-CUBE-HUAWEI/Middlewares/Third_Party/Huawei/iot_link/network/dtls/mbedtls/mbedtls-2.16.2/library\x509write_crt.c **** 
 1365              		.loc 1 261 15 view .LVU382
 1366 0058 F8E7     		b	.L57
 1367              	.LVL153:
 1368              	.L62:
 1369              	.LCFI23:
 1370              		.cfi_def_cfa_offset 0
 1371              		.cfi_restore 4
 1372              		.cfi_restore 5
 1373              		.cfi_restore 14
 251:D:/fchai/work/i-cube/I-CUBE-HUAWEI/Middlewares/Third_Party/Huawei/iot_link/network/dtls/mbedtls/mbedtls-2.16.2/library\x509write_crt.c **** 
 1374              		.loc 1 251 15 view .LVU383
 1375 005a 0348     		ldr	r0, .L69+8
 1376              	.LVL154:
 270:D:/fchai/work/i-cube/I-CUBE-HUAWEI/Middlewares/Third_Party/Huawei/iot_link/network/dtls/mbedtls/mbedtls-2.16.2/library\x509write_crt.c **** 
 1377              		.loc 1 270 1 view .LVU384
 1378 005c 7047     		bx	lr
 1379              	.L70:
 1380 005e 00BF     		.align	2
 1381              	.L69:
 1382 0060 00000000 		.word	.LC3
 1383 0064 80DEFFFF 		.word	-8576
 1384 0068 80DFFFFF 		.word	-8320
 1385              		.cfi_endproc
 1386              	.LFE25:
 1388              		.section	.rodata.mbedtls_x509write_crt_set_ns_cert_type.str1.4,"aMS",%progbits,1
 1389              		.align	2
 1390              	.LC4:
 1391 0000 60864801 		.ascii	"`\206H\001\206\370B\001\001\000"
 1391      86F84201 
 1391      0100
 1392              		.section	.text.mbedtls_x509write_crt_set_ns_cert_type,"ax",%progbits
 1393              		.align	1
 1394              		.p2align 2,,3
 1395              		.global	mbedtls_x509write_crt_set_ns_cert_type
 1396              		.syntax unified
 1397              		.thumb
 1398              		.thumb_func
 1399              		.fpu fpv4-sp-d16
 1401              	mbedtls_x509write_crt_set_ns_cert_type:
 1402              	.LVL155:
 1403              	.LFB26:
 274:D:/fchai/work/i-cube/I-CUBE-HUAWEI/Middlewares/Third_Party/Huawei/iot_link/network/dtls/mbedtls/mbedtls-2.16.2/library\x509write_crt.c ****     unsigned char buf[4];
ARM GAS  T:\msys\tmp\cc1WsHhn.s 			page 37


 1404              		.loc 1 274 1 is_stmt 1 view -0
 1405              		.cfi_startproc
 1406              		@ args = 0, pretend = 0, frame = 16
 1407              		@ frame_needed = 0, uses_anonymous_args = 0
 275:D:/fchai/work/i-cube/I-CUBE-HUAWEI/Middlewares/Third_Party/Huawei/iot_link/network/dtls/mbedtls/mbedtls-2.16.2/library\x509write_crt.c ****     unsigned char *c;
 1408              		.loc 1 275 5 view .LVU386
 276:D:/fchai/work/i-cube/I-CUBE-HUAWEI/Middlewares/Third_Party/Huawei/iot_link/network/dtls/mbedtls/mbedtls-2.16.2/library\x509write_crt.c ****     size_t unused_bits;
 1409              		.loc 1 276 5 view .LVU387
 277:D:/fchai/work/i-cube/I-CUBE-HUAWEI/Middlewares/Third_Party/Huawei/iot_link/network/dtls/mbedtls/mbedtls-2.16.2/library\x509write_crt.c ****     int ret;
 1410              		.loc 1 277 5 view .LVU388
 278:D:/fchai/work/i-cube/I-CUBE-HUAWEI/Middlewares/Third_Party/Huawei/iot_link/network/dtls/mbedtls/mbedtls-2.16.2/library\x509write_crt.c **** 
 1411              		.loc 1 278 5 view .LVU389
 280:D:/fchai/work/i-cube/I-CUBE-HUAWEI/Middlewares/Third_Party/Huawei/iot_link/network/dtls/mbedtls/mbedtls-2.16.2/library\x509write_crt.c **** 
 1412              		.loc 1 280 5 view .LVU390
 274:D:/fchai/work/i-cube/I-CUBE-HUAWEI/Middlewares/Third_Party/Huawei/iot_link/network/dtls/mbedtls/mbedtls-2.16.2/library\x509write_crt.c ****     unsigned char buf[4];
 1413              		.loc 1 274 1 is_stmt 0 view .LVU391
 1414 0000 30B5     		push	{r4, r5, lr}
 1415              	.LCFI24:
 1416              		.cfi_def_cfa_offset 12
 1417              		.cfi_offset 4, -12
 1418              		.cfi_offset 5, -8
 1419              		.cfi_offset 14, -4
 1420 0002 87B0     		sub	sp, sp, #28
 1421              	.LCFI25:
 1422              		.cfi_def_cfa_offset 40
 280:D:/fchai/work/i-cube/I-CUBE-HUAWEI/Middlewares/Third_Party/Huawei/iot_link/network/dtls/mbedtls/mbedtls-2.16.2/library\x509write_crt.c **** 
 1423              		.loc 1 280 7 view .LVU392
 1424 0004 05AD     		add	r5, sp, #20
 274:D:/fchai/work/i-cube/I-CUBE-HUAWEI/Middlewares/Third_Party/Huawei/iot_link/network/dtls/mbedtls/mbedtls-2.16.2/library\x509write_crt.c ****     unsigned char buf[4];
 1425              		.loc 1 274 1 view .LVU393
 1426 0006 8DF80F10 		strb	r1, [sp, #15]
 1427 000a 0446     		mov	r4, r0
 280:D:/fchai/work/i-cube/I-CUBE-HUAWEI/Middlewares/Third_Party/Huawei/iot_link/network/dtls/mbedtls/mbedtls-2.16.2/library\x509write_crt.c **** 
 1428              		.loc 1 280 7 view .LVU394
 1429 000c 0595     		str	r5, [sp, #20]
 282:D:/fchai/work/i-cube/I-CUBE-HUAWEI/Middlewares/Third_Party/Huawei/iot_link/network/dtls/mbedtls/mbedtls-2.16.2/library\x509write_crt.c ****     ret = mbedtls_asn1_write_bitstring( &c,
 1430              		.loc 1 282 5 is_stmt 1 view .LVU395
 1431              	.LVL156:
 1432              	.LBB32:
 1433              	.LBI32:
 221:D:/fchai/work/i-cube/I-CUBE-HUAWEI/Middlewares/Third_Party/Huawei/iot_link/network/dtls/mbedtls/mbedtls-2.16.2/library\x509write_crt.c ****                                                        size_t bit_offset )
 1434              		.loc 1 221 15 view .LVU396
 1435              	.LBB33:
 224:D:/fchai/work/i-cube/I-CUBE-HUAWEI/Middlewares/Third_Party/Huawei/iot_link/network/dtls/mbedtls/mbedtls-2.16.2/library\x509write_crt.c **** 
 1436              		.loc 1 224 5 view .LVU397
 227:D:/fchai/work/i-cube/I-CUBE-HUAWEI/Middlewares/Third_Party/Huawei/iot_link/network/dtls/mbedtls/mbedtls-2.16.2/library\x509write_crt.c ****         if( ( ( bitstring >> unused_bits ) & 0x1 ) != 0 )
 1437              		.loc 1 227 5 view .LVU398
 227:D:/fchai/work/i-cube/I-CUBE-HUAWEI/Middlewares/Third_Party/Huawei/iot_link/network/dtls/mbedtls/mbedtls-2.16.2/library\x509write_crt.c ****         if( ( ( bitstring >> unused_bits ) & 0x1 ) != 0 )
 1438              		.loc 1 227 36 view .LVU399
 227:D:/fchai/work/i-cube/I-CUBE-HUAWEI/Middlewares/Third_Party/Huawei/iot_link/network/dtls/mbedtls/mbedtls-2.16.2/library\x509write_crt.c ****         if( ( ( bitstring >> unused_bits ) & 0x1 ) != 0 )
 1439              		.loc 1 227 22 is_stmt 0 view .LVU400
 1440 000e 0023     		movs	r3, #0
 1441              	.LVL157:
 1442              	.L73:
 228:D:/fchai/work/i-cube/I-CUBE-HUAWEI/Middlewares/Third_Party/Huawei/iot_link/network/dtls/mbedtls/mbedtls-2.16.2/library\x509write_crt.c ****             break;
 1443              		.loc 1 228 9 is_stmt 1 view .LVU401
 227:D:/fchai/work/i-cube/I-CUBE-HUAWEI/Middlewares/Third_Party/Huawei/iot_link/network/dtls/mbedtls/mbedtls-2.16.2/library\x509write_crt.c ****         if( ( ( bitstring >> unused_bits ) & 0x1 ) != 0 )
ARM GAS  T:\msys\tmp\cc1WsHhn.s 			page 38


 1444              		.loc 1 227 53 view .LVU402
 228:D:/fchai/work/i-cube/I-CUBE-HUAWEI/Middlewares/Third_Party/Huawei/iot_link/network/dtls/mbedtls/mbedtls-2.16.2/library\x509write_crt.c ****             break;
 1445              		.loc 1 228 27 is_stmt 0 view .LVU403
 1446 0010 41FA03F2 		asr	r2, r1, r3
 228:D:/fchai/work/i-cube/I-CUBE-HUAWEI/Middlewares/Third_Party/Huawei/iot_link/network/dtls/mbedtls/mbedtls-2.16.2/library\x509write_crt.c ****             break;
 1447              		.loc 1 228 11 view .LVU404
 1448 0014 12F00102 		ands	r2, r2, #1
 1449 0018 18D1     		bne	.L72
 227:D:/fchai/work/i-cube/I-CUBE-HUAWEI/Middlewares/Third_Party/Huawei/iot_link/network/dtls/mbedtls/mbedtls-2.16.2/library\x509write_crt.c ****         if( ( ( bitstring >> unused_bits ) & 0x1 ) != 0 )
 1450              		.loc 1 227 64 view .LVU405
 1451 001a 0133     		adds	r3, r3, #1
 1452              	.LVL158:
 227:D:/fchai/work/i-cube/I-CUBE-HUAWEI/Middlewares/Third_Party/Huawei/iot_link/network/dtls/mbedtls/mbedtls-2.16.2/library\x509write_crt.c ****         if( ( ( bitstring >> unused_bits ) & 0x1 ) != 0 )
 1453              		.loc 1 227 36 is_stmt 1 view .LVU406
 227:D:/fchai/work/i-cube/I-CUBE-HUAWEI/Middlewares/Third_Party/Huawei/iot_link/network/dtls/mbedtls/mbedtls-2.16.2/library\x509write_crt.c ****         if( ( ( bitstring >> unused_bits ) & 0x1 ) != 0 )
 1454              		.loc 1 227 5 is_stmt 0 view .LVU407
 1455 001c 082B     		cmp	r3, #8
 1456 001e F7D1     		bne	.L73
 1457 0020 1346     		mov	r3, r2
 1458              	.LVL159:
 1459              	.L74:
 231:D:/fchai/work/i-cube/I-CUBE-HUAWEI/Middlewares/Third_Party/Huawei/iot_link/network/dtls/mbedtls/mbedtls-2.16.2/library\x509write_crt.c **** }
 1460              		.loc 1 231 6 is_stmt 1 view .LVU408
 231:D:/fchai/work/i-cube/I-CUBE-HUAWEI/Middlewares/Third_Party/Huawei/iot_link/network/dtls/mbedtls/mbedtls-2.16.2/library\x509write_crt.c **** }
 1461              		.loc 1 231 6 is_stmt 0 view .LVU409
 1462              	.LBE33:
 1463              	.LBE32:
 283:D:/fchai/work/i-cube/I-CUBE-HUAWEI/Middlewares/Third_Party/Huawei/iot_link/network/dtls/mbedtls/mbedtls-2.16.2/library\x509write_crt.c ****                                         buf,
 1464              		.loc 1 283 5 is_stmt 1 view .LVU410
 283:D:/fchai/work/i-cube/I-CUBE-HUAWEI/Middlewares/Third_Party/Huawei/iot_link/network/dtls/mbedtls/mbedtls-2.16.2/library\x509write_crt.c ****                                         buf,
 1465              		.loc 1 283 11 is_stmt 0 view .LVU411
 1466 0022 2846     		mov	r0, r5
 1467              	.LVL160:
 283:D:/fchai/work/i-cube/I-CUBE-HUAWEI/Middlewares/Third_Party/Huawei/iot_link/network/dtls/mbedtls/mbedtls-2.16.2/library\x509write_crt.c ****                                         buf,
 1468              		.loc 1 283 11 view .LVU412
 1469 0024 0DF10F02 		add	r2, sp, #15
 1470 0028 04A9     		add	r1, sp, #16
 1471              	.LVL161:
 283:D:/fchai/work/i-cube/I-CUBE-HUAWEI/Middlewares/Third_Party/Huawei/iot_link/network/dtls/mbedtls/mbedtls-2.16.2/library\x509write_crt.c ****                                         buf,
 1472              		.loc 1 283 11 view .LVU413
 1473 002a FFF7FEFF 		bl	mbedtls_asn1_write_bitstring
 1474              	.LVL162:
 287:D:/fchai/work/i-cube/I-CUBE-HUAWEI/Middlewares/Third_Party/Huawei/iot_link/network/dtls/mbedtls/mbedtls-2.16.2/library\x509write_crt.c ****         return( ret );
 1475              		.loc 1 287 5 is_stmt 1 view .LVU414
 287:D:/fchai/work/i-cube/I-CUBE-HUAWEI/Middlewares/Third_Party/Huawei/iot_link/network/dtls/mbedtls/mbedtls-2.16.2/library\x509write_crt.c ****         return( ret );
 1476              		.loc 1 287 17 is_stmt 0 view .LVU415
 1477 002e C31E     		subs	r3, r0, #3
 287:D:/fchai/work/i-cube/I-CUBE-HUAWEI/Middlewares/Third_Party/Huawei/iot_link/network/dtls/mbedtls/mbedtls-2.16.2/library\x509write_crt.c ****         return( ret );
 1478              		.loc 1 287 7 view .LVU416
 1479 0030 012B     		cmp	r3, #1
 1480 0032 09D8     		bhi	.L71
 290:D:/fchai/work/i-cube/I-CUBE-HUAWEI/Middlewares/Third_Party/Huawei/iot_link/network/dtls/mbedtls/mbedtls-2.16.2/library\x509write_crt.c ****                                        MBEDTLS_OID_SIZE( MBEDTLS_OID_NS_CERT_TYPE ),
 1481              		.loc 1 290 5 is_stmt 1 view .LVU417
 1482              	.LVL163:
 1483              	.LBB34:
 1484              	.LBI34:
 125:D:/fchai/work/i-cube/I-CUBE-HUAWEI/Middlewares/Third_Party/Huawei/iot_link/network/dtls/mbedtls/mbedtls-2.16.2/library\x509write_crt.c ****                                  const char *oid, size_t oid_len,
ARM GAS  T:\msys\tmp\cc1WsHhn.s 			page 39


 1485              		.loc 1 125 5 view .LVU418
 1486              	.LBB35:
 130:D:/fchai/work/i-cube/I-CUBE-HUAWEI/Middlewares/Third_Party/Huawei/iot_link/network/dtls/mbedtls/mbedtls-2.16.2/library\x509write_crt.c ****                                critical, val, val_len );
 1487              		.loc 1 130 5 view .LVU419
 130:D:/fchai/work/i-cube/I-CUBE-HUAWEI/Middlewares/Third_Party/Huawei/iot_link/network/dtls/mbedtls/mbedtls-2.16.2/library\x509write_crt.c ****                                critical, val, val_len );
 1488              		.loc 1 130 12 is_stmt 0 view .LVU420
 1489 0034 059B     		ldr	r3, [sp, #20]
 1490 0036 0190     		str	r0, [sp, #4]
 1491 0038 0093     		str	r3, [sp]
 1492 003a 0649     		ldr	r1, .L78
 1493 003c 04F14400 		add	r0, r4, #68
 1494              	.LVL164:
 130:D:/fchai/work/i-cube/I-CUBE-HUAWEI/Middlewares/Third_Party/Huawei/iot_link/network/dtls/mbedtls/mbedtls-2.16.2/library\x509write_crt.c ****                                critical, val, val_len );
 1495              		.loc 1 130 12 view .LVU421
 1496 0040 0023     		movs	r3, #0
 1497 0042 0922     		movs	r2, #9
 1498 0044 FFF7FEFF 		bl	mbedtls_x509_set_extension
 1499              	.LVL165:
 130:D:/fchai/work/i-cube/I-CUBE-HUAWEI/Middlewares/Third_Party/Huawei/iot_link/network/dtls/mbedtls/mbedtls-2.16.2/library\x509write_crt.c ****                                critical, val, val_len );
 1500              		.loc 1 130 12 view .LVU422
 1501              	.LBE35:
 1502              	.LBE34:
 293:D:/fchai/work/i-cube/I-CUBE-HUAWEI/Middlewares/Third_Party/Huawei/iot_link/network/dtls/mbedtls/mbedtls-2.16.2/library\x509write_crt.c ****         return( ret );
 1503              		.loc 1 293 5 is_stmt 1 view .LVU423
 1504              	.L71:
 297:D:/fchai/work/i-cube/I-CUBE-HUAWEI/Middlewares/Third_Party/Huawei/iot_link/network/dtls/mbedtls/mbedtls-2.16.2/library\x509write_crt.c **** 
 1505              		.loc 1 297 1 is_stmt 0 view .LVU424
 1506 0048 07B0     		add	sp, sp, #28
 1507              	.LCFI26:
 1508              		.cfi_remember_state
 1509              		.cfi_def_cfa_offset 12
 1510              		@ sp needed
 1511 004a 30BD     		pop	{r4, r5, pc}
 1512              	.LVL166:
 1513              	.L72:
 1514              	.LCFI27:
 1515              		.cfi_restore_state
 297:D:/fchai/work/i-cube/I-CUBE-HUAWEI/Middlewares/Third_Party/Huawei/iot_link/network/dtls/mbedtls/mbedtls-2.16.2/library\x509write_crt.c **** 
 1516              		.loc 1 297 1 view .LVU425
 1517 004c C3F10803 		rsb	r3, r3, #8
 1518              	.LVL167:
 297:D:/fchai/work/i-cube/I-CUBE-HUAWEI/Middlewares/Third_Party/Huawei/iot_link/network/dtls/mbedtls/mbedtls-2.16.2/library\x509write_crt.c **** 
 1519              		.loc 1 297 1 view .LVU426
 1520 0050 E7E7     		b	.L74
 1521              	.L79:
 1522 0052 00BF     		.align	2
 1523              	.L78:
 1524 0054 00000000 		.word	.LC4
 1525              		.cfi_endproc
 1526              	.LFE26:
 1528              		.section	.text.mbedtls_x509write_crt_der,"ax",%progbits
 1529              		.align	1
 1530              		.p2align 2,,3
 1531              		.global	mbedtls_x509write_crt_der
 1532              		.syntax unified
 1533              		.thumb
 1534              		.thumb_func
ARM GAS  T:\msys\tmp\cc1WsHhn.s 			page 40


 1535              		.fpu fpv4-sp-d16
 1537              	mbedtls_x509write_crt_der:
 1538              	.LVL168:
 1539              	.LFB28:
 327:D:/fchai/work/i-cube/I-CUBE-HUAWEI/Middlewares/Third_Party/Huawei/iot_link/network/dtls/mbedtls/mbedtls-2.16.2/library\x509write_crt.c **** 
 328:D:/fchai/work/i-cube/I-CUBE-HUAWEI/Middlewares/Third_Party/Huawei/iot_link/network/dtls/mbedtls/mbedtls-2.16.2/library\x509write_crt.c **** int mbedtls_x509write_crt_der( mbedtls_x509write_cert *ctx, unsigned char *buf, size_t size,
 329:D:/fchai/work/i-cube/I-CUBE-HUAWEI/Middlewares/Third_Party/Huawei/iot_link/network/dtls/mbedtls/mbedtls-2.16.2/library\x509write_crt.c ****                        int (*f_rng)(void *, unsigned char *, size_t),
 330:D:/fchai/work/i-cube/I-CUBE-HUAWEI/Middlewares/Third_Party/Huawei/iot_link/network/dtls/mbedtls/mbedtls-2.16.2/library\x509write_crt.c ****                        void *p_rng )
 331:D:/fchai/work/i-cube/I-CUBE-HUAWEI/Middlewares/Third_Party/Huawei/iot_link/network/dtls/mbedtls/mbedtls-2.16.2/library\x509write_crt.c **** {
 1540              		.loc 1 331 1 is_stmt 1 view -0
 1541              		.cfi_startproc
 1542              		@ args = 4, pretend = 0, frame = 3184
 1543              		@ frame_needed = 0, uses_anonymous_args = 0
 332:D:/fchai/work/i-cube/I-CUBE-HUAWEI/Middlewares/Third_Party/Huawei/iot_link/network/dtls/mbedtls/mbedtls-2.16.2/library\x509write_crt.c ****     int ret;
 1544              		.loc 1 332 5 view .LVU428
 333:D:/fchai/work/i-cube/I-CUBE-HUAWEI/Middlewares/Third_Party/Huawei/iot_link/network/dtls/mbedtls/mbedtls-2.16.2/library\x509write_crt.c ****     const char *sig_oid;
 1545              		.loc 1 333 5 view .LVU429
 334:D:/fchai/work/i-cube/I-CUBE-HUAWEI/Middlewares/Third_Party/Huawei/iot_link/network/dtls/mbedtls/mbedtls-2.16.2/library\x509write_crt.c ****     size_t sig_oid_len = 0;
 1546              		.loc 1 334 5 view .LVU430
 331:D:/fchai/work/i-cube/I-CUBE-HUAWEI/Middlewares/Third_Party/Huawei/iot_link/network/dtls/mbedtls/mbedtls-2.16.2/library\x509write_crt.c ****     int ret;
 1547              		.loc 1 331 1 is_stmt 0 view .LVU431
 1548 0000 2DE9F04F 		push	{r4, r5, r6, r7, r8, r9, r10, fp, lr}
 1549              	.LCFI28:
 1550              		.cfi_def_cfa_offset 36
 1551              		.cfi_offset 4, -36
 1552              		.cfi_offset 5, -32
 1553              		.cfi_offset 6, -28
 1554              		.cfi_offset 7, -24
 1555              		.cfi_offset 8, -20
 1556              		.cfi_offset 9, -16
 1557              		.cfi_offset 10, -12
 1558              		.cfi_offset 11, -8
 1559              		.cfi_offset 14, -4
 1560 0004 ADF6844D 		subw	sp, sp, #3204
 1561              	.LCFI29:
 1562              		.cfi_def_cfa_offset 3240
 331:D:/fchai/work/i-cube/I-CUBE-HUAWEI/Middlewares/Third_Party/Huawei/iot_link/network/dtls/mbedtls/mbedtls-2.16.2/library\x509write_crt.c ****     int ret;
 1563              		.loc 1 331 1 view .LVU432
 1564 0008 0546     		mov	r5, r0
 1565 000a 0E46     		mov	r6, r1
 1566              		.loc 1 334 12 view .LVU433
 1567 000c 0024     		movs	r4, #0
 331:D:/fchai/work/i-cube/I-CUBE-HUAWEI/Middlewares/Third_Party/Huawei/iot_link/network/dtls/mbedtls/mbedtls-2.16.2/library\x509write_crt.c ****     int ret;
 1568              		.loc 1 331 1 view .LVU434
 1569 000e 9846     		mov	r8, r3
 335:D:/fchai/work/i-cube/I-CUBE-HUAWEI/Middlewares/Third_Party/Huawei/iot_link/network/dtls/mbedtls/mbedtls-2.16.2/library\x509write_crt.c ****     unsigned char *c, *c2;
 336:D:/fchai/work/i-cube/I-CUBE-HUAWEI/Middlewares/Third_Party/Huawei/iot_link/network/dtls/mbedtls/mbedtls-2.16.2/library\x509write_crt.c ****     unsigned char hash[64];
 337:D:/fchai/work/i-cube/I-CUBE-HUAWEI/Middlewares/Third_Party/Huawei/iot_link/network/dtls/mbedtls/mbedtls-2.16.2/library\x509write_crt.c ****     unsigned char sig[MBEDTLS_MPI_MAX_SIZE];
 338:D:/fchai/work/i-cube/I-CUBE-HUAWEI/Middlewares/Third_Party/Huawei/iot_link/network/dtls/mbedtls/mbedtls-2.16.2/library\x509write_crt.c ****     unsigned char tmp_buf[2048];
 339:D:/fchai/work/i-cube/I-CUBE-HUAWEI/Middlewares/Third_Party/Huawei/iot_link/network/dtls/mbedtls/mbedtls-2.16.2/library\x509write_crt.c ****     size_t sub_len = 0, pub_len = 0, sig_and_oid_len = 0, sig_len;
 340:D:/fchai/work/i-cube/I-CUBE-HUAWEI/Middlewares/Third_Party/Huawei/iot_link/network/dtls/mbedtls/mbedtls-2.16.2/library\x509write_crt.c ****     size_t len = 0;
 341:D:/fchai/work/i-cube/I-CUBE-HUAWEI/Middlewares/Third_Party/Huawei/iot_link/network/dtls/mbedtls/mbedtls-2.16.2/library\x509write_crt.c ****     mbedtls_pk_type_t pk_alg;
 342:D:/fchai/work/i-cube/I-CUBE-HUAWEI/Middlewares/Third_Party/Huawei/iot_link/network/dtls/mbedtls/mbedtls-2.16.2/library\x509write_crt.c **** 
 343:D:/fchai/work/i-cube/I-CUBE-HUAWEI/Middlewares/Third_Party/Huawei/iot_link/network/dtls/mbedtls/mbedtls-2.16.2/library\x509write_crt.c ****     /*
 344:D:/fchai/work/i-cube/I-CUBE-HUAWEI/Middlewares/Third_Party/Huawei/iot_link/network/dtls/mbedtls/mbedtls-2.16.2/library\x509write_crt.c ****      * Prepare data to be signed in tmp_buf
 345:D:/fchai/work/i-cube/I-CUBE-HUAWEI/Middlewares/Third_Party/Huawei/iot_link/network/dtls/mbedtls/mbedtls-2.16.2/library\x509write_crt.c ****      */
 346:D:/fchai/work/i-cube/I-CUBE-HUAWEI/Middlewares/Third_Party/Huawei/iot_link/network/dtls/mbedtls/mbedtls-2.16.2/library\x509write_crt.c ****     c = tmp_buf + sizeof( tmp_buf );
ARM GAS  T:\msys\tmp\cc1WsHhn.s 			page 41


 347:D:/fchai/work/i-cube/I-CUBE-HUAWEI/Middlewares/Third_Party/Huawei/iot_link/network/dtls/mbedtls/mbedtls-2.16.2/library\x509write_crt.c **** 
 348:D:/fchai/work/i-cube/I-CUBE-HUAWEI/Middlewares/Third_Party/Huawei/iot_link/network/dtls/mbedtls/mbedtls-2.16.2/library\x509write_crt.c ****     /* Signature algorithm needed in TBS, and later for actual signature */
 349:D:/fchai/work/i-cube/I-CUBE-HUAWEI/Middlewares/Third_Party/Huawei/iot_link/network/dtls/mbedtls/mbedtls-2.16.2/library\x509write_crt.c **** 
 350:D:/fchai/work/i-cube/I-CUBE-HUAWEI/Middlewares/Third_Party/Huawei/iot_link/network/dtls/mbedtls/mbedtls-2.16.2/library\x509write_crt.c ****     /* There's no direct way of extracting a signature algorithm
 351:D:/fchai/work/i-cube/I-CUBE-HUAWEI/Middlewares/Third_Party/Huawei/iot_link/network/dtls/mbedtls/mbedtls-2.16.2/library\x509write_crt.c ****      * (represented as an element of mbedtls_pk_type_t) from a PK instance. */
 352:D:/fchai/work/i-cube/I-CUBE-HUAWEI/Middlewares/Third_Party/Huawei/iot_link/network/dtls/mbedtls/mbedtls-2.16.2/library\x509write_crt.c ****     if( mbedtls_pk_can_do( ctx->issuer_key, MBEDTLS_PK_RSA ) )
 1570              		.loc 1 352 9 view .LVU435
 1571 0010 4069     		ldr	r0, [r0, #20]
 1572              	.LVL169:
 334:D:/fchai/work/i-cube/I-CUBE-HUAWEI/Middlewares/Third_Party/Huawei/iot_link/network/dtls/mbedtls/mbedtls-2.16.2/library\x509write_crt.c ****     unsigned char *c, *c2;
 1573              		.loc 1 334 12 view .LVU436
 1574 0012 0C94     		str	r4, [sp, #48]
 335:D:/fchai/work/i-cube/I-CUBE-HUAWEI/Middlewares/Third_Party/Huawei/iot_link/network/dtls/mbedtls/mbedtls-2.16.2/library\x509write_crt.c ****     unsigned char *c, *c2;
 1575              		.loc 1 335 5 is_stmt 1 view .LVU437
 336:D:/fchai/work/i-cube/I-CUBE-HUAWEI/Middlewares/Third_Party/Huawei/iot_link/network/dtls/mbedtls/mbedtls-2.16.2/library\x509write_crt.c ****     unsigned char sig[MBEDTLS_MPI_MAX_SIZE];
 1576              		.loc 1 336 5 view .LVU438
 337:D:/fchai/work/i-cube/I-CUBE-HUAWEI/Middlewares/Third_Party/Huawei/iot_link/network/dtls/mbedtls/mbedtls-2.16.2/library\x509write_crt.c ****     unsigned char tmp_buf[2048];
 1577              		.loc 1 337 5 view .LVU439
 338:D:/fchai/work/i-cube/I-CUBE-HUAWEI/Middlewares/Third_Party/Huawei/iot_link/network/dtls/mbedtls/mbedtls-2.16.2/library\x509write_crt.c ****     size_t sub_len = 0, pub_len = 0, sig_and_oid_len = 0, sig_len;
 1578              		.loc 1 338 5 view .LVU440
 339:D:/fchai/work/i-cube/I-CUBE-HUAWEI/Middlewares/Third_Party/Huawei/iot_link/network/dtls/mbedtls/mbedtls-2.16.2/library\x509write_crt.c ****     size_t len = 0;
 1579              		.loc 1 339 5 view .LVU441
 1580              	.LVL170:
 340:D:/fchai/work/i-cube/I-CUBE-HUAWEI/Middlewares/Third_Party/Huawei/iot_link/network/dtls/mbedtls/mbedtls-2.16.2/library\x509write_crt.c ****     mbedtls_pk_type_t pk_alg;
 1581              		.loc 1 340 5 view .LVU442
 341:D:/fchai/work/i-cube/I-CUBE-HUAWEI/Middlewares/Third_Party/Huawei/iot_link/network/dtls/mbedtls/mbedtls-2.16.2/library\x509write_crt.c **** 
 1582              		.loc 1 341 5 view .LVU443
 346:D:/fchai/work/i-cube/I-CUBE-HUAWEI/Middlewares/Third_Party/Huawei/iot_link/network/dtls/mbedtls/mbedtls-2.16.2/library\x509write_crt.c **** 
 1583              		.loc 1 346 5 view .LVU444
 346:D:/fchai/work/i-cube/I-CUBE-HUAWEI/Middlewares/Third_Party/Huawei/iot_link/network/dtls/mbedtls/mbedtls-2.16.2/library\x509write_crt.c **** 
 1584              		.loc 1 346 7 is_stmt 0 view .LVU445
 1585 0014 0DF54863 		add	r3, sp, #3200
 1586              	.LVL171:
 1587              		.loc 1 352 9 view .LVU446
 1588 0018 0121     		movs	r1, #1
 1589              	.LVL172:
 331:D:/fchai/work/i-cube/I-CUBE-HUAWEI/Middlewares/Third_Party/Huawei/iot_link/network/dtls/mbedtls/mbedtls-2.16.2/library\x509write_crt.c ****     int ret;
 1590              		.loc 1 331 1 view .LVU447
 1591 001a 1746     		mov	r7, r2
 346:D:/fchai/work/i-cube/I-CUBE-HUAWEI/Middlewares/Third_Party/Huawei/iot_link/network/dtls/mbedtls/mbedtls-2.16.2/library\x509write_crt.c **** 
 1592              		.loc 1 346 7 view .LVU448
 1593 001c 0D93     		str	r3, [sp, #52]
 1594              		.loc 1 352 5 is_stmt 1 view .LVU449
 1595              		.loc 1 352 9 is_stmt 0 view .LVU450
 1596 001e FFF7FEFF 		bl	mbedtls_pk_can_do
 1597              	.LVL173:
 1598              		.loc 1 352 7 view .LVU451
 1599 0022 40B9     		cbnz	r0, .L85
 353:D:/fchai/work/i-cube/I-CUBE-HUAWEI/Middlewares/Third_Party/Huawei/iot_link/network/dtls/mbedtls/mbedtls-2.16.2/library\x509write_crt.c ****         pk_alg = MBEDTLS_PK_RSA;
 354:D:/fchai/work/i-cube/I-CUBE-HUAWEI/Middlewares/Third_Party/Huawei/iot_link/network/dtls/mbedtls/mbedtls-2.16.2/library\x509write_crt.c ****     else if( mbedtls_pk_can_do( ctx->issuer_key, MBEDTLS_PK_ECDSA ) )
 1600              		.loc 1 354 10 is_stmt 1 view .LVU452
 1601              		.loc 1 354 14 is_stmt 0 view .LVU453
 1602 0024 6869     		ldr	r0, [r5, #20]
 1603 0026 0421     		movs	r1, #4
 1604 0028 FFF7FEFF 		bl	mbedtls_pk_can_do
 1605              	.LVL174:
 1606              		.loc 1 354 12 view .LVU454
ARM GAS  T:\msys\tmp\cc1WsHhn.s 			page 42


 1607 002c 0028     		cmp	r0, #0
 1608 002e 00F02F81 		beq	.L86
 355:D:/fchai/work/i-cube/I-CUBE-HUAWEI/Middlewares/Third_Party/Huawei/iot_link/network/dtls/mbedtls/mbedtls-2.16.2/library\x509write_crt.c ****         pk_alg = MBEDTLS_PK_ECDSA;
 1609              		.loc 1 355 16 view .LVU455
 1610 0032 0420     		movs	r0, #4
 1611 0034 00E0     		b	.L81
 1612              	.L85:
 353:D:/fchai/work/i-cube/I-CUBE-HUAWEI/Middlewares/Third_Party/Huawei/iot_link/network/dtls/mbedtls/mbedtls-2.16.2/library\x509write_crt.c ****         pk_alg = MBEDTLS_PK_RSA;
 1613              		.loc 1 353 16 view .LVU456
 1614 0036 0120     		movs	r0, #1
 1615              	.L81:
 1616              	.LVL175:
 356:D:/fchai/work/i-cube/I-CUBE-HUAWEI/Middlewares/Third_Party/Huawei/iot_link/network/dtls/mbedtls/mbedtls-2.16.2/library\x509write_crt.c ****     else
 357:D:/fchai/work/i-cube/I-CUBE-HUAWEI/Middlewares/Third_Party/Huawei/iot_link/network/dtls/mbedtls/mbedtls-2.16.2/library\x509write_crt.c ****         return( MBEDTLS_ERR_X509_INVALID_ALG );
 358:D:/fchai/work/i-cube/I-CUBE-HUAWEI/Middlewares/Third_Party/Huawei/iot_link/network/dtls/mbedtls/mbedtls-2.16.2/library\x509write_crt.c **** 
 359:D:/fchai/work/i-cube/I-CUBE-HUAWEI/Middlewares/Third_Party/Huawei/iot_link/network/dtls/mbedtls/mbedtls-2.16.2/library\x509write_crt.c ****     if( ( ret = mbedtls_oid_get_oid_by_sig_alg( pk_alg, ctx->md_alg,
 1617              		.loc 1 359 5 is_stmt 1 view .LVU457
 1618              		.loc 1 359 17 is_stmt 0 view .LVU458
 1619 0038 95F82010 		ldrb	r1, [r5, #32]	@ zero_extendqisi2
 1620 003c 0BAA     		add	r2, sp, #44
 1621 003e 0CAB     		add	r3, sp, #48
 1622 0040 FFF7FEFF 		bl	mbedtls_oid_get_oid_by_sig_alg
 1623              	.LVL176:
 1624              		.loc 1 359 7 view .LVU459
 1625 0044 0446     		mov	r4, r0
 1626 0046 0028     		cmp	r0, #0
 1627 0048 40F0EC80 		bne	.L80
 360:D:/fchai/work/i-cube/I-CUBE-HUAWEI/Middlewares/Third_Party/Huawei/iot_link/network/dtls/mbedtls/mbedtls-2.16.2/library\x509write_crt.c ****                                           &sig_oid, &sig_oid_len ) ) != 0 )
 361:D:/fchai/work/i-cube/I-CUBE-HUAWEI/Middlewares/Third_Party/Huawei/iot_link/network/dtls/mbedtls/mbedtls-2.16.2/library\x509write_crt.c ****     {
 362:D:/fchai/work/i-cube/I-CUBE-HUAWEI/Middlewares/Third_Party/Huawei/iot_link/network/dtls/mbedtls/mbedtls-2.16.2/library\x509write_crt.c ****         return( ret );
 363:D:/fchai/work/i-cube/I-CUBE-HUAWEI/Middlewares/Third_Party/Huawei/iot_link/network/dtls/mbedtls/mbedtls-2.16.2/library\x509write_crt.c ****     }
 364:D:/fchai/work/i-cube/I-CUBE-HUAWEI/Middlewares/Third_Party/Huawei/iot_link/network/dtls/mbedtls/mbedtls-2.16.2/library\x509write_crt.c **** 
 365:D:/fchai/work/i-cube/I-CUBE-HUAWEI/Middlewares/Third_Party/Huawei/iot_link/network/dtls/mbedtls/mbedtls-2.16.2/library\x509write_crt.c ****     /*
 366:D:/fchai/work/i-cube/I-CUBE-HUAWEI/Middlewares/Third_Party/Huawei/iot_link/network/dtls/mbedtls/mbedtls-2.16.2/library\x509write_crt.c ****      *  Extensions  ::=  SEQUENCE SIZE (1..MAX) OF Extension
 367:D:/fchai/work/i-cube/I-CUBE-HUAWEI/Middlewares/Third_Party/Huawei/iot_link/network/dtls/mbedtls/mbedtls-2.16.2/library\x509write_crt.c ****      */
 368:D:/fchai/work/i-cube/I-CUBE-HUAWEI/Middlewares/Third_Party/Huawei/iot_link/network/dtls/mbedtls/mbedtls-2.16.2/library\x509write_crt.c **** 
 369:D:/fchai/work/i-cube/I-CUBE-HUAWEI/Middlewares/Third_Party/Huawei/iot_link/network/dtls/mbedtls/mbedtls-2.16.2/library\x509write_crt.c ****     /* Only for v3 */
 370:D:/fchai/work/i-cube/I-CUBE-HUAWEI/Middlewares/Third_Party/Huawei/iot_link/network/dtls/mbedtls/mbedtls-2.16.2/library\x509write_crt.c ****     if( ctx->version == MBEDTLS_X509_CRT_VERSION_3 )
 1628              		.loc 1 370 5 is_stmt 1 view .LVU460
 1629              		.loc 1 370 7 is_stmt 0 view .LVU461
 1630 004c 2B68     		ldr	r3, [r5]
 1631 004e 022B     		cmp	r3, #2
 1632 0050 00F0ED80 		beq	.L105
 340:D:/fchai/work/i-cube/I-CUBE-HUAWEI/Middlewares/Third_Party/Huawei/iot_link/network/dtls/mbedtls/mbedtls-2.16.2/library\x509write_crt.c ****     mbedtls_pk_type_t pk_alg;
 1633              		.loc 1 340 12 view .LVU462
 1634 0054 8146     		mov	r9, r0
 1635 0056 0DF5906B 		add	fp, sp, #1152
 1636              	.LVL177:
 1637              	.L83:
 371:D:/fchai/work/i-cube/I-CUBE-HUAWEI/Middlewares/Third_Party/Huawei/iot_link/network/dtls/mbedtls/mbedtls-2.16.2/library\x509write_crt.c ****     {
 372:D:/fchai/work/i-cube/I-CUBE-HUAWEI/Middlewares/Third_Party/Huawei/iot_link/network/dtls/mbedtls/mbedtls-2.16.2/library\x509write_crt.c ****         MBEDTLS_ASN1_CHK_ADD( len, mbedtls_x509_write_extensions( &c, tmp_buf, ctx->extensions ) );
 373:D:/fchai/work/i-cube/I-CUBE-HUAWEI/Middlewares/Third_Party/Huawei/iot_link/network/dtls/mbedtls/mbedtls-2.16.2/library\x509write_crt.c ****         MBEDTLS_ASN1_CHK_ADD( len, mbedtls_asn1_write_len( &c, tmp_buf, len ) );
 374:D:/fchai/work/i-cube/I-CUBE-HUAWEI/Middlewares/Third_Party/Huawei/iot_link/network/dtls/mbedtls/mbedtls-2.16.2/library\x509write_crt.c ****         MBEDTLS_ASN1_CHK_ADD( len, mbedtls_asn1_write_tag( &c, tmp_buf, MBEDTLS_ASN1_CONSTRUCTED |
 375:D:/fchai/work/i-cube/I-CUBE-HUAWEI/Middlewares/Third_Party/Huawei/iot_link/network/dtls/mbedtls/mbedtls-2.16.2/library\x509write_crt.c ****                                                            MBEDTLS_ASN1_SEQUENCE ) );
 376:D:/fchai/work/i-cube/I-CUBE-HUAWEI/Middlewares/Third_Party/Huawei/iot_link/network/dtls/mbedtls/mbedtls-2.16.2/library\x509write_crt.c ****         MBEDTLS_ASN1_CHK_ADD( len, mbedtls_asn1_write_len( &c, tmp_buf, len ) );
 377:D:/fchai/work/i-cube/I-CUBE-HUAWEI/Middlewares/Third_Party/Huawei/iot_link/network/dtls/mbedtls/mbedtls-2.16.2/library\x509write_crt.c ****         MBEDTLS_ASN1_CHK_ADD( len, mbedtls_asn1_write_tag( &c, tmp_buf, MBEDTLS_ASN1_CONTEXT_SPECIF
 1638              		.loc 1 377 9 is_stmt 1 discriminator 3 view .LVU463
ARM GAS  T:\msys\tmp\cc1WsHhn.s 			page 43


 378:D:/fchai/work/i-cube/I-CUBE-HUAWEI/Middlewares/Third_Party/Huawei/iot_link/network/dtls/mbedtls/mbedtls-2.16.2/library\x509write_crt.c ****                                                            MBEDTLS_ASN1_CONSTRUCTED | 3 ) );
 379:D:/fchai/work/i-cube/I-CUBE-HUAWEI/Middlewares/Third_Party/Huawei/iot_link/network/dtls/mbedtls/mbedtls-2.16.2/library\x509write_crt.c ****     }
 380:D:/fchai/work/i-cube/I-CUBE-HUAWEI/Middlewares/Third_Party/Huawei/iot_link/network/dtls/mbedtls/mbedtls-2.16.2/library\x509write_crt.c **** 
 381:D:/fchai/work/i-cube/I-CUBE-HUAWEI/Middlewares/Third_Party/Huawei/iot_link/network/dtls/mbedtls/mbedtls-2.16.2/library\x509write_crt.c ****     /*
 382:D:/fchai/work/i-cube/I-CUBE-HUAWEI/Middlewares/Third_Party/Huawei/iot_link/network/dtls/mbedtls/mbedtls-2.16.2/library\x509write_crt.c ****      *  SubjectPublicKeyInfo
 383:D:/fchai/work/i-cube/I-CUBE-HUAWEI/Middlewares/Third_Party/Huawei/iot_link/network/dtls/mbedtls/mbedtls-2.16.2/library\x509write_crt.c ****      */
 384:D:/fchai/work/i-cube/I-CUBE-HUAWEI/Middlewares/Third_Party/Huawei/iot_link/network/dtls/mbedtls/mbedtls-2.16.2/library\x509write_crt.c ****     MBEDTLS_ASN1_CHK_ADD( pub_len, mbedtls_pk_write_pubkey_der( ctx->subject_key,
 1639              		.loc 1 384 5 discriminator 3 view .LVU464
 1640              		.loc 1 384 5 discriminator 3 view .LVU465
 1641 005a 0D9A     		ldr	r2, [sp, #52]
 1642 005c 2869     		ldr	r0, [r5, #16]
 1643              	.LVL178:
 1644              		.loc 1 384 5 is_stmt 0 discriminator 3 view .LVU466
 1645 005e A2EB0B02 		sub	r2, r2, fp
 1646 0062 5946     		mov	r1, fp
 1647 0064 FFF7FEFF 		bl	mbedtls_pk_write_pubkey_der
 1648              	.LVL179:
 1649              		.loc 1 384 5 discriminator 3 view .LVU467
 1650 0068 041E     		subs	r4, r0, #0
 1651 006a C0F2DB80 		blt	.L80
 1652              		.loc 1 384 5 is_stmt 1 discriminator 2 view .LVU468
 385:D:/fchai/work/i-cube/I-CUBE-HUAWEI/Middlewares/Third_Party/Huawei/iot_link/network/dtls/mbedtls/mbedtls-2.16.2/library\x509write_crt.c ****                                                 tmp_buf, c - tmp_buf ) );
 386:D:/fchai/work/i-cube/I-CUBE-HUAWEI/Middlewares/Third_Party/Huawei/iot_link/network/dtls/mbedtls/mbedtls-2.16.2/library\x509write_crt.c ****     c -= pub_len;
 1653              		.loc 1 386 7 is_stmt 0 discriminator 2 view .LVU469
 1654 006e 0D9B     		ldr	r3, [sp, #52]
 387:D:/fchai/work/i-cube/I-CUBE-HUAWEI/Middlewares/Third_Party/Huawei/iot_link/network/dtls/mbedtls/mbedtls-2.16.2/library\x509write_crt.c ****     len += pub_len;
 388:D:/fchai/work/i-cube/I-CUBE-HUAWEI/Middlewares/Third_Party/Huawei/iot_link/network/dtls/mbedtls/mbedtls-2.16.2/library\x509write_crt.c **** 
 389:D:/fchai/work/i-cube/I-CUBE-HUAWEI/Middlewares/Third_Party/Huawei/iot_link/network/dtls/mbedtls/mbedtls-2.16.2/library\x509write_crt.c ****     /*
 390:D:/fchai/work/i-cube/I-CUBE-HUAWEI/Middlewares/Third_Party/Huawei/iot_link/network/dtls/mbedtls/mbedtls-2.16.2/library\x509write_crt.c ****      *  Subject  ::=  Name
 391:D:/fchai/work/i-cube/I-CUBE-HUAWEI/Middlewares/Third_Party/Huawei/iot_link/network/dtls/mbedtls/mbedtls-2.16.2/library\x509write_crt.c ****      */
 392:D:/fchai/work/i-cube/I-CUBE-HUAWEI/Middlewares/Third_Party/Huawei/iot_link/network/dtls/mbedtls/mbedtls-2.16.2/library\x509write_crt.c ****     MBEDTLS_ASN1_CHK_ADD( len, mbedtls_x509_write_names( &c, tmp_buf, ctx->subject ) );
 1655              		.loc 1 392 5 discriminator 2 view .LVU470
 1656 0070 AA69     		ldr	r2, [r5, #24]
 386:D:/fchai/work/i-cube/I-CUBE-HUAWEI/Middlewares/Third_Party/Huawei/iot_link/network/dtls/mbedtls/mbedtls-2.16.2/library\x509write_crt.c ****     len += pub_len;
 1657              		.loc 1 386 7 discriminator 2 view .LVU471
 1658 0072 1B1B     		subs	r3, r3, r4
 1659              		.loc 1 392 5 discriminator 2 view .LVU472
 1660 0074 5946     		mov	r1, fp
 1661 0076 0DA8     		add	r0, sp, #52
 1662              	.LVL180:
 386:D:/fchai/work/i-cube/I-CUBE-HUAWEI/Middlewares/Third_Party/Huawei/iot_link/network/dtls/mbedtls/mbedtls-2.16.2/library\x509write_crt.c ****     len += pub_len;
 1663              		.loc 1 386 7 discriminator 2 view .LVU473
 1664 0078 0D93     		str	r3, [sp, #52]
 1665              		.loc 1 392 5 discriminator 2 view .LVU474
 1666 007a FFF7FEFF 		bl	mbedtls_x509_write_names
 1667              	.LVL181:
 384:D:/fchai/work/i-cube/I-CUBE-HUAWEI/Middlewares/Third_Party/Huawei/iot_link/network/dtls/mbedtls/mbedtls-2.16.2/library\x509write_crt.c ****                                                 tmp_buf, c - tmp_buf ) );
 1668              		.loc 1 384 5 is_stmt 1 discriminator 2 view .LVU475
 386:D:/fchai/work/i-cube/I-CUBE-HUAWEI/Middlewares/Third_Party/Huawei/iot_link/network/dtls/mbedtls/mbedtls-2.16.2/library\x509write_crt.c ****     len += pub_len;
 1669              		.loc 1 386 5 discriminator 2 view .LVU476
 387:D:/fchai/work/i-cube/I-CUBE-HUAWEI/Middlewares/Third_Party/Huawei/iot_link/network/dtls/mbedtls/mbedtls-2.16.2/library\x509write_crt.c ****     len += pub_len;
 1670              		.loc 1 387 5 discriminator 2 view .LVU477
 1671              		.loc 1 392 5 discriminator 2 view .LVU478
 1672              		.loc 1 392 5 discriminator 2 view .LVU479
 384:D:/fchai/work/i-cube/I-CUBE-HUAWEI/Middlewares/Third_Party/Huawei/iot_link/network/dtls/mbedtls/mbedtls-2.16.2/library\x509write_crt.c ****                                                 tmp_buf, c - tmp_buf ) );
 1673              		.loc 1 384 5 is_stmt 0 discriminator 2 view .LVU480
 1674 007e 0594     		str	r4, [sp, #20]
ARM GAS  T:\msys\tmp\cc1WsHhn.s 			page 44


 1675              		.loc 1 392 5 discriminator 2 view .LVU481
 1676 0080 041E     		subs	r4, r0, #0
 1677              	.LVL182:
 1678              		.loc 1 392 5 discriminator 2 view .LVU482
 1679 0082 C0F2CF80 		blt	.L80
 1680              		.loc 1 392 5 is_stmt 1 discriminator 2 view .LVU483
 1681              	.LVL183:
 1682              		.loc 1 392 5 discriminator 2 view .LVU484
 393:D:/fchai/work/i-cube/I-CUBE-HUAWEI/Middlewares/Third_Party/Huawei/iot_link/network/dtls/mbedtls/mbedtls-2.16.2/library\x509write_crt.c **** 
 394:D:/fchai/work/i-cube/I-CUBE-HUAWEI/Middlewares/Third_Party/Huawei/iot_link/network/dtls/mbedtls/mbedtls-2.16.2/library\x509write_crt.c ****     /*
 395:D:/fchai/work/i-cube/I-CUBE-HUAWEI/Middlewares/Third_Party/Huawei/iot_link/network/dtls/mbedtls/mbedtls-2.16.2/library\x509write_crt.c ****      *  Validity ::= SEQUENCE {
 396:D:/fchai/work/i-cube/I-CUBE-HUAWEI/Middlewares/Third_Party/Huawei/iot_link/network/dtls/mbedtls/mbedtls-2.16.2/library\x509write_crt.c ****      *       notBefore      Time,
 397:D:/fchai/work/i-cube/I-CUBE-HUAWEI/Middlewares/Third_Party/Huawei/iot_link/network/dtls/mbedtls/mbedtls-2.16.2/library\x509write_crt.c ****      *       notAfter       Time }
 398:D:/fchai/work/i-cube/I-CUBE-HUAWEI/Middlewares/Third_Party/Huawei/iot_link/network/dtls/mbedtls/mbedtls-2.16.2/library\x509write_crt.c ****      */
 399:D:/fchai/work/i-cube/I-CUBE-HUAWEI/Middlewares/Third_Party/Huawei/iot_link/network/dtls/mbedtls/mbedtls-2.16.2/library\x509write_crt.c ****     sub_len = 0;
 1683              		.loc 1 399 5 discriminator 2 view .LVU485
 400:D:/fchai/work/i-cube/I-CUBE-HUAWEI/Middlewares/Third_Party/Huawei/iot_link/network/dtls/mbedtls/mbedtls-2.16.2/library\x509write_crt.c **** 
 401:D:/fchai/work/i-cube/I-CUBE-HUAWEI/Middlewares/Third_Party/Huawei/iot_link/network/dtls/mbedtls/mbedtls-2.16.2/library\x509write_crt.c ****     MBEDTLS_ASN1_CHK_ADD( sub_len, x509_write_time( &c, tmp_buf, ctx->not_after,
 1684              		.loc 1 401 5 discriminator 2 view .LVU486
 1685              		.loc 1 401 5 discriminator 2 view .LVU487
 1686 0086 05F13102 		add	r2, r5, #49
 1687 008a 5946     		mov	r1, fp
 1688 008c 0DA8     		add	r0, sp, #52
 1689              	.LVL184:
 1690              		.loc 1 401 5 is_stmt 0 discriminator 2 view .LVU488
 1691 008e FFF7FEFF 		bl	x509_write_time.constprop.0
 1692              	.LVL185:
 1693              		.loc 1 401 5 discriminator 2 view .LVU489
 1694 0092 B0F1000A 		subs	r10, r0, #0
 1695 0096 C0F2F780 		blt	.L90
 1696              		.loc 1 401 5 is_stmt 1 discriminator 2 view .LVU490
 1697              	.LVL186:
 1698              		.loc 1 401 5 discriminator 2 view .LVU491
 402:D:/fchai/work/i-cube/I-CUBE-HUAWEI/Middlewares/Third_Party/Huawei/iot_link/network/dtls/mbedtls/mbedtls-2.16.2/library\x509write_crt.c ****                                             MBEDTLS_X509_RFC5280_UTC_TIME_LEN ) );
 403:D:/fchai/work/i-cube/I-CUBE-HUAWEI/Middlewares/Third_Party/Huawei/iot_link/network/dtls/mbedtls/mbedtls-2.16.2/library\x509write_crt.c **** 
 404:D:/fchai/work/i-cube/I-CUBE-HUAWEI/Middlewares/Third_Party/Huawei/iot_link/network/dtls/mbedtls/mbedtls-2.16.2/library\x509write_crt.c ****     MBEDTLS_ASN1_CHK_ADD( sub_len, x509_write_time( &c, tmp_buf, ctx->not_before,
 1699              		.loc 1 404 5 discriminator 2 view .LVU492
 1700              		.loc 1 404 5 discriminator 2 view .LVU493
 1701 009a 05F12102 		add	r2, r5, #33
 1702 009e 5946     		mov	r1, fp
 1703 00a0 0DA8     		add	r0, sp, #52
 1704              	.LVL187:
 1705              		.loc 1 404 5 is_stmt 0 discriminator 2 view .LVU494
 1706 00a2 FFF7FEFF 		bl	x509_write_time.constprop.0
 1707              	.LVL188:
 1708              		.loc 1 404 5 discriminator 2 view .LVU495
 1709 00a6 0028     		cmp	r0, #0
 1710              		.loc 1 404 5 discriminator 2 view .LVU496
 1711 00a8 C0F2EC80 		blt	.L100
 1712              		.loc 1 404 5 is_stmt 1 discriminator 2 view .LVU497
 1713 00ac 8244     		add	r10, r10, r0
 1714              	.LVL189:
 1715              		.loc 1 404 5 discriminator 2 view .LVU498
 405:D:/fchai/work/i-cube/I-CUBE-HUAWEI/Middlewares/Third_Party/Huawei/iot_link/network/dtls/mbedtls/mbedtls-2.16.2/library\x509write_crt.c ****                                             MBEDTLS_X509_RFC5280_UTC_TIME_LEN ) );
 406:D:/fchai/work/i-cube/I-CUBE-HUAWEI/Middlewares/Third_Party/Huawei/iot_link/network/dtls/mbedtls/mbedtls-2.16.2/library\x509write_crt.c **** 
 407:D:/fchai/work/i-cube/I-CUBE-HUAWEI/Middlewares/Third_Party/Huawei/iot_link/network/dtls/mbedtls/mbedtls-2.16.2/library\x509write_crt.c ****     len += sub_len;
 1716              		.loc 1 407 5 discriminator 2 view .LVU499
ARM GAS  T:\msys\tmp\cc1WsHhn.s 			page 45


 408:D:/fchai/work/i-cube/I-CUBE-HUAWEI/Middlewares/Third_Party/Huawei/iot_link/network/dtls/mbedtls/mbedtls-2.16.2/library\x509write_crt.c ****     MBEDTLS_ASN1_CHK_ADD( len, mbedtls_asn1_write_len( &c, tmp_buf, sub_len ) );
 1717              		.loc 1 408 5 discriminator 2 view .LVU500
 1718              		.loc 1 408 5 discriminator 2 view .LVU501
 1719 00ae 5246     		mov	r2, r10
 1720 00b0 5946     		mov	r1, fp
 1721 00b2 0DA8     		add	r0, sp, #52
 1722              	.LVL190:
 1723              		.loc 1 408 5 is_stmt 0 discriminator 2 view .LVU502
 1724 00b4 FFF7FEFF 		bl	mbedtls_asn1_write_len
 1725              	.LVL191:
 1726              		.loc 1 408 5 discriminator 2 view .LVU503
 1727 00b8 031E     		subs	r3, r0, #0
 1728 00ba 0693     		str	r3, [sp, #24]
 1729 00bc C0F2E680 		blt	.L92
 1730              		.loc 1 408 5 is_stmt 1 discriminator 2 view .LVU504
 1731              	.LVL192:
 1732              		.loc 1 408 5 discriminator 2 view .LVU505
 409:D:/fchai/work/i-cube/I-CUBE-HUAWEI/Middlewares/Third_Party/Huawei/iot_link/network/dtls/mbedtls/mbedtls-2.16.2/library\x509write_crt.c ****     MBEDTLS_ASN1_CHK_ADD( len, mbedtls_asn1_write_tag( &c, tmp_buf, MBEDTLS_ASN1_CONSTRUCTED |
 1733              		.loc 1 409 5 discriminator 2 view .LVU506
 1734              		.loc 1 409 5 discriminator 2 view .LVU507
 1735 00c0 3022     		movs	r2, #48
 1736 00c2 5946     		mov	r1, fp
 1737 00c4 0DA8     		add	r0, sp, #52
 1738              	.LVL193:
 1739              		.loc 1 409 5 is_stmt 0 discriminator 2 view .LVU508
 1740 00c6 FFF7FEFF 		bl	mbedtls_asn1_write_tag
 1741              	.LVL194:
 1742              		.loc 1 409 5 discriminator 2 view .LVU509
 1743 00ca 021E     		subs	r2, r0, #0
 1744 00cc 0792     		str	r2, [sp, #28]
 1745 00ce C0F2E180 		blt	.L93
 1746              		.loc 1 409 5 is_stmt 1 discriminator 2 view .LVU510
 1747              	.LVL195:
 1748              		.loc 1 409 5 discriminator 2 view .LVU511
 410:D:/fchai/work/i-cube/I-CUBE-HUAWEI/Middlewares/Third_Party/Huawei/iot_link/network/dtls/mbedtls/mbedtls-2.16.2/library\x509write_crt.c ****                                                     MBEDTLS_ASN1_SEQUENCE ) );
 411:D:/fchai/work/i-cube/I-CUBE-HUAWEI/Middlewares/Third_Party/Huawei/iot_link/network/dtls/mbedtls/mbedtls-2.16.2/library\x509write_crt.c **** 
 412:D:/fchai/work/i-cube/I-CUBE-HUAWEI/Middlewares/Third_Party/Huawei/iot_link/network/dtls/mbedtls/mbedtls-2.16.2/library\x509write_crt.c ****     /*
 413:D:/fchai/work/i-cube/I-CUBE-HUAWEI/Middlewares/Third_Party/Huawei/iot_link/network/dtls/mbedtls/mbedtls-2.16.2/library\x509write_crt.c ****      *  Issuer  ::=  Name
 414:D:/fchai/work/i-cube/I-CUBE-HUAWEI/Middlewares/Third_Party/Huawei/iot_link/network/dtls/mbedtls/mbedtls-2.16.2/library\x509write_crt.c ****      */
 415:D:/fchai/work/i-cube/I-CUBE-HUAWEI/Middlewares/Third_Party/Huawei/iot_link/network/dtls/mbedtls/mbedtls-2.16.2/library\x509write_crt.c ****     MBEDTLS_ASN1_CHK_ADD( len, mbedtls_x509_write_names( &c, tmp_buf, ctx->issuer ) );
 1749              		.loc 1 415 5 discriminator 2 view .LVU512
 1750              		.loc 1 415 5 discriminator 2 view .LVU513
 1751 00d2 5946     		mov	r1, fp
 1752 00d4 EA69     		ldr	r2, [r5, #28]
 1753 00d6 0DA8     		add	r0, sp, #52
 1754              	.LVL196:
 1755              		.loc 1 415 5 is_stmt 0 discriminator 2 view .LVU514
 1756 00d8 FFF7FEFF 		bl	mbedtls_x509_write_names
 1757              	.LVL197:
 1758              		.loc 1 415 5 discriminator 2 view .LVU515
 1759 00dc 011E     		subs	r1, r0, #0
 1760 00de 0891     		str	r1, [sp, #32]
 1761 00e0 C0F2DA80 		blt	.L94
 1762              		.loc 1 415 5 is_stmt 1 discriminator 2 view .LVU516
 1763              	.LVL198:
 1764              		.loc 1 415 5 discriminator 2 view .LVU517
 416:D:/fchai/work/i-cube/I-CUBE-HUAWEI/Middlewares/Third_Party/Huawei/iot_link/network/dtls/mbedtls/mbedtls-2.16.2/library\x509write_crt.c **** 
ARM GAS  T:\msys\tmp\cc1WsHhn.s 			page 46


 417:D:/fchai/work/i-cube/I-CUBE-HUAWEI/Middlewares/Third_Party/Huawei/iot_link/network/dtls/mbedtls/mbedtls-2.16.2/library\x509write_crt.c ****     /*
 418:D:/fchai/work/i-cube/I-CUBE-HUAWEI/Middlewares/Third_Party/Huawei/iot_link/network/dtls/mbedtls/mbedtls-2.16.2/library\x509write_crt.c ****      *  Signature   ::=  AlgorithmIdentifier
 419:D:/fchai/work/i-cube/I-CUBE-HUAWEI/Middlewares/Third_Party/Huawei/iot_link/network/dtls/mbedtls/mbedtls-2.16.2/library\x509write_crt.c ****      */
 420:D:/fchai/work/i-cube/I-CUBE-HUAWEI/Middlewares/Third_Party/Huawei/iot_link/network/dtls/mbedtls/mbedtls-2.16.2/library\x509write_crt.c ****     MBEDTLS_ASN1_CHK_ADD( len, mbedtls_asn1_write_algorithm_identifier( &c, tmp_buf,
 1765              		.loc 1 420 5 discriminator 2 view .LVU518
 1766              		.loc 1 420 5 discriminator 2 view .LVU519
 1767 00e4 0B9A     		ldr	r2, [sp, #44]
 1768 00e6 0992     		str	r2, [sp, #36]
 1769 00e8 1046     		mov	r0, r2
 1770              	.LVL199:
 1771              		.loc 1 420 5 is_stmt 0 discriminator 2 view .LVU520
 1772 00ea FFF7FEFF 		bl	strlen
 1773              	.LVL200:
 1774              		.loc 1 420 5 discriminator 2 view .LVU521
 1775 00ee 0021     		movs	r1, #0
 1776 00f0 0346     		mov	r3, r0
 1777 00f2 0091     		str	r1, [sp]
 1778 00f4 099A     		ldr	r2, [sp, #36]
 1779 00f6 5946     		mov	r1, fp
 1780 00f8 0DA8     		add	r0, sp, #52
 1781 00fa FFF7FEFF 		bl	mbedtls_asn1_write_algorithm_identifier
 1782              	.LVL201:
 1783              		.loc 1 420 5 discriminator 2 view .LVU522
 1784 00fe 031E     		subs	r3, r0, #0
 1785 0100 C0F2CC80 		blt	.L95
 1786              		.loc 1 420 5 is_stmt 1 discriminator 2 view .LVU523
 1787              	.LVL202:
 1788              		.loc 1 420 5 discriminator 2 view .LVU524
 421:D:/fchai/work/i-cube/I-CUBE-HUAWEI/Middlewares/Third_Party/Huawei/iot_link/network/dtls/mbedtls/mbedtls-2.16.2/library\x509write_crt.c ****                        sig_oid, strlen( sig_oid ), 0 ) );
 422:D:/fchai/work/i-cube/I-CUBE-HUAWEI/Middlewares/Third_Party/Huawei/iot_link/network/dtls/mbedtls/mbedtls-2.16.2/library\x509write_crt.c **** 
 423:D:/fchai/work/i-cube/I-CUBE-HUAWEI/Middlewares/Third_Party/Huawei/iot_link/network/dtls/mbedtls/mbedtls-2.16.2/library\x509write_crt.c ****     /*
 424:D:/fchai/work/i-cube/I-CUBE-HUAWEI/Middlewares/Third_Party/Huawei/iot_link/network/dtls/mbedtls/mbedtls-2.16.2/library\x509write_crt.c ****      *  Serial   ::=  INTEGER
 425:D:/fchai/work/i-cube/I-CUBE-HUAWEI/Middlewares/Third_Party/Huawei/iot_link/network/dtls/mbedtls/mbedtls-2.16.2/library\x509write_crt.c ****      */
 426:D:/fchai/work/i-cube/I-CUBE-HUAWEI/Middlewares/Third_Party/Huawei/iot_link/network/dtls/mbedtls/mbedtls-2.16.2/library\x509write_crt.c ****     MBEDTLS_ASN1_CHK_ADD( len, mbedtls_asn1_write_mpi( &c, tmp_buf, &ctx->serial ) );
 1789              		.loc 1 426 5 discriminator 2 view .LVU525
 1790              		.loc 1 426 5 discriminator 2 view .LVU526
 1791 0104 2A1D     		adds	r2, r5, #4
 1792 0106 5946     		mov	r1, fp
 1793 0108 0DA8     		add	r0, sp, #52
 1794              	.LVL203:
 1795              		.loc 1 426 5 is_stmt 0 discriminator 2 view .LVU527
 1796 010a 0993     		str	r3, [sp, #36]
 1797              	.LVL204:
 1798              		.loc 1 426 5 discriminator 2 view .LVU528
 1799 010c FFF7FEFF 		bl	mbedtls_asn1_write_mpi
 1800              	.LVL205:
 1801              		.loc 1 426 5 discriminator 2 view .LVU529
 1802 0110 0028     		cmp	r0, #0
 1803              		.loc 1 426 5 discriminator 2 view .LVU530
 1804 0112 C0F2B780 		blt	.L100
 1805              		.loc 1 426 5 is_stmt 1 discriminator 2 view .LVU531
 387:D:/fchai/work/i-cube/I-CUBE-HUAWEI/Middlewares/Third_Party/Huawei/iot_link/network/dtls/mbedtls/mbedtls-2.16.2/library\x509write_crt.c **** 
 1806              		.loc 1 387 9 is_stmt 0 discriminator 2 view .LVU532
 1807 0116 0599     		ldr	r1, [sp, #20]
 408:D:/fchai/work/i-cube/I-CUBE-HUAWEI/Middlewares/Third_Party/Huawei/iot_link/network/dtls/mbedtls/mbedtls-2.16.2/library\x509write_crt.c ****     MBEDTLS_ASN1_CHK_ADD( len, mbedtls_asn1_write_tag( &c, tmp_buf, MBEDTLS_ASN1_CONSTRUCTED |
 1808              		.loc 1 408 5 discriminator 2 view .LVU533
 1809 0118 069B     		ldr	r3, [sp, #24]
ARM GAS  T:\msys\tmp\cc1WsHhn.s 			page 47


 409:D:/fchai/work/i-cube/I-CUBE-HUAWEI/Middlewares/Third_Party/Huawei/iot_link/network/dtls/mbedtls/mbedtls-2.16.2/library\x509write_crt.c ****                                                     MBEDTLS_ASN1_SEQUENCE ) );
 1810              		.loc 1 409 5 discriminator 2 view .LVU534
 1811 011a 079A     		ldr	r2, [sp, #28]
 387:D:/fchai/work/i-cube/I-CUBE-HUAWEI/Middlewares/Third_Party/Huawei/iot_link/network/dtls/mbedtls/mbedtls-2.16.2/library\x509write_crt.c **** 
 1812              		.loc 1 387 9 discriminator 2 view .LVU535
 1813 011c 8C46     		mov	ip, r1
 1814 011e CC44     		add	ip, ip, r9
 1815 0120 E146     		mov	r9, ip
 392:D:/fchai/work/i-cube/I-CUBE-HUAWEI/Middlewares/Third_Party/Huawei/iot_link/network/dtls/mbedtls/mbedtls-2.16.2/library\x509write_crt.c **** 
 1816              		.loc 1 392 5 discriminator 2 view .LVU536
 1817 0122 A144     		add	r9, r9, r4
 407:D:/fchai/work/i-cube/I-CUBE-HUAWEI/Middlewares/Third_Party/Huawei/iot_link/network/dtls/mbedtls/mbedtls-2.16.2/library\x509write_crt.c ****     MBEDTLS_ASN1_CHK_ADD( len, mbedtls_asn1_write_len( &c, tmp_buf, sub_len ) );
 1818              		.loc 1 407 9 discriminator 2 view .LVU537
 1819 0124 D144     		add	r9, r9, r10
 408:D:/fchai/work/i-cube/I-CUBE-HUAWEI/Middlewares/Third_Party/Huawei/iot_link/network/dtls/mbedtls/mbedtls-2.16.2/library\x509write_crt.c ****     MBEDTLS_ASN1_CHK_ADD( len, mbedtls_asn1_write_tag( &c, tmp_buf, MBEDTLS_ASN1_CONSTRUCTED |
 1820              		.loc 1 408 5 discriminator 2 view .LVU538
 1821 0126 4B44     		add	r3, r3, r9
 415:D:/fchai/work/i-cube/I-CUBE-HUAWEI/Middlewares/Third_Party/Huawei/iot_link/network/dtls/mbedtls/mbedtls-2.16.2/library\x509write_crt.c **** 
 1822              		.loc 1 415 5 discriminator 2 view .LVU539
 1823 0128 0899     		ldr	r1, [sp, #32]
 409:D:/fchai/work/i-cube/I-CUBE-HUAWEI/Middlewares/Third_Party/Huawei/iot_link/network/dtls/mbedtls/mbedtls-2.16.2/library\x509write_crt.c ****                                                     MBEDTLS_ASN1_SEQUENCE ) );
 1824              		.loc 1 409 5 discriminator 2 view .LVU540
 1825 012a 1A44     		add	r2, r2, r3
 420:D:/fchai/work/i-cube/I-CUBE-HUAWEI/Middlewares/Third_Party/Huawei/iot_link/network/dtls/mbedtls/mbedtls-2.16.2/library\x509write_crt.c ****                        sig_oid, strlen( sig_oid ), 0 ) );
 1826              		.loc 1 420 5 discriminator 2 view .LVU541
 1827 012c 099B     		ldr	r3, [sp, #36]
 415:D:/fchai/work/i-cube/I-CUBE-HUAWEI/Middlewares/Third_Party/Huawei/iot_link/network/dtls/mbedtls/mbedtls-2.16.2/library\x509write_crt.c **** 
 1828              		.loc 1 415 5 discriminator 2 view .LVU542
 1829 012e 1144     		add	r1, r1, r2
 427:D:/fchai/work/i-cube/I-CUBE-HUAWEI/Middlewares/Third_Party/Huawei/iot_link/network/dtls/mbedtls/mbedtls-2.16.2/library\x509write_crt.c **** 
 428:D:/fchai/work/i-cube/I-CUBE-HUAWEI/Middlewares/Third_Party/Huawei/iot_link/network/dtls/mbedtls/mbedtls-2.16.2/library\x509write_crt.c ****     /*
 429:D:/fchai/work/i-cube/I-CUBE-HUAWEI/Middlewares/Third_Party/Huawei/iot_link/network/dtls/mbedtls/mbedtls-2.16.2/library\x509write_crt.c ****      *  Version  ::=  INTEGER  {  v1(0), v2(1), v3(2)  }
 430:D:/fchai/work/i-cube/I-CUBE-HUAWEI/Middlewares/Third_Party/Huawei/iot_link/network/dtls/mbedtls/mbedtls-2.16.2/library\x509write_crt.c ****      */
 431:D:/fchai/work/i-cube/I-CUBE-HUAWEI/Middlewares/Third_Party/Huawei/iot_link/network/dtls/mbedtls/mbedtls-2.16.2/library\x509write_crt.c **** 
 432:D:/fchai/work/i-cube/I-CUBE-HUAWEI/Middlewares/Third_Party/Huawei/iot_link/network/dtls/mbedtls/mbedtls-2.16.2/library\x509write_crt.c ****     /* Can be omitted for v1 */
 433:D:/fchai/work/i-cube/I-CUBE-HUAWEI/Middlewares/Third_Party/Huawei/iot_link/network/dtls/mbedtls/mbedtls-2.16.2/library\x509write_crt.c ****     if( ctx->version != MBEDTLS_X509_CRT_VERSION_1 )
 1830              		.loc 1 433 12 discriminator 2 view .LVU543
 1831 0130 2A68     		ldr	r2, [r5]
 420:D:/fchai/work/i-cube/I-CUBE-HUAWEI/Middlewares/Third_Party/Huawei/iot_link/network/dtls/mbedtls/mbedtls-2.16.2/library\x509write_crt.c ****                        sig_oid, strlen( sig_oid ), 0 ) );
 1832              		.loc 1 420 5 discriminator 2 view .LVU544
 1833 0132 0B44     		add	r3, r3, r1
 426:D:/fchai/work/i-cube/I-CUBE-HUAWEI/Middlewares/Third_Party/Huawei/iot_link/network/dtls/mbedtls/mbedtls-2.16.2/library\x509write_crt.c **** 
 1834              		.loc 1 426 5 discriminator 2 view .LVU545
 1835 0134 00EB0309 		add	r9, r0, r3
 1836              	.LVL206:
 426:D:/fchai/work/i-cube/I-CUBE-HUAWEI/Middlewares/Third_Party/Huawei/iot_link/network/dtls/mbedtls/mbedtls-2.16.2/library\x509write_crt.c **** 
 1837              		.loc 1 426 5 is_stmt 1 discriminator 2 view .LVU546
 1838              		.loc 1 433 5 discriminator 2 view .LVU547
 1839              		.loc 1 433 7 is_stmt 0 discriminator 2 view .LVU548
 1840 0138 CAB1     		cbz	r2, .L84
 434:D:/fchai/work/i-cube/I-CUBE-HUAWEI/Middlewares/Third_Party/Huawei/iot_link/network/dtls/mbedtls/mbedtls-2.16.2/library\x509write_crt.c ****     {
 435:D:/fchai/work/i-cube/I-CUBE-HUAWEI/Middlewares/Third_Party/Huawei/iot_link/network/dtls/mbedtls/mbedtls-2.16.2/library\x509write_crt.c ****         sub_len = 0;
 1841              		.loc 1 435 9 is_stmt 1 view .LVU549
 1842              	.LVL207:
 436:D:/fchai/work/i-cube/I-CUBE-HUAWEI/Middlewares/Third_Party/Huawei/iot_link/network/dtls/mbedtls/mbedtls-2.16.2/library\x509write_crt.c ****         MBEDTLS_ASN1_CHK_ADD( sub_len, mbedtls_asn1_write_int( &c, tmp_buf, ctx->version ) );
 1843              		.loc 1 436 9 view .LVU550
 1844              		.loc 1 436 9 view .LVU551
ARM GAS  T:\msys\tmp\cc1WsHhn.s 			page 48


 1845 013a 5946     		mov	r1, fp
 1846 013c 0DA8     		add	r0, sp, #52
 1847              	.LVL208:
 1848              		.loc 1 436 9 is_stmt 0 view .LVU552
 1849 013e FFF7FEFF 		bl	mbedtls_asn1_write_int
 1850              	.LVL209:
 1851              		.loc 1 436 9 view .LVU553
 1852 0142 041E     		subs	r4, r0, #0
 1853 0144 6EDB     		blt	.L80
 1854              		.loc 1 436 9 is_stmt 1 discriminator 2 view .LVU554
 437:D:/fchai/work/i-cube/I-CUBE-HUAWEI/Middlewares/Third_Party/Huawei/iot_link/network/dtls/mbedtls/mbedtls-2.16.2/library\x509write_crt.c ****         len += sub_len;
 438:D:/fchai/work/i-cube/I-CUBE-HUAWEI/Middlewares/Third_Party/Huawei/iot_link/network/dtls/mbedtls/mbedtls-2.16.2/library\x509write_crt.c ****         MBEDTLS_ASN1_CHK_ADD( len, mbedtls_asn1_write_len( &c, tmp_buf, sub_len ) );
 1855              		.loc 1 438 9 is_stmt 0 discriminator 2 view .LVU555
 1856 0146 2246     		mov	r2, r4
 1857 0148 5946     		mov	r1, fp
 1858 014a 0DA8     		add	r0, sp, #52
 1859              	.LVL210:
 1860              		.loc 1 438 9 discriminator 2 view .LVU556
 1861 014c FFF7FEFF 		bl	mbedtls_asn1_write_len
 1862              	.LVL211:
 436:D:/fchai/work/i-cube/I-CUBE-HUAWEI/Middlewares/Third_Party/Huawei/iot_link/network/dtls/mbedtls/mbedtls-2.16.2/library\x509write_crt.c ****         MBEDTLS_ASN1_CHK_ADD( sub_len, mbedtls_asn1_write_int( &c, tmp_buf, ctx->version ) );
 1863              		.loc 1 436 9 discriminator 2 view .LVU557
 1864 0150 A246     		mov	r10, r4
 1865              	.LVL212:
 436:D:/fchai/work/i-cube/I-CUBE-HUAWEI/Middlewares/Third_Party/Huawei/iot_link/network/dtls/mbedtls/mbedtls-2.16.2/library\x509write_crt.c ****         MBEDTLS_ASN1_CHK_ADD( sub_len, mbedtls_asn1_write_int( &c, tmp_buf, ctx->version ) );
 1866              		.loc 1 436 9 is_stmt 1 discriminator 2 view .LVU558
 437:D:/fchai/work/i-cube/I-CUBE-HUAWEI/Middlewares/Third_Party/Huawei/iot_link/network/dtls/mbedtls/mbedtls-2.16.2/library\x509write_crt.c ****         len += sub_len;
 1867              		.loc 1 437 9 discriminator 2 view .LVU559
 1868              		.loc 1 438 9 discriminator 2 view .LVU560
 1869              		.loc 1 438 9 discriminator 2 view .LVU561
 1870              		.loc 1 438 9 is_stmt 0 discriminator 2 view .LVU562
 1871 0152 041E     		subs	r4, r0, #0
 1872              	.LVL213:
 1873              		.loc 1 438 9 discriminator 2 view .LVU563
 1874 0154 66DB     		blt	.L80
 1875              		.loc 1 438 9 is_stmt 1 discriminator 2 view .LVU564
 1876              	.LVL214:
 1877              		.loc 1 438 9 discriminator 2 view .LVU565
 439:D:/fchai/work/i-cube/I-CUBE-HUAWEI/Middlewares/Third_Party/Huawei/iot_link/network/dtls/mbedtls/mbedtls-2.16.2/library\x509write_crt.c ****         MBEDTLS_ASN1_CHK_ADD( len, mbedtls_asn1_write_tag( &c, tmp_buf, MBEDTLS_ASN1_CONTEXT_SPECIF
 1878              		.loc 1 439 9 discriminator 2 view .LVU566
 1879              		.loc 1 439 9 discriminator 2 view .LVU567
 1880 0156 A022     		movs	r2, #160
 1881 0158 5946     		mov	r1, fp
 1882 015a 0DA8     		add	r0, sp, #52
 1883              	.LVL215:
 1884              		.loc 1 439 9 is_stmt 0 discriminator 2 view .LVU568
 1885 015c FFF7FEFF 		bl	mbedtls_asn1_write_tag
 1886              	.LVL216:
 1887              		.loc 1 439 9 discriminator 2 view .LVU569
 1888 0160 0028     		cmp	r0, #0
 1889              		.loc 1 439 9 discriminator 2 view .LVU570
 1890 0162 C0F28F80 		blt	.L100
 1891              		.loc 1 439 9 is_stmt 1 discriminator 2 view .LVU571
 437:D:/fchai/work/i-cube/I-CUBE-HUAWEI/Middlewares/Third_Party/Huawei/iot_link/network/dtls/mbedtls/mbedtls-2.16.2/library\x509write_crt.c ****         len += sub_len;
 1892              		.loc 1 437 13 is_stmt 0 discriminator 2 view .LVU572
 1893 0166 D144     		add	r9, r9, r10
 1894              	.LVL217:
ARM GAS  T:\msys\tmp\cc1WsHhn.s 			page 49


 438:D:/fchai/work/i-cube/I-CUBE-HUAWEI/Middlewares/Third_Party/Huawei/iot_link/network/dtls/mbedtls/mbedtls-2.16.2/library\x509write_crt.c ****         MBEDTLS_ASN1_CHK_ADD( len, mbedtls_asn1_write_tag( &c, tmp_buf, MBEDTLS_ASN1_CONTEXT_SPECIF
 1895              		.loc 1 438 9 discriminator 2 view .LVU573
 1896 0168 4C44     		add	r4, r4, r9
 1897              		.loc 1 439 9 discriminator 2 view .LVU574
 1898 016a 00EB0409 		add	r9, r0, r4
 1899              	.LVL218:
 1900              	.L84:
 1901              		.loc 1 439 9 is_stmt 1 discriminator 3 view .LVU575
 440:D:/fchai/work/i-cube/I-CUBE-HUAWEI/Middlewares/Third_Party/Huawei/iot_link/network/dtls/mbedtls/mbedtls-2.16.2/library\x509write_crt.c ****                                                            MBEDTLS_ASN1_CONSTRUCTED | 0 ) );
 441:D:/fchai/work/i-cube/I-CUBE-HUAWEI/Middlewares/Third_Party/Huawei/iot_link/network/dtls/mbedtls/mbedtls-2.16.2/library\x509write_crt.c ****     }
 442:D:/fchai/work/i-cube/I-CUBE-HUAWEI/Middlewares/Third_Party/Huawei/iot_link/network/dtls/mbedtls/mbedtls-2.16.2/library\x509write_crt.c **** 
 443:D:/fchai/work/i-cube/I-CUBE-HUAWEI/Middlewares/Third_Party/Huawei/iot_link/network/dtls/mbedtls/mbedtls-2.16.2/library\x509write_crt.c ****     MBEDTLS_ASN1_CHK_ADD( len, mbedtls_asn1_write_len( &c, tmp_buf, len ) );
 1902              		.loc 1 443 5 discriminator 3 view .LVU576
 1903              		.loc 1 443 5 discriminator 3 view .LVU577
 1904 016e 4A46     		mov	r2, r9
 1905 0170 5946     		mov	r1, fp
 1906 0172 0DA8     		add	r0, sp, #52
 1907              	.LVL219:
 1908              		.loc 1 443 5 is_stmt 0 discriminator 3 view .LVU578
 1909 0174 FFF7FEFF 		bl	mbedtls_asn1_write_len
 1910              	.LVL220:
 1911              		.loc 1 443 5 discriminator 3 view .LVU579
 1912 0178 041E     		subs	r4, r0, #0
 1913 017a 53DB     		blt	.L80
 1914              		.loc 1 443 5 is_stmt 1 discriminator 2 view .LVU580
 1915              	.LVL221:
 1916              		.loc 1 443 5 discriminator 2 view .LVU581
 444:D:/fchai/work/i-cube/I-CUBE-HUAWEI/Middlewares/Third_Party/Huawei/iot_link/network/dtls/mbedtls/mbedtls-2.16.2/library\x509write_crt.c ****     MBEDTLS_ASN1_CHK_ADD( len, mbedtls_asn1_write_tag( &c, tmp_buf, MBEDTLS_ASN1_CONSTRUCTED |
 1917              		.loc 1 444 5 discriminator 2 view .LVU582
 1918              		.loc 1 444 5 discriminator 2 view .LVU583
 1919 017c 5946     		mov	r1, fp
 1920 017e 3022     		movs	r2, #48
 1921 0180 0DA8     		add	r0, sp, #52
 1922              	.LVL222:
 1923              		.loc 1 444 5 is_stmt 0 discriminator 2 view .LVU584
 1924 0182 FFF7FEFF 		bl	mbedtls_asn1_write_tag
 1925              	.LVL223:
 1926              		.loc 1 444 5 discriminator 2 view .LVU585
 1927 0186 0028     		cmp	r0, #0
 1928              		.loc 1 444 5 discriminator 2 view .LVU586
 1929 0188 7CDB     		blt	.L100
 1930              		.loc 1 444 5 is_stmt 1 discriminator 2 view .LVU587
 443:D:/fchai/work/i-cube/I-CUBE-HUAWEI/Middlewares/Third_Party/Huawei/iot_link/network/dtls/mbedtls/mbedtls-2.16.2/library\x509write_crt.c ****     MBEDTLS_ASN1_CHK_ADD( len, mbedtls_asn1_write_tag( &c, tmp_buf, MBEDTLS_ASN1_CONSTRUCTED |
 1931              		.loc 1 443 5 is_stmt 0 discriminator 2 view .LVU588
 1932 018a A144     		add	r9, r9, r4
 1933              	.LVL224:
 1934              		.loc 1 444 5 discriminator 2 view .LVU589
 1935 018c 8144     		add	r9, r9, r0
 1936              	.LVL225:
 1937              		.loc 1 444 5 is_stmt 1 discriminator 2 view .LVU590
 445:D:/fchai/work/i-cube/I-CUBE-HUAWEI/Middlewares/Third_Party/Huawei/iot_link/network/dtls/mbedtls/mbedtls-2.16.2/library\x509write_crt.c ****                                                        MBEDTLS_ASN1_SEQUENCE ) );
 446:D:/fchai/work/i-cube/I-CUBE-HUAWEI/Middlewares/Third_Party/Huawei/iot_link/network/dtls/mbedtls/mbedtls-2.16.2/library\x509write_crt.c **** 
 447:D:/fchai/work/i-cube/I-CUBE-HUAWEI/Middlewares/Third_Party/Huawei/iot_link/network/dtls/mbedtls/mbedtls-2.16.2/library\x509write_crt.c ****     /*
 448:D:/fchai/work/i-cube/I-CUBE-HUAWEI/Middlewares/Third_Party/Huawei/iot_link/network/dtls/mbedtls/mbedtls-2.16.2/library\x509write_crt.c ****      * Make signature
 449:D:/fchai/work/i-cube/I-CUBE-HUAWEI/Middlewares/Third_Party/Huawei/iot_link/network/dtls/mbedtls/mbedtls-2.16.2/library\x509write_crt.c ****      */
 450:D:/fchai/work/i-cube/I-CUBE-HUAWEI/Middlewares/Third_Party/Huawei/iot_link/network/dtls/mbedtls/mbedtls-2.16.2/library\x509write_crt.c ****     if( ( ret = mbedtls_md( mbedtls_md_info_from_type( ctx->md_alg ), c,
 1938              		.loc 1 450 5 discriminator 2 view .LVU591
ARM GAS  T:\msys\tmp\cc1WsHhn.s 			page 50


 1939              		.loc 1 450 17 is_stmt 0 discriminator 2 view .LVU592
 1940 018e 95F82000 		ldrb	r0, [r5, #32]	@ zero_extendqisi2
 1941              	.LVL226:
 1942              		.loc 1 450 17 discriminator 2 view .LVU593
 1943 0192 FFF7FEFF 		bl	mbedtls_md_info_from_type
 1944              	.LVL227:
 1945 0196 0D99     		ldr	r1, [sp, #52]
 1946 0198 4A46     		mov	r2, r9
 1947 019a 10AB     		add	r3, sp, #64
 1948 019c FFF7FEFF 		bl	mbedtls_md
 1949              	.LVL228:
 1950              		.loc 1 450 7 discriminator 2 view .LVU594
 1951 01a0 0446     		mov	r4, r0
 1952 01a2 0028     		cmp	r0, #0
 1953 01a4 3ED1     		bne	.L80
 451:D:/fchai/work/i-cube/I-CUBE-HUAWEI/Middlewares/Third_Party/Huawei/iot_link/network/dtls/mbedtls/mbedtls-2.16.2/library\x509write_crt.c ****                             len, hash ) ) != 0 )
 452:D:/fchai/work/i-cube/I-CUBE-HUAWEI/Middlewares/Third_Party/Huawei/iot_link/network/dtls/mbedtls/mbedtls-2.16.2/library\x509write_crt.c ****     {
 453:D:/fchai/work/i-cube/I-CUBE-HUAWEI/Middlewares/Third_Party/Huawei/iot_link/network/dtls/mbedtls/mbedtls-2.16.2/library\x509write_crt.c ****         return( ret );
 454:D:/fchai/work/i-cube/I-CUBE-HUAWEI/Middlewares/Third_Party/Huawei/iot_link/network/dtls/mbedtls/mbedtls-2.16.2/library\x509write_crt.c ****     }
 455:D:/fchai/work/i-cube/I-CUBE-HUAWEI/Middlewares/Third_Party/Huawei/iot_link/network/dtls/mbedtls/mbedtls-2.16.2/library\x509write_crt.c **** 
 456:D:/fchai/work/i-cube/I-CUBE-HUAWEI/Middlewares/Third_Party/Huawei/iot_link/network/dtls/mbedtls/mbedtls-2.16.2/library\x509write_crt.c ****     if( ( ret = mbedtls_pk_sign( ctx->issuer_key, ctx->md_alg, hash, 0, sig, &sig_len,
 1954              		.loc 1 456 5 is_stmt 1 view .LVU595
 1955              		.loc 1 456 17 is_stmt 0 view .LVU596
 1956 01a6 DDF8A83C 		ldr	r3, [sp, #3240]
 1957 01aa CDE90283 		strd	r8, r3, [sp, #8]
 1958 01ae 20A9     		add	r1, sp, #128
 1959 01b0 0DF13C0A 		add	r10, sp, #60
 1960 01b4 CDF804A0 		str	r10, [sp, #4]
