ARM GAS  T:\msys\tmp\ccjeK7qp.s 			page 1


   1              		.cpu cortex-m4
   2              		.eabi_attribute 27, 1
   3              		.eabi_attribute 28, 1
   4              		.eabi_attribute 20, 1
   5              		.eabi_attribute 21, 1
   6              		.eabi_attribute 23, 3
   7              		.eabi_attribute 24, 1
   8              		.eabi_attribute 25, 1
   9              		.eabi_attribute 26, 1
  10              		.eabi_attribute 30, 2
  11              		.eabi_attribute 34, 1
  12              		.eabi_attribute 18, 4
  13              		.file	"link_main.c"
  14              		.text
  15              	.Ltext0:
  16              		.cfi_sections	.debug_frame
  17              		.section	.rodata.linkmain_version.str1.4,"aMS",%progbits,1
  18              		.align	2
  19              	.LC0:
  20 0000 5625642E 		.ascii	"V%d.%d.%d AT %s ON %s\000"
  20      25642E25 
  20      64204154 
  20      20257320 
  20      4F4E2025 
  21 0016 0000     		.align	2
  22              	.LC1:
  23 0018 4A756C20 		.ascii	"Jul 23 2020\000"
  23      32332032 
  23      30323000 
  24              		.align	2
  25              	.LC2:
  26 0024 31373A32 		.ascii	"17:25:33\000"
  26      353A3333 
  26      00
  27              		.section	.text.linkmain_version,"ax",%progbits
  28              		.align	1
  29              		.p2align 2,,3
  30              		.global	linkmain_version
  31              		.arch armv7e-m
  32              		.syntax unified
  33              		.thumb
  34              		.thumb_func
  35              		.fpu fpv4-sp-d16
  37              	linkmain_version:
  38              	.LFB3:
  39              		.file 1 "D:/fchai/work/i-cube/I-CUBE-HUAWEI/Middlewares/Third_Party/Huawei/iot_link/link_main.c"
   1:D:/fchai/work/i-cube/I-CUBE-HUAWEI/Middlewares/Third_Party/Huawei/iot_link\link_main.c **** /*----------------------------------------------------------------------------
   2:D:/fchai/work/i-cube/I-CUBE-HUAWEI/Middlewares/Third_Party/Huawei/iot_link\link_main.c ****  * Copyright (c) <2018>, <Huawei Technologies Co., Ltd>
   3:D:/fchai/work/i-cube/I-CUBE-HUAWEI/Middlewares/Third_Party/Huawei/iot_link\link_main.c ****  * All rights reserved.
   4:D:/fchai/work/i-cube/I-CUBE-HUAWEI/Middlewares/Third_Party/Huawei/iot_link\link_main.c ****  * Redistribution and use in source and binary forms, with or without modification,
   5:D:/fchai/work/i-cube/I-CUBE-HUAWEI/Middlewares/Third_Party/Huawei/iot_link\link_main.c ****  * are permitted provided that the following conditions are met:
   6:D:/fchai/work/i-cube/I-CUBE-HUAWEI/Middlewares/Third_Party/Huawei/iot_link\link_main.c ****  * 1. Redistributions of source code must retain the above copyright notice, this list of
   7:D:/fchai/work/i-cube/I-CUBE-HUAWEI/Middlewares/Third_Party/Huawei/iot_link\link_main.c ****  * conditions and the following disclaimer.
   8:D:/fchai/work/i-cube/I-CUBE-HUAWEI/Middlewares/Third_Party/Huawei/iot_link\link_main.c ****  * 2. Redistributions in binary form must reproduce the above copyright notice, this list
   9:D:/fchai/work/i-cube/I-CUBE-HUAWEI/Middlewares/Third_Party/Huawei/iot_link\link_main.c ****  * of conditions and the following disclaimer in the documentation and/or other materials
  10:D:/fchai/work/i-cube/I-CUBE-HUAWEI/Middlewares/Third_Party/Huawei/iot_link\link_main.c ****  * provided with the distribution.
  11:D:/fchai/work/i-cube/I-CUBE-HUAWEI/Middlewares/Third_Party/Huawei/iot_link\link_main.c ****  * 3. Neither the name of the copyright holder nor the names of its contributors may be used
ARM GAS  T:\msys\tmp\ccjeK7qp.s 			page 2


  12:D:/fchai/work/i-cube/I-CUBE-HUAWEI/Middlewares/Third_Party/Huawei/iot_link\link_main.c ****  * to endorse or promote products derived from this software without specific prior written
  13:D:/fchai/work/i-cube/I-CUBE-HUAWEI/Middlewares/Third_Party/Huawei/iot_link\link_main.c ****  * permission.
  14:D:/fchai/work/i-cube/I-CUBE-HUAWEI/Middlewares/Third_Party/Huawei/iot_link\link_main.c ****  * THIS SOFTWARE IS PROVIDED BY THE COPYRIGHT HOLDERS AND CONTRIBUTORS
  15:D:/fchai/work/i-cube/I-CUBE-HUAWEI/Middlewares/Third_Party/Huawei/iot_link\link_main.c ****  * "AS IS" AND ANY EXPRESS OR IMPLIED WARRANTIES, INCLUDING, BUT NOT LIMITED TO,
  16:D:/fchai/work/i-cube/I-CUBE-HUAWEI/Middlewares/Third_Party/Huawei/iot_link\link_main.c ****  * THE IMPLIED WARRANTIES OF MERCHANTABILITY AND FITNESS FOR A PARTICULAR
  17:D:/fchai/work/i-cube/I-CUBE-HUAWEI/Middlewares/Third_Party/Huawei/iot_link\link_main.c ****  * PURPOSE ARE DISCLAIMED. IN NO EVENT SHALL THE COPYRIGHT HOLDER OR
  18:D:/fchai/work/i-cube/I-CUBE-HUAWEI/Middlewares/Third_Party/Huawei/iot_link\link_main.c ****  * CONTRIBUTORS BE LIABLE FOR ANY DIRECT, INDIRECT, INCIDENTAL, SPECIAL,
  19:D:/fchai/work/i-cube/I-CUBE-HUAWEI/Middlewares/Third_Party/Huawei/iot_link\link_main.c ****  * EXEMPLARY, OR CONSEQUENTIAL DAMAGES (INCLUDING, BUT NOT LIMITED TO,
  20:D:/fchai/work/i-cube/I-CUBE-HUAWEI/Middlewares/Third_Party/Huawei/iot_link\link_main.c ****  * PROCUREMENT OF SUBSTITUTE GOODS OR SERVICES; LOSS OF USE, DATA, OR PROFITS;
  21:D:/fchai/work/i-cube/I-CUBE-HUAWEI/Middlewares/Third_Party/Huawei/iot_link\link_main.c ****  * OR BUSINESS INTERRUPTION) HOWEVER CAUSED AND ON ANY THEORY OF LIABILITY,
  22:D:/fchai/work/i-cube/I-CUBE-HUAWEI/Middlewares/Third_Party/Huawei/iot_link\link_main.c ****  * WHETHER IN CONTRACT, STRICT LIABILITY, OR TORT (INCLUDING NEGLIGENCE OR
  23:D:/fchai/work/i-cube/I-CUBE-HUAWEI/Middlewares/Third_Party/Huawei/iot_link\link_main.c ****  * OTHERWISE) ARISING IN ANY WAY OUT OF THE USE OF THIS SOFTWARE, EVEN IF
  24:D:/fchai/work/i-cube/I-CUBE-HUAWEI/Middlewares/Third_Party/Huawei/iot_link\link_main.c ****  * ADVISED OF THE POSSIBILITY OF SUCH DAMAGE.
  25:D:/fchai/work/i-cube/I-CUBE-HUAWEI/Middlewares/Third_Party/Huawei/iot_link\link_main.c ****  *---------------------------------------------------------------------------*/
  26:D:/fchai/work/i-cube/I-CUBE-HUAWEI/Middlewares/Third_Party/Huawei/iot_link\link_main.c **** /*----------------------------------------------------------------------------
  27:D:/fchai/work/i-cube/I-CUBE-HUAWEI/Middlewares/Third_Party/Huawei/iot_link\link_main.c ****  * Notice of Export Control Law
  28:D:/fchai/work/i-cube/I-CUBE-HUAWEI/Middlewares/Third_Party/Huawei/iot_link\link_main.c ****  * ===============================================
  29:D:/fchai/work/i-cube/I-CUBE-HUAWEI/Middlewares/Third_Party/Huawei/iot_link\link_main.c ****  * Huawei LiteOS may be subject to applicable export control laws and regulations, which might
  30:D:/fchai/work/i-cube/I-CUBE-HUAWEI/Middlewares/Third_Party/Huawei/iot_link\link_main.c ****  * include those applicable to Huawei LiteOS of U.S. and the country in which you are located.
  31:D:/fchai/work/i-cube/I-CUBE-HUAWEI/Middlewares/Third_Party/Huawei/iot_link\link_main.c ****  * Import, export and usage of Huawei LiteOS in any manner by you shall be in compliance with such
  32:D:/fchai/work/i-cube/I-CUBE-HUAWEI/Middlewares/Third_Party/Huawei/iot_link\link_main.c ****  * applicable export control laws and regulations.
  33:D:/fchai/work/i-cube/I-CUBE-HUAWEI/Middlewares/Third_Party/Huawei/iot_link\link_main.c ****  *---------------------------------------------------------------------------*/
  34:D:/fchai/work/i-cube/I-CUBE-HUAWEI/Middlewares/Third_Party/Huawei/iot_link\link_main.c **** /**
  35:D:/fchai/work/i-cube/I-CUBE-HUAWEI/Middlewares/Third_Party/Huawei/iot_link\link_main.c ****  *  DATE                AUTHOR      INSTRUCTION
  36:D:/fchai/work/i-cube/I-CUBE-HUAWEI/Middlewares/Third_Party/Huawei/iot_link\link_main.c ****  *  2019-04-28 15:00  zhangqianfu  The first version
  37:D:/fchai/work/i-cube/I-CUBE-HUAWEI/Middlewares/Third_Party/Huawei/iot_link\link_main.c ****  *
  38:D:/fchai/work/i-cube/I-CUBE-HUAWEI/Middlewares/Third_Party/Huawei/iot_link\link_main.c ****  */
  39:D:/fchai/work/i-cube/I-CUBE-HUAWEI/Middlewares/Third_Party/Huawei/iot_link\link_main.c **** 
  40:D:/fchai/work/i-cube/I-CUBE-HUAWEI/Middlewares/Third_Party/Huawei/iot_link\link_main.c **** #include <stdio.h>
  41:D:/fchai/work/i-cube/I-CUBE-HUAWEI/Middlewares/Third_Party/Huawei/iot_link\link_main.c **** #include <iot_link_config.h>
  42:D:/fchai/work/i-cube/I-CUBE-HUAWEI/Middlewares/Third_Party/Huawei/iot_link\link_main.c **** #include <link_version.h>
  43:D:/fchai/work/i-cube/I-CUBE-HUAWEI/Middlewares/Third_Party/Huawei/iot_link\link_main.c **** //RTOS KERNEL
  44:D:/fchai/work/i-cube/I-CUBE-HUAWEI/Middlewares/Third_Party/Huawei/iot_link\link_main.c **** #include <osal.h>
  45:D:/fchai/work/i-cube/I-CUBE-HUAWEI/Middlewares/Third_Party/Huawei/iot_link\link_main.c **** 
  46:D:/fchai/work/i-cube/I-CUBE-HUAWEI/Middlewares/Third_Party/Huawei/iot_link\link_main.c **** #ifdef CONFIG_MACOS_ENABLE
  47:D:/fchai/work/i-cube/I-CUBE-HUAWEI/Middlewares/Third_Party/Huawei/iot_link\link_main.c ****     #include <sys/select.h>
  48:D:/fchai/work/i-cube/I-CUBE-HUAWEI/Middlewares/Third_Party/Huawei/iot_link\link_main.c **** #endif
  49:D:/fchai/work/i-cube/I-CUBE-HUAWEI/Middlewares/Third_Party/Huawei/iot_link\link_main.c **** 
  50:D:/fchai/work/i-cube/I-CUBE-HUAWEI/Middlewares/Third_Party/Huawei/iot_link\link_main.c **** 
  51:D:/fchai/work/i-cube/I-CUBE-HUAWEI/Middlewares/Third_Party/Huawei/iot_link\link_main.c **** #define  CN_LINK_VERSION_MAJOR      2
  52:D:/fchai/work/i-cube/I-CUBE-HUAWEI/Middlewares/Third_Party/Huawei/iot_link\link_main.c **** #define  CN_LINK_VERSION_MINOR      2
  53:D:/fchai/work/i-cube/I-CUBE-HUAWEI/Middlewares/Third_Party/Huawei/iot_link\link_main.c **** #define  CN_LINK_VERSION_FEATURE    1
  54:D:/fchai/work/i-cube/I-CUBE-HUAWEI/Middlewares/Third_Party/Huawei/iot_link\link_main.c **** 
  55:D:/fchai/work/i-cube/I-CUBE-HUAWEI/Middlewares/Third_Party/Huawei/iot_link\link_main.c **** 
  56:D:/fchai/work/i-cube/I-CUBE-HUAWEI/Middlewares/Third_Party/Huawei/iot_link\link_main.c **** static char s_link_mainversion[64];
  57:D:/fchai/work/i-cube/I-CUBE-HUAWEI/Middlewares/Third_Party/Huawei/iot_link\link_main.c **** const char *linkmain_version()
  58:D:/fchai/work/i-cube/I-CUBE-HUAWEI/Middlewares/Third_Party/Huawei/iot_link\link_main.c **** {
  40              		.loc 1 58 1 view -0
  41              		.cfi_startproc
  42              		@ args = 0, pretend = 0, frame = 0
  43              		@ frame_needed = 0, uses_anonymous_args = 0
  59:D:/fchai/work/i-cube/I-CUBE-HUAWEI/Middlewares/Third_Party/Huawei/iot_link\link_main.c ****     (void) snprintf(s_link_mainversion,64,"V%d.%d.%d AT %s ON %s",CN_LINK_VERSION_MAJOR,\
  44              		.loc 1 59 5 view .LVU1
  58:D:/fchai/work/i-cube/I-CUBE-HUAWEI/Middlewares/Third_Party/Huawei/iot_link\link_main.c ****     (void) snprintf(s_link_mainversion,64,"V%d.%d.%d AT %s ON %s",CN_LINK_VERSION_MAJOR,\
  45              		.loc 1 58 1 is_stmt 0 view .LVU2
  46 0000 10B5     		push	{r4, lr}
  47              	.LCFI0:
ARM GAS  T:\msys\tmp\ccjeK7qp.s 			page 3


  48              		.cfi_def_cfa_offset 8
  49              		.cfi_offset 4, -8
  50              		.cfi_offset 14, -4
  51 0002 84B0     		sub	sp, sp, #16
  52              	.LCFI1:
  53              		.cfi_def_cfa_offset 24
  54              		.loc 1 59 12 view .LVU3
  55 0004 084C     		ldr	r4, .L4
  56 0006 094B     		ldr	r3, .L4+4
  57 0008 0949     		ldr	r1, .L4+8
  58 000a 0393     		str	r3, [sp, #12]
  59 000c 0122     		movs	r2, #1
  60 000e 0223     		movs	r3, #2
  61 0010 CDE90121 		strd	r2, r1, [sp, #4]
  62 0014 2046     		mov	r0, r4
  63 0016 074A     		ldr	r2, .L4+12
  64 0018 0093     		str	r3, [sp]
  65 001a 4021     		movs	r1, #64
  66 001c FFF7FEFF 		bl	snprintf
  67              	.LVL0:
  60:D:/fchai/work/i-cube/I-CUBE-HUAWEI/Middlewares/Third_Party/Huawei/iot_link\link_main.c ****             CN_LINK_VERSION_MINOR,CN_LINK_VERSION_FEATURE,__TIME__,__DATE__);
  61:D:/fchai/work/i-cube/I-CUBE-HUAWEI/Middlewares/Third_Party/Huawei/iot_link\link_main.c ****     return s_link_mainversion;
  68              		.loc 1 61 5 is_stmt 1 view .LVU4
  62:D:/fchai/work/i-cube/I-CUBE-HUAWEI/Middlewares/Third_Party/Huawei/iot_link\link_main.c **** }
  69              		.loc 1 62 1 is_stmt 0 view .LVU5
  70 0020 2046     		mov	r0, r4
  71 0022 04B0     		add	sp, sp, #16
  72              	.LCFI2:
  73              		.cfi_def_cfa_offset 8
  74              		@ sp needed
  75 0024 10BD     		pop	{r4, pc}
  76              	.L5:
  77 0026 00BF     		.align	2
  78              	.L4:
  79 0028 00000000 		.word	.LANCHOR0
  80 002c 18000000 		.word	.LC1
  81 0030 24000000 		.word	.LC2
  82 0034 00000000 		.word	.LC0
  83              		.cfi_endproc
  84              	.LFE3:
  86              		.section	.rodata.link_main.str1.4,"aMS",%progbits,1
  87              		.align	2
  88              	.LC3:
  89 0000 5B25735D 		.ascii	"[%s][%u][%s] linkmain:%s\015\012\000"
  89      5B25755D 
  89      5B25735D 
  89      206C696E 
  89      6B6D6169 
  90              		.section	.text.link_main,"ax",%progbits
  91              		.align	1
  92              		.p2align 2,,3
  93              		.global	link_main
  94              		.syntax unified
  95              		.thumb
  96              		.thumb_func
  97              		.fpu fpv4-sp-d16
  99              	link_main:
ARM GAS  T:\msys\tmp\ccjeK7qp.s 			page 4


 100              	.LVL1:
 101              	.LFB4:
  63:D:/fchai/work/i-cube/I-CUBE-HUAWEI/Middlewares/Third_Party/Huawei/iot_link\link_main.c **** 
  64:D:/fchai/work/i-cube/I-CUBE-HUAWEI/Middlewares/Third_Party/Huawei/iot_link\link_main.c **** 
  65:D:/fchai/work/i-cube/I-CUBE-HUAWEI/Middlewares/Third_Party/Huawei/iot_link\link_main.c **** static int s_link_start = 0;
  66:D:/fchai/work/i-cube/I-CUBE-HUAWEI/Middlewares/Third_Party/Huawei/iot_link\link_main.c **** int link_main(void *args)
  67:D:/fchai/work/i-cube/I-CUBE-HUAWEI/Middlewares/Third_Party/Huawei/iot_link\link_main.c **** {
 102              		.loc 1 67 1 is_stmt 1 view -0
 103              		.cfi_startproc
 104              		@ args = 0, pretend = 0, frame = 8
 105              		@ frame_needed = 0, uses_anonymous_args = 0
  68:D:/fchai/work/i-cube/I-CUBE-HUAWEI/Middlewares/Third_Party/Huawei/iot_link\link_main.c ****     ///< install the RTOS kernel for the link
  69:D:/fchai/work/i-cube/I-CUBE-HUAWEI/Middlewares/Third_Party/Huawei/iot_link\link_main.c ****     if(s_link_start)
 106              		.loc 1 69 5 view .LVU7
  67:D:/fchai/work/i-cube/I-CUBE-HUAWEI/Middlewares/Third_Party/Huawei/iot_link\link_main.c ****     ///< install the RTOS kernel for the link
 107              		.loc 1 67 1 is_stmt 0 view .LVU8
 108 0000 F0B5     		push	{r4, r5, r6, r7, lr}
 109              	.LCFI3:
 110              		.cfi_def_cfa_offset 20
 111              		.cfi_offset 4, -20
 112              		.cfi_offset 5, -16
 113              		.cfi_offset 6, -12
 114              		.cfi_offset 7, -8
 115              		.cfi_offset 14, -4
 116              		.loc 1 69 8 view .LVU9
 117 0002 274B     		ldr	r3, .L12
 118 0004 1C68     		ldr	r4, [r3]
  67:D:/fchai/work/i-cube/I-CUBE-HUAWEI/Middlewares/Third_Party/Huawei/iot_link\link_main.c ****     ///< install the RTOS kernel for the link
 119              		.loc 1 67 1 view .LVU10
 120 0006 87B0     		sub	sp, sp, #28
 121              	.LCFI4:
 122              		.cfi_def_cfa_offset 48
 123              		.loc 1 69 7 view .LVU11
 124 0008 002C     		cmp	r4, #0
 125 000a 46D1     		bne	.L9
  70:D:/fchai/work/i-cube/I-CUBE-HUAWEI/Middlewares/Third_Party/Huawei/iot_link\link_main.c ****     {
  71:D:/fchai/work/i-cube/I-CUBE-HUAWEI/Middlewares/Third_Party/Huawei/iot_link\link_main.c ****        return -1;
  72:D:/fchai/work/i-cube/I-CUBE-HUAWEI/Middlewares/Third_Party/Huawei/iot_link\link_main.c ****     }
  73:D:/fchai/work/i-cube/I-CUBE-HUAWEI/Middlewares/Third_Party/Huawei/iot_link\link_main.c ****     s_link_start =1;
 126              		.loc 1 73 5 is_stmt 1 view .LVU12
 127              		.loc 1 73 18 is_stmt 0 view .LVU13
 128 000c 0125     		movs	r5, #1
 129 000e 1D60     		str	r5, [r3]
  74:D:/fchai/work/i-cube/I-CUBE-HUAWEI/Middlewares/Third_Party/Huawei/iot_link\link_main.c **** 
  75:D:/fchai/work/i-cube/I-CUBE-HUAWEI/Middlewares/Third_Party/Huawei/iot_link\link_main.c ****     (void)osal_init();
 130              		.loc 1 75 5 is_stmt 1 view .LVU14
 131              		.loc 1 75 11 is_stmt 0 view .LVU15
 132 0010 FFF7FEFF 		bl	osal_init
 133              	.LVL2:
  76:D:/fchai/work/i-cube/I-CUBE-HUAWEI/Middlewares/Third_Party/Huawei/iot_link\link_main.c ****     LINK_LOG_DEBUG("linkmain:%s",linkmain_version());
 134              		.loc 1 76 5 is_stmt 1 view .LVU16
 135              		.loc 1 76 5 view .LVU17
 136 0014 FFF7FEFF 		bl	link_log_level_get
 137              	.LVL3:
 138 0018 A842     		cmp	r0, r5
 139 001a 1DD9     		bls	.L11
 140              	.L8:
ARM GAS  T:\msys\tmp\ccjeK7qp.s 			page 5


 141              		.loc 1 76 5 discriminator 3 view .LVU18
 142              		.loc 1 76 5 discriminator 3 view .LVU19
 143              		.loc 1 76 5 discriminator 3 view .LVU20
 144              		.file 2 "D:/fchai/work/i-cube/I-CUBE-HUAWEI/Middlewares/Third_Party/Huawei/iot_link/inc/stimer.h"
   1:D:/fchai/work/i-cube/I-CUBE-HUAWEI/Middlewares/Third_Party/Huawei/iot_link/inc\stimer.h **** /*----------------------------------------------------------------------------
   2:D:/fchai/work/i-cube/I-CUBE-HUAWEI/Middlewares/Third_Party/Huawei/iot_link/inc\stimer.h ****  * Copyright (c) <2018>, <Huawei Technologies Co., Ltd>
   3:D:/fchai/work/i-cube/I-CUBE-HUAWEI/Middlewares/Third_Party/Huawei/iot_link/inc\stimer.h ****  * All rights reserved.
   4:D:/fchai/work/i-cube/I-CUBE-HUAWEI/Middlewares/Third_Party/Huawei/iot_link/inc\stimer.h ****  * Redistribution and use in source and binary forms, with or without modification,
   5:D:/fchai/work/i-cube/I-CUBE-HUAWEI/Middlewares/Third_Party/Huawei/iot_link/inc\stimer.h ****  * are permitted provided that the following conditions are met:
   6:D:/fchai/work/i-cube/I-CUBE-HUAWEI/Middlewares/Third_Party/Huawei/iot_link/inc\stimer.h ****  * 1. Redistributions of source code must retain the above copyright notice, this list of
   7:D:/fchai/work/i-cube/I-CUBE-HUAWEI/Middlewares/Third_Party/Huawei/iot_link/inc\stimer.h ****  * conditions and the following disclaimer.
   8:D:/fchai/work/i-cube/I-CUBE-HUAWEI/Middlewares/Third_Party/Huawei/iot_link/inc\stimer.h ****  * 2. Redistributions in binary form must reproduce the above copyright notice, this list
   9:D:/fchai/work/i-cube/I-CUBE-HUAWEI/Middlewares/Third_Party/Huawei/iot_link/inc\stimer.h ****  * of conditions and the following disclaimer in the documentation and/or other materials
  10:D:/fchai/work/i-cube/I-CUBE-HUAWEI/Middlewares/Third_Party/Huawei/iot_link/inc\stimer.h ****  * provided with the distribution.
  11:D:/fchai/work/i-cube/I-CUBE-HUAWEI/Middlewares/Third_Party/Huawei/iot_link/inc\stimer.h ****  * 3. Neither the name of the copyright holder nor the names of its contributors may be used
  12:D:/fchai/work/i-cube/I-CUBE-HUAWEI/Middlewares/Third_Party/Huawei/iot_link/inc\stimer.h ****  * to endorse or promote products derived from this software without specific prior written
  13:D:/fchai/work/i-cube/I-CUBE-HUAWEI/Middlewares/Third_Party/Huawei/iot_link/inc\stimer.h ****  * permission.
  14:D:/fchai/work/i-cube/I-CUBE-HUAWEI/Middlewares/Third_Party/Huawei/iot_link/inc\stimer.h ****  * THIS SOFTWARE IS PROVIDED BY THE COPYRIGHT HOLDERS AND CONTRIBUTORS
  15:D:/fchai/work/i-cube/I-CUBE-HUAWEI/Middlewares/Third_Party/Huawei/iot_link/inc\stimer.h ****  * "AS IS" AND ANY EXPRESS OR IMPLIED WARRANTIES, INCLUDING, BUT NOT LIMITED TO,
  16:D:/fchai/work/i-cube/I-CUBE-HUAWEI/Middlewares/Third_Party/Huawei/iot_link/inc\stimer.h ****  * THE IMPLIED WARRANTIES OF MERCHANTABILITY AND FITNESS FOR A PARTICULAR
  17:D:/fchai/work/i-cube/I-CUBE-HUAWEI/Middlewares/Third_Party/Huawei/iot_link/inc\stimer.h ****  * PURPOSE ARE DISCLAIMED. IN NO EVENT SHALL THE COPYRIGHT HOLDER OR
  18:D:/fchai/work/i-cube/I-CUBE-HUAWEI/Middlewares/Third_Party/Huawei/iot_link/inc\stimer.h ****  * CONTRIBUTORS BE LIABLE FOR ANY DIRECT, INDIRECT, INCIDENTAL, SPECIAL,
  19:D:/fchai/work/i-cube/I-CUBE-HUAWEI/Middlewares/Third_Party/Huawei/iot_link/inc\stimer.h ****  * EXEMPLARY, OR CONSEQUENTIAL DAMAGES (INCLUDING, BUT NOT LIMITED TO,
  20:D:/fchai/work/i-cube/I-CUBE-HUAWEI/Middlewares/Third_Party/Huawei/iot_link/inc\stimer.h ****  * PROCUREMENT OF SUBSTITUTE GOODS OR SERVICES; LOSS OF USE, DATA, OR PROFITS;
  21:D:/fchai/work/i-cube/I-CUBE-HUAWEI/Middlewares/Third_Party/Huawei/iot_link/inc\stimer.h ****  * OR BUSINESS INTERRUPTION) HOWEVER CAUSED AND ON ANY THEORY OF LIABILITY,
  22:D:/fchai/work/i-cube/I-CUBE-HUAWEI/Middlewares/Third_Party/Huawei/iot_link/inc\stimer.h ****  * WHETHER IN CONTRACT, STRICT LIABILITY, OR TORT (INCLUDING NEGLIGENCE OR
  23:D:/fchai/work/i-cube/I-CUBE-HUAWEI/Middlewares/Third_Party/Huawei/iot_link/inc\stimer.h ****  * OTHERWISE) ARISING IN ANY WAY OUT OF THE USE OF THIS SOFTWARE, EVEN IF
  24:D:/fchai/work/i-cube/I-CUBE-HUAWEI/Middlewares/Third_Party/Huawei/iot_link/inc\stimer.h ****  * ADVISED OF THE POSSIBILITY OF SUCH DAMAGE.
  25:D:/fchai/work/i-cube/I-CUBE-HUAWEI/Middlewares/Third_Party/Huawei/iot_link/inc\stimer.h ****  *---------------------------------------------------------------------------*/
  26:D:/fchai/work/i-cube/I-CUBE-HUAWEI/Middlewares/Third_Party/Huawei/iot_link/inc\stimer.h **** /*----------------------------------------------------------------------------
  27:D:/fchai/work/i-cube/I-CUBE-HUAWEI/Middlewares/Third_Party/Huawei/iot_link/inc\stimer.h ****  * Notice of Export Control Law
  28:D:/fchai/work/i-cube/I-CUBE-HUAWEI/Middlewares/Third_Party/Huawei/iot_link/inc\stimer.h ****  * ===============================================
  29:D:/fchai/work/i-cube/I-CUBE-HUAWEI/Middlewares/Third_Party/Huawei/iot_link/inc\stimer.h ****  * Huawei LiteOS may be subject to applicable export control laws and regulations, which might
  30:D:/fchai/work/i-cube/I-CUBE-HUAWEI/Middlewares/Third_Party/Huawei/iot_link/inc\stimer.h ****  * include those applicable to Huawei LiteOS of U.S. and the country in which you are located.
  31:D:/fchai/work/i-cube/I-CUBE-HUAWEI/Middlewares/Third_Party/Huawei/iot_link/inc\stimer.h ****  * Import, export and usage of Huawei LiteOS in any manner by you shall be in compliance with such
  32:D:/fchai/work/i-cube/I-CUBE-HUAWEI/Middlewares/Third_Party/Huawei/iot_link/inc\stimer.h ****  * applicable export control laws and regulations.
  33:D:/fchai/work/i-cube/I-CUBE-HUAWEI/Middlewares/Third_Party/Huawei/iot_link/inc\stimer.h ****  *---------------------------------------------------------------------------*/
  34:D:/fchai/work/i-cube/I-CUBE-HUAWEI/Middlewares/Third_Party/Huawei/iot_link/inc\stimer.h **** /**
  35:D:/fchai/work/i-cube/I-CUBE-HUAWEI/Middlewares/Third_Party/Huawei/iot_link/inc\stimer.h ****  *  DATE                AUTHOR      INSTRUCTION
  36:D:/fchai/work/i-cube/I-CUBE-HUAWEI/Middlewares/Third_Party/Huawei/iot_link/inc\stimer.h ****  *  2019-07-26 18:05  zhangqianfu  The first version
  37:D:/fchai/work/i-cube/I-CUBE-HUAWEI/Middlewares/Third_Party/Huawei/iot_link/inc\stimer.h ****  *
  38:D:/fchai/work/i-cube/I-CUBE-HUAWEI/Middlewares/Third_Party/Huawei/iot_link/inc\stimer.h ****  */
  39:D:/fchai/work/i-cube/I-CUBE-HUAWEI/Middlewares/Third_Party/Huawei/iot_link/inc\stimer.h **** #ifndef LITEOS_LAB_IOT_LINK_STIMER_STIMER_H_
  40:D:/fchai/work/i-cube/I-CUBE-HUAWEI/Middlewares/Third_Party/Huawei/iot_link/inc\stimer.h **** #define LITEOS_LAB_IOT_LINK_STIMER_STIMER_H_
  41:D:/fchai/work/i-cube/I-CUBE-HUAWEI/Middlewares/Third_Party/Huawei/iot_link/inc\stimer.h **** 
  42:D:/fchai/work/i-cube/I-CUBE-HUAWEI/Middlewares/Third_Party/Huawei/iot_link/inc\stimer.h **** #include <stddef.h>
  43:D:/fchai/work/i-cube/I-CUBE-HUAWEI/Middlewares/Third_Party/Huawei/iot_link/inc\stimer.h **** #include <stdint.h>
  44:D:/fchai/work/i-cube/I-CUBE-HUAWEI/Middlewares/Third_Party/Huawei/iot_link/inc\stimer.h **** 
  45:D:/fchai/work/i-cube/I-CUBE-HUAWEI/Middlewares/Third_Party/Huawei/iot_link/inc\stimer.h **** ////////////////DEFINES FOR THE STIMER HEADER///////////////////////////////////
  46:D:/fchai/work/i-cube/I-CUBE-HUAWEI/Middlewares/Third_Party/Huawei/iot_link/inc\stimer.h **** ///< defines for the soft timer operation method,you could use it with the stimer_ioctl function
  47:D:/fchai/work/i-cube/I-CUBE-HUAWEI/Middlewares/Third_Party/Huawei/iot_link/inc\stimer.h **** typedef enum
 145              		.loc 2 47 1 discriminator 3 view .LVU21
  48:D:/fchai/work/i-cube/I-CUBE-HUAWEI/Middlewares/Third_Party/Huawei/iot_link/inc\stimer.h **** {
  49:D:/fchai/work/i-cube/I-CUBE-HUAWEI/Middlewares/Third_Party/Huawei/iot_link/inc\stimer.h ****     en_stimer_opt_stop = 0,   ///< stop the soft timer
  50:D:/fchai/work/i-cube/I-CUBE-HUAWEI/Middlewares/Third_Party/Huawei/iot_link/inc\stimer.h ****     en_stimer_opt_start,      ///< start the soft timer
  51:D:/fchai/work/i-cube/I-CUBE-HUAWEI/Middlewares/Third_Party/Huawei/iot_link/inc\stimer.h ****     en_stimer_opt_gettime,    ///< get the left time
  52:D:/fchai/work/i-cube/I-CUBE-HUAWEI/Middlewares/Third_Party/Huawei/iot_link/inc\stimer.h ****     en_stimer_opt_recycle,    ///< reset the cycle
ARM GAS  T:\msys\tmp\ccjeK7qp.s 			page 6


  53:D:/fchai/work/i-cube/I-CUBE-HUAWEI/Middlewares/Third_Party/Huawei/iot_link/inc\stimer.h ****     en_stimer_opt_reflag,     ///< reset the flag
  54:D:/fchai/work/i-cube/I-CUBE-HUAWEI/Middlewares/Third_Party/Huawei/iot_link/inc\stimer.h **** }en_stimer_opt_t;
  55:D:/fchai/work/i-cube/I-CUBE-HUAWEI/Middlewares/Third_Party/Huawei/iot_link/inc\stimer.h **** 
  56:D:/fchai/work/i-cube/I-CUBE-HUAWEI/Middlewares/Third_Party/Huawei/iot_link/inc\stimer.h **** ///< defines for the soft timer handle returned by the create function and used for ioctl and delet
  57:D:/fchai/work/i-cube/I-CUBE-HUAWEI/Middlewares/Third_Party/Huawei/iot_link/inc\stimer.h **** ///< the user should never supposed any data structure for the handle, you could only use the api s
  58:D:/fchai/work/i-cube/I-CUBE-HUAWEI/Middlewares/Third_Party/Huawei/iot_link/inc\stimer.h **** typedef void* stimer_t;
 146              		.loc 2 58 1 discriminator 3 view .LVU22
  59:D:/fchai/work/i-cube/I-CUBE-HUAWEI/Middlewares/Third_Party/Huawei/iot_link/inc\stimer.h **** 
  60:D:/fchai/work/i-cube/I-CUBE-HUAWEI/Middlewares/Third_Party/Huawei/iot_link/inc\stimer.h **** ///< defines for the flag when create the soft timer
  61:D:/fchai/work/i-cube/I-CUBE-HUAWEI/Middlewares/Third_Party/Huawei/iot_link/inc\stimer.h **** #define cn_stimer_flag_once  (1<<0)
  62:D:/fchai/work/i-cube/I-CUBE-HUAWEI/Middlewares/Third_Party/Huawei/iot_link/inc\stimer.h **** #define cn_stimer_flag_start (1<<1)
  63:D:/fchai/work/i-cube/I-CUBE-HUAWEI/Middlewares/Third_Party/Huawei/iot_link/inc\stimer.h **** ///< define the soft timer interrupt service function
  64:D:/fchai/work/i-cube/I-CUBE-HUAWEI/Middlewares/Third_Party/Huawei/iot_link/inc\stimer.h **** typedef void  (*fn_stimer_handler)(void *arg);
 147              		.loc 2 64 1 discriminator 3 view .LVU23
  65:D:/fchai/work/i-cube/I-CUBE-HUAWEI/Middlewares/Third_Party/Huawei/iot_link/inc\stimer.h **** 
  66:D:/fchai/work/i-cube/I-CUBE-HUAWEI/Middlewares/Third_Party/Huawei/iot_link/inc\stimer.h **** 
  67:D:/fchai/work/i-cube/I-CUBE-HUAWEI/Middlewares/Third_Party/Huawei/iot_link/inc\stimer.h **** /**
  68:D:/fchai/work/i-cube/I-CUBE-HUAWEI/Middlewares/Third_Party/Huawei/iot_link/inc\stimer.h ****  * @brief: this function used for initialize the timer component, should be called after the os
  69:D:/fchai/work/i-cube/I-CUBE-HUAWEI/Middlewares/Third_Party/Huawei/iot_link/inc\stimer.h ****  *
  70:D:/fchai/work/i-cube/I-CUBE-HUAWEI/Middlewares/Third_Party/Huawei/iot_link/inc\stimer.h ****  * @return: 0 success while -1 failed
  71:D:/fchai/work/i-cube/I-CUBE-HUAWEI/Middlewares/Third_Party/Huawei/iot_link/inc\stimer.h ****  * */
  72:D:/fchai/work/i-cube/I-CUBE-HUAWEI/Middlewares/Third_Party/Huawei/iot_link/inc\stimer.h **** int32_t stimer_init(void);
 148              		.loc 2 72 1 discriminator 3 view .LVU24
  73:D:/fchai/work/i-cube/I-CUBE-HUAWEI/Middlewares/Third_Party/Huawei/iot_link/inc\stimer.h **** 
  74:D:/fchai/work/i-cube/I-CUBE-HUAWEI/Middlewares/Third_Party/Huawei/iot_link/inc\stimer.h **** /**
  75:D:/fchai/work/i-cube/I-CUBE-HUAWEI/Middlewares/Third_Party/Huawei/iot_link/inc\stimer.h ****  * @brief: you could use this function for create a soft timer as you wished
  76:D:/fchai/work/i-cube/I-CUBE-HUAWEI/Middlewares/Third_Party/Huawei/iot_link/inc\stimer.h ****  *
  77:D:/fchai/work/i-cube/I-CUBE-HUAWEI/Middlewares/Third_Party/Huawei/iot_link/inc\stimer.h ****  * @param[in]:name, the soft timer name
  78:D:/fchai/work/i-cube/I-CUBE-HUAWEI/Middlewares/Third_Party/Huawei/iot_link/inc\stimer.h ****  * @param[in]:handler, the soft timer handler when the timer is activated
  79:D:/fchai/work/i-cube/I-CUBE-HUAWEI/Middlewares/Third_Party/Huawei/iot_link/inc\stimer.h ****  * @param[in]:arg, the argument will supplied for the handler
  80:D:/fchai/work/i-cube/I-CUBE-HUAWEI/Middlewares/Third_Party/Huawei/iot_link/inc\stimer.h ****  * @param[in]:cycle, the soft timer cycle
  81:D:/fchai/work/i-cube/I-CUBE-HUAWEI/Middlewares/Third_Party/Huawei/iot_link/inc\stimer.h ****  * @param[in]:flag, you could use cn_stimer_flag_once or cn_stimer_flag_start or both
  82:D:/fchai/work/i-cube/I-CUBE-HUAWEI/Middlewares/Third_Party/Huawei/iot_link/inc\stimer.h ****  *
  83:D:/fchai/work/i-cube/I-CUBE-HUAWEI/Middlewares/Third_Party/Huawei/iot_link/inc\stimer.h ****  * @return:soft timer handler, you could use it for ioctl or delete;if failed NULL
  84:D:/fchai/work/i-cube/I-CUBE-HUAWEI/Middlewares/Third_Party/Huawei/iot_link/inc\stimer.h ****  *         will be returned
  85:D:/fchai/work/i-cube/I-CUBE-HUAWEI/Middlewares/Third_Party/Huawei/iot_link/inc\stimer.h ****  *
  86:D:/fchai/work/i-cube/I-CUBE-HUAWEI/Middlewares/Third_Party/Huawei/iot_link/inc\stimer.h ****  * */
  87:D:/fchai/work/i-cube/I-CUBE-HUAWEI/Middlewares/Third_Party/Huawei/iot_link/inc\stimer.h **** stimer_t stimer_create(const char *name,fn_stimer_handler handler, \
 149              		.loc 2 87 1 discriminator 3 view .LVU25
  88:D:/fchai/work/i-cube/I-CUBE-HUAWEI/Middlewares/Third_Party/Huawei/iot_link/inc\stimer.h ****                                  void *arg,uint32_t cycle,uint32_t flag);
  89:D:/fchai/work/i-cube/I-CUBE-HUAWEI/Middlewares/Third_Party/Huawei/iot_link/inc\stimer.h **** 
  90:D:/fchai/work/i-cube/I-CUBE-HUAWEI/Middlewares/Third_Party/Huawei/iot_link/inc\stimer.h **** /**
  91:D:/fchai/work/i-cube/I-CUBE-HUAWEI/Middlewares/Third_Party/Huawei/iot_link/inc\stimer.h ****  * @brief: you could use this function to delete the soft timer you created
  92:D:/fchai/work/i-cube/I-CUBE-HUAWEI/Middlewares/Third_Party/Huawei/iot_link/inc\stimer.h ****  *
  93:D:/fchai/work/i-cube/I-CUBE-HUAWEI/Middlewares/Third_Party/Huawei/iot_link/inc\stimer.h ****  * @param[in]:timer handler,returned by the create function
  94:D:/fchai/work/i-cube/I-CUBE-HUAWEI/Middlewares/Third_Party/Huawei/iot_link/inc\stimer.h ****  *
  95:D:/fchai/work/i-cube/I-CUBE-HUAWEI/Middlewares/Third_Party/Huawei/iot_link/inc\stimer.h ****  * @return:0 success while -1 or others failed
  96:D:/fchai/work/i-cube/I-CUBE-HUAWEI/Middlewares/Third_Party/Huawei/iot_link/inc\stimer.h ****  *
  97:D:/fchai/work/i-cube/I-CUBE-HUAWEI/Middlewares/Third_Party/Huawei/iot_link/inc\stimer.h ****  * */
  98:D:/fchai/work/i-cube/I-CUBE-HUAWEI/Middlewares/Third_Party/Huawei/iot_link/inc\stimer.h **** int32_t       stimer_delete(stimer_t timer);
 150              		.loc 2 98 1 discriminator 3 view .LVU26
  99:D:/fchai/work/i-cube/I-CUBE-HUAWEI/Middlewares/Third_Party/Huawei/iot_link/inc\stimer.h **** 
 100:D:/fchai/work/i-cube/I-CUBE-HUAWEI/Middlewares/Third_Party/Huawei/iot_link/inc\stimer.h **** /**
 101:D:/fchai/work/i-cube/I-CUBE-HUAWEI/Middlewares/Third_Party/Huawei/iot_link/inc\stimer.h ****  * @brief: you could use this function to control the function
 102:D:/fchai/work/i-cube/I-CUBE-HUAWEI/Middlewares/Third_Party/Huawei/iot_link/inc\stimer.h ****  *
 103:D:/fchai/work/i-cube/I-CUBE-HUAWEI/Middlewares/Third_Party/Huawei/iot_link/inc\stimer.h ****  * @param[in]:timer,returned by the create function
 104:D:/fchai/work/i-cube/I-CUBE-HUAWEI/Middlewares/Third_Party/Huawei/iot_link/inc\stimer.h ****  * @param[in]:opt,defined by en_stimer_opt_t, and the arg is corresponding parameters
ARM GAS  T:\msys\tmp\ccjeK7qp.s 			page 7


 105:D:/fchai/work/i-cube/I-CUBE-HUAWEI/Middlewares/Third_Party/Huawei/iot_link/inc\stimer.h ****  * @param[in]:arg, corresponding to the opt
 106:D:/fchai/work/i-cube/I-CUBE-HUAWEI/Middlewares/Third_Party/Huawei/iot_link/inc\stimer.h ****  *
 107:D:/fchai/work/i-cube/I-CUBE-HUAWEI/Middlewares/Third_Party/Huawei/iot_link/inc\stimer.h ****  * @return:0 success while -1 or others failed
 108:D:/fchai/work/i-cube/I-CUBE-HUAWEI/Middlewares/Third_Party/Huawei/iot_link/inc\stimer.h ****  *
 109:D:/fchai/work/i-cube/I-CUBE-HUAWEI/Middlewares/Third_Party/Huawei/iot_link/inc\stimer.h ****  * */
 110:D:/fchai/work/i-cube/I-CUBE-HUAWEI/Middlewares/Third_Party/Huawei/iot_link/inc\stimer.h **** int32_t       stimer_ioctl(stimer_t timer,en_stimer_opt_t opt, void *arg);
 151              		.loc 2 110 1 discriminator 3 view .LVU27
  77:D:/fchai/work/i-cube/I-CUBE-HUAWEI/Middlewares/Third_Party/Huawei/iot_link\link_main.c **** 
  78:D:/fchai/work/i-cube/I-CUBE-HUAWEI/Middlewares/Third_Party/Huawei/iot_link\link_main.c **** #ifdef CONFIG_STIMER_ENABLE
  79:D:/fchai/work/i-cube/I-CUBE-HUAWEI/Middlewares/Third_Party/Huawei/iot_link\link_main.c ****     #include <stimer.h>
  80:D:/fchai/work/i-cube/I-CUBE-HUAWEI/Middlewares/Third_Party/Huawei/iot_link\link_main.c ****     stimer_init();
 152              		.loc 1 80 5 discriminator 3 view .LVU28
 153 001c FFF7FEFF 		bl	stimer_init
 154              	.LVL4:
 155              		.file 3 "D:/fchai/work/i-cube/I-CUBE-HUAWEI/Middlewares/Third_Party/Huawei/iot_link/inc/shell.h"
   1:D:/fchai/work/i-cube/I-CUBE-HUAWEI/Middlewares/Third_Party/Huawei/iot_link/inc\shell.h **** /*----------------------------------------------------------------------------
   2:D:/fchai/work/i-cube/I-CUBE-HUAWEI/Middlewares/Third_Party/Huawei/iot_link/inc\shell.h ****  * Copyright (c) <2018>, <Huawei Technologies Co., Ltd>
   3:D:/fchai/work/i-cube/I-CUBE-HUAWEI/Middlewares/Third_Party/Huawei/iot_link/inc\shell.h ****  * All rights reserved.
   4:D:/fchai/work/i-cube/I-CUBE-HUAWEI/Middlewares/Third_Party/Huawei/iot_link/inc\shell.h ****  * Redistribution and use in source and binary forms, with or without modification,
   5:D:/fchai/work/i-cube/I-CUBE-HUAWEI/Middlewares/Third_Party/Huawei/iot_link/inc\shell.h ****  * are permitted provided that the following conditions are met:
   6:D:/fchai/work/i-cube/I-CUBE-HUAWEI/Middlewares/Third_Party/Huawei/iot_link/inc\shell.h ****  * 1. Redistributions of source code must retain the above copyright notice, this list of
   7:D:/fchai/work/i-cube/I-CUBE-HUAWEI/Middlewares/Third_Party/Huawei/iot_link/inc\shell.h ****  * conditions and the following disclaimer.
   8:D:/fchai/work/i-cube/I-CUBE-HUAWEI/Middlewares/Third_Party/Huawei/iot_link/inc\shell.h ****  * 2. Redistributions in binary form must reproduce the above copyright notice, this list
   9:D:/fchai/work/i-cube/I-CUBE-HUAWEI/Middlewares/Third_Party/Huawei/iot_link/inc\shell.h ****  * of conditions and the following disclaimer in the documentation and/or other materials
  10:D:/fchai/work/i-cube/I-CUBE-HUAWEI/Middlewares/Third_Party/Huawei/iot_link/inc\shell.h ****  * provided with the distribution.
  11:D:/fchai/work/i-cube/I-CUBE-HUAWEI/Middlewares/Third_Party/Huawei/iot_link/inc\shell.h ****  * 3. Neither the name of the copyright holder nor the names of its contributors may be used
  12:D:/fchai/work/i-cube/I-CUBE-HUAWEI/Middlewares/Third_Party/Huawei/iot_link/inc\shell.h ****  * to endorse or promote products derived from this software without specific prior written
  13:D:/fchai/work/i-cube/I-CUBE-HUAWEI/Middlewares/Third_Party/Huawei/iot_link/inc\shell.h ****  * permission.
  14:D:/fchai/work/i-cube/I-CUBE-HUAWEI/Middlewares/Third_Party/Huawei/iot_link/inc\shell.h ****  * THIS SOFTWARE IS PROVIDED BY THE COPYRIGHT HOLDERS AND CONTRIBUTORS
  15:D:/fchai/work/i-cube/I-CUBE-HUAWEI/Middlewares/Third_Party/Huawei/iot_link/inc\shell.h ****  * "AS IS" AND ANY EXPRESS OR IMPLIED WARRANTIES, INCLUDING, BUT NOT LIMITED TO,
  16:D:/fchai/work/i-cube/I-CUBE-HUAWEI/Middlewares/Third_Party/Huawei/iot_link/inc\shell.h ****  * THE IMPLIED WARRANTIES OF MERCHANTABILITY AND FITNESS FOR A PARTICULAR
  17:D:/fchai/work/i-cube/I-CUBE-HUAWEI/Middlewares/Third_Party/Huawei/iot_link/inc\shell.h ****  * PURPOSE ARE DISCLAIMED. IN NO EVENT SHALL THE COPYRIGHT HOLDER OR
  18:D:/fchai/work/i-cube/I-CUBE-HUAWEI/Middlewares/Third_Party/Huawei/iot_link/inc\shell.h ****  * CONTRIBUTORS BE LIABLE FOR ANY DIRECT, INDIRECT, INCIDENTAL, SPECIAL,
  19:D:/fchai/work/i-cube/I-CUBE-HUAWEI/Middlewares/Third_Party/Huawei/iot_link/inc\shell.h ****  * EXEMPLARY, OR CONSEQUENTIAL DAMAGES (INCLUDING, BUT NOT LIMITED TO,
  20:D:/fchai/work/i-cube/I-CUBE-HUAWEI/Middlewares/Third_Party/Huawei/iot_link/inc\shell.h ****  * PROCUREMENT OF SUBSTITUTE GOODS OR SERVICES; LOSS OF USE, DATA, OR PROFITS;
  21:D:/fchai/work/i-cube/I-CUBE-HUAWEI/Middlewares/Third_Party/Huawei/iot_link/inc\shell.h ****  * OR BUSINESS INTERRUPTION) HOWEVER CAUSED AND ON ANY THEORY OF LIABILITY,
  22:D:/fchai/work/i-cube/I-CUBE-HUAWEI/Middlewares/Third_Party/Huawei/iot_link/inc\shell.h ****  * WHETHER IN CONTRACT, STRICT LIABILITY, OR TORT (INCLUDING NEGLIGENCE OR
  23:D:/fchai/work/i-cube/I-CUBE-HUAWEI/Middlewares/Third_Party/Huawei/iot_link/inc\shell.h ****  * OTHERWISE) ARISING IN ANY WAY OUT OF THE USE OF THIS SOFTWARE, EVEN IF
  24:D:/fchai/work/i-cube/I-CUBE-HUAWEI/Middlewares/Third_Party/Huawei/iot_link/inc\shell.h ****  * ADVISED OF THE POSSIBILITY OF SUCH DAMAGE.
  25:D:/fchai/work/i-cube/I-CUBE-HUAWEI/Middlewares/Third_Party/Huawei/iot_link/inc\shell.h ****  *---------------------------------------------------------------------------*/
  26:D:/fchai/work/i-cube/I-CUBE-HUAWEI/Middlewares/Third_Party/Huawei/iot_link/inc\shell.h **** /*----------------------------------------------------------------------------
  27:D:/fchai/work/i-cube/I-CUBE-HUAWEI/Middlewares/Third_Party/Huawei/iot_link/inc\shell.h ****  * Notice of Export Control Law
  28:D:/fchai/work/i-cube/I-CUBE-HUAWEI/Middlewares/Third_Party/Huawei/iot_link/inc\shell.h ****  * ===============================================
  29:D:/fchai/work/i-cube/I-CUBE-HUAWEI/Middlewares/Third_Party/Huawei/iot_link/inc\shell.h ****  * Huawei LiteOS may be subject to applicable export control laws and regulations, which might
  30:D:/fchai/work/i-cube/I-CUBE-HUAWEI/Middlewares/Third_Party/Huawei/iot_link/inc\shell.h ****  * include those applicable to Huawei LiteOS of U.S. and the country in which you are located.
  31:D:/fchai/work/i-cube/I-CUBE-HUAWEI/Middlewares/Third_Party/Huawei/iot_link/inc\shell.h ****  * Import, export and usage of Huawei LiteOS in any manner by you shall be in compliance with such
  32:D:/fchai/work/i-cube/I-CUBE-HUAWEI/Middlewares/Third_Party/Huawei/iot_link/inc\shell.h ****  * applicable export control laws and regulations.
  33:D:/fchai/work/i-cube/I-CUBE-HUAWEI/Middlewares/Third_Party/Huawei/iot_link/inc\shell.h ****  *---------------------------------------------------------------------------*/
  34:D:/fchai/work/i-cube/I-CUBE-HUAWEI/Middlewares/Third_Party/Huawei/iot_link/inc\shell.h **** /**
  35:D:/fchai/work/i-cube/I-CUBE-HUAWEI/Middlewares/Third_Party/Huawei/iot_link/inc\shell.h ****  *  DATE                AUTHOR      INSTRUCTION
  36:D:/fchai/work/i-cube/I-CUBE-HUAWEI/Middlewares/Third_Party/Huawei/iot_link/inc\shell.h ****  *  2019-05-14 17:22  zhangqianfu  The first version
  37:D:/fchai/work/i-cube/I-CUBE-HUAWEI/Middlewares/Third_Party/Huawei/iot_link/inc\shell.h ****  *
  38:D:/fchai/work/i-cube/I-CUBE-HUAWEI/Middlewares/Third_Party/Huawei/iot_link/inc\shell.h ****  */
  39:D:/fchai/work/i-cube/I-CUBE-HUAWEI/Middlewares/Third_Party/Huawei/iot_link/inc\shell.h **** 
  40:D:/fchai/work/i-cube/I-CUBE-HUAWEI/Middlewares/Third_Party/Huawei/iot_link/inc\shell.h **** #ifndef __OSSHELL_H
  41:D:/fchai/work/i-cube/I-CUBE-HUAWEI/Middlewares/Third_Party/Huawei/iot_link/inc\shell.h **** #define __OSSHELL_H
  42:D:/fchai/work/i-cube/I-CUBE-HUAWEI/Middlewares/Third_Party/Huawei/iot_link/inc\shell.h **** 
ARM GAS  T:\msys\tmp\ccjeK7qp.s 			page 8


  43:D:/fchai/work/i-cube/I-CUBE-HUAWEI/Middlewares/Third_Party/Huawei/iot_link/inc\shell.h **** 
  44:D:/fchai/work/i-cube/I-CUBE-HUAWEI/Middlewares/Third_Party/Huawei/iot_link/inc\shell.h **** #include <stdint.h>
  45:D:/fchai/work/i-cube/I-CUBE-HUAWEI/Middlewares/Third_Party/Huawei/iot_link/inc\shell.h **** #include <stddef.h>
  46:D:/fchai/work/i-cube/I-CUBE-HUAWEI/Middlewares/Third_Party/Huawei/iot_link/inc\shell.h **** #include <link_log.h>
  47:D:/fchai/work/i-cube/I-CUBE-HUAWEI/Middlewares/Third_Party/Huawei/iot_link/inc\shell.h **** 
  48:D:/fchai/work/i-cube/I-CUBE-HUAWEI/Middlewares/Third_Party/Huawei/iot_link/inc\shell.h **** #if CONFIG_SHELL_ENABLE
  49:D:/fchai/work/i-cube/I-CUBE-HUAWEI/Middlewares/Third_Party/Huawei/iot_link/inc\shell.h **** 
  50:D:/fchai/work/i-cube/I-CUBE-HUAWEI/Middlewares/Third_Party/Huawei/iot_link/inc\shell.h **** //this is a shell module designed for the os
  51:D:/fchai/work/i-cube/I-CUBE-HUAWEI/Middlewares/Third_Party/Huawei/iot_link/inc\shell.h **** //this is a shell type,maybe a command or the data variables
  52:D:/fchai/work/i-cube/I-CUBE-HUAWEI/Middlewares/Third_Party/Huawei/iot_link/inc\shell.h **** enum en_os_shell_type
 156              		.loc 3 52 1 discriminator 3 view .LVU29
  53:D:/fchai/work/i-cube/I-CUBE-HUAWEI/Middlewares/Third_Party/Huawei/iot_link/inc\shell.h **** {
  54:D:/fchai/work/i-cube/I-CUBE-HUAWEI/Middlewares/Third_Party/Huawei/iot_link/inc\shell.h **** 	EN_OSSHELL_CMD = 0,
  55:D:/fchai/work/i-cube/I-CUBE-HUAWEI/Middlewares/Third_Party/Huawei/iot_link/inc\shell.h **** 	EN_OSSHELL_VAR,       //up till now, we only support 4 bytes
  56:D:/fchai/work/i-cube/I-CUBE-HUAWEI/Middlewares/Third_Party/Huawei/iot_link/inc\shell.h **** 	EN_OSSHELL_LAST,
  57:D:/fchai/work/i-cube/I-CUBE-HUAWEI/Middlewares/Third_Party/Huawei/iot_link/inc\shell.h **** };
  58:D:/fchai/work/i-cube/I-CUBE-HUAWEI/Middlewares/Third_Party/Huawei/iot_link/inc\shell.h **** 
  59:D:/fchai/work/i-cube/I-CUBE-HUAWEI/Middlewares/Third_Party/Huawei/iot_link/inc\shell.h **** #define BUILD_VAR_NAME(A,B)         A##B
  60:D:/fchai/work/i-cube/I-CUBE-HUAWEI/Middlewares/Third_Party/Huawei/iot_link/inc\shell.h **** #define  MAX_TAB_MATCHES			16
  61:D:/fchai/work/i-cube/I-CUBE-HUAWEI/Middlewares/Third_Party/Huawei/iot_link/inc\shell.h **** struct shell_tab_matches
 157              		.loc 3 61 1 discriminator 3 view .LVU30
  62:D:/fchai/work/i-cube/I-CUBE-HUAWEI/Middlewares/Third_Party/Huawei/iot_link/inc\shell.h **** {
  63:D:/fchai/work/i-cube/I-CUBE-HUAWEI/Middlewares/Third_Party/Huawei/iot_link/inc\shell.h **** 	const char *matches[MAX_TAB_MATCHES];
  64:D:/fchai/work/i-cube/I-CUBE-HUAWEI/Middlewares/Third_Party/Huawei/iot_link/inc\shell.h **** 	unsigned short len;
  65:D:/fchai/work/i-cube/I-CUBE-HUAWEI/Middlewares/Third_Party/Huawei/iot_link/inc\shell.h **** };
  66:D:/fchai/work/i-cube/I-CUBE-HUAWEI/Middlewares/Third_Party/Huawei/iot_link/inc\shell.h **** 
  67:D:/fchai/work/i-cube/I-CUBE-HUAWEI/Middlewares/Third_Party/Huawei/iot_link/inc\shell.h **** //this is the shell function module.the register function must have the same type
  68:D:/fchai/work/i-cube/I-CUBE-HUAWEI/Middlewares/Third_Party/Huawei/iot_link/inc\shell.h **** //uptils now, we don't care the return value
  69:D:/fchai/work/i-cube/I-CUBE-HUAWEI/Middlewares/Third_Party/Huawei/iot_link/inc\shell.h **** struct shell_item_t
 158              		.loc 3 69 1 discriminator 3 view .LVU31
  70:D:/fchai/work/i-cube/I-CUBE-HUAWEI/Middlewares/Third_Party/Huawei/iot_link/inc\shell.h **** {
  71:D:/fchai/work/i-cube/I-CUBE-HUAWEI/Middlewares/Third_Party/Huawei/iot_link/inc\shell.h **** 	const char     *name;   //point to the shell name string
  72:D:/fchai/work/i-cube/I-CUBE-HUAWEI/Middlewares/Third_Party/Huawei/iot_link/inc\shell.h **** 	const char     *help;   //point to the shell description string
  73:D:/fchai/work/i-cube/I-CUBE-HUAWEI/Middlewares/Third_Party/Huawei/iot_link/inc\shell.h **** 	void           *addr;   //point to the shell function or the shell data
  74:D:/fchai/work/i-cube/I-CUBE-HUAWEI/Middlewares/Third_Party/Huawei/iot_link/inc\shell.h **** 	unsigned short  type;   //used to  point the shell type:command or a data
  75:D:/fchai/work/i-cube/I-CUBE-HUAWEI/Middlewares/Third_Party/Huawei/iot_link/inc\shell.h **** 	unsigned short  len;    //used to  point the shell command or data length
  76:D:/fchai/work/i-cube/I-CUBE-HUAWEI/Middlewares/Third_Party/Huawei/iot_link/inc\shell.h **** };
  77:D:/fchai/work/i-cube/I-CUBE-HUAWEI/Middlewares/Third_Party/Huawei/iot_link/inc\shell.h **** //this define will create  a shell command with the specified cmdname
  78:D:/fchai/work/i-cube/I-CUBE-HUAWEI/Middlewares/Third_Party/Huawei/iot_link/inc\shell.h **** #define OSSHELL_EXPORT_CMD(cmdentry,cmdname,cmdhelp)      \
  79:D:/fchai/work/i-cube/I-CUBE-HUAWEI/Middlewares/Third_Party/Huawei/iot_link/inc\shell.h ****     static const struct shell_item_t BUILD_VAR_NAME(__oshell_,cmdentry) __attribute__((used,section
  80:D:/fchai/work/i-cube/I-CUBE-HUAWEI/Middlewares/Third_Party/Huawei/iot_link/inc\shell.h ****     {                           \
  81:D:/fchai/work/i-cube/I-CUBE-HUAWEI/Middlewares/Third_Party/Huawei/iot_link/inc\shell.h ****         .name=cmdname,    \
  82:D:/fchai/work/i-cube/I-CUBE-HUAWEI/Middlewares/Third_Party/Huawei/iot_link/inc\shell.h ****         .help=cmdhelp,    \
  83:D:/fchai/work/i-cube/I-CUBE-HUAWEI/Middlewares/Third_Party/Huawei/iot_link/inc\shell.h ****         .addr=(void *)&cmdentry,              \
  84:D:/fchai/work/i-cube/I-CUBE-HUAWEI/Middlewares/Third_Party/Huawei/iot_link/inc\shell.h **** 		.type=EN_OSSHELL_CMD,           \
  85:D:/fchai/work/i-cube/I-CUBE-HUAWEI/Middlewares/Third_Party/Huawei/iot_link/inc\shell.h **** 		.len = sizeof(void *),             \
  86:D:/fchai/work/i-cube/I-CUBE-HUAWEI/Middlewares/Third_Party/Huawei/iot_link/inc\shell.h ****     }
  87:D:/fchai/work/i-cube/I-CUBE-HUAWEI/Middlewares/Third_Party/Huawei/iot_link/inc\shell.h **** //this define will create  a create a shell data with the specified name
  88:D:/fchai/work/i-cube/I-CUBE-HUAWEI/Middlewares/Third_Party/Huawei/iot_link/inc\shell.h **** #define OSSHELL_EXPORT_VAR(var,varname,varhelp)      \
  89:D:/fchai/work/i-cube/I-CUBE-HUAWEI/Middlewares/Third_Party/Huawei/iot_link/inc\shell.h ****     static const struct shell_item_t BUILD_VAR_NAME(__oshell_,var) __attribute__((used,section("osh
  90:D:/fchai/work/i-cube/I-CUBE-HUAWEI/Middlewares/Third_Party/Huawei/iot_link/inc\shell.h ****     {                           \
  91:D:/fchai/work/i-cube/I-CUBE-HUAWEI/Middlewares/Third_Party/Huawei/iot_link/inc\shell.h ****         .name=varname,    \
  92:D:/fchai/work/i-cube/I-CUBE-HUAWEI/Middlewares/Third_Party/Huawei/iot_link/inc\shell.h ****         .help=varhelp,    \
  93:D:/fchai/work/i-cube/I-CUBE-HUAWEI/Middlewares/Third_Party/Huawei/iot_link/inc\shell.h ****         .addr=(void *)&var,              \
  94:D:/fchai/work/i-cube/I-CUBE-HUAWEI/Middlewares/Third_Party/Huawei/iot_link/inc\shell.h **** 		.type=EN_OSSHELL_VAR,                   \
  95:D:/fchai/work/i-cube/I-CUBE-HUAWEI/Middlewares/Third_Party/Huawei/iot_link/inc\shell.h **** 		.len =sizeof(var),               \
  96:D:/fchai/work/i-cube/I-CUBE-HUAWEI/Middlewares/Third_Party/Huawei/iot_link/inc\shell.h ****     }
ARM GAS  T:\msys\tmp\ccjeK7qp.s 			page 9


  97:D:/fchai/work/i-cube/I-CUBE-HUAWEI/Middlewares/Third_Party/Huawei/iot_link/inc\shell.h ****     
  98:D:/fchai/work/i-cube/I-CUBE-HUAWEI/Middlewares/Third_Party/Huawei/iot_link/inc\shell.h **** void shell_init(void);
 159              		.loc 3 98 1 discriminator 3 view .LVU32
  81:D:/fchai/work/i-cube/I-CUBE-HUAWEI/Middlewares/Third_Party/Huawei/iot_link\link_main.c **** #endif
  82:D:/fchai/work/i-cube/I-CUBE-HUAWEI/Middlewares/Third_Party/Huawei/iot_link\link_main.c **** 
  83:D:/fchai/work/i-cube/I-CUBE-HUAWEI/Middlewares/Third_Party/Huawei/iot_link\link_main.c **** #ifdef CONFIG_SHELL_ENABLE
  84:D:/fchai/work/i-cube/I-CUBE-HUAWEI/Middlewares/Third_Party/Huawei/iot_link\link_main.c ****     #include <shell.h>
  85:D:/fchai/work/i-cube/I-CUBE-HUAWEI/Middlewares/Third_Party/Huawei/iot_link\link_main.c ****     shell_init();
 160              		.loc 1 85 5 discriminator 3 view .LVU33
 161 0020 FFF7FEFF 		bl	shell_init
 162              	.LVL5:
 163              		.file 4 "D:/fchai/work/i-cube/I-CUBE-HUAWEI/Middlewares/Third_Party/Huawei/iot_link/link_ota/ota_i
   1:D:/fchai/work/i-cube/I-CUBE-HUAWEI/Middlewares/Third_Party/Huawei/iot_link/link_ota\ota_init.h **** /*----------------------------------------------------------------------------
   2:D:/fchai/work/i-cube/I-CUBE-HUAWEI/Middlewares/Third_Party/Huawei/iot_link/link_ota\ota_init.h ****  * Copyright (c) <2018>, <Huawei Technologies Co., Ltd>
   3:D:/fchai/work/i-cube/I-CUBE-HUAWEI/Middlewares/Third_Party/Huawei/iot_link/link_ota\ota_init.h ****  * All rights reserved.
   4:D:/fchai/work/i-cube/I-CUBE-HUAWEI/Middlewares/Third_Party/Huawei/iot_link/link_ota\ota_init.h ****  * Redistribution and use in source and binary forms, with or without modification,
   5:D:/fchai/work/i-cube/I-CUBE-HUAWEI/Middlewares/Third_Party/Huawei/iot_link/link_ota\ota_init.h ****  * are permitted provided that the following conditions are met:
   6:D:/fchai/work/i-cube/I-CUBE-HUAWEI/Middlewares/Third_Party/Huawei/iot_link/link_ota\ota_init.h ****  * 1. Redistributions of source code must retain the above copyright notice, this list of
   7:D:/fchai/work/i-cube/I-CUBE-HUAWEI/Middlewares/Third_Party/Huawei/iot_link/link_ota\ota_init.h ****  * conditions and the following disclaimer.
   8:D:/fchai/work/i-cube/I-CUBE-HUAWEI/Middlewares/Third_Party/Huawei/iot_link/link_ota\ota_init.h ****  * 2. Redistributions in binary form must reproduce the above copyright notice, this list
   9:D:/fchai/work/i-cube/I-CUBE-HUAWEI/Middlewares/Third_Party/Huawei/iot_link/link_ota\ota_init.h ****  * of conditions and the following disclaimer in the documentation and/or other materials
  10:D:/fchai/work/i-cube/I-CUBE-HUAWEI/Middlewares/Third_Party/Huawei/iot_link/link_ota\ota_init.h ****  * provided with the distribution.
  11:D:/fchai/work/i-cube/I-CUBE-HUAWEI/Middlewares/Third_Party/Huawei/iot_link/link_ota\ota_init.h ****  * 3. Neither the name of the copyright holder nor the names of its contributors may be used
  12:D:/fchai/work/i-cube/I-CUBE-HUAWEI/Middlewares/Third_Party/Huawei/iot_link/link_ota\ota_init.h ****  * to endorse or promote products derived from this software without specific prior written
  13:D:/fchai/work/i-cube/I-CUBE-HUAWEI/Middlewares/Third_Party/Huawei/iot_link/link_ota\ota_init.h ****  * permission.
  14:D:/fchai/work/i-cube/I-CUBE-HUAWEI/Middlewares/Third_Party/Huawei/iot_link/link_ota\ota_init.h ****  * THIS SOFTWARE IS PROVIDED BY THE COPYRIGHT HOLDERS AND CONTRIBUTORS
  15:D:/fchai/work/i-cube/I-CUBE-HUAWEI/Middlewares/Third_Party/Huawei/iot_link/link_ota\ota_init.h ****  * "AS IS" AND ANY EXPRESS OR IMPLIED WARRANTIES, INCLUDING, BUT NOT LIMITED TO,
  16:D:/fchai/work/i-cube/I-CUBE-HUAWEI/Middlewares/Third_Party/Huawei/iot_link/link_ota\ota_init.h ****  * THE IMPLIED WARRANTIES OF MERCHANTABILITY AND FITNESS FOR A PARTICULAR
  17:D:/fchai/work/i-cube/I-CUBE-HUAWEI/Middlewares/Third_Party/Huawei/iot_link/link_ota\ota_init.h ****  * PURPOSE ARE DISCLAIMED. IN NO EVENT SHALL THE COPYRIGHT HOLDER OR
  18:D:/fchai/work/i-cube/I-CUBE-HUAWEI/Middlewares/Third_Party/Huawei/iot_link/link_ota\ota_init.h ****  * CONTRIBUTORS BE LIABLE FOR ANY DIRECT, INDIRECT, INCIDENTAL, SPECIAL,
  19:D:/fchai/work/i-cube/I-CUBE-HUAWEI/Middlewares/Third_Party/Huawei/iot_link/link_ota\ota_init.h ****  * EXEMPLARY, OR CONSEQUENTIAL DAMAGES (INCLUDING, BUT NOT LIMITED TO,
  20:D:/fchai/work/i-cube/I-CUBE-HUAWEI/Middlewares/Third_Party/Huawei/iot_link/link_ota\ota_init.h ****  * PROCUREMENT OF SUBSTITUTE GOODS OR SERVICES; LOSS OF USE, DATA, OR PROFITS;
  21:D:/fchai/work/i-cube/I-CUBE-HUAWEI/Middlewares/Third_Party/Huawei/iot_link/link_ota\ota_init.h ****  * OR BUSINESS INTERRUPTION) HOWEVER CAUSED AND ON ANY THEORY OF LIABILITY,
  22:D:/fchai/work/i-cube/I-CUBE-HUAWEI/Middlewares/Third_Party/Huawei/iot_link/link_ota\ota_init.h ****  * WHETHER IN CONTRACT, STRICT LIABILITY, OR TORT (INCLUDING NEGLIGENCE OR
  23:D:/fchai/work/i-cube/I-CUBE-HUAWEI/Middlewares/Third_Party/Huawei/iot_link/link_ota\ota_init.h ****  * OTHERWISE) ARISING IN ANY WAY OUT OF THE USE OF THIS SOFTWARE, EVEN IF
  24:D:/fchai/work/i-cube/I-CUBE-HUAWEI/Middlewares/Third_Party/Huawei/iot_link/link_ota\ota_init.h ****  * ADVISED OF THE POSSIBILITY OF SUCH DAMAGE.
  25:D:/fchai/work/i-cube/I-CUBE-HUAWEI/Middlewares/Third_Party/Huawei/iot_link/link_ota\ota_init.h ****  *---------------------------------------------------------------------------*/
  26:D:/fchai/work/i-cube/I-CUBE-HUAWEI/Middlewares/Third_Party/Huawei/iot_link/link_ota\ota_init.h **** /*----------------------------------------------------------------------------
  27:D:/fchai/work/i-cube/I-CUBE-HUAWEI/Middlewares/Third_Party/Huawei/iot_link/link_ota\ota_init.h ****  * Notice of Export Control Law
  28:D:/fchai/work/i-cube/I-CUBE-HUAWEI/Middlewares/Third_Party/Huawei/iot_link/link_ota\ota_init.h ****  * ===============================================
  29:D:/fchai/work/i-cube/I-CUBE-HUAWEI/Middlewares/Third_Party/Huawei/iot_link/link_ota\ota_init.h ****  * Huawei LiteOS may be subject to applicable export control laws and regulations, which might
  30:D:/fchai/work/i-cube/I-CUBE-HUAWEI/Middlewares/Third_Party/Huawei/iot_link/link_ota\ota_init.h ****  * include those applicable to Huawei LiteOS of U.S. and the country in which you are located.
  31:D:/fchai/work/i-cube/I-CUBE-HUAWEI/Middlewares/Third_Party/Huawei/iot_link/link_ota\ota_init.h ****  * Import, export and usage of Huawei LiteOS in any manner by you shall be in compliance with such
  32:D:/fchai/work/i-cube/I-CUBE-HUAWEI/Middlewares/Third_Party/Huawei/iot_link/link_ota\ota_init.h ****  * applicable export control laws and regulations.
  33:D:/fchai/work/i-cube/I-CUBE-HUAWEI/Middlewares/Third_Party/Huawei/iot_link/link_ota\ota_init.h ****  *---------------------------------------------------------------------------*/
  34:D:/fchai/work/i-cube/I-CUBE-HUAWEI/Middlewares/Third_Party/Huawei/iot_link/link_ota\ota_init.h **** /**
  35:D:/fchai/work/i-cube/I-CUBE-HUAWEI/Middlewares/Third_Party/Huawei/iot_link/link_ota\ota_init.h ****  *  DATE                AUTHOR      INSTRUCTION
  36:D:/fchai/work/i-cube/I-CUBE-HUAWEI/Middlewares/Third_Party/Huawei/iot_link/link_ota\ota_init.h ****  *  2020-05-14 17:17  zhangqianfu  The first version
  37:D:/fchai/work/i-cube/I-CUBE-HUAWEI/Middlewares/Third_Party/Huawei/iot_link/link_ota\ota_init.h ****  *
  38:D:/fchai/work/i-cube/I-CUBE-HUAWEI/Middlewares/Third_Party/Huawei/iot_link/link_ota\ota_init.h ****  */
  39:D:/fchai/work/i-cube/I-CUBE-HUAWEI/Middlewares/Third_Party/Huawei/iot_link/link_ota\ota_init.h **** #ifndef LITEOS_LAB_IOT_LINK_LINK_OTA_OTA_H_
  40:D:/fchai/work/i-cube/I-CUBE-HUAWEI/Middlewares/Third_Party/Huawei/iot_link/link_ota\ota_init.h **** #define LITEOS_LAB_IOT_LINK_LINK_OTA_OTA_H_
  41:D:/fchai/work/i-cube/I-CUBE-HUAWEI/Middlewares/Third_Party/Huawei/iot_link/link_ota\ota_init.h **** 
  42:D:/fchai/work/i-cube/I-CUBE-HUAWEI/Middlewares/Third_Party/Huawei/iot_link/link_ota\ota_init.h **** int ota_init(void);
 164              		.loc 4 42 1 discriminator 3 view .LVU34
  86:D:/fchai/work/i-cube/I-CUBE-HUAWEI/Middlewares/Third_Party/Huawei/iot_link\link_main.c **** #endif
  87:D:/fchai/work/i-cube/I-CUBE-HUAWEI/Middlewares/Third_Party/Huawei/iot_link\link_main.c **** 
ARM GAS  T:\msys\tmp\ccjeK7qp.s 			page 10


  88:D:/fchai/work/i-cube/I-CUBE-HUAWEI/Middlewares/Third_Party/Huawei/iot_link\link_main.c ****     /* add loader code here */
  89:D:/fchai/work/i-cube/I-CUBE-HUAWEI/Middlewares/Third_Party/Huawei/iot_link\link_main.c **** #ifdef CONFIG_OTA_ENABLE
  90:D:/fchai/work/i-cube/I-CUBE-HUAWEI/Middlewares/Third_Party/Huawei/iot_link\link_main.c ****     #include <ota_init.h>
  91:D:/fchai/work/i-cube/I-CUBE-HUAWEI/Middlewares/Third_Party/Huawei/iot_link\link_main.c ****     ota_init();
 165              		.loc 1 91 5 discriminator 3 view .LVU35
 166 0024 FFF7FEFF 		bl	ota_init
 167              	.LVL6:
 168              		.file 5 "D:/fchai/work/i-cube/I-CUBE-HUAWEI/Middlewares/Third_Party/Huawei/iot_link/driver/driver.
   1:D:/fchai/work/i-cube/I-CUBE-HUAWEI/Middlewares/Third_Party/Huawei/iot_link/driver\driver.h **** /*----------------------------------------------------------------------------
   2:D:/fchai/work/i-cube/I-CUBE-HUAWEI/Middlewares/Third_Party/Huawei/iot_link/driver\driver.h ****  * Copyright (c) <2018>, <Huawei Technologies Co., Ltd>
   3:D:/fchai/work/i-cube/I-CUBE-HUAWEI/Middlewares/Third_Party/Huawei/iot_link/driver\driver.h ****  * All rights reserved.
   4:D:/fchai/work/i-cube/I-CUBE-HUAWEI/Middlewares/Third_Party/Huawei/iot_link/driver\driver.h ****  * Redistribution and use in source and binary forms, with or without modification,
   5:D:/fchai/work/i-cube/I-CUBE-HUAWEI/Middlewares/Third_Party/Huawei/iot_link/driver\driver.h ****  * are permitted provided that the following conditions are met:
   6:D:/fchai/work/i-cube/I-CUBE-HUAWEI/Middlewares/Third_Party/Huawei/iot_link/driver\driver.h ****  * 1. Redistributions of source code must retain the above copyright notice, this list of
   7:D:/fchai/work/i-cube/I-CUBE-HUAWEI/Middlewares/Third_Party/Huawei/iot_link/driver\driver.h ****  * conditions and the following disclaimer.
   8:D:/fchai/work/i-cube/I-CUBE-HUAWEI/Middlewares/Third_Party/Huawei/iot_link/driver\driver.h ****  * 2. Redistributions in binary form must reproduce the above copyright notice, this list
   9:D:/fchai/work/i-cube/I-CUBE-HUAWEI/Middlewares/Third_Party/Huawei/iot_link/driver\driver.h ****  * of conditions and the following disclaimer in the documentation and/or other materials
  10:D:/fchai/work/i-cube/I-CUBE-HUAWEI/Middlewares/Third_Party/Huawei/iot_link/driver\driver.h ****  * provided with the distribution.
  11:D:/fchai/work/i-cube/I-CUBE-HUAWEI/Middlewares/Third_Party/Huawei/iot_link/driver\driver.h ****  * 3. Neither the name of the copyright holder nor the names of its contributors may be used
  12:D:/fchai/work/i-cube/I-CUBE-HUAWEI/Middlewares/Third_Party/Huawei/iot_link/driver\driver.h ****  * to endorse or promote products derived from this software without specific prior written
  13:D:/fchai/work/i-cube/I-CUBE-HUAWEI/Middlewares/Third_Party/Huawei/iot_link/driver\driver.h ****  * permission.
  14:D:/fchai/work/i-cube/I-CUBE-HUAWEI/Middlewares/Third_Party/Huawei/iot_link/driver\driver.h ****  * THIS SOFTWARE IS PROVIDED BY THE COPYRIGHT HOLDERS AND CONTRIBUTORS
  15:D:/fchai/work/i-cube/I-CUBE-HUAWEI/Middlewares/Third_Party/Huawei/iot_link/driver\driver.h ****  * "AS IS" AND ANY EXPRESS OR IMPLIED WARRANTIES, INCLUDING, BUT NOT LIMITED TO,
  16:D:/fchai/work/i-cube/I-CUBE-HUAWEI/Middlewares/Third_Party/Huawei/iot_link/driver\driver.h ****  * THE IMPLIED WARRANTIES OF MERCHANTABILITY AND FITNESS FOR A PARTICULAR
  17:D:/fchai/work/i-cube/I-CUBE-HUAWEI/Middlewares/Third_Party/Huawei/iot_link/driver\driver.h ****  * PURPOSE ARE DISCLAIMED. IN NO EVENT SHALL THE COPYRIGHT HOLDER OR
  18:D:/fchai/work/i-cube/I-CUBE-HUAWEI/Middlewares/Third_Party/Huawei/iot_link/driver\driver.h ****  * CONTRIBUTORS BE LIABLE FOR ANY DIRECT, INDIRECT, INCIDENTAL, SPECIAL,
  19:D:/fchai/work/i-cube/I-CUBE-HUAWEI/Middlewares/Third_Party/Huawei/iot_link/driver\driver.h ****  * EXEMPLARY, OR CONSEQUENTIAL DAMAGES (INCLUDING, BUT NOT LIMITED TO,
  20:D:/fchai/work/i-cube/I-CUBE-HUAWEI/Middlewares/Third_Party/Huawei/iot_link/driver\driver.h ****  * PROCUREMENT OF SUBSTITUTE GOODS OR SERVICES; LOSS OF USE, DATA, OR PROFITS;
  21:D:/fchai/work/i-cube/I-CUBE-HUAWEI/Middlewares/Third_Party/Huawei/iot_link/driver\driver.h ****  * OR BUSINESS INTERRUPTION) HOWEVER CAUSED AND ON ANY THEORY OF LIABILITY,
  22:D:/fchai/work/i-cube/I-CUBE-HUAWEI/Middlewares/Third_Party/Huawei/iot_link/driver\driver.h ****  * WHETHER IN CONTRACT, STRICT LIABILITY, OR TORT (INCLUDING NEGLIGENCE OR
  23:D:/fchai/work/i-cube/I-CUBE-HUAWEI/Middlewares/Third_Party/Huawei/iot_link/driver\driver.h ****  * OTHERWISE) ARISING IN ANY WAY OUT OF THE USE OF THIS SOFTWARE, EVEN IF
  24:D:/fchai/work/i-cube/I-CUBE-HUAWEI/Middlewares/Third_Party/Huawei/iot_link/driver\driver.h ****  * ADVISED OF THE POSSIBILITY OF SUCH DAMAGE.
  25:D:/fchai/work/i-cube/I-CUBE-HUAWEI/Middlewares/Third_Party/Huawei/iot_link/driver\driver.h ****  *---------------------------------------------------------------------------*/
  26:D:/fchai/work/i-cube/I-CUBE-HUAWEI/Middlewares/Third_Party/Huawei/iot_link/driver\driver.h **** /*----------------------------------------------------------------------------
  27:D:/fchai/work/i-cube/I-CUBE-HUAWEI/Middlewares/Third_Party/Huawei/iot_link/driver\driver.h ****  * Notice of Export Control Law
  28:D:/fchai/work/i-cube/I-CUBE-HUAWEI/Middlewares/Third_Party/Huawei/iot_link/driver\driver.h ****  * ===============================================
  29:D:/fchai/work/i-cube/I-CUBE-HUAWEI/Middlewares/Third_Party/Huawei/iot_link/driver\driver.h ****  * Huawei LiteOS may be subject to applicable export control laws and regulations, which might
  30:D:/fchai/work/i-cube/I-CUBE-HUAWEI/Middlewares/Third_Party/Huawei/iot_link/driver\driver.h ****  * include those applicable to Huawei LiteOS of U.S. and the country in which you are located.
  31:D:/fchai/work/i-cube/I-CUBE-HUAWEI/Middlewares/Third_Party/Huawei/iot_link/driver\driver.h ****  * Import, export and usage of Huawei LiteOS in any manner by you shall be in compliance with such
  32:D:/fchai/work/i-cube/I-CUBE-HUAWEI/Middlewares/Third_Party/Huawei/iot_link/driver\driver.h ****  * applicable export control laws and regulations.
  33:D:/fchai/work/i-cube/I-CUBE-HUAWEI/Middlewares/Third_Party/Huawei/iot_link/driver\driver.h ****  *---------------------------------------------------------------------------*/
  34:D:/fchai/work/i-cube/I-CUBE-HUAWEI/Middlewares/Third_Party/Huawei/iot_link/driver\driver.h **** /**
  35:D:/fchai/work/i-cube/I-CUBE-HUAWEI/Middlewares/Third_Party/Huawei/iot_link/driver\driver.h ****  *  DATE                AUTHOR      INSTRUCTION
  36:D:/fchai/work/i-cube/I-CUBE-HUAWEI/Middlewares/Third_Party/Huawei/iot_link/driver\driver.h ****  *  2019-05-14 09:34  zhangqianfu  The first version  
  37:D:/fchai/work/i-cube/I-CUBE-HUAWEI/Middlewares/Third_Party/Huawei/iot_link/driver\driver.h ****  *
  38:D:/fchai/work/i-cube/I-CUBE-HUAWEI/Middlewares/Third_Party/Huawei/iot_link/driver\driver.h ****  */
  39:D:/fchai/work/i-cube/I-CUBE-HUAWEI/Middlewares/Third_Party/Huawei/iot_link/driver\driver.h **** #ifndef LITEOS_LAB_IOT_LINK_DRIVER_DRIVER_H_
  40:D:/fchai/work/i-cube/I-CUBE-HUAWEI/Middlewares/Third_Party/Huawei/iot_link/driver\driver.h **** #define LITEOS_LAB_IOT_LINK_DRIVER_DRIVER_H_
  41:D:/fchai/work/i-cube/I-CUBE-HUAWEI/Middlewares/Third_Party/Huawei/iot_link/driver\driver.h **** 
  42:D:/fchai/work/i-cube/I-CUBE-HUAWEI/Middlewares/Third_Party/Huawei/iot_link/driver\driver.h **** #ifdef __KEIL__
  43:D:/fchai/work/i-cube/I-CUBE-HUAWEI/Middlewares/Third_Party/Huawei/iot_link/driver\driver.h **** typedef int ssize_t;
  44:D:/fchai/work/i-cube/I-CUBE-HUAWEI/Middlewares/Third_Party/Huawei/iot_link/driver\driver.h **** typedef int off_t;
  45:D:/fchai/work/i-cube/I-CUBE-HUAWEI/Middlewares/Third_Party/Huawei/iot_link/driver\driver.h **** #else
  46:D:/fchai/work/i-cube/I-CUBE-HUAWEI/Middlewares/Third_Party/Huawei/iot_link/driver\driver.h **** #include <sys/types.h>
  47:D:/fchai/work/i-cube/I-CUBE-HUAWEI/Middlewares/Third_Party/Huawei/iot_link/driver\driver.h **** #endif
  48:D:/fchai/work/i-cube/I-CUBE-HUAWEI/Middlewares/Third_Party/Huawei/iot_link/driver\driver.h **** 
  49:D:/fchai/work/i-cube/I-CUBE-HUAWEI/Middlewares/Third_Party/Huawei/iot_link/driver\driver.h **** #include <osal.h>
ARM GAS  T:\msys\tmp\ccjeK7qp.s 			page 11


  50:D:/fchai/work/i-cube/I-CUBE-HUAWEI/Middlewares/Third_Party/Huawei/iot_link/driver\driver.h **** 
  51:D:/fchai/work/i-cube/I-CUBE-HUAWEI/Middlewares/Third_Party/Huawei/iot_link/driver\driver.h **** 
  52:D:/fchai/work/i-cube/I-CUBE-HUAWEI/Middlewares/Third_Party/Huawei/iot_link/driver\driver.h **** typedef void* los_driv_t ;//returned by the driver register
 169              		.loc 5 52 1 discriminator 3 view .LVU36
  53:D:/fchai/work/i-cube/I-CUBE-HUAWEI/Middlewares/Third_Party/Huawei/iot_link/driver\driver.h **** typedef bool_t (*fn_devopen)  (void *pri,int flag);
 170              		.loc 5 53 1 discriminator 3 view .LVU37
  54:D:/fchai/work/i-cube/I-CUBE-HUAWEI/Middlewares/Third_Party/Huawei/iot_link/driver\driver.h **** typedef ssize_t (*fn_devread)  (void *pri,size_t offset,void *buf,size_t len,uint32_t timeout);
 171              		.loc 5 54 1 discriminator 3 view .LVU38
  55:D:/fchai/work/i-cube/I-CUBE-HUAWEI/Middlewares/Third_Party/Huawei/iot_link/driver\driver.h **** typedef ssize_t (*fn_devwrite) (void *pri,size_t offset,const void *buf,size_t len,uint32_t timeout
 172              		.loc 5 55 1 discriminator 3 view .LVU39
  56:D:/fchai/work/i-cube/I-CUBE-HUAWEI/Middlewares/Third_Party/Huawei/iot_link/driver\driver.h **** typedef void   (*fn_devclose) (void *pri);
 173              		.loc 5 56 1 discriminator 3 view .LVU40
  57:D:/fchai/work/i-cube/I-CUBE-HUAWEI/Middlewares/Third_Party/Huawei/iot_link/driver\driver.h **** typedef bool_t (*fn_devioctl) (void *pri,unsigned int cmd, void *para,int len);
 174              		.loc 5 57 1 discriminator 3 view .LVU41
  58:D:/fchai/work/i-cube/I-CUBE-HUAWEI/Middlewares/Third_Party/Huawei/iot_link/driver\driver.h **** typedef bool_t (*fn_devinit)  (void *pri);
 175              		.loc 5 58 1 discriminator 3 view .LVU42
  59:D:/fchai/work/i-cube/I-CUBE-HUAWEI/Middlewares/Third_Party/Huawei/iot_link/driver\driver.h **** typedef void   (*fn_devdeinit)(void *pri);
 176              		.loc 5 59 1 discriminator 3 view .LVU43
  60:D:/fchai/work/i-cube/I-CUBE-HUAWEI/Middlewares/Third_Party/Huawei/iot_link/driver\driver.h **** typedef off_t  (*fn_devseek) (void *pri,off_t offset,int fromwhere);
 177              		.loc 5 60 1 discriminator 3 view .LVU44
  61:D:/fchai/work/i-cube/I-CUBE-HUAWEI/Middlewares/Third_Party/Huawei/iot_link/driver\driver.h **** //all the member function of pri is inherited by the register function
  62:D:/fchai/work/i-cube/I-CUBE-HUAWEI/Middlewares/Third_Party/Huawei/iot_link/driver\driver.h **** typedef struct
 178              		.loc 5 62 1 discriminator 3 view .LVU45
  63:D:/fchai/work/i-cube/I-CUBE-HUAWEI/Middlewares/Third_Party/Huawei/iot_link/driver\driver.h **** {
  64:D:/fchai/work/i-cube/I-CUBE-HUAWEI/Middlewares/Third_Party/Huawei/iot_link/driver\driver.h ****     fn_devopen    open;   //triggered by the application
  65:D:/fchai/work/i-cube/I-CUBE-HUAWEI/Middlewares/Third_Party/Huawei/iot_link/driver\driver.h ****     fn_devread    read;   //triggered by the application
  66:D:/fchai/work/i-cube/I-CUBE-HUAWEI/Middlewares/Third_Party/Huawei/iot_link/driver\driver.h ****     fn_devwrite   write;  //triggered by the application
  67:D:/fchai/work/i-cube/I-CUBE-HUAWEI/Middlewares/Third_Party/Huawei/iot_link/driver\driver.h ****     fn_devclose   close;  //triggered by the application
  68:D:/fchai/work/i-cube/I-CUBE-HUAWEI/Middlewares/Third_Party/Huawei/iot_link/driver\driver.h ****     fn_devioctl   ioctl;  //triggered by the application
  69:D:/fchai/work/i-cube/I-CUBE-HUAWEI/Middlewares/Third_Party/Huawei/iot_link/driver\driver.h ****     fn_devseek    seek ;  //triggered by the application
  70:D:/fchai/work/i-cube/I-CUBE-HUAWEI/Middlewares/Third_Party/Huawei/iot_link/driver\driver.h ****     fn_devinit    init;   //if first open,then will be called
  71:D:/fchai/work/i-cube/I-CUBE-HUAWEI/Middlewares/Third_Party/Huawei/iot_link/driver\driver.h ****     fn_devdeinit  deinit; //if the last close, then will be called
  72:D:/fchai/work/i-cube/I-CUBE-HUAWEI/Middlewares/Third_Party/Huawei/iot_link/driver\driver.h **** }los_driv_op_t;
  73:D:/fchai/work/i-cube/I-CUBE-HUAWEI/Middlewares/Third_Party/Huawei/iot_link/driver\driver.h **** //the member could be NULL,depend on the device property
  74:D:/fchai/work/i-cube/I-CUBE-HUAWEI/Middlewares/Third_Party/Huawei/iot_link/driver\driver.h **** //attention that whether the device support multi read and write depend on the device itself
  75:D:/fchai/work/i-cube/I-CUBE-HUAWEI/Middlewares/Third_Party/Huawei/iot_link/driver\driver.h **** typedef void* los_dev_t ;                   //this type is returned by the dev open
 179              		.loc 5 75 1 discriminator 3 view .LVU46
  76:D:/fchai/work/i-cube/I-CUBE-HUAWEI/Middlewares/Third_Party/Huawei/iot_link/driver\driver.h **** 
  77:D:/fchai/work/i-cube/I-CUBE-HUAWEI/Middlewares/Third_Party/Huawei/iot_link/driver\driver.h **** //we also supply a macro to add a driver staticly ,which means
  78:D:/fchai/work/i-cube/I-CUBE-HUAWEI/Middlewares/Third_Party/Huawei/iot_link/driver\driver.h **** typedef struct
 180              		.loc 5 78 1 discriminator 3 view .LVU47
  79:D:/fchai/work/i-cube/I-CUBE-HUAWEI/Middlewares/Third_Party/Huawei/iot_link/driver\driver.h **** {
  80:D:/fchai/work/i-cube/I-CUBE-HUAWEI/Middlewares/Third_Party/Huawei/iot_link/driver\driver.h ****     const char            *name;      //device driver name
  81:D:/fchai/work/i-cube/I-CUBE-HUAWEI/Middlewares/Third_Party/Huawei/iot_link/driver\driver.h ****     los_driv_op_t         *op;        //device operate functions
  82:D:/fchai/work/i-cube/I-CUBE-HUAWEI/Middlewares/Third_Party/Huawei/iot_link/driver\driver.h ****     void                  *pri;       //private data,will be passed to op functions
  83:D:/fchai/work/i-cube/I-CUBE-HUAWEI/Middlewares/Third_Party/Huawei/iot_link/driver\driver.h ****     uint32_t               flag;      //flags, like O_RDONLY O_WRONLY O_RDWR
  84:D:/fchai/work/i-cube/I-CUBE-HUAWEI/Middlewares/Third_Party/Huawei/iot_link/driver\driver.h **** }os_driv_para_t;
  85:D:/fchai/work/i-cube/I-CUBE-HUAWEI/Middlewares/Third_Party/Huawei/iot_link/driver\driver.h **** 
  86:D:/fchai/work/i-cube/I-CUBE-HUAWEI/Middlewares/Third_Party/Huawei/iot_link/driver\driver.h **** #if CONFIG_DRIVER_ENABLE
  87:D:/fchai/work/i-cube/I-CUBE-HUAWEI/Middlewares/Third_Party/Huawei/iot_link/driver\driver.h **** //device module init entry
  88:D:/fchai/work/i-cube/I-CUBE-HUAWEI/Middlewares/Third_Party/Huawei/iot_link/driver\driver.h **** bool_t  los_driv_init(void);
 181              		.loc 5 88 1 discriminator 3 view .LVU48
  89:D:/fchai/work/i-cube/I-CUBE-HUAWEI/Middlewares/Third_Party/Huawei/iot_link/driver\driver.h **** //these interface called by the bsp develop
  90:D:/fchai/work/i-cube/I-CUBE-HUAWEI/Middlewares/Third_Party/Huawei/iot_link/driver\driver.h **** los_driv_t los_driv_register(os_driv_para_t *para);
 182              		.loc 5 90 1 discriminator 3 view .LVU49
  91:D:/fchai/work/i-cube/I-CUBE-HUAWEI/Middlewares/Third_Party/Huawei/iot_link/driver\driver.h **** bool_t     los_driv_unregister(const char *name) ;
 183              		.loc 5 91 1 discriminator 3 view .LVU50
ARM GAS  T:\msys\tmp\ccjeK7qp.s 			page 12


  92:D:/fchai/work/i-cube/I-CUBE-HUAWEI/Middlewares/Third_Party/Huawei/iot_link/driver\driver.h **** bool_t     los_driv_event(los_driv_t driv,unsigned int event,void *para);
 184              		.loc 5 92 1 discriminator 3 view .LVU51
  93:D:/fchai/work/i-cube/I-CUBE-HUAWEI/Middlewares/Third_Party/Huawei/iot_link/driver\driver.h **** //attention that the device dirver could use this function to send some event to the application,
  94:D:/fchai/work/i-cube/I-CUBE-HUAWEI/Middlewares/Third_Party/Huawei/iot_link/driver\driver.h **** //something like the device could be read or write or something like this for async call
  95:D:/fchai/work/i-cube/I-CUBE-HUAWEI/Middlewares/Third_Party/Huawei/iot_link/driver\driver.h **** 
  96:D:/fchai/work/i-cube/I-CUBE-HUAWEI/Middlewares/Third_Party/Huawei/iot_link/driver\driver.h **** //these interface by the application
  97:D:/fchai/work/i-cube/I-CUBE-HUAWEI/Middlewares/Third_Party/Huawei/iot_link/driver\driver.h **** los_dev_t  los_dev_open  (const char *name,unsigned int flag);
 185              		.loc 5 97 1 discriminator 3 view .LVU52
  98:D:/fchai/work/i-cube/I-CUBE-HUAWEI/Middlewares/Third_Party/Huawei/iot_link/driver\driver.h **** ssize_t    los_dev_read  (los_dev_t dev,size_t offset,void *buf,size_t len,uint32_t timeout);
 186              		.loc 5 98 1 discriminator 3 view .LVU53
  99:D:/fchai/work/i-cube/I-CUBE-HUAWEI/Middlewares/Third_Party/Huawei/iot_link/driver\driver.h **** ssize_t    los_dev_write (los_dev_t dev,size_t offset,const void *buf,size_t len, uint32_t timeout)
 187              		.loc 5 99 1 discriminator 3 view .LVU54
 100:D:/fchai/work/i-cube/I-CUBE-HUAWEI/Middlewares/Third_Party/Huawei/iot_link/driver\driver.h **** bool_t     los_dev_close (los_dev_t dev);
 188              		.loc 5 100 1 discriminator 3 view .LVU55
 101:D:/fchai/work/i-cube/I-CUBE-HUAWEI/Middlewares/Third_Party/Huawei/iot_link/driver\driver.h **** bool_t     los_dev_ioctl (los_dev_t dev,unsigned int cmd,void *para,int paralen);
 189              		.loc 5 101 1 discriminator 3 view .LVU56
 102:D:/fchai/work/i-cube/I-CUBE-HUAWEI/Middlewares/Third_Party/Huawei/iot_link/driver\driver.h **** off_t      los_dev_seek  (los_dev_t dev,off_t offset, int fromwhere);
 190              		.loc 5 102 1 discriminator 3 view .LVU57
  92:D:/fchai/work/i-cube/I-CUBE-HUAWEI/Middlewares/Third_Party/Huawei/iot_link\link_main.c **** #endif
  93:D:/fchai/work/i-cube/I-CUBE-HUAWEI/Middlewares/Third_Party/Huawei/iot_link\link_main.c **** 
  94:D:/fchai/work/i-cube/I-CUBE-HUAWEI/Middlewares/Third_Party/Huawei/iot_link\link_main.c **** ///< install the driver framework
  95:D:/fchai/work/i-cube/I-CUBE-HUAWEI/Middlewares/Third_Party/Huawei/iot_link\link_main.c **** #ifdef CONFIG_DRIVER_ENABLE
  96:D:/fchai/work/i-cube/I-CUBE-HUAWEI/Middlewares/Third_Party/Huawei/iot_link\link_main.c ****     #include <driver.h>
  97:D:/fchai/work/i-cube/I-CUBE-HUAWEI/Middlewares/Third_Party/Huawei/iot_link\link_main.c ****     ///< install the driver framework for the link
  98:D:/fchai/work/i-cube/I-CUBE-HUAWEI/Middlewares/Third_Party/Huawei/iot_link\link_main.c ****     (void)los_driv_init();
 191              		.loc 1 98 5 discriminator 3 view .LVU58
 192              		.loc 1 98 11 is_stmt 0 discriminator 3 view .LVU59
 193 0028 FFF7FEFF 		bl	los_driv_init
 194              	.LVL7:
 195              		.file 6 "D:/fchai/work/i-cube/I-CUBE-HUAWEI/Middlewares/Third_Party/Huawei/iot_link/at/at.h"
   1:D:/fchai/work/i-cube/I-CUBE-HUAWEI/Middlewares/Third_Party/Huawei/iot_link/at\at.h **** /*----------------------------------------------------------------------------
   2:D:/fchai/work/i-cube/I-CUBE-HUAWEI/Middlewares/Third_Party/Huawei/iot_link/at\at.h ****  * Copyright (c) <2016-2018>, <Huawei Technologies Co., Ltd>
   3:D:/fchai/work/i-cube/I-CUBE-HUAWEI/Middlewares/Third_Party/Huawei/iot_link/at\at.h ****  * All rights reserved.
   4:D:/fchai/work/i-cube/I-CUBE-HUAWEI/Middlewares/Third_Party/Huawei/iot_link/at\at.h ****  * Redistribution and use in source and binary forms, with or without modification,
   5:D:/fchai/work/i-cube/I-CUBE-HUAWEI/Middlewares/Third_Party/Huawei/iot_link/at\at.h ****  * are permitted provided that the following conditions are met:
   6:D:/fchai/work/i-cube/I-CUBE-HUAWEI/Middlewares/Third_Party/Huawei/iot_link/at\at.h ****  * 1. Redistributions of source code must retain the above copyright notice, this list of
   7:D:/fchai/work/i-cube/I-CUBE-HUAWEI/Middlewares/Third_Party/Huawei/iot_link/at\at.h ****  * conditions and the following disclaimer.
   8:D:/fchai/work/i-cube/I-CUBE-HUAWEI/Middlewares/Third_Party/Huawei/iot_link/at\at.h ****  * 2. Redistributions in binary form must reproduce the above copyright notice, this list
   9:D:/fchai/work/i-cube/I-CUBE-HUAWEI/Middlewares/Third_Party/Huawei/iot_link/at\at.h ****  * of conditions and the following disclaimer in the documentation and/or other materials
  10:D:/fchai/work/i-cube/I-CUBE-HUAWEI/Middlewares/Third_Party/Huawei/iot_link/at\at.h ****  * provided with the distribution.
  11:D:/fchai/work/i-cube/I-CUBE-HUAWEI/Middlewares/Third_Party/Huawei/iot_link/at\at.h ****  * 3. Neither the name of the copyright holder nor the names of its contributors may be used
  12:D:/fchai/work/i-cube/I-CUBE-HUAWEI/Middlewares/Third_Party/Huawei/iot_link/at\at.h ****  * to endorse or promote products derived from this software without specific prior written
  13:D:/fchai/work/i-cube/I-CUBE-HUAWEI/Middlewares/Third_Party/Huawei/iot_link/at\at.h ****  * permission.
  14:D:/fchai/work/i-cube/I-CUBE-HUAWEI/Middlewares/Third_Party/Huawei/iot_link/at\at.h ****  * THIS SOFTWARE IS PROVIDED BY THE COPYRIGHT HOLDERS AND CONTRIBUTORS
  15:D:/fchai/work/i-cube/I-CUBE-HUAWEI/Middlewares/Third_Party/Huawei/iot_link/at\at.h ****  * "AS IS" AND ANY EXPRESS OR IMPLIED WARRANTIES, INCLUDING, BUT NOT LIMITED TO,
  16:D:/fchai/work/i-cube/I-CUBE-HUAWEI/Middlewares/Third_Party/Huawei/iot_link/at\at.h ****  * THE IMPLIED WARRANTIES OF MERCHANTABILITY AND FITNESS FOR A PARTICULAR
  17:D:/fchai/work/i-cube/I-CUBE-HUAWEI/Middlewares/Third_Party/Huawei/iot_link/at\at.h ****  * PURPOSE ARE DISCLAIMED. IN NO EVENT SHALL THE COPYRIGHT HOLDER OR
  18:D:/fchai/work/i-cube/I-CUBE-HUAWEI/Middlewares/Third_Party/Huawei/iot_link/at\at.h ****  * CONTRIBUTORS BE LIABLE FOR ANY DIRECT, INDIRECT, INCIDENTAL, SPECIAL,
  19:D:/fchai/work/i-cube/I-CUBE-HUAWEI/Middlewares/Third_Party/Huawei/iot_link/at\at.h ****  * EXEMPLARY, OR CONSEQUENTIAL DAMAGES (INCLUDING, BUT NOT LIMITED TO,
  20:D:/fchai/work/i-cube/I-CUBE-HUAWEI/Middlewares/Third_Party/Huawei/iot_link/at\at.h ****  * PROCUREMENT OF SUBSTITUTE GOODS OR SERVICES; LOSS OF USE, DATA, OR PROFITS;
  21:D:/fchai/work/i-cube/I-CUBE-HUAWEI/Middlewares/Third_Party/Huawei/iot_link/at\at.h ****  * OR BUSINESS INTERRUPTION) HOWEVER CAUSED AND ON ANY THEORY OF LIABILITY,
  22:D:/fchai/work/i-cube/I-CUBE-HUAWEI/Middlewares/Third_Party/Huawei/iot_link/at\at.h ****  * WHETHER IN CONTRACT, STRICT LIABILITY, OR TORT (INCLUDING NEGLIGENCE OR
  23:D:/fchai/work/i-cube/I-CUBE-HUAWEI/Middlewares/Third_Party/Huawei/iot_link/at\at.h ****  * OTHERWISE) ARISING IN ANY WAY OUT OF THE USE OF THIS SOFTWARE, EVEN IF
  24:D:/fchai/work/i-cube/I-CUBE-HUAWEI/Middlewares/Third_Party/Huawei/iot_link/at\at.h ****  * ADVISED OF THE POSSIBILITY OF SUCH DAMAGE.
  25:D:/fchai/work/i-cube/I-CUBE-HUAWEI/Middlewares/Third_Party/Huawei/iot_link/at\at.h ****  *---------------------------------------------------------------------------*/
  26:D:/fchai/work/i-cube/I-CUBE-HUAWEI/Middlewares/Third_Party/Huawei/iot_link/at\at.h **** /*----------------------------------------------------------------------------
  27:D:/fchai/work/i-cube/I-CUBE-HUAWEI/Middlewares/Third_Party/Huawei/iot_link/at\at.h ****  * Notice of Export Control Law
ARM GAS  T:\msys\tmp\ccjeK7qp.s 			page 13


  28:D:/fchai/work/i-cube/I-CUBE-HUAWEI/Middlewares/Third_Party/Huawei/iot_link/at\at.h ****  * ===============================================
  29:D:/fchai/work/i-cube/I-CUBE-HUAWEI/Middlewares/Third_Party/Huawei/iot_link/at\at.h ****  * Huawei LiteOS may be subject to applicable export control laws and regulations, which might
  30:D:/fchai/work/i-cube/I-CUBE-HUAWEI/Middlewares/Third_Party/Huawei/iot_link/at\at.h ****  * include those applicable to Huawei LiteOS of U.S. and the country in which you are located.
  31:D:/fchai/work/i-cube/I-CUBE-HUAWEI/Middlewares/Third_Party/Huawei/iot_link/at\at.h ****  * Import, export and usage of Huawei LiteOS in any manner by you shall be in compliance with such
  32:D:/fchai/work/i-cube/I-CUBE-HUAWEI/Middlewares/Third_Party/Huawei/iot_link/at\at.h ****  * applicable export control laws and regulations.
  33:D:/fchai/work/i-cube/I-CUBE-HUAWEI/Middlewares/Third_Party/Huawei/iot_link/at\at.h ****  *---------------------------------------------------------------------------*/
  34:D:/fchai/work/i-cube/I-CUBE-HUAWEI/Middlewares/Third_Party/Huawei/iot_link/at\at.h **** 
  35:D:/fchai/work/i-cube/I-CUBE-HUAWEI/Middlewares/Third_Party/Huawei/iot_link/at\at.h **** #ifndef __AT_H
  36:D:/fchai/work/i-cube/I-CUBE-HUAWEI/Middlewares/Third_Party/Huawei/iot_link/at\at.h **** #define __AT_H
  37:D:/fchai/work/i-cube/I-CUBE-HUAWEI/Middlewares/Third_Party/Huawei/iot_link/at\at.h **** 
  38:D:/fchai/work/i-cube/I-CUBE-HUAWEI/Middlewares/Third_Party/Huawei/iot_link/at\at.h **** #include <stdint.h>
  39:D:/fchai/work/i-cube/I-CUBE-HUAWEI/Middlewares/Third_Party/Huawei/iot_link/at\at.h **** #include <stddef.h>
  40:D:/fchai/work/i-cube/I-CUBE-HUAWEI/Middlewares/Third_Party/Huawei/iot_link/at\at.h **** #include <stdio.h>
  41:D:/fchai/work/i-cube/I-CUBE-HUAWEI/Middlewares/Third_Party/Huawei/iot_link/at\at.h **** #include <osal.h>
  42:D:/fchai/work/i-cube/I-CUBE-HUAWEI/Middlewares/Third_Party/Huawei/iot_link/at\at.h **** 
  43:D:/fchai/work/i-cube/I-CUBE-HUAWEI/Middlewares/Third_Party/Huawei/iot_link/at\at.h **** 
  44:D:/fchai/work/i-cube/I-CUBE-HUAWEI/Middlewares/Third_Party/Huawei/iot_link/at\at.h **** typedef int (*fn_at_oob)(void *args,void *data,size_t datalen);
 196              		.loc 6 44 1 is_stmt 1 discriminator 3 view .LVU60
  45:D:/fchai/work/i-cube/I-CUBE-HUAWEI/Middlewares/Third_Party/Huawei/iot_link/at\at.h **** 
  46:D:/fchai/work/i-cube/I-CUBE-HUAWEI/Middlewares/Third_Party/Huawei/iot_link/at\at.h **** 
  47:D:/fchai/work/i-cube/I-CUBE-HUAWEI/Middlewares/Third_Party/Huawei/iot_link/at\at.h **** /**
  48:D:/fchai/work/i-cube/I-CUBE-HUAWEI/Middlewares/Third_Party/Huawei/iot_link/at\at.h ****  * @brief: use this function to do the at client framwork initialized
  49:D:/fchai/work/i-cube/I-CUBE-HUAWEI/Middlewares/Third_Party/Huawei/iot_link/at\at.h ****  *
  50:D:/fchai/work/i-cube/I-CUBE-HUAWEI/Middlewares/Third_Party/Huawei/iot_link/at\at.h ****  * @return:0 success while -1 failed
  51:D:/fchai/work/i-cube/I-CUBE-HUAWEI/Middlewares/Third_Party/Huawei/iot_link/at\at.h ****  * */
  52:D:/fchai/work/i-cube/I-CUBE-HUAWEI/Middlewares/Third_Party/Huawei/iot_link/at\at.h **** int at_init(void);
 197              		.loc 6 52 1 discriminator 3 view .LVU61
  53:D:/fchai/work/i-cube/I-CUBE-HUAWEI/Middlewares/Third_Party/Huawei/iot_link/at\at.h **** 
  54:D:/fchai/work/i-cube/I-CUBE-HUAWEI/Middlewares/Third_Party/Huawei/iot_link/at\at.h **** /**
  55:D:/fchai/work/i-cube/I-CUBE-HUAWEI/Middlewares/Third_Party/Huawei/iot_link/at\at.h ****  * @brief:use this function to register a function that monitor the URC message
  56:D:/fchai/work/i-cube/I-CUBE-HUAWEI/Middlewares/Third_Party/Huawei/iot_link/at\at.h ****  * @param[in]:name, which used for the at framework debug
  57:D:/fchai/work/i-cube/I-CUBE-HUAWEI/Middlewares/Third_Party/Huawei/iot_link/at\at.h ****  * @param[in]:inxdex, used for match the out of band data
  58:D:/fchai/work/i-cube/I-CUBE-HUAWEI/Middlewares/Third_Party/Huawei/iot_link/at\at.h ****  * @param[in]:length, index length, this is match length
  59:D:/fchai/work/i-cube/I-CUBE-HUAWEI/Middlewares/Third_Party/Huawei/iot_link/at\at.h ****  * @param[in]:func, supply the function that will execute when the index is matched
  60:D:/fchai/work/i-cube/I-CUBE-HUAWEI/Middlewares/Third_Party/Huawei/iot_link/at\at.h ****  * @paarm[in]:args, supply for the registered function
  61:D:/fchai/work/i-cube/I-CUBE-HUAWEI/Middlewares/Third_Party/Huawei/iot_link/at\at.h ****  *
  62:D:/fchai/work/i-cube/I-CUBE-HUAWEI/Middlewares/Third_Party/Huawei/iot_link/at\at.h ****  * @return:0 success while -1 failed
  63:D:/fchai/work/i-cube/I-CUBE-HUAWEI/Middlewares/Third_Party/Huawei/iot_link/at\at.h ****  * */
  64:D:/fchai/work/i-cube/I-CUBE-HUAWEI/Middlewares/Third_Party/Huawei/iot_link/at\at.h **** int at_oobregister(const char *name,const void *index,size_t len,fn_at_oob func,void *args);
 198              		.loc 6 64 1 discriminator 3 view .LVU62
  65:D:/fchai/work/i-cube/I-CUBE-HUAWEI/Middlewares/Third_Party/Huawei/iot_link/at\at.h **** 
  66:D:/fchai/work/i-cube/I-CUBE-HUAWEI/Middlewares/Third_Party/Huawei/iot_link/at\at.h **** /**
  67:D:/fchai/work/i-cube/I-CUBE-HUAWEI/Middlewares/Third_Party/Huawei/iot_link/at\at.h ****  * @brief:use this function to register a function that monitor the URC message
  68:D:/fchai/work/i-cube/I-CUBE-HUAWEI/Middlewares/Third_Party/Huawei/iot_link/at\at.h ****  * @param[in]:cmd, the command to send
  69:D:/fchai/work/i-cube/I-CUBE-HUAWEI/Middlewares/Third_Party/Huawei/iot_link/at\at.h ****  * @param[in]:cmdlen, the command length
  70:D:/fchai/work/i-cube/I-CUBE-HUAWEI/Middlewares/Third_Party/Huawei/iot_link/at\at.h ****  * @param[in]:index, the command index, if you don't need the response, set it to NULL; this must b
  71:D:/fchai/work/i-cube/I-CUBE-HUAWEI/Middlewares/Third_Party/Huawei/iot_link/at\at.h ****  * @param[in]:respbuf, if you need the response, you should supply the buffer
  72:D:/fchai/work/i-cube/I-CUBE-HUAWEI/Middlewares/Third_Party/Huawei/iot_link/at\at.h ****  * @param[in]:respbuflen,the respbuf length
  73:D:/fchai/work/i-cube/I-CUBE-HUAWEI/Middlewares/Third_Party/Huawei/iot_link/at\at.h ****  * @param[in]:timeout, the time you may wait for the response;and the unit is ms
  74:D:/fchai/work/i-cube/I-CUBE-HUAWEI/Middlewares/Third_Party/Huawei/iot_link/at\at.h ****  *
  75:D:/fchai/work/i-cube/I-CUBE-HUAWEI/Middlewares/Third_Party/Huawei/iot_link/at\at.h ****  * @return:>=0 success (return the received data length) while -1 failed
  76:D:/fchai/work/i-cube/I-CUBE-HUAWEI/Middlewares/Third_Party/Huawei/iot_link/at\at.h ****  * */
  77:D:/fchai/work/i-cube/I-CUBE-HUAWEI/Middlewares/Third_Party/Huawei/iot_link/at\at.h **** 
  78:D:/fchai/work/i-cube/I-CUBE-HUAWEI/Middlewares/Third_Party/Huawei/iot_link/at\at.h **** int at_command(const void *cmd, size_t cmdlen,const char *index,\
 199              		.loc 6 78 1 discriminator 3 view .LVU63
  79:D:/fchai/work/i-cube/I-CUBE-HUAWEI/Middlewares/Third_Party/Huawei/iot_link/at\at.h ****                 void *respbuf,size_t respbuflen,uint32_t timeout);
  80:D:/fchai/work/i-cube/I-CUBE-HUAWEI/Middlewares/Third_Party/Huawei/iot_link/at\at.h **** 
ARM GAS  T:\msys\tmp\ccjeK7qp.s 			page 14


  81:D:/fchai/work/i-cube/I-CUBE-HUAWEI/Middlewares/Third_Party/Huawei/iot_link/at\at.h **** int at_streammode_set(int mode);
 200              		.loc 6 81 1 discriminator 3 view .LVU64
  82:D:/fchai/work/i-cube/I-CUBE-HUAWEI/Middlewares/Third_Party/Huawei/iot_link/at\at.h **** 
  83:D:/fchai/work/i-cube/I-CUBE-HUAWEI/Middlewares/Third_Party/Huawei/iot_link/at\at.h **** int at_debugclose(void);
 201              		.loc 6 83 1 discriminator 3 view .LVU65
  99:D:/fchai/work/i-cube/I-CUBE-HUAWEI/Middlewares/Third_Party/Huawei/iot_link\link_main.c **** #endif
 100:D:/fchai/work/i-cube/I-CUBE-HUAWEI/Middlewares/Third_Party/Huawei/iot_link\link_main.c **** 
 101:D:/fchai/work/i-cube/I-CUBE-HUAWEI/Middlewares/Third_Party/Huawei/iot_link\link_main.c **** 
 102:D:/fchai/work/i-cube/I-CUBE-HUAWEI/Middlewares/Third_Party/Huawei/iot_link\link_main.c **** ///< install the at framework
 103:D:/fchai/work/i-cube/I-CUBE-HUAWEI/Middlewares/Third_Party/Huawei/iot_link\link_main.c **** #ifdef CONFIG_AT_ENABLE
 104:D:/fchai/work/i-cube/I-CUBE-HUAWEI/Middlewares/Third_Party/Huawei/iot_link\link_main.c ****     #include <at.h>
 105:D:/fchai/work/i-cube/I-CUBE-HUAWEI/Middlewares/Third_Party/Huawei/iot_link\link_main.c ****     (void)at_init();
 202              		.loc 1 105 5 discriminator 3 view .LVU66
 203              		.loc 1 105 11 is_stmt 0 discriminator 3 view .LVU67
 204 002c FFF7FEFF 		bl	at_init
 205              	.LVL8:
 206              		.file 7 "D:/fchai/work/i-cube/I-CUBE-HUAWEI/Middlewares/Third_Party/Huawei/iot_link/cJSON/cJSON.h"
   1:D:/fchai/work/i-cube/I-CUBE-HUAWEI/Middlewares/Third_Party/Huawei/iot_link/cJSON\cJSON.h **** /*
   2:D:/fchai/work/i-cube/I-CUBE-HUAWEI/Middlewares/Third_Party/Huawei/iot_link/cJSON\cJSON.h ****   Copyright (c) 2009-2017 Dave Gamble and cJSON contributors
   3:D:/fchai/work/i-cube/I-CUBE-HUAWEI/Middlewares/Third_Party/Huawei/iot_link/cJSON\cJSON.h **** 
   4:D:/fchai/work/i-cube/I-CUBE-HUAWEI/Middlewares/Third_Party/Huawei/iot_link/cJSON\cJSON.h ****   Permission is hereby granted, free of charge, to any person obtaining a copy
   5:D:/fchai/work/i-cube/I-CUBE-HUAWEI/Middlewares/Third_Party/Huawei/iot_link/cJSON\cJSON.h ****   of this software and associated documentation files (the "Software"), to deal
   6:D:/fchai/work/i-cube/I-CUBE-HUAWEI/Middlewares/Third_Party/Huawei/iot_link/cJSON\cJSON.h ****   in the Software without restriction, including without limitation the rights
   7:D:/fchai/work/i-cube/I-CUBE-HUAWEI/Middlewares/Third_Party/Huawei/iot_link/cJSON\cJSON.h ****   to use, copy, modify, merge, publish, distribute, sublicense, and/or sell
   8:D:/fchai/work/i-cube/I-CUBE-HUAWEI/Middlewares/Third_Party/Huawei/iot_link/cJSON\cJSON.h ****   copies of the Software, and to permit persons to whom the Software is
   9:D:/fchai/work/i-cube/I-CUBE-HUAWEI/Middlewares/Third_Party/Huawei/iot_link/cJSON\cJSON.h ****   furnished to do so, subject to the following conditions:
  10:D:/fchai/work/i-cube/I-CUBE-HUAWEI/Middlewares/Third_Party/Huawei/iot_link/cJSON\cJSON.h **** 
  11:D:/fchai/work/i-cube/I-CUBE-HUAWEI/Middlewares/Third_Party/Huawei/iot_link/cJSON\cJSON.h ****   The above copyright notice and this permission notice shall be included in
  12:D:/fchai/work/i-cube/I-CUBE-HUAWEI/Middlewares/Third_Party/Huawei/iot_link/cJSON\cJSON.h ****   all copies or substantial portions of the Software.
  13:D:/fchai/work/i-cube/I-CUBE-HUAWEI/Middlewares/Third_Party/Huawei/iot_link/cJSON\cJSON.h **** 
  14:D:/fchai/work/i-cube/I-CUBE-HUAWEI/Middlewares/Third_Party/Huawei/iot_link/cJSON\cJSON.h ****   THE SOFTWARE IS PROVIDED "AS IS", WITHOUT WARRANTY OF ANY KIND, EXPRESS OR
  15:D:/fchai/work/i-cube/I-CUBE-HUAWEI/Middlewares/Third_Party/Huawei/iot_link/cJSON\cJSON.h ****   IMPLIED, INCLUDING BUT NOT LIMITED TO THE WARRANTIES OF MERCHANTABILITY,
  16:D:/fchai/work/i-cube/I-CUBE-HUAWEI/Middlewares/Third_Party/Huawei/iot_link/cJSON\cJSON.h ****   FITNESS FOR A PARTICULAR PURPOSE AND NONINFRINGEMENT. IN NO EVENT SHALL THE
  17:D:/fchai/work/i-cube/I-CUBE-HUAWEI/Middlewares/Third_Party/Huawei/iot_link/cJSON\cJSON.h ****   AUTHORS OR COPYRIGHT HOLDERS BE LIABLE FOR ANY CLAIM, DAMAGES OR OTHER
  18:D:/fchai/work/i-cube/I-CUBE-HUAWEI/Middlewares/Third_Party/Huawei/iot_link/cJSON\cJSON.h ****   LIABILITY, WHETHER IN AN ACTION OF CONTRACT, TORT OR OTHERWISE, ARISING FROM,
  19:D:/fchai/work/i-cube/I-CUBE-HUAWEI/Middlewares/Third_Party/Huawei/iot_link/cJSON\cJSON.h ****   OUT OF OR IN CONNECTION WITH THE SOFTWARE OR THE USE OR OTHER DEALINGS IN
  20:D:/fchai/work/i-cube/I-CUBE-HUAWEI/Middlewares/Third_Party/Huawei/iot_link/cJSON\cJSON.h ****   THE SOFTWARE.
  21:D:/fchai/work/i-cube/I-CUBE-HUAWEI/Middlewares/Third_Party/Huawei/iot_link/cJSON\cJSON.h **** */
  22:D:/fchai/work/i-cube/I-CUBE-HUAWEI/Middlewares/Third_Party/Huawei/iot_link/cJSON\cJSON.h **** 
  23:D:/fchai/work/i-cube/I-CUBE-HUAWEI/Middlewares/Third_Party/Huawei/iot_link/cJSON\cJSON.h **** #ifndef cJSON__h
  24:D:/fchai/work/i-cube/I-CUBE-HUAWEI/Middlewares/Third_Party/Huawei/iot_link/cJSON\cJSON.h **** #define cJSON__h
  25:D:/fchai/work/i-cube/I-CUBE-HUAWEI/Middlewares/Third_Party/Huawei/iot_link/cJSON\cJSON.h **** 
  26:D:/fchai/work/i-cube/I-CUBE-HUAWEI/Middlewares/Third_Party/Huawei/iot_link/cJSON\cJSON.h **** #ifdef __cplusplus
  27:D:/fchai/work/i-cube/I-CUBE-HUAWEI/Middlewares/Third_Party/Huawei/iot_link/cJSON\cJSON.h **** extern "C"
  28:D:/fchai/work/i-cube/I-CUBE-HUAWEI/Middlewares/Third_Party/Huawei/iot_link/cJSON\cJSON.h **** {
  29:D:/fchai/work/i-cube/I-CUBE-HUAWEI/Middlewares/Third_Party/Huawei/iot_link/cJSON\cJSON.h **** #endif
  30:D:/fchai/work/i-cube/I-CUBE-HUAWEI/Middlewares/Third_Party/Huawei/iot_link/cJSON\cJSON.h **** 
  31:D:/fchai/work/i-cube/I-CUBE-HUAWEI/Middlewares/Third_Party/Huawei/iot_link/cJSON\cJSON.h **** #if !defined(__WINDOWS__) && (defined(WIN32) || defined(WIN64) || defined(_MSC_VER) || defined(_WIN
  32:D:/fchai/work/i-cube/I-CUBE-HUAWEI/Middlewares/Third_Party/Huawei/iot_link/cJSON\cJSON.h **** #define __WINDOWS__
  33:D:/fchai/work/i-cube/I-CUBE-HUAWEI/Middlewares/Third_Party/Huawei/iot_link/cJSON\cJSON.h **** #endif
  34:D:/fchai/work/i-cube/I-CUBE-HUAWEI/Middlewares/Third_Party/Huawei/iot_link/cJSON\cJSON.h **** 
  35:D:/fchai/work/i-cube/I-CUBE-HUAWEI/Middlewares/Third_Party/Huawei/iot_link/cJSON\cJSON.h **** #ifdef __WINDOWS__
  36:D:/fchai/work/i-cube/I-CUBE-HUAWEI/Middlewares/Third_Party/Huawei/iot_link/cJSON\cJSON.h **** 
  37:D:/fchai/work/i-cube/I-CUBE-HUAWEI/Middlewares/Third_Party/Huawei/iot_link/cJSON\cJSON.h **** /* When compiling for windows, we specify a specific calling convention to avoid issues where we ar
  38:D:/fchai/work/i-cube/I-CUBE-HUAWEI/Middlewares/Third_Party/Huawei/iot_link/cJSON\cJSON.h **** 
  39:D:/fchai/work/i-cube/I-CUBE-HUAWEI/Middlewares/Third_Party/Huawei/iot_link/cJSON\cJSON.h **** CJSON_HIDE_SYMBOLS - Define this in the case where you don't want to ever dllexport symbols
  40:D:/fchai/work/i-cube/I-CUBE-HUAWEI/Middlewares/Third_Party/Huawei/iot_link/cJSON\cJSON.h **** CJSON_EXPORT_SYMBOLS - Define this on library build when you want to dllexport symbols (default)
ARM GAS  T:\msys\tmp\ccjeK7qp.s 			page 15


  41:D:/fchai/work/i-cube/I-CUBE-HUAWEI/Middlewares/Third_Party/Huawei/iot_link/cJSON\cJSON.h **** CJSON_IMPORT_SYMBOLS - Define this if you want to dllimport symbol
  42:D:/fchai/work/i-cube/I-CUBE-HUAWEI/Middlewares/Third_Party/Huawei/iot_link/cJSON\cJSON.h **** 
  43:D:/fchai/work/i-cube/I-CUBE-HUAWEI/Middlewares/Third_Party/Huawei/iot_link/cJSON\cJSON.h **** For *nix builds that support visibility attribute, you can define similar behavior by
  44:D:/fchai/work/i-cube/I-CUBE-HUAWEI/Middlewares/Third_Party/Huawei/iot_link/cJSON\cJSON.h **** 
  45:D:/fchai/work/i-cube/I-CUBE-HUAWEI/Middlewares/Third_Party/Huawei/iot_link/cJSON\cJSON.h **** setting default visibility to hidden by adding
  46:D:/fchai/work/i-cube/I-CUBE-HUAWEI/Middlewares/Third_Party/Huawei/iot_link/cJSON\cJSON.h **** -fvisibility=hidden (for gcc)
  47:D:/fchai/work/i-cube/I-CUBE-HUAWEI/Middlewares/Third_Party/Huawei/iot_link/cJSON\cJSON.h **** or
  48:D:/fchai/work/i-cube/I-CUBE-HUAWEI/Middlewares/Third_Party/Huawei/iot_link/cJSON\cJSON.h **** -xldscope=hidden (for sun cc)
  49:D:/fchai/work/i-cube/I-CUBE-HUAWEI/Middlewares/Third_Party/Huawei/iot_link/cJSON\cJSON.h **** to CFLAGS
  50:D:/fchai/work/i-cube/I-CUBE-HUAWEI/Middlewares/Third_Party/Huawei/iot_link/cJSON\cJSON.h **** 
  51:D:/fchai/work/i-cube/I-CUBE-HUAWEI/Middlewares/Third_Party/Huawei/iot_link/cJSON\cJSON.h **** then using the CJSON_API_VISIBILITY flag to "export" the same symbols the way CJSON_EXPORT_SYMBOLS 
  52:D:/fchai/work/i-cube/I-CUBE-HUAWEI/Middlewares/Third_Party/Huawei/iot_link/cJSON\cJSON.h **** 
  53:D:/fchai/work/i-cube/I-CUBE-HUAWEI/Middlewares/Third_Party/Huawei/iot_link/cJSON\cJSON.h **** */
  54:D:/fchai/work/i-cube/I-CUBE-HUAWEI/Middlewares/Third_Party/Huawei/iot_link/cJSON\cJSON.h **** 
  55:D:/fchai/work/i-cube/I-CUBE-HUAWEI/Middlewares/Third_Party/Huawei/iot_link/cJSON\cJSON.h **** #define CJSON_CDECL __cdecl
  56:D:/fchai/work/i-cube/I-CUBE-HUAWEI/Middlewares/Third_Party/Huawei/iot_link/cJSON\cJSON.h **** #define CJSON_STDCALL __stdcall
  57:D:/fchai/work/i-cube/I-CUBE-HUAWEI/Middlewares/Third_Party/Huawei/iot_link/cJSON\cJSON.h **** 
  58:D:/fchai/work/i-cube/I-CUBE-HUAWEI/Middlewares/Third_Party/Huawei/iot_link/cJSON\cJSON.h **** /* export symbols by default, this is necessary for copy pasting the C and header file */
  59:D:/fchai/work/i-cube/I-CUBE-HUAWEI/Middlewares/Third_Party/Huawei/iot_link/cJSON\cJSON.h **** #if !defined(CJSON_HIDE_SYMBOLS) && !defined(CJSON_IMPORT_SYMBOLS) && !defined(CJSON_EXPORT_SYMBOLS
  60:D:/fchai/work/i-cube/I-CUBE-HUAWEI/Middlewares/Third_Party/Huawei/iot_link/cJSON\cJSON.h **** #define CJSON_EXPORT_SYMBOLS
  61:D:/fchai/work/i-cube/I-CUBE-HUAWEI/Middlewares/Third_Party/Huawei/iot_link/cJSON\cJSON.h **** #endif
  62:D:/fchai/work/i-cube/I-CUBE-HUAWEI/Middlewares/Third_Party/Huawei/iot_link/cJSON\cJSON.h **** 
  63:D:/fchai/work/i-cube/I-CUBE-HUAWEI/Middlewares/Third_Party/Huawei/iot_link/cJSON\cJSON.h **** #if defined(CJSON_HIDE_SYMBOLS)
  64:D:/fchai/work/i-cube/I-CUBE-HUAWEI/Middlewares/Third_Party/Huawei/iot_link/cJSON\cJSON.h **** #define CJSON_PUBLIC(type)   type CJSON_STDCALL
  65:D:/fchai/work/i-cube/I-CUBE-HUAWEI/Middlewares/Third_Party/Huawei/iot_link/cJSON\cJSON.h **** #elif defined(CJSON_EXPORT_SYMBOLS)
  66:D:/fchai/work/i-cube/I-CUBE-HUAWEI/Middlewares/Third_Party/Huawei/iot_link/cJSON\cJSON.h **** #define CJSON_PUBLIC(type)   __declspec(dllexport) type CJSON_STDCALL
  67:D:/fchai/work/i-cube/I-CUBE-HUAWEI/Middlewares/Third_Party/Huawei/iot_link/cJSON\cJSON.h **** #elif defined(CJSON_IMPORT_SYMBOLS)
  68:D:/fchai/work/i-cube/I-CUBE-HUAWEI/Middlewares/Third_Party/Huawei/iot_link/cJSON\cJSON.h **** #define CJSON_PUBLIC(type)   __declspec(dllimport) type CJSON_STDCALL
  69:D:/fchai/work/i-cube/I-CUBE-HUAWEI/Middlewares/Third_Party/Huawei/iot_link/cJSON\cJSON.h **** #endif
  70:D:/fchai/work/i-cube/I-CUBE-HUAWEI/Middlewares/Third_Party/Huawei/iot_link/cJSON\cJSON.h **** #else /* !__WINDOWS__ */
  71:D:/fchai/work/i-cube/I-CUBE-HUAWEI/Middlewares/Third_Party/Huawei/iot_link/cJSON\cJSON.h **** #define CJSON_CDECL
  72:D:/fchai/work/i-cube/I-CUBE-HUAWEI/Middlewares/Third_Party/Huawei/iot_link/cJSON\cJSON.h **** #define CJSON_STDCALL
  73:D:/fchai/work/i-cube/I-CUBE-HUAWEI/Middlewares/Third_Party/Huawei/iot_link/cJSON\cJSON.h **** 
  74:D:/fchai/work/i-cube/I-CUBE-HUAWEI/Middlewares/Third_Party/Huawei/iot_link/cJSON\cJSON.h **** #if (defined(__GNUC__) || defined(__SUNPRO_CC) || defined (__SUNPRO_C)) && defined(CJSON_API_VISIBI
  75:D:/fchai/work/i-cube/I-CUBE-HUAWEI/Middlewares/Third_Party/Huawei/iot_link/cJSON\cJSON.h **** #define CJSON_PUBLIC(type)   __attribute__((visibility("default"))) type
  76:D:/fchai/work/i-cube/I-CUBE-HUAWEI/Middlewares/Third_Party/Huawei/iot_link/cJSON\cJSON.h **** #else
  77:D:/fchai/work/i-cube/I-CUBE-HUAWEI/Middlewares/Third_Party/Huawei/iot_link/cJSON\cJSON.h **** #define CJSON_PUBLIC(type) type
  78:D:/fchai/work/i-cube/I-CUBE-HUAWEI/Middlewares/Third_Party/Huawei/iot_link/cJSON\cJSON.h **** #endif
  79:D:/fchai/work/i-cube/I-CUBE-HUAWEI/Middlewares/Third_Party/Huawei/iot_link/cJSON\cJSON.h **** #endif
  80:D:/fchai/work/i-cube/I-CUBE-HUAWEI/Middlewares/Third_Party/Huawei/iot_link/cJSON\cJSON.h **** 
  81:D:/fchai/work/i-cube/I-CUBE-HUAWEI/Middlewares/Third_Party/Huawei/iot_link/cJSON\cJSON.h **** /* project version */
  82:D:/fchai/work/i-cube/I-CUBE-HUAWEI/Middlewares/Third_Party/Huawei/iot_link/cJSON\cJSON.h **** #define CJSON_VERSION_MAJOR 1
  83:D:/fchai/work/i-cube/I-CUBE-HUAWEI/Middlewares/Third_Party/Huawei/iot_link/cJSON\cJSON.h **** #define CJSON_VERSION_MINOR 7
  84:D:/fchai/work/i-cube/I-CUBE-HUAWEI/Middlewares/Third_Party/Huawei/iot_link/cJSON\cJSON.h **** #define CJSON_VERSION_PATCH 8
  85:D:/fchai/work/i-cube/I-CUBE-HUAWEI/Middlewares/Third_Party/Huawei/iot_link/cJSON\cJSON.h **** 
  86:D:/fchai/work/i-cube/I-CUBE-HUAWEI/Middlewares/Third_Party/Huawei/iot_link/cJSON\cJSON.h **** #include <stddef.h>
  87:D:/fchai/work/i-cube/I-CUBE-HUAWEI/Middlewares/Third_Party/Huawei/iot_link/cJSON\cJSON.h **** 
  88:D:/fchai/work/i-cube/I-CUBE-HUAWEI/Middlewares/Third_Party/Huawei/iot_link/cJSON\cJSON.h **** /* cJSON Types: */
  89:D:/fchai/work/i-cube/I-CUBE-HUAWEI/Middlewares/Third_Party/Huawei/iot_link/cJSON\cJSON.h **** #define cJSON_Invalid (0)
  90:D:/fchai/work/i-cube/I-CUBE-HUAWEI/Middlewares/Third_Party/Huawei/iot_link/cJSON\cJSON.h **** #define cJSON_False  (1 << 0)
  91:D:/fchai/work/i-cube/I-CUBE-HUAWEI/Middlewares/Third_Party/Huawei/iot_link/cJSON\cJSON.h **** #define cJSON_True   (1 << 1)
  92:D:/fchai/work/i-cube/I-CUBE-HUAWEI/Middlewares/Third_Party/Huawei/iot_link/cJSON\cJSON.h **** #define cJSON_NULL   (1 << 2)
  93:D:/fchai/work/i-cube/I-CUBE-HUAWEI/Middlewares/Third_Party/Huawei/iot_link/cJSON\cJSON.h **** #define cJSON_Number (1 << 3)
  94:D:/fchai/work/i-cube/I-CUBE-HUAWEI/Middlewares/Third_Party/Huawei/iot_link/cJSON\cJSON.h **** #define cJSON_String (1 << 4)
  95:D:/fchai/work/i-cube/I-CUBE-HUAWEI/Middlewares/Third_Party/Huawei/iot_link/cJSON\cJSON.h **** #define cJSON_Array  (1 << 5)
  96:D:/fchai/work/i-cube/I-CUBE-HUAWEI/Middlewares/Third_Party/Huawei/iot_link/cJSON\cJSON.h **** #define cJSON_Object (1 << 6)
  97:D:/fchai/work/i-cube/I-CUBE-HUAWEI/Middlewares/Third_Party/Huawei/iot_link/cJSON\cJSON.h **** #define cJSON_Raw    (1 << 7) /* raw json */
ARM GAS  T:\msys\tmp\ccjeK7qp.s 			page 16


  98:D:/fchai/work/i-cube/I-CUBE-HUAWEI/Middlewares/Third_Party/Huawei/iot_link/cJSON\cJSON.h **** 
  99:D:/fchai/work/i-cube/I-CUBE-HUAWEI/Middlewares/Third_Party/Huawei/iot_link/cJSON\cJSON.h **** #define cJSON_IsReference 256
 100:D:/fchai/work/i-cube/I-CUBE-HUAWEI/Middlewares/Third_Party/Huawei/iot_link/cJSON\cJSON.h **** #define cJSON_StringIsConst 512
 101:D:/fchai/work/i-cube/I-CUBE-HUAWEI/Middlewares/Third_Party/Huawei/iot_link/cJSON\cJSON.h **** 
 102:D:/fchai/work/i-cube/I-CUBE-HUAWEI/Middlewares/Third_Party/Huawei/iot_link/cJSON\cJSON.h **** /* The cJSON structure: */
 103:D:/fchai/work/i-cube/I-CUBE-HUAWEI/Middlewares/Third_Party/Huawei/iot_link/cJSON\cJSON.h **** typedef struct cJSON
 207              		.loc 7 103 1 is_stmt 1 discriminator 3 view .LVU68
 104:D:/fchai/work/i-cube/I-CUBE-HUAWEI/Middlewares/Third_Party/Huawei/iot_link/cJSON\cJSON.h **** {
 105:D:/fchai/work/i-cube/I-CUBE-HUAWEI/Middlewares/Third_Party/Huawei/iot_link/cJSON\cJSON.h ****     /* next/prev allow you to walk array/object chains. Alternatively, use GetArraySize/GetArrayIte
 106:D:/fchai/work/i-cube/I-CUBE-HUAWEI/Middlewares/Third_Party/Huawei/iot_link/cJSON\cJSON.h ****     struct cJSON *next;
 107:D:/fchai/work/i-cube/I-CUBE-HUAWEI/Middlewares/Third_Party/Huawei/iot_link/cJSON\cJSON.h ****     struct cJSON *prev;
 108:D:/fchai/work/i-cube/I-CUBE-HUAWEI/Middlewares/Third_Party/Huawei/iot_link/cJSON\cJSON.h ****     /* An array or object item will have a child pointer pointing to a chain of the items in the ar
 109:D:/fchai/work/i-cube/I-CUBE-HUAWEI/Middlewares/Third_Party/Huawei/iot_link/cJSON\cJSON.h ****     struct cJSON *child;
 110:D:/fchai/work/i-cube/I-CUBE-HUAWEI/Middlewares/Third_Party/Huawei/iot_link/cJSON\cJSON.h **** 
 111:D:/fchai/work/i-cube/I-CUBE-HUAWEI/Middlewares/Third_Party/Huawei/iot_link/cJSON\cJSON.h ****     /* The type of the item, as above. */
 112:D:/fchai/work/i-cube/I-CUBE-HUAWEI/Middlewares/Third_Party/Huawei/iot_link/cJSON\cJSON.h ****     int type;
 113:D:/fchai/work/i-cube/I-CUBE-HUAWEI/Middlewares/Third_Party/Huawei/iot_link/cJSON\cJSON.h **** 
 114:D:/fchai/work/i-cube/I-CUBE-HUAWEI/Middlewares/Third_Party/Huawei/iot_link/cJSON\cJSON.h ****     /* The item's string, if type==cJSON_String  and type == cJSON_Raw */
 115:D:/fchai/work/i-cube/I-CUBE-HUAWEI/Middlewares/Third_Party/Huawei/iot_link/cJSON\cJSON.h ****     char *valuestring;
 116:D:/fchai/work/i-cube/I-CUBE-HUAWEI/Middlewares/Third_Party/Huawei/iot_link/cJSON\cJSON.h ****     /* writing to valueint is DEPRECATED, use cJSON_SetNumberValue instead */
 117:D:/fchai/work/i-cube/I-CUBE-HUAWEI/Middlewares/Third_Party/Huawei/iot_link/cJSON\cJSON.h ****     int valueint;
 118:D:/fchai/work/i-cube/I-CUBE-HUAWEI/Middlewares/Third_Party/Huawei/iot_link/cJSON\cJSON.h ****     /* The item's number, if type==cJSON_Number */
 119:D:/fchai/work/i-cube/I-CUBE-HUAWEI/Middlewares/Third_Party/Huawei/iot_link/cJSON\cJSON.h ****     double valuedouble;
 120:D:/fchai/work/i-cube/I-CUBE-HUAWEI/Middlewares/Third_Party/Huawei/iot_link/cJSON\cJSON.h **** 
 121:D:/fchai/work/i-cube/I-CUBE-HUAWEI/Middlewares/Third_Party/Huawei/iot_link/cJSON\cJSON.h ****     /* The item's name string, if this item is the child of, or is in the list of subitems of an ob
 122:D:/fchai/work/i-cube/I-CUBE-HUAWEI/Middlewares/Third_Party/Huawei/iot_link/cJSON\cJSON.h ****     char *string;
 123:D:/fchai/work/i-cube/I-CUBE-HUAWEI/Middlewares/Third_Party/Huawei/iot_link/cJSON\cJSON.h **** } cJSON;
 124:D:/fchai/work/i-cube/I-CUBE-HUAWEI/Middlewares/Third_Party/Huawei/iot_link/cJSON\cJSON.h **** 
 125:D:/fchai/work/i-cube/I-CUBE-HUAWEI/Middlewares/Third_Party/Huawei/iot_link/cJSON\cJSON.h **** typedef struct cJSON_Hooks
 208              		.loc 7 125 1 discriminator 3 view .LVU69
 126:D:/fchai/work/i-cube/I-CUBE-HUAWEI/Middlewares/Third_Party/Huawei/iot_link/cJSON\cJSON.h **** {
 127:D:/fchai/work/i-cube/I-CUBE-HUAWEI/Middlewares/Third_Party/Huawei/iot_link/cJSON\cJSON.h ****       /* malloc/free are CDECL on Windows regardless of the default calling convention of the compi
 128:D:/fchai/work/i-cube/I-CUBE-HUAWEI/Middlewares/Third_Party/Huawei/iot_link/cJSON\cJSON.h ****       void *(CJSON_CDECL *malloc_fn)(size_t sz);
 129:D:/fchai/work/i-cube/I-CUBE-HUAWEI/Middlewares/Third_Party/Huawei/iot_link/cJSON\cJSON.h ****       void (CJSON_CDECL *free_fn)(void *ptr);
 130:D:/fchai/work/i-cube/I-CUBE-HUAWEI/Middlewares/Third_Party/Huawei/iot_link/cJSON\cJSON.h **** } cJSON_Hooks;
 131:D:/fchai/work/i-cube/I-CUBE-HUAWEI/Middlewares/Third_Party/Huawei/iot_link/cJSON\cJSON.h **** 
 132:D:/fchai/work/i-cube/I-CUBE-HUAWEI/Middlewares/Third_Party/Huawei/iot_link/cJSON\cJSON.h **** typedef int cJSON_bool;
 209              		.loc 7 132 1 discriminator 3 view .LVU70
 133:D:/fchai/work/i-cube/I-CUBE-HUAWEI/Middlewares/Third_Party/Huawei/iot_link/cJSON\cJSON.h **** 
 134:D:/fchai/work/i-cube/I-CUBE-HUAWEI/Middlewares/Third_Party/Huawei/iot_link/cJSON\cJSON.h **** /* Limits how deeply nested arrays/objects can be before cJSON rejects to parse them.
 135:D:/fchai/work/i-cube/I-CUBE-HUAWEI/Middlewares/Third_Party/Huawei/iot_link/cJSON\cJSON.h ****  * This is to prevent stack overflows. */
 136:D:/fchai/work/i-cube/I-CUBE-HUAWEI/Middlewares/Third_Party/Huawei/iot_link/cJSON\cJSON.h **** #ifndef CJSON_NESTING_LIMIT
 137:D:/fchai/work/i-cube/I-CUBE-HUAWEI/Middlewares/Third_Party/Huawei/iot_link/cJSON\cJSON.h **** #define CJSON_NESTING_LIMIT 10
 138:D:/fchai/work/i-cube/I-CUBE-HUAWEI/Middlewares/Third_Party/Huawei/iot_link/cJSON\cJSON.h **** #endif
 139:D:/fchai/work/i-cube/I-CUBE-HUAWEI/Middlewares/Third_Party/Huawei/iot_link/cJSON\cJSON.h **** 
 140:D:/fchai/work/i-cube/I-CUBE-HUAWEI/Middlewares/Third_Party/Huawei/iot_link/cJSON\cJSON.h **** /* returns the version of cJSON as a string */
 141:D:/fchai/work/i-cube/I-CUBE-HUAWEI/Middlewares/Third_Party/Huawei/iot_link/cJSON\cJSON.h **** CJSON_PUBLIC(const char*) cJSON_Version(void);
 210              		.loc 7 141 1 discriminator 3 view .LVU71
 142:D:/fchai/work/i-cube/I-CUBE-HUAWEI/Middlewares/Third_Party/Huawei/iot_link/cJSON\cJSON.h **** 
 143:D:/fchai/work/i-cube/I-CUBE-HUAWEI/Middlewares/Third_Party/Huawei/iot_link/cJSON\cJSON.h **** /* Supply malloc, realloc and free functions to cJSON */
 144:D:/fchai/work/i-cube/I-CUBE-HUAWEI/Middlewares/Third_Party/Huawei/iot_link/cJSON\cJSON.h **** CJSON_PUBLIC(void) cJSON_InitHooks(cJSON_Hooks* hooks);
 211              		.loc 7 144 1 discriminator 3 view .LVU72
 145:D:/fchai/work/i-cube/I-CUBE-HUAWEI/Middlewares/Third_Party/Huawei/iot_link/cJSON\cJSON.h **** 
 146:D:/fchai/work/i-cube/I-CUBE-HUAWEI/Middlewares/Third_Party/Huawei/iot_link/cJSON\cJSON.h **** /* Memory Management: the caller is always responsible to free the results from all variants of cJS
 147:D:/fchai/work/i-cube/I-CUBE-HUAWEI/Middlewares/Third_Party/Huawei/iot_link/cJSON\cJSON.h **** /* Supply a block of JSON, and this returns a cJSON object you can interrogate. */
 148:D:/fchai/work/i-cube/I-CUBE-HUAWEI/Middlewares/Third_Party/Huawei/iot_link/cJSON\cJSON.h **** CJSON_PUBLIC(cJSON *) cJSON_Parse(const char *value);
 212              		.loc 7 148 1 discriminator 3 view .LVU73
ARM GAS  T:\msys\tmp\ccjeK7qp.s 			page 17


 149:D:/fchai/work/i-cube/I-CUBE-HUAWEI/Middlewares/Third_Party/Huawei/iot_link/cJSON\cJSON.h **** /* ParseWithOpts allows you to require (and check) that the JSON is null terminated, and to retriev
 150:D:/fchai/work/i-cube/I-CUBE-HUAWEI/Middlewares/Third_Party/Huawei/iot_link/cJSON\cJSON.h **** /* If you supply a ptr in return_parse_end and parsing fails, then return_parse_end will contain a 
 151:D:/fchai/work/i-cube/I-CUBE-HUAWEI/Middlewares/Third_Party/Huawei/iot_link/cJSON\cJSON.h **** CJSON_PUBLIC(cJSON *) cJSON_ParseWithOpts(const char *value, const char **return_parse_end, cJSON_b
 213              		.loc 7 151 1 discriminator 3 view .LVU74
 152:D:/fchai/work/i-cube/I-CUBE-HUAWEI/Middlewares/Third_Party/Huawei/iot_link/cJSON\cJSON.h **** 
 153:D:/fchai/work/i-cube/I-CUBE-HUAWEI/Middlewares/Third_Party/Huawei/iot_link/cJSON\cJSON.h **** /* Render a cJSON entity to text for transfer/storage. */
 154:D:/fchai/work/i-cube/I-CUBE-HUAWEI/Middlewares/Third_Party/Huawei/iot_link/cJSON\cJSON.h **** CJSON_PUBLIC(char *) cJSON_Print(const cJSON *item);
 214              		.loc 7 154 1 discriminator 3 view .LVU75
 155:D:/fchai/work/i-cube/I-CUBE-HUAWEI/Middlewares/Third_Party/Huawei/iot_link/cJSON\cJSON.h **** /* Render a cJSON entity to text for transfer/storage without any formatting. */
 156:D:/fchai/work/i-cube/I-CUBE-HUAWEI/Middlewares/Third_Party/Huawei/iot_link/cJSON\cJSON.h **** CJSON_PUBLIC(char *) cJSON_PrintUnformatted(const cJSON *item);
 215              		.loc 7 156 1 discriminator 3 view .LVU76
 157:D:/fchai/work/i-cube/I-CUBE-HUAWEI/Middlewares/Third_Party/Huawei/iot_link/cJSON\cJSON.h **** /* Render a cJSON entity to text using a buffered strategy. prebuffer is a guess at the final size.
 158:D:/fchai/work/i-cube/I-CUBE-HUAWEI/Middlewares/Third_Party/Huawei/iot_link/cJSON\cJSON.h **** CJSON_PUBLIC(char *) cJSON_PrintBuffered(const cJSON *item, int prebuffer, cJSON_bool fmt);
 216              		.loc 7 158 1 discriminator 3 view .LVU77
 159:D:/fchai/work/i-cube/I-CUBE-HUAWEI/Middlewares/Third_Party/Huawei/iot_link/cJSON\cJSON.h **** /* Render a cJSON entity to text using a buffer already allocated in memory with given length. Retu
 160:D:/fchai/work/i-cube/I-CUBE-HUAWEI/Middlewares/Third_Party/Huawei/iot_link/cJSON\cJSON.h **** /* NOTE: cJSON is not always 100% accurate in estimating how much memory it will use, so to be safe
 161:D:/fchai/work/i-cube/I-CUBE-HUAWEI/Middlewares/Third_Party/Huawei/iot_link/cJSON\cJSON.h **** CJSON_PUBLIC(cJSON_bool) cJSON_PrintPreallocated(cJSON *item, char *buffer, const int length, const
 217              		.loc 7 161 1 discriminator 3 view .LVU78
 162:D:/fchai/work/i-cube/I-CUBE-HUAWEI/Middlewares/Third_Party/Huawei/iot_link/cJSON\cJSON.h **** /* Delete a cJSON entity and all subentities. */
 163:D:/fchai/work/i-cube/I-CUBE-HUAWEI/Middlewares/Third_Party/Huawei/iot_link/cJSON\cJSON.h **** CJSON_PUBLIC(void) cJSON_Delete(cJSON *c);
 218              		.loc 7 163 1 discriminator 3 view .LVU79
 164:D:/fchai/work/i-cube/I-CUBE-HUAWEI/Middlewares/Third_Party/Huawei/iot_link/cJSON\cJSON.h **** 
 165:D:/fchai/work/i-cube/I-CUBE-HUAWEI/Middlewares/Third_Party/Huawei/iot_link/cJSON\cJSON.h **** /* Returns the number of items in an array (or object). */
 166:D:/fchai/work/i-cube/I-CUBE-HUAWEI/Middlewares/Third_Party/Huawei/iot_link/cJSON\cJSON.h **** CJSON_PUBLIC(int) cJSON_GetArraySize(const cJSON *array);
 219              		.loc 7 166 1 discriminator 3 view .LVU80
 167:D:/fchai/work/i-cube/I-CUBE-HUAWEI/Middlewares/Third_Party/Huawei/iot_link/cJSON\cJSON.h **** /* Retrieve item number "index" from array "array". Returns NULL if unsuccessful. */
 168:D:/fchai/work/i-cube/I-CUBE-HUAWEI/Middlewares/Third_Party/Huawei/iot_link/cJSON\cJSON.h **** CJSON_PUBLIC(cJSON *) cJSON_GetArrayItem(const cJSON *array, int index);
 220              		.loc 7 168 1 discriminator 3 view .LVU81
 169:D:/fchai/work/i-cube/I-CUBE-HUAWEI/Middlewares/Third_Party/Huawei/iot_link/cJSON\cJSON.h **** /* Get item "string" from object. Case insensitive. */
 170:D:/fchai/work/i-cube/I-CUBE-HUAWEI/Middlewares/Third_Party/Huawei/iot_link/cJSON\cJSON.h **** CJSON_PUBLIC(cJSON *) cJSON_GetObjectItem(const cJSON * const object, const char * const string);
 221              		.loc 7 170 1 discriminator 3 view .LVU82
 171:D:/fchai/work/i-cube/I-CUBE-HUAWEI/Middlewares/Third_Party/Huawei/iot_link/cJSON\cJSON.h **** CJSON_PUBLIC(cJSON *) cJSON_GetObjectItemCaseSensitive(const cJSON * const object, const char * con
 222              		.loc 7 171 1 discriminator 3 view .LVU83
 172:D:/fchai/work/i-cube/I-CUBE-HUAWEI/Middlewares/Third_Party/Huawei/iot_link/cJSON\cJSON.h **** CJSON_PUBLIC(cJSON_bool) cJSON_HasObjectItem(const cJSON *object, const char *string);
 223              		.loc 7 172 1 discriminator 3 view .LVU84
 173:D:/fchai/work/i-cube/I-CUBE-HUAWEI/Middlewares/Third_Party/Huawei/iot_link/cJSON\cJSON.h **** /* For analysing failed parses. This returns a pointer to the parse error. You'll probably need to 
 174:D:/fchai/work/i-cube/I-CUBE-HUAWEI/Middlewares/Third_Party/Huawei/iot_link/cJSON\cJSON.h **** CJSON_PUBLIC(const char *) cJSON_GetErrorPtr(void);
 224              		.loc 7 174 1 discriminator 3 view .LVU85
 175:D:/fchai/work/i-cube/I-CUBE-HUAWEI/Middlewares/Third_Party/Huawei/iot_link/cJSON\cJSON.h **** 
 176:D:/fchai/work/i-cube/I-CUBE-HUAWEI/Middlewares/Third_Party/Huawei/iot_link/cJSON\cJSON.h **** /* Check if the item is a string and return its valuestring */
 177:D:/fchai/work/i-cube/I-CUBE-HUAWEI/Middlewares/Third_Party/Huawei/iot_link/cJSON\cJSON.h **** CJSON_PUBLIC(char *) cJSON_GetStringValue(cJSON *item);
 225              		.loc 7 177 1 discriminator 3 view .LVU86
 178:D:/fchai/work/i-cube/I-CUBE-HUAWEI/Middlewares/Third_Party/Huawei/iot_link/cJSON\cJSON.h **** 
 179:D:/fchai/work/i-cube/I-CUBE-HUAWEI/Middlewares/Third_Party/Huawei/iot_link/cJSON\cJSON.h **** /* These functions check the type of an item */
 180:D:/fchai/work/i-cube/I-CUBE-HUAWEI/Middlewares/Third_Party/Huawei/iot_link/cJSON\cJSON.h **** CJSON_PUBLIC(cJSON_bool) cJSON_IsInvalid(const cJSON * const item);
 226              		.loc 7 180 1 discriminator 3 view .LVU87
 181:D:/fchai/work/i-cube/I-CUBE-HUAWEI/Middlewares/Third_Party/Huawei/iot_link/cJSON\cJSON.h **** CJSON_PUBLIC(cJSON_bool) cJSON_IsFalse(const cJSON * const item);
 227              		.loc 7 181 1 discriminator 3 view .LVU88
 182:D:/fchai/work/i-cube/I-CUBE-HUAWEI/Middlewares/Third_Party/Huawei/iot_link/cJSON\cJSON.h **** CJSON_PUBLIC(cJSON_bool) cJSON_IsTrue(const cJSON * const item);
 228              		.loc 7 182 1 discriminator 3 view .LVU89
 183:D:/fchai/work/i-cube/I-CUBE-HUAWEI/Middlewares/Third_Party/Huawei/iot_link/cJSON\cJSON.h **** CJSON_PUBLIC(cJSON_bool) cJSON_IsBool(const cJSON * const item);
 229              		.loc 7 183 1 discriminator 3 view .LVU90
 184:D:/fchai/work/i-cube/I-CUBE-HUAWEI/Middlewares/Third_Party/Huawei/iot_link/cJSON\cJSON.h **** CJSON_PUBLIC(cJSON_bool) cJSON_IsNull(const cJSON * const item);
 230              		.loc 7 184 1 discriminator 3 view .LVU91
 185:D:/fchai/work/i-cube/I-CUBE-HUAWEI/Middlewares/Third_Party/Huawei/iot_link/cJSON\cJSON.h **** CJSON_PUBLIC(cJSON_bool) cJSON_IsNumber(const cJSON * const item);
 231              		.loc 7 185 1 discriminator 3 view .LVU92
 186:D:/fchai/work/i-cube/I-CUBE-HUAWEI/Middlewares/Third_Party/Huawei/iot_link/cJSON\cJSON.h **** CJSON_PUBLIC(cJSON_bool) cJSON_IsString(const cJSON * const item);
ARM GAS  T:\msys\tmp\ccjeK7qp.s 			page 18


 232              		.loc 7 186 1 discriminator 3 view .LVU93
 187:D:/fchai/work/i-cube/I-CUBE-HUAWEI/Middlewares/Third_Party/Huawei/iot_link/cJSON\cJSON.h **** CJSON_PUBLIC(cJSON_bool) cJSON_IsArray(const cJSON * const item);
 233              		.loc 7 187 1 discriminator 3 view .LVU94
 188:D:/fchai/work/i-cube/I-CUBE-HUAWEI/Middlewares/Third_Party/Huawei/iot_link/cJSON\cJSON.h **** CJSON_PUBLIC(cJSON_bool) cJSON_IsObject(const cJSON * const item);
 234              		.loc 7 188 1 discriminator 3 view .LVU95
 189:D:/fchai/work/i-cube/I-CUBE-HUAWEI/Middlewares/Third_Party/Huawei/iot_link/cJSON\cJSON.h **** CJSON_PUBLIC(cJSON_bool) cJSON_IsRaw(const cJSON * const item);
 235              		.loc 7 189 1 discriminator 3 view .LVU96
 190:D:/fchai/work/i-cube/I-CUBE-HUAWEI/Middlewares/Third_Party/Huawei/iot_link/cJSON\cJSON.h **** 
 191:D:/fchai/work/i-cube/I-CUBE-HUAWEI/Middlewares/Third_Party/Huawei/iot_link/cJSON\cJSON.h **** /* These calls create a cJSON item of the appropriate type. */
 192:D:/fchai/work/i-cube/I-CUBE-HUAWEI/Middlewares/Third_Party/Huawei/iot_link/cJSON\cJSON.h **** CJSON_PUBLIC(cJSON *) cJSON_CreateNull(void);
 236              		.loc 7 192 1 discriminator 3 view .LVU97
 193:D:/fchai/work/i-cube/I-CUBE-HUAWEI/Middlewares/Third_Party/Huawei/iot_link/cJSON\cJSON.h **** CJSON_PUBLIC(cJSON *) cJSON_CreateTrue(void);
 237              		.loc 7 193 1 discriminator 3 view .LVU98
 194:D:/fchai/work/i-cube/I-CUBE-HUAWEI/Middlewares/Third_Party/Huawei/iot_link/cJSON\cJSON.h **** CJSON_PUBLIC(cJSON *) cJSON_CreateFalse(void);
 238              		.loc 7 194 1 discriminator 3 view .LVU99
 195:D:/fchai/work/i-cube/I-CUBE-HUAWEI/Middlewares/Third_Party/Huawei/iot_link/cJSON\cJSON.h **** CJSON_PUBLIC(cJSON *) cJSON_CreateBool(cJSON_bool boolean);
 239              		.loc 7 195 1 discriminator 3 view .LVU100
 196:D:/fchai/work/i-cube/I-CUBE-HUAWEI/Middlewares/Third_Party/Huawei/iot_link/cJSON\cJSON.h **** CJSON_PUBLIC(cJSON *) cJSON_CreateNumber(double num);
 240              		.loc 7 196 1 discriminator 3 view .LVU101
 197:D:/fchai/work/i-cube/I-CUBE-HUAWEI/Middlewares/Third_Party/Huawei/iot_link/cJSON\cJSON.h **** CJSON_PUBLIC(cJSON *) cJSON_CreateString(const char *string);
 241              		.loc 7 197 1 discriminator 3 view .LVU102
 198:D:/fchai/work/i-cube/I-CUBE-HUAWEI/Middlewares/Third_Party/Huawei/iot_link/cJSON\cJSON.h **** /* raw json */
 199:D:/fchai/work/i-cube/I-CUBE-HUAWEI/Middlewares/Third_Party/Huawei/iot_link/cJSON\cJSON.h **** CJSON_PUBLIC(cJSON *) cJSON_CreateRaw(const char *raw);
 242              		.loc 7 199 1 discriminator 3 view .LVU103
 200:D:/fchai/work/i-cube/I-CUBE-HUAWEI/Middlewares/Third_Party/Huawei/iot_link/cJSON\cJSON.h **** CJSON_PUBLIC(cJSON *) cJSON_CreateArray(void);
 243              		.loc 7 200 1 discriminator 3 view .LVU104
 201:D:/fchai/work/i-cube/I-CUBE-HUAWEI/Middlewares/Third_Party/Huawei/iot_link/cJSON\cJSON.h **** CJSON_PUBLIC(cJSON *) cJSON_CreateObject(void);
 244              		.loc 7 201 1 discriminator 3 view .LVU105
 202:D:/fchai/work/i-cube/I-CUBE-HUAWEI/Middlewares/Third_Party/Huawei/iot_link/cJSON\cJSON.h **** 
 203:D:/fchai/work/i-cube/I-CUBE-HUAWEI/Middlewares/Third_Party/Huawei/iot_link/cJSON\cJSON.h **** /* Create a string where valuestring references a string so
 204:D:/fchai/work/i-cube/I-CUBE-HUAWEI/Middlewares/Third_Party/Huawei/iot_link/cJSON\cJSON.h ****  * it will not be freed by cJSON_Delete */
 205:D:/fchai/work/i-cube/I-CUBE-HUAWEI/Middlewares/Third_Party/Huawei/iot_link/cJSON\cJSON.h **** CJSON_PUBLIC(cJSON *) cJSON_CreateStringReference(const char *string);
 245              		.loc 7 205 1 discriminator 3 view .LVU106
 206:D:/fchai/work/i-cube/I-CUBE-HUAWEI/Middlewares/Third_Party/Huawei/iot_link/cJSON\cJSON.h **** /* Create an object/arrray that only references it's elements so
 207:D:/fchai/work/i-cube/I-CUBE-HUAWEI/Middlewares/Third_Party/Huawei/iot_link/cJSON\cJSON.h ****  * they will not be freed by cJSON_Delete */
 208:D:/fchai/work/i-cube/I-CUBE-HUAWEI/Middlewares/Third_Party/Huawei/iot_link/cJSON\cJSON.h **** CJSON_PUBLIC(cJSON *) cJSON_CreateObjectReference(const cJSON *child);
 246              		.loc 7 208 1 discriminator 3 view .LVU107
 209:D:/fchai/work/i-cube/I-CUBE-HUAWEI/Middlewares/Third_Party/Huawei/iot_link/cJSON\cJSON.h **** CJSON_PUBLIC(cJSON *) cJSON_CreateArrayReference(const cJSON *child);
 247              		.loc 7 209 1 discriminator 3 view .LVU108
 210:D:/fchai/work/i-cube/I-CUBE-HUAWEI/Middlewares/Third_Party/Huawei/iot_link/cJSON\cJSON.h **** 
 211:D:/fchai/work/i-cube/I-CUBE-HUAWEI/Middlewares/Third_Party/Huawei/iot_link/cJSON\cJSON.h **** /* These utilities create an Array of count items. */
 212:D:/fchai/work/i-cube/I-CUBE-HUAWEI/Middlewares/Third_Party/Huawei/iot_link/cJSON\cJSON.h **** CJSON_PUBLIC(cJSON *) cJSON_CreateIntArray(const int *numbers, int count);
 248              		.loc 7 212 1 discriminator 3 view .LVU109
 213:D:/fchai/work/i-cube/I-CUBE-HUAWEI/Middlewares/Third_Party/Huawei/iot_link/cJSON\cJSON.h **** CJSON_PUBLIC(cJSON *) cJSON_CreateFloatArray(const float *numbers, int count);
 249              		.loc 7 213 1 discriminator 3 view .LVU110
 214:D:/fchai/work/i-cube/I-CUBE-HUAWEI/Middlewares/Third_Party/Huawei/iot_link/cJSON\cJSON.h **** CJSON_PUBLIC(cJSON *) cJSON_CreateDoubleArray(const double *numbers, int count);
 250              		.loc 7 214 1 discriminator 3 view .LVU111
 215:D:/fchai/work/i-cube/I-CUBE-HUAWEI/Middlewares/Third_Party/Huawei/iot_link/cJSON\cJSON.h **** CJSON_PUBLIC(cJSON *) cJSON_CreateStringArray(const char **strings, int count);
 251              		.loc 7 215 1 discriminator 3 view .LVU112
 216:D:/fchai/work/i-cube/I-CUBE-HUAWEI/Middlewares/Third_Party/Huawei/iot_link/cJSON\cJSON.h **** 
 217:D:/fchai/work/i-cube/I-CUBE-HUAWEI/Middlewares/Third_Party/Huawei/iot_link/cJSON\cJSON.h **** /* Append item to the specified array/object. */
 218:D:/fchai/work/i-cube/I-CUBE-HUAWEI/Middlewares/Third_Party/Huawei/iot_link/cJSON\cJSON.h **** CJSON_PUBLIC(void) cJSON_AddItemToArray(cJSON *array, cJSON *item);
 252              		.loc 7 218 1 discriminator 3 view .LVU113
 219:D:/fchai/work/i-cube/I-CUBE-HUAWEI/Middlewares/Third_Party/Huawei/iot_link/cJSON\cJSON.h **** CJSON_PUBLIC(void) cJSON_AddItemToObject(cJSON *object, const char *string, cJSON *item);
 253              		.loc 7 219 1 discriminator 3 view .LVU114
 220:D:/fchai/work/i-cube/I-CUBE-HUAWEI/Middlewares/Third_Party/Huawei/iot_link/cJSON\cJSON.h **** /* Use this when string is definitely const (i.e. a literal, or as good as), and will definitely su
 221:D:/fchai/work/i-cube/I-CUBE-HUAWEI/Middlewares/Third_Party/Huawei/iot_link/cJSON\cJSON.h ****  * WARNING: When this function was used, make sure to always check that (item->type & cJSON_StringI
ARM GAS  T:\msys\tmp\ccjeK7qp.s 			page 19


 222:D:/fchai/work/i-cube/I-CUBE-HUAWEI/Middlewares/Third_Party/Huawei/iot_link/cJSON\cJSON.h ****  * writing to `item->string` */
 223:D:/fchai/work/i-cube/I-CUBE-HUAWEI/Middlewares/Third_Party/Huawei/iot_link/cJSON\cJSON.h **** CJSON_PUBLIC(void) cJSON_AddItemToObjectCS(cJSON *object, const char *string, cJSON *item);
 254              		.loc 7 223 1 discriminator 3 view .LVU115
 224:D:/fchai/work/i-cube/I-CUBE-HUAWEI/Middlewares/Third_Party/Huawei/iot_link/cJSON\cJSON.h **** /* Append reference to item to the specified array/object. Use this when you want to add an existin
 225:D:/fchai/work/i-cube/I-CUBE-HUAWEI/Middlewares/Third_Party/Huawei/iot_link/cJSON\cJSON.h **** CJSON_PUBLIC(void) cJSON_AddItemReferenceToArray(cJSON *array, cJSON *item);
 255              		.loc 7 225 1 discriminator 3 view .LVU116
 226:D:/fchai/work/i-cube/I-CUBE-HUAWEI/Middlewares/Third_Party/Huawei/iot_link/cJSON\cJSON.h **** CJSON_PUBLIC(void) cJSON_AddItemReferenceToObject(cJSON *object, const char *string, cJSON *item);
 256              		.loc 7 226 1 discriminator 3 view .LVU117
 227:D:/fchai/work/i-cube/I-CUBE-HUAWEI/Middlewares/Third_Party/Huawei/iot_link/cJSON\cJSON.h **** 
 228:D:/fchai/work/i-cube/I-CUBE-HUAWEI/Middlewares/Third_Party/Huawei/iot_link/cJSON\cJSON.h **** /* Remove/Detatch items from Arrays/Objects. */
 229:D:/fchai/work/i-cube/I-CUBE-HUAWEI/Middlewares/Third_Party/Huawei/iot_link/cJSON\cJSON.h **** CJSON_PUBLIC(cJSON *) cJSON_DetachItemViaPointer(cJSON *parent, cJSON * const item);
 257              		.loc 7 229 1 discriminator 3 view .LVU118
 230:D:/fchai/work/i-cube/I-CUBE-HUAWEI/Middlewares/Third_Party/Huawei/iot_link/cJSON\cJSON.h **** CJSON_PUBLIC(cJSON *) cJSON_DetachItemFromArray(cJSON *array, int which);
 258              		.loc 7 230 1 discriminator 3 view .LVU119
 231:D:/fchai/work/i-cube/I-CUBE-HUAWEI/Middlewares/Third_Party/Huawei/iot_link/cJSON\cJSON.h **** CJSON_PUBLIC(void) cJSON_DeleteItemFromArray(cJSON *array, int which);
 259              		.loc 7 231 1 discriminator 3 view .LVU120
 232:D:/fchai/work/i-cube/I-CUBE-HUAWEI/Middlewares/Third_Party/Huawei/iot_link/cJSON\cJSON.h **** CJSON_PUBLIC(cJSON *) cJSON_DetachItemFromObject(cJSON *object, const char *string);
 260              		.loc 7 232 1 discriminator 3 view .LVU121
 233:D:/fchai/work/i-cube/I-CUBE-HUAWEI/Middlewares/Third_Party/Huawei/iot_link/cJSON\cJSON.h **** CJSON_PUBLIC(cJSON *) cJSON_DetachItemFromObjectCaseSensitive(cJSON *object, const char *string);
 261              		.loc 7 233 1 discriminator 3 view .LVU122
 234:D:/fchai/work/i-cube/I-CUBE-HUAWEI/Middlewares/Third_Party/Huawei/iot_link/cJSON\cJSON.h **** CJSON_PUBLIC(void) cJSON_DeleteItemFromObject(cJSON *object, const char *string);
 262              		.loc 7 234 1 discriminator 3 view .LVU123
 235:D:/fchai/work/i-cube/I-CUBE-HUAWEI/Middlewares/Third_Party/Huawei/iot_link/cJSON\cJSON.h **** CJSON_PUBLIC(void) cJSON_DeleteItemFromObjectCaseSensitive(cJSON *object, const char *string);
 263              		.loc 7 235 1 discriminator 3 view .LVU124
 236:D:/fchai/work/i-cube/I-CUBE-HUAWEI/Middlewares/Third_Party/Huawei/iot_link/cJSON\cJSON.h **** 
 237:D:/fchai/work/i-cube/I-CUBE-HUAWEI/Middlewares/Third_Party/Huawei/iot_link/cJSON\cJSON.h **** /* Update array items. */
 238:D:/fchai/work/i-cube/I-CUBE-HUAWEI/Middlewares/Third_Party/Huawei/iot_link/cJSON\cJSON.h **** CJSON_PUBLIC(void) cJSON_InsertItemInArray(cJSON *array, int which, cJSON *newitem); /* Shifts pre-
 264              		.loc 7 238 1 discriminator 3 view .LVU125
 239:D:/fchai/work/i-cube/I-CUBE-HUAWEI/Middlewares/Third_Party/Huawei/iot_link/cJSON\cJSON.h **** CJSON_PUBLIC(cJSON_bool) cJSON_ReplaceItemViaPointer(cJSON * const parent, cJSON * const item, cJSO
 265              		.loc 7 239 1 discriminator 3 view .LVU126
 240:D:/fchai/work/i-cube/I-CUBE-HUAWEI/Middlewares/Third_Party/Huawei/iot_link/cJSON\cJSON.h **** CJSON_PUBLIC(void) cJSON_ReplaceItemInArray(cJSON *array, int which, cJSON *newitem);
 266              		.loc 7 240 1 discriminator 3 view .LVU127
 241:D:/fchai/work/i-cube/I-CUBE-HUAWEI/Middlewares/Third_Party/Huawei/iot_link/cJSON\cJSON.h **** CJSON_PUBLIC(void) cJSON_ReplaceItemInObject(cJSON *object,const char *string,cJSON *newitem);
 267              		.loc 7 241 1 discriminator 3 view .LVU128
 242:D:/fchai/work/i-cube/I-CUBE-HUAWEI/Middlewares/Third_Party/Huawei/iot_link/cJSON\cJSON.h **** CJSON_PUBLIC(void) cJSON_ReplaceItemInObjectCaseSensitive(cJSON *object,const char *string,cJSON *n
 268              		.loc 7 242 1 discriminator 3 view .LVU129
 243:D:/fchai/work/i-cube/I-CUBE-HUAWEI/Middlewares/Third_Party/Huawei/iot_link/cJSON\cJSON.h **** 
 244:D:/fchai/work/i-cube/I-CUBE-HUAWEI/Middlewares/Third_Party/Huawei/iot_link/cJSON\cJSON.h **** /* Duplicate a cJSON item */
 245:D:/fchai/work/i-cube/I-CUBE-HUAWEI/Middlewares/Third_Party/Huawei/iot_link/cJSON\cJSON.h **** CJSON_PUBLIC(cJSON *) cJSON_Duplicate(const cJSON *item, cJSON_bool recurse);
 269              		.loc 7 245 1 discriminator 3 view .LVU130
 246:D:/fchai/work/i-cube/I-CUBE-HUAWEI/Middlewares/Third_Party/Huawei/iot_link/cJSON\cJSON.h **** /* Duplicate will create a new, identical cJSON item to the one you pass, in new memory that will
 247:D:/fchai/work/i-cube/I-CUBE-HUAWEI/Middlewares/Third_Party/Huawei/iot_link/cJSON\cJSON.h **** need to be released. With recurse!=0, it will duplicate any children connected to the item.
 248:D:/fchai/work/i-cube/I-CUBE-HUAWEI/Middlewares/Third_Party/Huawei/iot_link/cJSON\cJSON.h **** The item->next and ->prev pointers are always zero on return from Duplicate. */
 249:D:/fchai/work/i-cube/I-CUBE-HUAWEI/Middlewares/Third_Party/Huawei/iot_link/cJSON\cJSON.h **** /* Recursively compare two cJSON items for equality. If either a or b is NULL or invalid, they will
 250:D:/fchai/work/i-cube/I-CUBE-HUAWEI/Middlewares/Third_Party/Huawei/iot_link/cJSON\cJSON.h ****  * case_sensitive determines if object keys are treated case sensitive (1) or case insensitive (0) 
 251:D:/fchai/work/i-cube/I-CUBE-HUAWEI/Middlewares/Third_Party/Huawei/iot_link/cJSON\cJSON.h **** CJSON_PUBLIC(cJSON_bool) cJSON_Compare(const cJSON * const a, const cJSON * const b, const cJSON_bo
 270              		.loc 7 251 1 discriminator 3 view .LVU131
 252:D:/fchai/work/i-cube/I-CUBE-HUAWEI/Middlewares/Third_Party/Huawei/iot_link/cJSON\cJSON.h **** 
 253:D:/fchai/work/i-cube/I-CUBE-HUAWEI/Middlewares/Third_Party/Huawei/iot_link/cJSON\cJSON.h **** 
 254:D:/fchai/work/i-cube/I-CUBE-HUAWEI/Middlewares/Third_Party/Huawei/iot_link/cJSON\cJSON.h **** CJSON_PUBLIC(void) cJSON_Minify(char *json);
 271              		.loc 7 254 1 discriminator 3 view .LVU132
 255:D:/fchai/work/i-cube/I-CUBE-HUAWEI/Middlewares/Third_Party/Huawei/iot_link/cJSON\cJSON.h **** 
 256:D:/fchai/work/i-cube/I-CUBE-HUAWEI/Middlewares/Third_Party/Huawei/iot_link/cJSON\cJSON.h **** /* Helper functions for creating and adding items to an object at the same time.
 257:D:/fchai/work/i-cube/I-CUBE-HUAWEI/Middlewares/Third_Party/Huawei/iot_link/cJSON\cJSON.h ****  * They return the added item or NULL on failure. */
 258:D:/fchai/work/i-cube/I-CUBE-HUAWEI/Middlewares/Third_Party/Huawei/iot_link/cJSON\cJSON.h **** CJSON_PUBLIC(cJSON*) cJSON_AddNullToObject(cJSON * const object, const char * const name);
 272              		.loc 7 258 1 discriminator 3 view .LVU133
 259:D:/fchai/work/i-cube/I-CUBE-HUAWEI/Middlewares/Third_Party/Huawei/iot_link/cJSON\cJSON.h **** CJSON_PUBLIC(cJSON*) cJSON_AddTrueToObject(cJSON * const object, const char * const name);
ARM GAS  T:\msys\tmp\ccjeK7qp.s 			page 20


 273              		.loc 7 259 1 discriminator 3 view .LVU134
 260:D:/fchai/work/i-cube/I-CUBE-HUAWEI/Middlewares/Third_Party/Huawei/iot_link/cJSON\cJSON.h **** CJSON_PUBLIC(cJSON*) cJSON_AddFalseToObject(cJSON * const object, const char * const name);
 274              		.loc 7 260 1 discriminator 3 view .LVU135
 261:D:/fchai/work/i-cube/I-CUBE-HUAWEI/Middlewares/Third_Party/Huawei/iot_link/cJSON\cJSON.h **** CJSON_PUBLIC(cJSON*) cJSON_AddBoolToObject(cJSON * const object, const char * const name, const cJS
 275              		.loc 7 261 1 discriminator 3 view .LVU136
 262:D:/fchai/work/i-cube/I-CUBE-HUAWEI/Middlewares/Third_Party/Huawei/iot_link/cJSON\cJSON.h **** CJSON_PUBLIC(cJSON*) cJSON_AddNumberToObject(cJSON * const object, const char * const name, const d
 276              		.loc 7 262 1 discriminator 3 view .LVU137
 263:D:/fchai/work/i-cube/I-CUBE-HUAWEI/Middlewares/Third_Party/Huawei/iot_link/cJSON\cJSON.h **** CJSON_PUBLIC(cJSON*) cJSON_AddStringToObject(cJSON * const object, const char * const name, const c
 277              		.loc 7 263 1 discriminator 3 view .LVU138
 264:D:/fchai/work/i-cube/I-CUBE-HUAWEI/Middlewares/Third_Party/Huawei/iot_link/cJSON\cJSON.h **** CJSON_PUBLIC(cJSON*) cJSON_AddRawToObject(cJSON * const object, const char * const name, const char
 278              		.loc 7 264 1 discriminator 3 view .LVU139
 265:D:/fchai/work/i-cube/I-CUBE-HUAWEI/Middlewares/Third_Party/Huawei/iot_link/cJSON\cJSON.h **** CJSON_PUBLIC(cJSON*) cJSON_AddObjectToObject(cJSON * const object, const char * const name);
 279              		.loc 7 265 1 discriminator 3 view .LVU140
 266:D:/fchai/work/i-cube/I-CUBE-HUAWEI/Middlewares/Third_Party/Huawei/iot_link/cJSON\cJSON.h **** CJSON_PUBLIC(cJSON*) cJSON_AddArrayToObject(cJSON * const object, const char * const name);
 280              		.loc 7 266 1 discriminator 3 view .LVU141
 267:D:/fchai/work/i-cube/I-CUBE-HUAWEI/Middlewares/Third_Party/Huawei/iot_link/cJSON\cJSON.h **** 
 268:D:/fchai/work/i-cube/I-CUBE-HUAWEI/Middlewares/Third_Party/Huawei/iot_link/cJSON\cJSON.h **** /* When assigning an integer value, it needs to be propagated to valuedouble too. */
 269:D:/fchai/work/i-cube/I-CUBE-HUAWEI/Middlewares/Third_Party/Huawei/iot_link/cJSON\cJSON.h **** #define cJSON_SetIntValue(object, number) ((object) ? (object)->valueint = (object)->valuedouble = 
 270:D:/fchai/work/i-cube/I-CUBE-HUAWEI/Middlewares/Third_Party/Huawei/iot_link/cJSON\cJSON.h **** /* helper for the cJSON_SetNumberValue macro */
 271:D:/fchai/work/i-cube/I-CUBE-HUAWEI/Middlewares/Third_Party/Huawei/iot_link/cJSON\cJSON.h **** CJSON_PUBLIC(double) cJSON_SetNumberHelper(cJSON *object, double number);
 281              		.loc 7 271 1 discriminator 3 view .LVU142
 272:D:/fchai/work/i-cube/I-CUBE-HUAWEI/Middlewares/Third_Party/Huawei/iot_link/cJSON\cJSON.h **** #define cJSON_SetNumberValue(object, number) ((object != NULL) ? cJSON_SetNumberHelper(object, (dou
 273:D:/fchai/work/i-cube/I-CUBE-HUAWEI/Middlewares/Third_Party/Huawei/iot_link/cJSON\cJSON.h **** 
 274:D:/fchai/work/i-cube/I-CUBE-HUAWEI/Middlewares/Third_Party/Huawei/iot_link/cJSON\cJSON.h **** /* Macro for iterating over an array or object */
 275:D:/fchai/work/i-cube/I-CUBE-HUAWEI/Middlewares/Third_Party/Huawei/iot_link/cJSON\cJSON.h **** #define cJSON_ArrayForEach(element, array) for(element = (array != NULL) ? (array)->child : NULL; e
 276:D:/fchai/work/i-cube/I-CUBE-HUAWEI/Middlewares/Third_Party/Huawei/iot_link/cJSON\cJSON.h **** 
 277:D:/fchai/work/i-cube/I-CUBE-HUAWEI/Middlewares/Third_Party/Huawei/iot_link/cJSON\cJSON.h **** /* malloc/free objects using the malloc/free functions that have been set with cJSON_InitHooks */
 278:D:/fchai/work/i-cube/I-CUBE-HUAWEI/Middlewares/Third_Party/Huawei/iot_link/cJSON\cJSON.h **** CJSON_PUBLIC(void *) cJSON_malloc(size_t size);
 282              		.loc 7 278 1 discriminator 3 view .LVU143
 279:D:/fchai/work/i-cube/I-CUBE-HUAWEI/Middlewares/Third_Party/Huawei/iot_link/cJSON\cJSON.h **** CJSON_PUBLIC(void) cJSON_free(void *object);
 283              		.loc 7 279 1 discriminator 3 view .LVU144
 106:D:/fchai/work/i-cube/I-CUBE-HUAWEI/Middlewares/Third_Party/Huawei/iot_link\link_main.c **** #endif
 107:D:/fchai/work/i-cube/I-CUBE-HUAWEI/Middlewares/Third_Party/Huawei/iot_link\link_main.c **** 
 108:D:/fchai/work/i-cube/I-CUBE-HUAWEI/Middlewares/Third_Party/Huawei/iot_link\link_main.c **** ///< install the cJSON, for the oc mqtt agent need the cJSON
 109:D:/fchai/work/i-cube/I-CUBE-HUAWEI/Middlewares/Third_Party/Huawei/iot_link\link_main.c **** #ifdef CONFIG_CJSON_ENABLE
 110:D:/fchai/work/i-cube/I-CUBE-HUAWEI/Middlewares/Third_Party/Huawei/iot_link\link_main.c ****     #include <cJSON.h>
 111:D:/fchai/work/i-cube/I-CUBE-HUAWEI/Middlewares/Third_Party/Huawei/iot_link\link_main.c **** 
 112:D:/fchai/work/i-cube/I-CUBE-HUAWEI/Middlewares/Third_Party/Huawei/iot_link\link_main.c ****     cJSON_Hooks  hook;
 284              		.loc 1 112 5 discriminator 3 view .LVU145
 113:D:/fchai/work/i-cube/I-CUBE-HUAWEI/Middlewares/Third_Party/Huawei/iot_link\link_main.c ****     hook.free_fn = osal_free;
 285              		.loc 1 113 5 discriminator 3 view .LVU146
 286              		.loc 1 113 18 is_stmt 0 discriminator 3 view .LVU147
 287 0030 1C4A     		ldr	r2, .L12+4
 114:D:/fchai/work/i-cube/I-CUBE-HUAWEI/Middlewares/Third_Party/Huawei/iot_link\link_main.c ****     hook.malloc_fn = osal_malloc;
 288              		.loc 1 114 20 discriminator 3 view .LVU148
 289 0032 1D4B     		ldr	r3, .L12+8
 113:D:/fchai/work/i-cube/I-CUBE-HUAWEI/Middlewares/Third_Party/Huawei/iot_link\link_main.c ****     hook.free_fn = osal_free;
 290              		.loc 1 113 18 discriminator 3 view .LVU149
 291 0034 0592     		str	r2, [sp, #20]
 292              		.loc 1 114 5 is_stmt 1 discriminator 3 view .LVU150
 115:D:/fchai/work/i-cube/I-CUBE-HUAWEI/Middlewares/Third_Party/Huawei/iot_link\link_main.c ****     cJSON_InitHooks(&hook);
 293              		.loc 1 115 5 is_stmt 0 discriminator 3 view .LVU151
 294 0036 04A8     		add	r0, sp, #16
 114:D:/fchai/work/i-cube/I-CUBE-HUAWEI/Middlewares/Third_Party/Huawei/iot_link\link_main.c ****     hook.malloc_fn = osal_malloc;
 295              		.loc 1 114 20 discriminator 3 view .LVU152
 296 0038 0493     		str	r3, [sp, #16]
 297              		.loc 1 115 5 is_stmt 1 discriminator 3 view .LVU153
ARM GAS  T:\msys\tmp\ccjeK7qp.s 			page 21


 298 003a FFF7FEFF 		bl	cJSON_InitHooks
 299              	.LVL9:
 300              		.file 8 "t:\\msys\\3rd\\gcc-arm-none-eabi-9-2020-q2-update-win32\\arm-none-eabi\\include\\sys\\_lo
   1:t:\msys\3rd\gcc-arm-none-eabi-9-2020-q2-update-win32\arm-none-eabi\include\sys\_locale.h **** /* Definition of opaque POSIX-1.2008 type locale_t for userspace. */
   2:t:\msys\3rd\gcc-arm-none-eabi-9-2020-q2-update-win32\arm-none-eabi\include\sys\_locale.h **** 
   3:t:\msys\3rd\gcc-arm-none-eabi-9-2020-q2-update-win32\arm-none-eabi\include\sys\_locale.h **** #ifndef	_SYS__LOCALE_H
   4:t:\msys\3rd\gcc-arm-none-eabi-9-2020-q2-update-win32\arm-none-eabi\include\sys\_locale.h **** #define _SYS__LOCALE_H
   5:t:\msys\3rd\gcc-arm-none-eabi-9-2020-q2-update-win32\arm-none-eabi\include\sys\_locale.h **** 
   6:t:\msys\3rd\gcc-arm-none-eabi-9-2020-q2-update-win32\arm-none-eabi\include\sys\_locale.h **** #include <newlib.h>
   7:t:\msys\3rd\gcc-arm-none-eabi-9-2020-q2-update-win32\arm-none-eabi\include\sys\_locale.h **** #include <sys/config.h>
   8:t:\msys\3rd\gcc-arm-none-eabi-9-2020-q2-update-win32\arm-none-eabi\include\sys\_locale.h **** 
   9:t:\msys\3rd\gcc-arm-none-eabi-9-2020-q2-update-win32\arm-none-eabi\include\sys\_locale.h **** struct __locale_t;
 301              		.loc 8 9 1 discriminator 3 view .LVU154
  10:t:\msys\3rd\gcc-arm-none-eabi-9-2020-q2-update-win32\arm-none-eabi\include\sys\_locale.h **** typedef struct __locale_t *locale_t;
 302              		.loc 8 10 1 discriminator 3 view .LVU155
 303              		.file 9 "t:\\msys\\3rd\\gcc-arm-none-eabi-9-2020-q2-update-win32\\arm-none-eabi\\include\\strings.
   1:t:\msys\3rd\gcc-arm-none-eabi-9-2020-q2-update-win32\arm-none-eabi\include\strings.h **** /*-
   2:t:\msys\3rd\gcc-arm-none-eabi-9-2020-q2-update-win32\arm-none-eabi\include\strings.h ****  * Copyright (c) 2002 Mike Barcroft <mike@FreeBSD.org>
   3:t:\msys\3rd\gcc-arm-none-eabi-9-2020-q2-update-win32\arm-none-eabi\include\strings.h ****  * All rights reserved.
   4:t:\msys\3rd\gcc-arm-none-eabi-9-2020-q2-update-win32\arm-none-eabi\include\strings.h ****  *
   5:t:\msys\3rd\gcc-arm-none-eabi-9-2020-q2-update-win32\arm-none-eabi\include\strings.h ****  * Redistribution and use in source and binary forms, with or without
   6:t:\msys\3rd\gcc-arm-none-eabi-9-2020-q2-update-win32\arm-none-eabi\include\strings.h ****  * modification, are permitted provided that the following conditions
   7:t:\msys\3rd\gcc-arm-none-eabi-9-2020-q2-update-win32\arm-none-eabi\include\strings.h ****  * are met:
   8:t:\msys\3rd\gcc-arm-none-eabi-9-2020-q2-update-win32\arm-none-eabi\include\strings.h ****  * 1. Redistributions of source code must retain the above copyright
   9:t:\msys\3rd\gcc-arm-none-eabi-9-2020-q2-update-win32\arm-none-eabi\include\strings.h ****  *    notice, this list of conditions and the following disclaimer.
  10:t:\msys\3rd\gcc-arm-none-eabi-9-2020-q2-update-win32\arm-none-eabi\include\strings.h ****  * 2. Redistributions in binary form must reproduce the above copyright
  11:t:\msys\3rd\gcc-arm-none-eabi-9-2020-q2-update-win32\arm-none-eabi\include\strings.h ****  *    notice, this list of conditions and the following disclaimer in the
  12:t:\msys\3rd\gcc-arm-none-eabi-9-2020-q2-update-win32\arm-none-eabi\include\strings.h ****  *    documentation and/or other materials provided with the distribution.
  13:t:\msys\3rd\gcc-arm-none-eabi-9-2020-q2-update-win32\arm-none-eabi\include\strings.h ****  *
  14:t:\msys\3rd\gcc-arm-none-eabi-9-2020-q2-update-win32\arm-none-eabi\include\strings.h ****  * THIS SOFTWARE IS PROVIDED BY THE AUTHOR AND CONTRIBUTORS ``AS IS'' AND
  15:t:\msys\3rd\gcc-arm-none-eabi-9-2020-q2-update-win32\arm-none-eabi\include\strings.h ****  * ANY EXPRESS OR IMPLIED WARRANTIES, INCLUDING, BUT NOT LIMITED TO, THE
  16:t:\msys\3rd\gcc-arm-none-eabi-9-2020-q2-update-win32\arm-none-eabi\include\strings.h ****  * IMPLIED WARRANTIES OF MERCHANTABILITY AND FITNESS FOR A PARTICULAR PURPOSE
  17:t:\msys\3rd\gcc-arm-none-eabi-9-2020-q2-update-win32\arm-none-eabi\include\strings.h ****  * ARE DISCLAIMED.  IN NO EVENT SHALL THE AUTHOR OR CONTRIBUTORS BE LIABLE
  18:t:\msys\3rd\gcc-arm-none-eabi-9-2020-q2-update-win32\arm-none-eabi\include\strings.h ****  * FOR ANY DIRECT, INDIRECT, INCIDENTAL, SPECIAL, EXEMPLARY, OR CONSEQUENTIAL
  19:t:\msys\3rd\gcc-arm-none-eabi-9-2020-q2-update-win32\arm-none-eabi\include\strings.h ****  * DAMAGES (INCLUDING, BUT NOT LIMITED TO, PROCUREMENT OF SUBSTITUTE GOODS
  20:t:\msys\3rd\gcc-arm-none-eabi-9-2020-q2-update-win32\arm-none-eabi\include\strings.h ****  * OR SERVICES; LOSS OF USE, DATA, OR PROFITS; OR BUSINESS INTERRUPTION)
  21:t:\msys\3rd\gcc-arm-none-eabi-9-2020-q2-update-win32\arm-none-eabi\include\strings.h ****  * HOWEVER CAUSED AND ON ANY THEORY OF LIABILITY, WHETHER IN CONTRACT, STRICT
  22:t:\msys\3rd\gcc-arm-none-eabi-9-2020-q2-update-win32\arm-none-eabi\include\strings.h ****  * LIABILITY, OR TORT (INCLUDING NEGLIGENCE OR OTHERWISE) ARISING IN ANY WAY
  23:t:\msys\3rd\gcc-arm-none-eabi-9-2020-q2-update-win32\arm-none-eabi\include\strings.h ****  * OUT OF THE USE OF THIS SOFTWARE, EVEN IF ADVISED OF THE POSSIBILITY OF
  24:t:\msys\3rd\gcc-arm-none-eabi-9-2020-q2-update-win32\arm-none-eabi\include\strings.h ****  * SUCH DAMAGE.
  25:t:\msys\3rd\gcc-arm-none-eabi-9-2020-q2-update-win32\arm-none-eabi\include\strings.h ****  *
  26:t:\msys\3rd\gcc-arm-none-eabi-9-2020-q2-update-win32\arm-none-eabi\include\strings.h ****  * $FreeBSD: head/include/strings.h 272673 2014-10-07 04:54:11Z delphij $
  27:t:\msys\3rd\gcc-arm-none-eabi-9-2020-q2-update-win32\arm-none-eabi\include\strings.h ****  */
  28:t:\msys\3rd\gcc-arm-none-eabi-9-2020-q2-update-win32\arm-none-eabi\include\strings.h **** 
  29:t:\msys\3rd\gcc-arm-none-eabi-9-2020-q2-update-win32\arm-none-eabi\include\strings.h **** #ifndef _STRINGS_H_
  30:t:\msys\3rd\gcc-arm-none-eabi-9-2020-q2-update-win32\arm-none-eabi\include\strings.h **** #define	_STRINGS_H_
  31:t:\msys\3rd\gcc-arm-none-eabi-9-2020-q2-update-win32\arm-none-eabi\include\strings.h **** 
  32:t:\msys\3rd\gcc-arm-none-eabi-9-2020-q2-update-win32\arm-none-eabi\include\strings.h **** #include <sys/cdefs.h>
  33:t:\msys\3rd\gcc-arm-none-eabi-9-2020-q2-update-win32\arm-none-eabi\include\strings.h **** #include <sys/_types.h>
  34:t:\msys\3rd\gcc-arm-none-eabi-9-2020-q2-update-win32\arm-none-eabi\include\strings.h **** 
  35:t:\msys\3rd\gcc-arm-none-eabi-9-2020-q2-update-win32\arm-none-eabi\include\strings.h **** #if __POSIX_VISIBLE >= 200809
  36:t:\msys\3rd\gcc-arm-none-eabi-9-2020-q2-update-win32\arm-none-eabi\include\strings.h **** #include <sys/_locale.h>
  37:t:\msys\3rd\gcc-arm-none-eabi-9-2020-q2-update-win32\arm-none-eabi\include\strings.h **** #endif
  38:t:\msys\3rd\gcc-arm-none-eabi-9-2020-q2-update-win32\arm-none-eabi\include\strings.h **** 
  39:t:\msys\3rd\gcc-arm-none-eabi-9-2020-q2-update-win32\arm-none-eabi\include\strings.h **** #ifndef _SIZE_T_DECLARED
  40:t:\msys\3rd\gcc-arm-none-eabi-9-2020-q2-update-win32\arm-none-eabi\include\strings.h **** typedef	__size_t	size_t;
  41:t:\msys\3rd\gcc-arm-none-eabi-9-2020-q2-update-win32\arm-none-eabi\include\strings.h **** #define	_SIZE_T_DECLARED
ARM GAS  T:\msys\tmp\ccjeK7qp.s 			page 22


  42:t:\msys\3rd\gcc-arm-none-eabi-9-2020-q2-update-win32\arm-none-eabi\include\strings.h **** #endif
  43:t:\msys\3rd\gcc-arm-none-eabi-9-2020-q2-update-win32\arm-none-eabi\include\strings.h **** 
  44:t:\msys\3rd\gcc-arm-none-eabi-9-2020-q2-update-win32\arm-none-eabi\include\strings.h **** __BEGIN_DECLS
  45:t:\msys\3rd\gcc-arm-none-eabi-9-2020-q2-update-win32\arm-none-eabi\include\strings.h **** #if __BSD_VISIBLE || __POSIX_VISIBLE <= 200112
  46:t:\msys\3rd\gcc-arm-none-eabi-9-2020-q2-update-win32\arm-none-eabi\include\strings.h **** int	 bcmp(const void *, const void *, size_t) __pure;	/* LEGACY */
 304              		.loc 9 46 1 discriminator 3 view .LVU156
  47:t:\msys\3rd\gcc-arm-none-eabi-9-2020-q2-update-win32\arm-none-eabi\include\strings.h **** void	 bcopy(const void *, void *, size_t);			/* LEGACY */
 305              		.loc 9 47 1 discriminator 3 view .LVU157
  48:t:\msys\3rd\gcc-arm-none-eabi-9-2020-q2-update-win32\arm-none-eabi\include\strings.h **** void	 bzero(void *, size_t);					/* LEGACY */
 306              		.loc 9 48 1 discriminator 3 view .LVU158
  49:t:\msys\3rd\gcc-arm-none-eabi-9-2020-q2-update-win32\arm-none-eabi\include\strings.h **** #endif
  50:t:\msys\3rd\gcc-arm-none-eabi-9-2020-q2-update-win32\arm-none-eabi\include\strings.h **** #if __BSD_VISIBLE
  51:t:\msys\3rd\gcc-arm-none-eabi-9-2020-q2-update-win32\arm-none-eabi\include\strings.h **** void	 explicit_bzero(void *, size_t);
 307              		.loc 9 51 1 discriminator 3 view .LVU159
  52:t:\msys\3rd\gcc-arm-none-eabi-9-2020-q2-update-win32\arm-none-eabi\include\strings.h **** #endif
  53:t:\msys\3rd\gcc-arm-none-eabi-9-2020-q2-update-win32\arm-none-eabi\include\strings.h **** #if __MISC_VISIBLE || __POSIX_VISIBLE < 200809 || __XSI_VISIBLE >= 700
  54:t:\msys\3rd\gcc-arm-none-eabi-9-2020-q2-update-win32\arm-none-eabi\include\strings.h **** int	 ffs(int) __pure2;
 308              		.loc 9 54 1 discriminator 3 view .LVU160
  55:t:\msys\3rd\gcc-arm-none-eabi-9-2020-q2-update-win32\arm-none-eabi\include\strings.h **** #endif
  56:t:\msys\3rd\gcc-arm-none-eabi-9-2020-q2-update-win32\arm-none-eabi\include\strings.h **** #if __BSD_VISIBLE
  57:t:\msys\3rd\gcc-arm-none-eabi-9-2020-q2-update-win32\arm-none-eabi\include\strings.h **** int	 ffsl(long) __pure2;
 309              		.loc 9 57 1 discriminator 3 view .LVU161
  58:t:\msys\3rd\gcc-arm-none-eabi-9-2020-q2-update-win32\arm-none-eabi\include\strings.h **** int	 ffsll(long long) __pure2;
 310              		.loc 9 58 1 discriminator 3 view .LVU162
  59:t:\msys\3rd\gcc-arm-none-eabi-9-2020-q2-update-win32\arm-none-eabi\include\strings.h **** int	 fls(int) __pure2;
 311              		.loc 9 59 1 discriminator 3 view .LVU163
  60:t:\msys\3rd\gcc-arm-none-eabi-9-2020-q2-update-win32\arm-none-eabi\include\strings.h **** int	 flsl(long) __pure2;
 312              		.loc 9 60 1 discriminator 3 view .LVU164
  61:t:\msys\3rd\gcc-arm-none-eabi-9-2020-q2-update-win32\arm-none-eabi\include\strings.h **** int	 flsll(long long) __pure2;
 313              		.loc 9 61 1 discriminator 3 view .LVU165
  62:t:\msys\3rd\gcc-arm-none-eabi-9-2020-q2-update-win32\arm-none-eabi\include\strings.h **** #endif
  63:t:\msys\3rd\gcc-arm-none-eabi-9-2020-q2-update-win32\arm-none-eabi\include\strings.h **** #if __BSD_VISIBLE || __POSIX_VISIBLE <= 200112
  64:t:\msys\3rd\gcc-arm-none-eabi-9-2020-q2-update-win32\arm-none-eabi\include\strings.h **** char	*index(const char *, int) __pure;			/* LEGACY */
 314              		.loc 9 64 1 discriminator 3 view .LVU166
  65:t:\msys\3rd\gcc-arm-none-eabi-9-2020-q2-update-win32\arm-none-eabi\include\strings.h **** char	*rindex(const char *, int) __pure;			/* LEGACY */
 315              		.loc 9 65 1 discriminator 3 view .LVU167
  66:t:\msys\3rd\gcc-arm-none-eabi-9-2020-q2-update-win32\arm-none-eabi\include\strings.h **** #endif
  67:t:\msys\3rd\gcc-arm-none-eabi-9-2020-q2-update-win32\arm-none-eabi\include\strings.h **** int	 strcasecmp(const char *, const char *) __pure;
 316              		.loc 9 67 1 discriminator 3 view .LVU168
  68:t:\msys\3rd\gcc-arm-none-eabi-9-2020-q2-update-win32\arm-none-eabi\include\strings.h **** int	 strncasecmp(const char *, const char *, size_t) __pure;
 317              		.loc 9 68 1 discriminator 3 view .LVU169
  69:t:\msys\3rd\gcc-arm-none-eabi-9-2020-q2-update-win32\arm-none-eabi\include\strings.h **** 
  70:t:\msys\3rd\gcc-arm-none-eabi-9-2020-q2-update-win32\arm-none-eabi\include\strings.h **** #if __POSIX_VISIBLE >= 200809
  71:t:\msys\3rd\gcc-arm-none-eabi-9-2020-q2-update-win32\arm-none-eabi\include\strings.h **** int	 strcasecmp_l (const char *, const char *, locale_t);
 318              		.loc 9 71 1 discriminator 3 view .LVU170
  72:t:\msys\3rd\gcc-arm-none-eabi-9-2020-q2-update-win32\arm-none-eabi\include\strings.h **** int	 strncasecmp_l (const char *, const char *, size_t, locale_t);
 319              		.loc 9 72 1 discriminator 3 view .LVU171
 320              		.file 10 "t:\\msys\\3rd\\gcc-arm-none-eabi-9-2020-q2-update-win32\\arm-none-eabi\\include\\string.
   1:t:\msys\3rd\gcc-arm-none-eabi-9-2020-q2-update-win32\arm-none-eabi\include\string.h **** /*
   2:t:\msys\3rd\gcc-arm-none-eabi-9-2020-q2-update-win32\arm-none-eabi\include\string.h ****  * string.h
   3:t:\msys\3rd\gcc-arm-none-eabi-9-2020-q2-update-win32\arm-none-eabi\include\string.h ****  *
   4:t:\msys\3rd\gcc-arm-none-eabi-9-2020-q2-update-win32\arm-none-eabi\include\string.h ****  * Definitions for memory and string functions.
   5:t:\msys\3rd\gcc-arm-none-eabi-9-2020-q2-update-win32\arm-none-eabi\include\string.h ****  */
   6:t:\msys\3rd\gcc-arm-none-eabi-9-2020-q2-update-win32\arm-none-eabi\include\string.h **** 
   7:t:\msys\3rd\gcc-arm-none-eabi-9-2020-q2-update-win32\arm-none-eabi\include\string.h **** #ifndef _STRING_H_
   8:t:\msys\3rd\gcc-arm-none-eabi-9-2020-q2-update-win32\arm-none-eabi\include\string.h **** #define	_STRING_H_
   9:t:\msys\3rd\gcc-arm-none-eabi-9-2020-q2-update-win32\arm-none-eabi\include\string.h **** 
ARM GAS  T:\msys\tmp\ccjeK7qp.s 			page 23


  10:t:\msys\3rd\gcc-arm-none-eabi-9-2020-q2-update-win32\arm-none-eabi\include\string.h **** #include "_ansi.h"
  11:t:\msys\3rd\gcc-arm-none-eabi-9-2020-q2-update-win32\arm-none-eabi\include\string.h **** #include <sys/reent.h>
  12:t:\msys\3rd\gcc-arm-none-eabi-9-2020-q2-update-win32\arm-none-eabi\include\string.h **** #include <sys/cdefs.h>
  13:t:\msys\3rd\gcc-arm-none-eabi-9-2020-q2-update-win32\arm-none-eabi\include\string.h **** #include <sys/features.h>
  14:t:\msys\3rd\gcc-arm-none-eabi-9-2020-q2-update-win32\arm-none-eabi\include\string.h **** 
  15:t:\msys\3rd\gcc-arm-none-eabi-9-2020-q2-update-win32\arm-none-eabi\include\string.h **** #define __need_size_t
  16:t:\msys\3rd\gcc-arm-none-eabi-9-2020-q2-update-win32\arm-none-eabi\include\string.h **** #define __need_NULL
  17:t:\msys\3rd\gcc-arm-none-eabi-9-2020-q2-update-win32\arm-none-eabi\include\string.h **** #include <stddef.h>
  18:t:\msys\3rd\gcc-arm-none-eabi-9-2020-q2-update-win32\arm-none-eabi\include\string.h **** 
  19:t:\msys\3rd\gcc-arm-none-eabi-9-2020-q2-update-win32\arm-none-eabi\include\string.h **** #if __POSIX_VISIBLE >= 200809
  20:t:\msys\3rd\gcc-arm-none-eabi-9-2020-q2-update-win32\arm-none-eabi\include\string.h **** #include <sys/_locale.h>
  21:t:\msys\3rd\gcc-arm-none-eabi-9-2020-q2-update-win32\arm-none-eabi\include\string.h **** #endif
  22:t:\msys\3rd\gcc-arm-none-eabi-9-2020-q2-update-win32\arm-none-eabi\include\string.h **** 
  23:t:\msys\3rd\gcc-arm-none-eabi-9-2020-q2-update-win32\arm-none-eabi\include\string.h **** #if __BSD_VISIBLE
  24:t:\msys\3rd\gcc-arm-none-eabi-9-2020-q2-update-win32\arm-none-eabi\include\string.h **** #include <strings.h>
  25:t:\msys\3rd\gcc-arm-none-eabi-9-2020-q2-update-win32\arm-none-eabi\include\string.h **** #endif
  26:t:\msys\3rd\gcc-arm-none-eabi-9-2020-q2-update-win32\arm-none-eabi\include\string.h **** 
  27:t:\msys\3rd\gcc-arm-none-eabi-9-2020-q2-update-win32\arm-none-eabi\include\string.h **** _BEGIN_STD_C
  28:t:\msys\3rd\gcc-arm-none-eabi-9-2020-q2-update-win32\arm-none-eabi\include\string.h **** 
  29:t:\msys\3rd\gcc-arm-none-eabi-9-2020-q2-update-win32\arm-none-eabi\include\string.h **** void *	 memchr (const void *, int, size_t);
 321              		.loc 10 29 1 discriminator 3 view .LVU172
  30:t:\msys\3rd\gcc-arm-none-eabi-9-2020-q2-update-win32\arm-none-eabi\include\string.h **** int 	 memcmp (const void *, const void *, size_t);
 322              		.loc 10 30 1 discriminator 3 view .LVU173
  31:t:\msys\3rd\gcc-arm-none-eabi-9-2020-q2-update-win32\arm-none-eabi\include\string.h **** void *	 memcpy (void *__restrict, const void *__restrict, size_t);
 323              		.loc 10 31 1 discriminator 3 view .LVU174
  32:t:\msys\3rd\gcc-arm-none-eabi-9-2020-q2-update-win32\arm-none-eabi\include\string.h **** void *	 memmove (void *, const void *, size_t);
 324              		.loc 10 32 1 discriminator 3 view .LVU175
  33:t:\msys\3rd\gcc-arm-none-eabi-9-2020-q2-update-win32\arm-none-eabi\include\string.h **** void *	 memset (void *, int, size_t);
 325              		.loc 10 33 1 discriminator 3 view .LVU176
  34:t:\msys\3rd\gcc-arm-none-eabi-9-2020-q2-update-win32\arm-none-eabi\include\string.h **** char 	*strcat (char *__restrict, const char *__restrict);
 326              		.loc 10 34 1 discriminator 3 view .LVU177
  35:t:\msys\3rd\gcc-arm-none-eabi-9-2020-q2-update-win32\arm-none-eabi\include\string.h **** char 	*strchr (const char *, int);
 327              		.loc 10 35 1 discriminator 3 view .LVU178
  36:t:\msys\3rd\gcc-arm-none-eabi-9-2020-q2-update-win32\arm-none-eabi\include\string.h **** int	 strcmp (const char *, const char *);
 328              		.loc 10 36 1 discriminator 3 view .LVU179
  37:t:\msys\3rd\gcc-arm-none-eabi-9-2020-q2-update-win32\arm-none-eabi\include\string.h **** int	 strcoll (const char *, const char *);
 329              		.loc 10 37 1 discriminator 3 view .LVU180
  38:t:\msys\3rd\gcc-arm-none-eabi-9-2020-q2-update-win32\arm-none-eabi\include\string.h **** char 	*strcpy (char *__restrict, const char *__restrict);
 330              		.loc 10 38 1 discriminator 3 view .LVU181
  39:t:\msys\3rd\gcc-arm-none-eabi-9-2020-q2-update-win32\arm-none-eabi\include\string.h **** size_t	 strcspn (const char *, const char *);
 331              		.loc 10 39 1 discriminator 3 view .LVU182
  40:t:\msys\3rd\gcc-arm-none-eabi-9-2020-q2-update-win32\arm-none-eabi\include\string.h **** char 	*strerror (int);
 332              		.loc 10 40 1 discriminator 3 view .LVU183
  41:t:\msys\3rd\gcc-arm-none-eabi-9-2020-q2-update-win32\arm-none-eabi\include\string.h **** size_t	 strlen (const char *);
 333              		.loc 10 41 1 discriminator 3 view .LVU184
  42:t:\msys\3rd\gcc-arm-none-eabi-9-2020-q2-update-win32\arm-none-eabi\include\string.h **** char 	*strncat (char *__restrict, const char *__restrict, size_t);
 334              		.loc 10 42 1 discriminator 3 view .LVU185
  43:t:\msys\3rd\gcc-arm-none-eabi-9-2020-q2-update-win32\arm-none-eabi\include\string.h **** int	 strncmp (const char *, const char *, size_t);
 335              		.loc 10 43 1 discriminator 3 view .LVU186
  44:t:\msys\3rd\gcc-arm-none-eabi-9-2020-q2-update-win32\arm-none-eabi\include\string.h **** char 	*strncpy (char *__restrict, const char *__restrict, size_t);
 336              		.loc 10 44 1 discriminator 3 view .LVU187
  45:t:\msys\3rd\gcc-arm-none-eabi-9-2020-q2-update-win32\arm-none-eabi\include\string.h **** char 	*strpbrk (const char *, const char *);
 337              		.loc 10 45 1 discriminator 3 view .LVU188
  46:t:\msys\3rd\gcc-arm-none-eabi-9-2020-q2-update-win32\arm-none-eabi\include\string.h **** char 	*strrchr (const char *, int);
 338              		.loc 10 46 1 discriminator 3 view .LVU189
  47:t:\msys\3rd\gcc-arm-none-eabi-9-2020-q2-update-win32\arm-none-eabi\include\string.h **** size_t	 strspn (const char *, const char *);
 339              		.loc 10 47 1 discriminator 3 view .LVU190
ARM GAS  T:\msys\tmp\ccjeK7qp.s 			page 24


  48:t:\msys\3rd\gcc-arm-none-eabi-9-2020-q2-update-win32\arm-none-eabi\include\string.h **** char 	*strstr (const char *, const char *);
 340              		.loc 10 48 1 discriminator 3 view .LVU191
  49:t:\msys\3rd\gcc-arm-none-eabi-9-2020-q2-update-win32\arm-none-eabi\include\string.h **** #ifndef _REENT_ONLY
  50:t:\msys\3rd\gcc-arm-none-eabi-9-2020-q2-update-win32\arm-none-eabi\include\string.h **** char 	*strtok (char *__restrict, const char *__restrict);
 341              		.loc 10 50 1 discriminator 3 view .LVU192
  51:t:\msys\3rd\gcc-arm-none-eabi-9-2020-q2-update-win32\arm-none-eabi\include\string.h **** #endif
  52:t:\msys\3rd\gcc-arm-none-eabi-9-2020-q2-update-win32\arm-none-eabi\include\string.h **** size_t	 strxfrm (char *__restrict, const char *__restrict, size_t);
 342              		.loc 10 52 1 discriminator 3 view .LVU193
  53:t:\msys\3rd\gcc-arm-none-eabi-9-2020-q2-update-win32\arm-none-eabi\include\string.h **** 
  54:t:\msys\3rd\gcc-arm-none-eabi-9-2020-q2-update-win32\arm-none-eabi\include\string.h **** #if __POSIX_VISIBLE >= 200809
  55:t:\msys\3rd\gcc-arm-none-eabi-9-2020-q2-update-win32\arm-none-eabi\include\string.h **** int	 strcoll_l (const char *, const char *, locale_t);
 343              		.loc 10 55 1 discriminator 3 view .LVU194
  56:t:\msys\3rd\gcc-arm-none-eabi-9-2020-q2-update-win32\arm-none-eabi\include\string.h **** char	*strerror_l (int, locale_t);
 344              		.loc 10 56 1 discriminator 3 view .LVU195
  57:t:\msys\3rd\gcc-arm-none-eabi-9-2020-q2-update-win32\arm-none-eabi\include\string.h **** size_t	 strxfrm_l (char *__restrict, const char *__restrict, size_t, locale_t);
 345              		.loc 10 57 1 discriminator 3 view .LVU196
  58:t:\msys\3rd\gcc-arm-none-eabi-9-2020-q2-update-win32\arm-none-eabi\include\string.h **** #endif
  59:t:\msys\3rd\gcc-arm-none-eabi-9-2020-q2-update-win32\arm-none-eabi\include\string.h **** #if __MISC_VISIBLE || __POSIX_VISIBLE
  60:t:\msys\3rd\gcc-arm-none-eabi-9-2020-q2-update-win32\arm-none-eabi\include\string.h **** char 	*strtok_r (char *__restrict, const char *__restrict, char **__restrict);
 346              		.loc 10 60 1 discriminator 3 view .LVU197
  61:t:\msys\3rd\gcc-arm-none-eabi-9-2020-q2-update-win32\arm-none-eabi\include\string.h **** #endif
  62:t:\msys\3rd\gcc-arm-none-eabi-9-2020-q2-update-win32\arm-none-eabi\include\string.h **** #if __BSD_VISIBLE
  63:t:\msys\3rd\gcc-arm-none-eabi-9-2020-q2-update-win32\arm-none-eabi\include\string.h **** int	 timingsafe_bcmp (const void *, const void *, size_t);
 347              		.loc 10 63 1 discriminator 3 view .LVU198
  64:t:\msys\3rd\gcc-arm-none-eabi-9-2020-q2-update-win32\arm-none-eabi\include\string.h **** int	 timingsafe_memcmp (const void *, const void *, size_t);
 348              		.loc 10 64 1 discriminator 3 view .LVU199
  65:t:\msys\3rd\gcc-arm-none-eabi-9-2020-q2-update-win32\arm-none-eabi\include\string.h **** #endif
  66:t:\msys\3rd\gcc-arm-none-eabi-9-2020-q2-update-win32\arm-none-eabi\include\string.h **** #if __MISC_VISIBLE || __POSIX_VISIBLE
  67:t:\msys\3rd\gcc-arm-none-eabi-9-2020-q2-update-win32\arm-none-eabi\include\string.h **** void *	 memccpy (void *__restrict, const void *__restrict, int, size_t);
 349              		.loc 10 67 1 discriminator 3 view .LVU200
  68:t:\msys\3rd\gcc-arm-none-eabi-9-2020-q2-update-win32\arm-none-eabi\include\string.h **** #endif
  69:t:\msys\3rd\gcc-arm-none-eabi-9-2020-q2-update-win32\arm-none-eabi\include\string.h **** #if __GNU_VISIBLE
  70:t:\msys\3rd\gcc-arm-none-eabi-9-2020-q2-update-win32\arm-none-eabi\include\string.h **** void *	 mempcpy (void *, const void *, size_t);
  71:t:\msys\3rd\gcc-arm-none-eabi-9-2020-q2-update-win32\arm-none-eabi\include\string.h **** void *	 memmem (const void *, size_t, const void *, size_t);
  72:t:\msys\3rd\gcc-arm-none-eabi-9-2020-q2-update-win32\arm-none-eabi\include\string.h **** void *	 memrchr (const void *, int, size_t);
  73:t:\msys\3rd\gcc-arm-none-eabi-9-2020-q2-update-win32\arm-none-eabi\include\string.h **** void *	 rawmemchr (const void *, int);
  74:t:\msys\3rd\gcc-arm-none-eabi-9-2020-q2-update-win32\arm-none-eabi\include\string.h **** #endif
  75:t:\msys\3rd\gcc-arm-none-eabi-9-2020-q2-update-win32\arm-none-eabi\include\string.h **** #if __POSIX_VISIBLE >= 200809
  76:t:\msys\3rd\gcc-arm-none-eabi-9-2020-q2-update-win32\arm-none-eabi\include\string.h **** char 	*stpcpy (char *__restrict, const char *__restrict);
 350              		.loc 10 76 1 discriminator 3 view .LVU201
  77:t:\msys\3rd\gcc-arm-none-eabi-9-2020-q2-update-win32\arm-none-eabi\include\string.h **** char 	*stpncpy (char *__restrict, const char *__restrict, size_t);
 351              		.loc 10 77 1 discriminator 3 view .LVU202
  78:t:\msys\3rd\gcc-arm-none-eabi-9-2020-q2-update-win32\arm-none-eabi\include\string.h **** #endif
  79:t:\msys\3rd\gcc-arm-none-eabi-9-2020-q2-update-win32\arm-none-eabi\include\string.h **** #if __GNU_VISIBLE
  80:t:\msys\3rd\gcc-arm-none-eabi-9-2020-q2-update-win32\arm-none-eabi\include\string.h **** char	*strcasestr (const char *, const char *);
  81:t:\msys\3rd\gcc-arm-none-eabi-9-2020-q2-update-win32\arm-none-eabi\include\string.h **** char 	*strchrnul (const char *, int);
  82:t:\msys\3rd\gcc-arm-none-eabi-9-2020-q2-update-win32\arm-none-eabi\include\string.h **** #endif
  83:t:\msys\3rd\gcc-arm-none-eabi-9-2020-q2-update-win32\arm-none-eabi\include\string.h **** #if __MISC_VISIBLE || __POSIX_VISIBLE >= 200809 || __XSI_VISIBLE >= 4
  84:t:\msys\3rd\gcc-arm-none-eabi-9-2020-q2-update-win32\arm-none-eabi\include\string.h **** char 	*strdup (const char *) __malloc_like __result_use_check;
 352              		.loc 10 84 1 discriminator 3 view .LVU203
  85:t:\msys\3rd\gcc-arm-none-eabi-9-2020-q2-update-win32\arm-none-eabi\include\string.h **** #endif
  86:t:\msys\3rd\gcc-arm-none-eabi-9-2020-q2-update-win32\arm-none-eabi\include\string.h **** char 	*_strdup_r (struct _reent *, const char *);
 353              		.loc 10 86 1 discriminator 3 view .LVU204
  87:t:\msys\3rd\gcc-arm-none-eabi-9-2020-q2-update-win32\arm-none-eabi\include\string.h **** #if __POSIX_VISIBLE >= 200809
  88:t:\msys\3rd\gcc-arm-none-eabi-9-2020-q2-update-win32\arm-none-eabi\include\string.h **** char 	*strndup (const char *, size_t) __malloc_like __result_use_check;
 354              		.loc 10 88 1 discriminator 3 view .LVU205
  89:t:\msys\3rd\gcc-arm-none-eabi-9-2020-q2-update-win32\arm-none-eabi\include\string.h **** #endif
ARM GAS  T:\msys\tmp\ccjeK7qp.s 			page 25


  90:t:\msys\3rd\gcc-arm-none-eabi-9-2020-q2-update-win32\arm-none-eabi\include\string.h **** char 	*_strndup_r (struct _reent *, const char *, size_t);
 355              		.loc 10 90 1 discriminator 3 view .LVU206
  91:t:\msys\3rd\gcc-arm-none-eabi-9-2020-q2-update-win32\arm-none-eabi\include\string.h **** 
  92:t:\msys\3rd\gcc-arm-none-eabi-9-2020-q2-update-win32\arm-none-eabi\include\string.h **** /* There are two common strerror_r variants.  If you request
  93:t:\msys\3rd\gcc-arm-none-eabi-9-2020-q2-update-win32\arm-none-eabi\include\string.h ****    _GNU_SOURCE, you get the GNU version; otherwise you get the POSIX
  94:t:\msys\3rd\gcc-arm-none-eabi-9-2020-q2-update-win32\arm-none-eabi\include\string.h ****    version.  POSIX requires that #undef strerror_r will still let you
  95:t:\msys\3rd\gcc-arm-none-eabi-9-2020-q2-update-win32\arm-none-eabi\include\string.h ****    invoke the underlying function, but that requires gcc support.  */
  96:t:\msys\3rd\gcc-arm-none-eabi-9-2020-q2-update-win32\arm-none-eabi\include\string.h **** #if __GNU_VISIBLE
  97:t:\msys\3rd\gcc-arm-none-eabi-9-2020-q2-update-win32\arm-none-eabi\include\string.h **** char	*strerror_r (int, char *, size_t);
  98:t:\msys\3rd\gcc-arm-none-eabi-9-2020-q2-update-win32\arm-none-eabi\include\string.h **** #elif __POSIX_VISIBLE >= 200112
  99:t:\msys\3rd\gcc-arm-none-eabi-9-2020-q2-update-win32\arm-none-eabi\include\string.h **** # ifdef __GNUC__
 100:t:\msys\3rd\gcc-arm-none-eabi-9-2020-q2-update-win32\arm-none-eabi\include\string.h **** int	strerror_r (int, char *, size_t)
 356              		.loc 10 100 1 discriminator 3 view .LVU207
 101:t:\msys\3rd\gcc-arm-none-eabi-9-2020-q2-update-win32\arm-none-eabi\include\string.h **** #ifdef __ASMNAME
 102:t:\msys\3rd\gcc-arm-none-eabi-9-2020-q2-update-win32\arm-none-eabi\include\string.h ****              __asm__ (__ASMNAME ("__xpg_strerror_r"))
 103:t:\msys\3rd\gcc-arm-none-eabi-9-2020-q2-update-win32\arm-none-eabi\include\string.h **** #endif
 104:t:\msys\3rd\gcc-arm-none-eabi-9-2020-q2-update-win32\arm-none-eabi\include\string.h ****   ;
 105:t:\msys\3rd\gcc-arm-none-eabi-9-2020-q2-update-win32\arm-none-eabi\include\string.h **** # else
 106:t:\msys\3rd\gcc-arm-none-eabi-9-2020-q2-update-win32\arm-none-eabi\include\string.h **** int	__xpg_strerror_r (int, char *, size_t);
 107:t:\msys\3rd\gcc-arm-none-eabi-9-2020-q2-update-win32\arm-none-eabi\include\string.h **** #  define strerror_r __xpg_strerror_r
 108:t:\msys\3rd\gcc-arm-none-eabi-9-2020-q2-update-win32\arm-none-eabi\include\string.h **** # endif
 109:t:\msys\3rd\gcc-arm-none-eabi-9-2020-q2-update-win32\arm-none-eabi\include\string.h **** #endif
 110:t:\msys\3rd\gcc-arm-none-eabi-9-2020-q2-update-win32\arm-none-eabi\include\string.h **** 
 111:t:\msys\3rd\gcc-arm-none-eabi-9-2020-q2-update-win32\arm-none-eabi\include\string.h **** /* Reentrant version of strerror.  */
 112:t:\msys\3rd\gcc-arm-none-eabi-9-2020-q2-update-win32\arm-none-eabi\include\string.h **** char *	_strerror_r (struct _reent *, int, int, int *);
 357              		.loc 10 112 1 discriminator 3 view .LVU208
 113:t:\msys\3rd\gcc-arm-none-eabi-9-2020-q2-update-win32\arm-none-eabi\include\string.h **** 
 114:t:\msys\3rd\gcc-arm-none-eabi-9-2020-q2-update-win32\arm-none-eabi\include\string.h **** #if __BSD_VISIBLE
 115:t:\msys\3rd\gcc-arm-none-eabi-9-2020-q2-update-win32\arm-none-eabi\include\string.h **** size_t	strlcat (char *, const char *, size_t);
 358              		.loc 10 115 1 discriminator 3 view .LVU209
 116:t:\msys\3rd\gcc-arm-none-eabi-9-2020-q2-update-win32\arm-none-eabi\include\string.h **** size_t	strlcpy (char *, const char *, size_t);
 359              		.loc 10 116 1 discriminator 3 view .LVU210
 117:t:\msys\3rd\gcc-arm-none-eabi-9-2020-q2-update-win32\arm-none-eabi\include\string.h **** #endif
 118:t:\msys\3rd\gcc-arm-none-eabi-9-2020-q2-update-win32\arm-none-eabi\include\string.h **** #if __POSIX_VISIBLE >= 200809
 119:t:\msys\3rd\gcc-arm-none-eabi-9-2020-q2-update-win32\arm-none-eabi\include\string.h **** size_t	 strnlen (const char *, size_t);
 360              		.loc 10 119 1 discriminator 3 view .LVU211
 120:t:\msys\3rd\gcc-arm-none-eabi-9-2020-q2-update-win32\arm-none-eabi\include\string.h **** #endif
 121:t:\msys\3rd\gcc-arm-none-eabi-9-2020-q2-update-win32\arm-none-eabi\include\string.h **** #if __BSD_VISIBLE
 122:t:\msys\3rd\gcc-arm-none-eabi-9-2020-q2-update-win32\arm-none-eabi\include\string.h **** char 	*strsep (char **, const char *);
 361              		.loc 10 122 1 discriminator 3 view .LVU212
 123:t:\msys\3rd\gcc-arm-none-eabi-9-2020-q2-update-win32\arm-none-eabi\include\string.h **** #endif
 124:t:\msys\3rd\gcc-arm-none-eabi-9-2020-q2-update-win32\arm-none-eabi\include\string.h **** #if __BSD_VISIBLE
 125:t:\msys\3rd\gcc-arm-none-eabi-9-2020-q2-update-win32\arm-none-eabi\include\string.h **** char    *strnstr(const char *, const char *, size_t) __pure;
 362              		.loc 10 125 1 discriminator 3 view .LVU213
 126:t:\msys\3rd\gcc-arm-none-eabi-9-2020-q2-update-win32\arm-none-eabi\include\string.h **** #endif
 127:t:\msys\3rd\gcc-arm-none-eabi-9-2020-q2-update-win32\arm-none-eabi\include\string.h **** 
 128:t:\msys\3rd\gcc-arm-none-eabi-9-2020-q2-update-win32\arm-none-eabi\include\string.h **** #if __MISC_VISIBLE
 129:t:\msys\3rd\gcc-arm-none-eabi-9-2020-q2-update-win32\arm-none-eabi\include\string.h **** char	*strlwr (char *);
 363              		.loc 10 129 1 discriminator 3 view .LVU214
 130:t:\msys\3rd\gcc-arm-none-eabi-9-2020-q2-update-win32\arm-none-eabi\include\string.h **** char	*strupr (char *);
 364              		.loc 10 130 1 discriminator 3 view .LVU215
 131:t:\msys\3rd\gcc-arm-none-eabi-9-2020-q2-update-win32\arm-none-eabi\include\string.h **** #endif
 132:t:\msys\3rd\gcc-arm-none-eabi-9-2020-q2-update-win32\arm-none-eabi\include\string.h **** 
 133:t:\msys\3rd\gcc-arm-none-eabi-9-2020-q2-update-win32\arm-none-eabi\include\string.h **** #ifndef DEFS_H	/* Kludge to work around problem compiling in gdb */
 134:t:\msys\3rd\gcc-arm-none-eabi-9-2020-q2-update-win32\arm-none-eabi\include\string.h **** char	*strsignal (int __signo);
 365              		.loc 10 134 1 discriminator 3 view .LVU216
 366              		.file 11 "D:/fchai/work/i-cube/I-CUBE-HUAWEI/Middlewares/Third_Party/Huawei/iot_link/inc/sal_types
ARM GAS  T:\msys\tmp\ccjeK7qp.s 			page 26


   1:D:/fchai/work/i-cube/I-CUBE-HUAWEI/Middlewares/Third_Party/Huawei/iot_link/inc\sal_types.h **** /*
   2:D:/fchai/work/i-cube/I-CUBE-HUAWEI/Middlewares/Third_Party/Huawei/iot_link/inc\sal_types.h ****  * sal_types.h
   3:D:/fchai/work/i-cube/I-CUBE-HUAWEI/Middlewares/Third_Party/Huawei/iot_link/inc\sal_types.h ****  *
   4:D:/fchai/work/i-cube/I-CUBE-HUAWEI/Middlewares/Third_Party/Huawei/iot_link/inc\sal_types.h ****  *  Created on: 2019426
   5:D:/fchai/work/i-cube/I-CUBE-HUAWEI/Middlewares/Third_Party/Huawei/iot_link/inc\sal_types.h ****  *      Author: zhangqf
   6:D:/fchai/work/i-cube/I-CUBE-HUAWEI/Middlewares/Third_Party/Huawei/iot_link/inc\sal_types.h ****  */
   7:D:/fchai/work/i-cube/I-CUBE-HUAWEI/Middlewares/Third_Party/Huawei/iot_link/inc\sal_types.h **** 
   8:D:/fchai/work/i-cube/I-CUBE-HUAWEI/Middlewares/Third_Party/Huawei/iot_link/inc\sal_types.h **** #ifndef __SAL_TYPES_H
   9:D:/fchai/work/i-cube/I-CUBE-HUAWEI/Middlewares/Third_Party/Huawei/iot_link/inc\sal_types.h **** #define __SAL_TYPES_H
  10:D:/fchai/work/i-cube/I-CUBE-HUAWEI/Middlewares/Third_Party/Huawei/iot_link/inc\sal_types.h **** 
  11:D:/fchai/work/i-cube/I-CUBE-HUAWEI/Middlewares/Third_Party/Huawei/iot_link/inc\sal_types.h **** #include <stdint.h>
  12:D:/fchai/work/i-cube/I-CUBE-HUAWEI/Middlewares/Third_Party/Huawei/iot_link/inc\sal_types.h **** #include <stddef.h>
  13:D:/fchai/work/i-cube/I-CUBE-HUAWEI/Middlewares/Third_Party/Huawei/iot_link/inc\sal_types.h **** 
  14:D:/fchai/work/i-cube/I-CUBE-HUAWEI/Middlewares/Third_Party/Huawei/iot_link/inc\sal_types.h **** 
  15:D:/fchai/work/i-cube/I-CUBE-HUAWEI/Middlewares/Third_Party/Huawei/iot_link/inc\sal_types.h **** /**
  16:D:/fchai/work/i-cube/I-CUBE-HUAWEI/Middlewares/Third_Party/Huawei/iot_link/inc\sal_types.h ****  * @brief: all the structure and defines needed by the  applications should include
  17:D:/fchai/work/i-cube/I-CUBE-HUAWEI/Middlewares/Third_Party/Huawei/iot_link/inc\sal_types.h ****  *         this file;if you have the one yourself, please check whether they have the same value
  18:D:/fchai/work/i-cube/I-CUBE-HUAWEI/Middlewares/Third_Party/Huawei/iot_link/inc\sal_types.h ****  *         And these defines keep compatible with linux and
  19:D:/fchai/work/i-cube/I-CUBE-HUAWEI/Middlewares/Third_Party/Huawei/iot_link/inc\sal_types.h ****  */
  20:D:/fchai/work/i-cube/I-CUBE-HUAWEI/Middlewares/Third_Party/Huawei/iot_link/inc\sal_types.h **** 
  21:D:/fchai/work/i-cube/I-CUBE-HUAWEI/Middlewares/Third_Party/Huawei/iot_link/inc\sal_types.h **** #ifndef socklen_t
  22:D:/fchai/work/i-cube/I-CUBE-HUAWEI/Middlewares/Third_Party/Huawei/iot_link/inc\sal_types.h **** #define socklen_t int
  23:D:/fchai/work/i-cube/I-CUBE-HUAWEI/Middlewares/Third_Party/Huawei/iot_link/inc\sal_types.h **** #endif
  24:D:/fchai/work/i-cube/I-CUBE-HUAWEI/Middlewares/Third_Party/Huawei/iot_link/inc\sal_types.h **** 
  25:D:/fchai/work/i-cube/I-CUBE-HUAWEI/Middlewares/Third_Party/Huawei/iot_link/inc\sal_types.h **** #ifndef ssize_t
  26:D:/fchai/work/i-cube/I-CUBE-HUAWEI/Middlewares/Third_Party/Huawei/iot_link/inc\sal_types.h **** #define ssize_t   int
  27:D:/fchai/work/i-cube/I-CUBE-HUAWEI/Middlewares/Third_Party/Huawei/iot_link/inc\sal_types.h **** #endif
  28:D:/fchai/work/i-cube/I-CUBE-HUAWEI/Middlewares/Third_Party/Huawei/iot_link/inc\sal_types.h **** 
  29:D:/fchai/work/i-cube/I-CUBE-HUAWEI/Middlewares/Third_Party/Huawei/iot_link/inc\sal_types.h **** 
  30:D:/fchai/work/i-cube/I-CUBE-HUAWEI/Middlewares/Third_Party/Huawei/iot_link/inc\sal_types.h **** #ifndef sa_family_t
  31:D:/fchai/work/i-cube/I-CUBE-HUAWEI/Middlewares/Third_Party/Huawei/iot_link/inc\sal_types.h **** #define sa_family_t  uint16_t
  32:D:/fchai/work/i-cube/I-CUBE-HUAWEI/Middlewares/Third_Party/Huawei/iot_link/inc\sal_types.h **** #endif
  33:D:/fchai/work/i-cube/I-CUBE-HUAWEI/Middlewares/Third_Party/Huawei/iot_link/inc\sal_types.h **** 
  34:D:/fchai/work/i-cube/I-CUBE-HUAWEI/Middlewares/Third_Party/Huawei/iot_link/inc\sal_types.h **** #ifndef in_port_t
  35:D:/fchai/work/i-cube/I-CUBE-HUAWEI/Middlewares/Third_Party/Huawei/iot_link/inc\sal_types.h **** #define in_port_t  uint16_t
  36:D:/fchai/work/i-cube/I-CUBE-HUAWEI/Middlewares/Third_Party/Huawei/iot_link/inc\sal_types.h **** #endif
  37:D:/fchai/work/i-cube/I-CUBE-HUAWEI/Middlewares/Third_Party/Huawei/iot_link/inc\sal_types.h **** 
  38:D:/fchai/work/i-cube/I-CUBE-HUAWEI/Middlewares/Third_Party/Huawei/iot_link/inc\sal_types.h **** 
  39:D:/fchai/work/i-cube/I-CUBE-HUAWEI/Middlewares/Third_Party/Huawei/iot_link/inc\sal_types.h **** #ifndef in_addr_t
  40:D:/fchai/work/i-cube/I-CUBE-HUAWEI/Middlewares/Third_Party/Huawei/iot_link/inc\sal_types.h **** #define in_addr_t uint32_t
  41:D:/fchai/work/i-cube/I-CUBE-HUAWEI/Middlewares/Third_Party/Huawei/iot_link/inc\sal_types.h **** #endif
  42:D:/fchai/work/i-cube/I-CUBE-HUAWEI/Middlewares/Third_Party/Huawei/iot_link/inc\sal_types.h **** 
  43:D:/fchai/work/i-cube/I-CUBE-HUAWEI/Middlewares/Third_Party/Huawei/iot_link/inc\sal_types.h **** 
  44:D:/fchai/work/i-cube/I-CUBE-HUAWEI/Middlewares/Third_Party/Huawei/iot_link/inc\sal_types.h **** 
  45:D:/fchai/work/i-cube/I-CUBE-HUAWEI/Middlewares/Third_Party/Huawei/iot_link/inc\sal_types.h **** struct sockaddr
 367              		.loc 11 45 1 discriminator 3 view .LVU217
  46:D:/fchai/work/i-cube/I-CUBE-HUAWEI/Middlewares/Third_Party/Huawei/iot_link/inc\sal_types.h **** {
  47:D:/fchai/work/i-cube/I-CUBE-HUAWEI/Middlewares/Third_Party/Huawei/iot_link/inc\sal_types.h ****     sa_family_t     sa_family;      /* address family, AF_xxx   */
  48:D:/fchai/work/i-cube/I-CUBE-HUAWEI/Middlewares/Third_Party/Huawei/iot_link/inc\sal_types.h ****     char            sa_data[14];    /* 14 bytes of protocol address */
  49:D:/fchai/work/i-cube/I-CUBE-HUAWEI/Middlewares/Third_Party/Huawei/iot_link/inc\sal_types.h **** };
  50:D:/fchai/work/i-cube/I-CUBE-HUAWEI/Middlewares/Third_Party/Huawei/iot_link/inc\sal_types.h **** 
  51:D:/fchai/work/i-cube/I-CUBE-HUAWEI/Middlewares/Third_Party/Huawei/iot_link/inc\sal_types.h **** struct linger
 368              		.loc 11 51 1 discriminator 3 view .LVU218
  52:D:/fchai/work/i-cube/I-CUBE-HUAWEI/Middlewares/Third_Party/Huawei/iot_link/inc\sal_types.h **** {
  53:D:/fchai/work/i-cube/I-CUBE-HUAWEI/Middlewares/Third_Party/Huawei/iot_link/inc\sal_types.h ****     int l_onoff;    /* Linger active            */
  54:D:/fchai/work/i-cube/I-CUBE-HUAWEI/Middlewares/Third_Party/Huawei/iot_link/inc\sal_types.h ****     int l_linger;   /* How long to linger for   */
  55:D:/fchai/work/i-cube/I-CUBE-HUAWEI/Middlewares/Third_Party/Huawei/iot_link/inc\sal_types.h **** };
ARM GAS  T:\msys\tmp\ccjeK7qp.s 			page 27


  56:D:/fchai/work/i-cube/I-CUBE-HUAWEI/Middlewares/Third_Party/Huawei/iot_link/inc\sal_types.h **** 
  57:D:/fchai/work/i-cube/I-CUBE-HUAWEI/Middlewares/Third_Party/Huawei/iot_link/inc\sal_types.h **** struct in_addr
 369              		.loc 11 57 1 discriminator 3 view .LVU219
  58:D:/fchai/work/i-cube/I-CUBE-HUAWEI/Middlewares/Third_Party/Huawei/iot_link/inc\sal_types.h **** {
  59:D:/fchai/work/i-cube/I-CUBE-HUAWEI/Middlewares/Third_Party/Huawei/iot_link/inc\sal_types.h ****     in_addr_t s_addr;                    /* IPv4 address */
  60:D:/fchai/work/i-cube/I-CUBE-HUAWEI/Middlewares/Third_Party/Huawei/iot_link/inc\sal_types.h **** };
  61:D:/fchai/work/i-cube/I-CUBE-HUAWEI/Middlewares/Third_Party/Huawei/iot_link/inc\sal_types.h **** 
  62:D:/fchai/work/i-cube/I-CUBE-HUAWEI/Middlewares/Third_Party/Huawei/iot_link/inc\sal_types.h **** 
  63:D:/fchai/work/i-cube/I-CUBE-HUAWEI/Middlewares/Third_Party/Huawei/iot_link/inc\sal_types.h **** struct sockaddr_in
 370              		.loc 11 63 1 discriminator 3 view .LVU220
  64:D:/fchai/work/i-cube/I-CUBE-HUAWEI/Middlewares/Third_Party/Huawei/iot_link/inc\sal_types.h **** {
  65:D:/fchai/work/i-cube/I-CUBE-HUAWEI/Middlewares/Third_Party/Huawei/iot_link/inc\sal_types.h ****     sa_family_t sin_family;             /* AF_INET */
  66:D:/fchai/work/i-cube/I-CUBE-HUAWEI/Middlewares/Third_Party/Huawei/iot_link/inc\sal_types.h ****     in_port_t sin_port;                 /* Port number.  */
  67:D:/fchai/work/i-cube/I-CUBE-HUAWEI/Middlewares/Third_Party/Huawei/iot_link/inc\sal_types.h ****     struct in_addr sin_addr;            /* Internet address.  */
  68:D:/fchai/work/i-cube/I-CUBE-HUAWEI/Middlewares/Third_Party/Huawei/iot_link/inc\sal_types.h ****     unsigned char sin_zero[8];          /* Pad to size of `struct sockaddr'.  */
  69:D:/fchai/work/i-cube/I-CUBE-HUAWEI/Middlewares/Third_Party/Huawei/iot_link/inc\sal_types.h **** };
  70:D:/fchai/work/i-cube/I-CUBE-HUAWEI/Middlewares/Third_Party/Huawei/iot_link/inc\sal_types.h **** 
  71:D:/fchai/work/i-cube/I-CUBE-HUAWEI/Middlewares/Third_Party/Huawei/iot_link/inc\sal_types.h **** struct hostent {
 371              		.loc 11 71 1 discriminator 3 view .LVU221
 372              		.file 12 "D:/fchai/work/i-cube/I-CUBE-HUAWEI/Middlewares/Third_Party/Huawei/iot_link/inc/sal.h"
   1:D:/fchai/work/i-cube/I-CUBE-HUAWEI/Middlewares/Third_Party/Huawei/iot_link/inc\sal.h **** 
   2:D:/fchai/work/i-cube/I-CUBE-HUAWEI/Middlewares/Third_Party/Huawei/iot_link/inc\sal.h **** 
   3:D:/fchai/work/i-cube/I-CUBE-HUAWEI/Middlewares/Third_Party/Huawei/iot_link/inc\sal.h **** #ifndef __SAL_H
   4:D:/fchai/work/i-cube/I-CUBE-HUAWEI/Middlewares/Third_Party/Huawei/iot_link/inc\sal.h **** #define __SAL_H
   5:D:/fchai/work/i-cube/I-CUBE-HUAWEI/Middlewares/Third_Party/Huawei/iot_link/inc\sal.h **** 
   6:D:/fchai/work/i-cube/I-CUBE-HUAWEI/Middlewares/Third_Party/Huawei/iot_link/inc\sal.h **** #include <stdint.h>
   7:D:/fchai/work/i-cube/I-CUBE-HUAWEI/Middlewares/Third_Party/Huawei/iot_link/inc\sal.h **** #include <stddef.h>
   8:D:/fchai/work/i-cube/I-CUBE-HUAWEI/Middlewares/Third_Party/Huawei/iot_link/inc\sal.h **** #include <stdio.h>
   9:D:/fchai/work/i-cube/I-CUBE-HUAWEI/Middlewares/Third_Party/Huawei/iot_link/inc\sal.h **** #include <string.h>
  10:D:/fchai/work/i-cube/I-CUBE-HUAWEI/Middlewares/Third_Party/Huawei/iot_link/inc\sal.h **** #ifndef __KEIL__
  11:D:/fchai/work/i-cube/I-CUBE-HUAWEI/Middlewares/Third_Party/Huawei/iot_link/inc\sal.h **** #include <sys/select.h>
  12:D:/fchai/work/i-cube/I-CUBE-HUAWEI/Middlewares/Third_Party/Huawei/iot_link/inc\sal.h **** #endif
  13:D:/fchai/work/i-cube/I-CUBE-HUAWEI/Middlewares/Third_Party/Huawei/iot_link/inc\sal.h **** 
  14:D:/fchai/work/i-cube/I-CUBE-HUAWEI/Middlewares/Third_Party/Huawei/iot_link/inc\sal.h **** #include <sal_define.h>
  15:D:/fchai/work/i-cube/I-CUBE-HUAWEI/Middlewares/Third_Party/Huawei/iot_link/inc\sal.h **** #include <sal_types.h>
  16:D:/fchai/work/i-cube/I-CUBE-HUAWEI/Middlewares/Third_Party/Huawei/iot_link/inc\sal.h **** #include <link_endian.h>
  17:D:/fchai/work/i-cube/I-CUBE-HUAWEI/Middlewares/Third_Party/Huawei/iot_link/inc\sal.h **** 
  18:D:/fchai/work/i-cube/I-CUBE-HUAWEI/Middlewares/Third_Party/Huawei/iot_link/inc\sal.h **** /**
  19:D:/fchai/work/i-cube/I-CUBE-HUAWEI/Middlewares/Third_Party/Huawei/iot_link/inc\sal.h ****  *
  20:D:/fchai/work/i-cube/I-CUBE-HUAWEI/Middlewares/Third_Party/Huawei/iot_link/inc\sal.h ****  *@brief: list all the api need for the application development,,supported depends on the implement
  21:D:/fchai/work/i-cube/I-CUBE-HUAWEI/Middlewares/Third_Party/Huawei/iot_link/inc\sal.h ****  *       the tcpip stack
  22:D:/fchai/work/i-cube/I-CUBE-HUAWEI/Middlewares/Third_Party/Huawei/iot_link/inc\sal.h ****  *  Thanks to BSD && linux, which must be compatible
  23:D:/fchai/work/i-cube/I-CUBE-HUAWEI/Middlewares/Third_Party/Huawei/iot_link/inc\sal.h ****  */
  24:D:/fchai/work/i-cube/I-CUBE-HUAWEI/Middlewares/Third_Party/Huawei/iot_link/inc\sal.h **** 
  25:D:/fchai/work/i-cube/I-CUBE-HUAWEI/Middlewares/Third_Party/Huawei/iot_link/inc\sal.h **** int sal_socket(int domain, int type, int protocol);
 373              		.loc 12 25 1 discriminator 3 view .LVU222
  26:D:/fchai/work/i-cube/I-CUBE-HUAWEI/Middlewares/Third_Party/Huawei/iot_link/inc\sal.h **** 
  27:D:/fchai/work/i-cube/I-CUBE-HUAWEI/Middlewares/Third_Party/Huawei/iot_link/inc\sal.h **** int sal_bind(int sockfd,const struct sockaddr *addr,socklen_t addrlen);
 374              		.loc 12 27 1 discriminator 3 view .LVU223
  28:D:/fchai/work/i-cube/I-CUBE-HUAWEI/Middlewares/Third_Party/Huawei/iot_link/inc\sal.h **** 
  29:D:/fchai/work/i-cube/I-CUBE-HUAWEI/Middlewares/Third_Party/Huawei/iot_link/inc\sal.h **** int sal_listen(int sockfd,  int backlog);
 375              		.loc 12 29 1 discriminator 3 view .LVU224
  30:D:/fchai/work/i-cube/I-CUBE-HUAWEI/Middlewares/Third_Party/Huawei/iot_link/inc\sal.h **** 
  31:D:/fchai/work/i-cube/I-CUBE-HUAWEI/Middlewares/Third_Party/Huawei/iot_link/inc\sal.h **** int sal_accept(int sockfd,struct sockaddr *addr,socklen_t *addrlen);
 376              		.loc 12 31 1 discriminator 3 view .LVU225
  32:D:/fchai/work/i-cube/I-CUBE-HUAWEI/Middlewares/Third_Party/Huawei/iot_link/inc\sal.h **** 
  33:D:/fchai/work/i-cube/I-CUBE-HUAWEI/Middlewares/Third_Party/Huawei/iot_link/inc\sal.h **** int sal_connect(int sockfd, const struct sockaddr *addr,socklen_t addrlen);
ARM GAS  T:\msys\tmp\ccjeK7qp.s 			page 28


 377              		.loc 12 33 1 discriminator 3 view .LVU226
  34:D:/fchai/work/i-cube/I-CUBE-HUAWEI/Middlewares/Third_Party/Huawei/iot_link/inc\sal.h **** 
  35:D:/fchai/work/i-cube/I-CUBE-HUAWEI/Middlewares/Third_Party/Huawei/iot_link/inc\sal.h **** int sal_getsockname(int sockfd, struct sockaddr *addr,socklen_t *addrlen);
 378              		.loc 12 35 1 discriminator 3 view .LVU227
  36:D:/fchai/work/i-cube/I-CUBE-HUAWEI/Middlewares/Third_Party/Huawei/iot_link/inc\sal.h **** 
  37:D:/fchai/work/i-cube/I-CUBE-HUAWEI/Middlewares/Third_Party/Huawei/iot_link/inc\sal.h **** int sal_getpeername(int sockfd, struct sockaddr *addr,socklen_t *addrlen);
 379              		.loc 12 37 1 discriminator 3 view .LVU228
  38:D:/fchai/work/i-cube/I-CUBE-HUAWEI/Middlewares/Third_Party/Huawei/iot_link/inc\sal.h **** 
  39:D:/fchai/work/i-cube/I-CUBE-HUAWEI/Middlewares/Third_Party/Huawei/iot_link/inc\sal.h **** int sal_getsockopt (int socket, int level, int optname, void *optval, int *optlen);
 380              		.loc 12 39 1 discriminator 3 view .LVU229
  40:D:/fchai/work/i-cube/I-CUBE-HUAWEI/Middlewares/Third_Party/Huawei/iot_link/inc\sal.h **** 
  41:D:/fchai/work/i-cube/I-CUBE-HUAWEI/Middlewares/Third_Party/Huawei/iot_link/inc\sal.h **** int sal_setsockopt (int socket, int level, int optname, const void *optval, int optlen);
 381              		.loc 12 41 1 discriminator 3 view .LVU230
  42:D:/fchai/work/i-cube/I-CUBE-HUAWEI/Middlewares/Third_Party/Huawei/iot_link/inc\sal.h **** 
  43:D:/fchai/work/i-cube/I-CUBE-HUAWEI/Middlewares/Third_Party/Huawei/iot_link/inc\sal.h **** int sal_recv(int sockfd,void *buf,size_t len,int flags);
 382              		.loc 12 43 1 discriminator 3 view .LVU231
  44:D:/fchai/work/i-cube/I-CUBE-HUAWEI/Middlewares/Third_Party/Huawei/iot_link/inc\sal.h **** 
  45:D:/fchai/work/i-cube/I-CUBE-HUAWEI/Middlewares/Third_Party/Huawei/iot_link/inc\sal.h **** int sal_recvfrom(int sockfd, void *mem, size_t len, int flags,
 383              		.loc 12 45 1 discriminator 3 view .LVU232
  46:D:/fchai/work/i-cube/I-CUBE-HUAWEI/Middlewares/Third_Party/Huawei/iot_link/inc\sal.h ****       struct sockaddr *from, socklen_t *fromlen);
  47:D:/fchai/work/i-cube/I-CUBE-HUAWEI/Middlewares/Third_Party/Huawei/iot_link/inc\sal.h **** 
  48:D:/fchai/work/i-cube/I-CUBE-HUAWEI/Middlewares/Third_Party/Huawei/iot_link/inc\sal.h **** int sal_send(int sockfd,const void *buf,size_t len,int flags);
 384              		.loc 12 48 1 discriminator 3 view .LVU233
  49:D:/fchai/work/i-cube/I-CUBE-HUAWEI/Middlewares/Third_Party/Huawei/iot_link/inc\sal.h **** 
  50:D:/fchai/work/i-cube/I-CUBE-HUAWEI/Middlewares/Third_Party/Huawei/iot_link/inc\sal.h **** int sal_sendto(int sockfd, const void *dataptr, size_t size, int flags,
 385              		.loc 12 50 1 discriminator 3 view .LVU234
  51:D:/fchai/work/i-cube/I-CUBE-HUAWEI/Middlewares/Third_Party/Huawei/iot_link/inc\sal.h ****     const struct sockaddr *to, socklen_t tolen);
  52:D:/fchai/work/i-cube/I-CUBE-HUAWEI/Middlewares/Third_Party/Huawei/iot_link/inc\sal.h **** 
  53:D:/fchai/work/i-cube/I-CUBE-HUAWEI/Middlewares/Third_Party/Huawei/iot_link/inc\sal.h **** int sal_shutdown(int sockfd, int how);
 386              		.loc 12 53 1 discriminator 3 view .LVU235
  54:D:/fchai/work/i-cube/I-CUBE-HUAWEI/Middlewares/Third_Party/Huawei/iot_link/inc\sal.h **** 
  55:D:/fchai/work/i-cube/I-CUBE-HUAWEI/Middlewares/Third_Party/Huawei/iot_link/inc\sal.h **** int sal_closesocket(int sockfd);
 387              		.loc 12 55 1 discriminator 3 view .LVU236
  56:D:/fchai/work/i-cube/I-CUBE-HUAWEI/Middlewares/Third_Party/Huawei/iot_link/inc\sal.h **** 
  57:D:/fchai/work/i-cube/I-CUBE-HUAWEI/Middlewares/Third_Party/Huawei/iot_link/inc\sal.h **** #ifndef __KEIL__
  58:D:/fchai/work/i-cube/I-CUBE-HUAWEI/Middlewares/Third_Party/Huawei/iot_link/inc\sal.h **** int sal_select(int nfds, fd_set *readfds, fd_set *writefds, fd_set *exceptfds, struct timeval *time
 388              		.loc 12 58 1 discriminator 3 view .LVU237
  59:D:/fchai/work/i-cube/I-CUBE-HUAWEI/Middlewares/Third_Party/Huawei/iot_link/inc\sal.h **** #endif
  60:D:/fchai/work/i-cube/I-CUBE-HUAWEI/Middlewares/Third_Party/Huawei/iot_link/inc\sal.h **** 
  61:D:/fchai/work/i-cube/I-CUBE-HUAWEI/Middlewares/Third_Party/Huawei/iot_link/inc\sal.h **** struct hostent * sal_gethostbyname(const char *name);
 389              		.loc 12 61 1 discriminator 3 view .LVU238
  62:D:/fchai/work/i-cube/I-CUBE-HUAWEI/Middlewares/Third_Party/Huawei/iot_link/inc\sal.h **** 
  63:D:/fchai/work/i-cube/I-CUBE-HUAWEI/Middlewares/Third_Party/Huawei/iot_link/inc\sal.h **** 
  64:D:/fchai/work/i-cube/I-CUBE-HUAWEI/Middlewares/Third_Party/Huawei/iot_link/inc\sal.h **** /**
  65:D:/fchai/work/i-cube/I-CUBE-HUAWEI/Middlewares/Third_Party/Huawei/iot_link/inc\sal.h ****  * @brief: if you want to use the tcpip abstract layer,like install the tcpip stack,
  66:D:/fchai/work/i-cube/I-CUBE-HUAWEI/Middlewares/Third_Party/Huawei/iot_link/inc\sal.h ****  *         or use the api as the application user, you must call this function first
  67:D:/fchai/work/i-cube/I-CUBE-HUAWEI/Middlewares/Third_Party/Huawei/iot_link/inc\sal.h ****  *
  68:D:/fchai/work/i-cube/I-CUBE-HUAWEI/Middlewares/Third_Party/Huawei/iot_link/inc\sal.h ****  * @return:0 success while -1 failed
  69:D:/fchai/work/i-cube/I-CUBE-HUAWEI/Middlewares/Third_Party/Huawei/iot_link/inc\sal.h ****  * */
  70:D:/fchai/work/i-cube/I-CUBE-HUAWEI/Middlewares/Third_Party/Huawei/iot_link/inc\sal.h **** int link_tcpip_init( void);
 390              		.loc 12 70 1 discriminator 3 view .LVU239
  71:D:/fchai/work/i-cube/I-CUBE-HUAWEI/Middlewares/Third_Party/Huawei/iot_link/inc\sal.h **** 
  72:D:/fchai/work/i-cube/I-CUBE-HUAWEI/Middlewares/Third_Party/Huawei/iot_link/inc\sal.h **** in_addr_t inet_addr(const char *addr);
 391              		.loc 12 72 1 discriminator 3 view .LVU240
  73:D:/fchai/work/i-cube/I-CUBE-HUAWEI/Middlewares/Third_Party/Huawei/iot_link/inc\sal.h **** char *inet_ntoa(struct in_addr addr);
 392              		.loc 12 73 1 discriminator 3 view .LVU241
  74:D:/fchai/work/i-cube/I-CUBE-HUAWEI/Middlewares/Third_Party/Huawei/iot_link/inc\sal.h **** int inet_aton(const char *string,struct in_addr *addr);
ARM GAS  T:\msys\tmp\ccjeK7qp.s 			page 29


 393              		.loc 12 74 1 discriminator 3 view .LVU242
  75:D:/fchai/work/i-cube/I-CUBE-HUAWEI/Middlewares/Third_Party/Huawei/iot_link/inc\sal.h **** const char *inet_ntop(int af, const void *src, char *dst, socklen_t cnt);
 394              		.loc 12 75 1 discriminator 3 view .LVU243
 116:D:/fchai/work/i-cube/I-CUBE-HUAWEI/Middlewares/Third_Party/Huawei/iot_link\link_main.c **** #endif
 117:D:/fchai/work/i-cube/I-CUBE-HUAWEI/Middlewares/Third_Party/Huawei/iot_link\link_main.c **** 
 118:D:/fchai/work/i-cube/I-CUBE-HUAWEI/Middlewares/Third_Party/Huawei/iot_link\link_main.c **** 
 119:D:/fchai/work/i-cube/I-CUBE-HUAWEI/Middlewares/Third_Party/Huawei/iot_link\link_main.c **** //////////////////////////  TCPIP PROTOCOL /////////////////////////////////////
 120:D:/fchai/work/i-cube/I-CUBE-HUAWEI/Middlewares/Third_Party/Huawei/iot_link\link_main.c **** #ifdef CONFIG_TCPIP_AL_ENABLE
 121:D:/fchai/work/i-cube/I-CUBE-HUAWEI/Middlewares/Third_Party/Huawei/iot_link\link_main.c ****     #include <sal.h>
 122:D:/fchai/work/i-cube/I-CUBE-HUAWEI/Middlewares/Third_Party/Huawei/iot_link\link_main.c ****     (void)link_tcpip_init();
 395              		.loc 1 122 5 discriminator 3 view .LVU244
 396              		.loc 1 122 11 is_stmt 0 discriminator 3 view .LVU245
 397 003e FFF7FEFF 		bl	link_tcpip_init
 398              	.LVL10:
 399              		.file 13 "D:/fchai/work/i-cube/I-CUBE-HUAWEI/Middlewares/Third_Party/Huawei/iot_link/inc/dtls_al.h
   1:D:/fchai/work/i-cube/I-CUBE-HUAWEI/Middlewares/Third_Party/Huawei/iot_link/inc\dtls_al.h **** /*----------------------------------------------------------------------------
   2:D:/fchai/work/i-cube/I-CUBE-HUAWEI/Middlewares/Third_Party/Huawei/iot_link/inc\dtls_al.h ****  * Copyright (c) <2018>, <Huawei Technologies Co., Ltd>
   3:D:/fchai/work/i-cube/I-CUBE-HUAWEI/Middlewares/Third_Party/Huawei/iot_link/inc\dtls_al.h ****  * All rights reserved.
   4:D:/fchai/work/i-cube/I-CUBE-HUAWEI/Middlewares/Third_Party/Huawei/iot_link/inc\dtls_al.h ****  * Redistribution and use in source and binary forms, with or without modification,
   5:D:/fchai/work/i-cube/I-CUBE-HUAWEI/Middlewares/Third_Party/Huawei/iot_link/inc\dtls_al.h ****  * are permitted provided that the following conditions are met:
   6:D:/fchai/work/i-cube/I-CUBE-HUAWEI/Middlewares/Third_Party/Huawei/iot_link/inc\dtls_al.h ****  * 1. Redistributions of source code must retain the above copyright notice, this list of
   7:D:/fchai/work/i-cube/I-CUBE-HUAWEI/Middlewares/Third_Party/Huawei/iot_link/inc\dtls_al.h ****  * conditions and the following disclaimer.
   8:D:/fchai/work/i-cube/I-CUBE-HUAWEI/Middlewares/Third_Party/Huawei/iot_link/inc\dtls_al.h ****  * 2. Redistributions in binary form must reproduce the above copyright notice, this list
   9:D:/fchai/work/i-cube/I-CUBE-HUAWEI/Middlewares/Third_Party/Huawei/iot_link/inc\dtls_al.h ****  * of conditions and the following disclaimer in the documentation and/or other materials
  10:D:/fchai/work/i-cube/I-CUBE-HUAWEI/Middlewares/Third_Party/Huawei/iot_link/inc\dtls_al.h ****  * provided with the distribution.
  11:D:/fchai/work/i-cube/I-CUBE-HUAWEI/Middlewares/Third_Party/Huawei/iot_link/inc\dtls_al.h ****  * 3. Neither the name of the copyright holder nor the names of its contributors may be used
  12:D:/fchai/work/i-cube/I-CUBE-HUAWEI/Middlewares/Third_Party/Huawei/iot_link/inc\dtls_al.h ****  * to endorse or promote products derived from this software without specific prior written
  13:D:/fchai/work/i-cube/I-CUBE-HUAWEI/Middlewares/Third_Party/Huawei/iot_link/inc\dtls_al.h ****  * permission.
  14:D:/fchai/work/i-cube/I-CUBE-HUAWEI/Middlewares/Third_Party/Huawei/iot_link/inc\dtls_al.h ****  * THIS SOFTWARE IS PROVIDED BY THE COPYRIGHT HOLDERS AND CONTRIBUTORS
  15:D:/fchai/work/i-cube/I-CUBE-HUAWEI/Middlewares/Third_Party/Huawei/iot_link/inc\dtls_al.h ****  * "AS IS" AND ANY EXPRESS OR IMPLIED WARRANTIES, INCLUDING, BUT NOT LIMITED TO,
  16:D:/fchai/work/i-cube/I-CUBE-HUAWEI/Middlewares/Third_Party/Huawei/iot_link/inc\dtls_al.h ****  * THE IMPLIED WARRANTIES OF MERCHANTABILITY AND FITNESS FOR A PARTICULAR
  17:D:/fchai/work/i-cube/I-CUBE-HUAWEI/Middlewares/Third_Party/Huawei/iot_link/inc\dtls_al.h ****  * PURPOSE ARE DISCLAIMED. IN NO EVENT SHALL THE COPYRIGHT HOLDER OR
  18:D:/fchai/work/i-cube/I-CUBE-HUAWEI/Middlewares/Third_Party/Huawei/iot_link/inc\dtls_al.h ****  * CONTRIBUTORS BE LIABLE FOR ANY DIRECT, INDIRECT, INCIDENTAL, SPECIAL,
  19:D:/fchai/work/i-cube/I-CUBE-HUAWEI/Middlewares/Third_Party/Huawei/iot_link/inc\dtls_al.h ****  * EXEMPLARY, OR CONSEQUENTIAL DAMAGES (INCLUDING, BUT NOT LIMITED TO,
  20:D:/fchai/work/i-cube/I-CUBE-HUAWEI/Middlewares/Third_Party/Huawei/iot_link/inc\dtls_al.h ****  * PROCUREMENT OF SUBSTITUTE GOODS OR SERVICES; LOSS OF USE, DATA, OR PROFITS;
  21:D:/fchai/work/i-cube/I-CUBE-HUAWEI/Middlewares/Third_Party/Huawei/iot_link/inc\dtls_al.h ****  * OR BUSINESS INTERRUPTION) HOWEVER CAUSED AND ON ANY THEORY OF LIABILITY,
  22:D:/fchai/work/i-cube/I-CUBE-HUAWEI/Middlewares/Third_Party/Huawei/iot_link/inc\dtls_al.h ****  * WHETHER IN CONTRACT, STRICT LIABILITY, OR TORT (INCLUDING NEGLIGENCE OR
  23:D:/fchai/work/i-cube/I-CUBE-HUAWEI/Middlewares/Third_Party/Huawei/iot_link/inc\dtls_al.h ****  * OTHERWISE) ARISING IN ANY WAY OUT OF THE USE OF THIS SOFTWARE, EVEN IF
  24:D:/fchai/work/i-cube/I-CUBE-HUAWEI/Middlewares/Third_Party/Huawei/iot_link/inc\dtls_al.h ****  * ADVISED OF THE POSSIBILITY OF SUCH DAMAGE.
  25:D:/fchai/work/i-cube/I-CUBE-HUAWEI/Middlewares/Third_Party/Huawei/iot_link/inc\dtls_al.h ****  *---------------------------------------------------------------------------*/
  26:D:/fchai/work/i-cube/I-CUBE-HUAWEI/Middlewares/Third_Party/Huawei/iot_link/inc\dtls_al.h **** /*----------------------------------------------------------------------------
  27:D:/fchai/work/i-cube/I-CUBE-HUAWEI/Middlewares/Third_Party/Huawei/iot_link/inc\dtls_al.h ****  * Notice of Export Control Law
  28:D:/fchai/work/i-cube/I-CUBE-HUAWEI/Middlewares/Third_Party/Huawei/iot_link/inc\dtls_al.h ****  * ===============================================
  29:D:/fchai/work/i-cube/I-CUBE-HUAWEI/Middlewares/Third_Party/Huawei/iot_link/inc\dtls_al.h ****  * Huawei LiteOS may be subject to applicable export control laws and regulations, which might
  30:D:/fchai/work/i-cube/I-CUBE-HUAWEI/Middlewares/Third_Party/Huawei/iot_link/inc\dtls_al.h ****  * include those applicable to Huawei LiteOS of U.S. and the country in which you are located.
  31:D:/fchai/work/i-cube/I-CUBE-HUAWEI/Middlewares/Third_Party/Huawei/iot_link/inc\dtls_al.h ****  * Import, export and usage of Huawei LiteOS in any manner by you shall be in compliance with such
  32:D:/fchai/work/i-cube/I-CUBE-HUAWEI/Middlewares/Third_Party/Huawei/iot_link/inc\dtls_al.h ****  * applicable export control laws and regulations.
  33:D:/fchai/work/i-cube/I-CUBE-HUAWEI/Middlewares/Third_Party/Huawei/iot_link/inc\dtls_al.h ****  *---------------------------------------------------------------------------*/
  34:D:/fchai/work/i-cube/I-CUBE-HUAWEI/Middlewares/Third_Party/Huawei/iot_link/inc\dtls_al.h **** /**
  35:D:/fchai/work/i-cube/I-CUBE-HUAWEI/Middlewares/Third_Party/Huawei/iot_link/inc\dtls_al.h ****  *  DATE                AUTHOR      INSTRUCTION
  36:D:/fchai/work/i-cube/I-CUBE-HUAWEI/Middlewares/Third_Party/Huawei/iot_link/inc\dtls_al.h ****  *  2019-10-17 19:50  zhangqianfu  The first version
  37:D:/fchai/work/i-cube/I-CUBE-HUAWEI/Middlewares/Third_Party/Huawei/iot_link/inc\dtls_al.h ****  *
  38:D:/fchai/work/i-cube/I-CUBE-HUAWEI/Middlewares/Third_Party/Huawei/iot_link/inc\dtls_al.h ****  */
  39:D:/fchai/work/i-cube/I-CUBE-HUAWEI/Middlewares/Third_Party/Huawei/iot_link/inc\dtls_al.h **** #ifndef LITEOS_LAB_IOT_LINK_NETWORK_DTLS_DTLS_AL_DTLS_AL_H_
  40:D:/fchai/work/i-cube/I-CUBE-HUAWEI/Middlewares/Third_Party/Huawei/iot_link/inc\dtls_al.h **** #define LITEOS_LAB_IOT_LINK_NETWORK_DTLS_DTLS_AL_DTLS_AL_H_
  41:D:/fchai/work/i-cube/I-CUBE-HUAWEI/Middlewares/Third_Party/Huawei/iot_link/inc\dtls_al.h **** 
  42:D:/fchai/work/i-cube/I-CUBE-HUAWEI/Middlewares/Third_Party/Huawei/iot_link/inc\dtls_al.h **** 
ARM GAS  T:\msys\tmp\ccjeK7qp.s 			page 30


  43:D:/fchai/work/i-cube/I-CUBE-HUAWEI/Middlewares/Third_Party/Huawei/iot_link/inc\dtls_al.h **** #include <stdint.h>
  44:D:/fchai/work/i-cube/I-CUBE-HUAWEI/Middlewares/Third_Party/Huawei/iot_link/inc\dtls_al.h **** #include <stddef.h>
  45:D:/fchai/work/i-cube/I-CUBE-HUAWEI/Middlewares/Third_Party/Huawei/iot_link/inc\dtls_al.h **** 
  46:D:/fchai/work/i-cube/I-CUBE-HUAWEI/Middlewares/Third_Party/Huawei/iot_link/inc\dtls_al.h **** typedef enum
 400              		.loc 13 46 1 is_stmt 1 discriminator 3 view .LVU246
  47:D:/fchai/work/i-cube/I-CUBE-HUAWEI/Middlewares/Third_Party/Huawei/iot_link/inc\dtls_al.h **** {
  48:D:/fchai/work/i-cube/I-CUBE-HUAWEI/Middlewares/Third_Party/Huawei/iot_link/inc\dtls_al.h ****     EN_DTLS_AL_ERR_OK = 0,
  49:D:/fchai/work/i-cube/I-CUBE-HUAWEI/Middlewares/Third_Party/Huawei/iot_link/inc\dtls_al.h ****     EN_DTLS_AL_ERR_PARA,
  50:D:/fchai/work/i-cube/I-CUBE-HUAWEI/Middlewares/Third_Party/Huawei/iot_link/inc\dtls_al.h ****     EN_DTLS_AL_ERR_SYS,
  51:D:/fchai/work/i-cube/I-CUBE-HUAWEI/Middlewares/Third_Party/Huawei/iot_link/inc\dtls_al.h ****     EN_DTLS_AL_ERR_SYSMEM,
  52:D:/fchai/work/i-cube/I-CUBE-HUAWEI/Middlewares/Third_Party/Huawei/iot_link/inc\dtls_al.h ****     EN_DTLS_AL_ERR_NOCONFIG,
  53:D:/fchai/work/i-cube/I-CUBE-HUAWEI/Middlewares/Third_Party/Huawei/iot_link/inc\dtls_al.h ****     EN_DTLS_AL_ERR_NETWORK,
  54:D:/fchai/work/i-cube/I-CUBE-HUAWEI/Middlewares/Third_Party/Huawei/iot_link/inc\dtls_al.h ****     EN_DTLS_AL_ERR_SERVERCERTPARSE,
  55:D:/fchai/work/i-cube/I-CUBE-HUAWEI/Middlewares/Third_Party/Huawei/iot_link/inc\dtls_al.h ****     EN_DTLS_AL_ERR_CLIENTCERTPARSE,
  56:D:/fchai/work/i-cube/I-CUBE-HUAWEI/Middlewares/Third_Party/Huawei/iot_link/inc\dtls_al.h ****     EN_DTLS_AL_ERR_CLIENTPKPARSE,
  57:D:/fchai/work/i-cube/I-CUBE-HUAWEI/Middlewares/Third_Party/Huawei/iot_link/inc\dtls_al.h **** }en_dtls_al_err_t;
  58:D:/fchai/work/i-cube/I-CUBE-HUAWEI/Middlewares/Third_Party/Huawei/iot_link/inc\dtls_al.h **** 
  59:D:/fchai/work/i-cube/I-CUBE-HUAWEI/Middlewares/Third_Party/Huawei/iot_link/inc\dtls_al.h **** /** @brief  this enum all the transport encode we support now*/
  60:D:/fchai/work/i-cube/I-CUBE-HUAWEI/Middlewares/Third_Party/Huawei/iot_link/inc\dtls_al.h **** typedef enum
 401              		.loc 13 60 1 discriminator 3 view .LVU247
  61:D:/fchai/work/i-cube/I-CUBE-HUAWEI/Middlewares/Third_Party/Huawei/iot_link/inc\dtls_al.h **** {
  62:D:/fchai/work/i-cube/I-CUBE-HUAWEI/Middlewares/Third_Party/Huawei/iot_link/inc\dtls_al.h ****     EN_DTLS_AL_SECURITY_TYPE_NONE = 0,   ///< no encode
  63:D:/fchai/work/i-cube/I-CUBE-HUAWEI/Middlewares/Third_Party/Huawei/iot_link/inc\dtls_al.h ****     EN_DTLS_AL_SECURITY_TYPE_PSK,        ///< use the psk mode in transport layer
  64:D:/fchai/work/i-cube/I-CUBE-HUAWEI/Middlewares/Third_Party/Huawei/iot_link/inc\dtls_al.h ****     EN_DTLS_AL_SECURITY_TYPE_CERT,       ///< use the ca mode in transport layer,only check the ser
  65:D:/fchai/work/i-cube/I-CUBE-HUAWEI/Middlewares/Third_Party/Huawei/iot_link/inc\dtls_al.h **** }en_dtls_al_security_type_t;
  66:D:/fchai/work/i-cube/I-CUBE-HUAWEI/Middlewares/Third_Party/Huawei/iot_link/inc\dtls_al.h **** 
  67:D:/fchai/work/i-cube/I-CUBE-HUAWEI/Middlewares/Third_Party/Huawei/iot_link/inc\dtls_al.h **** /** @brief this data defines for the psk mode*/
  68:D:/fchai/work/i-cube/I-CUBE-HUAWEI/Middlewares/Third_Party/Huawei/iot_link/inc\dtls_al.h **** typedef struct
 402              		.loc 13 68 1 discriminator 3 view .LVU248
  69:D:/fchai/work/i-cube/I-CUBE-HUAWEI/Middlewares/Third_Party/Huawei/iot_link/inc\dtls_al.h **** {
  70:D:/fchai/work/i-cube/I-CUBE-HUAWEI/Middlewares/Third_Party/Huawei/iot_link/inc\dtls_al.h ****     uint8_t     *psk_id;           ///< the psk id
  71:D:/fchai/work/i-cube/I-CUBE-HUAWEI/Middlewares/Third_Party/Huawei/iot_link/inc\dtls_al.h ****     uint8_t     *psk_key;          ///< the psk key
  72:D:/fchai/work/i-cube/I-CUBE-HUAWEI/Middlewares/Third_Party/Huawei/iot_link/inc\dtls_al.h ****     int          psk_id_len;       ///< the psk id length
  73:D:/fchai/work/i-cube/I-CUBE-HUAWEI/Middlewares/Third_Party/Huawei/iot_link/inc\dtls_al.h ****     int          psk_key_len;      ///< the psk key length
  74:D:/fchai/work/i-cube/I-CUBE-HUAWEI/Middlewares/Third_Party/Huawei/iot_link/inc\dtls_al.h **** }dtls_al_security_psk_t;
  75:D:/fchai/work/i-cube/I-CUBE-HUAWEI/Middlewares/Third_Party/Huawei/iot_link/inc\dtls_al.h **** 
  76:D:/fchai/work/i-cube/I-CUBE-HUAWEI/Middlewares/Third_Party/Huawei/iot_link/inc\dtls_al.h **** 
  77:D:/fchai/work/i-cube/I-CUBE-HUAWEI/Middlewares/Third_Party/Huawei/iot_link/inc\dtls_al.h **** /** @brief this data defines for the cas mode:only check the server  */
  78:D:/fchai/work/i-cube/I-CUBE-HUAWEI/Middlewares/Third_Party/Huawei/iot_link/inc\dtls_al.h **** typedef struct
 403              		.loc 13 78 1 discriminator 3 view .LVU249
  79:D:/fchai/work/i-cube/I-CUBE-HUAWEI/Middlewares/Third_Party/Huawei/iot_link/inc\dtls_al.h **** {
  80:D:/fchai/work/i-cube/I-CUBE-HUAWEI/Middlewares/Third_Party/Huawei/iot_link/inc\dtls_al.h ****     uint8_t    *server_ca;
  81:D:/fchai/work/i-cube/I-CUBE-HUAWEI/Middlewares/Third_Party/Huawei/iot_link/inc\dtls_al.h ****     uint8_t    *client_ca;
  82:D:/fchai/work/i-cube/I-CUBE-HUAWEI/Middlewares/Third_Party/Huawei/iot_link/inc\dtls_al.h ****     uint8_t    *client_pk;
  83:D:/fchai/work/i-cube/I-CUBE-HUAWEI/Middlewares/Third_Party/Huawei/iot_link/inc\dtls_al.h ****     uint8_t    *client_pk_pwd;
  84:D:/fchai/work/i-cube/I-CUBE-HUAWEI/Middlewares/Third_Party/Huawei/iot_link/inc\dtls_al.h ****     int         server_ca_len;
  85:D:/fchai/work/i-cube/I-CUBE-HUAWEI/Middlewares/Third_Party/Huawei/iot_link/inc\dtls_al.h ****     int         client_ca_len;
  86:D:/fchai/work/i-cube/I-CUBE-HUAWEI/Middlewares/Third_Party/Huawei/iot_link/inc\dtls_al.h ****     int         client_pk_len;
  87:D:/fchai/work/i-cube/I-CUBE-HUAWEI/Middlewares/Third_Party/Huawei/iot_link/inc\dtls_al.h ****     int         client_pk_pwd_len;
  88:D:/fchai/work/i-cube/I-CUBE-HUAWEI/Middlewares/Third_Party/Huawei/iot_link/inc\dtls_al.h ****     char       *server_name;
  89:D:/fchai/work/i-cube/I-CUBE-HUAWEI/Middlewares/Third_Party/Huawei/iot_link/inc\dtls_al.h **** }dtls_al_security_cert_t;
  90:D:/fchai/work/i-cube/I-CUBE-HUAWEI/Middlewares/Third_Party/Huawei/iot_link/inc\dtls_al.h **** 
  91:D:/fchai/work/i-cube/I-CUBE-HUAWEI/Middlewares/Third_Party/Huawei/iot_link/inc\dtls_al.h **** 
  92:D:/fchai/work/i-cube/I-CUBE-HUAWEI/Middlewares/Third_Party/Huawei/iot_link/inc\dtls_al.h **** /** @brief this data defines for the encode parameter for the connect */
  93:D:/fchai/work/i-cube/I-CUBE-HUAWEI/Middlewares/Third_Party/Huawei/iot_link/inc\dtls_al.h **** typedef struct
 404              		.loc 13 93 1 discriminator 3 view .LVU250
  94:D:/fchai/work/i-cube/I-CUBE-HUAWEI/Middlewares/Third_Party/Huawei/iot_link/inc\dtls_al.h **** {
ARM GAS  T:\msys\tmp\ccjeK7qp.s 			page 31


  95:D:/fchai/work/i-cube/I-CUBE-HUAWEI/Middlewares/Third_Party/Huawei/iot_link/inc\dtls_al.h ****     en_dtls_al_security_type_t    type;         ///< which security type of the data
  96:D:/fchai/work/i-cube/I-CUBE-HUAWEI/Middlewares/Third_Party/Huawei/iot_link/inc\dtls_al.h ****     union
  97:D:/fchai/work/i-cube/I-CUBE-HUAWEI/Middlewares/Third_Party/Huawei/iot_link/inc\dtls_al.h ****     {
  98:D:/fchai/work/i-cube/I-CUBE-HUAWEI/Middlewares/Third_Party/Huawei/iot_link/inc\dtls_al.h ****         dtls_al_security_psk_t     psk;         ///< psk data  if the type is EN_DTSL_SECURITY_TYPE
  99:D:/fchai/work/i-cube/I-CUBE-HUAWEI/Middlewares/Third_Party/Huawei/iot_link/inc\dtls_al.h ****         dtls_al_security_cert_t    cert;         ///< cert data  if the type is EN_DTSL_SECURITY_TY
 100:D:/fchai/work/i-cube/I-CUBE-HUAWEI/Middlewares/Third_Party/Huawei/iot_link/inc\dtls_al.h ****     }u;
 101:D:/fchai/work/i-cube/I-CUBE-HUAWEI/Middlewares/Third_Party/Huawei/iot_link/inc\dtls_al.h **** }dtls_al_security_t;
 102:D:/fchai/work/i-cube/I-CUBE-HUAWEI/Middlewares/Third_Party/Huawei/iot_link/inc\dtls_al.h **** 
 103:D:/fchai/work/i-cube/I-CUBE-HUAWEI/Middlewares/Third_Party/Huawei/iot_link/inc\dtls_al.h **** typedef struct
 405              		.loc 13 103 1 discriminator 3 view .LVU251
 104:D:/fchai/work/i-cube/I-CUBE-HUAWEI/Middlewares/Third_Party/Huawei/iot_link/inc\dtls_al.h **** {
 105:D:/fchai/work/i-cube/I-CUBE-HUAWEI/Middlewares/Third_Party/Huawei/iot_link/inc\dtls_al.h ****     int                 istcp;
 106:D:/fchai/work/i-cube/I-CUBE-HUAWEI/Middlewares/Third_Party/Huawei/iot_link/inc\dtls_al.h ****     int                 isclient;
 107:D:/fchai/work/i-cube/I-CUBE-HUAWEI/Middlewares/Third_Party/Huawei/iot_link/inc\dtls_al.h ****     dtls_al_security_t  security;
 108:D:/fchai/work/i-cube/I-CUBE-HUAWEI/Middlewares/Third_Party/Huawei/iot_link/inc\dtls_al.h **** }dtls_al_para_t;
 109:D:/fchai/work/i-cube/I-CUBE-HUAWEI/Middlewares/Third_Party/Huawei/iot_link/inc\dtls_al.h **** 
 110:D:/fchai/work/i-cube/I-CUBE-HUAWEI/Middlewares/Third_Party/Huawei/iot_link/inc\dtls_al.h **** en_dtls_al_err_t  dtls_al_new(dtls_al_para_t *para,void **handle);
 406              		.loc 13 110 1 discriminator 3 view .LVU252
 111:D:/fchai/work/i-cube/I-CUBE-HUAWEI/Middlewares/Third_Party/Huawei/iot_link/inc\dtls_al.h **** int   dtls_al_connect(void *handle,const char *ip, const char *port, int timeout );
 407              		.loc 13 111 1 discriminator 3 view .LVU253
 112:D:/fchai/work/i-cube/I-CUBE-HUAWEI/Middlewares/Third_Party/Huawei/iot_link/inc\dtls_al.h **** int   dtls_al_write(void *handle, uint8_t *msg, size_t len, int timeout );
 408              		.loc 13 112 1 discriminator 3 view .LVU254
 113:D:/fchai/work/i-cube/I-CUBE-HUAWEI/Middlewares/Third_Party/Huawei/iot_link/inc\dtls_al.h **** int   dtls_al_read(void *handle,uint8_t *buf, size_t len,int timeout );
 409              		.loc 13 113 1 discriminator 3 view .LVU255
 114:D:/fchai/work/i-cube/I-CUBE-HUAWEI/Middlewares/Third_Party/Huawei/iot_link/inc\dtls_al.h **** en_dtls_al_err_t   dtls_al_destroy(void *handle);
 410              		.loc 13 114 1 discriminator 3 view .LVU256
 115:D:/fchai/work/i-cube/I-CUBE-HUAWEI/Middlewares/Third_Party/Huawei/iot_link/inc\dtls_al.h **** 
 116:D:/fchai/work/i-cube/I-CUBE-HUAWEI/Middlewares/Third_Party/Huawei/iot_link/inc\dtls_al.h **** typedef en_dtls_al_err_t (*fn_dtls_al_new)(dtls_al_para_t *para,void **handle);
 411              		.loc 13 116 1 discriminator 3 view .LVU257
 117:D:/fchai/work/i-cube/I-CUBE-HUAWEI/Middlewares/Third_Party/Huawei/iot_link/inc\dtls_al.h **** typedef int (*fn_dtls_al_connect)(void *handle,const char *server_ip, const char *server_port,int t
 412              		.loc 13 117 1 discriminator 3 view .LVU258
 118:D:/fchai/work/i-cube/I-CUBE-HUAWEI/Middlewares/Third_Party/Huawei/iot_link/inc\dtls_al.h **** typedef int (*fn_dtls_al_write)(void *handle,uint8_t *msg, size_t len, int timeout);
 413              		.loc 13 118 1 discriminator 3 view .LVU259
 119:D:/fchai/work/i-cube/I-CUBE-HUAWEI/Middlewares/Third_Party/Huawei/iot_link/inc\dtls_al.h **** typedef int (*fn_dtls_al_read)(void *handle, uint8_t *buf, size_t len, int timeout);
 414              		.loc 13 119 1 discriminator 3 view .LVU260
 120:D:/fchai/work/i-cube/I-CUBE-HUAWEI/Middlewares/Third_Party/Huawei/iot_link/inc\dtls_al.h **** typedef en_dtls_al_err_t (*fn_dtls_al_destroy)(void *handle);
 415              		.loc 13 120 1 discriminator 3 view .LVU261
 121:D:/fchai/work/i-cube/I-CUBE-HUAWEI/Middlewares/Third_Party/Huawei/iot_link/inc\dtls_al.h **** 
 122:D:/fchai/work/i-cube/I-CUBE-HUAWEI/Middlewares/Third_Party/Huawei/iot_link/inc\dtls_al.h **** typedef struct
 416              		.loc 13 122 1 discriminator 3 view .LVU262
 123:D:/fchai/work/i-cube/I-CUBE-HUAWEI/Middlewares/Third_Party/Huawei/iot_link/inc\dtls_al.h **** {
 124:D:/fchai/work/i-cube/I-CUBE-HUAWEI/Middlewares/Third_Party/Huawei/iot_link/inc\dtls_al.h ****     fn_dtls_al_new            io_new;
 125:D:/fchai/work/i-cube/I-CUBE-HUAWEI/Middlewares/Third_Party/Huawei/iot_link/inc\dtls_al.h ****     fn_dtls_al_connect        io_connect;
 126:D:/fchai/work/i-cube/I-CUBE-HUAWEI/Middlewares/Third_Party/Huawei/iot_link/inc\dtls_al.h ****     fn_dtls_al_write          io_write;
 127:D:/fchai/work/i-cube/I-CUBE-HUAWEI/Middlewares/Third_Party/Huawei/iot_link/inc\dtls_al.h ****     fn_dtls_al_read           io_read;
 128:D:/fchai/work/i-cube/I-CUBE-HUAWEI/Middlewares/Third_Party/Huawei/iot_link/inc\dtls_al.h ****     fn_dtls_al_destroy        io_destroy;
 129:D:/fchai/work/i-cube/I-CUBE-HUAWEI/Middlewares/Third_Party/Huawei/iot_link/inc\dtls_al.h **** }dtls_al_io_t;
 130:D:/fchai/work/i-cube/I-CUBE-HUAWEI/Middlewares/Third_Party/Huawei/iot_link/inc\dtls_al.h **** 
 131:D:/fchai/work/i-cube/I-CUBE-HUAWEI/Middlewares/Third_Party/Huawei/iot_link/inc\dtls_al.h **** typedef struct
 417              		.loc 13 131 1 discriminator 3 view .LVU263
 132:D:/fchai/work/i-cube/I-CUBE-HUAWEI/Middlewares/Third_Party/Huawei/iot_link/inc\dtls_al.h **** {
 133:D:/fchai/work/i-cube/I-CUBE-HUAWEI/Middlewares/Third_Party/Huawei/iot_link/inc\dtls_al.h ****     const char     *name;
 134:D:/fchai/work/i-cube/I-CUBE-HUAWEI/Middlewares/Third_Party/Huawei/iot_link/inc\dtls_al.h ****     dtls_al_io_t    io;
 135:D:/fchai/work/i-cube/I-CUBE-HUAWEI/Middlewares/Third_Party/Huawei/iot_link/inc\dtls_al.h **** }dtls_al_t;
 136:D:/fchai/work/i-cube/I-CUBE-HUAWEI/Middlewares/Third_Party/Huawei/iot_link/inc\dtls_al.h **** 
 137:D:/fchai/work/i-cube/I-CUBE-HUAWEI/Middlewares/Third_Party/Huawei/iot_link/inc\dtls_al.h **** int dtls_al_install(const dtls_al_t *dtls);
 418              		.loc 13 137 1 discriminator 3 view .LVU264
ARM GAS  T:\msys\tmp\ccjeK7qp.s 			page 32


 138:D:/fchai/work/i-cube/I-CUBE-HUAWEI/Middlewares/Third_Party/Huawei/iot_link/inc\dtls_al.h **** int dtls_al_uninstall(const char*name);
 419              		.loc 13 138 1 discriminator 3 view .LVU265
 139:D:/fchai/work/i-cube/I-CUBE-HUAWEI/Middlewares/Third_Party/Huawei/iot_link/inc\dtls_al.h **** 
 140:D:/fchai/work/i-cube/I-CUBE-HUAWEI/Middlewares/Third_Party/Huawei/iot_link/inc\dtls_al.h **** ///< this function should implemented by the developer of the tls
 141:D:/fchai/work/i-cube/I-CUBE-HUAWEI/Middlewares/Third_Party/Huawei/iot_link/inc\dtls_al.h **** int dtls_imp_init(void);
 420              		.loc 13 141 1 discriminator 3 view .LVU266
 142:D:/fchai/work/i-cube/I-CUBE-HUAWEI/Middlewares/Third_Party/Huawei/iot_link/inc\dtls_al.h **** int dtls_al_init(void) ;  ///< this function will call dtls_imp_init()
 421              		.loc 13 142 1 discriminator 3 view .LVU267
 123:D:/fchai/work/i-cube/I-CUBE-HUAWEI/Middlewares/Third_Party/Huawei/iot_link\link_main.c **** #endif
 124:D:/fchai/work/i-cube/I-CUBE-HUAWEI/Middlewares/Third_Party/Huawei/iot_link\link_main.c **** 
 125:D:/fchai/work/i-cube/I-CUBE-HUAWEI/Middlewares/Third_Party/Huawei/iot_link\link_main.c **** //////////////////////////  DTLS PROTOCOL  /////////////////////////////////////
 126:D:/fchai/work/i-cube/I-CUBE-HUAWEI/Middlewares/Third_Party/Huawei/iot_link\link_main.c **** #ifdef CONFIG_DTLS_AL_ENABLE
 127:D:/fchai/work/i-cube/I-CUBE-HUAWEI/Middlewares/Third_Party/Huawei/iot_link\link_main.c ****     #include <dtls_al.h>
 128:D:/fchai/work/i-cube/I-CUBE-HUAWEI/Middlewares/Third_Party/Huawei/iot_link\link_main.c ****     (void)dtls_al_init();
 422              		.loc 1 128 5 discriminator 3 view .LVU268
 423              		.loc 1 128 11 is_stmt 0 discriminator 3 view .LVU269
 424 0042 FFF7FEFF 		bl	dtls_al_init
 425              	.LVL11:
 426              		.file 14 "D:/fchai/work/i-cube/I-CUBE-HUAWEI/Middlewares/Third_Party/Huawei/iot_link/inc/mqtt_al.h
   1:D:/fchai/work/i-cube/I-CUBE-HUAWEI/Middlewares/Third_Party/Huawei/iot_link/inc\mqtt_al.h **** /*----------------------------------------------------------------------------
   2:D:/fchai/work/i-cube/I-CUBE-HUAWEI/Middlewares/Third_Party/Huawei/iot_link/inc\mqtt_al.h ****  * Copyright (c) <2018>, <Huawei Technologies Co., Ltd>
   3:D:/fchai/work/i-cube/I-CUBE-HUAWEI/Middlewares/Third_Party/Huawei/iot_link/inc\mqtt_al.h ****  * All rights reserved.
   4:D:/fchai/work/i-cube/I-CUBE-HUAWEI/Middlewares/Third_Party/Huawei/iot_link/inc\mqtt_al.h ****  * Redistribution and use in source and binary forms, with or without modification,
   5:D:/fchai/work/i-cube/I-CUBE-HUAWEI/Middlewares/Third_Party/Huawei/iot_link/inc\mqtt_al.h ****  * are permitted provided that the following conditions are met:
   6:D:/fchai/work/i-cube/I-CUBE-HUAWEI/Middlewares/Third_Party/Huawei/iot_link/inc\mqtt_al.h ****  * 1. Redistributions of source code must retain the above copyright notice, this list of
   7:D:/fchai/work/i-cube/I-CUBE-HUAWEI/Middlewares/Third_Party/Huawei/iot_link/inc\mqtt_al.h ****  * conditions and the following disclaimer.
   8:D:/fchai/work/i-cube/I-CUBE-HUAWEI/Middlewares/Third_Party/Huawei/iot_link/inc\mqtt_al.h ****  * 2. Redistributions in binary form must reproduce the above copyright notice, this list
   9:D:/fchai/work/i-cube/I-CUBE-HUAWEI/Middlewares/Third_Party/Huawei/iot_link/inc\mqtt_al.h ****  * of conditions and the following disclaimer in the documentation and/or other materials
  10:D:/fchai/work/i-cube/I-CUBE-HUAWEI/Middlewares/Third_Party/Huawei/iot_link/inc\mqtt_al.h ****  * provided with the distribution.
  11:D:/fchai/work/i-cube/I-CUBE-HUAWEI/Middlewares/Third_Party/Huawei/iot_link/inc\mqtt_al.h ****  * 3. Neither the name of the copyright holder nor the names of its contributors may be used
  12:D:/fchai/work/i-cube/I-CUBE-HUAWEI/Middlewares/Third_Party/Huawei/iot_link/inc\mqtt_al.h ****  * to endorse or promote products derived from this software without specific prior written
  13:D:/fchai/work/i-cube/I-CUBE-HUAWEI/Middlewares/Third_Party/Huawei/iot_link/inc\mqtt_al.h ****  * permission.
  14:D:/fchai/work/i-cube/I-CUBE-HUAWEI/Middlewares/Third_Party/Huawei/iot_link/inc\mqtt_al.h ****  * THIS SOFTWARE IS PROVIDED BY THE COPYRIGHT HOLDERS AND CONTRIBUTORS
  15:D:/fchai/work/i-cube/I-CUBE-HUAWEI/Middlewares/Third_Party/Huawei/iot_link/inc\mqtt_al.h ****  * "AS IS" AND ANY EXPRESS OR IMPLIED WARRANTIES, INCLUDING, BUT NOT LIMITED TO,
  16:D:/fchai/work/i-cube/I-CUBE-HUAWEI/Middlewares/Third_Party/Huawei/iot_link/inc\mqtt_al.h ****  * THE IMPLIED WARRANTIES OF MERCHANTABILITY AND FITNESS FOR A PARTICULAR
  17:D:/fchai/work/i-cube/I-CUBE-HUAWEI/Middlewares/Third_Party/Huawei/iot_link/inc\mqtt_al.h ****  * PURPOSE ARE DISCLAIMED. IN NO EVENT SHALL THE COPYRIGHT HOLDER OR
  18:D:/fchai/work/i-cube/I-CUBE-HUAWEI/Middlewares/Third_Party/Huawei/iot_link/inc\mqtt_al.h ****  * CONTRIBUTORS BE LIABLE FOR ANY DIRECT, INDIRECT, INCIDENTAL, SPECIAL,
  19:D:/fchai/work/i-cube/I-CUBE-HUAWEI/Middlewares/Third_Party/Huawei/iot_link/inc\mqtt_al.h ****  * EXEMPLARY, OR CONSEQUENTIAL DAMAGES (INCLUDING, BUT NOT LIMITED TO,
  20:D:/fchai/work/i-cube/I-CUBE-HUAWEI/Middlewares/Third_Party/Huawei/iot_link/inc\mqtt_al.h ****  * PROCUREMENT OF SUBSTITUTE GOODS OR SERVICES; LOSS OF USE, DATA, OR PROFITS;
  21:D:/fchai/work/i-cube/I-CUBE-HUAWEI/Middlewares/Third_Party/Huawei/iot_link/inc\mqtt_al.h ****  * OR BUSINESS INTERRUPTION) HOWEVER CAUSED AND ON ANY THEORY OF LIABILITY,
  22:D:/fchai/work/i-cube/I-CUBE-HUAWEI/Middlewares/Third_Party/Huawei/iot_link/inc\mqtt_al.h ****  * WHETHER IN CONTRACT, STRICT LIABILITY, OR TORT (INCLUDING NEGLIGENCE OR
  23:D:/fchai/work/i-cube/I-CUBE-HUAWEI/Middlewares/Third_Party/Huawei/iot_link/inc\mqtt_al.h ****  * OTHERWISE) ARISING IN ANY WAY OUT OF THE USE OF THIS SOFTWARE, EVEN IF
  24:D:/fchai/work/i-cube/I-CUBE-HUAWEI/Middlewares/Third_Party/Huawei/iot_link/inc\mqtt_al.h ****  * ADVISED OF THE POSSIBILITY OF SUCH DAMAGE.
  25:D:/fchai/work/i-cube/I-CUBE-HUAWEI/Middlewares/Third_Party/Huawei/iot_link/inc\mqtt_al.h ****  *---------------------------------------------------------------------------*/
  26:D:/fchai/work/i-cube/I-CUBE-HUAWEI/Middlewares/Third_Party/Huawei/iot_link/inc\mqtt_al.h **** /*----------------------------------------------------------------------------
  27:D:/fchai/work/i-cube/I-CUBE-HUAWEI/Middlewares/Third_Party/Huawei/iot_link/inc\mqtt_al.h ****  * Notice of Export Control Law
  28:D:/fchai/work/i-cube/I-CUBE-HUAWEI/Middlewares/Third_Party/Huawei/iot_link/inc\mqtt_al.h ****  * ===============================================
  29:D:/fchai/work/i-cube/I-CUBE-HUAWEI/Middlewares/Third_Party/Huawei/iot_link/inc\mqtt_al.h ****  * Huawei LiteOS may be subject to applicable export control laws and regulations, which might
  30:D:/fchai/work/i-cube/I-CUBE-HUAWEI/Middlewares/Third_Party/Huawei/iot_link/inc\mqtt_al.h ****  * include those applicable to Huawei LiteOS of U.S. and the country in which you are located.
  31:D:/fchai/work/i-cube/I-CUBE-HUAWEI/Middlewares/Third_Party/Huawei/iot_link/inc\mqtt_al.h ****  * Import, export and usage of Huawei LiteOS in any manner by you shall be in compliance with such
  32:D:/fchai/work/i-cube/I-CUBE-HUAWEI/Middlewares/Third_Party/Huawei/iot_link/inc\mqtt_al.h ****  * applicable export control laws and regulations.
  33:D:/fchai/work/i-cube/I-CUBE-HUAWEI/Middlewares/Third_Party/Huawei/iot_link/inc\mqtt_al.h ****  *---------------------------------------------------------------------------*/
  34:D:/fchai/work/i-cube/I-CUBE-HUAWEI/Middlewares/Third_Party/Huawei/iot_link/inc\mqtt_al.h **** 
  35:D:/fchai/work/i-cube/I-CUBE-HUAWEI/Middlewares/Third_Party/Huawei/iot_link/inc\mqtt_al.h **** #ifndef MQTT_AL_H
  36:D:/fchai/work/i-cube/I-CUBE-HUAWEI/Middlewares/Third_Party/Huawei/iot_link/inc\mqtt_al.h **** #define MQTT_AL_H
  37:D:/fchai/work/i-cube/I-CUBE-HUAWEI/Middlewares/Third_Party/Huawei/iot_link/inc\mqtt_al.h **** 
  38:D:/fchai/work/i-cube/I-CUBE-HUAWEI/Middlewares/Third_Party/Huawei/iot_link/inc\mqtt_al.h **** #include <stdint.h>
ARM GAS  T:\msys\tmp\ccjeK7qp.s 			page 33


  39:D:/fchai/work/i-cube/I-CUBE-HUAWEI/Middlewares/Third_Party/Huawei/iot_link/inc\mqtt_al.h **** #include <dtls_al.h>
  40:D:/fchai/work/i-cube/I-CUBE-HUAWEI/Middlewares/Third_Party/Huawei/iot_link/inc\mqtt_al.h **** 
  41:D:/fchai/work/i-cube/I-CUBE-HUAWEI/Middlewares/Third_Party/Huawei/iot_link/inc\mqtt_al.h **** #if defined(__cplusplus)
  42:D:/fchai/work/i-cube/I-CUBE-HUAWEI/Middlewares/Third_Party/Huawei/iot_link/inc\mqtt_al.h **** extern "C" {
  43:D:/fchai/work/i-cube/I-CUBE-HUAWEI/Middlewares/Third_Party/Huawei/iot_link/inc\mqtt_al.h **** #endif
  44:D:/fchai/work/i-cube/I-CUBE-HUAWEI/Middlewares/Third_Party/Huawei/iot_link/inc\mqtt_al.h **** 
  45:D:/fchai/work/i-cube/I-CUBE-HUAWEI/Middlewares/Third_Party/Huawei/iot_link/inc\mqtt_al.h **** /** brief defines for all the ascii or data used in the mqtt engine */
  46:D:/fchai/work/i-cube/I-CUBE-HUAWEI/Middlewares/Third_Party/Huawei/iot_link/inc\mqtt_al.h **** typedef struct
 427              		.loc 14 46 1 is_stmt 1 discriminator 3 view .LVU270
  47:D:/fchai/work/i-cube/I-CUBE-HUAWEI/Middlewares/Third_Party/Huawei/iot_link/inc\mqtt_al.h **** {
  48:D:/fchai/work/i-cube/I-CUBE-HUAWEI/Middlewares/Third_Party/Huawei/iot_link/inc\mqtt_al.h ****     char *data;      ///< buffer to storage the data
  49:D:/fchai/work/i-cube/I-CUBE-HUAWEI/Middlewares/Third_Party/Huawei/iot_link/inc\mqtt_al.h ****     int   len;       ///< buffer data length
  50:D:/fchai/work/i-cube/I-CUBE-HUAWEI/Middlewares/Third_Party/Huawei/iot_link/inc\mqtt_al.h **** }mqtt_al_string_t;   //used to represent any type string (maybe not ascii)
  51:D:/fchai/work/i-cube/I-CUBE-HUAWEI/Middlewares/Third_Party/Huawei/iot_link/inc\mqtt_al.h **** 
  52:D:/fchai/work/i-cube/I-CUBE-HUAWEI/Middlewares/Third_Party/Huawei/iot_link/inc\mqtt_al.h **** ///** @brief  this enum all the transport encode we support now*/
  53:D:/fchai/work/i-cube/I-CUBE-HUAWEI/Middlewares/Third_Party/Huawei/iot_link/inc\mqtt_al.h **** //typedef enum
  54:D:/fchai/work/i-cube/I-CUBE-HUAWEI/Middlewares/Third_Party/Huawei/iot_link/inc\mqtt_al.h **** //{
  55:D:/fchai/work/i-cube/I-CUBE-HUAWEI/Middlewares/Third_Party/Huawei/iot_link/inc\mqtt_al.h **** //  en_mqtt_al_security_none = 0,    ///< no encode
  56:D:/fchai/work/i-cube/I-CUBE-HUAWEI/Middlewares/Third_Party/Huawei/iot_link/inc\mqtt_al.h **** //  en_mqtt_al_security_psk,         ///< use the psk mode in transport layer
  57:D:/fchai/work/i-cube/I-CUBE-HUAWEI/Middlewares/Third_Party/Huawei/iot_link/inc\mqtt_al.h **** //  en_mqtt_al_security_cas,         ///< use the ca mode in transport layer,only check the server
  58:D:/fchai/work/i-cube/I-CUBE-HUAWEI/Middlewares/Third_Party/Huawei/iot_link/inc\mqtt_al.h **** //  en_mqtt_al_security_cacs,        ///< use the ca mode in transport layer,both check the server 
  59:D:/fchai/work/i-cube/I-CUBE-HUAWEI/Middlewares/Third_Party/Huawei/iot_link/inc\mqtt_al.h **** //  en_mqtt_al_security_end,         ///< the end for the mqtt
  60:D:/fchai/work/i-cube/I-CUBE-HUAWEI/Middlewares/Third_Party/Huawei/iot_link/inc\mqtt_al.h **** //}en_mqtt_al_security_t;
  61:D:/fchai/work/i-cube/I-CUBE-HUAWEI/Middlewares/Third_Party/Huawei/iot_link/inc\mqtt_al.h **** //
  62:D:/fchai/work/i-cube/I-CUBE-HUAWEI/Middlewares/Third_Party/Huawei/iot_link/inc\mqtt_al.h **** ///** @brief this data defines for the psk mode*/
  63:D:/fchai/work/i-cube/I-CUBE-HUAWEI/Middlewares/Third_Party/Huawei/iot_link/inc\mqtt_al.h **** //typedef struct
  64:D:/fchai/work/i-cube/I-CUBE-HUAWEI/Middlewares/Third_Party/Huawei/iot_link/inc\mqtt_al.h **** //{
  65:D:/fchai/work/i-cube/I-CUBE-HUAWEI/Middlewares/Third_Party/Huawei/iot_link/inc\mqtt_al.h **** //  mqtt_al_string_t  psk_id;   ///< the psk id
  66:D:/fchai/work/i-cube/I-CUBE-HUAWEI/Middlewares/Third_Party/Huawei/iot_link/inc\mqtt_al.h **** //  mqtt_al_string_t  psk_key;  ///< the psk key
  67:D:/fchai/work/i-cube/I-CUBE-HUAWEI/Middlewares/Third_Party/Huawei/iot_link/inc\mqtt_al.h **** //}mqtt_al_security_psk_t;
  68:D:/fchai/work/i-cube/I-CUBE-HUAWEI/Middlewares/Third_Party/Huawei/iot_link/inc\mqtt_al.h **** //
  69:D:/fchai/work/i-cube/I-CUBE-HUAWEI/Middlewares/Third_Party/Huawei/iot_link/inc\mqtt_al.h **** ///** @brief this data defines for the cas mode:only check the server  */
  70:D:/fchai/work/i-cube/I-CUBE-HUAWEI/Middlewares/Third_Party/Huawei/iot_link/inc\mqtt_al.h **** //typedef struct
  71:D:/fchai/work/i-cube/I-CUBE-HUAWEI/Middlewares/Third_Party/Huawei/iot_link/inc\mqtt_al.h **** //{
  72:D:/fchai/work/i-cube/I-CUBE-HUAWEI/Middlewares/Third_Party/Huawei/iot_link/inc\mqtt_al.h **** //    mqtt_al_string_t  ca_crt;  ///<  the ca crt
  73:D:/fchai/work/i-cube/I-CUBE-HUAWEI/Middlewares/Third_Party/Huawei/iot_link/inc\mqtt_al.h **** //}mqtt_al_security_cas_t;
  74:D:/fchai/work/i-cube/I-CUBE-HUAWEI/Middlewares/Third_Party/Huawei/iot_link/inc\mqtt_al.h **** //
  75:D:/fchai/work/i-cube/I-CUBE-HUAWEI/Middlewares/Third_Party/Huawei/iot_link/inc\mqtt_al.h **** //
  76:D:/fchai/work/i-cube/I-CUBE-HUAWEI/Middlewares/Third_Party/Huawei/iot_link/inc\mqtt_al.h **** ///** @brief this data defines for the cacs mode:both check the server and client */
  77:D:/fchai/work/i-cube/I-CUBE-HUAWEI/Middlewares/Third_Party/Huawei/iot_link/inc\mqtt_al.h **** //typedef struct
  78:D:/fchai/work/i-cube/I-CUBE-HUAWEI/Middlewares/Third_Party/Huawei/iot_link/inc\mqtt_al.h **** //{
  79:D:/fchai/work/i-cube/I-CUBE-HUAWEI/Middlewares/Third_Party/Huawei/iot_link/inc\mqtt_al.h **** //  mqtt_al_string_t ca_s_crt;     ///< the server crt
  80:D:/fchai/work/i-cube/I-CUBE-HUAWEI/Middlewares/Third_Party/Huawei/iot_link/inc\mqtt_al.h **** //  mqtt_al_string_t ca_c_crt;     ///< the client crt
  81:D:/fchai/work/i-cube/I-CUBE-HUAWEI/Middlewares/Third_Party/Huawei/iot_link/inc\mqtt_al.h **** //  mqtt_al_string_t ca_c_key;     ///< the client ca key
  82:D:/fchai/work/i-cube/I-CUBE-HUAWEI/Middlewares/Third_Party/Huawei/iot_link/inc\mqtt_al.h **** //  mqtt_al_string_t ca_host;      ///< for peer certificate, maybe they need this
  83:D:/fchai/work/i-cube/I-CUBE-HUAWEI/Middlewares/Third_Party/Huawei/iot_link/inc\mqtt_al.h **** //}mqtt_al_security_cacs_t;
  84:D:/fchai/work/i-cube/I-CUBE-HUAWEI/Middlewares/Third_Party/Huawei/iot_link/inc\mqtt_al.h **** //
  85:D:/fchai/work/i-cube/I-CUBE-HUAWEI/Middlewares/Third_Party/Huawei/iot_link/inc\mqtt_al.h **** ///** @brief this data defines for the encode parameter for the connect */
  86:D:/fchai/work/i-cube/I-CUBE-HUAWEI/Middlewares/Third_Party/Huawei/iot_link/inc\mqtt_al.h **** //typedef struct
  87:D:/fchai/work/i-cube/I-CUBE-HUAWEI/Middlewares/Third_Party/Huawei/iot_link/inc\mqtt_al.h **** //{
  88:D:/fchai/work/i-cube/I-CUBE-HUAWEI/Middlewares/Third_Party/Huawei/iot_link/inc\mqtt_al.h **** //  en_mqtt_al_security_t type;         ///< which security type of the data
  89:D:/fchai/work/i-cube/I-CUBE-HUAWEI/Middlewares/Third_Party/Huawei/iot_link/inc\mqtt_al.h **** //    union
  90:D:/fchai/work/i-cube/I-CUBE-HUAWEI/Middlewares/Third_Party/Huawei/iot_link/inc\mqtt_al.h **** //    {
  91:D:/fchai/work/i-cube/I-CUBE-HUAWEI/Middlewares/Third_Party/Huawei/iot_link/inc\mqtt_al.h **** //      mqtt_al_security_psk_t   psk;   ///< psk data  if the type is en_mqtt_security_psk
  92:D:/fchai/work/i-cube/I-CUBE-HUAWEI/Middlewares/Third_Party/Huawei/iot_link/inc\mqtt_al.h **** //      mqtt_al_security_cas_t   cas;   ///< cas data  if the type is en_mqtt_security_cas
  93:D:/fchai/work/i-cube/I-CUBE-HUAWEI/Middlewares/Third_Party/Huawei/iot_link/inc\mqtt_al.h **** //      mqtt_al_security_cacs_t  cacs;  ///< cacs data if the type is en_mqtt_security_cacs
  94:D:/fchai/work/i-cube/I-CUBE-HUAWEI/Middlewares/Third_Party/Huawei/iot_link/inc\mqtt_al.h **** //    }u;
ARM GAS  T:\msys\tmp\ccjeK7qp.s 			page 34


  95:D:/fchai/work/i-cube/I-CUBE-HUAWEI/Middlewares/Third_Party/Huawei/iot_link/inc\mqtt_al.h **** //}mqtt_al_security_para_t;
  96:D:/fchai/work/i-cube/I-CUBE-HUAWEI/Middlewares/Third_Party/Huawei/iot_link/inc\mqtt_al.h **** 
  97:D:/fchai/work/i-cube/I-CUBE-HUAWEI/Middlewares/Third_Party/Huawei/iot_link/inc\mqtt_al.h **** /** @brief enum all the qos supported for the application */
  98:D:/fchai/work/i-cube/I-CUBE-HUAWEI/Middlewares/Third_Party/Huawei/iot_link/inc\mqtt_al.h **** typedef enum
 428              		.loc 14 98 1 discriminator 3 view .LVU271
  99:D:/fchai/work/i-cube/I-CUBE-HUAWEI/Middlewares/Third_Party/Huawei/iot_link/inc\mqtt_al.h **** {
 100:D:/fchai/work/i-cube/I-CUBE-HUAWEI/Middlewares/Third_Party/Huawei/iot_link/inc\mqtt_al.h ****     en_mqtt_al_qos_0 = 0,     ///< mqtt QOS 0
 101:D:/fchai/work/i-cube/I-CUBE-HUAWEI/Middlewares/Third_Party/Huawei/iot_link/inc\mqtt_al.h ****     en_mqtt_al_qos_1,         ///< mqtt QOS 1
 102:D:/fchai/work/i-cube/I-CUBE-HUAWEI/Middlewares/Third_Party/Huawei/iot_link/inc\mqtt_al.h ****     en_mqtt_al_qos_2,         ///< mqtt QOS 2
 103:D:/fchai/work/i-cube/I-CUBE-HUAWEI/Middlewares/Third_Party/Huawei/iot_link/inc\mqtt_al.h ****     en_mqtt_al_qos_err
 104:D:/fchai/work/i-cube/I-CUBE-HUAWEI/Middlewares/Third_Party/Huawei/iot_link/inc\mqtt_al.h **** }en_mqtt_al_qos_t;
 105:D:/fchai/work/i-cube/I-CUBE-HUAWEI/Middlewares/Third_Party/Huawei/iot_link/inc\mqtt_al.h **** 
 106:D:/fchai/work/i-cube/I-CUBE-HUAWEI/Middlewares/Third_Party/Huawei/iot_link/inc\mqtt_al.h **** /** @brief defines the parameter used for the will message used in connect */
 107:D:/fchai/work/i-cube/I-CUBE-HUAWEI/Middlewares/Third_Party/Huawei/iot_link/inc\mqtt_al.h **** typedef struct
 429              		.loc 14 107 1 discriminator 3 view .LVU272
 108:D:/fchai/work/i-cube/I-CUBE-HUAWEI/Middlewares/Third_Party/Huawei/iot_link/inc\mqtt_al.h **** {
 109:D:/fchai/work/i-cube/I-CUBE-HUAWEI/Middlewares/Third_Party/Huawei/iot_link/inc\mqtt_al.h ****     mqtt_al_string_t  topic;    ///< will topic
 110:D:/fchai/work/i-cube/I-CUBE-HUAWEI/Middlewares/Third_Party/Huawei/iot_link/inc\mqtt_al.h ****     mqtt_al_string_t  msg;      ///< will message
 111:D:/fchai/work/i-cube/I-CUBE-HUAWEI/Middlewares/Third_Party/Huawei/iot_link/inc\mqtt_al.h ****     en_mqtt_al_qos_t  qos;      ///< will message qos
 112:D:/fchai/work/i-cube/I-CUBE-HUAWEI/Middlewares/Third_Party/Huawei/iot_link/inc\mqtt_al.h ****     int               retain;   ///< will message retain or not:1 retain while 0 not
 113:D:/fchai/work/i-cube/I-CUBE-HUAWEI/Middlewares/Third_Party/Huawei/iot_link/inc\mqtt_al.h **** }mqtt_al_willmsg_t;
 114:D:/fchai/work/i-cube/I-CUBE-HUAWEI/Middlewares/Third_Party/Huawei/iot_link/inc\mqtt_al.h **** 
 115:D:/fchai/work/i-cube/I-CUBE-HUAWEI/Middlewares/Third_Party/Huawei/iot_link/inc\mqtt_al.h **** /** @brief enum the mqtt version*/
 116:D:/fchai/work/i-cube/I-CUBE-HUAWEI/Middlewares/Third_Party/Huawei/iot_link/inc\mqtt_al.h **** typedef enum
 430              		.loc 14 116 1 discriminator 3 view .LVU273
 117:D:/fchai/work/i-cube/I-CUBE-HUAWEI/Middlewares/Third_Party/Huawei/iot_link/inc\mqtt_al.h **** {
 118:D:/fchai/work/i-cube/I-CUBE-HUAWEI/Middlewares/Third_Party/Huawei/iot_link/inc\mqtt_al.h ****     en_mqtt_al_version_3_1_0 = 0,
 119:D:/fchai/work/i-cube/I-CUBE-HUAWEI/Middlewares/Third_Party/Huawei/iot_link/inc\mqtt_al.h ****     en_mqtt_al_version_3_1_1,
 120:D:/fchai/work/i-cube/I-CUBE-HUAWEI/Middlewares/Third_Party/Huawei/iot_link/inc\mqtt_al.h **** }en_mqtt_al_verison;
 121:D:/fchai/work/i-cube/I-CUBE-HUAWEI/Middlewares/Third_Party/Huawei/iot_link/inc\mqtt_al.h **** 
 122:D:/fchai/work/i-cube/I-CUBE-HUAWEI/Middlewares/Third_Party/Huawei/iot_link/inc\mqtt_al.h **** 
 123:D:/fchai/work/i-cube/I-CUBE-HUAWEI/Middlewares/Third_Party/Huawei/iot_link/inc\mqtt_al.h **** 
 124:D:/fchai/work/i-cube/I-CUBE-HUAWEI/Middlewares/Third_Party/Huawei/iot_link/inc\mqtt_al.h **** /** @brief defines the paramter for the mqtt connect */
 125:D:/fchai/work/i-cube/I-CUBE-HUAWEI/Middlewares/Third_Party/Huawei/iot_link/inc\mqtt_al.h **** typedef struct
 431              		.loc 14 125 1 discriminator 3 view .LVU274
 126:D:/fchai/work/i-cube/I-CUBE-HUAWEI/Middlewares/Third_Party/Huawei/iot_link/inc\mqtt_al.h **** {
 127:D:/fchai/work/i-cube/I-CUBE-HUAWEI/Middlewares/Third_Party/Huawei/iot_link/inc\mqtt_al.h ****     mqtt_al_string_t               serveraddr;   ///< mqtt server:support domain name and dot forma
 128:D:/fchai/work/i-cube/I-CUBE-HUAWEI/Middlewares/Third_Party/Huawei/iot_link/inc\mqtt_al.h ****     int                            serverport;   ///< mqtt server port
 129:D:/fchai/work/i-cube/I-CUBE-HUAWEI/Middlewares/Third_Party/Huawei/iot_link/inc\mqtt_al.h ****     dtls_al_security_t            *security;     ///< if NULL,will use en_mqtt_security_none
 130:D:/fchai/work/i-cube/I-CUBE-HUAWEI/Middlewares/Third_Party/Huawei/iot_link/inc\mqtt_al.h ****     en_mqtt_al_verison             version;      ///< mqtt version will be used
 131:D:/fchai/work/i-cube/I-CUBE-HUAWEI/Middlewares/Third_Party/Huawei/iot_link/inc\mqtt_al.h ****     mqtt_al_string_t               clientid;     ///< mqtt connect client identifier
 132:D:/fchai/work/i-cube/I-CUBE-HUAWEI/Middlewares/Third_Party/Huawei/iot_link/inc\mqtt_al.h ****     mqtt_al_string_t               user;         ///< mqtt connect user
 133:D:/fchai/work/i-cube/I-CUBE-HUAWEI/Middlewares/Third_Party/Huawei/iot_link/inc\mqtt_al.h ****     mqtt_al_string_t               passwd;       ///< mqtt connect pwd
 134:D:/fchai/work/i-cube/I-CUBE-HUAWEI/Middlewares/Third_Party/Huawei/iot_link/inc\mqtt_al.h ****     int                            cleansession; ///< 1 clean the session while 0 not
 135:D:/fchai/work/i-cube/I-CUBE-HUAWEI/Middlewares/Third_Party/Huawei/iot_link/inc\mqtt_al.h ****     mqtt_al_willmsg_t             *willmsg;      ///< mqtt connect will message
 136:D:/fchai/work/i-cube/I-CUBE-HUAWEI/Middlewares/Third_Party/Huawei/iot_link/inc\mqtt_al.h ****     unsigned short                 keepalivetime;///< keep alive time
 137:D:/fchai/work/i-cube/I-CUBE-HUAWEI/Middlewares/Third_Party/Huawei/iot_link/inc\mqtt_al.h ****     char                           conret;       ///< mqtt connect code, return by server
 138:D:/fchai/work/i-cube/I-CUBE-HUAWEI/Middlewares/Third_Party/Huawei/iot_link/inc\mqtt_al.h ****     int                            timeout;      ///< how much time will be blocked
 139:D:/fchai/work/i-cube/I-CUBE-HUAWEI/Middlewares/Third_Party/Huawei/iot_link/inc\mqtt_al.h **** }mqtt_al_conpara_t;
 140:D:/fchai/work/i-cube/I-CUBE-HUAWEI/Middlewares/Third_Party/Huawei/iot_link/inc\mqtt_al.h **** 
 141:D:/fchai/work/i-cube/I-CUBE-HUAWEI/Middlewares/Third_Party/Huawei/iot_link/inc\mqtt_al.h **** /** @brief defines for the mqtt publish */
 142:D:/fchai/work/i-cube/I-CUBE-HUAWEI/Middlewares/Third_Party/Huawei/iot_link/inc\mqtt_al.h **** typedef struct
 432              		.loc 14 142 1 discriminator 3 view .LVU275
 143:D:/fchai/work/i-cube/I-CUBE-HUAWEI/Middlewares/Third_Party/Huawei/iot_link/inc\mqtt_al.h **** {
 144:D:/fchai/work/i-cube/I-CUBE-HUAWEI/Middlewares/Third_Party/Huawei/iot_link/inc\mqtt_al.h ****     mqtt_al_string_t    topic;    ///< selected publish topic
 145:D:/fchai/work/i-cube/I-CUBE-HUAWEI/Middlewares/Third_Party/Huawei/iot_link/inc\mqtt_al.h ****     mqtt_al_string_t    msg;      ///< message to be published
 146:D:/fchai/work/i-cube/I-CUBE-HUAWEI/Middlewares/Third_Party/Huawei/iot_link/inc\mqtt_al.h ****     en_mqtt_al_qos_t    qos;      ///< message qos
ARM GAS  T:\msys\tmp\ccjeK7qp.s 			page 35


 147:D:/fchai/work/i-cube/I-CUBE-HUAWEI/Middlewares/Third_Party/Huawei/iot_link/inc\mqtt_al.h ****     int                 retain;   ///< message retain :1 retain while 0 not
 148:D:/fchai/work/i-cube/I-CUBE-HUAWEI/Middlewares/Third_Party/Huawei/iot_link/inc\mqtt_al.h ****     int                 timeout;  ///< how much time will blocked
 149:D:/fchai/work/i-cube/I-CUBE-HUAWEI/Middlewares/Third_Party/Huawei/iot_link/inc\mqtt_al.h **** }mqtt_al_pubpara_t;
 150:D:/fchai/work/i-cube/I-CUBE-HUAWEI/Middlewares/Third_Party/Huawei/iot_link/inc\mqtt_al.h **** 
 151:D:/fchai/work/i-cube/I-CUBE-HUAWEI/Middlewares/Third_Party/Huawei/iot_link/inc\mqtt_al.h **** 
 152:D:/fchai/work/i-cube/I-CUBE-HUAWEI/Middlewares/Third_Party/Huawei/iot_link/inc\mqtt_al.h **** /** @brief  defines for the message will be passed to the application dealer*/
 153:D:/fchai/work/i-cube/I-CUBE-HUAWEI/Middlewares/Third_Party/Huawei/iot_link/inc\mqtt_al.h **** typedef struct
 433              		.loc 14 153 1 discriminator 3 view .LVU276
 154:D:/fchai/work/i-cube/I-CUBE-HUAWEI/Middlewares/Third_Party/Huawei/iot_link/inc\mqtt_al.h **** {
 155:D:/fchai/work/i-cube/I-CUBE-HUAWEI/Middlewares/Third_Party/Huawei/iot_link/inc\mqtt_al.h ****     mqtt_al_string_t       topic; ///< message topic
 156:D:/fchai/work/i-cube/I-CUBE-HUAWEI/Middlewares/Third_Party/Huawei/iot_link/inc\mqtt_al.h ****     mqtt_al_string_t       msg;   ///< the topic message payload
 157:D:/fchai/work/i-cube/I-CUBE-HUAWEI/Middlewares/Third_Party/Huawei/iot_link/inc\mqtt_al.h ****     en_mqtt_al_qos_t       qos;   ///< message qos
 158:D:/fchai/work/i-cube/I-CUBE-HUAWEI/Middlewares/Third_Party/Huawei/iot_link/inc\mqtt_al.h ****     int                    dup;   ///< message dup times
 159:D:/fchai/work/i-cube/I-CUBE-HUAWEI/Middlewares/Third_Party/Huawei/iot_link/inc\mqtt_al.h ****     int                    retain;///< retain or not
 160:D:/fchai/work/i-cube/I-CUBE-HUAWEI/Middlewares/Third_Party/Huawei/iot_link/inc\mqtt_al.h **** }mqtt_al_msgrcv_t;
 161:D:/fchai/work/i-cube/I-CUBE-HUAWEI/Middlewares/Third_Party/Huawei/iot_link/inc\mqtt_al.h **** 
 162:D:/fchai/work/i-cube/I-CUBE-HUAWEI/Middlewares/Third_Party/Huawei/iot_link/inc\mqtt_al.h **** /** @brief  defines the mqtt received message dealer, called by mqtt engine*/
 163:D:/fchai/work/i-cube/I-CUBE-HUAWEI/Middlewares/Third_Party/Huawei/iot_link/inc\mqtt_al.h **** typedef void (*fn_mqtt_al_msg_dealer)(void *arg,mqtt_al_msgrcv_t *msg);
 434              		.loc 14 163 1 discriminator 3 view .LVU277
 164:D:/fchai/work/i-cube/I-CUBE-HUAWEI/Middlewares/Third_Party/Huawei/iot_link/inc\mqtt_al.h **** 
 165:D:/fchai/work/i-cube/I-CUBE-HUAWEI/Middlewares/Third_Party/Huawei/iot_link/inc\mqtt_al.h **** /** @brief defines the mqtt subscribe parameter*/
 166:D:/fchai/work/i-cube/I-CUBE-HUAWEI/Middlewares/Third_Party/Huawei/iot_link/inc\mqtt_al.h **** typedef struct
 435              		.loc 14 166 1 discriminator 3 view .LVU278
 167:D:/fchai/work/i-cube/I-CUBE-HUAWEI/Middlewares/Third_Party/Huawei/iot_link/inc\mqtt_al.h **** {
 168:D:/fchai/work/i-cube/I-CUBE-HUAWEI/Middlewares/Third_Party/Huawei/iot_link/inc\mqtt_al.h ****     mqtt_al_string_t       topic;     ///< topic will be subscribe
 169:D:/fchai/work/i-cube/I-CUBE-HUAWEI/Middlewares/Third_Party/Huawei/iot_link/inc\mqtt_al.h ****     en_mqtt_al_qos_t       qos;       ///< qos requested
 170:D:/fchai/work/i-cube/I-CUBE-HUAWEI/Middlewares/Third_Party/Huawei/iot_link/inc\mqtt_al.h ****     fn_mqtt_al_msg_dealer  dealer;    ///< message dealer:used to deal the received message
 171:D:/fchai/work/i-cube/I-CUBE-HUAWEI/Middlewares/Third_Party/Huawei/iot_link/inc\mqtt_al.h ****     void                  *arg;       ///< used for the message dealer
 172:D:/fchai/work/i-cube/I-CUBE-HUAWEI/Middlewares/Third_Party/Huawei/iot_link/inc\mqtt_al.h ****     char                   subret;    ///< subscribe result code
 173:D:/fchai/work/i-cube/I-CUBE-HUAWEI/Middlewares/Third_Party/Huawei/iot_link/inc\mqtt_al.h ****     int                    timeout;   ///< how much time will be blocked
 174:D:/fchai/work/i-cube/I-CUBE-HUAWEI/Middlewares/Third_Party/Huawei/iot_link/inc\mqtt_al.h **** }mqtt_al_subpara_t;
 175:D:/fchai/work/i-cube/I-CUBE-HUAWEI/Middlewares/Third_Party/Huawei/iot_link/inc\mqtt_al.h **** 
 176:D:/fchai/work/i-cube/I-CUBE-HUAWEI/Middlewares/Third_Party/Huawei/iot_link/inc\mqtt_al.h **** /** @brief defines the mqtt unsubscribe parameter*/
 177:D:/fchai/work/i-cube/I-CUBE-HUAWEI/Middlewares/Third_Party/Huawei/iot_link/inc\mqtt_al.h **** typedef struct
 436              		.loc 14 177 1 discriminator 3 view .LVU279
 178:D:/fchai/work/i-cube/I-CUBE-HUAWEI/Middlewares/Third_Party/Huawei/iot_link/inc\mqtt_al.h **** {
 179:D:/fchai/work/i-cube/I-CUBE-HUAWEI/Middlewares/Third_Party/Huawei/iot_link/inc\mqtt_al.h ****     mqtt_al_string_t       topic;    ///< the unsubscribe topic
 180:D:/fchai/work/i-cube/I-CUBE-HUAWEI/Middlewares/Third_Party/Huawei/iot_link/inc\mqtt_al.h ****     uint32_t               timeout;  ///< how much time will be blocked
 181:D:/fchai/work/i-cube/I-CUBE-HUAWEI/Middlewares/Third_Party/Huawei/iot_link/inc\mqtt_al.h **** }mqtt_al_unsubpara_t;
 182:D:/fchai/work/i-cube/I-CUBE-HUAWEI/Middlewares/Third_Party/Huawei/iot_link/inc\mqtt_al.h **** 
 183:D:/fchai/work/i-cube/I-CUBE-HUAWEI/Middlewares/Third_Party/Huawei/iot_link/inc\mqtt_al.h **** /** @brief  descript the mqtt engine status */
 184:D:/fchai/work/i-cube/I-CUBE-HUAWEI/Middlewares/Third_Party/Huawei/iot_link/inc\mqtt_al.h **** typedef enum
 437              		.loc 14 184 1 discriminator 3 view .LVU280
 185:D:/fchai/work/i-cube/I-CUBE-HUAWEI/Middlewares/Third_Party/Huawei/iot_link/inc\mqtt_al.h **** {
 186:D:/fchai/work/i-cube/I-CUBE-HUAWEI/Middlewares/Third_Party/Huawei/iot_link/inc\mqtt_al.h ****     en_mqtt_al_connect_ok     = 0,      ///< which means the mqtt is ok and could supply the servic
 187:D:/fchai/work/i-cube/I-CUBE-HUAWEI/Middlewares/Third_Party/Huawei/iot_link/inc\mqtt_al.h ****     en_mqtt_al_connect_err,             ///< the mqtt no start or connect err
 188:D:/fchai/work/i-cube/I-CUBE-HUAWEI/Middlewares/Third_Party/Huawei/iot_link/inc\mqtt_al.h **** }en_mqtt_al_connect_state;
 189:D:/fchai/work/i-cube/I-CUBE-HUAWEI/Middlewares/Third_Party/Huawei/iot_link/inc\mqtt_al.h **** 
 190:D:/fchai/work/i-cube/I-CUBE-HUAWEI/Middlewares/Third_Party/Huawei/iot_link/inc\mqtt_al.h **** /** @brief defines for the mqtt connect code returned by the server */
 191:D:/fchai/work/i-cube/I-CUBE-HUAWEI/Middlewares/Third_Party/Huawei/iot_link/inc\mqtt_al.h **** #define cn_mqtt_al_con_code_ok                0   ///< has been accepted by the server
 192:D:/fchai/work/i-cube/I-CUBE-HUAWEI/Middlewares/Third_Party/Huawei/iot_link/inc\mqtt_al.h **** #define cn_mqtt_al_con_code_err_version       1   ///< server not support the version
 193:D:/fchai/work/i-cube/I-CUBE-HUAWEI/Middlewares/Third_Party/Huawei/iot_link/inc\mqtt_al.h **** #define cn_mqtt_al_con_code_err_clientID      2   ///< client identifier is error
 194:D:/fchai/work/i-cube/I-CUBE-HUAWEI/Middlewares/Third_Party/Huawei/iot_link/inc\mqtt_al.h **** #define cn_mqtt_al_con_code_err_netrefuse     3   ///< server service not ready yet
 195:D:/fchai/work/i-cube/I-CUBE-HUAWEI/Middlewares/Third_Party/Huawei/iot_link/inc\mqtt_al.h **** #define cn_mqtt_al_con_code_err_u_p           4   ///< bad user name or pwd
 196:D:/fchai/work/i-cube/I-CUBE-HUAWEI/Middlewares/Third_Party/Huawei/iot_link/inc\mqtt_al.h **** #define cn_mqtt_al_con_code_err_auth          5   ///< the client is not authorized
 197:D:/fchai/work/i-cube/I-CUBE-HUAWEI/Middlewares/Third_Party/Huawei/iot_link/inc\mqtt_al.h **** #define cn_mqtt_al_con_code_err_unkown        -1  ///< unknown reason
 198:D:/fchai/work/i-cube/I-CUBE-HUAWEI/Middlewares/Third_Party/Huawei/iot_link/inc\mqtt_al.h **** #define cn_mqtt_al_con_code_err_network      0x80 ///< network reason,you could try once more
ARM GAS  T:\msys\tmp\ccjeK7qp.s 			page 36


 199:D:/fchai/work/i-cube/I-CUBE-HUAWEI/Middlewares/Third_Party/Huawei/iot_link/inc\mqtt_al.h **** 
 200:D:/fchai/work/i-cube/I-CUBE-HUAWEI/Middlewares/Third_Party/Huawei/iot_link/inc\mqtt_al.h **** 
 201:D:/fchai/work/i-cube/I-CUBE-HUAWEI/Middlewares/Third_Party/Huawei/iot_link/inc\mqtt_al.h **** /** @brief defines for the mqtt subscribe code returned by the server */
 202:D:/fchai/work/i-cube/I-CUBE-HUAWEI/Middlewares/Third_Party/Huawei/iot_link/inc\mqtt_al.h **** #define cn_mqtt_al_sub_code_qos0      0     ///< success and max qos is QOS 0
 203:D:/fchai/work/i-cube/I-CUBE-HUAWEI/Middlewares/Third_Party/Huawei/iot_link/inc\mqtt_al.h **** #define cn_mqtt_al_sub_code_qos1      1     ///< success and max qos is QOS 1
 204:D:/fchai/work/i-cube/I-CUBE-HUAWEI/Middlewares/Third_Party/Huawei/iot_link/inc\mqtt_al.h **** #define cn_mqtt_al_sub_code_qos2      2     ///< success and max qos is QOS 2
 205:D:/fchai/work/i-cube/I-CUBE-HUAWEI/Middlewares/Third_Party/Huawei/iot_link/inc\mqtt_al.h **** #define cn_mqtt_al_sub_code_err       0x80  ///< subscribe failure
 206:D:/fchai/work/i-cube/I-CUBE-HUAWEI/Middlewares/Third_Party/Huawei/iot_link/inc\mqtt_al.h **** 
 207:D:/fchai/work/i-cube/I-CUBE-HUAWEI/Middlewares/Third_Party/Huawei/iot_link/inc\mqtt_al.h **** /**
 208:D:/fchai/work/i-cube/I-CUBE-HUAWEI/Middlewares/Third_Party/Huawei/iot_link/inc\mqtt_al.h ****  *@brief defines the operation will be registered  to the mqtt service
 209:D:/fchai/work/i-cube/I-CUBE-HUAWEI/Middlewares/Third_Party/Huawei/iot_link/inc\mqtt_al.h ****  *@brief parameter and return code refere to the corresponding api
 210:D:/fchai/work/i-cube/I-CUBE-HUAWEI/Middlewares/Third_Party/Huawei/iot_link/inc\mqtt_al.h ****  *
 211:D:/fchai/work/i-cube/I-CUBE-HUAWEI/Middlewares/Third_Party/Huawei/iot_link/inc\mqtt_al.h ****  */
 212:D:/fchai/work/i-cube/I-CUBE-HUAWEI/Middlewares/Third_Party/Huawei/iot_link/inc\mqtt_al.h **** typedef struct
 438              		.loc 14 212 1 discriminator 3 view .LVU281
 213:D:/fchai/work/i-cube/I-CUBE-HUAWEI/Middlewares/Third_Party/Huawei/iot_link/inc\mqtt_al.h **** {
 214:D:/fchai/work/i-cube/I-CUBE-HUAWEI/Middlewares/Third_Party/Huawei/iot_link/inc\mqtt_al.h **** //  ///< the mqtt init function
 215:D:/fchai/work/i-cube/I-CUBE-HUAWEI/Middlewares/Third_Party/Huawei/iot_link/inc\mqtt_al.h **** //  int  (*  init)      (void);
 216:D:/fchai/work/i-cube/I-CUBE-HUAWEI/Middlewares/Third_Party/Huawei/iot_link/inc\mqtt_al.h **** //  ///< the mqtt deinit function
 217:D:/fchai/work/i-cube/I-CUBE-HUAWEI/Middlewares/Third_Party/Huawei/iot_link/inc\mqtt_al.h **** //  int   (* deinit)    (void );  ---TODO, have a thought if we really need it
 218:D:/fchai/work/i-cube/I-CUBE-HUAWEI/Middlewares/Third_Party/Huawei/iot_link/inc\mqtt_al.h ****     ///< connect to the server
 219:D:/fchai/work/i-cube/I-CUBE-HUAWEI/Middlewares/Third_Party/Huawei/iot_link/inc\mqtt_al.h ****     void* (* connect)   (mqtt_al_conpara_t *param);
 220:D:/fchai/work/i-cube/I-CUBE-HUAWEI/Middlewares/Third_Party/Huawei/iot_link/inc\mqtt_al.h ****     ///< disconnect from the server
 221:D:/fchai/work/i-cube/I-CUBE-HUAWEI/Middlewares/Third_Party/Huawei/iot_link/inc\mqtt_al.h ****     int    (* disconnect)(void *handle );
 222:D:/fchai/work/i-cube/I-CUBE-HUAWEI/Middlewares/Third_Party/Huawei/iot_link/inc\mqtt_al.h ****     ///< publish a message to the server
 223:D:/fchai/work/i-cube/I-CUBE-HUAWEI/Middlewares/Third_Party/Huawei/iot_link/inc\mqtt_al.h ****     int    (* publish)    (void *handle, mqtt_al_pubpara_t *msg);
 224:D:/fchai/work/i-cube/I-CUBE-HUAWEI/Middlewares/Third_Party/Huawei/iot_link/inc\mqtt_al.h ****     ///< subscribe a topic to the server
 225:D:/fchai/work/i-cube/I-CUBE-HUAWEI/Middlewares/Third_Party/Huawei/iot_link/inc\mqtt_al.h ****     int    (* subscribe)   (void *handle, mqtt_al_subpara_t *subpara);
 226:D:/fchai/work/i-cube/I-CUBE-HUAWEI/Middlewares/Third_Party/Huawei/iot_link/inc\mqtt_al.h ****     ///< unsubscribe a topic to the server
 227:D:/fchai/work/i-cube/I-CUBE-HUAWEI/Middlewares/Third_Party/Huawei/iot_link/inc\mqtt_al.h ****     int    (* unsubscribe) (void *handle, mqtt_al_unsubpara_t *unsubpara);
 228:D:/fchai/work/i-cube/I-CUBE-HUAWEI/Middlewares/Third_Party/Huawei/iot_link/inc\mqtt_al.h ****     ///< check the mqtt engine status
 229:D:/fchai/work/i-cube/I-CUBE-HUAWEI/Middlewares/Third_Party/Huawei/iot_link/inc\mqtt_al.h ****     en_mqtt_al_connect_state (* check_status) (void *handle);
 230:D:/fchai/work/i-cube/I-CUBE-HUAWEI/Middlewares/Third_Party/Huawei/iot_link/inc\mqtt_al.h **** 
 231:D:/fchai/work/i-cube/I-CUBE-HUAWEI/Middlewares/Third_Party/Huawei/iot_link/inc\mqtt_al.h **** }mqtt_al_op_t;
 232:D:/fchai/work/i-cube/I-CUBE-HUAWEI/Middlewares/Third_Party/Huawei/iot_link/inc\mqtt_al.h **** 
 233:D:/fchai/work/i-cube/I-CUBE-HUAWEI/Middlewares/Third_Party/Huawei/iot_link/inc\mqtt_al.h **** 
 234:D:/fchai/work/i-cube/I-CUBE-HUAWEI/Middlewares/Third_Party/Huawei/iot_link/inc\mqtt_al.h **** //////////////////////API USED FOR THE MQTT APPLICAITON/////////////////////////
 235:D:/fchai/work/i-cube/I-CUBE-HUAWEI/Middlewares/Third_Party/Huawei/iot_link/inc\mqtt_al.h **** 
 236:D:/fchai/work/i-cube/I-CUBE-HUAWEI/Middlewares/Third_Party/Huawei/iot_link/inc\mqtt_al.h **** /**
 237:D:/fchai/work/i-cube/I-CUBE-HUAWEI/Middlewares/Third_Party/Huawei/iot_link/inc\mqtt_al.h ****  * @brief maybe the mqtt lib need do some initialize
 238:D:/fchai/work/i-cube/I-CUBE-HUAWEI/Middlewares/Third_Party/Huawei/iot_link/inc\mqtt_al.h ****  *
 239:D:/fchai/work/i-cube/I-CUBE-HUAWEI/Middlewares/Third_Party/Huawei/iot_link/inc\mqtt_al.h ****  * @return 0 success while -1 failed
 240:D:/fchai/work/i-cube/I-CUBE-HUAWEI/Middlewares/Third_Party/Huawei/iot_link/inc\mqtt_al.h ****  *
 241:D:/fchai/work/i-cube/I-CUBE-HUAWEI/Middlewares/Third_Party/Huawei/iot_link/inc\mqtt_al.h ****  */
