ARM GAS  T:\msys\tmp\ccODRCnn.s 			page 1


   1              		.cpu cortex-m4
   2              		.eabi_attribute 27, 1
   3              		.eabi_attribute 28, 1
   4              		.eabi_attribute 20, 1
   5              		.eabi_attribute 21, 1
   6              		.eabi_attribute 23, 3
   7              		.eabi_attribute 24, 1
   8              		.eabi_attribute 25, 1
   9              		.eabi_attribute 26, 1
  10              		.eabi_attribute 30, 2
  11              		.eabi_attribute 34, 1
  12              		.eabi_attribute 18, 4
  13              		.file	"sal_netdb.c"
  14              		.text
  15              	.Ltext0:
  16              		.cfi_sections	.debug_frame
  17              		.section	.rodata.inet_addr.str1.4,"aMS",%progbits,1
  18              		.align	2
  19              	.LC0:
  20 0000 25642E25 		.ascii	"%d.%d.%d.%d\000"
  20      642E2564 
  20      2E256400 
  21              		.section	.text.inet_addr,"ax",%progbits
  22              		.align	1
  23              		.p2align 2,,3
  24              		.weak	inet_addr
  25              		.arch armv7e-m
  26              		.syntax unified
  27              		.thumb
  28              		.thumb_func
  29              		.fpu fpv4-sp-d16
  31              	inet_addr:
  32              	.LVL0:
  33              	.LFB3:
  34              		.file 1 "D:/fchai/work/i-cube/I-CUBE-HUAWEI/Middlewares/Third_Party/Huawei/iot_link/network/tcpip/
   1:D:/fchai/work/i-cube/I-CUBE-HUAWEI/Middlewares/Third_Party/Huawei/iot_link/network/tcpip/sal\sal_netdb.c **** /*----------------------------------------------------------------------------
   2:D:/fchai/work/i-cube/I-CUBE-HUAWEI/Middlewares/Third_Party/Huawei/iot_link/network/tcpip/sal\sal_netdb.c ****  * Copyright (c) <2018>, <Huawei Technologies Co., Ltd>
   3:D:/fchai/work/i-cube/I-CUBE-HUAWEI/Middlewares/Third_Party/Huawei/iot_link/network/tcpip/sal\sal_netdb.c ****  * All rights reserved.
   4:D:/fchai/work/i-cube/I-CUBE-HUAWEI/Middlewares/Third_Party/Huawei/iot_link/network/tcpip/sal\sal_netdb.c ****  * Redistribution and use in source and binary forms, with or without modification,
   5:D:/fchai/work/i-cube/I-CUBE-HUAWEI/Middlewares/Third_Party/Huawei/iot_link/network/tcpip/sal\sal_netdb.c ****  * are permitted provided that the following conditions are met:
   6:D:/fchai/work/i-cube/I-CUBE-HUAWEI/Middlewares/Third_Party/Huawei/iot_link/network/tcpip/sal\sal_netdb.c ****  * 1. Redistributions of source code must retain the above copyright notice, this list of
   7:D:/fchai/work/i-cube/I-CUBE-HUAWEI/Middlewares/Third_Party/Huawei/iot_link/network/tcpip/sal\sal_netdb.c ****  * conditions and the following disclaimer.
   8:D:/fchai/work/i-cube/I-CUBE-HUAWEI/Middlewares/Third_Party/Huawei/iot_link/network/tcpip/sal\sal_netdb.c ****  * 2. Redistributions in binary form must reproduce the above copyright notice, this list
   9:D:/fchai/work/i-cube/I-CUBE-HUAWEI/Middlewares/Third_Party/Huawei/iot_link/network/tcpip/sal\sal_netdb.c ****  * of conditions and the following disclaimer in the documentation and/or other materials
  10:D:/fchai/work/i-cube/I-CUBE-HUAWEI/Middlewares/Third_Party/Huawei/iot_link/network/tcpip/sal\sal_netdb.c ****  * provided with the distribution.
  11:D:/fchai/work/i-cube/I-CUBE-HUAWEI/Middlewares/Third_Party/Huawei/iot_link/network/tcpip/sal\sal_netdb.c ****  * 3. Neither the name of the copyright holder nor the names of its contributors may be used
  12:D:/fchai/work/i-cube/I-CUBE-HUAWEI/Middlewares/Third_Party/Huawei/iot_link/network/tcpip/sal\sal_netdb.c ****  * to endorse or promote products derived from this software without specific prior written
  13:D:/fchai/work/i-cube/I-CUBE-HUAWEI/Middlewares/Third_Party/Huawei/iot_link/network/tcpip/sal\sal_netdb.c ****  * permission.
  14:D:/fchai/work/i-cube/I-CUBE-HUAWEI/Middlewares/Third_Party/Huawei/iot_link/network/tcpip/sal\sal_netdb.c ****  * THIS SOFTWARE IS PROVIDED BY THE COPYRIGHT HOLDERS AND CONTRIBUTORS
  15:D:/fchai/work/i-cube/I-CUBE-HUAWEI/Middlewares/Third_Party/Huawei/iot_link/network/tcpip/sal\sal_netdb.c ****  * "AS IS" AND ANY EXPRESS OR IMPLIED WARRANTIES, INCLUDING, BUT NOT LIMITED TO,
  16:D:/fchai/work/i-cube/I-CUBE-HUAWEI/Middlewares/Third_Party/Huawei/iot_link/network/tcpip/sal\sal_netdb.c ****  * THE IMPLIED WARRANTIES OF MERCHANTABILITY AND FITNESS FOR A PARTICULAR
  17:D:/fchai/work/i-cube/I-CUBE-HUAWEI/Middlewares/Third_Party/Huawei/iot_link/network/tcpip/sal\sal_netdb.c ****  * PURPOSE ARE DISCLAIMED. IN NO EVENT SHALL THE COPYRIGHT HOLDER OR
  18:D:/fchai/work/i-cube/I-CUBE-HUAWEI/Middlewares/Third_Party/Huawei/iot_link/network/tcpip/sal\sal_netdb.c ****  * CONTRIBUTORS BE LIABLE FOR ANY DIRECT, INDIRECT, INCIDENTAL, SPECIAL,
  19:D:/fchai/work/i-cube/I-CUBE-HUAWEI/Middlewares/Third_Party/Huawei/iot_link/network/tcpip/sal\sal_netdb.c ****  * EXEMPLARY, OR CONSEQUENTIAL DAMAGES (INCLUDING, BUT NOT LIMITED TO,
  20:D:/fchai/work/i-cube/I-CUBE-HUAWEI/Middlewares/Third_Party/Huawei/iot_link/network/tcpip/sal\sal_netdb.c ****  * PROCUREMENT OF SUBSTITUTE GOODS OR SERVICES; LOSS OF USE, DATA, OR PROFITS;
  21:D:/fchai/work/i-cube/I-CUBE-HUAWEI/Middlewares/Third_Party/Huawei/iot_link/network/tcpip/sal\sal_netdb.c ****  * OR BUSINESS INTERRUPTION) HOWEVER CAUSED AND ON ANY THEORY OF LIABILITY,
  22:D:/fchai/work/i-cube/I-CUBE-HUAWEI/Middlewares/Third_Party/Huawei/iot_link/network/tcpip/sal\sal_netdb.c ****  * WHETHER IN CONTRACT, STRICT LIABILITY, OR TORT (INCLUDING NEGLIGENCE OR
ARM GAS  T:\msys\tmp\ccODRCnn.s 			page 2


  23:D:/fchai/work/i-cube/I-CUBE-HUAWEI/Middlewares/Third_Party/Huawei/iot_link/network/tcpip/sal\sal_netdb.c ****  * OTHERWISE) ARISING IN ANY WAY OUT OF THE USE OF THIS SOFTWARE, EVEN IF
  24:D:/fchai/work/i-cube/I-CUBE-HUAWEI/Middlewares/Third_Party/Huawei/iot_link/network/tcpip/sal\sal_netdb.c ****  * ADVISED OF THE POSSIBILITY OF SUCH DAMAGE.
  25:D:/fchai/work/i-cube/I-CUBE-HUAWEI/Middlewares/Third_Party/Huawei/iot_link/network/tcpip/sal\sal_netdb.c ****  *---------------------------------------------------------------------------*/
  26:D:/fchai/work/i-cube/I-CUBE-HUAWEI/Middlewares/Third_Party/Huawei/iot_link/network/tcpip/sal\sal_netdb.c **** /*----------------------------------------------------------------------------
  27:D:/fchai/work/i-cube/I-CUBE-HUAWEI/Middlewares/Third_Party/Huawei/iot_link/network/tcpip/sal\sal_netdb.c ****  * Notice of Export Control Law
  28:D:/fchai/work/i-cube/I-CUBE-HUAWEI/Middlewares/Third_Party/Huawei/iot_link/network/tcpip/sal\sal_netdb.c ****  * ===============================================
  29:D:/fchai/work/i-cube/I-CUBE-HUAWEI/Middlewares/Third_Party/Huawei/iot_link/network/tcpip/sal\sal_netdb.c ****  * Huawei LiteOS may be subject to applicable export control laws and regulations, which might
  30:D:/fchai/work/i-cube/I-CUBE-HUAWEI/Middlewares/Third_Party/Huawei/iot_link/network/tcpip/sal\sal_netdb.c ****  * include those applicable to Huawei LiteOS of U.S. and the country in which you are located.
  31:D:/fchai/work/i-cube/I-CUBE-HUAWEI/Middlewares/Third_Party/Huawei/iot_link/network/tcpip/sal\sal_netdb.c ****  * Import, export and usage of Huawei LiteOS in any manner by you shall be in compliance with such
  32:D:/fchai/work/i-cube/I-CUBE-HUAWEI/Middlewares/Third_Party/Huawei/iot_link/network/tcpip/sal\sal_netdb.c ****  * applicable export control laws and regulations.
  33:D:/fchai/work/i-cube/I-CUBE-HUAWEI/Middlewares/Third_Party/Huawei/iot_link/network/tcpip/sal\sal_netdb.c ****  *---------------------------------------------------------------------------*/
  34:D:/fchai/work/i-cube/I-CUBE-HUAWEI/Middlewares/Third_Party/Huawei/iot_link/network/tcpip/sal\sal_netdb.c **** /**
  35:D:/fchai/work/i-cube/I-CUBE-HUAWEI/Middlewares/Third_Party/Huawei/iot_link/network/tcpip/sal\sal_netdb.c ****  *  DATE                AUTHOR      INSTRUCTION
  36:D:/fchai/work/i-cube/I-CUBE-HUAWEI/Middlewares/Third_Party/Huawei/iot_link/network/tcpip/sal\sal_netdb.c ****  *  2019-05-09 16:17  zhangqianfu  The first version  
  37:D:/fchai/work/i-cube/I-CUBE-HUAWEI/Middlewares/Third_Party/Huawei/iot_link/network/tcpip/sal\sal_netdb.c ****  *
  38:D:/fchai/work/i-cube/I-CUBE-HUAWEI/Middlewares/Third_Party/Huawei/iot_link/network/tcpip/sal\sal_netdb.c ****  */
  39:D:/fchai/work/i-cube/I-CUBE-HUAWEI/Middlewares/Third_Party/Huawei/iot_link/network/tcpip/sal\sal_netdb.c **** 
  40:D:/fchai/work/i-cube/I-CUBE-HUAWEI/Middlewares/Third_Party/Huawei/iot_link/network/tcpip/sal\sal_netdb.c **** #include <stdint.h>
  41:D:/fchai/work/i-cube/I-CUBE-HUAWEI/Middlewares/Third_Party/Huawei/iot_link/network/tcpip/sal\sal_netdb.c **** #include <stddef.h>
  42:D:/fchai/work/i-cube/I-CUBE-HUAWEI/Middlewares/Third_Party/Huawei/iot_link/network/tcpip/sal\sal_netdb.c **** #include <string.h>
  43:D:/fchai/work/i-cube/I-CUBE-HUAWEI/Middlewares/Third_Party/Huawei/iot_link/network/tcpip/sal\sal_netdb.c **** 
  44:D:/fchai/work/i-cube/I-CUBE-HUAWEI/Middlewares/Third_Party/Huawei/iot_link/network/tcpip/sal\sal_netdb.c **** #include <sal.h>
  45:D:/fchai/work/i-cube/I-CUBE-HUAWEI/Middlewares/Third_Party/Huawei/iot_link/network/tcpip/sal\sal_netdb.c **** 
  46:D:/fchai/work/i-cube/I-CUBE-HUAWEI/Middlewares/Third_Party/Huawei/iot_link/network/tcpip/sal\sal_netdb.c **** __attribute__((weak)) in_addr_t inet_addr(const char *addr)
  47:D:/fchai/work/i-cube/I-CUBE-HUAWEI/Middlewares/Third_Party/Huawei/iot_link/network/tcpip/sal\sal_netdb.c **** {
  35              		.loc 1 47 1 view -0
  36              		.cfi_startproc
  37              		@ args = 0, pretend = 0, frame = 24
  38              		@ frame_needed = 0, uses_anonymous_args = 0
  48:D:/fchai/work/i-cube/I-CUBE-HUAWEI/Middlewares/Third_Party/Huawei/iot_link/network/tcpip/sal\sal_netdb.c ****     int para;
  39              		.loc 1 48 5 view .LVU1
  49:D:/fchai/work/i-cube/I-CUBE-HUAWEI/Middlewares/Third_Party/Huawei/iot_link/network/tcpip/sal\sal_netdb.c ****     int tmp[4];
  40              		.loc 1 49 5 view .LVU2
  50:D:/fchai/work/i-cube/I-CUBE-HUAWEI/Middlewares/Third_Party/Huawei/iot_link/network/tcpip/sal\sal_netdb.c ****     in_addr_t result = INADDR_NONE;
  41              		.loc 1 50 5 view .LVU3
  51:D:/fchai/work/i-cube/I-CUBE-HUAWEI/Middlewares/Third_Party/Huawei/iot_link/network/tcpip/sal\sal_netdb.c ****     unsigned char  ip[4];
  42              		.loc 1 51 5 view .LVU4
  52:D:/fchai/work/i-cube/I-CUBE-HUAWEI/Middlewares/Third_Party/Huawei/iot_link/network/tcpip/sal\sal_netdb.c **** 
  53:D:/fchai/work/i-cube/I-CUBE-HUAWEI/Middlewares/Third_Party/Huawei/iot_link/network/tcpip/sal\sal_netdb.c ****     para = sscanf(addr,"%d.%d.%d.%d",&tmp[0],&tmp[1],&tmp[2],&tmp[3]);
  43              		.loc 1 53 5 view .LVU5
  47:D:/fchai/work/i-cube/I-CUBE-HUAWEI/Middlewares/Third_Party/Huawei/iot_link/network/tcpip/sal\sal_netdb.c ****     int para;
  44              		.loc 1 47 1 is_stmt 0 view .LVU6
  45 0000 00B5     		push	{lr}
  46              	.LCFI0:
  47              		.cfi_def_cfa_offset 4
  48              		.cfi_offset 14, -4
  49 0002 89B0     		sub	sp, sp, #36
  50              	.LCFI1:
  51              		.cfi_def_cfa_offset 40
  52              		.loc 1 53 12 view .LVU7
  53 0004 07AA     		add	r2, sp, #28
  54 0006 06AB     		add	r3, sp, #24
  55 0008 CDE90032 		strd	r3, r2, [sp]
  56 000c 0D49     		ldr	r1, .L7
  57 000e 05AB     		add	r3, sp, #20
  58 0010 04AA     		add	r2, sp, #16
  59 0012 FFF7FEFF 		bl	sscanf
ARM GAS  T:\msys\tmp\ccODRCnn.s 			page 3


  60              	.LVL1:
  54:D:/fchai/work/i-cube/I-CUBE-HUAWEI/Middlewares/Third_Party/Huawei/iot_link/network/tcpip/sal\sal_netdb.c ****     if(para == 4)
  61              		.loc 1 54 5 is_stmt 1 view .LVU8
  62              		.loc 1 54 7 is_stmt 0 view .LVU9
  63 0016 0428     		cmp	r0, #4
  64 0018 03D0     		beq	.L6
  50:D:/fchai/work/i-cube/I-CUBE-HUAWEI/Middlewares/Third_Party/Huawei/iot_link/network/tcpip/sal\sal_netdb.c ****     unsigned char  ip[4];
  65              		.loc 1 50 15 view .LVU10
  66 001a 0020     		movs	r0, #0
  67              	.LVL2:
  55:D:/fchai/work/i-cube/I-CUBE-HUAWEI/Middlewares/Third_Party/Huawei/iot_link/network/tcpip/sal\sal_netdb.c ****     {
  56:D:/fchai/work/i-cube/I-CUBE-HUAWEI/Middlewares/Third_Party/Huawei/iot_link/network/tcpip/sal\sal_netdb.c ****         ip[0] = (unsigned char)tmp[0];
  57:D:/fchai/work/i-cube/I-CUBE-HUAWEI/Middlewares/Third_Party/Huawei/iot_link/network/tcpip/sal\sal_netdb.c ****         ip[1] = (unsigned char)tmp[1];
  58:D:/fchai/work/i-cube/I-CUBE-HUAWEI/Middlewares/Third_Party/Huawei/iot_link/network/tcpip/sal\sal_netdb.c ****         ip[2] = (unsigned char)tmp[2];
  59:D:/fchai/work/i-cube/I-CUBE-HUAWEI/Middlewares/Third_Party/Huawei/iot_link/network/tcpip/sal\sal_netdb.c ****         ip[3] = (unsigned char)tmp[3];
  60:D:/fchai/work/i-cube/I-CUBE-HUAWEI/Middlewares/Third_Party/Huawei/iot_link/network/tcpip/sal\sal_netdb.c ****         (void) memcpy((void *)&result,(void *)ip,sizeof(result));
  61:D:/fchai/work/i-cube/I-CUBE-HUAWEI/Middlewares/Third_Party/Huawei/iot_link/network/tcpip/sal\sal_netdb.c ****     }
  62:D:/fchai/work/i-cube/I-CUBE-HUAWEI/Middlewares/Third_Party/Huawei/iot_link/network/tcpip/sal\sal_netdb.c ****     return result;
  68              		.loc 1 62 5 is_stmt 1 view .LVU11
  63:D:/fchai/work/i-cube/I-CUBE-HUAWEI/Middlewares/Third_Party/Huawei/iot_link/network/tcpip/sal\sal_netdb.c **** }
  69              		.loc 1 63 1 is_stmt 0 view .LVU12
  70 001c 09B0     		add	sp, sp, #36
  71              	.LCFI2:
  72              		.cfi_remember_state
  73              		.cfi_def_cfa_offset 4
  74              		@ sp needed
  75 001e 5DF804FB 		ldr	pc, [sp], #4
  76              	.LVL3:
  77              	.L6:
  78              	.LCFI3:
  79              		.cfi_restore_state
  56:D:/fchai/work/i-cube/I-CUBE-HUAWEI/Middlewares/Third_Party/Huawei/iot_link/network/tcpip/sal\sal_netdb.c ****         ip[1] = (unsigned char)tmp[1];
  80              		.loc 1 56 9 is_stmt 1 view .LVU13
  57:D:/fchai/work/i-cube/I-CUBE-HUAWEI/Middlewares/Third_Party/Huawei/iot_link/network/tcpip/sal\sal_netdb.c ****         ip[2] = (unsigned char)tmp[2];
  81              		.loc 1 57 17 is_stmt 0 view .LVU14
  82 0022 DDE90401 		ldrd	r0, r1, [sp, #16]
  83              	.LVL4:
  59:D:/fchai/work/i-cube/I-CUBE-HUAWEI/Middlewares/Third_Party/Huawei/iot_link/network/tcpip/sal\sal_netdb.c ****         (void) memcpy((void *)&result,(void *)ip,sizeof(result));
  84              		.loc 1 59 17 view .LVU15
  85 0026 DDE90623 		ldrd	r2, r3, [sp, #24]
  56:D:/fchai/work/i-cube/I-CUBE-HUAWEI/Middlewares/Third_Party/Huawei/iot_link/network/tcpip/sal\sal_netdb.c ****         ip[1] = (unsigned char)tmp[1];
  86              		.loc 1 56 17 view .LVU16
  87 002a 8DF80C00 		strb	r0, [sp, #12]
  57:D:/fchai/work/i-cube/I-CUBE-HUAWEI/Middlewares/Third_Party/Huawei/iot_link/network/tcpip/sal\sal_netdb.c ****         ip[2] = (unsigned char)tmp[2];
  88              		.loc 1 57 9 is_stmt 1 view .LVU17
  57:D:/fchai/work/i-cube/I-CUBE-HUAWEI/Middlewares/Third_Party/Huawei/iot_link/network/tcpip/sal\sal_netdb.c ****         ip[2] = (unsigned char)tmp[2];
  89              		.loc 1 57 17 is_stmt 0 view .LVU18
  90 002e 8DF80D10 		strb	r1, [sp, #13]
  58:D:/fchai/work/i-cube/I-CUBE-HUAWEI/Middlewares/Third_Party/Huawei/iot_link/network/tcpip/sal\sal_netdb.c ****         ip[3] = (unsigned char)tmp[3];
  91              		.loc 1 58 9 is_stmt 1 view .LVU19
  58:D:/fchai/work/i-cube/I-CUBE-HUAWEI/Middlewares/Third_Party/Huawei/iot_link/network/tcpip/sal\sal_netdb.c ****         ip[3] = (unsigned char)tmp[3];
  92              		.loc 1 58 17 is_stmt 0 view .LVU20
  93 0032 8DF80E20 		strb	r2, [sp, #14]
  59:D:/fchai/work/i-cube/I-CUBE-HUAWEI/Middlewares/Third_Party/Huawei/iot_link/network/tcpip/sal\sal_netdb.c ****         (void) memcpy((void *)&result,(void *)ip,sizeof(result));
  94              		.loc 1 59 9 is_stmt 1 view .LVU21
  59:D:/fchai/work/i-cube/I-CUBE-HUAWEI/Middlewares/Third_Party/Huawei/iot_link/network/tcpip/sal\sal_netdb.c ****         (void) memcpy((void *)&result,(void *)ip,sizeof(result));
  95              		.loc 1 59 17 is_stmt 0 view .LVU22
ARM GAS  T:\msys\tmp\ccODRCnn.s 			page 4


  96 0036 8DF80F30 		strb	r3, [sp, #15]
  60:D:/fchai/work/i-cube/I-CUBE-HUAWEI/Middlewares/Third_Party/Huawei/iot_link/network/tcpip/sal\sal_netdb.c ****     }
  97              		.loc 1 60 9 is_stmt 1 view .LVU23
  98 003a 0398     		ldr	r0, [sp, #12]
  99              	.LVL5:
 100              		.loc 1 63 1 is_stmt 0 view .LVU24
 101 003c 09B0     		add	sp, sp, #36
 102              	.LCFI4:
 103              		.cfi_def_cfa_offset 4
 104              		@ sp needed
 105 003e 5DF804FB 		ldr	pc, [sp], #4
 106              	.L8:
 107 0042 00BF     		.align	2
 108              	.L7:
 109 0044 00000000 		.word	.LC0
 110              		.cfi_endproc
 111              	.LFE3:
 113              		.section	.text.inet_aton,"ax",%progbits
 114              		.align	1
 115              		.p2align 2,,3
 116              		.weak	inet_aton
 117              		.syntax unified
 118              		.thumb
 119              		.thumb_func
 120              		.fpu fpv4-sp-d16
 122              	inet_aton:
 123              	.LVL6:
 124              	.LFB4:
  64:D:/fchai/work/i-cube/I-CUBE-HUAWEI/Middlewares/Third_Party/Huawei/iot_link/network/tcpip/sal\sal_netdb.c **** 
  65:D:/fchai/work/i-cube/I-CUBE-HUAWEI/Middlewares/Third_Party/Huawei/iot_link/network/tcpip/sal\sal_netdb.c **** __attribute__((weak)) int inet_aton(const char *string,struct in_addr *addr)
  66:D:/fchai/work/i-cube/I-CUBE-HUAWEI/Middlewares/Third_Party/Huawei/iot_link/network/tcpip/sal\sal_netdb.c **** {
 125              		.loc 1 66 1 is_stmt 1 view -0
 126              		.cfi_startproc
 127              		@ args = 0, pretend = 0, frame = 24
 128              		@ frame_needed = 0, uses_anonymous_args = 0
  67:D:/fchai/work/i-cube/I-CUBE-HUAWEI/Middlewares/Third_Party/Huawei/iot_link/network/tcpip/sal\sal_netdb.c ****     int para;
 129              		.loc 1 67 5 view .LVU26
  68:D:/fchai/work/i-cube/I-CUBE-HUAWEI/Middlewares/Third_Party/Huawei/iot_link/network/tcpip/sal\sal_netdb.c ****     int tmp[4];
 130              		.loc 1 68 5 view .LVU27
  69:D:/fchai/work/i-cube/I-CUBE-HUAWEI/Middlewares/Third_Party/Huawei/iot_link/network/tcpip/sal\sal_netdb.c ****     unsigned char  ip[4];
 131              		.loc 1 69 5 view .LVU28
  70:D:/fchai/work/i-cube/I-CUBE-HUAWEI/Middlewares/Third_Party/Huawei/iot_link/network/tcpip/sal\sal_netdb.c ****     int result = 0;
 132              		.loc 1 70 5 view .LVU29
  71:D:/fchai/work/i-cube/I-CUBE-HUAWEI/Middlewares/Third_Party/Huawei/iot_link/network/tcpip/sal\sal_netdb.c **** 
  72:D:/fchai/work/i-cube/I-CUBE-HUAWEI/Middlewares/Third_Party/Huawei/iot_link/network/tcpip/sal\sal_netdb.c ****     para = sscanf(string,"%d.%d.%d.%d",&tmp[0],&tmp[1],&tmp[2],&tmp[3]);
 133              		.loc 1 72 5 view .LVU30
  66:D:/fchai/work/i-cube/I-CUBE-HUAWEI/Middlewares/Third_Party/Huawei/iot_link/network/tcpip/sal\sal_netdb.c ****     int para;
 134              		.loc 1 66 1 is_stmt 0 view .LVU31
 135 0000 10B5     		push	{r4, lr}
 136              	.LCFI5:
 137              		.cfi_def_cfa_offset 8
 138              		.cfi_offset 4, -8
 139              		.cfi_offset 14, -4
 140 0002 88B0     		sub	sp, sp, #32
 141              	.LCFI6:
 142              		.cfi_def_cfa_offset 40
 143              		.loc 1 72 12 view .LVU32
ARM GAS  T:\msys\tmp\ccODRCnn.s 			page 5


 144 0004 07AA     		add	r2, sp, #28
 145 0006 06AB     		add	r3, sp, #24
 146 0008 CDE90032 		strd	r3, r2, [sp]
  66:D:/fchai/work/i-cube/I-CUBE-HUAWEI/Middlewares/Third_Party/Huawei/iot_link/network/tcpip/sal\sal_netdb.c ****     int para;
 147              		.loc 1 66 1 view .LVU33
 148 000c 0C46     		mov	r4, r1
 149              		.loc 1 72 12 view .LVU34
 150 000e 05AB     		add	r3, sp, #20
 151 0010 0C49     		ldr	r1, .L14
 152              	.LVL7:
 153              		.loc 1 72 12 view .LVU35
 154 0012 04AA     		add	r2, sp, #16
 155 0014 FFF7FEFF 		bl	sscanf
 156              	.LVL8:
  73:D:/fchai/work/i-cube/I-CUBE-HUAWEI/Middlewares/Third_Party/Huawei/iot_link/network/tcpip/sal\sal_netdb.c ****     if(para == 4)
 157              		.loc 1 73 5 is_stmt 1 view .LVU36
 158              		.loc 1 73 7 is_stmt 0 view .LVU37
 159 0018 0428     		cmp	r0, #4
 160 001a 02D0     		beq	.L13
  70:D:/fchai/work/i-cube/I-CUBE-HUAWEI/Middlewares/Third_Party/Huawei/iot_link/network/tcpip/sal\sal_netdb.c **** 
 161              		.loc 1 70 9 view .LVU38
 162 001c 0020     		movs	r0, #0
 163              	.LVL9:
  74:D:/fchai/work/i-cube/I-CUBE-HUAWEI/Middlewares/Third_Party/Huawei/iot_link/network/tcpip/sal\sal_netdb.c ****     {
  75:D:/fchai/work/i-cube/I-CUBE-HUAWEI/Middlewares/Third_Party/Huawei/iot_link/network/tcpip/sal\sal_netdb.c ****         ip[0] = (unsigned char)tmp[0];
  76:D:/fchai/work/i-cube/I-CUBE-HUAWEI/Middlewares/Third_Party/Huawei/iot_link/network/tcpip/sal\sal_netdb.c ****         ip[1] = (unsigned char)tmp[1];
  77:D:/fchai/work/i-cube/I-CUBE-HUAWEI/Middlewares/Third_Party/Huawei/iot_link/network/tcpip/sal\sal_netdb.c ****         ip[2] = (unsigned char)tmp[2];
  78:D:/fchai/work/i-cube/I-CUBE-HUAWEI/Middlewares/Third_Party/Huawei/iot_link/network/tcpip/sal\sal_netdb.c ****         ip[3] = (unsigned char)tmp[3];
  79:D:/fchai/work/i-cube/I-CUBE-HUAWEI/Middlewares/Third_Party/Huawei/iot_link/network/tcpip/sal\sal_netdb.c ****         (void) memcpy((void *)addr,(void *)ip,sizeof(ip));
  80:D:/fchai/work/i-cube/I-CUBE-HUAWEI/Middlewares/Third_Party/Huawei/iot_link/network/tcpip/sal\sal_netdb.c ****         result = 1;
  81:D:/fchai/work/i-cube/I-CUBE-HUAWEI/Middlewares/Third_Party/Huawei/iot_link/network/tcpip/sal\sal_netdb.c ****     }
  82:D:/fchai/work/i-cube/I-CUBE-HUAWEI/Middlewares/Third_Party/Huawei/iot_link/network/tcpip/sal\sal_netdb.c **** 
  83:D:/fchai/work/i-cube/I-CUBE-HUAWEI/Middlewares/Third_Party/Huawei/iot_link/network/tcpip/sal\sal_netdb.c ****     return result;
 164              		.loc 1 83 5 is_stmt 1 view .LVU39
  84:D:/fchai/work/i-cube/I-CUBE-HUAWEI/Middlewares/Third_Party/Huawei/iot_link/network/tcpip/sal\sal_netdb.c **** }
 165              		.loc 1 84 1 is_stmt 0 view .LVU40
 166 001e 08B0     		add	sp, sp, #32
 167              	.LCFI7:
 168              		.cfi_remember_state
 169              		.cfi_def_cfa_offset 8
 170              		@ sp needed
 171 0020 10BD     		pop	{r4, pc}
 172              	.LVL10:
 173              	.L13:
 174              	.LCFI8:
 175              		.cfi_restore_state
  75:D:/fchai/work/i-cube/I-CUBE-HUAWEI/Middlewares/Third_Party/Huawei/iot_link/network/tcpip/sal\sal_netdb.c ****         ip[1] = (unsigned char)tmp[1];
 176              		.loc 1 75 9 is_stmt 1 view .LVU41
  76:D:/fchai/work/i-cube/I-CUBE-HUAWEI/Middlewares/Third_Party/Huawei/iot_link/network/tcpip/sal\sal_netdb.c ****         ip[2] = (unsigned char)tmp[2];
 177              		.loc 1 76 17 is_stmt 0 view .LVU42
 178 0022 DDE90401 		ldrd	r0, r1, [sp, #16]
 179              	.LVL11:
  78:D:/fchai/work/i-cube/I-CUBE-HUAWEI/Middlewares/Third_Party/Huawei/iot_link/network/tcpip/sal\sal_netdb.c ****         (void) memcpy((void *)addr,(void *)ip,sizeof(ip));
 180              		.loc 1 78 17 view .LVU43
 181 0026 DDE90623 		ldrd	r2, r3, [sp, #24]
  75:D:/fchai/work/i-cube/I-CUBE-HUAWEI/Middlewares/Third_Party/Huawei/iot_link/network/tcpip/sal\sal_netdb.c ****         ip[1] = (unsigned char)tmp[1];
 182              		.loc 1 75 17 view .LVU44
ARM GAS  T:\msys\tmp\ccODRCnn.s 			page 6


 183 002a 8DF80C00 		strb	r0, [sp, #12]
  76:D:/fchai/work/i-cube/I-CUBE-HUAWEI/Middlewares/Third_Party/Huawei/iot_link/network/tcpip/sal\sal_netdb.c ****         ip[2] = (unsigned char)tmp[2];
 184              		.loc 1 76 9 is_stmt 1 view .LVU45
  76:D:/fchai/work/i-cube/I-CUBE-HUAWEI/Middlewares/Third_Party/Huawei/iot_link/network/tcpip/sal\sal_netdb.c ****         ip[2] = (unsigned char)tmp[2];
 185              		.loc 1 76 17 is_stmt 0 view .LVU46
 186 002e 8DF80D10 		strb	r1, [sp, #13]
  77:D:/fchai/work/i-cube/I-CUBE-HUAWEI/Middlewares/Third_Party/Huawei/iot_link/network/tcpip/sal\sal_netdb.c ****         ip[3] = (unsigned char)tmp[3];
 187              		.loc 1 77 9 is_stmt 1 view .LVU47
  77:D:/fchai/work/i-cube/I-CUBE-HUAWEI/Middlewares/Third_Party/Huawei/iot_link/network/tcpip/sal\sal_netdb.c ****         ip[3] = (unsigned char)tmp[3];
 188              		.loc 1 77 17 is_stmt 0 view .LVU48
 189 0032 8DF80E20 		strb	r2, [sp, #14]
  78:D:/fchai/work/i-cube/I-CUBE-HUAWEI/Middlewares/Third_Party/Huawei/iot_link/network/tcpip/sal\sal_netdb.c ****         (void) memcpy((void *)addr,(void *)ip,sizeof(ip));
 190              		.loc 1 78 9 is_stmt 1 view .LVU49
  78:D:/fchai/work/i-cube/I-CUBE-HUAWEI/Middlewares/Third_Party/Huawei/iot_link/network/tcpip/sal\sal_netdb.c ****         (void) memcpy((void *)addr,(void *)ip,sizeof(ip));
 191              		.loc 1 78 17 is_stmt 0 view .LVU50
 192 0036 8DF80F30 		strb	r3, [sp, #15]
  79:D:/fchai/work/i-cube/I-CUBE-HUAWEI/Middlewares/Third_Party/Huawei/iot_link/network/tcpip/sal\sal_netdb.c ****         result = 1;
 193              		.loc 1 79 9 is_stmt 1 view .LVU51
  79:D:/fchai/work/i-cube/I-CUBE-HUAWEI/Middlewares/Third_Party/Huawei/iot_link/network/tcpip/sal\sal_netdb.c ****         result = 1;
 194              		.loc 1 79 16 is_stmt 0 view .LVU52
 195 003a 039B     		ldr	r3, [sp, #12]
 196 003c 2360     		str	r3, [r4]	@ unaligned
  80:D:/fchai/work/i-cube/I-CUBE-HUAWEI/Middlewares/Third_Party/Huawei/iot_link/network/tcpip/sal\sal_netdb.c ****     }
 197              		.loc 1 80 9 is_stmt 1 view .LVU53
 198              	.LVL12:
  80:D:/fchai/work/i-cube/I-CUBE-HUAWEI/Middlewares/Third_Party/Huawei/iot_link/network/tcpip/sal\sal_netdb.c ****     }
 199              		.loc 1 80 16 is_stmt 0 view .LVU54
 200 003e 0120     		movs	r0, #1
 201              		.loc 1 84 1 view .LVU55
 202 0040 08B0     		add	sp, sp, #32
 203              	.LCFI9:
 204              		.cfi_def_cfa_offset 8
 205              		@ sp needed
 206 0042 10BD     		pop	{r4, pc}
 207              	.LVL13:
 208              	.L15:
 209              		.loc 1 84 1 view .LVU56
 210              		.align	2
 211              	.L14:
 212 0044 00000000 		.word	.LC0
 213              		.cfi_endproc
 214              	.LFE4:
 216              		.section	.text.inet_ntoa,"ax",%progbits
 217              		.align	1
 218              		.p2align 2,,3
 219              		.weak	inet_ntoa
 220              		.syntax unified
 221              		.thumb
 222              		.thumb_func
 223              		.fpu fpv4-sp-d16
 225              	inet_ntoa:
 226              	.LVL14:
 227              	.LFB5:
  85:D:/fchai/work/i-cube/I-CUBE-HUAWEI/Middlewares/Third_Party/Huawei/iot_link/network/tcpip/sal\sal_netdb.c **** 
  86:D:/fchai/work/i-cube/I-CUBE-HUAWEI/Middlewares/Third_Party/Huawei/iot_link/network/tcpip/sal\sal_netdb.c **** 
  87:D:/fchai/work/i-cube/I-CUBE-HUAWEI/Middlewares/Third_Party/Huawei/iot_link/network/tcpip/sal\sal_netdb.c **** #define cn_inet_addrlen_max     16
  88:D:/fchai/work/i-cube/I-CUBE-HUAWEI/Middlewares/Third_Party/Huawei/iot_link/network/tcpip/sal\sal_netdb.c **** static  char s_inet_addr_buf[cn_inet_addrlen_max];
ARM GAS  T:\msys\tmp\ccODRCnn.s 			page 7


  89:D:/fchai/work/i-cube/I-CUBE-HUAWEI/Middlewares/Third_Party/Huawei/iot_link/network/tcpip/sal\sal_netdb.c **** 
  90:D:/fchai/work/i-cube/I-CUBE-HUAWEI/Middlewares/Third_Party/Huawei/iot_link/network/tcpip/sal\sal_netdb.c **** __attribute__((weak)) char *inet_ntoa(struct in_addr addr)
  91:D:/fchai/work/i-cube/I-CUBE-HUAWEI/Middlewares/Third_Party/Huawei/iot_link/network/tcpip/sal\sal_netdb.c **** {
 228              		.loc 1 91 1 is_stmt 1 view -0
 229              		.cfi_startproc
 230              		@ args = 0, pretend = 0, frame = 0
 231              		@ frame_needed = 0, uses_anonymous_args = 0
  92:D:/fchai/work/i-cube/I-CUBE-HUAWEI/Middlewares/Third_Party/Huawei/iot_link/network/tcpip/sal\sal_netdb.c ****     unsigned char ip[4];
 232              		.loc 1 92 5 view .LVU58
  93:D:/fchai/work/i-cube/I-CUBE-HUAWEI/Middlewares/Third_Party/Huawei/iot_link/network/tcpip/sal\sal_netdb.c ****     int tmp[4];
 233              		.loc 1 93 5 view .LVU59
  94:D:/fchai/work/i-cube/I-CUBE-HUAWEI/Middlewares/Third_Party/Huawei/iot_link/network/tcpip/sal\sal_netdb.c ****     (void) memcpy((void *)ip,(void *)&addr,sizeof(ip));
 234              		.loc 1 94 5 view .LVU60
  95:D:/fchai/work/i-cube/I-CUBE-HUAWEI/Middlewares/Third_Party/Huawei/iot_link/network/tcpip/sal\sal_netdb.c ****     (void) memset((void *)s_inet_addr_buf,0,cn_inet_addrlen_max);
 235              		.loc 1 95 5 view .LVU61
  91:D:/fchai/work/i-cube/I-CUBE-HUAWEI/Middlewares/Third_Party/Huawei/iot_link/network/tcpip/sal\sal_netdb.c ****     unsigned char ip[4];
 236              		.loc 1 91 1 is_stmt 0 view .LVU62
 237 0000 30B5     		push	{r4, r5, lr}
 238              	.LCFI10:
 239              		.cfi_def_cfa_offset 12
 240              		.cfi_offset 4, -12
 241              		.cfi_offset 5, -8
 242              		.cfi_offset 14, -4
 243              		.loc 1 95 12 view .LVU63
 244 0002 0B4C     		ldr	r4, .L18
  96:D:/fchai/work/i-cube/I-CUBE-HUAWEI/Middlewares/Third_Party/Huawei/iot_link/network/tcpip/sal\sal_netdb.c **** 
  97:D:/fchai/work/i-cube/I-CUBE-HUAWEI/Middlewares/Third_Party/Huawei/iot_link/network/tcpip/sal\sal_netdb.c ****     tmp[0] = (int)ip[0];
  98:D:/fchai/work/i-cube/I-CUBE-HUAWEI/Middlewares/Third_Party/Huawei/iot_link/network/tcpip/sal\sal_netdb.c ****     tmp[1] = (int)ip[1];
  99:D:/fchai/work/i-cube/I-CUBE-HUAWEI/Middlewares/Third_Party/Huawei/iot_link/network/tcpip/sal\sal_netdb.c ****     tmp[2] = (int)ip[2];
 100:D:/fchai/work/i-cube/I-CUBE-HUAWEI/Middlewares/Third_Party/Huawei/iot_link/network/tcpip/sal\sal_netdb.c ****     tmp[3] = (int)ip[3];
 101:D:/fchai/work/i-cube/I-CUBE-HUAWEI/Middlewares/Third_Party/Huawei/iot_link/network/tcpip/sal\sal_netdb.c ****     (void) sprintf(s_inet_addr_buf,"%d.%d.%d.%d",tmp[0],tmp[1],tmp[2],tmp[3]);
 245              		.loc 1 101 12 view .LVU64
 246 0004 0B49     		ldr	r1, .L18+4
  91:D:/fchai/work/i-cube/I-CUBE-HUAWEI/Middlewares/Third_Party/Huawei/iot_link/network/tcpip/sal\sal_netdb.c ****     unsigned char ip[4];
 247              		.loc 1 91 1 view .LVU65
 248 0006 83B0     		sub	sp, sp, #12
 249              	.LCFI11:
 250              		.cfi_def_cfa_offset 24
 100:D:/fchai/work/i-cube/I-CUBE-HUAWEI/Middlewares/Third_Party/Huawei/iot_link/network/tcpip/sal\sal_netdb.c ****     (void) sprintf(s_inet_addr_buf,"%d.%d.%d.%d",tmp[0],tmp[1],tmp[2],tmp[3]);
 251              		.loc 1 100 14 view .LVU66
 252 0008 020E     		lsrs	r2, r0, #24
  99:D:/fchai/work/i-cube/I-CUBE-HUAWEI/Middlewares/Third_Party/Huawei/iot_link/network/tcpip/sal\sal_netdb.c ****     tmp[3] = (int)ip[3];
 253              		.loc 1 99 14 view .LVU67
 254 000a C0F30743 		ubfx	r3, r0, #16, #8
 255 000e CDE90032 		strd	r3, r2, [sp]
  95:D:/fchai/work/i-cube/I-CUBE-HUAWEI/Middlewares/Third_Party/Huawei/iot_link/network/tcpip/sal\sal_netdb.c **** 
 256              		.loc 1 95 12 view .LVU68
 257 0012 0025     		movs	r5, #0
 258              		.loc 1 101 12 view .LVU69
 259 0014 C0F30723 		ubfx	r3, r0, #8, #8
 260 0018 C2B2     		uxtb	r2, r0
 261 001a 2046     		mov	r0, r4
 262              	.LVL15:
  95:D:/fchai/work/i-cube/I-CUBE-HUAWEI/Middlewares/Third_Party/Huawei/iot_link/network/tcpip/sal\sal_netdb.c **** 
 263              		.loc 1 95 12 view .LVU70
 264 001c C4E90055 		strd	r5, r5, [r4]
 265 0020 C4E90255 		strd	r5, r5, [r4, #8]
ARM GAS  T:\msys\tmp\ccODRCnn.s 			page 8


  97:D:/fchai/work/i-cube/I-CUBE-HUAWEI/Middlewares/Third_Party/Huawei/iot_link/network/tcpip/sal\sal_netdb.c ****     tmp[1] = (int)ip[1];
 266              		.loc 1 97 5 is_stmt 1 view .LVU71
 267              	.LVL16:
  98:D:/fchai/work/i-cube/I-CUBE-HUAWEI/Middlewares/Third_Party/Huawei/iot_link/network/tcpip/sal\sal_netdb.c ****     tmp[2] = (int)ip[2];
 268              		.loc 1 98 5 view .LVU72
  99:D:/fchai/work/i-cube/I-CUBE-HUAWEI/Middlewares/Third_Party/Huawei/iot_link/network/tcpip/sal\sal_netdb.c ****     tmp[3] = (int)ip[3];
 269              		.loc 1 99 5 view .LVU73
 100:D:/fchai/work/i-cube/I-CUBE-HUAWEI/Middlewares/Third_Party/Huawei/iot_link/network/tcpip/sal\sal_netdb.c ****     (void) sprintf(s_inet_addr_buf,"%d.%d.%d.%d",tmp[0],tmp[1],tmp[2],tmp[3]);
 270              		.loc 1 100 5 view .LVU74
 271              		.loc 1 101 5 view .LVU75
 272              		.loc 1 101 12 is_stmt 0 view .LVU76
 273 0024 FFF7FEFF 		bl	sprintf
 274              	.LVL17:
 102:D:/fchai/work/i-cube/I-CUBE-HUAWEI/Middlewares/Third_Party/Huawei/iot_link/network/tcpip/sal\sal_netdb.c **** 
 103:D:/fchai/work/i-cube/I-CUBE-HUAWEI/Middlewares/Third_Party/Huawei/iot_link/network/tcpip/sal\sal_netdb.c ****     return (char *)s_inet_addr_buf;
 275              		.loc 1 103 5 is_stmt 1 view .LVU77
 104:D:/fchai/work/i-cube/I-CUBE-HUAWEI/Middlewares/Third_Party/Huawei/iot_link/network/tcpip/sal\sal_netdb.c **** }
 276              		.loc 1 104 1 is_stmt 0 view .LVU78
 277 0028 2046     		mov	r0, r4
 278 002a 03B0     		add	sp, sp, #12
 279              	.LCFI12:
 280              		.cfi_def_cfa_offset 12
 281              		@ sp needed
 282 002c 30BD     		pop	{r4, r5, pc}
 283              	.L19:
 284 002e 00BF     		.align	2
 285              	.L18:
 286 0030 00000000 		.word	.LANCHOR0
 287 0034 00000000 		.word	.LC0
 288              		.cfi_endproc
 289              	.LFE5:
 291              		.section	.text.inet_ntop,"ax",%progbits
 292              		.align	1
 293              		.p2align 2,,3
 294              		.weak	inet_ntop
 295              		.syntax unified
 296              		.thumb
 297              		.thumb_func
 298              		.fpu fpv4-sp-d16
 300              	inet_ntop:
 301              	.LVL18:
 302              	.LFB6:
 105:D:/fchai/work/i-cube/I-CUBE-HUAWEI/Middlewares/Third_Party/Huawei/iot_link/network/tcpip/sal\sal_netdb.c **** 
 106:D:/fchai/work/i-cube/I-CUBE-HUAWEI/Middlewares/Third_Party/Huawei/iot_link/network/tcpip/sal\sal_netdb.c **** __attribute__((weak)) const char *inet_ntop(int af, const void *src, char *dst, socklen_t cnt)
 107:D:/fchai/work/i-cube/I-CUBE-HUAWEI/Middlewares/Third_Party/Huawei/iot_link/network/tcpip/sal\sal_netdb.c **** {
 303              		.loc 1 107 1 is_stmt 1 view -0
 304              		.cfi_startproc
 305              		@ args = 0, pretend = 0, frame = 0
 306              		@ frame_needed = 0, uses_anonymous_args = 0
 108:D:/fchai/work/i-cube/I-CUBE-HUAWEI/Middlewares/Third_Party/Huawei/iot_link/network/tcpip/sal\sal_netdb.c ****     char *str;
 307              		.loc 1 108 5 view .LVU80
 109:D:/fchai/work/i-cube/I-CUBE-HUAWEI/Middlewares/Third_Party/Huawei/iot_link/network/tcpip/sal\sal_netdb.c ****     char          *result = NULL;
 308              		.loc 1 109 5 view .LVU81
 110:D:/fchai/work/i-cube/I-CUBE-HUAWEI/Middlewares/Third_Party/Huawei/iot_link/network/tcpip/sal\sal_netdb.c ****     struct in_addr addr;
 309              		.loc 1 110 5 view .LVU82
 111:D:/fchai/work/i-cube/I-CUBE-HUAWEI/Middlewares/Third_Party/Huawei/iot_link/network/tcpip/sal\sal_netdb.c **** 
 112:D:/fchai/work/i-cube/I-CUBE-HUAWEI/Middlewares/Third_Party/Huawei/iot_link/network/tcpip/sal\sal_netdb.c ****     if((NULL == src)||(NULL == dst))
ARM GAS  T:\msys\tmp\ccODRCnn.s 			page 9


 310              		.loc 1 112 5 view .LVU83
 311              		.loc 1 112 7 is_stmt 0 view .LVU84
 312 0000 C1B1     		cbz	r1, .L33
 107:D:/fchai/work/i-cube/I-CUBE-HUAWEI/Middlewares/Third_Party/Huawei/iot_link/network/tcpip/sal\sal_netdb.c ****     char *str;
 313              		.loc 1 107 1 discriminator 1 view .LVU85
 314 0002 70B5     		push	{r4, r5, r6, lr}
 315              	.LCFI13:
 316              		.cfi_def_cfa_offset 16
 317              		.cfi_offset 4, -16
 318              		.cfi_offset 5, -12
 319              		.cfi_offset 6, -8
 320              		.cfi_offset 14, -4
 321 0004 1446     		mov	r4, r2
 322              		.loc 1 112 21 discriminator 1 view .LVU86
 323 0006 0AB1     		cbz	r2, .L23
 113:D:/fchai/work/i-cube/I-CUBE-HUAWEI/Middlewares/Third_Party/Huawei/iot_link/network/tcpip/sal\sal_netdb.c ****     {
 114:D:/fchai/work/i-cube/I-CUBE-HUAWEI/Middlewares/Third_Party/Huawei/iot_link/network/tcpip/sal\sal_netdb.c ****         return result;
 115:D:/fchai/work/i-cube/I-CUBE-HUAWEI/Middlewares/Third_Party/Huawei/iot_link/network/tcpip/sal\sal_netdb.c ****     }
 116:D:/fchai/work/i-cube/I-CUBE-HUAWEI/Middlewares/Third_Party/Huawei/iot_link/network/tcpip/sal\sal_netdb.c **** 
 117:D:/fchai/work/i-cube/I-CUBE-HUAWEI/Middlewares/Third_Party/Huawei/iot_link/network/tcpip/sal\sal_netdb.c ****     if(af==AF_INET)
 324              		.loc 1 117 5 is_stmt 1 view .LVU87
 325              		.loc 1 117 7 is_stmt 0 view .LVU88
 326 0008 0228     		cmp	r0, #2
 327 000a 01D0     		beq	.L34
 328              	.LVL19:
 329              	.L23:
 114:D:/fchai/work/i-cube/I-CUBE-HUAWEI/Middlewares/Third_Party/Huawei/iot_link/network/tcpip/sal\sal_netdb.c ****     }
 330              		.loc 1 114 16 view .LVU89
 331 000c 0020     		movs	r0, #0
 118:D:/fchai/work/i-cube/I-CUBE-HUAWEI/Middlewares/Third_Party/Huawei/iot_link/network/tcpip/sal\sal_netdb.c ****     {
 119:D:/fchai/work/i-cube/I-CUBE-HUAWEI/Middlewares/Third_Party/Huawei/iot_link/network/tcpip/sal\sal_netdb.c **** 
 120:D:/fchai/work/i-cube/I-CUBE-HUAWEI/Middlewares/Third_Party/Huawei/iot_link/network/tcpip/sal\sal_netdb.c ****         (void) memcpy((void *)&addr,src,sizeof(addr));
 121:D:/fchai/work/i-cube/I-CUBE-HUAWEI/Middlewares/Third_Party/Huawei/iot_link/network/tcpip/sal\sal_netdb.c ****         str = inet_ntoa(addr);
 122:D:/fchai/work/i-cube/I-CUBE-HUAWEI/Middlewares/Third_Party/Huawei/iot_link/network/tcpip/sal\sal_netdb.c **** 
 123:D:/fchai/work/i-cube/I-CUBE-HUAWEI/Middlewares/Third_Party/Huawei/iot_link/network/tcpip/sal\sal_netdb.c ****         if((NULL != str)&&(cnt >(socklen_t)(strlen(str)+1)))
 124:D:/fchai/work/i-cube/I-CUBE-HUAWEI/Middlewares/Third_Party/Huawei/iot_link/network/tcpip/sal\sal_netdb.c ****         {
 125:D:/fchai/work/i-cube/I-CUBE-HUAWEI/Middlewares/Third_Party/Huawei/iot_link/network/tcpip/sal\sal_netdb.c ****             (void) memcpy((void*)dst,(void*)str,strlen(str)+1);
 126:D:/fchai/work/i-cube/I-CUBE-HUAWEI/Middlewares/Third_Party/Huawei/iot_link/network/tcpip/sal\sal_netdb.c ****             result = dst;
 127:D:/fchai/work/i-cube/I-CUBE-HUAWEI/Middlewares/Third_Party/Huawei/iot_link/network/tcpip/sal\sal_netdb.c ****         }
 128:D:/fchai/work/i-cube/I-CUBE-HUAWEI/Middlewares/Third_Party/Huawei/iot_link/network/tcpip/sal\sal_netdb.c ****     }
 129:D:/fchai/work/i-cube/I-CUBE-HUAWEI/Middlewares/Third_Party/Huawei/iot_link/network/tcpip/sal\sal_netdb.c **** 
 130:D:/fchai/work/i-cube/I-CUBE-HUAWEI/Middlewares/Third_Party/Huawei/iot_link/network/tcpip/sal\sal_netdb.c ****     return result;
 131:D:/fchai/work/i-cube/I-CUBE-HUAWEI/Middlewares/Third_Party/Huawei/iot_link/network/tcpip/sal\sal_netdb.c **** }
 332              		.loc 1 131 1 view .LVU90
 333 000e 70BD     		pop	{r4, r5, r6, pc}
 334              	.LVL20:
 335              	.L34:
 120:D:/fchai/work/i-cube/I-CUBE-HUAWEI/Middlewares/Third_Party/Huawei/iot_link/network/tcpip/sal\sal_netdb.c ****         str = inet_ntoa(addr);
 336              		.loc 1 120 9 is_stmt 1 view .LVU91
 121:D:/fchai/work/i-cube/I-CUBE-HUAWEI/Middlewares/Third_Party/Huawei/iot_link/network/tcpip/sal\sal_netdb.c **** 
 337              		.loc 1 121 9 view .LVU92
 121:D:/fchai/work/i-cube/I-CUBE-HUAWEI/Middlewares/Third_Party/Huawei/iot_link/network/tcpip/sal\sal_netdb.c **** 
 338              		.loc 1 121 15 is_stmt 0 view .LVU93
 339 0010 0868     		ldr	r0, [r1]	@ unaligned
 340              	.LVL21:
 121:D:/fchai/work/i-cube/I-CUBE-HUAWEI/Middlewares/Third_Party/Huawei/iot_link/network/tcpip/sal\sal_netdb.c **** 
 341              		.loc 1 121 15 view .LVU94
ARM GAS  T:\msys\tmp\ccODRCnn.s 			page 10


 342 0012 1E46     		mov	r6, r3
 343 0014 FFF7FEFF 		bl	inet_ntoa
 344              	.LVL22:
 123:D:/fchai/work/i-cube/I-CUBE-HUAWEI/Middlewares/Third_Party/Huawei/iot_link/network/tcpip/sal\sal_netdb.c ****         {
 345              		.loc 1 123 9 is_stmt 1 view .LVU95
 123:D:/fchai/work/i-cube/I-CUBE-HUAWEI/Middlewares/Third_Party/Huawei/iot_link/network/tcpip/sal\sal_netdb.c ****         {
 346              		.loc 1 123 11 is_stmt 0 view .LVU96
 347 0018 0546     		mov	r5, r0
 348 001a 0028     		cmp	r0, #0
 349 001c F6D0     		beq	.L23
 123:D:/fchai/work/i-cube/I-CUBE-HUAWEI/Middlewares/Third_Party/Huawei/iot_link/network/tcpip/sal\sal_netdb.c ****         {
 350              		.loc 1 123 45 discriminator 1 view .LVU97
 351 001e FFF7FEFF 		bl	strlen
 352              	.LVL23:
 123:D:/fchai/work/i-cube/I-CUBE-HUAWEI/Middlewares/Third_Party/Huawei/iot_link/network/tcpip/sal\sal_netdb.c ****         {
 353              		.loc 1 123 56 discriminator 1 view .LVU98
 354 0022 421C     		adds	r2, r0, #1
 123:D:/fchai/work/i-cube/I-CUBE-HUAWEI/Middlewares/Third_Party/Huawei/iot_link/network/tcpip/sal\sal_netdb.c ****         {
 355              		.loc 1 123 25 discriminator 1 view .LVU99
 356 0024 B242     		cmp	r2, r6
 357 0026 F1DA     		bge	.L23
 125:D:/fchai/work/i-cube/I-CUBE-HUAWEI/Middlewares/Third_Party/Huawei/iot_link/network/tcpip/sal\sal_netdb.c ****             result = dst;
 358              		.loc 1 125 13 is_stmt 1 view .LVU100
 125:D:/fchai/work/i-cube/I-CUBE-HUAWEI/Middlewares/Third_Party/Huawei/iot_link/network/tcpip/sal\sal_netdb.c ****             result = dst;
 359              		.loc 1 125 20 is_stmt 0 view .LVU101
 360 0028 2946     		mov	r1, r5
 361 002a 2046     		mov	r0, r4
 362 002c FFF7FEFF 		bl	memcpy
 363              	.LVL24:
 126:D:/fchai/work/i-cube/I-CUBE-HUAWEI/Middlewares/Third_Party/Huawei/iot_link/network/tcpip/sal\sal_netdb.c ****         }
 364              		.loc 1 126 13 is_stmt 1 view .LVU102
 125:D:/fchai/work/i-cube/I-CUBE-HUAWEI/Middlewares/Third_Party/Huawei/iot_link/network/tcpip/sal\sal_netdb.c ****             result = dst;
 365              		.loc 1 125 20 is_stmt 0 view .LVU103
 366 0030 2046     		mov	r0, r4
 367              	.LVL25:
 368              		.loc 1 131 1 view .LVU104
 369 0032 70BD     		pop	{r4, r5, r6, pc}
 370              	.LVL26:
 371              	.L33:
 372              	.LCFI14:
 373              		.cfi_def_cfa_offset 0
 374              		.cfi_restore 4
 375              		.cfi_restore 5
 376              		.cfi_restore 6
 377              		.cfi_restore 14
 114:D:/fchai/work/i-cube/I-CUBE-HUAWEI/Middlewares/Third_Party/Huawei/iot_link/network/tcpip/sal\sal_netdb.c ****     }
 378              		.loc 1 114 16 view .LVU105
 379 0034 0020     		movs	r0, #0
 380              	.LVL27:
 381              		.loc 1 131 1 view .LVU106
 382 0036 7047     		bx	lr
 383              		.cfi_endproc
 384              	.LFE6:
 386              		.section	.text.inet_pton,"ax",%progbits
 387              		.align	1
 388              		.p2align 2,,3
 389              		.weak	inet_pton
ARM GAS  T:\msys\tmp\ccODRCnn.s 			page 11


 390              		.syntax unified
 391              		.thumb
 392              		.thumb_func
 393              		.fpu fpv4-sp-d16
 395              	inet_pton:
 396              	.LVL28:
 397              	.LFB7:
 132:D:/fchai/work/i-cube/I-CUBE-HUAWEI/Middlewares/Third_Party/Huawei/iot_link/network/tcpip/sal\sal_netdb.c **** 
 133:D:/fchai/work/i-cube/I-CUBE-HUAWEI/Middlewares/Third_Party/Huawei/iot_link/network/tcpip/sal\sal_netdb.c **** __attribute__((weak)) int inet_pton(int af, const char *src, void *dst)
 134:D:/fchai/work/i-cube/I-CUBE-HUAWEI/Middlewares/Third_Party/Huawei/iot_link/network/tcpip/sal\sal_netdb.c **** {
 398              		.loc 1 134 1 is_stmt 1 view -0
 399              		.cfi_startproc
 400              		@ args = 0, pretend = 0, frame = 8
 401              		@ frame_needed = 0, uses_anonymous_args = 0
 135:D:/fchai/work/i-cube/I-CUBE-HUAWEI/Middlewares/Third_Party/Huawei/iot_link/network/tcpip/sal\sal_netdb.c **** 
 136:D:/fchai/work/i-cube/I-CUBE-HUAWEI/Middlewares/Third_Party/Huawei/iot_link/network/tcpip/sal\sal_netdb.c ****     int result = -1;
 402              		.loc 1 136 5 view .LVU108
 137:D:/fchai/work/i-cube/I-CUBE-HUAWEI/Middlewares/Third_Party/Huawei/iot_link/network/tcpip/sal\sal_netdb.c ****     struct in_addr addr;
 403              		.loc 1 137 5 view .LVU109
 138:D:/fchai/work/i-cube/I-CUBE-HUAWEI/Middlewares/Third_Party/Huawei/iot_link/network/tcpip/sal\sal_netdb.c **** 
 139:D:/fchai/work/i-cube/I-CUBE-HUAWEI/Middlewares/Third_Party/Huawei/iot_link/network/tcpip/sal\sal_netdb.c ****     if((NULL == src)||(NULL == dst))
 404              		.loc 1 139 5 view .LVU110
 405              		.loc 1 139 7 is_stmt 0 view .LVU111
 406 0000 49B1     		cbz	r1, .L39
 134:D:/fchai/work/i-cube/I-CUBE-HUAWEI/Middlewares/Third_Party/Huawei/iot_link/network/tcpip/sal\sal_netdb.c **** 
 407              		.loc 1 134 1 discriminator 1 view .LVU112
 408 0002 10B5     		push	{r4, lr}
 409              	.LCFI15:
 410              		.cfi_def_cfa_offset 8
 411              		.cfi_offset 4, -8
 412              		.cfi_offset 14, -4
 413 0004 1446     		mov	r4, r2
 414 0006 82B0     		sub	sp, sp, #8
 415              	.LCFI16:
 416              		.cfi_def_cfa_offset 16
 417              		.loc 1 139 21 discriminator 1 view .LVU113
 418 0008 3AB1     		cbz	r2, .L40
 140:D:/fchai/work/i-cube/I-CUBE-HUAWEI/Middlewares/Third_Party/Huawei/iot_link/network/tcpip/sal\sal_netdb.c ****     {
 141:D:/fchai/work/i-cube/I-CUBE-HUAWEI/Middlewares/Third_Party/Huawei/iot_link/network/tcpip/sal\sal_netdb.c ****         result = 0;
 142:D:/fchai/work/i-cube/I-CUBE-HUAWEI/Middlewares/Third_Party/Huawei/iot_link/network/tcpip/sal\sal_netdb.c ****         return result;
 143:D:/fchai/work/i-cube/I-CUBE-HUAWEI/Middlewares/Third_Party/Huawei/iot_link/network/tcpip/sal\sal_netdb.c ****     }
 144:D:/fchai/work/i-cube/I-CUBE-HUAWEI/Middlewares/Third_Party/Huawei/iot_link/network/tcpip/sal\sal_netdb.c **** 
 145:D:/fchai/work/i-cube/I-CUBE-HUAWEI/Middlewares/Third_Party/Huawei/iot_link/network/tcpip/sal\sal_netdb.c ****     if(af==AF_INET)
 419              		.loc 1 145 5 is_stmt 1 view .LVU114
 420              		.loc 1 145 7 is_stmt 0 view .LVU115
 421 000a 0228     		cmp	r0, #2
 422 000c 08D0     		beq	.L37
 423              	.LVL29:
 424              	.L38:
 136:D:/fchai/work/i-cube/I-CUBE-HUAWEI/Middlewares/Third_Party/Huawei/iot_link/network/tcpip/sal\sal_netdb.c ****     struct in_addr addr;
 425              		.loc 1 136 9 view .LVU116
 426 000e 4FF0FF30 		mov	r0, #-1
 427              	.LVL30:
 428              	.L35:
 146:D:/fchai/work/i-cube/I-CUBE-HUAWEI/Middlewares/Third_Party/Huawei/iot_link/network/tcpip/sal\sal_netdb.c ****     {
 147:D:/fchai/work/i-cube/I-CUBE-HUAWEI/Middlewares/Third_Party/Huawei/iot_link/network/tcpip/sal\sal_netdb.c ****         if(inet_aton(src,&addr))
 148:D:/fchai/work/i-cube/I-CUBE-HUAWEI/Middlewares/Third_Party/Huawei/iot_link/network/tcpip/sal\sal_netdb.c ****         {
ARM GAS  T:\msys\tmp\ccODRCnn.s 			page 12


 149:D:/fchai/work/i-cube/I-CUBE-HUAWEI/Middlewares/Third_Party/Huawei/iot_link/network/tcpip/sal\sal_netdb.c ****             (void) memcpy((void *)dst,&addr,sizeof(addr));
 150:D:/fchai/work/i-cube/I-CUBE-HUAWEI/Middlewares/Third_Party/Huawei/iot_link/network/tcpip/sal\sal_netdb.c ****             result = 1;
 151:D:/fchai/work/i-cube/I-CUBE-HUAWEI/Middlewares/Third_Party/Huawei/iot_link/network/tcpip/sal\sal_netdb.c ****         }
 152:D:/fchai/work/i-cube/I-CUBE-HUAWEI/Middlewares/Third_Party/Huawei/iot_link/network/tcpip/sal\sal_netdb.c ****     }
 153:D:/fchai/work/i-cube/I-CUBE-HUAWEI/Middlewares/Third_Party/Huawei/iot_link/network/tcpip/sal\sal_netdb.c **** 
 154:D:/fchai/work/i-cube/I-CUBE-HUAWEI/Middlewares/Third_Party/Huawei/iot_link/network/tcpip/sal\sal_netdb.c ****     return result;
 155:D:/fchai/work/i-cube/I-CUBE-HUAWEI/Middlewares/Third_Party/Huawei/iot_link/network/tcpip/sal\sal_netdb.c **** }
 429              		.loc 1 155 1 view .LVU117
 430 0012 02B0     		add	sp, sp, #8
 431              	.LCFI17:
 432              		.cfi_def_cfa_offset 8
 433              		@ sp needed
 434 0014 10BD     		pop	{r4, pc}
 435              	.LVL31:
 436              	.L39:
 437              	.LCFI18:
 438              		.cfi_def_cfa_offset 0
 439              		.cfi_restore 4
 440              		.cfi_restore 14
 142:D:/fchai/work/i-cube/I-CUBE-HUAWEI/Middlewares/Third_Party/Huawei/iot_link/network/tcpip/sal\sal_netdb.c ****     }
 441              		.loc 1 142 16 view .LVU118
 442 0016 0846     		mov	r0, r1
 443              	.LVL32:
 444              		.loc 1 155 1 view .LVU119
 445 0018 7047     		bx	lr
 446              	.LVL33:
 447              	.L40:
 448              	.LCFI19:
 449              		.cfi_def_cfa_offset 16
 450              		.cfi_offset 4, -8
 451              		.cfi_offset 14, -4
 142:D:/fchai/work/i-cube/I-CUBE-HUAWEI/Middlewares/Third_Party/Huawei/iot_link/network/tcpip/sal\sal_netdb.c ****     }
 452              		.loc 1 142 16 view .LVU120
 453 001a 1046     		mov	r0, r2
 454              	.LVL34:
 455              		.loc 1 155 1 view .LVU121
 456 001c 02B0     		add	sp, sp, #8
 457              	.LCFI20:
 458              		.cfi_remember_state
 459              		.cfi_def_cfa_offset 8
 460              		@ sp needed
 461 001e 10BD     		pop	{r4, pc}
 462              	.LVL35:
 463              	.L37:
 464              	.LCFI21:
 465              		.cfi_restore_state
 147:D:/fchai/work/i-cube/I-CUBE-HUAWEI/Middlewares/Third_Party/Huawei/iot_link/network/tcpip/sal\sal_netdb.c ****         {
 466              		.loc 1 147 9 is_stmt 1 view .LVU122
 147:D:/fchai/work/i-cube/I-CUBE-HUAWEI/Middlewares/Third_Party/Huawei/iot_link/network/tcpip/sal\sal_netdb.c ****         {
 467              		.loc 1 147 12 is_stmt 0 view .LVU123
 468 0020 0846     		mov	r0, r1
 469              	.LVL36:
 147:D:/fchai/work/i-cube/I-CUBE-HUAWEI/Middlewares/Third_Party/Huawei/iot_link/network/tcpip/sal\sal_netdb.c ****         {
 470              		.loc 1 147 12 view .LVU124
 471 0022 01A9     		add	r1, sp, #4
 472              	.LVL37:
 147:D:/fchai/work/i-cube/I-CUBE-HUAWEI/Middlewares/Third_Party/Huawei/iot_link/network/tcpip/sal\sal_netdb.c ****         {
ARM GAS  T:\msys\tmp\ccODRCnn.s 			page 13


 473              		.loc 1 147 12 view .LVU125
 474 0024 FFF7FEFF 		bl	inet_aton
 475              	.LVL38:
 147:D:/fchai/work/i-cube/I-CUBE-HUAWEI/Middlewares/Third_Party/Huawei/iot_link/network/tcpip/sal\sal_netdb.c ****         {
 476              		.loc 1 147 11 view .LVU126
 477 0028 0028     		cmp	r0, #0
 478 002a F0D0     		beq	.L38
 149:D:/fchai/work/i-cube/I-CUBE-HUAWEI/Middlewares/Third_Party/Huawei/iot_link/network/tcpip/sal\sal_netdb.c ****             result = 1;
 479              		.loc 1 149 13 is_stmt 1 view .LVU127
 149:D:/fchai/work/i-cube/I-CUBE-HUAWEI/Middlewares/Third_Party/Huawei/iot_link/network/tcpip/sal\sal_netdb.c ****             result = 1;
 480              		.loc 1 149 20 is_stmt 0 view .LVU128
 481 002c 019B     		ldr	r3, [sp, #4]
 482 002e 2360     		str	r3, [r4]	@ unaligned
 150:D:/fchai/work/i-cube/I-CUBE-HUAWEI/Middlewares/Third_Party/Huawei/iot_link/network/tcpip/sal\sal_netdb.c ****         }
 483              		.loc 1 150 13 is_stmt 1 view .LVU129
 484              	.LVL39:
 150:D:/fchai/work/i-cube/I-CUBE-HUAWEI/Middlewares/Third_Party/Huawei/iot_link/network/tcpip/sal\sal_netdb.c ****         }
 485              		.loc 1 150 20 is_stmt 0 view .LVU130
 486 0030 0120     		movs	r0, #1
 487 0032 EEE7     		b	.L35
 488              		.cfi_endproc
 489              	.LFE7:
 491              		.section	.bss.s_inet_addr_buf,"aw",%nobits
 492              		.align	2
 493              		.set	.LANCHOR0,. + 0
 496              	s_inet_addr_buf:
 497 0000 00000000 		.space	16
 497      00000000 
 497      00000000 
 497      00000000 
 498              		.text
 499              	.Letext0:
 500              		.file 2 "t:\\msys\\3rd\\gcc-arm-none-eabi-9-2020-q2-update-win32\\arm-none-eabi\\include\\machine\
 501              		.file 3 "t:\\msys\\3rd\\gcc-arm-none-eabi-9-2020-q2-update-win32\\arm-none-eabi\\include\\sys\\_st
 502              		.file 4 "t:\\msys\\3rd\\gcc-arm-none-eabi-9-2020-q2-update-win32\\lib\\gcc\\arm-none-eabi\\9.3.1\\
 503              		.file 5 "t:\\msys\\3rd\\gcc-arm-none-eabi-9-2020-q2-update-win32\\arm-none-eabi\\include\\sys\\_ty
 504              		.file 6 "t:\\msys\\3rd\\gcc-arm-none-eabi-9-2020-q2-update-win32\\arm-none-eabi\\include\\sys\\ree
 505              		.file 7 "t:\\msys\\3rd\\gcc-arm-none-eabi-9-2020-q2-update-win32\\arm-none-eabi\\include\\sys\\loc
 506              		.file 8 "D:/fchai/work/i-cube/I-CUBE-HUAWEI/Middlewares/Third_Party/Huawei/iot_link/inc/sal_types.
 507              		.file 9 "t:\\msys\\3rd\\gcc-arm-none-eabi-9-2020-q2-update-win32\\arm-none-eabi\\include\\string.h
 508              		.file 10 "t:\\msys\\3rd\\gcc-arm-none-eabi-9-2020-q2-update-win32\\arm-none-eabi\\include\\stdio.h
 509              		.file 11 "<built-in>"
ARM GAS  T:\msys\tmp\ccODRCnn.s 			page 14

