ARM GAS  T:\msys\tmp\cc2ULPC0.s 			page 1


   1              		.cpu cortex-m4
   2              		.eabi_attribute 27, 1
   3              		.eabi_attribute 28, 1
   4              		.eabi_attribute 20, 1
   5              		.eabi_attribute 21, 1
   6              		.eabi_attribute 23, 3
   7              		.eabi_attribute 24, 1
   8              		.eabi_attribute 25, 1
   9              		.eabi_attribute 26, 1
  10              		.eabi_attribute 30, 2
  11              		.eabi_attribute 34, 1
  12              		.eabi_attribute 18, 4
  13              		.file	"board.c"
  14              		.text
  15              	.Ltext0:
  16              		.cfi_sections	.debug_frame
  17              		.section	.text.SystemClock_Config,"ax",%progbits
  18              		.align	1
  19              		.p2align 2,,3
  20              		.global	SystemClock_Config
  21              		.arch armv7e-m
  22              		.syntax unified
  23              		.thumb
  24              		.thumb_func
  25              		.fpu fpv4-sp-d16
  27              	SystemClock_Config:
  28              	.LFB123:
  29              		.file 1 "d:\\fchai\\work\\i-cube\\i-cube-huawei\\projects\\nucleo-l496zg\\applications\\cloud\\mqt
   1:d:\fchai\work\i-cube\i-cube-huawei\projects\nucleo-l496zg\applications\cloud\mqtt-ota\src\main.c **** /* USER CODE BEGIN Header */
   2:d:\fchai\work\i-cube\i-cube-huawei\projects\nucleo-l496zg\applications\cloud\mqtt-ota\src\main.c **** /**
   3:d:\fchai\work\i-cube\i-cube-huawei\projects\nucleo-l496zg\applications\cloud\mqtt-ota\src\main.c ****   ******************************************************************************
   4:d:\fchai\work\i-cube\i-cube-huawei\projects\nucleo-l496zg\applications\cloud\mqtt-ota\src\main.c ****   * @file           : main.c
   5:d:\fchai\work\i-cube\i-cube-huawei\projects\nucleo-l496zg\applications\cloud\mqtt-ota\src\main.c ****   * @brief          : Main program body
   6:d:\fchai\work\i-cube\i-cube-huawei\projects\nucleo-l496zg\applications\cloud\mqtt-ota\src\main.c ****   ******************************************************************************
   7:d:\fchai\work\i-cube\i-cube-huawei\projects\nucleo-l496zg\applications\cloud\mqtt-ota\src\main.c ****   * @attention
   8:d:\fchai\work\i-cube\i-cube-huawei\projects\nucleo-l496zg\applications\cloud\mqtt-ota\src\main.c ****   *
   9:d:\fchai\work\i-cube\i-cube-huawei\projects\nucleo-l496zg\applications\cloud\mqtt-ota\src\main.c ****   * <h2><center>&copy; Copyright (c) 2020 STMicroelectronics.
  10:d:\fchai\work\i-cube\i-cube-huawei\projects\nucleo-l496zg\applications\cloud\mqtt-ota\src\main.c ****   * All rights reserved.</center></h2>
  11:d:\fchai\work\i-cube\i-cube-huawei\projects\nucleo-l496zg\applications\cloud\mqtt-ota\src\main.c ****   *
  12:d:\fchai\work\i-cube\i-cube-huawei\projects\nucleo-l496zg\applications\cloud\mqtt-ota\src\main.c ****   * This software component is licensed by ST under Ultimate Liberty license
  13:d:\fchai\work\i-cube\i-cube-huawei\projects\nucleo-l496zg\applications\cloud\mqtt-ota\src\main.c ****   * SLA0044, the "License"; You may not use this file except in compliance with
  14:d:\fchai\work\i-cube\i-cube-huawei\projects\nucleo-l496zg\applications\cloud\mqtt-ota\src\main.c ****   * the License. You may obtain a copy of the License at:
  15:d:\fchai\work\i-cube\i-cube-huawei\projects\nucleo-l496zg\applications\cloud\mqtt-ota\src\main.c ****   *                             www.st.com/SLA0044
  16:d:\fchai\work\i-cube\i-cube-huawei\projects\nucleo-l496zg\applications\cloud\mqtt-ota\src\main.c ****   *
  17:d:\fchai\work\i-cube\i-cube-huawei\projects\nucleo-l496zg\applications\cloud\mqtt-ota\src\main.c ****   ******************************************************************************
  18:d:\fchai\work\i-cube\i-cube-huawei\projects\nucleo-l496zg\applications\cloud\mqtt-ota\src\main.c ****   */
  19:d:\fchai\work\i-cube\i-cube-huawei\projects\nucleo-l496zg\applications\cloud\mqtt-ota\src\main.c **** /* USER CODE END Header */
  20:d:\fchai\work\i-cube\i-cube-huawei\projects\nucleo-l496zg\applications\cloud\mqtt-ota\src\main.c **** 
  21:d:\fchai\work\i-cube\i-cube-huawei\projects\nucleo-l496zg\applications\cloud\mqtt-ota\src\main.c **** /* Includes ------------------------------------------------------------------*/
  22:d:\fchai\work\i-cube\i-cube-huawei\projects\nucleo-l496zg\applications\cloud\mqtt-ota\src\main.c **** #include "main.h"
  23:d:\fchai\work\i-cube\i-cube-huawei\projects\nucleo-l496zg\applications\cloud\mqtt-ota\src\main.c **** 
  24:d:\fchai\work\i-cube\i-cube-huawei\projects\nucleo-l496zg\applications\cloud\mqtt-ota\src\main.c **** /* Private includes ----------------------------------------------------------*/
  25:d:\fchai\work\i-cube\i-cube-huawei\projects\nucleo-l496zg\applications\cloud\mqtt-ota\src\main.c **** /* USER CODE BEGIN Includes */
  26:d:\fchai\work\i-cube\i-cube-huawei\projects\nucleo-l496zg\applications\cloud\mqtt-ota\src\main.c **** 
  27:d:\fchai\work\i-cube\i-cube-huawei\projects\nucleo-l496zg\applications\cloud\mqtt-ota\src\main.c **** /* USER CODE END Includes */
  28:d:\fchai\work\i-cube\i-cube-huawei\projects\nucleo-l496zg\applications\cloud\mqtt-ota\src\main.c **** 
  29:d:\fchai\work\i-cube\i-cube-huawei\projects\nucleo-l496zg\applications\cloud\mqtt-ota\src\main.c **** /* Private typedef -----------------------------------------------------------*/
ARM GAS  T:\msys\tmp\cc2ULPC0.s 			page 2


  30:d:\fchai\work\i-cube\i-cube-huawei\projects\nucleo-l496zg\applications\cloud\mqtt-ota\src\main.c **** /* USER CODE BEGIN PTD */
  31:d:\fchai\work\i-cube\i-cube-huawei\projects\nucleo-l496zg\applications\cloud\mqtt-ota\src\main.c **** 
  32:d:\fchai\work\i-cube\i-cube-huawei\projects\nucleo-l496zg\applications\cloud\mqtt-ota\src\main.c **** /* USER CODE END PTD */
  33:d:\fchai\work\i-cube\i-cube-huawei\projects\nucleo-l496zg\applications\cloud\mqtt-ota\src\main.c **** 
  34:d:\fchai\work\i-cube\i-cube-huawei\projects\nucleo-l496zg\applications\cloud\mqtt-ota\src\main.c **** /* Private define ------------------------------------------------------------*/
  35:d:\fchai\work\i-cube\i-cube-huawei\projects\nucleo-l496zg\applications\cloud\mqtt-ota\src\main.c **** /* USER CODE BEGIN PD */
  36:d:\fchai\work\i-cube\i-cube-huawei\projects\nucleo-l496zg\applications\cloud\mqtt-ota\src\main.c **** /* USER CODE END PD */
  37:d:\fchai\work\i-cube\i-cube-huawei\projects\nucleo-l496zg\applications\cloud\mqtt-ota\src\main.c **** 
  38:d:\fchai\work\i-cube\i-cube-huawei\projects\nucleo-l496zg\applications\cloud\mqtt-ota\src\main.c **** /* Private macro -------------------------------------------------------------*/
  39:d:\fchai\work\i-cube\i-cube-huawei\projects\nucleo-l496zg\applications\cloud\mqtt-ota\src\main.c **** /* USER CODE BEGIN PM */
  40:d:\fchai\work\i-cube\i-cube-huawei\projects\nucleo-l496zg\applications\cloud\mqtt-ota\src\main.c **** 
  41:d:\fchai\work\i-cube\i-cube-huawei\projects\nucleo-l496zg\applications\cloud\mqtt-ota\src\main.c **** /* USER CODE END PM */
  42:d:\fchai\work\i-cube\i-cube-huawei\projects\nucleo-l496zg\applications\cloud\mqtt-ota\src\main.c **** 
  43:d:\fchai\work\i-cube\i-cube-huawei\projects\nucleo-l496zg\applications\cloud\mqtt-ota\src\main.c **** /* Private variables ---------------------------------------------------------*/
  44:d:\fchai\work\i-cube\i-cube-huawei\projects\nucleo-l496zg\applications\cloud\mqtt-ota\src\main.c **** UART_HandleTypeDef hlpuart1;
  45:d:\fchai\work\i-cube\i-cube-huawei\projects\nucleo-l496zg\applications\cloud\mqtt-ota\src\main.c **** UART_HandleTypeDef huart3;
  46:d:\fchai\work\i-cube\i-cube-huawei\projects\nucleo-l496zg\applications\cloud\mqtt-ota\src\main.c **** 
  47:d:\fchai\work\i-cube\i-cube-huawei\projects\nucleo-l496zg\applications\cloud\mqtt-ota\src\main.c **** /* USER CODE BEGIN PV */
  48:d:\fchai\work\i-cube\i-cube-huawei\projects\nucleo-l496zg\applications\cloud\mqtt-ota\src\main.c **** 
  49:d:\fchai\work\i-cube\i-cube-huawei\projects\nucleo-l496zg\applications\cloud\mqtt-ota\src\main.c **** /* USER CODE END PV */
  50:d:\fchai\work\i-cube\i-cube-huawei\projects\nucleo-l496zg\applications\cloud\mqtt-ota\src\main.c **** 
  51:d:\fchai\work\i-cube\i-cube-huawei\projects\nucleo-l496zg\applications\cloud\mqtt-ota\src\main.c **** /* Private function prototypes -----------------------------------------------*/
  52:d:\fchai\work\i-cube\i-cube-huawei\projects\nucleo-l496zg\applications\cloud\mqtt-ota\src\main.c **** void SystemClock_Config(void);
  53:d:\fchai\work\i-cube\i-cube-huawei\projects\nucleo-l496zg\applications\cloud\mqtt-ota\src\main.c **** static void MX_GPIO_Init(void);
  54:d:\fchai\work\i-cube\i-cube-huawei\projects\nucleo-l496zg\applications\cloud\mqtt-ota\src\main.c **** static void MX_LPUART1_UART_Init(void);
  55:d:\fchai\work\i-cube\i-cube-huawei\projects\nucleo-l496zg\applications\cloud\mqtt-ota\src\main.c **** static void MX_USART3_UART_Init(void);
  56:d:\fchai\work\i-cube\i-cube-huawei\projects\nucleo-l496zg\applications\cloud\mqtt-ota\src\main.c **** /* USER CODE BEGIN PFP */
  57:d:\fchai\work\i-cube\i-cube-huawei\projects\nucleo-l496zg\applications\cloud\mqtt-ota\src\main.c **** 
  58:d:\fchai\work\i-cube\i-cube-huawei\projects\nucleo-l496zg\applications\cloud\mqtt-ota\src\main.c **** /* USER CODE END PFP */
  59:d:\fchai\work\i-cube\i-cube-huawei\projects\nucleo-l496zg\applications\cloud\mqtt-ota\src\main.c **** 
  60:d:\fchai\work\i-cube\i-cube-huawei\projects\nucleo-l496zg\applications\cloud\mqtt-ota\src\main.c **** /* Private user code ---------------------------------------------------------*/
  61:d:\fchai\work\i-cube\i-cube-huawei\projects\nucleo-l496zg\applications\cloud\mqtt-ota\src\main.c **** /* USER CODE BEGIN 0 */
  62:d:\fchai\work\i-cube\i-cube-huawei\projects\nucleo-l496zg\applications\cloud\mqtt-ota\src\main.c **** 
  63:d:\fchai\work\i-cube\i-cube-huawei\projects\nucleo-l496zg\applications\cloud\mqtt-ota\src\main.c **** /* USER CODE END 0 */
  64:d:\fchai\work\i-cube\i-cube-huawei\projects\nucleo-l496zg\applications\cloud\mqtt-ota\src\main.c **** 
  65:d:\fchai\work\i-cube\i-cube-huawei\projects\nucleo-l496zg\applications\cloud\mqtt-ota\src\main.c **** /**
  66:d:\fchai\work\i-cube\i-cube-huawei\projects\nucleo-l496zg\applications\cloud\mqtt-ota\src\main.c ****   * @brief  The application entry point.
  67:d:\fchai\work\i-cube\i-cube-huawei\projects\nucleo-l496zg\applications\cloud\mqtt-ota\src\main.c ****   * @retval int
  68:d:\fchai\work\i-cube\i-cube-huawei\projects\nucleo-l496zg\applications\cloud\mqtt-ota\src\main.c ****   */
  69:d:\fchai\work\i-cube\i-cube-huawei\projects\nucleo-l496zg\applications\cloud\mqtt-ota\src\main.c **** 
  70:d:\fchai\work\i-cube\i-cube-huawei\projects\nucleo-l496zg\applications\cloud\mqtt-ota\src\main.c **** /**
  71:d:\fchai\work\i-cube\i-cube-huawei\projects\nucleo-l496zg\applications\cloud\mqtt-ota\src\main.c ****   * @brief System Clock Configuration
  72:d:\fchai\work\i-cube\i-cube-huawei\projects\nucleo-l496zg\applications\cloud\mqtt-ota\src\main.c ****   * @retval None
  73:d:\fchai\work\i-cube\i-cube-huawei\projects\nucleo-l496zg\applications\cloud\mqtt-ota\src\main.c ****   */
  74:d:\fchai\work\i-cube\i-cube-huawei\projects\nucleo-l496zg\applications\cloud\mqtt-ota\src\main.c **** void SystemClock_Config(void)
  75:d:\fchai\work\i-cube\i-cube-huawei\projects\nucleo-l496zg\applications\cloud\mqtt-ota\src\main.c **** {
  30              		.loc 1 75 1 view -0
  31              		.cfi_startproc
  32              		@ args = 0, pretend = 0, frame = 232
  33              		@ frame_needed = 0, uses_anonymous_args = 0
  76:d:\fchai\work\i-cube\i-cube-huawei\projects\nucleo-l496zg\applications\cloud\mqtt-ota\src\main.c ****   RCC_OscInitTypeDef RCC_OscInitStruct = {0};
  34              		.loc 1 76 3 view .LVU1
  75:d:\fchai\work\i-cube\i-cube-huawei\projects\nucleo-l496zg\applications\cloud\mqtt-ota\src\main.c ****   RCC_OscInitTypeDef RCC_OscInitStruct = {0};
  35              		.loc 1 75 1 is_stmt 0 view .LVU2
  36 0000 30B5     		push	{r4, r5, lr}
  37              	.LCFI0:
  38              		.cfi_def_cfa_offset 12
ARM GAS  T:\msys\tmp\cc2ULPC0.s 			page 3


  39              		.cfi_offset 4, -12
  40              		.cfi_offset 5, -8
  41              		.cfi_offset 14, -4
  42              		.loc 1 76 22 view .LVU3
  43 0002 0021     		movs	r1, #0
  75:d:\fchai\work\i-cube\i-cube-huawei\projects\nucleo-l496zg\applications\cloud\mqtt-ota\src\main.c ****   RCC_OscInitTypeDef RCC_OscInitStruct = {0};
  44              		.loc 1 75 1 view .LVU4
  45 0004 BBB0     		sub	sp, sp, #236
  46              	.LCFI1:
  47              		.cfi_def_cfa_offset 248
  77:d:\fchai\work\i-cube\i-cube-huawei\projects\nucleo-l496zg\applications\cloud\mqtt-ota\src\main.c ****   RCC_ClkInitTypeDef RCC_ClkInitStruct = {0};
  48              		.loc 1 77 22 view .LVU5
  49 0006 0C46     		mov	r4, r1
  76:d:\fchai\work\i-cube\i-cube-huawei\projects\nucleo-l496zg\applications\cloud\mqtt-ota\src\main.c ****   RCC_OscInitTypeDef RCC_OscInitStruct = {0};
  50              		.loc 1 76 22 view .LVU6
  51 0008 2422     		movs	r2, #36
  52 000a 07A8     		add	r0, sp, #28
  53 000c FFF7FEFF 		bl	memset
  54              	.LVL0:
  55              		.loc 1 77 3 is_stmt 1 view .LVU7
  78:d:\fchai\work\i-cube\i-cube-huawei\projects\nucleo-l496zg\applications\cloud\mqtt-ota\src\main.c ****   RCC_PeriphCLKInitTypeDef PeriphClkInit = {0};
  56              		.loc 1 78 28 is_stmt 0 view .LVU8
  57 0010 2146     		mov	r1, r4
  58 0012 17A8     		add	r0, sp, #92
  59 0014 8C22     		movs	r2, #140
  77:d:\fchai\work\i-cube\i-cube-huawei\projects\nucleo-l496zg\applications\cloud\mqtt-ota\src\main.c ****   RCC_ClkInitTypeDef RCC_ClkInitStruct = {0};
  60              		.loc 1 77 22 view .LVU9
  61 0016 CDE90144 		strd	r4, r4, [sp, #4]
  62 001a CDE90344 		strd	r4, r4, [sp, #12]
  63 001e 0594     		str	r4, [sp, #20]
  64              		.loc 1 78 3 is_stmt 1 view .LVU10
  65              		.loc 1 78 28 is_stmt 0 view .LVU11
  66 0020 FFF7FEFF 		bl	memset
  67              	.LVL1:
  79:d:\fchai\work\i-cube\i-cube-huawei\projects\nucleo-l496zg\applications\cloud\mqtt-ota\src\main.c **** 
  80:d:\fchai\work\i-cube\i-cube-huawei\projects\nucleo-l496zg\applications\cloud\mqtt-ota\src\main.c ****   /** Initializes the CPU, AHB and APB busses clocks 
  81:d:\fchai\work\i-cube\i-cube-huawei\projects\nucleo-l496zg\applications\cloud\mqtt-ota\src\main.c ****   */
  82:d:\fchai\work\i-cube\i-cube-huawei\projects\nucleo-l496zg\applications\cloud\mqtt-ota\src\main.c ****   RCC_OscInitStruct.OscillatorType = RCC_OSCILLATORTYPE_MSI;
  68              		.loc 1 82 3 is_stmt 1 view .LVU12
  83:d:\fchai\work\i-cube\i-cube-huawei\projects\nucleo-l496zg\applications\cloud\mqtt-ota\src\main.c ****   RCC_OscInitStruct.MSIState = RCC_MSI_ON;
  69              		.loc 1 83 30 is_stmt 0 view .LVU13
  70 0024 0123     		movs	r3, #1
  82:d:\fchai\work\i-cube\i-cube-huawei\projects\nucleo-l496zg\applications\cloud\mqtt-ota\src\main.c ****   RCC_OscInitStruct.MSIState = RCC_MSI_ON;
  71              		.loc 1 82 36 view .LVU14
  72 0026 1022     		movs	r2, #16
  84:d:\fchai\work\i-cube\i-cube-huawei\projects\nucleo-l496zg\applications\cloud\mqtt-ota\src\main.c ****   RCC_OscInitStruct.MSICalibrationValue = 0;
  85:d:\fchai\work\i-cube\i-cube-huawei\projects\nucleo-l496zg\applications\cloud\mqtt-ota\src\main.c ****   RCC_OscInitStruct.MSIClockRange = RCC_MSIRANGE_6;
  86:d:\fchai\work\i-cube\i-cube-huawei\projects\nucleo-l496zg\applications\cloud\mqtt-ota\src\main.c ****   RCC_OscInitStruct.PLL.PLLState = RCC_PLL_ON;
  73              		.loc 1 86 34 view .LVU15
  74 0028 0225     		movs	r5, #2
  87:d:\fchai\work\i-cube\i-cube-huawei\projects\nucleo-l496zg\applications\cloud\mqtt-ota\src\main.c ****   RCC_OscInitStruct.PLL.PLLSource = RCC_PLLSOURCE_MSI;
  88:d:\fchai\work\i-cube\i-cube-huawei\projects\nucleo-l496zg\applications\cloud\mqtt-ota\src\main.c ****   RCC_OscInitStruct.PLL.PLLM = 1;
  75              		.loc 1 88 30 view .LVU16
  76 002a CDE91133 		strd	r3, r3, [sp, #68]
  85:d:\fchai\work\i-cube\i-cube-huawei\projects\nucleo-l496zg\applications\cloud\mqtt-ota\src\main.c ****   RCC_OscInitStruct.PLL.PLLState = RCC_PLL_ON;
  77              		.loc 1 85 35 view .LVU17
  78 002e 6021     		movs	r1, #96
ARM GAS  T:\msys\tmp\cc2ULPC0.s 			page 4


  82:d:\fchai\work\i-cube\i-cube-huawei\projects\nucleo-l496zg\applications\cloud\mqtt-ota\src\main.c ****   RCC_OscInitStruct.MSIState = RCC_MSI_ON;
  79              		.loc 1 82 36 view .LVU18
  80 0030 0692     		str	r2, [sp, #24]
  83:d:\fchai\work\i-cube\i-cube-huawei\projects\nucleo-l496zg\applications\cloud\mqtt-ota\src\main.c ****   RCC_OscInitStruct.MSICalibrationValue = 0;
  81              		.loc 1 83 3 is_stmt 1 view .LVU19
  83:d:\fchai\work\i-cube\i-cube-huawei\projects\nucleo-l496zg\applications\cloud\mqtt-ota\src\main.c ****   RCC_OscInitStruct.MSICalibrationValue = 0;
  82              		.loc 1 83 30 is_stmt 0 view .LVU20
  83 0032 0C93     		str	r3, [sp, #48]
  84:d:\fchai\work\i-cube\i-cube-huawei\projects\nucleo-l496zg\applications\cloud\mqtt-ota\src\main.c ****   RCC_OscInitStruct.MSIClockRange = RCC_MSIRANGE_6;
  84              		.loc 1 84 3 is_stmt 1 view .LVU21
  85:d:\fchai\work\i-cube\i-cube-huawei\projects\nucleo-l496zg\applications\cloud\mqtt-ota\src\main.c ****   RCC_OscInitStruct.PLL.PLLState = RCC_PLL_ON;
  85              		.loc 1 85 3 view .LVU22
  89:d:\fchai\work\i-cube\i-cube-huawei\projects\nucleo-l496zg\applications\cloud\mqtt-ota\src\main.c ****   RCC_OscInitStruct.PLL.PLLN = 71;
  86              		.loc 1 89 30 is_stmt 0 view .LVU23
  87 0034 4722     		movs	r2, #71
  90:d:\fchai\work\i-cube\i-cube-huawei\projects\nucleo-l496zg\applications\cloud\mqtt-ota\src\main.c ****   RCC_OscInitStruct.PLL.PLLP = RCC_PLLP_DIV2;
  91:d:\fchai\work\i-cube\i-cube-huawei\projects\nucleo-l496zg\applications\cloud\mqtt-ota\src\main.c ****   RCC_OscInitStruct.PLL.PLLQ = RCC_PLLQ_DIV2;
  92:d:\fchai\work\i-cube\i-cube-huawei\projects\nucleo-l496zg\applications\cloud\mqtt-ota\src\main.c ****   RCC_OscInitStruct.PLL.PLLR = RCC_PLLR_DIV6;
  88              		.loc 1 92 30 view .LVU24
  89 0036 0623     		movs	r3, #6
  93:d:\fchai\work\i-cube\i-cube-huawei\projects\nucleo-l496zg\applications\cloud\mqtt-ota\src\main.c ****   if (HAL_RCC_OscConfig(&RCC_OscInitStruct) != HAL_OK)
  90              		.loc 1 93 7 view .LVU25
  91 0038 06A8     		add	r0, sp, #24
  91:d:\fchai\work\i-cube\i-cube-huawei\projects\nucleo-l496zg\applications\cloud\mqtt-ota\src\main.c ****   RCC_OscInitStruct.PLL.PLLR = RCC_PLLR_DIV6;
  92              		.loc 1 91 30 view .LVU26
  93 003a CDE91455 		strd	r5, r5, [sp, #80]
  85:d:\fchai\work\i-cube\i-cube-huawei\projects\nucleo-l496zg\applications\cloud\mqtt-ota\src\main.c ****   RCC_OscInitStruct.PLL.PLLState = RCC_PLL_ON;
  94              		.loc 1 85 35 view .LVU27
  95 003e 0E91     		str	r1, [sp, #56]
  86:d:\fchai\work\i-cube\i-cube-huawei\projects\nucleo-l496zg\applications\cloud\mqtt-ota\src\main.c ****   RCC_OscInitStruct.PLL.PLLSource = RCC_PLLSOURCE_MSI;
  96              		.loc 1 86 3 is_stmt 1 view .LVU28
  86:d:\fchai\work\i-cube\i-cube-huawei\projects\nucleo-l496zg\applications\cloud\mqtt-ota\src\main.c ****   RCC_OscInitStruct.PLL.PLLSource = RCC_PLLSOURCE_MSI;
  97              		.loc 1 86 34 is_stmt 0 view .LVU29
  98 0040 1095     		str	r5, [sp, #64]
  87:d:\fchai\work\i-cube\i-cube-huawei\projects\nucleo-l496zg\applications\cloud\mqtt-ota\src\main.c ****   RCC_OscInitStruct.PLL.PLLM = 1;
  99              		.loc 1 87 3 is_stmt 1 view .LVU30
  88:d:\fchai\work\i-cube\i-cube-huawei\projects\nucleo-l496zg\applications\cloud\mqtt-ota\src\main.c ****   RCC_OscInitStruct.PLL.PLLN = 71;
 100              		.loc 1 88 3 view .LVU31
  89:d:\fchai\work\i-cube\i-cube-huawei\projects\nucleo-l496zg\applications\cloud\mqtt-ota\src\main.c ****   RCC_OscInitStruct.PLL.PLLP = RCC_PLLP_DIV2;
 101              		.loc 1 89 3 view .LVU32
  89:d:\fchai\work\i-cube\i-cube-huawei\projects\nucleo-l496zg\applications\cloud\mqtt-ota\src\main.c ****   RCC_OscInitStruct.PLL.PLLP = RCC_PLLP_DIV2;
 102              		.loc 1 89 30 is_stmt 0 view .LVU33
 103 0042 1392     		str	r2, [sp, #76]
  90:d:\fchai\work\i-cube\i-cube-huawei\projects\nucleo-l496zg\applications\cloud\mqtt-ota\src\main.c ****   RCC_OscInitStruct.PLL.PLLQ = RCC_PLLQ_DIV2;
 104              		.loc 1 90 3 is_stmt 1 view .LVU34
  91:d:\fchai\work\i-cube\i-cube-huawei\projects\nucleo-l496zg\applications\cloud\mqtt-ota\src\main.c ****   RCC_OscInitStruct.PLL.PLLR = RCC_PLLR_DIV6;
 105              		.loc 1 91 3 view .LVU35
  92:d:\fchai\work\i-cube\i-cube-huawei\projects\nucleo-l496zg\applications\cloud\mqtt-ota\src\main.c ****   if (HAL_RCC_OscConfig(&RCC_OscInitStruct) != HAL_OK)
 106              		.loc 1 92 3 view .LVU36
  92:d:\fchai\work\i-cube\i-cube-huawei\projects\nucleo-l496zg\applications\cloud\mqtt-ota\src\main.c ****   if (HAL_RCC_OscConfig(&RCC_OscInitStruct) != HAL_OK)
 107              		.loc 1 92 30 is_stmt 0 view .LVU37
 108 0044 1693     		str	r3, [sp, #88]
 109              		.loc 1 93 3 is_stmt 1 view .LVU38
 110              		.loc 1 93 7 is_stmt 0 view .LVU39
 111 0046 FFF7FEFF 		bl	HAL_RCC_OscConfig
 112              	.LVL2:
  94:d:\fchai\work\i-cube\i-cube-huawei\projects\nucleo-l496zg\applications\cloud\mqtt-ota\src\main.c ****   {
ARM GAS  T:\msys\tmp\cc2ULPC0.s 			page 5


  95:d:\fchai\work\i-cube\i-cube-huawei\projects\nucleo-l496zg\applications\cloud\mqtt-ota\src\main.c ****     Error_Handler();
  96:d:\fchai\work\i-cube\i-cube-huawei\projects\nucleo-l496zg\applications\cloud\mqtt-ota\src\main.c ****   }
  97:d:\fchai\work\i-cube\i-cube-huawei\projects\nucleo-l496zg\applications\cloud\mqtt-ota\src\main.c ****   /** Initializes the CPU, AHB and APB busses clocks 
  98:d:\fchai\work\i-cube\i-cube-huawei\projects\nucleo-l496zg\applications\cloud\mqtt-ota\src\main.c ****   */
  99:d:\fchai\work\i-cube\i-cube-huawei\projects\nucleo-l496zg\applications\cloud\mqtt-ota\src\main.c ****   RCC_ClkInitStruct.ClockType = RCC_CLOCKTYPE_HCLK|RCC_CLOCKTYPE_SYSCLK
 113              		.loc 1 99 3 is_stmt 1 view .LVU40
 100:d:\fchai\work\i-cube\i-cube-huawei\projects\nucleo-l496zg\applications\cloud\mqtt-ota\src\main.c ****                               |RCC_CLOCKTYPE_PCLK1|RCC_CLOCKTYPE_PCLK2;
 101:d:\fchai\work\i-cube\i-cube-huawei\projects\nucleo-l496zg\applications\cloud\mqtt-ota\src\main.c ****   RCC_ClkInitStruct.SYSCLKSource = RCC_SYSCLKSOURCE_PLLCLK;
 102:d:\fchai\work\i-cube\i-cube-huawei\projects\nucleo-l496zg\applications\cloud\mqtt-ota\src\main.c ****   RCC_ClkInitStruct.AHBCLKDivider = RCC_SYSCLK_DIV1;
 103:d:\fchai\work\i-cube\i-cube-huawei\projects\nucleo-l496zg\applications\cloud\mqtt-ota\src\main.c ****   RCC_ClkInitStruct.APB1CLKDivider = RCC_HCLK_DIV2;
 104:d:\fchai\work\i-cube\i-cube-huawei\projects\nucleo-l496zg\applications\cloud\mqtt-ota\src\main.c ****   RCC_ClkInitStruct.APB2CLKDivider = RCC_HCLK_DIV1;
 105:d:\fchai\work\i-cube\i-cube-huawei\projects\nucleo-l496zg\applications\cloud\mqtt-ota\src\main.c **** 
 106:d:\fchai\work\i-cube\i-cube-huawei\projects\nucleo-l496zg\applications\cloud\mqtt-ota\src\main.c ****   if (HAL_RCC_ClockConfig(&RCC_ClkInitStruct, FLASH_LATENCY_2) != HAL_OK)
 114              		.loc 1 106 7 is_stmt 0 view .LVU41
 115 004a 2946     		mov	r1, r5
 101:d:\fchai\work\i-cube\i-cube-huawei\projects\nucleo-l496zg\applications\cloud\mqtt-ota\src\main.c ****   RCC_ClkInitStruct.AHBCLKDivider = RCC_SYSCLK_DIV1;
 116              		.loc 1 101 34 view .LVU42
 117 004c 0322     		movs	r2, #3
 103:d:\fchai\work\i-cube\i-cube-huawei\projects\nucleo-l496zg\applications\cloud\mqtt-ota\src\main.c ****   RCC_ClkInitStruct.APB2CLKDivider = RCC_HCLK_DIV1;
 118              		.loc 1 103 36 view .LVU43
 119 004e 4FF48063 		mov	r3, #1024
 120              		.loc 1 106 7 view .LVU44
 121 0052 01A8     		add	r0, sp, #4
  99:d:\fchai\work\i-cube\i-cube-huawei\projects\nucleo-l496zg\applications\cloud\mqtt-ota\src\main.c ****                               |RCC_CLOCKTYPE_PCLK1|RCC_CLOCKTYPE_PCLK2;
 122              		.loc 1 99 31 view .LVU45
 123 0054 0F25     		movs	r5, #15
 101:d:\fchai\work\i-cube\i-cube-huawei\projects\nucleo-l496zg\applications\cloud\mqtt-ota\src\main.c ****   RCC_ClkInitStruct.AHBCLKDivider = RCC_SYSCLK_DIV1;
 124              		.loc 1 101 34 view .LVU46
 125 0056 CDE90152 		strd	r5, r2, [sp, #4]
 102:d:\fchai\work\i-cube\i-cube-huawei\projects\nucleo-l496zg\applications\cloud\mqtt-ota\src\main.c ****   RCC_ClkInitStruct.APB1CLKDivider = RCC_HCLK_DIV2;
 126              		.loc 1 102 3 is_stmt 1 view .LVU47
 103:d:\fchai\work\i-cube\i-cube-huawei\projects\nucleo-l496zg\applications\cloud\mqtt-ota\src\main.c ****   RCC_ClkInitStruct.APB2CLKDivider = RCC_HCLK_DIV1;
 127              		.loc 1 103 3 view .LVU48
 103:d:\fchai\work\i-cube\i-cube-huawei\projects\nucleo-l496zg\applications\cloud\mqtt-ota\src\main.c ****   RCC_ClkInitStruct.APB2CLKDivider = RCC_HCLK_DIV1;
 128              		.loc 1 103 36 is_stmt 0 view .LVU49
 129 005a 0493     		str	r3, [sp, #16]
 104:d:\fchai\work\i-cube\i-cube-huawei\projects\nucleo-l496zg\applications\cloud\mqtt-ota\src\main.c **** 
 130              		.loc 1 104 3 is_stmt 1 view .LVU50
 131              		.loc 1 106 3 view .LVU51
 102:d:\fchai\work\i-cube\i-cube-huawei\projects\nucleo-l496zg\applications\cloud\mqtt-ota\src\main.c ****   RCC_ClkInitStruct.APB1CLKDivider = RCC_HCLK_DIV2;
 132              		.loc 1 102 35 is_stmt 0 view .LVU52
 133 005c 0394     		str	r4, [sp, #12]
 104:d:\fchai\work\i-cube\i-cube-huawei\projects\nucleo-l496zg\applications\cloud\mqtt-ota\src\main.c **** 
 134              		.loc 1 104 36 view .LVU53
 135 005e 0594     		str	r4, [sp, #20]
 136              		.loc 1 106 7 view .LVU54
 137 0060 FFF7FEFF 		bl	HAL_RCC_ClockConfig
 138              	.LVL3:
 107:d:\fchai\work\i-cube\i-cube-huawei\projects\nucleo-l496zg\applications\cloud\mqtt-ota\src\main.c ****   {
 108:d:\fchai\work\i-cube\i-cube-huawei\projects\nucleo-l496zg\applications\cloud\mqtt-ota\src\main.c ****     Error_Handler();
 109:d:\fchai\work\i-cube\i-cube-huawei\projects\nucleo-l496zg\applications\cloud\mqtt-ota\src\main.c ****   }
 110:d:\fchai\work\i-cube\i-cube-huawei\projects\nucleo-l496zg\applications\cloud\mqtt-ota\src\main.c ****   PeriphClkInit.PeriphClockSelection = RCC_PERIPHCLK_USART3|RCC_PERIPHCLK_LPUART1
 139              		.loc 1 110 3 is_stmt 1 view .LVU55
 140              		.loc 1 110 38 is_stmt 0 view .LVU56
 141 0064 6423     		movs	r3, #100
 111:d:\fchai\work\i-cube\i-cube-huawei\projects\nucleo-l496zg\applications\cloud\mqtt-ota\src\main.c ****                               |RCC_PERIPHCLK_I2C1;
 112:d:\fchai\work\i-cube\i-cube-huawei\projects\nucleo-l496zg\applications\cloud\mqtt-ota\src\main.c ****   PeriphClkInit.Usart3ClockSelection = RCC_USART3CLKSOURCE_PCLK1;
ARM GAS  T:\msys\tmp\cc2ULPC0.s 			page 6


 113:d:\fchai\work\i-cube\i-cube-huawei\projects\nucleo-l496zg\applications\cloud\mqtt-ota\src\main.c ****   PeriphClkInit.Lpuart1ClockSelection = RCC_LPUART1CLKSOURCE_PCLK1;
 114:d:\fchai\work\i-cube\i-cube-huawei\projects\nucleo-l496zg\applications\cloud\mqtt-ota\src\main.c ****   PeriphClkInit.I2c1ClockSelection = RCC_I2C1CLKSOURCE_PCLK1;
 115:d:\fchai\work\i-cube\i-cube-huawei\projects\nucleo-l496zg\applications\cloud\mqtt-ota\src\main.c ****   if (HAL_RCCEx_PeriphCLKConfig(&PeriphClkInit) != HAL_OK)
 142              		.loc 1 115 7 view .LVU57
 143 0066 17A8     		add	r0, sp, #92
 110:d:\fchai\work\i-cube\i-cube-huawei\projects\nucleo-l496zg\applications\cloud\mqtt-ota\src\main.c ****                               |RCC_PERIPHCLK_I2C1;
 144              		.loc 1 110 38 view .LVU58
 145 0068 1793     		str	r3, [sp, #92]
 112:d:\fchai\work\i-cube\i-cube-huawei\projects\nucleo-l496zg\applications\cloud\mqtt-ota\src\main.c ****   PeriphClkInit.Lpuart1ClockSelection = RCC_LPUART1CLKSOURCE_PCLK1;
 146              		.loc 1 112 3 is_stmt 1 view .LVU59
 113:d:\fchai\work\i-cube\i-cube-huawei\projects\nucleo-l496zg\applications\cloud\mqtt-ota\src\main.c ****   PeriphClkInit.I2c1ClockSelection = RCC_I2C1CLKSOURCE_PCLK1;
 147              		.loc 1 113 3 view .LVU60
 114:d:\fchai\work\i-cube\i-cube-huawei\projects\nucleo-l496zg\applications\cloud\mqtt-ota\src\main.c ****   if (HAL_RCCEx_PeriphCLKConfig(&PeriphClkInit) != HAL_OK)
 148              		.loc 1 114 3 view .LVU61
 149              		.loc 1 115 3 view .LVU62
 114:d:\fchai\work\i-cube\i-cube-huawei\projects\nucleo-l496zg\applications\cloud\mqtt-ota\src\main.c ****   if (HAL_RCCEx_PeriphCLKConfig(&PeriphClkInit) != HAL_OK)
 150              		.loc 1 114 36 is_stmt 0 view .LVU63
 151 006a CDE92A44 		strd	r4, r4, [sp, #168]
 112:d:\fchai\work\i-cube\i-cube-huawei\projects\nucleo-l496zg\applications\cloud\mqtt-ota\src\main.c ****   PeriphClkInit.Lpuart1ClockSelection = RCC_LPUART1CLKSOURCE_PCLK1;
 152              		.loc 1 112 38 view .LVU64
 153 006e 2794     		str	r4, [sp, #156]
 154              		.loc 1 115 7 view .LVU65
 155 0070 FFF7FEFF 		bl	HAL_RCCEx_PeriphCLKConfig
 156              	.LVL4:
 116:d:\fchai\work\i-cube\i-cube-huawei\projects\nucleo-l496zg\applications\cloud\mqtt-ota\src\main.c ****   {
 117:d:\fchai\work\i-cube\i-cube-huawei\projects\nucleo-l496zg\applications\cloud\mqtt-ota\src\main.c ****     Error_Handler();
 118:d:\fchai\work\i-cube\i-cube-huawei\projects\nucleo-l496zg\applications\cloud\mqtt-ota\src\main.c ****   }
 119:d:\fchai\work\i-cube\i-cube-huawei\projects\nucleo-l496zg\applications\cloud\mqtt-ota\src\main.c ****   /** Configure the main internal regulator output voltage 
 120:d:\fchai\work\i-cube\i-cube-huawei\projects\nucleo-l496zg\applications\cloud\mqtt-ota\src\main.c ****   */
 121:d:\fchai\work\i-cube\i-cube-huawei\projects\nucleo-l496zg\applications\cloud\mqtt-ota\src\main.c ****   if (HAL_PWREx_ControlVoltageScaling(PWR_REGULATOR_VOLTAGE_SCALE1) != HAL_OK)
 157              		.loc 1 121 3 is_stmt 1 view .LVU66
 158              		.loc 1 121 7 is_stmt 0 view .LVU67
 159 0074 4FF40070 		mov	r0, #512
 160 0078 FFF7FEFF 		bl	HAL_PWREx_ControlVoltageScaling
 161              	.LVL5:
 122:d:\fchai\work\i-cube\i-cube-huawei\projects\nucleo-l496zg\applications\cloud\mqtt-ota\src\main.c ****   {
 123:d:\fchai\work\i-cube\i-cube-huawei\projects\nucleo-l496zg\applications\cloud\mqtt-ota\src\main.c ****     Error_Handler();
 124:d:\fchai\work\i-cube\i-cube-huawei\projects\nucleo-l496zg\applications\cloud\mqtt-ota\src\main.c ****   }
 125:d:\fchai\work\i-cube\i-cube-huawei\projects\nucleo-l496zg\applications\cloud\mqtt-ota\src\main.c **** }
 162              		.loc 1 125 1 view .LVU68
 163 007c 3BB0     		add	sp, sp, #236
 164              	.LCFI2:
 165              		.cfi_def_cfa_offset 12
 166              		@ sp needed
 167 007e 30BD     		pop	{r4, r5, pc}
 168              		.cfi_endproc
 169              	.LFE123:
 171              		.section	.text.Error_Handler,"ax",%progbits
 172              		.align	1
 173              		.p2align 2,,3
 174              		.global	Error_Handler
 175              		.syntax unified
 176              		.thumb
 177              		.thumb_func
 178              		.fpu fpv4-sp-d16
 180              	Error_Handler:
 181              	.LFB127:
ARM GAS  T:\msys\tmp\cc2ULPC0.s 			page 7


 126:d:\fchai\work\i-cube\i-cube-huawei\projects\nucleo-l496zg\applications\cloud\mqtt-ota\src\main.c **** 
 127:d:\fchai\work\i-cube\i-cube-huawei\projects\nucleo-l496zg\applications\cloud\mqtt-ota\src\main.c **** /**
 128:d:\fchai\work\i-cube\i-cube-huawei\projects\nucleo-l496zg\applications\cloud\mqtt-ota\src\main.c ****   * @brief LPUART1 Initialization Function
 129:d:\fchai\work\i-cube\i-cube-huawei\projects\nucleo-l496zg\applications\cloud\mqtt-ota\src\main.c ****   * @param None
 130:d:\fchai\work\i-cube\i-cube-huawei\projects\nucleo-l496zg\applications\cloud\mqtt-ota\src\main.c ****   * @retval None
 131:d:\fchai\work\i-cube\i-cube-huawei\projects\nucleo-l496zg\applications\cloud\mqtt-ota\src\main.c ****   */
 132:d:\fchai\work\i-cube\i-cube-huawei\projects\nucleo-l496zg\applications\cloud\mqtt-ota\src\main.c **** static void MX_LPUART1_UART_Init(void)
 133:d:\fchai\work\i-cube\i-cube-huawei\projects\nucleo-l496zg\applications\cloud\mqtt-ota\src\main.c **** {
 134:d:\fchai\work\i-cube\i-cube-huawei\projects\nucleo-l496zg\applications\cloud\mqtt-ota\src\main.c **** 
 135:d:\fchai\work\i-cube\i-cube-huawei\projects\nucleo-l496zg\applications\cloud\mqtt-ota\src\main.c ****   /* USER CODE BEGIN LPUART1_Init 0 */
 136:d:\fchai\work\i-cube\i-cube-huawei\projects\nucleo-l496zg\applications\cloud\mqtt-ota\src\main.c **** 
 137:d:\fchai\work\i-cube\i-cube-huawei\projects\nucleo-l496zg\applications\cloud\mqtt-ota\src\main.c ****   /* USER CODE END LPUART1_Init 0 */
 138:d:\fchai\work\i-cube\i-cube-huawei\projects\nucleo-l496zg\applications\cloud\mqtt-ota\src\main.c **** 
 139:d:\fchai\work\i-cube\i-cube-huawei\projects\nucleo-l496zg\applications\cloud\mqtt-ota\src\main.c ****   /* USER CODE BEGIN LPUART1_Init 1 */
 140:d:\fchai\work\i-cube\i-cube-huawei\projects\nucleo-l496zg\applications\cloud\mqtt-ota\src\main.c **** 
 141:d:\fchai\work\i-cube\i-cube-huawei\projects\nucleo-l496zg\applications\cloud\mqtt-ota\src\main.c ****   /* USER CODE END LPUART1_Init 1 */
 142:d:\fchai\work\i-cube\i-cube-huawei\projects\nucleo-l496zg\applications\cloud\mqtt-ota\src\main.c ****   hlpuart1.Instance = LPUART1;
 143:d:\fchai\work\i-cube\i-cube-huawei\projects\nucleo-l496zg\applications\cloud\mqtt-ota\src\main.c ****   hlpuart1.Init.BaudRate = 115200;
 144:d:\fchai\work\i-cube\i-cube-huawei\projects\nucleo-l496zg\applications\cloud\mqtt-ota\src\main.c ****   hlpuart1.Init.WordLength = UART_WORDLENGTH_8B;
 145:d:\fchai\work\i-cube\i-cube-huawei\projects\nucleo-l496zg\applications\cloud\mqtt-ota\src\main.c ****   hlpuart1.Init.StopBits = UART_STOPBITS_1;
 146:d:\fchai\work\i-cube\i-cube-huawei\projects\nucleo-l496zg\applications\cloud\mqtt-ota\src\main.c ****   hlpuart1.Init.Parity = UART_PARITY_NONE;
 147:d:\fchai\work\i-cube\i-cube-huawei\projects\nucleo-l496zg\applications\cloud\mqtt-ota\src\main.c ****   hlpuart1.Init.Mode = UART_MODE_TX_RX;
 148:d:\fchai\work\i-cube\i-cube-huawei\projects\nucleo-l496zg\applications\cloud\mqtt-ota\src\main.c ****   hlpuart1.Init.HwFlowCtl = UART_HWCONTROL_NONE;
 149:d:\fchai\work\i-cube\i-cube-huawei\projects\nucleo-l496zg\applications\cloud\mqtt-ota\src\main.c ****   hlpuart1.Init.OneBitSampling = UART_ONE_BIT_SAMPLE_DISABLE;
 150:d:\fchai\work\i-cube\i-cube-huawei\projects\nucleo-l496zg\applications\cloud\mqtt-ota\src\main.c ****   hlpuart1.AdvancedInit.AdvFeatureInit = UART_ADVFEATURE_NO_INIT;
 151:d:\fchai\work\i-cube\i-cube-huawei\projects\nucleo-l496zg\applications\cloud\mqtt-ota\src\main.c ****   if (HAL_UART_Init(&hlpuart1) != HAL_OK)
 152:d:\fchai\work\i-cube\i-cube-huawei\projects\nucleo-l496zg\applications\cloud\mqtt-ota\src\main.c ****   {
 153:d:\fchai\work\i-cube\i-cube-huawei\projects\nucleo-l496zg\applications\cloud\mqtt-ota\src\main.c ****     Error_Handler();
 154:d:\fchai\work\i-cube\i-cube-huawei\projects\nucleo-l496zg\applications\cloud\mqtt-ota\src\main.c ****   }
 155:d:\fchai\work\i-cube\i-cube-huawei\projects\nucleo-l496zg\applications\cloud\mqtt-ota\src\main.c ****   /* USER CODE BEGIN LPUART1_Init 2 */
 156:d:\fchai\work\i-cube\i-cube-huawei\projects\nucleo-l496zg\applications\cloud\mqtt-ota\src\main.c **** 
 157:d:\fchai\work\i-cube\i-cube-huawei\projects\nucleo-l496zg\applications\cloud\mqtt-ota\src\main.c ****   /* USER CODE END LPUART1_Init 2 */
 158:d:\fchai\work\i-cube\i-cube-huawei\projects\nucleo-l496zg\applications\cloud\mqtt-ota\src\main.c **** 
 159:d:\fchai\work\i-cube\i-cube-huawei\projects\nucleo-l496zg\applications\cloud\mqtt-ota\src\main.c **** }
 160:d:\fchai\work\i-cube\i-cube-huawei\projects\nucleo-l496zg\applications\cloud\mqtt-ota\src\main.c **** 
 161:d:\fchai\work\i-cube\i-cube-huawei\projects\nucleo-l496zg\applications\cloud\mqtt-ota\src\main.c **** /**
 162:d:\fchai\work\i-cube\i-cube-huawei\projects\nucleo-l496zg\applications\cloud\mqtt-ota\src\main.c ****   * @brief USART3 Initialization Function
 163:d:\fchai\work\i-cube\i-cube-huawei\projects\nucleo-l496zg\applications\cloud\mqtt-ota\src\main.c ****   * @param None
 164:d:\fchai\work\i-cube\i-cube-huawei\projects\nucleo-l496zg\applications\cloud\mqtt-ota\src\main.c ****   * @retval None
 165:d:\fchai\work\i-cube\i-cube-huawei\projects\nucleo-l496zg\applications\cloud\mqtt-ota\src\main.c ****   */
 166:d:\fchai\work\i-cube\i-cube-huawei\projects\nucleo-l496zg\applications\cloud\mqtt-ota\src\main.c **** static void MX_USART3_UART_Init(void)
 167:d:\fchai\work\i-cube\i-cube-huawei\projects\nucleo-l496zg\applications\cloud\mqtt-ota\src\main.c **** {
 168:d:\fchai\work\i-cube\i-cube-huawei\projects\nucleo-l496zg\applications\cloud\mqtt-ota\src\main.c **** 
 169:d:\fchai\work\i-cube\i-cube-huawei\projects\nucleo-l496zg\applications\cloud\mqtt-ota\src\main.c ****   /* USER CODE BEGIN USART3_Init 0 */
 170:d:\fchai\work\i-cube\i-cube-huawei\projects\nucleo-l496zg\applications\cloud\mqtt-ota\src\main.c **** 
 171:d:\fchai\work\i-cube\i-cube-huawei\projects\nucleo-l496zg\applications\cloud\mqtt-ota\src\main.c ****   /* USER CODE END USART3_Init 0 */
 172:d:\fchai\work\i-cube\i-cube-huawei\projects\nucleo-l496zg\applications\cloud\mqtt-ota\src\main.c **** 
 173:d:\fchai\work\i-cube\i-cube-huawei\projects\nucleo-l496zg\applications\cloud\mqtt-ota\src\main.c ****   /* USER CODE BEGIN USART3_Init 1 */
 174:d:\fchai\work\i-cube\i-cube-huawei\projects\nucleo-l496zg\applications\cloud\mqtt-ota\src\main.c **** 
 175:d:\fchai\work\i-cube\i-cube-huawei\projects\nucleo-l496zg\applications\cloud\mqtt-ota\src\main.c ****   /* USER CODE END USART3_Init 1 */
 176:d:\fchai\work\i-cube\i-cube-huawei\projects\nucleo-l496zg\applications\cloud\mqtt-ota\src\main.c ****   huart3.Instance = USART3;
 177:d:\fchai\work\i-cube\i-cube-huawei\projects\nucleo-l496zg\applications\cloud\mqtt-ota\src\main.c ****   huart3.Init.BaudRate = 115200;
 178:d:\fchai\work\i-cube\i-cube-huawei\projects\nucleo-l496zg\applications\cloud\mqtt-ota\src\main.c ****   huart3.Init.WordLength = UART_WORDLENGTH_8B;
 179:d:\fchai\work\i-cube\i-cube-huawei\projects\nucleo-l496zg\applications\cloud\mqtt-ota\src\main.c ****   huart3.Init.StopBits = UART_STOPBITS_1;
 180:d:\fchai\work\i-cube\i-cube-huawei\projects\nucleo-l496zg\applications\cloud\mqtt-ota\src\main.c ****   huart3.Init.Parity = UART_PARITY_NONE;
 181:d:\fchai\work\i-cube\i-cube-huawei\projects\nucleo-l496zg\applications\cloud\mqtt-ota\src\main.c ****   huart3.Init.Mode = UART_MODE_TX_RX;
 182:d:\fchai\work\i-cube\i-cube-huawei\projects\nucleo-l496zg\applications\cloud\mqtt-ota\src\main.c ****   huart3.Init.HwFlowCtl = UART_HWCONTROL_NONE;
ARM GAS  T:\msys\tmp\cc2ULPC0.s 			page 8


 183:d:\fchai\work\i-cube\i-cube-huawei\projects\nucleo-l496zg\applications\cloud\mqtt-ota\src\main.c ****   huart3.Init.OverSampling = UART_OVERSAMPLING_16;
 184:d:\fchai\work\i-cube\i-cube-huawei\projects\nucleo-l496zg\applications\cloud\mqtt-ota\src\main.c ****   huart3.Init.OneBitSampling = UART_ONE_BIT_SAMPLE_DISABLE;
 185:d:\fchai\work\i-cube\i-cube-huawei\projects\nucleo-l496zg\applications\cloud\mqtt-ota\src\main.c ****   huart3.AdvancedInit.AdvFeatureInit = UART_ADVFEATURE_NO_INIT;
 186:d:\fchai\work\i-cube\i-cube-huawei\projects\nucleo-l496zg\applications\cloud\mqtt-ota\src\main.c ****   if (HAL_UART_Init(&huart3) != HAL_OK)
 187:d:\fchai\work\i-cube\i-cube-huawei\projects\nucleo-l496zg\applications\cloud\mqtt-ota\src\main.c ****   {
 188:d:\fchai\work\i-cube\i-cube-huawei\projects\nucleo-l496zg\applications\cloud\mqtt-ota\src\main.c ****     Error_Handler();
 189:d:\fchai\work\i-cube\i-cube-huawei\projects\nucleo-l496zg\applications\cloud\mqtt-ota\src\main.c ****   }
 190:d:\fchai\work\i-cube\i-cube-huawei\projects\nucleo-l496zg\applications\cloud\mqtt-ota\src\main.c ****   /* USER CODE BEGIN USART3_Init 2 */
 191:d:\fchai\work\i-cube\i-cube-huawei\projects\nucleo-l496zg\applications\cloud\mqtt-ota\src\main.c **** 
 192:d:\fchai\work\i-cube\i-cube-huawei\projects\nucleo-l496zg\applications\cloud\mqtt-ota\src\main.c ****   /* USER CODE END USART3_Init 2 */
 193:d:\fchai\work\i-cube\i-cube-huawei\projects\nucleo-l496zg\applications\cloud\mqtt-ota\src\main.c **** 
 194:d:\fchai\work\i-cube\i-cube-huawei\projects\nucleo-l496zg\applications\cloud\mqtt-ota\src\main.c **** }
 195:d:\fchai\work\i-cube\i-cube-huawei\projects\nucleo-l496zg\applications\cloud\mqtt-ota\src\main.c **** 
 196:d:\fchai\work\i-cube\i-cube-huawei\projects\nucleo-l496zg\applications\cloud\mqtt-ota\src\main.c **** /**
 197:d:\fchai\work\i-cube\i-cube-huawei\projects\nucleo-l496zg\applications\cloud\mqtt-ota\src\main.c ****   * @brief GPIO Initialization Function
 198:d:\fchai\work\i-cube\i-cube-huawei\projects\nucleo-l496zg\applications\cloud\mqtt-ota\src\main.c ****   * @param None
 199:d:\fchai\work\i-cube\i-cube-huawei\projects\nucleo-l496zg\applications\cloud\mqtt-ota\src\main.c ****   * @retval None
 200:d:\fchai\work\i-cube\i-cube-huawei\projects\nucleo-l496zg\applications\cloud\mqtt-ota\src\main.c ****   */
 201:d:\fchai\work\i-cube\i-cube-huawei\projects\nucleo-l496zg\applications\cloud\mqtt-ota\src\main.c **** static void MX_GPIO_Init(void)
 202:d:\fchai\work\i-cube\i-cube-huawei\projects\nucleo-l496zg\applications\cloud\mqtt-ota\src\main.c **** {
 203:d:\fchai\work\i-cube\i-cube-huawei\projects\nucleo-l496zg\applications\cloud\mqtt-ota\src\main.c ****   GPIO_InitTypeDef GPIO_InitStruct = {0};
 204:d:\fchai\work\i-cube\i-cube-huawei\projects\nucleo-l496zg\applications\cloud\mqtt-ota\src\main.c **** 
 205:d:\fchai\work\i-cube\i-cube-huawei\projects\nucleo-l496zg\applications\cloud\mqtt-ota\src\main.c ****   /* GPIO Ports Clock Enable */
 206:d:\fchai\work\i-cube\i-cube-huawei\projects\nucleo-l496zg\applications\cloud\mqtt-ota\src\main.c ****   __HAL_RCC_GPIOC_CLK_ENABLE();
 207:d:\fchai\work\i-cube\i-cube-huawei\projects\nucleo-l496zg\applications\cloud\mqtt-ota\src\main.c ****   __HAL_RCC_GPIOH_CLK_ENABLE();
 208:d:\fchai\work\i-cube\i-cube-huawei\projects\nucleo-l496zg\applications\cloud\mqtt-ota\src\main.c ****   __HAL_RCC_GPIOA_CLK_ENABLE();
 209:d:\fchai\work\i-cube\i-cube-huawei\projects\nucleo-l496zg\applications\cloud\mqtt-ota\src\main.c ****   __HAL_RCC_GPIOB_CLK_ENABLE();
 210:d:\fchai\work\i-cube\i-cube-huawei\projects\nucleo-l496zg\applications\cloud\mqtt-ota\src\main.c ****   __HAL_RCC_GPIOD_CLK_ENABLE();
 211:d:\fchai\work\i-cube\i-cube-huawei\projects\nucleo-l496zg\applications\cloud\mqtt-ota\src\main.c ****   __HAL_RCC_GPIOG_CLK_ENABLE();
 212:d:\fchai\work\i-cube\i-cube-huawei\projects\nucleo-l496zg\applications\cloud\mqtt-ota\src\main.c ****   HAL_PWREx_EnableVddIO2();
 213:d:\fchai\work\i-cube\i-cube-huawei\projects\nucleo-l496zg\applications\cloud\mqtt-ota\src\main.c **** 
 214:d:\fchai\work\i-cube\i-cube-huawei\projects\nucleo-l496zg\applications\cloud\mqtt-ota\src\main.c ****   /*Configure GPIO pin Output Level */
 215:d:\fchai\work\i-cube\i-cube-huawei\projects\nucleo-l496zg\applications\cloud\mqtt-ota\src\main.c ****   HAL_GPIO_WritePin(MODULE_POWER_ON_GPIO_Port, MODULE_POWER_ON_Pin, GPIO_PIN_RESET);
 216:d:\fchai\work\i-cube\i-cube-huawei\projects\nucleo-l496zg\applications\cloud\mqtt-ota\src\main.c **** 
 217:d:\fchai\work\i-cube\i-cube-huawei\projects\nucleo-l496zg\applications\cloud\mqtt-ota\src\main.c ****   /*Configure GPIO pin Output Level */
 218:d:\fchai\work\i-cube\i-cube-huawei\projects\nucleo-l496zg\applications\cloud\mqtt-ota\src\main.c ****   HAL_GPIO_WritePin(GPIOB, LD3_Pin|LD2_Pin, GPIO_PIN_RESET);
 219:d:\fchai\work\i-cube\i-cube-huawei\projects\nucleo-l496zg\applications\cloud\mqtt-ota\src\main.c **** 
 220:d:\fchai\work\i-cube\i-cube-huawei\projects\nucleo-l496zg\applications\cloud\mqtt-ota\src\main.c ****   /*Configure GPIO pin Output Level */
 221:d:\fchai\work\i-cube\i-cube-huawei\projects\nucleo-l496zg\applications\cloud\mqtt-ota\src\main.c ****   HAL_GPIO_WritePin(USB_PowerSwitchOn_GPIO_Port, USB_PowerSwitchOn_Pin, GPIO_PIN_RESET);
 222:d:\fchai\work\i-cube\i-cube-huawei\projects\nucleo-l496zg\applications\cloud\mqtt-ota\src\main.c **** 
 223:d:\fchai\work\i-cube\i-cube-huawei\projects\nucleo-l496zg\applications\cloud\mqtt-ota\src\main.c ****   /*Configure GPIO pin : B1_Pin */
 224:d:\fchai\work\i-cube\i-cube-huawei\projects\nucleo-l496zg\applications\cloud\mqtt-ota\src\main.c ****   GPIO_InitStruct.Pin = B1_Pin;
 225:d:\fchai\work\i-cube\i-cube-huawei\projects\nucleo-l496zg\applications\cloud\mqtt-ota\src\main.c ****   GPIO_InitStruct.Mode = GPIO_MODE_IT_RISING;
 226:d:\fchai\work\i-cube\i-cube-huawei\projects\nucleo-l496zg\applications\cloud\mqtt-ota\src\main.c ****   GPIO_InitStruct.Pull = GPIO_NOPULL;
 227:d:\fchai\work\i-cube\i-cube-huawei\projects\nucleo-l496zg\applications\cloud\mqtt-ota\src\main.c ****   HAL_GPIO_Init(B1_GPIO_Port, &GPIO_InitStruct);
 228:d:\fchai\work\i-cube\i-cube-huawei\projects\nucleo-l496zg\applications\cloud\mqtt-ota\src\main.c **** 
 229:d:\fchai\work\i-cube\i-cube-huawei\projects\nucleo-l496zg\applications\cloud\mqtt-ota\src\main.c ****   /*Configure GPIO pin : MODULE_POWER_ON_Pin */
 230:d:\fchai\work\i-cube\i-cube-huawei\projects\nucleo-l496zg\applications\cloud\mqtt-ota\src\main.c ****   GPIO_InitStruct.Pin = MODULE_POWER_ON_Pin;
 231:d:\fchai\work\i-cube\i-cube-huawei\projects\nucleo-l496zg\applications\cloud\mqtt-ota\src\main.c ****   GPIO_InitStruct.Mode = GPIO_MODE_OUTPUT_PP;
 232:d:\fchai\work\i-cube\i-cube-huawei\projects\nucleo-l496zg\applications\cloud\mqtt-ota\src\main.c ****   GPIO_InitStruct.Pull = GPIO_PULLUP;
 233:d:\fchai\work\i-cube\i-cube-huawei\projects\nucleo-l496zg\applications\cloud\mqtt-ota\src\main.c ****   GPIO_InitStruct.Speed = GPIO_SPEED_FREQ_MEDIUM;
 234:d:\fchai\work\i-cube\i-cube-huawei\projects\nucleo-l496zg\applications\cloud\mqtt-ota\src\main.c ****   HAL_GPIO_Init(MODULE_POWER_ON_GPIO_Port, &GPIO_InitStruct);
 235:d:\fchai\work\i-cube\i-cube-huawei\projects\nucleo-l496zg\applications\cloud\mqtt-ota\src\main.c **** 
 236:d:\fchai\work\i-cube\i-cube-huawei\projects\nucleo-l496zg\applications\cloud\mqtt-ota\src\main.c ****   /*Configure GPIO pins : LD3_Pin LD2_Pin */
 237:d:\fchai\work\i-cube\i-cube-huawei\projects\nucleo-l496zg\applications\cloud\mqtt-ota\src\main.c ****   GPIO_InitStruct.Pin = LD3_Pin|LD2_Pin;
 238:d:\fchai\work\i-cube\i-cube-huawei\projects\nucleo-l496zg\applications\cloud\mqtt-ota\src\main.c ****   GPIO_InitStruct.Mode = GPIO_MODE_OUTPUT_PP;
 239:d:\fchai\work\i-cube\i-cube-huawei\projects\nucleo-l496zg\applications\cloud\mqtt-ota\src\main.c ****   GPIO_InitStruct.Pull = GPIO_NOPULL;
ARM GAS  T:\msys\tmp\cc2ULPC0.s 			page 9


 240:d:\fchai\work\i-cube\i-cube-huawei\projects\nucleo-l496zg\applications\cloud\mqtt-ota\src\main.c ****   GPIO_InitStruct.Speed = GPIO_SPEED_FREQ_LOW;
 241:d:\fchai\work\i-cube\i-cube-huawei\projects\nucleo-l496zg\applications\cloud\mqtt-ota\src\main.c ****   HAL_GPIO_Init(GPIOB, &GPIO_InitStruct);
 242:d:\fchai\work\i-cube\i-cube-huawei\projects\nucleo-l496zg\applications\cloud\mqtt-ota\src\main.c **** 
 243:d:\fchai\work\i-cube\i-cube-huawei\projects\nucleo-l496zg\applications\cloud\mqtt-ota\src\main.c ****   /*Configure GPIO pin : USB_OverCurrent_Pin */
 244:d:\fchai\work\i-cube\i-cube-huawei\projects\nucleo-l496zg\applications\cloud\mqtt-ota\src\main.c ****   GPIO_InitStruct.Pin = USB_OverCurrent_Pin;
 245:d:\fchai\work\i-cube\i-cube-huawei\projects\nucleo-l496zg\applications\cloud\mqtt-ota\src\main.c ****   GPIO_InitStruct.Mode = GPIO_MODE_INPUT;
 246:d:\fchai\work\i-cube\i-cube-huawei\projects\nucleo-l496zg\applications\cloud\mqtt-ota\src\main.c ****   GPIO_InitStruct.Pull = GPIO_NOPULL;
 247:d:\fchai\work\i-cube\i-cube-huawei\projects\nucleo-l496zg\applications\cloud\mqtt-ota\src\main.c ****   HAL_GPIO_Init(USB_OverCurrent_GPIO_Port, &GPIO_InitStruct);
 248:d:\fchai\work\i-cube\i-cube-huawei\projects\nucleo-l496zg\applications\cloud\mqtt-ota\src\main.c **** 
 249:d:\fchai\work\i-cube\i-cube-huawei\projects\nucleo-l496zg\applications\cloud\mqtt-ota\src\main.c ****   /*Configure GPIO pin : USB_PowerSwitchOn_Pin */
 250:d:\fchai\work\i-cube\i-cube-huawei\projects\nucleo-l496zg\applications\cloud\mqtt-ota\src\main.c ****   GPIO_InitStruct.Pin = USB_PowerSwitchOn_Pin;
 251:d:\fchai\work\i-cube\i-cube-huawei\projects\nucleo-l496zg\applications\cloud\mqtt-ota\src\main.c ****   GPIO_InitStruct.Mode = GPIO_MODE_OUTPUT_PP;
 252:d:\fchai\work\i-cube\i-cube-huawei\projects\nucleo-l496zg\applications\cloud\mqtt-ota\src\main.c ****   GPIO_InitStruct.Pull = GPIO_NOPULL;
 253:d:\fchai\work\i-cube\i-cube-huawei\projects\nucleo-l496zg\applications\cloud\mqtt-ota\src\main.c ****   GPIO_InitStruct.Speed = GPIO_SPEED_FREQ_LOW;
 254:d:\fchai\work\i-cube\i-cube-huawei\projects\nucleo-l496zg\applications\cloud\mqtt-ota\src\main.c ****   HAL_GPIO_Init(USB_PowerSwitchOn_GPIO_Port, &GPIO_InitStruct);
 255:d:\fchai\work\i-cube\i-cube-huawei\projects\nucleo-l496zg\applications\cloud\mqtt-ota\src\main.c **** 
 256:d:\fchai\work\i-cube\i-cube-huawei\projects\nucleo-l496zg\applications\cloud\mqtt-ota\src\main.c ****   /*Configure GPIO pins : USB_SOF_Pin USB_ID_Pin USB_DM_Pin USB_DP_Pin */
 257:d:\fchai\work\i-cube\i-cube-huawei\projects\nucleo-l496zg\applications\cloud\mqtt-ota\src\main.c ****   GPIO_InitStruct.Pin = USB_SOF_Pin|USB_ID_Pin|USB_DM_Pin|USB_DP_Pin;
 258:d:\fchai\work\i-cube\i-cube-huawei\projects\nucleo-l496zg\applications\cloud\mqtt-ota\src\main.c ****   GPIO_InitStruct.Mode = GPIO_MODE_AF_PP;
 259:d:\fchai\work\i-cube\i-cube-huawei\projects\nucleo-l496zg\applications\cloud\mqtt-ota\src\main.c ****   GPIO_InitStruct.Pull = GPIO_NOPULL;
 260:d:\fchai\work\i-cube\i-cube-huawei\projects\nucleo-l496zg\applications\cloud\mqtt-ota\src\main.c ****   GPIO_InitStruct.Speed = GPIO_SPEED_FREQ_VERY_HIGH;
 261:d:\fchai\work\i-cube\i-cube-huawei\projects\nucleo-l496zg\applications\cloud\mqtt-ota\src\main.c ****   GPIO_InitStruct.Alternate = GPIO_AF10_OTG_FS;
 262:d:\fchai\work\i-cube\i-cube-huawei\projects\nucleo-l496zg\applications\cloud\mqtt-ota\src\main.c ****   HAL_GPIO_Init(GPIOA, &GPIO_InitStruct);
 263:d:\fchai\work\i-cube\i-cube-huawei\projects\nucleo-l496zg\applications\cloud\mqtt-ota\src\main.c **** 
 264:d:\fchai\work\i-cube\i-cube-huawei\projects\nucleo-l496zg\applications\cloud\mqtt-ota\src\main.c **** }
 265:d:\fchai\work\i-cube\i-cube-huawei\projects\nucleo-l496zg\applications\cloud\mqtt-ota\src\main.c **** 
 266:d:\fchai\work\i-cube\i-cube-huawei\projects\nucleo-l496zg\applications\cloud\mqtt-ota\src\main.c **** /* USER CODE BEGIN 4 */
 267:d:\fchai\work\i-cube\i-cube-huawei\projects\nucleo-l496zg\applications\cloud\mqtt-ota\src\main.c **** 
 268:d:\fchai\work\i-cube\i-cube-huawei\projects\nucleo-l496zg\applications\cloud\mqtt-ota\src\main.c **** /* USER CODE END 4 */
 269:d:\fchai\work\i-cube\i-cube-huawei\projects\nucleo-l496zg\applications\cloud\mqtt-ota\src\main.c **** 
 270:d:\fchai\work\i-cube\i-cube-huawei\projects\nucleo-l496zg\applications\cloud\mqtt-ota\src\main.c **** /**
 271:d:\fchai\work\i-cube\i-cube-huawei\projects\nucleo-l496zg\applications\cloud\mqtt-ota\src\main.c ****   * @brief  This function is executed in case of error occurrence.
 272:d:\fchai\work\i-cube\i-cube-huawei\projects\nucleo-l496zg\applications\cloud\mqtt-ota\src\main.c ****   * @retval None
 273:d:\fchai\work\i-cube\i-cube-huawei\projects\nucleo-l496zg\applications\cloud\mqtt-ota\src\main.c ****   */
 274:d:\fchai\work\i-cube\i-cube-huawei\projects\nucleo-l496zg\applications\cloud\mqtt-ota\src\main.c **** void Error_Handler(void)
 275:d:\fchai\work\i-cube\i-cube-huawei\projects\nucleo-l496zg\applications\cloud\mqtt-ota\src\main.c **** {
 182              		.loc 1 275 1 is_stmt 1 view -0
 183              		.cfi_startproc
 184              		@ args = 0, pretend = 0, frame = 0
 185              		@ frame_needed = 0, uses_anonymous_args = 0
 186              		@ link register save eliminated.
 276:d:\fchai\work\i-cube\i-cube-huawei\projects\nucleo-l496zg\applications\cloud\mqtt-ota\src\main.c ****   /* USER CODE BEGIN Error_Handler_Debug */
 277:d:\fchai\work\i-cube\i-cube-huawei\projects\nucleo-l496zg\applications\cloud\mqtt-ota\src\main.c ****   /* User can add his own implementation to report the HAL error return state */
 278:d:\fchai\work\i-cube\i-cube-huawei\projects\nucleo-l496zg\applications\cloud\mqtt-ota\src\main.c **** 
 279:d:\fchai\work\i-cube\i-cube-huawei\projects\nucleo-l496zg\applications\cloud\mqtt-ota\src\main.c ****   /* USER CODE END Error_Handler_Debug */
 280:d:\fchai\work\i-cube\i-cube-huawei\projects\nucleo-l496zg\applications\cloud\mqtt-ota\src\main.c **** }
 187              		.loc 1 280 1 view .LVU70
 188 0000 7047     		bx	lr
 189              		.cfi_endproc
 190              	.LFE127:
 192 0002 00BF     		.section	.text.HardWare_Init,"ax",%progbits
 193              		.align	1
 194              		.p2align 2,,3
 195              		.global	HardWare_Init
 196              		.syntax unified
 197              		.thumb
 198              		.thumb_func
ARM GAS  T:\msys\tmp\cc2ULPC0.s 			page 10


 199              		.fpu fpv4-sp-d16
 201              	HardWare_Init:
 202              	.LFB128:
 203              		.file 2 "D:/fchai/work/i-cube/I-CUBE-HUAWEI/Projects/NUCLEO-L496ZG/Applications/Cloud/mqtt-ota/boa
   1:D:/fchai/work/i-cube/I-CUBE-HUAWEI/Projects/NUCLEO-L496ZG/Applications/Cloud/mqtt-ota\board.c **** #include <stdint.h>
   2:D:/fchai/work/i-cube/I-CUBE-HUAWEI/Projects/NUCLEO-L496ZG/Applications/Cloud/mqtt-ota\board.c **** 
   3:D:/fchai/work/i-cube/I-CUBE-HUAWEI/Projects/NUCLEO-L496ZG/Applications/Cloud/mqtt-ota\board.c **** #include "../Src/main.c"
   4:D:/fchai/work/i-cube/I-CUBE-HUAWEI/Projects/NUCLEO-L496ZG/Applications/Cloud/mqtt-ota\board.c **** 
   5:D:/fchai/work/i-cube/I-CUBE-HUAWEI/Projects/NUCLEO-L496ZG/Applications/Cloud/mqtt-ota\board.c **** int HardWare_Init (void)
   6:D:/fchai/work/i-cube/I-CUBE-HUAWEI/Projects/NUCLEO-L496ZG/Applications/Cloud/mqtt-ota\board.c ****     {
 204              		.loc 2 6 5 view -0
 205              		.cfi_startproc
 206              		@ args = 0, pretend = 0, frame = 48
 207              		@ frame_needed = 0, uses_anonymous_args = 0
   7:D:/fchai/work/i-cube/I-CUBE-HUAWEI/Projects/NUCLEO-L496ZG/Applications/Cloud/mqtt-ota\board.c ****     SystemInit ();
 208              		.loc 2 7 5 view .LVU72
   6:D:/fchai/work/i-cube/I-CUBE-HUAWEI/Projects/NUCLEO-L496ZG/Applications/Cloud/mqtt-ota\board.c **** 
 209              		.loc 2 6 5 is_stmt 0 view .LVU73
 210 0000 F0B5     		push	{r4, r5, r6, r7, lr}
 211              	.LCFI3:
 212              		.cfi_def_cfa_offset 20
 213              		.cfi_offset 4, -20
 214              		.cfi_offset 5, -16
 215              		.cfi_offset 6, -12
 216              		.cfi_offset 7, -8
 217              		.cfi_offset 14, -4
 218              	.LBB26:
 219              	.LBB27:
 203:d:\fchai\work\i-cube\i-cube-huawei\projects\nucleo-l496zg\applications\cloud\mqtt-ota\src\main.c **** 
 220              		.loc 1 203 20 view .LVU74
 221 0002 0024     		movs	r4, #0
 222              	.LBE27:
 223              	.LBE26:
   6:D:/fchai/work/i-cube/I-CUBE-HUAWEI/Projects/NUCLEO-L496ZG/Applications/Cloud/mqtt-ota\board.c **** 
 224              		.loc 2 6 5 view .LVU75
 225 0004 8DB0     		sub	sp, sp, #52
 226              	.LCFI4:
 227              		.cfi_def_cfa_offset 72
 228              		.loc 2 7 5 view .LVU76
 229 0006 FFF7FEFF 		bl	SystemInit
 230              	.LVL6:
   8:D:/fchai/work/i-cube/I-CUBE-HUAWEI/Projects/NUCLEO-L496ZG/Applications/Cloud/mqtt-ota\board.c **** 
   9:D:/fchai/work/i-cube/I-CUBE-HUAWEI/Projects/NUCLEO-L496ZG/Applications/Cloud/mqtt-ota\board.c ****     HAL_Init();
 231              		.loc 2 9 5 is_stmt 1 view .LVU77
 232 000a FFF7FEFF 		bl	HAL_Init
 233              	.LVL7:
  10:D:/fchai/work/i-cube/I-CUBE-HUAWEI/Projects/NUCLEO-L496ZG/Applications/Cloud/mqtt-ota\board.c **** 
  11:D:/fchai/work/i-cube/I-CUBE-HUAWEI/Projects/NUCLEO-L496ZG/Applications/Cloud/mqtt-ota\board.c ****     /* USER CODE BEGIN Init */
  12:D:/fchai/work/i-cube/I-CUBE-HUAWEI/Projects/NUCLEO-L496ZG/Applications/Cloud/mqtt-ota\board.c **** 
  13:D:/fchai/work/i-cube/I-CUBE-HUAWEI/Projects/NUCLEO-L496ZG/Applications/Cloud/mqtt-ota\board.c ****     /* USER CODE END Init */
  14:D:/fchai/work/i-cube/I-CUBE-HUAWEI/Projects/NUCLEO-L496ZG/Applications/Cloud/mqtt-ota\board.c **** 
  15:D:/fchai/work/i-cube/I-CUBE-HUAWEI/Projects/NUCLEO-L496ZG/Applications/Cloud/mqtt-ota\board.c ****     /* Configure the system clock */
  16:D:/fchai/work/i-cube/I-CUBE-HUAWEI/Projects/NUCLEO-L496ZG/Applications/Cloud/mqtt-ota\board.c ****     SystemClock_Config();
 234              		.loc 2 16 5 view .LVU78
 235 000e FFF7FEFF 		bl	SystemClock_Config
 236              	.LVL8:
  17:D:/fchai/work/i-cube/I-CUBE-HUAWEI/Projects/NUCLEO-L496ZG/Applications/Cloud/mqtt-ota\board.c **** 
ARM GAS  T:\msys\tmp\cc2ULPC0.s 			page 11


  18:D:/fchai/work/i-cube/I-CUBE-HUAWEI/Projects/NUCLEO-L496ZG/Applications/Cloud/mqtt-ota\board.c ****     /* USER CODE BEGIN SysInit */
  19:D:/fchai/work/i-cube/I-CUBE-HUAWEI/Projects/NUCLEO-L496ZG/Applications/Cloud/mqtt-ota\board.c **** 
  20:D:/fchai/work/i-cube/I-CUBE-HUAWEI/Projects/NUCLEO-L496ZG/Applications/Cloud/mqtt-ota\board.c ****     /* USER CODE END SysInit */
  21:D:/fchai/work/i-cube/I-CUBE-HUAWEI/Projects/NUCLEO-L496ZG/Applications/Cloud/mqtt-ota\board.c **** 
  22:D:/fchai/work/i-cube/I-CUBE-HUAWEI/Projects/NUCLEO-L496ZG/Applications/Cloud/mqtt-ota\board.c ****     /* Initialize all configured peripherals */
  23:D:/fchai/work/i-cube/I-CUBE-HUAWEI/Projects/NUCLEO-L496ZG/Applications/Cloud/mqtt-ota\board.c ****     MX_GPIO_Init();
 237              		.loc 2 23 5 view .LVU79
 238              	.LBB37:
 239              	.LBI26:
 201:d:\fchai\work\i-cube\i-cube-huawei\projects\nucleo-l496zg\applications\cloud\mqtt-ota\src\main.c **** {
 240              		.loc 1 201 13 view .LVU80
 241              	.LBB36:
 203:d:\fchai\work\i-cube\i-cube-huawei\projects\nucleo-l496zg\applications\cloud\mqtt-ota\src\main.c **** 
 242              		.loc 1 203 3 view .LVU81
 203:d:\fchai\work\i-cube\i-cube-huawei\projects\nucleo-l496zg\applications\cloud\mqtt-ota\src\main.c **** 
 243              		.loc 1 203 20 is_stmt 0 view .LVU82
 244 0012 CDE90744 		strd	r4, r4, [sp, #28]
 245 0016 CDE90944 		strd	r4, r4, [sp, #36]
 246              	.LBB28:
 206:d:\fchai\work\i-cube\i-cube-huawei\projects\nucleo-l496zg\applications\cloud\mqtt-ota\src\main.c ****   __HAL_RCC_GPIOH_CLK_ENABLE();
 247              		.loc 1 206 3 view .LVU83
 248 001a 564B     		ldr	r3, .L7
 249              	.LBE28:
 203:d:\fchai\work\i-cube\i-cube-huawei\projects\nucleo-l496zg\applications\cloud\mqtt-ota\src\main.c **** 
 250              		.loc 1 203 20 view .LVU84
 251 001c 0B94     		str	r4, [sp, #44]
 206:d:\fchai\work\i-cube\i-cube-huawei\projects\nucleo-l496zg\applications\cloud\mqtt-ota\src\main.c ****   __HAL_RCC_GPIOH_CLK_ENABLE();
 252              		.loc 1 206 3 is_stmt 1 view .LVU85
 253              	.LBB29:
 206:d:\fchai\work\i-cube\i-cube-huawei\projects\nucleo-l496zg\applications\cloud\mqtt-ota\src\main.c ****   __HAL_RCC_GPIOH_CLK_ENABLE();
 254              		.loc 1 206 3 view .LVU86
 206:d:\fchai\work\i-cube\i-cube-huawei\projects\nucleo-l496zg\applications\cloud\mqtt-ota\src\main.c ****   __HAL_RCC_GPIOH_CLK_ENABLE();
 255              		.loc 1 206 3 view .LVU87
 256 001e DA6C     		ldr	r2, [r3, #76]
 257              	.LBE29:
 218:d:\fchai\work\i-cube\i-cube-huawei\projects\nucleo-l496zg\applications\cloud\mqtt-ota\src\main.c **** 
 258              		.loc 1 218 3 is_stmt 0 view .LVU88
 259 0020 554F     		ldr	r7, .L7+4
 221:d:\fchai\work\i-cube\i-cube-huawei\projects\nucleo-l496zg\applications\cloud\mqtt-ota\src\main.c **** 
 260              		.loc 1 221 3 view .LVU89
 261 0022 564E     		ldr	r6, .L7+8
 262              	.LBB30:
 206:d:\fchai\work\i-cube\i-cube-huawei\projects\nucleo-l496zg\applications\cloud\mqtt-ota\src\main.c ****   __HAL_RCC_GPIOH_CLK_ENABLE();
 263              		.loc 1 206 3 view .LVU90
 264 0024 42F00402 		orr	r2, r2, #4
 265 0028 DA64     		str	r2, [r3, #76]
 206:d:\fchai\work\i-cube\i-cube-huawei\projects\nucleo-l496zg\applications\cloud\mqtt-ota\src\main.c ****   __HAL_RCC_GPIOH_CLK_ENABLE();
 266              		.loc 1 206 3 is_stmt 1 view .LVU91
 267 002a DA6C     		ldr	r2, [r3, #76]
 268 002c 02F00402 		and	r2, r2, #4
 269 0030 0192     		str	r2, [sp, #4]
 206:d:\fchai\work\i-cube\i-cube-huawei\projects\nucleo-l496zg\applications\cloud\mqtt-ota\src\main.c ****   __HAL_RCC_GPIOH_CLK_ENABLE();
 270              		.loc 1 206 3 view .LVU92
 271 0032 019A     		ldr	r2, [sp, #4]
 272              	.LBE30:
 206:d:\fchai\work\i-cube\i-cube-huawei\projects\nucleo-l496zg\applications\cloud\mqtt-ota\src\main.c ****   __HAL_RCC_GPIOH_CLK_ENABLE();
 273              		.loc 1 206 3 view .LVU93
ARM GAS  T:\msys\tmp\cc2ULPC0.s 			page 12


 207:d:\fchai\work\i-cube\i-cube-huawei\projects\nucleo-l496zg\applications\cloud\mqtt-ota\src\main.c ****   __HAL_RCC_GPIOA_CLK_ENABLE();
 274              		.loc 1 207 3 view .LVU94
 275              	.LBB31:
 207:d:\fchai\work\i-cube\i-cube-huawei\projects\nucleo-l496zg\applications\cloud\mqtt-ota\src\main.c ****   __HAL_RCC_GPIOA_CLK_ENABLE();
 276              		.loc 1 207 3 view .LVU95
 207:d:\fchai\work\i-cube\i-cube-huawei\projects\nucleo-l496zg\applications\cloud\mqtt-ota\src\main.c ****   __HAL_RCC_GPIOA_CLK_ENABLE();
 277              		.loc 1 207 3 view .LVU96
 278 0034 DA6C     		ldr	r2, [r3, #76]
 279 0036 42F08002 		orr	r2, r2, #128
 280 003a DA64     		str	r2, [r3, #76]
 207:d:\fchai\work\i-cube\i-cube-huawei\projects\nucleo-l496zg\applications\cloud\mqtt-ota\src\main.c ****   __HAL_RCC_GPIOA_CLK_ENABLE();
 281              		.loc 1 207 3 view .LVU97
 282 003c DA6C     		ldr	r2, [r3, #76]
 283 003e 02F08002 		and	r2, r2, #128
 284 0042 0292     		str	r2, [sp, #8]
 207:d:\fchai\work\i-cube\i-cube-huawei\projects\nucleo-l496zg\applications\cloud\mqtt-ota\src\main.c ****   __HAL_RCC_GPIOA_CLK_ENABLE();
 285              		.loc 1 207 3 view .LVU98
 286 0044 029A     		ldr	r2, [sp, #8]
 287              	.LBE31:
 207:d:\fchai\work\i-cube\i-cube-huawei\projects\nucleo-l496zg\applications\cloud\mqtt-ota\src\main.c ****   __HAL_RCC_GPIOA_CLK_ENABLE();
 288              		.loc 1 207 3 view .LVU99
 208:d:\fchai\work\i-cube\i-cube-huawei\projects\nucleo-l496zg\applications\cloud\mqtt-ota\src\main.c ****   __HAL_RCC_GPIOB_CLK_ENABLE();
 289              		.loc 1 208 3 view .LVU100
 290              	.LBB32:
 208:d:\fchai\work\i-cube\i-cube-huawei\projects\nucleo-l496zg\applications\cloud\mqtt-ota\src\main.c ****   __HAL_RCC_GPIOB_CLK_ENABLE();
 291              		.loc 1 208 3 view .LVU101
 208:d:\fchai\work\i-cube\i-cube-huawei\projects\nucleo-l496zg\applications\cloud\mqtt-ota\src\main.c ****   __HAL_RCC_GPIOB_CLK_ENABLE();
 292              		.loc 1 208 3 view .LVU102
 293 0046 DA6C     		ldr	r2, [r3, #76]
 294 0048 42F00102 		orr	r2, r2, #1
 295 004c DA64     		str	r2, [r3, #76]
 208:d:\fchai\work\i-cube\i-cube-huawei\projects\nucleo-l496zg\applications\cloud\mqtt-ota\src\main.c ****   __HAL_RCC_GPIOB_CLK_ENABLE();
 296              		.loc 1 208 3 view .LVU103
 297 004e DA6C     		ldr	r2, [r3, #76]
 298 0050 02F00102 		and	r2, r2, #1
 299 0054 0392     		str	r2, [sp, #12]
 208:d:\fchai\work\i-cube\i-cube-huawei\projects\nucleo-l496zg\applications\cloud\mqtt-ota\src\main.c ****   __HAL_RCC_GPIOB_CLK_ENABLE();
 300              		.loc 1 208 3 view .LVU104
 301 0056 039A     		ldr	r2, [sp, #12]
 302              	.LBE32:
 208:d:\fchai\work\i-cube\i-cube-huawei\projects\nucleo-l496zg\applications\cloud\mqtt-ota\src\main.c ****   __HAL_RCC_GPIOB_CLK_ENABLE();
 303              		.loc 1 208 3 view .LVU105
 209:d:\fchai\work\i-cube\i-cube-huawei\projects\nucleo-l496zg\applications\cloud\mqtt-ota\src\main.c ****   __HAL_RCC_GPIOD_CLK_ENABLE();
 304              		.loc 1 209 3 view .LVU106
 305              	.LBB33:
 209:d:\fchai\work\i-cube\i-cube-huawei\projects\nucleo-l496zg\applications\cloud\mqtt-ota\src\main.c ****   __HAL_RCC_GPIOD_CLK_ENABLE();
 306              		.loc 1 209 3 view .LVU107
 209:d:\fchai\work\i-cube\i-cube-huawei\projects\nucleo-l496zg\applications\cloud\mqtt-ota\src\main.c ****   __HAL_RCC_GPIOD_CLK_ENABLE();
 307              		.loc 1 209 3 view .LVU108
 308 0058 DA6C     		ldr	r2, [r3, #76]
 309 005a 42F00202 		orr	r2, r2, #2
 310 005e DA64     		str	r2, [r3, #76]
 209:d:\fchai\work\i-cube\i-cube-huawei\projects\nucleo-l496zg\applications\cloud\mqtt-ota\src\main.c ****   __HAL_RCC_GPIOD_CLK_ENABLE();
 311              		.loc 1 209 3 view .LVU109
 312 0060 DA6C     		ldr	r2, [r3, #76]
 313 0062 02F00202 		and	r2, r2, #2
 314 0066 0492     		str	r2, [sp, #16]
ARM GAS  T:\msys\tmp\cc2ULPC0.s 			page 13


 209:d:\fchai\work\i-cube\i-cube-huawei\projects\nucleo-l496zg\applications\cloud\mqtt-ota\src\main.c ****   __HAL_RCC_GPIOD_CLK_ENABLE();
 315              		.loc 1 209 3 view .LVU110
 316 0068 049A     		ldr	r2, [sp, #16]
 317              	.LBE33:
 209:d:\fchai\work\i-cube\i-cube-huawei\projects\nucleo-l496zg\applications\cloud\mqtt-ota\src\main.c ****   __HAL_RCC_GPIOD_CLK_ENABLE();
 318              		.loc 1 209 3 view .LVU111
 210:d:\fchai\work\i-cube\i-cube-huawei\projects\nucleo-l496zg\applications\cloud\mqtt-ota\src\main.c ****   __HAL_RCC_GPIOG_CLK_ENABLE();
 319              		.loc 1 210 3 view .LVU112
 320              	.LBB34:
 210:d:\fchai\work\i-cube\i-cube-huawei\projects\nucleo-l496zg\applications\cloud\mqtt-ota\src\main.c ****   __HAL_RCC_GPIOG_CLK_ENABLE();
 321              		.loc 1 210 3 view .LVU113
 210:d:\fchai\work\i-cube\i-cube-huawei\projects\nucleo-l496zg\applications\cloud\mqtt-ota\src\main.c ****   __HAL_RCC_GPIOG_CLK_ENABLE();
 322              		.loc 1 210 3 view .LVU114
 323 006a DA6C     		ldr	r2, [r3, #76]
 324 006c 42F00802 		orr	r2, r2, #8
 325 0070 DA64     		str	r2, [r3, #76]
 210:d:\fchai\work\i-cube\i-cube-huawei\projects\nucleo-l496zg\applications\cloud\mqtt-ota\src\main.c ****   __HAL_RCC_GPIOG_CLK_ENABLE();
 326              		.loc 1 210 3 view .LVU115
 327 0072 DA6C     		ldr	r2, [r3, #76]
 328 0074 02F00802 		and	r2, r2, #8
 329 0078 0592     		str	r2, [sp, #20]
 210:d:\fchai\work\i-cube\i-cube-huawei\projects\nucleo-l496zg\applications\cloud\mqtt-ota\src\main.c ****   __HAL_RCC_GPIOG_CLK_ENABLE();
 330              		.loc 1 210 3 view .LVU116
 331 007a 059A     		ldr	r2, [sp, #20]
 332              	.LBE34:
 210:d:\fchai\work\i-cube\i-cube-huawei\projects\nucleo-l496zg\applications\cloud\mqtt-ota\src\main.c ****   __HAL_RCC_GPIOG_CLK_ENABLE();
 333              		.loc 1 210 3 view .LVU117
 211:d:\fchai\work\i-cube\i-cube-huawei\projects\nucleo-l496zg\applications\cloud\mqtt-ota\src\main.c ****   HAL_PWREx_EnableVddIO2();
 334              		.loc 1 211 3 view .LVU118
 335              	.LBB35:
 211:d:\fchai\work\i-cube\i-cube-huawei\projects\nucleo-l496zg\applications\cloud\mqtt-ota\src\main.c ****   HAL_PWREx_EnableVddIO2();
 336              		.loc 1 211 3 view .LVU119
 211:d:\fchai\work\i-cube\i-cube-huawei\projects\nucleo-l496zg\applications\cloud\mqtt-ota\src\main.c ****   HAL_PWREx_EnableVddIO2();
 337              		.loc 1 211 3 view .LVU120
 338 007c DA6C     		ldr	r2, [r3, #76]
 339 007e 42F04002 		orr	r2, r2, #64
 340 0082 DA64     		str	r2, [r3, #76]
 211:d:\fchai\work\i-cube\i-cube-huawei\projects\nucleo-l496zg\applications\cloud\mqtt-ota\src\main.c ****   HAL_PWREx_EnableVddIO2();
 341              		.loc 1 211 3 view .LVU121
 342 0084 DB6C     		ldr	r3, [r3, #76]
 343 0086 03F04003 		and	r3, r3, #64
 344 008a 0693     		str	r3, [sp, #24]
 211:d:\fchai\work\i-cube\i-cube-huawei\projects\nucleo-l496zg\applications\cloud\mqtt-ota\src\main.c ****   HAL_PWREx_EnableVddIO2();
 345              		.loc 1 211 3 view .LVU122
 346 008c 069B     		ldr	r3, [sp, #24]
 347              	.LBE35:
 211:d:\fchai\work\i-cube\i-cube-huawei\projects\nucleo-l496zg\applications\cloud\mqtt-ota\src\main.c ****   HAL_PWREx_EnableVddIO2();
 348              		.loc 1 211 3 view .LVU123
 212:d:\fchai\work\i-cube\i-cube-huawei\projects\nucleo-l496zg\applications\cloud\mqtt-ota\src\main.c **** 
 349              		.loc 1 212 3 view .LVU124
 350 008e FFF7FEFF 		bl	HAL_PWREx_EnableVddIO2
 351              	.LVL9:
 215:d:\fchai\work\i-cube\i-cube-huawei\projects\nucleo-l496zg\applications\cloud\mqtt-ota\src\main.c **** 
 352              		.loc 1 215 3 view .LVU125
 353 0092 2246     		mov	r2, r4
 354 0094 0821     		movs	r1, #8
 355 0096 4FF09040 		mov	r0, #1207959552
ARM GAS  T:\msys\tmp\cc2ULPC0.s 			page 14


 356 009a FFF7FEFF 		bl	HAL_GPIO_WritePin
 357              	.LVL10:
 218:d:\fchai\work\i-cube\i-cube-huawei\projects\nucleo-l496zg\applications\cloud\mqtt-ota\src\main.c **** 
 358              		.loc 1 218 3 view .LVU126
 359 009e 2246     		mov	r2, r4
 360 00a0 3846     		mov	r0, r7
 361 00a2 4FF48141 		mov	r1, #16512
 362 00a6 FFF7FEFF 		bl	HAL_GPIO_WritePin
 363              	.LVL11:
 221:d:\fchai\work\i-cube\i-cube-huawei\projects\nucleo-l496zg\applications\cloud\mqtt-ota\src\main.c **** 
 364              		.loc 1 221 3 view .LVU127
 365 00aa 2246     		mov	r2, r4
 366 00ac 3046     		mov	r0, r6
 367 00ae 4021     		movs	r1, #64
 368 00b0 FFF7FEFF 		bl	HAL_GPIO_WritePin
 369              	.LVL12:
 224:d:\fchai\work\i-cube\i-cube-huawei\projects\nucleo-l496zg\applications\cloud\mqtt-ota\src\main.c ****   GPIO_InitStruct.Mode = GPIO_MODE_IT_RISING;
 370              		.loc 1 224 3 view .LVU128
 225:d:\fchai\work\i-cube\i-cube-huawei\projects\nucleo-l496zg\applications\cloud\mqtt-ota\src\main.c ****   GPIO_InitStruct.Pull = GPIO_NOPULL;
 371              		.loc 1 225 24 is_stmt 0 view .LVU129
 372 00b4 324B     		ldr	r3, .L7+12
 227:d:\fchai\work\i-cube\i-cube-huawei\projects\nucleo-l496zg\applications\cloud\mqtt-ota\src\main.c **** 
 373              		.loc 1 227 3 view .LVU130
 374 00b6 3348     		ldr	r0, .L7+16
 226:d:\fchai\work\i-cube\i-cube-huawei\projects\nucleo-l496zg\applications\cloud\mqtt-ota\src\main.c ****   HAL_GPIO_Init(B1_GPIO_Port, &GPIO_InitStruct);
 375              		.loc 1 226 24 view .LVU131
 376 00b8 0994     		str	r4, [sp, #36]
 224:d:\fchai\work\i-cube\i-cube-huawei\projects\nucleo-l496zg\applications\cloud\mqtt-ota\src\main.c ****   GPIO_InitStruct.Mode = GPIO_MODE_IT_RISING;
 377              		.loc 1 224 23 view .LVU132
 378 00ba 4FF40052 		mov	r2, #8192
 227:d:\fchai\work\i-cube\i-cube-huawei\projects\nucleo-l496zg\applications\cloud\mqtt-ota\src\main.c **** 
 379              		.loc 1 227 3 view .LVU133
 380 00be 07A9     		add	r1, sp, #28
 225:d:\fchai\work\i-cube\i-cube-huawei\projects\nucleo-l496zg\applications\cloud\mqtt-ota\src\main.c ****   GPIO_InitStruct.Pull = GPIO_NOPULL;
 381              		.loc 1 225 24 view .LVU134
 382 00c0 CDE90723 		strd	r2, r3, [sp, #28]
 226:d:\fchai\work\i-cube\i-cube-huawei\projects\nucleo-l496zg\applications\cloud\mqtt-ota\src\main.c ****   HAL_GPIO_Init(B1_GPIO_Port, &GPIO_InitStruct);
 383              		.loc 1 226 3 is_stmt 1 view .LVU135
 227:d:\fchai\work\i-cube\i-cube-huawei\projects\nucleo-l496zg\applications\cloud\mqtt-ota\src\main.c **** 
 384              		.loc 1 227 3 view .LVU136
 231:d:\fchai\work\i-cube\i-cube-huawei\projects\nucleo-l496zg\applications\cloud\mqtt-ota\src\main.c ****   GPIO_InitStruct.Pull = GPIO_PULLUP;
 385              		.loc 1 231 24 is_stmt 0 view .LVU137
 386 00c4 0125     		movs	r5, #1
 227:d:\fchai\work\i-cube\i-cube-huawei\projects\nucleo-l496zg\applications\cloud\mqtt-ota\src\main.c **** 
 387              		.loc 1 227 3 view .LVU138
 388 00c6 FFF7FEFF 		bl	HAL_GPIO_Init
 389              	.LVL13:
 230:d:\fchai\work\i-cube\i-cube-huawei\projects\nucleo-l496zg\applications\cloud\mqtt-ota\src\main.c ****   GPIO_InitStruct.Mode = GPIO_MODE_OUTPUT_PP;
 390              		.loc 1 230 3 is_stmt 1 view .LVU139
 234:d:\fchai\work\i-cube\i-cube-huawei\projects\nucleo-l496zg\applications\cloud\mqtt-ota\src\main.c **** 
 391              		.loc 1 234 3 is_stmt 0 view .LVU140
 392 00ca 07A9     		add	r1, sp, #28
 230:d:\fchai\work\i-cube\i-cube-huawei\projects\nucleo-l496zg\applications\cloud\mqtt-ota\src\main.c ****   GPIO_InitStruct.Mode = GPIO_MODE_OUTPUT_PP;
 393              		.loc 1 230 23 view .LVU141
 394 00cc 0823     		movs	r3, #8
 234:d:\fchai\work\i-cube\i-cube-huawei\projects\nucleo-l496zg\applications\cloud\mqtt-ota\src\main.c **** 
 395              		.loc 1 234 3 view .LVU142
ARM GAS  T:\msys\tmp\cc2ULPC0.s 			page 15


 396 00ce 4FF09040 		mov	r0, #1207959552
 231:d:\fchai\work\i-cube\i-cube-huawei\projects\nucleo-l496zg\applications\cloud\mqtt-ota\src\main.c ****   GPIO_InitStruct.Pull = GPIO_PULLUP;
 397              		.loc 1 231 24 view .LVU143
 398 00d2 CDE90735 		strd	r3, r5, [sp, #28]
 232:d:\fchai\work\i-cube\i-cube-huawei\projects\nucleo-l496zg\applications\cloud\mqtt-ota\src\main.c ****   GPIO_InitStruct.Speed = GPIO_SPEED_FREQ_MEDIUM;
 399              		.loc 1 232 3 is_stmt 1 view .LVU144
 233:d:\fchai\work\i-cube\i-cube-huawei\projects\nucleo-l496zg\applications\cloud\mqtt-ota\src\main.c ****   HAL_GPIO_Init(MODULE_POWER_ON_GPIO_Port, &GPIO_InitStruct);
 400              		.loc 1 233 25 is_stmt 0 view .LVU145
 401 00d6 CDE90955 		strd	r5, r5, [sp, #36]
 234:d:\fchai\work\i-cube\i-cube-huawei\projects\nucleo-l496zg\applications\cloud\mqtt-ota\src\main.c **** 
 402              		.loc 1 234 3 is_stmt 1 view .LVU146
 403 00da FFF7FEFF 		bl	HAL_GPIO_Init
 404              	.LVL14:
 237:d:\fchai\work\i-cube\i-cube-huawei\projects\nucleo-l496zg\applications\cloud\mqtt-ota\src\main.c ****   GPIO_InitStruct.Mode = GPIO_MODE_OUTPUT_PP;
 405              		.loc 1 237 3 view .LVU147
 241:d:\fchai\work\i-cube\i-cube-huawei\projects\nucleo-l496zg\applications\cloud\mqtt-ota\src\main.c **** 
 406              		.loc 1 241 3 is_stmt 0 view .LVU148
 407 00de 3846     		mov	r0, r7
 408 00e0 07A9     		add	r1, sp, #28
 237:d:\fchai\work\i-cube\i-cube-huawei\projects\nucleo-l496zg\applications\cloud\mqtt-ota\src\main.c ****   GPIO_InitStruct.Mode = GPIO_MODE_OUTPUT_PP;
 409              		.loc 1 237 23 view .LVU149
 410 00e2 4FF48143 		mov	r3, #16512
 239:d:\fchai\work\i-cube\i-cube-huawei\projects\nucleo-l496zg\applications\cloud\mqtt-ota\src\main.c ****   GPIO_InitStruct.Speed = GPIO_SPEED_FREQ_LOW;
 411              		.loc 1 239 24 view .LVU150
 412 00e6 CDE90854 		strd	r5, r4, [sp, #32]
 237:d:\fchai\work\i-cube\i-cube-huawei\projects\nucleo-l496zg\applications\cloud\mqtt-ota\src\main.c ****   GPIO_InitStruct.Mode = GPIO_MODE_OUTPUT_PP;
 413              		.loc 1 237 23 view .LVU151
 414 00ea 0793     		str	r3, [sp, #28]
 238:d:\fchai\work\i-cube\i-cube-huawei\projects\nucleo-l496zg\applications\cloud\mqtt-ota\src\main.c ****   GPIO_InitStruct.Pull = GPIO_NOPULL;
 415              		.loc 1 238 3 is_stmt 1 view .LVU152
 239:d:\fchai\work\i-cube\i-cube-huawei\projects\nucleo-l496zg\applications\cloud\mqtt-ota\src\main.c ****   GPIO_InitStruct.Speed = GPIO_SPEED_FREQ_LOW;
 416              		.loc 1 239 3 view .LVU153
 240:d:\fchai\work\i-cube\i-cube-huawei\projects\nucleo-l496zg\applications\cloud\mqtt-ota\src\main.c ****   HAL_GPIO_Init(GPIOB, &GPIO_InitStruct);
 417              		.loc 1 240 3 view .LVU154
 241:d:\fchai\work\i-cube\i-cube-huawei\projects\nucleo-l496zg\applications\cloud\mqtt-ota\src\main.c **** 
 418              		.loc 1 241 3 view .LVU155
 240:d:\fchai\work\i-cube\i-cube-huawei\projects\nucleo-l496zg\applications\cloud\mqtt-ota\src\main.c ****   HAL_GPIO_Init(GPIOB, &GPIO_InitStruct);
 419              		.loc 1 240 25 is_stmt 0 view .LVU156
 420 00ec 0A94     		str	r4, [sp, #40]
 241:d:\fchai\work\i-cube\i-cube-huawei\projects\nucleo-l496zg\applications\cloud\mqtt-ota\src\main.c **** 
 421              		.loc 1 241 3 view .LVU157
 422 00ee FFF7FEFF 		bl	HAL_GPIO_Init
 423              	.LVL15:
 244:d:\fchai\work\i-cube\i-cube-huawei\projects\nucleo-l496zg\applications\cloud\mqtt-ota\src\main.c ****   GPIO_InitStruct.Mode = GPIO_MODE_INPUT;
 424              		.loc 1 244 3 is_stmt 1 view .LVU158
 247:d:\fchai\work\i-cube\i-cube-huawei\projects\nucleo-l496zg\applications\cloud\mqtt-ota\src\main.c **** 
 425              		.loc 1 247 3 is_stmt 0 view .LVU159
 426 00f2 07A9     		add	r1, sp, #28
 427 00f4 3046     		mov	r0, r6
 244:d:\fchai\work\i-cube\i-cube-huawei\projects\nucleo-l496zg\applications\cloud\mqtt-ota\src\main.c ****   GPIO_InitStruct.Mode = GPIO_MODE_INPUT;
 428              		.loc 1 244 23 view .LVU160
 429 00f6 2023     		movs	r3, #32
 430 00f8 0793     		str	r3, [sp, #28]
 245:d:\fchai\work\i-cube\i-cube-huawei\projects\nucleo-l496zg\applications\cloud\mqtt-ota\src\main.c ****   GPIO_InitStruct.Pull = GPIO_NOPULL;
 431              		.loc 1 245 3 is_stmt 1 view .LVU161
 246:d:\fchai\work\i-cube\i-cube-huawei\projects\nucleo-l496zg\applications\cloud\mqtt-ota\src\main.c ****   HAL_GPIO_Init(USB_OverCurrent_GPIO_Port, &GPIO_InitStruct);
 432              		.loc 1 246 3 view .LVU162
ARM GAS  T:\msys\tmp\cc2ULPC0.s 			page 16


 247:d:\fchai\work\i-cube\i-cube-huawei\projects\nucleo-l496zg\applications\cloud\mqtt-ota\src\main.c **** 
 433              		.loc 1 247 3 view .LVU163
 246:d:\fchai\work\i-cube\i-cube-huawei\projects\nucleo-l496zg\applications\cloud\mqtt-ota\src\main.c ****   HAL_GPIO_Init(USB_OverCurrent_GPIO_Port, &GPIO_InitStruct);
 434              		.loc 1 246 24 is_stmt 0 view .LVU164
 435 00fa CDE90844 		strd	r4, r4, [sp, #32]
 247:d:\fchai\work\i-cube\i-cube-huawei\projects\nucleo-l496zg\applications\cloud\mqtt-ota\src\main.c **** 
 436              		.loc 1 247 3 view .LVU165
 437 00fe FFF7FEFF 		bl	HAL_GPIO_Init
 438              	.LVL16:
 250:d:\fchai\work\i-cube\i-cube-huawei\projects\nucleo-l496zg\applications\cloud\mqtt-ota\src\main.c ****   GPIO_InitStruct.Mode = GPIO_MODE_OUTPUT_PP;
 439              		.loc 1 250 3 is_stmt 1 view .LVU166
 254:d:\fchai\work\i-cube\i-cube-huawei\projects\nucleo-l496zg\applications\cloud\mqtt-ota\src\main.c **** 
 440              		.loc 1 254 3 is_stmt 0 view .LVU167
 441 0102 3046     		mov	r0, r6
 442 0104 07A9     		add	r1, sp, #28
 250:d:\fchai\work\i-cube\i-cube-huawei\projects\nucleo-l496zg\applications\cloud\mqtt-ota\src\main.c ****   GPIO_InitStruct.Mode = GPIO_MODE_OUTPUT_PP;
 443              		.loc 1 250 23 view .LVU168
 444 0106 4023     		movs	r3, #64
 252:d:\fchai\work\i-cube\i-cube-huawei\projects\nucleo-l496zg\applications\cloud\mqtt-ota\src\main.c ****   GPIO_InitStruct.Speed = GPIO_SPEED_FREQ_LOW;
 445              		.loc 1 252 24 view .LVU169
 446 0108 CDE90854 		strd	r5, r4, [sp, #32]
 250:d:\fchai\work\i-cube\i-cube-huawei\projects\nucleo-l496zg\applications\cloud\mqtt-ota\src\main.c ****   GPIO_InitStruct.Mode = GPIO_MODE_OUTPUT_PP;
 447              		.loc 1 250 23 view .LVU170
 448 010c 0793     		str	r3, [sp, #28]
 251:d:\fchai\work\i-cube\i-cube-huawei\projects\nucleo-l496zg\applications\cloud\mqtt-ota\src\main.c ****   GPIO_InitStruct.Pull = GPIO_NOPULL;
 449              		.loc 1 251 3 is_stmt 1 view .LVU171
 252:d:\fchai\work\i-cube\i-cube-huawei\projects\nucleo-l496zg\applications\cloud\mqtt-ota\src\main.c ****   GPIO_InitStruct.Speed = GPIO_SPEED_FREQ_LOW;
 450              		.loc 1 252 3 view .LVU172
 253:d:\fchai\work\i-cube\i-cube-huawei\projects\nucleo-l496zg\applications\cloud\mqtt-ota\src\main.c ****   HAL_GPIO_Init(USB_PowerSwitchOn_GPIO_Port, &GPIO_InitStruct);
 451              		.loc 1 253 3 view .LVU173
 254:d:\fchai\work\i-cube\i-cube-huawei\projects\nucleo-l496zg\applications\cloud\mqtt-ota\src\main.c **** 
 452              		.loc 1 254 3 view .LVU174
 253:d:\fchai\work\i-cube\i-cube-huawei\projects\nucleo-l496zg\applications\cloud\mqtt-ota\src\main.c ****   HAL_GPIO_Init(USB_PowerSwitchOn_GPIO_Port, &GPIO_InitStruct);
 453              		.loc 1 253 25 is_stmt 0 view .LVU175
 454 010e 0A94     		str	r4, [sp, #40]
 257:d:\fchai\work\i-cube\i-cube-huawei\projects\nucleo-l496zg\applications\cloud\mqtt-ota\src\main.c ****   GPIO_InitStruct.Mode = GPIO_MODE_AF_PP;
 455              		.loc 1 257 23 view .LVU176
 456 0110 4FF4E856 		mov	r6, #7424
 254:d:\fchai\work\i-cube\i-cube-huawei\projects\nucleo-l496zg\applications\cloud\mqtt-ota\src\main.c **** 
 457              		.loc 1 254 3 view .LVU177
 458 0114 FFF7FEFF 		bl	HAL_GPIO_Init
 459              	.LVL17:
 257:d:\fchai\work\i-cube\i-cube-huawei\projects\nucleo-l496zg\applications\cloud\mqtt-ota\src\main.c ****   GPIO_InitStruct.Mode = GPIO_MODE_AF_PP;
 460              		.loc 1 257 3 is_stmt 1 view .LVU178
 258:d:\fchai\work\i-cube\i-cube-huawei\projects\nucleo-l496zg\applications\cloud\mqtt-ota\src\main.c ****   GPIO_InitStruct.Pull = GPIO_NOPULL;
 461              		.loc 1 258 24 is_stmt 0 view .LVU179
 462 0118 0225     		movs	r5, #2
 260:d:\fchai\work\i-cube\i-cube-huawei\projects\nucleo-l496zg\applications\cloud\mqtt-ota\src\main.c ****   GPIO_InitStruct.Alternate = GPIO_AF10_OTG_FS;
 463              		.loc 1 260 25 view .LVU180
 464 011a 0322     		movs	r2, #3
 262:d:\fchai\work\i-cube\i-cube-huawei\projects\nucleo-l496zg\applications\cloud\mqtt-ota\src\main.c **** 
 465              		.loc 1 262 3 view .LVU181
 466 011c 07A9     		add	r1, sp, #28
 261:d:\fchai\work\i-cube\i-cube-huawei\projects\nucleo-l496zg\applications\cloud\mqtt-ota\src\main.c ****   HAL_GPIO_Init(GPIOA, &GPIO_InitStruct);
 467              		.loc 1 261 29 view .LVU182
 468 011e 0A23     		movs	r3, #10
 262:d:\fchai\work\i-cube\i-cube-huawei\projects\nucleo-l496zg\applications\cloud\mqtt-ota\src\main.c **** 
ARM GAS  T:\msys\tmp\cc2ULPC0.s 			page 17


 469              		.loc 1 262 3 view .LVU183
 470 0120 4FF09040 		mov	r0, #1207959552
 261:d:\fchai\work\i-cube\i-cube-huawei\projects\nucleo-l496zg\applications\cloud\mqtt-ota\src\main.c ****   HAL_GPIO_Init(GPIOA, &GPIO_InitStruct);
 471              		.loc 1 261 29 view .LVU184
 472 0124 CDE90A23 		strd	r2, r3, [sp, #40]
 258:d:\fchai\work\i-cube\i-cube-huawei\projects\nucleo-l496zg\applications\cloud\mqtt-ota\src\main.c ****   GPIO_InitStruct.Pull = GPIO_NOPULL;
 473              		.loc 1 258 24 view .LVU185
 474 0128 CDE90765 		strd	r6, r5, [sp, #28]
 259:d:\fchai\work\i-cube\i-cube-huawei\projects\nucleo-l496zg\applications\cloud\mqtt-ota\src\main.c ****   GPIO_InitStruct.Speed = GPIO_SPEED_FREQ_VERY_HIGH;
 475              		.loc 1 259 3 is_stmt 1 view .LVU186
 260:d:\fchai\work\i-cube\i-cube-huawei\projects\nucleo-l496zg\applications\cloud\mqtt-ota\src\main.c ****   GPIO_InitStruct.Alternate = GPIO_AF10_OTG_FS;
 476              		.loc 1 260 3 view .LVU187
 262:d:\fchai\work\i-cube\i-cube-huawei\projects\nucleo-l496zg\applications\cloud\mqtt-ota\src\main.c **** 
 477              		.loc 1 262 3 view .LVU188
 259:d:\fchai\work\i-cube\i-cube-huawei\projects\nucleo-l496zg\applications\cloud\mqtt-ota\src\main.c ****   GPIO_InitStruct.Speed = GPIO_SPEED_FREQ_VERY_HIGH;
 478              		.loc 1 259 24 is_stmt 0 view .LVU189
 479 012c 0994     		str	r4, [sp, #36]
 262:d:\fchai\work\i-cube\i-cube-huawei\projects\nucleo-l496zg\applications\cloud\mqtt-ota\src\main.c **** 
 480              		.loc 1 262 3 view .LVU190
 481 012e FFF7FEFF 		bl	HAL_GPIO_Init
 482              	.LVL18:
 483              	.LBE36:
 484              	.LBE37:
  24:D:/fchai/work/i-cube/I-CUBE-HUAWEI/Projects/NUCLEO-L496ZG/Applications/Cloud/mqtt-ota\board.c ****     MX_LPUART1_UART_Init();
 485              		.loc 2 24 5 is_stmt 1 view .LVU191
 486              	.LBB38:
 487              	.LBI38:
 132:d:\fchai\work\i-cube\i-cube-huawei\projects\nucleo-l496zg\applications\cloud\mqtt-ota\src\main.c **** {
 488              		.loc 1 132 13 view .LVU192
 489              	.LBB39:
 142:d:\fchai\work\i-cube\i-cube-huawei\projects\nucleo-l496zg\applications\cloud\mqtt-ota\src\main.c ****   hlpuart1.Init.BaudRate = 115200;
 490              		.loc 1 142 3 view .LVU193
 142:d:\fchai\work\i-cube\i-cube-huawei\projects\nucleo-l496zg\applications\cloud\mqtt-ota\src\main.c ****   hlpuart1.Init.BaudRate = 115200;
 491              		.loc 1 142 21 is_stmt 0 view .LVU194
 492 0132 1548     		ldr	r0, .L7+20
 493 0134 154B     		ldr	r3, .L7+24
 144:d:\fchai\work\i-cube\i-cube-huawei\projects\nucleo-l496zg\applications\cloud\mqtt-ota\src\main.c ****   hlpuart1.Init.StopBits = UART_STOPBITS_1;
 494              		.loc 1 144 28 view .LVU195
 495 0136 8460     		str	r4, [r0, #8]
 143:d:\fchai\work\i-cube\i-cube-huawei\projects\nucleo-l496zg\applications\cloud\mqtt-ota\src\main.c ****   hlpuart1.Init.WordLength = UART_WORDLENGTH_8B;
 496              		.loc 1 143 26 view .LVU196
 497 0138 4FF4E136 		mov	r6, #115200
 147:d:\fchai\work\i-cube\i-cube-huawei\projects\nucleo-l496zg\applications\cloud\mqtt-ota\src\main.c ****   hlpuart1.Init.HwFlowCtl = UART_HWCONTROL_NONE;
 498              		.loc 1 147 22 view .LVU197
 499 013c 0C25     		movs	r5, #12
 143:d:\fchai\work\i-cube\i-cube-huawei\projects\nucleo-l496zg\applications\cloud\mqtt-ota\src\main.c ****   hlpuart1.Init.WordLength = UART_WORDLENGTH_8B;
 500              		.loc 1 143 26 view .LVU198
 501 013e C0E90036 		strd	r3, r6, [r0]
 144:d:\fchai\work\i-cube\i-cube-huawei\projects\nucleo-l496zg\applications\cloud\mqtt-ota\src\main.c ****   hlpuart1.Init.StopBits = UART_STOPBITS_1;
 502              		.loc 1 144 3 is_stmt 1 view .LVU199
 145:d:\fchai\work\i-cube\i-cube-huawei\projects\nucleo-l496zg\applications\cloud\mqtt-ota\src\main.c ****   hlpuart1.Init.Parity = UART_PARITY_NONE;
 503              		.loc 1 145 3 view .LVU200
 146:d:\fchai\work\i-cube\i-cube-huawei\projects\nucleo-l496zg\applications\cloud\mqtt-ota\src\main.c ****   hlpuart1.Init.Mode = UART_MODE_TX_RX;
 504              		.loc 1 146 3 view .LVU201
 147:d:\fchai\work\i-cube\i-cube-huawei\projects\nucleo-l496zg\applications\cloud\mqtt-ota\src\main.c ****   hlpuart1.Init.HwFlowCtl = UART_HWCONTROL_NONE;
 505              		.loc 1 147 3 view .LVU202
 146:d:\fchai\work\i-cube\i-cube-huawei\projects\nucleo-l496zg\applications\cloud\mqtt-ota\src\main.c ****   hlpuart1.Init.Mode = UART_MODE_TX_RX;
ARM GAS  T:\msys\tmp\cc2ULPC0.s 			page 18


 506              		.loc 1 146 24 is_stmt 0 view .LVU203
 507 0142 C0E90344 		strd	r4, r4, [r0, #12]
 150:d:\fchai\work\i-cube\i-cube-huawei\projects\nucleo-l496zg\applications\cloud\mqtt-ota\src\main.c ****   if (HAL_UART_Init(&hlpuart1) != HAL_OK)
 508              		.loc 1 150 40 view .LVU204
 509 0146 C0E90844 		strd	r4, r4, [r0, #32]
 148:d:\fchai\work\i-cube\i-cube-huawei\projects\nucleo-l496zg\applications\cloud\mqtt-ota\src\main.c ****   hlpuart1.Init.OneBitSampling = UART_ONE_BIT_SAMPLE_DISABLE;
 510              		.loc 1 148 27 view .LVU205
 511 014a 8461     		str	r4, [r0, #24]
 147:d:\fchai\work\i-cube\i-cube-huawei\projects\nucleo-l496zg\applications\cloud\mqtt-ota\src\main.c ****   hlpuart1.Init.HwFlowCtl = UART_HWCONTROL_NONE;
 512              		.loc 1 147 22 view .LVU206
 513 014c 4561     		str	r5, [r0, #20]
 148:d:\fchai\work\i-cube\i-cube-huawei\projects\nucleo-l496zg\applications\cloud\mqtt-ota\src\main.c ****   hlpuart1.Init.OneBitSampling = UART_ONE_BIT_SAMPLE_DISABLE;
 514              		.loc 1 148 3 is_stmt 1 view .LVU207
 149:d:\fchai\work\i-cube\i-cube-huawei\projects\nucleo-l496zg\applications\cloud\mqtt-ota\src\main.c ****   hlpuart1.AdvancedInit.AdvFeatureInit = UART_ADVFEATURE_NO_INIT;
 515              		.loc 1 149 3 view .LVU208
 150:d:\fchai\work\i-cube\i-cube-huawei\projects\nucleo-l496zg\applications\cloud\mqtt-ota\src\main.c ****   if (HAL_UART_Init(&hlpuart1) != HAL_OK)
 516              		.loc 1 150 3 view .LVU209
 151:d:\fchai\work\i-cube\i-cube-huawei\projects\nucleo-l496zg\applications\cloud\mqtt-ota\src\main.c ****   {
 517              		.loc 1 151 3 view .LVU210
 151:d:\fchai\work\i-cube\i-cube-huawei\projects\nucleo-l496zg\applications\cloud\mqtt-ota\src\main.c ****   {
 518              		.loc 1 151 7 is_stmt 0 view .LVU211
 519 014e FFF7FEFF 		bl	HAL_UART_Init
 520              	.LVL19:
 521              	.LBE39:
 522              	.LBE38:
  25:D:/fchai/work/i-cube/I-CUBE-HUAWEI/Projects/NUCLEO-L496ZG/Applications/Cloud/mqtt-ota\board.c ****     MX_USART3_UART_Init();
 523              		.loc 2 25 5 is_stmt 1 view .LVU212
 524              	.LBB40:
 525              	.LBI40:
 166:d:\fchai\work\i-cube\i-cube-huawei\projects\nucleo-l496zg\applications\cloud\mqtt-ota\src\main.c **** {
 526              		.loc 1 166 13 view .LVU213
 527              	.LBB41:
 176:d:\fchai\work\i-cube\i-cube-huawei\projects\nucleo-l496zg\applications\cloud\mqtt-ota\src\main.c ****   huart3.Init.BaudRate = 115200;
 528              		.loc 1 176 3 view .LVU214
 176:d:\fchai\work\i-cube\i-cube-huawei\projects\nucleo-l496zg\applications\cloud\mqtt-ota\src\main.c ****   huart3.Init.BaudRate = 115200;
 529              		.loc 1 176 19 is_stmt 0 view .LVU215
 530 0152 0F48     		ldr	r0, .L7+28
 531 0154 0F4B     		ldr	r3, .L7+32
 185:d:\fchai\work\i-cube\i-cube-huawei\projects\nucleo-l496zg\applications\cloud\mqtt-ota\src\main.c ****   if (HAL_UART_Init(&huart3) != HAL_OK)
 532              		.loc 1 185 38 view .LVU216
 533 0156 4462     		str	r4, [r0, #36]
 178:d:\fchai\work\i-cube\i-cube-huawei\projects\nucleo-l496zg\applications\cloud\mqtt-ota\src\main.c ****   huart3.Init.StopBits = UART_STOPBITS_1;
 534              		.loc 1 178 26 view .LVU217
 535 0158 C0E90164 		strd	r6, r4, [r0, #4]
 180:d:\fchai\work\i-cube\i-cube-huawei\projects\nucleo-l496zg\applications\cloud\mqtt-ota\src\main.c ****   huart3.Init.Mode = UART_MODE_TX_RX;
 536              		.loc 1 180 22 view .LVU218
 537 015c C0E90344 		strd	r4, r4, [r0, #12]
 182:d:\fchai\work\i-cube\i-cube-huawei\projects\nucleo-l496zg\applications\cloud\mqtt-ota\src\main.c ****   huart3.Init.OverSampling = UART_OVERSAMPLING_16;
 538              		.loc 1 182 25 view .LVU219
 539 0160 C0E90554 		strd	r5, r4, [r0, #20]
 184:d:\fchai\work\i-cube\i-cube-huawei\projects\nucleo-l496zg\applications\cloud\mqtt-ota\src\main.c ****   huart3.AdvancedInit.AdvFeatureInit = UART_ADVFEATURE_NO_INIT;
 540              		.loc 1 184 30 view .LVU220
 541 0164 C0E90744 		strd	r4, r4, [r0, #28]
 176:d:\fchai\work\i-cube\i-cube-huawei\projects\nucleo-l496zg\applications\cloud\mqtt-ota\src\main.c ****   huart3.Init.BaudRate = 115200;
 542              		.loc 1 176 19 view .LVU221
 543 0168 0360     		str	r3, [r0]
 177:d:\fchai\work\i-cube\i-cube-huawei\projects\nucleo-l496zg\applications\cloud\mqtt-ota\src\main.c ****   huart3.Init.WordLength = UART_WORDLENGTH_8B;
ARM GAS  T:\msys\tmp\cc2ULPC0.s 			page 19


 544              		.loc 1 177 3 is_stmt 1 view .LVU222
 178:d:\fchai\work\i-cube\i-cube-huawei\projects\nucleo-l496zg\applications\cloud\mqtt-ota\src\main.c ****   huart3.Init.StopBits = UART_STOPBITS_1;
 545              		.loc 1 178 3 view .LVU223
 179:d:\fchai\work\i-cube\i-cube-huawei\projects\nucleo-l496zg\applications\cloud\mqtt-ota\src\main.c ****   huart3.Init.Parity = UART_PARITY_NONE;
 546              		.loc 1 179 3 view .LVU224
 180:d:\fchai\work\i-cube\i-cube-huawei\projects\nucleo-l496zg\applications\cloud\mqtt-ota\src\main.c ****   huart3.Init.Mode = UART_MODE_TX_RX;
 547              		.loc 1 180 3 view .LVU225
 181:d:\fchai\work\i-cube\i-cube-huawei\projects\nucleo-l496zg\applications\cloud\mqtt-ota\src\main.c ****   huart3.Init.HwFlowCtl = UART_HWCONTROL_NONE;
 548              		.loc 1 181 3 view .LVU226
 182:d:\fchai\work\i-cube\i-cube-huawei\projects\nucleo-l496zg\applications\cloud\mqtt-ota\src\main.c ****   huart3.Init.OverSampling = UART_OVERSAMPLING_16;
 549              		.loc 1 182 3 view .LVU227
 183:d:\fchai\work\i-cube\i-cube-huawei\projects\nucleo-l496zg\applications\cloud\mqtt-ota\src\main.c ****   huart3.Init.OneBitSampling = UART_ONE_BIT_SAMPLE_DISABLE;
 550              		.loc 1 183 3 view .LVU228
 184:d:\fchai\work\i-cube\i-cube-huawei\projects\nucleo-l496zg\applications\cloud\mqtt-ota\src\main.c ****   huart3.AdvancedInit.AdvFeatureInit = UART_ADVFEATURE_NO_INIT;
 551              		.loc 1 184 3 view .LVU229
 185:d:\fchai\work\i-cube\i-cube-huawei\projects\nucleo-l496zg\applications\cloud\mqtt-ota\src\main.c ****   if (HAL_UART_Init(&huart3) != HAL_OK)
 552              		.loc 1 185 3 view .LVU230
 186:d:\fchai\work\i-cube\i-cube-huawei\projects\nucleo-l496zg\applications\cloud\mqtt-ota\src\main.c ****   {
 553              		.loc 1 186 3 view .LVU231
 186:d:\fchai\work\i-cube\i-cube-huawei\projects\nucleo-l496zg\applications\cloud\mqtt-ota\src\main.c ****   {
 554              		.loc 1 186 7 is_stmt 0 view .LVU232
 555 016a FFF7FEFF 		bl	HAL_UART_Init
 556              	.LVL20:
 557              	.LBE41:
 558              	.LBE40:
  26:D:/fchai/work/i-cube/I-CUBE-HUAWEI/Projects/NUCLEO-L496ZG/Applications/Cloud/mqtt-ota\board.c **** 
  27:D:/fchai/work/i-cube/I-CUBE-HUAWEI/Projects/NUCLEO-L496ZG/Applications/Cloud/mqtt-ota\board.c ****     return 0;
 559              		.loc 2 27 5 is_stmt 1 view .LVU233
  28:D:/fchai/work/i-cube/I-CUBE-HUAWEI/Projects/NUCLEO-L496ZG/Applications/Cloud/mqtt-ota\board.c ****     }
 560              		.loc 2 28 5 is_stmt 0 view .LVU234
 561 016e 2046     		mov	r0, r4
 562 0170 0DB0     		add	sp, sp, #52
 563              	.LCFI5:
 564              		.cfi_def_cfa_offset 20
 565              		@ sp needed
 566 0172 F0BD     		pop	{r4, r5, r6, r7, pc}
 567              	.L8:
 568              		.align	2
 569              	.L7:
 570 0174 00100240 		.word	1073876992
 571 0178 00040048 		.word	1207960576
 572 017c 00180048 		.word	1207965696
 573 0180 00001110 		.word	269549568
 574 0184 00080048 		.word	1207961600
 575 0188 00000000 		.word	hlpuart1
 576 018c 00800040 		.word	1073774592
 577 0190 00000000 		.word	huart3
 578 0194 00480040 		.word	1073760256
 579              		.cfi_endproc
 580              	.LFE128:
 582              		.comm	huart3,128,4
 583              		.comm	hlpuart1,128,4
 584              		.text
 585              	.Letext0:
 586              		.file 3 "t:\\msys\\3rd\\gcc-arm-none-eabi-9-2020-q2-update-win32\\arm-none-eabi\\include\\machine\
 587              		.file 4 "t:\\msys\\3rd\\gcc-arm-none-eabi-9-2020-q2-update-win32\\arm-none-eabi\\include\\sys\\_st
 588              		.file 5 "D:/fchai/work/i-cube/I-CUBE-HUAWEI/Middlewares/Third_Party/Huawei/iot_link/os/liteos/arch
ARM GAS  T:\msys\tmp\cc2ULPC0.s 			page 20


 589              		.file 6 "D:/fchai/work/i-cube/I-CUBE-HUAWEI/Drivers/CMSIS/Device/ST/STM32L4xx/Include/system_stm32
 590              		.file 7 "D:/fchai/work/i-cube/I-CUBE-HUAWEI/Drivers/CMSIS/Device/ST/STM32L4xx/Include/stm32l496xx.
 591              		.file 8 "D:/fchai/work/i-cube/I-CUBE-HUAWEI/Drivers/STM32L4xx_HAL_Driver/Inc/stm32l4xx_hal_def.h"
 592              		.file 9 "D:/fchai/work/i-cube/I-CUBE-HUAWEI/Drivers/STM32L4xx_HAL_Driver/Inc/stm32l4xx_hal_rcc.h"
 593              		.file 10 "D:/fchai/work/i-cube/I-CUBE-HUAWEI/Drivers/STM32L4xx_HAL_Driver/Inc/stm32l4xx_hal_rcc_ex
 594              		.file 11 "D:/fchai/work/i-cube/I-CUBE-HUAWEI/Drivers/STM32L4xx_HAL_Driver/Inc/stm32l4xx_hal_gpio.h
 595              		.file 12 "D:/fchai/work/i-cube/I-CUBE-HUAWEI/Drivers/STM32L4xx_HAL_Driver/Inc/stm32l4xx_hal_dma.h"
 596              		.file 13 "D:/fchai/work/i-cube/I-CUBE-HUAWEI/Drivers/STM32L4xx_HAL_Driver/Inc/stm32l4xx_hal_flash.
 597              		.file 14 "D:/fchai/work/i-cube/I-CUBE-HUAWEI/Drivers/STM32L4xx_HAL_Driver/Inc/stm32l4xx_hal_uart.h
 598              		.file 15 "D:/fchai/work/i-cube/I-CUBE-HUAWEI/Drivers/STM32L4xx_HAL_Driver/Inc/stm32l4xx_hal.h"
 599              		.file 16 "D:/fchai/work/i-cube/I-CUBE-HUAWEI/Drivers/STM32L4xx_HAL_Driver/Inc/stm32l4xx_hal_pwr_ex
 600              		.file 17 "<built-in>"
ARM GAS  T:\msys\tmp\cc2ULPC0.s 			page 21

