ARM GAS  T:\msys\tmp\cckeAxp2.s 			page 1


   1              		.cpu cortex-m4
   2              		.eabi_attribute 27, 1
   3              		.eabi_attribute 28, 1
   4              		.eabi_attribute 20, 1
   5              		.eabi_attribute 21, 1
   6              		.eabi_attribute 23, 3
   7              		.eabi_attribute 24, 1
   8              		.eabi_attribute 25, 1
   9              		.eabi_attribute 26, 1
  10              		.eabi_attribute 30, 2
  11              		.eabi_attribute 34, 1
  12              		.eabi_attribute 18, 4
  13              		.file	"oc_demo.c"
  14              		.text
  15              	.Ltext0:
  16              		.cfi_sections	.debug_frame
  17              		.section	.rodata.oc_report_upgraderet.str1.4,"aMS",%progbits,1
  18              		.align	2
  19              	.LC0:
  20 0000 7B202273 		.ascii	"{ \"services\": [{ \"service_id\": \"$ota\", \"even"
  20      65727669 
  20      63657322 
  20      3A205B7B 
  20      20227365 
  21 002c 745F7479 		.ascii	"t_type\": \"upgrade_progress_report\", \"paras\": {"
  21      7065223A 
  21      20227570 
  21      67726164 
  21      655F7072 
  22 005a 20227265 		.ascii	" \"result_code\":%d,\"version\":\"%s\" } }]}\000"
  22      73756C74 
  22      5F636F64 
  22      65223A25 
  22      642C2276 
  23 0081 000000   		.align	2
  24              	.LC1:
  25 0084 5B25735D 		.ascii	"[%s][%u][%s] REPORT:UPGRADERET:%s\015\012\000"
  25      5B25755D 
  25      5B25735D 
  25      20524550 
  25      4F52543A 
  26              		.align	2
  27              	.LC2:
  28 00a8 246F632F 		.ascii	"$oc/devices/5ee96dbf75a46602c838f9a8_202006170937/s"
  28      64657669 
  28      6365732F 
  28      35656539 
  28      36646266 
  29 00db 79732F65 		.ascii	"ys/events/up\000"
  29      76656E74 
  29      732F7570 
  29      00
  30              		.section	.text.oc_report_upgraderet,"ax",%progbits
  31              		.align	1
  32              		.p2align 2,,3
  33              		.arch armv7e-m
  34              		.syntax unified
ARM GAS  T:\msys\tmp\cckeAxp2.s 			page 2


  35              		.thumb
  36              		.thumb_func
  37              		.fpu fpv4-sp-d16
  39              	oc_report_upgraderet:
  40              	.LVL0:
  41              	.LFB5:
  42              		.file 1 "D:/fchai/work/i-cube/I-CUBE-HUAWEI/Projects/NUCLEO-L496ZG/Applications/Cloud/mqtt-ota/oc_
   1:D:/fchai/work/i-cube/I-CUBE-HUAWEI/Projects/NUCLEO-L496ZG/Applications/Cloud/mqtt-ota\oc_demo.c **** /*----------------------------------------------------------------------------
   2:D:/fchai/work/i-cube/I-CUBE-HUAWEI/Projects/NUCLEO-L496ZG/Applications/Cloud/mqtt-ota\oc_demo.c ****  * Copyright (c) <2018>, <Huawei Technologies Co., Ltd>
   3:D:/fchai/work/i-cube/I-CUBE-HUAWEI/Projects/NUCLEO-L496ZG/Applications/Cloud/mqtt-ota\oc_demo.c ****  * All rights reserved.
   4:D:/fchai/work/i-cube/I-CUBE-HUAWEI/Projects/NUCLEO-L496ZG/Applications/Cloud/mqtt-ota\oc_demo.c ****  * Redistribution and use in source and binary forms, with or without modification,
   5:D:/fchai/work/i-cube/I-CUBE-HUAWEI/Projects/NUCLEO-L496ZG/Applications/Cloud/mqtt-ota\oc_demo.c ****  * are permitted provided that the following conditions are met:
   6:D:/fchai/work/i-cube/I-CUBE-HUAWEI/Projects/NUCLEO-L496ZG/Applications/Cloud/mqtt-ota\oc_demo.c ****  * 1. Redistributions of source code must retain the above copyright notice, this list of
   7:D:/fchai/work/i-cube/I-CUBE-HUAWEI/Projects/NUCLEO-L496ZG/Applications/Cloud/mqtt-ota\oc_demo.c ****  * conditions and the following disclaimer.
   8:D:/fchai/work/i-cube/I-CUBE-HUAWEI/Projects/NUCLEO-L496ZG/Applications/Cloud/mqtt-ota\oc_demo.c ****  * 2. Redistributions in binary form must reproduce the above copyright notice, this list
   9:D:/fchai/work/i-cube/I-CUBE-HUAWEI/Projects/NUCLEO-L496ZG/Applications/Cloud/mqtt-ota\oc_demo.c ****  * of conditions and the following disclaimer in the documentation and/or other materials
  10:D:/fchai/work/i-cube/I-CUBE-HUAWEI/Projects/NUCLEO-L496ZG/Applications/Cloud/mqtt-ota\oc_demo.c ****  * provided with the distribution.
  11:D:/fchai/work/i-cube/I-CUBE-HUAWEI/Projects/NUCLEO-L496ZG/Applications/Cloud/mqtt-ota\oc_demo.c ****  * 3. Neither the name of the copyright holder nor the names of its contributors may be used
  12:D:/fchai/work/i-cube/I-CUBE-HUAWEI/Projects/NUCLEO-L496ZG/Applications/Cloud/mqtt-ota\oc_demo.c ****  * to endorse or promote products derived from this software without specific prior written
  13:D:/fchai/work/i-cube/I-CUBE-HUAWEI/Projects/NUCLEO-L496ZG/Applications/Cloud/mqtt-ota\oc_demo.c ****  * permission.
  14:D:/fchai/work/i-cube/I-CUBE-HUAWEI/Projects/NUCLEO-L496ZG/Applications/Cloud/mqtt-ota\oc_demo.c ****  * THIS SOFTWARE IS PROVIDED BY THE COPYRIGHT HOLDERS AND CONTRIBUTORS
  15:D:/fchai/work/i-cube/I-CUBE-HUAWEI/Projects/NUCLEO-L496ZG/Applications/Cloud/mqtt-ota\oc_demo.c ****  * "AS IS" AND ANY EXPRESS OR IMPLIED WARRANTIES, INCLUDING, BUT NOT LIMITED TO,
  16:D:/fchai/work/i-cube/I-CUBE-HUAWEI/Projects/NUCLEO-L496ZG/Applications/Cloud/mqtt-ota\oc_demo.c ****  * THE IMPLIED WARRANTIES OF MERCHANTABILITY AND FITNESS FOR A PARTICULAR
  17:D:/fchai/work/i-cube/I-CUBE-HUAWEI/Projects/NUCLEO-L496ZG/Applications/Cloud/mqtt-ota\oc_demo.c ****  * PURPOSE ARE DISCLAIMED. IN NO EVENT SHALL THE COPYRIGHT HOLDER OR
  18:D:/fchai/work/i-cube/I-CUBE-HUAWEI/Projects/NUCLEO-L496ZG/Applications/Cloud/mqtt-ota\oc_demo.c ****  * CONTRIBUTORS BE LIABLE FOR ANY DIRECT, INDIRECT, INCIDENTAL, SPECIAL,
  19:D:/fchai/work/i-cube/I-CUBE-HUAWEI/Projects/NUCLEO-L496ZG/Applications/Cloud/mqtt-ota\oc_demo.c ****  * EXEMPLARY, OR CONSEQUENTIAL DAMAGES (INCLUDING, BUT NOT LIMITED TO,
  20:D:/fchai/work/i-cube/I-CUBE-HUAWEI/Projects/NUCLEO-L496ZG/Applications/Cloud/mqtt-ota\oc_demo.c ****  * PROCUREMENT OF SUBSTITUTE GOODS OR SERVICES; LOSS OF USE, DATA, OR PROFITS;
  21:D:/fchai/work/i-cube/I-CUBE-HUAWEI/Projects/NUCLEO-L496ZG/Applications/Cloud/mqtt-ota\oc_demo.c ****  * OR BUSINESS INTERRUPTION) HOWEVER CAUSED AND ON ANY THEORY OF LIABILITY,
  22:D:/fchai/work/i-cube/I-CUBE-HUAWEI/Projects/NUCLEO-L496ZG/Applications/Cloud/mqtt-ota\oc_demo.c ****  * WHETHER IN CONTRACT, STRICT LIABILITY, OR TORT (INCLUDING NEGLIGENCE OR
  23:D:/fchai/work/i-cube/I-CUBE-HUAWEI/Projects/NUCLEO-L496ZG/Applications/Cloud/mqtt-ota\oc_demo.c ****  * OTHERWISE) ARISING IN ANY WAY OUT OF THE USE OF THIS SOFTWARE, EVEN IF
  24:D:/fchai/work/i-cube/I-CUBE-HUAWEI/Projects/NUCLEO-L496ZG/Applications/Cloud/mqtt-ota\oc_demo.c ****  * ADVISED OF THE POSSIBILITY OF SUCH DAMAGE.
  25:D:/fchai/work/i-cube/I-CUBE-HUAWEI/Projects/NUCLEO-L496ZG/Applications/Cloud/mqtt-ota\oc_demo.c ****  *---------------------------------------------------------------------------*/
  26:D:/fchai/work/i-cube/I-CUBE-HUAWEI/Projects/NUCLEO-L496ZG/Applications/Cloud/mqtt-ota\oc_demo.c **** /*----------------------------------------------------------------------------
  27:D:/fchai/work/i-cube/I-CUBE-HUAWEI/Projects/NUCLEO-L496ZG/Applications/Cloud/mqtt-ota\oc_demo.c ****  * Notice of Export Control Law
  28:D:/fchai/work/i-cube/I-CUBE-HUAWEI/Projects/NUCLEO-L496ZG/Applications/Cloud/mqtt-ota\oc_demo.c ****  * ===============================================
  29:D:/fchai/work/i-cube/I-CUBE-HUAWEI/Projects/NUCLEO-L496ZG/Applications/Cloud/mqtt-ota\oc_demo.c ****  * Huawei LiteOS may be subject to applicable export control laws and regulations, which might
  30:D:/fchai/work/i-cube/I-CUBE-HUAWEI/Projects/NUCLEO-L496ZG/Applications/Cloud/mqtt-ota\oc_demo.c ****  * include those applicable to Huawei LiteOS of U.S. and the country in which you are located.
  31:D:/fchai/work/i-cube/I-CUBE-HUAWEI/Projects/NUCLEO-L496ZG/Applications/Cloud/mqtt-ota\oc_demo.c ****  * Import, export and usage of Huawei LiteOS in any manner by you shall be in compliance with such
  32:D:/fchai/work/i-cube/I-CUBE-HUAWEI/Projects/NUCLEO-L496ZG/Applications/Cloud/mqtt-ota\oc_demo.c ****  * applicable export control laws and regulations.
  33:D:/fchai/work/i-cube/I-CUBE-HUAWEI/Projects/NUCLEO-L496ZG/Applications/Cloud/mqtt-ota\oc_demo.c ****  *---------------------------------------------------------------------------*/
  34:D:/fchai/work/i-cube/I-CUBE-HUAWEI/Projects/NUCLEO-L496ZG/Applications/Cloud/mqtt-ota\oc_demo.c **** 
  35:D:/fchai/work/i-cube/I-CUBE-HUAWEI/Projects/NUCLEO-L496ZG/Applications/Cloud/mqtt-ota\oc_demo.c **** #include <stdint.h>
  36:D:/fchai/work/i-cube/I-CUBE-HUAWEI/Projects/NUCLEO-L496ZG/Applications/Cloud/mqtt-ota\oc_demo.c **** #include <stddef.h>
  37:D:/fchai/work/i-cube/I-CUBE-HUAWEI/Projects/NUCLEO-L496ZG/Applications/Cloud/mqtt-ota\oc_demo.c **** #include <stdbool.h>
  38:D:/fchai/work/i-cube/I-CUBE-HUAWEI/Projects/NUCLEO-L496ZG/Applications/Cloud/mqtt-ota\oc_demo.c **** #include <stdio.h>
  39:D:/fchai/work/i-cube/I-CUBE-HUAWEI/Projects/NUCLEO-L496ZG/Applications/Cloud/mqtt-ota\oc_demo.c **** #include <string.h>
  40:D:/fchai/work/i-cube/I-CUBE-HUAWEI/Projects/NUCLEO-L496ZG/Applications/Cloud/mqtt-ota\oc_demo.c **** #include <link_log.h>
  41:D:/fchai/work/i-cube/I-CUBE-HUAWEI/Projects/NUCLEO-L496ZG/Applications/Cloud/mqtt-ota\oc_demo.c **** #include <queue.h>
  42:D:/fchai/work/i-cube/I-CUBE-HUAWEI/Projects/NUCLEO-L496ZG/Applications/Cloud/mqtt-ota\oc_demo.c **** #include <oc_mqtt_al.h>
  43:D:/fchai/work/i-cube/I-CUBE-HUAWEI/Projects/NUCLEO-L496ZG/Applications/Cloud/mqtt-ota\oc_demo.c **** #include <oc_mqtt_profile.h>
  44:D:/fchai/work/i-cube/I-CUBE-HUAWEI/Projects/NUCLEO-L496ZG/Applications/Cloud/mqtt-ota\oc_demo.c **** #include <iot_config.h>
  45:D:/fchai/work/i-cube/I-CUBE-HUAWEI/Projects/NUCLEO-L496ZG/Applications/Cloud/mqtt-ota\oc_demo.c **** #include <oc_mqtt_event.h>
  46:D:/fchai/work/i-cube/I-CUBE-HUAWEI/Projects/NUCLEO-L496ZG/Applications/Cloud/mqtt-ota\oc_demo.c **** 
  47:D:/fchai/work/i-cube/I-CUBE-HUAWEI/Projects/NUCLEO-L496ZG/Applications/Cloud/mqtt-ota\oc_demo.c **** #include <app_x-cube-mems1.h>
  48:D:/fchai/work/i-cube/I-CUBE-HUAWEI/Projects/NUCLEO-L496ZG/Applications/Cloud/mqtt-ota\oc_demo.c **** 
  49:D:/fchai/work/i-cube/I-CUBE-HUAWEI/Projects/NUCLEO-L496ZG/Applications/Cloud/mqtt-ota\oc_demo.c **** #define CN_SERVER_IPV4                 "121.36.42.100"
  50:D:/fchai/work/i-cube/I-CUBE-HUAWEI/Projects/NUCLEO-L496ZG/Applications/Cloud/mqtt-ota\oc_demo.c **** #define CN_SERVER_PORT                 "1883"
ARM GAS  T:\msys\tmp\cckeAxp2.s 			page 3


  51:D:/fchai/work/i-cube/I-CUBE-HUAWEI/Projects/NUCLEO-L496ZG/Applications/Cloud/mqtt-ota\oc_demo.c **** #define CN_SECURITY_TYPE               EN_DTLS_AL_SECURITY_TYPE_NONE
  52:D:/fchai/work/i-cube/I-CUBE-HUAWEI/Projects/NUCLEO-L496ZG/Applications/Cloud/mqtt-ota\oc_demo.c **** 
  53:D:/fchai/work/i-cube/I-CUBE-HUAWEI/Projects/NUCLEO-L496ZG/Applications/Cloud/mqtt-ota\oc_demo.c **** #define CN_EP_DEVICEID                 CONFIG_MQTT_DEVID
  54:D:/fchai/work/i-cube/I-CUBE-HUAWEI/Projects/NUCLEO-L496ZG/Applications/Cloud/mqtt-ota\oc_demo.c **** #define CN_EP_PASSWD                   CONFIG_MQTT_PASSWD
  55:D:/fchai/work/i-cube/I-CUBE-HUAWEI/Projects/NUCLEO-L496ZG/Applications/Cloud/mqtt-ota\oc_demo.c **** 
  56:D:/fchai/work/i-cube/I-CUBE-HUAWEI/Projects/NUCLEO-L496ZG/Applications/Cloud/mqtt-ota\oc_demo.c **** #define CN_BOOT_MODE                   0
  57:D:/fchai/work/i-cube/I-CUBE-HUAWEI/Projects/NUCLEO-L496ZG/Applications/Cloud/mqtt-ota\oc_demo.c **** #define CN_LIFE_TIME                   60
  58:D:/fchai/work/i-cube/I-CUBE-HUAWEI/Projects/NUCLEO-L496ZG/Applications/Cloud/mqtt-ota\oc_demo.c **** #define CN_OTA_FOTA_VERSION            "FOTAV1"
  59:D:/fchai/work/i-cube/I-CUBE-HUAWEI/Projects/NUCLEO-L496ZG/Applications/Cloud/mqtt-ota\oc_demo.c **** //if your command is very fast,please use a queue here--TODO
  60:D:/fchai/work/i-cube/I-CUBE-HUAWEI/Projects/NUCLEO-L496ZG/Applications/Cloud/mqtt-ota\oc_demo.c **** static queue_t                   *s_queue_rcvmsg = NULL;   ///< this is used to cached the message
  61:D:/fchai/work/i-cube/I-CUBE-HUAWEI/Projects/NUCLEO-L496ZG/Applications/Cloud/mqtt-ota\oc_demo.c **** 
  62:D:/fchai/work/i-cube/I-CUBE-HUAWEI/Projects/NUCLEO-L496ZG/Applications/Cloud/mqtt-ota\oc_demo.c **** static oc_mqtt_profile_service_t  s_device_service;
  63:D:/fchai/work/i-cube/I-CUBE-HUAWEI/Projects/NUCLEO-L496ZG/Applications/Cloud/mqtt-ota\oc_demo.c **** static oc_mqtt_profile_kv_t       property_temp;
  64:D:/fchai/work/i-cube/I-CUBE-HUAWEI/Projects/NUCLEO-L496ZG/Applications/Cloud/mqtt-ota\oc_demo.c **** static oc_mqtt_profile_kv_t       property_hum;
  65:D:/fchai/work/i-cube/I-CUBE-HUAWEI/Projects/NUCLEO-L496ZG/Applications/Cloud/mqtt-ota\oc_demo.c **** static oc_mqtt_profile_kv_t       property_press;
  66:D:/fchai/work/i-cube/I-CUBE-HUAWEI/Projects/NUCLEO-L496ZG/Applications/Cloud/mqtt-ota\oc_demo.c **** static oc_mqtt_profile_kv_t       property_x;
  67:D:/fchai/work/i-cube/I-CUBE-HUAWEI/Projects/NUCLEO-L496ZG/Applications/Cloud/mqtt-ota\oc_demo.c **** static oc_mqtt_profile_kv_t       property_y;
  68:D:/fchai/work/i-cube/I-CUBE-HUAWEI/Projects/NUCLEO-L496ZG/Applications/Cloud/mqtt-ota\oc_demo.c **** static oc_mqtt_profile_kv_t       property_z;
  69:D:/fchai/work/i-cube/I-CUBE-HUAWEI/Projects/NUCLEO-L496ZG/Applications/Cloud/mqtt-ota\oc_demo.c **** 
  70:D:/fchai/work/i-cube/I-CUBE-HUAWEI/Projects/NUCLEO-L496ZG/Applications/Cloud/mqtt-ota\oc_demo.c **** static volatile bool stop_report = false;
  71:D:/fchai/work/i-cube/I-CUBE-HUAWEI/Projects/NUCLEO-L496ZG/Applications/Cloud/mqtt-ota\oc_demo.c **** 
  72:D:/fchai/work/i-cube/I-CUBE-HUAWEI/Projects/NUCLEO-L496ZG/Applications/Cloud/mqtt-ota\oc_demo.c **** //use this function to push all the message to the buffer
  73:D:/fchai/work/i-cube/I-CUBE-HUAWEI/Projects/NUCLEO-L496ZG/Applications/Cloud/mqtt-ota\oc_demo.c **** static int app_msg_deal(oc_mqtt_profile_msgrcv_t *msg)
  74:D:/fchai/work/i-cube/I-CUBE-HUAWEI/Projects/NUCLEO-L496ZG/Applications/Cloud/mqtt-ota\oc_demo.c **** {
  75:D:/fchai/work/i-cube/I-CUBE-HUAWEI/Projects/NUCLEO-L496ZG/Applications/Cloud/mqtt-ota\oc_demo.c ****     int    ret = -1;
  76:D:/fchai/work/i-cube/I-CUBE-HUAWEI/Projects/NUCLEO-L496ZG/Applications/Cloud/mqtt-ota\oc_demo.c ****     char  *buf;
  77:D:/fchai/work/i-cube/I-CUBE-HUAWEI/Projects/NUCLEO-L496ZG/Applications/Cloud/mqtt-ota\oc_demo.c ****     int    buflen;
  78:D:/fchai/work/i-cube/I-CUBE-HUAWEI/Projects/NUCLEO-L496ZG/Applications/Cloud/mqtt-ota\oc_demo.c ****     int    datalen = 0;
  79:D:/fchai/work/i-cube/I-CUBE-HUAWEI/Projects/NUCLEO-L496ZG/Applications/Cloud/mqtt-ota\oc_demo.c ****     oc_mqtt_profile_msgrcv_t *demo_msg;
  80:D:/fchai/work/i-cube/I-CUBE-HUAWEI/Projects/NUCLEO-L496ZG/Applications/Cloud/mqtt-ota\oc_demo.c **** 
  81:D:/fchai/work/i-cube/I-CUBE-HUAWEI/Projects/NUCLEO-L496ZG/Applications/Cloud/mqtt-ota\oc_demo.c ****     ///< clone the message
  82:D:/fchai/work/i-cube/I-CUBE-HUAWEI/Projects/NUCLEO-L496ZG/Applications/Cloud/mqtt-ota\oc_demo.c ****     buflen = sizeof(oc_mqtt_profile_msgrcv_t) + msg->msg_len + 1;///< we copy with '\0' endings
  83:D:/fchai/work/i-cube/I-CUBE-HUAWEI/Projects/NUCLEO-L496ZG/Applications/Cloud/mqtt-ota\oc_demo.c ****     if(NULL != msg->request_id)
  84:D:/fchai/work/i-cube/I-CUBE-HUAWEI/Projects/NUCLEO-L496ZG/Applications/Cloud/mqtt-ota\oc_demo.c ****     {
  85:D:/fchai/work/i-cube/I-CUBE-HUAWEI/Projects/NUCLEO-L496ZG/Applications/Cloud/mqtt-ota\oc_demo.c ****         buflen += strlen(msg->request_id) +1; ///< ending with '\0'
  86:D:/fchai/work/i-cube/I-CUBE-HUAWEI/Projects/NUCLEO-L496ZG/Applications/Cloud/mqtt-ota\oc_demo.c ****     }
  87:D:/fchai/work/i-cube/I-CUBE-HUAWEI/Projects/NUCLEO-L496ZG/Applications/Cloud/mqtt-ota\oc_demo.c **** 
  88:D:/fchai/work/i-cube/I-CUBE-HUAWEI/Projects/NUCLEO-L496ZG/Applications/Cloud/mqtt-ota\oc_demo.c ****     buf = osal_malloc(buflen);
  89:D:/fchai/work/i-cube/I-CUBE-HUAWEI/Projects/NUCLEO-L496ZG/Applications/Cloud/mqtt-ota\oc_demo.c ****     if(NULL != buf)
  90:D:/fchai/work/i-cube/I-CUBE-HUAWEI/Projects/NUCLEO-L496ZG/Applications/Cloud/mqtt-ota\oc_demo.c ****     {
  91:D:/fchai/work/i-cube/I-CUBE-HUAWEI/Projects/NUCLEO-L496ZG/Applications/Cloud/mqtt-ota\oc_demo.c ****         demo_msg = (oc_mqtt_profile_msgrcv_t *)(uintptr_t)buf;
  92:D:/fchai/work/i-cube/I-CUBE-HUAWEI/Projects/NUCLEO-L496ZG/Applications/Cloud/mqtt-ota\oc_demo.c ****         buf += sizeof(oc_mqtt_profile_msgrcv_t);
  93:D:/fchai/work/i-cube/I-CUBE-HUAWEI/Projects/NUCLEO-L496ZG/Applications/Cloud/mqtt-ota\oc_demo.c ****         ///< copy the message and push it to the queue
  94:D:/fchai/work/i-cube/I-CUBE-HUAWEI/Projects/NUCLEO-L496ZG/Applications/Cloud/mqtt-ota\oc_demo.c ****         demo_msg->type = msg->type;
  95:D:/fchai/work/i-cube/I-CUBE-HUAWEI/Projects/NUCLEO-L496ZG/Applications/Cloud/mqtt-ota\oc_demo.c **** 
  96:D:/fchai/work/i-cube/I-CUBE-HUAWEI/Projects/NUCLEO-L496ZG/Applications/Cloud/mqtt-ota\oc_demo.c ****         if(NULL != msg->request_id)
  97:D:/fchai/work/i-cube/I-CUBE-HUAWEI/Projects/NUCLEO-L496ZG/Applications/Cloud/mqtt-ota\oc_demo.c ****         {
  98:D:/fchai/work/i-cube/I-CUBE-HUAWEI/Projects/NUCLEO-L496ZG/Applications/Cloud/mqtt-ota\oc_demo.c ****             demo_msg->request_id = buf;
  99:D:/fchai/work/i-cube/I-CUBE-HUAWEI/Projects/NUCLEO-L496ZG/Applications/Cloud/mqtt-ota\oc_demo.c ****             datalen = strlen(msg->request_id);
 100:D:/fchai/work/i-cube/I-CUBE-HUAWEI/Projects/NUCLEO-L496ZG/Applications/Cloud/mqtt-ota\oc_demo.c ****             (void) memcpy(buf,msg->request_id,datalen);
 101:D:/fchai/work/i-cube/I-CUBE-HUAWEI/Projects/NUCLEO-L496ZG/Applications/Cloud/mqtt-ota\oc_demo.c ****             buf[datalen] = '\0';
 102:D:/fchai/work/i-cube/I-CUBE-HUAWEI/Projects/NUCLEO-L496ZG/Applications/Cloud/mqtt-ota\oc_demo.c ****             buf += (datalen+1);
 103:D:/fchai/work/i-cube/I-CUBE-HUAWEI/Projects/NUCLEO-L496ZG/Applications/Cloud/mqtt-ota\oc_demo.c ****         }
 104:D:/fchai/work/i-cube/I-CUBE-HUAWEI/Projects/NUCLEO-L496ZG/Applications/Cloud/mqtt-ota\oc_demo.c ****         else
 105:D:/fchai/work/i-cube/I-CUBE-HUAWEI/Projects/NUCLEO-L496ZG/Applications/Cloud/mqtt-ota\oc_demo.c ****         {
 106:D:/fchai/work/i-cube/I-CUBE-HUAWEI/Projects/NUCLEO-L496ZG/Applications/Cloud/mqtt-ota\oc_demo.c ****             demo_msg->request_id = NULL;
 107:D:/fchai/work/i-cube/I-CUBE-HUAWEI/Projects/NUCLEO-L496ZG/Applications/Cloud/mqtt-ota\oc_demo.c ****         }
ARM GAS  T:\msys\tmp\cckeAxp2.s 			page 4


 108:D:/fchai/work/i-cube/I-CUBE-HUAWEI/Projects/NUCLEO-L496ZG/Applications/Cloud/mqtt-ota\oc_demo.c **** 
 109:D:/fchai/work/i-cube/I-CUBE-HUAWEI/Projects/NUCLEO-L496ZG/Applications/Cloud/mqtt-ota\oc_demo.c ****         demo_msg->msg = buf;
 110:D:/fchai/work/i-cube/I-CUBE-HUAWEI/Projects/NUCLEO-L496ZG/Applications/Cloud/mqtt-ota\oc_demo.c ****         demo_msg->msg_len = msg->msg_len;
 111:D:/fchai/work/i-cube/I-CUBE-HUAWEI/Projects/NUCLEO-L496ZG/Applications/Cloud/mqtt-ota\oc_demo.c ****         datalen = msg->msg_len;
 112:D:/fchai/work/i-cube/I-CUBE-HUAWEI/Projects/NUCLEO-L496ZG/Applications/Cloud/mqtt-ota\oc_demo.c ****         (void) memcpy(buf,msg->msg,datalen);
 113:D:/fchai/work/i-cube/I-CUBE-HUAWEI/Projects/NUCLEO-L496ZG/Applications/Cloud/mqtt-ota\oc_demo.c ****         buf[datalen] = '\0';
 114:D:/fchai/work/i-cube/I-CUBE-HUAWEI/Projects/NUCLEO-L496ZG/Applications/Cloud/mqtt-ota\oc_demo.c **** 
 115:D:/fchai/work/i-cube/I-CUBE-HUAWEI/Projects/NUCLEO-L496ZG/Applications/Cloud/mqtt-ota\oc_demo.c ****         LINK_LOG_DEBUG("RCVMSG:type:%d reuqestID:%s payloadlen:%d payload:%s\n\r",\
 116:D:/fchai/work/i-cube/I-CUBE-HUAWEI/Projects/NUCLEO-L496ZG/Applications/Cloud/mqtt-ota\oc_demo.c ****                 (int) demo_msg->type,demo_msg->request_id==NULL?"NULL":demo_msg->request_id,\
 117:D:/fchai/work/i-cube/I-CUBE-HUAWEI/Projects/NUCLEO-L496ZG/Applications/Cloud/mqtt-ota\oc_demo.c ****                 demo_msg->msg_len,(char *)demo_msg->msg);
 118:D:/fchai/work/i-cube/I-CUBE-HUAWEI/Projects/NUCLEO-L496ZG/Applications/Cloud/mqtt-ota\oc_demo.c **** 
 119:D:/fchai/work/i-cube/I-CUBE-HUAWEI/Projects/NUCLEO-L496ZG/Applications/Cloud/mqtt-ota\oc_demo.c ****         ret = queue_push(s_queue_rcvmsg,demo_msg,10);
 120:D:/fchai/work/i-cube/I-CUBE-HUAWEI/Projects/NUCLEO-L496ZG/Applications/Cloud/mqtt-ota\oc_demo.c ****         if(ret != 0)
 121:D:/fchai/work/i-cube/I-CUBE-HUAWEI/Projects/NUCLEO-L496ZG/Applications/Cloud/mqtt-ota\oc_demo.c ****         {
 122:D:/fchai/work/i-cube/I-CUBE-HUAWEI/Projects/NUCLEO-L496ZG/Applications/Cloud/mqtt-ota\oc_demo.c ****             osal_free(demo_msg);
 123:D:/fchai/work/i-cube/I-CUBE-HUAWEI/Projects/NUCLEO-L496ZG/Applications/Cloud/mqtt-ota\oc_demo.c ****         }
 124:D:/fchai/work/i-cube/I-CUBE-HUAWEI/Projects/NUCLEO-L496ZG/Applications/Cloud/mqtt-ota\oc_demo.c ****     }
 125:D:/fchai/work/i-cube/I-CUBE-HUAWEI/Projects/NUCLEO-L496ZG/Applications/Cloud/mqtt-ota\oc_demo.c **** 
 126:D:/fchai/work/i-cube/I-CUBE-HUAWEI/Projects/NUCLEO-L496ZG/Applications/Cloud/mqtt-ota\oc_demo.c ****     return ret;
 127:D:/fchai/work/i-cube/I-CUBE-HUAWEI/Projects/NUCLEO-L496ZG/Applications/Cloud/mqtt-ota\oc_demo.c **** }
 128:D:/fchai/work/i-cube/I-CUBE-HUAWEI/Projects/NUCLEO-L496ZG/Applications/Cloud/mqtt-ota\oc_demo.c **** 
 129:D:/fchai/work/i-cube/I-CUBE-HUAWEI/Projects/NUCLEO-L496ZG/Applications/Cloud/mqtt-ota\oc_demo.c **** #define CN_EVENT_SERVICES_ID         "services"
 130:D:/fchai/work/i-cube/I-CUBE-HUAWEI/Projects/NUCLEO-L496ZG/Applications/Cloud/mqtt-ota\oc_demo.c **** #define CN_EVENT_TYPE_INDEX          "event_type"
 131:D:/fchai/work/i-cube/I-CUBE-HUAWEI/Projects/NUCLEO-L496ZG/Applications/Cloud/mqtt-ota\oc_demo.c **** #define CN_EVENT_TYPE_VERSIONQUERY   "version_query"
 132:D:/fchai/work/i-cube/I-CUBE-HUAWEI/Projects/NUCLEO-L496ZG/Applications/Cloud/mqtt-ota\oc_demo.c **** #define CN_EVENT_TYPE_FIRMUPDATE     "firmware_upgrade"
 133:D:/fchai/work/i-cube/I-CUBE-HUAWEI/Projects/NUCLEO-L496ZG/Applications/Cloud/mqtt-ota\oc_demo.c **** 
 134:D:/fchai/work/i-cube/I-CUBE-HUAWEI/Projects/NUCLEO-L496ZG/Applications/Cloud/mqtt-ota\oc_demo.c **** #include <cJSON.h>
 135:D:/fchai/work/i-cube/I-CUBE-HUAWEI/Projects/NUCLEO-L496ZG/Applications/Cloud/mqtt-ota\oc_demo.c **** 
 136:D:/fchai/work/i-cube/I-CUBE-HUAWEI/Projects/NUCLEO-L496ZG/Applications/Cloud/mqtt-ota\oc_demo.c **** static int oc_cmd_event_versionquery(cJSON *event)
 137:D:/fchai/work/i-cube/I-CUBE-HUAWEI/Projects/NUCLEO-L496ZG/Applications/Cloud/mqtt-ota\oc_demo.c **** {
 138:D:/fchai/work/i-cube/I-CUBE-HUAWEI/Projects/NUCLEO-L496ZG/Applications/Cloud/mqtt-ota\oc_demo.c ****     int ret;
 139:D:/fchai/work/i-cube/I-CUBE-HUAWEI/Projects/NUCLEO-L496ZG/Applications/Cloud/mqtt-ota\oc_demo.c ****     char *topic = "$oc/devices/"CN_EP_DEVICEID"/sys/events/up";
 140:D:/fchai/work/i-cube/I-CUBE-HUAWEI/Projects/NUCLEO-L496ZG/Applications/Cloud/mqtt-ota\oc_demo.c ****     const char *fmt = "{ \"services\": [{ \"service_id\": \"$ota\", \"event_type\": \"version_repor
 141:D:/fchai/work/i-cube/I-CUBE-HUAWEI/Projects/NUCLEO-L496ZG/Applications/Cloud/mqtt-ota\oc_demo.c ****     char *data;
 142:D:/fchai/work/i-cube/I-CUBE-HUAWEI/Projects/NUCLEO-L496ZG/Applications/Cloud/mqtt-ota\oc_demo.c ****     int   len;
 143:D:/fchai/work/i-cube/I-CUBE-HUAWEI/Projects/NUCLEO-L496ZG/Applications/Cloud/mqtt-ota\oc_demo.c **** 
 144:D:/fchai/work/i-cube/I-CUBE-HUAWEI/Projects/NUCLEO-L496ZG/Applications/Cloud/mqtt-ota\oc_demo.c ****     len = strlen(fmt) + strlen(CN_OTA_FOTA_VERSION) + 1;
 145:D:/fchai/work/i-cube/I-CUBE-HUAWEI/Projects/NUCLEO-L496ZG/Applications/Cloud/mqtt-ota\oc_demo.c ****     data = osal_malloc(len);
 146:D:/fchai/work/i-cube/I-CUBE-HUAWEI/Projects/NUCLEO-L496ZG/Applications/Cloud/mqtt-ota\oc_demo.c **** 
 147:D:/fchai/work/i-cube/I-CUBE-HUAWEI/Projects/NUCLEO-L496ZG/Applications/Cloud/mqtt-ota\oc_demo.c ****     if (data == NULL)
 148:D:/fchai/work/i-cube/I-CUBE-HUAWEI/Projects/NUCLEO-L496ZG/Applications/Cloud/mqtt-ota\oc_demo.c ****     {
 149:D:/fchai/work/i-cube/I-CUBE-HUAWEI/Projects/NUCLEO-L496ZG/Applications/Cloud/mqtt-ota\oc_demo.c ****         return -1;
 150:D:/fchai/work/i-cube/I-CUBE-HUAWEI/Projects/NUCLEO-L496ZG/Applications/Cloud/mqtt-ota\oc_demo.c ****     }
 151:D:/fchai/work/i-cube/I-CUBE-HUAWEI/Projects/NUCLEO-L496ZG/Applications/Cloud/mqtt-ota\oc_demo.c **** 
 152:D:/fchai/work/i-cube/I-CUBE-HUAWEI/Projects/NUCLEO-L496ZG/Applications/Cloud/mqtt-ota\oc_demo.c ****     snprintf(data, len, fmt, CN_OTA_FOTA_VERSION);
 153:D:/fchai/work/i-cube/I-CUBE-HUAWEI/Projects/NUCLEO-L496ZG/Applications/Cloud/mqtt-ota\oc_demo.c ****     LINK_LOG_DEBUG("REPLY:CURVERSION:%s",data);
 154:D:/fchai/work/i-cube/I-CUBE-HUAWEI/Projects/NUCLEO-L496ZG/Applications/Cloud/mqtt-ota\oc_demo.c ****     ret = oc_mqtt_publish(topic,(uint8_t *)data, strlen(data),0);
 155:D:/fchai/work/i-cube/I-CUBE-HUAWEI/Projects/NUCLEO-L496ZG/Applications/Cloud/mqtt-ota\oc_demo.c ****     osal_free(data);
 156:D:/fchai/work/i-cube/I-CUBE-HUAWEI/Projects/NUCLEO-L496ZG/Applications/Cloud/mqtt-ota\oc_demo.c **** 
 157:D:/fchai/work/i-cube/I-CUBE-HUAWEI/Projects/NUCLEO-L496ZG/Applications/Cloud/mqtt-ota\oc_demo.c ****     return ret;
 158:D:/fchai/work/i-cube/I-CUBE-HUAWEI/Projects/NUCLEO-L496ZG/Applications/Cloud/mqtt-ota\oc_demo.c **** }
 159:D:/fchai/work/i-cube/I-CUBE-HUAWEI/Projects/NUCLEO-L496ZG/Applications/Cloud/mqtt-ota\oc_demo.c **** 
 160:D:/fchai/work/i-cube/I-CUBE-HUAWEI/Projects/NUCLEO-L496ZG/Applications/Cloud/mqtt-ota\oc_demo.c **** #ifdef CONFIG_OTA_ENABLE
 161:D:/fchai/work/i-cube/I-CUBE-HUAWEI/Projects/NUCLEO-L496ZG/Applications/Cloud/mqtt-ota\oc_demo.c **** #include <ota_https.h>
 162:D:/fchai/work/i-cube/I-CUBE-HUAWEI/Projects/NUCLEO-L496ZG/Applications/Cloud/mqtt-ota\oc_demo.c **** #include <ota_flag.h>
 163:D:/fchai/work/i-cube/I-CUBE-HUAWEI/Projects/NUCLEO-L496ZG/Applications/Cloud/mqtt-ota\oc_demo.c **** 
 164:D:/fchai/work/i-cube/I-CUBE-HUAWEI/Projects/NUCLEO-L496ZG/Applications/Cloud/mqtt-ota\oc_demo.c **** //Topic: $oc/devices/{device_id}/sys/events/up
ARM GAS  T:\msys\tmp\cckeAxp2.s 			page 5


 165:D:/fchai/work/i-cube/I-CUBE-HUAWEI/Projects/NUCLEO-L496ZG/Applications/Cloud/mqtt-ota\oc_demo.c **** //数据格式：
 166:D:/fchai/work/i-cube/I-CUBE-HUAWEI/Projects/NUCLEO-L496ZG/Applications/Cloud/mqtt-ota\oc_demo.c **** //{
 167:D:/fchai/work/i-cube/I-CUBE-HUAWEI/Projects/NUCLEO-L496ZG/Applications/Cloud/mqtt-ota\oc_demo.c **** //    "object_device_id": "{object_device_id}",
 168:D:/fchai/work/i-cube/I-CUBE-HUAWEI/Projects/NUCLEO-L496ZG/Applications/Cloud/mqtt-ota\oc_demo.c **** //    "services": [{
 169:D:/fchai/work/i-cube/I-CUBE-HUAWEI/Projects/NUCLEO-L496ZG/Applications/Cloud/mqtt-ota\oc_demo.c **** //        "service_id": "$ota",
 170:D:/fchai/work/i-cube/I-CUBE-HUAWEI/Projects/NUCLEO-L496ZG/Applications/Cloud/mqtt-ota\oc_demo.c **** //        "event_type": "upgrade_progress_report",
 171:D:/fchai/work/i-cube/I-CUBE-HUAWEI/Projects/NUCLEO-L496ZG/Applications/Cloud/mqtt-ota\oc_demo.c **** //        "event_time": "20151212T121212Z",
 172:D:/fchai/work/i-cube/I-CUBE-HUAWEI/Projects/NUCLEO-L496ZG/Applications/Cloud/mqtt-ota\oc_demo.c **** //        "paras": {
 173:D:/fchai/work/i-cube/I-CUBE-HUAWEI/Projects/NUCLEO-L496ZG/Applications/Cloud/mqtt-ota\oc_demo.c **** //            "result_code": 0,
 174:D:/fchai/work/i-cube/I-CUBE-HUAWEI/Projects/NUCLEO-L496ZG/Applications/Cloud/mqtt-ota\oc_demo.c **** //            "progress": 80,
 175:D:/fchai/work/i-cube/I-CUBE-HUAWEI/Projects/NUCLEO-L496ZG/Applications/Cloud/mqtt-ota\oc_demo.c **** //            "version": "V2.0",
 176:D:/fchai/work/i-cube/I-CUBE-HUAWEI/Projects/NUCLEO-L496ZG/Applications/Cloud/mqtt-ota\oc_demo.c **** //            "description": "upgrade processing"
 177:D:/fchai/work/i-cube/I-CUBE-HUAWEI/Projects/NUCLEO-L496ZG/Applications/Cloud/mqtt-ota\oc_demo.c **** //        }
 178:D:/fchai/work/i-cube/I-CUBE-HUAWEI/Projects/NUCLEO-L496ZG/Applications/Cloud/mqtt-ota\oc_demo.c **** //    }]
 179:D:/fchai/work/i-cube/I-CUBE-HUAWEI/Projects/NUCLEO-L496ZG/Applications/Cloud/mqtt-ota\oc_demo.c **** //}
 180:D:/fchai/work/i-cube/I-CUBE-HUAWEI/Projects/NUCLEO-L496ZG/Applications/Cloud/mqtt-ota\oc_demo.c **** 
 181:D:/fchai/work/i-cube/I-CUBE-HUAWEI/Projects/NUCLEO-L496ZG/Applications/Cloud/mqtt-ota\oc_demo.c **** static int oc_report_upgraderet(int upgraderet, const char *version)
 182:D:/fchai/work/i-cube/I-CUBE-HUAWEI/Projects/NUCLEO-L496ZG/Applications/Cloud/mqtt-ota\oc_demo.c **** {
  43              		.loc 1 182 1 view -0
  44              		.cfi_startproc
  45              		@ args = 0, pretend = 0, frame = 8
  46              		@ frame_needed = 0, uses_anonymous_args = 0
 183:D:/fchai/work/i-cube/I-CUBE-HUAWEI/Projects/NUCLEO-L496ZG/Applications/Cloud/mqtt-ota\oc_demo.c ****     int ret;
  47              		.loc 1 183 5 view .LVU1
 184:D:/fchai/work/i-cube/I-CUBE-HUAWEI/Projects/NUCLEO-L496ZG/Applications/Cloud/mqtt-ota\oc_demo.c ****     char *topic = "$oc/devices/"CN_EP_DEVICEID"/sys/events/up";
  48              		.loc 1 184 5 view .LVU2
 185:D:/fchai/work/i-cube/I-CUBE-HUAWEI/Projects/NUCLEO-L496ZG/Applications/Cloud/mqtt-ota\oc_demo.c ****     char *fmt = "{ \"services\": [{ \"service_id\": \"$ota\", \"event_type\": \"upgrade_progress_re
  49              		.loc 1 185 5 view .LVU3
 186:D:/fchai/work/i-cube/I-CUBE-HUAWEI/Projects/NUCLEO-L496ZG/Applications/Cloud/mqtt-ota\oc_demo.c ****     char *data;
  50              		.loc 1 186 5 view .LVU4
 187:D:/fchai/work/i-cube/I-CUBE-HUAWEI/Projects/NUCLEO-L496ZG/Applications/Cloud/mqtt-ota\oc_demo.c ****     int   len;
  51              		.loc 1 187 5 view .LVU5
 188:D:/fchai/work/i-cube/I-CUBE-HUAWEI/Projects/NUCLEO-L496ZG/Applications/Cloud/mqtt-ota\oc_demo.c **** 
 189:D:/fchai/work/i-cube/I-CUBE-HUAWEI/Projects/NUCLEO-L496ZG/Applications/Cloud/mqtt-ota\oc_demo.c ****     len = strlen(fmt) + strlen(version) + sizeof(upgraderet);
  52              		.loc 1 189 5 view .LVU6
 182:D:/fchai/work/i-cube/I-CUBE-HUAWEI/Projects/NUCLEO-L496ZG/Applications/Cloud/mqtt-ota\oc_demo.c ****     int ret;
  53              		.loc 1 182 1 is_stmt 0 view .LVU7
  54 0000 70B5     		push	{r4, r5, r6, lr}
  55              	.LCFI0:
  56              		.cfi_def_cfa_offset 16
  57              		.cfi_offset 4, -16
  58              		.cfi_offset 5, -12
  59              		.cfi_offset 6, -8
  60              		.cfi_offset 14, -4
  61 0002 0646     		mov	r6, r0
  62 0004 84B0     		sub	sp, sp, #16
  63              	.LCFI1:
  64              		.cfi_def_cfa_offset 32
  65              		.loc 1 189 25 view .LVU8
  66 0006 0846     		mov	r0, r1
  67              	.LVL1:
 182:D:/fchai/work/i-cube/I-CUBE-HUAWEI/Projects/NUCLEO-L496ZG/Applications/Cloud/mqtt-ota\oc_demo.c ****     int ret;
  68              		.loc 1 182 1 view .LVU9
  69 0008 0D46     		mov	r5, r1
  70              		.loc 1 189 25 view .LVU10
  71 000a FFF7FEFF 		bl	strlen
  72              	.LVL2:
ARM GAS  T:\msys\tmp\cckeAxp2.s 			page 6


  73              		.loc 1 189 41 view .LVU11
  74 000e 00F18401 		add	r1, r0, #132
  75              	.LVL3:
 190:D:/fchai/work/i-cube/I-CUBE-HUAWEI/Projects/NUCLEO-L496ZG/Applications/Cloud/mqtt-ota\oc_demo.c ****     data = osal_malloc(len);
  76              		.loc 1 190 5 is_stmt 1 view .LVU12
  77              		.loc 1 190 12 is_stmt 0 view .LVU13
  78 0012 0846     		mov	r0, r1
  79 0014 0391     		str	r1, [sp, #12]
  80 0016 FFF7FEFF 		bl	osal_malloc
  81              	.LVL4:
 191:D:/fchai/work/i-cube/I-CUBE-HUAWEI/Projects/NUCLEO-L496ZG/Applications/Cloud/mqtt-ota\oc_demo.c **** 
 192:D:/fchai/work/i-cube/I-CUBE-HUAWEI/Projects/NUCLEO-L496ZG/Applications/Cloud/mqtt-ota\oc_demo.c ****     if (data == NULL)
  82              		.loc 1 192 5 is_stmt 1 view .LVU14
  83              		.loc 1 192 8 is_stmt 0 view .LVU15
  84 001a 70B3     		cbz	r0, .L4
 193:D:/fchai/work/i-cube/I-CUBE-HUAWEI/Projects/NUCLEO-L496ZG/Applications/Cloud/mqtt-ota\oc_demo.c ****     {
 194:D:/fchai/work/i-cube/I-CUBE-HUAWEI/Projects/NUCLEO-L496ZG/Applications/Cloud/mqtt-ota\oc_demo.c ****         return -1;
 195:D:/fchai/work/i-cube/I-CUBE-HUAWEI/Projects/NUCLEO-L496ZG/Applications/Cloud/mqtt-ota\oc_demo.c ****     }
 196:D:/fchai/work/i-cube/I-CUBE-HUAWEI/Projects/NUCLEO-L496ZG/Applications/Cloud/mqtt-ota\oc_demo.c **** 
 197:D:/fchai/work/i-cube/I-CUBE-HUAWEI/Projects/NUCLEO-L496ZG/Applications/Cloud/mqtt-ota\oc_demo.c ****     snprintf(data, len, fmt,upgraderet, version);
  85              		.loc 1 197 5 is_stmt 1 view .LVU16
  86 001c 0399     		ldr	r1, [sp, #12]
  87 001e 184A     		ldr	r2, .L8
  88 0020 0095     		str	r5, [sp]
  89 0022 3346     		mov	r3, r6
  90 0024 0446     		mov	r4, r0
  91 0026 FFF7FEFF 		bl	snprintf
  92              	.LVL5:
 198:D:/fchai/work/i-cube/I-CUBE-HUAWEI/Projects/NUCLEO-L496ZG/Applications/Cloud/mqtt-ota\oc_demo.c ****     LINK_LOG_DEBUG("REPORT:UPGRADERET:%s",data);
  93              		.loc 1 198 5 view .LVU17
  94              		.loc 1 198 5 view .LVU18
  95 002a FFF7FEFF 		bl	link_log_level_get
  96              	.LVL6:
  97 002e 0128     		cmp	r0, #1
  98 0030 10D9     		bls	.L7
  99              	.LVL7:
 100              	.L3:
 101              		.loc 1 198 5 discriminator 3 view .LVU19
 102              		.loc 1 198 5 discriminator 3 view .LVU20
 103              		.loc 1 198 5 discriminator 3 view .LVU21
 199:D:/fchai/work/i-cube/I-CUBE-HUAWEI/Projects/NUCLEO-L496ZG/Applications/Cloud/mqtt-ota\oc_demo.c ****     ret = oc_mqtt_publish(topic,(uint8_t *)data, strlen(data),0);
 104              		.loc 1 199 5 discriminator 3 view .LVU22
 105              		.loc 1 199 50 is_stmt 0 discriminator 3 view .LVU23
 106 0032 2046     		mov	r0, r4
 107 0034 FFF7FEFF 		bl	strlen
 108              	.LVL8:
 109              		.loc 1 199 11 discriminator 3 view .LVU24
 110 0038 0023     		movs	r3, #0
 111              		.loc 1 199 50 discriminator 3 view .LVU25
 112 003a 0246     		mov	r2, r0
 113              		.loc 1 199 11 discriminator 3 view .LVU26
 114 003c 2146     		mov	r1, r4
 115 003e 1148     		ldr	r0, .L8+4
 116 0040 FFF7FEFF 		bl	oc_mqtt_publish
 117              	.LVL9:
 118 0044 0346     		mov	r3, r0
 200:D:/fchai/work/i-cube/I-CUBE-HUAWEI/Projects/NUCLEO-L496ZG/Applications/Cloud/mqtt-ota\oc_demo.c ****     osal_free(data);
ARM GAS  T:\msys\tmp\cckeAxp2.s 			page 7


 119              		.loc 1 200 5 discriminator 3 view .LVU27
 120 0046 2046     		mov	r0, r4
 199:D:/fchai/work/i-cube/I-CUBE-HUAWEI/Projects/NUCLEO-L496ZG/Applications/Cloud/mqtt-ota\oc_demo.c ****     ret = oc_mqtt_publish(topic,(uint8_t *)data, strlen(data),0);
 121              		.loc 1 199 11 discriminator 3 view .LVU28
 122 0048 1C46     		mov	r4, r3
 123              	.LVL10:
 124              		.loc 1 200 5 is_stmt 1 discriminator 3 view .LVU29
 125 004a FFF7FEFF 		bl	osal_free
 126              	.LVL11:
 201:D:/fchai/work/i-cube/I-CUBE-HUAWEI/Projects/NUCLEO-L496ZG/Applications/Cloud/mqtt-ota\oc_demo.c **** 
 202:D:/fchai/work/i-cube/I-CUBE-HUAWEI/Projects/NUCLEO-L496ZG/Applications/Cloud/mqtt-ota\oc_demo.c ****     return ret;
 127              		.loc 1 202 5 discriminator 3 view .LVU30
 128              	.L1:
 203:D:/fchai/work/i-cube/I-CUBE-HUAWEI/Projects/NUCLEO-L496ZG/Applications/Cloud/mqtt-ota\oc_demo.c **** }
 129              		.loc 1 203 1 is_stmt 0 view .LVU31
 130 004e 2046     		mov	r0, r4
 131 0050 04B0     		add	sp, sp, #16
 132              	.LCFI2:
 133              		.cfi_remember_state
 134              		.cfi_def_cfa_offset 16
 135              		@ sp needed
 136 0052 70BD     		pop	{r4, r5, r6, pc}
 137              	.LVL12:
 138              	.L7:
 139              	.LCFI3:
 140              		.cfi_restore_state
 198:D:/fchai/work/i-cube/I-CUBE-HUAWEI/Projects/NUCLEO-L496ZG/Applications/Cloud/mqtt-ota\oc_demo.c ****     ret = oc_mqtt_publish(topic,(uint8_t *)data, strlen(data),0);
 141              		.loc 1 198 5 is_stmt 1 discriminator 1 view .LVU32
 198:D:/fchai/work/i-cube/I-CUBE-HUAWEI/Projects/NUCLEO-L496ZG/Applications/Cloud/mqtt-ota\oc_demo.c ****     ret = oc_mqtt_publish(topic,(uint8_t *)data, strlen(data),0);
 142              		.loc 1 198 5 discriminator 1 view .LVU33
 198:D:/fchai/work/i-cube/I-CUBE-HUAWEI/Projects/NUCLEO-L496ZG/Applications/Cloud/mqtt-ota\oc_demo.c ****     ret = oc_mqtt_publish(topic,(uint8_t *)data, strlen(data),0);
 143              		.loc 1 198 5 discriminator 1 view .LVU34
 144 0054 0120     		movs	r0, #1
 145 0056 FFF7FEFF 		bl	link_log_level_name
 146              	.LVL13:
 147 005a 0546     		mov	r5, r0
 148              	.LVL14:
 198:D:/fchai/work/i-cube/I-CUBE-HUAWEI/Projects/NUCLEO-L496ZG/Applications/Cloud/mqtt-ota\oc_demo.c ****     ret = oc_mqtt_publish(topic,(uint8_t *)data, strlen(data),0);
 149              		.loc 1 198 5 is_stmt 0 discriminator 1 view .LVU35
 150 005c FFF7FEFF 		bl	osal_sys_time
 151              	.LVL15:
 152 0060 094B     		ldr	r3, .L8+8
 153 0062 0094     		str	r4, [sp]
 154 0064 0246     		mov	r2, r0
 155 0066 2946     		mov	r1, r5
 156 0068 0848     		ldr	r0, .L8+12
 157 006a FFF7FEFF 		bl	printf
 158              	.LVL16:
 198:D:/fchai/work/i-cube/I-CUBE-HUAWEI/Projects/NUCLEO-L496ZG/Applications/Cloud/mqtt-ota\oc_demo.c ****     ret = oc_mqtt_publish(topic,(uint8_t *)data, strlen(data),0);
 159              		.loc 1 198 5 is_stmt 1 discriminator 1 view .LVU36
 160 006e 084B     		ldr	r3, .L8+16
 161 0070 1B68     		ldr	r3, [r3]
 162 0072 9868     		ldr	r0, [r3, #8]
 163 0074 FFF7FEFF 		bl	fflush
 164              	.LVL17:
 165 0078 DBE7     		b	.L3
 166              	.LVL18:
ARM GAS  T:\msys\tmp\cckeAxp2.s 			page 8


 167              	.L4:
 194:D:/fchai/work/i-cube/I-CUBE-HUAWEI/Projects/NUCLEO-L496ZG/Applications/Cloud/mqtt-ota\oc_demo.c ****     }
 168              		.loc 1 194 16 is_stmt 0 view .LVU37
 169 007a 4FF0FF34 		mov	r4, #-1
 170 007e E6E7     		b	.L1
 171              	.L9:
 172              		.align	2
 173              	.L8:
 174 0080 00000000 		.word	.LC0
 175 0084 A8000000 		.word	.LC2
 176 0088 00000000 		.word	.LANCHOR0
 177 008c 84000000 		.word	.LC1
 178 0090 00000000 		.word	_impure_ptr
 179              		.cfi_endproc
 180              	.LFE5:
 182              		.section	.rodata.oc_report_upgrade_process.str1.4,"aMS",%progbits,1
 183              		.align	2
 184              	.LC3:
 185 0000 35656539 		.ascii	"5ee96dbf75a46602c838f9a8_202006170937\000"
 185      36646266 
 185      37356134 
 185      36363032 
 185      63383338 
 186              		.section	.text.oc_report_upgrade_process,"ax",%progbits
 187              		.align	1
 188              		.p2align 2,,3
 189              		.syntax unified
 190              		.thumb
 191              		.thumb_func
 192              		.fpu fpv4-sp-d16
 194              	oc_report_upgrade_process:
 195              	.LVL19:
 196              	.LFB6:
 204:D:/fchai/work/i-cube/I-CUBE-HUAWEI/Projects/NUCLEO-L496ZG/Applications/Cloud/mqtt-ota\oc_demo.c **** 
 205:D:/fchai/work/i-cube/I-CUBE-HUAWEI/Projects/NUCLEO-L496ZG/Applications/Cloud/mqtt-ota\oc_demo.c **** static int oc_report_upgrade_process(int ret, int total, int cur)
 206:D:/fchai/work/i-cube/I-CUBE-HUAWEI/Projects/NUCLEO-L496ZG/Applications/Cloud/mqtt-ota\oc_demo.c **** {
 197              		.loc 1 206 1 is_stmt 1 view -0
 198              		.cfi_startproc
 199              		@ args = 0, pretend = 0, frame = 0
 200              		@ frame_needed = 0, uses_anonymous_args = 0
 207:D:/fchai/work/i-cube/I-CUBE-HUAWEI/Projects/NUCLEO-L496ZG/Applications/Cloud/mqtt-ota\oc_demo.c ****     return oc_mqtt_report_upgradeprogress(CN_EP_DEVICEID,NULL,ret,NULL,cur*100/total);
 201              		.loc 1 207 5 view .LVU39
 206:D:/fchai/work/i-cube/I-CUBE-HUAWEI/Projects/NUCLEO-L496ZG/Applications/Cloud/mqtt-ota\oc_demo.c ****     return oc_mqtt_report_upgradeprogress(CN_EP_DEVICEID,NULL,ret,NULL,cur*100/total);
 202              		.loc 1 206 1 is_stmt 0 view .LVU40
 203 0000 70B5     		push	{r4, r5, r6, lr}
 204              	.LCFI4:
 205              		.cfi_def_cfa_offset 16
 206              		.cfi_offset 4, -16
 207              		.cfi_offset 5, -12
 208              		.cfi_offset 6, -8
 209              		.cfi_offset 14, -4
 210 0002 82B0     		sub	sp, sp, #8
 211              	.LCFI5:
 212              		.cfi_def_cfa_offset 24
 206:D:/fchai/work/i-cube/I-CUBE-HUAWEI/Projects/NUCLEO-L496ZG/Applications/Cloud/mqtt-ota\oc_demo.c ****     return oc_mqtt_report_upgradeprogress(CN_EP_DEVICEID,NULL,ret,NULL,cur*100/total);
 213              		.loc 1 206 1 view .LVU41
 214 0004 1646     		mov	r6, r2
ARM GAS  T:\msys\tmp\cckeAxp2.s 			page 9


 215              		.loc 1 207 12 view .LVU42
 216 0006 0023     		movs	r3, #0
 217              		.loc 1 207 75 view .LVU43
 218 0008 6425     		movs	r5, #100
 206:D:/fchai/work/i-cube/I-CUBE-HUAWEI/Projects/NUCLEO-L496ZG/Applications/Cloud/mqtt-ota\oc_demo.c ****     return oc_mqtt_report_upgradeprogress(CN_EP_DEVICEID,NULL,ret,NULL,cur*100/total);
 219              		.loc 1 206 1 view .LVU44
 220 000a 0246     		mov	r2, r0
 221              	.LVL20:
 206:D:/fchai/work/i-cube/I-CUBE-HUAWEI/Projects/NUCLEO-L496ZG/Applications/Cloud/mqtt-ota\oc_demo.c ****     return oc_mqtt_report_upgradeprogress(CN_EP_DEVICEID,NULL,ret,NULL,cur*100/total);
 222              		.loc 1 206 1 view .LVU45
 223 000c 0C46     		mov	r4, r1
 224              		.loc 1 207 75 view .LVU46
 225 000e 05FB06F5 		mul	r5, r5, r6
 226              		.loc 1 207 12 view .LVU47
 227 0012 1946     		mov	r1, r3
 228              	.LVL21:
 229              		.loc 1 207 12 view .LVU48
 230 0014 95FBF4F4 		sdiv	r4, r5, r4
 231              	.LVL22:
 232              		.loc 1 207 12 view .LVU49
 233 0018 0248     		ldr	r0, .L12
 234              	.LVL23:
 235              		.loc 1 207 12 view .LVU50
 236 001a 0094     		str	r4, [sp]
 237 001c FFF7FEFF 		bl	oc_mqtt_report_upgradeprogress
 238              	.LVL24:
 208:D:/fchai/work/i-cube/I-CUBE-HUAWEI/Projects/NUCLEO-L496ZG/Applications/Cloud/mqtt-ota\oc_demo.c **** }
 239              		.loc 1 208 1 view .LVU51
 240 0020 02B0     		add	sp, sp, #8
 241              	.LCFI6:
 242              		.cfi_def_cfa_offset 16
 243              		@ sp needed
 244 0022 70BD     		pop	{r4, r5, r6, pc}
 245              	.LVL25:
 246              	.L13:
 247              		.loc 1 208 1 view .LVU52
 248              		.align	2
 249              	.L12:
 250 0024 00000000 		.word	.LC3
 251              		.cfi_endproc
 252              	.LFE6:
 254              		.section	.rodata.app_msg_deal.str1.4,"aMS",%progbits,1
 255              		.align	2
 256              	.LC4:
 257 0000 4E554C4C 		.ascii	"NULL\000"
 257      00
 258 0005 000000   		.align	2
 259              	.LC5:
 260 0008 5B25735D 		.ascii	"[%s][%u][%s] RCVMSG:type:%d reuqestID:%s payloadlen"
 260      5B25755D 
 260      5B25735D 
 260      20524356 
 260      4D53473A 
 261 003b 3A256420 		.ascii	":%d payload:%s\012\015\015\012\000"
 261      7061796C 
 261      6F61643A 
 261      25730A0D 
ARM GAS  T:\msys\tmp\cckeAxp2.s 			page 10


 261      0D0A00
 262              		.section	.text.app_msg_deal,"ax",%progbits
 263              		.align	1
 264              		.p2align 2,,3
 265              		.syntax unified
 266              		.thumb
 267              		.thumb_func
 268              		.fpu fpv4-sp-d16
 270              	app_msg_deal:
 271              	.LVL26:
 272              	.LFB3:
  74:D:/fchai/work/i-cube/I-CUBE-HUAWEI/Projects/NUCLEO-L496ZG/Applications/Cloud/mqtt-ota\oc_demo.c ****     int    ret = -1;
 273              		.loc 1 74 1 is_stmt 1 view -0
 274              		.cfi_startproc
 275              		@ args = 0, pretend = 0, frame = 8
 276              		@ frame_needed = 0, uses_anonymous_args = 0
  75:D:/fchai/work/i-cube/I-CUBE-HUAWEI/Projects/NUCLEO-L496ZG/Applications/Cloud/mqtt-ota\oc_demo.c ****     char  *buf;
 277              		.loc 1 75 5 view .LVU54
  76:D:/fchai/work/i-cube/I-CUBE-HUAWEI/Projects/NUCLEO-L496ZG/Applications/Cloud/mqtt-ota\oc_demo.c ****     int    buflen;
 278              		.loc 1 76 5 view .LVU55
  77:D:/fchai/work/i-cube/I-CUBE-HUAWEI/Projects/NUCLEO-L496ZG/Applications/Cloud/mqtt-ota\oc_demo.c ****     int    datalen = 0;
 279              		.loc 1 77 5 view .LVU56
  78:D:/fchai/work/i-cube/I-CUBE-HUAWEI/Projects/NUCLEO-L496ZG/Applications/Cloud/mqtt-ota\oc_demo.c ****     oc_mqtt_profile_msgrcv_t *demo_msg;
 280              		.loc 1 78 5 view .LVU57
  79:D:/fchai/work/i-cube/I-CUBE-HUAWEI/Projects/NUCLEO-L496ZG/Applications/Cloud/mqtt-ota\oc_demo.c **** 
 281              		.loc 1 79 5 view .LVU58
  82:D:/fchai/work/i-cube/I-CUBE-HUAWEI/Projects/NUCLEO-L496ZG/Applications/Cloud/mqtt-ota\oc_demo.c ****     if(NULL != msg->request_id)
 282              		.loc 1 82 5 view .LVU59
  74:D:/fchai/work/i-cube/I-CUBE-HUAWEI/Projects/NUCLEO-L496ZG/Applications/Cloud/mqtt-ota\oc_demo.c ****     int    ret = -1;
 283              		.loc 1 74 1 is_stmt 0 view .LVU60
 284 0000 F0B5     		push	{r4, r5, r6, r7, lr}
 285              	.LCFI7:
 286              		.cfi_def_cfa_offset 20
 287              		.cfi_offset 4, -20
 288              		.cfi_offset 5, -16
 289              		.cfi_offset 6, -12
 290              		.cfi_offset 7, -8
 291              		.cfi_offset 14, -4
 292 0002 0446     		mov	r4, r0
  83:D:/fchai/work/i-cube/I-CUBE-HUAWEI/Projects/NUCLEO-L496ZG/Applications/Cloud/mqtt-ota\oc_demo.c ****     {
 293              		.loc 1 83 19 view .LVU61
 294 0004 4068     		ldr	r0, [r0, #4]
 295              	.LVL27:
  82:D:/fchai/work/i-cube/I-CUBE-HUAWEI/Projects/NUCLEO-L496ZG/Applications/Cloud/mqtt-ota\oc_demo.c ****     if(NULL != msg->request_id)
 296              		.loc 1 82 52 view .LVU62
 297 0006 E568     		ldr	r5, [r4, #12]
 298              	.LVL28:
  83:D:/fchai/work/i-cube/I-CUBE-HUAWEI/Projects/NUCLEO-L496ZG/Applications/Cloud/mqtt-ota\oc_demo.c ****     {
 299              		.loc 1 83 5 is_stmt 1 view .LVU63
  74:D:/fchai/work/i-cube/I-CUBE-HUAWEI/Projects/NUCLEO-L496ZG/Applications/Cloud/mqtt-ota\oc_demo.c ****     int    ret = -1;
 300              		.loc 1 74 1 is_stmt 0 view .LVU64
 301 0008 87B0     		sub	sp, sp, #28
 302              	.LCFI8:
 303              		.cfi_def_cfa_offset 48
  83:D:/fchai/work/i-cube/I-CUBE-HUAWEI/Projects/NUCLEO-L496ZG/Applications/Cloud/mqtt-ota\oc_demo.c ****     {
 304              		.loc 1 83 7 view .LVU65
 305 000a 0028     		cmp	r0, #0
ARM GAS  T:\msys\tmp\cckeAxp2.s 			page 11


 306 000c 41D0     		beq	.L28
  85:D:/fchai/work/i-cube/I-CUBE-HUAWEI/Projects/NUCLEO-L496ZG/Applications/Cloud/mqtt-ota\oc_demo.c ****     }
 307              		.loc 1 85 9 is_stmt 1 view .LVU66
  85:D:/fchai/work/i-cube/I-CUBE-HUAWEI/Projects/NUCLEO-L496ZG/Applications/Cloud/mqtt-ota\oc_demo.c ****     }
 308              		.loc 1 85 19 is_stmt 0 view .LVU67
 309 000e FFF7FEFF 		bl	strlen
 310              	.LVL29:
  85:D:/fchai/work/i-cube/I-CUBE-HUAWEI/Projects/NUCLEO-L496ZG/Applications/Cloud/mqtt-ota\oc_demo.c ****     }
 311              		.loc 1 85 16 view .LVU68
 312 0012 05F11203 		add	r3, r5, #18
 313 0016 1844     		add	r0, r0, r3
 314              	.LVL30:
 315              	.L16:
  88:D:/fchai/work/i-cube/I-CUBE-HUAWEI/Projects/NUCLEO-L496ZG/Applications/Cloud/mqtt-ota\oc_demo.c ****     if(NULL != buf)
 316              		.loc 1 88 5 is_stmt 1 view .LVU69
  88:D:/fchai/work/i-cube/I-CUBE-HUAWEI/Projects/NUCLEO-L496ZG/Applications/Cloud/mqtt-ota\oc_demo.c ****     if(NULL != buf)
 317              		.loc 1 88 11 is_stmt 0 view .LVU70
 318 0018 FFF7FEFF 		bl	osal_malloc
 319              	.LVL31:
  89:D:/fchai/work/i-cube/I-CUBE-HUAWEI/Projects/NUCLEO-L496ZG/Applications/Cloud/mqtt-ota\oc_demo.c ****     {
 320              		.loc 1 89 5 is_stmt 1 view .LVU71
  89:D:/fchai/work/i-cube/I-CUBE-HUAWEI/Projects/NUCLEO-L496ZG/Applications/Cloud/mqtt-ota\oc_demo.c ****     {
 321              		.loc 1 89 7 is_stmt 0 view .LVU72
 322 001c 0546     		mov	r5, r0
 323 001e 0028     		cmp	r0, #0
 324 0020 58D0     		beq	.L22
  91:D:/fchai/work/i-cube/I-CUBE-HUAWEI/Projects/NUCLEO-L496ZG/Applications/Cloud/mqtt-ota\oc_demo.c ****         buf += sizeof(oc_mqtt_profile_msgrcv_t);
 325              		.loc 1 91 9 is_stmt 1 view .LVU73
 326              	.LVL32:
  92:D:/fchai/work/i-cube/I-CUBE-HUAWEI/Projects/NUCLEO-L496ZG/Applications/Cloud/mqtt-ota\oc_demo.c ****         ///< copy the message and push it to the queue
 327              		.loc 1 92 9 view .LVU74
  92:D:/fchai/work/i-cube/I-CUBE-HUAWEI/Projects/NUCLEO-L496ZG/Applications/Cloud/mqtt-ota\oc_demo.c ****         ///< copy the message and push it to the queue
 328              		.loc 1 92 13 is_stmt 0 view .LVU75
 329 0022 0646     		mov	r6, r0
 330              	.LVL33:
  94:D:/fchai/work/i-cube/I-CUBE-HUAWEI/Projects/NUCLEO-L496ZG/Applications/Cloud/mqtt-ota\oc_demo.c **** 
 331              		.loc 1 94 9 is_stmt 1 view .LVU76
  94:D:/fchai/work/i-cube/I-CUBE-HUAWEI/Projects/NUCLEO-L496ZG/Applications/Cloud/mqtt-ota\oc_demo.c **** 
 332              		.loc 1 94 29 is_stmt 0 view .LVU77
 333 0024 2378     		ldrb	r3, [r4]	@ zero_extendqisi2
  94:D:/fchai/work/i-cube/I-CUBE-HUAWEI/Projects/NUCLEO-L496ZG/Applications/Cloud/mqtt-ota\oc_demo.c **** 
 334              		.loc 1 94 24 view .LVU78
 335 0026 06F8103B 		strb	r3, [r6], #16
 336              	.LVL34:
  96:D:/fchai/work/i-cube/I-CUBE-HUAWEI/Projects/NUCLEO-L496ZG/Applications/Cloud/mqtt-ota\oc_demo.c ****         {
 337              		.loc 1 96 9 is_stmt 1 view .LVU79
  96:D:/fchai/work/i-cube/I-CUBE-HUAWEI/Projects/NUCLEO-L496ZG/Applications/Cloud/mqtt-ota\oc_demo.c ****         {
 338              		.loc 1 96 11 is_stmt 0 view .LVU80
 339 002a 6368     		ldr	r3, [r4, #4]
 340 002c 4BB3     		cbz	r3, .L18
  98:D:/fchai/work/i-cube/I-CUBE-HUAWEI/Projects/NUCLEO-L496ZG/Applications/Cloud/mqtt-ota\oc_demo.c ****             datalen = strlen(msg->request_id);
 341              		.loc 1 98 13 is_stmt 1 view .LVU81
  98:D:/fchai/work/i-cube/I-CUBE-HUAWEI/Projects/NUCLEO-L496ZG/Applications/Cloud/mqtt-ota\oc_demo.c ****             datalen = strlen(msg->request_id);
 342              		.loc 1 98 34 is_stmt 0 view .LVU82
 343 002e 4660     		str	r6, [r0, #4]
  99:D:/fchai/work/i-cube/I-CUBE-HUAWEI/Projects/NUCLEO-L496ZG/Applications/Cloud/mqtt-ota\oc_demo.c ****             (void) memcpy(buf,msg->request_id,datalen);
 344              		.loc 1 99 13 is_stmt 1 view .LVU83
ARM GAS  T:\msys\tmp\cckeAxp2.s 			page 12


  99:D:/fchai/work/i-cube/I-CUBE-HUAWEI/Projects/NUCLEO-L496ZG/Applications/Cloud/mqtt-ota\oc_demo.c ****             (void) memcpy(buf,msg->request_id,datalen);
 345              		.loc 1 99 33 is_stmt 0 view .LVU84
 346 0030 6168     		ldr	r1, [r4, #4]
  99:D:/fchai/work/i-cube/I-CUBE-HUAWEI/Projects/NUCLEO-L496ZG/Applications/Cloud/mqtt-ota\oc_demo.c ****             (void) memcpy(buf,msg->request_id,datalen);
 347              		.loc 1 99 23 view .LVU85
 348 0032 0591     		str	r1, [sp, #20]
 349 0034 0846     		mov	r0, r1
 350              	.LVL35:
  99:D:/fchai/work/i-cube/I-CUBE-HUAWEI/Projects/NUCLEO-L496ZG/Applications/Cloud/mqtt-ota\oc_demo.c ****             (void) memcpy(buf,msg->request_id,datalen);
 351              		.loc 1 99 23 view .LVU86
 352 0036 FFF7FEFF 		bl	strlen
 353              	.LVL36:
 100:D:/fchai/work/i-cube/I-CUBE-HUAWEI/Projects/NUCLEO-L496ZG/Applications/Cloud/mqtt-ota\oc_demo.c ****             buf[datalen] = '\0';
 354              		.loc 1 100 20 view .LVU87
 355 003a 0599     		ldr	r1, [sp, #20]
  99:D:/fchai/work/i-cube/I-CUBE-HUAWEI/Projects/NUCLEO-L496ZG/Applications/Cloud/mqtt-ota\oc_demo.c ****             (void) memcpy(buf,msg->request_id,datalen);
 356              		.loc 1 99 23 view .LVU88
 357 003c 0746     		mov	r7, r0
 358              	.LVL37:
 100:D:/fchai/work/i-cube/I-CUBE-HUAWEI/Projects/NUCLEO-L496ZG/Applications/Cloud/mqtt-ota\oc_demo.c ****             buf[datalen] = '\0';
 359              		.loc 1 100 13 is_stmt 1 view .LVU89
 100:D:/fchai/work/i-cube/I-CUBE-HUAWEI/Projects/NUCLEO-L496ZG/Applications/Cloud/mqtt-ota\oc_demo.c ****             buf[datalen] = '\0';
 360              		.loc 1 100 20 is_stmt 0 view .LVU90
 361 003e 0246     		mov	r2, r0
 362 0040 3046     		mov	r0, r6
 363              	.LVL38:
 100:D:/fchai/work/i-cube/I-CUBE-HUAWEI/Projects/NUCLEO-L496ZG/Applications/Cloud/mqtt-ota\oc_demo.c ****             buf[datalen] = '\0';
 364              		.loc 1 100 20 view .LVU91
 365 0042 FFF7FEFF 		bl	memcpy
 366              	.LVL39:
 101:D:/fchai/work/i-cube/I-CUBE-HUAWEI/Projects/NUCLEO-L496ZG/Applications/Cloud/mqtt-ota\oc_demo.c ****             buf += (datalen+1);
 367              		.loc 1 101 13 is_stmt 1 view .LVU92
 101:D:/fchai/work/i-cube/I-CUBE-HUAWEI/Projects/NUCLEO-L496ZG/Applications/Cloud/mqtt-ota\oc_demo.c ****             buf += (datalen+1);
 368              		.loc 1 101 26 is_stmt 0 view .LVU93
 369 0046 0022     		movs	r2, #0
 102:D:/fchai/work/i-cube/I-CUBE-HUAWEI/Projects/NUCLEO-L496ZG/Applications/Cloud/mqtt-ota\oc_demo.c ****         }
 370              		.loc 1 102 17 view .LVU94
 371 0048 7B1C     		adds	r3, r7, #1
 101:D:/fchai/work/i-cube/I-CUBE-HUAWEI/Projects/NUCLEO-L496ZG/Applications/Cloud/mqtt-ota\oc_demo.c ****             buf += (datalen+1);
 372              		.loc 1 101 26 view .LVU95
 373 004a F255     		strb	r2, [r6, r7]
 102:D:/fchai/work/i-cube/I-CUBE-HUAWEI/Projects/NUCLEO-L496ZG/Applications/Cloud/mqtt-ota\oc_demo.c ****         }
 374              		.loc 1 102 13 is_stmt 1 view .LVU96
 102:D:/fchai/work/i-cube/I-CUBE-HUAWEI/Projects/NUCLEO-L496ZG/Applications/Cloud/mqtt-ota\oc_demo.c ****         }
 375              		.loc 1 102 17 is_stmt 0 view .LVU97
 376 004c 1E44     		add	r6, r6, r3
 377              	.LVL40:
 378              	.L19:
 109:D:/fchai/work/i-cube/I-CUBE-HUAWEI/Projects/NUCLEO-L496ZG/Applications/Cloud/mqtt-ota\oc_demo.c ****         demo_msg->msg_len = msg->msg_len;
 379              		.loc 1 109 9 is_stmt 1 view .LVU98
 110:D:/fchai/work/i-cube/I-CUBE-HUAWEI/Projects/NUCLEO-L496ZG/Applications/Cloud/mqtt-ota\oc_demo.c ****         datalen = msg->msg_len;
 380              		.loc 1 110 32 is_stmt 0 view .LVU99
 381 004e E368     		ldr	r3, [r4, #12]
 110:D:/fchai/work/i-cube/I-CUBE-HUAWEI/Projects/NUCLEO-L496ZG/Applications/Cloud/mqtt-ota\oc_demo.c ****         datalen = msg->msg_len;
 382              		.loc 1 110 27 view .LVU100
 383 0050 EB60     		str	r3, [r5, #12]
 112:D:/fchai/work/i-cube/I-CUBE-HUAWEI/Projects/NUCLEO-L496ZG/Applications/Cloud/mqtt-ota\oc_demo.c ****         buf[datalen] = '\0';
ARM GAS  T:\msys\tmp\cckeAxp2.s 			page 13


 384              		.loc 1 112 16 view .LVU101
 385 0052 E768     		ldr	r7, [r4, #12]
 109:D:/fchai/work/i-cube/I-CUBE-HUAWEI/Projects/NUCLEO-L496ZG/Applications/Cloud/mqtt-ota\oc_demo.c ****         demo_msg->msg_len = msg->msg_len;
 386              		.loc 1 109 23 view .LVU102
 387 0054 AE60     		str	r6, [r5, #8]
 110:D:/fchai/work/i-cube/I-CUBE-HUAWEI/Projects/NUCLEO-L496ZG/Applications/Cloud/mqtt-ota\oc_demo.c ****         datalen = msg->msg_len;
 388              		.loc 1 110 9 is_stmt 1 view .LVU103
 111:D:/fchai/work/i-cube/I-CUBE-HUAWEI/Projects/NUCLEO-L496ZG/Applications/Cloud/mqtt-ota\oc_demo.c ****         (void) memcpy(buf,msg->msg,datalen);
 389              		.loc 1 111 9 view .LVU104
 390              	.LVL41:
 112:D:/fchai/work/i-cube/I-CUBE-HUAWEI/Projects/NUCLEO-L496ZG/Applications/Cloud/mqtt-ota\oc_demo.c ****         buf[datalen] = '\0';
 391              		.loc 1 112 9 view .LVU105
 112:D:/fchai/work/i-cube/I-CUBE-HUAWEI/Projects/NUCLEO-L496ZG/Applications/Cloud/mqtt-ota\oc_demo.c ****         buf[datalen] = '\0';
 392              		.loc 1 112 16 is_stmt 0 view .LVU106
 393 0056 A168     		ldr	r1, [r4, #8]
 394 0058 3A46     		mov	r2, r7
 395 005a 3046     		mov	r0, r6
 396 005c FFF7FEFF 		bl	memcpy
 397              	.LVL42:
 113:D:/fchai/work/i-cube/I-CUBE-HUAWEI/Projects/NUCLEO-L496ZG/Applications/Cloud/mqtt-ota\oc_demo.c **** 
 398              		.loc 1 113 9 is_stmt 1 view .LVU107
 113:D:/fchai/work/i-cube/I-CUBE-HUAWEI/Projects/NUCLEO-L496ZG/Applications/Cloud/mqtt-ota\oc_demo.c **** 
 399              		.loc 1 113 22 is_stmt 0 view .LVU108
 400 0060 0023     		movs	r3, #0
 401 0062 F355     		strb	r3, [r6, r7]
 115:D:/fchai/work/i-cube/I-CUBE-HUAWEI/Projects/NUCLEO-L496ZG/Applications/Cloud/mqtt-ota\oc_demo.c ****                 (int) demo_msg->type,demo_msg->request_id==NULL?"NULL":demo_msg->request_id,\
 402              		.loc 1 115 9 is_stmt 1 view .LVU109
 115:D:/fchai/work/i-cube/I-CUBE-HUAWEI/Projects/NUCLEO-L496ZG/Applications/Cloud/mqtt-ota\oc_demo.c ****                 (int) demo_msg->type,demo_msg->request_id==NULL?"NULL":demo_msg->request_id,\
 403              		.loc 1 115 9 view .LVU110
 404 0064 FFF7FEFF 		bl	link_log_level_get
 405              	.LVL43:
 406 0068 0128     		cmp	r0, #1
 407 006a 15D9     		bls	.L29
 408              	.LVL44:
 409              	.L20:
 115:D:/fchai/work/i-cube/I-CUBE-HUAWEI/Projects/NUCLEO-L496ZG/Applications/Cloud/mqtt-ota\oc_demo.c ****                 (int) demo_msg->type,demo_msg->request_id==NULL?"NULL":demo_msg->request_id,\
 410              		.loc 1 115 9 discriminator 7 view .LVU111
 115:D:/fchai/work/i-cube/I-CUBE-HUAWEI/Projects/NUCLEO-L496ZG/Applications/Cloud/mqtt-ota\oc_demo.c ****                 (int) demo_msg->type,demo_msg->request_id==NULL?"NULL":demo_msg->request_id,\
 411              		.loc 1 115 9 discriminator 7 view .LVU112
 115:D:/fchai/work/i-cube/I-CUBE-HUAWEI/Projects/NUCLEO-L496ZG/Applications/Cloud/mqtt-ota\oc_demo.c ****                 (int) demo_msg->type,demo_msg->request_id==NULL?"NULL":demo_msg->request_id,\
 412              		.loc 1 115 9 discriminator 7 view .LVU113
 119:D:/fchai/work/i-cube/I-CUBE-HUAWEI/Projects/NUCLEO-L496ZG/Applications/Cloud/mqtt-ota\oc_demo.c ****         if(ret != 0)
 413              		.loc 1 119 9 discriminator 7 view .LVU114
 119:D:/fchai/work/i-cube/I-CUBE-HUAWEI/Projects/NUCLEO-L496ZG/Applications/Cloud/mqtt-ota\oc_demo.c ****         if(ret != 0)
 414              		.loc 1 119 15 is_stmt 0 discriminator 7 view .LVU115
 415 006c 1B4B     		ldr	r3, .L31
 416 006e 0A22     		movs	r2, #10
 417 0070 1868     		ldr	r0, [r3]
 418 0072 2946     		mov	r1, r5
 419 0074 FFF7FEFF 		bl	queue_push
 420              	.LVL45:
 120:D:/fchai/work/i-cube/I-CUBE-HUAWEI/Projects/NUCLEO-L496ZG/Applications/Cloud/mqtt-ota\oc_demo.c ****         {
 421              		.loc 1 120 9 is_stmt 1 discriminator 7 view .LVU116
 120:D:/fchai/work/i-cube/I-CUBE-HUAWEI/Projects/NUCLEO-L496ZG/Applications/Cloud/mqtt-ota\oc_demo.c ****         {
 422              		.loc 1 120 11 is_stmt 0 discriminator 7 view .LVU117
 423 0078 0446     		mov	r4, r0
 424 007a 20B9     		cbnz	r0, .L30
ARM GAS  T:\msys\tmp\cckeAxp2.s 			page 14


 425              	.LVL46:
 426              	.L14:
 127:D:/fchai/work/i-cube/I-CUBE-HUAWEI/Projects/NUCLEO-L496ZG/Applications/Cloud/mqtt-ota\oc_demo.c **** 
 427              		.loc 1 127 1 view .LVU118
 428 007c 2046     		mov	r0, r4
 429 007e 07B0     		add	sp, sp, #28
 430              	.LCFI9:
 431              		.cfi_remember_state
 432              		.cfi_def_cfa_offset 20
 433              		@ sp needed
 434 0080 F0BD     		pop	{r4, r5, r6, r7, pc}
 435              	.LVL47:
 436              	.L18:
 437              	.LCFI10:
 438              		.cfi_restore_state
 106:D:/fchai/work/i-cube/I-CUBE-HUAWEI/Projects/NUCLEO-L496ZG/Applications/Cloud/mqtt-ota\oc_demo.c ****         }
 439              		.loc 1 106 13 is_stmt 1 view .LVU119
 106:D:/fchai/work/i-cube/I-CUBE-HUAWEI/Projects/NUCLEO-L496ZG/Applications/Cloud/mqtt-ota\oc_demo.c ****         }
 440              		.loc 1 106 34 is_stmt 0 view .LVU120
 441 0082 4360     		str	r3, [r0, #4]
 442 0084 E3E7     		b	.L19
 443              	.LVL48:
 444              	.L30:
 122:D:/fchai/work/i-cube/I-CUBE-HUAWEI/Projects/NUCLEO-L496ZG/Applications/Cloud/mqtt-ota\oc_demo.c ****         }
 445              		.loc 1 122 13 is_stmt 1 view .LVU121
 446 0086 2846     		mov	r0, r5
 447              	.LVL49:
 122:D:/fchai/work/i-cube/I-CUBE-HUAWEI/Projects/NUCLEO-L496ZG/Applications/Cloud/mqtt-ota\oc_demo.c ****         }
 448              		.loc 1 122 13 is_stmt 0 view .LVU122
 449 0088 FFF7FEFF 		bl	osal_free
 450              	.LVL50:
 127:D:/fchai/work/i-cube/I-CUBE-HUAWEI/Projects/NUCLEO-L496ZG/Applications/Cloud/mqtt-ota\oc_demo.c **** 
 451              		.loc 1 127 1 view .LVU123
 452 008c 2046     		mov	r0, r4
 453 008e 07B0     		add	sp, sp, #28
 454              	.LCFI11:
 455              		.cfi_remember_state
 456              		.cfi_def_cfa_offset 20
 457              		@ sp needed
 458 0090 F0BD     		pop	{r4, r5, r6, r7, pc}
 459              	.LVL51:
 460              	.L28:
 461              	.LCFI12:
 462              		.cfi_restore_state
  82:D:/fchai/work/i-cube/I-CUBE-HUAWEI/Projects/NUCLEO-L496ZG/Applications/Cloud/mqtt-ota\oc_demo.c ****     if(NULL != msg->request_id)
 463              		.loc 1 82 62 view .LVU124
 464 0092 05F11100 		add	r0, r5, #17
 465 0096 BFE7     		b	.L16
 466              	.LVL52:
 467              	.L29:
 115:D:/fchai/work/i-cube/I-CUBE-HUAWEI/Projects/NUCLEO-L496ZG/Applications/Cloud/mqtt-ota\oc_demo.c ****                 (int) demo_msg->type,demo_msg->request_id==NULL?"NULL":demo_msg->request_id,\
 468              		.loc 1 115 9 is_stmt 1 discriminator 1 view .LVU125
 115:D:/fchai/work/i-cube/I-CUBE-HUAWEI/Projects/NUCLEO-L496ZG/Applications/Cloud/mqtt-ota\oc_demo.c ****                 (int) demo_msg->type,demo_msg->request_id==NULL?"NULL":demo_msg->request_id,\
 469              		.loc 1 115 9 discriminator 1 view .LVU126
 115:D:/fchai/work/i-cube/I-CUBE-HUAWEI/Projects/NUCLEO-L496ZG/Applications/Cloud/mqtt-ota\oc_demo.c ****                 (int) demo_msg->type,demo_msg->request_id==NULL?"NULL":demo_msg->request_id,\
 470              		.loc 1 115 9 discriminator 1 view .LVU127
 471 0098 0120     		movs	r0, #1
ARM GAS  T:\msys\tmp\cckeAxp2.s 			page 15


 472 009a FFF7FEFF 		bl	link_log_level_name
 473              	.LVL53:
 474 009e 0446     		mov	r4, r0
 475              	.LVL54:
 115:D:/fchai/work/i-cube/I-CUBE-HUAWEI/Projects/NUCLEO-L496ZG/Applications/Cloud/mqtt-ota\oc_demo.c ****                 (int) demo_msg->type,demo_msg->request_id==NULL?"NULL":demo_msg->request_id,\
 476              		.loc 1 115 9 is_stmt 0 discriminator 1 view .LVU128
 477 00a0 FFF7FEFF 		bl	osal_sys_time
 478              	.LVL55:
 479 00a4 6B68     		ldr	r3, [r5, #4]
 480 00a6 0E49     		ldr	r1, .L31+4
 481 00a8 2E78     		ldrb	r6, [r5]	@ zero_extendqisi2
 482              	.LVL56:
 115:D:/fchai/work/i-cube/I-CUBE-HUAWEI/Projects/NUCLEO-L496ZG/Applications/Cloud/mqtt-ota\oc_demo.c ****                 (int) demo_msg->type,demo_msg->request_id==NULL?"NULL":demo_msg->request_id,\
 483              		.loc 1 115 9 discriminator 1 view .LVU129
 484 00aa 0246     		mov	r2, r0
 485 00ac A868     		ldr	r0, [r5, #8]
 486 00ae 0390     		str	r0, [sp, #12]
 487 00b0 002B     		cmp	r3, #0
 488 00b2 08BF     		it	eq
 489 00b4 0B46     		moveq	r3, r1
 490 00b6 E968     		ldr	r1, [r5, #12]
 491 00b8 0291     		str	r1, [sp, #8]
 492 00ba CDE90063 		strd	r6, r3, [sp]
 493 00be 2146     		mov	r1, r4
 494 00c0 084B     		ldr	r3, .L31+8
 495 00c2 0948     		ldr	r0, .L31+12
 496 00c4 FFF7FEFF 		bl	printf
 497              	.LVL57:
 115:D:/fchai/work/i-cube/I-CUBE-HUAWEI/Projects/NUCLEO-L496ZG/Applications/Cloud/mqtt-ota\oc_demo.c ****                 (int) demo_msg->type,demo_msg->request_id==NULL?"NULL":demo_msg->request_id,\
 498              		.loc 1 115 9 is_stmt 1 discriminator 1 view .LVU130
 499 00c8 084B     		ldr	r3, .L31+16
 500 00ca 1B68     		ldr	r3, [r3]
 501 00cc 9868     		ldr	r0, [r3, #8]
 502 00ce FFF7FEFF 		bl	fflush
 503              	.LVL58:
 504 00d2 CBE7     		b	.L20
 505              	.LVL59:
 506              	.L22:
  75:D:/fchai/work/i-cube/I-CUBE-HUAWEI/Projects/NUCLEO-L496ZG/Applications/Cloud/mqtt-ota\oc_demo.c ****     char  *buf;
 507              		.loc 1 75 12 is_stmt 0 view .LVU131
 508 00d4 4FF0FF34 		mov	r4, #-1
 509              	.LVL60:
 126:D:/fchai/work/i-cube/I-CUBE-HUAWEI/Projects/NUCLEO-L496ZG/Applications/Cloud/mqtt-ota\oc_demo.c **** }
 510              		.loc 1 126 5 is_stmt 1 view .LVU132
 126:D:/fchai/work/i-cube/I-CUBE-HUAWEI/Projects/NUCLEO-L496ZG/Applications/Cloud/mqtt-ota\oc_demo.c **** }
 511              		.loc 1 126 12 is_stmt 0 view .LVU133
 512 00d8 D0E7     		b	.L14
 513              	.L32:
 514 00da 00BF     		.align	2
 515              	.L31:
 516 00dc 00000000 		.word	.LANCHOR2
 517 00e0 00000000 		.word	.LC4
 518 00e4 00000000 		.word	.LANCHOR1
 519 00e8 08000000 		.word	.LC5
 520 00ec 00000000 		.word	_impure_ptr
 521              		.cfi_endproc
 522              	.LFE3:
ARM GAS  T:\msys\tmp\cckeAxp2.s 			page 16


 524              		.section	.rodata.oc_cmd_event_versionquery.isra.0.str1.4,"aMS",%progbits,1
 525              		.align	2
 526              	.LC6:
 527 0000 464F5441 		.ascii	"FOTAV1\000"
 527      563100
 528 0007 00       		.align	2
 529              	.LC7:
 530 0008 7B202273 		.ascii	"{ \"services\": [{ \"service_id\": \"$ota\", \"even"
 530      65727669 
 530      63657322 
 530      3A205B7B 
 530      20227365 
 531 0034 745F7479 		.ascii	"t_type\": \"version_report\", \"paras\": { \"sw_ver"
 531      7065223A 
 531      20227665 
 531      7273696F 
 531      6E5F7265 
 532 0061 73696F6E 		.ascii	"sion\":\"v1.0\",\"fw_version\":\"%s\" } }]}\000"
 532      223A2276 
 532      312E3022 
 532      2C226677 
 532      5F766572 
 533 0086 0000     		.align	2
 534              	.LC8:
 535 0088 5B25735D 		.ascii	"[%s][%u][%s] REPLY:CURVERSION:%s\015\012\000"
 535      5B25755D 
 535      5B25735D 
 535      20524550 
 535      4C593A43 
 536              		.section	.text.oc_cmd_event_versionquery.isra.0,"ax",%progbits
 537              		.align	1
 538              		.p2align 2,,3
 539              		.syntax unified
 540              		.thumb
 541              		.thumb_func
 542              		.fpu fpv4-sp-d16
 544              	oc_cmd_event_versionquery.isra.0:
 545              	.LFB15:
 136:D:/fchai/work/i-cube/I-CUBE-HUAWEI/Projects/NUCLEO-L496ZG/Applications/Cloud/mqtt-ota\oc_demo.c **** {
 546              		.loc 1 136 12 is_stmt 1 view -0
 547              		.cfi_startproc
 548              		@ args = 0, pretend = 0, frame = 0
 549              		@ frame_needed = 0, uses_anonymous_args = 0
 550              	.LVL61:
 138:D:/fchai/work/i-cube/I-CUBE-HUAWEI/Projects/NUCLEO-L496ZG/Applications/Cloud/mqtt-ota\oc_demo.c ****     char *topic = "$oc/devices/"CN_EP_DEVICEID"/sys/events/up";
 551              		.loc 1 138 5 view .LVU135
 139:D:/fchai/work/i-cube/I-CUBE-HUAWEI/Projects/NUCLEO-L496ZG/Applications/Cloud/mqtt-ota\oc_demo.c ****     const char *fmt = "{ \"services\": [{ \"service_id\": \"$ota\", \"event_type\": \"version_repor
 552              		.loc 1 139 5 view .LVU136
 140:D:/fchai/work/i-cube/I-CUBE-HUAWEI/Projects/NUCLEO-L496ZG/Applications/Cloud/mqtt-ota\oc_demo.c ****     char *data;
 553              		.loc 1 140 5 view .LVU137
 141:D:/fchai/work/i-cube/I-CUBE-HUAWEI/Projects/NUCLEO-L496ZG/Applications/Cloud/mqtt-ota\oc_demo.c ****     int   len;
 554              		.loc 1 141 5 view .LVU138
 142:D:/fchai/work/i-cube/I-CUBE-HUAWEI/Projects/NUCLEO-L496ZG/Applications/Cloud/mqtt-ota\oc_demo.c **** 
 555              		.loc 1 142 5 view .LVU139
 144:D:/fchai/work/i-cube/I-CUBE-HUAWEI/Projects/NUCLEO-L496ZG/Applications/Cloud/mqtt-ota\oc_demo.c ****     data = osal_malloc(len);
 556              		.loc 1 144 5 view .LVU140
 145:D:/fchai/work/i-cube/I-CUBE-HUAWEI/Projects/NUCLEO-L496ZG/Applications/Cloud/mqtt-ota\oc_demo.c **** 
ARM GAS  T:\msys\tmp\cckeAxp2.s 			page 17


 557              		.loc 1 145 5 view .LVU141
 136:D:/fchai/work/i-cube/I-CUBE-HUAWEI/Projects/NUCLEO-L496ZG/Applications/Cloud/mqtt-ota\oc_demo.c **** {
 558              		.loc 1 136 12 is_stmt 0 view .LVU142
 559 0000 30B5     		push	{r4, r5, lr}
 560              	.LCFI13:
 561              		.cfi_def_cfa_offset 12
 562              		.cfi_offset 4, -12
 563              		.cfi_offset 5, -8
 564              		.cfi_offset 14, -4
 145:D:/fchai/work/i-cube/I-CUBE-HUAWEI/Projects/NUCLEO-L496ZG/Applications/Cloud/mqtt-ota\oc_demo.c **** 
 565              		.loc 1 145 12 view .LVU143
 566 0002 8420     		movs	r0, #132
 136:D:/fchai/work/i-cube/I-CUBE-HUAWEI/Projects/NUCLEO-L496ZG/Applications/Cloud/mqtt-ota\oc_demo.c **** {
 567              		.loc 1 136 12 view .LVU144
 568 0004 83B0     		sub	sp, sp, #12
 569              	.LCFI14:
 570              		.cfi_def_cfa_offset 24
 145:D:/fchai/work/i-cube/I-CUBE-HUAWEI/Projects/NUCLEO-L496ZG/Applications/Cloud/mqtt-ota\oc_demo.c **** 
 571              		.loc 1 145 12 view .LVU145
 572 0006 FFF7FEFF 		bl	osal_malloc
 573              	.LVL62:
 147:D:/fchai/work/i-cube/I-CUBE-HUAWEI/Projects/NUCLEO-L496ZG/Applications/Cloud/mqtt-ota\oc_demo.c ****     {
 574              		.loc 1 147 5 is_stmt 1 view .LVU146
 147:D:/fchai/work/i-cube/I-CUBE-HUAWEI/Projects/NUCLEO-L496ZG/Applications/Cloud/mqtt-ota\oc_demo.c ****     {
 575              		.loc 1 147 8 is_stmt 0 view .LVU147
 576 000a 68B3     		cbz	r0, .L36
 152:D:/fchai/work/i-cube/I-CUBE-HUAWEI/Projects/NUCLEO-L496ZG/Applications/Cloud/mqtt-ota\oc_demo.c ****     LINK_LOG_DEBUG("REPLY:CURVERSION:%s",data);
 577              		.loc 1 152 5 is_stmt 1 view .LVU148
 578 000c 184B     		ldr	r3, .L39
 579 000e 194A     		ldr	r2, .L39+4
 580 0010 8421     		movs	r1, #132
 581 0012 0446     		mov	r4, r0
 582 0014 FFF7FEFF 		bl	snprintf
 583              	.LVL63:
 153:D:/fchai/work/i-cube/I-CUBE-HUAWEI/Projects/NUCLEO-L496ZG/Applications/Cloud/mqtt-ota\oc_demo.c ****     ret = oc_mqtt_publish(topic,(uint8_t *)data, strlen(data),0);
 584              		.loc 1 153 5 view .LVU149
 153:D:/fchai/work/i-cube/I-CUBE-HUAWEI/Projects/NUCLEO-L496ZG/Applications/Cloud/mqtt-ota\oc_demo.c ****     ret = oc_mqtt_publish(topic,(uint8_t *)data, strlen(data),0);
 585              		.loc 1 153 5 view .LVU150
 586 0018 FFF7FEFF 		bl	link_log_level_get
 587              	.LVL64:
 588 001c 0128     		cmp	r0, #1
 589 001e 10D9     		bls	.L38
 590              	.L35:
 153:D:/fchai/work/i-cube/I-CUBE-HUAWEI/Projects/NUCLEO-L496ZG/Applications/Cloud/mqtt-ota\oc_demo.c ****     ret = oc_mqtt_publish(topic,(uint8_t *)data, strlen(data),0);
 591              		.loc 1 153 5 view .LVU151
 153:D:/fchai/work/i-cube/I-CUBE-HUAWEI/Projects/NUCLEO-L496ZG/Applications/Cloud/mqtt-ota\oc_demo.c ****     ret = oc_mqtt_publish(topic,(uint8_t *)data, strlen(data),0);
 592              		.loc 1 153 5 view .LVU152
 153:D:/fchai/work/i-cube/I-CUBE-HUAWEI/Projects/NUCLEO-L496ZG/Applications/Cloud/mqtt-ota\oc_demo.c ****     ret = oc_mqtt_publish(topic,(uint8_t *)data, strlen(data),0);
 593              		.loc 1 153 5 view .LVU153
 154:D:/fchai/work/i-cube/I-CUBE-HUAWEI/Projects/NUCLEO-L496ZG/Applications/Cloud/mqtt-ota\oc_demo.c ****     osal_free(data);
 594              		.loc 1 154 5 view .LVU154
 154:D:/fchai/work/i-cube/I-CUBE-HUAWEI/Projects/NUCLEO-L496ZG/Applications/Cloud/mqtt-ota\oc_demo.c ****     osal_free(data);
 595              		.loc 1 154 50 is_stmt 0 view .LVU155
 596 0020 2046     		mov	r0, r4
 597 0022 FFF7FEFF 		bl	strlen
 598              	.LVL65:
 154:D:/fchai/work/i-cube/I-CUBE-HUAWEI/Projects/NUCLEO-L496ZG/Applications/Cloud/mqtt-ota\oc_demo.c ****     osal_free(data);
ARM GAS  T:\msys\tmp\cckeAxp2.s 			page 18


 599              		.loc 1 154 11 view .LVU156
 600 0026 0023     		movs	r3, #0
 154:D:/fchai/work/i-cube/I-CUBE-HUAWEI/Projects/NUCLEO-L496ZG/Applications/Cloud/mqtt-ota\oc_demo.c ****     osal_free(data);
 601              		.loc 1 154 50 view .LVU157
 602 0028 0246     		mov	r2, r0
 154:D:/fchai/work/i-cube/I-CUBE-HUAWEI/Projects/NUCLEO-L496ZG/Applications/Cloud/mqtt-ota\oc_demo.c ****     osal_free(data);
 603              		.loc 1 154 11 view .LVU158
 604 002a 2146     		mov	r1, r4
 605 002c 1248     		ldr	r0, .L39+8
 606 002e FFF7FEFF 		bl	oc_mqtt_publish
 607              	.LVL66:
 608 0032 0346     		mov	r3, r0
 155:D:/fchai/work/i-cube/I-CUBE-HUAWEI/Projects/NUCLEO-L496ZG/Applications/Cloud/mqtt-ota\oc_demo.c **** 
 609              		.loc 1 155 5 view .LVU159
 610 0034 2046     		mov	r0, r4
 154:D:/fchai/work/i-cube/I-CUBE-HUAWEI/Projects/NUCLEO-L496ZG/Applications/Cloud/mqtt-ota\oc_demo.c ****     osal_free(data);
 611              		.loc 1 154 11 view .LVU160
 612 0036 1C46     		mov	r4, r3
 613              	.LVL67:
 155:D:/fchai/work/i-cube/I-CUBE-HUAWEI/Projects/NUCLEO-L496ZG/Applications/Cloud/mqtt-ota\oc_demo.c **** 
 614              		.loc 1 155 5 is_stmt 1 view .LVU161
 615 0038 FFF7FEFF 		bl	osal_free
 616              	.LVL68:
 157:D:/fchai/work/i-cube/I-CUBE-HUAWEI/Projects/NUCLEO-L496ZG/Applications/Cloud/mqtt-ota\oc_demo.c **** }
 617              		.loc 1 157 5 view .LVU162
 618              	.L33:
 158:D:/fchai/work/i-cube/I-CUBE-HUAWEI/Projects/NUCLEO-L496ZG/Applications/Cloud/mqtt-ota\oc_demo.c **** 
 619              		.loc 1 158 1 is_stmt 0 view .LVU163
 620 003c 2046     		mov	r0, r4
 621 003e 03B0     		add	sp, sp, #12
 622              	.LCFI15:
 623              		.cfi_remember_state
 624              		.cfi_def_cfa_offset 12
 625              		@ sp needed
 626 0040 30BD     		pop	{r4, r5, pc}
 627              	.LVL69:
 628              	.L38:
 629              	.LCFI16:
 630              		.cfi_restore_state
 153:D:/fchai/work/i-cube/I-CUBE-HUAWEI/Projects/NUCLEO-L496ZG/Applications/Cloud/mqtt-ota\oc_demo.c ****     ret = oc_mqtt_publish(topic,(uint8_t *)data, strlen(data),0);
 631              		.loc 1 153 5 is_stmt 1 view .LVU164
 153:D:/fchai/work/i-cube/I-CUBE-HUAWEI/Projects/NUCLEO-L496ZG/Applications/Cloud/mqtt-ota\oc_demo.c ****     ret = oc_mqtt_publish(topic,(uint8_t *)data, strlen(data),0);
 632              		.loc 1 153 5 view .LVU165
 153:D:/fchai/work/i-cube/I-CUBE-HUAWEI/Projects/NUCLEO-L496ZG/Applications/Cloud/mqtt-ota\oc_demo.c ****     ret = oc_mqtt_publish(topic,(uint8_t *)data, strlen(data),0);
 633              		.loc 1 153 5 view .LVU166
 634 0042 0120     		movs	r0, #1
 635 0044 FFF7FEFF 		bl	link_log_level_name
 636              	.LVL70:
 637 0048 0546     		mov	r5, r0
 638 004a FFF7FEFF 		bl	osal_sys_time
 639              	.LVL71:
 640 004e 0B4B     		ldr	r3, .L39+12
 641 0050 0094     		str	r4, [sp]
 642 0052 0246     		mov	r2, r0
 643 0054 2946     		mov	r1, r5
 644 0056 0A48     		ldr	r0, .L39+16
 645 0058 FFF7FEFF 		bl	printf
ARM GAS  T:\msys\tmp\cckeAxp2.s 			page 19


 646              	.LVL72:
 153:D:/fchai/work/i-cube/I-CUBE-HUAWEI/Projects/NUCLEO-L496ZG/Applications/Cloud/mqtt-ota\oc_demo.c ****     ret = oc_mqtt_publish(topic,(uint8_t *)data, strlen(data),0);
 647              		.loc 1 153 5 view .LVU167
 648 005c 094B     		ldr	r3, .L39+20
 649 005e 1B68     		ldr	r3, [r3]
 650 0060 9868     		ldr	r0, [r3, #8]
 651 0062 FFF7FEFF 		bl	fflush
 652              	.LVL73:
 653 0066 DBE7     		b	.L35
 654              	.LVL74:
 655              	.L36:
 149:D:/fchai/work/i-cube/I-CUBE-HUAWEI/Projects/NUCLEO-L496ZG/Applications/Cloud/mqtt-ota\oc_demo.c ****     }
 656              		.loc 1 149 16 is_stmt 0 view .LVU168
 657 0068 4FF0FF34 		mov	r4, #-1
 658 006c E6E7     		b	.L33
 659              	.L40:
 660 006e 00BF     		.align	2
 661              	.L39:
 662 0070 00000000 		.word	.LC6
 663 0074 08000000 		.word	.LC7
 664 0078 A8000000 		.word	.LC2
 665 007c 00000000 		.word	.LANCHOR3
 666 0080 88000000 		.word	.LC8
 667 0084 00000000 		.word	_impure_ptr
 668              		.cfi_endproc
 669              	.LFE15:
 671              		.section	.rodata.task_rcvmsg_entry.str1.4,"aMS",%progbits,1
 672              		.align	2
 673              	.LC9:
 674 0000 72616469 		.ascii	"radioValue\000"
 674      6F56616C 
 674      756500
 675 000b 00       		.align	2
 676              	.LC10:
 677 000c 73657276 		.ascii	"services\000"
 677      69636573 
 677      00
 678 0015 000000   		.align	2
 679              	.LC11:
 680 0018 6576656E 		.ascii	"event_type\000"
 680      745F7479 
 680      706500
 681 0023 00       		.align	2
 682              	.LC12:
 683 0024 76657273 		.ascii	"version_query\000"
 683      696F6E5F 
 683      71756572 
 683      7900
 684 0032 0000     		.align	2
 685              	.LC13:
 686 0034 6669726D 		.ascii	"firmware_upgrade\000"
 686      77617265 
 686      5F757067 
 686      72616465 
 686      00
 687 0045 000000   		.align	2
 688              	.LC14:
ARM GAS  T:\msys\tmp\cckeAxp2.s 			page 20


 689 0048 70617261 		.ascii	"paras\000"
 689      7300
 690 004e 0000     		.align	2
 691              	.LC15:
 692 0050 76657273 		.ascii	"version\000"
 692      696F6E00 
 693              		.align	2
 694              	.LC16:
 695 0058 75726C00 		.ascii	"url\000"
 696              		.align	2
 697              	.LC17:
 698 005c 66696C65 		.ascii	"file_size\000"
 698      5F73697A 
 698      6500
 699 0066 0000     		.align	2
 700              	.LC18:
 701 0068 61636365 		.ascii	"access_token\000"
 701      73735F74 
 701      6F6B656E 
 701      00
 702 0075 000000   		.align	2
 703              	.LC19:
 704 0078 7369676E 		.ascii	"sign\000"
 704      00
 705 007d 000000   		.align	2
 706              	.LC20:
 707 0080 5B25735D 		.ascii	"[%s][%u][%s] DOWNLOADING ERR\015\012\000"
 707      5B25755D 
 707      5B25735D 
 707      20444F57 
 707      4E4C4F41 
 708 009f 00       		.align	2
 709              	.LC21:
 710 00a0 5B25735D 		.ascii	"[%s][%u][%s] DOWNLOADING SUCCESS\015\012\000"
 710      5B25755D 
 710      5B25735D 
 710      20444F57 
 710      4E4C4F41 
 711              		.section	.text.task_rcvmsg_entry,"ax",%progbits
 712              		.align	1
 713              		.p2align 2,,3
 714              		.syntax unified
 715              		.thumb
 716              		.thumb_func
 717              		.fpu fpv4-sp-d16
 719              	task_rcvmsg_entry:
 720              	.LVL75:
 721              	.LFB10:
 209:D:/fchai/work/i-cube/I-CUBE-HUAWEI/Projects/NUCLEO-L496ZG/Applications/Cloud/mqtt-ota\oc_demo.c **** 
 210:D:/fchai/work/i-cube/I-CUBE-HUAWEI/Projects/NUCLEO-L496ZG/Applications/Cloud/mqtt-ota\oc_demo.c **** static int oc_cmd_event_firmupdate(cJSON *event)
 211:D:/fchai/work/i-cube/I-CUBE-HUAWEI/Projects/NUCLEO-L496ZG/Applications/Cloud/mqtt-ota\oc_demo.c **** {
 212:D:/fchai/work/i-cube/I-CUBE-HUAWEI/Projects/NUCLEO-L496ZG/Applications/Cloud/mqtt-ota\oc_demo.c ****     int ret = -1;
 213:D:/fchai/work/i-cube/I-CUBE-HUAWEI/Projects/NUCLEO-L496ZG/Applications/Cloud/mqtt-ota\oc_demo.c ****     cJSON *obj_paras;
 214:D:/fchai/work/i-cube/I-CUBE-HUAWEI/Projects/NUCLEO-L496ZG/Applications/Cloud/mqtt-ota\oc_demo.c ****     cJSON *obj_version;
 215:D:/fchai/work/i-cube/I-CUBE-HUAWEI/Projects/NUCLEO-L496ZG/Applications/Cloud/mqtt-ota\oc_demo.c ****     cJSON *obj_url;
 216:D:/fchai/work/i-cube/I-CUBE-HUAWEI/Projects/NUCLEO-L496ZG/Applications/Cloud/mqtt-ota\oc_demo.c ****     cJSON *obj_filesize;
 217:D:/fchai/work/i-cube/I-CUBE-HUAWEI/Projects/NUCLEO-L496ZG/Applications/Cloud/mqtt-ota\oc_demo.c ****     cJSON *obj_accesstoken;
ARM GAS  T:\msys\tmp\cckeAxp2.s 			page 21


 218:D:/fchai/work/i-cube/I-CUBE-HUAWEI/Projects/NUCLEO-L496ZG/Applications/Cloud/mqtt-ota\oc_demo.c ****     cJSON *obj_sign;
 219:D:/fchai/work/i-cube/I-CUBE-HUAWEI/Projects/NUCLEO-L496ZG/Applications/Cloud/mqtt-ota\oc_demo.c **** 
 220:D:/fchai/work/i-cube/I-CUBE-HUAWEI/Projects/NUCLEO-L496ZG/Applications/Cloud/mqtt-ota\oc_demo.c ****     ota_https_para_t *otapara;
 221:D:/fchai/work/i-cube/I-CUBE-HUAWEI/Projects/NUCLEO-L496ZG/Applications/Cloud/mqtt-ota\oc_demo.c **** 
 222:D:/fchai/work/i-cube/I-CUBE-HUAWEI/Projects/NUCLEO-L496ZG/Applications/Cloud/mqtt-ota\oc_demo.c ****     stop_report = true;
 223:D:/fchai/work/i-cube/I-CUBE-HUAWEI/Projects/NUCLEO-L496ZG/Applications/Cloud/mqtt-ota\oc_demo.c **** 
 224:D:/fchai/work/i-cube/I-CUBE-HUAWEI/Projects/NUCLEO-L496ZG/Applications/Cloud/mqtt-ota\oc_demo.c ****     otapara = osal_malloc(sizeof(ota_https_para_t));
 225:D:/fchai/work/i-cube/I-CUBE-HUAWEI/Projects/NUCLEO-L496ZG/Applications/Cloud/mqtt-ota\oc_demo.c ****     memset(otapara, 0, sizeof(ota_https_para_t));
 226:D:/fchai/work/i-cube/I-CUBE-HUAWEI/Projects/NUCLEO-L496ZG/Applications/Cloud/mqtt-ota\oc_demo.c ****     if(NULL == otapara)
 227:D:/fchai/work/i-cube/I-CUBE-HUAWEI/Projects/NUCLEO-L496ZG/Applications/Cloud/mqtt-ota\oc_demo.c ****     {
 228:D:/fchai/work/i-cube/I-CUBE-HUAWEI/Projects/NUCLEO-L496ZG/Applications/Cloud/mqtt-ota\oc_demo.c ****         return ret;
 229:D:/fchai/work/i-cube/I-CUBE-HUAWEI/Projects/NUCLEO-L496ZG/Applications/Cloud/mqtt-ota\oc_demo.c ****     }
 230:D:/fchai/work/i-cube/I-CUBE-HUAWEI/Projects/NUCLEO-L496ZG/Applications/Cloud/mqtt-ota\oc_demo.c **** 
 231:D:/fchai/work/i-cube/I-CUBE-HUAWEI/Projects/NUCLEO-L496ZG/Applications/Cloud/mqtt-ota\oc_demo.c ****     obj_paras = cJSON_GetObjectItem(event, "paras");
 232:D:/fchai/work/i-cube/I-CUBE-HUAWEI/Projects/NUCLEO-L496ZG/Applications/Cloud/mqtt-ota\oc_demo.c ****     if(NULL != obj_paras)
 233:D:/fchai/work/i-cube/I-CUBE-HUAWEI/Projects/NUCLEO-L496ZG/Applications/Cloud/mqtt-ota\oc_demo.c ****     {
 234:D:/fchai/work/i-cube/I-CUBE-HUAWEI/Projects/NUCLEO-L496ZG/Applications/Cloud/mqtt-ota\oc_demo.c ****         obj_version = cJSON_GetObjectItem(obj_paras, "version");
 235:D:/fchai/work/i-cube/I-CUBE-HUAWEI/Projects/NUCLEO-L496ZG/Applications/Cloud/mqtt-ota\oc_demo.c ****         obj_url = cJSON_GetObjectItem(obj_paras, "url");
 236:D:/fchai/work/i-cube/I-CUBE-HUAWEI/Projects/NUCLEO-L496ZG/Applications/Cloud/mqtt-ota\oc_demo.c ****         obj_filesize = cJSON_GetObjectItem(obj_paras, "file_size");
 237:D:/fchai/work/i-cube/I-CUBE-HUAWEI/Projects/NUCLEO-L496ZG/Applications/Cloud/mqtt-ota\oc_demo.c ****         obj_accesstoken = cJSON_GetObjectItem(obj_paras, "access_token");
 238:D:/fchai/work/i-cube/I-CUBE-HUAWEI/Projects/NUCLEO-L496ZG/Applications/Cloud/mqtt-ota\oc_demo.c ****         obj_sign = cJSON_GetObjectItem(obj_paras, "sign");
 239:D:/fchai/work/i-cube/I-CUBE-HUAWEI/Projects/NUCLEO-L496ZG/Applications/Cloud/mqtt-ota\oc_demo.c **** 
 240:D:/fchai/work/i-cube/I-CUBE-HUAWEI/Projects/NUCLEO-L496ZG/Applications/Cloud/mqtt-ota\oc_demo.c ****         if((NULL != obj_version) && (NULL != obj_url) && (NULL != obj_filesize) && \
 241:D:/fchai/work/i-cube/I-CUBE-HUAWEI/Projects/NUCLEO-L496ZG/Applications/Cloud/mqtt-ota\oc_demo.c ****                 (NULL != obj_accesstoken) && (NULL != obj_sign))
 242:D:/fchai/work/i-cube/I-CUBE-HUAWEI/Projects/NUCLEO-L496ZG/Applications/Cloud/mqtt-ota\oc_demo.c ****         {
 243:D:/fchai/work/i-cube/I-CUBE-HUAWEI/Projects/NUCLEO-L496ZG/Applications/Cloud/mqtt-ota\oc_demo.c ****             otapara->authorize = cJSON_GetStringValue(obj_accesstoken);
 244:D:/fchai/work/i-cube/I-CUBE-HUAWEI/Projects/NUCLEO-L496ZG/Applications/Cloud/mqtt-ota\oc_demo.c ****             otapara->url = cJSON_GetStringValue(obj_url);
 245:D:/fchai/work/i-cube/I-CUBE-HUAWEI/Projects/NUCLEO-L496ZG/Applications/Cloud/mqtt-ota\oc_demo.c ****             otapara->signature = cJSON_GetStringValue(obj_sign);
 246:D:/fchai/work/i-cube/I-CUBE-HUAWEI/Projects/NUCLEO-L496ZG/Applications/Cloud/mqtt-ota\oc_demo.c ****             otapara->file_size = obj_filesize->valueint;
 247:D:/fchai/work/i-cube/I-CUBE-HUAWEI/Projects/NUCLEO-L496ZG/Applications/Cloud/mqtt-ota\oc_demo.c ****             otapara->version = cJSON_GetStringValue(obj_version);
 248:D:/fchai/work/i-cube/I-CUBE-HUAWEI/Projects/NUCLEO-L496ZG/Applications/Cloud/mqtt-ota\oc_demo.c ****             otapara->report_progress = oc_report_upgrade_process;
 249:D:/fchai/work/i-cube/I-CUBE-HUAWEI/Projects/NUCLEO-L496ZG/Applications/Cloud/mqtt-ota\oc_demo.c ****             ///< here we do the firmware download
 250:D:/fchai/work/i-cube/I-CUBE-HUAWEI/Projects/NUCLEO-L496ZG/Applications/Cloud/mqtt-ota\oc_demo.c ****             if(0 != ota_https_download(otapara))
 251:D:/fchai/work/i-cube/I-CUBE-HUAWEI/Projects/NUCLEO-L496ZG/Applications/Cloud/mqtt-ota\oc_demo.c ****             {
 252:D:/fchai/work/i-cube/I-CUBE-HUAWEI/Projects/NUCLEO-L496ZG/Applications/Cloud/mqtt-ota\oc_demo.c ****                 oc_report_upgraderet(6,otapara->version);
 253:D:/fchai/work/i-cube/I-CUBE-HUAWEI/Projects/NUCLEO-L496ZG/Applications/Cloud/mqtt-ota\oc_demo.c ****                 LINK_LOG_ERROR("DOWNLOADING ERR");
 254:D:/fchai/work/i-cube/I-CUBE-HUAWEI/Projects/NUCLEO-L496ZG/Applications/Cloud/mqtt-ota\oc_demo.c ****             }
 255:D:/fchai/work/i-cube/I-CUBE-HUAWEI/Projects/NUCLEO-L496ZG/Applications/Cloud/mqtt-ota\oc_demo.c ****             else
 256:D:/fchai/work/i-cube/I-CUBE-HUAWEI/Projects/NUCLEO-L496ZG/Applications/Cloud/mqtt-ota\oc_demo.c ****             {
 257:D:/fchai/work/i-cube/I-CUBE-HUAWEI/Projects/NUCLEO-L496ZG/Applications/Cloud/mqtt-ota\oc_demo.c **** //                oc_report_upgraderet(0,otapara->version);
 258:D:/fchai/work/i-cube/I-CUBE-HUAWEI/Projects/NUCLEO-L496ZG/Applications/Cloud/mqtt-ota\oc_demo.c ****                 LINK_LOG_DEBUG("DOWNLOADING SUCCESS");
 259:D:/fchai/work/i-cube/I-CUBE-HUAWEI/Projects/NUCLEO-L496ZG/Applications/Cloud/mqtt-ota\oc_demo.c ****                 osal_task_sleep(500);
 260:D:/fchai/work/i-cube/I-CUBE-HUAWEI/Projects/NUCLEO-L496ZG/Applications/Cloud/mqtt-ota\oc_demo.c ****                 osal_reboot();
 261:D:/fchai/work/i-cube/I-CUBE-HUAWEI/Projects/NUCLEO-L496ZG/Applications/Cloud/mqtt-ota\oc_demo.c ****             }
 262:D:/fchai/work/i-cube/I-CUBE-HUAWEI/Projects/NUCLEO-L496ZG/Applications/Cloud/mqtt-ota\oc_demo.c ****             ret = 0;
 263:D:/fchai/work/i-cube/I-CUBE-HUAWEI/Projects/NUCLEO-L496ZG/Applications/Cloud/mqtt-ota\oc_demo.c ****         }
 264:D:/fchai/work/i-cube/I-CUBE-HUAWEI/Projects/NUCLEO-L496ZG/Applications/Cloud/mqtt-ota\oc_demo.c ****     }
 265:D:/fchai/work/i-cube/I-CUBE-HUAWEI/Projects/NUCLEO-L496ZG/Applications/Cloud/mqtt-ota\oc_demo.c **** 
 266:D:/fchai/work/i-cube/I-CUBE-HUAWEI/Projects/NUCLEO-L496ZG/Applications/Cloud/mqtt-ota\oc_demo.c ****     osal_free(otapara);
 267:D:/fchai/work/i-cube/I-CUBE-HUAWEI/Projects/NUCLEO-L496ZG/Applications/Cloud/mqtt-ota\oc_demo.c **** 
 268:D:/fchai/work/i-cube/I-CUBE-HUAWEI/Projects/NUCLEO-L496ZG/Applications/Cloud/mqtt-ota\oc_demo.c ****     return ret;
 269:D:/fchai/work/i-cube/I-CUBE-HUAWEI/Projects/NUCLEO-L496ZG/Applications/Cloud/mqtt-ota\oc_demo.c **** }
 270:D:/fchai/work/i-cube/I-CUBE-HUAWEI/Projects/NUCLEO-L496ZG/Applications/Cloud/mqtt-ota\oc_demo.c **** 
 271:D:/fchai/work/i-cube/I-CUBE-HUAWEI/Projects/NUCLEO-L496ZG/Applications/Cloud/mqtt-ota\oc_demo.c **** 
 272:D:/fchai/work/i-cube/I-CUBE-HUAWEI/Projects/NUCLEO-L496ZG/Applications/Cloud/mqtt-ota\oc_demo.c **** static int oc_cmd_event(oc_mqtt_profile_msgrcv_t *msg)
 273:D:/fchai/work/i-cube/I-CUBE-HUAWEI/Projects/NUCLEO-L496ZG/Applications/Cloud/mqtt-ota\oc_demo.c **** {
 274:D:/fchai/work/i-cube/I-CUBE-HUAWEI/Projects/NUCLEO-L496ZG/Applications/Cloud/mqtt-ota\oc_demo.c ****     int ret = -1;
ARM GAS  T:\msys\tmp\cckeAxp2.s 			page 22


 275:D:/fchai/work/i-cube/I-CUBE-HUAWEI/Projects/NUCLEO-L496ZG/Applications/Cloud/mqtt-ota\oc_demo.c ****     cJSON *obj_root;
 276:D:/fchai/work/i-cube/I-CUBE-HUAWEI/Projects/NUCLEO-L496ZG/Applications/Cloud/mqtt-ota\oc_demo.c ****     cJSON *obj_servicearry;
 277:D:/fchai/work/i-cube/I-CUBE-HUAWEI/Projects/NUCLEO-L496ZG/Applications/Cloud/mqtt-ota\oc_demo.c ****     cJSON *obj_service;
 278:D:/fchai/work/i-cube/I-CUBE-HUAWEI/Projects/NUCLEO-L496ZG/Applications/Cloud/mqtt-ota\oc_demo.c ****     cJSON *obj_eventtype;
 279:D:/fchai/work/i-cube/I-CUBE-HUAWEI/Projects/NUCLEO-L496ZG/Applications/Cloud/mqtt-ota\oc_demo.c **** 
 280:D:/fchai/work/i-cube/I-CUBE-HUAWEI/Projects/NUCLEO-L496ZG/Applications/Cloud/mqtt-ota\oc_demo.c ****     obj_root = cJSON_Parse(msg->msg);
 281:D:/fchai/work/i-cube/I-CUBE-HUAWEI/Projects/NUCLEO-L496ZG/Applications/Cloud/mqtt-ota\oc_demo.c ****     if(NULL == obj_root)
 282:D:/fchai/work/i-cube/I-CUBE-HUAWEI/Projects/NUCLEO-L496ZG/Applications/Cloud/mqtt-ota\oc_demo.c ****     {
 283:D:/fchai/work/i-cube/I-CUBE-HUAWEI/Projects/NUCLEO-L496ZG/Applications/Cloud/mqtt-ota\oc_demo.c ****         goto EXIT_JSONFMT;
 284:D:/fchai/work/i-cube/I-CUBE-HUAWEI/Projects/NUCLEO-L496ZG/Applications/Cloud/mqtt-ota\oc_demo.c ****     }
 285:D:/fchai/work/i-cube/I-CUBE-HUAWEI/Projects/NUCLEO-L496ZG/Applications/Cloud/mqtt-ota\oc_demo.c **** 
 286:D:/fchai/work/i-cube/I-CUBE-HUAWEI/Projects/NUCLEO-L496ZG/Applications/Cloud/mqtt-ota\oc_demo.c ****     obj_servicearry = cJSON_GetObjectItem(obj_root,CN_EVENT_SERVICES_ID);
 287:D:/fchai/work/i-cube/I-CUBE-HUAWEI/Projects/NUCLEO-L496ZG/Applications/Cloud/mqtt-ota\oc_demo.c ****     if((NULL == obj_servicearry) || (!cJSON_IsArray(obj_servicearry)))
 288:D:/fchai/work/i-cube/I-CUBE-HUAWEI/Projects/NUCLEO-L496ZG/Applications/Cloud/mqtt-ota\oc_demo.c ****     {
 289:D:/fchai/work/i-cube/I-CUBE-HUAWEI/Projects/NUCLEO-L496ZG/Applications/Cloud/mqtt-ota\oc_demo.c ****         goto EXIT_JSONSERVICEARRY;
 290:D:/fchai/work/i-cube/I-CUBE-HUAWEI/Projects/NUCLEO-L496ZG/Applications/Cloud/mqtt-ota\oc_demo.c ****     }
 291:D:/fchai/work/i-cube/I-CUBE-HUAWEI/Projects/NUCLEO-L496ZG/Applications/Cloud/mqtt-ota\oc_demo.c **** 
 292:D:/fchai/work/i-cube/I-CUBE-HUAWEI/Projects/NUCLEO-L496ZG/Applications/Cloud/mqtt-ota\oc_demo.c ****     cJSON_ArrayForEach(obj_service,obj_servicearry)
 293:D:/fchai/work/i-cube/I-CUBE-HUAWEI/Projects/NUCLEO-L496ZG/Applications/Cloud/mqtt-ota\oc_demo.c ****     {
 294:D:/fchai/work/i-cube/I-CUBE-HUAWEI/Projects/NUCLEO-L496ZG/Applications/Cloud/mqtt-ota\oc_demo.c ****         obj_eventtype = cJSON_GetObjectItem(obj_service,CN_EVENT_TYPE_INDEX);
 295:D:/fchai/work/i-cube/I-CUBE-HUAWEI/Projects/NUCLEO-L496ZG/Applications/Cloud/mqtt-ota\oc_demo.c ****         if(NULL == obj_eventtype)
 296:D:/fchai/work/i-cube/I-CUBE-HUAWEI/Projects/NUCLEO-L496ZG/Applications/Cloud/mqtt-ota\oc_demo.c ****         {
 297:D:/fchai/work/i-cube/I-CUBE-HUAWEI/Projects/NUCLEO-L496ZG/Applications/Cloud/mqtt-ota\oc_demo.c ****             continue;
 298:D:/fchai/work/i-cube/I-CUBE-HUAWEI/Projects/NUCLEO-L496ZG/Applications/Cloud/mqtt-ota\oc_demo.c ****         }
 299:D:/fchai/work/i-cube/I-CUBE-HUAWEI/Projects/NUCLEO-L496ZG/Applications/Cloud/mqtt-ota\oc_demo.c ****         if(0 == strcmp(cJSON_GetStringValue(obj_eventtype),CN_EVENT_TYPE_VERSIONQUERY))
 300:D:/fchai/work/i-cube/I-CUBE-HUAWEI/Projects/NUCLEO-L496ZG/Applications/Cloud/mqtt-ota\oc_demo.c ****         {
 301:D:/fchai/work/i-cube/I-CUBE-HUAWEI/Projects/NUCLEO-L496ZG/Applications/Cloud/mqtt-ota\oc_demo.c ****             oc_cmd_event_versionquery(obj_service);
 302:D:/fchai/work/i-cube/I-CUBE-HUAWEI/Projects/NUCLEO-L496ZG/Applications/Cloud/mqtt-ota\oc_demo.c ****         }
 303:D:/fchai/work/i-cube/I-CUBE-HUAWEI/Projects/NUCLEO-L496ZG/Applications/Cloud/mqtt-ota\oc_demo.c ****         else if(0 == strcmp(cJSON_GetStringValue(obj_eventtype),CN_EVENT_TYPE_FIRMUPDATE))
 304:D:/fchai/work/i-cube/I-CUBE-HUAWEI/Projects/NUCLEO-L496ZG/Applications/Cloud/mqtt-ota\oc_demo.c ****         {
 305:D:/fchai/work/i-cube/I-CUBE-HUAWEI/Projects/NUCLEO-L496ZG/Applications/Cloud/mqtt-ota\oc_demo.c ****             oc_cmd_event_firmupdate(obj_service);
 306:D:/fchai/work/i-cube/I-CUBE-HUAWEI/Projects/NUCLEO-L496ZG/Applications/Cloud/mqtt-ota\oc_demo.c ****         }
 307:D:/fchai/work/i-cube/I-CUBE-HUAWEI/Projects/NUCLEO-L496ZG/Applications/Cloud/mqtt-ota\oc_demo.c ****     }
 308:D:/fchai/work/i-cube/I-CUBE-HUAWEI/Projects/NUCLEO-L496ZG/Applications/Cloud/mqtt-ota\oc_demo.c ****     cJSON_Delete(obj_root);
 309:D:/fchai/work/i-cube/I-CUBE-HUAWEI/Projects/NUCLEO-L496ZG/Applications/Cloud/mqtt-ota\oc_demo.c ****     return 0;
 310:D:/fchai/work/i-cube/I-CUBE-HUAWEI/Projects/NUCLEO-L496ZG/Applications/Cloud/mqtt-ota\oc_demo.c **** 
 311:D:/fchai/work/i-cube/I-CUBE-HUAWEI/Projects/NUCLEO-L496ZG/Applications/Cloud/mqtt-ota\oc_demo.c **** EXIT_JSONSERVICEARRY:
 312:D:/fchai/work/i-cube/I-CUBE-HUAWEI/Projects/NUCLEO-L496ZG/Applications/Cloud/mqtt-ota\oc_demo.c ****     cJSON_Delete(obj_root);
 313:D:/fchai/work/i-cube/I-CUBE-HUAWEI/Projects/NUCLEO-L496ZG/Applications/Cloud/mqtt-ota\oc_demo.c **** EXIT_JSONFMT:
 314:D:/fchai/work/i-cube/I-CUBE-HUAWEI/Projects/NUCLEO-L496ZG/Applications/Cloud/mqtt-ota\oc_demo.c ****     return ret;
 315:D:/fchai/work/i-cube/I-CUBE-HUAWEI/Projects/NUCLEO-L496ZG/Applications/Cloud/mqtt-ota\oc_demo.c **** }
 316:D:/fchai/work/i-cube/I-CUBE-HUAWEI/Projects/NUCLEO-L496ZG/Applications/Cloud/mqtt-ota\oc_demo.c **** 
 317:D:/fchai/work/i-cube/I-CUBE-HUAWEI/Projects/NUCLEO-L496ZG/Applications/Cloud/mqtt-ota\oc_demo.c **** ///< now we deal the message here
 318:D:/fchai/work/i-cube/I-CUBE-HUAWEI/Projects/NUCLEO-L496ZG/Applications/Cloud/mqtt-ota\oc_demo.c **** static int  oc_cmd_normal(oc_mqtt_profile_msgrcv_t *demo_msg)
 319:D:/fchai/work/i-cube/I-CUBE-HUAWEI/Projects/NUCLEO-L496ZG/Applications/Cloud/mqtt-ota\oc_demo.c **** {
 320:D:/fchai/work/i-cube/I-CUBE-HUAWEI/Projects/NUCLEO-L496ZG/Applications/Cloud/mqtt-ota\oc_demo.c ****     static int value = 0;
 321:D:/fchai/work/i-cube/I-CUBE-HUAWEI/Projects/NUCLEO-L496ZG/Applications/Cloud/mqtt-ota\oc_demo.c ****     oc_mqtt_profile_cmdresp_t  cmdresp;
 322:D:/fchai/work/i-cube/I-CUBE-HUAWEI/Projects/NUCLEO-L496ZG/Applications/Cloud/mqtt-ota\oc_demo.c ****     oc_mqtt_profile_propertysetresp_t propertysetresp;
 323:D:/fchai/work/i-cube/I-CUBE-HUAWEI/Projects/NUCLEO-L496ZG/Applications/Cloud/mqtt-ota\oc_demo.c ****     oc_mqtt_profile_propertygetresp_t propertygetresp;
 324:D:/fchai/work/i-cube/I-CUBE-HUAWEI/Projects/NUCLEO-L496ZG/Applications/Cloud/mqtt-ota\oc_demo.c **** 
 325:D:/fchai/work/i-cube/I-CUBE-HUAWEI/Projects/NUCLEO-L496ZG/Applications/Cloud/mqtt-ota\oc_demo.c ****     switch(demo_msg->type)
 326:D:/fchai/work/i-cube/I-CUBE-HUAWEI/Projects/NUCLEO-L496ZG/Applications/Cloud/mqtt-ota\oc_demo.c ****     {
 327:D:/fchai/work/i-cube/I-CUBE-HUAWEI/Projects/NUCLEO-L496ZG/Applications/Cloud/mqtt-ota\oc_demo.c ****         case EN_OC_MQTT_PROFILE_MSG_TYPE_DOWN_MSGDOWN:
 328:D:/fchai/work/i-cube/I-CUBE-HUAWEI/Projects/NUCLEO-L496ZG/Applications/Cloud/mqtt-ota\oc_demo.c ****             ///< add your own deal here
 329:D:/fchai/work/i-cube/I-CUBE-HUAWEI/Projects/NUCLEO-L496ZG/Applications/Cloud/mqtt-ota\oc_demo.c ****             break;
 330:D:/fchai/work/i-cube/I-CUBE-HUAWEI/Projects/NUCLEO-L496ZG/Applications/Cloud/mqtt-ota\oc_demo.c ****         case EN_OC_MQTT_PROFILE_MSG_TYPE_DOWN_COMMANDS:
 331:D:/fchai/work/i-cube/I-CUBE-HUAWEI/Projects/NUCLEO-L496ZG/Applications/Cloud/mqtt-ota\oc_demo.c ****             ///< add your own deal here
ARM GAS  T:\msys\tmp\cckeAxp2.s 			page 23


 332:D:/fchai/work/i-cube/I-CUBE-HUAWEI/Projects/NUCLEO-L496ZG/Applications/Cloud/mqtt-ota\oc_demo.c **** 
 333:D:/fchai/work/i-cube/I-CUBE-HUAWEI/Projects/NUCLEO-L496ZG/Applications/Cloud/mqtt-ota\oc_demo.c ****             ///< do the response
 334:D:/fchai/work/i-cube/I-CUBE-HUAWEI/Projects/NUCLEO-L496ZG/Applications/Cloud/mqtt-ota\oc_demo.c ****             cmdresp.paras = NULL;
 335:D:/fchai/work/i-cube/I-CUBE-HUAWEI/Projects/NUCLEO-L496ZG/Applications/Cloud/mqtt-ota\oc_demo.c ****             cmdresp.request_id = demo_msg->request_id;
 336:D:/fchai/work/i-cube/I-CUBE-HUAWEI/Projects/NUCLEO-L496ZG/Applications/Cloud/mqtt-ota\oc_demo.c ****             cmdresp.ret_code = 0;
 337:D:/fchai/work/i-cube/I-CUBE-HUAWEI/Projects/NUCLEO-L496ZG/Applications/Cloud/mqtt-ota\oc_demo.c ****             cmdresp.ret_name = NULL;
 338:D:/fchai/work/i-cube/I-CUBE-HUAWEI/Projects/NUCLEO-L496ZG/Applications/Cloud/mqtt-ota\oc_demo.c ****             (void)oc_mqtt_profile_cmdresp(NULL,&cmdresp);
 339:D:/fchai/work/i-cube/I-CUBE-HUAWEI/Projects/NUCLEO-L496ZG/Applications/Cloud/mqtt-ota\oc_demo.c ****             break;
 340:D:/fchai/work/i-cube/I-CUBE-HUAWEI/Projects/NUCLEO-L496ZG/Applications/Cloud/mqtt-ota\oc_demo.c **** 
 341:D:/fchai/work/i-cube/I-CUBE-HUAWEI/Projects/NUCLEO-L496ZG/Applications/Cloud/mqtt-ota\oc_demo.c ****         case EN_OC_MQTT_PROFILE_MSG_TYPE_DOWN_PROPERTYSET:
 342:D:/fchai/work/i-cube/I-CUBE-HUAWEI/Projects/NUCLEO-L496ZG/Applications/Cloud/mqtt-ota\oc_demo.c ****             ///< add your own deal here
 343:D:/fchai/work/i-cube/I-CUBE-HUAWEI/Projects/NUCLEO-L496ZG/Applications/Cloud/mqtt-ota\oc_demo.c **** 
 344:D:/fchai/work/i-cube/I-CUBE-HUAWEI/Projects/NUCLEO-L496ZG/Applications/Cloud/mqtt-ota\oc_demo.c ****             ///< do the response
 345:D:/fchai/work/i-cube/I-CUBE-HUAWEI/Projects/NUCLEO-L496ZG/Applications/Cloud/mqtt-ota\oc_demo.c ****             propertysetresp.request_id = demo_msg->request_id;
 346:D:/fchai/work/i-cube/I-CUBE-HUAWEI/Projects/NUCLEO-L496ZG/Applications/Cloud/mqtt-ota\oc_demo.c ****             propertysetresp.ret_code = 0;
 347:D:/fchai/work/i-cube/I-CUBE-HUAWEI/Projects/NUCLEO-L496ZG/Applications/Cloud/mqtt-ota\oc_demo.c ****             propertysetresp.ret_description = NULL;
 348:D:/fchai/work/i-cube/I-CUBE-HUAWEI/Projects/NUCLEO-L496ZG/Applications/Cloud/mqtt-ota\oc_demo.c ****             (void)oc_mqtt_profile_propertysetresp(NULL,&propertysetresp);
 349:D:/fchai/work/i-cube/I-CUBE-HUAWEI/Projects/NUCLEO-L496ZG/Applications/Cloud/mqtt-ota\oc_demo.c ****             break;
 350:D:/fchai/work/i-cube/I-CUBE-HUAWEI/Projects/NUCLEO-L496ZG/Applications/Cloud/mqtt-ota\oc_demo.c **** 
 351:D:/fchai/work/i-cube/I-CUBE-HUAWEI/Projects/NUCLEO-L496ZG/Applications/Cloud/mqtt-ota\oc_demo.c ****         case  EN_OC_MQTT_PROFILE_MSG_TYPE_DOWN_PROPERTYGET:
 352:D:/fchai/work/i-cube/I-CUBE-HUAWEI/Projects/NUCLEO-L496ZG/Applications/Cloud/mqtt-ota\oc_demo.c ****             ///< add your own deal here
 353:D:/fchai/work/i-cube/I-CUBE-HUAWEI/Projects/NUCLEO-L496ZG/Applications/Cloud/mqtt-ota\oc_demo.c **** 
 354:D:/fchai/work/i-cube/I-CUBE-HUAWEI/Projects/NUCLEO-L496ZG/Applications/Cloud/mqtt-ota\oc_demo.c ****             ///< do the response
 355:D:/fchai/work/i-cube/I-CUBE-HUAWEI/Projects/NUCLEO-L496ZG/Applications/Cloud/mqtt-ota\oc_demo.c ****             value  = (value+1)%100;
 356:D:/fchai/work/i-cube/I-CUBE-HUAWEI/Projects/NUCLEO-L496ZG/Applications/Cloud/mqtt-ota\oc_demo.c ****             s_device_service.service_property->key = "radioValue";
 357:D:/fchai/work/i-cube/I-CUBE-HUAWEI/Projects/NUCLEO-L496ZG/Applications/Cloud/mqtt-ota\oc_demo.c ****             s_device_service.service_property->value = &value;
 358:D:/fchai/work/i-cube/I-CUBE-HUAWEI/Projects/NUCLEO-L496ZG/Applications/Cloud/mqtt-ota\oc_demo.c ****             s_device_service.service_property->type = EN_OC_MQTT_PROFILE_VALUE_INT;
 359:D:/fchai/work/i-cube/I-CUBE-HUAWEI/Projects/NUCLEO-L496ZG/Applications/Cloud/mqtt-ota\oc_demo.c **** 
 360:D:/fchai/work/i-cube/I-CUBE-HUAWEI/Projects/NUCLEO-L496ZG/Applications/Cloud/mqtt-ota\oc_demo.c ****             propertygetresp.request_id = demo_msg->request_id;
 361:D:/fchai/work/i-cube/I-CUBE-HUAWEI/Projects/NUCLEO-L496ZG/Applications/Cloud/mqtt-ota\oc_demo.c ****             propertygetresp.services = &s_device_service;
 362:D:/fchai/work/i-cube/I-CUBE-HUAWEI/Projects/NUCLEO-L496ZG/Applications/Cloud/mqtt-ota\oc_demo.c ****             (void)oc_mqtt_profile_propertygetresp(NULL,&propertygetresp);
 363:D:/fchai/work/i-cube/I-CUBE-HUAWEI/Projects/NUCLEO-L496ZG/Applications/Cloud/mqtt-ota\oc_demo.c ****             break;
 364:D:/fchai/work/i-cube/I-CUBE-HUAWEI/Projects/NUCLEO-L496ZG/Applications/Cloud/mqtt-ota\oc_demo.c ****         case EN_OC_MQTT_PROFILE_MSG_TYPE_DOWN_EVENT:
 365:D:/fchai/work/i-cube/I-CUBE-HUAWEI/Projects/NUCLEO-L496ZG/Applications/Cloud/mqtt-ota\oc_demo.c ****             oc_cmd_event(demo_msg);
 366:D:/fchai/work/i-cube/I-CUBE-HUAWEI/Projects/NUCLEO-L496ZG/Applications/Cloud/mqtt-ota\oc_demo.c ****             break;
 367:D:/fchai/work/i-cube/I-CUBE-HUAWEI/Projects/NUCLEO-L496ZG/Applications/Cloud/mqtt-ota\oc_demo.c **** 
 368:D:/fchai/work/i-cube/I-CUBE-HUAWEI/Projects/NUCLEO-L496ZG/Applications/Cloud/mqtt-ota\oc_demo.c ****         default:
 369:D:/fchai/work/i-cube/I-CUBE-HUAWEI/Projects/NUCLEO-L496ZG/Applications/Cloud/mqtt-ota\oc_demo.c ****             break;
 370:D:/fchai/work/i-cube/I-CUBE-HUAWEI/Projects/NUCLEO-L496ZG/Applications/Cloud/mqtt-ota\oc_demo.c **** 
 371:D:/fchai/work/i-cube/I-CUBE-HUAWEI/Projects/NUCLEO-L496ZG/Applications/Cloud/mqtt-ota\oc_demo.c ****     }
 372:D:/fchai/work/i-cube/I-CUBE-HUAWEI/Projects/NUCLEO-L496ZG/Applications/Cloud/mqtt-ota\oc_demo.c ****     return 0;
 373:D:/fchai/work/i-cube/I-CUBE-HUAWEI/Projects/NUCLEO-L496ZG/Applications/Cloud/mqtt-ota\oc_demo.c **** }
 374:D:/fchai/work/i-cube/I-CUBE-HUAWEI/Projects/NUCLEO-L496ZG/Applications/Cloud/mqtt-ota\oc_demo.c **** 
 375:D:/fchai/work/i-cube/I-CUBE-HUAWEI/Projects/NUCLEO-L496ZG/Applications/Cloud/mqtt-ota\oc_demo.c **** static int task_rcvmsg_entry( void *args)
 376:D:/fchai/work/i-cube/I-CUBE-HUAWEI/Projects/NUCLEO-L496ZG/Applications/Cloud/mqtt-ota\oc_demo.c **** {
 722              		.loc 1 376 1 is_stmt 1 view -0
 723              		.cfi_startproc
 724              		@ Volatile: function does not return.
 725              		@ args = 0, pretend = 0, frame = 40
 726              		@ frame_needed = 0, uses_anonymous_args = 0
 727              		.loc 1 376 1 is_stmt 0 view .LVU170
 728 0000 2DE98048 		push	{r7, fp, lr}
 729              	.LCFI17:
 730              		.cfi_def_cfa_offset 12
 731              		.cfi_offset 7, -12
 732              		.cfi_offset 11, -8
 733              		.cfi_offset 14, -4
ARM GAS  T:\msys\tmp\cckeAxp2.s 			page 24


 734 0004 DFF880B2 		ldr	fp, .L90+80
 735              	.LBB8:
 736              	.LBB9:
 737              	.LBB10:
 738              	.LBB11:
 294:D:/fchai/work/i-cube/I-CUBE-HUAWEI/Projects/NUCLEO-L496ZG/Applications/Cloud/mqtt-ota\oc_demo.c ****         if(NULL == obj_eventtype)
 739              		.loc 1 294 25 view .LVU171
 740 0008 8B4F     		ldr	r7, .L90
 741              	.LBE11:
 742              	.LBE10:
 743              	.LBE9:
 744              	.LBE8:
 745              		.loc 1 376 1 view .LVU172
 746 000a 8BB0     		sub	sp, sp, #44
 747              	.LCFI18:
 748              		.cfi_def_cfa_offset 56
 749              	.LVL76:
 750              	.L63:
 377:D:/fchai/work/i-cube/I-CUBE-HUAWEI/Projects/NUCLEO-L496ZG/Applications/Cloud/mqtt-ota\oc_demo.c ****     oc_mqtt_profile_msgrcv_t *demo_msg;
 378:D:/fchai/work/i-cube/I-CUBE-HUAWEI/Projects/NUCLEO-L496ZG/Applications/Cloud/mqtt-ota\oc_demo.c ****     while(1)
 379:D:/fchai/work/i-cube/I-CUBE-HUAWEI/Projects/NUCLEO-L496ZG/Applications/Cloud/mqtt-ota\oc_demo.c ****     {
 380:D:/fchai/work/i-cube/I-CUBE-HUAWEI/Projects/NUCLEO-L496ZG/Applications/Cloud/mqtt-ota\oc_demo.c ****         demo_msg = NULL;
 751              		.loc 1 380 18 view .LVU173
 752 000c 0024     		movs	r4, #0
 753              	.L42:
 377:D:/fchai/work/i-cube/I-CUBE-HUAWEI/Projects/NUCLEO-L496ZG/Applications/Cloud/mqtt-ota\oc_demo.c ****     oc_mqtt_profile_msgrcv_t *demo_msg;
 754              		.loc 1 377 5 is_stmt 1 view .LVU174
 378:D:/fchai/work/i-cube/I-CUBE-HUAWEI/Projects/NUCLEO-L496ZG/Applications/Cloud/mqtt-ota\oc_demo.c ****     {
 755              		.loc 1 378 5 view .LVU175
 756              		.loc 1 380 9 view .LVU176
 381:D:/fchai/work/i-cube/I-CUBE-HUAWEI/Projects/NUCLEO-L496ZG/Applications/Cloud/mqtt-ota\oc_demo.c ****         (void)queue_pop(s_queue_rcvmsg,(void **)&demo_msg,(int)cn_osal_timeout_forever);
 757              		.loc 1 381 15 is_stmt 0 view .LVU177
 758 000e DBF80000 		ldr	r0, [fp]
 380:D:/fchai/work/i-cube/I-CUBE-HUAWEI/Projects/NUCLEO-L496ZG/Applications/Cloud/mqtt-ota\oc_demo.c ****         (void)queue_pop(s_queue_rcvmsg,(void **)&demo_msg,(int)cn_osal_timeout_forever);
 759              		.loc 1 380 18 view .LVU178
 760 0012 0594     		str	r4, [sp, #20]
 761              		.loc 1 381 9 is_stmt 1 view .LVU179
 762              		.loc 1 381 15 is_stmt 0 view .LVU180
 763 0014 4FF0FF32 		mov	r2, #-1
 764 0018 05A9     		add	r1, sp, #20
 765 001a FFF7FEFF 		bl	queue_pop
 766              	.LVL77:
 382:D:/fchai/work/i-cube/I-CUBE-HUAWEI/Projects/NUCLEO-L496ZG/Applications/Cloud/mqtt-ota\oc_demo.c ****         if(NULL != demo_msg)
 767              		.loc 1 382 9 is_stmt 1 view .LVU181
 768              		.loc 1 382 17 is_stmt 0 view .LVU182
 769 001e 0598     		ldr	r0, [sp, #20]
 770              		.loc 1 382 11 view .LVU183
 771 0020 0028     		cmp	r0, #0
 772 0022 F4D0     		beq	.L42
 383:D:/fchai/work/i-cube/I-CUBE-HUAWEI/Projects/NUCLEO-L496ZG/Applications/Cloud/mqtt-ota\oc_demo.c ****         {
 384:D:/fchai/work/i-cube/I-CUBE-HUAWEI/Projects/NUCLEO-L496ZG/Applications/Cloud/mqtt-ota\oc_demo.c ****             (void) oc_cmd_normal(demo_msg);
 773              		.loc 1 384 13 is_stmt 1 view .LVU184
 774              	.LVL78:
 775              	.LBB22:
 776              	.LBI8:
 318:D:/fchai/work/i-cube/I-CUBE-HUAWEI/Projects/NUCLEO-L496ZG/Applications/Cloud/mqtt-ota\oc_demo.c **** {
 777              		.loc 1 318 13 view .LVU185
ARM GAS  T:\msys\tmp\cckeAxp2.s 			page 25


 778              	.LBB20:
 320:D:/fchai/work/i-cube/I-CUBE-HUAWEI/Projects/NUCLEO-L496ZG/Applications/Cloud/mqtt-ota\oc_demo.c ****     oc_mqtt_profile_cmdresp_t  cmdresp;
 779              		.loc 1 320 5 view .LVU186
 321:D:/fchai/work/i-cube/I-CUBE-HUAWEI/Projects/NUCLEO-L496ZG/Applications/Cloud/mqtt-ota\oc_demo.c ****     oc_mqtt_profile_propertysetresp_t propertysetresp;
 780              		.loc 1 321 5 view .LVU187
 322:D:/fchai/work/i-cube/I-CUBE-HUAWEI/Projects/NUCLEO-L496ZG/Applications/Cloud/mqtt-ota\oc_demo.c ****     oc_mqtt_profile_propertygetresp_t propertygetresp;
 781              		.loc 1 322 5 view .LVU188
 323:D:/fchai/work/i-cube/I-CUBE-HUAWEI/Projects/NUCLEO-L496ZG/Applications/Cloud/mqtt-ota\oc_demo.c **** 
 782              		.loc 1 323 5 view .LVU189
 325:D:/fchai/work/i-cube/I-CUBE-HUAWEI/Projects/NUCLEO-L496ZG/Applications/Cloud/mqtt-ota\oc_demo.c ****     {
 783              		.loc 1 325 5 view .LVU190
 784 0024 0378     		ldrb	r3, [r0]	@ zero_extendqisi2
 785 0026 013B     		subs	r3, r3, #1
 786 0028 032B     		cmp	r3, #3
 787 002a 00F2CE80 		bhi	.L43
 788 002e DFE813F0 		tbh	[pc, r3, lsl #1]
 789              	.L45:
 790 0032 CF00     		.2byte	(.L48-.L45)/2
 791 0034 DB00     		.2byte	(.L47-.L45)/2
 792 0036 B000     		.2byte	(.L46-.L45)/2
 793 0038 0400     		.2byte	(.L44-.L45)/2
 794              		.p2align 1
 795              	.L44:
 365:D:/fchai/work/i-cube/I-CUBE-HUAWEI/Projects/NUCLEO-L496ZG/Applications/Cloud/mqtt-ota\oc_demo.c ****             break;
 796              		.loc 1 365 13 view .LVU191
 797              	.LBB18:
 798              	.LBI10:
 272:D:/fchai/work/i-cube/I-CUBE-HUAWEI/Projects/NUCLEO-L496ZG/Applications/Cloud/mqtt-ota\oc_demo.c **** {
 799              		.loc 1 272 12 view .LVU192
 800              	.LVL79:
 801              	.LBB16:
 274:D:/fchai/work/i-cube/I-CUBE-HUAWEI/Projects/NUCLEO-L496ZG/Applications/Cloud/mqtt-ota\oc_demo.c ****     cJSON *obj_root;
 802              		.loc 1 274 5 view .LVU193
 275:D:/fchai/work/i-cube/I-CUBE-HUAWEI/Projects/NUCLEO-L496ZG/Applications/Cloud/mqtt-ota\oc_demo.c ****     cJSON *obj_servicearry;
 803              		.loc 1 275 5 view .LVU194
 276:D:/fchai/work/i-cube/I-CUBE-HUAWEI/Projects/NUCLEO-L496ZG/Applications/Cloud/mqtt-ota\oc_demo.c ****     cJSON *obj_service;
 804              		.loc 1 276 5 view .LVU195
 277:D:/fchai/work/i-cube/I-CUBE-HUAWEI/Projects/NUCLEO-L496ZG/Applications/Cloud/mqtt-ota\oc_demo.c ****     cJSON *obj_eventtype;
 805              		.loc 1 277 5 view .LVU196
 278:D:/fchai/work/i-cube/I-CUBE-HUAWEI/Projects/NUCLEO-L496ZG/Applications/Cloud/mqtt-ota\oc_demo.c **** 
 806              		.loc 1 278 5 view .LVU197
 280:D:/fchai/work/i-cube/I-CUBE-HUAWEI/Projects/NUCLEO-L496ZG/Applications/Cloud/mqtt-ota\oc_demo.c ****     if(NULL == obj_root)
 807              		.loc 1 280 5 view .LVU198
 280:D:/fchai/work/i-cube/I-CUBE-HUAWEI/Projects/NUCLEO-L496ZG/Applications/Cloud/mqtt-ota\oc_demo.c ****     if(NULL == obj_root)
 808              		.loc 1 280 16 is_stmt 0 view .LVU199
 809 003a 8068     		ldr	r0, [r0, #8]
 810              	.LVL80:
 280:D:/fchai/work/i-cube/I-CUBE-HUAWEI/Projects/NUCLEO-L496ZG/Applications/Cloud/mqtt-ota\oc_demo.c ****     if(NULL == obj_root)
 811              		.loc 1 280 16 view .LVU200
 812 003c FFF7FEFF 		bl	cJSON_Parse
 813              	.LVL81:
 281:D:/fchai/work/i-cube/I-CUBE-HUAWEI/Projects/NUCLEO-L496ZG/Applications/Cloud/mqtt-ota\oc_demo.c ****     {
 814              		.loc 1 281 5 is_stmt 1 view .LVU201
 281:D:/fchai/work/i-cube/I-CUBE-HUAWEI/Projects/NUCLEO-L496ZG/Applications/Cloud/mqtt-ota\oc_demo.c ****     {
 815              		.loc 1 281 7 is_stmt 0 view .LVU202
 816 0040 0290     		str	r0, [sp, #8]
 817 0042 0028     		cmp	r0, #0
ARM GAS  T:\msys\tmp\cckeAxp2.s 			page 26


 818 0044 00F0A380 		beq	.L87
 286:D:/fchai/work/i-cube/I-CUBE-HUAWEI/Projects/NUCLEO-L496ZG/Applications/Cloud/mqtt-ota\oc_demo.c ****     if((NULL == obj_servicearry) || (!cJSON_IsArray(obj_servicearry)))
 819              		.loc 1 286 5 is_stmt 1 view .LVU203
 286:D:/fchai/work/i-cube/I-CUBE-HUAWEI/Projects/NUCLEO-L496ZG/Applications/Cloud/mqtt-ota\oc_demo.c ****     if((NULL == obj_servicearry) || (!cJSON_IsArray(obj_servicearry)))
 820              		.loc 1 286 23 is_stmt 0 view .LVU204
 821 0048 7C49     		ldr	r1, .L90+4
 822 004a FFF7FEFF 		bl	cJSON_GetObjectItem
 823              	.LVL82:
 287:D:/fchai/work/i-cube/I-CUBE-HUAWEI/Projects/NUCLEO-L496ZG/Applications/Cloud/mqtt-ota\oc_demo.c ****     {
 824              		.loc 1 287 5 is_stmt 1 view .LVU205
 287:D:/fchai/work/i-cube/I-CUBE-HUAWEI/Projects/NUCLEO-L496ZG/Applications/Cloud/mqtt-ota\oc_demo.c ****     {
 825              		.loc 1 287 7 is_stmt 0 view .LVU206
 826 004e 0446     		mov	r4, r0
 827 0050 0028     		cmp	r0, #0
 828 0052 00F09980 		beq	.L62
 287:D:/fchai/work/i-cube/I-CUBE-HUAWEI/Projects/NUCLEO-L496ZG/Applications/Cloud/mqtt-ota\oc_demo.c ****     {
 829              		.loc 1 287 39 view .LVU207
 830 0056 FFF7FEFF 		bl	cJSON_IsArray
 831              	.LVL83:
 287:D:/fchai/work/i-cube/I-CUBE-HUAWEI/Projects/NUCLEO-L496ZG/Applications/Cloud/mqtt-ota\oc_demo.c ****     {
 832              		.loc 1 287 34 view .LVU208
 833 005a 0028     		cmp	r0, #0
 834 005c 00F09480 		beq	.L62
 292:D:/fchai/work/i-cube/I-CUBE-HUAWEI/Projects/NUCLEO-L496ZG/Applications/Cloud/mqtt-ota\oc_demo.c ****     {
 835              		.loc 1 292 5 is_stmt 1 view .LVU209
 836 0060 A468     		ldr	r4, [r4, #8]
 837              	.LVL84:
 292:D:/fchai/work/i-cube/I-CUBE-HUAWEI/Projects/NUCLEO-L496ZG/Applications/Cloud/mqtt-ota\oc_demo.c ****     {
 838              		.loc 1 292 5 view .LVU210
 839 0062 002C     		cmp	r4, #0
 840 0064 00F09080 		beq	.L62
 299:D:/fchai/work/i-cube/I-CUBE-HUAWEI/Projects/NUCLEO-L496ZG/Applications/Cloud/mqtt-ota\oc_demo.c ****         {
 841              		.loc 1 299 17 is_stmt 0 view .LVU211
 842 0068 754E     		ldr	r6, .L90+8
 843 006a 05E0     		b	.L52
 844              	.LVL85:
 845              	.L88:
 301:D:/fchai/work/i-cube/I-CUBE-HUAWEI/Projects/NUCLEO-L496ZG/Applications/Cloud/mqtt-ota\oc_demo.c ****         }
 846              		.loc 1 301 13 is_stmt 1 view .LVU212
 847 006c FFF7FEFF 		bl	oc_cmd_event_versionquery.isra.0
 848              	.LVL86:
 849              	.L54:
 292:D:/fchai/work/i-cube/I-CUBE-HUAWEI/Projects/NUCLEO-L496ZG/Applications/Cloud/mqtt-ota\oc_demo.c ****     {
 850              		.loc 1 292 5 view .LVU213
 851 0070 2468     		ldr	r4, [r4]
 852              	.LVL87:
 292:D:/fchai/work/i-cube/I-CUBE-HUAWEI/Projects/NUCLEO-L496ZG/Applications/Cloud/mqtt-ota\oc_demo.c ****     {
 853              		.loc 1 292 5 view .LVU214
 854 0072 002C     		cmp	r4, #0
 855 0074 00F08880 		beq	.L62
 856              	.L52:
 294:D:/fchai/work/i-cube/I-CUBE-HUAWEI/Projects/NUCLEO-L496ZG/Applications/Cloud/mqtt-ota\oc_demo.c ****         if(NULL == obj_eventtype)
 857              		.loc 1 294 9 view .LVU215
 294:D:/fchai/work/i-cube/I-CUBE-HUAWEI/Projects/NUCLEO-L496ZG/Applications/Cloud/mqtt-ota\oc_demo.c ****         if(NULL == obj_eventtype)
 858              		.loc 1 294 25 is_stmt 0 view .LVU216
 859 0078 3946     		mov	r1, r7
 860 007a 2046     		mov	r0, r4
ARM GAS  T:\msys\tmp\cckeAxp2.s 			page 27


 861 007c FFF7FEFF 		bl	cJSON_GetObjectItem
 862              	.LVL88:
 295:D:/fchai/work/i-cube/I-CUBE-HUAWEI/Projects/NUCLEO-L496ZG/Applications/Cloud/mqtt-ota\oc_demo.c ****         {
 863              		.loc 1 295 9 is_stmt 1 view .LVU217
 295:D:/fchai/work/i-cube/I-CUBE-HUAWEI/Projects/NUCLEO-L496ZG/Applications/Cloud/mqtt-ota\oc_demo.c ****         {
 864              		.loc 1 295 11 is_stmt 0 view .LVU218
 865 0080 0546     		mov	r5, r0
 866 0082 0028     		cmp	r0, #0
 867 0084 F4D0     		beq	.L54
 299:D:/fchai/work/i-cube/I-CUBE-HUAWEI/Projects/NUCLEO-L496ZG/Applications/Cloud/mqtt-ota\oc_demo.c ****         {
 868              		.loc 1 299 9 is_stmt 1 view .LVU219
 299:D:/fchai/work/i-cube/I-CUBE-HUAWEI/Projects/NUCLEO-L496ZG/Applications/Cloud/mqtt-ota\oc_demo.c ****         {
 869              		.loc 1 299 24 is_stmt 0 view .LVU220
 870 0086 FFF7FEFF 		bl	cJSON_GetStringValue
 871              	.LVL89:
 299:D:/fchai/work/i-cube/I-CUBE-HUAWEI/Projects/NUCLEO-L496ZG/Applications/Cloud/mqtt-ota\oc_demo.c ****         {
 872              		.loc 1 299 17 view .LVU221
 873 008a 3146     		mov	r1, r6
 874 008c FFF7FEFF 		bl	strcmp
 875              	.LVL90:
 299:D:/fchai/work/i-cube/I-CUBE-HUAWEI/Projects/NUCLEO-L496ZG/Applications/Cloud/mqtt-ota\oc_demo.c ****         {
 876              		.loc 1 299 11 view .LVU222
 877 0090 0028     		cmp	r0, #0
 878 0092 EBD0     		beq	.L88
 303:D:/fchai/work/i-cube/I-CUBE-HUAWEI/Projects/NUCLEO-L496ZG/Applications/Cloud/mqtt-ota\oc_demo.c ****         {
 879              		.loc 1 303 14 is_stmt 1 view .LVU223
 303:D:/fchai/work/i-cube/I-CUBE-HUAWEI/Projects/NUCLEO-L496ZG/Applications/Cloud/mqtt-ota\oc_demo.c ****         {
 880              		.loc 1 303 29 is_stmt 0 view .LVU224
 881 0094 2846     		mov	r0, r5
 882 0096 FFF7FEFF 		bl	cJSON_GetStringValue
 883              	.LVL91:
 303:D:/fchai/work/i-cube/I-CUBE-HUAWEI/Projects/NUCLEO-L496ZG/Applications/Cloud/mqtt-ota\oc_demo.c ****         {
 884              		.loc 1 303 22 view .LVU225
 885 009a 6A49     		ldr	r1, .L90+12
 886 009c FFF7FEFF 		bl	strcmp
 887              	.LVL92:
 303:D:/fchai/work/i-cube/I-CUBE-HUAWEI/Projects/NUCLEO-L496ZG/Applications/Cloud/mqtt-ota\oc_demo.c ****         {
 888              		.loc 1 303 16 view .LVU226
 889 00a0 0546     		mov	r5, r0
 890              	.LVL93:
 303:D:/fchai/work/i-cube/I-CUBE-HUAWEI/Projects/NUCLEO-L496ZG/Applications/Cloud/mqtt-ota\oc_demo.c ****         {
 891              		.loc 1 303 16 view .LVU227
 892 00a2 0028     		cmp	r0, #0
 893 00a4 E4D1     		bne	.L54
 305:D:/fchai/work/i-cube/I-CUBE-HUAWEI/Projects/NUCLEO-L496ZG/Applications/Cloud/mqtt-ota\oc_demo.c ****         }
 894              		.loc 1 305 13 is_stmt 1 view .LVU228
 895              	.LVL94:
 896              	.LBB12:
 897              	.LBI12:
 210:D:/fchai/work/i-cube/I-CUBE-HUAWEI/Projects/NUCLEO-L496ZG/Applications/Cloud/mqtt-ota\oc_demo.c **** {
 898              		.loc 1 210 12 view .LVU229
 899              	.LBB13:
 212:D:/fchai/work/i-cube/I-CUBE-HUAWEI/Projects/NUCLEO-L496ZG/Applications/Cloud/mqtt-ota\oc_demo.c ****     cJSON *obj_paras;
 900              		.loc 1 212 5 view .LVU230
 213:D:/fchai/work/i-cube/I-CUBE-HUAWEI/Projects/NUCLEO-L496ZG/Applications/Cloud/mqtt-ota\oc_demo.c ****     cJSON *obj_version;
 901              		.loc 1 213 5 view .LVU231
 214:D:/fchai/work/i-cube/I-CUBE-HUAWEI/Projects/NUCLEO-L496ZG/Applications/Cloud/mqtt-ota\oc_demo.c ****     cJSON *obj_url;
ARM GAS  T:\msys\tmp\cckeAxp2.s 			page 28


 902              		.loc 1 214 5 view .LVU232
 215:D:/fchai/work/i-cube/I-CUBE-HUAWEI/Projects/NUCLEO-L496ZG/Applications/Cloud/mqtt-ota\oc_demo.c ****     cJSON *obj_filesize;
 903              		.loc 1 215 5 view .LVU233
 216:D:/fchai/work/i-cube/I-CUBE-HUAWEI/Projects/NUCLEO-L496ZG/Applications/Cloud/mqtt-ota\oc_demo.c ****     cJSON *obj_accesstoken;
 904              		.loc 1 216 5 view .LVU234
 217:D:/fchai/work/i-cube/I-CUBE-HUAWEI/Projects/NUCLEO-L496ZG/Applications/Cloud/mqtt-ota\oc_demo.c ****     cJSON *obj_sign;
 905              		.loc 1 217 5 view .LVU235
 218:D:/fchai/work/i-cube/I-CUBE-HUAWEI/Projects/NUCLEO-L496ZG/Applications/Cloud/mqtt-ota\oc_demo.c **** 
 906              		.loc 1 218 5 view .LVU236
 220:D:/fchai/work/i-cube/I-CUBE-HUAWEI/Projects/NUCLEO-L496ZG/Applications/Cloud/mqtt-ota\oc_demo.c **** 
 907              		.loc 1 220 5 view .LVU237
 222:D:/fchai/work/i-cube/I-CUBE-HUAWEI/Projects/NUCLEO-L496ZG/Applications/Cloud/mqtt-ota\oc_demo.c **** 
 908              		.loc 1 222 5 view .LVU238
 222:D:/fchai/work/i-cube/I-CUBE-HUAWEI/Projects/NUCLEO-L496ZG/Applications/Cloud/mqtt-ota\oc_demo.c **** 
 909              		.loc 1 222 17 is_stmt 0 view .LVU239
 910 00a6 684A     		ldr	r2, .L90+16
 911 00a8 0123     		movs	r3, #1
 224:D:/fchai/work/i-cube/I-CUBE-HUAWEI/Projects/NUCLEO-L496ZG/Applications/Cloud/mqtt-ota\oc_demo.c ****     memset(otapara, 0, sizeof(ota_https_para_t));
 912              		.loc 1 224 15 view .LVU240
 913 00aa 2420     		movs	r0, #36
 222:D:/fchai/work/i-cube/I-CUBE-HUAWEI/Projects/NUCLEO-L496ZG/Applications/Cloud/mqtt-ota\oc_demo.c **** 
 914              		.loc 1 222 17 view .LVU241
 915 00ac 1370     		strb	r3, [r2]
 224:D:/fchai/work/i-cube/I-CUBE-HUAWEI/Projects/NUCLEO-L496ZG/Applications/Cloud/mqtt-ota\oc_demo.c ****     memset(otapara, 0, sizeof(ota_https_para_t));
 916              		.loc 1 224 5 is_stmt 1 view .LVU242
 224:D:/fchai/work/i-cube/I-CUBE-HUAWEI/Projects/NUCLEO-L496ZG/Applications/Cloud/mqtt-ota\oc_demo.c ****     memset(otapara, 0, sizeof(ota_https_para_t));
 917              		.loc 1 224 15 is_stmt 0 view .LVU243
 918 00ae FFF7FEFF 		bl	osal_malloc
 919              	.LVL95:
 225:D:/fchai/work/i-cube/I-CUBE-HUAWEI/Projects/NUCLEO-L496ZG/Applications/Cloud/mqtt-ota\oc_demo.c ****     if(NULL == otapara)
 920              		.loc 1 225 5 view .LVU244
 921 00b2 2946     		mov	r1, r5
 922 00b4 2422     		movs	r2, #36
 224:D:/fchai/work/i-cube/I-CUBE-HUAWEI/Projects/NUCLEO-L496ZG/Applications/Cloud/mqtt-ota\oc_demo.c ****     memset(otapara, 0, sizeof(ota_https_para_t));
 923              		.loc 1 224 15 view .LVU245
 924 00b6 0546     		mov	r5, r0
 925              	.LVL96:
 225:D:/fchai/work/i-cube/I-CUBE-HUAWEI/Projects/NUCLEO-L496ZG/Applications/Cloud/mqtt-ota\oc_demo.c ****     if(NULL == otapara)
 926              		.loc 1 225 5 is_stmt 1 view .LVU246
 927 00b8 FFF7FEFF 		bl	memset
 928              	.LVL97:
 226:D:/fchai/work/i-cube/I-CUBE-HUAWEI/Projects/NUCLEO-L496ZG/Applications/Cloud/mqtt-ota\oc_demo.c ****     {
 929              		.loc 1 226 5 view .LVU247
 231:D:/fchai/work/i-cube/I-CUBE-HUAWEI/Projects/NUCLEO-L496ZG/Applications/Cloud/mqtt-ota\oc_demo.c ****     if(NULL != obj_paras)
 930              		.loc 1 231 5 view .LVU248
 231:D:/fchai/work/i-cube/I-CUBE-HUAWEI/Projects/NUCLEO-L496ZG/Applications/Cloud/mqtt-ota\oc_demo.c ****     if(NULL != obj_paras)
 931              		.loc 1 231 17 is_stmt 0 view .LVU249
 932 00bc 6349     		ldr	r1, .L90+20
 933 00be 2046     		mov	r0, r4
 934 00c0 FFF7FEFF 		bl	cJSON_GetObjectItem
 935              	.LVL98:
 232:D:/fchai/work/i-cube/I-CUBE-HUAWEI/Projects/NUCLEO-L496ZG/Applications/Cloud/mqtt-ota\oc_demo.c ****     {
 936              		.loc 1 232 5 is_stmt 1 view .LVU250
 232:D:/fchai/work/i-cube/I-CUBE-HUAWEI/Projects/NUCLEO-L496ZG/Applications/Cloud/mqtt-ota\oc_demo.c ****     {
 937              		.loc 1 232 7 is_stmt 0 view .LVU251
 938 00c4 8046     		mov	r8, r0
 939 00c6 0028     		cmp	r0, #0
ARM GAS  T:\msys\tmp\cckeAxp2.s 			page 29


 940 00c8 57D0     		beq	.L58
 234:D:/fchai/work/i-cube/I-CUBE-HUAWEI/Projects/NUCLEO-L496ZG/Applications/Cloud/mqtt-ota\oc_demo.c ****         obj_url = cJSON_GetObjectItem(obj_paras, "url");
 941              		.loc 1 234 9 is_stmt 1 view .LVU252
 234:D:/fchai/work/i-cube/I-CUBE-HUAWEI/Projects/NUCLEO-L496ZG/Applications/Cloud/mqtt-ota\oc_demo.c ****         obj_url = cJSON_GetObjectItem(obj_paras, "url");
 942              		.loc 1 234 23 is_stmt 0 view .LVU253
 943 00ca 6149     		ldr	r1, .L90+24
 944 00cc FFF7FEFF 		bl	cJSON_GetObjectItem
 945              	.LVL99:
 235:D:/fchai/work/i-cube/I-CUBE-HUAWEI/Projects/NUCLEO-L496ZG/Applications/Cloud/mqtt-ota\oc_demo.c ****         obj_filesize = cJSON_GetObjectItem(obj_paras, "file_size");
 946              		.loc 1 235 9 is_stmt 1 view .LVU254
 235:D:/fchai/work/i-cube/I-CUBE-HUAWEI/Projects/NUCLEO-L496ZG/Applications/Cloud/mqtt-ota\oc_demo.c ****         obj_filesize = cJSON_GetObjectItem(obj_paras, "file_size");
 947              		.loc 1 235 19 is_stmt 0 view .LVU255
 948 00d0 6049     		ldr	r1, .L90+28
 234:D:/fchai/work/i-cube/I-CUBE-HUAWEI/Projects/NUCLEO-L496ZG/Applications/Cloud/mqtt-ota\oc_demo.c ****         obj_url = cJSON_GetObjectItem(obj_paras, "url");
 949              		.loc 1 234 23 view .LVU256
 950 00d2 0346     		mov	r3, r0
 235:D:/fchai/work/i-cube/I-CUBE-HUAWEI/Projects/NUCLEO-L496ZG/Applications/Cloud/mqtt-ota\oc_demo.c ****         obj_filesize = cJSON_GetObjectItem(obj_paras, "file_size");
 951              		.loc 1 235 19 view .LVU257
 952 00d4 4046     		mov	r0, r8
 234:D:/fchai/work/i-cube/I-CUBE-HUAWEI/Projects/NUCLEO-L496ZG/Applications/Cloud/mqtt-ota\oc_demo.c ****         obj_url = cJSON_GetObjectItem(obj_paras, "url");
 953              		.loc 1 234 23 view .LVU258
 954 00d6 0193     		str	r3, [sp, #4]
 955              	.LVL100:
 235:D:/fchai/work/i-cube/I-CUBE-HUAWEI/Projects/NUCLEO-L496ZG/Applications/Cloud/mqtt-ota\oc_demo.c ****         obj_filesize = cJSON_GetObjectItem(obj_paras, "file_size");
 956              		.loc 1 235 19 view .LVU259
 957 00d8 FFF7FEFF 		bl	cJSON_GetObjectItem
 958              	.LVL101:
 236:D:/fchai/work/i-cube/I-CUBE-HUAWEI/Projects/NUCLEO-L496ZG/Applications/Cloud/mqtt-ota\oc_demo.c ****         obj_accesstoken = cJSON_GetObjectItem(obj_paras, "access_token");
 959              		.loc 1 236 24 view .LVU260
 960 00dc 5E49     		ldr	r1, .L90+32
 235:D:/fchai/work/i-cube/I-CUBE-HUAWEI/Projects/NUCLEO-L496ZG/Applications/Cloud/mqtt-ota\oc_demo.c ****         obj_filesize = cJSON_GetObjectItem(obj_paras, "file_size");
 961              		.loc 1 235 19 view .LVU261
 962 00de 8146     		mov	r9, r0
 236:D:/fchai/work/i-cube/I-CUBE-HUAWEI/Projects/NUCLEO-L496ZG/Applications/Cloud/mqtt-ota\oc_demo.c ****         obj_accesstoken = cJSON_GetObjectItem(obj_paras, "access_token");
 963              		.loc 1 236 24 view .LVU262
 964 00e0 4046     		mov	r0, r8
 965              	.LVL102:
 236:D:/fchai/work/i-cube/I-CUBE-HUAWEI/Projects/NUCLEO-L496ZG/Applications/Cloud/mqtt-ota\oc_demo.c ****         obj_accesstoken = cJSON_GetObjectItem(obj_paras, "access_token");
 966              		.loc 1 236 9 is_stmt 1 view .LVU263
 236:D:/fchai/work/i-cube/I-CUBE-HUAWEI/Projects/NUCLEO-L496ZG/Applications/Cloud/mqtt-ota\oc_demo.c ****         obj_accesstoken = cJSON_GetObjectItem(obj_paras, "access_token");
 967              		.loc 1 236 24 is_stmt 0 view .LVU264
 968 00e2 FFF7FEFF 		bl	cJSON_GetObjectItem
 969              	.LVL103:
 237:D:/fchai/work/i-cube/I-CUBE-HUAWEI/Projects/NUCLEO-L496ZG/Applications/Cloud/mqtt-ota\oc_demo.c ****         obj_sign = cJSON_GetObjectItem(obj_paras, "sign");
 970              		.loc 1 237 27 view .LVU265
 971 00e6 5D49     		ldr	r1, .L90+36
 236:D:/fchai/work/i-cube/I-CUBE-HUAWEI/Projects/NUCLEO-L496ZG/Applications/Cloud/mqtt-ota\oc_demo.c ****         obj_accesstoken = cJSON_GetObjectItem(obj_paras, "access_token");
 972              		.loc 1 236 24 view .LVU266
 973 00e8 8246     		mov	r10, r0
 237:D:/fchai/work/i-cube/I-CUBE-HUAWEI/Projects/NUCLEO-L496ZG/Applications/Cloud/mqtt-ota\oc_demo.c ****         obj_sign = cJSON_GetObjectItem(obj_paras, "sign");
 974              		.loc 1 237 27 view .LVU267
 975 00ea 4046     		mov	r0, r8
 976              	.LVL104:
 237:D:/fchai/work/i-cube/I-CUBE-HUAWEI/Projects/NUCLEO-L496ZG/Applications/Cloud/mqtt-ota\oc_demo.c ****         obj_sign = cJSON_GetObjectItem(obj_paras, "sign");
 977              		.loc 1 237 9 is_stmt 1 view .LVU268
 237:D:/fchai/work/i-cube/I-CUBE-HUAWEI/Projects/NUCLEO-L496ZG/Applications/Cloud/mqtt-ota\oc_demo.c ****         obj_sign = cJSON_GetObjectItem(obj_paras, "sign");
 978              		.loc 1 237 27 is_stmt 0 view .LVU269
ARM GAS  T:\msys\tmp\cckeAxp2.s 			page 30


 979 00ec FFF7FEFF 		bl	cJSON_GetObjectItem
 980              	.LVL105:
 238:D:/fchai/work/i-cube/I-CUBE-HUAWEI/Projects/NUCLEO-L496ZG/Applications/Cloud/mqtt-ota\oc_demo.c **** 
 981              		.loc 1 238 20 view .LVU270
 982 00f0 5B49     		ldr	r1, .L90+40
 237:D:/fchai/work/i-cube/I-CUBE-HUAWEI/Projects/NUCLEO-L496ZG/Applications/Cloud/mqtt-ota\oc_demo.c ****         obj_sign = cJSON_GetObjectItem(obj_paras, "sign");
 983              		.loc 1 237 27 view .LVU271
 984 00f2 0246     		mov	r2, r0
 238:D:/fchai/work/i-cube/I-CUBE-HUAWEI/Projects/NUCLEO-L496ZG/Applications/Cloud/mqtt-ota\oc_demo.c **** 
 985              		.loc 1 238 20 view .LVU272
 986 00f4 4046     		mov	r0, r8
 237:D:/fchai/work/i-cube/I-CUBE-HUAWEI/Projects/NUCLEO-L496ZG/Applications/Cloud/mqtt-ota\oc_demo.c ****         obj_sign = cJSON_GetObjectItem(obj_paras, "sign");
 987              		.loc 1 237 27 view .LVU273
 988 00f6 0392     		str	r2, [sp, #12]
 989              	.LVL106:
 238:D:/fchai/work/i-cube/I-CUBE-HUAWEI/Projects/NUCLEO-L496ZG/Applications/Cloud/mqtt-ota\oc_demo.c **** 
 990              		.loc 1 238 9 is_stmt 1 view .LVU274
 238:D:/fchai/work/i-cube/I-CUBE-HUAWEI/Projects/NUCLEO-L496ZG/Applications/Cloud/mqtt-ota\oc_demo.c **** 
 991              		.loc 1 238 20 is_stmt 0 view .LVU275
 992 00f8 FFF7FEFF 		bl	cJSON_GetObjectItem
 993              	.LVL107:
 240:D:/fchai/work/i-cube/I-CUBE-HUAWEI/Projects/NUCLEO-L496ZG/Applications/Cloud/mqtt-ota\oc_demo.c ****                 (NULL != obj_accesstoken) && (NULL != obj_sign))
 994              		.loc 1 240 9 is_stmt 1 view .LVU276
 240:D:/fchai/work/i-cube/I-CUBE-HUAWEI/Projects/NUCLEO-L496ZG/Applications/Cloud/mqtt-ota\oc_demo.c ****                 (NULL != obj_accesstoken) && (NULL != obj_sign))
 995              		.loc 1 240 11 is_stmt 0 view .LVU277
 996 00fc 019A     		ldr	r2, [sp, #4]
 997 00fe 002A     		cmp	r2, #0
 998 0100 3BD0     		beq	.L58
 240:D:/fchai/work/i-cube/I-CUBE-HUAWEI/Projects/NUCLEO-L496ZG/Applications/Cloud/mqtt-ota\oc_demo.c ****                 (NULL != obj_accesstoken) && (NULL != obj_sign))
 999              		.loc 1 240 34 view .LVU278
 1000 0102 B9F1000F 		cmp	r9, #0
 1001 0106 38D0     		beq	.L58
 240:D:/fchai/work/i-cube/I-CUBE-HUAWEI/Projects/NUCLEO-L496ZG/Applications/Cloud/mqtt-ota\oc_demo.c ****                 (NULL != obj_accesstoken) && (NULL != obj_sign))
 1002              		.loc 1 240 55 view .LVU279
 1003 0108 BAF1000F 		cmp	r10, #0
 1004 010c 35D0     		beq	.L58
 240:D:/fchai/work/i-cube/I-CUBE-HUAWEI/Projects/NUCLEO-L496ZG/Applications/Cloud/mqtt-ota\oc_demo.c ****                 (NULL != obj_accesstoken) && (NULL != obj_sign))
 1005              		.loc 1 240 81 view .LVU280
 1006 010e 039A     		ldr	r2, [sp, #12]
 1007 0110 002A     		cmp	r2, #0
 1008 0112 32D0     		beq	.L58
 241:D:/fchai/work/i-cube/I-CUBE-HUAWEI/Projects/NUCLEO-L496ZG/Applications/Cloud/mqtt-ota\oc_demo.c ****         {
 1009              		.loc 1 241 43 view .LVU281
 1010 0114 0390     		str	r0, [sp, #12]
 1011              	.LVL108:
 241:D:/fchai/work/i-cube/I-CUBE-HUAWEI/Projects/NUCLEO-L496ZG/Applications/Cloud/mqtt-ota\oc_demo.c ****         {
 1012              		.loc 1 241 43 view .LVU282
 1013 0116 0028     		cmp	r0, #0
 1014 0118 2FD0     		beq	.L58
 243:D:/fchai/work/i-cube/I-CUBE-HUAWEI/Projects/NUCLEO-L496ZG/Applications/Cloud/mqtt-ota\oc_demo.c ****             otapara->url = cJSON_GetStringValue(obj_url);
 1015              		.loc 1 243 13 is_stmt 1 view .LVU283
 243:D:/fchai/work/i-cube/I-CUBE-HUAWEI/Projects/NUCLEO-L496ZG/Applications/Cloud/mqtt-ota\oc_demo.c ****             otapara->url = cJSON_GetStringValue(obj_url);
 1016              		.loc 1 243 34 is_stmt 0 view .LVU284
 1017 011a 1046     		mov	r0, r2
 1018              	.LVL109:
 243:D:/fchai/work/i-cube/I-CUBE-HUAWEI/Projects/NUCLEO-L496ZG/Applications/Cloud/mqtt-ota\oc_demo.c ****             otapara->url = cJSON_GetStringValue(obj_url);
 1019              		.loc 1 243 34 view .LVU285
ARM GAS  T:\msys\tmp\cckeAxp2.s 			page 31


 1020 011c FFF7FEFF 		bl	cJSON_GetStringValue
 1021              	.LVL110:
 243:D:/fchai/work/i-cube/I-CUBE-HUAWEI/Projects/NUCLEO-L496ZG/Applications/Cloud/mqtt-ota\oc_demo.c ****             otapara->url = cJSON_GetStringValue(obj_url);
 1022              		.loc 1 243 32 view .LVU286
 1023 0120 A860     		str	r0, [r5, #8]
 244:D:/fchai/work/i-cube/I-CUBE-HUAWEI/Projects/NUCLEO-L496ZG/Applications/Cloud/mqtt-ota\oc_demo.c ****             otapara->signature = cJSON_GetStringValue(obj_sign);
 1024              		.loc 1 244 13 is_stmt 1 view .LVU287
 244:D:/fchai/work/i-cube/I-CUBE-HUAWEI/Projects/NUCLEO-L496ZG/Applications/Cloud/mqtt-ota\oc_demo.c ****             otapara->signature = cJSON_GetStringValue(obj_sign);
 1025              		.loc 1 244 28 is_stmt 0 view .LVU288
 1026 0122 4846     		mov	r0, r9
 1027 0124 FFF7FEFF 		bl	cJSON_GetStringValue
 1028              	.LVL111:
 245:D:/fchai/work/i-cube/I-CUBE-HUAWEI/Projects/NUCLEO-L496ZG/Applications/Cloud/mqtt-ota\oc_demo.c ****             otapara->file_size = obj_filesize->valueint;
 1029              		.loc 1 245 34 view .LVU289
 1030 0128 039B     		ldr	r3, [sp, #12]
 244:D:/fchai/work/i-cube/I-CUBE-HUAWEI/Projects/NUCLEO-L496ZG/Applications/Cloud/mqtt-ota\oc_demo.c ****             otapara->signature = cJSON_GetStringValue(obj_sign);
 1031              		.loc 1 244 26 view .LVU290
 1032 012a 2860     		str	r0, [r5]
 245:D:/fchai/work/i-cube/I-CUBE-HUAWEI/Projects/NUCLEO-L496ZG/Applications/Cloud/mqtt-ota\oc_demo.c ****             otapara->file_size = obj_filesize->valueint;
 1033              		.loc 1 245 13 is_stmt 1 view .LVU291
 245:D:/fchai/work/i-cube/I-CUBE-HUAWEI/Projects/NUCLEO-L496ZG/Applications/Cloud/mqtt-ota\oc_demo.c ****             otapara->file_size = obj_filesize->valueint;
 1034              		.loc 1 245 34 is_stmt 0 view .LVU292
 1035 012c 1846     		mov	r0, r3
 1036 012e FFF7FEFF 		bl	cJSON_GetStringValue
 1037              	.LVL112:
 246:D:/fchai/work/i-cube/I-CUBE-HUAWEI/Projects/NUCLEO-L496ZG/Applications/Cloud/mqtt-ota\oc_demo.c ****             otapara->version = cJSON_GetStringValue(obj_version);
 1038              		.loc 1 246 32 view .LVU293
 1039 0132 DAF81430 		ldr	r3, [r10, #20]
 1040 0136 6B61     		str	r3, [r5, #20]
 245:D:/fchai/work/i-cube/I-CUBE-HUAWEI/Projects/NUCLEO-L496ZG/Applications/Cloud/mqtt-ota\oc_demo.c ****             otapara->file_size = obj_filesize->valueint;
 1041              		.loc 1 245 32 view .LVU294
 1042 0138 6860     		str	r0, [r5, #4]
 246:D:/fchai/work/i-cube/I-CUBE-HUAWEI/Projects/NUCLEO-L496ZG/Applications/Cloud/mqtt-ota\oc_demo.c ****             otapara->version = cJSON_GetStringValue(obj_version);
 1043              		.loc 1 246 13 is_stmt 1 view .LVU295
 247:D:/fchai/work/i-cube/I-CUBE-HUAWEI/Projects/NUCLEO-L496ZG/Applications/Cloud/mqtt-ota\oc_demo.c ****             otapara->report_progress = oc_report_upgrade_process;
 1044              		.loc 1 247 13 view .LVU296
 247:D:/fchai/work/i-cube/I-CUBE-HUAWEI/Projects/NUCLEO-L496ZG/Applications/Cloud/mqtt-ota\oc_demo.c ****             otapara->report_progress = oc_report_upgrade_process;
 1045              		.loc 1 247 32 is_stmt 0 view .LVU297
 1046 013a 0198     		ldr	r0, [sp, #4]
 1047 013c FFF7FEFF 		bl	cJSON_GetStringValue
 1048              	.LVL113:
 248:D:/fchai/work/i-cube/I-CUBE-HUAWEI/Projects/NUCLEO-L496ZG/Applications/Cloud/mqtt-ota\oc_demo.c ****             ///< here we do the firmware download
 1049              		.loc 1 248 38 view .LVU298
 1050 0140 484B     		ldr	r3, .L90+44
 247:D:/fchai/work/i-cube/I-CUBE-HUAWEI/Projects/NUCLEO-L496ZG/Applications/Cloud/mqtt-ota\oc_demo.c ****             otapara->report_progress = oc_report_upgrade_process;
 1051              		.loc 1 247 30 view .LVU299
 1052 0142 E860     		str	r0, [r5, #12]
 248:D:/fchai/work/i-cube/I-CUBE-HUAWEI/Projects/NUCLEO-L496ZG/Applications/Cloud/mqtt-ota\oc_demo.c ****             ///< here we do the firmware download
 1053              		.loc 1 248 13 is_stmt 1 view .LVU300
 248:D:/fchai/work/i-cube/I-CUBE-HUAWEI/Projects/NUCLEO-L496ZG/Applications/Cloud/mqtt-ota\oc_demo.c ****             ///< here we do the firmware download
 1054              		.loc 1 248 38 is_stmt 0 view .LVU301
 1055 0144 2B62     		str	r3, [r5, #32]
 250:D:/fchai/work/i-cube/I-CUBE-HUAWEI/Projects/NUCLEO-L496ZG/Applications/Cloud/mqtt-ota\oc_demo.c ****             {
 1056              		.loc 1 250 13 is_stmt 1 view .LVU302
 250:D:/fchai/work/i-cube/I-CUBE-HUAWEI/Projects/NUCLEO-L496ZG/Applications/Cloud/mqtt-ota\oc_demo.c ****             {
 1057              		.loc 1 250 21 is_stmt 0 view .LVU303
 1058 0146 2846     		mov	r0, r5
ARM GAS  T:\msys\tmp\cckeAxp2.s 			page 32


 1059 0148 FFF7FEFF 		bl	ota_https_download
 1060              	.LVL114:
 250:D:/fchai/work/i-cube/I-CUBE-HUAWEI/Projects/NUCLEO-L496ZG/Applications/Cloud/mqtt-ota\oc_demo.c ****             {
 1061              		.loc 1 250 15 view .LVU304
 1062 014c 0028     		cmp	r0, #0
 1063 014e 56D0     		beq	.L60
 252:D:/fchai/work/i-cube/I-CUBE-HUAWEI/Projects/NUCLEO-L496ZG/Applications/Cloud/mqtt-ota\oc_demo.c ****                 LINK_LOG_ERROR("DOWNLOADING ERR");
 1064              		.loc 1 252 17 is_stmt 1 view .LVU305
 1065 0150 E968     		ldr	r1, [r5, #12]
 1066 0152 0620     		movs	r0, #6
 1067 0154 FFF7FEFF 		bl	oc_report_upgraderet
 1068              	.LVL115:
 253:D:/fchai/work/i-cube/I-CUBE-HUAWEI/Projects/NUCLEO-L496ZG/Applications/Cloud/mqtt-ota\oc_demo.c ****             }
 1069              		.loc 1 253 17 view .LVU306
 253:D:/fchai/work/i-cube/I-CUBE-HUAWEI/Projects/NUCLEO-L496ZG/Applications/Cloud/mqtt-ota\oc_demo.c ****             }
 1070              		.loc 1 253 17 view .LVU307
 253:D:/fchai/work/i-cube/I-CUBE-HUAWEI/Projects/NUCLEO-L496ZG/Applications/Cloud/mqtt-ota\oc_demo.c ****             }
 1071              		.loc 1 253 17 view .LVU308
 1072 0158 0420     		movs	r0, #4
 1073 015a FFF7FEFF 		bl	link_log_level_name
 1074              	.LVL116:
 1075 015e 8046     		mov	r8, r0
 1076              	.LVL117:
 253:D:/fchai/work/i-cube/I-CUBE-HUAWEI/Projects/NUCLEO-L496ZG/Applications/Cloud/mqtt-ota\oc_demo.c ****             }
 1077              		.loc 1 253 17 is_stmt 0 view .LVU309
 1078 0160 FFF7FEFF 		bl	osal_sys_time
 1079              	.LVL118:
 1080 0164 404B     		ldr	r3, .L90+48
 1081 0166 0246     		mov	r2, r0
 1082 0168 4146     		mov	r1, r8
 1083 016a 4048     		ldr	r0, .L90+52
 1084 016c FFF7FEFF 		bl	printf
 1085              	.LVL119:
 253:D:/fchai/work/i-cube/I-CUBE-HUAWEI/Projects/NUCLEO-L496ZG/Applications/Cloud/mqtt-ota\oc_demo.c ****             }
 1086              		.loc 1 253 17 is_stmt 1 view .LVU310
 1087 0170 3F4B     		ldr	r3, .L90+56
 1088 0172 1B68     		ldr	r3, [r3]
 1089 0174 9868     		ldr	r0, [r3, #8]
 1090 0176 FFF7FEFF 		bl	fflush
 1091              	.LVL120:
 253:D:/fchai/work/i-cube/I-CUBE-HUAWEI/Projects/NUCLEO-L496ZG/Applications/Cloud/mqtt-ota\oc_demo.c ****             }
 1092              		.loc 1 253 17 view .LVU311
 253:D:/fchai/work/i-cube/I-CUBE-HUAWEI/Projects/NUCLEO-L496ZG/Applications/Cloud/mqtt-ota\oc_demo.c ****             }
 1093              		.loc 1 253 17 view .LVU312
 1094              	.L58:
 266:D:/fchai/work/i-cube/I-CUBE-HUAWEI/Projects/NUCLEO-L496ZG/Applications/Cloud/mqtt-ota\oc_demo.c **** 
 1095              		.loc 1 266 5 view .LVU313
 1096 017a 2846     		mov	r0, r5
 1097 017c FFF7FEFF 		bl	osal_free
 1098              	.LVL121:
 268:D:/fchai/work/i-cube/I-CUBE-HUAWEI/Projects/NUCLEO-L496ZG/Applications/Cloud/mqtt-ota\oc_demo.c **** }
 1099              		.loc 1 268 5 view .LVU314
 268:D:/fchai/work/i-cube/I-CUBE-HUAWEI/Projects/NUCLEO-L496ZG/Applications/Cloud/mqtt-ota\oc_demo.c **** }
 1100              		.loc 1 268 5 is_stmt 0 view .LVU315
 1101              	.LBE13:
 1102              	.LBE12:
 292:D:/fchai/work/i-cube/I-CUBE-HUAWEI/Projects/NUCLEO-L496ZG/Applications/Cloud/mqtt-ota\oc_demo.c ****     {
ARM GAS  T:\msys\tmp\cckeAxp2.s 			page 33


 1103              		.loc 1 292 5 is_stmt 1 view .LVU316
 1104 0180 2468     		ldr	r4, [r4]
 1105              	.LVL122:
 292:D:/fchai/work/i-cube/I-CUBE-HUAWEI/Projects/NUCLEO-L496ZG/Applications/Cloud/mqtt-ota\oc_demo.c ****     {
 1106              		.loc 1 292 5 view .LVU317
 1107 0182 002C     		cmp	r4, #0
 1108 0184 7FF478AF 		bne	.L52
 1109              	.LVL123:
 1110              	.L62:
 308:D:/fchai/work/i-cube/I-CUBE-HUAWEI/Projects/NUCLEO-L496ZG/Applications/Cloud/mqtt-ota\oc_demo.c ****     return 0;
 1111              		.loc 1 308 5 view .LVU318
 1112 0188 0298     		ldr	r0, [sp, #8]
 1113 018a FFF7FEFF 		bl	cJSON_Delete
 1114              	.LVL124:
 1115              	.L87:
 309:D:/fchai/work/i-cube/I-CUBE-HUAWEI/Projects/NUCLEO-L496ZG/Applications/Cloud/mqtt-ota\oc_demo.c **** 
 1116              		.loc 1 309 5 view .LVU319
 1117 018e 0598     		ldr	r0, [sp, #20]
 309:D:/fchai/work/i-cube/I-CUBE-HUAWEI/Projects/NUCLEO-L496ZG/Applications/Cloud/mqtt-ota\oc_demo.c **** 
 1118              		.loc 1 309 12 is_stmt 0 view .LVU320
 1119 0190 1BE0     		b	.L43
 1120              	.LVL125:
 1121              	.L46:
 309:D:/fchai/work/i-cube/I-CUBE-HUAWEI/Projects/NUCLEO-L496ZG/Applications/Cloud/mqtt-ota\oc_demo.c **** 
 1122              		.loc 1 309 12 view .LVU321
 1123              	.LBE16:
 1124              	.LBE18:
 355:D:/fchai/work/i-cube/I-CUBE-HUAWEI/Projects/NUCLEO-L496ZG/Applications/Cloud/mqtt-ota\oc_demo.c ****             s_device_service.service_property->key = "radioValue";
 1125              		.loc 1 355 13 is_stmt 1 view .LVU322
 355:D:/fchai/work/i-cube/I-CUBE-HUAWEI/Projects/NUCLEO-L496ZG/Applications/Cloud/mqtt-ota\oc_demo.c ****             s_device_service.service_property->key = "radioValue";
 1126              		.loc 1 355 28 is_stmt 0 view .LVU323
 1127 0192 384D     		ldr	r5, .L90+60
 356:D:/fchai/work/i-cube/I-CUBE-HUAWEI/Projects/NUCLEO-L496ZG/Applications/Cloud/mqtt-ota\oc_demo.c ****             s_device_service.service_property->value = &value;
 1128              		.loc 1 356 29 view .LVU324
 1129 0194 384E     		ldr	r6, .L90+64
 355:D:/fchai/work/i-cube/I-CUBE-HUAWEI/Projects/NUCLEO-L496ZG/Applications/Cloud/mqtt-ota\oc_demo.c ****             s_device_service.service_property->key = "radioValue";
 1130              		.loc 1 355 28 view .LVU325
 1131 0196 2B68     		ldr	r3, [r5]
 356:D:/fchai/work/i-cube/I-CUBE-HUAWEI/Projects/NUCLEO-L496ZG/Applications/Cloud/mqtt-ota\oc_demo.c ****             s_device_service.service_property->value = &value;
 1132              		.loc 1 356 29 view .LVU326
 1133 0198 F168     		ldr	r1, [r6, #12]
 355:D:/fchai/work/i-cube/I-CUBE-HUAWEI/Projects/NUCLEO-L496ZG/Applications/Cloud/mqtt-ota\oc_demo.c ****             s_device_service.service_property->key = "radioValue";
 1134              		.loc 1 355 28 view .LVU327
 1135 019a 5A1C     		adds	r2, r3, #1
 355:D:/fchai/work/i-cube/I-CUBE-HUAWEI/Projects/NUCLEO-L496ZG/Applications/Cloud/mqtt-ota\oc_demo.c ****             s_device_service.service_property->key = "radioValue";
 1136              		.loc 1 355 31 view .LVU328
 1137 019c 374B     		ldr	r3, .L90+68
 357:D:/fchai/work/i-cube/I-CUBE-HUAWEI/Projects/NUCLEO-L496ZG/Applications/Cloud/mqtt-ota\oc_demo.c ****             s_device_service.service_property->type = EN_OC_MQTT_PROFILE_VALUE_INT;
 1138              		.loc 1 357 54 view .LVU329
 1139 019e CD60     		str	r5, [r1, #12]
 355:D:/fchai/work/i-cube/I-CUBE-HUAWEI/Projects/NUCLEO-L496ZG/Applications/Cloud/mqtt-ota\oc_demo.c ****             s_device_service.service_property->key = "radioValue";
 1140              		.loc 1 355 31 view .LVU330
 1141 01a0 83FB0234 		smull	r3, r4, r3, r2
 1142 01a4 D317     		asrs	r3, r2, #31
 1143 01a6 C3EB6413 		rsb	r3, r3, r4, asr #5
 1144 01aa 6424     		movs	r4, #100
 1145 01ac 04FB1323 		mls	r3, r4, r3, r2
ARM GAS  T:\msys\tmp\cckeAxp2.s 			page 34


 358:D:/fchai/work/i-cube/I-CUBE-HUAWEI/Projects/NUCLEO-L496ZG/Applications/Cloud/mqtt-ota\oc_demo.c **** 
 1146              		.loc 1 358 53 view .LVU331
 1147 01b0 0022     		movs	r2, #0
 1148 01b2 0A72     		strb	r2, [r1, #8]
 356:D:/fchai/work/i-cube/I-CUBE-HUAWEI/Projects/NUCLEO-L496ZG/Applications/Cloud/mqtt-ota\oc_demo.c ****             s_device_service.service_property->value = &value;
 1149              		.loc 1 356 52 view .LVU332
 1150 01b4 324C     		ldr	r4, .L90+72
 1151 01b6 4C60     		str	r4, [r1, #4]
 360:D:/fchai/work/i-cube/I-CUBE-HUAWEI/Projects/NUCLEO-L496ZG/Applications/Cloud/mqtt-ota\oc_demo.c ****             propertygetresp.services = &s_device_service;
 1152              		.loc 1 360 40 view .LVU333
 1153 01b8 4468     		ldr	r4, [r0, #4]
 355:D:/fchai/work/i-cube/I-CUBE-HUAWEI/Projects/NUCLEO-L496ZG/Applications/Cloud/mqtt-ota\oc_demo.c ****             s_device_service.service_property->key = "radioValue";
 1154              		.loc 1 355 20 view .LVU334
 1155 01ba 2B60     		str	r3, [r5]
 356:D:/fchai/work/i-cube/I-CUBE-HUAWEI/Projects/NUCLEO-L496ZG/Applications/Cloud/mqtt-ota\oc_demo.c ****             s_device_service.service_property->value = &value;
 1156              		.loc 1 356 13 is_stmt 1 view .LVU335
 357:D:/fchai/work/i-cube/I-CUBE-HUAWEI/Projects/NUCLEO-L496ZG/Applications/Cloud/mqtt-ota\oc_demo.c ****             s_device_service.service_property->type = EN_OC_MQTT_PROFILE_VALUE_INT;
 1157              		.loc 1 357 13 view .LVU336
 358:D:/fchai/work/i-cube/I-CUBE-HUAWEI/Projects/NUCLEO-L496ZG/Applications/Cloud/mqtt-ota\oc_demo.c **** 
 1158              		.loc 1 358 13 view .LVU337
 360:D:/fchai/work/i-cube/I-CUBE-HUAWEI/Projects/NUCLEO-L496ZG/Applications/Cloud/mqtt-ota\oc_demo.c ****             propertygetresp.services = &s_device_service;
 1159              		.loc 1 360 13 view .LVU338
 362:D:/fchai/work/i-cube/I-CUBE-HUAWEI/Projects/NUCLEO-L496ZG/Applications/Cloud/mqtt-ota\oc_demo.c ****             break;
 1160              		.loc 1 362 19 is_stmt 0 view .LVU339
 1161 01bc 1046     		mov	r0, r2
 1162              	.LVL126:
 362:D:/fchai/work/i-cube/I-CUBE-HUAWEI/Projects/NUCLEO-L496ZG/Applications/Cloud/mqtt-ota\oc_demo.c ****             break;
 1163              		.loc 1 362 19 view .LVU340
 1164 01be 06A9     		add	r1, sp, #24
 361:D:/fchai/work/i-cube/I-CUBE-HUAWEI/Projects/NUCLEO-L496ZG/Applications/Cloud/mqtt-ota\oc_demo.c ****             (void)oc_mqtt_profile_propertygetresp(NULL,&propertygetresp);
 1165              		.loc 1 361 38 view .LVU341
 1166 01c0 CDE90646 		strd	r4, r6, [sp, #24]
 362:D:/fchai/work/i-cube/I-CUBE-HUAWEI/Projects/NUCLEO-L496ZG/Applications/Cloud/mqtt-ota\oc_demo.c ****             break;
 1167              		.loc 1 362 13 is_stmt 1 view .LVU342
 362:D:/fchai/work/i-cube/I-CUBE-HUAWEI/Projects/NUCLEO-L496ZG/Applications/Cloud/mqtt-ota\oc_demo.c ****             break;
 1168              		.loc 1 362 19 is_stmt 0 view .LVU343
 1169 01c4 FFF7FEFF 		bl	oc_mqtt_profile_propertygetresp
 1170              	.LVL127:
 363:D:/fchai/work/i-cube/I-CUBE-HUAWEI/Projects/NUCLEO-L496ZG/Applications/Cloud/mqtt-ota\oc_demo.c ****         case EN_OC_MQTT_PROFILE_MSG_TYPE_DOWN_EVENT:
 1171              		.loc 1 363 13 is_stmt 1 view .LVU344
 1172 01c8 0598     		ldr	r0, [sp, #20]
 1173              	.L43:
 372:D:/fchai/work/i-cube/I-CUBE-HUAWEI/Projects/NUCLEO-L496ZG/Applications/Cloud/mqtt-ota\oc_demo.c **** }
 1174              		.loc 1 372 5 view .LVU345
 372:D:/fchai/work/i-cube/I-CUBE-HUAWEI/Projects/NUCLEO-L496ZG/Applications/Cloud/mqtt-ota\oc_demo.c **** }
 1175              		.loc 1 372 5 is_stmt 0 view .LVU346
 1176              	.LBE20:
 1177              	.LBE22:
 385:D:/fchai/work/i-cube/I-CUBE-HUAWEI/Projects/NUCLEO-L496ZG/Applications/Cloud/mqtt-ota\oc_demo.c ****             osal_free(demo_msg);
 1178              		.loc 1 385 13 is_stmt 1 view .LVU347
 1179 01ca FFF7FEFF 		bl	osal_free
 1180              	.LVL128:
 1181 01ce 1DE7     		b	.L63
 1182              	.LVL129:
 1183              	.L48:
 1184              	.LBB23:
 1185              	.LBB21:
ARM GAS  T:\msys\tmp\cckeAxp2.s 			page 35


 334:D:/fchai/work/i-cube/I-CUBE-HUAWEI/Projects/NUCLEO-L496ZG/Applications/Cloud/mqtt-ota\oc_demo.c ****             cmdresp.request_id = demo_msg->request_id;
 1186              		.loc 1 334 13 view .LVU348
 334:D:/fchai/work/i-cube/I-CUBE-HUAWEI/Projects/NUCLEO-L496ZG/Applications/Cloud/mqtt-ota\oc_demo.c ****             cmdresp.request_id = demo_msg->request_id;
 1187              		.loc 1 334 27 is_stmt 0 view .LVU349
 1188 01d0 0023     		movs	r3, #0
 335:D:/fchai/work/i-cube/I-CUBE-HUAWEI/Projects/NUCLEO-L496ZG/Applications/Cloud/mqtt-ota\oc_demo.c ****             cmdresp.ret_code = 0;
 1189              		.loc 1 335 32 view .LVU350
 1190 01d2 4268     		ldr	r2, [r0, #4]
 1191 01d4 0892     		str	r2, [sp, #32]
 338:D:/fchai/work/i-cube/I-CUBE-HUAWEI/Projects/NUCLEO-L496ZG/Applications/Cloud/mqtt-ota\oc_demo.c ****             break;
 1192              		.loc 1 338 19 view .LVU351
 1193 01d6 1846     		mov	r0, r3
 1194              	.LVL130:
 338:D:/fchai/work/i-cube/I-CUBE-HUAWEI/Projects/NUCLEO-L496ZG/Applications/Cloud/mqtt-ota\oc_demo.c ****             break;
 1195              		.loc 1 338 19 view .LVU352
 1196 01d8 06A9     		add	r1, sp, #24
 337:D:/fchai/work/i-cube/I-CUBE-HUAWEI/Projects/NUCLEO-L496ZG/Applications/Cloud/mqtt-ota\oc_demo.c ****             (void)oc_mqtt_profile_cmdresp(NULL,&cmdresp);
 1197              		.loc 1 337 30 view .LVU353
 1198 01da CDE90633 		strd	r3, r3, [sp, #24]
 334:D:/fchai/work/i-cube/I-CUBE-HUAWEI/Projects/NUCLEO-L496ZG/Applications/Cloud/mqtt-ota\oc_demo.c ****             cmdresp.request_id = demo_msg->request_id;
 1199              		.loc 1 334 27 view .LVU354
 1200 01de 0993     		str	r3, [sp, #36]
 335:D:/fchai/work/i-cube/I-CUBE-HUAWEI/Projects/NUCLEO-L496ZG/Applications/Cloud/mqtt-ota\oc_demo.c ****             cmdresp.ret_code = 0;
 1201              		.loc 1 335 13 is_stmt 1 view .LVU355
 336:D:/fchai/work/i-cube/I-CUBE-HUAWEI/Projects/NUCLEO-L496ZG/Applications/Cloud/mqtt-ota\oc_demo.c ****             cmdresp.ret_name = NULL;
 1202              		.loc 1 336 13 view .LVU356
 338:D:/fchai/work/i-cube/I-CUBE-HUAWEI/Projects/NUCLEO-L496ZG/Applications/Cloud/mqtt-ota\oc_demo.c ****             break;
 1203              		.loc 1 338 13 view .LVU357
 338:D:/fchai/work/i-cube/I-CUBE-HUAWEI/Projects/NUCLEO-L496ZG/Applications/Cloud/mqtt-ota\oc_demo.c ****             break;
 1204              		.loc 1 338 19 is_stmt 0 view .LVU358
 1205 01e0 FFF7FEFF 		bl	oc_mqtt_profile_cmdresp
 1206              	.LVL131:
 339:D:/fchai/work/i-cube/I-CUBE-HUAWEI/Projects/NUCLEO-L496ZG/Applications/Cloud/mqtt-ota\oc_demo.c **** 
 1207              		.loc 1 339 13 is_stmt 1 view .LVU359
 1208 01e4 0598     		ldr	r0, [sp, #20]
 1209 01e6 F0E7     		b	.L43
 1210              	.LVL132:
 1211              	.L47:
 345:D:/fchai/work/i-cube/I-CUBE-HUAWEI/Projects/NUCLEO-L496ZG/Applications/Cloud/mqtt-ota\oc_demo.c ****             propertysetresp.ret_code = 0;
 1212              		.loc 1 345 13 view .LVU360
 346:D:/fchai/work/i-cube/I-CUBE-HUAWEI/Projects/NUCLEO-L496ZG/Applications/Cloud/mqtt-ota\oc_demo.c ****             propertysetresp.ret_description = NULL;
 1213              		.loc 1 346 38 is_stmt 0 view .LVU361
 1214 01e8 0023     		movs	r3, #0
 345:D:/fchai/work/i-cube/I-CUBE-HUAWEI/Projects/NUCLEO-L496ZG/Applications/Cloud/mqtt-ota\oc_demo.c ****             propertysetresp.ret_code = 0;
 1215              		.loc 1 345 40 view .LVU362
 1216 01ea 4268     		ldr	r2, [r0, #4]
 1217 01ec 0892     		str	r2, [sp, #32]
 346:D:/fchai/work/i-cube/I-CUBE-HUAWEI/Projects/NUCLEO-L496ZG/Applications/Cloud/mqtt-ota\oc_demo.c ****             propertysetresp.ret_description = NULL;
 1218              		.loc 1 346 13 is_stmt 1 view .LVU363
 348:D:/fchai/work/i-cube/I-CUBE-HUAWEI/Projects/NUCLEO-L496ZG/Applications/Cloud/mqtt-ota\oc_demo.c ****             break;
 1219              		.loc 1 348 19 is_stmt 0 view .LVU364
 1220 01ee 1846     		mov	r0, r3
 1221              	.LVL133:
 348:D:/fchai/work/i-cube/I-CUBE-HUAWEI/Projects/NUCLEO-L496ZG/Applications/Cloud/mqtt-ota\oc_demo.c ****             break;
 1222              		.loc 1 348 19 view .LVU365
 1223 01f0 06A9     		add	r1, sp, #24
 347:D:/fchai/work/i-cube/I-CUBE-HUAWEI/Projects/NUCLEO-L496ZG/Applications/Cloud/mqtt-ota\oc_demo.c ****             (void)oc_mqtt_profile_propertysetresp(NULL,&propertysetresp);
ARM GAS  T:\msys\tmp\cckeAxp2.s 			page 36


 1224              		.loc 1 347 45 view .LVU366
 1225 01f2 CDE90633 		strd	r3, r3, [sp, #24]
 348:D:/fchai/work/i-cube/I-CUBE-HUAWEI/Projects/NUCLEO-L496ZG/Applications/Cloud/mqtt-ota\oc_demo.c ****             break;
 1226              		.loc 1 348 13 is_stmt 1 view .LVU367
 348:D:/fchai/work/i-cube/I-CUBE-HUAWEI/Projects/NUCLEO-L496ZG/Applications/Cloud/mqtt-ota\oc_demo.c ****             break;
 1227              		.loc 1 348 19 is_stmt 0 view .LVU368
 1228 01f6 FFF7FEFF 		bl	oc_mqtt_profile_propertysetresp
 1229              	.LVL134:
 349:D:/fchai/work/i-cube/I-CUBE-HUAWEI/Projects/NUCLEO-L496ZG/Applications/Cloud/mqtt-ota\oc_demo.c **** 
 1230              		.loc 1 349 13 is_stmt 1 view .LVU369
 1231 01fa 0598     		ldr	r0, [sp, #20]
 1232 01fc E5E7     		b	.L43
 1233              	.LVL135:
 1234              	.L60:
 1235              	.LBB19:
 1236              	.LBB17:
 1237              	.LBB15:
 1238              	.LBB14:
 258:D:/fchai/work/i-cube/I-CUBE-HUAWEI/Projects/NUCLEO-L496ZG/Applications/Cloud/mqtt-ota\oc_demo.c ****                 osal_task_sleep(500);
 1239              		.loc 1 258 17 view .LVU370
 258:D:/fchai/work/i-cube/I-CUBE-HUAWEI/Projects/NUCLEO-L496ZG/Applications/Cloud/mqtt-ota\oc_demo.c ****                 osal_task_sleep(500);
 1240              		.loc 1 258 17 view .LVU371
 1241 01fe FFF7FEFF 		bl	link_log_level_get
 1242              	.LVL136:
 1243 0202 0128     		cmp	r0, #1
 1244 0204 06D9     		bls	.L89
 1245              	.LVL137:
 1246              	.L61:
 258:D:/fchai/work/i-cube/I-CUBE-HUAWEI/Projects/NUCLEO-L496ZG/Applications/Cloud/mqtt-ota\oc_demo.c ****                 osal_task_sleep(500);
 1247              		.loc 1 258 17 view .LVU372
 258:D:/fchai/work/i-cube/I-CUBE-HUAWEI/Projects/NUCLEO-L496ZG/Applications/Cloud/mqtt-ota\oc_demo.c ****                 osal_task_sleep(500);
 1248              		.loc 1 258 17 view .LVU373
 258:D:/fchai/work/i-cube/I-CUBE-HUAWEI/Projects/NUCLEO-L496ZG/Applications/Cloud/mqtt-ota\oc_demo.c ****                 osal_task_sleep(500);
 1249              		.loc 1 258 17 view .LVU374
 259:D:/fchai/work/i-cube/I-CUBE-HUAWEI/Projects/NUCLEO-L496ZG/Applications/Cloud/mqtt-ota\oc_demo.c ****                 osal_reboot();
 1250              		.loc 1 259 17 view .LVU375
 1251 0206 4FF4FA70 		mov	r0, #500
 1252 020a FFF7FEFF 		bl	osal_task_sleep
 1253              	.LVL138:
 260:D:/fchai/work/i-cube/I-CUBE-HUAWEI/Projects/NUCLEO-L496ZG/Applications/Cloud/mqtt-ota\oc_demo.c ****             }
 1254              		.loc 1 260 17 view .LVU376
 1255 020e FFF7FEFF 		bl	osal_reboot
 1256              	.LVL139:
 1257 0212 B2E7     		b	.L58
 1258              	.LVL140:
 1259              	.L89:
 258:D:/fchai/work/i-cube/I-CUBE-HUAWEI/Projects/NUCLEO-L496ZG/Applications/Cloud/mqtt-ota\oc_demo.c ****                 osal_task_sleep(500);
 1260              		.loc 1 258 17 view .LVU377
 258:D:/fchai/work/i-cube/I-CUBE-HUAWEI/Projects/NUCLEO-L496ZG/Applications/Cloud/mqtt-ota\oc_demo.c ****                 osal_task_sleep(500);
 1261              		.loc 1 258 17 view .LVU378
 258:D:/fchai/work/i-cube/I-CUBE-HUAWEI/Projects/NUCLEO-L496ZG/Applications/Cloud/mqtt-ota\oc_demo.c ****                 osal_task_sleep(500);
 1262              		.loc 1 258 17 view .LVU379
 1263 0214 0120     		movs	r0, #1
 1264 0216 FFF7FEFF 		bl	link_log_level_name
 1265              	.LVL141:
 1266 021a 8046     		mov	r8, r0
 1267              	.LVL142:
ARM GAS  T:\msys\tmp\cckeAxp2.s 			page 37


 258:D:/fchai/work/i-cube/I-CUBE-HUAWEI/Projects/NUCLEO-L496ZG/Applications/Cloud/mqtt-ota\oc_demo.c ****                 osal_task_sleep(500);
 1268              		.loc 1 258 17 is_stmt 0 view .LVU380
 1269 021c FFF7FEFF 		bl	osal_sys_time
 1270              	.LVL143:
 1271 0220 114B     		ldr	r3, .L90+48
 1272 0222 0246     		mov	r2, r0
 1273 0224 4146     		mov	r1, r8
 1274 0226 1748     		ldr	r0, .L90+76
 1275 0228 FFF7FEFF 		bl	printf
 1276              	.LVL144:
 258:D:/fchai/work/i-cube/I-CUBE-HUAWEI/Projects/NUCLEO-L496ZG/Applications/Cloud/mqtt-ota\oc_demo.c ****                 osal_task_sleep(500);
 1277              		.loc 1 258 17 is_stmt 1 view .LVU381
 1278 022c 104B     		ldr	r3, .L90+56
 1279 022e 1B68     		ldr	r3, [r3]
 1280 0230 9868     		ldr	r0, [r3, #8]
 1281 0232 FFF7FEFF 		bl	fflush
 1282              	.LVL145:
 1283 0236 E6E7     		b	.L61
 1284              	.L91:
 1285              		.align	2
 1286              	.L90:
 1287 0238 18000000 		.word	.LC11
 1288 023c 0C000000 		.word	.LC10
 1289 0240 24000000 		.word	.LC12
 1290 0244 34000000 		.word	.LC13
 1291 0248 00000000 		.word	.LANCHOR6
 1292 024c 48000000 		.word	.LC14
 1293 0250 50000000 		.word	.LC15
 1294 0254 58000000 		.word	.LC16
 1295 0258 5C000000 		.word	.LC17
 1296 025c 68000000 		.word	.LC18
 1297 0260 78000000 		.word	.LC19
 1298 0264 00000000 		.word	oc_report_upgrade_process
 1299 0268 00000000 		.word	.LANCHOR7
 1300 026c 80000000 		.word	.LC20
 1301 0270 00000000 		.word	_impure_ptr
 1302 0274 00000000 		.word	.LANCHOR4
 1303 0278 00000000 		.word	.LANCHOR5
 1304 027c 1F85EB51 		.word	1374389535
 1305 0280 00000000 		.word	.LC9
 1306 0284 A0000000 		.word	.LC21
 1307 0288 00000000 		.word	.LANCHOR2
 1308              	.LBE14:
 1309              	.LBE15:
 1310              	.LBE17:
 1311              	.LBE19:
 1312              	.LBE21:
 1313              	.LBE23:
 1314              		.cfi_endproc
 1315              	.LFE10:
 1317              		.section	.rodata.task_reportmsg_entry.str1.4,"aMS",%progbits,1
 1318              		.align	2
 1319              	.LC22:
 1320 0000 73756363 		.ascii	"successful :-)\000"
 1320      65737366 
 1320      756C203A 
 1320      2D2900
ARM GAS  T:\msys\tmp\cckeAxp2.s 			page 38


 1321 000f 00       		.align	2
 1322              	.LC23:
 1323 0010 6661696C 		.ascii	"fail :-(\000"
 1323      203A2D28 
 1323      00
 1324 0019 000000   		.align	2
 1325              	.LC24:
 1326 001c 36336532 		.ascii	"63e22853cb8cc34acb4a0c61e033b513\000"
 1326      32383533 
 1326      63623863 
 1326      63333461 
 1326      63623461 
 1327 003d 000000   		.align	2
 1328              	.LC25:
 1329 0040 3132312E 		.ascii	"121.36.42.100\000"
 1329      33362E34 
 1329      322E3130 
 1329      3000
 1330 004e 0000     		.align	2
 1331              	.LC26:
 1332 0050 31383833 		.ascii	"1883\000"
 1332      00
 1333 0055 000000   		.align	2
 1334              	.LC27:
 1335 0058 636F6E66 		.ascii	"config:err :code:%d\015\012\000"
 1335      69673A65 
 1335      7272203A 
 1335      636F6465 
 1335      3A25640D 
 1336 006e 0000     		.align	2
 1337              	.LC28:
 1338 0070 75736572 		.ascii	"user/demo_topic\000"
 1338      2F64656D 
 1338      6F5F746F 
 1338      70696300 
 1339              		.align	2
 1340              	.LC29:
 1341 0080 73756273 		.ascii	"subscribe:topic:%d ret:%d\000"
 1341      63726962 
 1341      653A746F 
 1341      7069633A 
 1341      25642072 
 1342 009a 0000     		.align	2
 1343              	.LC30:
 1344 009c 756E7375 		.ascii	"unsubscribe:topic:%d ret:%d\000"
 1344      62736372 
 1344      6962653A 
 1344      746F7069 
 1344      633A2564 
 1345              		.align	2
 1346              	.LC31:
 1347 00b8 256600   		.ascii	"%f\000"
 1348              		.global	__aeabi_f2d
 1349 00bb 00       		.align	2
 1350              	.LC32:
 1351 00bc 74656D70 		.ascii	"temperature\000"
 1351      65726174 
ARM GAS  T:\msys\tmp\cckeAxp2.s 			page 39


 1351      75726500 
 1352              		.align	2
 1353              	.LC33:
 1354 00c8 68756D69 		.ascii	"humidity\000"
 1354      64697479 
 1354      00
 1355 00d1 000000   		.align	2
 1356              	.LC34:
 1357 00d4 70726573 		.ascii	"pressure\000"
 1357      73757265 
 1357      00
 1358 00dd 000000   		.align	2
 1359              	.LC35:
 1360 00e0 61636365 		.ascii	"accelerometer_x\000"
 1360      6C65726F 
 1360      6D657465 
 1360      725F7800 
 1361              		.align	2
 1362              	.LC36:
 1363 00f0 61636365 		.ascii	"accelerometer_y\000"
 1363      6C65726F 
 1363      6D657465 
 1363      725F7900 
 1364              		.align	2
 1365              	.LC37:
 1366 0100 61636365 		.ascii	"accelerometer_z\000"
 1366      6C65726F 
 1366      6D657465 
 1366      725F7A00 
 1367              		.align	2
 1368              	.LC38:
 1369 0110 7265706F 		.ascii	"reported temperature = %s, humidity = %s, pressure "
 1369      72746564 
 1369      2074656D 
 1369      70657261 
 1369      74757265 
 1370 0143 3D202573 		.ascii	"= %s, accelerometer = (%d, %d, %d) %s\012\015\000"
 1370      2C206163 
 1370      63656C65 
 1370      726F6D65 
 1370      74657220 
 1371              		.section	.text.task_reportmsg_entry,"ax",%progbits
 1372              		.align	1
 1373              		.p2align 2,,3
 1374              		.syntax unified
 1375              		.thumb
 1376              		.thumb_func
 1377              		.fpu fpv4-sp-d16
 1379              	task_reportmsg_entry:
 1380              	.LVL146:
 1381              	.LFB12:
 386:D:/fchai/work/i-cube/I-CUBE-HUAWEI/Projects/NUCLEO-L496ZG/Applications/Cloud/mqtt-ota\oc_demo.c ****         }
 387:D:/fchai/work/i-cube/I-CUBE-HUAWEI/Projects/NUCLEO-L496ZG/Applications/Cloud/mqtt-ota\oc_demo.c ****     }
 388:D:/fchai/work/i-cube/I-CUBE-HUAWEI/Projects/NUCLEO-L496ZG/Applications/Cloud/mqtt-ota\oc_demo.c **** }
 389:D:/fchai/work/i-cube/I-CUBE-HUAWEI/Projects/NUCLEO-L496ZG/Applications/Cloud/mqtt-ota\oc_demo.c **** #endif
 390:D:/fchai/work/i-cube/I-CUBE-HUAWEI/Projects/NUCLEO-L496ZG/Applications/Cloud/mqtt-ota\oc_demo.c **** 
 391:D:/fchai/work/i-cube/I-CUBE-HUAWEI/Projects/NUCLEO-L496ZG/Applications/Cloud/mqtt-ota\oc_demo.c **** static int  oc_report_normal(void)
ARM GAS  T:\msys\tmp\cckeAxp2.s 			page 40


 392:D:/fchai/work/i-cube/I-CUBE-HUAWEI/Projects/NUCLEO-L496ZG/Applications/Cloud/mqtt-ota\oc_demo.c **** {
 393:D:/fchai/work/i-cube/I-CUBE-HUAWEI/Projects/NUCLEO-L496ZG/Applications/Cloud/mqtt-ota\oc_demo.c ****     int ret = en_oc_mqtt_err_ok;
 394:D:/fchai/work/i-cube/I-CUBE-HUAWEI/Projects/NUCLEO-L496ZG/Applications/Cloud/mqtt-ota\oc_demo.c ****     float temp, hum, press;
 395:D:/fchai/work/i-cube/I-CUBE-HUAWEI/Projects/NUCLEO-L496ZG/Applications/Cloud/mqtt-ota\oc_demo.c ****     static int s_asex_x, s_asex_y, s_asex_z;
 396:D:/fchai/work/i-cube/I-CUBE-HUAWEI/Projects/NUCLEO-L496ZG/Applications/Cloud/mqtt-ota\oc_demo.c ****     static char s_temp [8];
 397:D:/fchai/work/i-cube/I-CUBE-HUAWEI/Projects/NUCLEO-L496ZG/Applications/Cloud/mqtt-ota\oc_demo.c ****     static char s_hum [8];
 398:D:/fchai/work/i-cube/I-CUBE-HUAWEI/Projects/NUCLEO-L496ZG/Applications/Cloud/mqtt-ota\oc_demo.c ****     static char s_press [8];
 399:D:/fchai/work/i-cube/I-CUBE-HUAWEI/Projects/NUCLEO-L496ZG/Applications/Cloud/mqtt-ota\oc_demo.c **** 
 400:D:/fchai/work/i-cube/I-CUBE-HUAWEI/Projects/NUCLEO-L496ZG/Applications/Cloud/mqtt-ota\oc_demo.c ****     MX_MEMS_Getinfo(&temp, &hum, &press, &s_asex_x, &s_asex_y, &s_asex_z);
 401:D:/fchai/work/i-cube/I-CUBE-HUAWEI/Projects/NUCLEO-L496ZG/Applications/Cloud/mqtt-ota\oc_demo.c **** 
 402:D:/fchai/work/i-cube/I-CUBE-HUAWEI/Projects/NUCLEO-L496ZG/Applications/Cloud/mqtt-ota\oc_demo.c ****     snprintf(s_temp,  6, "%f", (double)temp);
 403:D:/fchai/work/i-cube/I-CUBE-HUAWEI/Projects/NUCLEO-L496ZG/Applications/Cloud/mqtt-ota\oc_demo.c ****     snprintf(s_hum,   6, "%f", (double)hum);
 404:D:/fchai/work/i-cube/I-CUBE-HUAWEI/Projects/NUCLEO-L496ZG/Applications/Cloud/mqtt-ota\oc_demo.c ****     snprintf(s_press, 8, "%f", (double)press);
 405:D:/fchai/work/i-cube/I-CUBE-HUAWEI/Projects/NUCLEO-L496ZG/Applications/Cloud/mqtt-ota\oc_demo.c **** 
 406:D:/fchai/work/i-cube/I-CUBE-HUAWEI/Projects/NUCLEO-L496ZG/Applications/Cloud/mqtt-ota\oc_demo.c ****     s_temp  [5] = '\0';
 407:D:/fchai/work/i-cube/I-CUBE-HUAWEI/Projects/NUCLEO-L496ZG/Applications/Cloud/mqtt-ota\oc_demo.c ****     s_hum   [5] = '\0';
 408:D:/fchai/work/i-cube/I-CUBE-HUAWEI/Projects/NUCLEO-L496ZG/Applications/Cloud/mqtt-ota\oc_demo.c ****     s_press [7] = '\0';
 409:D:/fchai/work/i-cube/I-CUBE-HUAWEI/Projects/NUCLEO-L496ZG/Applications/Cloud/mqtt-ota\oc_demo.c **** 
 410:D:/fchai/work/i-cube/I-CUBE-HUAWEI/Projects/NUCLEO-L496ZG/Applications/Cloud/mqtt-ota\oc_demo.c ****     property_temp.key = "temperature";
 411:D:/fchai/work/i-cube/I-CUBE-HUAWEI/Projects/NUCLEO-L496ZG/Applications/Cloud/mqtt-ota\oc_demo.c ****     property_temp.value = s_temp;
 412:D:/fchai/work/i-cube/I-CUBE-HUAWEI/Projects/NUCLEO-L496ZG/Applications/Cloud/mqtt-ota\oc_demo.c ****     property_temp.type = EN_OC_MQTT_PROFILE_VALUE_STRING;
 413:D:/fchai/work/i-cube/I-CUBE-HUAWEI/Projects/NUCLEO-L496ZG/Applications/Cloud/mqtt-ota\oc_demo.c **** 
 414:D:/fchai/work/i-cube/I-CUBE-HUAWEI/Projects/NUCLEO-L496ZG/Applications/Cloud/mqtt-ota\oc_demo.c ****     property_hum.key = "humidity";
 415:D:/fchai/work/i-cube/I-CUBE-HUAWEI/Projects/NUCLEO-L496ZG/Applications/Cloud/mqtt-ota\oc_demo.c ****     property_hum.value = s_hum;
 416:D:/fchai/work/i-cube/I-CUBE-HUAWEI/Projects/NUCLEO-L496ZG/Applications/Cloud/mqtt-ota\oc_demo.c ****     property_hum.type = EN_OC_MQTT_PROFILE_VALUE_STRING;
 417:D:/fchai/work/i-cube/I-CUBE-HUAWEI/Projects/NUCLEO-L496ZG/Applications/Cloud/mqtt-ota\oc_demo.c **** 
 418:D:/fchai/work/i-cube/I-CUBE-HUAWEI/Projects/NUCLEO-L496ZG/Applications/Cloud/mqtt-ota\oc_demo.c ****     property_press.key = "pressure";
 419:D:/fchai/work/i-cube/I-CUBE-HUAWEI/Projects/NUCLEO-L496ZG/Applications/Cloud/mqtt-ota\oc_demo.c ****     property_press.value = s_press;
 420:D:/fchai/work/i-cube/I-CUBE-HUAWEI/Projects/NUCLEO-L496ZG/Applications/Cloud/mqtt-ota\oc_demo.c ****     property_press.type = EN_OC_MQTT_PROFILE_VALUE_STRING;
 421:D:/fchai/work/i-cube/I-CUBE-HUAWEI/Projects/NUCLEO-L496ZG/Applications/Cloud/mqtt-ota\oc_demo.c **** 
 422:D:/fchai/work/i-cube/I-CUBE-HUAWEI/Projects/NUCLEO-L496ZG/Applications/Cloud/mqtt-ota\oc_demo.c ****     property_x.key = "accelerometer_x";
 423:D:/fchai/work/i-cube/I-CUBE-HUAWEI/Projects/NUCLEO-L496ZG/Applications/Cloud/mqtt-ota\oc_demo.c ****     property_x.value = &s_asex_x;
 424:D:/fchai/work/i-cube/I-CUBE-HUAWEI/Projects/NUCLEO-L496ZG/Applications/Cloud/mqtt-ota\oc_demo.c ****     property_x.type = EN_OC_MQTT_PROFILE_VALUE_INT;
 425:D:/fchai/work/i-cube/I-CUBE-HUAWEI/Projects/NUCLEO-L496ZG/Applications/Cloud/mqtt-ota\oc_demo.c **** 
 426:D:/fchai/work/i-cube/I-CUBE-HUAWEI/Projects/NUCLEO-L496ZG/Applications/Cloud/mqtt-ota\oc_demo.c ****     property_y.key = "accelerometer_y";
 427:D:/fchai/work/i-cube/I-CUBE-HUAWEI/Projects/NUCLEO-L496ZG/Applications/Cloud/mqtt-ota\oc_demo.c ****     property_y.value = &s_asex_y;
 428:D:/fchai/work/i-cube/I-CUBE-HUAWEI/Projects/NUCLEO-L496ZG/Applications/Cloud/mqtt-ota\oc_demo.c ****     property_y.type = EN_OC_MQTT_PROFILE_VALUE_INT;
 429:D:/fchai/work/i-cube/I-CUBE-HUAWEI/Projects/NUCLEO-L496ZG/Applications/Cloud/mqtt-ota\oc_demo.c **** 
 430:D:/fchai/work/i-cube/I-CUBE-HUAWEI/Projects/NUCLEO-L496ZG/Applications/Cloud/mqtt-ota\oc_demo.c ****     property_z.key = "accelerometer_z";
 431:D:/fchai/work/i-cube/I-CUBE-HUAWEI/Projects/NUCLEO-L496ZG/Applications/Cloud/mqtt-ota\oc_demo.c ****     property_z.value = &s_asex_z;
 432:D:/fchai/work/i-cube/I-CUBE-HUAWEI/Projects/NUCLEO-L496ZG/Applications/Cloud/mqtt-ota\oc_demo.c ****     property_z.type = EN_OC_MQTT_PROFILE_VALUE_INT;
 433:D:/fchai/work/i-cube/I-CUBE-HUAWEI/Projects/NUCLEO-L496ZG/Applications/Cloud/mqtt-ota\oc_demo.c **** 
 434:D:/fchai/work/i-cube/I-CUBE-HUAWEI/Projects/NUCLEO-L496ZG/Applications/Cloud/mqtt-ota\oc_demo.c ****     ret = oc_mqtt_profile_propertyreport(NULL,&s_device_service);
 435:D:/fchai/work/i-cube/I-CUBE-HUAWEI/Projects/NUCLEO-L496ZG/Applications/Cloud/mqtt-ota\oc_demo.c **** 
 436:D:/fchai/work/i-cube/I-CUBE-HUAWEI/Projects/NUCLEO-L496ZG/Applications/Cloud/mqtt-ota\oc_demo.c ****     printf("reported temperature = %s, humidity = %s, pressure = %s, accelerometer = (%d, %d, %d) %
 437:D:/fchai/work/i-cube/I-CUBE-HUAWEI/Projects/NUCLEO-L496ZG/Applications/Cloud/mqtt-ota\oc_demo.c ****            s_temp, s_hum, s_press, s_asex_x, s_asex_y, s_asex_z, ret == 0 ? "successful :-)" : "fai
 438:D:/fchai/work/i-cube/I-CUBE-HUAWEI/Projects/NUCLEO-L496ZG/Applications/Cloud/mqtt-ota\oc_demo.c **** 
 439:D:/fchai/work/i-cube/I-CUBE-HUAWEI/Projects/NUCLEO-L496ZG/Applications/Cloud/mqtt-ota\oc_demo.c ****     return ret;
 440:D:/fchai/work/i-cube/I-CUBE-HUAWEI/Projects/NUCLEO-L496ZG/Applications/Cloud/mqtt-ota\oc_demo.c **** }
 441:D:/fchai/work/i-cube/I-CUBE-HUAWEI/Projects/NUCLEO-L496ZG/Applications/Cloud/mqtt-ota\oc_demo.c **** 
 442:D:/fchai/work/i-cube/I-CUBE-HUAWEI/Projects/NUCLEO-L496ZG/Applications/Cloud/mqtt-ota\oc_demo.c **** static int task_reportmsg_entry(void *args)
 443:D:/fchai/work/i-cube/I-CUBE-HUAWEI/Projects/NUCLEO-L496ZG/Applications/Cloud/mqtt-ota\oc_demo.c **** {
 1382              		.loc 1 443 1 view -0
 1383              		.cfi_startproc
 1384              		@ args = 0, pretend = 0, frame = 88
 1385              		@ frame_needed = 0, uses_anonymous_args = 0
 444:D:/fchai/work/i-cube/I-CUBE-HUAWEI/Projects/NUCLEO-L496ZG/Applications/Cloud/mqtt-ota\oc_demo.c ****     int ret;
ARM GAS  T:\msys\tmp\cckeAxp2.s 			page 41


 1386              		.loc 1 444 5 view .LVU383
 445:D:/fchai/work/i-cube/I-CUBE-HUAWEI/Projects/NUCLEO-L496ZG/Applications/Cloud/mqtt-ota\oc_demo.c ****     oc_mqtt_profile_connect_t  connect_para;
 1387              		.loc 1 445 5 view .LVU384
 446:D:/fchai/work/i-cube/I-CUBE-HUAWEI/Projects/NUCLEO-L496ZG/Applications/Cloud/mqtt-ota\oc_demo.c **** 
 447:D:/fchai/work/i-cube/I-CUBE-HUAWEI/Projects/NUCLEO-L496ZG/Applications/Cloud/mqtt-ota\oc_demo.c ****     memset( &connect_para, 0, sizeof(connect_para));
 1388              		.loc 1 447 5 view .LVU385
 443:D:/fchai/work/i-cube/I-CUBE-HUAWEI/Projects/NUCLEO-L496ZG/Applications/Cloud/mqtt-ota\oc_demo.c ****     int ret;
 1389              		.loc 1 443 1 is_stmt 0 view .LVU386
 1390 0000 2DE9F04F 		push	{r4, r5, r6, r7, r8, r9, r10, fp, lr}
 1391              	.LCFI19:
 1392              		.cfi_def_cfa_offset 36
 1393              		.cfi_offset 4, -36
 1394              		.cfi_offset 5, -32
 1395              		.cfi_offset 6, -28
 1396              		.cfi_offset 7, -24
 1397              		.cfi_offset 8, -20
 1398              		.cfi_offset 9, -16
 1399              		.cfi_offset 10, -12
 1400              		.cfi_offset 11, -8
 1401              		.cfi_offset 14, -4
 1402 0004 2DED028B 		vpush.64	{d8}
 1403              	.LCFI20:
 1404              		.cfi_def_cfa_offset 44
 1405              		.cfi_offset 80, -44
 1406              		.cfi_offset 81, -40
 1407              		.loc 1 447 5 view .LVU387
 1408 0008 3422     		movs	r2, #52
 443:D:/fchai/work/i-cube/I-CUBE-HUAWEI/Projects/NUCLEO-L496ZG/Applications/Cloud/mqtt-ota\oc_demo.c ****     int ret;
 1409              		.loc 1 443 1 view .LVU388
 1410 000a 9BB0     		sub	sp, sp, #108
 1411              	.LCFI21:
 1412              		.cfi_def_cfa_offset 152
 1413              		.loc 1 447 5 view .LVU389
 1414 000c 0021     		movs	r1, #0
 1415 000e 0DEB0200 		add	r0, sp, r2
 1416              	.LVL147:
 1417              		.loc 1 447 5 view .LVU390
 1418 0012 FFF7FEFF 		bl	memset
 1419              	.LVL148:
 448:D:/fchai/work/i-cube/I-CUBE-HUAWEI/Projects/NUCLEO-L496ZG/Applications/Cloud/mqtt-ota\oc_demo.c **** 
 449:D:/fchai/work/i-cube/I-CUBE-HUAWEI/Projects/NUCLEO-L496ZG/Applications/Cloud/mqtt-ota\oc_demo.c ****     connect_para.boostrap =      CN_BOOT_MODE;
 1420              		.loc 1 449 5 is_stmt 1 view .LVU391
 450:D:/fchai/work/i-cube/I-CUBE-HUAWEI/Projects/NUCLEO-L496ZG/Applications/Cloud/mqtt-ota\oc_demo.c ****     connect_para.device_id =     CN_EP_DEVICEID;
 451:D:/fchai/work/i-cube/I-CUBE-HUAWEI/Projects/NUCLEO-L496ZG/Applications/Cloud/mqtt-ota\oc_demo.c ****     connect_para.device_passwd = CN_EP_PASSWD;
 452:D:/fchai/work/i-cube/I-CUBE-HUAWEI/Projects/NUCLEO-L496ZG/Applications/Cloud/mqtt-ota\oc_demo.c ****     connect_para.server_addr =   CN_SERVER_IPV4;
 1421              		.loc 1 452 30 is_stmt 0 view .LVU392
 1422 0016 6A4C     		ldr	r4, .L103
 453:D:/fchai/work/i-cube/I-CUBE-HUAWEI/Projects/NUCLEO-L496ZG/Applications/Cloud/mqtt-ota\oc_demo.c ****     connect_para.server_port =   CN_SERVER_PORT;
 1423              		.loc 1 453 30 view .LVU393
 1424 0018 6A49     		ldr	r1, .L103+4
 450:D:/fchai/work/i-cube/I-CUBE-HUAWEI/Projects/NUCLEO-L496ZG/Applications/Cloud/mqtt-ota\oc_demo.c ****     connect_para.device_id =     CN_EP_DEVICEID;
 1425              		.loc 1 450 28 view .LVU394
 1426 001a 6B4E     		ldr	r6, .L103+8
 451:D:/fchai/work/i-cube/I-CUBE-HUAWEI/Projects/NUCLEO-L496ZG/Applications/Cloud/mqtt-ota\oc_demo.c ****     connect_para.server_addr =   CN_SERVER_IPV4;
 1427              		.loc 1 451 32 view .LVU395
 1428 001c 6B4D     		ldr	r5, .L103+12
 450:D:/fchai/work/i-cube/I-CUBE-HUAWEI/Projects/NUCLEO-L496ZG/Applications/Cloud/mqtt-ota\oc_demo.c ****     connect_para.device_id =     CN_EP_DEVICEID;
ARM GAS  T:\msys\tmp\cckeAxp2.s 			page 42


 1429              		.loc 1 450 28 view .LVU396
 1430 001e 0B96     		str	r6, [sp, #44]
 449:D:/fchai/work/i-cube/I-CUBE-HUAWEI/Projects/NUCLEO-L496ZG/Applications/Cloud/mqtt-ota\oc_demo.c ****     connect_para.device_id =     CN_EP_DEVICEID;
 1431              		.loc 1 449 27 view .LVU397
 1432 0020 0023     		movs	r3, #0
 1433 0022 0793     		str	r3, [sp, #28]
 450:D:/fchai/work/i-cube/I-CUBE-HUAWEI/Projects/NUCLEO-L496ZG/Applications/Cloud/mqtt-ota\oc_demo.c ****     connect_para.device_passwd = CN_EP_PASSWD;
 1434              		.loc 1 450 5 is_stmt 1 view .LVU398
 451:D:/fchai/work/i-cube/I-CUBE-HUAWEI/Projects/NUCLEO-L496ZG/Applications/Cloud/mqtt-ota\oc_demo.c ****     connect_para.server_addr =   CN_SERVER_IPV4;
 1435              		.loc 1 451 5 view .LVU399
 454:D:/fchai/work/i-cube/I-CUBE-HUAWEI/Projects/NUCLEO-L496ZG/Applications/Cloud/mqtt-ota\oc_demo.c ****     connect_para.life_time =     CN_LIFE_TIME;
 455:D:/fchai/work/i-cube/I-CUBE-HUAWEI/Projects/NUCLEO-L496ZG/Applications/Cloud/mqtt-ota\oc_demo.c ****     connect_para.rcvfunc =       app_msg_deal;
 456:D:/fchai/work/i-cube/I-CUBE-HUAWEI/Projects/NUCLEO-L496ZG/Applications/Cloud/mqtt-ota\oc_demo.c **** 
 457:D:/fchai/work/i-cube/I-CUBE-HUAWEI/Projects/NUCLEO-L496ZG/Applications/Cloud/mqtt-ota\oc_demo.c ****     connect_para.security.type = EN_DTLS_AL_SECURITY_TYPE_NONE;
 1436              		.loc 1 457 32 is_stmt 0 view .LVU400
 1437 0024 8DF83830 		strb	r3, [sp, #56]
 454:D:/fchai/work/i-cube/I-CUBE-HUAWEI/Projects/NUCLEO-L496ZG/Applications/Cloud/mqtt-ota\oc_demo.c ****     connect_para.life_time =     CN_LIFE_TIME;
 1438              		.loc 1 454 28 view .LVU401
 1439 0028 3C22     		movs	r2, #60
 455:D:/fchai/work/i-cube/I-CUBE-HUAWEI/Projects/NUCLEO-L496ZG/Applications/Cloud/mqtt-ota\oc_demo.c **** 
 1440              		.loc 1 455 26 view .LVU402
 1441 002a 694B     		ldr	r3, .L103+16
 451:D:/fchai/work/i-cube/I-CUBE-HUAWEI/Projects/NUCLEO-L496ZG/Applications/Cloud/mqtt-ota\oc_demo.c ****     connect_para.server_addr =   CN_SERVER_IPV4;
 1442              		.loc 1 451 32 view .LVU403
 1443 002c 0C95     		str	r5, [sp, #48]
 452:D:/fchai/work/i-cube/I-CUBE-HUAWEI/Projects/NUCLEO-L496ZG/Applications/Cloud/mqtt-ota\oc_demo.c ****     connect_para.server_port =   CN_SERVER_PORT;
 1444              		.loc 1 452 5 is_stmt 1 view .LVU404
 458:D:/fchai/work/i-cube/I-CUBE-HUAWEI/Projects/NUCLEO-L496ZG/Applications/Cloud/mqtt-ota\oc_demo.c **** 
 459:D:/fchai/work/i-cube/I-CUBE-HUAWEI/Projects/NUCLEO-L496ZG/Applications/Cloud/mqtt-ota\oc_demo.c ****     ret = oc_mqtt_profile_connect(&connect_para);
 1445              		.loc 1 459 11 is_stmt 0 view .LVU405
 1446 002e 07A8     		add	r0, sp, #28
 453:D:/fchai/work/i-cube/I-CUBE-HUAWEI/Projects/NUCLEO-L496ZG/Applications/Cloud/mqtt-ota\oc_demo.c ****     connect_para.life_time =     CN_LIFE_TIME;
 1447              		.loc 1 453 30 view .LVU406
 1448 0030 CDE90941 		strd	r4, r1, [sp, #36]
 454:D:/fchai/work/i-cube/I-CUBE-HUAWEI/Projects/NUCLEO-L496ZG/Applications/Cloud/mqtt-ota\oc_demo.c ****     connect_para.rcvfunc =       app_msg_deal;
 1449              		.loc 1 454 5 is_stmt 1 view .LVU407
 454:D:/fchai/work/i-cube/I-CUBE-HUAWEI/Projects/NUCLEO-L496ZG/Applications/Cloud/mqtt-ota\oc_demo.c ****     connect_para.rcvfunc =       app_msg_deal;
 1450              		.loc 1 454 28 is_stmt 0 view .LVU408
 1451 0034 0892     		str	r2, [sp, #32]
 455:D:/fchai/work/i-cube/I-CUBE-HUAWEI/Projects/NUCLEO-L496ZG/Applications/Cloud/mqtt-ota\oc_demo.c **** 
 1452              		.loc 1 455 5 is_stmt 1 view .LVU409
 455:D:/fchai/work/i-cube/I-CUBE-HUAWEI/Projects/NUCLEO-L496ZG/Applications/Cloud/mqtt-ota\oc_demo.c **** 
 1453              		.loc 1 455 26 is_stmt 0 view .LVU410
 1454 0036 1893     		str	r3, [sp, #96]
 457:D:/fchai/work/i-cube/I-CUBE-HUAWEI/Projects/NUCLEO-L496ZG/Applications/Cloud/mqtt-ota\oc_demo.c **** 
 1455              		.loc 1 457 5 is_stmt 1 view .LVU411
 1456              		.loc 1 459 5 view .LVU412
 1457              		.loc 1 459 11 is_stmt 0 view .LVU413
 1458 0038 FFF7FEFF 		bl	oc_mqtt_profile_connect
 1459              	.LVL149:
 460:D:/fchai/work/i-cube/I-CUBE-HUAWEI/Projects/NUCLEO-L496ZG/Applications/Cloud/mqtt-ota\oc_demo.c ****     if((ret != en_oc_mqtt_err_ok))
 1460              		.loc 1 460 5 is_stmt 1 view .LVU414
 1461              		.loc 1 460 7 is_stmt 0 view .LVU415
 1462 003c 0028     		cmp	r0, #0
 1463 003e 40F0AC80 		bne	.L100
 1464              	.LBB28:
 1465              	.LBI28:
ARM GAS  T:\msys\tmp\cckeAxp2.s 			page 43


 442:D:/fchai/work/i-cube/I-CUBE-HUAWEI/Projects/NUCLEO-L496ZG/Applications/Cloud/mqtt-ota\oc_demo.c **** {
 1466              		.loc 1 442 12 is_stmt 1 view .LVU416
 1467              	.LVL150:
 1468              	.LBB29:
 461:D:/fchai/work/i-cube/I-CUBE-HUAWEI/Projects/NUCLEO-L496ZG/Applications/Cloud/mqtt-ota\oc_demo.c ****     {
 462:D:/fchai/work/i-cube/I-CUBE-HUAWEI/Projects/NUCLEO-L496ZG/Applications/Cloud/mqtt-ota\oc_demo.c ****         printf("config:err :code:%d\r\n",ret);
 463:D:/fchai/work/i-cube/I-CUBE-HUAWEI/Projects/NUCLEO-L496ZG/Applications/Cloud/mqtt-ota\oc_demo.c ****         return -1;
 464:D:/fchai/work/i-cube/I-CUBE-HUAWEI/Projects/NUCLEO-L496ZG/Applications/Cloud/mqtt-ota\oc_demo.c ****     }
 465:D:/fchai/work/i-cube/I-CUBE-HUAWEI/Projects/NUCLEO-L496ZG/Applications/Cloud/mqtt-ota\oc_demo.c **** 
 466:D:/fchai/work/i-cube/I-CUBE-HUAWEI/Projects/NUCLEO-L496ZG/Applications/Cloud/mqtt-ota\oc_demo.c **** #ifdef CONFIG_OTA_ENABLE
 467:D:/fchai/work/i-cube/I-CUBE-HUAWEI/Projects/NUCLEO-L496ZG/Applications/Cloud/mqtt-ota\oc_demo.c ****     static ota_flag_t otaflag = {0};
 1469              		.loc 1 467 5 view .LVU417
 468:D:/fchai/work/i-cube/I-CUBE-HUAWEI/Projects/NUCLEO-L496ZG/Applications/Cloud/mqtt-ota\oc_demo.c **** 
 469:D:/fchai/work/i-cube/I-CUBE-HUAWEI/Projects/NUCLEO-L496ZG/Applications/Cloud/mqtt-ota\oc_demo.c ****     if(0 == ota_flag_get(EN_OTA_TYPE_FOTA,&otaflag))
 1470              		.loc 1 469 5 view .LVU418
 1471              		.loc 1 469 13 is_stmt 0 view .LVU419
 1472 0042 644D     		ldr	r5, .L103+20
 1473 0044 2946     		mov	r1, r5
 1474 0046 FFF7FEFF 		bl	ota_flag_get
 1475              	.LVL151:
 1476              		.loc 1 469 7 view .LVU420
 1477 004a 0028     		cmp	r0, #0
 1478 004c 00F0B080 		beq	.L102
 1479              	.L94:
 470:D:/fchai/work/i-cube/I-CUBE-HUAWEI/Projects/NUCLEO-L496ZG/Applications/Cloud/mqtt-ota\oc_demo.c ****     {
 471:D:/fchai/work/i-cube/I-CUBE-HUAWEI/Projects/NUCLEO-L496ZG/Applications/Cloud/mqtt-ota\oc_demo.c ****         oc_report_upgraderet(otaflag.info.curstatus == EN_OTA_STATUS_UPGRADED_SUCCESS ? 0 : 1,
 472:D:/fchai/work/i-cube/I-CUBE-HUAWEI/Projects/NUCLEO-L496ZG/Applications/Cloud/mqtt-ota\oc_demo.c ****                              CN_OTA_FOTA_VERSION);
 473:D:/fchai/work/i-cube/I-CUBE-HUAWEI/Projects/NUCLEO-L496ZG/Applications/Cloud/mqtt-ota\oc_demo.c ****     }
 474:D:/fchai/work/i-cube/I-CUBE-HUAWEI/Projects/NUCLEO-L496ZG/Applications/Cloud/mqtt-ota\oc_demo.c **** 
 475:D:/fchai/work/i-cube/I-CUBE-HUAWEI/Projects/NUCLEO-L496ZG/Applications/Cloud/mqtt-ota\oc_demo.c ****     otaflag.info.curstatus = EN_OTA_STATUS_IDLE;
 1480              		.loc 1 475 5 is_stmt 1 view .LVU421
 1481              		.loc 1 475 28 is_stmt 0 view .LVU422
 1482 0050 0024     		movs	r4, #0
 476:D:/fchai/work/i-cube/I-CUBE-HUAWEI/Projects/NUCLEO-L496ZG/Applications/Cloud/mqtt-ota\oc_demo.c ****     ota_flag_save(EN_OTA_TYPE_FOTA,&otaflag);
 1483              		.loc 1 476 5 view .LVU423
 1484 0052 6049     		ldr	r1, .L103+20
 475:D:/fchai/work/i-cube/I-CUBE-HUAWEI/Projects/NUCLEO-L496ZG/Applications/Cloud/mqtt-ota\oc_demo.c ****     ota_flag_save(EN_OTA_TYPE_FOTA,&otaflag);
 1485              		.loc 1 475 28 view .LVU424
 1486 0054 2C60     		str	r4, [r5]
 1487              		.loc 1 476 5 is_stmt 1 view .LVU425
 1488 0056 2046     		mov	r0, r4
 1489 0058 FFF7FEFF 		bl	ota_flag_save
 1490              	.LVL152:
 477:D:/fchai/work/i-cube/I-CUBE-HUAWEI/Projects/NUCLEO-L496ZG/Applications/Cloud/mqtt-ota\oc_demo.c **** #endif
 478:D:/fchai/work/i-cube/I-CUBE-HUAWEI/Projects/NUCLEO-L496ZG/Applications/Cloud/mqtt-ota\oc_demo.c **** 
 479:D:/fchai/work/i-cube/I-CUBE-HUAWEI/Projects/NUCLEO-L496ZG/Applications/Cloud/mqtt-ota\oc_demo.c ****     oc_cmd_event_versionquery((cJSON *)NULL);
 1491              		.loc 1 479 5 view .LVU426
 1492 005c FFF7FEFF 		bl	oc_cmd_event_versionquery.isra.0
 1493              	.LVL153:
 480:D:/fchai/work/i-cube/I-CUBE-HUAWEI/Projects/NUCLEO-L496ZG/Applications/Cloud/mqtt-ota\oc_demo.c **** 
 481:D:/fchai/work/i-cube/I-CUBE-HUAWEI/Projects/NUCLEO-L496ZG/Applications/Cloud/mqtt-ota\oc_demo.c ****     char *topic;
 1494              		.loc 1 481 5 view .LVU427
 482:D:/fchai/work/i-cube/I-CUBE-HUAWEI/Projects/NUCLEO-L496ZG/Applications/Cloud/mqtt-ota\oc_demo.c ****     topic = "user/demo_topic";
 1495              		.loc 1 482 5 view .LVU428
 483:D:/fchai/work/i-cube/I-CUBE-HUAWEI/Projects/NUCLEO-L496ZG/Applications/Cloud/mqtt-ota\oc_demo.c ****     ret = oc_mqtt_subscribe(topic, 0);
 1496              		.loc 1 483 5 view .LVU429
 1497              		.loc 1 483 11 is_stmt 0 view .LVU430
ARM GAS  T:\msys\tmp\cckeAxp2.s 			page 44


 1498 0060 2146     		mov	r1, r4
 1499 0062 5D48     		ldr	r0, .L103+24
 1500 0064 DFF8D891 		ldr	r9, .L103+128
 1501 0068 DFF8D881 		ldr	r8, .L103+132
 1502 006c DFF8D8B1 		ldr	fp, .L103+136
 1503 0070 5A4F     		ldr	r7, .L103+28
 1504 0072 5B4E     		ldr	r6, .L103+32
 1505              	.LBB30:
 1506              	.LBB31:
 402:D:/fchai/work/i-cube/I-CUBE-HUAWEI/Projects/NUCLEO-L496ZG/Applications/Cloud/mqtt-ota\oc_demo.c ****     snprintf(s_hum,   6, "%f", (double)hum);
 1507              		.loc 1 402 5 view .LVU431
 1508 0074 9FED5B8A 		vldr.32	s16, .L103+36	@ int
 1509 0078 DFF888A1 		ldr	r10, .L103+68
 1510              	.LBE31:
 1511              	.LBE30:
 1512              		.loc 1 483 11 view .LVU432
 1513 007c FFF7FEFF 		bl	oc_mqtt_subscribe
 1514              	.LVL154:
 484:D:/fchai/work/i-cube/I-CUBE-HUAWEI/Projects/NUCLEO-L496ZG/Applications/Cloud/mqtt-ota\oc_demo.c ****     printf("subscribe:topic:%d ret:%d",topic,ret);
 1515              		.loc 1 484 5 view .LVU433
 1516 0080 5549     		ldr	r1, .L103+24
 483:D:/fchai/work/i-cube/I-CUBE-HUAWEI/Projects/NUCLEO-L496ZG/Applications/Cloud/mqtt-ota\oc_demo.c ****     ret = oc_mqtt_subscribe(topic, 0);
 1517              		.loc 1 483 11 view .LVU434
 1518 0082 0246     		mov	r2, r0
 1519              	.LVL155:
 1520              		.loc 1 484 5 is_stmt 1 view .LVU435
 1521 0084 5848     		ldr	r0, .L103+40
 1522              	.LVL156:
 1523              		.loc 1 484 5 is_stmt 0 view .LVU436
 1524 0086 FFF7FEFF 		bl	printf
 1525              	.LVL157:
 485:D:/fchai/work/i-cube/I-CUBE-HUAWEI/Projects/NUCLEO-L496ZG/Applications/Cloud/mqtt-ota\oc_demo.c **** 
 486:D:/fchai/work/i-cube/I-CUBE-HUAWEI/Projects/NUCLEO-L496ZG/Applications/Cloud/mqtt-ota\oc_demo.c ****     ret = oc_mqtt_unsubscribe(topic);
 1526              		.loc 1 486 5 is_stmt 1 view .LVU437
 1527              		.loc 1 486 11 is_stmt 0 view .LVU438
 1528 008a 5348     		ldr	r0, .L103+24
 1529 008c FFF7FEFF 		bl	oc_mqtt_unsubscribe
 1530              	.LVL158:
 487:D:/fchai/work/i-cube/I-CUBE-HUAWEI/Projects/NUCLEO-L496ZG/Applications/Cloud/mqtt-ota\oc_demo.c ****     printf("unsubscribe:topic:%d ret:%d",topic,ret);
 1531              		.loc 1 487 5 view .LVU439
 1532 0090 5149     		ldr	r1, .L103+24
 486:D:/fchai/work/i-cube/I-CUBE-HUAWEI/Projects/NUCLEO-L496ZG/Applications/Cloud/mqtt-ota\oc_demo.c ****     printf("unsubscribe:topic:%d ret:%d",topic,ret);
 1533              		.loc 1 486 11 view .LVU440
 1534 0092 0246     		mov	r2, r0
 1535              	.LVL159:
 1536              		.loc 1 487 5 is_stmt 1 view .LVU441
 1537 0094 5548     		ldr	r0, .L103+44
 1538              	.LVL160:
 1539              		.loc 1 487 5 is_stmt 0 view .LVU442
 1540 0096 FFF7FEFF 		bl	printf
 1541              	.LVL161:
 488:D:/fchai/work/i-cube/I-CUBE-HUAWEI/Projects/NUCLEO-L496ZG/Applications/Cloud/mqtt-ota\oc_demo.c **** 
 489:D:/fchai/work/i-cube/I-CUBE-HUAWEI/Projects/NUCLEO-L496ZG/Applications/Cloud/mqtt-ota\oc_demo.c ****     MX_MEMS_Init();
 1542              		.loc 1 489 5 is_stmt 1 view .LVU443
 1543 009a FFF7FEFF 		bl	MX_MEMS_Init
 1544              	.LVL162:
 1545              	.L97:
ARM GAS  T:\msys\tmp\cckeAxp2.s 			page 45


 490:D:/fchai/work/i-cube/I-CUBE-HUAWEI/Projects/NUCLEO-L496ZG/Applications/Cloud/mqtt-ota\oc_demo.c **** 
 491:D:/fchai/work/i-cube/I-CUBE-HUAWEI/Projects/NUCLEO-L496ZG/Applications/Cloud/mqtt-ota\oc_demo.c ****     while(1)  //do the loop here
 1546              		.loc 1 491 5 view .LVU444
 492:D:/fchai/work/i-cube/I-CUBE-HUAWEI/Projects/NUCLEO-L496ZG/Applications/Cloud/mqtt-ota\oc_demo.c ****     {
 493:D:/fchai/work/i-cube/I-CUBE-HUAWEI/Projects/NUCLEO-L496ZG/Applications/Cloud/mqtt-ota\oc_demo.c ****         if (!stop_report)
 1547              		.loc 1 493 9 view .LVU445
 494:D:/fchai/work/i-cube/I-CUBE-HUAWEI/Projects/NUCLEO-L496ZG/Applications/Cloud/mqtt-ota\oc_demo.c ****         {
 495:D:/fchai/work/i-cube/I-CUBE-HUAWEI/Projects/NUCLEO-L496ZG/Applications/Cloud/mqtt-ota\oc_demo.c ****             oc_report_normal();
 1548              		.loc 1 495 13 view .LVU446
 1549              	.LBB36:
 1550              	.LBI30:
 391:D:/fchai/work/i-cube/I-CUBE-HUAWEI/Projects/NUCLEO-L496ZG/Applications/Cloud/mqtt-ota\oc_demo.c **** {
 1551              		.loc 1 391 13 view .LVU447
 1552              	.LBB32:
 393:D:/fchai/work/i-cube/I-CUBE-HUAWEI/Projects/NUCLEO-L496ZG/Applications/Cloud/mqtt-ota\oc_demo.c ****     float temp, hum, press;
 1553              		.loc 1 393 5 view .LVU448
 394:D:/fchai/work/i-cube/I-CUBE-HUAWEI/Projects/NUCLEO-L496ZG/Applications/Cloud/mqtt-ota\oc_demo.c ****     static int s_asex_x, s_asex_y, s_asex_z;
 1554              		.loc 1 394 5 view .LVU449
 395:D:/fchai/work/i-cube/I-CUBE-HUAWEI/Projects/NUCLEO-L496ZG/Applications/Cloud/mqtt-ota\oc_demo.c ****     static char s_temp [8];
 1555              		.loc 1 395 5 view .LVU450
 396:D:/fchai/work/i-cube/I-CUBE-HUAWEI/Projects/NUCLEO-L496ZG/Applications/Cloud/mqtt-ota\oc_demo.c ****     static char s_hum [8];
 1556              		.loc 1 396 5 view .LVU451
 397:D:/fchai/work/i-cube/I-CUBE-HUAWEI/Projects/NUCLEO-L496ZG/Applications/Cloud/mqtt-ota\oc_demo.c ****     static char s_press [8];
 1557              		.loc 1 397 5 view .LVU452
 398:D:/fchai/work/i-cube/I-CUBE-HUAWEI/Projects/NUCLEO-L496ZG/Applications/Cloud/mqtt-ota\oc_demo.c **** 
 1558              		.loc 1 398 5 view .LVU453
 400:D:/fchai/work/i-cube/I-CUBE-HUAWEI/Projects/NUCLEO-L496ZG/Applications/Cloud/mqtt-ota\oc_demo.c **** 
 1559              		.loc 1 400 5 view .LVU454
 1560              	.LBE32:
 1561              	.LBE36:
 493:D:/fchai/work/i-cube/I-CUBE-HUAWEI/Projects/NUCLEO-L496ZG/Applications/Cloud/mqtt-ota\oc_demo.c ****         {
 1562              		.loc 1 493 13 is_stmt 0 view .LVU455
 1563 009e 544C     		ldr	r4, .L103+48
 1564              	.LBB37:
 1565              	.LBB33:
 400:D:/fchai/work/i-cube/I-CUBE-HUAWEI/Projects/NUCLEO-L496ZG/Applications/Cloud/mqtt-ota\oc_demo.c **** 
 1566              		.loc 1 400 5 view .LVU456
 1567 00a0 544B     		ldr	r3, .L103+52
 1568              	.LBE33:
 1569              	.LBE37:
 493:D:/fchai/work/i-cube/I-CUBE-HUAWEI/Projects/NUCLEO-L496ZG/Applications/Cloud/mqtt-ota\oc_demo.c ****         {
 1570              		.loc 1 493 13 view .LVU457
 1571 00a2 94F800C0 		ldrb	ip, [r4]	@ zero_extendqisi2
 1572              	.LBB38:
 1573              	.LBB34:
 400:D:/fchai/work/i-cube/I-CUBE-HUAWEI/Projects/NUCLEO-L496ZG/Applications/Cloud/mqtt-ota\oc_demo.c **** 
 1574              		.loc 1 400 5 view .LVU458
 1575 00a6 06AA     		add	r2, sp, #24
 1576 00a8 05A9     		add	r1, sp, #20
 1577 00aa 04A8     		add	r0, sp, #16
 1578              	.LBE34:
 1579              	.LBE38:
 493:D:/fchai/work/i-cube/I-CUBE-HUAWEI/Projects/NUCLEO-L496ZG/Applications/Cloud/mqtt-ota\oc_demo.c ****         {
 1580              		.loc 1 493 12 view .LVU459
 1581 00ac 0CF0FF04 		and	r4, ip, #255
 1582 00b0 BCF1000F 		cmp	ip, #0
 1583 00b4 6CD1     		bne	.L95
ARM GAS  T:\msys\tmp\cckeAxp2.s 			page 46


 1584              	.LBB39:
 1585              	.LBB35:
 400:D:/fchai/work/i-cube/I-CUBE-HUAWEI/Projects/NUCLEO-L496ZG/Applications/Cloud/mqtt-ota\oc_demo.c **** 
 1586              		.loc 1 400 5 view .LVU460
 1587 00b6 CDE90089 		strd	r8, r9, [sp]
 1588 00ba FFF7FEFF 		bl	MX_MEMS_Getinfo
 1589              	.LVL163:
 402:D:/fchai/work/i-cube/I-CUBE-HUAWEI/Projects/NUCLEO-L496ZG/Applications/Cloud/mqtt-ota\oc_demo.c ****     snprintf(s_hum,   6, "%f", (double)hum);
 1590              		.loc 1 402 5 is_stmt 1 view .LVU461
 1591 00be 0498     		ldr	r0, [sp, #16]	@ float
 410:D:/fchai/work/i-cube/I-CUBE-HUAWEI/Projects/NUCLEO-L496ZG/Applications/Cloud/mqtt-ota\oc_demo.c ****     property_temp.value = s_temp;
 1592              		.loc 1 410 23 is_stmt 0 view .LVU462
 1593 00c0 4D4D     		ldr	r5, .L103+56
 402:D:/fchai/work/i-cube/I-CUBE-HUAWEI/Projects/NUCLEO-L496ZG/Applications/Cloud/mqtt-ota\oc_demo.c ****     snprintf(s_hum,   6, "%f", (double)hum);
 1594              		.loc 1 402 5 view .LVU463
 1595 00c2 FFF7FEFF 		bl	__aeabi_f2d
 1596              	.LVL164:
 1597 00c6 18EE102A 		vmov	r2, s16	@ int
 1598 00ca CDE90001 		strd	r0, [sp]
 1599 00ce 0621     		movs	r1, #6
 1600 00d0 5046     		mov	r0, r10
 1601 00d2 FFF7FEFF 		bl	snprintf
 1602              	.LVL165:
 403:D:/fchai/work/i-cube/I-CUBE-HUAWEI/Projects/NUCLEO-L496ZG/Applications/Cloud/mqtt-ota\oc_demo.c ****     snprintf(s_press, 8, "%f", (double)press);
 1603              		.loc 1 403 5 is_stmt 1 view .LVU464
 1604 00d6 0598     		ldr	r0, [sp, #20]	@ float
 1605 00d8 FFF7FEFF 		bl	__aeabi_f2d
 1606              	.LVL166:
 1607 00dc 18EE102A 		vmov	r2, s16	@ int
 1608 00e0 CDE90001 		strd	r0, [sp]
 1609 00e4 0621     		movs	r1, #6
 1610 00e6 4548     		ldr	r0, .L103+60
 1611 00e8 FFF7FEFF 		bl	snprintf
 1612              	.LVL167:
 404:D:/fchai/work/i-cube/I-CUBE-HUAWEI/Projects/NUCLEO-L496ZG/Applications/Cloud/mqtt-ota\oc_demo.c **** 
 1613              		.loc 1 404 5 view .LVU465
 1614 00ec 0698     		ldr	r0, [sp, #24]	@ float
 1615 00ee FFF7FEFF 		bl	__aeabi_f2d
 1616              	.LVL168:
 1617 00f2 18EE102A 		vmov	r2, s16	@ int
 1618 00f6 CDE90001 		strd	r0, [sp]
 1619 00fa 0821     		movs	r1, #8
 1620 00fc 4048     		ldr	r0, .L103+64
 1621 00fe FFF7FEFF 		bl	snprintf
 1622              	.LVL169:
 406:D:/fchai/work/i-cube/I-CUBE-HUAWEI/Projects/NUCLEO-L496ZG/Applications/Cloud/mqtt-ota\oc_demo.c ****     s_hum   [5] = '\0';
 1623              		.loc 1 406 5 view .LVU466
 406:D:/fchai/work/i-cube/I-CUBE-HUAWEI/Projects/NUCLEO-L496ZG/Applications/Cloud/mqtt-ota\oc_demo.c ****     s_hum   [5] = '\0';
 1624              		.loc 1 406 17 is_stmt 0 view .LVU467
 1625 0102 404A     		ldr	r2, .L103+68
 434:D:/fchai/work/i-cube/I-CUBE-HUAWEI/Projects/NUCLEO-L496ZG/Applications/Cloud/mqtt-ota\oc_demo.c **** 
 1626              		.loc 1 434 11 view .LVU468
 1627 0104 4049     		ldr	r1, .L103+72
 406:D:/fchai/work/i-cube/I-CUBE-HUAWEI/Projects/NUCLEO-L496ZG/Applications/Cloud/mqtt-ota\oc_demo.c ****     s_hum   [5] = '\0';
 1628              		.loc 1 406 17 view .LVU469
 1629 0106 5471     		strb	r4, [r2, #5]
 407:D:/fchai/work/i-cube/I-CUBE-HUAWEI/Projects/NUCLEO-L496ZG/Applications/Cloud/mqtt-ota\oc_demo.c ****     s_press [7] = '\0';
ARM GAS  T:\msys\tmp\cckeAxp2.s 			page 47


 1630              		.loc 1 407 5 is_stmt 1 view .LVU470
 407:D:/fchai/work/i-cube/I-CUBE-HUAWEI/Projects/NUCLEO-L496ZG/Applications/Cloud/mqtt-ota\oc_demo.c ****     s_press [7] = '\0';
 1631              		.loc 1 407 17 is_stmt 0 view .LVU471
 1632 0108 3C4A     		ldr	r2, .L103+60
 424:D:/fchai/work/i-cube/I-CUBE-HUAWEI/Projects/NUCLEO-L496ZG/Applications/Cloud/mqtt-ota\oc_demo.c **** 
 1633              		.loc 1 424 21 view .LVU472
 1634 010a 8BF80840 		strb	r4, [fp, #8]
 407:D:/fchai/work/i-cube/I-CUBE-HUAWEI/Projects/NUCLEO-L496ZG/Applications/Cloud/mqtt-ota\oc_demo.c ****     s_press [7] = '\0';
 1635              		.loc 1 407 17 view .LVU473
 1636 010e 5471     		strb	r4, [r2, #5]
 408:D:/fchai/work/i-cube/I-CUBE-HUAWEI/Projects/NUCLEO-L496ZG/Applications/Cloud/mqtt-ota\oc_demo.c **** 
 1637              		.loc 1 408 5 is_stmt 1 view .LVU474
 408:D:/fchai/work/i-cube/I-CUBE-HUAWEI/Projects/NUCLEO-L496ZG/Applications/Cloud/mqtt-ota\oc_demo.c **** 
 1638              		.loc 1 408 17 is_stmt 0 view .LVU475
 1639 0110 3B4A     		ldr	r2, .L103+64
 428:D:/fchai/work/i-cube/I-CUBE-HUAWEI/Projects/NUCLEO-L496ZG/Applications/Cloud/mqtt-ota\oc_demo.c **** 
 1640              		.loc 1 428 21 view .LVU476
 1641 0112 3C72     		strb	r4, [r7, #8]
 408:D:/fchai/work/i-cube/I-CUBE-HUAWEI/Projects/NUCLEO-L496ZG/Applications/Cloud/mqtt-ota\oc_demo.c **** 
 1642              		.loc 1 408 17 view .LVU477
 1643 0114 D471     		strb	r4, [r2, #7]
 410:D:/fchai/work/i-cube/I-CUBE-HUAWEI/Projects/NUCLEO-L496ZG/Applications/Cloud/mqtt-ota\oc_demo.c ****     property_temp.value = s_temp;
 1644              		.loc 1 410 5 is_stmt 1 view .LVU478
 410:D:/fchai/work/i-cube/I-CUBE-HUAWEI/Projects/NUCLEO-L496ZG/Applications/Cloud/mqtt-ota\oc_demo.c ****     property_temp.value = s_temp;
 1645              		.loc 1 410 23 is_stmt 0 view .LVU479
 1646 0116 3D4A     		ldr	r2, .L103+76
 432:D:/fchai/work/i-cube/I-CUBE-HUAWEI/Projects/NUCLEO-L496ZG/Applications/Cloud/mqtt-ota\oc_demo.c **** 
 1647              		.loc 1 432 21 view .LVU480
 1648 0118 3472     		strb	r4, [r6, #8]
 410:D:/fchai/work/i-cube/I-CUBE-HUAWEI/Projects/NUCLEO-L496ZG/Applications/Cloud/mqtt-ota\oc_demo.c ****     property_temp.value = s_temp;
 1649              		.loc 1 410 23 view .LVU481
 1650 011a 5560     		str	r5, [r2, #4]
 411:D:/fchai/work/i-cube/I-CUBE-HUAWEI/Projects/NUCLEO-L496ZG/Applications/Cloud/mqtt-ota\oc_demo.c ****     property_temp.type = EN_OC_MQTT_PROFILE_VALUE_STRING;
 1651              		.loc 1 411 5 is_stmt 1 view .LVU482
 411:D:/fchai/work/i-cube/I-CUBE-HUAWEI/Projects/NUCLEO-L496ZG/Applications/Cloud/mqtt-ota\oc_demo.c ****     property_temp.type = EN_OC_MQTT_PROFILE_VALUE_STRING;
 1652              		.loc 1 411 25 is_stmt 0 view .LVU483
 1653 011c 394D     		ldr	r5, .L103+68
 1654 011e D560     		str	r5, [r2, #12]
 412:D:/fchai/work/i-cube/I-CUBE-HUAWEI/Projects/NUCLEO-L496ZG/Applications/Cloud/mqtt-ota\oc_demo.c **** 
 1655              		.loc 1 412 5 is_stmt 1 view .LVU484
 414:D:/fchai/work/i-cube/I-CUBE-HUAWEI/Projects/NUCLEO-L496ZG/Applications/Cloud/mqtt-ota\oc_demo.c ****     property_hum.value = s_hum;
 1656              		.loc 1 414 22 is_stmt 0 view .LVU485
 1657 0120 3B4A     		ldr	r2, .L103+80
 1658 0122 3C4D     		ldr	r5, .L103+84
 1659 0124 5560     		str	r5, [r2, #4]
 415:D:/fchai/work/i-cube/I-CUBE-HUAWEI/Projects/NUCLEO-L496ZG/Applications/Cloud/mqtt-ota\oc_demo.c ****     property_hum.type = EN_OC_MQTT_PROFILE_VALUE_STRING;
 1660              		.loc 1 415 24 view .LVU486
 1661 0126 354D     		ldr	r5, .L103+60
 1662 0128 D560     		str	r5, [r2, #12]
 418:D:/fchai/work/i-cube/I-CUBE-HUAWEI/Projects/NUCLEO-L496ZG/Applications/Cloud/mqtt-ota\oc_demo.c ****     property_press.value = s_press;
 1663              		.loc 1 418 24 view .LVU487
 1664 012a 3B4A     		ldr	r2, .L103+88
 1665 012c 3B4D     		ldr	r5, .L103+92
 1666 012e 5560     		str	r5, [r2, #4]
 419:D:/fchai/work/i-cube/I-CUBE-HUAWEI/Projects/NUCLEO-L496ZG/Applications/Cloud/mqtt-ota\oc_demo.c ****     property_press.type = EN_OC_MQTT_PROFILE_VALUE_STRING;
 1667              		.loc 1 419 26 view .LVU488
 1668 0130 334D     		ldr	r5, .L103+64
ARM GAS  T:\msys\tmp\cckeAxp2.s 			page 48


 1669 0132 D560     		str	r5, [r2, #12]
 426:D:/fchai/work/i-cube/I-CUBE-HUAWEI/Projects/NUCLEO-L496ZG/Applications/Cloud/mqtt-ota\oc_demo.c ****     property_y.value = &s_asex_y;
 1670              		.loc 1 426 20 view .LVU489
 1671 0134 3A4A     		ldr	r2, .L103+96
 1672 0136 7A60     		str	r2, [r7, #4]
 430:D:/fchai/work/i-cube/I-CUBE-HUAWEI/Projects/NUCLEO-L496ZG/Applications/Cloud/mqtt-ota\oc_demo.c ****     property_z.value = &s_asex_z;
 1673              		.loc 1 430 20 view .LVU490
 1674 0138 3A4A     		ldr	r2, .L103+100
 1675 013a 7260     		str	r2, [r6, #4]
 412:D:/fchai/work/i-cube/I-CUBE-HUAWEI/Projects/NUCLEO-L496ZG/Applications/Cloud/mqtt-ota\oc_demo.c **** 
 1676              		.loc 1 412 24 view .LVU491
 1677 013c 334A     		ldr	r2, .L103+76
 422:D:/fchai/work/i-cube/I-CUBE-HUAWEI/Projects/NUCLEO-L496ZG/Applications/Cloud/mqtt-ota\oc_demo.c ****     property_x.value = &s_asex_x;
 1678              		.loc 1 422 20 view .LVU492
 1679 013e 3A4D     		ldr	r5, .L103+104
 1680 0140 CBF80450 		str	r5, [fp, #4]
 412:D:/fchai/work/i-cube/I-CUBE-HUAWEI/Projects/NUCLEO-L496ZG/Applications/Cloud/mqtt-ota\oc_demo.c **** 
 1681              		.loc 1 412 24 view .LVU493
 1682 0144 0423     		movs	r3, #4
 1683 0146 1372     		strb	r3, [r2, #8]
 414:D:/fchai/work/i-cube/I-CUBE-HUAWEI/Projects/NUCLEO-L496ZG/Applications/Cloud/mqtt-ota\oc_demo.c ****     property_hum.value = s_hum;
 1684              		.loc 1 414 5 is_stmt 1 view .LVU494
 415:D:/fchai/work/i-cube/I-CUBE-HUAWEI/Projects/NUCLEO-L496ZG/Applications/Cloud/mqtt-ota\oc_demo.c ****     property_hum.type = EN_OC_MQTT_PROFILE_VALUE_STRING;
 1685              		.loc 1 415 5 view .LVU495
 416:D:/fchai/work/i-cube/I-CUBE-HUAWEI/Projects/NUCLEO-L496ZG/Applications/Cloud/mqtt-ota\oc_demo.c **** 
 1686              		.loc 1 416 5 view .LVU496
 416:D:/fchai/work/i-cube/I-CUBE-HUAWEI/Projects/NUCLEO-L496ZG/Applications/Cloud/mqtt-ota\oc_demo.c **** 
 1687              		.loc 1 416 23 is_stmt 0 view .LVU497
 1688 0148 314A     		ldr	r2, .L103+80
 423:D:/fchai/work/i-cube/I-CUBE-HUAWEI/Projects/NUCLEO-L496ZG/Applications/Cloud/mqtt-ota\oc_demo.c ****     property_x.type = EN_OC_MQTT_PROFILE_VALUE_INT;
 1689              		.loc 1 423 22 view .LVU498
 1690 014a 2A4D     		ldr	r5, .L103+52
 416:D:/fchai/work/i-cube/I-CUBE-HUAWEI/Projects/NUCLEO-L496ZG/Applications/Cloud/mqtt-ota\oc_demo.c **** 
 1691              		.loc 1 416 23 view .LVU499
 1692 014c 1372     		strb	r3, [r2, #8]
 418:D:/fchai/work/i-cube/I-CUBE-HUAWEI/Projects/NUCLEO-L496ZG/Applications/Cloud/mqtt-ota\oc_demo.c ****     property_press.value = s_press;
 1693              		.loc 1 418 5 is_stmt 1 view .LVU500
 419:D:/fchai/work/i-cube/I-CUBE-HUAWEI/Projects/NUCLEO-L496ZG/Applications/Cloud/mqtt-ota\oc_demo.c ****     property_press.type = EN_OC_MQTT_PROFILE_VALUE_STRING;
 1694              		.loc 1 419 5 view .LVU501
 420:D:/fchai/work/i-cube/I-CUBE-HUAWEI/Projects/NUCLEO-L496ZG/Applications/Cloud/mqtt-ota\oc_demo.c **** 
 1695              		.loc 1 420 5 view .LVU502
 420:D:/fchai/work/i-cube/I-CUBE-HUAWEI/Projects/NUCLEO-L496ZG/Applications/Cloud/mqtt-ota\oc_demo.c **** 
 1696              		.loc 1 420 25 is_stmt 0 view .LVU503
 1697 014e 324A     		ldr	r2, .L103+88
 423:D:/fchai/work/i-cube/I-CUBE-HUAWEI/Projects/NUCLEO-L496ZG/Applications/Cloud/mqtt-ota\oc_demo.c ****     property_x.type = EN_OC_MQTT_PROFILE_VALUE_INT;
 1698              		.loc 1 423 22 view .LVU504
 1699 0150 CBF80C50 		str	r5, [fp, #12]
 434:D:/fchai/work/i-cube/I-CUBE-HUAWEI/Projects/NUCLEO-L496ZG/Applications/Cloud/mqtt-ota\oc_demo.c **** 
 1700              		.loc 1 434 11 view .LVU505
 1701 0154 2046     		mov	r0, r4
 420:D:/fchai/work/i-cube/I-CUBE-HUAWEI/Projects/NUCLEO-L496ZG/Applications/Cloud/mqtt-ota\oc_demo.c **** 
 1702              		.loc 1 420 25 view .LVU506
 1703 0156 1372     		strb	r3, [r2, #8]
 422:D:/fchai/work/i-cube/I-CUBE-HUAWEI/Projects/NUCLEO-L496ZG/Applications/Cloud/mqtt-ota\oc_demo.c ****     property_x.value = &s_asex_x;
 1704              		.loc 1 422 5 is_stmt 1 view .LVU507
 423:D:/fchai/work/i-cube/I-CUBE-HUAWEI/Projects/NUCLEO-L496ZG/Applications/Cloud/mqtt-ota\oc_demo.c ****     property_x.type = EN_OC_MQTT_PROFILE_VALUE_INT;
 1705              		.loc 1 423 5 view .LVU508
ARM GAS  T:\msys\tmp\cckeAxp2.s 			page 49


 424:D:/fchai/work/i-cube/I-CUBE-HUAWEI/Projects/NUCLEO-L496ZG/Applications/Cloud/mqtt-ota\oc_demo.c **** 
 1706              		.loc 1 424 5 view .LVU509
 426:D:/fchai/work/i-cube/I-CUBE-HUAWEI/Projects/NUCLEO-L496ZG/Applications/Cloud/mqtt-ota\oc_demo.c ****     property_y.value = &s_asex_y;
 1707              		.loc 1 426 5 view .LVU510
 427:D:/fchai/work/i-cube/I-CUBE-HUAWEI/Projects/NUCLEO-L496ZG/Applications/Cloud/mqtt-ota\oc_demo.c ****     property_y.type = EN_OC_MQTT_PROFILE_VALUE_INT;
 1708              		.loc 1 427 5 view .LVU511
 428:D:/fchai/work/i-cube/I-CUBE-HUAWEI/Projects/NUCLEO-L496ZG/Applications/Cloud/mqtt-ota\oc_demo.c **** 
 1709              		.loc 1 428 5 view .LVU512
 430:D:/fchai/work/i-cube/I-CUBE-HUAWEI/Projects/NUCLEO-L496ZG/Applications/Cloud/mqtt-ota\oc_demo.c ****     property_z.value = &s_asex_z;
 1710              		.loc 1 430 5 view .LVU513
 431:D:/fchai/work/i-cube/I-CUBE-HUAWEI/Projects/NUCLEO-L496ZG/Applications/Cloud/mqtt-ota\oc_demo.c ****     property_z.type = EN_OC_MQTT_PROFILE_VALUE_INT;
 1711              		.loc 1 431 5 view .LVU514
 432:D:/fchai/work/i-cube/I-CUBE-HUAWEI/Projects/NUCLEO-L496ZG/Applications/Cloud/mqtt-ota\oc_demo.c **** 
 1712              		.loc 1 432 5 view .LVU515
 434:D:/fchai/work/i-cube/I-CUBE-HUAWEI/Projects/NUCLEO-L496ZG/Applications/Cloud/mqtt-ota\oc_demo.c **** 
 1713              		.loc 1 434 5 view .LVU516
 427:D:/fchai/work/i-cube/I-CUBE-HUAWEI/Projects/NUCLEO-L496ZG/Applications/Cloud/mqtt-ota\oc_demo.c ****     property_y.type = EN_OC_MQTT_PROFILE_VALUE_INT;
 1714              		.loc 1 427 22 is_stmt 0 view .LVU517
 1715 0158 C7F80C80 		str	r8, [r7, #12]
 431:D:/fchai/work/i-cube/I-CUBE-HUAWEI/Projects/NUCLEO-L496ZG/Applications/Cloud/mqtt-ota\oc_demo.c ****     property_z.type = EN_OC_MQTT_PROFILE_VALUE_INT;
 1716              		.loc 1 431 22 view .LVU518
 1717 015c C6F80C90 		str	r9, [r6, #12]
 434:D:/fchai/work/i-cube/I-CUBE-HUAWEI/Projects/NUCLEO-L496ZG/Applications/Cloud/mqtt-ota\oc_demo.c **** 
 1718              		.loc 1 434 11 view .LVU519
 1719 0160 FFF7FEFF 		bl	oc_mqtt_profile_propertyreport
 1720              	.LVL170:
 436:D:/fchai/work/i-cube/I-CUBE-HUAWEI/Projects/NUCLEO-L496ZG/Applications/Cloud/mqtt-ota\oc_demo.c ****            s_temp, s_hum, s_press, s_asex_x, s_asex_y, s_asex_z, ret == 0 ? "successful :-)" : "fai
 1721              		.loc 1 436 5 is_stmt 1 view .LVU520
 1722 0164 2A68     		ldr	r2, [r5]
 1723 0166 314B     		ldr	r3, .L103+108
 1724 0168 314C     		ldr	r4, .L103+112
 1725 016a D8F80010 		ldr	r1, [r8]
 1726 016e 1546     		mov	r5, r2
 1727 0170 D9F80020 		ldr	r2, [r9]
 1728 0174 0095     		str	r5, [sp]
 1729 0176 0028     		cmp	r0, #0
 1730 0178 0CBF     		ite	eq
 1731 017a 1846     		moveq	r0, r3
 1732 017c 2046     		movne	r0, r4
 1733              	.LVL171:
 436:D:/fchai/work/i-cube/I-CUBE-HUAWEI/Projects/NUCLEO-L496ZG/Applications/Cloud/mqtt-ota\oc_demo.c ****            s_temp, s_hum, s_press, s_asex_x, s_asex_y, s_asex_z, ret == 0 ? "successful :-)" : "fai
 1734              		.loc 1 436 5 is_stmt 0 view .LVU521
 1735 017e CDE90112 		strd	r1, r2, [sp, #4]
 1736 0182 0390     		str	r0, [sp, #12]
 1737 0184 1E4B     		ldr	r3, .L103+64
 1738 0186 1D4A     		ldr	r2, .L103+60
 1739 0188 2A48     		ldr	r0, .L103+116
 1740 018a 5146     		mov	r1, r10
 1741 018c FFF7FEFF 		bl	printf
 1742              	.LVL172:
 439:D:/fchai/work/i-cube/I-CUBE-HUAWEI/Projects/NUCLEO-L496ZG/Applications/Cloud/mqtt-ota\oc_demo.c **** }
 1743              		.loc 1 439 5 is_stmt 1 view .LVU522
 1744              	.L95:
 439:D:/fchai/work/i-cube/I-CUBE-HUAWEI/Projects/NUCLEO-L496ZG/Applications/Cloud/mqtt-ota\oc_demo.c **** }
 1745              		.loc 1 439 5 is_stmt 0 view .LVU523
 1746              	.LBE35:
 1747              	.LBE39:
ARM GAS  T:\msys\tmp\cckeAxp2.s 			page 50


 496:D:/fchai/work/i-cube/I-CUBE-HUAWEI/Projects/NUCLEO-L496ZG/Applications/Cloud/mqtt-ota\oc_demo.c ****         }
 497:D:/fchai/work/i-cube/I-CUBE-HUAWEI/Projects/NUCLEO-L496ZG/Applications/Cloud/mqtt-ota\oc_demo.c **** 
 498:D:/fchai/work/i-cube/I-CUBE-HUAWEI/Projects/NUCLEO-L496ZG/Applications/Cloud/mqtt-ota\oc_demo.c ****         osal_task_sleep(10*1000);
 1748              		.loc 1 498 9 is_stmt 1 view .LVU524
 1749 0190 42F21070 		movw	r0, #10000
 1750 0194 FFF7FEFF 		bl	osal_task_sleep
 1751              	.LVL173:
 491:D:/fchai/work/i-cube/I-CUBE-HUAWEI/Projects/NUCLEO-L496ZG/Applications/Cloud/mqtt-ota\oc_demo.c ****     {
 1752              		.loc 1 491 10 view .LVU525
 493:D:/fchai/work/i-cube/I-CUBE-HUAWEI/Projects/NUCLEO-L496ZG/Applications/Cloud/mqtt-ota\oc_demo.c ****         {
 1753              		.loc 1 493 12 is_stmt 0 view .LVU526
 1754 0198 81E7     		b	.L97
 1755              	.LVL174:
 1756              	.L100:
 493:D:/fchai/work/i-cube/I-CUBE-HUAWEI/Projects/NUCLEO-L496ZG/Applications/Cloud/mqtt-ota\oc_demo.c ****         {
 1757              		.loc 1 493 12 view .LVU527
 1758 019a 0146     		mov	r1, r0
 1759              	.LBE29:
 1760              	.LBE28:
 462:D:/fchai/work/i-cube/I-CUBE-HUAWEI/Projects/NUCLEO-L496ZG/Applications/Cloud/mqtt-ota\oc_demo.c ****         return -1;
 1761              		.loc 1 462 9 is_stmt 1 view .LVU528
 1762 019c 2648     		ldr	r0, .L103+120
 1763              	.LVL175:
 462:D:/fchai/work/i-cube/I-CUBE-HUAWEI/Projects/NUCLEO-L496ZG/Applications/Cloud/mqtt-ota\oc_demo.c ****         return -1;
 1764              		.loc 1 462 9 is_stmt 0 view .LVU529
 1765 019e FFF7FEFF 		bl	printf
 1766              	.LVL176:
 463:D:/fchai/work/i-cube/I-CUBE-HUAWEI/Projects/NUCLEO-L496ZG/Applications/Cloud/mqtt-ota\oc_demo.c ****     }
 1767              		.loc 1 463 9 is_stmt 1 view .LVU530
 499:D:/fchai/work/i-cube/I-CUBE-HUAWEI/Projects/NUCLEO-L496ZG/Applications/Cloud/mqtt-ota\oc_demo.c ****     }
 500:D:/fchai/work/i-cube/I-CUBE-HUAWEI/Projects/NUCLEO-L496ZG/Applications/Cloud/mqtt-ota\oc_demo.c **** }
 1768              		.loc 1 500 1 is_stmt 0 view .LVU531
 1769 01a2 4FF0FF30 		mov	r0, #-1
 1770 01a6 1BB0     		add	sp, sp, #108
 1771              	.LCFI22:
 1772              		.cfi_remember_state
 1773              		.cfi_def_cfa_offset 44
 1774              		@ sp needed
 1775 01a8 BDEC028B 		vldm	sp!, {d8}
 1776              	.LCFI23:
 1777              		.cfi_restore 80
 1778              		.cfi_restore 81
 1779              		.cfi_def_cfa_offset 36
 1780 01ac BDE8F08F 		pop	{r4, r5, r6, r7, r8, r9, r10, fp, pc}
 1781              	.LVL177:
 1782              	.L102:
 1783              	.LCFI24:
 1784              		.cfi_restore_state
 1785              	.LBB41:
 1786              	.LBB40:
 471:D:/fchai/work/i-cube/I-CUBE-HUAWEI/Projects/NUCLEO-L496ZG/Applications/Cloud/mqtt-ota\oc_demo.c ****                              CN_OTA_FOTA_VERSION);
 1787              		.loc 1 471 9 is_stmt 1 view .LVU532
 1788 01b0 2868     		ldr	r0, [r5]
 1789 01b2 2249     		ldr	r1, .L103+124
 1790 01b4 0338     		subs	r0, r0, #3
 1791 01b6 18BF     		it	ne
 1792 01b8 0120     		movne	r0, #1
ARM GAS  T:\msys\tmp\cckeAxp2.s 			page 51


 1793 01ba FFF7FEFF 		bl	oc_report_upgraderet
 1794              	.LVL178:
 1795 01be 47E7     		b	.L94
 1796              	.L104:
 1797              		.align	2
 1798              	.L103:
 1799 01c0 40000000 		.word	.LC25
 1800 01c4 50000000 		.word	.LC26
 1801 01c8 00000000 		.word	.LC3
 1802 01cc 1C000000 		.word	.LC24
 1803 01d0 00000000 		.word	app_msg_deal
 1804 01d4 00000000 		.word	.LANCHOR8
 1805 01d8 70000000 		.word	.LC28
 1806 01dc 00000000 		.word	.LANCHOR19
 1807 01e0 00000000 		.word	.LANCHOR20
 1808 01e4 B8000000 		.word	.LC31
 1809 01e8 80000000 		.word	.LC29
 1810 01ec 9C000000 		.word	.LC30
 1811 01f0 00000000 		.word	.LANCHOR6
 1812 01f4 00000000 		.word	.LANCHOR9
 1813 01f8 BC000000 		.word	.LC32
 1814 01fc 00000000 		.word	.LANCHOR13
 1815 0200 00000000 		.word	.LANCHOR14
 1816 0204 00000000 		.word	.LANCHOR12
 1817 0208 00000000 		.word	.LANCHOR5
 1818 020c 00000000 		.word	.LANCHOR15
 1819 0210 00000000 		.word	.LANCHOR16
 1820 0214 C8000000 		.word	.LC33
 1821 0218 00000000 		.word	.LANCHOR17
 1822 021c D4000000 		.word	.LC34
 1823 0220 F0000000 		.word	.LC36
 1824 0224 00010000 		.word	.LC37
 1825 0228 E0000000 		.word	.LC35
 1826 022c 00000000 		.word	.LC22
 1827 0230 10000000 		.word	.LC23
 1828 0234 10010000 		.word	.LC38
 1829 0238 58000000 		.word	.LC27
 1830 023c 00000000 		.word	.LC6
 1831 0240 00000000 		.word	.LANCHOR10
 1832 0244 00000000 		.word	.LANCHOR11
 1833 0248 00000000 		.word	.LANCHOR18
 1834              	.LBE40:
 1835              	.LBE41:
 1836              		.cfi_endproc
 1837              	.LFE12:
 1839              		.section	.rodata.standard_app_demo_main.str1.4,"aMS",%progbits,1
 1840              		.align	2
 1841              	.LC39:
 1842 0000 71756575 		.ascii	"queue_rcvmsg\000"
 1842      655F7263 
 1842      766D7367 
 1842      00
 1843 000d 000000   		.align	2
 1844              	.LC40:
 1845 0010 434E5F4F 		.ascii	"CN_OTA_FOTA_VERSION is %s\012\015\000"
 1845      54415F46 
 1845      4F54415F 
ARM GAS  T:\msys\tmp\cckeAxp2.s 			page 52


 1845      56455253 
 1845      494F4E20 
 1846              		.align	2
 1847              	.LC41:
 1848 002c 53656E73 		.ascii	"SensorService\000"
 1848      6F725365 
 1848      72766963 
 1848      6500
 1849 003a 0000     		.align	2
 1850              	.LC42:
 1851 003c 64656D6F 		.ascii	"demo_reportmsg\000"
 1851      5F726570 
 1851      6F72746D 
 1851      736700
 1852 004b 00       		.align	2
 1853              	.LC43:
 1854 004c 64656D6F 		.ascii	"demo_rcvmsg\000"
 1854      5F726376 
 1854      6D736700 
 1855              		.section	.text.standard_app_demo_main,"ax",%progbits
 1856              		.align	1
 1857              		.p2align 2,,3
 1858              		.global	standard_app_demo_main
 1859              		.syntax unified
 1860              		.thumb
 1861              		.thumb_func
 1862              		.fpu fpv4-sp-d16
 1864              	standard_app_demo_main:
 1865              	.LFB13:
 501:D:/fchai/work/i-cube/I-CUBE-HUAWEI/Projects/NUCLEO-L496ZG/Applications/Cloud/mqtt-ota\oc_demo.c **** 
 502:D:/fchai/work/i-cube/I-CUBE-HUAWEI/Projects/NUCLEO-L496ZG/Applications/Cloud/mqtt-ota\oc_demo.c **** int standard_app_demo_main(void)
 503:D:/fchai/work/i-cube/I-CUBE-HUAWEI/Projects/NUCLEO-L496ZG/Applications/Cloud/mqtt-ota\oc_demo.c **** {
 1866              		.loc 1 503 1 view -0
 1867              		.cfi_startproc
 1868              		@ args = 0, pretend = 0, frame = 0
 1869              		@ frame_needed = 0, uses_anonymous_args = 0
 504:D:/fchai/work/i-cube/I-CUBE-HUAWEI/Projects/NUCLEO-L496ZG/Applications/Cloud/mqtt-ota\oc_demo.c ****     s_queue_rcvmsg = queue_create("queue_rcvmsg",2,1);
 1870              		.loc 1 504 5 view .LVU534
 503:D:/fchai/work/i-cube/I-CUBE-HUAWEI/Projects/NUCLEO-L496ZG/Applications/Cloud/mqtt-ota\oc_demo.c ****     s_queue_rcvmsg = queue_create("queue_rcvmsg",2,1);
 1871              		.loc 1 503 1 is_stmt 0 view .LVU535
 1872 0000 F0B5     		push	{r4, r5, r6, r7, lr}
 1873              	.LCFI25:
 1874              		.cfi_def_cfa_offset 20
 1875              		.cfi_offset 4, -20
 1876              		.cfi_offset 5, -16
 1877              		.cfi_offset 6, -12
 1878              		.cfi_offset 7, -8
 1879              		.cfi_offset 14, -4
 1880              		.loc 1 504 22 view .LVU536
 1881 0002 0122     		movs	r2, #1
 503:D:/fchai/work/i-cube/I-CUBE-HUAWEI/Projects/NUCLEO-L496ZG/Applications/Cloud/mqtt-ota\oc_demo.c ****     s_queue_rcvmsg = queue_create("queue_rcvmsg",2,1);
 1882              		.loc 1 503 1 view .LVU537
 1883 0004 83B0     		sub	sp, sp, #12
 1884              	.LCFI26:
 1885              		.cfi_def_cfa_offset 32
 1886              		.loc 1 504 22 view .LVU538
 1887 0006 0221     		movs	r1, #2
ARM GAS  T:\msys\tmp\cckeAxp2.s 			page 53


 1888 0008 1848     		ldr	r0, .L107
 505:D:/fchai/work/i-cube/I-CUBE-HUAWEI/Projects/NUCLEO-L496ZG/Applications/Cloud/mqtt-ota\oc_demo.c **** 
 506:D:/fchai/work/i-cube/I-CUBE-HUAWEI/Projects/NUCLEO-L496ZG/Applications/Cloud/mqtt-ota\oc_demo.c ****     property_temp.nxt  = &property_hum;
 1889              		.loc 1 506 24 view .LVU539
 1890 000a 194E     		ldr	r6, .L107+4
 1891 000c 194C     		ldr	r4, .L107+8
 507:D:/fchai/work/i-cube/I-CUBE-HUAWEI/Projects/NUCLEO-L496ZG/Applications/Cloud/mqtt-ota\oc_demo.c ****     property_hum.nxt   = &property_press;
 1892              		.loc 1 507 24 view .LVU540
 1893 000e 1A4F     		ldr	r7, .L107+12
 508:D:/fchai/work/i-cube/I-CUBE-HUAWEI/Projects/NUCLEO-L496ZG/Applications/Cloud/mqtt-ota\oc_demo.c ****     property_press.nxt = &property_x;
 1894              		.loc 1 508 24 view .LVU541
 1895 0010 1A4D     		ldr	r5, .L107+16
 504:D:/fchai/work/i-cube/I-CUBE-HUAWEI/Projects/NUCLEO-L496ZG/Applications/Cloud/mqtt-ota\oc_demo.c **** 
 1896              		.loc 1 504 22 view .LVU542
 1897 0012 FFF7FEFF 		bl	queue_create
 1898              	.LVL179:
 504:D:/fchai/work/i-cube/I-CUBE-HUAWEI/Projects/NUCLEO-L496ZG/Applications/Cloud/mqtt-ota\oc_demo.c **** 
 1899              		.loc 1 504 20 view .LVU543
 1900 0016 1A4B     		ldr	r3, .L107+20
 509:D:/fchai/work/i-cube/I-CUBE-HUAWEI/Projects/NUCLEO-L496ZG/Applications/Cloud/mqtt-ota\oc_demo.c ****     property_x.nxt     = &property_y;
 1901              		.loc 1 509 24 view .LVU544
 1902 0018 1A4A     		ldr	r2, .L107+24
 504:D:/fchai/work/i-cube/I-CUBE-HUAWEI/Projects/NUCLEO-L496ZG/Applications/Cloud/mqtt-ota\oc_demo.c **** 
 1903              		.loc 1 504 20 view .LVU545
 1904 001a 1860     		str	r0, [r3]
 506:D:/fchai/work/i-cube/I-CUBE-HUAWEI/Projects/NUCLEO-L496ZG/Applications/Cloud/mqtt-ota\oc_demo.c ****     property_hum.nxt   = &property_press;
 1905              		.loc 1 506 5 is_stmt 1 view .LVU546
 510:D:/fchai/work/i-cube/I-CUBE-HUAWEI/Projects/NUCLEO-L496ZG/Applications/Cloud/mqtt-ota\oc_demo.c ****     property_y.nxt     = &property_z;
 1906              		.loc 1 510 24 is_stmt 0 view .LVU547
 1907 001c 1A4B     		ldr	r3, .L107+28
 506:D:/fchai/work/i-cube/I-CUBE-HUAWEI/Projects/NUCLEO-L496ZG/Applications/Cloud/mqtt-ota\oc_demo.c ****     property_hum.nxt   = &property_press;
 1908              		.loc 1 506 24 view .LVU548
 1909 001e 3460     		str	r4, [r6]
 507:D:/fchai/work/i-cube/I-CUBE-HUAWEI/Projects/NUCLEO-L496ZG/Applications/Cloud/mqtt-ota\oc_demo.c ****     property_press.nxt = &property_x;
 1910              		.loc 1 507 5 is_stmt 1 view .LVU549
 507:D:/fchai/work/i-cube/I-CUBE-HUAWEI/Projects/NUCLEO-L496ZG/Applications/Cloud/mqtt-ota\oc_demo.c ****     property_press.nxt = &property_x;
 1911              		.loc 1 507 24 is_stmt 0 view .LVU550
 1912 0020 2760     		str	r7, [r4]
 508:D:/fchai/work/i-cube/I-CUBE-HUAWEI/Projects/NUCLEO-L496ZG/Applications/Cloud/mqtt-ota\oc_demo.c ****     property_x.nxt     = &property_y;
 1913              		.loc 1 508 5 is_stmt 1 view .LVU551
 511:D:/fchai/work/i-cube/I-CUBE-HUAWEI/Projects/NUCLEO-L496ZG/Applications/Cloud/mqtt-ota\oc_demo.c ****     property_z.nxt     = NULL;
 512:D:/fchai/work/i-cube/I-CUBE-HUAWEI/Projects/NUCLEO-L496ZG/Applications/Cloud/mqtt-ota\oc_demo.c **** 
 513:D:/fchai/work/i-cube/I-CUBE-HUAWEI/Projects/NUCLEO-L496ZG/Applications/Cloud/mqtt-ota\oc_demo.c ****     printf ("CN_OTA_FOTA_VERSION is %s\n\r", CN_OTA_FOTA_VERSION);
 1914              		.loc 1 513 5 is_stmt 0 view .LVU552
 1915 0022 1A49     		ldr	r1, .L107+32
 1916 0024 1A48     		ldr	r0, .L107+36
 508:D:/fchai/work/i-cube/I-CUBE-HUAWEI/Projects/NUCLEO-L496ZG/Applications/Cloud/mqtt-ota\oc_demo.c ****     property_x.nxt     = &property_y;
 1917              		.loc 1 508 24 view .LVU553
 1918 0026 3D60     		str	r5, [r7]
 509:D:/fchai/work/i-cube/I-CUBE-HUAWEI/Projects/NUCLEO-L496ZG/Applications/Cloud/mqtt-ota\oc_demo.c ****     property_y.nxt     = &property_z;
 1919              		.loc 1 509 5 is_stmt 1 view .LVU554
 511:D:/fchai/work/i-cube/I-CUBE-HUAWEI/Projects/NUCLEO-L496ZG/Applications/Cloud/mqtt-ota\oc_demo.c ****     property_z.nxt     = NULL;
 1920              		.loc 1 511 24 is_stmt 0 view .LVU555
 1921 0028 0024     		movs	r4, #0
 509:D:/fchai/work/i-cube/I-CUBE-HUAWEI/Projects/NUCLEO-L496ZG/Applications/Cloud/mqtt-ota\oc_demo.c ****     property_y.nxt     = &property_z;
 1922              		.loc 1 509 24 view .LVU556
 1923 002a 2A60     		str	r2, [r5]
ARM GAS  T:\msys\tmp\cckeAxp2.s 			page 54


 510:D:/fchai/work/i-cube/I-CUBE-HUAWEI/Projects/NUCLEO-L496ZG/Applications/Cloud/mqtt-ota\oc_demo.c ****     property_z.nxt     = NULL;
 1924              		.loc 1 510 5 is_stmt 1 view .LVU557
 510:D:/fchai/work/i-cube/I-CUBE-HUAWEI/Projects/NUCLEO-L496ZG/Applications/Cloud/mqtt-ota\oc_demo.c ****     property_z.nxt     = NULL;
 1925              		.loc 1 510 24 is_stmt 0 view .LVU558
 1926 002c 1360     		str	r3, [r2]
 511:D:/fchai/work/i-cube/I-CUBE-HUAWEI/Projects/NUCLEO-L496ZG/Applications/Cloud/mqtt-ota\oc_demo.c ****     property_z.nxt     = NULL;
 1927              		.loc 1 511 5 is_stmt 1 view .LVU559
 511:D:/fchai/work/i-cube/I-CUBE-HUAWEI/Projects/NUCLEO-L496ZG/Applications/Cloud/mqtt-ota\oc_demo.c ****     property_z.nxt     = NULL;
 1928              		.loc 1 511 24 is_stmt 0 view .LVU560
 1929 002e 1C60     		str	r4, [r3]
 1930              		.loc 1 513 5 is_stmt 1 view .LVU561
 514:D:/fchai/work/i-cube/I-CUBE-HUAWEI/Projects/NUCLEO-L496ZG/Applications/Cloud/mqtt-ota\oc_demo.c **** 
 515:D:/fchai/work/i-cube/I-CUBE-HUAWEI/Projects/NUCLEO-L496ZG/Applications/Cloud/mqtt-ota\oc_demo.c ****     ///< initialize the service
 516:D:/fchai/work/i-cube/I-CUBE-HUAWEI/Projects/NUCLEO-L496ZG/Applications/Cloud/mqtt-ota\oc_demo.c ****     s_device_service.event_time = NULL;
 517:D:/fchai/work/i-cube/I-CUBE-HUAWEI/Projects/NUCLEO-L496ZG/Applications/Cloud/mqtt-ota\oc_demo.c ****     s_device_service.service_id = "SensorService";
 1931              		.loc 1 517 33 is_stmt 0 view .LVU562
 1932 0030 184F     		ldr	r7, .L107+40
 513:D:/fchai/work/i-cube/I-CUBE-HUAWEI/Projects/NUCLEO-L496ZG/Applications/Cloud/mqtt-ota\oc_demo.c **** 
 1933              		.loc 1 513 5 view .LVU563
 1934 0032 FFF7FEFF 		bl	printf
 1935              	.LVL180:
 516:D:/fchai/work/i-cube/I-CUBE-HUAWEI/Projects/NUCLEO-L496ZG/Applications/Cloud/mqtt-ota\oc_demo.c ****     s_device_service.service_id = "SensorService";
 1936              		.loc 1 516 5 is_stmt 1 view .LVU564
 516:D:/fchai/work/i-cube/I-CUBE-HUAWEI/Projects/NUCLEO-L496ZG/Applications/Cloud/mqtt-ota\oc_demo.c ****     s_device_service.service_id = "SensorService";
 1937              		.loc 1 516 33 is_stmt 0 view .LVU565
 1938 0036 1848     		ldr	r0, .L107+44
 518:D:/fchai/work/i-cube/I-CUBE-HUAWEI/Projects/NUCLEO-L496ZG/Applications/Cloud/mqtt-ota\oc_demo.c ****     s_device_service.service_property = &property_temp;
 519:D:/fchai/work/i-cube/I-CUBE-HUAWEI/Projects/NUCLEO-L496ZG/Applications/Cloud/mqtt-ota\oc_demo.c ****     s_device_service.nxt = NULL;
 520:D:/fchai/work/i-cube/I-CUBE-HUAWEI/Projects/NUCLEO-L496ZG/Applications/Cloud/mqtt-ota\oc_demo.c **** 
 521:D:/fchai/work/i-cube/I-CUBE-HUAWEI/Projects/NUCLEO-L496ZG/Applications/Cloud/mqtt-ota\oc_demo.c ****     (void) osal_task_create("demo_reportmsg",task_reportmsg_entry,NULL,0x800,NULL,8);
 1939              		.loc 1 521 12 view .LVU566
 1940 0038 0094     		str	r4, [sp]
 1941 003a 0825     		movs	r5, #8
 1942 003c 0195     		str	r5, [sp, #4]
 1943 003e 2246     		mov	r2, r4
 517:D:/fchai/work/i-cube/I-CUBE-HUAWEI/Projects/NUCLEO-L496ZG/Applications/Cloud/mqtt-ota\oc_demo.c ****     s_device_service.service_property = &property_temp;
 1944              		.loc 1 517 33 view .LVU567
 1945 0040 C0E90047 		strd	r4, r7, [r0]
 518:D:/fchai/work/i-cube/I-CUBE-HUAWEI/Projects/NUCLEO-L496ZG/Applications/Cloud/mqtt-ota\oc_demo.c ****     s_device_service.service_property = &property_temp;
 1946              		.loc 1 518 39 view .LVU568
 1947 0044 C660     		str	r6, [r0, #12]
 516:D:/fchai/work/i-cube/I-CUBE-HUAWEI/Projects/NUCLEO-L496ZG/Applications/Cloud/mqtt-ota\oc_demo.c ****     s_device_service.service_id = "SensorService";
 1948              		.loc 1 516 33 view .LVU569
 1949 0046 8460     		str	r4, [r0, #8]
 517:D:/fchai/work/i-cube/I-CUBE-HUAWEI/Projects/NUCLEO-L496ZG/Applications/Cloud/mqtt-ota\oc_demo.c ****     s_device_service.service_property = &property_temp;
 1950              		.loc 1 517 5 is_stmt 1 view .LVU570
 518:D:/fchai/work/i-cube/I-CUBE-HUAWEI/Projects/NUCLEO-L496ZG/Applications/Cloud/mqtt-ota\oc_demo.c ****     s_device_service.service_property = &property_temp;
 1951              		.loc 1 518 5 view .LVU571
 519:D:/fchai/work/i-cube/I-CUBE-HUAWEI/Projects/NUCLEO-L496ZG/Applications/Cloud/mqtt-ota\oc_demo.c **** 
 1952              		.loc 1 519 5 view .LVU572
 1953              		.loc 1 521 5 view .LVU573
 1954              		.loc 1 521 12 is_stmt 0 view .LVU574
 1955 0048 1449     		ldr	r1, .L107+48
 1956 004a 1548     		ldr	r0, .L107+52
 1957 004c 4FF40063 		mov	r3, #2048
 1958 0050 FFF7FEFF 		bl	osal_task_create
 1959              	.LVL181:
ARM GAS  T:\msys\tmp\cckeAxp2.s 			page 55


 522:D:/fchai/work/i-cube/I-CUBE-HUAWEI/Projects/NUCLEO-L496ZG/Applications/Cloud/mqtt-ota\oc_demo.c **** #ifdef CONFIG_OTA_ENABLE
 523:D:/fchai/work/i-cube/I-CUBE-HUAWEI/Projects/NUCLEO-L496ZG/Applications/Cloud/mqtt-ota\oc_demo.c ****     (void) osal_task_create("demo_rcvmsg",task_rcvmsg_entry,NULL,0x1800,NULL,8);
 1960              		.loc 1 523 5 is_stmt 1 view .LVU575
 1961              		.loc 1 523 12 is_stmt 0 view .LVU576
 1962 0054 CDE90045 		strd	r4, r5, [sp]
 1963 0058 1249     		ldr	r1, .L107+56
 1964 005a 1348     		ldr	r0, .L107+60
 1965 005c 2246     		mov	r2, r4
 1966 005e 4FF4C053 		mov	r3, #6144
 1967 0062 FFF7FEFF 		bl	osal_task_create
 1968              	.LVL182:
 524:D:/fchai/work/i-cube/I-CUBE-HUAWEI/Projects/NUCLEO-L496ZG/Applications/Cloud/mqtt-ota\oc_demo.c **** #endif
 525:D:/fchai/work/i-cube/I-CUBE-HUAWEI/Projects/NUCLEO-L496ZG/Applications/Cloud/mqtt-ota\oc_demo.c **** 
 526:D:/fchai/work/i-cube/I-CUBE-HUAWEI/Projects/NUCLEO-L496ZG/Applications/Cloud/mqtt-ota\oc_demo.c ****     return 0;
 1969              		.loc 1 526 5 is_stmt 1 view .LVU577
 527:D:/fchai/work/i-cube/I-CUBE-HUAWEI/Projects/NUCLEO-L496ZG/Applications/Cloud/mqtt-ota\oc_demo.c **** }
 1970              		.loc 1 527 1 is_stmt 0 view .LVU578
 1971 0066 2046     		mov	r0, r4
 1972 0068 03B0     		add	sp, sp, #12
 1973              	.LCFI27:
 1974              		.cfi_def_cfa_offset 20
 1975              		@ sp needed
 1976 006a F0BD     		pop	{r4, r5, r6, r7, pc}
 1977              	.L108:
 1978              		.align	2
 1979              	.L107:
 1980 006c 00000000 		.word	.LC39
 1981 0070 00000000 		.word	.LANCHOR15
 1982 0074 00000000 		.word	.LANCHOR16
 1983 0078 00000000 		.word	.LANCHOR17
 1984 007c 00000000 		.word	.LANCHOR18
 1985 0080 00000000 		.word	.LANCHOR2
 1986 0084 00000000 		.word	.LANCHOR19
 1987 0088 00000000 		.word	.LANCHOR20
 1988 008c 00000000 		.word	.LC6
 1989 0090 10000000 		.word	.LC40
 1990 0094 2C000000 		.word	.LC41
 1991 0098 00000000 		.word	.LANCHOR5
 1992 009c 00000000 		.word	task_reportmsg_entry
 1993 00a0 3C000000 		.word	.LC42
 1994 00a4 00000000 		.word	task_rcvmsg_entry
 1995 00a8 4C000000 		.word	.LC43
 1996              		.cfi_endproc
 1997              	.LFE13:
 1999              		.section	.text.liteos_reboot,"ax",%progbits
 2000              		.align	1
 2001              		.p2align 2,,3
 2002              		.global	liteos_reboot
 2003              		.syntax unified
 2004              		.thumb
 2005              		.thumb_func
 2006              		.fpu fpv4-sp-d16
 2008              	liteos_reboot:
 2009              	.LFB14:
 528:D:/fchai/work/i-cube/I-CUBE-HUAWEI/Projects/NUCLEO-L496ZG/Applications/Cloud/mqtt-ota\oc_demo.c **** 
 529:D:/fchai/work/i-cube/I-CUBE-HUAWEI/Projects/NUCLEO-L496ZG/Applications/Cloud/mqtt-ota\oc_demo.c **** int liteos_reboot(void)
 530:D:/fchai/work/i-cube/I-CUBE-HUAWEI/Projects/NUCLEO-L496ZG/Applications/Cloud/mqtt-ota\oc_demo.c **** {
ARM GAS  T:\msys\tmp\cckeAxp2.s 			page 56


 2010              		.loc 1 530 1 is_stmt 1 view -0
 2011              		.cfi_startproc
 2012              		@ args = 0, pretend = 0, frame = 0
 2013              		@ frame_needed = 0, uses_anonymous_args = 0
 531:D:/fchai/work/i-cube/I-CUBE-HUAWEI/Projects/NUCLEO-L496ZG/Applications/Cloud/mqtt-ota\oc_demo.c ****     extern void HAL_NVIC_SystemReset(void);
 2014              		.loc 1 531 5 view .LVU580
 532:D:/fchai/work/i-cube/I-CUBE-HUAWEI/Projects/NUCLEO-L496ZG/Applications/Cloud/mqtt-ota\oc_demo.c ****     HAL_NVIC_SystemReset();
 2015              		.loc 1 532 5 view .LVU581
 530:D:/fchai/work/i-cube/I-CUBE-HUAWEI/Projects/NUCLEO-L496ZG/Applications/Cloud/mqtt-ota\oc_demo.c ****     extern void HAL_NVIC_SystemReset(void);
 2016              		.loc 1 530 1 is_stmt 0 view .LVU582
 2017 0000 08B5     		push	{r3, lr}
 2018              	.LCFI28:
 2019              		.cfi_def_cfa_offset 8
 2020              		.cfi_offset 3, -8
 2021              		.cfi_offset 14, -4
 2022              		.loc 1 532 5 view .LVU583
 2023 0002 FFF7FEFF 		bl	HAL_NVIC_SystemReset
 2024              	.LVL183:
 533:D:/fchai/work/i-cube/I-CUBE-HUAWEI/Projects/NUCLEO-L496ZG/Applications/Cloud/mqtt-ota\oc_demo.c ****     return 0;
 2025              		.loc 1 533 5 is_stmt 1 view .LVU584
 534:D:/fchai/work/i-cube/I-CUBE-HUAWEI/Projects/NUCLEO-L496ZG/Applications/Cloud/mqtt-ota\oc_demo.c **** }
 2026              		.loc 1 534 1 is_stmt 0 view .LVU585
 2027 0006 0020     		movs	r0, #0
 2028 0008 08BD     		pop	{r3, pc}
 2029              		.cfi_endproc
 2030              	.LFE14:
 2032 000a 00BF     		.section	.bss.otaflag.7873,"aw",%nobits
 2033              		.align	2
 2034              		.set	.LANCHOR8,. + 0
 2037              	otaflag.7873:
 2038 0000 00000000 		.space	180
 2038      00000000 
 2038      00000000 
 2038      00000000 
 2038      00000000 
 2039              		.section	.bss.property_hum,"aw",%nobits
 2040              		.align	2
 2041              		.set	.LANCHOR16,. + 0
 2044              	property_hum:
 2045 0000 00000000 		.space	16
 2045      00000000 
 2045      00000000 
 2045      00000000 
 2046              		.section	.bss.property_press,"aw",%nobits
 2047              		.align	2
 2048              		.set	.LANCHOR17,. + 0
 2051              	property_press:
 2052 0000 00000000 		.space	16
 2052      00000000 
 2052      00000000 
 2052      00000000 
 2053              		.section	.bss.property_temp,"aw",%nobits
 2054              		.align	2
 2055              		.set	.LANCHOR15,. + 0
 2058              	property_temp:
 2059 0000 00000000 		.space	16
 2059      00000000 
ARM GAS  T:\msys\tmp\cckeAxp2.s 			page 57


 2059      00000000 
 2059      00000000 
 2060              		.section	.bss.property_x,"aw",%nobits
 2061              		.align	2
 2062              		.set	.LANCHOR18,. + 0
 2065              	property_x:
 2066 0000 00000000 		.space	16
 2066      00000000 
 2066      00000000 
 2066      00000000 
 2067              		.section	.bss.property_y,"aw",%nobits
 2068              		.align	2
 2069              		.set	.LANCHOR19,. + 0
 2072              	property_y:
 2073 0000 00000000 		.space	16
 2073      00000000 
 2073      00000000 
 2073      00000000 
 2074              		.section	.bss.property_z,"aw",%nobits
 2075              		.align	2
 2076              		.set	.LANCHOR20,. + 0
 2079              	property_z:
 2080 0000 00000000 		.space	16
 2080      00000000 
 2080      00000000 
 2080      00000000 
 2081              		.section	.bss.s_asex_x.7862,"aw",%nobits
 2082              		.align	2
 2083              		.set	.LANCHOR9,. + 0
 2086              	s_asex_x.7862:
 2087 0000 00000000 		.space	4
 2088              		.section	.bss.s_asex_y.7863,"aw",%nobits
 2089              		.align	2
 2090              		.set	.LANCHOR11,. + 0
 2093              	s_asex_y.7863:
 2094 0000 00000000 		.space	4
 2095              		.section	.bss.s_asex_z.7864,"aw",%nobits
 2096              		.align	2
 2097              		.set	.LANCHOR10,. + 0
 2100              	s_asex_z.7864:
 2101 0000 00000000 		.space	4
 2102              		.section	.bss.s_device_service,"aw",%nobits
 2103              		.align	2
 2104              		.set	.LANCHOR5,. + 0
 2107              	s_device_service:
 2108 0000 00000000 		.space	16
 2108      00000000 
 2108      00000000 
 2108      00000000 
 2109              		.section	.bss.s_hum.7866,"aw",%nobits
 2110              		.align	2
 2111              		.set	.LANCHOR13,. + 0
 2114              	s_hum.7866:
 2115 0000 00000000 		.space	8
 2115      00000000 
 2116              		.section	.bss.s_press.7867,"aw",%nobits
 2117              		.align	2
ARM GAS  T:\msys\tmp\cckeAxp2.s 			page 58


 2118              		.set	.LANCHOR14,. + 0
 2121              	s_press.7867:
 2122 0000 00000000 		.space	8
 2122      00000000 
 2123              		.section	.bss.s_queue_rcvmsg,"aw",%nobits
 2124              		.align	2
 2125              		.set	.LANCHOR2,. + 0
 2128              	s_queue_rcvmsg:
 2129 0000 00000000 		.space	4
 2130              		.section	.bss.s_temp.7865,"aw",%nobits
 2131              		.align	2
 2132              		.set	.LANCHOR12,. + 0
 2135              	s_temp.7865:
 2136 0000 00000000 		.space	8
 2136      00000000 
 2137              		.section	.bss.stop_report,"aw",%nobits
 2138              		.set	.LANCHOR6,. + 0
 2141              	stop_report:
 2142 0000 00       		.space	1
 2143              		.section	.bss.value.7839,"aw",%nobits
 2144              		.align	2
 2145              		.set	.LANCHOR4,. + 0
 2148              	value.7839:
 2149 0000 00000000 		.space	4
 2150              		.section	.rodata.__FUNCTION__.7438,"a"
 2151              		.align	2
 2152              		.set	.LANCHOR1,. + 0
 2155              	__FUNCTION__.7438:
 2156 0000 6170705F 		.ascii	"app_msg_deal\000"
 2156      6D73675F 
 2156      6465616C 
 2156      00
 2157              		.section	.rodata.__FUNCTION__.7669,"a"
 2158              		.align	2
 2159              		.set	.LANCHOR3,. + 0
 2162              	__FUNCTION__.7669:
 2163 0000 6F635F63 		.ascii	"oc_cmd_event_versionquery\000"
 2163      6D645F65 
 2163      76656E74 
 2163      5F766572 
 2163      73696F6E 
 2164              		.section	.rodata.__FUNCTION__.7804,"a"
 2165              		.align	2
 2166              		.set	.LANCHOR0,. + 0
 2169              	__FUNCTION__.7804:
 2170 0000 6F635F72 		.ascii	"oc_report_upgraderet\000"
 2170      65706F72 
 2170      745F7570 
 2170      67726164 
 2170      65726574 
 2171              		.section	.rodata.__FUNCTION__.7821,"a"
 2172              		.align	2
 2173              		.set	.LANCHOR7,. + 0
 2176              	__FUNCTION__.7821:
 2177 0000 6F635F63 		.ascii	"oc_cmd_event_firmupdate\000"
 2177      6D645F65 
 2177      76656E74 
ARM GAS  T:\msys\tmp\cckeAxp2.s 			page 59


 2177      5F666972 
 2177      6D757064 
 2178              		.text
 2179              	.Letext0:
 2180              		.file 2 "t:\\msys\\3rd\\gcc-arm-none-eabi-9-2020-q2-update-win32\\arm-none-eabi\\include\\machine\
 2181              		.file 3 "t:\\msys\\3rd\\gcc-arm-none-eabi-9-2020-q2-update-win32\\arm-none-eabi\\include\\sys\\_st
 2182              		.file 4 "t:\\msys\\3rd\\gcc-arm-none-eabi-9-2020-q2-update-win32\\lib\\gcc\\arm-none-eabi\\9.3.1\\
 2183              		.file 5 "t:\\msys\\3rd\\gcc-arm-none-eabi-9-2020-q2-update-win32\\arm-none-eabi\\include\\sys\\_ty
 2184              		.file 6 "t:\\msys\\3rd\\gcc-arm-none-eabi-9-2020-q2-update-win32\\arm-none-eabi\\include\\sys\\ree
 2185              		.file 7 "t:\\msys\\3rd\\gcc-arm-none-eabi-9-2020-q2-update-win32\\arm-none-eabi\\include\\sys\\loc
 2186              		.file 8 "D:/fchai/work/i-cube/I-CUBE-HUAWEI/Middlewares/Third_Party/Huawei/iot_link/os/osal/osal_t
 2187              		.file 9 "D:/fchai/work/i-cube/I-CUBE-HUAWEI/Middlewares/Third_Party/Huawei/iot_link/queue/queue.h"
 2188              		.file 10 "D:/fchai/work/i-cube/I-CUBE-HUAWEI/Middlewares/Third_Party/Huawei/iot_link/inc/link_log.
 2189              		.file 11 "D:/fchai/work/i-cube/I-CUBE-HUAWEI/Middlewares/Third_Party/Huawei/iot_link/inc/dtls_al.h
 2190              		.file 12 "D:/fchai/work/i-cube/I-CUBE-HUAWEI/Middlewares/Third_Party/Huawei/iot_link/oc/oc_mqtt/oc
 2191              		.file 13 "D:/fchai/work/i-cube/I-CUBE-HUAWEI/Middlewares/Third_Party/Huawei/iot_link/oc/oc_mqtt/oc
 2192              		.file 14 "D:/fchai/work/i-cube/I-CUBE-HUAWEI/Middlewares/Third_Party/Huawei/iot_link/cJSON/cJSON.h
 2193              		.file 15 "D:/fchai/work/i-cube/I-CUBE-HUAWEI/Middlewares/Third_Party/Huawei/iot_link/link_ota/ota_
 2194              		.file 16 "D:/fchai/work/i-cube/I-CUBE-HUAWEI/Middlewares/Third_Party/Huawei/iot_link/link_ota/down
 2195              		.file 17 "D:/fchai/work/i-cube/I-CUBE-HUAWEI/Middlewares/Third_Party/Huawei/iot_link/link_ota/ota_
 2196              		.file 18 "t:\\msys\\3rd\\gcc-arm-none-eabi-9-2020-q2-update-win32\\arm-none-eabi\\include\\stdio.h
 2197              		.file 19 "D:/fchai/work/i-cube/I-CUBE-HUAWEI/Middlewares/Third_Party/Huawei/iot_link/os/osal/osal.
 2198              		.file 20 "t:\\msys\\3rd\\gcc-arm-none-eabi-9-2020-q2-update-win32\\arm-none-eabi\\include\\string.
 2199              		.file 21 "D:/fchai/work/i-cube/I-CUBE-HUAWEI/Middlewares/Third_Party/Huawei/iot_link/oc/oc_mqtt/oc
 2200              		.file 22 "<built-in>"
 2201              		.file 23 "D:/fchai/work/i-cube/I-CUBE-HUAWEI/Projects/NUCLEO-L496ZG/Applications/Cloud/mqtt-ota/In
ARM GAS  T:\msys\tmp\cckeAxp2.s 			page 60

