ARM GAS  T:\msys\tmp\ccnGkxTA.s 			page 1


   1              		.cpu cortex-m4
   2              		.eabi_attribute 27, 1
   3              		.eabi_attribute 28, 1
   4              		.eabi_attribute 20, 1
   5              		.eabi_attribute 21, 1
   6              		.eabi_attribute 23, 3
   7              		.eabi_attribute 24, 1
   8              		.eabi_attribute 25, 1
   9              		.eabi_attribute 26, 1
  10              		.eabi_attribute 30, 2
  11              		.eabi_attribute 34, 1
  12              		.eabi_attribute 18, 4
  13              		.file	"dtls_interface.c"
  14              		.text
  15              	.Ltext0:
  16              		.cfi_sections	.debug_frame
  17              		.section	.rodata.dtls_ssl_new.str1.4,"aMS",%progbits,1
  18              		.align	2
  19              	.LC0:
  20 0000 73736C5F 		.ascii	"ssl_client\000"
  20      636C6965 
  20      6E7400
  21 000b 00       		.align	2
  22              	.LC1:
  23 000c 5B25735D 		.ascii	"[%s][%u][%s] mbedtls_ctr_drbg_seed failed: -0x%x\015"
  23      5B25755D 
  23      5B25735D 
  23      206D6265 
  23      64746C73 
  24 003d 0A00     		.ascii	"\012\000"
  25 003f 00       		.align	2
  26              	.LC2:
  27 0040 5B25735D 		.ascii	"[%s][%u][%s] setting up the SSL structure\015\012\000"
  27      5B25755D 
  27      5B25735D 
  27      20736574 
  27      74696E67 
  28              		.align	2
  29              	.LC3:
  30 006c 5B25735D 		.ascii	"[%s][%u][%s] mbedtls_x509_crt_parse failed -0x%x\015"
  30      5B25755D 
  30      5B25735D 
  30      206D6265 
  30      64746C73 
  31 009d 0A00     		.ascii	"\012\000"
  32 009f 00       		.align	2
  33              	.LC4:
  34 00a0 5B25735D 		.ascii	"[%s][%u][%s] mbedtls_ssl_setup failed: -0x%x\015\012"
  34      5B25755D 
  34      5B25735D 
  34      206D6265 
  34      64746C73 
  35 00ce 00       		.ascii	"\000"
  36 00cf 00       		.align	2
  37              	.LC5:
  38 00d0 5B25735D 		.ascii	"[%s][%u][%s] set SSL structure succeed\015\012\000"
  38      5B25755D 
ARM GAS  T:\msys\tmp\ccnGkxTA.s 			page 2


  38      5B25735D 
  38      20736574 
  38      2053534C 
  39              		.section	.text.dtls_ssl_new,"ax",%progbits
  40              		.align	1
  41              		.p2align 2,,3
  42              		.global	dtls_ssl_new
  43              		.arch armv7e-m
  44              		.syntax unified
  45              		.thumb
  46              		.thumb_func
  47              		.fpu fpv4-sp-d16
  49              	dtls_ssl_new:
  50              	.LVL0:
  51              	.LFB24:
  52              		.file 1 "D:/fchai/work/i-cube/I-CUBE-HUAWEI/Middlewares/Third_Party/Huawei/iot_link/network/dtls/m
   1:D:/fchai/work/i-cube/I-CUBE-HUAWEI/Middlewares/Third_Party/Huawei/iot_link/network/dtls/mbedtls/mbedtls_port\dtls_interface.c **** /*----------------------------------------------------------------------------
   2:D:/fchai/work/i-cube/I-CUBE-HUAWEI/Middlewares/Third_Party/Huawei/iot_link/network/dtls/mbedtls/mbedtls_port\dtls_interface.c ****  * Copyright (c) <2016-2018>, <Huawei Technologies Co., Ltd>
   3:D:/fchai/work/i-cube/I-CUBE-HUAWEI/Middlewares/Third_Party/Huawei/iot_link/network/dtls/mbedtls/mbedtls_port\dtls_interface.c ****  * All rights reserved.
   4:D:/fchai/work/i-cube/I-CUBE-HUAWEI/Middlewares/Third_Party/Huawei/iot_link/network/dtls/mbedtls/mbedtls_port\dtls_interface.c ****  * Redistribution and use in source and binary forms, with or without modification,
   5:D:/fchai/work/i-cube/I-CUBE-HUAWEI/Middlewares/Third_Party/Huawei/iot_link/network/dtls/mbedtls/mbedtls_port\dtls_interface.c ****  * are permitted provided that the following conditions are met:
   6:D:/fchai/work/i-cube/I-CUBE-HUAWEI/Middlewares/Third_Party/Huawei/iot_link/network/dtls/mbedtls/mbedtls_port\dtls_interface.c ****  * 1. Redistributions of source code must retain the above copyright notice, this list of
   7:D:/fchai/work/i-cube/I-CUBE-HUAWEI/Middlewares/Third_Party/Huawei/iot_link/network/dtls/mbedtls/mbedtls_port\dtls_interface.c ****  * conditions and the following disclaimer.
   8:D:/fchai/work/i-cube/I-CUBE-HUAWEI/Middlewares/Third_Party/Huawei/iot_link/network/dtls/mbedtls/mbedtls_port\dtls_interface.c ****  * 2. Redistributions in binary form must reproduce the above copyright notice, this list
   9:D:/fchai/work/i-cube/I-CUBE-HUAWEI/Middlewares/Third_Party/Huawei/iot_link/network/dtls/mbedtls/mbedtls_port\dtls_interface.c ****  * of conditions and the following disclaimer in the documentation and/or other materials
  10:D:/fchai/work/i-cube/I-CUBE-HUAWEI/Middlewares/Third_Party/Huawei/iot_link/network/dtls/mbedtls/mbedtls_port\dtls_interface.c ****  * provided with the distribution.
  11:D:/fchai/work/i-cube/I-CUBE-HUAWEI/Middlewares/Third_Party/Huawei/iot_link/network/dtls/mbedtls/mbedtls_port\dtls_interface.c ****  * 3. Neither the name of the copyright holder nor the names of its contributors may be used
  12:D:/fchai/work/i-cube/I-CUBE-HUAWEI/Middlewares/Third_Party/Huawei/iot_link/network/dtls/mbedtls/mbedtls_port\dtls_interface.c ****  * to endorse or promote products derived from this software without specific prior written
  13:D:/fchai/work/i-cube/I-CUBE-HUAWEI/Middlewares/Third_Party/Huawei/iot_link/network/dtls/mbedtls/mbedtls_port\dtls_interface.c ****  * permission.
  14:D:/fchai/work/i-cube/I-CUBE-HUAWEI/Middlewares/Third_Party/Huawei/iot_link/network/dtls/mbedtls/mbedtls_port\dtls_interface.c ****  * THIS SOFTWARE IS PROVIDED BY THE COPYRIGHT HOLDERS AND CONTRIBUTORS
  15:D:/fchai/work/i-cube/I-CUBE-HUAWEI/Middlewares/Third_Party/Huawei/iot_link/network/dtls/mbedtls/mbedtls_port\dtls_interface.c ****  * "AS IS" AND ANY EXPRESS OR IMPLIED WARRANTIES, INCLUDING, BUT NOT LIMITED TO,
  16:D:/fchai/work/i-cube/I-CUBE-HUAWEI/Middlewares/Third_Party/Huawei/iot_link/network/dtls/mbedtls/mbedtls_port\dtls_interface.c ****  * THE IMPLIED WARRANTIES OF MERCHANTABILITY AND FITNESS FOR A PARTICULAR
  17:D:/fchai/work/i-cube/I-CUBE-HUAWEI/Middlewares/Third_Party/Huawei/iot_link/network/dtls/mbedtls/mbedtls_port\dtls_interface.c ****  * PURPOSE ARE DISCLAIMED. IN NO EVENT SHALL THE COPYRIGHT HOLDER OR
  18:D:/fchai/work/i-cube/I-CUBE-HUAWEI/Middlewares/Third_Party/Huawei/iot_link/network/dtls/mbedtls/mbedtls_port\dtls_interface.c ****  * CONTRIBUTORS BE LIABLE FOR ANY DIRECT, INDIRECT, INCIDENTAL, SPECIAL,
  19:D:/fchai/work/i-cube/I-CUBE-HUAWEI/Middlewares/Third_Party/Huawei/iot_link/network/dtls/mbedtls/mbedtls_port\dtls_interface.c ****  * EXEMPLARY, OR CONSEQUENTIAL DAMAGES (INCLUDING, BUT NOT LIMITED TO,
  20:D:/fchai/work/i-cube/I-CUBE-HUAWEI/Middlewares/Third_Party/Huawei/iot_link/network/dtls/mbedtls/mbedtls_port\dtls_interface.c ****  * PROCUREMENT OF SUBSTITUTE GOODS OR SERVICES; LOSS OF USE, DATA, OR PROFITS;
  21:D:/fchai/work/i-cube/I-CUBE-HUAWEI/Middlewares/Third_Party/Huawei/iot_link/network/dtls/mbedtls/mbedtls_port\dtls_interface.c ****  * OR BUSINESS INTERRUPTION) HOWEVER CAUSED AND ON ANY THEORY OF LIABILITY,
  22:D:/fchai/work/i-cube/I-CUBE-HUAWEI/Middlewares/Third_Party/Huawei/iot_link/network/dtls/mbedtls/mbedtls_port\dtls_interface.c ****  * WHETHER IN CONTRACT, STRICT LIABILITY, OR TORT (INCLUDING NEGLIGENCE OR
  23:D:/fchai/work/i-cube/I-CUBE-HUAWEI/Middlewares/Third_Party/Huawei/iot_link/network/dtls/mbedtls/mbedtls_port\dtls_interface.c ****  * OTHERWISE) ARISING IN ANY WAY OUT OF THE USE OF THIS SOFTWARE, EVEN IF
  24:D:/fchai/work/i-cube/I-CUBE-HUAWEI/Middlewares/Third_Party/Huawei/iot_link/network/dtls/mbedtls/mbedtls_port\dtls_interface.c ****  * ADVISED OF THE POSSIBILITY OF SUCH DAMAGE.
  25:D:/fchai/work/i-cube/I-CUBE-HUAWEI/Middlewares/Third_Party/Huawei/iot_link/network/dtls/mbedtls/mbedtls_port\dtls_interface.c ****  *---------------------------------------------------------------------------*/
  26:D:/fchai/work/i-cube/I-CUBE-HUAWEI/Middlewares/Third_Party/Huawei/iot_link/network/dtls/mbedtls/mbedtls_port\dtls_interface.c **** /*----------------------------------------------------------------------------
  27:D:/fchai/work/i-cube/I-CUBE-HUAWEI/Middlewares/Third_Party/Huawei/iot_link/network/dtls/mbedtls/mbedtls_port\dtls_interface.c ****  * Notice of Export Control Law
  28:D:/fchai/work/i-cube/I-CUBE-HUAWEI/Middlewares/Third_Party/Huawei/iot_link/network/dtls/mbedtls/mbedtls_port\dtls_interface.c ****  * ===============================================
  29:D:/fchai/work/i-cube/I-CUBE-HUAWEI/Middlewares/Third_Party/Huawei/iot_link/network/dtls/mbedtls/mbedtls_port\dtls_interface.c ****  * Huawei LiteOS may be subject to applicable export control laws and regulations, which might
  30:D:/fchai/work/i-cube/I-CUBE-HUAWEI/Middlewares/Third_Party/Huawei/iot_link/network/dtls/mbedtls/mbedtls_port\dtls_interface.c ****  * include those applicable to Huawei LiteOS of U.S. and the country in which you are located.
  31:D:/fchai/work/i-cube/I-CUBE-HUAWEI/Middlewares/Third_Party/Huawei/iot_link/network/dtls/mbedtls/mbedtls_port\dtls_interface.c ****  * Import, export and usage of Huawei LiteOS in any manner by you shall be in compliance with such
  32:D:/fchai/work/i-cube/I-CUBE-HUAWEI/Middlewares/Third_Party/Huawei/iot_link/network/dtls/mbedtls/mbedtls_port\dtls_interface.c ****  * applicable export control laws and regulations.
  33:D:/fchai/work/i-cube/I-CUBE-HUAWEI/Middlewares/Third_Party/Huawei/iot_link/network/dtls/mbedtls/mbedtls_port\dtls_interface.c ****  *---------------------------------------------------------------------------*/
  34:D:/fchai/work/i-cube/I-CUBE-HUAWEI/Middlewares/Third_Party/Huawei/iot_link/network/dtls/mbedtls/mbedtls_port\dtls_interface.c **** 
  35:D:/fchai/work/i-cube/I-CUBE-HUAWEI/Middlewares/Third_Party/Huawei/iot_link/network/dtls/mbedtls/mbedtls_port\dtls_interface.c **** /*
  36:D:/fchai/work/i-cube/I-CUBE-HUAWEI/Middlewares/Third_Party/Huawei/iot_link/network/dtls/mbedtls/mbedtls_port\dtls_interface.c ****  *  Simple DTLS client demonstration program
  37:D:/fchai/work/i-cube/I-CUBE-HUAWEI/Middlewares/Third_Party/Huawei/iot_link/network/dtls/mbedtls/mbedtls_port\dtls_interface.c ****  *
  38:D:/fchai/work/i-cube/I-CUBE-HUAWEI/Middlewares/Third_Party/Huawei/iot_link/network/dtls/mbedtls/mbedtls_port\dtls_interface.c ****  *  Copyright (C) 2006-2015, ARM Limited, All Rights Reserved
  39:D:/fchai/work/i-cube/I-CUBE-HUAWEI/Middlewares/Third_Party/Huawei/iot_link/network/dtls/mbedtls/mbedtls_port\dtls_interface.c ****  *  SPDX-License-Identifier: Apache-2.0
  40:D:/fchai/work/i-cube/I-CUBE-HUAWEI/Middlewares/Third_Party/Huawei/iot_link/network/dtls/mbedtls/mbedtls_port\dtls_interface.c ****  *
  41:D:/fchai/work/i-cube/I-CUBE-HUAWEI/Middlewares/Third_Party/Huawei/iot_link/network/dtls/mbedtls/mbedtls_port\dtls_interface.c ****  *  Licensed under the Apache License, Version 2.0 (the "License"); you may
ARM GAS  T:\msys\tmp\ccnGkxTA.s 			page 3


  42:D:/fchai/work/i-cube/I-CUBE-HUAWEI/Middlewares/Third_Party/Huawei/iot_link/network/dtls/mbedtls/mbedtls_port\dtls_interface.c ****  *  not use this file except in compliance with the License.
  43:D:/fchai/work/i-cube/I-CUBE-HUAWEI/Middlewares/Third_Party/Huawei/iot_link/network/dtls/mbedtls/mbedtls_port\dtls_interface.c ****  *  You may obtain a copy of the License at
  44:D:/fchai/work/i-cube/I-CUBE-HUAWEI/Middlewares/Third_Party/Huawei/iot_link/network/dtls/mbedtls/mbedtls_port\dtls_interface.c ****  *
  45:D:/fchai/work/i-cube/I-CUBE-HUAWEI/Middlewares/Third_Party/Huawei/iot_link/network/dtls/mbedtls/mbedtls_port\dtls_interface.c ****  *  http://www.apache.org/licenses/LICENSE-2.0
  46:D:/fchai/work/i-cube/I-CUBE-HUAWEI/Middlewares/Third_Party/Huawei/iot_link/network/dtls/mbedtls/mbedtls_port\dtls_interface.c ****  *
  47:D:/fchai/work/i-cube/I-CUBE-HUAWEI/Middlewares/Third_Party/Huawei/iot_link/network/dtls/mbedtls/mbedtls_port\dtls_interface.c ****  *  Unless required by applicable law or agreed to in writing, software
  48:D:/fchai/work/i-cube/I-CUBE-HUAWEI/Middlewares/Third_Party/Huawei/iot_link/network/dtls/mbedtls/mbedtls_port\dtls_interface.c ****  *  distributed under the License is distributed on an "AS IS" BASIS, WITHOUT
  49:D:/fchai/work/i-cube/I-CUBE-HUAWEI/Middlewares/Third_Party/Huawei/iot_link/network/dtls/mbedtls/mbedtls_port\dtls_interface.c ****  *  WARRANTIES OR CONDITIONS OF ANY KIND, either express or implied.
  50:D:/fchai/work/i-cube/I-CUBE-HUAWEI/Middlewares/Third_Party/Huawei/iot_link/network/dtls/mbedtls/mbedtls_port\dtls_interface.c ****  *  See the License for the specific language governing permissions and
  51:D:/fchai/work/i-cube/I-CUBE-HUAWEI/Middlewares/Third_Party/Huawei/iot_link/network/dtls/mbedtls/mbedtls_port\dtls_interface.c ****  *  limitations under the License.
  52:D:/fchai/work/i-cube/I-CUBE-HUAWEI/Middlewares/Third_Party/Huawei/iot_link/network/dtls/mbedtls/mbedtls_port\dtls_interface.c ****  *
  53:D:/fchai/work/i-cube/I-CUBE-HUAWEI/Middlewares/Third_Party/Huawei/iot_link/network/dtls/mbedtls/mbedtls_port\dtls_interface.c ****  *  This file is part of mbed TLS (https://tls.mbed.org)
  54:D:/fchai/work/i-cube/I-CUBE-HUAWEI/Middlewares/Third_Party/Huawei/iot_link/network/dtls/mbedtls/mbedtls_port\dtls_interface.c ****  */
  55:D:/fchai/work/i-cube/I-CUBE-HUAWEI/Middlewares/Third_Party/Huawei/iot_link/network/dtls/mbedtls/mbedtls_port\dtls_interface.c **** 
  56:D:/fchai/work/i-cube/I-CUBE-HUAWEI/Middlewares/Third_Party/Huawei/iot_link/network/dtls/mbedtls/mbedtls_port\dtls_interface.c **** #include "dtls_interface.h"
  57:D:/fchai/work/i-cube/I-CUBE-HUAWEI/Middlewares/Third_Party/Huawei/iot_link/network/dtls/mbedtls/mbedtls_port\dtls_interface.c **** #include "mbedtls/net_sockets.h"
  58:D:/fchai/work/i-cube/I-CUBE-HUAWEI/Middlewares/Third_Party/Huawei/iot_link/network/dtls/mbedtls/mbedtls_port\dtls_interface.c **** #include "mbedtls/ssl_internal.h"
  59:D:/fchai/work/i-cube/I-CUBE-HUAWEI/Middlewares/Third_Party/Huawei/iot_link/network/dtls/mbedtls/mbedtls_port\dtls_interface.c **** #include <sal.h>
  60:D:/fchai/work/i-cube/I-CUBE-HUAWEI/Middlewares/Third_Party/Huawei/iot_link/network/dtls/mbedtls/mbedtls_port\dtls_interface.c **** #include <osal.h>
  61:D:/fchai/work/i-cube/I-CUBE-HUAWEI/Middlewares/Third_Party/Huawei/iot_link/network/dtls/mbedtls/mbedtls_port\dtls_interface.c **** 
  62:D:/fchai/work/i-cube/I-CUBE-HUAWEI/Middlewares/Third_Party/Huawei/iot_link/network/dtls/mbedtls/mbedtls_port\dtls_interface.c **** #define MBEDTLS_LOG LINK_LOG_DEBUG
  63:D:/fchai/work/i-cube/I-CUBE-HUAWEI/Middlewares/Third_Party/Huawei/iot_link/network/dtls/mbedtls/mbedtls_port\dtls_interface.c **** 
  64:D:/fchai/work/i-cube/I-CUBE-HUAWEI/Middlewares/Third_Party/Huawei/iot_link/network/dtls/mbedtls/mbedtls_port\dtls_interface.c **** mbedtls_ssl_context *dtls_ssl_new(dtls_establish_info_s *info, char plat_type)
  65:D:/fchai/work/i-cube/I-CUBE-HUAWEI/Middlewares/Third_Party/Huawei/iot_link/network/dtls/mbedtls/mbedtls_port\dtls_interface.c **** {
  53              		.loc 1 65 1 view -0
  54              		.cfi_startproc
  55              		@ args = 0, pretend = 0, frame = 16
  56              		@ frame_needed = 0, uses_anonymous_args = 0
  66:D:/fchai/work/i-cube/I-CUBE-HUAWEI/Middlewares/Third_Party/Huawei/iot_link/network/dtls/mbedtls/mbedtls_port\dtls_interface.c ****     int ret = -1;
  57              		.loc 1 66 5 view .LVU1
  67:D:/fchai/work/i-cube/I-CUBE-HUAWEI/Middlewares/Third_Party/Huawei/iot_link/network/dtls/mbedtls/mbedtls_port\dtls_interface.c ****     mbedtls_ssl_context *ssl = NULL;
  58              		.loc 1 67 5 view .LVU2
  68:D:/fchai/work/i-cube/I-CUBE-HUAWEI/Middlewares/Third_Party/Huawei/iot_link/network/dtls/mbedtls/mbedtls_port\dtls_interface.c ****     mbedtls_ssl_config *conf = NULL;
  59              		.loc 1 68 5 view .LVU3
  69:D:/fchai/work/i-cube/I-CUBE-HUAWEI/Middlewares/Third_Party/Huawei/iot_link/network/dtls/mbedtls/mbedtls_port\dtls_interface.c ****     mbedtls_entropy_context *entropy = NULL;
  60              		.loc 1 69 5 view .LVU4
  70:D:/fchai/work/i-cube/I-CUBE-HUAWEI/Middlewares/Third_Party/Huawei/iot_link/network/dtls/mbedtls/mbedtls_port\dtls_interface.c ****     mbedtls_ctr_drbg_context *ctr_drbg = NULL;
  61              		.loc 1 70 5 view .LVU5
  71:D:/fchai/work/i-cube/I-CUBE-HUAWEI/Middlewares/Third_Party/Huawei/iot_link/network/dtls/mbedtls/mbedtls_port\dtls_interface.c ****     mbedtls_timing_delay_context *timer = NULL;
  62              		.loc 1 71 5 view .LVU6
  72:D:/fchai/work/i-cube/I-CUBE-HUAWEI/Middlewares/Third_Party/Huawei/iot_link/network/dtls/mbedtls/mbedtls_port\dtls_interface.c **** #if defined(MBEDTLS_X509_CRT_PARSE_C)
  73:D:/fchai/work/i-cube/I-CUBE-HUAWEI/Middlewares/Third_Party/Huawei/iot_link/network/dtls/mbedtls/mbedtls_port\dtls_interface.c ****     mbedtls_x509_crt *cacert;
  63              		.loc 1 73 5 view .LVU7
  74:D:/fchai/work/i-cube/I-CUBE-HUAWEI/Middlewares/Third_Party/Huawei/iot_link/network/dtls/mbedtls/mbedtls_port\dtls_interface.c ****     mbedtls_x509_crt *client_ca = NULL;
  64              		.loc 1 74 5 view .LVU8
  75:D:/fchai/work/i-cube/I-CUBE-HUAWEI/Middlewares/Third_Party/Huawei/iot_link/network/dtls/mbedtls/mbedtls_port\dtls_interface.c ****     mbedtls_pk_context *client_pk = NULL;
  65              		.loc 1 75 5 view .LVU9
  76:D:/fchai/work/i-cube/I-CUBE-HUAWEI/Middlewares/Third_Party/Huawei/iot_link/network/dtls/mbedtls/mbedtls_port\dtls_interface.c **** #endif
  77:D:/fchai/work/i-cube/I-CUBE-HUAWEI/Middlewares/Third_Party/Huawei/iot_link/network/dtls/mbedtls/mbedtls_port\dtls_interface.c **** 
  78:D:/fchai/work/i-cube/I-CUBE-HUAWEI/Middlewares/Third_Party/Huawei/iot_link/network/dtls/mbedtls/mbedtls_port\dtls_interface.c ****     const char *pers = "ssl_client";
  66              		.loc 1 78 5 view .LVU10
  79:D:/fchai/work/i-cube/I-CUBE-HUAWEI/Middlewares/Third_Party/Huawei/iot_link/network/dtls/mbedtls/mbedtls_port\dtls_interface.c ****     int transport;
  67              		.loc 1 79 5 view .LVU11
  80:D:/fchai/work/i-cube/I-CUBE-HUAWEI/Middlewares/Third_Party/Huawei/iot_link/network/dtls/mbedtls/mbedtls_port\dtls_interface.c ****     ssl       = mbedtls_calloc(1, sizeof(mbedtls_ssl_context));
  68              		.loc 1 80 5 view .LVU12
  65:D:/fchai/work/i-cube/I-CUBE-HUAWEI/Middlewares/Third_Party/Huawei/iot_link/network/dtls/mbedtls/mbedtls_port\dtls_interface.c ****     int ret = -1;
  69              		.loc 1 65 1 is_stmt 0 view .LVU13
ARM GAS  T:\msys\tmp\ccnGkxTA.s 			page 4


  70 0000 2DE9F04F 		push	{r4, r5, r6, r7, r8, r9, r10, fp, lr}
  71              	.LCFI0:
  72              		.cfi_def_cfa_offset 36
  73              		.cfi_offset 4, -36
  74              		.cfi_offset 5, -32
  75              		.cfi_offset 6, -28
  76              		.cfi_offset 7, -24
  77              		.cfi_offset 8, -20
  78              		.cfi_offset 9, -16
  79              		.cfi_offset 10, -12
  80              		.cfi_offset 11, -8
  81              		.cfi_offset 14, -4
  82 0004 87B0     		sub	sp, sp, #28
  83              	.LCFI1:
  84              		.cfi_def_cfa_offset 64
  65:D:/fchai/work/i-cube/I-CUBE-HUAWEI/Middlewares/Third_Party/Huawei/iot_link/network/dtls/mbedtls/mbedtls_port\dtls_interface.c ****     int ret = -1;
  85              		.loc 1 65 1 view .LVU14
  86 0006 0B46     		mov	r3, r1
  87 0008 8146     		mov	r9, r0
  88              		.loc 1 80 17 view .LVU15
  89 000a E021     		movs	r1, #224
  90              	.LVL1:
  91              		.loc 1 80 17 view .LVU16
  92 000c 0120     		movs	r0, #1
  93              	.LVL2:
  65:D:/fchai/work/i-cube/I-CUBE-HUAWEI/Middlewares/Third_Party/Huawei/iot_link/network/dtls/mbedtls/mbedtls_port\dtls_interface.c ****     int ret = -1;
  94              		.loc 1 65 1 view .LVU17
  95 000e 0293     		str	r3, [sp, #8]
  96              		.loc 1 80 17 view .LVU18
  97 0010 FFF7FEFF 		bl	mbedtls_calloc
  98              	.LVL3:
  81:D:/fchai/work/i-cube/I-CUBE-HUAWEI/Middlewares/Third_Party/Huawei/iot_link/network/dtls/mbedtls/mbedtls_port\dtls_interface.c ****     conf      = mbedtls_calloc(1, sizeof(mbedtls_ssl_config));
  99              		.loc 1 81 17 view .LVU19
 100 0014 6C21     		movs	r1, #108
  80:D:/fchai/work/i-cube/I-CUBE-HUAWEI/Middlewares/Third_Party/Huawei/iot_link/network/dtls/mbedtls/mbedtls_port\dtls_interface.c ****     ssl       = mbedtls_calloc(1, sizeof(mbedtls_ssl_context));
 101              		.loc 1 80 17 view .LVU20
 102 0016 0546     		mov	r5, r0
 103              		.loc 1 81 17 view .LVU21
 104 0018 0120     		movs	r0, #1
 105              	.LVL4:
 106              		.loc 1 81 5 is_stmt 1 view .LVU22
 107              		.loc 1 81 17 is_stmt 0 view .LVU23
 108 001a FFF7FEFF 		bl	mbedtls_calloc
 109              	.LVL5:
  82:D:/fchai/work/i-cube/I-CUBE-HUAWEI/Middlewares/Third_Party/Huawei/iot_link/network/dtls/mbedtls/mbedtls_port\dtls_interface.c ****     entropy   = mbedtls_calloc(1, sizeof(mbedtls_entropy_context));
 110              		.loc 1 82 17 view .LVU24
 111 001e 8821     		movs	r1, #136
  81:D:/fchai/work/i-cube/I-CUBE-HUAWEI/Middlewares/Third_Party/Huawei/iot_link/network/dtls/mbedtls/mbedtls_port\dtls_interface.c ****     conf      = mbedtls_calloc(1, sizeof(mbedtls_ssl_config));
 112              		.loc 1 81 17 view .LVU25
 113 0020 0446     		mov	r4, r0
 114              		.loc 1 82 17 view .LVU26
 115 0022 0120     		movs	r0, #1
 116              	.LVL6:
 117              		.loc 1 82 5 is_stmt 1 view .LVU27
 118              		.loc 1 82 17 is_stmt 0 view .LVU28
 119 0024 FFF7FEFF 		bl	mbedtls_calloc
 120              	.LVL7:
ARM GAS  T:\msys\tmp\ccnGkxTA.s 			page 5


  83:D:/fchai/work/i-cube/I-CUBE-HUAWEI/Middlewares/Third_Party/Huawei/iot_link/network/dtls/mbedtls/mbedtls_port\dtls_interface.c ****     ctr_drbg  = mbedtls_calloc(1, sizeof(mbedtls_ctr_drbg_context));
 121              		.loc 1 83 17 view .LVU29
 122 0028 4FF4A071 		mov	r1, #320
  82:D:/fchai/work/i-cube/I-CUBE-HUAWEI/Middlewares/Third_Party/Huawei/iot_link/network/dtls/mbedtls/mbedtls_port\dtls_interface.c ****     entropy   = mbedtls_calloc(1, sizeof(mbedtls_entropy_context));
 123              		.loc 1 82 17 view .LVU30
 124 002c 0646     		mov	r6, r0
 125              		.loc 1 83 17 view .LVU31
 126 002e 0120     		movs	r0, #1
 127              	.LVL8:
 128              		.loc 1 83 5 is_stmt 1 view .LVU32
 129              		.loc 1 83 17 is_stmt 0 view .LVU33
 130 0030 FFF7FEFF 		bl	mbedtls_calloc
 131              	.LVL9:
  84:D:/fchai/work/i-cube/I-CUBE-HUAWEI/Middlewares/Third_Party/Huawei/iot_link/network/dtls/mbedtls/mbedtls_port\dtls_interface.c **** #if defined(MBEDTLS_X509_CRT_PARSE_C)
  85:D:/fchai/work/i-cube/I-CUBE-HUAWEI/Middlewares/Third_Party/Huawei/iot_link/network/dtls/mbedtls/mbedtls_port\dtls_interface.c ****     cacert    = mbedtls_calloc(1, sizeof(mbedtls_x509_crt));
 132              		.loc 1 85 17 view .LVU34
 133 0034 4FF49A71 		mov	r1, #308
  83:D:/fchai/work/i-cube/I-CUBE-HUAWEI/Middlewares/Third_Party/Huawei/iot_link/network/dtls/mbedtls/mbedtls_port\dtls_interface.c ****     ctr_drbg  = mbedtls_calloc(1, sizeof(mbedtls_ctr_drbg_context));
 134              		.loc 1 83 17 view .LVU35
 135 0038 0746     		mov	r7, r0
 136              		.loc 1 85 17 view .LVU36
 137 003a 0120     		movs	r0, #1
 138              	.LVL10:
 139              		.loc 1 85 5 is_stmt 1 view .LVU37
 140              		.loc 1 85 17 is_stmt 0 view .LVU38
 141 003c FFF7FEFF 		bl	mbedtls_calloc
 142              	.LVL11:
 143 0040 8046     		mov	r8, r0
 144              	.LVL12:
  86:D:/fchai/work/i-cube/I-CUBE-HUAWEI/Middlewares/Third_Party/Huawei/iot_link/network/dtls/mbedtls/mbedtls_port\dtls_interface.c **** #endif
  87:D:/fchai/work/i-cube/I-CUBE-HUAWEI/Middlewares/Third_Party/Huawei/iot_link/network/dtls/mbedtls/mbedtls_port\dtls_interface.c **** 
  88:D:/fchai/work/i-cube/I-CUBE-HUAWEI/Middlewares/Third_Party/Huawei/iot_link/network/dtls/mbedtls/mbedtls_port\dtls_interface.c ****     if (NULL == info || NULL == ssl
 145              		.loc 1 88 5 is_stmt 1 view .LVU39
 146              		.loc 1 88 8 is_stmt 0 view .LVU40
 147 0042 B9F1000F 		cmp	r9, #0
 148 0046 00F09680 		beq	.L2
 149              		.loc 1 88 22 discriminator 1 view .LVU41
 150 004a 002D     		cmp	r5, #0
 151 004c 00F09380 		beq	.L2
  89:D:/fchai/work/i-cube/I-CUBE-HUAWEI/Middlewares/Third_Party/Huawei/iot_link/network/dtls/mbedtls/mbedtls_port\dtls_interface.c ****         || NULL == conf || NULL == entropy
 152              		.loc 1 89 9 view .LVU42
 153 0050 002C     		cmp	r4, #0
 154 0052 00F09280 		beq	.L32
 155              		.loc 1 89 25 discriminator 1 view .LVU43
 156 0056 002E     		cmp	r6, #0
 157 0058 00F0CC80 		beq	.L25
  90:D:/fchai/work/i-cube/I-CUBE-HUAWEI/Middlewares/Third_Party/Huawei/iot_link/network/dtls/mbedtls/mbedtls_port\dtls_interface.c ****         || NULL == ctr_drbg
 158              		.loc 1 90 9 view .LVU44
 159 005c 002F     		cmp	r7, #0
 160 005e 00F0D480 		beq	.L26
  91:D:/fchai/work/i-cube/I-CUBE-HUAWEI/Middlewares/Third_Party/Huawei/iot_link/network/dtls/mbedtls/mbedtls_port\dtls_interface.c **** #if defined(MBEDTLS_X509_CRT_PARSE_C)
  92:D:/fchai/work/i-cube/I-CUBE-HUAWEI/Middlewares/Third_Party/Huawei/iot_link/network/dtls/mbedtls/mbedtls_port\dtls_interface.c ****         || NULL == cacert
 161              		.loc 1 92 9 view .LVU45
 162 0062 0028     		cmp	r0, #0
 163 0064 00F0F880 		beq	.L27
  93:D:/fchai/work/i-cube/I-CUBE-HUAWEI/Middlewares/Third_Party/Huawei/iot_link/network/dtls/mbedtls/mbedtls_port\dtls_interface.c **** #endif
  94:D:/fchai/work/i-cube/I-CUBE-HUAWEI/Middlewares/Third_Party/Huawei/iot_link/network/dtls/mbedtls/mbedtls_port\dtls_interface.c ****         )
ARM GAS  T:\msys\tmp\ccnGkxTA.s 			page 6


  95:D:/fchai/work/i-cube/I-CUBE-HUAWEI/Middlewares/Third_Party/Huawei/iot_link/network/dtls/mbedtls/mbedtls_port\dtls_interface.c ****     {
  96:D:/fchai/work/i-cube/I-CUBE-HUAWEI/Middlewares/Third_Party/Huawei/iot_link/network/dtls/mbedtls/mbedtls_port\dtls_interface.c ****         goto exit_fail;
  97:D:/fchai/work/i-cube/I-CUBE-HUAWEI/Middlewares/Third_Party/Huawei/iot_link/network/dtls/mbedtls/mbedtls_port\dtls_interface.c ****     }
  98:D:/fchai/work/i-cube/I-CUBE-HUAWEI/Middlewares/Third_Party/Huawei/iot_link/network/dtls/mbedtls/mbedtls_port\dtls_interface.c **** 
  99:D:/fchai/work/i-cube/I-CUBE-HUAWEI/Middlewares/Third_Party/Huawei/iot_link/network/dtls/mbedtls/mbedtls_port\dtls_interface.c **** #if defined(MBEDTLS_X509_CRT_PARSE_C)
 100:D:/fchai/work/i-cube/I-CUBE-HUAWEI/Middlewares/Third_Party/Huawei/iot_link/network/dtls/mbedtls/mbedtls_port\dtls_interface.c ****     if(NULL != info->v.c.client_ca) /// we'd better to make the client ca and key
 164              		.loc 1 100 5 is_stmt 1 view .LVU46
 165              		.loc 1 100 25 is_stmt 0 view .LVU47
 166 0068 D9F808A0 		ldr	r10, [r9, #8]
 167              		.loc 1 100 7 view .LVU48
 168 006c BAF1000F 		cmp	r10, #0
 169 0070 00F0BE80 		beq	.L28
 101:D:/fchai/work/i-cube/I-CUBE-HUAWEI/Middlewares/Third_Party/Huawei/iot_link/network/dtls/mbedtls/mbedtls_port\dtls_interface.c ****     {
 102:D:/fchai/work/i-cube/I-CUBE-HUAWEI/Middlewares/Third_Party/Huawei/iot_link/network/dtls/mbedtls/mbedtls_port\dtls_interface.c ****         client_ca    = mbedtls_calloc(1, sizeof(mbedtls_x509_crt));
 170              		.loc 1 102 9 is_stmt 1 view .LVU49
 171              		.loc 1 102 24 is_stmt 0 view .LVU50
 172 0074 4FF49A71 		mov	r1, #308
 173 0078 0120     		movs	r0, #1
 174              	.LVL13:
 175              		.loc 1 102 24 view .LVU51
 176 007a FFF7FEFF 		bl	mbedtls_calloc
 177              	.LVL14:
 103:D:/fchai/work/i-cube/I-CUBE-HUAWEI/Middlewares/Third_Party/Huawei/iot_link/network/dtls/mbedtls/mbedtls_port\dtls_interface.c ****         client_pk    = mbedtls_calloc(1, sizeof(mbedtls_pk_context));
 178              		.loc 1 103 24 view .LVU52
 179 007e 0821     		movs	r1, #8
 102:D:/fchai/work/i-cube/I-CUBE-HUAWEI/Middlewares/Third_Party/Huawei/iot_link/network/dtls/mbedtls/mbedtls_port\dtls_interface.c ****         client_pk    = mbedtls_calloc(1, sizeof(mbedtls_pk_context));
 180              		.loc 1 102 24 view .LVU53
 181 0080 8246     		mov	r10, r0
 182              		.loc 1 103 24 view .LVU54
 183 0082 0120     		movs	r0, #1
 184              	.LVL15:
 185              		.loc 1 103 9 is_stmt 1 view .LVU55
 186              		.loc 1 103 24 is_stmt 0 view .LVU56
 187 0084 FFF7FEFF 		bl	mbedtls_calloc
 188              	.LVL16:
 189 0088 8346     		mov	fp, r0
 190              	.LVL17:
 104:D:/fchai/work/i-cube/I-CUBE-HUAWEI/Middlewares/Third_Party/Huawei/iot_link/network/dtls/mbedtls/mbedtls_port\dtls_interface.c ****         if((NULL == client_ca) || (NULL == client_pk))
 191              		.loc 1 104 9 is_stmt 1 view .LVU57
 192              		.loc 1 104 11 is_stmt 0 view .LVU58
 193 008a BAF1000F 		cmp	r10, #0
 194 008e 00F03F81 		beq	.L29
 195              		.loc 1 104 32 discriminator 1 view .LVU59
 196 0092 0028     		cmp	r0, #0
 197 0094 00F02781 		beq	.L30
 105:D:/fchai/work/i-cube/I-CUBE-HUAWEI/Middlewares/Third_Party/Huawei/iot_link/network/dtls/mbedtls/mbedtls_port\dtls_interface.c ****         {
 106:D:/fchai/work/i-cube/I-CUBE-HUAWEI/Middlewares/Third_Party/Huawei/iot_link/network/dtls/mbedtls/mbedtls_port\dtls_interface.c ****             goto exit_fail;
 107:D:/fchai/work/i-cube/I-CUBE-HUAWEI/Middlewares/Third_Party/Huawei/iot_link/network/dtls/mbedtls/mbedtls_port\dtls_interface.c ****         }
 108:D:/fchai/work/i-cube/I-CUBE-HUAWEI/Middlewares/Third_Party/Huawei/iot_link/network/dtls/mbedtls/mbedtls_port\dtls_interface.c ****         mbedtls_x509_crt_init(client_ca);
 198              		.loc 1 108 9 is_stmt 1 view .LVU60
 199 0098 5046     		mov	r0, r10
 200              	.LVL18:
 201              		.loc 1 108 9 is_stmt 0 view .LVU61
 202 009a FFF7FEFF 		bl	mbedtls_x509_crt_init
 203              	.LVL19:
 109:D:/fchai/work/i-cube/I-CUBE-HUAWEI/Middlewares/Third_Party/Huawei/iot_link/network/dtls/mbedtls/mbedtls_port\dtls_interface.c ****         mbedtls_pk_init(client_pk);
 204              		.loc 1 109 9 is_stmt 1 view .LVU62
ARM GAS  T:\msys\tmp\ccnGkxTA.s 			page 7


 205 009e 5846     		mov	r0, fp
 206 00a0 FFF7FEFF 		bl	mbedtls_pk_init
 207              	.LVL20:
 208              	.L5:
 110:D:/fchai/work/i-cube/I-CUBE-HUAWEI/Middlewares/Third_Party/Huawei/iot_link/network/dtls/mbedtls/mbedtls_port\dtls_interface.c ****     }
 111:D:/fchai/work/i-cube/I-CUBE-HUAWEI/Middlewares/Third_Party/Huawei/iot_link/network/dtls/mbedtls/mbedtls_port\dtls_interface.c **** #endif
 112:D:/fchai/work/i-cube/I-CUBE-HUAWEI/Middlewares/Third_Party/Huawei/iot_link/network/dtls/mbedtls/mbedtls_port\dtls_interface.c **** 
 113:D:/fchai/work/i-cube/I-CUBE-HUAWEI/Middlewares/Third_Party/Huawei/iot_link/network/dtls/mbedtls/mbedtls_port\dtls_interface.c ****     if (info->udp_or_tcp == MBEDTLS_NET_PROTO_UDP)
 209              		.loc 1 113 5 view .LVU63
 210              		.loc 1 113 13 is_stmt 0 view .LVU64
 211 00a4 D9F82430 		ldr	r3, [r9, #36]
 212 00a8 0493     		str	r3, [sp, #16]
 213              		.loc 1 113 8 view .LVU65
 214 00aa 012B     		cmp	r3, #1
 215 00ac 00F0B180 		beq	.L70
 114:D:/fchai/work/i-cube/I-CUBE-HUAWEI/Middlewares/Third_Party/Huawei/iot_link/network/dtls/mbedtls/mbedtls_port\dtls_interface.c ****     {
 115:D:/fchai/work/i-cube/I-CUBE-HUAWEI/Middlewares/Third_Party/Huawei/iot_link/network/dtls/mbedtls/mbedtls_port\dtls_interface.c ****         transport = MBEDTLS_SSL_TRANSPORT_DATAGRAM;
 116:D:/fchai/work/i-cube/I-CUBE-HUAWEI/Middlewares/Third_Party/Huawei/iot_link/network/dtls/mbedtls/mbedtls_port\dtls_interface.c ****         timer = mbedtls_calloc(1, sizeof(mbedtls_timing_delay_context));
 117:D:/fchai/work/i-cube/I-CUBE-HUAWEI/Middlewares/Third_Party/Huawei/iot_link/network/dtls/mbedtls/mbedtls_port\dtls_interface.c ****         if (NULL == timer)
 118:D:/fchai/work/i-cube/I-CUBE-HUAWEI/Middlewares/Third_Party/Huawei/iot_link/network/dtls/mbedtls/mbedtls_port\dtls_interface.c ****             goto exit_fail;
 119:D:/fchai/work/i-cube/I-CUBE-HUAWEI/Middlewares/Third_Party/Huawei/iot_link/network/dtls/mbedtls/mbedtls_port\dtls_interface.c ****     }
 120:D:/fchai/work/i-cube/I-CUBE-HUAWEI/Middlewares/Third_Party/Huawei/iot_link/network/dtls/mbedtls/mbedtls_port\dtls_interface.c ****     else
 121:D:/fchai/work/i-cube/I-CUBE-HUAWEI/Middlewares/Third_Party/Huawei/iot_link/network/dtls/mbedtls/mbedtls_port\dtls_interface.c ****     {
 122:D:/fchai/work/i-cube/I-CUBE-HUAWEI/Middlewares/Third_Party/Huawei/iot_link/network/dtls/mbedtls/mbedtls_port\dtls_interface.c ****         transport = MBEDTLS_SSL_TRANSPORT_STREAM;
 216              		.loc 1 122 19 view .LVU66
 217 00b0 0023     		movs	r3, #0
  71:D:/fchai/work/i-cube/I-CUBE-HUAWEI/Middlewares/Third_Party/Huawei/iot_link/network/dtls/mbedtls/mbedtls_port\dtls_interface.c **** #if defined(MBEDTLS_X509_CRT_PARSE_C)
 218              		.loc 1 71 35 view .LVU67
 219 00b2 CDE90333 		strd	r3, r3, [sp, #12]
 220              	.LVL21:
 221              	.L6:
 123:D:/fchai/work/i-cube/I-CUBE-HUAWEI/Middlewares/Third_Party/Huawei/iot_link/network/dtls/mbedtls/mbedtls_port\dtls_interface.c ****     }
 124:D:/fchai/work/i-cube/I-CUBE-HUAWEI/Middlewares/Third_Party/Huawei/iot_link/network/dtls/mbedtls/mbedtls_port\dtls_interface.c **** 
 125:D:/fchai/work/i-cube/I-CUBE-HUAWEI/Middlewares/Third_Party/Huawei/iot_link/network/dtls/mbedtls/mbedtls_port\dtls_interface.c ****     mbedtls_ssl_init(ssl);
 222              		.loc 1 125 5 is_stmt 1 view .LVU68
 223 00b6 2846     		mov	r0, r5
 224 00b8 FFF7FEFF 		bl	mbedtls_ssl_init
 225              	.LVL22:
 126:D:/fchai/work/i-cube/I-CUBE-HUAWEI/Middlewares/Third_Party/Huawei/iot_link/network/dtls/mbedtls/mbedtls_port\dtls_interface.c ****     mbedtls_ssl_config_init(conf);
 226              		.loc 1 126 5 view .LVU69
 227 00bc 2046     		mov	r0, r4
 228 00be FFF7FEFF 		bl	mbedtls_ssl_config_init
 229              	.LVL23:
 127:D:/fchai/work/i-cube/I-CUBE-HUAWEI/Middlewares/Third_Party/Huawei/iot_link/network/dtls/mbedtls/mbedtls_port\dtls_interface.c ****     mbedtls_ctr_drbg_init(ctr_drbg);
 230              		.loc 1 127 5 view .LVU70
 231 00c2 3846     		mov	r0, r7
 232 00c4 FFF7FEFF 		bl	mbedtls_ctr_drbg_init
 233              	.LVL24:
 128:D:/fchai/work/i-cube/I-CUBE-HUAWEI/Middlewares/Third_Party/Huawei/iot_link/network/dtls/mbedtls/mbedtls_port\dtls_interface.c ****     mbedtls_entropy_init(entropy);
 234              		.loc 1 128 5 view .LVU71
 235 00c8 3046     		mov	r0, r6
 236 00ca FFF7FEFF 		bl	mbedtls_entropy_init
 237              	.LVL25:
 129:D:/fchai/work/i-cube/I-CUBE-HUAWEI/Middlewares/Third_Party/Huawei/iot_link/network/dtls/mbedtls/mbedtls_port\dtls_interface.c **** 
 130:D:/fchai/work/i-cube/I-CUBE-HUAWEI/Middlewares/Third_Party/Huawei/iot_link/network/dtls/mbedtls/mbedtls_port\dtls_interface.c **** #if defined(MBEDTLS_X509_CRT_PARSE_C)
 131:D:/fchai/work/i-cube/I-CUBE-HUAWEI/Middlewares/Third_Party/Huawei/iot_link/network/dtls/mbedtls/mbedtls_port\dtls_interface.c ****     if (info->psk_or_cert == VERIFY_WITH_CERT)
 238              		.loc 1 131 5 view .LVU72
ARM GAS  T:\msys\tmp\ccnGkxTA.s 			page 8


 239              		.loc 1 131 8 is_stmt 0 view .LVU73
 240 00ce 99F82030 		ldrb	r3, [r9, #32]	@ zero_extendqisi2
 241 00d2 012B     		cmp	r3, #1
 242 00d4 00F00381 		beq	.L71
 243              	.L7:
 132:D:/fchai/work/i-cube/I-CUBE-HUAWEI/Middlewares/Third_Party/Huawei/iot_link/network/dtls/mbedtls/mbedtls_port\dtls_interface.c ****     {
 133:D:/fchai/work/i-cube/I-CUBE-HUAWEI/Middlewares/Third_Party/Huawei/iot_link/network/dtls/mbedtls/mbedtls_port\dtls_interface.c ****         mbedtls_x509_crt_init(cacert);
 134:D:/fchai/work/i-cube/I-CUBE-HUAWEI/Middlewares/Third_Party/Huawei/iot_link/network/dtls/mbedtls/mbedtls_port\dtls_interface.c ****     }
 135:D:/fchai/work/i-cube/I-CUBE-HUAWEI/Middlewares/Third_Party/Huawei/iot_link/network/dtls/mbedtls/mbedtls_port\dtls_interface.c **** #endif
 136:D:/fchai/work/i-cube/I-CUBE-HUAWEI/Middlewares/Third_Party/Huawei/iot_link/network/dtls/mbedtls/mbedtls_port\dtls_interface.c **** 
 137:D:/fchai/work/i-cube/I-CUBE-HUAWEI/Middlewares/Third_Party/Huawei/iot_link/network/dtls/mbedtls/mbedtls_port\dtls_interface.c ****     if ((ret = mbedtls_ctr_drbg_seed(ctr_drbg, mbedtls_entropy_func, entropy,
 244              		.loc 1 137 5 is_stmt 1 view .LVU74
 245              		.loc 1 137 16 is_stmt 0 view .LVU75
 246 00d8 0A23     		movs	r3, #10
 247 00da 0093     		str	r3, [sp]
 248 00dc A649     		ldr	r1, .L79
 249 00de A74B     		ldr	r3, .L79+4
 250 00e0 3246     		mov	r2, r6
 251 00e2 3846     		mov	r0, r7
 252 00e4 FFF7FEFF 		bl	mbedtls_ctr_drbg_seed
 253              	.LVL26:
 254              		.loc 1 137 8 view .LVU76
 255 00e8 0028     		cmp	r0, #0
 256 00ea 40F09B80 		bne	.L72
 138:D:/fchai/work/i-cube/I-CUBE-HUAWEI/Middlewares/Third_Party/Huawei/iot_link/network/dtls/mbedtls/mbedtls_port\dtls_interface.c ****                                      (const unsigned char *) pers,
 139:D:/fchai/work/i-cube/I-CUBE-HUAWEI/Middlewares/Third_Party/Huawei/iot_link/network/dtls/mbedtls/mbedtls_port\dtls_interface.c ****                                      strlen(pers))) != 0)
 140:D:/fchai/work/i-cube/I-CUBE-HUAWEI/Middlewares/Third_Party/Huawei/iot_link/network/dtls/mbedtls/mbedtls_port\dtls_interface.c ****     {
 141:D:/fchai/work/i-cube/I-CUBE-HUAWEI/Middlewares/Third_Party/Huawei/iot_link/network/dtls/mbedtls/mbedtls_port\dtls_interface.c ****         MBEDTLS_LOG("mbedtls_ctr_drbg_seed failed: -0x%x", -ret);
 142:D:/fchai/work/i-cube/I-CUBE-HUAWEI/Middlewares/Third_Party/Huawei/iot_link/network/dtls/mbedtls/mbedtls_port\dtls_interface.c ****         goto exit_fail;
 143:D:/fchai/work/i-cube/I-CUBE-HUAWEI/Middlewares/Third_Party/Huawei/iot_link/network/dtls/mbedtls/mbedtls_port\dtls_interface.c ****     }
 144:D:/fchai/work/i-cube/I-CUBE-HUAWEI/Middlewares/Third_Party/Huawei/iot_link/network/dtls/mbedtls/mbedtls_port\dtls_interface.c **** 
 145:D:/fchai/work/i-cube/I-CUBE-HUAWEI/Middlewares/Third_Party/Huawei/iot_link/network/dtls/mbedtls/mbedtls_port\dtls_interface.c ****     MBEDTLS_LOG("setting up the SSL structure");
 257              		.loc 1 145 5 is_stmt 1 view .LVU77
 258              		.loc 1 145 5 view .LVU78
 259 00ee FFF7FEFF 		bl	link_log_level_get
 260              	.LVL27:
 261              		.loc 1 145 5 is_stmt 0 view .LVU79
 262 00f2 0128     		cmp	r0, #1
 263 00f4 40F2F980 		bls	.L73
 264              	.L9:
 265              		.loc 1 145 5 is_stmt 1 discriminator 3 view .LVU80
 266              		.loc 1 145 5 discriminator 3 view .LVU81
 267              		.loc 1 145 5 discriminator 3 view .LVU82
 146:D:/fchai/work/i-cube/I-CUBE-HUAWEI/Middlewares/Third_Party/Huawei/iot_link/network/dtls/mbedtls/mbedtls_port\dtls_interface.c **** 
 147:D:/fchai/work/i-cube/I-CUBE-HUAWEI/Middlewares/Third_Party/Huawei/iot_link/network/dtls/mbedtls/mbedtls_port\dtls_interface.c ****     (void) mbedtls_ssl_config_defaults(conf,plat_type,transport,MBEDTLS_SSL_PRESET_DEFAULT);
 268              		.loc 1 147 5 discriminator 3 view .LVU83
 269              		.loc 1 147 12 is_stmt 0 discriminator 3 view .LVU84
 270 00f8 0023     		movs	r3, #0
 271 00fa 049A     		ldr	r2, [sp, #16]
 272 00fc 0299     		ldr	r1, [sp, #8]
 273 00fe 2046     		mov	r0, r4
 274 0100 FFF7FEFF 		bl	mbedtls_ssl_config_defaults
 275              	.LVL28:
 148:D:/fchai/work/i-cube/I-CUBE-HUAWEI/Middlewares/Third_Party/Huawei/iot_link/network/dtls/mbedtls/mbedtls_port\dtls_interface.c **** 
 149:D:/fchai/work/i-cube/I-CUBE-HUAWEI/Middlewares/Third_Party/Huawei/iot_link/network/dtls/mbedtls/mbedtls_port\dtls_interface.c ****     mbedtls_ssl_conf_authmode(conf, MBEDTLS_SSL_VERIFY_REQUIRED);
 276              		.loc 1 149 5 is_stmt 1 discriminator 3 view .LVU85
 277 0104 0221     		movs	r1, #2
ARM GAS  T:\msys\tmp\ccnGkxTA.s 			page 9


 278 0106 2046     		mov	r0, r4
 279 0108 FFF7FEFF 		bl	mbedtls_ssl_conf_authmode
 280              	.LVL29:
 150:D:/fchai/work/i-cube/I-CUBE-HUAWEI/Middlewares/Third_Party/Huawei/iot_link/network/dtls/mbedtls/mbedtls_port\dtls_interface.c ****     mbedtls_ssl_conf_rng(conf, mbedtls_ctr_drbg_random, ctr_drbg);
 281              		.loc 1 150 5 discriminator 3 view .LVU86
 282 010c 9C49     		ldr	r1, .L79+8
 283 010e 3A46     		mov	r2, r7
 284 0110 2046     		mov	r0, r4
 285 0112 FFF7FEFF 		bl	mbedtls_ssl_conf_rng
 286              	.LVL30:
 151:D:/fchai/work/i-cube/I-CUBE-HUAWEI/Middlewares/Third_Party/Huawei/iot_link/network/dtls/mbedtls/mbedtls_port\dtls_interface.c **** 
 152:D:/fchai/work/i-cube/I-CUBE-HUAWEI/Middlewares/Third_Party/Huawei/iot_link/network/dtls/mbedtls/mbedtls_port\dtls_interface.c ****     if (info->udp_or_tcp == MBEDTLS_NET_PROTO_TCP)
 287              		.loc 1 152 5 discriminator 3 view .LVU87
 288              		.loc 1 152 8 is_stmt 0 discriminator 3 view .LVU88
 289 0116 D9F82430 		ldr	r3, [r9, #36]
 290 011a 002B     		cmp	r3, #0
 291 011c 00F0D980 		beq	.L74
 292              	.L10:
 153:D:/fchai/work/i-cube/I-CUBE-HUAWEI/Middlewares/Third_Party/Huawei/iot_link/network/dtls/mbedtls/mbedtls_port\dtls_interface.c ****     {
 154:D:/fchai/work/i-cube/I-CUBE-HUAWEI/Middlewares/Third_Party/Huawei/iot_link/network/dtls/mbedtls/mbedtls_port\dtls_interface.c ****         mbedtls_ssl_conf_read_timeout(conf, TLS_SHAKEHAND_TIMEOUT);
 155:D:/fchai/work/i-cube/I-CUBE-HUAWEI/Middlewares/Third_Party/Huawei/iot_link/network/dtls/mbedtls/mbedtls_port\dtls_interface.c ****     }
 156:D:/fchai/work/i-cube/I-CUBE-HUAWEI/Middlewares/Third_Party/Huawei/iot_link/network/dtls/mbedtls/mbedtls_port\dtls_interface.c **** 
 157:D:/fchai/work/i-cube/I-CUBE-HUAWEI/Middlewares/Third_Party/Huawei/iot_link/network/dtls/mbedtls/mbedtls_port\dtls_interface.c **** #if defined(MBEDTLS_KEY_EXCHANGE__SOME__PSK_ENABLED)
 158:D:/fchai/work/i-cube/I-CUBE-HUAWEI/Middlewares/Third_Party/Huawei/iot_link/network/dtls/mbedtls/mbedtls_port\dtls_interface.c ****     if (info->psk_or_cert == VERIFY_WITH_PSK)
 159:D:/fchai/work/i-cube/I-CUBE-HUAWEI/Middlewares/Third_Party/Huawei/iot_link/network/dtls/mbedtls/mbedtls_port\dtls_interface.c ****     {
 160:D:/fchai/work/i-cube/I-CUBE-HUAWEI/Middlewares/Third_Party/Huawei/iot_link/network/dtls/mbedtls/mbedtls_port\dtls_interface.c ****         if ((ret = mbedtls_ssl_conf_psk(conf,
 161:D:/fchai/work/i-cube/I-CUBE-HUAWEI/Middlewares/Third_Party/Huawei/iot_link/network/dtls/mbedtls/mbedtls_port\dtls_interface.c ****                                         info->v.p.psk,
 162:D:/fchai/work/i-cube/I-CUBE-HUAWEI/Middlewares/Third_Party/Huawei/iot_link/network/dtls/mbedtls/mbedtls_port\dtls_interface.c ****                                         info->v.p.psk_len,
 163:D:/fchai/work/i-cube/I-CUBE-HUAWEI/Middlewares/Third_Party/Huawei/iot_link/network/dtls/mbedtls/mbedtls_port\dtls_interface.c ****                                         info->v.p.psk_identity,
 164:D:/fchai/work/i-cube/I-CUBE-HUAWEI/Middlewares/Third_Party/Huawei/iot_link/network/dtls/mbedtls/mbedtls_port\dtls_interface.c ****                                         strlen((const char *)info->v.p.psk_identity))) != 0)
 165:D:/fchai/work/i-cube/I-CUBE-HUAWEI/Middlewares/Third_Party/Huawei/iot_link/network/dtls/mbedtls/mbedtls_port\dtls_interface.c ****         {
 166:D:/fchai/work/i-cube/I-CUBE-HUAWEI/Middlewares/Third_Party/Huawei/iot_link/network/dtls/mbedtls/mbedtls_port\dtls_interface.c ****             MBEDTLS_LOG("mbedtls_ssl_conf_psk failed: -0x%x", -ret);
 167:D:/fchai/work/i-cube/I-CUBE-HUAWEI/Middlewares/Third_Party/Huawei/iot_link/network/dtls/mbedtls/mbedtls_port\dtls_interface.c ****             goto exit_fail;
 168:D:/fchai/work/i-cube/I-CUBE-HUAWEI/Middlewares/Third_Party/Huawei/iot_link/network/dtls/mbedtls/mbedtls_port\dtls_interface.c ****         }
 169:D:/fchai/work/i-cube/I-CUBE-HUAWEI/Middlewares/Third_Party/Huawei/iot_link/network/dtls/mbedtls/mbedtls_port\dtls_interface.c ****     }
 170:D:/fchai/work/i-cube/I-CUBE-HUAWEI/Middlewares/Third_Party/Huawei/iot_link/network/dtls/mbedtls/mbedtls_port\dtls_interface.c **** #endif
 171:D:/fchai/work/i-cube/I-CUBE-HUAWEI/Middlewares/Third_Party/Huawei/iot_link/network/dtls/mbedtls/mbedtls_port\dtls_interface.c **** 
 172:D:/fchai/work/i-cube/I-CUBE-HUAWEI/Middlewares/Third_Party/Huawei/iot_link/network/dtls/mbedtls/mbedtls_port\dtls_interface.c **** #if defined(MBEDTLS_X509_CRT_PARSE_C)
 173:D:/fchai/work/i-cube/I-CUBE-HUAWEI/Middlewares/Third_Party/Huawei/iot_link/network/dtls/mbedtls/mbedtls_port\dtls_interface.c ****     if (info->psk_or_cert == VERIFY_WITH_CERT)
 293              		.loc 1 173 5 is_stmt 1 view .LVU89
 294              		.loc 1 173 8 is_stmt 0 view .LVU90
 295 0120 99F82030 		ldrb	r3, [r9, #32]	@ zero_extendqisi2
 296 0124 012B     		cmp	r3, #1
 297 0126 00F0A180 		beq	.L11
 298              	.L15:
 174:D:/fchai/work/i-cube/I-CUBE-HUAWEI/Middlewares/Third_Party/Huawei/iot_link/network/dtls/mbedtls/mbedtls_port\dtls_interface.c ****     {
 175:D:/fchai/work/i-cube/I-CUBE-HUAWEI/Middlewares/Third_Party/Huawei/iot_link/network/dtls/mbedtls/mbedtls_port\dtls_interface.c ****         ret = mbedtls_x509_crt_parse(cacert, info->v.c.ca_cert, info->v.c.cert_len);
 176:D:/fchai/work/i-cube/I-CUBE-HUAWEI/Middlewares/Third_Party/Huawei/iot_link/network/dtls/mbedtls/mbedtls_port\dtls_interface.c ****         if(ret < 0)
 177:D:/fchai/work/i-cube/I-CUBE-HUAWEI/Middlewares/Third_Party/Huawei/iot_link/network/dtls/mbedtls/mbedtls_port\dtls_interface.c ****         {
 178:D:/fchai/work/i-cube/I-CUBE-HUAWEI/Middlewares/Third_Party/Huawei/iot_link/network/dtls/mbedtls/mbedtls_port\dtls_interface.c ****             MBEDTLS_LOG("mbedtls_x509_crt_parse failed -0x%x", -ret);
 179:D:/fchai/work/i-cube/I-CUBE-HUAWEI/Middlewares/Third_Party/Huawei/iot_link/network/dtls/mbedtls/mbedtls_port\dtls_interface.c ****             goto exit_fail;
 180:D:/fchai/work/i-cube/I-CUBE-HUAWEI/Middlewares/Third_Party/Huawei/iot_link/network/dtls/mbedtls/mbedtls_port\dtls_interface.c ****         }
 181:D:/fchai/work/i-cube/I-CUBE-HUAWEI/Middlewares/Third_Party/Huawei/iot_link/network/dtls/mbedtls/mbedtls_port\dtls_interface.c ****         mbedtls_ssl_conf_authmode(conf, MBEDTLS_SSL_VERIFY_REQUIRED);
 182:D:/fchai/work/i-cube/I-CUBE-HUAWEI/Middlewares/Third_Party/Huawei/iot_link/network/dtls/mbedtls/mbedtls_port\dtls_interface.c ****         mbedtls_ssl_conf_ca_chain(conf, cacert, NULL);
 183:D:/fchai/work/i-cube/I-CUBE-HUAWEI/Middlewares/Third_Party/Huawei/iot_link/network/dtls/mbedtls/mbedtls_port\dtls_interface.c **** 
 184:D:/fchai/work/i-cube/I-CUBE-HUAWEI/Middlewares/Third_Party/Huawei/iot_link/network/dtls/mbedtls/mbedtls_port\dtls_interface.c ****         if(NULL != info->v.c.client_ca) ///< setup the client key and ca
 185:D:/fchai/work/i-cube/I-CUBE-HUAWEI/Middlewares/Third_Party/Huawei/iot_link/network/dtls/mbedtls/mbedtls_port\dtls_interface.c ****         {
ARM GAS  T:\msys\tmp\ccnGkxTA.s 			page 10


 186:D:/fchai/work/i-cube/I-CUBE-HUAWEI/Middlewares/Third_Party/Huawei/iot_link/network/dtls/mbedtls/mbedtls_port\dtls_interface.c ****             ret = mbedtls_x509_crt_parse(client_ca,info->v.c.client_ca,info->v.c.client_ca_len);
 187:D:/fchai/work/i-cube/I-CUBE-HUAWEI/Middlewares/Third_Party/Huawei/iot_link/network/dtls/mbedtls/mbedtls_port\dtls_interface.c ****             if(ret <0)
 188:D:/fchai/work/i-cube/I-CUBE-HUAWEI/Middlewares/Third_Party/Huawei/iot_link/network/dtls/mbedtls/mbedtls_port\dtls_interface.c ****             {
 189:D:/fchai/work/i-cube/I-CUBE-HUAWEI/Middlewares/Third_Party/Huawei/iot_link/network/dtls/mbedtls/mbedtls_port\dtls_interface.c ****                 goto exit_fail;
 190:D:/fchai/work/i-cube/I-CUBE-HUAWEI/Middlewares/Third_Party/Huawei/iot_link/network/dtls/mbedtls/mbedtls_port\dtls_interface.c ****             }
 191:D:/fchai/work/i-cube/I-CUBE-HUAWEI/Middlewares/Third_Party/Huawei/iot_link/network/dtls/mbedtls/mbedtls_port\dtls_interface.c **** 
 192:D:/fchai/work/i-cube/I-CUBE-HUAWEI/Middlewares/Third_Party/Huawei/iot_link/network/dtls/mbedtls/mbedtls_port\dtls_interface.c ****             ret = mbedtls_pk_parse_key(client_pk,info->v.c.client_pk,info->v.c.client_pk_len,\
 193:D:/fchai/work/i-cube/I-CUBE-HUAWEI/Middlewares/Third_Party/Huawei/iot_link/network/dtls/mbedtls/mbedtls_port\dtls_interface.c ****                                        info->v.c.client_pk_pwd,info->v.c.client_pk_pwd_len);
 194:D:/fchai/work/i-cube/I-CUBE-HUAWEI/Middlewares/Third_Party/Huawei/iot_link/network/dtls/mbedtls/mbedtls_port\dtls_interface.c ****             if(ret < 0)
 195:D:/fchai/work/i-cube/I-CUBE-HUAWEI/Middlewares/Third_Party/Huawei/iot_link/network/dtls/mbedtls/mbedtls_port\dtls_interface.c ****             {
 196:D:/fchai/work/i-cube/I-CUBE-HUAWEI/Middlewares/Third_Party/Huawei/iot_link/network/dtls/mbedtls/mbedtls_port\dtls_interface.c ****                 goto exit_fail;
 197:D:/fchai/work/i-cube/I-CUBE-HUAWEI/Middlewares/Third_Party/Huawei/iot_link/network/dtls/mbedtls/mbedtls_port\dtls_interface.c ****             }
 198:D:/fchai/work/i-cube/I-CUBE-HUAWEI/Middlewares/Third_Party/Huawei/iot_link/network/dtls/mbedtls/mbedtls_port\dtls_interface.c **** 
 199:D:/fchai/work/i-cube/I-CUBE-HUAWEI/Middlewares/Third_Party/Huawei/iot_link/network/dtls/mbedtls/mbedtls_port\dtls_interface.c ****             ret = mbedtls_ssl_conf_own_cert( conf, client_ca, client_pk );
 200:D:/fchai/work/i-cube/I-CUBE-HUAWEI/Middlewares/Third_Party/Huawei/iot_link/network/dtls/mbedtls/mbedtls_port\dtls_interface.c ****             if(ret != 0)
 201:D:/fchai/work/i-cube/I-CUBE-HUAWEI/Middlewares/Third_Party/Huawei/iot_link/network/dtls/mbedtls/mbedtls_port\dtls_interface.c ****             {
 202:D:/fchai/work/i-cube/I-CUBE-HUAWEI/Middlewares/Third_Party/Huawei/iot_link/network/dtls/mbedtls/mbedtls_port\dtls_interface.c ****                 goto exit_fail;
 203:D:/fchai/work/i-cube/I-CUBE-HUAWEI/Middlewares/Third_Party/Huawei/iot_link/network/dtls/mbedtls/mbedtls_port\dtls_interface.c ****             }
 204:D:/fchai/work/i-cube/I-CUBE-HUAWEI/Middlewares/Third_Party/Huawei/iot_link/network/dtls/mbedtls/mbedtls_port\dtls_interface.c ****         }
 205:D:/fchai/work/i-cube/I-CUBE-HUAWEI/Middlewares/Third_Party/Huawei/iot_link/network/dtls/mbedtls/mbedtls_port\dtls_interface.c ****     }
 206:D:/fchai/work/i-cube/I-CUBE-HUAWEI/Middlewares/Third_Party/Huawei/iot_link/network/dtls/mbedtls/mbedtls_port\dtls_interface.c **** #endif
 207:D:/fchai/work/i-cube/I-CUBE-HUAWEI/Middlewares/Third_Party/Huawei/iot_link/network/dtls/mbedtls/mbedtls_port\dtls_interface.c **** 
 208:D:/fchai/work/i-cube/I-CUBE-HUAWEI/Middlewares/Third_Party/Huawei/iot_link/network/dtls/mbedtls/mbedtls_port\dtls_interface.c ****     mbedtls_ssl_conf_authmode(conf, MBEDTLS_SSL_VERIFY_REQUIRED);  //TODO--test for no check the ca
 299              		.loc 1 208 5 is_stmt 1 view .LVU91
 300 012a 0221     		movs	r1, #2
 301 012c 2046     		mov	r0, r4
 302 012e FFF7FEFF 		bl	mbedtls_ssl_conf_authmode
 303              	.LVL31:
 209:D:/fchai/work/i-cube/I-CUBE-HUAWEI/Middlewares/Third_Party/Huawei/iot_link/network/dtls/mbedtls/mbedtls_port\dtls_interface.c **** 
 210:D:/fchai/work/i-cube/I-CUBE-HUAWEI/Middlewares/Third_Party/Huawei/iot_link/network/dtls/mbedtls/mbedtls_port\dtls_interface.c ****     if ((ret = mbedtls_ssl_setup(ssl, conf)) != 0)
 304              		.loc 1 210 5 view .LVU92
 305              		.loc 1 210 16 is_stmt 0 view .LVU93
 306 0132 2146     		mov	r1, r4
 307 0134 2846     		mov	r0, r5
 308 0136 FFF7FEFF 		bl	mbedtls_ssl_setup
 309              	.LVL32:
 310              		.loc 1 210 8 view .LVU94
 311 013a 0028     		cmp	r0, #0
 312 013c 40F0EB80 		bne	.L75
 211:D:/fchai/work/i-cube/I-CUBE-HUAWEI/Middlewares/Third_Party/Huawei/iot_link/network/dtls/mbedtls/mbedtls_port\dtls_interface.c ****     {
 212:D:/fchai/work/i-cube/I-CUBE-HUAWEI/Middlewares/Third_Party/Huawei/iot_link/network/dtls/mbedtls/mbedtls_port\dtls_interface.c ****         MBEDTLS_LOG("mbedtls_ssl_setup failed: -0x%x", -ret);
 213:D:/fchai/work/i-cube/I-CUBE-HUAWEI/Middlewares/Third_Party/Huawei/iot_link/network/dtls/mbedtls/mbedtls_port\dtls_interface.c ****         goto exit_fail;
 214:D:/fchai/work/i-cube/I-CUBE-HUAWEI/Middlewares/Third_Party/Huawei/iot_link/network/dtls/mbedtls/mbedtls_port\dtls_interface.c ****     }
 215:D:/fchai/work/i-cube/I-CUBE-HUAWEI/Middlewares/Third_Party/Huawei/iot_link/network/dtls/mbedtls/mbedtls_port\dtls_interface.c **** 
 216:D:/fchai/work/i-cube/I-CUBE-HUAWEI/Middlewares/Third_Party/Huawei/iot_link/network/dtls/mbedtls/mbedtls_port\dtls_interface.c ****     if (info->udp_or_tcp == MBEDTLS_NET_PROTO_UDP)
 313              		.loc 1 216 5 is_stmt 1 view .LVU95
 314              		.loc 1 216 8 is_stmt 0 view .LVU96
 315 0140 D9F82430 		ldr	r3, [r9, #36]
 316 0144 012B     		cmp	r3, #1
 317 0146 00F0FA80 		beq	.L76
 318              	.LVL33:
 319              	.L16:
 217:D:/fchai/work/i-cube/I-CUBE-HUAWEI/Middlewares/Third_Party/Huawei/iot_link/network/dtls/mbedtls/mbedtls_port\dtls_interface.c ****     {
 218:D:/fchai/work/i-cube/I-CUBE-HUAWEI/Middlewares/Third_Party/Huawei/iot_link/network/dtls/mbedtls/mbedtls_port\dtls_interface.c ****         mbedtls_ssl_set_timer_cb(ssl, timer, mbedtls_timing_set_delay,
 219:D:/fchai/work/i-cube/I-CUBE-HUAWEI/Middlewares/Third_Party/Huawei/iot_link/network/dtls/mbedtls/mbedtls_port\dtls_interface.c ****                                  mbedtls_timing_get_delay);
 220:D:/fchai/work/i-cube/I-CUBE-HUAWEI/Middlewares/Third_Party/Huawei/iot_link/network/dtls/mbedtls/mbedtls_port\dtls_interface.c ****     }
 221:D:/fchai/work/i-cube/I-CUBE-HUAWEI/Middlewares/Third_Party/Huawei/iot_link/network/dtls/mbedtls/mbedtls_port\dtls_interface.c **** 
ARM GAS  T:\msys\tmp\ccnGkxTA.s 			page 11


 222:D:/fchai/work/i-cube/I-CUBE-HUAWEI/Middlewares/Third_Party/Huawei/iot_link/network/dtls/mbedtls/mbedtls_port\dtls_interface.c ****     MBEDTLS_LOG("set SSL structure succeed");
 320              		.loc 1 222 5 is_stmt 1 view .LVU97
 321              		.loc 1 222 5 view .LVU98
 322 014a FFF7FEFF 		bl	link_log_level_get
 323              	.LVL34:
 324 014e 0128     		cmp	r0, #1
 325 0150 4AD8     		bhi	.L1
 326              		.loc 1 222 5 discriminator 1 view .LVU99
 327              		.loc 1 222 5 discriminator 1 view .LVU100
 328              		.loc 1 222 5 discriminator 1 view .LVU101
 329 0152 0120     		movs	r0, #1
 330 0154 FFF7FEFF 		bl	link_log_level_name
 331              	.LVL35:
 332 0158 0446     		mov	r4, r0
 333              	.LVL36:
 334              		.loc 1 222 5 is_stmt 0 discriminator 1 view .LVU102
 335 015a FFF7FEFF 		bl	osal_sys_time
 336              	.LVL37:
 337 015e 894B     		ldr	r3, .L79+12
 338 0160 0246     		mov	r2, r0
 339 0162 2146     		mov	r1, r4
 340 0164 8848     		ldr	r0, .L79+16
 341 0166 FFF7FEFF 		bl	printf
 342              	.LVL38:
 343              		.loc 1 222 5 is_stmt 1 discriminator 1 view .LVU103
 344 016a 884B     		ldr	r3, .L79+20
 345 016c 1B68     		ldr	r3, [r3]
 346 016e 9868     		ldr	r0, [r3, #8]
 347 0170 FFF7FEFF 		bl	fflush
 348              	.LVL39:
 349 0174 38E0     		b	.L1
 350              	.LVL40:
 351              	.L2:
 223:D:/fchai/work/i-cube/I-CUBE-HUAWEI/Middlewares/Third_Party/Huawei/iot_link/network/dtls/mbedtls/mbedtls_port\dtls_interface.c **** 
 224:D:/fchai/work/i-cube/I-CUBE-HUAWEI/Middlewares/Third_Party/Huawei/iot_link/network/dtls/mbedtls/mbedtls_port\dtls_interface.c ****     return ssl;
 225:D:/fchai/work/i-cube/I-CUBE-HUAWEI/Middlewares/Third_Party/Huawei/iot_link/network/dtls/mbedtls/mbedtls_port\dtls_interface.c **** 
 226:D:/fchai/work/i-cube/I-CUBE-HUAWEI/Middlewares/Third_Party/Huawei/iot_link/network/dtls/mbedtls/mbedtls_port\dtls_interface.c **** exit_fail:
 227:D:/fchai/work/i-cube/I-CUBE-HUAWEI/Middlewares/Third_Party/Huawei/iot_link/network/dtls/mbedtls/mbedtls_port\dtls_interface.c **** 
 228:D:/fchai/work/i-cube/I-CUBE-HUAWEI/Middlewares/Third_Party/Huawei/iot_link/network/dtls/mbedtls/mbedtls_port\dtls_interface.c ****     if (conf)
 352              		.loc 1 228 5 view .LVU104
 353              		.loc 1 228 8 is_stmt 0 view .LVU105
 354 0176 002C     		cmp	r4, #0
 355 0178 72D1     		bne	.L77
 356              	.L32:
  75:D:/fchai/work/i-cube/I-CUBE-HUAWEI/Middlewares/Third_Party/Huawei/iot_link/network/dtls/mbedtls/mbedtls_port\dtls_interface.c **** #endif
 357              		.loc 1 75 25 view .LVU106
 358 017a A346     		mov	fp, r4
  74:D:/fchai/work/i-cube/I-CUBE-HUAWEI/Middlewares/Third_Party/Huawei/iot_link/network/dtls/mbedtls/mbedtls_port\dtls_interface.c ****     mbedtls_pk_context *client_pk = NULL;
 359              		.loc 1 74 23 view .LVU107
 360 017c A246     		mov	r10, r4
 361              	.LVL41:
 362              	.L3:
 229:D:/fchai/work/i-cube/I-CUBE-HUAWEI/Middlewares/Third_Party/Huawei/iot_link/network/dtls/mbedtls/mbedtls_port\dtls_interface.c ****     {
 230:D:/fchai/work/i-cube/I-CUBE-HUAWEI/Middlewares/Third_Party/Huawei/iot_link/network/dtls/mbedtls/mbedtls_port\dtls_interface.c ****         mbedtls_ssl_config_free(conf);
 231:D:/fchai/work/i-cube/I-CUBE-HUAWEI/Middlewares/Third_Party/Huawei/iot_link/network/dtls/mbedtls/mbedtls_port\dtls_interface.c ****         mbedtls_free(conf);
 232:D:/fchai/work/i-cube/I-CUBE-HUAWEI/Middlewares/Third_Party/Huawei/iot_link/network/dtls/mbedtls/mbedtls_port\dtls_interface.c ****     }
 233:D:/fchai/work/i-cube/I-CUBE-HUAWEI/Middlewares/Third_Party/Huawei/iot_link/network/dtls/mbedtls/mbedtls_port\dtls_interface.c **** 
ARM GAS  T:\msys\tmp\ccnGkxTA.s 			page 12


 234:D:/fchai/work/i-cube/I-CUBE-HUAWEI/Middlewares/Third_Party/Huawei/iot_link/network/dtls/mbedtls/mbedtls_port\dtls_interface.c ****     if (ctr_drbg)
 363              		.loc 1 234 5 is_stmt 1 view .LVU108
 364              		.loc 1 234 8 is_stmt 0 view .LVU109
 365 017e 2FB1     		cbz	r7, .L18
 235:D:/fchai/work/i-cube/I-CUBE-HUAWEI/Middlewares/Third_Party/Huawei/iot_link/network/dtls/mbedtls/mbedtls_port\dtls_interface.c ****     {
 236:D:/fchai/work/i-cube/I-CUBE-HUAWEI/Middlewares/Third_Party/Huawei/iot_link/network/dtls/mbedtls/mbedtls_port\dtls_interface.c ****         mbedtls_ctr_drbg_free(ctr_drbg);
 366              		.loc 1 236 9 is_stmt 1 view .LVU110
 367 0180 3846     		mov	r0, r7
 368 0182 FFF7FEFF 		bl	mbedtls_ctr_drbg_free
 369              	.LVL42:
 237:D:/fchai/work/i-cube/I-CUBE-HUAWEI/Middlewares/Third_Party/Huawei/iot_link/network/dtls/mbedtls/mbedtls_port\dtls_interface.c ****         mbedtls_free(ctr_drbg);
 370              		.loc 1 237 9 view .LVU111
 371 0186 3846     		mov	r0, r7
 372 0188 FFF7FEFF 		bl	mbedtls_free
 373              	.LVL43:
 374              	.L18:
 238:D:/fchai/work/i-cube/I-CUBE-HUAWEI/Middlewares/Third_Party/Huawei/iot_link/network/dtls/mbedtls/mbedtls_port\dtls_interface.c ****     }
 239:D:/fchai/work/i-cube/I-CUBE-HUAWEI/Middlewares/Third_Party/Huawei/iot_link/network/dtls/mbedtls/mbedtls_port\dtls_interface.c **** 
 240:D:/fchai/work/i-cube/I-CUBE-HUAWEI/Middlewares/Third_Party/Huawei/iot_link/network/dtls/mbedtls/mbedtls_port\dtls_interface.c ****     if (entropy)
 375              		.loc 1 240 5 view .LVU112
 376              		.loc 1 240 8 is_stmt 0 view .LVU113
 377 018c 2EB1     		cbz	r6, .L19
 241:D:/fchai/work/i-cube/I-CUBE-HUAWEI/Middlewares/Third_Party/Huawei/iot_link/network/dtls/mbedtls/mbedtls_port\dtls_interface.c ****     {
 242:D:/fchai/work/i-cube/I-CUBE-HUAWEI/Middlewares/Third_Party/Huawei/iot_link/network/dtls/mbedtls/mbedtls_port\dtls_interface.c ****         mbedtls_entropy_free(entropy);
 378              		.loc 1 242 9 is_stmt 1 view .LVU114
 379 018e 3046     		mov	r0, r6
 380 0190 FFF7FEFF 		bl	mbedtls_entropy_free
 381              	.LVL44:
 243:D:/fchai/work/i-cube/I-CUBE-HUAWEI/Middlewares/Third_Party/Huawei/iot_link/network/dtls/mbedtls/mbedtls_port\dtls_interface.c ****         mbedtls_free(entropy);
 382              		.loc 1 243 9 view .LVU115
 383 0194 3046     		mov	r0, r6
 384 0196 FFF7FEFF 		bl	mbedtls_free
 385              	.LVL45:
 386              	.L19:
 244:D:/fchai/work/i-cube/I-CUBE-HUAWEI/Middlewares/Third_Party/Huawei/iot_link/network/dtls/mbedtls/mbedtls_port\dtls_interface.c ****     }
 245:D:/fchai/work/i-cube/I-CUBE-HUAWEI/Middlewares/Third_Party/Huawei/iot_link/network/dtls/mbedtls/mbedtls_port\dtls_interface.c **** 
 246:D:/fchai/work/i-cube/I-CUBE-HUAWEI/Middlewares/Third_Party/Huawei/iot_link/network/dtls/mbedtls/mbedtls_port\dtls_interface.c ****     if (timer)
 387              		.loc 1 246 5 view .LVU116
 388              		.loc 1 246 8 is_stmt 0 view .LVU117
 389 019a 14B1     		cbz	r4, .L20
 247:D:/fchai/work/i-cube/I-CUBE-HUAWEI/Middlewares/Third_Party/Huawei/iot_link/network/dtls/mbedtls/mbedtls_port\dtls_interface.c ****     {
 248:D:/fchai/work/i-cube/I-CUBE-HUAWEI/Middlewares/Third_Party/Huawei/iot_link/network/dtls/mbedtls/mbedtls_port\dtls_interface.c ****         mbedtls_free(timer);
 390              		.loc 1 248 9 is_stmt 1 view .LVU118
 391 019c 2046     		mov	r0, r4
 392 019e FFF7FEFF 		bl	mbedtls_free
 393              	.LVL46:
 394              	.L20:
 249:D:/fchai/work/i-cube/I-CUBE-HUAWEI/Middlewares/Third_Party/Huawei/iot_link/network/dtls/mbedtls/mbedtls_port\dtls_interface.c ****     }
 250:D:/fchai/work/i-cube/I-CUBE-HUAWEI/Middlewares/Third_Party/Huawei/iot_link/network/dtls/mbedtls/mbedtls_port\dtls_interface.c **** 
 251:D:/fchai/work/i-cube/I-CUBE-HUAWEI/Middlewares/Third_Party/Huawei/iot_link/network/dtls/mbedtls/mbedtls_port\dtls_interface.c **** #if defined(MBEDTLS_X509_CRT_PARSE_C)
 252:D:/fchai/work/i-cube/I-CUBE-HUAWEI/Middlewares/Third_Party/Huawei/iot_link/network/dtls/mbedtls/mbedtls_port\dtls_interface.c ****     if (cacert)
 395              		.loc 1 252 5 view .LVU119
 396              		.loc 1 252 8 is_stmt 0 view .LVU120
 397 01a2 B8F1000F 		cmp	r8, #0
 398 01a6 05D0     		beq	.L21
 253:D:/fchai/work/i-cube/I-CUBE-HUAWEI/Middlewares/Third_Party/Huawei/iot_link/network/dtls/mbedtls/mbedtls_port\dtls_interface.c ****     {
 254:D:/fchai/work/i-cube/I-CUBE-HUAWEI/Middlewares/Third_Party/Huawei/iot_link/network/dtls/mbedtls/mbedtls_port\dtls_interface.c ****         mbedtls_x509_crt_free(cacert);
ARM GAS  T:\msys\tmp\ccnGkxTA.s 			page 13


 399              		.loc 1 254 9 is_stmt 1 view .LVU121
 400 01a8 4046     		mov	r0, r8
 401 01aa FFF7FEFF 		bl	mbedtls_x509_crt_free
 402              	.LVL47:
 255:D:/fchai/work/i-cube/I-CUBE-HUAWEI/Middlewares/Third_Party/Huawei/iot_link/network/dtls/mbedtls/mbedtls_port\dtls_interface.c ****         mbedtls_free(cacert);
 403              		.loc 1 255 9 view .LVU122
 404 01ae 4046     		mov	r0, r8
 405 01b0 FFF7FEFF 		bl	mbedtls_free
 406              	.LVL48:
 407              	.L21:
 256:D:/fchai/work/i-cube/I-CUBE-HUAWEI/Middlewares/Third_Party/Huawei/iot_link/network/dtls/mbedtls/mbedtls_port\dtls_interface.c ****     }
 257:D:/fchai/work/i-cube/I-CUBE-HUAWEI/Middlewares/Third_Party/Huawei/iot_link/network/dtls/mbedtls/mbedtls_port\dtls_interface.c **** 
 258:D:/fchai/work/i-cube/I-CUBE-HUAWEI/Middlewares/Third_Party/Huawei/iot_link/network/dtls/mbedtls/mbedtls_port\dtls_interface.c ****     if(client_ca)
 408              		.loc 1 258 5 view .LVU123
 409              		.loc 1 258 7 is_stmt 0 view .LVU124
 410 01b4 BAF1000F 		cmp	r10, #0
 411 01b8 05D0     		beq	.L22
 259:D:/fchai/work/i-cube/I-CUBE-HUAWEI/Middlewares/Third_Party/Huawei/iot_link/network/dtls/mbedtls/mbedtls_port\dtls_interface.c ****     {
 260:D:/fchai/work/i-cube/I-CUBE-HUAWEI/Middlewares/Third_Party/Huawei/iot_link/network/dtls/mbedtls/mbedtls_port\dtls_interface.c ****         mbedtls_x509_crt_free(client_ca);
 412              		.loc 1 260 9 is_stmt 1 view .LVU125
 413 01ba 5046     		mov	r0, r10
 414 01bc FFF7FEFF 		bl	mbedtls_x509_crt_free
 415              	.LVL49:
 261:D:/fchai/work/i-cube/I-CUBE-HUAWEI/Middlewares/Third_Party/Huawei/iot_link/network/dtls/mbedtls/mbedtls_port\dtls_interface.c ****         mbedtls_free(client_ca);
 416              		.loc 1 261 9 view .LVU126
 417 01c0 5046     		mov	r0, r10
 418 01c2 FFF7FEFF 		bl	mbedtls_free
 419              	.LVL50:
 420              	.L22:
 262:D:/fchai/work/i-cube/I-CUBE-HUAWEI/Middlewares/Third_Party/Huawei/iot_link/network/dtls/mbedtls/mbedtls_port\dtls_interface.c ****     }
 263:D:/fchai/work/i-cube/I-CUBE-HUAWEI/Middlewares/Third_Party/Huawei/iot_link/network/dtls/mbedtls/mbedtls_port\dtls_interface.c **** 
 264:D:/fchai/work/i-cube/I-CUBE-HUAWEI/Middlewares/Third_Party/Huawei/iot_link/network/dtls/mbedtls/mbedtls_port\dtls_interface.c ****     if(client_pk)
 421              		.loc 1 264 5 view .LVU127
 422              		.loc 1 264 7 is_stmt 0 view .LVU128
 423 01c6 BBF1000F 		cmp	fp, #0
 424 01ca 05D0     		beq	.L23
 265:D:/fchai/work/i-cube/I-CUBE-HUAWEI/Middlewares/Third_Party/Huawei/iot_link/network/dtls/mbedtls/mbedtls_port\dtls_interface.c ****     {
 266:D:/fchai/work/i-cube/I-CUBE-HUAWEI/Middlewares/Third_Party/Huawei/iot_link/network/dtls/mbedtls/mbedtls_port\dtls_interface.c ****         mbedtls_pk_free(client_pk);
 425              		.loc 1 266 9 is_stmt 1 view .LVU129
 426 01cc 5846     		mov	r0, fp
 427 01ce FFF7FEFF 		bl	mbedtls_pk_free
 428              	.LVL51:
 267:D:/fchai/work/i-cube/I-CUBE-HUAWEI/Middlewares/Third_Party/Huawei/iot_link/network/dtls/mbedtls/mbedtls_port\dtls_interface.c ****         mbedtls_free(client_pk);
 429              		.loc 1 267 9 view .LVU130
 430 01d2 5846     		mov	r0, fp
 431 01d4 FFF7FEFF 		bl	mbedtls_free
 432              	.LVL52:
 433              	.L23:
 268:D:/fchai/work/i-cube/I-CUBE-HUAWEI/Middlewares/Third_Party/Huawei/iot_link/network/dtls/mbedtls/mbedtls_port\dtls_interface.c ****     }
 269:D:/fchai/work/i-cube/I-CUBE-HUAWEI/Middlewares/Third_Party/Huawei/iot_link/network/dtls/mbedtls/mbedtls_port\dtls_interface.c **** #endif
 270:D:/fchai/work/i-cube/I-CUBE-HUAWEI/Middlewares/Third_Party/Huawei/iot_link/network/dtls/mbedtls/mbedtls_port\dtls_interface.c **** 
 271:D:/fchai/work/i-cube/I-CUBE-HUAWEI/Middlewares/Third_Party/Huawei/iot_link/network/dtls/mbedtls/mbedtls_port\dtls_interface.c ****     if (ssl)
 434              		.loc 1 271 5 view .LVU131
 435              		.loc 1 271 8 is_stmt 0 view .LVU132
 436 01d8 35B1     		cbz	r5, .L1
 272:D:/fchai/work/i-cube/I-CUBE-HUAWEI/Middlewares/Third_Party/Huawei/iot_link/network/dtls/mbedtls/mbedtls_port\dtls_interface.c ****     {
 273:D:/fchai/work/i-cube/I-CUBE-HUAWEI/Middlewares/Third_Party/Huawei/iot_link/network/dtls/mbedtls/mbedtls_port\dtls_interface.c ****         mbedtls_ssl_free(ssl);
ARM GAS  T:\msys\tmp\ccnGkxTA.s 			page 14


 437              		.loc 1 273 9 is_stmt 1 view .LVU133
 438 01da 2846     		mov	r0, r5
 439 01dc FFF7FEFF 		bl	mbedtls_ssl_free
 440              	.LVL53:
 274:D:/fchai/work/i-cube/I-CUBE-HUAWEI/Middlewares/Third_Party/Huawei/iot_link/network/dtls/mbedtls/mbedtls_port\dtls_interface.c ****         mbedtls_free(ssl);
 441              		.loc 1 274 9 view .LVU134
 442 01e0 2846     		mov	r0, r5
 443 01e2 FFF7FEFF 		bl	mbedtls_free
 444              	.LVL54:
 275:D:/fchai/work/i-cube/I-CUBE-HUAWEI/Middlewares/Third_Party/Huawei/iot_link/network/dtls/mbedtls/mbedtls_port\dtls_interface.c ****     }
 276:D:/fchai/work/i-cube/I-CUBE-HUAWEI/Middlewares/Third_Party/Huawei/iot_link/network/dtls/mbedtls/mbedtls_port\dtls_interface.c ****     return NULL;
 445              		.loc 1 276 12 is_stmt 0 view .LVU135
 446 01e6 0025     		movs	r5, #0
 447              	.LVL55:
 448              	.L1:
 277:D:/fchai/work/i-cube/I-CUBE-HUAWEI/Middlewares/Third_Party/Huawei/iot_link/network/dtls/mbedtls/mbedtls_port\dtls_interface.c **** }
 449              		.loc 1 277 1 view .LVU136
 450 01e8 2846     		mov	r0, r5
 451 01ea 07B0     		add	sp, sp, #28
 452              	.LCFI2:
 453              		.cfi_remember_state
 454              		.cfi_def_cfa_offset 36
 455              		@ sp needed
 456 01ec BDE8F08F 		pop	{r4, r5, r6, r7, r8, r9, r10, fp, pc}
 457              	.LVL56:
 458              	.L28:
 459              	.LCFI3:
 460              		.cfi_restore_state
  75:D:/fchai/work/i-cube/I-CUBE-HUAWEI/Middlewares/Third_Party/Huawei/iot_link/network/dtls/mbedtls/mbedtls_port\dtls_interface.c **** #endif
 461              		.loc 1 75 25 view .LVU137
 462 01f0 D346     		mov	fp, r10
 463 01f2 57E7     		b	.L5
 464              	.L25:
 465 01f4 B346     		mov	fp, r6
  74:D:/fchai/work/i-cube/I-CUBE-HUAWEI/Middlewares/Third_Party/Huawei/iot_link/network/dtls/mbedtls/mbedtls_port\dtls_interface.c ****     mbedtls_pk_context *client_pk = NULL;
 466              		.loc 1 74 23 view .LVU138
 467 01f6 B246     		mov	r10, r6
  71:D:/fchai/work/i-cube/I-CUBE-HUAWEI/Middlewares/Third_Party/Huawei/iot_link/network/dtls/mbedtls/mbedtls_port\dtls_interface.c **** #if defined(MBEDTLS_X509_CRT_PARSE_C)
 468              		.loc 1 71 35 view .LVU139
 469 01f8 0396     		str	r6, [sp, #12]
 470              	.LVL57:
 471              	.L4:
 230:D:/fchai/work/i-cube/I-CUBE-HUAWEI/Middlewares/Third_Party/Huawei/iot_link/network/dtls/mbedtls/mbedtls_port\dtls_interface.c ****         mbedtls_free(conf);
 472              		.loc 1 230 9 is_stmt 1 view .LVU140
 473 01fa 2046     		mov	r0, r4
 474 01fc FFF7FEFF 		bl	mbedtls_ssl_config_free
 475              	.LVL58:
 231:D:/fchai/work/i-cube/I-CUBE-HUAWEI/Middlewares/Third_Party/Huawei/iot_link/network/dtls/mbedtls/mbedtls_port\dtls_interface.c ****     }
 476              		.loc 1 231 9 view .LVU141
 477 0200 2046     		mov	r0, r4
 478 0202 FFF7FEFF 		bl	mbedtls_free
 479              	.LVL59:
 480 0206 039C     		ldr	r4, [sp, #12]
 481              	.LVL60:
 231:D:/fchai/work/i-cube/I-CUBE-HUAWEI/Middlewares/Third_Party/Huawei/iot_link/network/dtls/mbedtls/mbedtls_port\dtls_interface.c ****     }
 482              		.loc 1 231 9 is_stmt 0 view .LVU142
 483 0208 B9E7     		b	.L3
ARM GAS  T:\msys\tmp\ccnGkxTA.s 			page 15


 484              	.LVL61:
 485              	.L26:
  75:D:/fchai/work/i-cube/I-CUBE-HUAWEI/Middlewares/Third_Party/Huawei/iot_link/network/dtls/mbedtls/mbedtls_port\dtls_interface.c **** #endif
 486              		.loc 1 75 25 view .LVU143
 487 020a BB46     		mov	fp, r7
  74:D:/fchai/work/i-cube/I-CUBE-HUAWEI/Middlewares/Third_Party/Huawei/iot_link/network/dtls/mbedtls/mbedtls_port\dtls_interface.c ****     mbedtls_pk_context *client_pk = NULL;
 488              		.loc 1 74 23 view .LVU144
 489 020c BA46     		mov	r10, r7
  71:D:/fchai/work/i-cube/I-CUBE-HUAWEI/Middlewares/Third_Party/Huawei/iot_link/network/dtls/mbedtls/mbedtls_port\dtls_interface.c **** #if defined(MBEDTLS_X509_CRT_PARSE_C)
 490              		.loc 1 71 35 view .LVU145
 491 020e 0397     		str	r7, [sp, #12]
 492 0210 F3E7     		b	.L4
 493              	.LVL62:
 494              	.L70:
 115:D:/fchai/work/i-cube/I-CUBE-HUAWEI/Middlewares/Third_Party/Huawei/iot_link/network/dtls/mbedtls/mbedtls_port\dtls_interface.c ****         timer = mbedtls_calloc(1, sizeof(mbedtls_timing_delay_context));
 495              		.loc 1 115 9 is_stmt 1 view .LVU146
 116:D:/fchai/work/i-cube/I-CUBE-HUAWEI/Middlewares/Third_Party/Huawei/iot_link/network/dtls/mbedtls/mbedtls_port\dtls_interface.c ****         if (NULL == timer)
 496              		.loc 1 116 9 view .LVU147
 116:D:/fchai/work/i-cube/I-CUBE-HUAWEI/Middlewares/Third_Party/Huawei/iot_link/network/dtls/mbedtls/mbedtls_port\dtls_interface.c ****         if (NULL == timer)
 497              		.loc 1 116 17 is_stmt 0 view .LVU148
 498 0212 2821     		movs	r1, #40
 499 0214 1846     		mov	r0, r3
 500 0216 FFF7FEFF 		bl	mbedtls_calloc
 501              	.LVL63:
 117:D:/fchai/work/i-cube/I-CUBE-HUAWEI/Middlewares/Third_Party/Huawei/iot_link/network/dtls/mbedtls/mbedtls_port\dtls_interface.c ****             goto exit_fail;
 502              		.loc 1 117 9 is_stmt 1 view .LVU149
 117:D:/fchai/work/i-cube/I-CUBE-HUAWEI/Middlewares/Third_Party/Huawei/iot_link/network/dtls/mbedtls/mbedtls_port\dtls_interface.c ****             goto exit_fail;
 503              		.loc 1 117 12 is_stmt 0 view .LVU150
 504 021a 0390     		str	r0, [sp, #12]
 505 021c 0028     		cmp	r0, #0
 506 021e 7FF44AAF 		bne	.L6
 507 0222 EAE7     		b	.L4
 508              	.LVL64:
 509              	.L72:
 141:D:/fchai/work/i-cube/I-CUBE-HUAWEI/Middlewares/Third_Party/Huawei/iot_link/network/dtls/mbedtls/mbedtls_port\dtls_interface.c ****         goto exit_fail;
 510              		.loc 1 141 9 is_stmt 1 view .LVU151
 141:D:/fchai/work/i-cube/I-CUBE-HUAWEI/Middlewares/Third_Party/Huawei/iot_link/network/dtls/mbedtls/mbedtls_port\dtls_interface.c ****         goto exit_fail;
 511              		.loc 1 141 9 view .LVU152
 512 0224 0290     		str	r0, [sp, #8]
 513 0226 FFF7FEFF 		bl	link_log_level_get
 514              	.LVL65:
 141:D:/fchai/work/i-cube/I-CUBE-HUAWEI/Middlewares/Third_Party/Huawei/iot_link/network/dtls/mbedtls/mbedtls_port\dtls_interface.c ****         goto exit_fail;
 515              		.loc 1 141 9 is_stmt 0 view .LVU153
 516 022a 0128     		cmp	r0, #1
 517 022c E5D8     		bhi	.L4
 141:D:/fchai/work/i-cube/I-CUBE-HUAWEI/Middlewares/Third_Party/Huawei/iot_link/network/dtls/mbedtls/mbedtls_port\dtls_interface.c ****         goto exit_fail;
 518              		.loc 1 141 9 is_stmt 1 discriminator 1 view .LVU154
 141:D:/fchai/work/i-cube/I-CUBE-HUAWEI/Middlewares/Third_Party/Huawei/iot_link/network/dtls/mbedtls/mbedtls_port\dtls_interface.c ****         goto exit_fail;
 519              		.loc 1 141 9 discriminator 1 view .LVU155
 141:D:/fchai/work/i-cube/I-CUBE-HUAWEI/Middlewares/Third_Party/Huawei/iot_link/network/dtls/mbedtls/mbedtls_port\dtls_interface.c ****         goto exit_fail;
 520              		.loc 1 141 9 discriminator 1 view .LVU156
 521 022e 0120     		movs	r0, #1
 522 0230 FFF7FEFF 		bl	link_log_level_name
 523              	.LVL66:
 524 0234 8146     		mov	r9, r0
 525              	.LVL67:
 141:D:/fchai/work/i-cube/I-CUBE-HUAWEI/Middlewares/Third_Party/Huawei/iot_link/network/dtls/mbedtls/mbedtls_port\dtls_interface.c ****         goto exit_fail;
ARM GAS  T:\msys\tmp\ccnGkxTA.s 			page 16


 526              		.loc 1 141 9 is_stmt 0 discriminator 1 view .LVU157
 527 0236 FFF7FEFF 		bl	osal_sys_time
 528              	.LVL68:
 529 023a 029B     		ldr	r3, [sp, #8]
 530 023c 5B42     		rsbs	r3, r3, #0
 531 023e 0246     		mov	r2, r0
 532 0240 0093     		str	r3, [sp]
 533 0242 5348     		ldr	r0, .L79+24
 534 0244 4F4B     		ldr	r3, .L79+12
 535 0246 4946     		mov	r1, r9
 536              	.LVL69:
 537              	.L68:
 212:D:/fchai/work/i-cube/I-CUBE-HUAWEI/Middlewares/Third_Party/Huawei/iot_link/network/dtls/mbedtls/mbedtls_port\dtls_interface.c ****         goto exit_fail;
 538              		.loc 1 212 9 discriminator 1 view .LVU158
 539 0248 FFF7FEFF 		bl	printf
 540              	.LVL70:
 212:D:/fchai/work/i-cube/I-CUBE-HUAWEI/Middlewares/Third_Party/Huawei/iot_link/network/dtls/mbedtls/mbedtls_port\dtls_interface.c ****         goto exit_fail;
 541              		.loc 1 212 9 is_stmt 1 discriminator 1 view .LVU159
 542 024c 4F4B     		ldr	r3, .L79+20
 543 024e 1B68     		ldr	r3, [r3]
 544 0250 9868     		ldr	r0, [r3, #8]
 545 0252 FFF7FEFF 		bl	fflush
 546              	.LVL71:
 547 0256 D0E7     		b	.L4
 548              	.LVL72:
 549              	.L27:
  75:D:/fchai/work/i-cube/I-CUBE-HUAWEI/Middlewares/Third_Party/Huawei/iot_link/network/dtls/mbedtls/mbedtls_port\dtls_interface.c **** #endif
 550              		.loc 1 75 25 is_stmt 0 view .LVU160
 551 0258 8346     		mov	fp, r0
  74:D:/fchai/work/i-cube/I-CUBE-HUAWEI/Middlewares/Third_Party/Huawei/iot_link/network/dtls/mbedtls/mbedtls_port\dtls_interface.c ****     mbedtls_pk_context *client_pk = NULL;
 552              		.loc 1 74 23 view .LVU161
 553 025a 8246     		mov	r10, r0
  71:D:/fchai/work/i-cube/I-CUBE-HUAWEI/Middlewares/Third_Party/Huawei/iot_link/network/dtls/mbedtls/mbedtls_port\dtls_interface.c **** #if defined(MBEDTLS_X509_CRT_PARSE_C)
 554              		.loc 1 71 35 view .LVU162
 555 025c 0390     		str	r0, [sp, #12]
 556 025e CCE7     		b	.L4
 557              	.L77:
  75:D:/fchai/work/i-cube/I-CUBE-HUAWEI/Middlewares/Third_Party/Huawei/iot_link/network/dtls/mbedtls/mbedtls_port\dtls_interface.c **** #endif
 558              		.loc 1 75 25 view .LVU163
 559 0260 4FF0000B 		mov	fp, #0
  74:D:/fchai/work/i-cube/I-CUBE-HUAWEI/Middlewares/Third_Party/Huawei/iot_link/network/dtls/mbedtls/mbedtls_port\dtls_interface.c ****     mbedtls_pk_context *client_pk = NULL;
 560              		.loc 1 74 23 view .LVU164
 561 0264 DA46     		mov	r10, fp
  71:D:/fchai/work/i-cube/I-CUBE-HUAWEI/Middlewares/Third_Party/Huawei/iot_link/network/dtls/mbedtls/mbedtls_port\dtls_interface.c **** #if defined(MBEDTLS_X509_CRT_PARSE_C)
 562              		.loc 1 71 35 view .LVU165
 563 0266 CDF80CB0 		str	fp, [sp, #12]
 564 026a C6E7     		b	.L4
 565              	.LVL73:
 566              	.L11:
 175:D:/fchai/work/i-cube/I-CUBE-HUAWEI/Middlewares/Third_Party/Huawei/iot_link/network/dtls/mbedtls/mbedtls_port\dtls_interface.c ****         if(ret < 0)
 567              		.loc 1 175 9 is_stmt 1 view .LVU166
 175:D:/fchai/work/i-cube/I-CUBE-HUAWEI/Middlewares/Third_Party/Huawei/iot_link/network/dtls/mbedtls/mbedtls_port\dtls_interface.c ****         if(ret < 0)
 568              		.loc 1 175 15 is_stmt 0 view .LVU167
 569 026c D9E90012 		ldrd	r1, r2, [r9]
 570 0270 4046     		mov	r0, r8
 571 0272 0293     		str	r3, [sp, #8]
 572 0274 FFF7FEFF 		bl	mbedtls_x509_crt_parse
ARM GAS  T:\msys\tmp\ccnGkxTA.s 			page 17


 573              	.LVL74:
 176:D:/fchai/work/i-cube/I-CUBE-HUAWEI/Middlewares/Third_Party/Huawei/iot_link/network/dtls/mbedtls/mbedtls_port\dtls_interface.c ****         {
 574              		.loc 1 176 9 is_stmt 1 view .LVU168
 176:D:/fchai/work/i-cube/I-CUBE-HUAWEI/Middlewares/Third_Party/Huawei/iot_link/network/dtls/mbedtls/mbedtls_port\dtls_interface.c ****         {
 575              		.loc 1 176 11 is_stmt 0 view .LVU169
 576 0278 021E     		subs	r2, r0, #0
 577 027a 029B     		ldr	r3, [sp, #8]
 578 027c 66DB     		blt	.L78
 181:D:/fchai/work/i-cube/I-CUBE-HUAWEI/Middlewares/Third_Party/Huawei/iot_link/network/dtls/mbedtls/mbedtls_port\dtls_interface.c ****         mbedtls_ssl_conf_ca_chain(conf, cacert, NULL);
 579              		.loc 1 181 9 is_stmt 1 view .LVU170
 580 027e 0221     		movs	r1, #2
 581 0280 2046     		mov	r0, r4
 582              	.LVL75:
 181:D:/fchai/work/i-cube/I-CUBE-HUAWEI/Middlewares/Third_Party/Huawei/iot_link/network/dtls/mbedtls/mbedtls_port\dtls_interface.c ****         mbedtls_ssl_conf_ca_chain(conf, cacert, NULL);
 583              		.loc 1 181 9 is_stmt 0 view .LVU171
 584 0282 FFF7FEFF 		bl	mbedtls_ssl_conf_authmode
 585              	.LVL76:
 182:D:/fchai/work/i-cube/I-CUBE-HUAWEI/Middlewares/Third_Party/Huawei/iot_link/network/dtls/mbedtls/mbedtls_port\dtls_interface.c **** 
 586              		.loc 1 182 9 is_stmt 1 view .LVU172
 587 0286 4146     		mov	r1, r8
 588 0288 0022     		movs	r2, #0
 589 028a 2046     		mov	r0, r4
 590 028c FFF7FEFF 		bl	mbedtls_ssl_conf_ca_chain
 591              	.LVL77:
 184:D:/fchai/work/i-cube/I-CUBE-HUAWEI/Middlewares/Third_Party/Huawei/iot_link/network/dtls/mbedtls/mbedtls_port\dtls_interface.c ****         {
 592              		.loc 1 184 9 view .LVU173
 184:D:/fchai/work/i-cube/I-CUBE-HUAWEI/Middlewares/Third_Party/Huawei/iot_link/network/dtls/mbedtls/mbedtls_port\dtls_interface.c ****         {
 593              		.loc 1 184 29 is_stmt 0 view .LVU174
 594 0290 D9F80810 		ldr	r1, [r9, #8]
 184:D:/fchai/work/i-cube/I-CUBE-HUAWEI/Middlewares/Third_Party/Huawei/iot_link/network/dtls/mbedtls/mbedtls_port\dtls_interface.c ****         {
 595              		.loc 1 184 11 view .LVU175
 596 0294 0029     		cmp	r1, #0
 597 0296 3FF448AF 		beq	.L15
 186:D:/fchai/work/i-cube/I-CUBE-HUAWEI/Middlewares/Third_Party/Huawei/iot_link/network/dtls/mbedtls/mbedtls_port\dtls_interface.c ****             if(ret <0)
 598              		.loc 1 186 13 is_stmt 1 view .LVU176
 186:D:/fchai/work/i-cube/I-CUBE-HUAWEI/Middlewares/Third_Party/Huawei/iot_link/network/dtls/mbedtls/mbedtls_port\dtls_interface.c ****             if(ret <0)
 599              		.loc 1 186 19 is_stmt 0 view .LVU177
 600 029a D9F80C20 		ldr	r2, [r9, #12]
 601 029e 5046     		mov	r0, r10
 602 02a0 FFF7FEFF 		bl	mbedtls_x509_crt_parse
 603              	.LVL78:
 187:D:/fchai/work/i-cube/I-CUBE-HUAWEI/Middlewares/Third_Party/Huawei/iot_link/network/dtls/mbedtls/mbedtls_port\dtls_interface.c ****             {
 604              		.loc 1 187 13 is_stmt 1 view .LVU178
 187:D:/fchai/work/i-cube/I-CUBE-HUAWEI/Middlewares/Third_Party/Huawei/iot_link/network/dtls/mbedtls/mbedtls_port\dtls_interface.c ****             {
 605              		.loc 1 187 15 is_stmt 0 view .LVU179
 606 02a4 0028     		cmp	r0, #0
 607 02a6 A8DB     		blt	.L4
 192:D:/fchai/work/i-cube/I-CUBE-HUAWEI/Middlewares/Third_Party/Huawei/iot_link/network/dtls/mbedtls/mbedtls_port\dtls_interface.c ****                                        info->v.c.client_pk_pwd,info->v.c.client_pk_pwd_len);
 608              		.loc 1 192 13 is_stmt 1 view .LVU180
 192:D:/fchai/work/i-cube/I-CUBE-HUAWEI/Middlewares/Third_Party/Huawei/iot_link/network/dtls/mbedtls/mbedtls_port\dtls_interface.c ****                                        info->v.c.client_pk_pwd,info->v.c.client_pk_pwd_len);
 609              		.loc 1 192 19 is_stmt 0 view .LVU181
 610 02a8 D9F81C30 		ldr	r3, [r9, #28]
 611 02ac 0093     		str	r3, [sp]
 612 02ae D9E90523 		ldrd	r2, r3, [r9, #20]
 613 02b2 D9F81010 		ldr	r1, [r9, #16]
 614 02b6 5846     		mov	r0, fp
 615              	.LVL79:
ARM GAS  T:\msys\tmp\ccnGkxTA.s 			page 18


 192:D:/fchai/work/i-cube/I-CUBE-HUAWEI/Middlewares/Third_Party/Huawei/iot_link/network/dtls/mbedtls/mbedtls_port\dtls_interface.c ****                                        info->v.c.client_pk_pwd,info->v.c.client_pk_pwd_len);
 616              		.loc 1 192 19 view .LVU182
 617 02b8 FFF7FEFF 		bl	mbedtls_pk_parse_key
 618              	.LVL80:
 194:D:/fchai/work/i-cube/I-CUBE-HUAWEI/Middlewares/Third_Party/Huawei/iot_link/network/dtls/mbedtls/mbedtls_port\dtls_interface.c ****             {
 619              		.loc 1 194 13 is_stmt 1 view .LVU183
 194:D:/fchai/work/i-cube/I-CUBE-HUAWEI/Middlewares/Third_Party/Huawei/iot_link/network/dtls/mbedtls/mbedtls_port\dtls_interface.c ****             {
 620              		.loc 1 194 15 is_stmt 0 view .LVU184
 621 02bc 0028     		cmp	r0, #0
 622 02be 9CDB     		blt	.L4
 199:D:/fchai/work/i-cube/I-CUBE-HUAWEI/Middlewares/Third_Party/Huawei/iot_link/network/dtls/mbedtls/mbedtls_port\dtls_interface.c ****             if(ret != 0)
 623              		.loc 1 199 13 is_stmt 1 view .LVU185
 199:D:/fchai/work/i-cube/I-CUBE-HUAWEI/Middlewares/Third_Party/Huawei/iot_link/network/dtls/mbedtls/mbedtls_port\dtls_interface.c ****             if(ret != 0)
 624              		.loc 1 199 19 is_stmt 0 view .LVU186
 625 02c0 5A46     		mov	r2, fp
 626 02c2 5146     		mov	r1, r10
 627 02c4 2046     		mov	r0, r4
 628              	.LVL81:
 199:D:/fchai/work/i-cube/I-CUBE-HUAWEI/Middlewares/Third_Party/Huawei/iot_link/network/dtls/mbedtls/mbedtls_port\dtls_interface.c ****             if(ret != 0)
 629              		.loc 1 199 19 view .LVU187
 630 02c6 FFF7FEFF 		bl	mbedtls_ssl_conf_own_cert
 631              	.LVL82:
 200:D:/fchai/work/i-cube/I-CUBE-HUAWEI/Middlewares/Third_Party/Huawei/iot_link/network/dtls/mbedtls/mbedtls_port\dtls_interface.c ****             {
 632              		.loc 1 200 13 is_stmt 1 view .LVU188
 200:D:/fchai/work/i-cube/I-CUBE-HUAWEI/Middlewares/Third_Party/Huawei/iot_link/network/dtls/mbedtls/mbedtls_port\dtls_interface.c ****             {
 633              		.loc 1 200 15 is_stmt 0 view .LVU189
 634 02ca 0028     		cmp	r0, #0
 635 02cc 3FF42DAF 		beq	.L15
 636 02d0 93E7     		b	.L4
 637              	.LVL83:
 638              	.L74:
 154:D:/fchai/work/i-cube/I-CUBE-HUAWEI/Middlewares/Third_Party/Huawei/iot_link/network/dtls/mbedtls/mbedtls_port\dtls_interface.c ****     }
 639              		.loc 1 154 9 is_stmt 1 view .LVU190
 640 02d2 4FF47A71 		mov	r1, #1000
 641 02d6 2046     		mov	r0, r4
 642 02d8 FFF7FEFF 		bl	mbedtls_ssl_conf_read_timeout
 643              	.LVL84:
 644 02dc 20E7     		b	.L10
 645              	.LVL85:
 646              	.L71:
 133:D:/fchai/work/i-cube/I-CUBE-HUAWEI/Middlewares/Third_Party/Huawei/iot_link/network/dtls/mbedtls/mbedtls_port\dtls_interface.c ****     }
 647              		.loc 1 133 9 view .LVU191
 648 02de 4046     		mov	r0, r8
 649 02e0 FFF7FEFF 		bl	mbedtls_x509_crt_init
 650              	.LVL86:
 651 02e4 F8E6     		b	.L7
 652              	.LVL87:
 653              	.L30:
  71:D:/fchai/work/i-cube/I-CUBE-HUAWEI/Middlewares/Third_Party/Huawei/iot_link/network/dtls/mbedtls/mbedtls_port\dtls_interface.c **** #if defined(MBEDTLS_X509_CRT_PARSE_C)
 654              		.loc 1 71 35 is_stmt 0 view .LVU192
 655 02e6 0390     		str	r0, [sp, #12]
 656 02e8 87E7     		b	.L4
 657              	.LVL88:
 658              	.L73:
 145:D:/fchai/work/i-cube/I-CUBE-HUAWEI/Middlewares/Third_Party/Huawei/iot_link/network/dtls/mbedtls/mbedtls_port\dtls_interface.c **** 
 659              		.loc 1 145 5 is_stmt 1 discriminator 1 view .LVU193
 145:D:/fchai/work/i-cube/I-CUBE-HUAWEI/Middlewares/Third_Party/Huawei/iot_link/network/dtls/mbedtls/mbedtls_port\dtls_interface.c **** 
ARM GAS  T:\msys\tmp\ccnGkxTA.s 			page 19


 660              		.loc 1 145 5 discriminator 1 view .LVU194
 145:D:/fchai/work/i-cube/I-CUBE-HUAWEI/Middlewares/Third_Party/Huawei/iot_link/network/dtls/mbedtls/mbedtls_port\dtls_interface.c **** 
 661              		.loc 1 145 5 discriminator 1 view .LVU195
 662 02ea 0120     		movs	r0, #1
 663 02ec FFF7FEFF 		bl	link_log_level_name
 664              	.LVL89:
 665 02f0 0590     		str	r0, [sp, #20]
 666 02f2 FFF7FEFF 		bl	osal_sys_time
 667              	.LVL90:
 668 02f6 059B     		ldr	r3, [sp, #20]
 669 02f8 0246     		mov	r2, r0
 670 02fa 1946     		mov	r1, r3
 671 02fc 2548     		ldr	r0, .L79+28
 672 02fe 214B     		ldr	r3, .L79+12
 673 0300 FFF7FEFF 		bl	printf
 674              	.LVL91:
 145:D:/fchai/work/i-cube/I-CUBE-HUAWEI/Middlewares/Third_Party/Huawei/iot_link/network/dtls/mbedtls/mbedtls_port\dtls_interface.c **** 
 675              		.loc 1 145 5 discriminator 1 view .LVU196
 676 0304 214B     		ldr	r3, .L79+20
 677 0306 1B68     		ldr	r3, [r3]
 678 0308 9868     		ldr	r0, [r3, #8]
 679 030a FFF7FEFF 		bl	fflush
 680              	.LVL92:
 681 030e F3E6     		b	.L9
 682              	.LVL93:
 683              	.L29:
  71:D:/fchai/work/i-cube/I-CUBE-HUAWEI/Middlewares/Third_Party/Huawei/iot_link/network/dtls/mbedtls/mbedtls_port\dtls_interface.c **** #if defined(MBEDTLS_X509_CRT_PARSE_C)
 684              		.loc 1 71 35 is_stmt 0 view .LVU197
 685 0310 CDF80CA0 		str	r10, [sp, #12]
 686 0314 71E7     		b	.L4
 687              	.LVL94:
 688              	.L75:
 212:D:/fchai/work/i-cube/I-CUBE-HUAWEI/Middlewares/Third_Party/Huawei/iot_link/network/dtls/mbedtls/mbedtls_port\dtls_interface.c ****         goto exit_fail;
 689              		.loc 1 212 9 is_stmt 1 view .LVU198
 212:D:/fchai/work/i-cube/I-CUBE-HUAWEI/Middlewares/Third_Party/Huawei/iot_link/network/dtls/mbedtls/mbedtls_port\dtls_interface.c ****         goto exit_fail;
 690              		.loc 1 212 9 view .LVU199
 691 0316 0290     		str	r0, [sp, #8]
 692 0318 FFF7FEFF 		bl	link_log_level_get
 693              	.LVL95:
 212:D:/fchai/work/i-cube/I-CUBE-HUAWEI/Middlewares/Third_Party/Huawei/iot_link/network/dtls/mbedtls/mbedtls_port\dtls_interface.c ****         goto exit_fail;
 694              		.loc 1 212 9 is_stmt 0 view .LVU200
 695 031c 0128     		cmp	r0, #1
 696 031e 3FF66CAF 		bhi	.L4
 212:D:/fchai/work/i-cube/I-CUBE-HUAWEI/Middlewares/Third_Party/Huawei/iot_link/network/dtls/mbedtls/mbedtls_port\dtls_interface.c ****         goto exit_fail;
 697              		.loc 1 212 9 is_stmt 1 discriminator 1 view .LVU201
 212:D:/fchai/work/i-cube/I-CUBE-HUAWEI/Middlewares/Third_Party/Huawei/iot_link/network/dtls/mbedtls/mbedtls_port\dtls_interface.c ****         goto exit_fail;
 698              		.loc 1 212 9 discriminator 1 view .LVU202
 212:D:/fchai/work/i-cube/I-CUBE-HUAWEI/Middlewares/Third_Party/Huawei/iot_link/network/dtls/mbedtls/mbedtls_port\dtls_interface.c ****         goto exit_fail;
 699              		.loc 1 212 9 discriminator 1 view .LVU203
 700 0322 0120     		movs	r0, #1
 701 0324 FFF7FEFF 		bl	link_log_level_name
 702              	.LVL96:
 703 0328 8146     		mov	r9, r0
 704              	.LVL97:
 212:D:/fchai/work/i-cube/I-CUBE-HUAWEI/Middlewares/Third_Party/Huawei/iot_link/network/dtls/mbedtls/mbedtls_port\dtls_interface.c ****         goto exit_fail;
 705              		.loc 1 212 9 is_stmt 0 discriminator 1 view .LVU204
 706 032a FFF7FEFF 		bl	osal_sys_time
ARM GAS  T:\msys\tmp\ccnGkxTA.s 			page 20


 707              	.LVL98:
 708 032e 029B     		ldr	r3, [sp, #8]
 709 0330 5B42     		rsbs	r3, r3, #0
 710 0332 0246     		mov	r2, r0
 711 0334 0093     		str	r3, [sp]
 712 0336 1848     		ldr	r0, .L79+32
 713 0338 124B     		ldr	r3, .L79+12
 714 033a 4946     		mov	r1, r9
 715 033c 84E7     		b	.L68
 716              	.LVL99:
 717              	.L76:
 218:D:/fchai/work/i-cube/I-CUBE-HUAWEI/Middlewares/Third_Party/Huawei/iot_link/network/dtls/mbedtls/mbedtls_port\dtls_interface.c ****                                  mbedtls_timing_get_delay);
 718              		.loc 1 218 9 is_stmt 1 view .LVU205
 719 033e 0399     		ldr	r1, [sp, #12]
 720 0340 164B     		ldr	r3, .L79+36
 721 0342 174A     		ldr	r2, .L79+40
 722 0344 2846     		mov	r0, r5
 723              	.LVL100:
 218:D:/fchai/work/i-cube/I-CUBE-HUAWEI/Middlewares/Third_Party/Huawei/iot_link/network/dtls/mbedtls/mbedtls_port\dtls_interface.c ****                                  mbedtls_timing_get_delay);
 724              		.loc 1 218 9 is_stmt 0 view .LVU206
 725 0346 FFF7FEFF 		bl	mbedtls_ssl_set_timer_cb
 726              	.LVL101:
 727 034a FEE6     		b	.L16
 728              	.LVL102:
 729              	.L78:
 178:D:/fchai/work/i-cube/I-CUBE-HUAWEI/Middlewares/Third_Party/Huawei/iot_link/network/dtls/mbedtls/mbedtls_port\dtls_interface.c ****             goto exit_fail;
 730              		.loc 1 178 13 is_stmt 1 view .LVU207
 178:D:/fchai/work/i-cube/I-CUBE-HUAWEI/Middlewares/Third_Party/Huawei/iot_link/network/dtls/mbedtls/mbedtls_port\dtls_interface.c ****             goto exit_fail;
 731              		.loc 1 178 13 view .LVU208
 732 034c 0493     		str	r3, [sp, #16]
 733              	.LVL103:
 178:D:/fchai/work/i-cube/I-CUBE-HUAWEI/Middlewares/Third_Party/Huawei/iot_link/network/dtls/mbedtls/mbedtls_port\dtls_interface.c ****             goto exit_fail;
 734              		.loc 1 178 13 is_stmt 0 view .LVU209
 735 034e 0292     		str	r2, [sp, #8]
 736 0350 FFF7FEFF 		bl	link_log_level_get
 737              	.LVL104:
 178:D:/fchai/work/i-cube/I-CUBE-HUAWEI/Middlewares/Third_Party/Huawei/iot_link/network/dtls/mbedtls/mbedtls_port\dtls_interface.c ****             goto exit_fail;
 738              		.loc 1 178 13 view .LVU210
 739 0354 0128     		cmp	r0, #1
 740 0356 049B     		ldr	r3, [sp, #16]
 741 0358 3FF64FAF 		bhi	.L4
 178:D:/fchai/work/i-cube/I-CUBE-HUAWEI/Middlewares/Third_Party/Huawei/iot_link/network/dtls/mbedtls/mbedtls_port\dtls_interface.c ****             goto exit_fail;
 742              		.loc 1 178 13 is_stmt 1 discriminator 1 view .LVU211
 178:D:/fchai/work/i-cube/I-CUBE-HUAWEI/Middlewares/Third_Party/Huawei/iot_link/network/dtls/mbedtls/mbedtls_port\dtls_interface.c ****             goto exit_fail;
 743              		.loc 1 178 13 discriminator 1 view .LVU212
 178:D:/fchai/work/i-cube/I-CUBE-HUAWEI/Middlewares/Third_Party/Huawei/iot_link/network/dtls/mbedtls/mbedtls_port\dtls_interface.c ****             goto exit_fail;
 744              		.loc 1 178 13 discriminator 1 view .LVU213
 745 035c 1846     		mov	r0, r3
 746 035e FFF7FEFF 		bl	link_log_level_name
 747              	.LVL105:
 748 0362 8146     		mov	r9, r0
 749              	.LVL106:
 178:D:/fchai/work/i-cube/I-CUBE-HUAWEI/Middlewares/Third_Party/Huawei/iot_link/network/dtls/mbedtls/mbedtls_port\dtls_interface.c ****             goto exit_fail;
 750              		.loc 1 178 13 is_stmt 0 discriminator 1 view .LVU214
 751 0364 FFF7FEFF 		bl	osal_sys_time
 752              	.LVL107:
 753 0368 029A     		ldr	r2, [sp, #8]
ARM GAS  T:\msys\tmp\ccnGkxTA.s 			page 21


 754 036a 5342     		rsbs	r3, r2, #0
 755 036c 0093     		str	r3, [sp]
 756 036e 0246     		mov	r2, r0
 757 0370 044B     		ldr	r3, .L79+12
 758 0372 0C48     		ldr	r0, .L79+44
 759 0374 4946     		mov	r1, r9
 760 0376 67E7     		b	.L68
 761              	.L80:
 762              		.align	2
 763              	.L79:
 764 0378 00000000 		.word	mbedtls_entropy_func
 765 037c 00000000 		.word	.LC0
 766 0380 00000000 		.word	mbedtls_ctr_drbg_random
 767 0384 00000000 		.word	.LANCHOR0
 768 0388 D0000000 		.word	.LC5
 769 038c 00000000 		.word	_impure_ptr
 770 0390 0C000000 		.word	.LC1
 771 0394 40000000 		.word	.LC2
 772 0398 A0000000 		.word	.LC4
 773 039c 00000000 		.word	mbedtls_timing_get_delay
 774 03a0 00000000 		.word	mbedtls_timing_set_delay
 775 03a4 6C000000 		.word	.LC3
 776              		.cfi_endproc
 777              	.LFE24:
 779              		.section	.rodata.dtls_shakehand.str1.4,"aMS",%progbits,1
 780              		.align	2
 781              	.LC6:
 782 0000 5B25735D 		.ascii	"[%s][%u][%s] connecting to server\015\012\000"
 782      5B25755D 
 782      5B25735D 
 782      20636F6E 
 782      6E656374 
 783              		.align	2
 784              	.LC7:
 785 0024 5B25735D 		.ascii	"[%s][%u][%s] connect failed! mode %d\015\012\000"
 785      5B25755D 
 785      5B25735D 
 785      20636F6E 
 785      6E656374 
 786 004b 00       		.align	2
 787              	.LC8:
 788 004c 5B25735D 		.ascii	"[%s][%u][%s] performing the SSL/TLS handshake\015\012"
 788      5B25755D 
 788      5B25735D 
 788      20706572 
 788      666F726D 
 789 007b 00       		.ascii	"\000"
 790              		.align	2
 791              	.LC9:
 792 007c 5B25735D 		.ascii	"[%s][%u][%s] mbedtls_ssl_handshake failed: -0x%x\015"
 792      5B25755D 
 792      5B25735D 
 792      206D6265 
 792      64746C73 
 793 00ad 0A00     		.ascii	"\012\000"
 794 00af 00       		.align	2
 795              	.LC10:
ARM GAS  T:\msys\tmp\ccnGkxTA.s 			page 22


 796 00b0 20202120 		.ascii	"  ! \000"
 796      00
 797 00b5 000000   		.align	2
 798              	.LC11:
 799 00b8 5B25735D 		.ascii	"[%s][%u][%s] cert verify failed: %s\015\012\000"
 799      5B25755D 
 799      5B25735D 
 799      20636572 
 799      74207665 
 800 00de 0000     		.align	2
 801              	.LC12:
 802 00e0 5B25735D 		.ascii	"[%s][%u][%s] cert verify succeed\015\012\000"
 802      5B25755D 
 802      5B25735D 
 802      20636572 
 802      74207665 
 803 0103 00       		.align	2
 804              	.LC13:
 805 0104 5B25735D 		.ascii	"[%s][%u][%s] handshake succeed\015\012\000"
 805      5B25755D 
 805      5B25735D 
 805      2068616E 
 805      64736861 
 806              		.section	.text.dtls_shakehand,"ax",%progbits
 807              		.align	1
 808              		.p2align 2,,3
 809              		.global	dtls_shakehand
 810              		.syntax unified
 811              		.thumb
 812              		.thumb_func
 813              		.fpu fpv4-sp-d16
 815              	dtls_shakehand:
 816              	.LVL108:
 817              	.LFB26:
 278:D:/fchai/work/i-cube/I-CUBE-HUAWEI/Middlewares/Third_Party/Huawei/iot_link/network/dtls/mbedtls/mbedtls_port\dtls_interface.c **** 
 279:D:/fchai/work/i-cube/I-CUBE-HUAWEI/Middlewares/Third_Party/Huawei/iot_link/network/dtls/mbedtls/mbedtls_port\dtls_interface.c **** static inline uint32_t dtls_gettime()
 280:D:/fchai/work/i-cube/I-CUBE-HUAWEI/Middlewares/Third_Party/Huawei/iot_link/network/dtls/mbedtls/mbedtls_port\dtls_interface.c **** {
 281:D:/fchai/work/i-cube/I-CUBE-HUAWEI/Middlewares/Third_Party/Huawei/iot_link/network/dtls/mbedtls/mbedtls_port\dtls_interface.c ****     return (uint32_t)(osal_sys_time() );
 282:D:/fchai/work/i-cube/I-CUBE-HUAWEI/Middlewares/Third_Party/Huawei/iot_link/network/dtls/mbedtls/mbedtls_port\dtls_interface.c **** }
 283:D:/fchai/work/i-cube/I-CUBE-HUAWEI/Middlewares/Third_Party/Huawei/iot_link/network/dtls/mbedtls/mbedtls_port\dtls_interface.c **** 
 284:D:/fchai/work/i-cube/I-CUBE-HUAWEI/Middlewares/Third_Party/Huawei/iot_link/network/dtls/mbedtls/mbedtls_port\dtls_interface.c **** int dtls_shakehand(mbedtls_ssl_context *ssl, const dtls_shakehand_info_s *info)
 285:D:/fchai/work/i-cube/I-CUBE-HUAWEI/Middlewares/Third_Party/Huawei/iot_link/network/dtls/mbedtls/mbedtls_port\dtls_interface.c **** {
 818              		.loc 1 285 1 is_stmt 1 view -0
 819              		.cfi_startproc
 820              		@ args = 0, pretend = 0, frame = 512
 821              		@ frame_needed = 0, uses_anonymous_args = 0
 286:D:/fchai/work/i-cube/I-CUBE-HUAWEI/Middlewares/Third_Party/Huawei/iot_link/network/dtls/mbedtls/mbedtls_port\dtls_interface.c ****     int ret = MBEDTLS_ERR_NET_CONNECT_FAILED;
 822              		.loc 1 286 5 view .LVU216
 287:D:/fchai/work/i-cube/I-CUBE-HUAWEI/Middlewares/Third_Party/Huawei/iot_link/network/dtls/mbedtls/mbedtls_port\dtls_interface.c ****     uint32_t change_value = 0;
 823              		.loc 1 287 5 view .LVU217
 288:D:/fchai/work/i-cube/I-CUBE-HUAWEI/Middlewares/Third_Party/Huawei/iot_link/network/dtls/mbedtls/mbedtls_port\dtls_interface.c ****     mbedtls_net_context *server_fd = NULL;
 824              		.loc 1 288 5 view .LVU218
 289:D:/fchai/work/i-cube/I-CUBE-HUAWEI/Middlewares/Third_Party/Huawei/iot_link/network/dtls/mbedtls/mbedtls_port\dtls_interface.c ****     uint32_t max_value;
 825              		.loc 1 289 5 view .LVU219
 290:D:/fchai/work/i-cube/I-CUBE-HUAWEI/Middlewares/Third_Party/Huawei/iot_link/network/dtls/mbedtls/mbedtls_port\dtls_interface.c **** #if defined(MBEDTLS_X509_CRT_PARSE_C)
 291:D:/fchai/work/i-cube/I-CUBE-HUAWEI/Middlewares/Third_Party/Huawei/iot_link/network/dtls/mbedtls/mbedtls_port\dtls_interface.c ****     unsigned int flags;
 826              		.loc 1 291 5 view .LVU220
ARM GAS  T:\msys\tmp\ccnGkxTA.s 			page 23


 292:D:/fchai/work/i-cube/I-CUBE-HUAWEI/Middlewares/Third_Party/Huawei/iot_link/network/dtls/mbedtls/mbedtls_port\dtls_interface.c **** #endif
 293:D:/fchai/work/i-cube/I-CUBE-HUAWEI/Middlewares/Third_Party/Huawei/iot_link/network/dtls/mbedtls/mbedtls_port\dtls_interface.c **** 
 294:D:/fchai/work/i-cube/I-CUBE-HUAWEI/Middlewares/Third_Party/Huawei/iot_link/network/dtls/mbedtls/mbedtls_port\dtls_interface.c ****     MBEDTLS_LOG("connecting to server");
 827              		.loc 1 294 5 view .LVU221
 828              		.loc 1 294 5 view .LVU222
 285:D:/fchai/work/i-cube/I-CUBE-HUAWEI/Middlewares/Third_Party/Huawei/iot_link/network/dtls/mbedtls/mbedtls_port\dtls_interface.c ****     int ret = MBEDTLS_ERR_NET_CONNECT_FAILED;
 829              		.loc 1 285 1 is_stmt 0 view .LVU223
 830 0000 2DE9F043 		push	{r4, r5, r6, r7, r8, r9, lr}
 831              	.LCFI4:
 832              		.cfi_def_cfa_offset 28
 833              		.cfi_offset 4, -28
 834              		.cfi_offset 5, -24
 835              		.cfi_offset 6, -20
 836              		.cfi_offset 7, -16
 837              		.cfi_offset 8, -12
 838              		.cfi_offset 9, -8
 839              		.cfi_offset 14, -4
 840 0004 ADF5037D 		sub	sp, sp, #524
 841              	.LCFI5:
 842              		.cfi_def_cfa_offset 552
 285:D:/fchai/work/i-cube/I-CUBE-HUAWEI/Middlewares/Third_Party/Huawei/iot_link/network/dtls/mbedtls/mbedtls_port\dtls_interface.c ****     int ret = MBEDTLS_ERR_NET_CONNECT_FAILED;
 843              		.loc 1 285 1 view .LVU224
 844 0008 0746     		mov	r7, r0
 845 000a 0D46     		mov	r5, r1
 846              		.loc 1 294 5 view .LVU225
 847 000c FFF7FEFF 		bl	link_log_level_get
 848              	.LVL109:
 849              		.loc 1 294 5 view .LVU226
 850 0010 0128     		cmp	r0, #1
 851 0012 6BD9     		bls	.L128
 852              	.L82:
 853              		.loc 1 294 5 is_stmt 1 discriminator 3 view .LVU227
 854              		.loc 1 294 5 discriminator 3 view .LVU228
 855              		.loc 1 294 5 discriminator 3 view .LVU229
 295:D:/fchai/work/i-cube/I-CUBE-HUAWEI/Middlewares/Third_Party/Huawei/iot_link/network/dtls/mbedtls/mbedtls_port\dtls_interface.c **** 
 296:D:/fchai/work/i-cube/I-CUBE-HUAWEI/Middlewares/Third_Party/Huawei/iot_link/network/dtls/mbedtls/mbedtls_port\dtls_interface.c ****     server_fd = (mbedtls_net_context *)osal_malloc(sizeof(mbedtls_net_context));
 856              		.loc 1 296 5 discriminator 3 view .LVU230
 857              		.loc 1 296 40 is_stmt 0 discriminator 3 view .LVU231
 858 0014 0420     		movs	r0, #4
 859 0016 FFF7FEFF 		bl	osal_malloc
 860              	.LVL110:
 297:D:/fchai/work/i-cube/I-CUBE-HUAWEI/Middlewares/Third_Party/Huawei/iot_link/network/dtls/mbedtls/mbedtls_port\dtls_interface.c ****     if (server_fd == NULL)
 861              		.loc 1 297 5 is_stmt 1 discriminator 3 view .LVU232
 862              		.loc 1 297 8 is_stmt 0 discriminator 3 view .LVU233
 863 001a 8146     		mov	r9, r0
 864 001c 0028     		cmp	r0, #0
 865 001e 00F0EE80 		beq	.L129
 298:D:/fchai/work/i-cube/I-CUBE-HUAWEI/Middlewares/Third_Party/Huawei/iot_link/network/dtls/mbedtls/mbedtls_port\dtls_interface.c ****     {
 299:D:/fchai/work/i-cube/I-CUBE-HUAWEI/Middlewares/Third_Party/Huawei/iot_link/network/dtls/mbedtls/mbedtls_port\dtls_interface.c ****         MBEDTLS_LOG("connect failed! mode %d", info->client_or_server);
 300:D:/fchai/work/i-cube/I-CUBE-HUAWEI/Middlewares/Third_Party/Huawei/iot_link/network/dtls/mbedtls/mbedtls_port\dtls_interface.c ****         ret = MBEDTLS_ERR_NET_CONNECT_FAILED;
 301:D:/fchai/work/i-cube/I-CUBE-HUAWEI/Middlewares/Third_Party/Huawei/iot_link/network/dtls/mbedtls/mbedtls_port\dtls_interface.c ****         goto exit_fail;
 302:D:/fchai/work/i-cube/I-CUBE-HUAWEI/Middlewares/Third_Party/Huawei/iot_link/network/dtls/mbedtls/mbedtls_port\dtls_interface.c ****     }
 303:D:/fchai/work/i-cube/I-CUBE-HUAWEI/Middlewares/Third_Party/Huawei/iot_link/network/dtls/mbedtls/mbedtls_port\dtls_interface.c **** 
 304:D:/fchai/work/i-cube/I-CUBE-HUAWEI/Middlewares/Third_Party/Huawei/iot_link/network/dtls/mbedtls/mbedtls_port\dtls_interface.c ****     if (MBEDTLS_SSL_IS_CLIENT == info->client_or_server)
 866              		.loc 1 304 5 is_stmt 1 view .LVU234
 867              		.loc 1 304 8 is_stmt 0 view .LVU235
 868 0022 EB68     		ldr	r3, [r5, #12]
ARM GAS  T:\msys\tmp\ccnGkxTA.s 			page 24


 869 0024 002B     		cmp	r3, #0
 870 0026 36D0     		beq	.L85
 871              	.LVL111:
 872              	.L89:
 305:D:/fchai/work/i-cube/I-CUBE-HUAWEI/Middlewares/Third_Party/Huawei/iot_link/network/dtls/mbedtls/mbedtls_port\dtls_interface.c ****     {
 306:D:/fchai/work/i-cube/I-CUBE-HUAWEI/Middlewares/Third_Party/Huawei/iot_link/network/dtls/mbedtls/mbedtls_port\dtls_interface.c ****         ret = mbedtls_net_connect(server_fd, info->u.c.host, info->u.c.port, info->udp_or_tcp);
 307:D:/fchai/work/i-cube/I-CUBE-HUAWEI/Middlewares/Third_Party/Huawei/iot_link/network/dtls/mbedtls/mbedtls_port\dtls_interface.c ****         if( 0 != ret)
 308:D:/fchai/work/i-cube/I-CUBE-HUAWEI/Middlewares/Third_Party/Huawei/iot_link/network/dtls/mbedtls/mbedtls_port\dtls_interface.c ****         {
 309:D:/fchai/work/i-cube/I-CUBE-HUAWEI/Middlewares/Third_Party/Huawei/iot_link/network/dtls/mbedtls/mbedtls_port\dtls_interface.c ****             ret = MBEDTLS_ERR_NET_CONNECT_FAILED;
 310:D:/fchai/work/i-cube/I-CUBE-HUAWEI/Middlewares/Third_Party/Huawei/iot_link/network/dtls/mbedtls/mbedtls_port\dtls_interface.c ****             goto exit_fail;
 311:D:/fchai/work/i-cube/I-CUBE-HUAWEI/Middlewares/Third_Party/Huawei/iot_link/network/dtls/mbedtls/mbedtls_port\dtls_interface.c ****         }
 312:D:/fchai/work/i-cube/I-CUBE-HUAWEI/Middlewares/Third_Party/Huawei/iot_link/network/dtls/mbedtls/mbedtls_port\dtls_interface.c ****     }
 313:D:/fchai/work/i-cube/I-CUBE-HUAWEI/Middlewares/Third_Party/Huawei/iot_link/network/dtls/mbedtls/mbedtls_port\dtls_interface.c ****     else
 314:D:/fchai/work/i-cube/I-CUBE-HUAWEI/Middlewares/Third_Party/Huawei/iot_link/network/dtls/mbedtls/mbedtls_port\dtls_interface.c ****     {
 315:D:/fchai/work/i-cube/I-CUBE-HUAWEI/Middlewares/Third_Party/Huawei/iot_link/network/dtls/mbedtls/mbedtls_port\dtls_interface.c ****         //server_fd = (mbedtls_net_context*)atiny_net_bind(NULL, info->u.s.local_port, MBEDTLS_NET_
 316:D:/fchai/work/i-cube/I-CUBE-HUAWEI/Middlewares/Third_Party/Huawei/iot_link/network/dtls/mbedtls/mbedtls_port\dtls_interface.c ****         ///< --TODO ,not implement yet
 317:D:/fchai/work/i-cube/I-CUBE-HUAWEI/Middlewares/Third_Party/Huawei/iot_link/network/dtls/mbedtls/mbedtls_port\dtls_interface.c ****     }
 873              		.loc 1 317 5 is_stmt 1 view .LVU236
 318:D:/fchai/work/i-cube/I-CUBE-HUAWEI/Middlewares/Third_Party/Huawei/iot_link/network/dtls/mbedtls/mbedtls_port\dtls_interface.c **** 
 319:D:/fchai/work/i-cube/I-CUBE-HUAWEI/Middlewares/Third_Party/Huawei/iot_link/network/dtls/mbedtls/mbedtls_port\dtls_interface.c ****     mbedtls_ssl_set_bio(ssl, server_fd,
 874              		.loc 1 319 5 view .LVU237
 875 0028 834B     		ldr	r3, .L136
 876 002a 844A     		ldr	r2, .L136+4
 877 002c 0093     		str	r3, [sp]
 878 002e 4946     		mov	r1, r9
 879 0030 834B     		ldr	r3, .L136+8
 880 0032 3846     		mov	r0, r7
 881 0034 FFF7FEFF 		bl	mbedtls_ssl_set_bio
 882              	.LVL112:
 320:D:/fchai/work/i-cube/I-CUBE-HUAWEI/Middlewares/Third_Party/Huawei/iot_link/network/dtls/mbedtls/mbedtls_port\dtls_interface.c ****                         mbedtls_net_send, mbedtls_net_recv, mbedtls_net_recv_timeout);
 321:D:/fchai/work/i-cube/I-CUBE-HUAWEI/Middlewares/Third_Party/Huawei/iot_link/network/dtls/mbedtls/mbedtls_port\dtls_interface.c **** 
 322:D:/fchai/work/i-cube/I-CUBE-HUAWEI/Middlewares/Third_Party/Huawei/iot_link/network/dtls/mbedtls/mbedtls_port\dtls_interface.c ****     MBEDTLS_LOG("performing the SSL/TLS handshake");
 883              		.loc 1 322 5 view .LVU238
 884              		.loc 1 322 5 view .LVU239
 885 0038 FFF7FEFF 		bl	link_log_level_get
 886              	.LVL113:
 887 003c 0128     		cmp	r0, #1
 888 003e 40F29980 		bls	.L130
 889              	.L87:
 890              		.loc 1 322 5 discriminator 3 view .LVU240
 891              		.loc 1 322 5 discriminator 3 view .LVU241
 892              		.loc 1 322 5 discriminator 3 view .LVU242
 323:D:/fchai/work/i-cube/I-CUBE-HUAWEI/Middlewares/Third_Party/Huawei/iot_link/network/dtls/mbedtls/mbedtls_port\dtls_interface.c **** 
 324:D:/fchai/work/i-cube/I-CUBE-HUAWEI/Middlewares/Third_Party/Huawei/iot_link/network/dtls/mbedtls/mbedtls_port\dtls_interface.c ****     max_value = ((MBEDTLS_SSL_IS_SERVER == info->client_or_server || info->udp_or_tcp == MBEDTLS_NE
 893              		.loc 1 324 5 discriminator 3 view .LVU243
 325:D:/fchai/work/i-cube/I-CUBE-HUAWEI/Middlewares/Third_Party/Huawei/iot_link/network/dtls/mbedtls/mbedtls_port\dtls_interface.c ****                 (dtls_gettime() + info->timeout) :  50);
 894              		.loc 1 325 50 is_stmt 0 discriminator 3 view .LVU244
 895 0042 EB68     		ldr	r3, [r5, #12]
 896 0044 012B     		cmp	r3, #1
 897 0046 39D0     		beq	.L90
 324:D:/fchai/work/i-cube/I-CUBE-HUAWEI/Middlewares/Third_Party/Huawei/iot_link/network/dtls/mbedtls/mbedtls_port\dtls_interface.c ****                 (dtls_gettime() + info->timeout) :  50);
 898              		.loc 1 324 67 view .LVU245
 899 0048 2B69     		ldr	r3, [r5, #16]
 900 004a 012B     		cmp	r3, #1
 901 004c 36D0     		beq	.L90
 902              		.loc 1 325 50 view .LVU246
 903 004e 4FF03208 		mov	r8, #50
ARM GAS  T:\msys\tmp\ccnGkxTA.s 			page 25


 904              	.L91:
 905              	.LVL114:
 287:D:/fchai/work/i-cube/I-CUBE-HUAWEI/Middlewares/Third_Party/Huawei/iot_link/network/dtls/mbedtls/mbedtls_port\dtls_interface.c ****     mbedtls_net_context *server_fd = NULL;
 906              		.loc 1 287 14 view .LVU247
 907 0052 0026     		movs	r6, #0
 908 0054 12E0     		b	.L98
 909              	.LVL115:
 910              	.L131:
 326:D:/fchai/work/i-cube/I-CUBE-HUAWEI/Middlewares/Third_Party/Huawei/iot_link/network/dtls/mbedtls/mbedtls_port\dtls_interface.c **** 
 327:D:/fchai/work/i-cube/I-CUBE-HUAWEI/Middlewares/Third_Party/Huawei/iot_link/network/dtls/mbedtls/mbedtls_port\dtls_interface.c ****     do
 328:D:/fchai/work/i-cube/I-CUBE-HUAWEI/Middlewares/Third_Party/Huawei/iot_link/network/dtls/mbedtls/mbedtls_port\dtls_interface.c ****     {
 329:D:/fchai/work/i-cube/I-CUBE-HUAWEI/Middlewares/Third_Party/Huawei/iot_link/network/dtls/mbedtls/mbedtls_port\dtls_interface.c ****         ret = mbedtls_ssl_handshake(ssl);
 330:D:/fchai/work/i-cube/I-CUBE-HUAWEI/Middlewares/Third_Party/Huawei/iot_link/network/dtls/mbedtls/mbedtls_port\dtls_interface.c **** 
 331:D:/fchai/work/i-cube/I-CUBE-HUAWEI/Middlewares/Third_Party/Huawei/iot_link/network/dtls/mbedtls/mbedtls_port\dtls_interface.c ****         if (MBEDTLS_SSL_IS_CLIENT == info->client_or_server && info->udp_or_tcp == MBEDTLS_NET_PROT
 332:D:/fchai/work/i-cube/I-CUBE-HUAWEI/Middlewares/Third_Party/Huawei/iot_link/network/dtls/mbedtls/mbedtls_port\dtls_interface.c ****         {
 333:D:/fchai/work/i-cube/I-CUBE-HUAWEI/Middlewares/Third_Party/Huawei/iot_link/network/dtls/mbedtls/mbedtls_port\dtls_interface.c ****             change_value++;
 911              		.loc 1 333 25 view .LVU248
 912 0056 0136     		adds	r6, r6, #1
 913              	.LVL116:
 914              	.L93:
 334:D:/fchai/work/i-cube/I-CUBE-HUAWEI/Middlewares/Third_Party/Huawei/iot_link/network/dtls/mbedtls/mbedtls_port\dtls_interface.c ****         }
 335:D:/fchai/work/i-cube/I-CUBE-HUAWEI/Middlewares/Third_Party/Huawei/iot_link/network/dtls/mbedtls/mbedtls_port\dtls_interface.c ****         else
 336:D:/fchai/work/i-cube/I-CUBE-HUAWEI/Middlewares/Third_Party/Huawei/iot_link/network/dtls/mbedtls/mbedtls_port\dtls_interface.c ****         {
 337:D:/fchai/work/i-cube/I-CUBE-HUAWEI/Middlewares/Third_Party/Huawei/iot_link/network/dtls/mbedtls/mbedtls_port\dtls_interface.c ****             change_value = dtls_gettime();
 338:D:/fchai/work/i-cube/I-CUBE-HUAWEI/Middlewares/Third_Party/Huawei/iot_link/network/dtls/mbedtls/mbedtls_port\dtls_interface.c ****         }
 339:D:/fchai/work/i-cube/I-CUBE-HUAWEI/Middlewares/Third_Party/Huawei/iot_link/network/dtls/mbedtls/mbedtls_port\dtls_interface.c **** 
 340:D:/fchai/work/i-cube/I-CUBE-HUAWEI/Middlewares/Third_Party/Huawei/iot_link/network/dtls/mbedtls/mbedtls_port\dtls_interface.c ****         if (info->step_notify)
 915              		.loc 1 340 9 is_stmt 1 view .LVU249
 341:D:/fchai/work/i-cube/I-CUBE-HUAWEI/Middlewares/Third_Party/Huawei/iot_link/network/dtls/mbedtls/mbedtls_port\dtls_interface.c ****         {
 342:D:/fchai/work/i-cube/I-CUBE-HUAWEI/Middlewares/Third_Party/Huawei/iot_link/network/dtls/mbedtls/mbedtls_port\dtls_interface.c ****             info->step_notify(info->param);
 916              		.loc 1 342 13 view .LVU250
 340:D:/fchai/work/i-cube/I-CUBE-HUAWEI/Middlewares/Third_Party/Huawei/iot_link/network/dtls/mbedtls/mbedtls_port\dtls_interface.c ****         {
 917              		.loc 1 340 17 is_stmt 0 view .LVU251
 918 0058 AB69     		ldr	r3, [r5, #24]
 340:D:/fchai/work/i-cube/I-CUBE-HUAWEI/Middlewares/Third_Party/Huawei/iot_link/network/dtls/mbedtls/mbedtls_port\dtls_interface.c ****         {
 919              		.loc 1 340 12 view .LVU252
 920 005a 0BB1     		cbz	r3, .L94
 921              		.loc 1 342 13 view .LVU253
 922 005c 286A     		ldr	r0, [r5, #32]
 923 005e 9847     		blx	r3
 924              	.LVL117:
 925              	.L94:
 343:D:/fchai/work/i-cube/I-CUBE-HUAWEI/Middlewares/Third_Party/Huawei/iot_link/network/dtls/mbedtls/mbedtls_port\dtls_interface.c ****         }
 344:D:/fchai/work/i-cube/I-CUBE-HUAWEI/Middlewares/Third_Party/Huawei/iot_link/network/dtls/mbedtls/mbedtls_port\dtls_interface.c ****     }
 345:D:/fchai/work/i-cube/I-CUBE-HUAWEI/Middlewares/Third_Party/Huawei/iot_link/network/dtls/mbedtls/mbedtls_port\dtls_interface.c ****     while ((ret == MBEDTLS_ERR_SSL_WANT_READ ||
 926              		.loc 1 345 11 is_stmt 1 view .LVU254
 346:D:/fchai/work/i-cube/I-CUBE-HUAWEI/Middlewares/Third_Party/Huawei/iot_link/network/dtls/mbedtls/mbedtls_port\dtls_interface.c ****             ret == MBEDTLS_ERR_SSL_WANT_WRITE ||
 347:D:/fchai/work/i-cube/I-CUBE-HUAWEI/Middlewares/Third_Party/Huawei/iot_link/network/dtls/mbedtls/mbedtls_port\dtls_interface.c ****             (ret == MBEDTLS_ERR_SSL_TIMEOUT &&
 348:D:/fchai/work/i-cube/I-CUBE-HUAWEI/Middlewares/Third_Party/Huawei/iot_link/network/dtls/mbedtls/mbedtls_port\dtls_interface.c ****             info->udp_or_tcp == MBEDTLS_NET_PROTO_TCP)) &&
 349:D:/fchai/work/i-cube/I-CUBE-HUAWEI/Middlewares/Third_Party/Huawei/iot_link/network/dtls/mbedtls/mbedtls_port\dtls_interface.c ****             (change_value < max_value));
 927              		.loc 1 349 13 is_stmt 0 view .LVU255
 928 0060 24F08003 		bic	r3, r4, #128
 929 0064 13F5D24F 		cmn	r3, #26880
 930 0068 06D0     		beq	.L95
 346:D:/fchai/work/i-cube/I-CUBE-HUAWEI/Middlewares/Third_Party/Huawei/iot_link/network/dtls/mbedtls/mbedtls_port\dtls_interface.c ****             ret == MBEDTLS_ERR_SSL_WANT_WRITE ||
 931              		.loc 1 346 47 view .LVU256
 932 006a 14F5D04F 		cmn	r4, #26624
ARM GAS  T:\msys\tmp\ccnGkxTA.s 			page 26


 933 006e 2BD1     		bne	.L96
 347:D:/fchai/work/i-cube/I-CUBE-HUAWEI/Middlewares/Third_Party/Huawei/iot_link/network/dtls/mbedtls/mbedtls_port\dtls_interface.c ****             info->udp_or_tcp == MBEDTLS_NET_PROTO_TCP)) &&
 934              		.loc 1 347 45 view .LVU257
 935 0070 2B69     		ldr	r3, [r5, #16]
 936 0072 002B     		cmp	r3, #0
 937 0074 40F09080 		bne	.L97
 938              	.L95:
 348:D:/fchai/work/i-cube/I-CUBE-HUAWEI/Middlewares/Third_Party/Huawei/iot_link/network/dtls/mbedtls/mbedtls_port\dtls_interface.c ****             (change_value < max_value));
 939              		.loc 1 348 57 view .LVU258
 940 0078 4645     		cmp	r6, r8
 941 007a 25D2     		bcs	.L96
 942              	.LVL118:
 943              	.L98:
 327:D:/fchai/work/i-cube/I-CUBE-HUAWEI/Middlewares/Third_Party/Huawei/iot_link/network/dtls/mbedtls/mbedtls_port\dtls_interface.c ****     {
 944              		.loc 1 327 5 is_stmt 1 view .LVU259
 329:D:/fchai/work/i-cube/I-CUBE-HUAWEI/Middlewares/Third_Party/Huawei/iot_link/network/dtls/mbedtls/mbedtls_port\dtls_interface.c **** 
 945              		.loc 1 329 9 view .LVU260
 329:D:/fchai/work/i-cube/I-CUBE-HUAWEI/Middlewares/Third_Party/Huawei/iot_link/network/dtls/mbedtls/mbedtls_port\dtls_interface.c **** 
 946              		.loc 1 329 15 is_stmt 0 view .LVU261
 947 007c 3846     		mov	r0, r7
 948 007e FFF7FEFF 		bl	mbedtls_ssl_handshake
 949              	.LVL119:
 337:D:/fchai/work/i-cube/I-CUBE-HUAWEI/Middlewares/Third_Party/Huawei/iot_link/network/dtls/mbedtls/mbedtls_port\dtls_interface.c ****         }
 950              		.loc 1 337 13 is_stmt 1 view .LVU262
 951              	.LBB7:
 952              	.LBI7:
 279:D:/fchai/work/i-cube/I-CUBE-HUAWEI/Middlewares/Third_Party/Huawei/iot_link/network/dtls/mbedtls/mbedtls_port\dtls_interface.c **** {
 953              		.loc 1 279 24 view .LVU263
 954              	.LBB8:
 281:D:/fchai/work/i-cube/I-CUBE-HUAWEI/Middlewares/Third_Party/Huawei/iot_link/network/dtls/mbedtls/mbedtls_port\dtls_interface.c **** }
 955              		.loc 1 281 5 view .LVU264
 956              	.LBE8:
 957              	.LBE7:
 331:D:/fchai/work/i-cube/I-CUBE-HUAWEI/Middlewares/Third_Party/Huawei/iot_link/network/dtls/mbedtls/mbedtls_port\dtls_interface.c ****         {
 958              		.loc 1 331 12 is_stmt 0 view .LVU265
 959 0082 EB68     		ldr	r3, [r5, #12]
 329:D:/fchai/work/i-cube/I-CUBE-HUAWEI/Middlewares/Third_Party/Huawei/iot_link/network/dtls/mbedtls/mbedtls_port\dtls_interface.c **** 
 960              		.loc 1 329 15 view .LVU266
 961 0084 0446     		mov	r4, r0
 962              	.LVL120:
 331:D:/fchai/work/i-cube/I-CUBE-HUAWEI/Middlewares/Third_Party/Huawei/iot_link/network/dtls/mbedtls/mbedtls_port\dtls_interface.c ****         {
 963              		.loc 1 331 9 is_stmt 1 view .LVU267
 331:D:/fchai/work/i-cube/I-CUBE-HUAWEI/Middlewares/Third_Party/Huawei/iot_link/network/dtls/mbedtls/mbedtls_port\dtls_interface.c ****         {
 964              		.loc 1 331 12 is_stmt 0 view .LVU268
 965 0086 13B9     		cbnz	r3, .L92
 333:D:/fchai/work/i-cube/I-CUBE-HUAWEI/Middlewares/Third_Party/Huawei/iot_link/network/dtls/mbedtls/mbedtls_port\dtls_interface.c ****         }
 966              		.loc 1 333 13 is_stmt 1 discriminator 1 view .LVU269
 331:D:/fchai/work/i-cube/I-CUBE-HUAWEI/Middlewares/Third_Party/Huawei/iot_link/network/dtls/mbedtls/mbedtls_port\dtls_interface.c ****         {
 967              		.loc 1 331 61 is_stmt 0 discriminator 1 view .LVU270
 968 0088 2B69     		ldr	r3, [r5, #16]
 969 008a 002B     		cmp	r3, #0
 970 008c E3D0     		beq	.L131
 971              	.L92:
 972              	.LBB10:
 973              	.LBB9:
 281:D:/fchai/work/i-cube/I-CUBE-HUAWEI/Middlewares/Third_Party/Huawei/iot_link/network/dtls/mbedtls/mbedtls_port\dtls_interface.c **** }
 974              		.loc 1 281 23 view .LVU271
ARM GAS  T:\msys\tmp\ccnGkxTA.s 			page 27


 975 008e FFF7FEFF 		bl	osal_sys_time
 976              	.LVL121:
 281:D:/fchai/work/i-cube/I-CUBE-HUAWEI/Middlewares/Third_Party/Huawei/iot_link/network/dtls/mbedtls/mbedtls_port\dtls_interface.c **** }
 977              		.loc 1 281 23 view .LVU272
 978 0092 0646     		mov	r6, r0
 979              	.LVL122:
 281:D:/fchai/work/i-cube/I-CUBE-HUAWEI/Middlewares/Third_Party/Huawei/iot_link/network/dtls/mbedtls/mbedtls_port\dtls_interface.c **** }
 980              		.loc 1 281 23 view .LVU273
 981 0094 E0E7     		b	.L93
 982              	.LVL123:
 983              	.L85:
 281:D:/fchai/work/i-cube/I-CUBE-HUAWEI/Middlewares/Third_Party/Huawei/iot_link/network/dtls/mbedtls/mbedtls_port\dtls_interface.c **** }
 984              		.loc 1 281 23 view .LVU274
 985              	.LBE9:
 986              	.LBE10:
 306:D:/fchai/work/i-cube/I-CUBE-HUAWEI/Middlewares/Third_Party/Huawei/iot_link/network/dtls/mbedtls/mbedtls_port\dtls_interface.c ****         if( 0 != ret)
 987              		.loc 1 306 9 is_stmt 1 view .LVU275
 306:D:/fchai/work/i-cube/I-CUBE-HUAWEI/Middlewares/Third_Party/Huawei/iot_link/network/dtls/mbedtls/mbedtls_port\dtls_interface.c ****         if( 0 != ret)
 988              		.loc 1 306 15 is_stmt 0 view .LVU276
 989 0096 D5E90012 		ldrd	r1, r2, [r5]
 990 009a 2B69     		ldr	r3, [r5, #16]
 991 009c FFF7FEFF 		bl	mbedtls_net_connect
 992              	.LVL124:
 307:D:/fchai/work/i-cube/I-CUBE-HUAWEI/Middlewares/Third_Party/Huawei/iot_link/network/dtls/mbedtls/mbedtls_port\dtls_interface.c ****         {
 993              		.loc 1 307 9 is_stmt 1 view .LVU277
 307:D:/fchai/work/i-cube/I-CUBE-HUAWEI/Middlewares/Third_Party/Huawei/iot_link/network/dtls/mbedtls/mbedtls_port\dtls_interface.c ****         {
 994              		.loc 1 307 11 is_stmt 0 view .LVU278
 995 00a0 0028     		cmp	r0, #0
 996 00a2 C1D0     		beq	.L89
 309:D:/fchai/work/i-cube/I-CUBE-HUAWEI/Middlewares/Third_Party/Huawei/iot_link/network/dtls/mbedtls/mbedtls_port\dtls_interface.c ****             goto exit_fail;
 997              		.loc 1 309 17 view .LVU279
 998 00a4 6FF04304 		mvn	r4, #67
 999              	.LVL125:
 1000              	.L88:
 350:D:/fchai/work/i-cube/I-CUBE-HUAWEI/Middlewares/Third_Party/Huawei/iot_link/network/dtls/mbedtls/mbedtls_port\dtls_interface.c **** 
 351:D:/fchai/work/i-cube/I-CUBE-HUAWEI/Middlewares/Third_Party/Huawei/iot_link/network/dtls/mbedtls/mbedtls_port\dtls_interface.c ****     if (info->finish_notify)
 352:D:/fchai/work/i-cube/I-CUBE-HUAWEI/Middlewares/Third_Party/Huawei/iot_link/network/dtls/mbedtls/mbedtls_port\dtls_interface.c ****     {
 353:D:/fchai/work/i-cube/I-CUBE-HUAWEI/Middlewares/Third_Party/Huawei/iot_link/network/dtls/mbedtls/mbedtls_port\dtls_interface.c ****         info->finish_notify(info->param);
 354:D:/fchai/work/i-cube/I-CUBE-HUAWEI/Middlewares/Third_Party/Huawei/iot_link/network/dtls/mbedtls/mbedtls_port\dtls_interface.c ****     }
 355:D:/fchai/work/i-cube/I-CUBE-HUAWEI/Middlewares/Third_Party/Huawei/iot_link/network/dtls/mbedtls/mbedtls_port\dtls_interface.c **** 
 356:D:/fchai/work/i-cube/I-CUBE-HUAWEI/Middlewares/Third_Party/Huawei/iot_link/network/dtls/mbedtls/mbedtls_port\dtls_interface.c ****     if (ret != 0)
 357:D:/fchai/work/i-cube/I-CUBE-HUAWEI/Middlewares/Third_Party/Huawei/iot_link/network/dtls/mbedtls/mbedtls_port\dtls_interface.c ****     {
 358:D:/fchai/work/i-cube/I-CUBE-HUAWEI/Middlewares/Third_Party/Huawei/iot_link/network/dtls/mbedtls/mbedtls_port\dtls_interface.c ****         MBEDTLS_LOG("mbedtls_ssl_handshake failed: -0x%x", -ret);
 359:D:/fchai/work/i-cube/I-CUBE-HUAWEI/Middlewares/Third_Party/Huawei/iot_link/network/dtls/mbedtls/mbedtls_port\dtls_interface.c ****         goto exit_fail;
 360:D:/fchai/work/i-cube/I-CUBE-HUAWEI/Middlewares/Third_Party/Huawei/iot_link/network/dtls/mbedtls/mbedtls_port\dtls_interface.c ****     }
 361:D:/fchai/work/i-cube/I-CUBE-HUAWEI/Middlewares/Third_Party/Huawei/iot_link/network/dtls/mbedtls/mbedtls_port\dtls_interface.c **** 
 362:D:/fchai/work/i-cube/I-CUBE-HUAWEI/Middlewares/Third_Party/Huawei/iot_link/network/dtls/mbedtls/mbedtls_port\dtls_interface.c **** #if defined(MBEDTLS_X509_CRT_PARSE_C)
 363:D:/fchai/work/i-cube/I-CUBE-HUAWEI/Middlewares/Third_Party/Huawei/iot_link/network/dtls/mbedtls/mbedtls_port\dtls_interface.c ****     if (info->psk_or_cert == VERIFY_WITH_CERT)
 364:D:/fchai/work/i-cube/I-CUBE-HUAWEI/Middlewares/Third_Party/Huawei/iot_link/network/dtls/mbedtls/mbedtls_port\dtls_interface.c ****     {
 365:D:/fchai/work/i-cube/I-CUBE-HUAWEI/Middlewares/Third_Party/Huawei/iot_link/network/dtls/mbedtls/mbedtls_port\dtls_interface.c ****         if((flags = mbedtls_ssl_get_verify_result(ssl)) != 0)
 366:D:/fchai/work/i-cube/I-CUBE-HUAWEI/Middlewares/Third_Party/Huawei/iot_link/network/dtls/mbedtls/mbedtls_port\dtls_interface.c ****         {
 367:D:/fchai/work/i-cube/I-CUBE-HUAWEI/Middlewares/Third_Party/Huawei/iot_link/network/dtls/mbedtls/mbedtls_port\dtls_interface.c ****             char vrfy_buf[512];
 368:D:/fchai/work/i-cube/I-CUBE-HUAWEI/Middlewares/Third_Party/Huawei/iot_link/network/dtls/mbedtls/mbedtls_port\dtls_interface.c ****             (void) mbedtls_x509_crt_verify_info(vrfy_buf, sizeof(vrfy_buf), "  ! ", flags);
 369:D:/fchai/work/i-cube/I-CUBE-HUAWEI/Middlewares/Third_Party/Huawei/iot_link/network/dtls/mbedtls/mbedtls_port\dtls_interface.c ****             MBEDTLS_LOG("cert verify failed: %s", vrfy_buf);
 370:D:/fchai/work/i-cube/I-CUBE-HUAWEI/Middlewares/Third_Party/Huawei/iot_link/network/dtls/mbedtls/mbedtls_port\dtls_interface.c ****             goto exit_fail;
 371:D:/fchai/work/i-cube/I-CUBE-HUAWEI/Middlewares/Third_Party/Huawei/iot_link/network/dtls/mbedtls/mbedtls_port\dtls_interface.c ****         }
 372:D:/fchai/work/i-cube/I-CUBE-HUAWEI/Middlewares/Third_Party/Huawei/iot_link/network/dtls/mbedtls/mbedtls_port\dtls_interface.c ****         else
ARM GAS  T:\msys\tmp\ccnGkxTA.s 			page 28


 373:D:/fchai/work/i-cube/I-CUBE-HUAWEI/Middlewares/Third_Party/Huawei/iot_link/network/dtls/mbedtls/mbedtls_port\dtls_interface.c ****             MBEDTLS_LOG("cert verify succeed");
 374:D:/fchai/work/i-cube/I-CUBE-HUAWEI/Middlewares/Third_Party/Huawei/iot_link/network/dtls/mbedtls/mbedtls_port\dtls_interface.c ****     }
 375:D:/fchai/work/i-cube/I-CUBE-HUAWEI/Middlewares/Third_Party/Huawei/iot_link/network/dtls/mbedtls/mbedtls_port\dtls_interface.c **** #endif
 376:D:/fchai/work/i-cube/I-CUBE-HUAWEI/Middlewares/Third_Party/Huawei/iot_link/network/dtls/mbedtls/mbedtls_port\dtls_interface.c **** 
 377:D:/fchai/work/i-cube/I-CUBE-HUAWEI/Middlewares/Third_Party/Huawei/iot_link/network/dtls/mbedtls/mbedtls_port\dtls_interface.c ****     MBEDTLS_LOG("handshake succeed");
 378:D:/fchai/work/i-cube/I-CUBE-HUAWEI/Middlewares/Third_Party/Huawei/iot_link/network/dtls/mbedtls/mbedtls_port\dtls_interface.c **** 
 379:D:/fchai/work/i-cube/I-CUBE-HUAWEI/Middlewares/Third_Party/Huawei/iot_link/network/dtls/mbedtls/mbedtls_port\dtls_interface.c ****     return 0;
 380:D:/fchai/work/i-cube/I-CUBE-HUAWEI/Middlewares/Third_Party/Huawei/iot_link/network/dtls/mbedtls/mbedtls_port\dtls_interface.c **** 
 381:D:/fchai/work/i-cube/I-CUBE-HUAWEI/Middlewares/Third_Party/Huawei/iot_link/network/dtls/mbedtls/mbedtls_port\dtls_interface.c **** exit_fail:
 382:D:/fchai/work/i-cube/I-CUBE-HUAWEI/Middlewares/Third_Party/Huawei/iot_link/network/dtls/mbedtls/mbedtls_port\dtls_interface.c **** 
 383:D:/fchai/work/i-cube/I-CUBE-HUAWEI/Middlewares/Third_Party/Huawei/iot_link/network/dtls/mbedtls/mbedtls_port\dtls_interface.c ****     if (server_fd)
 1001              		.loc 1 383 5 is_stmt 1 view .LVU280
 384:D:/fchai/work/i-cube/I-CUBE-HUAWEI/Middlewares/Third_Party/Huawei/iot_link/network/dtls/mbedtls/mbedtls_port\dtls_interface.c ****     {
 385:D:/fchai/work/i-cube/I-CUBE-HUAWEI/Middlewares/Third_Party/Huawei/iot_link/network/dtls/mbedtls/mbedtls_port\dtls_interface.c ****         mbedtls_net_free(server_fd);
 1002              		.loc 1 385 9 view .LVU281
 1003 00a8 4846     		mov	r0, r9
 1004 00aa FFF7FEFF 		bl	mbedtls_net_free
 1005              	.LVL126:
 386:D:/fchai/work/i-cube/I-CUBE-HUAWEI/Middlewares/Third_Party/Huawei/iot_link/network/dtls/mbedtls/mbedtls_port\dtls_interface.c ****         ssl->p_bio = NULL;
 1006              		.loc 1 386 9 view .LVU282
 1007              		.loc 1 386 20 is_stmt 0 view .LVU283
 1008 00ae 0023     		movs	r3, #0
 387:D:/fchai/work/i-cube/I-CUBE-HUAWEI/Middlewares/Third_Party/Huawei/iot_link/network/dtls/mbedtls/mbedtls_port\dtls_interface.c ****     }
 388:D:/fchai/work/i-cube/I-CUBE-HUAWEI/Middlewares/Third_Party/Huawei/iot_link/network/dtls/mbedtls/mbedtls_port\dtls_interface.c **** 
 389:D:/fchai/work/i-cube/I-CUBE-HUAWEI/Middlewares/Third_Party/Huawei/iot_link/network/dtls/mbedtls/mbedtls_port\dtls_interface.c ****     return ret;
 390:D:/fchai/work/i-cube/I-CUBE-HUAWEI/Middlewares/Third_Party/Huawei/iot_link/network/dtls/mbedtls/mbedtls_port\dtls_interface.c **** 
 391:D:/fchai/work/i-cube/I-CUBE-HUAWEI/Middlewares/Third_Party/Huawei/iot_link/network/dtls/mbedtls/mbedtls_port\dtls_interface.c **** }
 1009              		.loc 1 391 1 view .LVU284
 1010 00b0 2046     		mov	r0, r4
 386:D:/fchai/work/i-cube/I-CUBE-HUAWEI/Middlewares/Third_Party/Huawei/iot_link/network/dtls/mbedtls/mbedtls_port\dtls_interface.c ****         ssl->p_bio = NULL;
 1011              		.loc 1 386 20 view .LVU285
 1012 00b2 7B62     		str	r3, [r7, #36]
 1013              		.loc 1 391 1 view .LVU286
 1014 00b4 0DF5037D 		add	sp, sp, #524
 1015              	.LCFI6:
 1016              		.cfi_remember_state
 1017              		.cfi_def_cfa_offset 28
 1018              		@ sp needed
 1019 00b8 BDE8F083 		pop	{r4, r5, r6, r7, r8, r9, pc}
 1020              	.LVL127:
 1021              	.L90:
 1022              	.LCFI7:
 1023              		.cfi_restore_state
 1024              	.LBB11:
 1025              	.LBI11:
 279:D:/fchai/work/i-cube/I-CUBE-HUAWEI/Middlewares/Third_Party/Huawei/iot_link/network/dtls/mbedtls/mbedtls_port\dtls_interface.c **** {
 1026              		.loc 1 279 24 is_stmt 1 view .LVU287
 1027              	.LBB12:
 281:D:/fchai/work/i-cube/I-CUBE-HUAWEI/Middlewares/Third_Party/Huawei/iot_link/network/dtls/mbedtls/mbedtls_port\dtls_interface.c **** }
 1028              		.loc 1 281 5 view .LVU288
 281:D:/fchai/work/i-cube/I-CUBE-HUAWEI/Middlewares/Third_Party/Huawei/iot_link/network/dtls/mbedtls/mbedtls_port\dtls_interface.c **** }
 1029              		.loc 1 281 23 is_stmt 0 view .LVU289
 1030 00bc FFF7FEFF 		bl	osal_sys_time
 1031              	.LVL128:
 1032              	.LBE12:
 1033              	.LBE11:
 325:D:/fchai/work/i-cube/I-CUBE-HUAWEI/Middlewares/Third_Party/Huawei/iot_link/network/dtls/mbedtls/mbedtls_port\dtls_interface.c **** 
ARM GAS  T:\msys\tmp\ccnGkxTA.s 			page 29


 1034              		.loc 1 325 50 view .LVU290
 1035 00c0 AB68     		ldr	r3, [r5, #8]
 1036 00c2 03EB0008 		add	r8, r3, r0
 1037 00c6 C4E7     		b	.L91
 1038              	.LVL129:
 1039              	.L96:
 351:D:/fchai/work/i-cube/I-CUBE-HUAWEI/Middlewares/Third_Party/Huawei/iot_link/network/dtls/mbedtls/mbedtls_port\dtls_interface.c ****     {
 1040              		.loc 1 351 5 is_stmt 1 view .LVU291
 351:D:/fchai/work/i-cube/I-CUBE-HUAWEI/Middlewares/Third_Party/Huawei/iot_link/network/dtls/mbedtls/mbedtls_port\dtls_interface.c ****     {
 1041              		.loc 1 351 13 is_stmt 0 view .LVU292
 1042 00c8 EB69     		ldr	r3, [r5, #28]
 351:D:/fchai/work/i-cube/I-CUBE-HUAWEI/Middlewares/Third_Party/Huawei/iot_link/network/dtls/mbedtls/mbedtls_port\dtls_interface.c ****     {
 1043              		.loc 1 351 8 view .LVU293
 1044 00ca 0BB1     		cbz	r3, .L99
 353:D:/fchai/work/i-cube/I-CUBE-HUAWEI/Middlewares/Third_Party/Huawei/iot_link/network/dtls/mbedtls/mbedtls_port\dtls_interface.c ****     }
 1045              		.loc 1 353 9 is_stmt 1 view .LVU294
 1046 00cc 286A     		ldr	r0, [r5, #32]
 1047 00ce 9847     		blx	r3
 1048              	.LVL130:
 1049              	.L99:
 356:D:/fchai/work/i-cube/I-CUBE-HUAWEI/Middlewares/Third_Party/Huawei/iot_link/network/dtls/mbedtls/mbedtls_port\dtls_interface.c ****     {
 1050              		.loc 1 356 5 view .LVU295
 356:D:/fchai/work/i-cube/I-CUBE-HUAWEI/Middlewares/Third_Party/Huawei/iot_link/network/dtls/mbedtls/mbedtls_port\dtls_interface.c ****     {
 1051              		.loc 1 356 8 is_stmt 0 view .LVU296
 1052 00d0 002C     		cmp	r4, #0
 1053 00d2 65D1     		bne	.L106
 363:D:/fchai/work/i-cube/I-CUBE-HUAWEI/Middlewares/Third_Party/Huawei/iot_link/network/dtls/mbedtls/mbedtls_port\dtls_interface.c ****     {
 1054              		.loc 1 363 5 is_stmt 1 view .LVU297
 363:D:/fchai/work/i-cube/I-CUBE-HUAWEI/Middlewares/Third_Party/Huawei/iot_link/network/dtls/mbedtls/mbedtls_port\dtls_interface.c ****     {
 1055              		.loc 1 363 8 is_stmt 0 view .LVU298
 1056 00d4 2D7D     		ldrb	r5, [r5, #20]	@ zero_extendqisi2
 1057              	.LVL131:
 363:D:/fchai/work/i-cube/I-CUBE-HUAWEI/Middlewares/Third_Party/Huawei/iot_link/network/dtls/mbedtls/mbedtls_port\dtls_interface.c ****     {
 1058              		.loc 1 363 8 view .LVU299
 1059 00d6 012D     		cmp	r5, #1
 1060 00d8 1AD0     		beq	.L132
 1061              	.L102:
 373:D:/fchai/work/i-cube/I-CUBE-HUAWEI/Middlewares/Third_Party/Huawei/iot_link/network/dtls/mbedtls/mbedtls_port\dtls_interface.c ****     }
 1062              		.loc 1 373 13 is_stmt 1 discriminator 3 view .LVU300
 373:D:/fchai/work/i-cube/I-CUBE-HUAWEI/Middlewares/Third_Party/Huawei/iot_link/network/dtls/mbedtls/mbedtls_port\dtls_interface.c ****     }
 1063              		.loc 1 373 13 discriminator 3 view .LVU301
 373:D:/fchai/work/i-cube/I-CUBE-HUAWEI/Middlewares/Third_Party/Huawei/iot_link/network/dtls/mbedtls/mbedtls_port\dtls_interface.c ****     }
 1064              		.loc 1 373 13 discriminator 3 view .LVU302
 377:D:/fchai/work/i-cube/I-CUBE-HUAWEI/Middlewares/Third_Party/Huawei/iot_link/network/dtls/mbedtls/mbedtls_port\dtls_interface.c **** 
 1065              		.loc 1 377 5 discriminator 3 view .LVU303
 377:D:/fchai/work/i-cube/I-CUBE-HUAWEI/Middlewares/Third_Party/Huawei/iot_link/network/dtls/mbedtls/mbedtls_port\dtls_interface.c **** 
 1066              		.loc 1 377 5 discriminator 3 view .LVU304
 1067 00da FFF7FEFF 		bl	link_log_level_get
 1068              	.LVL132:
 1069 00de 0128     		cmp	r0, #1
 1070 00e0 77D9     		bls	.L133
 1071              	.LVL133:
 1072              	.L81:
 1073              		.loc 1 391 1 is_stmt 0 view .LVU305
 1074 00e2 2046     		mov	r0, r4
 1075 00e4 0DF5037D 		add	sp, sp, #524
 1076              	.LCFI8:
ARM GAS  T:\msys\tmp\ccnGkxTA.s 			page 30


 1077              		.cfi_remember_state
 1078              		.cfi_def_cfa_offset 28
 1079              		@ sp needed
 1080 00e8 BDE8F083 		pop	{r4, r5, r6, r7, r8, r9, pc}
 1081              	.LVL134:
 1082              	.L128:
 1083              	.LCFI9:
 1084              		.cfi_restore_state
 294:D:/fchai/work/i-cube/I-CUBE-HUAWEI/Middlewares/Third_Party/Huawei/iot_link/network/dtls/mbedtls/mbedtls_port\dtls_interface.c **** 
 1085              		.loc 1 294 5 is_stmt 1 discriminator 1 view .LVU306
 294:D:/fchai/work/i-cube/I-CUBE-HUAWEI/Middlewares/Third_Party/Huawei/iot_link/network/dtls/mbedtls/mbedtls_port\dtls_interface.c **** 
 1086              		.loc 1 294 5 discriminator 1 view .LVU307
 294:D:/fchai/work/i-cube/I-CUBE-HUAWEI/Middlewares/Third_Party/Huawei/iot_link/network/dtls/mbedtls/mbedtls_port\dtls_interface.c **** 
 1087              		.loc 1 294 5 discriminator 1 view .LVU308
 1088 00ec 0120     		movs	r0, #1
 1089 00ee FFF7FEFF 		bl	link_log_level_name
 1090              	.LVL135:
 1091 00f2 0446     		mov	r4, r0
 1092 00f4 FFF7FEFF 		bl	osal_sys_time
 1093              	.LVL136:
 1094 00f8 524B     		ldr	r3, .L136+12
 1095 00fa 0246     		mov	r2, r0
 1096 00fc 2146     		mov	r1, r4
 1097 00fe 5248     		ldr	r0, .L136+16
 1098 0100 FFF7FEFF 		bl	printf
 1099              	.LVL137:
 294:D:/fchai/work/i-cube/I-CUBE-HUAWEI/Middlewares/Third_Party/Huawei/iot_link/network/dtls/mbedtls/mbedtls_port\dtls_interface.c **** 
 1100              		.loc 1 294 5 discriminator 1 view .LVU309
 1101 0104 514B     		ldr	r3, .L136+20
 1102 0106 1B68     		ldr	r3, [r3]
 1103 0108 9868     		ldr	r0, [r3, #8]
 1104 010a FFF7FEFF 		bl	fflush
 1105              	.LVL138:
 1106 010e 81E7     		b	.L82
 1107              	.LVL139:
 1108              	.L132:
 365:D:/fchai/work/i-cube/I-CUBE-HUAWEI/Middlewares/Third_Party/Huawei/iot_link/network/dtls/mbedtls/mbedtls_port\dtls_interface.c ****         {
 1109              		.loc 1 365 9 view .LVU310
 365:D:/fchai/work/i-cube/I-CUBE-HUAWEI/Middlewares/Third_Party/Huawei/iot_link/network/dtls/mbedtls/mbedtls_port\dtls_interface.c ****         {
 1110              		.loc 1 365 21 is_stmt 0 view .LVU311
 1111 0110 3846     		mov	r0, r7
 1112 0112 FFF7FEFF 		bl	mbedtls_ssl_get_verify_result
 1113              	.LVL140:
 365:D:/fchai/work/i-cube/I-CUBE-HUAWEI/Middlewares/Third_Party/Huawei/iot_link/network/dtls/mbedtls/mbedtls_port\dtls_interface.c ****         {
 1114              		.loc 1 365 11 view .LVU312
 1115 0116 A8B9     		cbnz	r0, .L134
 373:D:/fchai/work/i-cube/I-CUBE-HUAWEI/Middlewares/Third_Party/Huawei/iot_link/network/dtls/mbedtls/mbedtls_port\dtls_interface.c ****     }
 1116              		.loc 1 373 13 is_stmt 1 view .LVU313
 373:D:/fchai/work/i-cube/I-CUBE-HUAWEI/Middlewares/Third_Party/Huawei/iot_link/network/dtls/mbedtls/mbedtls_port\dtls_interface.c ****     }
 1117              		.loc 1 373 13 view .LVU314
 1118 0118 FFF7FEFF 		bl	link_log_level_get
 1119              	.LVL141:
 373:D:/fchai/work/i-cube/I-CUBE-HUAWEI/Middlewares/Third_Party/Huawei/iot_link/network/dtls/mbedtls/mbedtls_port\dtls_interface.c ****     }
 1120              		.loc 1 373 13 is_stmt 0 view .LVU315
 1121 011c 0128     		cmp	r0, #1
 1122 011e DCD8     		bhi	.L102
 373:D:/fchai/work/i-cube/I-CUBE-HUAWEI/Middlewares/Third_Party/Huawei/iot_link/network/dtls/mbedtls/mbedtls_port\dtls_interface.c ****     }
ARM GAS  T:\msys\tmp\ccnGkxTA.s 			page 31


 1123              		.loc 1 373 13 is_stmt 1 discriminator 1 view .LVU316
 373:D:/fchai/work/i-cube/I-CUBE-HUAWEI/Middlewares/Third_Party/Huawei/iot_link/network/dtls/mbedtls/mbedtls_port\dtls_interface.c ****     }
 1124              		.loc 1 373 13 discriminator 1 view .LVU317
 373:D:/fchai/work/i-cube/I-CUBE-HUAWEI/Middlewares/Third_Party/Huawei/iot_link/network/dtls/mbedtls/mbedtls_port\dtls_interface.c ****     }
 1125              		.loc 1 373 13 discriminator 1 view .LVU318
 1126 0120 2846     		mov	r0, r5
 1127 0122 FFF7FEFF 		bl	link_log_level_name
 1128              	.LVL142:
 1129 0126 0546     		mov	r5, r0
 1130 0128 FFF7FEFF 		bl	osal_sys_time
 1131              	.LVL143:
 1132 012c 454B     		ldr	r3, .L136+12
 1133 012e 0246     		mov	r2, r0
 1134 0130 2946     		mov	r1, r5
 1135 0132 4748     		ldr	r0, .L136+24
 1136 0134 FFF7FEFF 		bl	printf
 1137              	.LVL144:
 373:D:/fchai/work/i-cube/I-CUBE-HUAWEI/Middlewares/Third_Party/Huawei/iot_link/network/dtls/mbedtls/mbedtls_port\dtls_interface.c ****     }
 1138              		.loc 1 373 13 discriminator 1 view .LVU319
 1139 0138 444B     		ldr	r3, .L136+20
 1140 013a 1B68     		ldr	r3, [r3]
 1141 013c 9868     		ldr	r0, [r3, #8]
 1142 013e FFF7FEFF 		bl	fflush
 1143              	.LVL145:
 1144 0142 CAE7     		b	.L102
 1145              	.LVL146:
 1146              	.L134:
 1147              	.LBB13:
 367:D:/fchai/work/i-cube/I-CUBE-HUAWEI/Middlewares/Third_Party/Huawei/iot_link/network/dtls/mbedtls/mbedtls_port\dtls_interface.c ****             (void) mbedtls_x509_crt_verify_info(vrfy_buf, sizeof(vrfy_buf), "  ! ", flags);
 1148              		.loc 1 367 13 view .LVU320
 368:D:/fchai/work/i-cube/I-CUBE-HUAWEI/Middlewares/Third_Party/Huawei/iot_link/network/dtls/mbedtls/mbedtls_port\dtls_interface.c ****             MBEDTLS_LOG("cert verify failed: %s", vrfy_buf);
 1149              		.loc 1 368 13 view .LVU321
 368:D:/fchai/work/i-cube/I-CUBE-HUAWEI/Middlewares/Third_Party/Huawei/iot_link/network/dtls/mbedtls/mbedtls_port\dtls_interface.c ****             MBEDTLS_LOG("cert verify failed: %s", vrfy_buf);
 1150              		.loc 1 368 20 is_stmt 0 view .LVU322
 1151 0144 0346     		mov	r3, r0
 1152 0146 434A     		ldr	r2, .L136+28
 1153 0148 4FF40071 		mov	r1, #512
 1154 014c 02A8     		add	r0, sp, #8
 1155              	.LVL147:
 368:D:/fchai/work/i-cube/I-CUBE-HUAWEI/Middlewares/Third_Party/Huawei/iot_link/network/dtls/mbedtls/mbedtls_port\dtls_interface.c ****             MBEDTLS_LOG("cert verify failed: %s", vrfy_buf);
 1156              		.loc 1 368 20 view .LVU323
 1157 014e FFF7FEFF 		bl	mbedtls_x509_crt_verify_info
 1158              	.LVL148:
 369:D:/fchai/work/i-cube/I-CUBE-HUAWEI/Middlewares/Third_Party/Huawei/iot_link/network/dtls/mbedtls/mbedtls_port\dtls_interface.c ****             goto exit_fail;
 1159              		.loc 1 369 13 is_stmt 1 view .LVU324
 369:D:/fchai/work/i-cube/I-CUBE-HUAWEI/Middlewares/Third_Party/Huawei/iot_link/network/dtls/mbedtls/mbedtls_port\dtls_interface.c ****             goto exit_fail;
 1160              		.loc 1 369 13 view .LVU325
 1161 0152 FFF7FEFF 		bl	link_log_level_get
 1162              	.LVL149:
 1163 0156 0128     		cmp	r0, #1
 1164 0158 A6D8     		bhi	.L88
 369:D:/fchai/work/i-cube/I-CUBE-HUAWEI/Middlewares/Third_Party/Huawei/iot_link/network/dtls/mbedtls/mbedtls_port\dtls_interface.c ****             goto exit_fail;
 1165              		.loc 1 369 13 discriminator 1 view .LVU326
 369:D:/fchai/work/i-cube/I-CUBE-HUAWEI/Middlewares/Third_Party/Huawei/iot_link/network/dtls/mbedtls/mbedtls_port\dtls_interface.c ****             goto exit_fail;
 1166              		.loc 1 369 13 discriminator 1 view .LVU327
 369:D:/fchai/work/i-cube/I-CUBE-HUAWEI/Middlewares/Third_Party/Huawei/iot_link/network/dtls/mbedtls/mbedtls_port\dtls_interface.c ****             goto exit_fail;
 1167              		.loc 1 369 13 discriminator 1 view .LVU328
ARM GAS  T:\msys\tmp\ccnGkxTA.s 			page 32


 1168 015a 2846     		mov	r0, r5
 1169 015c FFF7FEFF 		bl	link_log_level_name
 1170              	.LVL150:
 1171 0160 0546     		mov	r5, r0
 1172 0162 FFF7FEFF 		bl	osal_sys_time
 1173              	.LVL151:
 1174 0166 02AB     		add	r3, sp, #8
 1175 0168 0246     		mov	r2, r0
 1176 016a 0093     		str	r3, [sp]
 1177 016c 3A48     		ldr	r0, .L136+32
 1178 016e 354B     		ldr	r3, .L136+12
 1179 0170 2946     		mov	r1, r5
 1180 0172 26E0     		b	.L127
 1181              	.LVL152:
 1182              	.L130:
 369:D:/fchai/work/i-cube/I-CUBE-HUAWEI/Middlewares/Third_Party/Huawei/iot_link/network/dtls/mbedtls/mbedtls_port\dtls_interface.c ****             goto exit_fail;
 1183              		.loc 1 369 13 is_stmt 0 discriminator 1 view .LVU329
 1184              	.LBE13:
 322:D:/fchai/work/i-cube/I-CUBE-HUAWEI/Middlewares/Third_Party/Huawei/iot_link/network/dtls/mbedtls/mbedtls_port\dtls_interface.c **** 
 1185              		.loc 1 322 5 is_stmt 1 discriminator 1 view .LVU330
 322:D:/fchai/work/i-cube/I-CUBE-HUAWEI/Middlewares/Third_Party/Huawei/iot_link/network/dtls/mbedtls/mbedtls_port\dtls_interface.c **** 
 1186              		.loc 1 322 5 discriminator 1 view .LVU331
 322:D:/fchai/work/i-cube/I-CUBE-HUAWEI/Middlewares/Third_Party/Huawei/iot_link/network/dtls/mbedtls/mbedtls_port\dtls_interface.c **** 
 1187              		.loc 1 322 5 discriminator 1 view .LVU332
 1188 0174 0120     		movs	r0, #1
 1189 0176 FFF7FEFF 		bl	link_log_level_name
 1190              	.LVL153:
 1191 017a 0446     		mov	r4, r0
 1192 017c FFF7FEFF 		bl	osal_sys_time
 1193              	.LVL154:
 1194 0180 304B     		ldr	r3, .L136+12
 1195 0182 0246     		mov	r2, r0
 1196 0184 2146     		mov	r1, r4
 1197 0186 3548     		ldr	r0, .L136+36
 1198 0188 FFF7FEFF 		bl	printf
 1199              	.LVL155:
 322:D:/fchai/work/i-cube/I-CUBE-HUAWEI/Middlewares/Third_Party/Huawei/iot_link/network/dtls/mbedtls/mbedtls_port\dtls_interface.c **** 
 1200              		.loc 1 322 5 discriminator 1 view .LVU333
 1201 018c 2F4B     		ldr	r3, .L136+20
 1202 018e 1B68     		ldr	r3, [r3]
 1203 0190 9868     		ldr	r0, [r3, #8]
 1204 0192 FFF7FEFF 		bl	fflush
 1205              	.LVL156:
 1206 0196 54E7     		b	.L87
 1207              	.LVL157:
 1208              	.L97:
 351:D:/fchai/work/i-cube/I-CUBE-HUAWEI/Middlewares/Third_Party/Huawei/iot_link/network/dtls/mbedtls/mbedtls_port\dtls_interface.c ****     {
 1209              		.loc 1 351 5 view .LVU334
 351:D:/fchai/work/i-cube/I-CUBE-HUAWEI/Middlewares/Third_Party/Huawei/iot_link/network/dtls/mbedtls/mbedtls_port\dtls_interface.c ****     {
 1210              		.loc 1 351 13 is_stmt 0 view .LVU335
 1211 0198 EB69     		ldr	r3, [r5, #28]
 351:D:/fchai/work/i-cube/I-CUBE-HUAWEI/Middlewares/Third_Party/Huawei/iot_link/network/dtls/mbedtls/mbedtls_port\dtls_interface.c ****     {
 1212              		.loc 1 351 8 view .LVU336
 1213 019a 0BB1     		cbz	r3, .L106
 353:D:/fchai/work/i-cube/I-CUBE-HUAWEI/Middlewares/Third_Party/Huawei/iot_link/network/dtls/mbedtls/mbedtls_port\dtls_interface.c ****     }
 1214              		.loc 1 353 9 is_stmt 1 view .LVU337
 1215 019c 286A     		ldr	r0, [r5, #32]
ARM GAS  T:\msys\tmp\ccnGkxTA.s 			page 33


 1216 019e 9847     		blx	r3
 1217              	.LVL158:
 356:D:/fchai/work/i-cube/I-CUBE-HUAWEI/Middlewares/Third_Party/Huawei/iot_link/network/dtls/mbedtls/mbedtls_port\dtls_interface.c ****     {
 1218              		.loc 1 356 5 view .LVU338
 1219              	.L106:
 358:D:/fchai/work/i-cube/I-CUBE-HUAWEI/Middlewares/Third_Party/Huawei/iot_link/network/dtls/mbedtls/mbedtls_port\dtls_interface.c ****         goto exit_fail;
 1220              		.loc 1 358 9 view .LVU339
 358:D:/fchai/work/i-cube/I-CUBE-HUAWEI/Middlewares/Third_Party/Huawei/iot_link/network/dtls/mbedtls/mbedtls_port\dtls_interface.c ****         goto exit_fail;
 1221              		.loc 1 358 9 view .LVU340
 1222 01a0 FFF7FEFF 		bl	link_log_level_get
 1223              	.LVL159:
 1224 01a4 0128     		cmp	r0, #1
 1225 01a6 3FF67FAF 		bhi	.L88
 358:D:/fchai/work/i-cube/I-CUBE-HUAWEI/Middlewares/Third_Party/Huawei/iot_link/network/dtls/mbedtls/mbedtls_port\dtls_interface.c ****         goto exit_fail;
 1226              		.loc 1 358 9 discriminator 1 view .LVU341
 358:D:/fchai/work/i-cube/I-CUBE-HUAWEI/Middlewares/Third_Party/Huawei/iot_link/network/dtls/mbedtls/mbedtls_port\dtls_interface.c ****         goto exit_fail;
 1227              		.loc 1 358 9 discriminator 1 view .LVU342
 358:D:/fchai/work/i-cube/I-CUBE-HUAWEI/Middlewares/Third_Party/Huawei/iot_link/network/dtls/mbedtls/mbedtls_port\dtls_interface.c ****         goto exit_fail;
 1228              		.loc 1 358 9 discriminator 1 view .LVU343
 1229 01aa 0120     		movs	r0, #1
 1230 01ac FFF7FEFF 		bl	link_log_level_name
 1231              	.LVL160:
 1232 01b0 0546     		mov	r5, r0
 1233              	.LVL161:
 358:D:/fchai/work/i-cube/I-CUBE-HUAWEI/Middlewares/Third_Party/Huawei/iot_link/network/dtls/mbedtls/mbedtls_port\dtls_interface.c ****         goto exit_fail;
 1234              		.loc 1 358 9 is_stmt 0 discriminator 1 view .LVU344
 1235 01b2 FFF7FEFF 		bl	osal_sys_time
 1236              	.LVL162:
 1237 01b6 6342     		rsbs	r3, r4, #0
 1238 01b8 0246     		mov	r2, r0
 1239 01ba 0093     		str	r3, [sp]
 1240 01bc 2848     		ldr	r0, .L136+40
 1241 01be 214B     		ldr	r3, .L136+12
 1242 01c0 2946     		mov	r1, r5
 1243              	.L127:
 1244              	.LBB14:
 369:D:/fchai/work/i-cube/I-CUBE-HUAWEI/Middlewares/Third_Party/Huawei/iot_link/network/dtls/mbedtls/mbedtls_port\dtls_interface.c ****             goto exit_fail;
 1245              		.loc 1 369 13 discriminator 1 view .LVU345
 1246 01c2 FFF7FEFF 		bl	printf
 1247              	.LVL163:
 369:D:/fchai/work/i-cube/I-CUBE-HUAWEI/Middlewares/Third_Party/Huawei/iot_link/network/dtls/mbedtls/mbedtls_port\dtls_interface.c ****             goto exit_fail;
 1248              		.loc 1 369 13 is_stmt 1 discriminator 1 view .LVU346
 1249 01c6 214B     		ldr	r3, .L136+20
 1250 01c8 1B68     		ldr	r3, [r3]
 1251 01ca 9868     		ldr	r0, [r3, #8]
 1252 01cc FFF7FEFF 		bl	fflush
 1253              	.LVL164:
 369:D:/fchai/work/i-cube/I-CUBE-HUAWEI/Middlewares/Third_Party/Huawei/iot_link/network/dtls/mbedtls/mbedtls_port\dtls_interface.c ****             goto exit_fail;
 1254              		.loc 1 369 13 discriminator 1 view .LVU347
 369:D:/fchai/work/i-cube/I-CUBE-HUAWEI/Middlewares/Third_Party/Huawei/iot_link/network/dtls/mbedtls/mbedtls_port\dtls_interface.c ****             goto exit_fail;
 1255              		.loc 1 369 13 discriminator 1 view .LVU348
 369:D:/fchai/work/i-cube/I-CUBE-HUAWEI/Middlewares/Third_Party/Huawei/iot_link/network/dtls/mbedtls/mbedtls_port\dtls_interface.c ****             goto exit_fail;
 1256              		.loc 1 369 13 discriminator 1 view .LVU349
 370:D:/fchai/work/i-cube/I-CUBE-HUAWEI/Middlewares/Third_Party/Huawei/iot_link/network/dtls/mbedtls/mbedtls_port\dtls_interface.c ****         }
 1257              		.loc 1 370 13 discriminator 1 view .LVU350
 1258 01d0 6AE7     		b	.L88
 1259              	.L133:
ARM GAS  T:\msys\tmp\ccnGkxTA.s 			page 34


 370:D:/fchai/work/i-cube/I-CUBE-HUAWEI/Middlewares/Third_Party/Huawei/iot_link/network/dtls/mbedtls/mbedtls_port\dtls_interface.c ****         }
 1260              		.loc 1 370 13 is_stmt 0 discriminator 1 view .LVU351
 1261              	.LBE14:
 377:D:/fchai/work/i-cube/I-CUBE-HUAWEI/Middlewares/Third_Party/Huawei/iot_link/network/dtls/mbedtls/mbedtls_port\dtls_interface.c **** 
 1262              		.loc 1 377 5 is_stmt 1 discriminator 1 view .LVU352
 377:D:/fchai/work/i-cube/I-CUBE-HUAWEI/Middlewares/Third_Party/Huawei/iot_link/network/dtls/mbedtls/mbedtls_port\dtls_interface.c **** 
 1263              		.loc 1 377 5 discriminator 1 view .LVU353
 377:D:/fchai/work/i-cube/I-CUBE-HUAWEI/Middlewares/Third_Party/Huawei/iot_link/network/dtls/mbedtls/mbedtls_port\dtls_interface.c **** 
 1264              		.loc 1 377 5 discriminator 1 view .LVU354
 1265 01d2 0120     		movs	r0, #1
 1266 01d4 FFF7FEFF 		bl	link_log_level_name
 1267              	.LVL165:
 1268 01d8 0546     		mov	r5, r0
 1269 01da FFF7FEFF 		bl	osal_sys_time
 1270              	.LVL166:
 1271 01de 2946     		mov	r1, r5
 1272 01e0 0246     		mov	r2, r0
 1273 01e2 184B     		ldr	r3, .L136+12
 1274 01e4 1F48     		ldr	r0, .L136+44
 1275 01e6 FFF7FEFF 		bl	printf
 1276              	.LVL167:
 377:D:/fchai/work/i-cube/I-CUBE-HUAWEI/Middlewares/Third_Party/Huawei/iot_link/network/dtls/mbedtls/mbedtls_port\dtls_interface.c **** 
 1277              		.loc 1 377 5 discriminator 1 view .LVU355
 1278 01ea 184B     		ldr	r3, .L136+20
 1279 01ec 1B68     		ldr	r3, [r3]
 1280 01ee 9868     		ldr	r0, [r3, #8]
 1281 01f0 FFF7FEFF 		bl	fflush
 1282              	.LVL168:
 1283              		.loc 1 391 1 is_stmt 0 discriminator 1 view .LVU356
 1284 01f4 2046     		mov	r0, r4
 1285 01f6 0DF5037D 		add	sp, sp, #524
 1286              	.LCFI10:
 1287              		.cfi_remember_state
 1288              		.cfi_def_cfa_offset 28
 1289              		@ sp needed
 1290 01fa BDE8F083 		pop	{r4, r5, r6, r7, r8, r9, pc}
 1291              	.LVL169:
 1292              	.L129:
 1293              	.LCFI11:
 1294              		.cfi_restore_state
 299:D:/fchai/work/i-cube/I-CUBE-HUAWEI/Middlewares/Third_Party/Huawei/iot_link/network/dtls/mbedtls/mbedtls_port\dtls_interface.c ****         ret = MBEDTLS_ERR_NET_CONNECT_FAILED;
 1295              		.loc 1 299 9 is_stmt 1 view .LVU357
 299:D:/fchai/work/i-cube/I-CUBE-HUAWEI/Middlewares/Third_Party/Huawei/iot_link/network/dtls/mbedtls/mbedtls_port\dtls_interface.c ****         ret = MBEDTLS_ERR_NET_CONNECT_FAILED;
 1296              		.loc 1 299 9 view .LVU358
 1297 01fe FFF7FEFF 		bl	link_log_level_get
 1298              	.LVL170:
 299:D:/fchai/work/i-cube/I-CUBE-HUAWEI/Middlewares/Third_Party/Huawei/iot_link/network/dtls/mbedtls/mbedtls_port\dtls_interface.c ****         ret = MBEDTLS_ERR_NET_CONNECT_FAILED;
 1299              		.loc 1 299 9 is_stmt 0 view .LVU359
 1300 0202 0128     		cmp	r0, #1
 1301 0204 02D9     		bls	.L135
 1302 0206 6FF04304 		mvn	r4, #67
 1303              	.LVL171:
 299:D:/fchai/work/i-cube/I-CUBE-HUAWEI/Middlewares/Third_Party/Huawei/iot_link/network/dtls/mbedtls/mbedtls_port\dtls_interface.c ****         ret = MBEDTLS_ERR_NET_CONNECT_FAILED;
 1304              		.loc 1 299 9 view .LVU360
 1305 020a 6AE7     		b	.L81
 1306              	.LVL172:
 1307              	.L135:
ARM GAS  T:\msys\tmp\ccnGkxTA.s 			page 35


 299:D:/fchai/work/i-cube/I-CUBE-HUAWEI/Middlewares/Third_Party/Huawei/iot_link/network/dtls/mbedtls/mbedtls_port\dtls_interface.c ****         ret = MBEDTLS_ERR_NET_CONNECT_FAILED;
 1308              		.loc 1 299 9 is_stmt 1 discriminator 1 view .LVU361
 299:D:/fchai/work/i-cube/I-CUBE-HUAWEI/Middlewares/Third_Party/Huawei/iot_link/network/dtls/mbedtls/mbedtls_port\dtls_interface.c ****         ret = MBEDTLS_ERR_NET_CONNECT_FAILED;
 1309              		.loc 1 299 9 discriminator 1 view .LVU362
 299:D:/fchai/work/i-cube/I-CUBE-HUAWEI/Middlewares/Third_Party/Huawei/iot_link/network/dtls/mbedtls/mbedtls_port\dtls_interface.c ****         ret = MBEDTLS_ERR_NET_CONNECT_FAILED;
 1310              		.loc 1 299 9 discriminator 1 view .LVU363
 1311 020c 0120     		movs	r0, #1
 1312 020e FFF7FEFF 		bl	link_log_level_name
 1313              	.LVL173:
 1314 0212 0446     		mov	r4, r0
 1315 0214 FFF7FEFF 		bl	osal_sys_time
 1316              	.LVL174:
 1317 0218 EB68     		ldr	r3, [r5, #12]
 1318 021a 0093     		str	r3, [sp]
 1319 021c 0246     		mov	r2, r0
 1320 021e 2146     		mov	r1, r4
 1321 0220 084B     		ldr	r3, .L136+12
 1322 0222 1148     		ldr	r0, .L136+48
 1323 0224 FFF7FEFF 		bl	printf
 1324              	.LVL175:
 299:D:/fchai/work/i-cube/I-CUBE-HUAWEI/Middlewares/Third_Party/Huawei/iot_link/network/dtls/mbedtls/mbedtls_port\dtls_interface.c ****         ret = MBEDTLS_ERR_NET_CONNECT_FAILED;
 1325              		.loc 1 299 9 discriminator 1 view .LVU364
 1326 0228 084B     		ldr	r3, .L136+20
 1327 022a 1B68     		ldr	r3, [r3]
 1328 022c 9868     		ldr	r0, [r3, #8]
 1329 022e FFF7FEFF 		bl	fflush
 1330              	.LVL176:
 1331 0232 6FF04304 		mvn	r4, #67
 1332 0236 54E7     		b	.L81
 1333              	.L137:
 1334              		.align	2
 1335              	.L136:
 1336 0238 00000000 		.word	mbedtls_net_recv_timeout
 1337 023c 00000000 		.word	mbedtls_net_send
 1338 0240 00000000 		.word	mbedtls_net_recv
 1339 0244 00000000 		.word	.LANCHOR1
 1340 0248 00000000 		.word	.LC6
 1341 024c 00000000 		.word	_impure_ptr
 1342 0250 E0000000 		.word	.LC12
 1343 0254 B0000000 		.word	.LC10
 1344 0258 B8000000 		.word	.LC11
 1345 025c 4C000000 		.word	.LC8
 1346 0260 7C000000 		.word	.LC9
 1347 0264 04010000 		.word	.LC13
 1348 0268 24000000 		.word	.LC7
 1349              		.cfi_endproc
 1350              	.LFE26:
 1352              		.section	.text.dtls_ssl_destroy,"ax",%progbits
 1353              		.align	1
 1354              		.p2align 2,,3
 1355              		.global	dtls_ssl_destroy
 1356              		.syntax unified
 1357              		.thumb
 1358              		.thumb_func
 1359              		.fpu fpv4-sp-d16
 1361              	dtls_ssl_destroy:
 1362              	.LVL177:
ARM GAS  T:\msys\tmp\ccnGkxTA.s 			page 36


 1363              	.LFB27:
 392:D:/fchai/work/i-cube/I-CUBE-HUAWEI/Middlewares/Third_Party/Huawei/iot_link/network/dtls/mbedtls/mbedtls_port\dtls_interface.c **** void dtls_ssl_destroy(mbedtls_ssl_context *ssl)
 393:D:/fchai/work/i-cube/I-CUBE-HUAWEI/Middlewares/Third_Party/Huawei/iot_link/network/dtls/mbedtls/mbedtls_port\dtls_interface.c **** {
 1364              		.loc 1 393 1 view -0
 1365              		.cfi_startproc
 1366              		@ args = 0, pretend = 0, frame = 8
 1367              		@ frame_needed = 0, uses_anonymous_args = 0
 394:D:/fchai/work/i-cube/I-CUBE-HUAWEI/Middlewares/Third_Party/Huawei/iot_link/network/dtls/mbedtls/mbedtls_port\dtls_interface.c ****     int ret;
 1368              		.loc 1 394 5 view .LVU366
 395:D:/fchai/work/i-cube/I-CUBE-HUAWEI/Middlewares/Third_Party/Huawei/iot_link/network/dtls/mbedtls/mbedtls_port\dtls_interface.c ****     mbedtls_ssl_config           *conf = NULL;
 1369              		.loc 1 395 5 view .LVU367
 396:D:/fchai/work/i-cube/I-CUBE-HUAWEI/Middlewares/Third_Party/Huawei/iot_link/network/dtls/mbedtls/mbedtls_port\dtls_interface.c ****     mbedtls_ctr_drbg_context     *ctr_drbg = NULL;
 1370              		.loc 1 396 5 view .LVU368
 397:D:/fchai/work/i-cube/I-CUBE-HUAWEI/Middlewares/Third_Party/Huawei/iot_link/network/dtls/mbedtls/mbedtls_port\dtls_interface.c ****     mbedtls_entropy_context      *entropy = NULL;
 1371              		.loc 1 397 5 view .LVU369
 398:D:/fchai/work/i-cube/I-CUBE-HUAWEI/Middlewares/Third_Party/Huawei/iot_link/network/dtls/mbedtls/mbedtls_port\dtls_interface.c ****     mbedtls_net_context          *server_fd = NULL;
 1372              		.loc 1 398 5 view .LVU370
 399:D:/fchai/work/i-cube/I-CUBE-HUAWEI/Middlewares/Third_Party/Huawei/iot_link/network/dtls/mbedtls/mbedtls_port\dtls_interface.c ****     mbedtls_timing_delay_context *timer = NULL;
 1373              		.loc 1 399 5 view .LVU371
 400:D:/fchai/work/i-cube/I-CUBE-HUAWEI/Middlewares/Third_Party/Huawei/iot_link/network/dtls/mbedtls/mbedtls_port\dtls_interface.c **** #if defined(MBEDTLS_X509_CRT_PARSE_C)
 401:D:/fchai/work/i-cube/I-CUBE-HUAWEI/Middlewares/Third_Party/Huawei/iot_link/network/dtls/mbedtls/mbedtls_port\dtls_interface.c ****     mbedtls_x509_crt             *cacert = NULL;
 1374              		.loc 1 401 5 view .LVU372
 402:D:/fchai/work/i-cube/I-CUBE-HUAWEI/Middlewares/Third_Party/Huawei/iot_link/network/dtls/mbedtls/mbedtls_port\dtls_interface.c ****     mbedtls_x509_crt             *client_ca = NULL;
 1375              		.loc 1 402 5 view .LVU373
 403:D:/fchai/work/i-cube/I-CUBE-HUAWEI/Middlewares/Third_Party/Huawei/iot_link/network/dtls/mbedtls/mbedtls_port\dtls_interface.c ****     mbedtls_pk_context           *client_pk = NULL;
 1376              		.loc 1 403 5 view .LVU374
 404:D:/fchai/work/i-cube/I-CUBE-HUAWEI/Middlewares/Third_Party/Huawei/iot_link/network/dtls/mbedtls/mbedtls_port\dtls_interface.c ****     mbedtls_ssl_key_cert         *key_cert = NULL;
 1377              		.loc 1 404 5 view .LVU375
 405:D:/fchai/work/i-cube/I-CUBE-HUAWEI/Middlewares/Third_Party/Huawei/iot_link/network/dtls/mbedtls/mbedtls_port\dtls_interface.c **** #endif
 406:D:/fchai/work/i-cube/I-CUBE-HUAWEI/Middlewares/Third_Party/Huawei/iot_link/network/dtls/mbedtls/mbedtls_port\dtls_interface.c **** 
 407:D:/fchai/work/i-cube/I-CUBE-HUAWEI/Middlewares/Third_Party/Huawei/iot_link/network/dtls/mbedtls/mbedtls_port\dtls_interface.c ****     if (ssl == NULL)
 1378              		.loc 1 407 5 view .LVU376
 1379              		.loc 1 407 8 is_stmt 0 view .LVU377
 1380 0000 0028     		cmp	r0, #0
 1381 0002 7CD0     		beq	.L138
 393:D:/fchai/work/i-cube/I-CUBE-HUAWEI/Middlewares/Third_Party/Huawei/iot_link/network/dtls/mbedtls/mbedtls_port\dtls_interface.c ****     int ret;
 1382              		.loc 1 393 1 view .LVU378
 1383 0004 2DE9F04F 		push	{r4, r5, r6, r7, r8, r9, r10, fp, lr}
 1384              	.LCFI12:
 1385              		.cfi_def_cfa_offset 36
 1386              		.cfi_offset 4, -36
 1387              		.cfi_offset 5, -32
 1388              		.cfi_offset 6, -28
 1389              		.cfi_offset 7, -24
 1390              		.cfi_offset 8, -20
 1391              		.cfi_offset 9, -16
 1392              		.cfi_offset 10, -12
 1393              		.cfi_offset 11, -8
 1394              		.cfi_offset 14, -4
 1395 0008 83B0     		sub	sp, sp, #12
 1396              	.LCFI13:
 1397              		.cfi_def_cfa_offset 48
 408:D:/fchai/work/i-cube/I-CUBE-HUAWEI/Middlewares/Third_Party/Huawei/iot_link/network/dtls/mbedtls/mbedtls_port\dtls_interface.c ****     {
 409:D:/fchai/work/i-cube/I-CUBE-HUAWEI/Middlewares/Third_Party/Huawei/iot_link/network/dtls/mbedtls/mbedtls_port\dtls_interface.c ****         return;
 410:D:/fchai/work/i-cube/I-CUBE-HUAWEI/Middlewares/Third_Party/Huawei/iot_link/network/dtls/mbedtls/mbedtls_port\dtls_interface.c ****     }
 411:D:/fchai/work/i-cube/I-CUBE-HUAWEI/Middlewares/Third_Party/Huawei/iot_link/network/dtls/mbedtls/mbedtls_port\dtls_interface.c **** 
 412:D:/fchai/work/i-cube/I-CUBE-HUAWEI/Middlewares/Third_Party/Huawei/iot_link/network/dtls/mbedtls/mbedtls_port\dtls_interface.c ****     conf       = (mbedtls_ssl_config *)ssl->conf;
ARM GAS  T:\msys\tmp\ccnGkxTA.s 			page 37


 413:D:/fchai/work/i-cube/I-CUBE-HUAWEI/Middlewares/Third_Party/Huawei/iot_link/network/dtls/mbedtls/mbedtls_port\dtls_interface.c ****     server_fd  = (mbedtls_net_context *)ssl->p_bio;
 1398              		.loc 1 413 16 view .LVU379
 1399 000a 436A     		ldr	r3, [r0, #36]
 412:D:/fchai/work/i-cube/I-CUBE-HUAWEI/Middlewares/Third_Party/Huawei/iot_link/network/dtls/mbedtls/mbedtls_port\dtls_interface.c ****     server_fd  = (mbedtls_net_context *)ssl->p_bio;
 1400              		.loc 1 412 16 view .LVU380
 1401 000c 0568     		ldr	r5, [r0]
 414:D:/fchai/work/i-cube/I-CUBE-HUAWEI/Middlewares/Third_Party/Huawei/iot_link/network/dtls/mbedtls/mbedtls_port\dtls_interface.c ****     timer      = (mbedtls_timing_delay_context *)ssl->p_timer;
 1402              		.loc 1 414 16 view .LVU381
 1403 000e D0F84C90 		ldr	r9, [r0, #76]
 413:D:/fchai/work/i-cube/I-CUBE-HUAWEI/Middlewares/Third_Party/Huawei/iot_link/network/dtls/mbedtls/mbedtls_port\dtls_interface.c ****     timer      = (mbedtls_timing_delay_context *)ssl->p_timer;
 1404              		.loc 1 413 16 view .LVU382
 1405 0012 0193     		str	r3, [sp, #4]
 1406 0014 0446     		mov	r4, r0
 412:D:/fchai/work/i-cube/I-CUBE-HUAWEI/Middlewares/Third_Party/Huawei/iot_link/network/dtls/mbedtls/mbedtls_port\dtls_interface.c ****     server_fd  = (mbedtls_net_context *)ssl->p_bio;
 1407              		.loc 1 412 5 is_stmt 1 view .LVU383
 1408              	.LVL178:
 413:D:/fchai/work/i-cube/I-CUBE-HUAWEI/Middlewares/Third_Party/Huawei/iot_link/network/dtls/mbedtls/mbedtls_port\dtls_interface.c ****     timer      = (mbedtls_timing_delay_context *)ssl->p_timer;
 1409              		.loc 1 413 5 view .LVU384
 1410              		.loc 1 414 5 view .LVU385
 1411              	.L140:
 415:D:/fchai/work/i-cube/I-CUBE-HUAWEI/Middlewares/Third_Party/Huawei/iot_link/network/dtls/mbedtls/mbedtls_port\dtls_interface.c **** 
 416:D:/fchai/work/i-cube/I-CUBE-HUAWEI/Middlewares/Third_Party/Huawei/iot_link/network/dtls/mbedtls/mbedtls_port\dtls_interface.c **** 
 417:D:/fchai/work/i-cube/I-CUBE-HUAWEI/Middlewares/Third_Party/Huawei/iot_link/network/dtls/mbedtls/mbedtls_port\dtls_interface.c ****     do ret = mbedtls_ssl_close_notify( ssl );
 1412              		.loc 1 417 5 discriminator 1 view .LVU386
 1413              		.loc 1 417 8 discriminator 1 view .LVU387
 1414              		.loc 1 417 14 is_stmt 0 discriminator 1 view .LVU388
 1415 0016 2046     		mov	r0, r4
 1416 0018 FFF7FEFF 		bl	mbedtls_ssl_close_notify
 1417              	.LVL179:
 418:D:/fchai/work/i-cube/I-CUBE-HUAWEI/Middlewares/Third_Party/Huawei/iot_link/network/dtls/mbedtls/mbedtls_port\dtls_interface.c ****     while( ret == MBEDTLS_ERR_SSL_WANT_WRITE );
 1418              		.loc 1 418 10 is_stmt 1 discriminator 1 view .LVU389
 1419              		.loc 1 418 5 is_stmt 0 discriminator 1 view .LVU390
 1420 001c 10F5D14F 		cmn	r0, #26752
 1421 0020 F9D0     		beq	.L140
 419:D:/fchai/work/i-cube/I-CUBE-HUAWEI/Middlewares/Third_Party/Huawei/iot_link/network/dtls/mbedtls/mbedtls_port\dtls_interface.c **** 
 420:D:/fchai/work/i-cube/I-CUBE-HUAWEI/Middlewares/Third_Party/Huawei/iot_link/network/dtls/mbedtls/mbedtls_port\dtls_interface.c **** 
 421:D:/fchai/work/i-cube/I-CUBE-HUAWEI/Middlewares/Third_Party/Huawei/iot_link/network/dtls/mbedtls/mbedtls_port\dtls_interface.c ****     if (NULL != conf)
 1422              		.loc 1 421 5 is_stmt 1 view .LVU391
 1423              		.loc 1 421 8 is_stmt 0 view .LVU392
 1424 0022 002D     		cmp	r5, #0
 1425 0024 51D0     		beq	.L141
 422:D:/fchai/work/i-cube/I-CUBE-HUAWEI/Middlewares/Third_Party/Huawei/iot_link/network/dtls/mbedtls/mbedtls_port\dtls_interface.c ****     {
 423:D:/fchai/work/i-cube/I-CUBE-HUAWEI/Middlewares/Third_Party/Huawei/iot_link/network/dtls/mbedtls/mbedtls_port\dtls_interface.c ****         ctr_drbg   = conf->p_rng;
 1426              		.loc 1 423 9 is_stmt 1 view .LVU393
 1427              		.loc 1 423 20 is_stmt 0 view .LVU394
 1428 0026 D5F81CA0 		ldr	r10, [r5, #28]
 1429              	.LVL180:
 424:D:/fchai/work/i-cube/I-CUBE-HUAWEI/Middlewares/Third_Party/Huawei/iot_link/network/dtls/mbedtls/mbedtls_port\dtls_interface.c **** 
 425:D:/fchai/work/i-cube/I-CUBE-HUAWEI/Middlewares/Third_Party/Huawei/iot_link/network/dtls/mbedtls/mbedtls_port\dtls_interface.c ****         if (NULL !=ctr_drbg)
 1430              		.loc 1 425 9 is_stmt 1 view .LVU395
 1431              		.loc 1 425 12 is_stmt 0 view .LVU396
 1432 002a BAF1000F 		cmp	r10, #0
 1433 002e 58D0     		beq	.L155
 426:D:/fchai/work/i-cube/I-CUBE-HUAWEI/Middlewares/Third_Party/Huawei/iot_link/network/dtls/mbedtls/mbedtls_port\dtls_interface.c ****         {
 427:D:/fchai/work/i-cube/I-CUBE-HUAWEI/Middlewares/Third_Party/Huawei/iot_link/network/dtls/mbedtls/mbedtls_port\dtls_interface.c ****             entropy =  ctr_drbg->p_entropy;
 1434              		.loc 1 427 13 is_stmt 1 view .LVU397
 428:D:/fchai/work/i-cube/I-CUBE-HUAWEI/Middlewares/Third_Party/Huawei/iot_link/network/dtls/mbedtls/mbedtls_port\dtls_interface.c ****         }
ARM GAS  T:\msys\tmp\ccnGkxTA.s 			page 38


 429:D:/fchai/work/i-cube/I-CUBE-HUAWEI/Middlewares/Third_Party/Huawei/iot_link/network/dtls/mbedtls/mbedtls_port\dtls_interface.c **** 
 430:D:/fchai/work/i-cube/I-CUBE-HUAWEI/Middlewares/Third_Party/Huawei/iot_link/network/dtls/mbedtls/mbedtls_port\dtls_interface.c **** #if defined(MBEDTLS_X509_CRT_PARSE_C)
 431:D:/fchai/work/i-cube/I-CUBE-HUAWEI/Middlewares/Third_Party/Huawei/iot_link/network/dtls/mbedtls/mbedtls_port\dtls_interface.c ****         cacert     = (mbedtls_x509_crt *)conf->ca_chain;
 1435              		.loc 1 431 20 is_stmt 0 view .LVU398
 1436 0030 D5E91068 		ldrd	r6, r8, [r5, #64]
 427:D:/fchai/work/i-cube/I-CUBE-HUAWEI/Middlewares/Third_Party/Huawei/iot_link/network/dtls/mbedtls/mbedtls_port\dtls_interface.c ****         }
 1437              		.loc 1 427 21 view .LVU399
 1438 0034 DAF83CB1 		ldr	fp, [r10, #316]
 1439              	.LVL181:
 1440              		.loc 1 431 9 is_stmt 1 view .LVU400
 432:D:/fchai/work/i-cube/I-CUBE-HUAWEI/Middlewares/Third_Party/Huawei/iot_link/network/dtls/mbedtls/mbedtls_port\dtls_interface.c **** 
 433:D:/fchai/work/i-cube/I-CUBE-HUAWEI/Middlewares/Third_Party/Huawei/iot_link/network/dtls/mbedtls/mbedtls_port\dtls_interface.c ****         key_cert   = conf->key_cert;
 1441              		.loc 1 433 9 view .LVU401
 434:D:/fchai/work/i-cube/I-CUBE-HUAWEI/Middlewares/Third_Party/Huawei/iot_link/network/dtls/mbedtls/mbedtls_port\dtls_interface.c ****         if(NULL != key_cert)
 1442              		.loc 1 434 9 view .LVU402
 1443              		.loc 1 434 11 is_stmt 0 view .LVU403
 1444 0038 002E     		cmp	r6, #0
 1445 003a 57D0     		beq	.L156
 1446              	.L189:
 435:D:/fchai/work/i-cube/I-CUBE-HUAWEI/Middlewares/Third_Party/Huawei/iot_link/network/dtls/mbedtls/mbedtls_port\dtls_interface.c ****         {
 436:D:/fchai/work/i-cube/I-CUBE-HUAWEI/Middlewares/Third_Party/Huawei/iot_link/network/dtls/mbedtls/mbedtls_port\dtls_interface.c ****             client_ca = (mbedtls_x509_crt *) key_cert->cert;
 1447              		.loc 1 436 13 is_stmt 1 view .LVU404
 437:D:/fchai/work/i-cube/I-CUBE-HUAWEI/Middlewares/Third_Party/Huawei/iot_link/network/dtls/mbedtls/mbedtls_port\dtls_interface.c ****             client_pk = key_cert->key;
 1448              		.loc 1 437 23 is_stmt 0 view .LVU405
 1449 003c D6E90076 		ldrd	r7, r6, [r6]
 1450              	.LVL182:
 1451              	.L143:
 438:D:/fchai/work/i-cube/I-CUBE-HUAWEI/Middlewares/Third_Party/Huawei/iot_link/network/dtls/mbedtls/mbedtls_port\dtls_interface.c ****         }
 439:D:/fchai/work/i-cube/I-CUBE-HUAWEI/Middlewares/Third_Party/Huawei/iot_link/network/dtls/mbedtls/mbedtls_port\dtls_interface.c **** 
 440:D:/fchai/work/i-cube/I-CUBE-HUAWEI/Middlewares/Third_Party/Huawei/iot_link/network/dtls/mbedtls/mbedtls_port\dtls_interface.c **** #endif
 441:D:/fchai/work/i-cube/I-CUBE-HUAWEI/Middlewares/Third_Party/Huawei/iot_link/network/dtls/mbedtls/mbedtls_port\dtls_interface.c ****     }
 442:D:/fchai/work/i-cube/I-CUBE-HUAWEI/Middlewares/Third_Party/Huawei/iot_link/network/dtls/mbedtls/mbedtls_port\dtls_interface.c **** 
 443:D:/fchai/work/i-cube/I-CUBE-HUAWEI/Middlewares/Third_Party/Huawei/iot_link/network/dtls/mbedtls/mbedtls_port\dtls_interface.c ****     if (NULL != server_fd)
 1452              		.loc 1 443 5 is_stmt 1 view .LVU406
 1453              		.loc 1 443 8 is_stmt 0 view .LVU407
 1454 0040 019B     		ldr	r3, [sp, #4]
 1455 0042 13B1     		cbz	r3, .L152
 444:D:/fchai/work/i-cube/I-CUBE-HUAWEI/Middlewares/Third_Party/Huawei/iot_link/network/dtls/mbedtls/mbedtls_port\dtls_interface.c ****     {
 445:D:/fchai/work/i-cube/I-CUBE-HUAWEI/Middlewares/Third_Party/Huawei/iot_link/network/dtls/mbedtls/mbedtls_port\dtls_interface.c ****         mbedtls_net_free(server_fd);
 1456              		.loc 1 445 9 is_stmt 1 view .LVU408
 1457 0044 1846     		mov	r0, r3
 1458              	.LVL183:
 1459              		.loc 1 445 9 is_stmt 0 view .LVU409
 1460 0046 FFF7FEFF 		bl	mbedtls_net_free
 1461              	.LVL184:
 446:D:/fchai/work/i-cube/I-CUBE-HUAWEI/Middlewares/Third_Party/Huawei/iot_link/network/dtls/mbedtls/mbedtls_port\dtls_interface.c ****     }
 447:D:/fchai/work/i-cube/I-CUBE-HUAWEI/Middlewares/Third_Party/Huawei/iot_link/network/dtls/mbedtls/mbedtls_port\dtls_interface.c **** 
 448:D:/fchai/work/i-cube/I-CUBE-HUAWEI/Middlewares/Third_Party/Huawei/iot_link/network/dtls/mbedtls/mbedtls_port\dtls_interface.c ****     if (NULL != conf)
 1462              		.loc 1 448 5 is_stmt 1 view .LVU410
 1463              	.L152:
 449:D:/fchai/work/i-cube/I-CUBE-HUAWEI/Middlewares/Third_Party/Huawei/iot_link/network/dtls/mbedtls/mbedtls_port\dtls_interface.c ****     {
 450:D:/fchai/work/i-cube/I-CUBE-HUAWEI/Middlewares/Third_Party/Huawei/iot_link/network/dtls/mbedtls/mbedtls_port\dtls_interface.c ****         mbedtls_ssl_config_free(conf);
 1464              		.loc 1 450 9 view .LVU411
 1465 004a 2846     		mov	r0, r5
 1466 004c FFF7FEFF 		bl	mbedtls_ssl_config_free
 1467              	.LVL185:
 451:D:/fchai/work/i-cube/I-CUBE-HUAWEI/Middlewares/Third_Party/Huawei/iot_link/network/dtls/mbedtls/mbedtls_port\dtls_interface.c ****         mbedtls_free(conf);
ARM GAS  T:\msys\tmp\ccnGkxTA.s 			page 39


 1468              		.loc 1 451 9 view .LVU412
 1469 0050 2846     		mov	r0, r5
 1470 0052 FFF7FEFF 		bl	mbedtls_free
 1471              	.LVL186:
 452:D:/fchai/work/i-cube/I-CUBE-HUAWEI/Middlewares/Third_Party/Huawei/iot_link/network/dtls/mbedtls/mbedtls_port\dtls_interface.c ****         ssl->conf = NULL; //  need by mbedtls_debug_print_msg(), see mbedtls_ssl_free(ssl)
 1472              		.loc 1 452 9 view .LVU413
 1473              		.loc 1 452 19 is_stmt 0 view .LVU414
 1474 0056 0022     		movs	r2, #0
 1475 0058 2260     		str	r2, [r4]
 453:D:/fchai/work/i-cube/I-CUBE-HUAWEI/Middlewares/Third_Party/Huawei/iot_link/network/dtls/mbedtls/mbedtls_port\dtls_interface.c ****     }
 454:D:/fchai/work/i-cube/I-CUBE-HUAWEI/Middlewares/Third_Party/Huawei/iot_link/network/dtls/mbedtls/mbedtls_port\dtls_interface.c **** 
 455:D:/fchai/work/i-cube/I-CUBE-HUAWEI/Middlewares/Third_Party/Huawei/iot_link/network/dtls/mbedtls/mbedtls_port\dtls_interface.c ****     if (ctr_drbg)
 1476              		.loc 1 455 5 is_stmt 1 view .LVU415
 1477              		.loc 1 455 8 is_stmt 0 view .LVU416
 1478 005a BAF1000F 		cmp	r10, #0
 1479 005e 05D0     		beq	.L144
 456:D:/fchai/work/i-cube/I-CUBE-HUAWEI/Middlewares/Third_Party/Huawei/iot_link/network/dtls/mbedtls/mbedtls_port\dtls_interface.c ****     {
 457:D:/fchai/work/i-cube/I-CUBE-HUAWEI/Middlewares/Third_Party/Huawei/iot_link/network/dtls/mbedtls/mbedtls_port\dtls_interface.c ****         mbedtls_ctr_drbg_free(ctr_drbg);
 1480              		.loc 1 457 9 is_stmt 1 view .LVU417
 1481 0060 5046     		mov	r0, r10
 1482 0062 FFF7FEFF 		bl	mbedtls_ctr_drbg_free
 1483              	.LVL187:
 458:D:/fchai/work/i-cube/I-CUBE-HUAWEI/Middlewares/Third_Party/Huawei/iot_link/network/dtls/mbedtls/mbedtls_port\dtls_interface.c ****         mbedtls_free(ctr_drbg);
 1484              		.loc 1 458 9 view .LVU418
 1485 0066 5046     		mov	r0, r10
 1486 0068 FFF7FEFF 		bl	mbedtls_free
 1487              	.LVL188:
 1488              	.L144:
 459:D:/fchai/work/i-cube/I-CUBE-HUAWEI/Middlewares/Third_Party/Huawei/iot_link/network/dtls/mbedtls/mbedtls_port\dtls_interface.c ****     }
 460:D:/fchai/work/i-cube/I-CUBE-HUAWEI/Middlewares/Third_Party/Huawei/iot_link/network/dtls/mbedtls/mbedtls_port\dtls_interface.c **** 
 461:D:/fchai/work/i-cube/I-CUBE-HUAWEI/Middlewares/Third_Party/Huawei/iot_link/network/dtls/mbedtls/mbedtls_port\dtls_interface.c ****     if (entropy)
 1489              		.loc 1 461 5 view .LVU419
 1490              		.loc 1 461 8 is_stmt 0 view .LVU420
 1491 006c BBF1000F 		cmp	fp, #0
 1492 0070 05D0     		beq	.L145
 462:D:/fchai/work/i-cube/I-CUBE-HUAWEI/Middlewares/Third_Party/Huawei/iot_link/network/dtls/mbedtls/mbedtls_port\dtls_interface.c ****     {
 463:D:/fchai/work/i-cube/I-CUBE-HUAWEI/Middlewares/Third_Party/Huawei/iot_link/network/dtls/mbedtls/mbedtls_port\dtls_interface.c ****         mbedtls_entropy_free(entropy);
 1493              		.loc 1 463 9 is_stmt 1 view .LVU421
 1494 0072 5846     		mov	r0, fp
 1495 0074 FFF7FEFF 		bl	mbedtls_entropy_free
 1496              	.LVL189:
 464:D:/fchai/work/i-cube/I-CUBE-HUAWEI/Middlewares/Third_Party/Huawei/iot_link/network/dtls/mbedtls/mbedtls_port\dtls_interface.c ****         mbedtls_free(entropy);
 1497              		.loc 1 464 9 view .LVU422
 1498 0078 5846     		mov	r0, fp
 1499 007a FFF7FEFF 		bl	mbedtls_free
 1500              	.LVL190:
 1501              	.L145:
 465:D:/fchai/work/i-cube/I-CUBE-HUAWEI/Middlewares/Third_Party/Huawei/iot_link/network/dtls/mbedtls/mbedtls_port\dtls_interface.c ****     }
 466:D:/fchai/work/i-cube/I-CUBE-HUAWEI/Middlewares/Third_Party/Huawei/iot_link/network/dtls/mbedtls/mbedtls_port\dtls_interface.c **** 
 467:D:/fchai/work/i-cube/I-CUBE-HUAWEI/Middlewares/Third_Party/Huawei/iot_link/network/dtls/mbedtls/mbedtls_port\dtls_interface.c ****     if (timer)
 1502              		.loc 1 467 5 view .LVU423
 1503              		.loc 1 467 8 is_stmt 0 view .LVU424
 1504 007e B9F1000F 		cmp	r9, #0
 1505 0082 02D0     		beq	.L146
 1506              	.LVL191:
 1507              	.L153:
 468:D:/fchai/work/i-cube/I-CUBE-HUAWEI/Middlewares/Third_Party/Huawei/iot_link/network/dtls/mbedtls/mbedtls_port\dtls_interface.c ****     {
ARM GAS  T:\msys\tmp\ccnGkxTA.s 			page 40


 469:D:/fchai/work/i-cube/I-CUBE-HUAWEI/Middlewares/Third_Party/Huawei/iot_link/network/dtls/mbedtls/mbedtls_port\dtls_interface.c ****         mbedtls_free(timer);
 1508              		.loc 1 469 9 is_stmt 1 view .LVU425
 1509 0084 4846     		mov	r0, r9
 1510 0086 FFF7FEFF 		bl	mbedtls_free
 1511              	.LVL192:
 1512              	.L146:
 470:D:/fchai/work/i-cube/I-CUBE-HUAWEI/Middlewares/Third_Party/Huawei/iot_link/network/dtls/mbedtls/mbedtls_port\dtls_interface.c ****     }
 471:D:/fchai/work/i-cube/I-CUBE-HUAWEI/Middlewares/Third_Party/Huawei/iot_link/network/dtls/mbedtls/mbedtls_port\dtls_interface.c **** 
 472:D:/fchai/work/i-cube/I-CUBE-HUAWEI/Middlewares/Third_Party/Huawei/iot_link/network/dtls/mbedtls/mbedtls_port\dtls_interface.c **** #if defined(MBEDTLS_X509_CRT_PARSE_C)
 473:D:/fchai/work/i-cube/I-CUBE-HUAWEI/Middlewares/Third_Party/Huawei/iot_link/network/dtls/mbedtls/mbedtls_port\dtls_interface.c ****     if (cacert)
 1513              		.loc 1 473 5 view .LVU426
 1514              		.loc 1 473 8 is_stmt 0 view .LVU427
 1515 008a B8F1000F 		cmp	r8, #0
 1516 008e 05D0     		beq	.L147
 474:D:/fchai/work/i-cube/I-CUBE-HUAWEI/Middlewares/Third_Party/Huawei/iot_link/network/dtls/mbedtls/mbedtls_port\dtls_interface.c ****     {
 475:D:/fchai/work/i-cube/I-CUBE-HUAWEI/Middlewares/Third_Party/Huawei/iot_link/network/dtls/mbedtls/mbedtls_port\dtls_interface.c ****         mbedtls_x509_crt_free(cacert);
 1517              		.loc 1 475 9 is_stmt 1 view .LVU428
 1518 0090 4046     		mov	r0, r8
 1519 0092 FFF7FEFF 		bl	mbedtls_x509_crt_free
 1520              	.LVL193:
 476:D:/fchai/work/i-cube/I-CUBE-HUAWEI/Middlewares/Third_Party/Huawei/iot_link/network/dtls/mbedtls/mbedtls_port\dtls_interface.c ****         mbedtls_free(cacert);
 1521              		.loc 1 476 9 view .LVU429
 1522 0096 4046     		mov	r0, r8
 1523 0098 FFF7FEFF 		bl	mbedtls_free
 1524              	.LVL194:
 1525              	.L147:
 477:D:/fchai/work/i-cube/I-CUBE-HUAWEI/Middlewares/Third_Party/Huawei/iot_link/network/dtls/mbedtls/mbedtls_port\dtls_interface.c ****     }
 478:D:/fchai/work/i-cube/I-CUBE-HUAWEI/Middlewares/Third_Party/Huawei/iot_link/network/dtls/mbedtls/mbedtls_port\dtls_interface.c ****     if( client_ca )
 1526              		.loc 1 478 5 view .LVU430
 1527              		.loc 1 478 7 is_stmt 0 view .LVU431
 1528 009c 2FB1     		cbz	r7, .L148
 479:D:/fchai/work/i-cube/I-CUBE-HUAWEI/Middlewares/Third_Party/Huawei/iot_link/network/dtls/mbedtls/mbedtls_port\dtls_interface.c ****     {
 480:D:/fchai/work/i-cube/I-CUBE-HUAWEI/Middlewares/Third_Party/Huawei/iot_link/network/dtls/mbedtls/mbedtls_port\dtls_interface.c ****         mbedtls_x509_crt_free(client_ca);
 1529              		.loc 1 480 9 is_stmt 1 view .LVU432
 1530 009e 3846     		mov	r0, r7
 1531 00a0 FFF7FEFF 		bl	mbedtls_x509_crt_free
 1532              	.LVL195:
 481:D:/fchai/work/i-cube/I-CUBE-HUAWEI/Middlewares/Third_Party/Huawei/iot_link/network/dtls/mbedtls/mbedtls_port\dtls_interface.c ****         mbedtls_free(client_ca);
 1533              		.loc 1 481 9 view .LVU433
 1534 00a4 3846     		mov	r0, r7
 1535 00a6 FFF7FEFF 		bl	mbedtls_free
 1536              	.LVL196:
 1537              	.L148:
 482:D:/fchai/work/i-cube/I-CUBE-HUAWEI/Middlewares/Third_Party/Huawei/iot_link/network/dtls/mbedtls/mbedtls_port\dtls_interface.c ****     }
 483:D:/fchai/work/i-cube/I-CUBE-HUAWEI/Middlewares/Third_Party/Huawei/iot_link/network/dtls/mbedtls/mbedtls_port\dtls_interface.c **** 
 484:D:/fchai/work/i-cube/I-CUBE-HUAWEI/Middlewares/Third_Party/Huawei/iot_link/network/dtls/mbedtls/mbedtls_port\dtls_interface.c ****     if( client_pk )
 1538              		.loc 1 484 5 view .LVU434
 1539              		.loc 1 484 7 is_stmt 0 view .LVU435
 1540 00aa 2EB1     		cbz	r6, .L149
 485:D:/fchai/work/i-cube/I-CUBE-HUAWEI/Middlewares/Third_Party/Huawei/iot_link/network/dtls/mbedtls/mbedtls_port\dtls_interface.c ****     {
 486:D:/fchai/work/i-cube/I-CUBE-HUAWEI/Middlewares/Third_Party/Huawei/iot_link/network/dtls/mbedtls/mbedtls_port\dtls_interface.c ****         mbedtls_pk_free(client_pk);
 1541              		.loc 1 486 9 is_stmt 1 view .LVU436
 1542 00ac 3046     		mov	r0, r6
 1543 00ae FFF7FEFF 		bl	mbedtls_pk_free
 1544              	.LVL197:
 487:D:/fchai/work/i-cube/I-CUBE-HUAWEI/Middlewares/Third_Party/Huawei/iot_link/network/dtls/mbedtls/mbedtls_port\dtls_interface.c ****         mbedtls_free(client_pk);
 1545              		.loc 1 487 9 view .LVU437
ARM GAS  T:\msys\tmp\ccnGkxTA.s 			page 41


 1546 00b2 3046     		mov	r0, r6
 1547 00b4 FFF7FEFF 		bl	mbedtls_free
 1548              	.LVL198:
 1549              	.L149:
 488:D:/fchai/work/i-cube/I-CUBE-HUAWEI/Middlewares/Third_Party/Huawei/iot_link/network/dtls/mbedtls/mbedtls_port\dtls_interface.c ****     }
 489:D:/fchai/work/i-cube/I-CUBE-HUAWEI/Middlewares/Third_Party/Huawei/iot_link/network/dtls/mbedtls/mbedtls_port\dtls_interface.c **** 
 490:D:/fchai/work/i-cube/I-CUBE-HUAWEI/Middlewares/Third_Party/Huawei/iot_link/network/dtls/mbedtls/mbedtls_port\dtls_interface.c **** #endif
 491:D:/fchai/work/i-cube/I-CUBE-HUAWEI/Middlewares/Third_Party/Huawei/iot_link/network/dtls/mbedtls/mbedtls_port\dtls_interface.c **** 
 492:D:/fchai/work/i-cube/I-CUBE-HUAWEI/Middlewares/Third_Party/Huawei/iot_link/network/dtls/mbedtls/mbedtls_port\dtls_interface.c ****     mbedtls_ssl_free(ssl);
 1550              		.loc 1 492 5 view .LVU438
 1551 00b8 2046     		mov	r0, r4
 1552 00ba FFF7FEFF 		bl	mbedtls_ssl_free
 1553              	.LVL199:
 493:D:/fchai/work/i-cube/I-CUBE-HUAWEI/Middlewares/Third_Party/Huawei/iot_link/network/dtls/mbedtls/mbedtls_port\dtls_interface.c ****     mbedtls_free(ssl);
 1554              		.loc 1 493 5 view .LVU439
 1555 00be 2046     		mov	r0, r4
 494:D:/fchai/work/i-cube/I-CUBE-HUAWEI/Middlewares/Third_Party/Huawei/iot_link/network/dtls/mbedtls/mbedtls_port\dtls_interface.c **** }
 1556              		.loc 1 494 1 is_stmt 0 view .LVU440
 1557 00c0 03B0     		add	sp, sp, #12
 1558              	.LCFI14:
 1559              		.cfi_remember_state
 1560              		.cfi_def_cfa_offset 36
 1561              		@ sp needed
 1562 00c2 BDE8F04F 		pop	{r4, r5, r6, r7, r8, r9, r10, fp, lr}
 1563              	.LCFI15:
 1564              		.cfi_restore 14
 1565              		.cfi_restore 11
 1566              		.cfi_restore 10
 1567              		.cfi_restore 9
 1568              		.cfi_restore 8
 1569              		.cfi_restore 7
 1570              		.cfi_restore 6
 1571              		.cfi_restore 5
 1572              		.cfi_restore 4
 1573              		.cfi_def_cfa_offset 0
 1574              	.LVL200:
 493:D:/fchai/work/i-cube/I-CUBE-HUAWEI/Middlewares/Third_Party/Huawei/iot_link/network/dtls/mbedtls/mbedtls_port\dtls_interface.c ****     mbedtls_free(ssl);
 1575              		.loc 1 493 5 view .LVU441
 1576 00c6 FFF7FEBF 		b	mbedtls_free
 1577              	.LVL201:
 1578              	.L141:
 1579              	.LCFI16:
 1580              		.cfi_restore_state
 443:D:/fchai/work/i-cube/I-CUBE-HUAWEI/Middlewares/Third_Party/Huawei/iot_link/network/dtls/mbedtls/mbedtls_port\dtls_interface.c ****     {
 1581              		.loc 1 443 5 is_stmt 1 view .LVU442
 443:D:/fchai/work/i-cube/I-CUBE-HUAWEI/Middlewares/Third_Party/Huawei/iot_link/network/dtls/mbedtls/mbedtls_port\dtls_interface.c ****     {
 1582              		.loc 1 443 8 is_stmt 0 view .LVU443
 1583 00ca 019B     		ldr	r3, [sp, #4]
 1584 00cc 83B1     		cbz	r3, .L188
 445:D:/fchai/work/i-cube/I-CUBE-HUAWEI/Middlewares/Third_Party/Huawei/iot_link/network/dtls/mbedtls/mbedtls_port\dtls_interface.c ****     }
 1585              		.loc 1 445 9 is_stmt 1 view .LVU444
 1586 00ce 0198     		ldr	r0, [sp, #4]
 1587              	.LVL202:
 445:D:/fchai/work/i-cube/I-CUBE-HUAWEI/Middlewares/Third_Party/Huawei/iot_link/network/dtls/mbedtls/mbedtls_port\dtls_interface.c ****     }
 1588              		.loc 1 445 9 is_stmt 0 view .LVU445
 1589 00d0 FFF7FEFF 		bl	mbedtls_net_free
 1590              	.LVL203:
ARM GAS  T:\msys\tmp\ccnGkxTA.s 			page 42


 448:D:/fchai/work/i-cube/I-CUBE-HUAWEI/Middlewares/Third_Party/Huawei/iot_link/network/dtls/mbedtls/mbedtls_port\dtls_interface.c ****     {
 1591              		.loc 1 448 5 is_stmt 1 view .LVU446
 455:D:/fchai/work/i-cube/I-CUBE-HUAWEI/Middlewares/Third_Party/Huawei/iot_link/network/dtls/mbedtls/mbedtls_port\dtls_interface.c ****     {
 1592              		.loc 1 455 5 view .LVU447
 461:D:/fchai/work/i-cube/I-CUBE-HUAWEI/Middlewares/Third_Party/Huawei/iot_link/network/dtls/mbedtls/mbedtls_port\dtls_interface.c ****     {
 1593              		.loc 1 461 5 view .LVU448
 467:D:/fchai/work/i-cube/I-CUBE-HUAWEI/Middlewares/Third_Party/Huawei/iot_link/network/dtls/mbedtls/mbedtls_port\dtls_interface.c ****     {
 1594              		.loc 1 467 5 view .LVU449
 467:D:/fchai/work/i-cube/I-CUBE-HUAWEI/Middlewares/Third_Party/Huawei/iot_link/network/dtls/mbedtls/mbedtls_port\dtls_interface.c ****     {
 1595              		.loc 1 467 8 is_stmt 0 view .LVU450
 1596 00d4 B9F1000F 		cmp	r9, #0
 1597 00d8 EED0     		beq	.L149
 403:D:/fchai/work/i-cube/I-CUBE-HUAWEI/Middlewares/Third_Party/Huawei/iot_link/network/dtls/mbedtls/mbedtls_port\dtls_interface.c ****     mbedtls_ssl_key_cert         *key_cert = NULL;
 1598              		.loc 1 403 35 view .LVU451
 1599 00da 2E46     		mov	r6, r5
 402:D:/fchai/work/i-cube/I-CUBE-HUAWEI/Middlewares/Third_Party/Huawei/iot_link/network/dtls/mbedtls/mbedtls_port\dtls_interface.c ****     mbedtls_pk_context           *client_pk = NULL;
 1600              		.loc 1 402 35 view .LVU452
 1601 00dc 2F46     		mov	r7, r5
 401:D:/fchai/work/i-cube/I-CUBE-HUAWEI/Middlewares/Third_Party/Huawei/iot_link/network/dtls/mbedtls/mbedtls_port\dtls_interface.c ****     mbedtls_x509_crt             *client_ca = NULL;
 1602              		.loc 1 401 35 view .LVU453
 1603 00de A846     		mov	r8, r5
 1604 00e0 D0E7     		b	.L153
 1605              	.LVL204:
 1606              	.L155:
 431:D:/fchai/work/i-cube/I-CUBE-HUAWEI/Middlewares/Third_Party/Huawei/iot_link/network/dtls/mbedtls/mbedtls_port\dtls_interface.c **** 
 1607              		.loc 1 431 20 view .LVU454
 1608 00e2 D5E91068 		ldrd	r6, r8, [r5, #64]
 397:D:/fchai/work/i-cube/I-CUBE-HUAWEI/Middlewares/Third_Party/Huawei/iot_link/network/dtls/mbedtls/mbedtls_port\dtls_interface.c ****     mbedtls_net_context          *server_fd = NULL;
 1609              		.loc 1 397 35 view .LVU455
 1610 00e6 D346     		mov	fp, r10
 1611              	.LVL205:
 431:D:/fchai/work/i-cube/I-CUBE-HUAWEI/Middlewares/Third_Party/Huawei/iot_link/network/dtls/mbedtls/mbedtls_port\dtls_interface.c **** 
 1612              		.loc 1 431 9 is_stmt 1 view .LVU456
 433:D:/fchai/work/i-cube/I-CUBE-HUAWEI/Middlewares/Third_Party/Huawei/iot_link/network/dtls/mbedtls/mbedtls_port\dtls_interface.c ****         if(NULL != key_cert)
 1613              		.loc 1 433 9 view .LVU457
 434:D:/fchai/work/i-cube/I-CUBE-HUAWEI/Middlewares/Third_Party/Huawei/iot_link/network/dtls/mbedtls/mbedtls_port\dtls_interface.c ****         {
 1614              		.loc 1 434 9 view .LVU458
 434:D:/fchai/work/i-cube/I-CUBE-HUAWEI/Middlewares/Third_Party/Huawei/iot_link/network/dtls/mbedtls/mbedtls_port\dtls_interface.c ****         {
 1615              		.loc 1 434 11 is_stmt 0 view .LVU459
 1616 00e8 002E     		cmp	r6, #0
 1617 00ea A7D1     		bne	.L189
 1618              	.L156:
 402:D:/fchai/work/i-cube/I-CUBE-HUAWEI/Middlewares/Third_Party/Huawei/iot_link/network/dtls/mbedtls/mbedtls_port\dtls_interface.c ****     mbedtls_pk_context           *client_pk = NULL;
 1619              		.loc 1 402 35 view .LVU460
 1620 00ec 3746     		mov	r7, r6
 1621 00ee A7E7     		b	.L143
 1622              	.LVL206:
 1623              	.L188:
 467:D:/fchai/work/i-cube/I-CUBE-HUAWEI/Middlewares/Third_Party/Huawei/iot_link/network/dtls/mbedtls/mbedtls_port\dtls_interface.c ****     {
 1624              		.loc 1 467 5 is_stmt 1 view .LVU461
 467:D:/fchai/work/i-cube/I-CUBE-HUAWEI/Middlewares/Third_Party/Huawei/iot_link/network/dtls/mbedtls/mbedtls_port\dtls_interface.c ****     {
 1625              		.loc 1 467 8 is_stmt 0 view .LVU462
 1626 00f0 B9F1000F 		cmp	r9, #0
 1627 00f4 E0D0     		beq	.L149
 469:D:/fchai/work/i-cube/I-CUBE-HUAWEI/Middlewares/Third_Party/Huawei/iot_link/network/dtls/mbedtls/mbedtls_port\dtls_interface.c ****     }
 1628              		.loc 1 469 9 is_stmt 1 view .LVU463
 1629 00f6 4846     		mov	r0, r9
ARM GAS  T:\msys\tmp\ccnGkxTA.s 			page 43


 1630              	.LVL207:
 469:D:/fchai/work/i-cube/I-CUBE-HUAWEI/Middlewares/Third_Party/Huawei/iot_link/network/dtls/mbedtls/mbedtls_port\dtls_interface.c ****     }
 1631              		.loc 1 469 9 is_stmt 0 view .LVU464
 1632 00f8 FFF7FEFF 		bl	mbedtls_free
 1633              	.LVL208:
 473:D:/fchai/work/i-cube/I-CUBE-HUAWEI/Middlewares/Third_Party/Huawei/iot_link/network/dtls/mbedtls/mbedtls_port\dtls_interface.c ****     {
 1634              		.loc 1 473 5 is_stmt 1 view .LVU465
 478:D:/fchai/work/i-cube/I-CUBE-HUAWEI/Middlewares/Third_Party/Huawei/iot_link/network/dtls/mbedtls/mbedtls_port\dtls_interface.c ****     {
 1635              		.loc 1 478 5 view .LVU466
 1636 00fc DCE7     		b	.L149
 1637              	.LVL209:
 1638              	.L138:
 1639              	.LCFI17:
 1640              		.cfi_def_cfa_offset 0
 1641              		.cfi_restore 4
 1642              		.cfi_restore 5
 1643              		.cfi_restore 6
 1644              		.cfi_restore 7
 1645              		.cfi_restore 8
 1646              		.cfi_restore 9
 1647              		.cfi_restore 10
 1648              		.cfi_restore 11
 1649              		.cfi_restore 14
 478:D:/fchai/work/i-cube/I-CUBE-HUAWEI/Middlewares/Third_Party/Huawei/iot_link/network/dtls/mbedtls/mbedtls_port\dtls_interface.c ****     {
 1650              		.loc 1 478 5 is_stmt 0 view .LVU467
 1651 00fe 7047     		bx	lr
 1652              		.cfi_endproc
 1653              	.LFE27:
 1655              		.section	.text.dtls_write,"ax",%progbits
 1656              		.align	1
 1657              		.p2align 2,,3
 1658              		.global	dtls_write
 1659              		.syntax unified
 1660              		.thumb
 1661              		.thumb_func
 1662              		.fpu fpv4-sp-d16
 1664              	dtls_write:
 1665              	.LVL210:
 1666              	.LFB28:
 495:D:/fchai/work/i-cube/I-CUBE-HUAWEI/Middlewares/Third_Party/Huawei/iot_link/network/dtls/mbedtls/mbedtls_port\dtls_interface.c **** 
 496:D:/fchai/work/i-cube/I-CUBE-HUAWEI/Middlewares/Third_Party/Huawei/iot_link/network/dtls/mbedtls/mbedtls_port\dtls_interface.c **** int dtls_write(mbedtls_ssl_context *ssl, const unsigned char *buf, size_t len)
 497:D:/fchai/work/i-cube/I-CUBE-HUAWEI/Middlewares/Third_Party/Huawei/iot_link/network/dtls/mbedtls/mbedtls_port\dtls_interface.c **** {
 1667              		.loc 1 497 1 is_stmt 1 view -0
 1668              		.cfi_startproc
 1669              		@ args = 0, pretend = 0, frame = 0
 1670              		@ frame_needed = 0, uses_anonymous_args = 0
 498:D:/fchai/work/i-cube/I-CUBE-HUAWEI/Middlewares/Third_Party/Huawei/iot_link/network/dtls/mbedtls/mbedtls_port\dtls_interface.c **** 
 499:D:/fchai/work/i-cube/I-CUBE-HUAWEI/Middlewares/Third_Party/Huawei/iot_link/network/dtls/mbedtls/mbedtls_port\dtls_interface.c ****     int ret;
 1671              		.loc 1 499 5 view .LVU469
 500:D:/fchai/work/i-cube/I-CUBE-HUAWEI/Middlewares/Third_Party/Huawei/iot_link/network/dtls/mbedtls/mbedtls_port\dtls_interface.c **** 
 501:D:/fchai/work/i-cube/I-CUBE-HUAWEI/Middlewares/Third_Party/Huawei/iot_link/network/dtls/mbedtls/mbedtls_port\dtls_interface.c ****     ret = mbedtls_ssl_write(ssl, (unsigned char *) buf, len);
 1672              		.loc 1 501 5 view .LVU470
 497:D:/fchai/work/i-cube/I-CUBE-HUAWEI/Middlewares/Third_Party/Huawei/iot_link/network/dtls/mbedtls/mbedtls_port\dtls_interface.c **** 
 1673              		.loc 1 497 1 is_stmt 0 view .LVU471
 1674 0000 08B5     		push	{r3, lr}
 1675              	.LCFI18:
 1676              		.cfi_def_cfa_offset 8
ARM GAS  T:\msys\tmp\ccnGkxTA.s 			page 44


 1677              		.cfi_offset 3, -8
 1678              		.cfi_offset 14, -4
 1679              		.loc 1 501 11 view .LVU472
 1680 0002 FFF7FEFF 		bl	mbedtls_ssl_write
 1681              	.LVL211:
 502:D:/fchai/work/i-cube/I-CUBE-HUAWEI/Middlewares/Third_Party/Huawei/iot_link/network/dtls/mbedtls/mbedtls_port\dtls_interface.c **** 
 503:D:/fchai/work/i-cube/I-CUBE-HUAWEI/Middlewares/Third_Party/Huawei/iot_link/network/dtls/mbedtls/mbedtls_port\dtls_interface.c ****     if ((ret == MBEDTLS_ERR_SSL_WANT_WRITE) ||(ret == MBEDTLS_ERR_SSL_TIMEOUT))
 1682              		.loc 1 503 5 is_stmt 1 view .LVU473
 1683              		.loc 1 503 8 is_stmt 0 view .LVU474
 1684 0006 10F5D14F 		cmn	r0, #26752
 1685 000a 05D0     		beq	.L193
 1686              		.loc 1 503 45 discriminator 1 view .LVU475
 1687 000c 10F5D04F 		cmn	r0, #26624
 1688 0010 02D0     		beq	.L193
 504:D:/fchai/work/i-cube/I-CUBE-HUAWEI/Middlewares/Third_Party/Huawei/iot_link/network/dtls/mbedtls/mbedtls_port\dtls_interface.c ****     {
 505:D:/fchai/work/i-cube/I-CUBE-HUAWEI/Middlewares/Third_Party/Huawei/iot_link/network/dtls/mbedtls/mbedtls_port\dtls_interface.c ****         ret =  -1;
 506:D:/fchai/work/i-cube/I-CUBE-HUAWEI/Middlewares/Third_Party/Huawei/iot_link/network/dtls/mbedtls/mbedtls_port\dtls_interface.c ****     }
 507:D:/fchai/work/i-cube/I-CUBE-HUAWEI/Middlewares/Third_Party/Huawei/iot_link/network/dtls/mbedtls/mbedtls_port\dtls_interface.c ****     else if (ret <= 0)
 1689              		.loc 1 507 10 is_stmt 1 view .LVU476
 1690 0012 20EAE070 		bic	r0, r0, r0, asr #31
 1691              	.LVL212:
 508:D:/fchai/work/i-cube/I-CUBE-HUAWEI/Middlewares/Third_Party/Huawei/iot_link/network/dtls/mbedtls/mbedtls_port\dtls_interface.c ****     {
 509:D:/fchai/work/i-cube/I-CUBE-HUAWEI/Middlewares/Third_Party/Huawei/iot_link/network/dtls/mbedtls/mbedtls_port\dtls_interface.c ****         ret = 0;
 510:D:/fchai/work/i-cube/I-CUBE-HUAWEI/Middlewares/Third_Party/Huawei/iot_link/network/dtls/mbedtls/mbedtls_port\dtls_interface.c ****     }
 511:D:/fchai/work/i-cube/I-CUBE-HUAWEI/Middlewares/Third_Party/Huawei/iot_link/network/dtls/mbedtls/mbedtls_port\dtls_interface.c **** 
 512:D:/fchai/work/i-cube/I-CUBE-HUAWEI/Middlewares/Third_Party/Huawei/iot_link/network/dtls/mbedtls/mbedtls_port\dtls_interface.c ****     return ret;
 513:D:/fchai/work/i-cube/I-CUBE-HUAWEI/Middlewares/Third_Party/Huawei/iot_link/network/dtls/mbedtls/mbedtls_port\dtls_interface.c **** }
 1692              		.loc 1 513 1 is_stmt 0 view .LVU477
 1693 0016 08BD     		pop	{r3, pc}
 1694              	.LVL213:
 1695              	.L193:
 505:D:/fchai/work/i-cube/I-CUBE-HUAWEI/Middlewares/Third_Party/Huawei/iot_link/network/dtls/mbedtls/mbedtls_port\dtls_interface.c ****     }
 1696              		.loc 1 505 13 view .LVU478
 1697 0018 4FF0FF30 		mov	r0, #-1
 1698              	.LVL214:
 512:D:/fchai/work/i-cube/I-CUBE-HUAWEI/Middlewares/Third_Party/Huawei/iot_link/network/dtls/mbedtls/mbedtls_port\dtls_interface.c **** }
 1699              		.loc 1 512 5 is_stmt 1 view .LVU479
 1700              		.loc 1 513 1 is_stmt 0 view .LVU480
 1701 001c 08BD     		pop	{r3, pc}
 1702              		.cfi_endproc
 1703              	.LFE28:
 1705 001e 00BF     		.section	.text.dtls_read,"ax",%progbits
 1706              		.align	1
 1707              		.p2align 2,,3
 1708              		.global	dtls_read
 1709              		.syntax unified
 1710              		.thumb
 1711              		.thumb_func
 1712              		.fpu fpv4-sp-d16
 1714              	dtls_read:
 1715              	.LVL215:
 1716              	.LFB29:
 514:D:/fchai/work/i-cube/I-CUBE-HUAWEI/Middlewares/Third_Party/Huawei/iot_link/network/dtls/mbedtls/mbedtls_port\dtls_interface.c **** 
 515:D:/fchai/work/i-cube/I-CUBE-HUAWEI/Middlewares/Third_Party/Huawei/iot_link/network/dtls/mbedtls/mbedtls_port\dtls_interface.c **** 
 516:D:/fchai/work/i-cube/I-CUBE-HUAWEI/Middlewares/Third_Party/Huawei/iot_link/network/dtls/mbedtls/mbedtls_port\dtls_interface.c **** ///< make it return as normal socket return
 517:D:/fchai/work/i-cube/I-CUBE-HUAWEI/Middlewares/Third_Party/Huawei/iot_link/network/dtls/mbedtls/mbedtls_port\dtls_interface.c **** int dtls_read(mbedtls_ssl_context *ssl, unsigned char *buf, size_t len, uint32_t timeout)
 518:D:/fchai/work/i-cube/I-CUBE-HUAWEI/Middlewares/Third_Party/Huawei/iot_link/network/dtls/mbedtls/mbedtls_port\dtls_interface.c **** {
ARM GAS  T:\msys\tmp\ccnGkxTA.s 			page 45


 1717              		.loc 1 518 1 is_stmt 1 view -0
 1718              		.cfi_startproc
 1719              		@ args = 0, pretend = 0, frame = 8
 1720              		@ frame_needed = 0, uses_anonymous_args = 0
 519:D:/fchai/work/i-cube/I-CUBE-HUAWEI/Middlewares/Third_Party/Huawei/iot_link/network/dtls/mbedtls/mbedtls_port\dtls_interface.c ****     int ret;
 1721              		.loc 1 519 5 view .LVU482
 520:D:/fchai/work/i-cube/I-CUBE-HUAWEI/Middlewares/Third_Party/Huawei/iot_link/network/dtls/mbedtls/mbedtls_port\dtls_interface.c **** 
 521:D:/fchai/work/i-cube/I-CUBE-HUAWEI/Middlewares/Third_Party/Huawei/iot_link/network/dtls/mbedtls/mbedtls_port\dtls_interface.c **** 
 522:D:/fchai/work/i-cube/I-CUBE-HUAWEI/Middlewares/Third_Party/Huawei/iot_link/network/dtls/mbedtls/mbedtls_port\dtls_interface.c ****     mbedtls_ssl_conf_read_timeout((mbedtls_ssl_config *)ssl->conf, timeout);
 1722              		.loc 1 522 5 view .LVU483
 518:D:/fchai/work/i-cube/I-CUBE-HUAWEI/Middlewares/Third_Party/Huawei/iot_link/network/dtls/mbedtls/mbedtls_port\dtls_interface.c ****     int ret;
 1723              		.loc 1 518 1 is_stmt 0 view .LVU484
 1724 0000 30B5     		push	{r4, r5, lr}
 1725              	.LCFI19:
 1726              		.cfi_def_cfa_offset 12
 1727              		.cfi_offset 4, -12
 1728              		.cfi_offset 5, -8
 1729              		.cfi_offset 14, -4
 1730 0002 83B0     		sub	sp, sp, #12
 1731              	.LCFI20:
 1732              		.cfi_def_cfa_offset 24
 518:D:/fchai/work/i-cube/I-CUBE-HUAWEI/Middlewares/Third_Party/Huawei/iot_link/network/dtls/mbedtls/mbedtls_port\dtls_interface.c ****     int ret;
 1733              		.loc 1 518 1 view .LVU485
 1734 0004 0446     		mov	r4, r0
 1735 0006 0D46     		mov	r5, r1
 1736              		.loc 1 522 5 view .LVU486
 1737 0008 0068     		ldr	r0, [r0]
 1738              	.LVL216:
 518:D:/fchai/work/i-cube/I-CUBE-HUAWEI/Middlewares/Third_Party/Huawei/iot_link/network/dtls/mbedtls/mbedtls_port\dtls_interface.c ****     int ret;
 1739              		.loc 1 518 1 view .LVU487
 1740 000a 0192     		str	r2, [sp, #4]
 1741              		.loc 1 522 5 view .LVU488
 1742 000c 1946     		mov	r1, r3
 1743              	.LVL217:
 1744              		.loc 1 522 5 view .LVU489
 1745 000e FFF7FEFF 		bl	mbedtls_ssl_conf_read_timeout
 1746              	.LVL218:
 523:D:/fchai/work/i-cube/I-CUBE-HUAWEI/Middlewares/Third_Party/Huawei/iot_link/network/dtls/mbedtls/mbedtls_port\dtls_interface.c **** 
 524:D:/fchai/work/i-cube/I-CUBE-HUAWEI/Middlewares/Third_Party/Huawei/iot_link/network/dtls/mbedtls/mbedtls_port\dtls_interface.c ****     ret = mbedtls_ssl_read(ssl, buf, len);
 1747              		.loc 1 524 5 is_stmt 1 view .LVU490
 1748              		.loc 1 524 11 is_stmt 0 view .LVU491
 1749 0012 019A     		ldr	r2, [sp, #4]
 1750 0014 2946     		mov	r1, r5
 1751 0016 2046     		mov	r0, r4
 1752 0018 FFF7FEFF 		bl	mbedtls_ssl_read
 1753              	.LVL219:
 525:D:/fchai/work/i-cube/I-CUBE-HUAWEI/Middlewares/Third_Party/Huawei/iot_link/network/dtls/mbedtls/mbedtls_port\dtls_interface.c **** 
 526:D:/fchai/work/i-cube/I-CUBE-HUAWEI/Middlewares/Third_Party/Huawei/iot_link/network/dtls/mbedtls/mbedtls_port\dtls_interface.c ****     if ((ret == MBEDTLS_ERR_SSL_WANT_READ) ||(ret == MBEDTLS_ERR_SSL_TIMEOUT))
 1754              		.loc 1 526 5 is_stmt 1 view .LVU492
 1755              		.loc 1 526 8 is_stmt 0 view .LVU493
 1756 001c 10F5D24F 		cmn	r0, #26880
 1757 0020 06D0     		beq	.L198
 1758              		.loc 1 526 44 discriminator 1 view .LVU494
 1759 0022 10F5D04F 		cmn	r0, #26624
 1760 0026 03D0     		beq	.L198
 527:D:/fchai/work/i-cube/I-CUBE-HUAWEI/Middlewares/Third_Party/Huawei/iot_link/network/dtls/mbedtls/mbedtls_port\dtls_interface.c ****     {
 528:D:/fchai/work/i-cube/I-CUBE-HUAWEI/Middlewares/Third_Party/Huawei/iot_link/network/dtls/mbedtls/mbedtls_port\dtls_interface.c ****         ret = -1;
ARM GAS  T:\msys\tmp\ccnGkxTA.s 			page 46


 529:D:/fchai/work/i-cube/I-CUBE-HUAWEI/Middlewares/Third_Party/Huawei/iot_link/network/dtls/mbedtls/mbedtls_port\dtls_interface.c ****     }
 530:D:/fchai/work/i-cube/I-CUBE-HUAWEI/Middlewares/Third_Party/Huawei/iot_link/network/dtls/mbedtls/mbedtls_port\dtls_interface.c ****     else if (ret <= 0)
 1761              		.loc 1 530 10 is_stmt 1 view .LVU495
 1762 0028 20EAE070 		bic	r0, r0, r0, asr #31
 1763              	.LVL220:
 1764              	.L195:
 531:D:/fchai/work/i-cube/I-CUBE-HUAWEI/Middlewares/Third_Party/Huawei/iot_link/network/dtls/mbedtls/mbedtls_port\dtls_interface.c ****     {
 532:D:/fchai/work/i-cube/I-CUBE-HUAWEI/Middlewares/Third_Party/Huawei/iot_link/network/dtls/mbedtls/mbedtls_port\dtls_interface.c ****         ret = 0;
 533:D:/fchai/work/i-cube/I-CUBE-HUAWEI/Middlewares/Third_Party/Huawei/iot_link/network/dtls/mbedtls/mbedtls_port\dtls_interface.c ****     }
 534:D:/fchai/work/i-cube/I-CUBE-HUAWEI/Middlewares/Third_Party/Huawei/iot_link/network/dtls/mbedtls/mbedtls_port\dtls_interface.c **** 
 535:D:/fchai/work/i-cube/I-CUBE-HUAWEI/Middlewares/Third_Party/Huawei/iot_link/network/dtls/mbedtls/mbedtls_port\dtls_interface.c ****     return ret;
 536:D:/fchai/work/i-cube/I-CUBE-HUAWEI/Middlewares/Third_Party/Huawei/iot_link/network/dtls/mbedtls/mbedtls_port\dtls_interface.c **** }
 1765              		.loc 1 536 1 is_stmt 0 view .LVU496
 1766 002c 03B0     		add	sp, sp, #12
 1767              	.LCFI21:
 1768              		.cfi_remember_state
 1769              		.cfi_def_cfa_offset 12
 1770              		@ sp needed
 1771 002e 30BD     		pop	{r4, r5, pc}
 1772              	.LVL221:
 1773              	.L198:
 1774              	.LCFI22:
 1775              		.cfi_restore_state
 528:D:/fchai/work/i-cube/I-CUBE-HUAWEI/Middlewares/Third_Party/Huawei/iot_link/network/dtls/mbedtls/mbedtls_port\dtls_interface.c ****     }
 1776              		.loc 1 528 13 view .LVU497
 1777 0030 4FF0FF30 		mov	r0, #-1
 1778              	.LVL222:
 535:D:/fchai/work/i-cube/I-CUBE-HUAWEI/Middlewares/Third_Party/Huawei/iot_link/network/dtls/mbedtls/mbedtls_port\dtls_interface.c **** }
 1779              		.loc 1 535 5 is_stmt 1 view .LVU498
 535:D:/fchai/work/i-cube/I-CUBE-HUAWEI/Middlewares/Third_Party/Huawei/iot_link/network/dtls/mbedtls/mbedtls_port\dtls_interface.c **** }
 1780              		.loc 1 535 12 is_stmt 0 view .LVU499
 1781 0034 FAE7     		b	.L195
 1782              		.cfi_endproc
 1783              	.LFE29:
 1785 0036 00BF     		.section	.text.dtls_accept,"ax",%progbits
 1786              		.align	1
 1787              		.p2align 2,,3
 1788              		.global	dtls_accept
 1789              		.syntax unified
 1790              		.thumb
 1791              		.thumb_func
 1792              		.fpu fpv4-sp-d16
 1794              	dtls_accept:
 1795              	.LVL223:
 1796              	.LFB30:
 537:D:/fchai/work/i-cube/I-CUBE-HUAWEI/Middlewares/Third_Party/Huawei/iot_link/network/dtls/mbedtls/mbedtls_port\dtls_interface.c **** 
 538:D:/fchai/work/i-cube/I-CUBE-HUAWEI/Middlewares/Third_Party/Huawei/iot_link/network/dtls/mbedtls/mbedtls_port\dtls_interface.c **** 
 539:D:/fchai/work/i-cube/I-CUBE-HUAWEI/Middlewares/Third_Party/Huawei/iot_link/network/dtls/mbedtls/mbedtls_port\dtls_interface.c **** 
 540:D:/fchai/work/i-cube/I-CUBE-HUAWEI/Middlewares/Third_Party/Huawei/iot_link/network/dtls/mbedtls/mbedtls_port\dtls_interface.c **** int dtls_accept( mbedtls_net_context *bind_ctx,
 541:D:/fchai/work/i-cube/I-CUBE-HUAWEI/Middlewares/Third_Party/Huawei/iot_link/network/dtls/mbedtls/mbedtls_port\dtls_interface.c ****                 mbedtls_net_context *client_ctx,
 542:D:/fchai/work/i-cube/I-CUBE-HUAWEI/Middlewares/Third_Party/Huawei/iot_link/network/dtls/mbedtls/mbedtls_port\dtls_interface.c ****                 void *client_ip, size_t buf_size, size_t *ip_len )
 543:D:/fchai/work/i-cube/I-CUBE-HUAWEI/Middlewares/Third_Party/Huawei/iot_link/network/dtls/mbedtls/mbedtls_port\dtls_interface.c **** {
 1797              		.loc 1 543 1 is_stmt 1 view -0
 1798              		.cfi_startproc
 1799              		@ args = 4, pretend = 0, frame = 0
 1800              		@ frame_needed = 0, uses_anonymous_args = 0
 1801              		@ link register save eliminated.
ARM GAS  T:\msys\tmp\ccnGkxTA.s 			page 47


 544:D:/fchai/work/i-cube/I-CUBE-HUAWEI/Middlewares/Third_Party/Huawei/iot_link/network/dtls/mbedtls/mbedtls_port\dtls_interface.c ****     return mbedtls_net_accept(bind_ctx, client_ctx, client_ip, buf_size, ip_len);
 1802              		.loc 1 544 5 view .LVU501
 1803              		.loc 1 544 12 is_stmt 0 view .LVU502
 1804 0000 FFF7FEBF 		b	mbedtls_net_accept
 1805              	.LVL224:
 1806              		.loc 1 544 12 view .LVU503
 1807              		.cfi_endproc
 1808              	.LFE30:
 1810              		.section	.text.dtls_init,"ax",%progbits
 1811              		.align	1
 1812              		.p2align 2,,3
 1813              		.global	dtls_init
 1814              		.syntax unified
 1815              		.thumb
 1816              		.thumb_func
 1817              		.fpu fpv4-sp-d16
 1819              	dtls_init:
 1820              	.LFB31:
 545:D:/fchai/work/i-cube/I-CUBE-HUAWEI/Middlewares/Third_Party/Huawei/iot_link/network/dtls/mbedtls/mbedtls_port\dtls_interface.c **** }
 546:D:/fchai/work/i-cube/I-CUBE-HUAWEI/Middlewares/Third_Party/Huawei/iot_link/network/dtls/mbedtls/mbedtls_port\dtls_interface.c **** 
 547:D:/fchai/work/i-cube/I-CUBE-HUAWEI/Middlewares/Third_Party/Huawei/iot_link/network/dtls/mbedtls/mbedtls_port\dtls_interface.c **** void dtls_init(void)
 548:D:/fchai/work/i-cube/I-CUBE-HUAWEI/Middlewares/Third_Party/Huawei/iot_link/network/dtls/mbedtls/mbedtls_port\dtls_interface.c **** {
 1821              		.loc 1 548 1 is_stmt 1 view -0
 1822              		.cfi_startproc
 1823              		@ args = 0, pretend = 0, frame = 0
 1824              		@ frame_needed = 0, uses_anonymous_args = 0
 549:D:/fchai/work/i-cube/I-CUBE-HUAWEI/Middlewares/Third_Party/Huawei/iot_link/network/dtls/mbedtls/mbedtls_port\dtls_interface.c ****     (void)mbedtls_platform_set_calloc_free(osal_calloc, osal_free);
 1825              		.loc 1 549 5 view .LVU505
 548:D:/fchai/work/i-cube/I-CUBE-HUAWEI/Middlewares/Third_Party/Huawei/iot_link/network/dtls/mbedtls/mbedtls_port\dtls_interface.c ****     (void)mbedtls_platform_set_calloc_free(osal_calloc, osal_free);
 1826              		.loc 1 548 1 is_stmt 0 view .LVU506
 1827 0000 08B5     		push	{r3, lr}
 1828              	.LCFI23:
 1829              		.cfi_def_cfa_offset 8
 1830              		.cfi_offset 3, -8
 1831              		.cfi_offset 14, -4
 1832              		.loc 1 549 11 view .LVU507
 1833 0002 0649     		ldr	r1, .L203
 1834 0004 0648     		ldr	r0, .L203+4
 1835 0006 FFF7FEFF 		bl	mbedtls_platform_set_calloc_free
 1836              	.LVL225:
 550:D:/fchai/work/i-cube/I-CUBE-HUAWEI/Middlewares/Third_Party/Huawei/iot_link/network/dtls/mbedtls/mbedtls_port\dtls_interface.c ****     (void)mbedtls_platform_set_snprintf(snprintf);
 1837              		.loc 1 550 5 is_stmt 1 view .LVU508
 1838              		.loc 1 550 11 is_stmt 0 view .LVU509
 1839 000a 0648     		ldr	r0, .L203+8
 1840 000c FFF7FEFF 		bl	mbedtls_platform_set_snprintf
 1841              	.LVL226:
 551:D:/fchai/work/i-cube/I-CUBE-HUAWEI/Middlewares/Third_Party/Huawei/iot_link/network/dtls/mbedtls/mbedtls_port\dtls_interface.c ****     (void)mbedtls_platform_set_printf(printf);
 1842              		.loc 1 551 5 is_stmt 1 view .LVU510
 552:D:/fchai/work/i-cube/I-CUBE-HUAWEI/Middlewares/Third_Party/Huawei/iot_link/network/dtls/mbedtls/mbedtls_port\dtls_interface.c **** }
 1843              		.loc 1 552 1 is_stmt 0 view .LVU511
 1844 0010 BDE80840 		pop	{r3, lr}
 1845              	.LCFI24:
 1846              		.cfi_restore 14
 1847              		.cfi_restore 3
 1848              		.cfi_def_cfa_offset 0
 551:D:/fchai/work/i-cube/I-CUBE-HUAWEI/Middlewares/Third_Party/Huawei/iot_link/network/dtls/mbedtls/mbedtls_port\dtls_interface.c ****     (void)mbedtls_platform_set_printf(printf);
 1849              		.loc 1 551 11 view .LVU512
ARM GAS  T:\msys\tmp\ccnGkxTA.s 			page 48


 1850 0014 0448     		ldr	r0, .L203+12
 1851 0016 FFF7FEBF 		b	mbedtls_platform_set_printf
 1852              	.LVL227:
 1853              	.L204:
 1854 001a 00BF     		.align	2
 1855              	.L203:
 1856 001c 00000000 		.word	osal_free
 1857 0020 00000000 		.word	osal_calloc
 1858 0024 00000000 		.word	snprintf
 1859 0028 00000000 		.word	printf
 1860              		.cfi_endproc
 1861              	.LFE31:
 1863              		.section	.rodata.__FUNCTION__.10381,"a"
 1864              		.align	2
 1865              		.set	.LANCHOR0,. + 0
 1868              	__FUNCTION__.10381:
 1869 0000 64746C73 		.ascii	"dtls_ssl_new\000"
 1869      5F73736C 
 1869      5F6E6577 
 1869      00
 1870              		.section	.rodata.__FUNCTION__.10393,"a"
 1871              		.align	2
 1872              		.set	.LANCHOR1,. + 0
 1875              	__FUNCTION__.10393:
 1876 0000 64746C73 		.ascii	"dtls_shakehand\000"
 1876      5F736861 
 1876      6B656861 
 1876      6E6400
 1877              		.text
 1878              	.Letext0:
 1879              		.file 2 "t:\\msys\\3rd\\gcc-arm-none-eabi-9-2020-q2-update-win32\\arm-none-eabi\\include\\machine\
 1880              		.file 3 "t:\\msys\\3rd\\gcc-arm-none-eabi-9-2020-q2-update-win32\\arm-none-eabi\\include\\sys\\_st
 1881              		.file 4 "t:\\msys\\3rd\\gcc-arm-none-eabi-9-2020-q2-update-win32\\lib\\gcc\\arm-none-eabi\\9.3.1\\
 1882              		.file 5 "t:\\msys\\3rd\\gcc-arm-none-eabi-9-2020-q2-update-win32\\arm-none-eabi\\include\\sys\\_ty
 1883              		.file 6 "t:\\msys\\3rd\\gcc-arm-none-eabi-9-2020-q2-update-win32\\arm-none-eabi\\include\\sys\\ree
 1884              		.file 7 "t:\\msys\\3rd\\gcc-arm-none-eabi-9-2020-q2-update-win32\\arm-none-eabi\\include\\sys\\loc
 1885              		.file 8 "t:\\msys\\3rd\\gcc-arm-none-eabi-9-2020-q2-update-win32\\arm-none-eabi\\include\\stdlib.h
 1886              		.file 9 "t:\\msys\\3rd\\gcc-arm-none-eabi-9-2020-q2-update-win32\\arm-none-eabi\\include\\time.h"
 1887              		.file 10 "D:/fchai/work/i-cube/I-CUBE-HUAWEI/Middlewares/Third_Party/Huawei/iot_link/network/dtls/
 1888              		.file 11 "D:/fchai/work/i-cube/I-CUBE-HUAWEI/Middlewares/Third_Party/Huawei/iot_link/network/dtls/
 1889              		.file 12 "D:/fchai/work/i-cube/I-CUBE-HUAWEI/Middlewares/Third_Party/Huawei/iot_link/inc/link_log.
 1890              		.file 13 "D:/fchai/work/i-cube/I-CUBE-HUAWEI/Middlewares/Third_Party/Huawei/iot_link/network/dtls/
 1891              		.file 14 "D:/fchai/work/i-cube/I-CUBE-HUAWEI/Middlewares/Third_Party/Huawei/iot_link/network/dtls/
 1892              		.file 15 "D:/fchai/work/i-cube/I-CUBE-HUAWEI/Middlewares/Third_Party/Huawei/iot_link/network/dtls/
 1893              		.file 16 "D:/fchai/work/i-cube/I-CUBE-HUAWEI/Middlewares/Third_Party/Huawei/iot_link/network/dtls/
 1894              		.file 17 "D:/fchai/work/i-cube/I-CUBE-HUAWEI/Middlewares/Third_Party/Huawei/iot_link/network/dtls/
 1895              		.file 18 "D:/fchai/work/i-cube/I-CUBE-HUAWEI/Middlewares/Third_Party/Huawei/iot_link/network/dtls/
 1896              		.file 19 "D:/fchai/work/i-cube/I-CUBE-HUAWEI/Middlewares/Third_Party/Huawei/iot_link/network/dtls/
 1897              		.file 20 "D:/fchai/work/i-cube/I-CUBE-HUAWEI/Middlewares/Third_Party/Huawei/iot_link/network/dtls/
 1898              		.file 21 "D:/fchai/work/i-cube/I-CUBE-HUAWEI/Middlewares/Third_Party/Huawei/iot_link/network/dtls/
 1899              		.file 22 "D:/fchai/work/i-cube/I-CUBE-HUAWEI/Middlewares/Third_Party/Huawei/iot_link/network/dtls/
 1900              		.file 23 "D:/fchai/work/i-cube/I-CUBE-HUAWEI/Middlewares/Third_Party/Huawei/iot_link/network/dtls/
 1901              		.file 24 "D:/fchai/work/i-cube/I-CUBE-HUAWEI/Middlewares/Third_Party/Huawei/iot_link/network/dtls/
 1902              		.file 25 "D:/fchai/work/i-cube/I-CUBE-HUAWEI/Middlewares/Third_Party/Huawei/iot_link/network/dtls/
 1903              		.file 26 "D:/fchai/work/i-cube/I-CUBE-HUAWEI/Middlewares/Third_Party/Huawei/iot_link/network/dtls/
 1904              		.file 27 "D:/fchai/work/i-cube/I-CUBE-HUAWEI/Middlewares/Third_Party/Huawei/iot_link/network/dtls/
 1905              		.file 28 "D:/fchai/work/i-cube/I-CUBE-HUAWEI/Middlewares/Third_Party/Huawei/iot_link/network/dtls/
ARM GAS  T:\msys\tmp\ccnGkxTA.s 			page 49


 1906              		.file 29 "D:/fchai/work/i-cube/I-CUBE-HUAWEI/Middlewares/Third_Party/Huawei/iot_link/network/dtls/
 1907              		.file 30 "D:/fchai/work/i-cube/I-CUBE-HUAWEI/Middlewares/Third_Party/Huawei/iot_link/network/dtls/
 1908              		.file 31 "D:/fchai/work/i-cube/I-CUBE-HUAWEI/Middlewares/Third_Party/Huawei/iot_link/network/dtls/
 1909              		.file 32 "D:/fchai/work/i-cube/I-CUBE-HUAWEI/Middlewares/Third_Party/Huawei/iot_link/os/osal/osal.
 1910              		.file 33 "t:\\msys\\3rd\\gcc-arm-none-eabi-9-2020-q2-update-win32\\arm-none-eabi\\include\\stdio.h
ARM GAS  T:\msys\tmp\ccnGkxTA.s 			page 50

