ARM GAS  T:\msys\tmp\ccVVq316.s 			page 1


   1              		.cpu cortex-m4
   2              		.eabi_attribute 27, 1
   3              		.eabi_attribute 28, 1
   4              		.eabi_attribute 20, 1
   5              		.eabi_attribute 21, 1
   6              		.eabi_attribute 23, 3
   7              		.eabi_attribute 24, 1
   8              		.eabi_attribute 25, 1
   9              		.eabi_attribute 26, 1
  10              		.eabi_attribute 30, 2
  11              		.eabi_attribute 34, 1
  12              		.eabi_attribute 18, 4
  13              		.file	"mbed_port.c"
  14              		.text
  15              	.Ltext0:
  16              		.cfi_sections	.debug_frame
  17              		.section	.text.mbed_new,"ax",%progbits
  18              		.align	1
  19              		.p2align 2,,3
  20              		.global	mbed_new
  21              		.arch armv7e-m
  22              		.syntax unified
  23              		.thumb
  24              		.thumb_func
  25              		.fpu fpv4-sp-d16
  27              	mbed_new:
  28              	.LVL0:
  29              	.LFB18:
  30              		.file 1 "D:/fchai/work/i-cube/I-CUBE-HUAWEI/Middlewares/Third_Party/Huawei/iot_link/network/dtls/m
   1:D:/fchai/work/i-cube/I-CUBE-HUAWEI/Middlewares/Third_Party/Huawei/iot_link/network/dtls/mbedtls/mbedtls_port\mbed_port.c **** /*----------------------------------------------------------------------------
   2:D:/fchai/work/i-cube/I-CUBE-HUAWEI/Middlewares/Third_Party/Huawei/iot_link/network/dtls/mbedtls/mbedtls_port\mbed_port.c ****  * Copyright (c) <2018>, <Huawei Technologies Co., Ltd>
   3:D:/fchai/work/i-cube/I-CUBE-HUAWEI/Middlewares/Third_Party/Huawei/iot_link/network/dtls/mbedtls/mbedtls_port\mbed_port.c ****  * All rights reserved.
   4:D:/fchai/work/i-cube/I-CUBE-HUAWEI/Middlewares/Third_Party/Huawei/iot_link/network/dtls/mbedtls/mbedtls_port\mbed_port.c ****  * Redistribution and use in source and binary forms, with or without modification,
   5:D:/fchai/work/i-cube/I-CUBE-HUAWEI/Middlewares/Third_Party/Huawei/iot_link/network/dtls/mbedtls/mbedtls_port\mbed_port.c ****  * are permitted provided that the following conditions are met:
   6:D:/fchai/work/i-cube/I-CUBE-HUAWEI/Middlewares/Third_Party/Huawei/iot_link/network/dtls/mbedtls/mbedtls_port\mbed_port.c ****  * 1. Redistributions of source code must retain the above copyright notice, this list of
   7:D:/fchai/work/i-cube/I-CUBE-HUAWEI/Middlewares/Third_Party/Huawei/iot_link/network/dtls/mbedtls/mbedtls_port\mbed_port.c ****  * conditions and the following disclaimer.
   8:D:/fchai/work/i-cube/I-CUBE-HUAWEI/Middlewares/Third_Party/Huawei/iot_link/network/dtls/mbedtls/mbedtls_port\mbed_port.c ****  * 2. Redistributions in binary form must reproduce the above copyright notice, this list
   9:D:/fchai/work/i-cube/I-CUBE-HUAWEI/Middlewares/Third_Party/Huawei/iot_link/network/dtls/mbedtls/mbedtls_port\mbed_port.c ****  * of conditions and the following disclaimer in the documentation and/or other materials
  10:D:/fchai/work/i-cube/I-CUBE-HUAWEI/Middlewares/Third_Party/Huawei/iot_link/network/dtls/mbedtls/mbedtls_port\mbed_port.c ****  * provided with the distribution.
  11:D:/fchai/work/i-cube/I-CUBE-HUAWEI/Middlewares/Third_Party/Huawei/iot_link/network/dtls/mbedtls/mbedtls_port\mbed_port.c ****  * 3. Neither the name of the copyright holder nor the names of its contributors may be used
  12:D:/fchai/work/i-cube/I-CUBE-HUAWEI/Middlewares/Third_Party/Huawei/iot_link/network/dtls/mbedtls/mbedtls_port\mbed_port.c ****  * to endorse or promote products derived from this software without specific prior written
  13:D:/fchai/work/i-cube/I-CUBE-HUAWEI/Middlewares/Third_Party/Huawei/iot_link/network/dtls/mbedtls/mbedtls_port\mbed_port.c ****  * permission.
  14:D:/fchai/work/i-cube/I-CUBE-HUAWEI/Middlewares/Third_Party/Huawei/iot_link/network/dtls/mbedtls/mbedtls_port\mbed_port.c ****  * THIS SOFTWARE IS PROVIDED BY THE COPYRIGHT HOLDERS AND CONTRIBUTORS
  15:D:/fchai/work/i-cube/I-CUBE-HUAWEI/Middlewares/Third_Party/Huawei/iot_link/network/dtls/mbedtls/mbedtls_port\mbed_port.c ****  * "AS IS" AND ANY EXPRESS OR IMPLIED WARRANTIES, INCLUDING, BUT NOT LIMITED TO,
  16:D:/fchai/work/i-cube/I-CUBE-HUAWEI/Middlewares/Third_Party/Huawei/iot_link/network/dtls/mbedtls/mbedtls_port\mbed_port.c ****  * THE IMPLIED WARRANTIES OF MERCHANTABILITY AND FITNESS FOR A PARTICULAR
  17:D:/fchai/work/i-cube/I-CUBE-HUAWEI/Middlewares/Third_Party/Huawei/iot_link/network/dtls/mbedtls/mbedtls_port\mbed_port.c ****  * PURPOSE ARE DISCLAIMED. IN NO EVENT SHALL THE COPYRIGHT HOLDER OR
  18:D:/fchai/work/i-cube/I-CUBE-HUAWEI/Middlewares/Third_Party/Huawei/iot_link/network/dtls/mbedtls/mbedtls_port\mbed_port.c ****  * CONTRIBUTORS BE LIABLE FOR ANY DIRECT, INDIRECT, INCIDENTAL, SPECIAL,
  19:D:/fchai/work/i-cube/I-CUBE-HUAWEI/Middlewares/Third_Party/Huawei/iot_link/network/dtls/mbedtls/mbedtls_port\mbed_port.c ****  * EXEMPLARY, OR CONSEQUENTIAL DAMAGES (INCLUDING, BUT NOT LIMITED TO,
  20:D:/fchai/work/i-cube/I-CUBE-HUAWEI/Middlewares/Third_Party/Huawei/iot_link/network/dtls/mbedtls/mbedtls_port\mbed_port.c ****  * PROCUREMENT OF SUBSTITUTE GOODS OR SERVICES; LOSS OF USE, DATA, OR PROFITS;
  21:D:/fchai/work/i-cube/I-CUBE-HUAWEI/Middlewares/Third_Party/Huawei/iot_link/network/dtls/mbedtls/mbedtls_port\mbed_port.c ****  * OR BUSINESS INTERRUPTION) HOWEVER CAUSED AND ON ANY THEORY OF LIABILITY,
  22:D:/fchai/work/i-cube/I-CUBE-HUAWEI/Middlewares/Third_Party/Huawei/iot_link/network/dtls/mbedtls/mbedtls_port\mbed_port.c ****  * WHETHER IN CONTRACT, STRICT LIABILITY, OR TORT (INCLUDING NEGLIGENCE OR
  23:D:/fchai/work/i-cube/I-CUBE-HUAWEI/Middlewares/Third_Party/Huawei/iot_link/network/dtls/mbedtls/mbedtls_port\mbed_port.c ****  * OTHERWISE) ARISING IN ANY WAY OUT OF THE USE OF THIS SOFTWARE, EVEN IF
  24:D:/fchai/work/i-cube/I-CUBE-HUAWEI/Middlewares/Third_Party/Huawei/iot_link/network/dtls/mbedtls/mbedtls_port\mbed_port.c ****  * ADVISED OF THE POSSIBILITY OF SUCH DAMAGE.
  25:D:/fchai/work/i-cube/I-CUBE-HUAWEI/Middlewares/Third_Party/Huawei/iot_link/network/dtls/mbedtls/mbedtls_port\mbed_port.c ****  *---------------------------------------------------------------------------*/
  26:D:/fchai/work/i-cube/I-CUBE-HUAWEI/Middlewares/Third_Party/Huawei/iot_link/network/dtls/mbedtls/mbedtls_port\mbed_port.c **** /*----------------------------------------------------------------------------
  27:D:/fchai/work/i-cube/I-CUBE-HUAWEI/Middlewares/Third_Party/Huawei/iot_link/network/dtls/mbedtls/mbedtls_port\mbed_port.c ****  * Notice of Export Control Law
  28:D:/fchai/work/i-cube/I-CUBE-HUAWEI/Middlewares/Third_Party/Huawei/iot_link/network/dtls/mbedtls/mbedtls_port\mbed_port.c ****  * ===============================================
ARM GAS  T:\msys\tmp\ccVVq316.s 			page 2


  29:D:/fchai/work/i-cube/I-CUBE-HUAWEI/Middlewares/Third_Party/Huawei/iot_link/network/dtls/mbedtls/mbedtls_port\mbed_port.c ****  * Huawei LiteOS may be subject to applicable export control laws and regulations, which might
  30:D:/fchai/work/i-cube/I-CUBE-HUAWEI/Middlewares/Third_Party/Huawei/iot_link/network/dtls/mbedtls/mbedtls_port\mbed_port.c ****  * include those applicable to Huawei LiteOS of U.S. and the country in which you are located.
  31:D:/fchai/work/i-cube/I-CUBE-HUAWEI/Middlewares/Third_Party/Huawei/iot_link/network/dtls/mbedtls/mbedtls_port\mbed_port.c ****  * Import, export and usage of Huawei LiteOS in any manner by you shall be in compliance with such
  32:D:/fchai/work/i-cube/I-CUBE-HUAWEI/Middlewares/Third_Party/Huawei/iot_link/network/dtls/mbedtls/mbedtls_port\mbed_port.c ****  * applicable export control laws and regulations.
  33:D:/fchai/work/i-cube/I-CUBE-HUAWEI/Middlewares/Third_Party/Huawei/iot_link/network/dtls/mbedtls/mbedtls_port\mbed_port.c ****  *---------------------------------------------------------------------------*/
  34:D:/fchai/work/i-cube/I-CUBE-HUAWEI/Middlewares/Third_Party/Huawei/iot_link/network/dtls/mbedtls/mbedtls_port\mbed_port.c **** /**
  35:D:/fchai/work/i-cube/I-CUBE-HUAWEI/Middlewares/Third_Party/Huawei/iot_link/network/dtls/mbedtls/mbedtls_port\mbed_port.c ****  *  DATE                AUTHOR      INSTRUCTION
  36:D:/fchai/work/i-cube/I-CUBE-HUAWEI/Middlewares/Third_Party/Huawei/iot_link/network/dtls/mbedtls/mbedtls_port\mbed_port.c ****  *  2020-02-18 09:00  zhangqianfu  The first version
  37:D:/fchai/work/i-cube/I-CUBE-HUAWEI/Middlewares/Third_Party/Huawei/iot_link/network/dtls/mbedtls/mbedtls_port\mbed_port.c ****  *
  38:D:/fchai/work/i-cube/I-CUBE-HUAWEI/Middlewares/Third_Party/Huawei/iot_link/network/dtls/mbedtls/mbedtls_port\mbed_port.c ****  */
  39:D:/fchai/work/i-cube/I-CUBE-HUAWEI/Middlewares/Third_Party/Huawei/iot_link/network/dtls/mbedtls/mbedtls_port\mbed_port.c **** 
  40:D:/fchai/work/i-cube/I-CUBE-HUAWEI/Middlewares/Third_Party/Huawei/iot_link/network/dtls/mbedtls/mbedtls_port\mbed_port.c **** #include <string.h>
  41:D:/fchai/work/i-cube/I-CUBE-HUAWEI/Middlewares/Third_Party/Huawei/iot_link/network/dtls/mbedtls/mbedtls_port\mbed_port.c **** #include <osal.h>
  42:D:/fchai/work/i-cube/I-CUBE-HUAWEI/Middlewares/Third_Party/Huawei/iot_link/network/dtls/mbedtls/mbedtls_port\mbed_port.c **** #include <dtls_al.h>
  43:D:/fchai/work/i-cube/I-CUBE-HUAWEI/Middlewares/Third_Party/Huawei/iot_link/network/dtls/mbedtls/mbedtls_port\mbed_port.c **** #include <dtls_interface.h>
  44:D:/fchai/work/i-cube/I-CUBE-HUAWEI/Middlewares/Third_Party/Huawei/iot_link/network/dtls/mbedtls/mbedtls_port\mbed_port.c **** 
  45:D:/fchai/work/i-cube/I-CUBE-HUAWEI/Middlewares/Third_Party/Huawei/iot_link/network/dtls/mbedtls/mbedtls_port\mbed_port.c **** 
  46:D:/fchai/work/i-cube/I-CUBE-HUAWEI/Middlewares/Third_Party/Huawei/iot_link/network/dtls/mbedtls/mbedtls_port\mbed_port.c **** #if defined(MBEDTLS_DEBUG_C)
  47:D:/fchai/work/i-cube/I-CUBE-HUAWEI/Middlewares/Third_Party/Huawei/iot_link/network/dtls/mbedtls/mbedtls_port\mbed_port.c **** static void mbed_port_debug( void *ctx, int level,
  48:D:/fchai/work/i-cube/I-CUBE-HUAWEI/Middlewares/Third_Party/Huawei/iot_link/network/dtls/mbedtls/mbedtls_port\mbed_port.c ****                       const char *file, int line,
  49:D:/fchai/work/i-cube/I-CUBE-HUAWEI/Middlewares/Third_Party/Huawei/iot_link/network/dtls/mbedtls/mbedtls_port\mbed_port.c ****                       const char *str )
  50:D:/fchai/work/i-cube/I-CUBE-HUAWEI/Middlewares/Third_Party/Huawei/iot_link/network/dtls/mbedtls/mbedtls_port\mbed_port.c **** {
  51:D:/fchai/work/i-cube/I-CUBE-HUAWEI/Middlewares/Third_Party/Huawei/iot_link/network/dtls/mbedtls/mbedtls_port\mbed_port.c ****     const char *p, *basename;
  52:D:/fchai/work/i-cube/I-CUBE-HUAWEI/Middlewares/Third_Party/Huawei/iot_link/network/dtls/mbedtls/mbedtls_port\mbed_port.c **** 
  53:D:/fchai/work/i-cube/I-CUBE-HUAWEI/Middlewares/Third_Party/Huawei/iot_link/network/dtls/mbedtls/mbedtls_port\mbed_port.c ****     /* Extract basename from file */
  54:D:/fchai/work/i-cube/I-CUBE-HUAWEI/Middlewares/Third_Party/Huawei/iot_link/network/dtls/mbedtls/mbedtls_port\mbed_port.c ****     for( p = basename = file; *p != '\0'; p++ )
  55:D:/fchai/work/i-cube/I-CUBE-HUAWEI/Middlewares/Third_Party/Huawei/iot_link/network/dtls/mbedtls/mbedtls_port\mbed_port.c ****         if( *p == '/' || *p == '\\' )
  56:D:/fchai/work/i-cube/I-CUBE-HUAWEI/Middlewares/Third_Party/Huawei/iot_link/network/dtls/mbedtls/mbedtls_port\mbed_port.c ****             basename = p + 1;
  57:D:/fchai/work/i-cube/I-CUBE-HUAWEI/Middlewares/Third_Party/Huawei/iot_link/network/dtls/mbedtls/mbedtls_port\mbed_port.c **** 
  58:D:/fchai/work/i-cube/I-CUBE-HUAWEI/Middlewares/Third_Party/Huawei/iot_link/network/dtls/mbedtls/mbedtls_port\mbed_port.c ****     printf("%s:%04d: |%d| %s", basename, line, level, str );
  59:D:/fchai/work/i-cube/I-CUBE-HUAWEI/Middlewares/Third_Party/Huawei/iot_link/network/dtls/mbedtls/mbedtls_port\mbed_port.c **** }
  60:D:/fchai/work/i-cube/I-CUBE-HUAWEI/Middlewares/Third_Party/Huawei/iot_link/network/dtls/mbedtls/mbedtls_port\mbed_port.c **** #endif
  61:D:/fchai/work/i-cube/I-CUBE-HUAWEI/Middlewares/Third_Party/Huawei/iot_link/network/dtls/mbedtls/mbedtls_port\mbed_port.c **** 
  62:D:/fchai/work/i-cube/I-CUBE-HUAWEI/Middlewares/Third_Party/Huawei/iot_link/network/dtls/mbedtls/mbedtls_port\mbed_port.c **** en_dtls_al_err_t mbed_new(dtls_al_para_t *para, void **handle)
  63:D:/fchai/work/i-cube/I-CUBE-HUAWEI/Middlewares/Third_Party/Huawei/iot_link/network/dtls/mbedtls/mbedtls_port\mbed_port.c **** {
  31              		.loc 1 63 1 view -0
  32              		.cfi_startproc
  33              		@ args = 0, pretend = 0, frame = 40
  34              		@ frame_needed = 0, uses_anonymous_args = 0
  64:D:/fchai/work/i-cube/I-CUBE-HUAWEI/Middlewares/Third_Party/Huawei/iot_link/network/dtls/mbedtls/mbedtls_port\mbed_port.c **** 
  65:D:/fchai/work/i-cube/I-CUBE-HUAWEI/Middlewares/Third_Party/Huawei/iot_link/network/dtls/mbedtls/mbedtls_port\mbed_port.c ****     en_dtls_al_err_t ret = EN_DTLS_AL_ERR_PARA;
  35              		.loc 1 65 5 view .LVU1
  66:D:/fchai/work/i-cube/I-CUBE-HUAWEI/Middlewares/Third_Party/Huawei/iot_link/network/dtls/mbedtls/mbedtls_port\mbed_port.c ****     mbedtls_ssl_context  *ssl;
  36              		.loc 1 66 5 view .LVU2
  67:D:/fchai/work/i-cube/I-CUBE-HUAWEI/Middlewares/Third_Party/Huawei/iot_link/network/dtls/mbedtls/mbedtls_port\mbed_port.c ****     dtls_establish_info_s einfo;
  37              		.loc 1 67 5 view .LVU3
  68:D:/fchai/work/i-cube/I-CUBE-HUAWEI/Middlewares/Third_Party/Huawei/iot_link/network/dtls/mbedtls/mbedtls_port\mbed_port.c ****     char  plat_type;
  38              		.loc 1 68 5 view .LVU4
  69:D:/fchai/work/i-cube/I-CUBE-HUAWEI/Middlewares/Third_Party/Huawei/iot_link/network/dtls/mbedtls/mbedtls_port\mbed_port.c **** 
  70:D:/fchai/work/i-cube/I-CUBE-HUAWEI/Middlewares/Third_Party/Huawei/iot_link/network/dtls/mbedtls/mbedtls_port\mbed_port.c ****     if(para->security.type == EN_DTLS_AL_SECURITY_TYPE_CERT)
  39              		.loc 1 70 5 view .LVU5
  63:D:/fchai/work/i-cube/I-CUBE-HUAWEI/Middlewares/Third_Party/Huawei/iot_link/network/dtls/mbedtls/mbedtls_port\mbed_port.c **** 
  40              		.loc 1 63 1 is_stmt 0 view .LVU6
  41 0000 30B5     		push	{r4, r5, lr}
  42              	.LCFI0:
  43              		.cfi_def_cfa_offset 12
  44              		.cfi_offset 4, -12
ARM GAS  T:\msys\tmp\ccVVq316.s 			page 3


  45              		.cfi_offset 5, -8
  46              		.cfi_offset 14, -4
  47              		.loc 1 70 7 view .LVU7
  48 0002 037A     		ldrb	r3, [r0, #8]	@ zero_extendqisi2
  49 0004 022B     		cmp	r3, #2
  63:D:/fchai/work/i-cube/I-CUBE-HUAWEI/Middlewares/Third_Party/Huawei/iot_link/network/dtls/mbedtls/mbedtls_port\mbed_port.c **** 
  50              		.loc 1 63 1 view .LVU8
  51 0006 8BB0     		sub	sp, sp, #44
  52              	.LCFI1:
  53              		.cfi_def_cfa_offset 56
  63:D:/fchai/work/i-cube/I-CUBE-HUAWEI/Middlewares/Third_Party/Huawei/iot_link/network/dtls/mbedtls/mbedtls_port\mbed_port.c **** 
  54              		.loc 1 63 1 view .LVU9
  55 0008 0C46     		mov	r4, r1
  56              		.loc 1 70 7 view .LVU10
  57 000a 19D0     		beq	.L8
  71:D:/fchai/work/i-cube/I-CUBE-HUAWEI/Middlewares/Third_Party/Huawei/iot_link/network/dtls/mbedtls/mbedtls_port\mbed_port.c ****     {
  72:D:/fchai/work/i-cube/I-CUBE-HUAWEI/Middlewares/Third_Party/Huawei/iot_link/network/dtls/mbedtls/mbedtls_port\mbed_port.c ****         einfo.psk_or_cert = VERIFY_WITH_CERT;
  73:D:/fchai/work/i-cube/I-CUBE-HUAWEI/Middlewares/Third_Party/Huawei/iot_link/network/dtls/mbedtls/mbedtls_port\mbed_port.c **** 
  74:D:/fchai/work/i-cube/I-CUBE-HUAWEI/Middlewares/Third_Party/Huawei/iot_link/network/dtls/mbedtls/mbedtls_port\mbed_port.c ****         einfo.v.c.ca_cert = para->security.u.cert.server_ca;
  75:D:/fchai/work/i-cube/I-CUBE-HUAWEI/Middlewares/Third_Party/Huawei/iot_link/network/dtls/mbedtls/mbedtls_port\mbed_port.c ****         einfo.v.c.cert_len = para->security.u.cert.server_ca_len;
  76:D:/fchai/work/i-cube/I-CUBE-HUAWEI/Middlewares/Third_Party/Huawei/iot_link/network/dtls/mbedtls/mbedtls_port\mbed_port.c ****         einfo.v.c.client_ca = para->security.u.cert.client_ca;
  77:D:/fchai/work/i-cube/I-CUBE-HUAWEI/Middlewares/Third_Party/Huawei/iot_link/network/dtls/mbedtls/mbedtls_port\mbed_port.c ****         einfo.v.c.client_ca_len = para->security.u.cert.client_ca_len;
  78:D:/fchai/work/i-cube/I-CUBE-HUAWEI/Middlewares/Third_Party/Huawei/iot_link/network/dtls/mbedtls/mbedtls_port\mbed_port.c ****         einfo.v.c.client_pk = para->security.u.cert.client_pk;
  79:D:/fchai/work/i-cube/I-CUBE-HUAWEI/Middlewares/Third_Party/Huawei/iot_link/network/dtls/mbedtls/mbedtls_port\mbed_port.c ****         einfo.v.c.client_pk_len = para->security.u.cert.client_pk_len;
  80:D:/fchai/work/i-cube/I-CUBE-HUAWEI/Middlewares/Third_Party/Huawei/iot_link/network/dtls/mbedtls/mbedtls_port\mbed_port.c ****         einfo.v.c.client_pk_pwd = para->security.u.cert.client_pk_pwd;
  81:D:/fchai/work/i-cube/I-CUBE-HUAWEI/Middlewares/Third_Party/Huawei/iot_link/network/dtls/mbedtls/mbedtls_port\mbed_port.c ****         einfo.v.c.client_pk_pwd_len = para->security.u.cert.client_pk_pwd_len;
  82:D:/fchai/work/i-cube/I-CUBE-HUAWEI/Middlewares/Third_Party/Huawei/iot_link/network/dtls/mbedtls/mbedtls_port\mbed_port.c ****     }
  83:D:/fchai/work/i-cube/I-CUBE-HUAWEI/Middlewares/Third_Party/Huawei/iot_link/network/dtls/mbedtls/mbedtls_port\mbed_port.c ****     else
  84:D:/fchai/work/i-cube/I-CUBE-HUAWEI/Middlewares/Third_Party/Huawei/iot_link/network/dtls/mbedtls/mbedtls_port\mbed_port.c ****     {
  85:D:/fchai/work/i-cube/I-CUBE-HUAWEI/Middlewares/Third_Party/Huawei/iot_link/network/dtls/mbedtls/mbedtls_port\mbed_port.c ****         einfo.psk_or_cert  = VERIFY_WITH_PSK;
  58              		.loc 1 85 9 is_stmt 1 view .LVU11
  86:D:/fchai/work/i-cube/I-CUBE-HUAWEI/Middlewares/Third_Party/Huawei/iot_link/network/dtls/mbedtls/mbedtls_port\mbed_port.c ****         einfo.v.p.psk = para->security.u.psk.psk_key;
  59              		.loc 1 86 23 is_stmt 0 view .LVU12
  60 000c 0169     		ldr	r1, [r0, #16]
  61              	.LVL1:
  87:D:/fchai/work/i-cube/I-CUBE-HUAWEI/Middlewares/Third_Party/Huawei/iot_link/network/dtls/mbedtls/mbedtls_port\mbed_port.c ****         einfo.v.p.psk_len = para->security.u.psk.psk_key_len;
  62              		.loc 1 87 27 view .LVU13
  63 000e 8269     		ldr	r2, [r0, #24]
  88:D:/fchai/work/i-cube/I-CUBE-HUAWEI/Middlewares/Third_Party/Huawei/iot_link/network/dtls/mbedtls/mbedtls_port\mbed_port.c ****         einfo.v.p.psk_identity = para->security.u.psk.psk_id;
  64              		.loc 1 88 32 view .LVU14
  65 0010 C368     		ldr	r3, [r0, #12]
  66 0012 0293     		str	r3, [sp, #8]
  87:D:/fchai/work/i-cube/I-CUBE-HUAWEI/Middlewares/Third_Party/Huawei/iot_link/network/dtls/mbedtls/mbedtls_port\mbed_port.c ****         einfo.v.p.psk_len = para->security.u.psk.psk_key_len;
  67              		.loc 1 87 27 view .LVU15
  68 0014 CDE90012 		strd	r1, r2, [sp]
  85:D:/fchai/work/i-cube/I-CUBE-HUAWEI/Middlewares/Third_Party/Huawei/iot_link/network/dtls/mbedtls/mbedtls_port\mbed_port.c ****         einfo.v.p.psk = para->security.u.psk.psk_key;
  69              		.loc 1 85 28 view .LVU16
  70 0018 0025     		movs	r5, #0
  71 001a 8DF82050 		strb	r5, [sp, #32]
  86:D:/fchai/work/i-cube/I-CUBE-HUAWEI/Middlewares/Third_Party/Huawei/iot_link/network/dtls/mbedtls/mbedtls_port\mbed_port.c ****         einfo.v.p.psk_len = para->security.u.psk.psk_key_len;
  72              		.loc 1 86 9 is_stmt 1 view .LVU17
  73              		.loc 1 88 9 view .LVU18
  74              	.L3:
  89:D:/fchai/work/i-cube/I-CUBE-HUAWEI/Middlewares/Third_Party/Huawei/iot_link/network/dtls/mbedtls/mbedtls_port\mbed_port.c ****     }
  90:D:/fchai/work/i-cube/I-CUBE-HUAWEI/Middlewares/Third_Party/Huawei/iot_link/network/dtls/mbedtls/mbedtls_port\mbed_port.c **** 
  91:D:/fchai/work/i-cube/I-CUBE-HUAWEI/Middlewares/Third_Party/Huawei/iot_link/network/dtls/mbedtls/mbedtls_port\mbed_port.c ****     if(para->istcp)
  75              		.loc 1 91 5 view .LVU19
ARM GAS  T:\msys\tmp\ccVVq316.s 			page 4


  92:D:/fchai/work/i-cube/I-CUBE-HUAWEI/Middlewares/Third_Party/Huawei/iot_link/network/dtls/mbedtls/mbedtls_port\mbed_port.c ****     {
  93:D:/fchai/work/i-cube/I-CUBE-HUAWEI/Middlewares/Third_Party/Huawei/iot_link/network/dtls/mbedtls/mbedtls_port\mbed_port.c ****         einfo.udp_or_tcp = MBEDTLS_NET_PROTO_TCP;
  94:D:/fchai/work/i-cube/I-CUBE-HUAWEI/Middlewares/Third_Party/Huawei/iot_link/network/dtls/mbedtls/mbedtls_port\mbed_port.c ****     }
  95:D:/fchai/work/i-cube/I-CUBE-HUAWEI/Middlewares/Third_Party/Huawei/iot_link/network/dtls/mbedtls/mbedtls_port\mbed_port.c ****     else
  96:D:/fchai/work/i-cube/I-CUBE-HUAWEI/Middlewares/Third_Party/Huawei/iot_link/network/dtls/mbedtls/mbedtls_port\mbed_port.c ****     {
  97:D:/fchai/work/i-cube/I-CUBE-HUAWEI/Middlewares/Third_Party/Huawei/iot_link/network/dtls/mbedtls/mbedtls_port\mbed_port.c ****         einfo.udp_or_tcp = MBEDTLS_NET_PROTO_UDP;
  98:D:/fchai/work/i-cube/I-CUBE-HUAWEI/Middlewares/Third_Party/Huawei/iot_link/network/dtls/mbedtls/mbedtls_port\mbed_port.c ****     }
  99:D:/fchai/work/i-cube/I-CUBE-HUAWEI/Middlewares/Third_Party/Huawei/iot_link/network/dtls/mbedtls/mbedtls_port\mbed_port.c **** 
 100:D:/fchai/work/i-cube/I-CUBE-HUAWEI/Middlewares/Third_Party/Huawei/iot_link/network/dtls/mbedtls/mbedtls_port\mbed_port.c **** 
 101:D:/fchai/work/i-cube/I-CUBE-HUAWEI/Middlewares/Third_Party/Huawei/iot_link/network/dtls/mbedtls/mbedtls_port\mbed_port.c ****     if(para->isclient)
  76              		.loc 1 101 7 is_stmt 0 view .LVU20
  77 001e D0E90031 		ldrd	r3, r1, [r0]
  91:D:/fchai/work/i-cube/I-CUBE-HUAWEI/Middlewares/Third_Party/Huawei/iot_link/network/dtls/mbedtls/mbedtls_port\mbed_port.c ****     {
  78              		.loc 1 91 7 view .LVU21
  79 0022 B3FA83F3 		clz	r3, r3
 102:D:/fchai/work/i-cube/I-CUBE-HUAWEI/Middlewares/Third_Party/Huawei/iot_link/network/dtls/mbedtls/mbedtls_port\mbed_port.c ****     {
 103:D:/fchai/work/i-cube/I-CUBE-HUAWEI/Middlewares/Third_Party/Huawei/iot_link/network/dtls/mbedtls/mbedtls_port\mbed_port.c ****         plat_type = MBEDTLS_SSL_IS_CLIENT;
 104:D:/fchai/work/i-cube/I-CUBE-HUAWEI/Middlewares/Third_Party/Huawei/iot_link/network/dtls/mbedtls/mbedtls_port\mbed_port.c ****     }
 105:D:/fchai/work/i-cube/I-CUBE-HUAWEI/Middlewares/Third_Party/Huawei/iot_link/network/dtls/mbedtls/mbedtls_port\mbed_port.c ****     else
 106:D:/fchai/work/i-cube/I-CUBE-HUAWEI/Middlewares/Third_Party/Huawei/iot_link/network/dtls/mbedtls/mbedtls_port\mbed_port.c ****     {
 107:D:/fchai/work/i-cube/I-CUBE-HUAWEI/Middlewares/Third_Party/Huawei/iot_link/network/dtls/mbedtls/mbedtls_port\mbed_port.c ****         plat_type = MBEDTLS_SSL_IS_SERVER;
 108:D:/fchai/work/i-cube/I-CUBE-HUAWEI/Middlewares/Third_Party/Huawei/iot_link/network/dtls/mbedtls/mbedtls_port\mbed_port.c ****     }
 109:D:/fchai/work/i-cube/I-CUBE-HUAWEI/Middlewares/Third_Party/Huawei/iot_link/network/dtls/mbedtls/mbedtls_port\mbed_port.c **** 
 110:D:/fchai/work/i-cube/I-CUBE-HUAWEI/Middlewares/Third_Party/Huawei/iot_link/network/dtls/mbedtls/mbedtls_port\mbed_port.c ****     ssl = dtls_ssl_new(&einfo, plat_type);
  80              		.loc 1 110 11 view .LVU22
  81 0026 B1FA81F1 		clz	r1, r1
  91:D:/fchai/work/i-cube/I-CUBE-HUAWEI/Middlewares/Third_Party/Huawei/iot_link/network/dtls/mbedtls/mbedtls_port\mbed_port.c ****     {
  82              		.loc 1 91 7 view .LVU23
  83 002a 5B09     		lsrs	r3, r3, #5
  84              		.loc 1 110 11 view .LVU24
  85 002c 4909     		lsrs	r1, r1, #5
  86 002e 6846     		mov	r0, sp
  87              	.LVL2:
  88              		.loc 1 110 11 view .LVU25
  89 0030 0993     		str	r3, [sp, #36]
 101:D:/fchai/work/i-cube/I-CUBE-HUAWEI/Middlewares/Third_Party/Huawei/iot_link/network/dtls/mbedtls/mbedtls_port\mbed_port.c ****     {
  90              		.loc 1 101 5 is_stmt 1 view .LVU26
  91              	.LVL3:
  92              		.loc 1 110 5 view .LVU27
  93              		.loc 1 110 11 is_stmt 0 view .LVU28
  94 0032 FFF7FEFF 		bl	dtls_ssl_new
  95              	.LVL4:
 111:D:/fchai/work/i-cube/I-CUBE-HUAWEI/Middlewares/Third_Party/Huawei/iot_link/network/dtls/mbedtls/mbedtls_port\mbed_port.c **** 
 112:D:/fchai/work/i-cube/I-CUBE-HUAWEI/Middlewares/Third_Party/Huawei/iot_link/network/dtls/mbedtls/mbedtls_port\mbed_port.c ****     if(NULL != ssl)
  96              		.loc 1 112 5 is_stmt 1 view .LVU29
  97              		.loc 1 112 7 is_stmt 0 view .LVU30
  98 0036 B8B1     		cbz	r0, .L5
 113:D:/fchai/work/i-cube/I-CUBE-HUAWEI/Middlewares/Third_Party/Huawei/iot_link/network/dtls/mbedtls/mbedtls_port\mbed_port.c ****     {
 114:D:/fchai/work/i-cube/I-CUBE-HUAWEI/Middlewares/Third_Party/Huawei/iot_link/network/dtls/mbedtls/mbedtls_port\mbed_port.c ****         *handle = ssl;
  99              		.loc 1 114 9 is_stmt 1 view .LVU31
 100              		.loc 1 114 17 is_stmt 0 view .LVU32
 101 0038 2060     		str	r0, [r4]
 115:D:/fchai/work/i-cube/I-CUBE-HUAWEI/Middlewares/Third_Party/Huawei/iot_link/network/dtls/mbedtls/mbedtls_port\mbed_port.c ****         ret = EN_DTLS_AL_ERR_OK;
 102              		.loc 1 115 9 is_stmt 1 view .LVU33
 103              	.LVL5:
 104              		.loc 1 115 13 is_stmt 0 view .LVU34
 105 003a 0020     		movs	r0, #0
ARM GAS  T:\msys\tmp\ccVVq316.s 			page 5


 106              	.LVL6:
 116:D:/fchai/work/i-cube/I-CUBE-HUAWEI/Middlewares/Third_Party/Huawei/iot_link/network/dtls/mbedtls/mbedtls_port\mbed_port.c **** 
 117:D:/fchai/work/i-cube/I-CUBE-HUAWEI/Middlewares/Third_Party/Huawei/iot_link/network/dtls/mbedtls/mbedtls_port\mbed_port.c ****         #if defined(MBEDTLS_DEBUG_C)
 118:D:/fchai/work/i-cube/I-CUBE-HUAWEI/Middlewares/Third_Party/Huawei/iot_link/network/dtls/mbedtls/mbedtls_port\mbed_port.c ****             mbedtls_debug_set_threshold(10);
 119:D:/fchai/work/i-cube/I-CUBE-HUAWEI/Middlewares/Third_Party/Huawei/iot_link/network/dtls/mbedtls/mbedtls_port\mbed_port.c ****             mbedtls_ssl_conf_dbg (ssl->conf,mbed_port_debug,NULL);
 120:D:/fchai/work/i-cube/I-CUBE-HUAWEI/Middlewares/Third_Party/Huawei/iot_link/network/dtls/mbedtls/mbedtls_port\mbed_port.c ****         #endif
 121:D:/fchai/work/i-cube/I-CUBE-HUAWEI/Middlewares/Third_Party/Huawei/iot_link/network/dtls/mbedtls/mbedtls_port\mbed_port.c ****     }
 122:D:/fchai/work/i-cube/I-CUBE-HUAWEI/Middlewares/Third_Party/Huawei/iot_link/network/dtls/mbedtls/mbedtls_port\mbed_port.c **** 
 123:D:/fchai/work/i-cube/I-CUBE-HUAWEI/Middlewares/Third_Party/Huawei/iot_link/network/dtls/mbedtls/mbedtls_port\mbed_port.c ****     return ret;
 107              		.loc 1 123 5 is_stmt 1 view .LVU35
 124:D:/fchai/work/i-cube/I-CUBE-HUAWEI/Middlewares/Third_Party/Huawei/iot_link/network/dtls/mbedtls/mbedtls_port\mbed_port.c **** }
 108              		.loc 1 124 1 is_stmt 0 view .LVU36
 109 003c 0BB0     		add	sp, sp, #44
 110              	.LCFI2:
 111              		.cfi_remember_state
 112              		.cfi_def_cfa_offset 12
 113              		@ sp needed
 114 003e 30BD     		pop	{r4, r5, pc}
 115              	.LVL7:
 116              	.L8:
 117              	.LCFI3:
 118              		.cfi_restore_state
  72:D:/fchai/work/i-cube/I-CUBE-HUAWEI/Middlewares/Third_Party/Huawei/iot_link/network/dtls/mbedtls/mbedtls_port\mbed_port.c **** 
 119              		.loc 1 72 9 is_stmt 1 view .LVU37
  72:D:/fchai/work/i-cube/I-CUBE-HUAWEI/Middlewares/Third_Party/Huawei/iot_link/network/dtls/mbedtls/mbedtls_port\mbed_port.c **** 
 120              		.loc 1 72 27 is_stmt 0 view .LVU38
 121 0040 0123     		movs	r3, #1
  74:D:/fchai/work/i-cube/I-CUBE-HUAWEI/Middlewares/Third_Party/Huawei/iot_link/network/dtls/mbedtls/mbedtls_port\mbed_port.c ****         einfo.v.c.cert_len = para->security.u.cert.server_ca_len;
 122              		.loc 1 74 27 view .LVU39
 123 0042 C568     		ldr	r5, [r0, #12]
  75:D:/fchai/work/i-cube/I-CUBE-HUAWEI/Middlewares/Third_Party/Huawei/iot_link/network/dtls/mbedtls/mbedtls_port\mbed_port.c ****         einfo.v.c.client_ca = para->security.u.cert.client_ca;
 124              		.loc 1 75 28 view .LVU40
 125 0044 C169     		ldr	r1, [r0, #28]
 126              	.LVL8:
  76:D:/fchai/work/i-cube/I-CUBE-HUAWEI/Middlewares/Third_Party/Huawei/iot_link/network/dtls/mbedtls/mbedtls_port\mbed_port.c ****         einfo.v.c.client_ca_len = para->security.u.cert.client_ca_len;
 127              		.loc 1 76 29 view .LVU41
 128 0046 0269     		ldr	r2, [r0, #16]
  72:D:/fchai/work/i-cube/I-CUBE-HUAWEI/Middlewares/Third_Party/Huawei/iot_link/network/dtls/mbedtls/mbedtls_port\mbed_port.c **** 
 129              		.loc 1 72 27 view .LVU42
 130 0048 8DF82030 		strb	r3, [sp, #32]
  74:D:/fchai/work/i-cube/I-CUBE-HUAWEI/Middlewares/Third_Party/Huawei/iot_link/network/dtls/mbedtls/mbedtls_port\mbed_port.c ****         einfo.v.c.cert_len = para->security.u.cert.server_ca_len;
 131              		.loc 1 74 9 is_stmt 1 view .LVU43
  77:D:/fchai/work/i-cube/I-CUBE-HUAWEI/Middlewares/Third_Party/Huawei/iot_link/network/dtls/mbedtls/mbedtls_port\mbed_port.c ****         einfo.v.c.client_pk = para->security.u.cert.client_pk;
 132              		.loc 1 77 33 is_stmt 0 view .LVU44
 133 004c 036A     		ldr	r3, [r0, #32]
  74:D:/fchai/work/i-cube/I-CUBE-HUAWEI/Middlewares/Third_Party/Huawei/iot_link/network/dtls/mbedtls/mbedtls_port\mbed_port.c ****         einfo.v.c.cert_len = para->security.u.cert.server_ca_len;
 134              		.loc 1 74 27 view .LVU45
 135 004e 0095     		str	r5, [sp]
  75:D:/fchai/work/i-cube/I-CUBE-HUAWEI/Middlewares/Third_Party/Huawei/iot_link/network/dtls/mbedtls/mbedtls_port\mbed_port.c ****         einfo.v.c.client_ca = para->security.u.cert.client_ca;
 136              		.loc 1 75 9 is_stmt 1 view .LVU46
  75:D:/fchai/work/i-cube/I-CUBE-HUAWEI/Middlewares/Third_Party/Huawei/iot_link/network/dtls/mbedtls/mbedtls_port\mbed_port.c ****         einfo.v.c.client_ca = para->security.u.cert.client_ca;
 137              		.loc 1 75 28 is_stmt 0 view .LVU47
 138 0050 0191     		str	r1, [sp, #4]
  76:D:/fchai/work/i-cube/I-CUBE-HUAWEI/Middlewares/Third_Party/Huawei/iot_link/network/dtls/mbedtls/mbedtls_port\mbed_port.c ****         einfo.v.c.client_ca_len = para->security.u.cert.client_ca_len;
 139              		.loc 1 76 9 is_stmt 1 view .LVU48
  78:D:/fchai/work/i-cube/I-CUBE-HUAWEI/Middlewares/Third_Party/Huawei/iot_link/network/dtls/mbedtls/mbedtls_port\mbed_port.c ****         einfo.v.c.client_pk_len = para->security.u.cert.client_pk_len;
 140              		.loc 1 78 29 is_stmt 0 view .LVU49
ARM GAS  T:\msys\tmp\ccVVq316.s 			page 6


 141 0052 4569     		ldr	r5, [r0, #20]
  79:D:/fchai/work/i-cube/I-CUBE-HUAWEI/Middlewares/Third_Party/Huawei/iot_link/network/dtls/mbedtls/mbedtls_port\mbed_port.c ****         einfo.v.c.client_pk_pwd = para->security.u.cert.client_pk_pwd;
 142              		.loc 1 79 33 view .LVU50
 143 0054 416A     		ldr	r1, [r0, #36]
  76:D:/fchai/work/i-cube/I-CUBE-HUAWEI/Middlewares/Third_Party/Huawei/iot_link/network/dtls/mbedtls/mbedtls_port\mbed_port.c ****         einfo.v.c.client_ca_len = para->security.u.cert.client_ca_len;
 144              		.loc 1 76 29 view .LVU51
 145 0056 0292     		str	r2, [sp, #8]
  77:D:/fchai/work/i-cube/I-CUBE-HUAWEI/Middlewares/Third_Party/Huawei/iot_link/network/dtls/mbedtls/mbedtls_port\mbed_port.c ****         einfo.v.c.client_pk = para->security.u.cert.client_pk;
 146              		.loc 1 77 9 is_stmt 1 view .LVU52
  77:D:/fchai/work/i-cube/I-CUBE-HUAWEI/Middlewares/Third_Party/Huawei/iot_link/network/dtls/mbedtls/mbedtls_port\mbed_port.c ****         einfo.v.c.client_pk = para->security.u.cert.client_pk;
 147              		.loc 1 77 33 is_stmt 0 view .LVU53
 148 0058 0393     		str	r3, [sp, #12]
  78:D:/fchai/work/i-cube/I-CUBE-HUAWEI/Middlewares/Third_Party/Huawei/iot_link/network/dtls/mbedtls/mbedtls_port\mbed_port.c ****         einfo.v.c.client_pk_len = para->security.u.cert.client_pk_len;
 149              		.loc 1 78 9 is_stmt 1 view .LVU54
  80:D:/fchai/work/i-cube/I-CUBE-HUAWEI/Middlewares/Third_Party/Huawei/iot_link/network/dtls/mbedtls/mbedtls_port\mbed_port.c ****         einfo.v.c.client_pk_pwd_len = para->security.u.cert.client_pk_pwd_len;
 150              		.loc 1 80 33 is_stmt 0 view .LVU55
 151 005a 8269     		ldr	r2, [r0, #24]
  81:D:/fchai/work/i-cube/I-CUBE-HUAWEI/Middlewares/Third_Party/Huawei/iot_link/network/dtls/mbedtls/mbedtls_port\mbed_port.c ****     }
 152              		.loc 1 81 37 view .LVU56
 153 005c 836A     		ldr	r3, [r0, #40]
  79:D:/fchai/work/i-cube/I-CUBE-HUAWEI/Middlewares/Third_Party/Huawei/iot_link/network/dtls/mbedtls/mbedtls_port\mbed_port.c ****         einfo.v.c.client_pk_pwd = para->security.u.cert.client_pk_pwd;
 154              		.loc 1 79 33 view .LVU57
 155 005e CDE90451 		strd	r5, r1, [sp, #16]
  80:D:/fchai/work/i-cube/I-CUBE-HUAWEI/Middlewares/Third_Party/Huawei/iot_link/network/dtls/mbedtls/mbedtls_port\mbed_port.c ****         einfo.v.c.client_pk_pwd_len = para->security.u.cert.client_pk_pwd_len;
 156              		.loc 1 80 9 is_stmt 1 view .LVU58
  81:D:/fchai/work/i-cube/I-CUBE-HUAWEI/Middlewares/Third_Party/Huawei/iot_link/network/dtls/mbedtls/mbedtls_port\mbed_port.c ****     }
 157              		.loc 1 81 37 is_stmt 0 view .LVU59
 158 0062 CDE90623 		strd	r2, r3, [sp, #24]
 159 0066 DAE7     		b	.L3
 160              	.LVL9:
 161              	.L5:
  65:D:/fchai/work/i-cube/I-CUBE-HUAWEI/Middlewares/Third_Party/Huawei/iot_link/network/dtls/mbedtls/mbedtls_port\mbed_port.c ****     mbedtls_ssl_context  *ssl;
 162              		.loc 1 65 22 view .LVU60
 163 0068 0120     		movs	r0, #1
 164              	.LVL10:
 123:D:/fchai/work/i-cube/I-CUBE-HUAWEI/Middlewares/Third_Party/Huawei/iot_link/network/dtls/mbedtls/mbedtls_port\mbed_port.c **** }
 165              		.loc 1 123 5 is_stmt 1 view .LVU61
 166              		.loc 1 124 1 is_stmt 0 view .LVU62
 167 006a 0BB0     		add	sp, sp, #44
 168              	.LCFI4:
 169              		.cfi_def_cfa_offset 12
 170              		@ sp needed
 171 006c 30BD     		pop	{r4, r5, pc}
 172              		.loc 1 124 1 view .LVU63
 173              		.cfi_endproc
 174              	.LFE18:
 176 006e 00BF     		.section	.text.mbed_destroy,"ax",%progbits
 177              		.align	1
 178              		.p2align 2,,3
 179              		.global	mbed_destroy
 180              		.syntax unified
 181              		.thumb
 182              		.thumb_func
 183              		.fpu fpv4-sp-d16
 185              	mbed_destroy:
 186              	.LVL11:
 187              	.LFB19:
ARM GAS  T:\msys\tmp\ccVVq316.s 			page 7


 125:D:/fchai/work/i-cube/I-CUBE-HUAWEI/Middlewares/Third_Party/Huawei/iot_link/network/dtls/mbedtls/mbedtls_port\mbed_port.c **** 
 126:D:/fchai/work/i-cube/I-CUBE-HUAWEI/Middlewares/Third_Party/Huawei/iot_link/network/dtls/mbedtls/mbedtls_port\mbed_port.c **** 
 127:D:/fchai/work/i-cube/I-CUBE-HUAWEI/Middlewares/Third_Party/Huawei/iot_link/network/dtls/mbedtls/mbedtls_port\mbed_port.c **** en_dtls_al_err_t mbed_destroy(void *handle)
 128:D:/fchai/work/i-cube/I-CUBE-HUAWEI/Middlewares/Third_Party/Huawei/iot_link/network/dtls/mbedtls/mbedtls_port\mbed_port.c **** {
 188              		.loc 1 128 1 is_stmt 1 view -0
 189              		.cfi_startproc
 190              		@ args = 0, pretend = 0, frame = 0
 191              		@ frame_needed = 0, uses_anonymous_args = 0
 129:D:/fchai/work/i-cube/I-CUBE-HUAWEI/Middlewares/Third_Party/Huawei/iot_link/network/dtls/mbedtls/mbedtls_port\mbed_port.c ****     en_dtls_al_err_t ret = EN_DTLS_AL_ERR_PARA;
 192              		.loc 1 129 5 view .LVU65
 130:D:/fchai/work/i-cube/I-CUBE-HUAWEI/Middlewares/Third_Party/Huawei/iot_link/network/dtls/mbedtls/mbedtls_port\mbed_port.c ****     if(NULL != handle)
 193              		.loc 1 130 5 view .LVU66
 194              		.loc 1 130 7 is_stmt 0 view .LVU67
 195 0000 20B1     		cbz	r0, .L11
 131:D:/fchai/work/i-cube/I-CUBE-HUAWEI/Middlewares/Third_Party/Huawei/iot_link/network/dtls/mbedtls/mbedtls_port\mbed_port.c ****     {
 132:D:/fchai/work/i-cube/I-CUBE-HUAWEI/Middlewares/Third_Party/Huawei/iot_link/network/dtls/mbedtls/mbedtls_port\mbed_port.c ****         dtls_ssl_destroy(handle);
 196              		.loc 1 132 9 is_stmt 1 view .LVU68
 128:D:/fchai/work/i-cube/I-CUBE-HUAWEI/Middlewares/Third_Party/Huawei/iot_link/network/dtls/mbedtls/mbedtls_port\mbed_port.c ****     en_dtls_al_err_t ret = EN_DTLS_AL_ERR_PARA;
 197              		.loc 1 128 1 is_stmt 0 view .LVU69
 198 0002 08B5     		push	{r3, lr}
 199              	.LCFI5:
 200              		.cfi_def_cfa_offset 8
 201              		.cfi_offset 3, -8
 202              		.cfi_offset 14, -4
 203              		.loc 1 132 9 view .LVU70
 204 0004 FFF7FEFF 		bl	dtls_ssl_destroy
 205              	.LVL12:
 133:D:/fchai/work/i-cube/I-CUBE-HUAWEI/Middlewares/Third_Party/Huawei/iot_link/network/dtls/mbedtls/mbedtls_port\mbed_port.c ****         ret = EN_DTLS_AL_ERR_OK;
 206              		.loc 1 133 9 is_stmt 1 view .LVU71
 207              		.loc 1 133 13 is_stmt 0 view .LVU72
 208 0008 0020     		movs	r0, #0
 209              	.LVL13:
 134:D:/fchai/work/i-cube/I-CUBE-HUAWEI/Middlewares/Third_Party/Huawei/iot_link/network/dtls/mbedtls/mbedtls_port\mbed_port.c ****     }
 135:D:/fchai/work/i-cube/I-CUBE-HUAWEI/Middlewares/Third_Party/Huawei/iot_link/network/dtls/mbedtls/mbedtls_port\mbed_port.c ****     return ret;
 210              		.loc 1 135 5 is_stmt 1 view .LVU73
 136:D:/fchai/work/i-cube/I-CUBE-HUAWEI/Middlewares/Third_Party/Huawei/iot_link/network/dtls/mbedtls/mbedtls_port\mbed_port.c **** }
 211              		.loc 1 136 1 is_stmt 0 view .LVU74
 212 000a 08BD     		pop	{r3, pc}
 213              	.LVL14:
 214              	.L11:
 215              	.LCFI6:
 216              		.cfi_def_cfa_offset 0
 217              		.cfi_restore 3
 218              		.cfi_restore 14
 129:D:/fchai/work/i-cube/I-CUBE-HUAWEI/Middlewares/Third_Party/Huawei/iot_link/network/dtls/mbedtls/mbedtls_port\mbed_port.c ****     if(NULL != handle)
 219              		.loc 1 129 22 view .LVU75
 220 000c 0120     		movs	r0, #1
 221              	.LVL15:
 135:D:/fchai/work/i-cube/I-CUBE-HUAWEI/Middlewares/Third_Party/Huawei/iot_link/network/dtls/mbedtls/mbedtls_port\mbed_port.c **** }
 222              		.loc 1 135 5 is_stmt 1 view .LVU76
 223              		.loc 1 136 1 is_stmt 0 view .LVU77
 224 000e 7047     		bx	lr
 225              		.cfi_endproc
 226              	.LFE19:
 228              		.section	.text.mbed_write,"ax",%progbits
 229              		.align	1
 230              		.p2align 2,,3
ARM GAS  T:\msys\tmp\ccVVq316.s 			page 8


 231              		.global	mbed_write
 232              		.syntax unified
 233              		.thumb
 234              		.thumb_func
 235              		.fpu fpv4-sp-d16
 237              	mbed_write:
 238              	.LVL16:
 239              	.LFB20:
 137:D:/fchai/work/i-cube/I-CUBE-HUAWEI/Middlewares/Third_Party/Huawei/iot_link/network/dtls/mbedtls/mbedtls_port\mbed_port.c **** 
 138:D:/fchai/work/i-cube/I-CUBE-HUAWEI/Middlewares/Third_Party/Huawei/iot_link/network/dtls/mbedtls/mbedtls_port\mbed_port.c **** 
 139:D:/fchai/work/i-cube/I-CUBE-HUAWEI/Middlewares/Third_Party/Huawei/iot_link/network/dtls/mbedtls/mbedtls_port\mbed_port.c **** ///< make it return as normal socket return
 140:D:/fchai/work/i-cube/I-CUBE-HUAWEI/Middlewares/Third_Party/Huawei/iot_link/network/dtls/mbedtls/mbedtls_port\mbed_port.c **** 
 141:D:/fchai/work/i-cube/I-CUBE-HUAWEI/Middlewares/Third_Party/Huawei/iot_link/network/dtls/mbedtls/mbedtls_port\mbed_port.c **** int mbed_write(void *handle, uint8_t *buf, size_t len,int timeout)
 142:D:/fchai/work/i-cube/I-CUBE-HUAWEI/Middlewares/Third_Party/Huawei/iot_link/network/dtls/mbedtls/mbedtls_port\mbed_port.c **** {
 240              		.loc 1 142 1 is_stmt 1 view -0
 241              		.cfi_startproc
 242              		@ args = 0, pretend = 0, frame = 0
 243              		@ frame_needed = 0, uses_anonymous_args = 0
 244              		@ link register save eliminated.
 143:D:/fchai/work/i-cube/I-CUBE-HUAWEI/Middlewares/Third_Party/Huawei/iot_link/network/dtls/mbedtls/mbedtls_port\mbed_port.c **** 
 144:D:/fchai/work/i-cube/I-CUBE-HUAWEI/Middlewares/Third_Party/Huawei/iot_link/network/dtls/mbedtls/mbedtls_port\mbed_port.c ****     int ret;
 245              		.loc 1 144 5 view .LVU79
 145:D:/fchai/work/i-cube/I-CUBE-HUAWEI/Middlewares/Third_Party/Huawei/iot_link/network/dtls/mbedtls/mbedtls_port\mbed_port.c **** 
 146:D:/fchai/work/i-cube/I-CUBE-HUAWEI/Middlewares/Third_Party/Huawei/iot_link/network/dtls/mbedtls/mbedtls_port\mbed_port.c ****     ret = dtls_write(handle, buf,len);
 246              		.loc 1 146 5 view .LVU80
 247              		.loc 1 146 11 is_stmt 0 view .LVU81
 248 0000 FFF7FEBF 		b	dtls_write
 249              	.LVL17:
 250              		.loc 1 146 11 view .LVU82
 251              		.cfi_endproc
 252              	.LFE20:
 254              		.section	.text.mbed_read,"ax",%progbits
 255              		.align	1
 256              		.p2align 2,,3
 257              		.global	mbed_read
 258              		.syntax unified
 259              		.thumb
 260              		.thumb_func
 261              		.fpu fpv4-sp-d16
 263              	mbed_read:
 264              	.LVL18:
 265              	.LFB21:
 147:D:/fchai/work/i-cube/I-CUBE-HUAWEI/Middlewares/Third_Party/Huawei/iot_link/network/dtls/mbedtls/mbedtls_port\mbed_port.c **** 
 148:D:/fchai/work/i-cube/I-CUBE-HUAWEI/Middlewares/Third_Party/Huawei/iot_link/network/dtls/mbedtls/mbedtls_port\mbed_port.c ****     return ret;
 149:D:/fchai/work/i-cube/I-CUBE-HUAWEI/Middlewares/Third_Party/Huawei/iot_link/network/dtls/mbedtls/mbedtls_port\mbed_port.c **** }
 150:D:/fchai/work/i-cube/I-CUBE-HUAWEI/Middlewares/Third_Party/Huawei/iot_link/network/dtls/mbedtls/mbedtls_port\mbed_port.c **** 
 151:D:/fchai/work/i-cube/I-CUBE-HUAWEI/Middlewares/Third_Party/Huawei/iot_link/network/dtls/mbedtls/mbedtls_port\mbed_port.c **** 
 152:D:/fchai/work/i-cube/I-CUBE-HUAWEI/Middlewares/Third_Party/Huawei/iot_link/network/dtls/mbedtls/mbedtls_port\mbed_port.c **** int mbed_read( void *handle, unsigned char *buf, size_t len, int timeout)
 153:D:/fchai/work/i-cube/I-CUBE-HUAWEI/Middlewares/Third_Party/Huawei/iot_link/network/dtls/mbedtls/mbedtls_port\mbed_port.c **** {
 266              		.loc 1 153 1 is_stmt 1 view -0
 267              		.cfi_startproc
 268              		@ args = 0, pretend = 0, frame = 0
 269              		@ frame_needed = 0, uses_anonymous_args = 0
 270              		@ link register save eliminated.
 154:D:/fchai/work/i-cube/I-CUBE-HUAWEI/Middlewares/Third_Party/Huawei/iot_link/network/dtls/mbedtls/mbedtls_port\mbed_port.c ****     int ret;
 271              		.loc 1 154 5 view .LVU84
 155:D:/fchai/work/i-cube/I-CUBE-HUAWEI/Middlewares/Third_Party/Huawei/iot_link/network/dtls/mbedtls/mbedtls_port\mbed_port.c **** 
ARM GAS  T:\msys\tmp\ccVVq316.s 			page 9


 156:D:/fchai/work/i-cube/I-CUBE-HUAWEI/Middlewares/Third_Party/Huawei/iot_link/network/dtls/mbedtls/mbedtls_port\mbed_port.c ****     ret = dtls_read(handle, buf,len,timeout);
 272              		.loc 1 156 5 view .LVU85
 273              		.loc 1 156 11 is_stmt 0 view .LVU86
 274 0000 FFF7FEBF 		b	dtls_read
 275              	.LVL19:
 276              		.loc 1 156 11 view .LVU87
 277              		.cfi_endproc
 278              	.LFE21:
 280              		.section	.text.mbed_connect,"ax",%progbits
 281              		.align	1
 282              		.p2align 2,,3
 283              		.global	mbed_connect
 284              		.syntax unified
 285              		.thumb
 286              		.thumb_func
 287              		.fpu fpv4-sp-d16
 289              	mbed_connect:
 290              	.LVL20:
 291              	.LFB22:
 157:D:/fchai/work/i-cube/I-CUBE-HUAWEI/Middlewares/Third_Party/Huawei/iot_link/network/dtls/mbedtls/mbedtls_port\mbed_port.c **** 
 158:D:/fchai/work/i-cube/I-CUBE-HUAWEI/Middlewares/Third_Party/Huawei/iot_link/network/dtls/mbedtls/mbedtls_port\mbed_port.c ****     return ret;
 159:D:/fchai/work/i-cube/I-CUBE-HUAWEI/Middlewares/Third_Party/Huawei/iot_link/network/dtls/mbedtls/mbedtls_port\mbed_port.c **** }
 160:D:/fchai/work/i-cube/I-CUBE-HUAWEI/Middlewares/Third_Party/Huawei/iot_link/network/dtls/mbedtls/mbedtls_port\mbed_port.c **** 
 161:D:/fchai/work/i-cube/I-CUBE-HUAWEI/Middlewares/Third_Party/Huawei/iot_link/network/dtls/mbedtls/mbedtls_port\mbed_port.c **** int dtls_shakehand(mbedtls_ssl_context *ssl, const dtls_shakehand_info_s *info);
 162:D:/fchai/work/i-cube/I-CUBE-HUAWEI/Middlewares/Third_Party/Huawei/iot_link/network/dtls/mbedtls/mbedtls_port\mbed_port.c **** 
 163:D:/fchai/work/i-cube/I-CUBE-HUAWEI/Middlewares/Third_Party/Huawei/iot_link/network/dtls/mbedtls/mbedtls_port\mbed_port.c **** 
 164:D:/fchai/work/i-cube/I-CUBE-HUAWEI/Middlewares/Third_Party/Huawei/iot_link/network/dtls/mbedtls/mbedtls_port\mbed_port.c **** int mbed_connect(void *handle,const char *server_ip, const char *server_port,int timeout)
 165:D:/fchai/work/i-cube/I-CUBE-HUAWEI/Middlewares/Third_Party/Huawei/iot_link/network/dtls/mbedtls/mbedtls_port\mbed_port.c **** {
 292              		.loc 1 165 1 is_stmt 1 view -0
 293              		.cfi_startproc
 294              		@ args = 0, pretend = 0, frame = 40
 295              		@ frame_needed = 0, uses_anonymous_args = 0
 166:D:/fchai/work/i-cube/I-CUBE-HUAWEI/Middlewares/Third_Party/Huawei/iot_link/network/dtls/mbedtls/mbedtls_port\mbed_port.c ****     int ret = -1;
 296              		.loc 1 166 5 view .LVU89
 167:D:/fchai/work/i-cube/I-CUBE-HUAWEI/Middlewares/Third_Party/Huawei/iot_link/network/dtls/mbedtls/mbedtls_port\mbed_port.c ****     dtls_shakehand_info_s  sinfo;
 297              		.loc 1 167 5 view .LVU90
 168:D:/fchai/work/i-cube/I-CUBE-HUAWEI/Middlewares/Third_Party/Huawei/iot_link/network/dtls/mbedtls/mbedtls_port\mbed_port.c **** 
 169:D:/fchai/work/i-cube/I-CUBE-HUAWEI/Middlewares/Third_Party/Huawei/iot_link/network/dtls/mbedtls/mbedtls_port\mbed_port.c **** 
 170:D:/fchai/work/i-cube/I-CUBE-HUAWEI/Middlewares/Third_Party/Huawei/iot_link/network/dtls/mbedtls/mbedtls_port\mbed_port.c ****     (void) memset(&sinfo, 0, sizeof(sinfo));
 298              		.loc 1 170 5 view .LVU91
 165:D:/fchai/work/i-cube/I-CUBE-HUAWEI/Middlewares/Third_Party/Huawei/iot_link/network/dtls/mbedtls/mbedtls_port\mbed_port.c ****     int ret = -1;
 299              		.loc 1 165 1 is_stmt 0 view .LVU92
 300 0000 10B5     		push	{r4, lr}
 301              	.LCFI7:
 302              		.cfi_def_cfa_offset 8
 303              		.cfi_offset 4, -8
 304              		.cfi_offset 14, -4
 305 0002 8AB0     		sub	sp, sp, #40
 306              	.LCFI8:
 307              		.cfi_def_cfa_offset 48
 308              		.loc 1 170 12 view .LVU93
 309 0004 0024     		movs	r4, #0
 171:D:/fchai/work/i-cube/I-CUBE-HUAWEI/Middlewares/Third_Party/Huawei/iot_link/network/dtls/mbedtls/mbedtls_port\mbed_port.c **** 
 172:D:/fchai/work/i-cube/I-CUBE-HUAWEI/Middlewares/Third_Party/Huawei/iot_link/network/dtls/mbedtls/mbedtls_port\mbed_port.c **** 
 173:D:/fchai/work/i-cube/I-CUBE-HUAWEI/Middlewares/Third_Party/Huawei/iot_link/network/dtls/mbedtls/mbedtls_port\mbed_port.c ****     sinfo.u.c.host = server_ip;
 310              		.loc 1 173 20 view .LVU94
 311 0006 0191     		str	r1, [sp, #4]
ARM GAS  T:\msys\tmp\ccVVq316.s 			page 10


 174:D:/fchai/work/i-cube/I-CUBE-HUAWEI/Middlewares/Third_Party/Huawei/iot_link/network/dtls/mbedtls/mbedtls_port\mbed_port.c ****     sinfo.u.c.port = server_port;
 175:D:/fchai/work/i-cube/I-CUBE-HUAWEI/Middlewares/Third_Party/Huawei/iot_link/network/dtls/mbedtls/mbedtls_port\mbed_port.c **** 
 176:D:/fchai/work/i-cube/I-CUBE-HUAWEI/Middlewares/Third_Party/Huawei/iot_link/network/dtls/mbedtls/mbedtls_port\mbed_port.c ****     sinfo.client_or_server = MBEDTLS_SSL_IS_CLIENT;
 177:D:/fchai/work/i-cube/I-CUBE-HUAWEI/Middlewares/Third_Party/Huawei/iot_link/network/dtls/mbedtls/mbedtls_port\mbed_port.c ****     sinfo.udp_or_tcp = MBEDTLS_NET_PROTO_TCP;
 178:D:/fchai/work/i-cube/I-CUBE-HUAWEI/Middlewares/Third_Party/Huawei/iot_link/network/dtls/mbedtls/mbedtls_port\mbed_port.c ****     sinfo.timeout = timeout;
 179:D:/fchai/work/i-cube/I-CUBE-HUAWEI/Middlewares/Third_Party/Huawei/iot_link/network/dtls/mbedtls/mbedtls_port\mbed_port.c **** 
 180:D:/fchai/work/i-cube/I-CUBE-HUAWEI/Middlewares/Third_Party/Huawei/iot_link/network/dtls/mbedtls/mbedtls_port\mbed_port.c ****     ret = dtls_shakehand( handle,&sinfo);
 312              		.loc 1 180 11 view .LVU95
 313 0008 01A9     		add	r1, sp, #4
 314              	.LVL21:
 178:D:/fchai/work/i-cube/I-CUBE-HUAWEI/Middlewares/Third_Party/Huawei/iot_link/network/dtls/mbedtls/mbedtls_port\mbed_port.c **** 
 315              		.loc 1 178 19 view .LVU96
 316 000a CDE90223 		strd	r2, r3, [sp, #8]
 170:D:/fchai/work/i-cube/I-CUBE-HUAWEI/Middlewares/Third_Party/Huawei/iot_link/network/dtls/mbedtls/mbedtls_port\mbed_port.c **** 
 317              		.loc 1 170 12 view .LVU97
 318 000e CDE90644 		strd	r4, r4, [sp, #24]
 319 0012 CDE90844 		strd	r4, r4, [sp, #32]
 173:D:/fchai/work/i-cube/I-CUBE-HUAWEI/Middlewares/Third_Party/Huawei/iot_link/network/dtls/mbedtls/mbedtls_port\mbed_port.c ****     sinfo.u.c.port = server_port;
 320              		.loc 1 173 5 is_stmt 1 view .LVU98
 174:D:/fchai/work/i-cube/I-CUBE-HUAWEI/Middlewares/Third_Party/Huawei/iot_link/network/dtls/mbedtls/mbedtls_port\mbed_port.c **** 
 321              		.loc 1 174 5 view .LVU99
 176:D:/fchai/work/i-cube/I-CUBE-HUAWEI/Middlewares/Third_Party/Huawei/iot_link/network/dtls/mbedtls/mbedtls_port\mbed_port.c ****     sinfo.udp_or_tcp = MBEDTLS_NET_PROTO_TCP;
 322              		.loc 1 176 5 view .LVU100
 177:D:/fchai/work/i-cube/I-CUBE-HUAWEI/Middlewares/Third_Party/Huawei/iot_link/network/dtls/mbedtls/mbedtls_port\mbed_port.c ****     sinfo.timeout = timeout;
 323              		.loc 1 177 22 is_stmt 0 view .LVU101
 324 0016 CDE90444 		strd	r4, r4, [sp, #16]
 178:D:/fchai/work/i-cube/I-CUBE-HUAWEI/Middlewares/Third_Party/Huawei/iot_link/network/dtls/mbedtls/mbedtls_port\mbed_port.c **** 
 325              		.loc 1 178 5 is_stmt 1 view .LVU102
 326              		.loc 1 180 5 view .LVU103
 327              		.loc 1 180 11 is_stmt 0 view .LVU104
 328 001a FFF7FEFF 		bl	dtls_shakehand
 329              	.LVL22:
 181:D:/fchai/work/i-cube/I-CUBE-HUAWEI/Middlewares/Third_Party/Huawei/iot_link/network/dtls/mbedtls/mbedtls_port\mbed_port.c **** 
 182:D:/fchai/work/i-cube/I-CUBE-HUAWEI/Middlewares/Third_Party/Huawei/iot_link/network/dtls/mbedtls/mbedtls_port\mbed_port.c ****     return ret;
 330              		.loc 1 182 5 is_stmt 1 view .LVU105
 183:D:/fchai/work/i-cube/I-CUBE-HUAWEI/Middlewares/Third_Party/Huawei/iot_link/network/dtls/mbedtls/mbedtls_port\mbed_port.c **** }
 331              		.loc 1 183 1 is_stmt 0 view .LVU106
 332 001e 0AB0     		add	sp, sp, #40
 333              	.LCFI9:
 334              		.cfi_def_cfa_offset 8
 335              		@ sp needed
 336 0020 10BD     		pop	{r4, pc}
 337              		.cfi_endproc
 338              	.LFE22:
 340 0022 00BF     		.section	.text.dtls_imp_init,"ax",%progbits
 341              		.align	1
 342              		.p2align 2,,3
 343              		.global	dtls_imp_init
 344              		.syntax unified
 345              		.thumb
 346              		.thumb_func
 347              		.fpu fpv4-sp-d16
 349              	dtls_imp_init:
 350              	.LFB23:
 184:D:/fchai/work/i-cube/I-CUBE-HUAWEI/Middlewares/Third_Party/Huawei/iot_link/network/dtls/mbedtls/mbedtls_port\mbed_port.c **** 
 185:D:/fchai/work/i-cube/I-CUBE-HUAWEI/Middlewares/Third_Party/Huawei/iot_link/network/dtls/mbedtls/mbedtls_port\mbed_port.c **** static const dtls_al_t  s_mbedtls_io =
 186:D:/fchai/work/i-cube/I-CUBE-HUAWEI/Middlewares/Third_Party/Huawei/iot_link/network/dtls/mbedtls/mbedtls_port\mbed_port.c **** {
ARM GAS  T:\msys\tmp\ccVVq316.s 			page 11


 187:D:/fchai/work/i-cube/I-CUBE-HUAWEI/Middlewares/Third_Party/Huawei/iot_link/network/dtls/mbedtls/mbedtls_port\mbed_port.c ****     .name = "mbed",
 188:D:/fchai/work/i-cube/I-CUBE-HUAWEI/Middlewares/Third_Party/Huawei/iot_link/network/dtls/mbedtls/mbedtls_port\mbed_port.c ****     .io = {
 189:D:/fchai/work/i-cube/I-CUBE-HUAWEI/Middlewares/Third_Party/Huawei/iot_link/network/dtls/mbedtls/mbedtls_port\mbed_port.c ****             .io_new = mbed_new,
 190:D:/fchai/work/i-cube/I-CUBE-HUAWEI/Middlewares/Third_Party/Huawei/iot_link/network/dtls/mbedtls/mbedtls_port\mbed_port.c ****             .io_connect = mbed_connect,
 191:D:/fchai/work/i-cube/I-CUBE-HUAWEI/Middlewares/Third_Party/Huawei/iot_link/network/dtls/mbedtls/mbedtls_port\mbed_port.c ****             .io_read = mbed_read,
 192:D:/fchai/work/i-cube/I-CUBE-HUAWEI/Middlewares/Third_Party/Huawei/iot_link/network/dtls/mbedtls/mbedtls_port\mbed_port.c ****             .io_write = mbed_write,
 193:D:/fchai/work/i-cube/I-CUBE-HUAWEI/Middlewares/Third_Party/Huawei/iot_link/network/dtls/mbedtls/mbedtls_port\mbed_port.c ****             .io_destroy = mbed_destroy,
 194:D:/fchai/work/i-cube/I-CUBE-HUAWEI/Middlewares/Third_Party/Huawei/iot_link/network/dtls/mbedtls/mbedtls_port\mbed_port.c ****     },
 195:D:/fchai/work/i-cube/I-CUBE-HUAWEI/Middlewares/Third_Party/Huawei/iot_link/network/dtls/mbedtls/mbedtls_port\mbed_port.c **** };
 196:D:/fchai/work/i-cube/I-CUBE-HUAWEI/Middlewares/Third_Party/Huawei/iot_link/network/dtls/mbedtls/mbedtls_port\mbed_port.c **** 
 197:D:/fchai/work/i-cube/I-CUBE-HUAWEI/Middlewares/Third_Party/Huawei/iot_link/network/dtls/mbedtls/mbedtls_port\mbed_port.c **** 
 198:D:/fchai/work/i-cube/I-CUBE-HUAWEI/Middlewares/Third_Party/Huawei/iot_link/network/dtls/mbedtls/mbedtls_port\mbed_port.c **** 
 199:D:/fchai/work/i-cube/I-CUBE-HUAWEI/Middlewares/Third_Party/Huawei/iot_link/network/dtls/mbedtls/mbedtls_port\mbed_port.c **** int dtls_imp_init(void)
 200:D:/fchai/work/i-cube/I-CUBE-HUAWEI/Middlewares/Third_Party/Huawei/iot_link/network/dtls/mbedtls/mbedtls_port\mbed_port.c **** {
 351              		.loc 1 200 1 is_stmt 1 view -0
 352              		.cfi_startproc
 353              		@ args = 0, pretend = 0, frame = 0
 354              		@ frame_needed = 0, uses_anonymous_args = 0
 201:D:/fchai/work/i-cube/I-CUBE-HUAWEI/Middlewares/Third_Party/Huawei/iot_link/network/dtls/mbedtls/mbedtls_port\mbed_port.c ****     int ret =-1;
 355              		.loc 1 201 5 view .LVU108
 356              	.LVL23:
 202:D:/fchai/work/i-cube/I-CUBE-HUAWEI/Middlewares/Third_Party/Huawei/iot_link/network/dtls/mbedtls/mbedtls_port\mbed_port.c **** 
 203:D:/fchai/work/i-cube/I-CUBE-HUAWEI/Middlewares/Third_Party/Huawei/iot_link/network/dtls/mbedtls/mbedtls_port\mbed_port.c ****     (void)mbedtls_platform_set_calloc_free(osal_calloc, osal_free);
 357              		.loc 1 203 5 view .LVU109
 200:D:/fchai/work/i-cube/I-CUBE-HUAWEI/Middlewares/Third_Party/Huawei/iot_link/network/dtls/mbedtls/mbedtls_port\mbed_port.c ****     int ret =-1;
 358              		.loc 1 200 1 is_stmt 0 view .LVU110
 359 0000 08B5     		push	{r3, lr}
 360              	.LCFI10:
 361              		.cfi_def_cfa_offset 8
 362              		.cfi_offset 3, -8
 363              		.cfi_offset 14, -4
 364              		.loc 1 203 11 view .LVU111
 365 0002 0749     		ldr	r1, .L22
 366 0004 0748     		ldr	r0, .L22+4
 367 0006 FFF7FEFF 		bl	mbedtls_platform_set_calloc_free
 368              	.LVL24:
 204:D:/fchai/work/i-cube/I-CUBE-HUAWEI/Middlewares/Third_Party/Huawei/iot_link/network/dtls/mbedtls/mbedtls_port\mbed_port.c ****     (void)mbedtls_platform_set_snprintf(snprintf);
 369              		.loc 1 204 5 is_stmt 1 view .LVU112
 370              		.loc 1 204 11 is_stmt 0 view .LVU113
 371 000a 0748     		ldr	r0, .L22+8
 372 000c FFF7FEFF 		bl	mbedtls_platform_set_snprintf
 373              	.LVL25:
 205:D:/fchai/work/i-cube/I-CUBE-HUAWEI/Middlewares/Third_Party/Huawei/iot_link/network/dtls/mbedtls/mbedtls_port\mbed_port.c ****     (void)mbedtls_platform_set_printf(printf);
 374              		.loc 1 205 5 is_stmt 1 view .LVU114
 375              		.loc 1 205 11 is_stmt 0 view .LVU115
 376 0010 0648     		ldr	r0, .L22+12
 377 0012 FFF7FEFF 		bl	mbedtls_platform_set_printf
 378              	.LVL26:
 206:D:/fchai/work/i-cube/I-CUBE-HUAWEI/Middlewares/Third_Party/Huawei/iot_link/network/dtls/mbedtls/mbedtls_port\mbed_port.c ****     ret = dtls_al_install(&s_mbedtls_io);
 379              		.loc 1 206 5 is_stmt 1 view .LVU116
 207:D:/fchai/work/i-cube/I-CUBE-HUAWEI/Middlewares/Third_Party/Huawei/iot_link/network/dtls/mbedtls/mbedtls_port\mbed_port.c **** 
 208:D:/fchai/work/i-cube/I-CUBE-HUAWEI/Middlewares/Third_Party/Huawei/iot_link/network/dtls/mbedtls/mbedtls_port\mbed_port.c ****     return ret;
 209:D:/fchai/work/i-cube/I-CUBE-HUAWEI/Middlewares/Third_Party/Huawei/iot_link/network/dtls/mbedtls/mbedtls_port\mbed_port.c **** }
 380              		.loc 1 209 1 is_stmt 0 view .LVU117
 381 0016 BDE80840 		pop	{r3, lr}
 382              	.LCFI11:
 383              		.cfi_restore 14
ARM GAS  T:\msys\tmp\ccVVq316.s 			page 12


 384              		.cfi_restore 3
 385              		.cfi_def_cfa_offset 0
 206:D:/fchai/work/i-cube/I-CUBE-HUAWEI/Middlewares/Third_Party/Huawei/iot_link/network/dtls/mbedtls/mbedtls_port\mbed_port.c ****     ret = dtls_al_install(&s_mbedtls_io);
 386              		.loc 1 206 11 view .LVU118
 387 001a 0548     		ldr	r0, .L22+16
 388 001c FFF7FEBF 		b	dtls_al_install
 389              	.LVL27:
 390              	.L23:
 391              		.align	2
 392              	.L22:
 393 0020 00000000 		.word	osal_free
 394 0024 00000000 		.word	osal_calloc
 395 0028 00000000 		.word	snprintf
 396 002c 00000000 		.word	printf
 397 0030 00000000 		.word	.LANCHOR0
 398              		.cfi_endproc
 399              	.LFE23:
 401              		.section	.rodata.str1.4,"aMS",%progbits,1
 402              		.align	2
 403              	.LC0:
 404 0000 6D626564 		.ascii	"mbed\000"
 404      00
 405              		.section	.rodata.s_mbedtls_io,"a"
 406              		.align	2
 407              		.set	.LANCHOR0,. + 0
 410              	s_mbedtls_io:
 411 0000 00000000 		.word	.LC0
 412 0004 00000000 		.word	mbed_new
 413 0008 00000000 		.word	mbed_connect
 414 000c 00000000 		.word	mbed_write
 415 0010 00000000 		.word	mbed_read
 416 0014 00000000 		.word	mbed_destroy
 417              		.text
 418              	.Letext0:
 419              		.file 2 "t:\\msys\\3rd\\gcc-arm-none-eabi-9-2020-q2-update-win32\\lib\\gcc\\arm-none-eabi\\9.3.1\\
 420              		.file 3 "t:\\msys\\3rd\\gcc-arm-none-eabi-9-2020-q2-update-win32\\arm-none-eabi\\include\\machine\
 421              		.file 4 "t:\\msys\\3rd\\gcc-arm-none-eabi-9-2020-q2-update-win32\\arm-none-eabi\\include\\sys\\_ty
 422              		.file 5 "t:\\msys\\3rd\\gcc-arm-none-eabi-9-2020-q2-update-win32\\arm-none-eabi\\include\\sys\\ree
 423              		.file 6 "t:\\msys\\3rd\\gcc-arm-none-eabi-9-2020-q2-update-win32\\arm-none-eabi\\include\\sys\\loc
 424              		.file 7 "t:\\msys\\3rd\\gcc-arm-none-eabi-9-2020-q2-update-win32\\arm-none-eabi\\include\\sys\\_st
 425              		.file 8 "D:/fchai/work/i-cube/I-CUBE-HUAWEI/Middlewares/Third_Party/Huawei/iot_link/inc/dtls_al.h"
 426              		.file 9 "t:\\msys\\3rd\\gcc-arm-none-eabi-9-2020-q2-update-win32\\arm-none-eabi\\include\\stdlib.h
 427              		.file 10 "t:\\msys\\3rd\\gcc-arm-none-eabi-9-2020-q2-update-win32\\arm-none-eabi\\include\\time.h"
 428              		.file 11 "D:/fchai/work/i-cube/I-CUBE-HUAWEI/Middlewares/Third_Party/Huawei/iot_link/network/dtls/
 429              		.file 12 "D:/fchai/work/i-cube/I-CUBE-HUAWEI/Middlewares/Third_Party/Huawei/iot_link/network/dtls/
 430              		.file 13 "D:/fchai/work/i-cube/I-CUBE-HUAWEI/Middlewares/Third_Party/Huawei/iot_link/network/dtls/
 431              		.file 14 "D:/fchai/work/i-cube/I-CUBE-HUAWEI/Middlewares/Third_Party/Huawei/iot_link/network/dtls/
 432              		.file 15 "D:/fchai/work/i-cube/I-CUBE-HUAWEI/Middlewares/Third_Party/Huawei/iot_link/network/dtls/
 433              		.file 16 "D:/fchai/work/i-cube/I-CUBE-HUAWEI/Middlewares/Third_Party/Huawei/iot_link/network/dtls/
 434              		.file 17 "D:/fchai/work/i-cube/I-CUBE-HUAWEI/Middlewares/Third_Party/Huawei/iot_link/network/dtls/
 435              		.file 18 "D:/fchai/work/i-cube/I-CUBE-HUAWEI/Middlewares/Third_Party/Huawei/iot_link/network/dtls/
 436              		.file 19 "D:/fchai/work/i-cube/I-CUBE-HUAWEI/Middlewares/Third_Party/Huawei/iot_link/network/dtls/
 437              		.file 20 "D:/fchai/work/i-cube/I-CUBE-HUAWEI/Middlewares/Third_Party/Huawei/iot_link/network/dtls/
 438              		.file 21 "D:/fchai/work/i-cube/I-CUBE-HUAWEI/Middlewares/Third_Party/Huawei/iot_link/network/dtls/
ARM GAS  T:\msys\tmp\ccVVq316.s 			page 13

