ARM GAS  T:\msys\tmp\ccUueCda.s 			page 1


   1              		.cpu cortex-m4
   2              		.eabi_attribute 27, 1
   3              		.eabi_attribute 28, 1
   4              		.eabi_attribute 20, 1
   5              		.eabi_attribute 21, 1
   6              		.eabi_attribute 23, 3
   7              		.eabi_attribute 24, 1
   8              		.eabi_attribute 25, 1
   9              		.eabi_attribute 26, 1
  10              		.eabi_attribute 30, 2
  11              		.eabi_attribute 34, 1
  12              		.eabi_attribute 18, 4
  13              		.file	"timing_alt.c"
  14              		.text
  15              	.Ltext0:
  16              		.cfi_sections	.debug_frame
  17              		.section	.text.mbedtls_timing_get_timer,"ax",%progbits
  18              		.align	1
  19              		.p2align 2,,3
  20              		.global	mbedtls_timing_get_timer
  21              		.arch armv7e-m
  22              		.syntax unified
  23              		.thumb
  24              		.thumb_func
  25              		.fpu fpv4-sp-d16
  27              	mbedtls_timing_get_timer:
  28              	.LVL0:
  29              	.LFB3:
  30              		.file 1 "D:/fchai/work/i-cube/I-CUBE-HUAWEI/Middlewares/Third_Party/Huawei/iot_link/network/dtls/m
   1:D:/fchai/work/i-cube/I-CUBE-HUAWEI/Middlewares/Third_Party/Huawei/iot_link/network/dtls/mbedtls/mbedtls_port\timing_alt.c **** /*----------------------------------------------------------------------------
   2:D:/fchai/work/i-cube/I-CUBE-HUAWEI/Middlewares/Third_Party/Huawei/iot_link/network/dtls/mbedtls/mbedtls_port\timing_alt.c ****  * Copyright (c) <2016-2018>, <Huawei Technologies Co., Ltd>
   3:D:/fchai/work/i-cube/I-CUBE-HUAWEI/Middlewares/Third_Party/Huawei/iot_link/network/dtls/mbedtls/mbedtls_port\timing_alt.c ****  * All rights reserved.
   4:D:/fchai/work/i-cube/I-CUBE-HUAWEI/Middlewares/Third_Party/Huawei/iot_link/network/dtls/mbedtls/mbedtls_port\timing_alt.c ****  * Redistribution and use in source and binary forms, with or without modification,
   5:D:/fchai/work/i-cube/I-CUBE-HUAWEI/Middlewares/Third_Party/Huawei/iot_link/network/dtls/mbedtls/mbedtls_port\timing_alt.c ****  * are permitted provided that the following conditions are met:
   6:D:/fchai/work/i-cube/I-CUBE-HUAWEI/Middlewares/Third_Party/Huawei/iot_link/network/dtls/mbedtls/mbedtls_port\timing_alt.c ****  * 1. Redistributions of source code must retain the above copyright notice, this list of
   7:D:/fchai/work/i-cube/I-CUBE-HUAWEI/Middlewares/Third_Party/Huawei/iot_link/network/dtls/mbedtls/mbedtls_port\timing_alt.c ****  * conditions and the following disclaimer.
   8:D:/fchai/work/i-cube/I-CUBE-HUAWEI/Middlewares/Third_Party/Huawei/iot_link/network/dtls/mbedtls/mbedtls_port\timing_alt.c ****  * 2. Redistributions in binary form must reproduce the above copyright notice, this list
   9:D:/fchai/work/i-cube/I-CUBE-HUAWEI/Middlewares/Third_Party/Huawei/iot_link/network/dtls/mbedtls/mbedtls_port\timing_alt.c ****  * of conditions and the following disclaimer in the documentation and/or other materials
  10:D:/fchai/work/i-cube/I-CUBE-HUAWEI/Middlewares/Third_Party/Huawei/iot_link/network/dtls/mbedtls/mbedtls_port\timing_alt.c ****  * provided with the distribution.
  11:D:/fchai/work/i-cube/I-CUBE-HUAWEI/Middlewares/Third_Party/Huawei/iot_link/network/dtls/mbedtls/mbedtls_port\timing_alt.c ****  * 3. Neither the name of the copyright holder nor the names of its contributors may be used
  12:D:/fchai/work/i-cube/I-CUBE-HUAWEI/Middlewares/Third_Party/Huawei/iot_link/network/dtls/mbedtls/mbedtls_port\timing_alt.c ****  * to endorse or promote products derived from this software without specific prior written
  13:D:/fchai/work/i-cube/I-CUBE-HUAWEI/Middlewares/Third_Party/Huawei/iot_link/network/dtls/mbedtls/mbedtls_port\timing_alt.c ****  * permission.
  14:D:/fchai/work/i-cube/I-CUBE-HUAWEI/Middlewares/Third_Party/Huawei/iot_link/network/dtls/mbedtls/mbedtls_port\timing_alt.c ****  * THIS SOFTWARE IS PROVIDED BY THE COPYRIGHT HOLDERS AND CONTRIBUTORS
  15:D:/fchai/work/i-cube/I-CUBE-HUAWEI/Middlewares/Third_Party/Huawei/iot_link/network/dtls/mbedtls/mbedtls_port\timing_alt.c ****  * "AS IS" AND ANY EXPRESS OR IMPLIED WARRANTIES, INCLUDING, BUT NOT LIMITED TO,
  16:D:/fchai/work/i-cube/I-CUBE-HUAWEI/Middlewares/Third_Party/Huawei/iot_link/network/dtls/mbedtls/mbedtls_port\timing_alt.c ****  * THE IMPLIED WARRANTIES OF MERCHANTABILITY AND FITNESS FOR A PARTICULAR
  17:D:/fchai/work/i-cube/I-CUBE-HUAWEI/Middlewares/Third_Party/Huawei/iot_link/network/dtls/mbedtls/mbedtls_port\timing_alt.c ****  * PURPOSE ARE DISCLAIMED. IN NO EVENT SHALL THE COPYRIGHT HOLDER OR
  18:D:/fchai/work/i-cube/I-CUBE-HUAWEI/Middlewares/Third_Party/Huawei/iot_link/network/dtls/mbedtls/mbedtls_port\timing_alt.c ****  * CONTRIBUTORS BE LIABLE FOR ANY DIRECT, INDIRECT, INCIDENTAL, SPECIAL,
  19:D:/fchai/work/i-cube/I-CUBE-HUAWEI/Middlewares/Third_Party/Huawei/iot_link/network/dtls/mbedtls/mbedtls_port\timing_alt.c ****  * EXEMPLARY, OR CONSEQUENTIAL DAMAGES (INCLUDING, BUT NOT LIMITED TO,
  20:D:/fchai/work/i-cube/I-CUBE-HUAWEI/Middlewares/Third_Party/Huawei/iot_link/network/dtls/mbedtls/mbedtls_port\timing_alt.c ****  * PROCUREMENT OF SUBSTITUTE GOODS OR SERVICES; LOSS OF USE, DATA, OR PROFITS;
  21:D:/fchai/work/i-cube/I-CUBE-HUAWEI/Middlewares/Third_Party/Huawei/iot_link/network/dtls/mbedtls/mbedtls_port\timing_alt.c ****  * OR BUSINESS INTERRUPTION) HOWEVER CAUSED AND ON ANY THEORY OF LIABILITY,
  22:D:/fchai/work/i-cube/I-CUBE-HUAWEI/Middlewares/Third_Party/Huawei/iot_link/network/dtls/mbedtls/mbedtls_port\timing_alt.c ****  * WHETHER IN CONTRACT, STRICT LIABILITY, OR TORT (INCLUDING NEGLIGENCE OR
  23:D:/fchai/work/i-cube/I-CUBE-HUAWEI/Middlewares/Third_Party/Huawei/iot_link/network/dtls/mbedtls/mbedtls_port\timing_alt.c ****  * OTHERWISE) ARISING IN ANY WAY OUT OF THE USE OF THIS SOFTWARE, EVEN IF
  24:D:/fchai/work/i-cube/I-CUBE-HUAWEI/Middlewares/Third_Party/Huawei/iot_link/network/dtls/mbedtls/mbedtls_port\timing_alt.c ****  * ADVISED OF THE POSSIBILITY OF SUCH DAMAGE.
  25:D:/fchai/work/i-cube/I-CUBE-HUAWEI/Middlewares/Third_Party/Huawei/iot_link/network/dtls/mbedtls/mbedtls_port\timing_alt.c ****  *---------------------------------------------------------------------------*/
  26:D:/fchai/work/i-cube/I-CUBE-HUAWEI/Middlewares/Third_Party/Huawei/iot_link/network/dtls/mbedtls/mbedtls_port\timing_alt.c **** /*----------------------------------------------------------------------------
  27:D:/fchai/work/i-cube/I-CUBE-HUAWEI/Middlewares/Third_Party/Huawei/iot_link/network/dtls/mbedtls/mbedtls_port\timing_alt.c ****  * Notice of Export Control Law
  28:D:/fchai/work/i-cube/I-CUBE-HUAWEI/Middlewares/Third_Party/Huawei/iot_link/network/dtls/mbedtls/mbedtls_port\timing_alt.c ****  * ===============================================
ARM GAS  T:\msys\tmp\ccUueCda.s 			page 2


  29:D:/fchai/work/i-cube/I-CUBE-HUAWEI/Middlewares/Third_Party/Huawei/iot_link/network/dtls/mbedtls/mbedtls_port\timing_alt.c ****  * Huawei LiteOS may be subject to applicable export control laws and regulations, which might
  30:D:/fchai/work/i-cube/I-CUBE-HUAWEI/Middlewares/Third_Party/Huawei/iot_link/network/dtls/mbedtls/mbedtls_port\timing_alt.c ****  * include those applicable to Huawei LiteOS of U.S. and the country in which you are located.
  31:D:/fchai/work/i-cube/I-CUBE-HUAWEI/Middlewares/Third_Party/Huawei/iot_link/network/dtls/mbedtls/mbedtls_port\timing_alt.c ****  * Import, export and usage of Huawei LiteOS in any manner by you shall be in compliance with such
  32:D:/fchai/work/i-cube/I-CUBE-HUAWEI/Middlewares/Third_Party/Huawei/iot_link/network/dtls/mbedtls/mbedtls_port\timing_alt.c ****  * applicable export control laws and regulations.
  33:D:/fchai/work/i-cube/I-CUBE-HUAWEI/Middlewares/Third_Party/Huawei/iot_link/network/dtls/mbedtls/mbedtls_port\timing_alt.c ****  *---------------------------------------------------------------------------*/
  34:D:/fchai/work/i-cube/I-CUBE-HUAWEI/Middlewares/Third_Party/Huawei/iot_link/network/dtls/mbedtls/mbedtls_port\timing_alt.c **** 
  35:D:/fchai/work/i-cube/I-CUBE-HUAWEI/Middlewares/Third_Party/Huawei/iot_link/network/dtls/mbedtls/mbedtls_port\timing_alt.c **** #if !defined(MBEDTLS_CONFIG_FILE)
  36:D:/fchai/work/i-cube/I-CUBE-HUAWEI/Middlewares/Third_Party/Huawei/iot_link/network/dtls/mbedtls/mbedtls_port\timing_alt.c **** #include "mbedtls/config.h"
  37:D:/fchai/work/i-cube/I-CUBE-HUAWEI/Middlewares/Third_Party/Huawei/iot_link/network/dtls/mbedtls/mbedtls_port\timing_alt.c **** #else
  38:D:/fchai/work/i-cube/I-CUBE-HUAWEI/Middlewares/Third_Party/Huawei/iot_link/network/dtls/mbedtls/mbedtls_port\timing_alt.c **** #include MBEDTLS_CONFIG_FILE
  39:D:/fchai/work/i-cube/I-CUBE-HUAWEI/Middlewares/Third_Party/Huawei/iot_link/network/dtls/mbedtls/mbedtls_port\timing_alt.c **** #endif
  40:D:/fchai/work/i-cube/I-CUBE-HUAWEI/Middlewares/Third_Party/Huawei/iot_link/network/dtls/mbedtls/mbedtls_port\timing_alt.c **** 
  41:D:/fchai/work/i-cube/I-CUBE-HUAWEI/Middlewares/Third_Party/Huawei/iot_link/network/dtls/mbedtls/mbedtls_port\timing_alt.c **** 
  42:D:/fchai/work/i-cube/I-CUBE-HUAWEI/Middlewares/Third_Party/Huawei/iot_link/network/dtls/mbedtls/mbedtls_port\timing_alt.c **** #include <osal.h>
  43:D:/fchai/work/i-cube/I-CUBE-HUAWEI/Middlewares/Third_Party/Huawei/iot_link/network/dtls/mbedtls/mbedtls_port\timing_alt.c **** 
  44:D:/fchai/work/i-cube/I-CUBE-HUAWEI/Middlewares/Third_Party/Huawei/iot_link/network/dtls/mbedtls/mbedtls_port\timing_alt.c **** #include <timing_alt.h>
  45:D:/fchai/work/i-cube/I-CUBE-HUAWEI/Middlewares/Third_Party/Huawei/iot_link/network/dtls/mbedtls/mbedtls_port\timing_alt.c **** 
  46:D:/fchai/work/i-cube/I-CUBE-HUAWEI/Middlewares/Third_Party/Huawei/iot_link/network/dtls/mbedtls/mbedtls_port\timing_alt.c **** unsigned long mbedtls_timing_get_timer(struct mbedtls_timing_hr_time *val, int reset)
  47:D:/fchai/work/i-cube/I-CUBE-HUAWEI/Middlewares/Third_Party/Huawei/iot_link/network/dtls/mbedtls/mbedtls_port\timing_alt.c **** {
  31              		.loc 1 47 1 view -0
  32              		.cfi_startproc
  33              		@ args = 0, pretend = 0, frame = 0
  34              		@ frame_needed = 0, uses_anonymous_args = 0
  48:D:/fchai/work/i-cube/I-CUBE-HUAWEI/Middlewares/Third_Party/Huawei/iot_link/network/dtls/mbedtls/mbedtls_port\timing_alt.c ****     struct mbedtls_timing_hr_time now;
  35              		.loc 1 48 5 view .LVU1
  49:D:/fchai/work/i-cube/I-CUBE-HUAWEI/Middlewares/Third_Party/Huawei/iot_link/network/dtls/mbedtls/mbedtls_port\timing_alt.c ****     now.timer_ms = osal_sys_time();
  36              		.loc 1 49 5 view .LVU2
  47:D:/fchai/work/i-cube/I-CUBE-HUAWEI/Middlewares/Third_Party/Huawei/iot_link/network/dtls/mbedtls/mbedtls_port\timing_alt.c ****     struct mbedtls_timing_hr_time now;
  37              		.loc 1 47 1 is_stmt 0 view .LVU3
  38 0000 38B5     		push	{r3, r4, r5, lr}
  39              	.LCFI0:
  40              		.cfi_def_cfa_offset 16
  41              		.cfi_offset 3, -16
  42              		.cfi_offset 4, -12
  43              		.cfi_offset 5, -8
  44              		.cfi_offset 14, -4
  47:D:/fchai/work/i-cube/I-CUBE-HUAWEI/Middlewares/Third_Party/Huawei/iot_link/network/dtls/mbedtls/mbedtls_port\timing_alt.c ****     struct mbedtls_timing_hr_time now;
  45              		.loc 1 47 1 view .LVU4
  46 0002 0D46     		mov	r5, r1
  47 0004 0446     		mov	r4, r0
  48              		.loc 1 49 20 view .LVU5
  49 0006 FFF7FEFF 		bl	osal_sys_time
  50              	.LVL1:
  50:D:/fchai/work/i-cube/I-CUBE-HUAWEI/Middlewares/Third_Party/Huawei/iot_link/network/dtls/mbedtls/mbedtls_port\timing_alt.c **** 
  51:D:/fchai/work/i-cube/I-CUBE-HUAWEI/Middlewares/Third_Party/Huawei/iot_link/network/dtls/mbedtls/mbedtls_port\timing_alt.c ****     if (reset)
  51              		.loc 1 51 5 is_stmt 1 view .LVU6
  52              		.loc 1 51 8 is_stmt 0 view .LVU7
  53 000a 15B9     		cbnz	r5, .L2
  52:D:/fchai/work/i-cube/I-CUBE-HUAWEI/Middlewares/Third_Party/Huawei/iot_link/network/dtls/mbedtls/mbedtls_port\timing_alt.c ****     {
  53:D:/fchai/work/i-cube/I-CUBE-HUAWEI/Middlewares/Third_Party/Huawei/iot_link/network/dtls/mbedtls/mbedtls_port\timing_alt.c ****         val->timer_ms = now.timer_ms;
  54:D:/fchai/work/i-cube/I-CUBE-HUAWEI/Middlewares/Third_Party/Huawei/iot_link/network/dtls/mbedtls/mbedtls_port\timing_alt.c ****     }
  55:D:/fchai/work/i-cube/I-CUBE-HUAWEI/Middlewares/Third_Party/Huawei/iot_link/network/dtls/mbedtls/mbedtls_port\timing_alt.c **** 
  56:D:/fchai/work/i-cube/I-CUBE-HUAWEI/Middlewares/Third_Party/Huawei/iot_link/network/dtls/mbedtls/mbedtls_port\timing_alt.c ****     return (unsigned long)(now.timer_ms - val->timer_ms);
  54              		.loc 1 56 5 is_stmt 1 view .LVU8
  55              	.LVL2:
  56              		.loc 1 56 5 is_stmt 0 view .LVU9
  57 000c 2368     		ldr	r3, [r4]
ARM GAS  T:\msys\tmp\ccUueCda.s 			page 3


  57:D:/fchai/work/i-cube/I-CUBE-HUAWEI/Middlewares/Third_Party/Huawei/iot_link/network/dtls/mbedtls/mbedtls_port\timing_alt.c **** }
  58              		.loc 1 57 1 view .LVU10
  59 000e C01A     		subs	r0, r0, r3
  60 0010 38BD     		pop	{r3, r4, r5, pc}
  61              	.LVL3:
  62              	.L2:
  53:D:/fchai/work/i-cube/I-CUBE-HUAWEI/Middlewares/Third_Party/Huawei/iot_link/network/dtls/mbedtls/mbedtls_port\timing_alt.c ****     }
  63              		.loc 1 53 9 is_stmt 1 view .LVU11
  53:D:/fchai/work/i-cube/I-CUBE-HUAWEI/Middlewares/Third_Party/Huawei/iot_link/network/dtls/mbedtls/mbedtls_port\timing_alt.c ****     }
  64              		.loc 1 53 23 is_stmt 0 view .LVU12
  65 0012 0346     		mov	r3, r0
  56:D:/fchai/work/i-cube/I-CUBE-HUAWEI/Middlewares/Third_Party/Huawei/iot_link/network/dtls/mbedtls/mbedtls_port\timing_alt.c **** }
  66              		.loc 1 56 5 is_stmt 1 view .LVU13
  67              	.LVL4:
  53:D:/fchai/work/i-cube/I-CUBE-HUAWEI/Middlewares/Third_Party/Huawei/iot_link/network/dtls/mbedtls/mbedtls_port\timing_alt.c ****     }
  68              		.loc 1 53 23 is_stmt 0 view .LVU14
  69 0014 C4E90001 		strd	r0, r1, [r4]
  70              		.loc 1 57 1 view .LVU15
  71 0018 C01A     		subs	r0, r0, r3
  72 001a 38BD     		pop	{r3, r4, r5, pc}
  73              		.loc 1 57 1 view .LVU16
  74              		.cfi_endproc
  75              	.LFE3:
  77              		.section	.text.mbedtls_timing_set_delay,"ax",%progbits
  78              		.align	1
  79              		.p2align 2,,3
  80              		.global	mbedtls_timing_set_delay
  81              		.syntax unified
  82              		.thumb
  83              		.thumb_func
  84              		.fpu fpv4-sp-d16
  86              	mbedtls_timing_set_delay:
  87              	.LVL5:
  88              	.LFB4:
  58:D:/fchai/work/i-cube/I-CUBE-HUAWEI/Middlewares/Third_Party/Huawei/iot_link/network/dtls/mbedtls/mbedtls_port\timing_alt.c **** 
  59:D:/fchai/work/i-cube/I-CUBE-HUAWEI/Middlewares/Third_Party/Huawei/iot_link/network/dtls/mbedtls/mbedtls_port\timing_alt.c **** /*
  60:D:/fchai/work/i-cube/I-CUBE-HUAWEI/Middlewares/Third_Party/Huawei/iot_link/network/dtls/mbedtls/mbedtls_port\timing_alt.c ****  * Set delays to watch
  61:D:/fchai/work/i-cube/I-CUBE-HUAWEI/Middlewares/Third_Party/Huawei/iot_link/network/dtls/mbedtls/mbedtls_port\timing_alt.c ****  */
  62:D:/fchai/work/i-cube/I-CUBE-HUAWEI/Middlewares/Third_Party/Huawei/iot_link/network/dtls/mbedtls/mbedtls_port\timing_alt.c **** void mbedtls_timing_set_delay(void *data, uint32_t int_ms, uint32_t fin_ms)
  63:D:/fchai/work/i-cube/I-CUBE-HUAWEI/Middlewares/Third_Party/Huawei/iot_link/network/dtls/mbedtls/mbedtls_port\timing_alt.c **** {
  89              		.loc 1 63 1 is_stmt 1 view -0
  90              		.cfi_startproc
  91              		@ args = 0, pretend = 0, frame = 0
  92              		@ frame_needed = 0, uses_anonymous_args = 0
  64:D:/fchai/work/i-cube/I-CUBE-HUAWEI/Middlewares/Third_Party/Huawei/iot_link/network/dtls/mbedtls/mbedtls_port\timing_alt.c ****     mbedtls_timing_delay_context *ctx = (mbedtls_timing_delay_context *) data;
  93              		.loc 1 64 5 view .LVU18
  65:D:/fchai/work/i-cube/I-CUBE-HUAWEI/Middlewares/Third_Party/Huawei/iot_link/network/dtls/mbedtls/mbedtls_port\timing_alt.c **** 
  66:D:/fchai/work/i-cube/I-CUBE-HUAWEI/Middlewares/Third_Party/Huawei/iot_link/network/dtls/mbedtls/mbedtls_port\timing_alt.c ****     ctx->int_ms = int_ms;
  94              		.loc 1 66 5 view .LVU19
  95              		.loc 1 66 17 is_stmt 0 view .LVU20
  96 0000 C0E90212 		strd	r1, r2, [r0, #8]
  67:D:/fchai/work/i-cube/I-CUBE-HUAWEI/Middlewares/Third_Party/Huawei/iot_link/network/dtls/mbedtls/mbedtls_port\timing_alt.c ****     ctx->fin_ms = fin_ms;
  97              		.loc 1 67 5 is_stmt 1 view .LVU21
  68:D:/fchai/work/i-cube/I-CUBE-HUAWEI/Middlewares/Third_Party/Huawei/iot_link/network/dtls/mbedtls/mbedtls_port\timing_alt.c **** 
  69:D:/fchai/work/i-cube/I-CUBE-HUAWEI/Middlewares/Third_Party/Huawei/iot_link/network/dtls/mbedtls/mbedtls_port\timing_alt.c ****     if (fin_ms != 0)
  98              		.loc 1 69 5 view .LVU22
  99              		.loc 1 69 8 is_stmt 0 view .LVU23
ARM GAS  T:\msys\tmp\ccUueCda.s 			page 4


 100 0004 02B9     		cbnz	r2, .L15
 101 0006 7047     		bx	lr
 102              	.L15:
  70:D:/fchai/work/i-cube/I-CUBE-HUAWEI/Middlewares/Third_Party/Huawei/iot_link/network/dtls/mbedtls/mbedtls_port\timing_alt.c ****     {
  71:D:/fchai/work/i-cube/I-CUBE-HUAWEI/Middlewares/Third_Party/Huawei/iot_link/network/dtls/mbedtls/mbedtls_port\timing_alt.c ****         (void)mbedtls_timing_get_timer(&ctx->timer, 1);
 103              		.loc 1 71 9 is_stmt 1 view .LVU24
  63:D:/fchai/work/i-cube/I-CUBE-HUAWEI/Middlewares/Third_Party/Huawei/iot_link/network/dtls/mbedtls/mbedtls_port\timing_alt.c ****     mbedtls_timing_delay_context *ctx = (mbedtls_timing_delay_context *) data;
 104              		.loc 1 63 1 is_stmt 0 view .LVU25
 105 0008 10B5     		push	{r4, lr}
 106              	.LCFI1:
 107              		.cfi_def_cfa_offset 8
 108              		.cfi_offset 4, -8
 109              		.cfi_offset 14, -4
 110 000a 0446     		mov	r4, r0
 111              	.LVL6:
 112              	.LBB6:
 113              	.LBI6:
  46:D:/fchai/work/i-cube/I-CUBE-HUAWEI/Middlewares/Third_Party/Huawei/iot_link/network/dtls/mbedtls/mbedtls_port\timing_alt.c **** {
 114              		.loc 1 46 15 is_stmt 1 view .LVU26
 115              	.LBB7:
  48:D:/fchai/work/i-cube/I-CUBE-HUAWEI/Middlewares/Third_Party/Huawei/iot_link/network/dtls/mbedtls/mbedtls_port\timing_alt.c ****     now.timer_ms = osal_sys_time();
 116              		.loc 1 48 5 view .LVU27
  49:D:/fchai/work/i-cube/I-CUBE-HUAWEI/Middlewares/Third_Party/Huawei/iot_link/network/dtls/mbedtls/mbedtls_port\timing_alt.c **** 
 117              		.loc 1 49 5 view .LVU28
  49:D:/fchai/work/i-cube/I-CUBE-HUAWEI/Middlewares/Third_Party/Huawei/iot_link/network/dtls/mbedtls/mbedtls_port\timing_alt.c **** 
 118              		.loc 1 49 20 is_stmt 0 view .LVU29
 119 000c FFF7FEFF 		bl	osal_sys_time
 120              	.LVL7:
  51:D:/fchai/work/i-cube/I-CUBE-HUAWEI/Middlewares/Third_Party/Huawei/iot_link/network/dtls/mbedtls/mbedtls_port\timing_alt.c ****     {
 121              		.loc 1 51 5 is_stmt 1 view .LVU30
  53:D:/fchai/work/i-cube/I-CUBE-HUAWEI/Middlewares/Third_Party/Huawei/iot_link/network/dtls/mbedtls/mbedtls_port\timing_alt.c ****     }
 122              		.loc 1 53 9 view .LVU31
  53:D:/fchai/work/i-cube/I-CUBE-HUAWEI/Middlewares/Third_Party/Huawei/iot_link/network/dtls/mbedtls/mbedtls_port\timing_alt.c ****     }
 123              		.loc 1 53 23 is_stmt 0 view .LVU32
 124 0010 C4E90001 		strd	r0, [r4]
  56:D:/fchai/work/i-cube/I-CUBE-HUAWEI/Middlewares/Third_Party/Huawei/iot_link/network/dtls/mbedtls/mbedtls_port\timing_alt.c **** }
 125              		.loc 1 56 5 is_stmt 1 view .LVU33
 126              	.LVL8:
  56:D:/fchai/work/i-cube/I-CUBE-HUAWEI/Middlewares/Third_Party/Huawei/iot_link/network/dtls/mbedtls/mbedtls_port\timing_alt.c **** }
 127              		.loc 1 56 5 is_stmt 0 view .LVU34
 128              	.LBE7:
 129              	.LBE6:
  72:D:/fchai/work/i-cube/I-CUBE-HUAWEI/Middlewares/Third_Party/Huawei/iot_link/network/dtls/mbedtls/mbedtls_port\timing_alt.c ****     }
  73:D:/fchai/work/i-cube/I-CUBE-HUAWEI/Middlewares/Third_Party/Huawei/iot_link/network/dtls/mbedtls/mbedtls_port\timing_alt.c **** }
 130              		.loc 1 73 1 view .LVU35
 131 0014 10BD     		pop	{r4, pc}
 132              		.loc 1 73 1 view .LVU36
 133              		.cfi_endproc
 134              	.LFE4:
 136 0016 00BF     		.section	.text.mbedtls_timing_get_delay,"ax",%progbits
 137              		.align	1
 138              		.p2align 2,,3
 139              		.global	mbedtls_timing_get_delay
 140              		.syntax unified
 141              		.thumb
 142              		.thumb_func
 143              		.fpu fpv4-sp-d16
ARM GAS  T:\msys\tmp\ccUueCda.s 			page 5


 145              	mbedtls_timing_get_delay:
 146              	.LVL9:
 147              	.LFB5:
  74:D:/fchai/work/i-cube/I-CUBE-HUAWEI/Middlewares/Third_Party/Huawei/iot_link/network/dtls/mbedtls/mbedtls_port\timing_alt.c **** 
  75:D:/fchai/work/i-cube/I-CUBE-HUAWEI/Middlewares/Third_Party/Huawei/iot_link/network/dtls/mbedtls/mbedtls_port\timing_alt.c **** /*
  76:D:/fchai/work/i-cube/I-CUBE-HUAWEI/Middlewares/Third_Party/Huawei/iot_link/network/dtls/mbedtls/mbedtls_port\timing_alt.c ****  * Get number of delays expired
  77:D:/fchai/work/i-cube/I-CUBE-HUAWEI/Middlewares/Third_Party/Huawei/iot_link/network/dtls/mbedtls/mbedtls_port\timing_alt.c ****  */
  78:D:/fchai/work/i-cube/I-CUBE-HUAWEI/Middlewares/Third_Party/Huawei/iot_link/network/dtls/mbedtls/mbedtls_port\timing_alt.c **** int mbedtls_timing_get_delay(void *data)
  79:D:/fchai/work/i-cube/I-CUBE-HUAWEI/Middlewares/Third_Party/Huawei/iot_link/network/dtls/mbedtls/mbedtls_port\timing_alt.c **** {
 148              		.loc 1 79 1 is_stmt 1 view -0
 149              		.cfi_startproc
 150              		@ args = 0, pretend = 0, frame = 0
 151              		@ frame_needed = 0, uses_anonymous_args = 0
  80:D:/fchai/work/i-cube/I-CUBE-HUAWEI/Middlewares/Third_Party/Huawei/iot_link/network/dtls/mbedtls/mbedtls_port\timing_alt.c ****     mbedtls_timing_delay_context *ctx = (mbedtls_timing_delay_context *)data;
 152              		.loc 1 80 5 view .LVU38
  81:D:/fchai/work/i-cube/I-CUBE-HUAWEI/Middlewares/Third_Party/Huawei/iot_link/network/dtls/mbedtls/mbedtls_port\timing_alt.c ****     unsigned long elapsed_ms;
 153              		.loc 1 81 5 view .LVU39
  82:D:/fchai/work/i-cube/I-CUBE-HUAWEI/Middlewares/Third_Party/Huawei/iot_link/network/dtls/mbedtls/mbedtls_port\timing_alt.c **** 
  83:D:/fchai/work/i-cube/I-CUBE-HUAWEI/Middlewares/Third_Party/Huawei/iot_link/network/dtls/mbedtls/mbedtls_port\timing_alt.c ****     if (ctx->fin_ms == 0)
 154              		.loc 1 83 5 view .LVU40
 155              		.loc 1 83 8 is_stmt 0 view .LVU41
 156 0000 C368     		ldr	r3, [r0, #12]
 157 0002 83B1     		cbz	r3, .L18
  84:D:/fchai/work/i-cube/I-CUBE-HUAWEI/Middlewares/Third_Party/Huawei/iot_link/network/dtls/mbedtls/mbedtls_port\timing_alt.c ****     {
  85:D:/fchai/work/i-cube/I-CUBE-HUAWEI/Middlewares/Third_Party/Huawei/iot_link/network/dtls/mbedtls/mbedtls_port\timing_alt.c ****         return -1;
  86:D:/fchai/work/i-cube/I-CUBE-HUAWEI/Middlewares/Third_Party/Huawei/iot_link/network/dtls/mbedtls/mbedtls_port\timing_alt.c ****     }
  87:D:/fchai/work/i-cube/I-CUBE-HUAWEI/Middlewares/Third_Party/Huawei/iot_link/network/dtls/mbedtls/mbedtls_port\timing_alt.c **** 
  88:D:/fchai/work/i-cube/I-CUBE-HUAWEI/Middlewares/Third_Party/Huawei/iot_link/network/dtls/mbedtls/mbedtls_port\timing_alt.c ****     elapsed_ms = mbedtls_timing_get_timer(&ctx->timer, 0);
 158              		.loc 1 88 5 is_stmt 1 view .LVU42
  79:D:/fchai/work/i-cube/I-CUBE-HUAWEI/Middlewares/Third_Party/Huawei/iot_link/network/dtls/mbedtls/mbedtls_port\timing_alt.c ****     mbedtls_timing_delay_context *ctx = (mbedtls_timing_delay_context *)data;
 159              		.loc 1 79 1 is_stmt 0 view .LVU43
 160 0004 10B5     		push	{r4, lr}
 161              	.LCFI2:
 162              		.cfi_def_cfa_offset 8
 163              		.cfi_offset 4, -8
 164              		.cfi_offset 14, -4
 165 0006 0446     		mov	r4, r0
 166              	.LVL10:
 167              	.LBB8:
 168              	.LBI8:
  46:D:/fchai/work/i-cube/I-CUBE-HUAWEI/Middlewares/Third_Party/Huawei/iot_link/network/dtls/mbedtls/mbedtls_port\timing_alt.c **** {
 169              		.loc 1 46 15 is_stmt 1 view .LVU44
 170              	.LBB9:
  48:D:/fchai/work/i-cube/I-CUBE-HUAWEI/Middlewares/Third_Party/Huawei/iot_link/network/dtls/mbedtls/mbedtls_port\timing_alt.c ****     now.timer_ms = osal_sys_time();
 171              		.loc 1 48 5 view .LVU45
  49:D:/fchai/work/i-cube/I-CUBE-HUAWEI/Middlewares/Third_Party/Huawei/iot_link/network/dtls/mbedtls/mbedtls_port\timing_alt.c **** 
 172              		.loc 1 49 5 view .LVU46
  49:D:/fchai/work/i-cube/I-CUBE-HUAWEI/Middlewares/Third_Party/Huawei/iot_link/network/dtls/mbedtls/mbedtls_port\timing_alt.c **** 
 173              		.loc 1 49 20 is_stmt 0 view .LVU47
 174 0008 FFF7FEFF 		bl	osal_sys_time
 175              	.LVL11:
  51:D:/fchai/work/i-cube/I-CUBE-HUAWEI/Middlewares/Third_Party/Huawei/iot_link/network/dtls/mbedtls/mbedtls_port\timing_alt.c ****     {
 176              		.loc 1 51 5 is_stmt 1 view .LVU48
  56:D:/fchai/work/i-cube/I-CUBE-HUAWEI/Middlewares/Third_Party/Huawei/iot_link/network/dtls/mbedtls/mbedtls_port\timing_alt.c **** }
 177              		.loc 1 56 5 view .LVU49
  56:D:/fchai/work/i-cube/I-CUBE-HUAWEI/Middlewares/Third_Party/Huawei/iot_link/network/dtls/mbedtls/mbedtls_port\timing_alt.c **** }
 178              		.loc 1 56 12 is_stmt 0 view .LVU50
ARM GAS  T:\msys\tmp\ccUueCda.s 			page 6


 179 000c 2268     		ldr	r2, [r4]
 180              	.LBE9:
 181              	.LBE8:
  89:D:/fchai/work/i-cube/I-CUBE-HUAWEI/Middlewares/Third_Party/Huawei/iot_link/network/dtls/mbedtls/mbedtls_port\timing_alt.c **** 
  90:D:/fchai/work/i-cube/I-CUBE-HUAWEI/Middlewares/Third_Party/Huawei/iot_link/network/dtls/mbedtls/mbedtls_port\timing_alt.c ****     if (elapsed_ms >= ctx->fin_ms)
 182              		.loc 1 90 8 view .LVU51
 183 000e E368     		ldr	r3, [r4, #12]
 184              	.LBB11:
 185              	.LBB10:
  56:D:/fchai/work/i-cube/I-CUBE-HUAWEI/Middlewares/Third_Party/Huawei/iot_link/network/dtls/mbedtls/mbedtls_port\timing_alt.c **** }
 186              		.loc 1 56 12 view .LVU52
 187 0010 801A     		subs	r0, r0, r2
 188              	.LVL12:
  56:D:/fchai/work/i-cube/I-CUBE-HUAWEI/Middlewares/Third_Party/Huawei/iot_link/network/dtls/mbedtls/mbedtls_port\timing_alt.c **** }
 189              		.loc 1 56 12 view .LVU53
 190              	.LBE10:
 191              	.LBE11:
 192              		.loc 1 90 5 is_stmt 1 view .LVU54
 193              		.loc 1 90 8 is_stmt 0 view .LVU55
 194 0012 8342     		cmp	r3, r0
 195 0014 05D9     		bls	.L19
  91:D:/fchai/work/i-cube/I-CUBE-HUAWEI/Middlewares/Third_Party/Huawei/iot_link/network/dtls/mbedtls/mbedtls_port\timing_alt.c ****     {
  92:D:/fchai/work/i-cube/I-CUBE-HUAWEI/Middlewares/Third_Party/Huawei/iot_link/network/dtls/mbedtls/mbedtls_port\timing_alt.c ****         return 2;
  93:D:/fchai/work/i-cube/I-CUBE-HUAWEI/Middlewares/Third_Party/Huawei/iot_link/network/dtls/mbedtls/mbedtls_port\timing_alt.c ****     }
  94:D:/fchai/work/i-cube/I-CUBE-HUAWEI/Middlewares/Third_Party/Huawei/iot_link/network/dtls/mbedtls/mbedtls_port\timing_alt.c **** 
  95:D:/fchai/work/i-cube/I-CUBE-HUAWEI/Middlewares/Third_Party/Huawei/iot_link/network/dtls/mbedtls/mbedtls_port\timing_alt.c ****     if (elapsed_ms >= ctx->int_ms)
 196              		.loc 1 95 5 is_stmt 1 view .LVU56
 197              		.loc 1 95 8 is_stmt 0 view .LVU57
 198 0016 A368     		ldr	r3, [r4, #8]
 199 0018 8342     		cmp	r3, r0
 200 001a 8CBF     		ite	hi
 201 001c 0020     		movhi	r0, #0
 202              	.LVL13:
 203              		.loc 1 95 8 view .LVU58
 204 001e 0120     		movls	r0, #1
  96:D:/fchai/work/i-cube/I-CUBE-HUAWEI/Middlewares/Third_Party/Huawei/iot_link/network/dtls/mbedtls/mbedtls_port\timing_alt.c ****     {
  97:D:/fchai/work/i-cube/I-CUBE-HUAWEI/Middlewares/Third_Party/Huawei/iot_link/network/dtls/mbedtls/mbedtls_port\timing_alt.c ****         return 1;
  98:D:/fchai/work/i-cube/I-CUBE-HUAWEI/Middlewares/Third_Party/Huawei/iot_link/network/dtls/mbedtls/mbedtls_port\timing_alt.c ****     }
  99:D:/fchai/work/i-cube/I-CUBE-HUAWEI/Middlewares/Third_Party/Huawei/iot_link/network/dtls/mbedtls/mbedtls_port\timing_alt.c **** 
 100:D:/fchai/work/i-cube/I-CUBE-HUAWEI/Middlewares/Third_Party/Huawei/iot_link/network/dtls/mbedtls/mbedtls_port\timing_alt.c ****     return 0;
 101:D:/fchai/work/i-cube/I-CUBE-HUAWEI/Middlewares/Third_Party/Huawei/iot_link/network/dtls/mbedtls/mbedtls_port\timing_alt.c **** }
 205              		.loc 1 101 1 view .LVU59
 206 0020 10BD     		pop	{r4, pc}
 207              	.LVL14:
 208              	.L19:
  92:D:/fchai/work/i-cube/I-CUBE-HUAWEI/Middlewares/Third_Party/Huawei/iot_link/network/dtls/mbedtls/mbedtls_port\timing_alt.c ****     }
 209              		.loc 1 92 16 view .LVU60
 210 0022 0220     		movs	r0, #2
 211              	.LVL15:
 212              		.loc 1 101 1 view .LVU61
 213 0024 10BD     		pop	{r4, pc}
 214              	.LVL16:
 215              	.L18:
 216              	.LCFI3:
 217              		.cfi_def_cfa_offset 0
 218              		.cfi_restore 4
 219              		.cfi_restore 14
ARM GAS  T:\msys\tmp\ccUueCda.s 			page 7


  85:D:/fchai/work/i-cube/I-CUBE-HUAWEI/Middlewares/Third_Party/Huawei/iot_link/network/dtls/mbedtls/mbedtls_port\timing_alt.c ****     }
 220              		.loc 1 85 16 view .LVU62
 221 0026 4FF0FF30 		mov	r0, #-1
 222              	.LVL17:
 223              		.loc 1 101 1 view .LVU63
 224 002a 7047     		bx	lr
 225              		.cfi_endproc
 226              	.LFE5:
 228              		.text
 229              	.Letext0:
 230              		.file 2 "t:\\msys\\3rd\\gcc-arm-none-eabi-9-2020-q2-update-win32\\arm-none-eabi\\include\\machine\
 231              		.file 3 "t:\\msys\\3rd\\gcc-arm-none-eabi-9-2020-q2-update-win32\\arm-none-eabi\\include\\sys\\_st
 232              		.file 4 "t:\\msys\\3rd\\gcc-arm-none-eabi-9-2020-q2-update-win32\\lib\\gcc\\arm-none-eabi\\9.3.1\\
 233              		.file 5 "t:\\msys\\3rd\\gcc-arm-none-eabi-9-2020-q2-update-win32\\arm-none-eabi\\include\\sys\\_ty
 234              		.file 6 "t:\\msys\\3rd\\gcc-arm-none-eabi-9-2020-q2-update-win32\\arm-none-eabi\\include\\sys\\ree
 235              		.file 7 "t:\\msys\\3rd\\gcc-arm-none-eabi-9-2020-q2-update-win32\\arm-none-eabi\\include\\sys\\loc
 236              		.file 8 "D:/fchai/work/i-cube/I-CUBE-HUAWEI/Middlewares/Third_Party/Huawei/iot_link/network/dtls/m
 237              		.file 9 "D:/fchai/work/i-cube/I-CUBE-HUAWEI/Middlewares/Third_Party/Huawei/iot_link/os/osal/osal.h
ARM GAS  T:\msys\tmp\ccUueCda.s 			page 8

