ARM GAS  T:\msys\tmp\ccIDyVks.s 			page 1


   1              		.cpu cortex-m4
   2              		.eabi_attribute 27, 1
   3              		.eabi_attribute 28, 1
   4              		.eabi_attribute 20, 1
   5              		.eabi_attribute 21, 1
   6              		.eabi_attribute 23, 3
   7              		.eabi_attribute 24, 1
   8              		.eabi_attribute 25, 1
   9              		.eabi_attribute 26, 1
  10              		.eabi_attribute 30, 2
  11              		.eabi_attribute 34, 1
  12              		.eabi_attribute 18, 4
  13              		.file	"oc_mqtt_at.c"
  14              		.text
  15              	.Ltext0:
  16              		.cfi_sections	.debug_frame
  17              		.section	.rodata.hwoc_mqtt_log.str1.4,"aMS",%progbits,1
  18              		.align	2
  19              	.LC0:
  20 0000 5B25735D 		.ascii	"[%s][%u][%s] connected %d\012\015\015\012\000"
  20      5B25755D 
  20      5B25735D 
  20      20636F6E 
  20      6E656374 
  21 001e 0000     		.align	2
  22              	.LC1:
  23 0020 5B25735D 		.ascii	"[%s][%u][%s] disconnected %d\012\015\015\012\000"
  23      5B25755D 
  23      5B25735D 
  23      20646973 
  23      636F6E6E 
  24              		.section	.text.hwoc_mqtt_log,"ax",%progbits
  25              		.align	1
  26              		.p2align 2,,3
  27              		.weak	hwoc_mqtt_log
  28              		.arch armv7e-m
  29              		.syntax unified
  30              		.thumb
  31              		.thumb_func
  32              		.fpu fpv4-sp-d16
  34              	hwoc_mqtt_log:
  35              	.LVL0:
  36              	.LFB4:
  37              		.file 1 "D:/fchai/work/i-cube/I-CUBE-HUAWEI/Middlewares/Third_Party/Huawei/iot_link/oc/oc_mqtt/oc_
   1:D:/fchai/work/i-cube/I-CUBE-HUAWEI/Middlewares/Third_Party/Huawei/iot_link/oc/oc_mqtt/oc_mqtt_al\oc_mqtt_at.c **** /*----------------------------------------------------------------------------
   2:D:/fchai/work/i-cube/I-CUBE-HUAWEI/Middlewares/Third_Party/Huawei/iot_link/oc/oc_mqtt/oc_mqtt_al\oc_mqtt_at.c ****  * Copyright (c) <2016-2019>, <Huawei Technologies Co., Ltd>
   3:D:/fchai/work/i-cube/I-CUBE-HUAWEI/Middlewares/Third_Party/Huawei/iot_link/oc/oc_mqtt/oc_mqtt_al\oc_mqtt_at.c ****  * All rights reserved.
   4:D:/fchai/work/i-cube/I-CUBE-HUAWEI/Middlewares/Third_Party/Huawei/iot_link/oc/oc_mqtt/oc_mqtt_al\oc_mqtt_at.c ****  * Redistribution and use in source and binary forms, with or without modification,
   5:D:/fchai/work/i-cube/I-CUBE-HUAWEI/Middlewares/Third_Party/Huawei/iot_link/oc/oc_mqtt/oc_mqtt_al\oc_mqtt_at.c ****  * are permitted provided that the following conditions are met:
   6:D:/fchai/work/i-cube/I-CUBE-HUAWEI/Middlewares/Third_Party/Huawei/iot_link/oc/oc_mqtt/oc_mqtt_al\oc_mqtt_at.c ****  * 1. Redistributions of source code must retain the above copyright notice, this list of
   7:D:/fchai/work/i-cube/I-CUBE-HUAWEI/Middlewares/Third_Party/Huawei/iot_link/oc/oc_mqtt/oc_mqtt_al\oc_mqtt_at.c ****  * conditions and the following disclaimer.
   8:D:/fchai/work/i-cube/I-CUBE-HUAWEI/Middlewares/Third_Party/Huawei/iot_link/oc/oc_mqtt/oc_mqtt_al\oc_mqtt_at.c ****  * 2. Redistributions in binary form must reproduce the above copyright notice, this list
   9:D:/fchai/work/i-cube/I-CUBE-HUAWEI/Middlewares/Third_Party/Huawei/iot_link/oc/oc_mqtt/oc_mqtt_al\oc_mqtt_at.c ****  * of conditions and the following disclaimer in the documentation and/or other materials
  10:D:/fchai/work/i-cube/I-CUBE-HUAWEI/Middlewares/Third_Party/Huawei/iot_link/oc/oc_mqtt/oc_mqtt_al\oc_mqtt_at.c ****  * provided with the distribution.
  11:D:/fchai/work/i-cube/I-CUBE-HUAWEI/Middlewares/Third_Party/Huawei/iot_link/oc/oc_mqtt/oc_mqtt_al\oc_mqtt_at.c ****  * 3. Neither the name of the copyright holder nor the names of its contributors may be used
  12:D:/fchai/work/i-cube/I-CUBE-HUAWEI/Middlewares/Third_Party/Huawei/iot_link/oc/oc_mqtt/oc_mqtt_al\oc_mqtt_at.c ****  * to endorse or promote products derived from this software without specific prior written
  13:D:/fchai/work/i-cube/I-CUBE-HUAWEI/Middlewares/Third_Party/Huawei/iot_link/oc/oc_mqtt/oc_mqtt_al\oc_mqtt_at.c ****  * permission.
ARM GAS  T:\msys\tmp\ccIDyVks.s 			page 2


  14:D:/fchai/work/i-cube/I-CUBE-HUAWEI/Middlewares/Third_Party/Huawei/iot_link/oc/oc_mqtt/oc_mqtt_al\oc_mqtt_at.c ****  * THIS SOFTWARE IS PROVIDED BY THE COPYRIGHT HOLDERS AND CONTRIBUTORS
  15:D:/fchai/work/i-cube/I-CUBE-HUAWEI/Middlewares/Third_Party/Huawei/iot_link/oc/oc_mqtt/oc_mqtt_al\oc_mqtt_at.c ****  * "AS IS" AND ANY EXPRESS OR IMPLIED WARRANTIES, INCLUDING, BUT NOT LIMITED TO,
  16:D:/fchai/work/i-cube/I-CUBE-HUAWEI/Middlewares/Third_Party/Huawei/iot_link/oc/oc_mqtt/oc_mqtt_al\oc_mqtt_at.c ****  * THE IMPLIED WARRANTIES OF MERCHANTABILITY AND FITNESS FOR A PARTICULAR
  17:D:/fchai/work/i-cube/I-CUBE-HUAWEI/Middlewares/Third_Party/Huawei/iot_link/oc/oc_mqtt/oc_mqtt_al\oc_mqtt_at.c ****  * PURPOSE ARE DISCLAIMED. IN NO EVENT SHALL THE COPYRIGHT HOLDER OR
  18:D:/fchai/work/i-cube/I-CUBE-HUAWEI/Middlewares/Third_Party/Huawei/iot_link/oc/oc_mqtt/oc_mqtt_al\oc_mqtt_at.c ****  * CONTRIBUTORS BE LIABLE FOR ANY DIRECT, INDIRECT, INCIDENTAL, SPECIAL,
  19:D:/fchai/work/i-cube/I-CUBE-HUAWEI/Middlewares/Third_Party/Huawei/iot_link/oc/oc_mqtt/oc_mqtt_al\oc_mqtt_at.c ****  * EXEMPLARY, OR CONSEQUENTIAL DAMAGES (INCLUDING, BUT NOT LIMITED TO,
  20:D:/fchai/work/i-cube/I-CUBE-HUAWEI/Middlewares/Third_Party/Huawei/iot_link/oc/oc_mqtt/oc_mqtt_al\oc_mqtt_at.c ****  * PROCUREMENT OF SUBSTITUTE GOODS OR SERVICES; LOSS OF USE, DATA, OR PROFITS;
  21:D:/fchai/work/i-cube/I-CUBE-HUAWEI/Middlewares/Third_Party/Huawei/iot_link/oc/oc_mqtt/oc_mqtt_al\oc_mqtt_at.c ****  * OR BUSINESS INTERRUPTION) HOWEVER CAUSED AND ON ANY THEORY OF LIABILITY,
  22:D:/fchai/work/i-cube/I-CUBE-HUAWEI/Middlewares/Third_Party/Huawei/iot_link/oc/oc_mqtt/oc_mqtt_al\oc_mqtt_at.c ****  * WHETHER IN CONTRACT, STRICT LIABILITY, OR TORT (INCLUDING NEGLIGENCE OR
  23:D:/fchai/work/i-cube/I-CUBE-HUAWEI/Middlewares/Third_Party/Huawei/iot_link/oc/oc_mqtt/oc_mqtt_al\oc_mqtt_at.c ****  * OTHERWISE) ARISING IN ANY WAY OUT OF THE USE OF THIS SOFTWARE, EVEN IF
  24:D:/fchai/work/i-cube/I-CUBE-HUAWEI/Middlewares/Third_Party/Huawei/iot_link/oc/oc_mqtt/oc_mqtt_al\oc_mqtt_at.c ****  * ADVISED OF THE POSSIBILITY OF SUCH DAMAGE.
  25:D:/fchai/work/i-cube/I-CUBE-HUAWEI/Middlewares/Third_Party/Huawei/iot_link/oc/oc_mqtt/oc_mqtt_al\oc_mqtt_at.c ****  *---------------------------------------------------------------------------*/
  26:D:/fchai/work/i-cube/I-CUBE-HUAWEI/Middlewares/Third_Party/Huawei/iot_link/oc/oc_mqtt/oc_mqtt_al\oc_mqtt_at.c **** /*----------------------------------------------------------------------------
  27:D:/fchai/work/i-cube/I-CUBE-HUAWEI/Middlewares/Third_Party/Huawei/iot_link/oc/oc_mqtt/oc_mqtt_al\oc_mqtt_at.c ****  * Notice of Export Control Law
  28:D:/fchai/work/i-cube/I-CUBE-HUAWEI/Middlewares/Third_Party/Huawei/iot_link/oc/oc_mqtt/oc_mqtt_al\oc_mqtt_at.c ****  * ===============================================
  29:D:/fchai/work/i-cube/I-CUBE-HUAWEI/Middlewares/Third_Party/Huawei/iot_link/oc/oc_mqtt/oc_mqtt_al\oc_mqtt_at.c ****  * Huawei LiteOS may be subject to applicable export control laws and regulations, which might
  30:D:/fchai/work/i-cube/I-CUBE-HUAWEI/Middlewares/Third_Party/Huawei/iot_link/oc/oc_mqtt/oc_mqtt_al\oc_mqtt_at.c ****  * include those applicable to Huawei LiteOS of U.S. and the country in which you are located.
  31:D:/fchai/work/i-cube/I-CUBE-HUAWEI/Middlewares/Third_Party/Huawei/iot_link/oc/oc_mqtt/oc_mqtt_al\oc_mqtt_at.c ****  * Import, export and usage of Huawei LiteOS in any manner by you shall be in compliance with such
  32:D:/fchai/work/i-cube/I-CUBE-HUAWEI/Middlewares/Third_Party/Huawei/iot_link/oc/oc_mqtt/oc_mqtt_al\oc_mqtt_at.c ****  * applicable export control laws and regulations.
  33:D:/fchai/work/i-cube/I-CUBE-HUAWEI/Middlewares/Third_Party/Huawei/iot_link/oc/oc_mqtt/oc_mqtt_al\oc_mqtt_at.c ****  *---------------------------------------------------------------------------*/
  34:D:/fchai/work/i-cube/I-CUBE-HUAWEI/Middlewares/Third_Party/Huawei/iot_link/oc/oc_mqtt/oc_mqtt_al\oc_mqtt_at.c **** 
  35:D:/fchai/work/i-cube/I-CUBE-HUAWEI/Middlewares/Third_Party/Huawei/iot_link/oc/oc_mqtt/oc_mqtt_al\oc_mqtt_at.c **** #include <stdio.h>
  36:D:/fchai/work/i-cube/I-CUBE-HUAWEI/Middlewares/Third_Party/Huawei/iot_link/oc/oc_mqtt/oc_mqtt_al\oc_mqtt_at.c **** #include <string.h>
  37:D:/fchai/work/i-cube/I-CUBE-HUAWEI/Middlewares/Third_Party/Huawei/iot_link/oc/oc_mqtt/oc_mqtt_al\oc_mqtt_at.c **** #include <stdlib.h>
  38:D:/fchai/work/i-cube/I-CUBE-HUAWEI/Middlewares/Third_Party/Huawei/iot_link/oc/oc_mqtt/oc_mqtt_al\oc_mqtt_at.c **** 
  39:D:/fchai/work/i-cube/I-CUBE-HUAWEI/Middlewares/Third_Party/Huawei/iot_link/oc/oc_mqtt/oc_mqtt_al\oc_mqtt_at.c **** #include <osal.h>
  40:D:/fchai/work/i-cube/I-CUBE-HUAWEI/Middlewares/Third_Party/Huawei/iot_link/oc/oc_mqtt/oc_mqtt_al\oc_mqtt_at.c **** #include <oc_mqtt_al.h>
  41:D:/fchai/work/i-cube/I-CUBE-HUAWEI/Middlewares/Third_Party/Huawei/iot_link/oc/oc_mqtt/oc_mqtt_al\oc_mqtt_at.c **** #include <oc_mqtt_at.h>
  42:D:/fchai/work/i-cube/I-CUBE-HUAWEI/Middlewares/Third_Party/Huawei/iot_link/oc/oc_mqtt/oc_mqtt_al\oc_mqtt_at.c **** 
  43:D:/fchai/work/i-cube/I-CUBE-HUAWEI/Middlewares/Third_Party/Huawei/iot_link/oc/oc_mqtt/oc_mqtt_al\oc_mqtt_at.c **** extern int link_main(void *args);
  44:D:/fchai/work/i-cube/I-CUBE-HUAWEI/Middlewares/Third_Party/Huawei/iot_link/oc/oc_mqtt/oc_mqtt_al\oc_mqtt_at.c **** 
  45:D:/fchai/work/i-cube/I-CUBE-HUAWEI/Middlewares/Third_Party/Huawei/iot_link/oc/oc_mqtt/oc_mqtt_al\oc_mqtt_at.c **** static char *s_server_ca = NULL; ///< used to storage the server ca
  46:D:/fchai/work/i-cube/I-CUBE-HUAWEI/Middlewares/Third_Party/Huawei/iot_link/oc/oc_mqtt/oc_mqtt_al\oc_mqtt_at.c **** static char *s_client_ca = NULL; ///< used to storage the client ca
  47:D:/fchai/work/i-cube/I-CUBE-HUAWEI/Middlewares/Third_Party/Huawei/iot_link/oc/oc_mqtt/oc_mqtt_al\oc_mqtt_at.c **** static char *s_client_pk = NULL; ///< used to storage the client pk
  48:D:/fchai/work/i-cube/I-CUBE-HUAWEI/Middlewares/Third_Party/Huawei/iot_link/oc/oc_mqtt/oc_mqtt_al\oc_mqtt_at.c **** static char *s_client_pk_pwd = NULL;///< used to strorage the pwd for the pk
  49:D:/fchai/work/i-cube/I-CUBE-HUAWEI/Middlewares/Third_Party/Huawei/iot_link/oc/oc_mqtt/oc_mqtt_al\oc_mqtt_at.c **** 
  50:D:/fchai/work/i-cube/I-CUBE-HUAWEI/Middlewares/Third_Party/Huawei/iot_link/oc/oc_mqtt/oc_mqtt_al\oc_mqtt_at.c **** ///< when receive any information from hw, then it call this function,THIS IS A URC imformation
  51:D:/fchai/work/i-cube/I-CUBE-HUAWEI/Middlewares/Third_Party/Huawei/iot_link/oc/oc_mqtt/oc_mqtt_al\oc_mqtt_at.c **** ///< ATCOMMAND:    +HMPUB:"HELLOTOPC",2,0010
  52:D:/fchai/work/i-cube/I-CUBE-HUAWEI/Middlewares/Third_Party/Huawei/iot_link/oc/oc_mqtt/oc_mqtt_al\oc_mqtt_at.c **** ///< make sure that the topic and payload may not be ended with '\0', so you should not use strcpy
  53:D:/fchai/work/i-cube/I-CUBE-HUAWEI/Middlewares/Third_Party/Huawei/iot_link/oc/oc_mqtt/oc_mqtt_al\oc_mqtt_at.c **** __attribute__((weak)) void hwoc_mqtt_recvpub(const char *topic,int topiclen,uint8_t *payload, int p
  54:D:/fchai/work/i-cube/I-CUBE-HUAWEI/Middlewares/Third_Party/Huawei/iot_link/oc/oc_mqtt/oc_mqtt_al\oc_mqtt_at.c **** {
  55:D:/fchai/work/i-cube/I-CUBE-HUAWEI/Middlewares/Third_Party/Huawei/iot_link/oc/oc_mqtt/oc_mqtt_al\oc_mqtt_at.c ****     LINK_LOG_DEBUG("%s:specified topic message\n\r",__FUNCTION__);
  56:D:/fchai/work/i-cube/I-CUBE-HUAWEI/Middlewares/Third_Party/Huawei/iot_link/oc/oc_mqtt/oc_mqtt_al\oc_mqtt_at.c ****     ///< PLEASE USE THE AT PIPE TO OUTPUT THE INFORMATION
  57:D:/fchai/work/i-cube/I-CUBE-HUAWEI/Middlewares/Third_Party/Huawei/iot_link/oc/oc_mqtt/oc_mqtt_al\oc_mqtt_at.c ****     return;
  58:D:/fchai/work/i-cube/I-CUBE-HUAWEI/Middlewares/Third_Party/Huawei/iot_link/oc/oc_mqtt/oc_mqtt_al\oc_mqtt_at.c **** }
  59:D:/fchai/work/i-cube/I-CUBE-HUAWEI/Middlewares/Third_Party/Huawei/iot_link/oc/oc_mqtt/oc_mqtt_al\oc_mqtt_at.c **** 
  60:D:/fchai/work/i-cube/I-CUBE-HUAWEI/Middlewares/Third_Party/Huawei/iot_link/oc/oc_mqtt/oc_mqtt_al\oc_mqtt_at.c **** ///<ATCOMMAND:
  61:D:/fchai/work/i-cube/I-CUBE-HUAWEI/Middlewares/Third_Party/Huawei/iot_link/oc/oc_mqtt/oc_mqtt_al\oc_mqtt_at.c **** __attribute__((weak)) void  hwoc_mqtt_log(en_oc_mqtt_log_t  logtype)
  62:D:/fchai/work/i-cube/I-CUBE-HUAWEI/Middlewares/Third_Party/Huawei/iot_link/oc/oc_mqtt/oc_mqtt_al\oc_mqtt_at.c **** {
  38              		.loc 1 62 1 view -0
  39              		.cfi_startproc
  40              		@ args = 0, pretend = 0, frame = 0
  41              		@ frame_needed = 0, uses_anonymous_args = 0
  63:D:/fchai/work/i-cube/I-CUBE-HUAWEI/Middlewares/Third_Party/Huawei/iot_link/oc/oc_mqtt/oc_mqtt_al\oc_mqtt_at.c ****     if(logtype == en_oc_mqtt_log_connected)
  42              		.loc 1 63 5 view .LVU1
  62:D:/fchai/work/i-cube/I-CUBE-HUAWEI/Middlewares/Third_Party/Huawei/iot_link/oc/oc_mqtt/oc_mqtt_al\oc_mqtt_at.c ****     if(logtype == en_oc_mqtt_log_connected)
  43              		.loc 1 62 1 is_stmt 0 view .LVU2
ARM GAS  T:\msys\tmp\ccIDyVks.s 			page 3


  44 0000 30B5     		push	{r4, r5, lr}
  45              	.LCFI0:
  46              		.cfi_def_cfa_offset 12
  47              		.cfi_offset 4, -12
  48              		.cfi_offset 5, -8
  49              		.cfi_offset 14, -4
  50              		.loc 1 63 7 view .LVU3
  51 0002 0446     		mov	r4, r0
  62:D:/fchai/work/i-cube/I-CUBE-HUAWEI/Middlewares/Third_Party/Huawei/iot_link/oc/oc_mqtt/oc_mqtt_al\oc_mqtt_at.c ****     if(logtype == en_oc_mqtt_log_connected)
  52              		.loc 1 62 1 view .LVU4
  53 0004 83B0     		sub	sp, sp, #12
  54              	.LCFI1:
  55              		.cfi_def_cfa_offset 24
  56              		.loc 1 63 7 view .LVU5
  57 0006 28B9     		cbnz	r0, .L2
  64:D:/fchai/work/i-cube/I-CUBE-HUAWEI/Middlewares/Third_Party/Huawei/iot_link/oc/oc_mqtt/oc_mqtt_al\oc_mqtt_at.c ****     {
  65:D:/fchai/work/i-cube/I-CUBE-HUAWEI/Middlewares/Third_Party/Huawei/iot_link/oc/oc_mqtt/oc_mqtt_al\oc_mqtt_at.c ****         LINK_LOG_DEBUG("connected %d\n\r",(int)logtype);
  58              		.loc 1 65 9 is_stmt 1 view .LVU6
  59              		.loc 1 65 9 view .LVU7
  60 0008 FFF7FEFF 		bl	link_log_level_get
  61              	.LVL1:
  62              		.loc 1 65 9 is_stmt 0 view .LVU8
  63 000c 0128     		cmp	r0, #1
  64 000e 1AD9     		bls	.L9
  65              	.L1:
  66:D:/fchai/work/i-cube/I-CUBE-HUAWEI/Middlewares/Third_Party/Huawei/iot_link/oc/oc_mqtt/oc_mqtt_al\oc_mqtt_at.c ****     }
  67:D:/fchai/work/i-cube/I-CUBE-HUAWEI/Middlewares/Third_Party/Huawei/iot_link/oc/oc_mqtt/oc_mqtt_al\oc_mqtt_at.c ****     else
  68:D:/fchai/work/i-cube/I-CUBE-HUAWEI/Middlewares/Third_Party/Huawei/iot_link/oc/oc_mqtt/oc_mqtt_al\oc_mqtt_at.c ****     {
  69:D:/fchai/work/i-cube/I-CUBE-HUAWEI/Middlewares/Third_Party/Huawei/iot_link/oc/oc_mqtt/oc_mqtt_al\oc_mqtt_at.c ****         LINK_LOG_DEBUG("disconnected %d\n\r",(int)logtype);
  70:D:/fchai/work/i-cube/I-CUBE-HUAWEI/Middlewares/Third_Party/Huawei/iot_link/oc/oc_mqtt/oc_mqtt_al\oc_mqtt_at.c ****     }
  71:D:/fchai/work/i-cube/I-CUBE-HUAWEI/Middlewares/Third_Party/Huawei/iot_link/oc/oc_mqtt/oc_mqtt_al\oc_mqtt_at.c **** 
  72:D:/fchai/work/i-cube/I-CUBE-HUAWEI/Middlewares/Third_Party/Huawei/iot_link/oc/oc_mqtt/oc_mqtt_al\oc_mqtt_at.c ****     return;
  73:D:/fchai/work/i-cube/I-CUBE-HUAWEI/Middlewares/Third_Party/Huawei/iot_link/oc/oc_mqtt/oc_mqtt_al\oc_mqtt_at.c **** }
  66              		.loc 1 73 1 view .LVU9
  67 0010 03B0     		add	sp, sp, #12
  68              	.LCFI2:
  69              		.cfi_remember_state
  70              		.cfi_def_cfa_offset 12
  71              		@ sp needed
  72 0012 30BD     		pop	{r4, r5, pc}
  73              	.LVL2:
  74              	.L2:
  75              	.LCFI3:
  76              		.cfi_restore_state
  69:D:/fchai/work/i-cube/I-CUBE-HUAWEI/Middlewares/Third_Party/Huawei/iot_link/oc/oc_mqtt/oc_mqtt_al\oc_mqtt_at.c ****     }
  77              		.loc 1 69 9 is_stmt 1 discriminator 2 view .LVU10
  69:D:/fchai/work/i-cube/I-CUBE-HUAWEI/Middlewares/Third_Party/Huawei/iot_link/oc/oc_mqtt/oc_mqtt_al\oc_mqtt_at.c ****     }
  78              		.loc 1 69 9 discriminator 2 view .LVU11
  79 0014 FFF7FEFF 		bl	link_log_level_get
  80              	.LVL3:
  69:D:/fchai/work/i-cube/I-CUBE-HUAWEI/Middlewares/Third_Party/Huawei/iot_link/oc/oc_mqtt/oc_mqtt_al\oc_mqtt_at.c ****     }
  81              		.loc 1 69 9 is_stmt 0 discriminator 2 view .LVU12
  82 0018 0128     		cmp	r0, #1
  83 001a F9D8     		bhi	.L1
  69:D:/fchai/work/i-cube/I-CUBE-HUAWEI/Middlewares/Third_Party/Huawei/iot_link/oc/oc_mqtt/oc_mqtt_al\oc_mqtt_at.c ****     }
  84              		.loc 1 69 9 is_stmt 1 discriminator 1 view .LVU13
  69:D:/fchai/work/i-cube/I-CUBE-HUAWEI/Middlewares/Third_Party/Huawei/iot_link/oc/oc_mqtt/oc_mqtt_al\oc_mqtt_at.c ****     }
ARM GAS  T:\msys\tmp\ccIDyVks.s 			page 4


  85              		.loc 1 69 9 discriminator 1 view .LVU14
  69:D:/fchai/work/i-cube/I-CUBE-HUAWEI/Middlewares/Third_Party/Huawei/iot_link/oc/oc_mqtt/oc_mqtt_al\oc_mqtt_at.c ****     }
  86              		.loc 1 69 9 discriminator 1 view .LVU15
  87 001c 0120     		movs	r0, #1
  88 001e FFF7FEFF 		bl	link_log_level_name
  89              	.LVL4:
  90 0022 0546     		mov	r5, r0
  91 0024 FFF7FEFF 		bl	osal_sys_time
  92              	.LVL5:
  93 0028 0D4B     		ldr	r3, .L10
  94 002a 0094     		str	r4, [sp]
  95 002c 0246     		mov	r2, r0
  96 002e 0D48     		ldr	r0, .L10+4
  97 0030 2946     		mov	r1, r5
  98              	.L7:
  99 0032 FFF7FEFF 		bl	printf
 100              	.LVL6:
  69:D:/fchai/work/i-cube/I-CUBE-HUAWEI/Middlewares/Third_Party/Huawei/iot_link/oc/oc_mqtt/oc_mqtt_al\oc_mqtt_at.c ****     }
 101              		.loc 1 69 9 discriminator 1 view .LVU16
 102 0036 0C4B     		ldr	r3, .L10+8
 103 0038 1B68     		ldr	r3, [r3]
 104 003a 9868     		ldr	r0, [r3, #8]
 105              		.loc 1 73 1 is_stmt 0 discriminator 1 view .LVU17
 106 003c 03B0     		add	sp, sp, #12
 107              	.LCFI4:
 108              		.cfi_remember_state
 109              		.cfi_def_cfa_offset 12
 110              		@ sp needed
 111 003e BDE83040 		pop	{r4, r5, lr}
 112              	.LCFI5:
 113              		.cfi_restore 14
 114              		.cfi_restore 5
 115              		.cfi_restore 4
 116              		.cfi_def_cfa_offset 0
  69:D:/fchai/work/i-cube/I-CUBE-HUAWEI/Middlewares/Third_Party/Huawei/iot_link/oc/oc_mqtt/oc_mqtt_al\oc_mqtt_at.c ****     }
 117              		.loc 1 69 9 discriminator 1 view .LVU18
 118 0042 FFF7FEBF 		b	fflush
 119              	.LVL7:
 120              	.L9:
 121              	.LCFI6:
 122              		.cfi_restore_state
 123              	.LBB4:
 124              	.LBI4:
  61:D:/fchai/work/i-cube/I-CUBE-HUAWEI/Middlewares/Third_Party/Huawei/iot_link/oc/oc_mqtt/oc_mqtt_al\oc_mqtt_at.c **** {
 125              		.loc 1 61 29 is_stmt 1 view .LVU19
 126              	.LBB5:
  65:D:/fchai/work/i-cube/I-CUBE-HUAWEI/Middlewares/Third_Party/Huawei/iot_link/oc/oc_mqtt/oc_mqtt_al\oc_mqtt_at.c ****     }
 127              		.loc 1 65 9 view .LVU20
  65:D:/fchai/work/i-cube/I-CUBE-HUAWEI/Middlewares/Third_Party/Huawei/iot_link/oc/oc_mqtt/oc_mqtt_al\oc_mqtt_at.c ****     }
 128              		.loc 1 65 9 view .LVU21
  65:D:/fchai/work/i-cube/I-CUBE-HUAWEI/Middlewares/Third_Party/Huawei/iot_link/oc/oc_mqtt/oc_mqtt_al\oc_mqtt_at.c ****     }
 129              		.loc 1 65 9 view .LVU22
 130 0046 0120     		movs	r0, #1
 131 0048 FFF7FEFF 		bl	link_log_level_name
 132              	.LVL8:
 133 004c 0546     		mov	r5, r0
 134 004e FFF7FEFF 		bl	osal_sys_time
ARM GAS  T:\msys\tmp\ccIDyVks.s 			page 5


 135              	.LVL9:
 136 0052 034B     		ldr	r3, .L10
 137 0054 0094     		str	r4, [sp]
 138 0056 0246     		mov	r2, r0
 139 0058 2946     		mov	r1, r5
 140 005a 0448     		ldr	r0, .L10+12
 141 005c E9E7     		b	.L7
 142              	.L11:
 143 005e 00BF     		.align	2
 144              	.L10:
 145 0060 00000000 		.word	.LANCHOR0
 146 0064 20000000 		.word	.LC1
 147 0068 00000000 		.word	_impure_ptr
 148 006c 00000000 		.word	.LC0
 149              	.LBE5:
 150              	.LBE4:
 151              		.cfi_endproc
 152              	.LFE4:
 154              		.section	.rodata.hwoc_mqtt_recvpub.str1.4,"aMS",%progbits,1
 155              		.align	2
 156              	.LC2:
 157 0000 5B25735D 		.ascii	"[%s][%u][%s] %s:specified topic message\012\015\015"
 157      5B25755D 
 157      5B25735D 
 157      2025733A 
 157      73706563 
 158 002a 0A00     		.ascii	"\012\000"
 159              		.section	.text.hwoc_mqtt_recvpub,"ax",%progbits
 160              		.align	1
 161              		.p2align 2,,3
 162              		.weak	hwoc_mqtt_recvpub
 163              		.syntax unified
 164              		.thumb
 165              		.thumb_func
 166              		.fpu fpv4-sp-d16
 168              	hwoc_mqtt_recvpub:
 169              	.LVL10:
 170              	.LFB3:
  54:D:/fchai/work/i-cube/I-CUBE-HUAWEI/Middlewares/Third_Party/Huawei/iot_link/oc/oc_mqtt/oc_mqtt_al\oc_mqtt_at.c ****     LINK_LOG_DEBUG("%s:specified topic message\n\r",__FUNCTION__);
 171              		.loc 1 54 1 view -0
 172              		.cfi_startproc
 173              		@ args = 0, pretend = 0, frame = 0
 174              		@ frame_needed = 0, uses_anonymous_args = 0
  55:D:/fchai/work/i-cube/I-CUBE-HUAWEI/Middlewares/Third_Party/Huawei/iot_link/oc/oc_mqtt/oc_mqtt_al\oc_mqtt_at.c ****     ///< PLEASE USE THE AT PIPE TO OUTPUT THE INFORMATION
 175              		.loc 1 55 5 view .LVU24
  55:D:/fchai/work/i-cube/I-CUBE-HUAWEI/Middlewares/Third_Party/Huawei/iot_link/oc/oc_mqtt/oc_mqtt_al\oc_mqtt_at.c ****     ///< PLEASE USE THE AT PIPE TO OUTPUT THE INFORMATION
 176              		.loc 1 55 5 view .LVU25
  54:D:/fchai/work/i-cube/I-CUBE-HUAWEI/Middlewares/Third_Party/Huawei/iot_link/oc/oc_mqtt/oc_mqtt_al\oc_mqtt_at.c ****     LINK_LOG_DEBUG("%s:specified topic message\n\r",__FUNCTION__);
 177              		.loc 1 54 1 is_stmt 0 view .LVU26
 178 0000 10B5     		push	{r4, lr}
 179              	.LCFI7:
 180              		.cfi_def_cfa_offset 8
 181              		.cfi_offset 4, -8
 182              		.cfi_offset 14, -4
 183 0002 82B0     		sub	sp, sp, #8
 184              	.LCFI8:
 185              		.cfi_def_cfa_offset 16
ARM GAS  T:\msys\tmp\ccIDyVks.s 			page 6


  55:D:/fchai/work/i-cube/I-CUBE-HUAWEI/Middlewares/Third_Party/Huawei/iot_link/oc/oc_mqtt/oc_mqtt_al\oc_mqtt_at.c ****     ///< PLEASE USE THE AT PIPE TO OUTPUT THE INFORMATION
 186              		.loc 1 55 5 view .LVU27
 187 0004 FFF7FEFF 		bl	link_log_level_get
 188              	.LVL11:
  55:D:/fchai/work/i-cube/I-CUBE-HUAWEI/Middlewares/Third_Party/Huawei/iot_link/oc/oc_mqtt/oc_mqtt_al\oc_mqtt_at.c ****     ///< PLEASE USE THE AT PIPE TO OUTPUT THE INFORMATION
 189              		.loc 1 55 5 view .LVU28
 190 0008 0128     		cmp	r0, #1
 191 000a 01D9     		bls	.L15
  58:D:/fchai/work/i-cube/I-CUBE-HUAWEI/Middlewares/Third_Party/Huawei/iot_link/oc/oc_mqtt/oc_mqtt_al\oc_mqtt_at.c **** 
 192              		.loc 1 58 1 view .LVU29
 193 000c 02B0     		add	sp, sp, #8
 194              	.LCFI9:
 195              		.cfi_remember_state
 196              		.cfi_def_cfa_offset 8
 197              		@ sp needed
 198 000e 10BD     		pop	{r4, pc}
 199              	.L15:
 200              	.LCFI10:
 201              		.cfi_restore_state
 202              	.LBB8:
 203              	.LBI8:
  53:D:/fchai/work/i-cube/I-CUBE-HUAWEI/Middlewares/Third_Party/Huawei/iot_link/oc/oc_mqtt/oc_mqtt_al\oc_mqtt_at.c **** {
 204              		.loc 1 53 28 is_stmt 1 view .LVU30
 205              	.LVL12:
 206              	.LBB9:
  55:D:/fchai/work/i-cube/I-CUBE-HUAWEI/Middlewares/Third_Party/Huawei/iot_link/oc/oc_mqtt/oc_mqtt_al\oc_mqtt_at.c ****     ///< PLEASE USE THE AT PIPE TO OUTPUT THE INFORMATION
 207              		.loc 1 55 5 view .LVU31
  55:D:/fchai/work/i-cube/I-CUBE-HUAWEI/Middlewares/Third_Party/Huawei/iot_link/oc/oc_mqtt/oc_mqtt_al\oc_mqtt_at.c ****     ///< PLEASE USE THE AT PIPE TO OUTPUT THE INFORMATION
 208              		.loc 1 55 5 view .LVU32
  55:D:/fchai/work/i-cube/I-CUBE-HUAWEI/Middlewares/Third_Party/Huawei/iot_link/oc/oc_mqtt/oc_mqtt_al\oc_mqtt_at.c ****     ///< PLEASE USE THE AT PIPE TO OUTPUT THE INFORMATION
 209              		.loc 1 55 5 view .LVU33
 210 0010 0120     		movs	r0, #1
 211 0012 FFF7FEFF 		bl	link_log_level_name
 212              	.LVL13:
 213 0016 0446     		mov	r4, r0
 214 0018 FFF7FEFF 		bl	osal_sys_time
 215              	.LVL14:
 216 001c 074B     		ldr	r3, .L16
 217 001e 0093     		str	r3, [sp]
 218 0020 0246     		mov	r2, r0
 219 0022 2146     		mov	r1, r4
 220 0024 0648     		ldr	r0, .L16+4
 221 0026 FFF7FEFF 		bl	printf
 222              	.LVL15:
  55:D:/fchai/work/i-cube/I-CUBE-HUAWEI/Middlewares/Third_Party/Huawei/iot_link/oc/oc_mqtt/oc_mqtt_al\oc_mqtt_at.c ****     ///< PLEASE USE THE AT PIPE TO OUTPUT THE INFORMATION
 223              		.loc 1 55 5 view .LVU34
 224 002a 064B     		ldr	r3, .L16+8
 225 002c 1B68     		ldr	r3, [r3]
 226 002e 9868     		ldr	r0, [r3, #8]
 227              	.LBE9:
 228              	.LBE8:
  58:D:/fchai/work/i-cube/I-CUBE-HUAWEI/Middlewares/Third_Party/Huawei/iot_link/oc/oc_mqtt/oc_mqtt_al\oc_mqtt_at.c **** 
 229              		.loc 1 58 1 is_stmt 0 view .LVU35
 230 0030 02B0     		add	sp, sp, #8
 231              	.LCFI11:
 232              		.cfi_def_cfa_offset 8
 233              		@ sp needed
ARM GAS  T:\msys\tmp\ccIDyVks.s 			page 7


 234 0032 BDE81040 		pop	{r4, lr}
 235              	.LCFI12:
 236              		.cfi_restore 14
 237              		.cfi_restore 4
 238              		.cfi_def_cfa_offset 0
 239              	.LBB11:
 240              	.LBB10:
  55:D:/fchai/work/i-cube/I-CUBE-HUAWEI/Middlewares/Third_Party/Huawei/iot_link/oc/oc_mqtt/oc_mqtt_al\oc_mqtt_at.c ****     ///< PLEASE USE THE AT PIPE TO OUTPUT THE INFORMATION
 241              		.loc 1 55 5 view .LVU36
 242 0036 FFF7FEBF 		b	fflush
 243              	.LVL16:
 244              	.L17:
 245 003a 00BF     		.align	2
 246              	.L16:
 247 003c 00000000 		.word	.LANCHOR1
 248 0040 00000000 		.word	.LC2
 249 0044 00000000 		.word	_impure_ptr
 250              	.LBE10:
 251              	.LBE11:
 252              		.cfi_endproc
 253              	.LFE3:
 255              		.section	.rodata.app_msg_deal.str1.4,"aMS",%progbits,1
 256              		.align	2
 257              	.LC3:
 258 0000 5B25735D 		.ascii	"[%s][%u][%s] qos:%d dup:%d topiclen:%d msglen:%d\012"
 258      5B25755D 
 258      5B25735D 
 258      20716F73 
 258      3A256420 
 259 0031 0D0D0A00 		.ascii	"\015\015\012\000"
 260              		.section	.text.app_msg_deal,"ax",%progbits
 261              		.align	1
 262              		.p2align 2,,3
 263              		.syntax unified
 264              		.thumb
 265              		.thumb_func
 266              		.fpu fpv4-sp-d16
 268              	app_msg_deal:
 269              	.LVL17:
 270              	.LFB5:
  74:D:/fchai/work/i-cube/I-CUBE-HUAWEI/Middlewares/Third_Party/Huawei/iot_link/oc/oc_mqtt/oc_mqtt_al\oc_mqtt_at.c **** 
  75:D:/fchai/work/i-cube/I-CUBE-HUAWEI/Middlewares/Third_Party/Huawei/iot_link/oc/oc_mqtt/oc_mqtt_al\oc_mqtt_at.c **** 
  76:D:/fchai/work/i-cube/I-CUBE-HUAWEI/Middlewares/Third_Party/Huawei/iot_link/oc/oc_mqtt/oc_mqtt_al\oc_mqtt_at.c **** 
  77:D:/fchai/work/i-cube/I-CUBE-HUAWEI/Middlewares/Third_Party/Huawei/iot_link/oc/oc_mqtt/oc_mqtt_al\oc_mqtt_at.c **** //use this function to push all the message to the buffer
  78:D:/fchai/work/i-cube/I-CUBE-HUAWEI/Middlewares/Third_Party/Huawei/iot_link/oc/oc_mqtt/oc_mqtt_al\oc_mqtt_at.c **** static int app_msg_deal(void *arg,mqtt_al_msgrcv_t *msg)
  79:D:/fchai/work/i-cube/I-CUBE-HUAWEI/Middlewares/Third_Party/Huawei/iot_link/oc/oc_mqtt/oc_mqtt_al\oc_mqtt_at.c **** {
 271              		.loc 1 79 1 is_stmt 1 view -0
 272              		.cfi_startproc
 273              		@ args = 0, pretend = 0, frame = 0
 274              		@ frame_needed = 0, uses_anonymous_args = 0
  80:D:/fchai/work/i-cube/I-CUBE-HUAWEI/Middlewares/Third_Party/Huawei/iot_link/oc/oc_mqtt/oc_mqtt_al\oc_mqtt_at.c ****     int ret = -1;
 275              		.loc 1 80 5 view .LVU38
  81:D:/fchai/work/i-cube/I-CUBE-HUAWEI/Middlewares/Third_Party/Huawei/iot_link/oc/oc_mqtt/oc_mqtt_al\oc_mqtt_at.c **** 
  82:D:/fchai/work/i-cube/I-CUBE-HUAWEI/Middlewares/Third_Party/Huawei/iot_link/oc/oc_mqtt/oc_mqtt_al\oc_mqtt_at.c ****     LINK_LOG_DEBUG("qos:%d dup:%d topiclen:%d msglen:%d\n\r",(int)msg->qos,msg->dup,\
 276              		.loc 1 82 5 view .LVU39
 277              		.loc 1 82 5 view .LVU40
  79:D:/fchai/work/i-cube/I-CUBE-HUAWEI/Middlewares/Third_Party/Huawei/iot_link/oc/oc_mqtt/oc_mqtt_al\oc_mqtt_at.c ****     int ret = -1;
ARM GAS  T:\msys\tmp\ccIDyVks.s 			page 8


 278              		.loc 1 79 1 is_stmt 0 view .LVU41
 279 0000 30B5     		push	{r4, r5, lr}
 280              	.LCFI13:
 281              		.cfi_def_cfa_offset 12
 282              		.cfi_offset 4, -12
 283              		.cfi_offset 5, -8
 284              		.cfi_offset 14, -4
 285 0002 85B0     		sub	sp, sp, #20
 286              	.LCFI14:
 287              		.cfi_def_cfa_offset 32
  79:D:/fchai/work/i-cube/I-CUBE-HUAWEI/Middlewares/Third_Party/Huawei/iot_link/oc/oc_mqtt/oc_mqtt_al\oc_mqtt_at.c ****     int ret = -1;
 288              		.loc 1 79 1 view .LVU42
 289 0004 0C46     		mov	r4, r1
 290              		.loc 1 82 5 view .LVU43
 291 0006 FFF7FEFF 		bl	link_log_level_get
 292              	.LVL18:
 293              		.loc 1 82 5 view .LVU44
 294 000a 0128     		cmp	r0, #1
 295 000c 10D9     		bls	.L25
 296              	.L19:
 297              		.loc 1 82 5 is_stmt 1 discriminator 3 view .LVU45
 298              		.loc 1 82 5 discriminator 3 view .LVU46
 299              		.loc 1 82 5 discriminator 3 view .LVU47
  83:D:/fchai/work/i-cube/I-CUBE-HUAWEI/Middlewares/Third_Party/Huawei/iot_link/oc/oc_mqtt/oc_mqtt_al\oc_mqtt_at.c ****                     msg->topic.len,msg->msg.len);
  84:D:/fchai/work/i-cube/I-CUBE-HUAWEI/Middlewares/Third_Party/Huawei/iot_link/oc/oc_mqtt/oc_mqtt_al\oc_mqtt_at.c ****     if((NULL != msg->topic.data) && (msg->topic.len > 0))
 300              		.loc 1 84 5 discriminator 3 view .LVU48
 301              		.loc 1 84 27 is_stmt 0 discriminator 3 view .LVU49
 302 000e 2068     		ldr	r0, [r4]
 303              		.loc 1 84 7 discriminator 3 view .LVU50
 304 0010 10B1     		cbz	r0, .L20
 305              		.loc 1 84 48 discriminator 1 view .LVU51
 306 0012 6168     		ldr	r1, [r4, #4]
 307              		.loc 1 84 34 discriminator 1 view .LVU52
 308 0014 0029     		cmp	r1, #0
 309 0016 03DC     		bgt	.L26
 310              	.L20:
  85:D:/fchai/work/i-cube/I-CUBE-HUAWEI/Middlewares/Third_Party/Huawei/iot_link/oc/oc_mqtt/oc_mqtt_al\oc_mqtt_at.c ****     {
  86:D:/fchai/work/i-cube/I-CUBE-HUAWEI/Middlewares/Third_Party/Huawei/iot_link/oc/oc_mqtt/oc_mqtt_al\oc_mqtt_at.c ****         hwoc_mqtt_recvpub(msg->topic.data,msg->topic.len,(uint8_t *)msg->msg.data,msg->msg.len);
  87:D:/fchai/work/i-cube/I-CUBE-HUAWEI/Middlewares/Third_Party/Huawei/iot_link/oc/oc_mqtt/oc_mqtt_al\oc_mqtt_at.c ****     }
  88:D:/fchai/work/i-cube/I-CUBE-HUAWEI/Middlewares/Third_Party/Huawei/iot_link/oc/oc_mqtt/oc_mqtt_al\oc_mqtt_at.c **** 
  89:D:/fchai/work/i-cube/I-CUBE-HUAWEI/Middlewares/Third_Party/Huawei/iot_link/oc/oc_mqtt/oc_mqtt_al\oc_mqtt_at.c ****     return ret;
 311              		.loc 1 89 5 is_stmt 1 view .LVU53
  90:D:/fchai/work/i-cube/I-CUBE-HUAWEI/Middlewares/Third_Party/Huawei/iot_link/oc/oc_mqtt/oc_mqtt_al\oc_mqtt_at.c **** }
 312              		.loc 1 90 1 is_stmt 0 view .LVU54
 313 0018 4FF0FF30 		mov	r0, #-1
 314 001c 05B0     		add	sp, sp, #20
 315              	.LCFI15:
 316              		.cfi_remember_state
 317              		.cfi_def_cfa_offset 12
 318              		@ sp needed
 319 001e 30BD     		pop	{r4, r5, pc}
 320              	.LVL19:
 321              	.L26:
 322              	.LCFI16:
 323              		.cfi_restore_state
  86:D:/fchai/work/i-cube/I-CUBE-HUAWEI/Middlewares/Third_Party/Huawei/iot_link/oc/oc_mqtt/oc_mqtt_al\oc_mqtt_at.c ****     }
 324              		.loc 1 86 9 is_stmt 1 view .LVU55
ARM GAS  T:\msys\tmp\ccIDyVks.s 			page 9


 325 0020 D4E90223 		ldrd	r2, r3, [r4, #8]
 326 0024 FFF7FEFF 		bl	hwoc_mqtt_recvpub
 327              	.LVL20:
  89:D:/fchai/work/i-cube/I-CUBE-HUAWEI/Middlewares/Third_Party/Huawei/iot_link/oc/oc_mqtt/oc_mqtt_al\oc_mqtt_at.c **** }
 328              		.loc 1 89 5 view .LVU56
 329              		.loc 1 90 1 is_stmt 0 view .LVU57
 330 0028 4FF0FF30 		mov	r0, #-1
 331 002c 05B0     		add	sp, sp, #20
 332              	.LCFI17:
 333              		.cfi_remember_state
 334              		.cfi_def_cfa_offset 12
 335              		@ sp needed
 336 002e 30BD     		pop	{r4, r5, pc}
 337              	.LVL21:
 338              	.L25:
 339              	.LCFI18:
 340              		.cfi_restore_state
  82:D:/fchai/work/i-cube/I-CUBE-HUAWEI/Middlewares/Third_Party/Huawei/iot_link/oc/oc_mqtt/oc_mqtt_al\oc_mqtt_at.c ****                     msg->topic.len,msg->msg.len);
 341              		.loc 1 82 5 is_stmt 1 discriminator 1 view .LVU58
  82:D:/fchai/work/i-cube/I-CUBE-HUAWEI/Middlewares/Third_Party/Huawei/iot_link/oc/oc_mqtt/oc_mqtt_al\oc_mqtt_at.c ****                     msg->topic.len,msg->msg.len);
 342              		.loc 1 82 5 discriminator 1 view .LVU59
  82:D:/fchai/work/i-cube/I-CUBE-HUAWEI/Middlewares/Third_Party/Huawei/iot_link/oc/oc_mqtt/oc_mqtt_al\oc_mqtt_at.c ****                     msg->topic.len,msg->msg.len);
 343              		.loc 1 82 5 discriminator 1 view .LVU60
 344 0030 0120     		movs	r0, #1
 345 0032 FFF7FEFF 		bl	link_log_level_name
 346              	.LVL22:
 347 0036 0546     		mov	r5, r0
 348 0038 FFF7FEFF 		bl	osal_sys_time
 349              	.LVL23:
 350 003c E168     		ldr	r1, [r4, #12]
 351 003e 6368     		ldr	r3, [r4, #4]
 352 0040 0391     		str	r1, [sp, #12]
 353 0042 6169     		ldr	r1, [r4, #20]
 354 0044 0293     		str	r3, [sp, #8]
 355 0046 237C     		ldrb	r3, [r4, #16]	@ zero_extendqisi2
 356 0048 0093     		str	r3, [sp]
 357 004a 0246     		mov	r2, r0
 358 004c 0191     		str	r1, [sp, #4]
 359 004e 054B     		ldr	r3, .L27
 360 0050 0548     		ldr	r0, .L27+4
 361 0052 2946     		mov	r1, r5
 362 0054 FFF7FEFF 		bl	printf
 363              	.LVL24:
  82:D:/fchai/work/i-cube/I-CUBE-HUAWEI/Middlewares/Third_Party/Huawei/iot_link/oc/oc_mqtt/oc_mqtt_al\oc_mqtt_at.c ****                     msg->topic.len,msg->msg.len);
 364              		.loc 1 82 5 discriminator 1 view .LVU61
 365 0058 044B     		ldr	r3, .L27+8
 366 005a 1B68     		ldr	r3, [r3]
 367 005c 9868     		ldr	r0, [r3, #8]
 368 005e FFF7FEFF 		bl	fflush
 369              	.LVL25:
 370 0062 D4E7     		b	.L19
 371              	.L28:
 372              		.align	2
 373              	.L27:
 374 0064 00000000 		.word	.LANCHOR2
 375 0068 00000000 		.word	.LC3
 376 006c 00000000 		.word	_impure_ptr
ARM GAS  T:\msys\tmp\ccIDyVks.s 			page 10


 377              		.cfi_endproc
 378              	.LFE5:
 380              		.section	.text.hwoc_mqtt_publish,"ax",%progbits
 381              		.align	1
 382              		.p2align 2,,3
 383              		.global	hwoc_mqtt_publish
 384              		.syntax unified
 385              		.thumb
 386              		.thumb_func
 387              		.fpu fpv4-sp-d16
 389              	hwoc_mqtt_publish:
 390              	.LVL26:
 391              	.LFB6:
  91:D:/fchai/work/i-cube/I-CUBE-HUAWEI/Middlewares/Third_Party/Huawei/iot_link/oc/oc_mqtt/oc_mqtt_al\oc_mqtt_at.c **** 
  92:D:/fchai/work/i-cube/I-CUBE-HUAWEI/Middlewares/Third_Party/Huawei/iot_link/oc/oc_mqtt/oc_mqtt_al\oc_mqtt_at.c **** 
  93:D:/fchai/work/i-cube/I-CUBE-HUAWEI/Middlewares/Third_Party/Huawei/iot_link/oc/oc_mqtt/oc_mqtt_al\oc_mqtt_at.c **** ///< when the at pipe want to send some message to the hw,then it call this function,
  94:D:/fchai/work/i-cube/I-CUBE-HUAWEI/Middlewares/Third_Party/Huawei/iot_link/oc/oc_mqtt/oc_mqtt_al\oc_mqtt_at.c **** ///< if the topic is NULL, then it will send to the default topic
  95:D:/fchai/work/i-cube/I-CUBE-HUAWEI/Middlewares/Third_Party/Huawei/iot_link/oc/oc_mqtt/oc_mqtt_al\oc_mqtt_at.c **** ///< ATCOMMAND:    AT+HWOCMQTTPUBLISH=1,"PUBTOPIC",3,001020
  96:D:/fchai/work/i-cube/I-CUBE-HUAWEI/Middlewares/Third_Party/Huawei/iot_link/oc/oc_mqtt/oc_mqtt_al\oc_mqtt_at.c **** ///< ATRESPONSE:   +PUBLISH OK when success
  97:D:/fchai/work/i-cube/I-CUBE-HUAWEI/Middlewares/Third_Party/Huawei/iot_link/oc/oc_mqtt/oc_mqtt_al\oc_mqtt_at.c **** //<                +PUBLISH ERR:code
  98:D:/fchai/work/i-cube/I-CUBE-HUAWEI/Middlewares/Third_Party/Huawei/iot_link/oc/oc_mqtt/oc_mqtt_al\oc_mqtt_at.c **** ///<               code:reference to en_oc_mqtt_err_code_t defines
  99:D:/fchai/work/i-cube/I-CUBE-HUAWEI/Middlewares/Third_Party/Huawei/iot_link/oc/oc_mqtt/oc_mqtt_al\oc_mqtt_at.c **** int hwoc_mqtt_publish(int qos,char *topic,uint8_t *payload,int len)
 100:D:/fchai/work/i-cube/I-CUBE-HUAWEI/Middlewares/Third_Party/Huawei/iot_link/oc/oc_mqtt/oc_mqtt_al\oc_mqtt_at.c **** {
 392              		.loc 1 100 1 view -0
 393              		.cfi_startproc
 394              		@ args = 0, pretend = 0, frame = 16
 395              		@ frame_needed = 0, uses_anonymous_args = 0
 101:D:/fchai/work/i-cube/I-CUBE-HUAWEI/Middlewares/Third_Party/Huawei/iot_link/oc/oc_mqtt/oc_mqtt_al\oc_mqtt_at.c ****     (void)link_main(NULL);
 396              		.loc 1 101 5 view .LVU63
 100:D:/fchai/work/i-cube/I-CUBE-HUAWEI/Middlewares/Third_Party/Huawei/iot_link/oc/oc_mqtt/oc_mqtt_al\oc_mqtt_at.c ****     (void)link_main(NULL);
 397              		.loc 1 100 1 is_stmt 0 view .LVU64
 398 0000 30B5     		push	{r4, r5, lr}
 399              	.LCFI19:
 400              		.cfi_def_cfa_offset 12
 401              		.cfi_offset 4, -12
 402              		.cfi_offset 5, -8
 403              		.cfi_offset 14, -4
 404 0002 85B0     		sub	sp, sp, #20
 405              	.LCFI20:
 406              		.cfi_def_cfa_offset 32
 100:D:/fchai/work/i-cube/I-CUBE-HUAWEI/Middlewares/Third_Party/Huawei/iot_link/oc/oc_mqtt/oc_mqtt_al\oc_mqtt_at.c ****     (void)link_main(NULL);
 407              		.loc 1 100 1 view .LVU65
 408 0004 0C46     		mov	r4, r1
 409 0006 0390     		str	r0, [sp, #12]
 410              		.loc 1 101 11 view .LVU66
 411 0008 0020     		movs	r0, #0
 412              	.LVL27:
 100:D:/fchai/work/i-cube/I-CUBE-HUAWEI/Middlewares/Third_Party/Huawei/iot_link/oc/oc_mqtt/oc_mqtt_al\oc_mqtt_at.c ****     (void)link_main(NULL);
 413              		.loc 1 100 1 view .LVU67
 414 000a 0292     		str	r2, [sp, #8]
 415 000c 0193     		str	r3, [sp, #4]
 416              		.loc 1 101 11 view .LVU68
 417 000e FFF7FEFF 		bl	link_main
 418              	.LVL28:
 102:D:/fchai/work/i-cube/I-CUBE-HUAWEI/Middlewares/Third_Party/Huawei/iot_link/oc/oc_mqtt/oc_mqtt_al\oc_mqtt_at.c ****     return oc_mqtt_publish(topic,payload, len, qos);
 419              		.loc 1 102 5 is_stmt 1 view .LVU69
 420              		.loc 1 102 12 is_stmt 0 view .LVU70
ARM GAS  T:\msys\tmp\ccIDyVks.s 			page 11


 421 0012 DDE90121 		ldrd	r2, r1, [sp, #4]
 422 0016 039B     		ldr	r3, [sp, #12]
 423 0018 2046     		mov	r0, r4
 103:D:/fchai/work/i-cube/I-CUBE-HUAWEI/Middlewares/Third_Party/Huawei/iot_link/oc/oc_mqtt/oc_mqtt_al\oc_mqtt_at.c **** }
 424              		.loc 1 103 1 view .LVU71
 425 001a 05B0     		add	sp, sp, #20
 426              	.LCFI21:
 427              		.cfi_def_cfa_offset 12
 428              		@ sp needed
 429 001c BDE83040 		pop	{r4, r5, lr}
 430              	.LCFI22:
 431              		.cfi_restore 14
 432              		.cfi_restore 5
 433              		.cfi_restore 4
 434              		.cfi_def_cfa_offset 0
 435              	.LVL29:
 102:D:/fchai/work/i-cube/I-CUBE-HUAWEI/Middlewares/Third_Party/Huawei/iot_link/oc/oc_mqtt/oc_mqtt_al\oc_mqtt_at.c ****     return oc_mqtt_publish(topic,payload, len, qos);
 436              		.loc 1 102 12 view .LVU72
 437 0020 FFF7FEBF 		b	oc_mqtt_publish
 438              	.LVL30:
 102:D:/fchai/work/i-cube/I-CUBE-HUAWEI/Middlewares/Third_Party/Huawei/iot_link/oc/oc_mqtt/oc_mqtt_al\oc_mqtt_at.c ****     return oc_mqtt_publish(topic,payload, len, qos);
 439              		.loc 1 102 12 view .LVU73
 440              		.cfi_endproc
 441              	.LFE6:
 443              		.section	.rodata.hwoc_mqtt_connect.str1.4,"aMS",%progbits,1
 444              		.align	2
 445              	.LC4:
 446 0000 38383833 		.ascii	"8883\000"
 446      00
 447 0005 000000   		.align	2
 448              	.LC5:
 449 0008 31383833 		.ascii	"1883\000"
 449      00
 450              		.section	.text.hwoc_mqtt_connect,"ax",%progbits
 451              		.align	1
 452              		.p2align 2,,3
 453              		.global	hwoc_mqtt_connect
 454              		.syntax unified
 455              		.thumb
 456              		.thumb_func
 457              		.fpu fpv4-sp-d16
 459              	hwoc_mqtt_connect:
 460              	.LVL31:
 461              	.LFB7:
 104:D:/fchai/work/i-cube/I-CUBE-HUAWEI/Middlewares/Third_Party/Huawei/iot_link/oc/oc_mqtt/oc_mqtt_al\oc_mqtt_at.c **** 
 105:D:/fchai/work/i-cube/I-CUBE-HUAWEI/Middlewares/Third_Party/Huawei/iot_link/oc/oc_mqtt/oc_mqtt_al\oc_mqtt_at.c **** 
 106:D:/fchai/work/i-cube/I-CUBE-HUAWEI/Middlewares/Third_Party/Huawei/iot_link/oc/oc_mqtt/oc_mqtt_al\oc_mqtt_at.c **** ///< when you want to connect to the hw,then call this function
 107:D:/fchai/work/i-cube/I-CUBE-HUAWEI/Middlewares/Third_Party/Huawei/iot_link/oc/oc_mqtt/oc_mqtt_al\oc_mqtt_at.c **** ///< ATCOMMAND:    AT+HWOCMQTTCONNECT=1,10,"192.168.1.20","8883","DEVICEID","DEVICEPWD"
 108:D:/fchai/work/i-cube/I-CUBE-HUAWEI/Middlewares/Third_Party/Huawei/iot_link/oc/oc_mqtt/oc_mqtt_al\oc_mqtt_at.c **** ///< ATRESPONSE:   +CONNECTED OK when success
 109:D:/fchai/work/i-cube/I-CUBE-HUAWEI/Middlewares/Third_Party/Huawei/iot_link/oc/oc_mqtt/oc_mqtt_al\oc_mqtt_at.c **** ///<               +CONNECTED ERR:code
 110:D:/fchai/work/i-cube/I-CUBE-HUAWEI/Middlewares/Third_Party/Huawei/iot_link/oc/oc_mqtt/oc_mqtt_al\oc_mqtt_at.c **** ///<               code:reference to en_oc_mqtt_err_code_t defines
 111:D:/fchai/work/i-cube/I-CUBE-HUAWEI/Middlewares/Third_Party/Huawei/iot_link/oc/oc_mqtt/oc_mqtt_al\oc_mqtt_at.c **** 
 112:D:/fchai/work/i-cube/I-CUBE-HUAWEI/Middlewares/Third_Party/Huawei/iot_link/oc/oc_mqtt/oc_mqtt_al\oc_mqtt_at.c **** #define CN_CONNECT_TIMESPACE  2000   ///< unit:ms
 113:D:/fchai/work/i-cube/I-CUBE-HUAWEI/Middlewares/Third_Party/Huawei/iot_link/oc/oc_mqtt/oc_mqtt_al\oc_mqtt_at.c **** #define CN_TLS_DEFAULT_PORT   "8883"
 114:D:/fchai/work/i-cube/I-CUBE-HUAWEI/Middlewares/Third_Party/Huawei/iot_link/oc/oc_mqtt/oc_mqtt_al\oc_mqtt_at.c **** #define CN_NOTLS_PORT         "1883"
 115:D:/fchai/work/i-cube/I-CUBE-HUAWEI/Middlewares/Third_Party/Huawei/iot_link/oc/oc_mqtt/oc_mqtt_al\oc_mqtt_at.c **** 
 116:D:/fchai/work/i-cube/I-CUBE-HUAWEI/Middlewares/Third_Party/Huawei/iot_link/oc/oc_mqtt/oc_mqtt_al\oc_mqtt_at.c **** int hwoc_mqtt_connect(int bsmode, unsigned short lifetime, const char *ip, const char *port,
ARM GAS  T:\msys\tmp\ccIDyVks.s 			page 12


 117:D:/fchai/work/i-cube/I-CUBE-HUAWEI/Middlewares/Third_Party/Huawei/iot_link/oc/oc_mqtt/oc_mqtt_al\oc_mqtt_at.c ****                                const char *deviceid, const char *devicepasswd)
 118:D:/fchai/work/i-cube/I-CUBE-HUAWEI/Middlewares/Third_Party/Huawei/iot_link/oc/oc_mqtt/oc_mqtt_al\oc_mqtt_at.c **** {
 462              		.loc 1 118 1 is_stmt 1 view -0
 463              		.cfi_startproc
 464              		@ args = 8, pretend = 0, frame = 80
 465              		@ frame_needed = 0, uses_anonymous_args = 0
 119:D:/fchai/work/i-cube/I-CUBE-HUAWEI/Middlewares/Third_Party/Huawei/iot_link/oc/oc_mqtt/oc_mqtt_al\oc_mqtt_at.c ****     int ret = (int)en_oc_mqtt_err_parafmt;
 466              		.loc 1 119 5 view .LVU75
 120:D:/fchai/work/i-cube/I-CUBE-HUAWEI/Middlewares/Third_Party/Huawei/iot_link/oc/oc_mqtt/oc_mqtt_al\oc_mqtt_at.c ****     static unsigned long long time_last = 0;
 467              		.loc 1 120 5 view .LVU76
 121:D:/fchai/work/i-cube/I-CUBE-HUAWEI/Middlewares/Third_Party/Huawei/iot_link/oc/oc_mqtt/oc_mqtt_al\oc_mqtt_at.c ****     unsigned long long time_now;
 468              		.loc 1 121 5 view .LVU77
 122:D:/fchai/work/i-cube/I-CUBE-HUAWEI/Middlewares/Third_Party/Huawei/iot_link/oc/oc_mqtt/oc_mqtt_al\oc_mqtt_at.c **** 
 123:D:/fchai/work/i-cube/I-CUBE-HUAWEI/Middlewares/Third_Party/Huawei/iot_link/oc/oc_mqtt/oc_mqtt_al\oc_mqtt_at.c ****     oc_mqtt_config_t config;
 469              		.loc 1 123 5 view .LVU78
 124:D:/fchai/work/i-cube/I-CUBE-HUAWEI/Middlewares/Third_Party/Huawei/iot_link/oc/oc_mqtt/oc_mqtt_al\oc_mqtt_at.c ****     (void)link_main(NULL);
 470              		.loc 1 124 5 view .LVU79
 118:D:/fchai/work/i-cube/I-CUBE-HUAWEI/Middlewares/Third_Party/Huawei/iot_link/oc/oc_mqtt/oc_mqtt_al\oc_mqtt_at.c ****     int ret = (int)en_oc_mqtt_err_parafmt;
 471              		.loc 1 118 1 is_stmt 0 view .LVU80
 472 0000 2DE9F043 		push	{r4, r5, r6, r7, r8, r9, lr}
 473              	.LCFI23:
 474              		.cfi_def_cfa_offset 28
 475              		.cfi_offset 4, -28
 476              		.cfi_offset 5, -24
 477              		.cfi_offset 6, -20
 478              		.cfi_offset 7, -16
 479              		.cfi_offset 8, -12
 480              		.cfi_offset 9, -8
 481              		.cfi_offset 14, -4
 482 0004 0546     		mov	r5, r0
 483 0006 95B0     		sub	sp, sp, #84
 484              	.LCFI24:
 485              		.cfi_def_cfa_offset 112
 486              		.loc 1 124 11 view .LVU81
 487 0008 0020     		movs	r0, #0
 488              	.LVL32:
 118:D:/fchai/work/i-cube/I-CUBE-HUAWEI/Middlewares/Third_Party/Huawei/iot_link/oc/oc_mqtt/oc_mqtt_al\oc_mqtt_at.c ****     int ret = (int)en_oc_mqtt_err_parafmt;
 489              		.loc 1 118 1 view .LVU82
 490 000a 1C46     		mov	r4, r3
 491 000c 8846     		mov	r8, r1
 492 000e 9146     		mov	r9, r2
 493              		.loc 1 124 11 view .LVU83
 494 0010 FFF7FEFF 		bl	link_main
 495              	.LVL33:
 125:D:/fchai/work/i-cube/I-CUBE-HUAWEI/Middlewares/Third_Party/Huawei/iot_link/oc/oc_mqtt/oc_mqtt_al\oc_mqtt_at.c ****     (void) memset(&config,0,sizeof(config));
 496              		.loc 1 125 5 is_stmt 1 view .LVU84
 497              		.loc 1 125 12 is_stmt 0 view .LVU85
 498 0014 4C22     		movs	r2, #76
 499 0016 0021     		movs	r1, #0
 500 0018 01A8     		add	r0, sp, #4
 501 001a FFF7FEFF 		bl	memset
 502              	.LVL34:
 126:D:/fchai/work/i-cube/I-CUBE-HUAWEI/Middlewares/Third_Party/Huawei/iot_link/oc/oc_mqtt/oc_mqtt_al\oc_mqtt_at.c **** 
 127:D:/fchai/work/i-cube/I-CUBE-HUAWEI/Middlewares/Third_Party/Huawei/iot_link/oc/oc_mqtt/oc_mqtt_al\oc_mqtt_at.c ****     time_now = osal_sys_time();
 503              		.loc 1 127 5 is_stmt 1 view .LVU86
 504              		.loc 1 127 16 is_stmt 0 view .LVU87
 505 001e FFF7FEFF 		bl	osal_sys_time
ARM GAS  T:\msys\tmp\ccIDyVks.s 			page 13


 506              	.LVL35:
 128:D:/fchai/work/i-cube/I-CUBE-HUAWEI/Middlewares/Third_Party/Huawei/iot_link/oc/oc_mqtt/oc_mqtt_al\oc_mqtt_at.c ****     if((time_now - time_last) < CN_CONNECT_TIMESPACE)
 507              		.loc 1 128 5 is_stmt 1 view .LVU88
 508              		.loc 1 128 18 is_stmt 0 view .LVU89
 509 0022 DFF8E0C0 		ldr	ip, .L51+32
 510 0026 DCF80020 		ldr	r2, [ip]
 511 002a DCF80430 		ldr	r3, [ip, #4]
 512 002e 861A     		subs	r6, r0, r2
 513 0030 61EB0307 		sbc	r7, r1, r3
 514              		.loc 1 128 7 view .LVU90
 515 0034 002F     		cmp	r7, #0
 516 0036 08BF     		it	eq
 517 0038 B6F5FA6F 		cmpeq	r6, #2000
 518 003c 4ED3     		bcc	.L39
 129:D:/fchai/work/i-cube/I-CUBE-HUAWEI/Middlewares/Third_Party/Huawei/iot_link/oc/oc_mqtt/oc_mqtt_al\oc_mqtt_at.c ****     {
 130:D:/fchai/work/i-cube/I-CUBE-HUAWEI/Middlewares/Third_Party/Huawei/iot_link/oc/oc_mqtt/oc_mqtt_al\oc_mqtt_at.c ****         return ret;
 131:D:/fchai/work/i-cube/I-CUBE-HUAWEI/Middlewares/Third_Party/Huawei/iot_link/oc/oc_mqtt/oc_mqtt_al\oc_mqtt_at.c ****     }
 132:D:/fchai/work/i-cube/I-CUBE-HUAWEI/Middlewares/Third_Party/Huawei/iot_link/oc/oc_mqtt/oc_mqtt_al\oc_mqtt_at.c ****     time_last = time_now;
 519              		.loc 1 132 5 is_stmt 1 view .LVU91
 133:D:/fchai/work/i-cube/I-CUBE-HUAWEI/Middlewares/Third_Party/Huawei/iot_link/oc/oc_mqtt/oc_mqtt_al\oc_mqtt_at.c **** 
 134:D:/fchai/work/i-cube/I-CUBE-HUAWEI/Middlewares/Third_Party/Huawei/iot_link/oc/oc_mqtt/oc_mqtt_al\oc_mqtt_at.c ****     if(bsmode)
 135:D:/fchai/work/i-cube/I-CUBE-HUAWEI/Middlewares/Third_Party/Huawei/iot_link/oc/oc_mqtt/oc_mqtt_al\oc_mqtt_at.c ****     {
 136:D:/fchai/work/i-cube/I-CUBE-HUAWEI/Middlewares/Third_Party/Huawei/iot_link/oc/oc_mqtt/oc_mqtt_al\oc_mqtt_at.c ****         config.boot_mode = en_oc_mqtt_mode_bs_static_nodeid_hmacsha256_notimecheck_json;
 137:D:/fchai/work/i-cube/I-CUBE-HUAWEI/Middlewares/Third_Party/Huawei/iot_link/oc/oc_mqtt/oc_mqtt_al\oc_mqtt_at.c ****     }
 138:D:/fchai/work/i-cube/I-CUBE-HUAWEI/Middlewares/Third_Party/Huawei/iot_link/oc/oc_mqtt/oc_mqtt_al\oc_mqtt_at.c ****     else
 139:D:/fchai/work/i-cube/I-CUBE-HUAWEI/Middlewares/Third_Party/Huawei/iot_link/oc/oc_mqtt/oc_mqtt_al\oc_mqtt_at.c ****     {
 140:D:/fchai/work/i-cube/I-CUBE-HUAWEI/Middlewares/Third_Party/Huawei/iot_link/oc/oc_mqtt/oc_mqtt_al\oc_mqtt_at.c ****         config.boot_mode = en_oc_mqtt_mode_nobs_static_nodeid_hmacsha256_notimecheck_json;
 141:D:/fchai/work/i-cube/I-CUBE-HUAWEI/Middlewares/Third_Party/Huawei/iot_link/oc/oc_mqtt/oc_mqtt_al\oc_mqtt_at.c ****     }
 142:D:/fchai/work/i-cube/I-CUBE-HUAWEI/Middlewares/Third_Party/Huawei/iot_link/oc/oc_mqtt/oc_mqtt_al\oc_mqtt_at.c ****     config.server_addr = (char *)ip;
 143:D:/fchai/work/i-cube/I-CUBE-HUAWEI/Middlewares/Third_Party/Huawei/iot_link/oc/oc_mqtt/oc_mqtt_al\oc_mqtt_at.c ****     if(NULL == port)
 144:D:/fchai/work/i-cube/I-CUBE-HUAWEI/Middlewares/Third_Party/Huawei/iot_link/oc/oc_mqtt/oc_mqtt_al\oc_mqtt_at.c ****     {
 145:D:/fchai/work/i-cube/I-CUBE-HUAWEI/Middlewares/Third_Party/Huawei/iot_link/oc/oc_mqtt/oc_mqtt_al\oc_mqtt_at.c ****         port = CN_TLS_DEFAULT_PORT;
 520              		.loc 1 145 14 is_stmt 0 view .LVU92
 521 003e 294E     		ldr	r6, .L51
 146:D:/fchai/work/i-cube/I-CUBE-HUAWEI/Middlewares/Third_Party/Huawei/iot_link/oc/oc_mqtt/oc_mqtt_al\oc_mqtt_at.c ****     }
 147:D:/fchai/work/i-cube/I-CUBE-HUAWEI/Middlewares/Third_Party/Huawei/iot_link/oc/oc_mqtt/oc_mqtt_al\oc_mqtt_at.c ****     config.server_port =(char *) port;
 148:D:/fchai/work/i-cube/I-CUBE-HUAWEI/Middlewares/Third_Party/Huawei/iot_link/oc/oc_mqtt/oc_mqtt_al\oc_mqtt_at.c ****     config.lifetime = lifetime;
 149:D:/fchai/work/i-cube/I-CUBE-HUAWEI/Middlewares/Third_Party/Huawei/iot_link/oc/oc_mqtt/oc_mqtt_al\oc_mqtt_at.c ****     config.msg_deal = app_msg_deal;
 150:D:/fchai/work/i-cube/I-CUBE-HUAWEI/Middlewares/Third_Party/Huawei/iot_link/oc/oc_mqtt/oc_mqtt_al\oc_mqtt_at.c ****     config.msg_deal_arg = NULL;
 151:D:/fchai/work/i-cube/I-CUBE-HUAWEI/Middlewares/Third_Party/Huawei/iot_link/oc/oc_mqtt/oc_mqtt_al\oc_mqtt_at.c ****     config.id = (char *)deviceid;
 152:D:/fchai/work/i-cube/I-CUBE-HUAWEI/Middlewares/Third_Party/Huawei/iot_link/oc/oc_mqtt/oc_mqtt_al\oc_mqtt_at.c ****     config.pwd = (char *)devicepasswd;
 153:D:/fchai/work/i-cube/I-CUBE-HUAWEI/Middlewares/Third_Party/Huawei/iot_link/oc/oc_mqtt/oc_mqtt_al\oc_mqtt_at.c ****     config.log_dealer = hwoc_mqtt_log;
 154:D:/fchai/work/i-cube/I-CUBE-HUAWEI/Middlewares/Third_Party/Huawei/iot_link/oc/oc_mqtt/oc_mqtt_al\oc_mqtt_at.c ****     config.security.type = EN_DTLS_AL_SECURITY_TYPE_CERT;
 155:D:/fchai/work/i-cube/I-CUBE-HUAWEI/Middlewares/Third_Party/Huawei/iot_link/oc/oc_mqtt/oc_mqtt_al\oc_mqtt_at.c ****     if( NULL != s_server_ca)
 522              		.loc 1 155 14 view .LVU93
 523 0040 294A     		ldr	r2, .L51+4
 132:D:/fchai/work/i-cube/I-CUBE-HUAWEI/Middlewares/Third_Party/Huawei/iot_link/oc/oc_mqtt/oc_mqtt_al\oc_mqtt_at.c **** 
 524              		.loc 1 132 15 view .LVU94
 525 0042 CCF80000 		str	r0, [ip]
 134:D:/fchai/work/i-cube/I-CUBE-HUAWEI/Middlewares/Third_Party/Huawei/iot_link/oc/oc_mqtt/oc_mqtt_al\oc_mqtt_at.c ****     {
 526              		.loc 1 134 7 view .LVU95
 527 0046 B5FA85F0 		clz	r0, r5
 528              	.LVL36:
 134:D:/fchai/work/i-cube/I-CUBE-HUAWEI/Middlewares/Third_Party/Huawei/iot_link/oc/oc_mqtt/oc_mqtt_al\oc_mqtt_at.c ****     {
 529              		.loc 1 134 7 view .LVU96
 530 004a 4009     		lsrs	r0, r0, #5
 145:D:/fchai/work/i-cube/I-CUBE-HUAWEI/Middlewares/Third_Party/Huawei/iot_link/oc/oc_mqtt/oc_mqtt_al\oc_mqtt_at.c ****     }
ARM GAS  T:\msys\tmp\ccIDyVks.s 			page 14


 531              		.loc 1 145 14 view .LVU97
 532 004c 002C     		cmp	r4, #0
 533 004e 08BF     		it	eq
 534 0050 3446     		moveq	r4, r6
 535              	.LVL37:
 149:D:/fchai/work/i-cube/I-CUBE-HUAWEI/Middlewares/Third_Party/Huawei/iot_link/oc/oc_mqtt/oc_mqtt_al\oc_mqtt_at.c ****     config.msg_deal_arg = NULL;
 536              		.loc 1 149 21 view .LVU98
 537 0052 264D     		ldr	r5, .L51+8
 538              	.LVL38:
 151:D:/fchai/work/i-cube/I-CUBE-HUAWEI/Middlewares/Third_Party/Huawei/iot_link/oc/oc_mqtt/oc_mqtt_al\oc_mqtt_at.c ****     config.pwd = (char *)devicepasswd;
 539              		.loc 1 151 15 view .LVU99
 540 0054 1C9E     		ldr	r6, [sp, #112]
 541              		.loc 1 155 14 view .LVU100
 542 0056 1268     		ldr	r2, [r2]
 134:D:/fchai/work/i-cube/I-CUBE-HUAWEI/Middlewares/Third_Party/Huawei/iot_link/oc/oc_mqtt/oc_mqtt_al\oc_mqtt_at.c ****     {
 543              		.loc 1 134 7 view .LVU101
 544 0058 8DF80400 		strb	r0, [sp, #4]
 132:D:/fchai/work/i-cube/I-CUBE-HUAWEI/Middlewares/Third_Party/Huawei/iot_link/oc/oc_mqtt/oc_mqtt_al\oc_mqtt_at.c **** 
 545              		.loc 1 132 15 view .LVU102
 546 005c CCF80410 		str	r1, [ip, #4]
 134:D:/fchai/work/i-cube/I-CUBE-HUAWEI/Middlewares/Third_Party/Huawei/iot_link/oc/oc_mqtt/oc_mqtt_al\oc_mqtt_at.c ****     {
 547              		.loc 1 134 5 is_stmt 1 view .LVU103
 142:D:/fchai/work/i-cube/I-CUBE-HUAWEI/Middlewares/Third_Party/Huawei/iot_link/oc/oc_mqtt/oc_mqtt_al\oc_mqtt_at.c ****     if(NULL == port)
 548              		.loc 1 142 5 view .LVU104
 150:D:/fchai/work/i-cube/I-CUBE-HUAWEI/Middlewares/Third_Party/Huawei/iot_link/oc/oc_mqtt/oc_mqtt_al\oc_mqtt_at.c ****     config.id = (char *)deviceid;
 549              		.loc 1 150 25 is_stmt 0 view .LVU105
 550 0060 0020     		movs	r0, #0
 153:D:/fchai/work/i-cube/I-CUBE-HUAWEI/Middlewares/Third_Party/Huawei/iot_link/oc/oc_mqtt/oc_mqtt_al\oc_mqtt_at.c ****     config.security.type = EN_DTLS_AL_SECURITY_TYPE_CERT;
 551              		.loc 1 153 23 view .LVU106
 552 0062 2349     		ldr	r1, .L51+12
 553              	.LVL39:
 151:D:/fchai/work/i-cube/I-CUBE-HUAWEI/Middlewares/Third_Party/Huawei/iot_link/oc/oc_mqtt/oc_mqtt_al\oc_mqtt_at.c ****     config.pwd = (char *)devicepasswd;
 554              		.loc 1 151 15 view .LVU107
 555 0064 0E96     		str	r6, [sp, #56]
 154:D:/fchai/work/i-cube/I-CUBE-HUAWEI/Middlewares/Third_Party/Huawei/iot_link/oc/oc_mqtt/oc_mqtt_al\oc_mqtt_at.c ****     if( NULL != s_server_ca)
 556              		.loc 1 154 26 view .LVU108
 557 0066 0223     		movs	r3, #2
 152:D:/fchai/work/i-cube/I-CUBE-HUAWEI/Middlewares/Third_Party/Huawei/iot_link/oc/oc_mqtt/oc_mqtt_al\oc_mqtt_at.c ****     config.log_dealer = hwoc_mqtt_log;
 558              		.loc 1 152 16 view .LVU109
 559 0068 1D9E     		ldr	r6, [sp, #116]
 142:D:/fchai/work/i-cube/I-CUBE-HUAWEI/Middlewares/Third_Party/Huawei/iot_link/oc/oc_mqtt/oc_mqtt_al\oc_mqtt_at.c ****     if(NULL == port)
 560              		.loc 1 142 24 view .LVU110
 561 006a CDF80890 		str	r9, [sp, #8]
 143:D:/fchai/work/i-cube/I-CUBE-HUAWEI/Middlewares/Third_Party/Huawei/iot_link/oc/oc_mqtt/oc_mqtt_al\oc_mqtt_at.c ****     {
 562              		.loc 1 143 5 is_stmt 1 view .LVU111
 563              	.LVL40:
 147:D:/fchai/work/i-cube/I-CUBE-HUAWEI/Middlewares/Third_Party/Huawei/iot_link/oc/oc_mqtt/oc_mqtt_al\oc_mqtt_at.c ****     config.lifetime = lifetime;
 564              		.loc 1 147 5 view .LVU112
 150:D:/fchai/work/i-cube/I-CUBE-HUAWEI/Middlewares/Third_Party/Huawei/iot_link/oc/oc_mqtt/oc_mqtt_al\oc_mqtt_at.c ****     config.id = (char *)deviceid;
 565              		.loc 1 150 25 is_stmt 0 view .LVU113
 566 006e CDE91150 		strd	r5, r0, [sp, #68]
 148:D:/fchai/work/i-cube/I-CUBE-HUAWEI/Middlewares/Third_Party/Huawei/iot_link/oc/oc_mqtt/oc_mqtt_al\oc_mqtt_at.c ****     config.msg_deal = app_msg_deal;
 567              		.loc 1 148 21 view .LVU114
 568 0072 ADF80680 		strh	r8, [sp, #6]	@ movhi
 152:D:/fchai/work/i-cube/I-CUBE-HUAWEI/Middlewares/Third_Party/Huawei/iot_link/oc/oc_mqtt/oc_mqtt_al\oc_mqtt_at.c ****     config.log_dealer = hwoc_mqtt_log;
 569              		.loc 1 152 16 view .LVU115
 570 0076 0F96     		str	r6, [sp, #60]
ARM GAS  T:\msys\tmp\ccIDyVks.s 			page 15


 147:D:/fchai/work/i-cube/I-CUBE-HUAWEI/Middlewares/Third_Party/Huawei/iot_link/oc/oc_mqtt/oc_mqtt_al\oc_mqtt_at.c ****     config.lifetime = lifetime;
 571              		.loc 1 147 24 view .LVU116
 572 0078 0394     		str	r4, [sp, #12]
 148:D:/fchai/work/i-cube/I-CUBE-HUAWEI/Middlewares/Third_Party/Huawei/iot_link/oc/oc_mqtt/oc_mqtt_al\oc_mqtt_at.c ****     config.msg_deal = app_msg_deal;
 573              		.loc 1 148 5 is_stmt 1 view .LVU117
 149:D:/fchai/work/i-cube/I-CUBE-HUAWEI/Middlewares/Third_Party/Huawei/iot_link/oc/oc_mqtt/oc_mqtt_al\oc_mqtt_at.c ****     config.msg_deal_arg = NULL;
 574              		.loc 1 149 5 view .LVU118
 151:D:/fchai/work/i-cube/I-CUBE-HUAWEI/Middlewares/Third_Party/Huawei/iot_link/oc/oc_mqtt/oc_mqtt_al\oc_mqtt_at.c ****     config.pwd = (char *)devicepasswd;
 575              		.loc 1 151 5 view .LVU119
 152:D:/fchai/work/i-cube/I-CUBE-HUAWEI/Middlewares/Third_Party/Huawei/iot_link/oc/oc_mqtt/oc_mqtt_al\oc_mqtt_at.c ****     config.log_dealer = hwoc_mqtt_log;
 576              		.loc 1 152 5 view .LVU120
 153:D:/fchai/work/i-cube/I-CUBE-HUAWEI/Middlewares/Third_Party/Huawei/iot_link/oc/oc_mqtt/oc_mqtt_al\oc_mqtt_at.c ****     config.security.type = EN_DTLS_AL_SECURITY_TYPE_CERT;
 577              		.loc 1 153 5 view .LVU121
 153:D:/fchai/work/i-cube/I-CUBE-HUAWEI/Middlewares/Third_Party/Huawei/iot_link/oc/oc_mqtt/oc_mqtt_al\oc_mqtt_at.c ****     config.security.type = EN_DTLS_AL_SECURITY_TYPE_CERT;
 578              		.loc 1 153 23 is_stmt 0 view .LVU122
 579 007a 1391     		str	r1, [sp, #76]
 154:D:/fchai/work/i-cube/I-CUBE-HUAWEI/Middlewares/Third_Party/Huawei/iot_link/oc/oc_mqtt/oc_mqtt_al\oc_mqtt_at.c ****     if( NULL != s_server_ca)
 580              		.loc 1 154 5 is_stmt 1 view .LVU123
 154:D:/fchai/work/i-cube/I-CUBE-HUAWEI/Middlewares/Third_Party/Huawei/iot_link/oc/oc_mqtt/oc_mqtt_al\oc_mqtt_at.c ****     if( NULL != s_server_ca)
 581              		.loc 1 154 26 is_stmt 0 view .LVU124
 582 007c 8DF81030 		strb	r3, [sp, #16]
 583              		.loc 1 155 5 is_stmt 1 view .LVU125
 584              		.loc 1 155 7 is_stmt 0 view .LVU126
 585 0080 2AB1     		cbz	r2, .L34
 156:D:/fchai/work/i-cube/I-CUBE-HUAWEI/Middlewares/Third_Party/Huawei/iot_link/oc/oc_mqtt/oc_mqtt_al\oc_mqtt_at.c ****     {
 157:D:/fchai/work/i-cube/I-CUBE-HUAWEI/Middlewares/Third_Party/Huawei/iot_link/oc/oc_mqtt/oc_mqtt_al\oc_mqtt_at.c ****         config.security.u.cert.server_ca  = (uint8_t *)s_server_ca;
 586              		.loc 1 157 9 is_stmt 1 view .LVU127
 158:D:/fchai/work/i-cube/I-CUBE-HUAWEI/Middlewares/Third_Party/Huawei/iot_link/oc/oc_mqtt/oc_mqtt_al\oc_mqtt_at.c ****         config.security.u.cert.server_ca_len = strlen(s_server_ca) +1;///< must include the '\0'
 587              		.loc 1 158 48 is_stmt 0 view .LVU128
 588 0082 1046     		mov	r0, r2
 157:D:/fchai/work/i-cube/I-CUBE-HUAWEI/Middlewares/Third_Party/Huawei/iot_link/oc/oc_mqtt/oc_mqtt_al\oc_mqtt_at.c ****         config.security.u.cert.server_ca_len = strlen(s_server_ca) +1;///< must include the '\0'
 589              		.loc 1 157 43 view .LVU129
 590 0084 0592     		str	r2, [sp, #20]
 591              		.loc 1 158 9 is_stmt 1 view .LVU130
 592              		.loc 1 158 48 is_stmt 0 view .LVU131
 593 0086 FFF7FEFF 		bl	strlen
 594              	.LVL41:
 595              		.loc 1 158 68 view .LVU132
 596 008a 0130     		adds	r0, r0, #1
 597              		.loc 1 158 46 view .LVU133
 598 008c 0990     		str	r0, [sp, #36]
 599              	.L34:
 159:D:/fchai/work/i-cube/I-CUBE-HUAWEI/Middlewares/Third_Party/Huawei/iot_link/oc/oc_mqtt/oc_mqtt_al\oc_mqtt_at.c ****     }
 160:D:/fchai/work/i-cube/I-CUBE-HUAWEI/Middlewares/Third_Party/Huawei/iot_link/oc/oc_mqtt/oc_mqtt_al\oc_mqtt_at.c **** 
 161:D:/fchai/work/i-cube/I-CUBE-HUAWEI/Middlewares/Third_Party/Huawei/iot_link/oc/oc_mqtt/oc_mqtt_al\oc_mqtt_at.c ****     if(( NULL != s_client_ca ) && ((NULL != s_client_pk)))
 600              		.loc 1 161 5 is_stmt 1 view .LVU134
 601              		.loc 1 161 15 is_stmt 0 view .LVU135
 602 008e 194B     		ldr	r3, .L51+16
 603 0090 1868     		ldr	r0, [r3]
 604              		.loc 1 161 7 view .LVU136
 605 0092 A8B1     		cbz	r0, .L36
 606              		.loc 1 161 42 discriminator 1 view .LVU137
 607 0094 184B     		ldr	r3, .L51+20
 608 0096 1D68     		ldr	r5, [r3]
 609              		.loc 1 161 32 discriminator 1 view .LVU138
 610 0098 95B1     		cbz	r5, .L36
 162:D:/fchai/work/i-cube/I-CUBE-HUAWEI/Middlewares/Third_Party/Huawei/iot_link/oc/oc_mqtt/oc_mqtt_al\oc_mqtt_at.c ****     {
ARM GAS  T:\msys\tmp\ccIDyVks.s 			page 16


 163:D:/fchai/work/i-cube/I-CUBE-HUAWEI/Middlewares/Third_Party/Huawei/iot_link/oc/oc_mqtt/oc_mqtt_al\oc_mqtt_at.c ****         config.security.u.cert.client_ca  = (uint8_t *)s_client_ca;
 611              		.loc 1 163 9 is_stmt 1 view .LVU139
 612              		.loc 1 163 43 is_stmt 0 view .LVU140
 613 009a 0690     		str	r0, [sp, #24]
 164:D:/fchai/work/i-cube/I-CUBE-HUAWEI/Middlewares/Third_Party/Huawei/iot_link/oc/oc_mqtt/oc_mqtt_al\oc_mqtt_at.c ****         config.security.u.cert.client_ca_len = strlen(s_client_ca) +1;///< must include the '\0'
 614              		.loc 1 164 9 is_stmt 1 view .LVU141
 615              		.loc 1 164 48 is_stmt 0 view .LVU142
 616 009c FFF7FEFF 		bl	strlen
 617              	.LVL42:
 618              		.loc 1 164 68 view .LVU143
 619 00a0 431C     		adds	r3, r0, #1
 165:D:/fchai/work/i-cube/I-CUBE-HUAWEI/Middlewares/Third_Party/Huawei/iot_link/oc/oc_mqtt/oc_mqtt_al\oc_mqtt_at.c **** 
 166:D:/fchai/work/i-cube/I-CUBE-HUAWEI/Middlewares/Third_Party/Huawei/iot_link/oc/oc_mqtt/oc_mqtt_al\oc_mqtt_at.c ****         config.security.u.cert.client_pk = (uint8_t *)s_client_pk;
 167:D:/fchai/work/i-cube/I-CUBE-HUAWEI/Middlewares/Third_Party/Huawei/iot_link/oc/oc_mqtt/oc_mqtt_al\oc_mqtt_at.c ****         config.security.u.cert.client_pk_len = strlen(s_client_pk) +1;
 620              		.loc 1 167 48 view .LVU144
 621 00a2 2846     		mov	r0, r5
 164:D:/fchai/work/i-cube/I-CUBE-HUAWEI/Middlewares/Third_Party/Huawei/iot_link/oc/oc_mqtt/oc_mqtt_al\oc_mqtt_at.c ****         config.security.u.cert.client_ca_len = strlen(s_client_ca) +1;///< must include the '\0'
 622              		.loc 1 164 46 view .LVU145
 623 00a4 0A93     		str	r3, [sp, #40]
 166:D:/fchai/work/i-cube/I-CUBE-HUAWEI/Middlewares/Third_Party/Huawei/iot_link/oc/oc_mqtt/oc_mqtt_al\oc_mqtt_at.c ****         config.security.u.cert.client_pk_len = strlen(s_client_pk) +1;
 624              		.loc 1 166 9 is_stmt 1 view .LVU146
 166:D:/fchai/work/i-cube/I-CUBE-HUAWEI/Middlewares/Third_Party/Huawei/iot_link/oc/oc_mqtt/oc_mqtt_al\oc_mqtt_at.c ****         config.security.u.cert.client_pk_len = strlen(s_client_pk) +1;
 625              		.loc 1 166 42 is_stmt 0 view .LVU147
 626 00a6 0795     		str	r5, [sp, #28]
 627              		.loc 1 167 9 is_stmt 1 view .LVU148
 628              		.loc 1 167 48 is_stmt 0 view .LVU149
 629 00a8 FFF7FEFF 		bl	strlen
 630              	.LVL43:
 168:D:/fchai/work/i-cube/I-CUBE-HUAWEI/Middlewares/Third_Party/Huawei/iot_link/oc/oc_mqtt/oc_mqtt_al\oc_mqtt_at.c **** 
 169:D:/fchai/work/i-cube/I-CUBE-HUAWEI/Middlewares/Third_Party/Huawei/iot_link/oc/oc_mqtt/oc_mqtt_al\oc_mqtt_at.c ****         config.security.u.cert.client_pk_pwd = (uint8_t *)s_client_pk_pwd;
 631              		.loc 1 169 46 view .LVU150
 632 00ac 134B     		ldr	r3, .L51+24
 633 00ae 1A68     		ldr	r2, [r3]
 634 00b0 0892     		str	r2, [sp, #32]
 167:D:/fchai/work/i-cube/I-CUBE-HUAWEI/Middlewares/Third_Party/Huawei/iot_link/oc/oc_mqtt/oc_mqtt_al\oc_mqtt_at.c **** 
 635              		.loc 1 167 68 view .LVU151
 636 00b2 0130     		adds	r0, r0, #1
 167:D:/fchai/work/i-cube/I-CUBE-HUAWEI/Middlewares/Third_Party/Huawei/iot_link/oc/oc_mqtt/oc_mqtt_al\oc_mqtt_at.c **** 
 637              		.loc 1 167 46 view .LVU152
 638 00b4 0B90     		str	r0, [sp, #44]
 639              		.loc 1 169 9 is_stmt 1 view .LVU153
 170:D:/fchai/work/i-cube/I-CUBE-HUAWEI/Middlewares/Third_Party/Huawei/iot_link/oc/oc_mqtt/oc_mqtt_al\oc_mqtt_at.c ****         if(NULL != s_client_pk_pwd)
 640              		.loc 1 170 9 view .LVU154
 641              		.loc 1 170 11 is_stmt 0 view .LVU155
 642 00b6 1AB1     		cbz	r2, .L36
 171:D:/fchai/work/i-cube/I-CUBE-HUAWEI/Middlewares/Third_Party/Huawei/iot_link/oc/oc_mqtt/oc_mqtt_al\oc_mqtt_at.c ****         {
 172:D:/fchai/work/i-cube/I-CUBE-HUAWEI/Middlewares/Third_Party/Huawei/iot_link/oc/oc_mqtt/oc_mqtt_al\oc_mqtt_at.c ****             config.security.u.cert.client_pk_pwd_len = strlen(s_client_pk_pwd);
 643              		.loc 1 172 13 is_stmt 1 view .LVU156
 644              		.loc 1 172 56 is_stmt 0 view .LVU157
 645 00b8 1046     		mov	r0, r2
 646 00ba FFF7FEFF 		bl	strlen
 647              	.LVL44:
 648              		.loc 1 172 54 view .LVU158
 649 00be 0C90     		str	r0, [sp, #48]
 650              	.L36:
 173:D:/fchai/work/i-cube/I-CUBE-HUAWEI/Middlewares/Third_Party/Huawei/iot_link/oc/oc_mqtt/oc_mqtt_al\oc_mqtt_at.c ****         }
 174:D:/fchai/work/i-cube/I-CUBE-HUAWEI/Middlewares/Third_Party/Huawei/iot_link/oc/oc_mqtt/oc_mqtt_al\oc_mqtt_at.c ****     }
ARM GAS  T:\msys\tmp\ccIDyVks.s 			page 17


 175:D:/fchai/work/i-cube/I-CUBE-HUAWEI/Middlewares/Third_Party/Huawei/iot_link/oc/oc_mqtt/oc_mqtt_al\oc_mqtt_at.c **** 
 176:D:/fchai/work/i-cube/I-CUBE-HUAWEI/Middlewares/Third_Party/Huawei/iot_link/oc/oc_mqtt/oc_mqtt_al\oc_mqtt_at.c ****     if(0 == strcmp(port,CN_NOTLS_PORT))
 651              		.loc 1 176 5 is_stmt 1 view .LVU159
 652              		.loc 1 176 13 is_stmt 0 view .LVU160
 653 00c0 0F49     		ldr	r1, .L51+28
 654 00c2 2046     		mov	r0, r4
 655 00c4 FFF7FEFF 		bl	strcmp
 656              	.LVL45:
 657              		.loc 1 176 7 view .LVU161
 658 00c8 28B1     		cbz	r0, .L50
 659              	.L38:
 177:D:/fchai/work/i-cube/I-CUBE-HUAWEI/Middlewares/Third_Party/Huawei/iot_link/oc/oc_mqtt/oc_mqtt_al\oc_mqtt_at.c ****     {
 178:D:/fchai/work/i-cube/I-CUBE-HUAWEI/Middlewares/Third_Party/Huawei/iot_link/oc/oc_mqtt/oc_mqtt_al\oc_mqtt_at.c ****         config.security.type = EN_DTLS_AL_SECURITY_TYPE_NONE;
 179:D:/fchai/work/i-cube/I-CUBE-HUAWEI/Middlewares/Third_Party/Huawei/iot_link/oc/oc_mqtt/oc_mqtt_al\oc_mqtt_at.c ****     }
 180:D:/fchai/work/i-cube/I-CUBE-HUAWEI/Middlewares/Third_Party/Huawei/iot_link/oc/oc_mqtt/oc_mqtt_al\oc_mqtt_at.c **** 
 181:D:/fchai/work/i-cube/I-CUBE-HUAWEI/Middlewares/Third_Party/Huawei/iot_link/oc/oc_mqtt/oc_mqtt_al\oc_mqtt_at.c ****     ret = oc_mqtt_config(&config);
 660              		.loc 1 181 5 is_stmt 1 view .LVU162
 661              		.loc 1 181 11 is_stmt 0 view .LVU163
 662 00ca 01A8     		add	r0, sp, #4
 663 00cc FFF7FEFF 		bl	oc_mqtt_config
 664              	.LVL46:
 182:D:/fchai/work/i-cube/I-CUBE-HUAWEI/Middlewares/Third_Party/Huawei/iot_link/oc/oc_mqtt/oc_mqtt_al\oc_mqtt_at.c **** 
 183:D:/fchai/work/i-cube/I-CUBE-HUAWEI/Middlewares/Third_Party/Huawei/iot_link/oc/oc_mqtt/oc_mqtt_al\oc_mqtt_at.c ****     return ret;
 665              		.loc 1 183 5 is_stmt 1 view .LVU164
 184:D:/fchai/work/i-cube/I-CUBE-HUAWEI/Middlewares/Third_Party/Huawei/iot_link/oc/oc_mqtt/oc_mqtt_al\oc_mqtt_at.c **** }
 666              		.loc 1 184 1 is_stmt 0 view .LVU165
 667 00d0 15B0     		add	sp, sp, #84
 668              	.LCFI25:
 669              		.cfi_remember_state
 670              		.cfi_def_cfa_offset 28
 671              		@ sp needed
 672 00d2 BDE8F083 		pop	{r4, r5, r6, r7, r8, r9, pc}
 673              	.LVL47:
 674              	.L50:
 675              	.LCFI26:
 676              		.cfi_restore_state
 178:D:/fchai/work/i-cube/I-CUBE-HUAWEI/Middlewares/Third_Party/Huawei/iot_link/oc/oc_mqtt/oc_mqtt_al\oc_mqtt_at.c ****     }
 677              		.loc 1 178 9 is_stmt 1 view .LVU166
 178:D:/fchai/work/i-cube/I-CUBE-HUAWEI/Middlewares/Third_Party/Huawei/iot_link/oc/oc_mqtt/oc_mqtt_al\oc_mqtt_at.c ****     }
 678              		.loc 1 178 30 is_stmt 0 view .LVU167
 679 00d6 8DF81000 		strb	r0, [sp, #16]
 680 00da F6E7     		b	.L38
 681              	.LVL48:
 682              	.L39:
 130:D:/fchai/work/i-cube/I-CUBE-HUAWEI/Middlewares/Third_Party/Huawei/iot_link/oc/oc_mqtt/oc_mqtt_al\oc_mqtt_at.c ****     }
 683              		.loc 1 130 16 view .LVU168
 684 00dc 0120     		movs	r0, #1
 685              	.LVL49:
 686              		.loc 1 184 1 view .LVU169
 687 00de 15B0     		add	sp, sp, #84
 688              	.LCFI27:
 689              		.cfi_def_cfa_offset 28
 690              		@ sp needed
 691 00e0 BDE8F083 		pop	{r4, r5, r6, r7, r8, r9, pc}
 692              	.LVL50:
 693              	.L52:
 694              		.loc 1 184 1 view .LVU170
ARM GAS  T:\msys\tmp\ccIDyVks.s 			page 18


 695              		.align	2
 696              	.L51:
 697 00e4 00000000 		.word	.LC4
 698 00e8 00000000 		.word	.LANCHOR4
 699 00ec 00000000 		.word	app_msg_deal
 700 00f0 00000000 		.word	hwoc_mqtt_log
 701 00f4 00000000 		.word	.LANCHOR5
 702 00f8 00000000 		.word	.LANCHOR6
 703 00fc 00000000 		.word	.LANCHOR7
 704 0100 08000000 		.word	.LC5
 705 0104 00000000 		.word	.LANCHOR3
 706              		.cfi_endproc
 707              	.LFE7:
 709              		.section	.text.hwoc_mqtt_disconnect,"ax",%progbits
 710              		.align	1
 711              		.p2align 2,,3
 712              		.global	hwoc_mqtt_disconnect
 713              		.syntax unified
 714              		.thumb
 715              		.thumb_func
 716              		.fpu fpv4-sp-d16
 718              	hwoc_mqtt_disconnect:
 719              	.LFB8:
 185:D:/fchai/work/i-cube/I-CUBE-HUAWEI/Middlewares/Third_Party/Huawei/iot_link/oc/oc_mqtt/oc_mqtt_al\oc_mqtt_at.c **** 
 186:D:/fchai/work/i-cube/I-CUBE-HUAWEI/Middlewares/Third_Party/Huawei/iot_link/oc/oc_mqtt/oc_mqtt_al\oc_mqtt_at.c **** ///< WHEN YOU WANT TO DISCONNECT FROM THE HW,THEN YOU CALL THIS FUNCTION
 187:D:/fchai/work/i-cube/I-CUBE-HUAWEI/Middlewares/Third_Party/Huawei/iot_link/oc/oc_mqtt/oc_mqtt_al\oc_mqtt_at.c **** ///< ATCOMMAND:    AT+HWOCMQTTDISCONNECT
 188:D:/fchai/work/i-cube/I-CUBE-HUAWEI/Middlewares/Third_Party/Huawei/iot_link/oc/oc_mqtt/oc_mqtt_al\oc_mqtt_at.c **** ///< ATRESPONSE:   +DISCONNECT OK  when succes
 189:D:/fchai/work/i-cube/I-CUBE-HUAWEI/Middlewares/Third_Party/Huawei/iot_link/oc/oc_mqtt/oc_mqtt_al\oc_mqtt_at.c **** ///                +DISCONNECT ERR:code  when succes
 190:D:/fchai/work/i-cube/I-CUBE-HUAWEI/Middlewares/Third_Party/Huawei/iot_link/oc/oc_mqtt/oc_mqtt_al\oc_mqtt_at.c **** ///<               code:reference to en_oc_mqtt_err_code_t defines
 191:D:/fchai/work/i-cube/I-CUBE-HUAWEI/Middlewares/Third_Party/Huawei/iot_link/oc/oc_mqtt/oc_mqtt_al\oc_mqtt_at.c **** 
 192:D:/fchai/work/i-cube/I-CUBE-HUAWEI/Middlewares/Third_Party/Huawei/iot_link/oc/oc_mqtt/oc_mqtt_al\oc_mqtt_at.c **** int hwoc_mqtt_disconnect()
 193:D:/fchai/work/i-cube/I-CUBE-HUAWEI/Middlewares/Third_Party/Huawei/iot_link/oc/oc_mqtt/oc_mqtt_al\oc_mqtt_at.c **** {
 720              		.loc 1 193 1 is_stmt 1 view -0
 721              		.cfi_startproc
 722              		@ args = 0, pretend = 0, frame = 0
 723              		@ frame_needed = 0, uses_anonymous_args = 0
 194:D:/fchai/work/i-cube/I-CUBE-HUAWEI/Middlewares/Third_Party/Huawei/iot_link/oc/oc_mqtt/oc_mqtt_al\oc_mqtt_at.c ****     int ret = -1;
 724              		.loc 1 194 5 view .LVU172
 725              	.LVL51:
 195:D:/fchai/work/i-cube/I-CUBE-HUAWEI/Middlewares/Third_Party/Huawei/iot_link/oc/oc_mqtt/oc_mqtt_al\oc_mqtt_at.c **** 
 196:D:/fchai/work/i-cube/I-CUBE-HUAWEI/Middlewares/Third_Party/Huawei/iot_link/oc/oc_mqtt/oc_mqtt_al\oc_mqtt_at.c ****     (void)link_main(NULL);
 726              		.loc 1 196 5 view .LVU173
 193:D:/fchai/work/i-cube/I-CUBE-HUAWEI/Middlewares/Third_Party/Huawei/iot_link/oc/oc_mqtt/oc_mqtt_al\oc_mqtt_at.c ****     int ret = -1;
 727              		.loc 1 193 1 is_stmt 0 view .LVU174
 728 0000 08B5     		push	{r3, lr}
 729              	.LCFI28:
 730              		.cfi_def_cfa_offset 8
 731              		.cfi_offset 3, -8
 732              		.cfi_offset 14, -4
 733              		.loc 1 196 11 view .LVU175
 734 0002 0020     		movs	r0, #0
 735 0004 FFF7FEFF 		bl	link_main
 736              	.LVL52:
 197:D:/fchai/work/i-cube/I-CUBE-HUAWEI/Middlewares/Third_Party/Huawei/iot_link/oc/oc_mqtt/oc_mqtt_al\oc_mqtt_at.c ****     ret = oc_mqtt_deconfig();
 737              		.loc 1 197 5 is_stmt 1 view .LVU176
 198:D:/fchai/work/i-cube/I-CUBE-HUAWEI/Middlewares/Third_Party/Huawei/iot_link/oc/oc_mqtt/oc_mqtt_al\oc_mqtt_at.c **** 
 199:D:/fchai/work/i-cube/I-CUBE-HUAWEI/Middlewares/Third_Party/Huawei/iot_link/oc/oc_mqtt/oc_mqtt_al\oc_mqtt_at.c ****     return ret;
ARM GAS  T:\msys\tmp\ccIDyVks.s 			page 19


 200:D:/fchai/work/i-cube/I-CUBE-HUAWEI/Middlewares/Third_Party/Huawei/iot_link/oc/oc_mqtt/oc_mqtt_al\oc_mqtt_at.c **** }
 738              		.loc 1 200 1 is_stmt 0 view .LVU177
 739 0008 BDE80840 		pop	{r3, lr}
 740              	.LCFI29:
 741              		.cfi_restore 14
 742              		.cfi_restore 3
 743              		.cfi_def_cfa_offset 0
 197:D:/fchai/work/i-cube/I-CUBE-HUAWEI/Middlewares/Third_Party/Huawei/iot_link/oc/oc_mqtt/oc_mqtt_al\oc_mqtt_at.c ****     ret = oc_mqtt_deconfig();
 744              		.loc 1 197 11 view .LVU178
 745 000c FFF7FEBF 		b	oc_mqtt_deconfig
 746              	.LVL53:
 747              		.cfi_endproc
 748              	.LFE8:
 750              		.section	.text.hwoc_mqtt_subscribe,"ax",%progbits
 751              		.align	1
 752              		.p2align 2,,3
 753              		.global	hwoc_mqtt_subscribe
 754              		.syntax unified
 755              		.thumb
 756              		.thumb_func
 757              		.fpu fpv4-sp-d16
 759              	hwoc_mqtt_subscribe:
 760              	.LVL54:
 761              	.LFB9:
 201:D:/fchai/work/i-cube/I-CUBE-HUAWEI/Middlewares/Third_Party/Huawei/iot_link/oc/oc_mqtt/oc_mqtt_al\oc_mqtt_at.c **** 
 202:D:/fchai/work/i-cube/I-CUBE-HUAWEI/Middlewares/Third_Party/Huawei/iot_link/oc/oc_mqtt/oc_mqtt_al\oc_mqtt_at.c **** 
 203:D:/fchai/work/i-cube/I-CUBE-HUAWEI/Middlewares/Third_Party/Huawei/iot_link/oc/oc_mqtt/oc_mqtt_al\oc_mqtt_at.c **** 
 204:D:/fchai/work/i-cube/I-CUBE-HUAWEI/Middlewares/Third_Party/Huawei/iot_link/oc/oc_mqtt/oc_mqtt_al\oc_mqtt_at.c **** ///< WHEN YOU WANT TO SUBSCRIBE A SELFTOPIC
 205:D:/fchai/work/i-cube/I-CUBE-HUAWEI/Middlewares/Third_Party/Huawei/iot_link/oc/oc_mqtt/oc_mqtt_al\oc_mqtt_at.c **** ///< ATCOMMAND:    AT+HWOCMQTTSUBSCRIBE=qos,topic
 206:D:/fchai/work/i-cube/I-CUBE-HUAWEI/Middlewares/Third_Party/Huawei/iot_link/oc/oc_mqtt/oc_mqtt_al\oc_mqtt_at.c **** ///<               AT+HWOCMQTTSUBSCRIBE=0,"$oc/devices/54f107da-f251-436c-af4c-624f33b7d7b6/user/de
 207:D:/fchai/work/i-cube/I-CUBE-HUAWEI/Middlewares/Third_Party/Huawei/iot_link/oc/oc_mqtt/oc_mqtt_al\oc_mqtt_at.c **** ///< ATRESPONSE:   +SUBSCRIBE OK  when succes
 208:D:/fchai/work/i-cube/I-CUBE-HUAWEI/Middlewares/Third_Party/Huawei/iot_link/oc/oc_mqtt/oc_mqtt_al\oc_mqtt_at.c **** ///                +SUBSCRIBE ERR:code  when failed
 209:D:/fchai/work/i-cube/I-CUBE-HUAWEI/Middlewares/Third_Party/Huawei/iot_link/oc/oc_mqtt/oc_mqtt_al\oc_mqtt_at.c **** ///<               code:reference to en_oc_mqtt_err_code_t defines
 210:D:/fchai/work/i-cube/I-CUBE-HUAWEI/Middlewares/Third_Party/Huawei/iot_link/oc/oc_mqtt/oc_mqtt_al\oc_mqtt_at.c **** int hwoc_mqtt_subscribe(int qos,char *topic)
 211:D:/fchai/work/i-cube/I-CUBE-HUAWEI/Middlewares/Third_Party/Huawei/iot_link/oc/oc_mqtt/oc_mqtt_al\oc_mqtt_at.c **** {
 762              		.loc 1 211 1 is_stmt 1 view -0
 763              		.cfi_startproc
 764              		@ args = 0, pretend = 0, frame = 8
 765              		@ frame_needed = 0, uses_anonymous_args = 0
 212:D:/fchai/work/i-cube/I-CUBE-HUAWEI/Middlewares/Third_Party/Huawei/iot_link/oc/oc_mqtt/oc_mqtt_al\oc_mqtt_at.c ****     int ret = -1;
 766              		.loc 1 212 5 view .LVU180
 213:D:/fchai/work/i-cube/I-CUBE-HUAWEI/Middlewares/Third_Party/Huawei/iot_link/oc/oc_mqtt/oc_mqtt_al\oc_mqtt_at.c **** 
 214:D:/fchai/work/i-cube/I-CUBE-HUAWEI/Middlewares/Third_Party/Huawei/iot_link/oc/oc_mqtt/oc_mqtt_al\oc_mqtt_at.c ****     (void)link_main(NULL);
 767              		.loc 1 214 5 view .LVU181
 211:D:/fchai/work/i-cube/I-CUBE-HUAWEI/Middlewares/Third_Party/Huawei/iot_link/oc/oc_mqtt/oc_mqtt_al\oc_mqtt_at.c ****     int ret = -1;
 768              		.loc 1 211 1 is_stmt 0 view .LVU182
 769 0000 10B5     		push	{r4, lr}
 770              	.LCFI30:
 771              		.cfi_def_cfa_offset 8
 772              		.cfi_offset 4, -8
 773              		.cfi_offset 14, -4
 774 0002 82B0     		sub	sp, sp, #8
 775              	.LCFI31:
 776              		.cfi_def_cfa_offset 16
 211:D:/fchai/work/i-cube/I-CUBE-HUAWEI/Middlewares/Third_Party/Huawei/iot_link/oc/oc_mqtt/oc_mqtt_al\oc_mqtt_at.c ****     int ret = -1;
 777              		.loc 1 211 1 view .LVU183
 778 0004 0C46     		mov	r4, r1
ARM GAS  T:\msys\tmp\ccIDyVks.s 			page 20


 779 0006 0190     		str	r0, [sp, #4]
 780              		.loc 1 214 11 view .LVU184
 781 0008 0020     		movs	r0, #0
 782              	.LVL55:
 783              		.loc 1 214 11 view .LVU185
 784 000a FFF7FEFF 		bl	link_main
 785              	.LVL56:
 215:D:/fchai/work/i-cube/I-CUBE-HUAWEI/Middlewares/Third_Party/Huawei/iot_link/oc/oc_mqtt/oc_mqtt_al\oc_mqtt_at.c ****     ret = oc_mqtt_subscribe(topic, qos);
 786              		.loc 1 215 5 is_stmt 1 view .LVU186
 787              		.loc 1 215 11 is_stmt 0 view .LVU187
 788 000e 0199     		ldr	r1, [sp, #4]
 789 0010 2046     		mov	r0, r4
 216:D:/fchai/work/i-cube/I-CUBE-HUAWEI/Middlewares/Third_Party/Huawei/iot_link/oc/oc_mqtt/oc_mqtt_al\oc_mqtt_at.c **** 
 217:D:/fchai/work/i-cube/I-CUBE-HUAWEI/Middlewares/Third_Party/Huawei/iot_link/oc/oc_mqtt/oc_mqtt_al\oc_mqtt_at.c ****     return ret;
 218:D:/fchai/work/i-cube/I-CUBE-HUAWEI/Middlewares/Third_Party/Huawei/iot_link/oc/oc_mqtt/oc_mqtt_al\oc_mqtt_at.c **** }
 790              		.loc 1 218 1 view .LVU188
 791 0012 02B0     		add	sp, sp, #8
 792              	.LCFI32:
 793              		.cfi_def_cfa_offset 8
 794              		@ sp needed
 795 0014 BDE81040 		pop	{r4, lr}
 796              	.LCFI33:
 797              		.cfi_restore 14
 798              		.cfi_restore 4
 799              		.cfi_def_cfa_offset 0
 800              	.LVL57:
 215:D:/fchai/work/i-cube/I-CUBE-HUAWEI/Middlewares/Third_Party/Huawei/iot_link/oc/oc_mqtt/oc_mqtt_al\oc_mqtt_at.c ****     ret = oc_mqtt_subscribe(topic, qos);
 801              		.loc 1 215 11 view .LVU189
 802 0018 FFF7FEBF 		b	oc_mqtt_subscribe
 803              	.LVL58:
 215:D:/fchai/work/i-cube/I-CUBE-HUAWEI/Middlewares/Third_Party/Huawei/iot_link/oc/oc_mqtt/oc_mqtt_al\oc_mqtt_at.c ****     ret = oc_mqtt_subscribe(topic, qos);
 804              		.loc 1 215 11 view .LVU190
 805              		.cfi_endproc
 806              	.LFE9:
 808              		.section	.text.hwoc_mqtt_unsubscribe,"ax",%progbits
 809              		.align	1
 810              		.p2align 2,,3
 811              		.global	hwoc_mqtt_unsubscribe
 812              		.syntax unified
 813              		.thumb
 814              		.thumb_func
 815              		.fpu fpv4-sp-d16
 817              	hwoc_mqtt_unsubscribe:
 818              	.LVL59:
 819              	.LFB10:
 219:D:/fchai/work/i-cube/I-CUBE-HUAWEI/Middlewares/Third_Party/Huawei/iot_link/oc/oc_mqtt/oc_mqtt_al\oc_mqtt_at.c **** 
 220:D:/fchai/work/i-cube/I-CUBE-HUAWEI/Middlewares/Third_Party/Huawei/iot_link/oc/oc_mqtt/oc_mqtt_al\oc_mqtt_at.c **** 
 221:D:/fchai/work/i-cube/I-CUBE-HUAWEI/Middlewares/Third_Party/Huawei/iot_link/oc/oc_mqtt/oc_mqtt_al\oc_mqtt_at.c **** ///< WHEN YOU WANT TO UNSUBSCRIBE A SELFTOPIC
 222:D:/fchai/work/i-cube/I-CUBE-HUAWEI/Middlewares/Third_Party/Huawei/iot_link/oc/oc_mqtt/oc_mqtt_al\oc_mqtt_at.c **** ///< ATCOMMAND:    AT+HWOCMQTTUNSUBSCRIBE=topic
 223:D:/fchai/work/i-cube/I-CUBE-HUAWEI/Middlewares/Third_Party/Huawei/iot_link/oc/oc_mqtt/oc_mqtt_al\oc_mqtt_at.c **** ///<               AT+HWOCMQTTUNSUBSCRIBE="$oc/devices/54f107da-f251-436c-af4c-624f33b7d7b6/user/de
 224:D:/fchai/work/i-cube/I-CUBE-HUAWEI/Middlewares/Third_Party/Huawei/iot_link/oc/oc_mqtt/oc_mqtt_al\oc_mqtt_at.c **** ///< ATRESPONSE:   +UNSUBSCRIBE OK  when succes
 225:D:/fchai/work/i-cube/I-CUBE-HUAWEI/Middlewares/Third_Party/Huawei/iot_link/oc/oc_mqtt/oc_mqtt_al\oc_mqtt_at.c **** ///                +UNSUBSCRIBE ERR:code  when failed
 226:D:/fchai/work/i-cube/I-CUBE-HUAWEI/Middlewares/Third_Party/Huawei/iot_link/oc/oc_mqtt/oc_mqtt_al\oc_mqtt_at.c **** ///<               code:reference to en_oc_mqtt_err_code_t defines
 227:D:/fchai/work/i-cube/I-CUBE-HUAWEI/Middlewares/Third_Party/Huawei/iot_link/oc/oc_mqtt/oc_mqtt_al\oc_mqtt_at.c **** int hwoc_mqtt_unsubscribe(char *topic)
 228:D:/fchai/work/i-cube/I-CUBE-HUAWEI/Middlewares/Third_Party/Huawei/iot_link/oc/oc_mqtt/oc_mqtt_al\oc_mqtt_at.c **** {
 820              		.loc 1 228 1 is_stmt 1 view -0
 821              		.cfi_startproc
ARM GAS  T:\msys\tmp\ccIDyVks.s 			page 21


 822              		@ args = 0, pretend = 0, frame = 0
 823              		@ frame_needed = 0, uses_anonymous_args = 0
 229:D:/fchai/work/i-cube/I-CUBE-HUAWEI/Middlewares/Third_Party/Huawei/iot_link/oc/oc_mqtt/oc_mqtt_al\oc_mqtt_at.c ****     int ret = -1;
 824              		.loc 1 229 5 view .LVU192
 230:D:/fchai/work/i-cube/I-CUBE-HUAWEI/Middlewares/Third_Party/Huawei/iot_link/oc/oc_mqtt/oc_mqtt_al\oc_mqtt_at.c **** 
 231:D:/fchai/work/i-cube/I-CUBE-HUAWEI/Middlewares/Third_Party/Huawei/iot_link/oc/oc_mqtt/oc_mqtt_al\oc_mqtt_at.c ****     (void)link_main(NULL);
 825              		.loc 1 231 5 view .LVU193
 228:D:/fchai/work/i-cube/I-CUBE-HUAWEI/Middlewares/Third_Party/Huawei/iot_link/oc/oc_mqtt/oc_mqtt_al\oc_mqtt_at.c ****     int ret = -1;
 826              		.loc 1 228 1 is_stmt 0 view .LVU194
 827 0000 10B5     		push	{r4, lr}
 828              	.LCFI34:
 829              		.cfi_def_cfa_offset 8
 830              		.cfi_offset 4, -8
 831              		.cfi_offset 14, -4
 228:D:/fchai/work/i-cube/I-CUBE-HUAWEI/Middlewares/Third_Party/Huawei/iot_link/oc/oc_mqtt/oc_mqtt_al\oc_mqtt_at.c ****     int ret = -1;
 832              		.loc 1 228 1 view .LVU195
 833 0002 0446     		mov	r4, r0
 834              		.loc 1 231 11 view .LVU196
 835 0004 0020     		movs	r0, #0
 836              	.LVL60:
 837              		.loc 1 231 11 view .LVU197
 838 0006 FFF7FEFF 		bl	link_main
 839              	.LVL61:
 232:D:/fchai/work/i-cube/I-CUBE-HUAWEI/Middlewares/Third_Party/Huawei/iot_link/oc/oc_mqtt/oc_mqtt_al\oc_mqtt_at.c ****     ret = oc_mqtt_unsubscribe(topic);
 840              		.loc 1 232 5 is_stmt 1 view .LVU198
 841              		.loc 1 232 11 is_stmt 0 view .LVU199
 842 000a 2046     		mov	r0, r4
 233:D:/fchai/work/i-cube/I-CUBE-HUAWEI/Middlewares/Third_Party/Huawei/iot_link/oc/oc_mqtt/oc_mqtt_al\oc_mqtt_at.c **** 
 234:D:/fchai/work/i-cube/I-CUBE-HUAWEI/Middlewares/Third_Party/Huawei/iot_link/oc/oc_mqtt/oc_mqtt_al\oc_mqtt_at.c ****     return ret;
 235:D:/fchai/work/i-cube/I-CUBE-HUAWEI/Middlewares/Third_Party/Huawei/iot_link/oc/oc_mqtt/oc_mqtt_al\oc_mqtt_at.c **** }
 843              		.loc 1 235 1 view .LVU200
 844 000c BDE81040 		pop	{r4, lr}
 845              	.LCFI35:
 846              		.cfi_restore 14
 847              		.cfi_restore 4
 848              		.cfi_def_cfa_offset 0
 849              	.LVL62:
 232:D:/fchai/work/i-cube/I-CUBE-HUAWEI/Middlewares/Third_Party/Huawei/iot_link/oc/oc_mqtt/oc_mqtt_al\oc_mqtt_at.c ****     ret = oc_mqtt_unsubscribe(topic);
 850              		.loc 1 232 11 view .LVU201
 851 0010 FFF7FEBF 		b	oc_mqtt_unsubscribe
 852              	.LVL63:
 232:D:/fchai/work/i-cube/I-CUBE-HUAWEI/Middlewares/Third_Party/Huawei/iot_link/oc/oc_mqtt/oc_mqtt_al\oc_mqtt_at.c ****     ret = oc_mqtt_unsubscribe(topic);
 853              		.loc 1 232 11 view .LVU202
 854              		.cfi_endproc
 855              	.LFE10:
 857              		.section	.text.hwoc_mqtt_version,"ax",%progbits
 858              		.align	1
 859              		.p2align 2,,3
 860              		.global	hwoc_mqtt_version
 861              		.syntax unified
 862              		.thumb
 863              		.thumb_func
 864              		.fpu fpv4-sp-d16
 866              	hwoc_mqtt_version:
 867              	.LFB11:
 236:D:/fchai/work/i-cube/I-CUBE-HUAWEI/Middlewares/Third_Party/Huawei/iot_link/oc/oc_mqtt/oc_mqtt_al\oc_mqtt_at.c **** 
 237:D:/fchai/work/i-cube/I-CUBE-HUAWEI/Middlewares/Third_Party/Huawei/iot_link/oc/oc_mqtt/oc_mqtt_al\oc_mqtt_at.c **** ///< WHEN YOU WANT TO KNOW WHICH VERSION YOU USE
ARM GAS  T:\msys\tmp\ccIDyVks.s 			page 22


 238:D:/fchai/work/i-cube/I-CUBE-HUAWEI/Middlewares/Third_Party/Huawei/iot_link/oc/oc_mqtt/oc_mqtt_al\oc_mqtt_at.c **** ///< ATCOMMAND: AT+HWOCMQTTVERSION
 239:D:/fchai/work/i-cube/I-CUBE-HUAWEI/Middlewares/Third_Party/Huawei/iot_link/oc/oc_mqtt/oc_mqtt_al\oc_mqtt_at.c **** ///< ATRESPONSE: +HWOCMQTTVERSION:vx.x.x AT XXXXXX ON XXXXX
 240:D:/fchai/work/i-cube/I-CUBE-HUAWEI/Middlewares/Third_Party/Huawei/iot_link/oc/oc_mqtt/oc_mqtt_al\oc_mqtt_at.c **** char *hwoc_mqtt_version()
 241:D:/fchai/work/i-cube/I-CUBE-HUAWEI/Middlewares/Third_Party/Huawei/iot_link/oc/oc_mqtt/oc_mqtt_al\oc_mqtt_at.c **** {
 868              		.loc 1 241 1 is_stmt 1 view -0
 869              		.cfi_startproc
 870              		@ args = 0, pretend = 0, frame = 0
 871              		@ frame_needed = 0, uses_anonymous_args = 0
 872              		@ link register save eliminated.
 242:D:/fchai/work/i-cube/I-CUBE-HUAWEI/Middlewares/Third_Party/Huawei/iot_link/oc/oc_mqtt/oc_mqtt_al\oc_mqtt_at.c ****     extern char *linkmain_version();
 873              		.loc 1 242 5 view .LVU204
 243:D:/fchai/work/i-cube/I-CUBE-HUAWEI/Middlewares/Third_Party/Huawei/iot_link/oc/oc_mqtt/oc_mqtt_al\oc_mqtt_at.c **** 
 244:D:/fchai/work/i-cube/I-CUBE-HUAWEI/Middlewares/Third_Party/Huawei/iot_link/oc/oc_mqtt/oc_mqtt_al\oc_mqtt_at.c ****     return linkmain_version();
 874              		.loc 1 244 5 view .LVU205
 875              		.loc 1 244 12 is_stmt 0 view .LVU206
 876 0000 FFF7FEBF 		b	linkmain_version
 877              	.LVL64:
 878              		.cfi_endproc
 879              	.LFE11:
 881              		.section	.text.hwoc_mqtt_serverca,"ax",%progbits
 882              		.align	1
 883              		.p2align 2,,3
 884              		.global	hwoc_mqtt_serverca
 885              		.syntax unified
 886              		.thumb
 887              		.thumb_func
 888              		.fpu fpv4-sp-d16
 890              	hwoc_mqtt_serverca:
 891              	.LVL65:
 892              	.LFB12:
 245:D:/fchai/work/i-cube/I-CUBE-HUAWEI/Middlewares/Third_Party/Huawei/iot_link/oc/oc_mqtt/oc_mqtt_al\oc_mqtt_at.c **** }
 246:D:/fchai/work/i-cube/I-CUBE-HUAWEI/Middlewares/Third_Party/Huawei/iot_link/oc/oc_mqtt/oc_mqtt_al\oc_mqtt_at.c **** 
 247:D:/fchai/work/i-cube/I-CUBE-HUAWEI/Middlewares/Third_Party/Huawei/iot_link/oc/oc_mqtt/oc_mqtt_al\oc_mqtt_at.c **** 
 248:D:/fchai/work/i-cube/I-CUBE-HUAWEI/Middlewares/Third_Party/Huawei/iot_link/oc/oc_mqtt/oc_mqtt_al\oc_mqtt_at.c **** ///< IF YOU WANT TO SET THE SERVER CA
 249:D:/fchai/work/i-cube/I-CUBE-HUAWEI/Middlewares/Third_Party/Huawei/iot_link/oc/oc_mqtt/oc_mqtt_al\oc_mqtt_at.c **** ///< ATCOMMAND: AT+HWOCMQTTSERVERCA = "nnnds=="  and  "" means clear it
 250:D:/fchai/work/i-cube/I-CUBE-HUAWEI/Middlewares/Third_Party/Huawei/iot_link/oc/oc_mqtt/oc_mqtt_al\oc_mqtt_at.c **** ///< ATRESPONSE: +HWOCMQTTSERVERCA OK
 251:D:/fchai/work/i-cube/I-CUBE-HUAWEI/Middlewares/Third_Party/Huawei/iot_link/oc/oc_mqtt/oc_mqtt_al\oc_mqtt_at.c **** ///<             +HWOCMQTTSERVERCA ERR:CODE
 252:D:/fchai/work/i-cube/I-CUBE-HUAWEI/Middlewares/Third_Party/Huawei/iot_link/oc/oc_mqtt/oc_mqtt_al\oc_mqtt_at.c **** int hwoc_mqtt_serverca(const char *server_ca)
 253:D:/fchai/work/i-cube/I-CUBE-HUAWEI/Middlewares/Third_Party/Huawei/iot_link/oc/oc_mqtt/oc_mqtt_al\oc_mqtt_at.c **** {
 893              		.loc 1 253 1 is_stmt 1 view -0
 894              		.cfi_startproc
 895              		@ args = 0, pretend = 0, frame = 0
 896              		@ frame_needed = 0, uses_anonymous_args = 0
 254:D:/fchai/work/i-cube/I-CUBE-HUAWEI/Middlewares/Third_Party/Huawei/iot_link/oc/oc_mqtt/oc_mqtt_al\oc_mqtt_at.c ****     int ret = (int)en_oc_mqtt_err_ok;
 897              		.loc 1 254 5 view .LVU208
 255:D:/fchai/work/i-cube/I-CUBE-HUAWEI/Middlewares/Third_Party/Huawei/iot_link/oc/oc_mqtt/oc_mqtt_al\oc_mqtt_at.c ****     (void)link_main(NULL);
 898              		.loc 1 255 5 view .LVU209
 253:D:/fchai/work/i-cube/I-CUBE-HUAWEI/Middlewares/Third_Party/Huawei/iot_link/oc/oc_mqtt/oc_mqtt_al\oc_mqtt_at.c ****     int ret = (int)en_oc_mqtt_err_ok;
 899              		.loc 1 253 1 is_stmt 0 view .LVU210
 900 0000 38B5     		push	{r3, r4, r5, lr}
 901              	.LCFI36:
 902              		.cfi_def_cfa_offset 16
 903              		.cfi_offset 3, -16
 904              		.cfi_offset 4, -12
 905              		.cfi_offset 5, -8
 906              		.cfi_offset 14, -4
 256:D:/fchai/work/i-cube/I-CUBE-HUAWEI/Middlewares/Third_Party/Huawei/iot_link/oc/oc_mqtt/oc_mqtt_al\oc_mqtt_at.c **** 
ARM GAS  T:\msys\tmp\ccIDyVks.s 			page 23


 257:D:/fchai/work/i-cube/I-CUBE-HUAWEI/Middlewares/Third_Party/Huawei/iot_link/oc/oc_mqtt/oc_mqtt_al\oc_mqtt_at.c ****     if(NULL != s_server_ca)
 907              		.loc 1 257 13 view .LVU211
 908 0002 0A4D     		ldr	r5, .L70
 253:D:/fchai/work/i-cube/I-CUBE-HUAWEI/Middlewares/Third_Party/Huawei/iot_link/oc/oc_mqtt/oc_mqtt_al\oc_mqtt_at.c ****     int ret = (int)en_oc_mqtt_err_ok;
 909              		.loc 1 253 1 view .LVU212
 910 0004 0446     		mov	r4, r0
 255:D:/fchai/work/i-cube/I-CUBE-HUAWEI/Middlewares/Third_Party/Huawei/iot_link/oc/oc_mqtt/oc_mqtt_al\oc_mqtt_at.c **** 
 911              		.loc 1 255 11 view .LVU213
 912 0006 0020     		movs	r0, #0
 913              	.LVL66:
 255:D:/fchai/work/i-cube/I-CUBE-HUAWEI/Middlewares/Third_Party/Huawei/iot_link/oc/oc_mqtt/oc_mqtt_al\oc_mqtt_at.c **** 
 914              		.loc 1 255 11 view .LVU214
 915 0008 FFF7FEFF 		bl	link_main
 916              	.LVL67:
 917              		.loc 1 257 5 is_stmt 1 view .LVU215
 918              		.loc 1 257 13 is_stmt 0 view .LVU216
 919 000c 2868     		ldr	r0, [r5]
 920              		.loc 1 257 7 view .LVU217
 921 000e 18B1     		cbz	r0, .L61
 258:D:/fchai/work/i-cube/I-CUBE-HUAWEI/Middlewares/Third_Party/Huawei/iot_link/oc/oc_mqtt/oc_mqtt_al\oc_mqtt_at.c ****     {
 259:D:/fchai/work/i-cube/I-CUBE-HUAWEI/Middlewares/Third_Party/Huawei/iot_link/oc/oc_mqtt/oc_mqtt_al\oc_mqtt_at.c ****         osal_free(s_server_ca);
 922              		.loc 1 259 9 is_stmt 1 view .LVU218
 923 0010 FFF7FEFF 		bl	osal_free
 924              	.LVL68:
 260:D:/fchai/work/i-cube/I-CUBE-HUAWEI/Middlewares/Third_Party/Huawei/iot_link/oc/oc_mqtt/oc_mqtt_al\oc_mqtt_at.c ****         s_server_ca = NULL;
 925              		.loc 1 260 9 view .LVU219
 926              		.loc 1 260 21 is_stmt 0 view .LVU220
 927 0014 0023     		movs	r3, #0
 928 0016 2B60     		str	r3, [r5]
 929              	.L61:
 261:D:/fchai/work/i-cube/I-CUBE-HUAWEI/Middlewares/Third_Party/Huawei/iot_link/oc/oc_mqtt/oc_mqtt_al\oc_mqtt_at.c ****     }
 262:D:/fchai/work/i-cube/I-CUBE-HUAWEI/Middlewares/Third_Party/Huawei/iot_link/oc/oc_mqtt/oc_mqtt_al\oc_mqtt_at.c **** 
 263:D:/fchai/work/i-cube/I-CUBE-HUAWEI/Middlewares/Third_Party/Huawei/iot_link/oc/oc_mqtt/oc_mqtt_al\oc_mqtt_at.c ****     if(NULL != server_ca)
 930              		.loc 1 263 5 is_stmt 1 view .LVU221
 931              		.loc 1 263 7 is_stmt 0 view .LVU222
 932 0018 24B1     		cbz	r4, .L64
 264:D:/fchai/work/i-cube/I-CUBE-HUAWEI/Middlewares/Third_Party/Huawei/iot_link/oc/oc_mqtt/oc_mqtt_al\oc_mqtt_at.c ****     {
 265:D:/fchai/work/i-cube/I-CUBE-HUAWEI/Middlewares/Third_Party/Huawei/iot_link/oc/oc_mqtt/oc_mqtt_al\oc_mqtt_at.c **** 
 266:D:/fchai/work/i-cube/I-CUBE-HUAWEI/Middlewares/Third_Party/Huawei/iot_link/oc/oc_mqtt/oc_mqtt_al\oc_mqtt_at.c ****         s_server_ca = osal_strdup(server_ca);
 933              		.loc 1 266 9 is_stmt 1 view .LVU223
 934              		.loc 1 266 23 is_stmt 0 view .LVU224
 935 001a 2046     		mov	r0, r4
 936 001c FFF7FEFF 		bl	osal_strdup
 937              	.LVL69:
 938              		.loc 1 266 21 view .LVU225
 939 0020 2860     		str	r0, [r5]
 267:D:/fchai/work/i-cube/I-CUBE-HUAWEI/Middlewares/Third_Party/Huawei/iot_link/oc/oc_mqtt/oc_mqtt_al\oc_mqtt_at.c ****         if( NULL == s_server_ca)
 940              		.loc 1 267 9 is_stmt 1 view .LVU226
 941              		.loc 1 267 11 is_stmt 0 view .LVU227
 942 0022 08B1     		cbz	r0, .L69
 943              	.L64:
 254:D:/fchai/work/i-cube/I-CUBE-HUAWEI/Middlewares/Third_Party/Huawei/iot_link/oc/oc_mqtt/oc_mqtt_al\oc_mqtt_at.c ****     (void)link_main(NULL);
 944              		.loc 1 254 9 view .LVU228
 945 0024 0020     		movs	r0, #0
 268:D:/fchai/work/i-cube/I-CUBE-HUAWEI/Middlewares/Third_Party/Huawei/iot_link/oc/oc_mqtt/oc_mqtt_al\oc_mqtt_at.c ****         {
 269:D:/fchai/work/i-cube/I-CUBE-HUAWEI/Middlewares/Third_Party/Huawei/iot_link/oc/oc_mqtt/oc_mqtt_al\oc_mqtt_at.c ****             ret = (int)en_oc_mqtt_err_sysmem;
 270:D:/fchai/work/i-cube/I-CUBE-HUAWEI/Middlewares/Third_Party/Huawei/iot_link/oc/oc_mqtt/oc_mqtt_al\oc_mqtt_at.c ****         }
ARM GAS  T:\msys\tmp\ccIDyVks.s 			page 24


 271:D:/fchai/work/i-cube/I-CUBE-HUAWEI/Middlewares/Third_Party/Huawei/iot_link/oc/oc_mqtt/oc_mqtt_al\oc_mqtt_at.c ****     }
 272:D:/fchai/work/i-cube/I-CUBE-HUAWEI/Middlewares/Third_Party/Huawei/iot_link/oc/oc_mqtt/oc_mqtt_al\oc_mqtt_at.c ****     return ret;
 273:D:/fchai/work/i-cube/I-CUBE-HUAWEI/Middlewares/Third_Party/Huawei/iot_link/oc/oc_mqtt/oc_mqtt_al\oc_mqtt_at.c **** }
 946              		.loc 1 273 1 view .LVU229
 947 0026 38BD     		pop	{r3, r4, r5, pc}
 948              	.LVL70:
 949              	.L69:
 269:D:/fchai/work/i-cube/I-CUBE-HUAWEI/Middlewares/Third_Party/Huawei/iot_link/oc/oc_mqtt/oc_mqtt_al\oc_mqtt_at.c ****         }
 950              		.loc 1 269 17 view .LVU230
 951 0028 0F20     		movs	r0, #15
 952              	.LVL71:
 272:D:/fchai/work/i-cube/I-CUBE-HUAWEI/Middlewares/Third_Party/Huawei/iot_link/oc/oc_mqtt/oc_mqtt_al\oc_mqtt_at.c **** }
 953              		.loc 1 272 5 is_stmt 1 view .LVU231
 954              		.loc 1 273 1 is_stmt 0 view .LVU232
 955 002a 38BD     		pop	{r3, r4, r5, pc}
 956              	.LVL72:
 957              	.L71:
 958              		.loc 1 273 1 view .LVU233
 959              		.align	2
 960              	.L70:
 961 002c 00000000 		.word	.LANCHOR4
 962              		.cfi_endproc
 963              	.LFE12:
 965              		.section	.text.hwoc_mqtt_clientca,"ax",%progbits
 966              		.align	1
 967              		.p2align 2,,3
 968              		.global	hwoc_mqtt_clientca
 969              		.syntax unified
 970              		.thumb
 971              		.thumb_func
 972              		.fpu fpv4-sp-d16
 974              	hwoc_mqtt_clientca:
 975              	.LVL73:
 976              	.LFB13:
 274:D:/fchai/work/i-cube/I-CUBE-HUAWEI/Middlewares/Third_Party/Huawei/iot_link/oc/oc_mqtt/oc_mqtt_al\oc_mqtt_at.c **** 
 275:D:/fchai/work/i-cube/I-CUBE-HUAWEI/Middlewares/Third_Party/Huawei/iot_link/oc/oc_mqtt/oc_mqtt_al\oc_mqtt_at.c **** ///< IF YOU WANT TO SET THE CLIENT CA
 276:D:/fchai/work/i-cube/I-CUBE-HUAWEI/Middlewares/Third_Party/Huawei/iot_link/oc/oc_mqtt/oc_mqtt_al\oc_mqtt_at.c **** ///< ATCOMMAND: AT+HWOCMQTTCLIENTCA = "nnnds=="  and  "" means clear it
 277:D:/fchai/work/i-cube/I-CUBE-HUAWEI/Middlewares/Third_Party/Huawei/iot_link/oc/oc_mqtt/oc_mqtt_al\oc_mqtt_at.c **** ///< ATRESPONSE:  +HWOCMQTTCLIENTCA OK
 278:D:/fchai/work/i-cube/I-CUBE-HUAWEI/Middlewares/Third_Party/Huawei/iot_link/oc/oc_mqtt/oc_mqtt_al\oc_mqtt_at.c **** ///<              +HWOCMQTTCLIENTCA ERR:CODE
 279:D:/fchai/work/i-cube/I-CUBE-HUAWEI/Middlewares/Third_Party/Huawei/iot_link/oc/oc_mqtt/oc_mqtt_al\oc_mqtt_at.c **** 
 280:D:/fchai/work/i-cube/I-CUBE-HUAWEI/Middlewares/Third_Party/Huawei/iot_link/oc/oc_mqtt/oc_mqtt_al\oc_mqtt_at.c **** int hwoc_mqtt_clientca(const char *client_ca)
 281:D:/fchai/work/i-cube/I-CUBE-HUAWEI/Middlewares/Third_Party/Huawei/iot_link/oc/oc_mqtt/oc_mqtt_al\oc_mqtt_at.c **** {
 977              		.loc 1 281 1 is_stmt 1 view -0
 978              		.cfi_startproc
 979              		@ args = 0, pretend = 0, frame = 0
 980              		@ frame_needed = 0, uses_anonymous_args = 0
 282:D:/fchai/work/i-cube/I-CUBE-HUAWEI/Middlewares/Third_Party/Huawei/iot_link/oc/oc_mqtt/oc_mqtt_al\oc_mqtt_at.c ****     int ret = (int)en_oc_mqtt_err_ok;
 981              		.loc 1 282 5 view .LVU235
 283:D:/fchai/work/i-cube/I-CUBE-HUAWEI/Middlewares/Third_Party/Huawei/iot_link/oc/oc_mqtt/oc_mqtt_al\oc_mqtt_at.c ****     (void)link_main(NULL);
 982              		.loc 1 283 5 view .LVU236
 281:D:/fchai/work/i-cube/I-CUBE-HUAWEI/Middlewares/Third_Party/Huawei/iot_link/oc/oc_mqtt/oc_mqtt_al\oc_mqtt_at.c ****     int ret = (int)en_oc_mqtt_err_ok;
 983              		.loc 1 281 1 is_stmt 0 view .LVU237
 984 0000 38B5     		push	{r3, r4, r5, lr}
 985              	.LCFI37:
 986              		.cfi_def_cfa_offset 16
 987              		.cfi_offset 3, -16
 988              		.cfi_offset 4, -12
ARM GAS  T:\msys\tmp\ccIDyVks.s 			page 25


 989              		.cfi_offset 5, -8
 990              		.cfi_offset 14, -4
 284:D:/fchai/work/i-cube/I-CUBE-HUAWEI/Middlewares/Third_Party/Huawei/iot_link/oc/oc_mqtt/oc_mqtt_al\oc_mqtt_at.c **** 
 285:D:/fchai/work/i-cube/I-CUBE-HUAWEI/Middlewares/Third_Party/Huawei/iot_link/oc/oc_mqtt/oc_mqtt_al\oc_mqtt_at.c ****     if(NULL != s_client_ca)
 991              		.loc 1 285 13 view .LVU238
 992 0002 0A4D     		ldr	r5, .L82
 281:D:/fchai/work/i-cube/I-CUBE-HUAWEI/Middlewares/Third_Party/Huawei/iot_link/oc/oc_mqtt/oc_mqtt_al\oc_mqtt_at.c ****     int ret = (int)en_oc_mqtt_err_ok;
 993              		.loc 1 281 1 view .LVU239
 994 0004 0446     		mov	r4, r0
 283:D:/fchai/work/i-cube/I-CUBE-HUAWEI/Middlewares/Third_Party/Huawei/iot_link/oc/oc_mqtt/oc_mqtt_al\oc_mqtt_at.c **** 
 995              		.loc 1 283 11 view .LVU240
 996 0006 0020     		movs	r0, #0
 997              	.LVL74:
 283:D:/fchai/work/i-cube/I-CUBE-HUAWEI/Middlewares/Third_Party/Huawei/iot_link/oc/oc_mqtt/oc_mqtt_al\oc_mqtt_at.c **** 
 998              		.loc 1 283 11 view .LVU241
 999 0008 FFF7FEFF 		bl	link_main
 1000              	.LVL75:
 1001              		.loc 1 285 5 is_stmt 1 view .LVU242
 1002              		.loc 1 285 13 is_stmt 0 view .LVU243
 1003 000c 2868     		ldr	r0, [r5]
 1004              		.loc 1 285 7 view .LVU244
 1005 000e 18B1     		cbz	r0, .L73
 286:D:/fchai/work/i-cube/I-CUBE-HUAWEI/Middlewares/Third_Party/Huawei/iot_link/oc/oc_mqtt/oc_mqtt_al\oc_mqtt_at.c ****     {
 287:D:/fchai/work/i-cube/I-CUBE-HUAWEI/Middlewares/Third_Party/Huawei/iot_link/oc/oc_mqtt/oc_mqtt_al\oc_mqtt_at.c ****         osal_free(s_client_ca);
 1006              		.loc 1 287 9 is_stmt 1 view .LVU245
 1007 0010 FFF7FEFF 		bl	osal_free
 1008              	.LVL76:
 288:D:/fchai/work/i-cube/I-CUBE-HUAWEI/Middlewares/Third_Party/Huawei/iot_link/oc/oc_mqtt/oc_mqtt_al\oc_mqtt_at.c ****         s_client_ca = NULL;
 1009              		.loc 1 288 9 view .LVU246
 1010              		.loc 1 288 21 is_stmt 0 view .LVU247
 1011 0014 0023     		movs	r3, #0
 1012 0016 2B60     		str	r3, [r5]
 1013              	.L73:
 289:D:/fchai/work/i-cube/I-CUBE-HUAWEI/Middlewares/Third_Party/Huawei/iot_link/oc/oc_mqtt/oc_mqtt_al\oc_mqtt_at.c ****     }
 290:D:/fchai/work/i-cube/I-CUBE-HUAWEI/Middlewares/Third_Party/Huawei/iot_link/oc/oc_mqtt/oc_mqtt_al\oc_mqtt_at.c **** 
 291:D:/fchai/work/i-cube/I-CUBE-HUAWEI/Middlewares/Third_Party/Huawei/iot_link/oc/oc_mqtt/oc_mqtt_al\oc_mqtt_at.c ****     if(NULL != client_ca)
 1014              		.loc 1 291 5 is_stmt 1 view .LVU248
 1015              		.loc 1 291 7 is_stmt 0 view .LVU249
 1016 0018 24B1     		cbz	r4, .L76
 292:D:/fchai/work/i-cube/I-CUBE-HUAWEI/Middlewares/Third_Party/Huawei/iot_link/oc/oc_mqtt/oc_mqtt_al\oc_mqtt_at.c ****     {
 293:D:/fchai/work/i-cube/I-CUBE-HUAWEI/Middlewares/Third_Party/Huawei/iot_link/oc/oc_mqtt/oc_mqtt_al\oc_mqtt_at.c ****         s_client_ca = osal_strdup(client_ca);
 1017              		.loc 1 293 9 is_stmt 1 view .LVU250
 1018              		.loc 1 293 23 is_stmt 0 view .LVU251
 1019 001a 2046     		mov	r0, r4
 1020 001c FFF7FEFF 		bl	osal_strdup
 1021              	.LVL77:
 1022              		.loc 1 293 21 view .LVU252
 1023 0020 2860     		str	r0, [r5]
 294:D:/fchai/work/i-cube/I-CUBE-HUAWEI/Middlewares/Third_Party/Huawei/iot_link/oc/oc_mqtt/oc_mqtt_al\oc_mqtt_at.c ****         if(NULL == s_client_ca)
 1024              		.loc 1 294 9 is_stmt 1 view .LVU253
 1025              		.loc 1 294 11 is_stmt 0 view .LVU254
 1026 0022 08B1     		cbz	r0, .L81
 1027              	.L76:
 282:D:/fchai/work/i-cube/I-CUBE-HUAWEI/Middlewares/Third_Party/Huawei/iot_link/oc/oc_mqtt/oc_mqtt_al\oc_mqtt_at.c ****     (void)link_main(NULL);
 1028              		.loc 1 282 9 view .LVU255
 1029 0024 0020     		movs	r0, #0
 295:D:/fchai/work/i-cube/I-CUBE-HUAWEI/Middlewares/Third_Party/Huawei/iot_link/oc/oc_mqtt/oc_mqtt_al\oc_mqtt_at.c ****         {
ARM GAS  T:\msys\tmp\ccIDyVks.s 			page 26


 296:D:/fchai/work/i-cube/I-CUBE-HUAWEI/Middlewares/Third_Party/Huawei/iot_link/oc/oc_mqtt/oc_mqtt_al\oc_mqtt_at.c ****             ret = (int)en_oc_mqtt_err_sysmem;
 297:D:/fchai/work/i-cube/I-CUBE-HUAWEI/Middlewares/Third_Party/Huawei/iot_link/oc/oc_mqtt/oc_mqtt_al\oc_mqtt_at.c ****         }
 298:D:/fchai/work/i-cube/I-CUBE-HUAWEI/Middlewares/Third_Party/Huawei/iot_link/oc/oc_mqtt/oc_mqtt_al\oc_mqtt_at.c ****     }
 299:D:/fchai/work/i-cube/I-CUBE-HUAWEI/Middlewares/Third_Party/Huawei/iot_link/oc/oc_mqtt/oc_mqtt_al\oc_mqtt_at.c **** 
 300:D:/fchai/work/i-cube/I-CUBE-HUAWEI/Middlewares/Third_Party/Huawei/iot_link/oc/oc_mqtt/oc_mqtt_al\oc_mqtt_at.c ****     return ret;
 301:D:/fchai/work/i-cube/I-CUBE-HUAWEI/Middlewares/Third_Party/Huawei/iot_link/oc/oc_mqtt/oc_mqtt_al\oc_mqtt_at.c **** }
 1030              		.loc 1 301 1 view .LVU256
 1031 0026 38BD     		pop	{r3, r4, r5, pc}
 1032              	.LVL78:
 1033              	.L81:
 296:D:/fchai/work/i-cube/I-CUBE-HUAWEI/Middlewares/Third_Party/Huawei/iot_link/oc/oc_mqtt/oc_mqtt_al\oc_mqtt_at.c ****         }
 1034              		.loc 1 296 17 view .LVU257
 1035 0028 0F20     		movs	r0, #15
 1036              	.LVL79:
 300:D:/fchai/work/i-cube/I-CUBE-HUAWEI/Middlewares/Third_Party/Huawei/iot_link/oc/oc_mqtt/oc_mqtt_al\oc_mqtt_at.c **** }
 1037              		.loc 1 300 5 is_stmt 1 view .LVU258
 1038              		.loc 1 301 1 is_stmt 0 view .LVU259
 1039 002a 38BD     		pop	{r3, r4, r5, pc}
 1040              	.LVL80:
 1041              	.L83:
 1042              		.loc 1 301 1 view .LVU260
 1043              		.align	2
 1044              	.L82:
 1045 002c 00000000 		.word	.LANCHOR5
 1046              		.cfi_endproc
 1047              	.LFE13:
 1049              		.section	.text.hwoc_mqtt_clientpk,"ax",%progbits
 1050              		.align	1
 1051              		.p2align 2,,3
 1052              		.global	hwoc_mqtt_clientpk
 1053              		.syntax unified
 1054              		.thumb
 1055              		.thumb_func
 1056              		.fpu fpv4-sp-d16
 1058              	hwoc_mqtt_clientpk:
 1059              	.LVL81:
 1060              	.LFB14:
 302:D:/fchai/work/i-cube/I-CUBE-HUAWEI/Middlewares/Third_Party/Huawei/iot_link/oc/oc_mqtt/oc_mqtt_al\oc_mqtt_at.c **** 
 303:D:/fchai/work/i-cube/I-CUBE-HUAWEI/Middlewares/Third_Party/Huawei/iot_link/oc/oc_mqtt/oc_mqtt_al\oc_mqtt_at.c **** 
 304:D:/fchai/work/i-cube/I-CUBE-HUAWEI/Middlewares/Third_Party/Huawei/iot_link/oc/oc_mqtt/oc_mqtt_al\oc_mqtt_at.c **** ///< IF YOU WANT TO SET THE CLIENT PK and pwd
 305:D:/fchai/work/i-cube/I-CUBE-HUAWEI/Middlewares/Third_Party/Huawei/iot_link/oc/oc_mqtt/oc_mqtt_al\oc_mqtt_at.c **** ///< ATCOMMAND: AT+HWOCMQTTCLIENTPK = "nnnds==","pwd"  and  "" means clear it
 306:D:/fchai/work/i-cube/I-CUBE-HUAWEI/Middlewares/Third_Party/Huawei/iot_link/oc/oc_mqtt/oc_mqtt_al\oc_mqtt_at.c **** ///< ATRESPONSE:  +HWOCMQTTCLIENTPK OK
 307:D:/fchai/work/i-cube/I-CUBE-HUAWEI/Middlewares/Third_Party/Huawei/iot_link/oc/oc_mqtt/oc_mqtt_al\oc_mqtt_at.c **** ///<              +HWOCMQTTCLIENTPK ERR:CODE
 308:D:/fchai/work/i-cube/I-CUBE-HUAWEI/Middlewares/Third_Party/Huawei/iot_link/oc/oc_mqtt/oc_mqtt_al\oc_mqtt_at.c **** 
 309:D:/fchai/work/i-cube/I-CUBE-HUAWEI/Middlewares/Third_Party/Huawei/iot_link/oc/oc_mqtt/oc_mqtt_al\oc_mqtt_at.c **** int hwoc_mqtt_clientpk(const char *client_pk, const char *client_pk_pwd)
 310:D:/fchai/work/i-cube/I-CUBE-HUAWEI/Middlewares/Third_Party/Huawei/iot_link/oc/oc_mqtt/oc_mqtt_al\oc_mqtt_at.c **** {
 1061              		.loc 1 310 1 is_stmt 1 view -0
 1062              		.cfi_startproc
 1063              		@ args = 0, pretend = 0, frame = 0
 1064              		@ frame_needed = 0, uses_anonymous_args = 0
 311:D:/fchai/work/i-cube/I-CUBE-HUAWEI/Middlewares/Third_Party/Huawei/iot_link/oc/oc_mqtt/oc_mqtt_al\oc_mqtt_at.c ****     int ret = (int)en_oc_mqtt_err_ok;
 1065              		.loc 1 311 5 view .LVU262
 312:D:/fchai/work/i-cube/I-CUBE-HUAWEI/Middlewares/Third_Party/Huawei/iot_link/oc/oc_mqtt/oc_mqtt_al\oc_mqtt_at.c ****     (void)link_main(NULL);
 1066              		.loc 1 312 5 view .LVU263
 310:D:/fchai/work/i-cube/I-CUBE-HUAWEI/Middlewares/Third_Party/Huawei/iot_link/oc/oc_mqtt/oc_mqtt_al\oc_mqtt_at.c ****     int ret = (int)en_oc_mqtt_err_ok;
 1067              		.loc 1 310 1 is_stmt 0 view .LVU264
 1068 0000 F8B5     		push	{r3, r4, r5, r6, r7, lr}
ARM GAS  T:\msys\tmp\ccIDyVks.s 			page 27


 1069              	.LCFI38:
 1070              		.cfi_def_cfa_offset 24
 1071              		.cfi_offset 3, -24
 1072              		.cfi_offset 4, -20
 1073              		.cfi_offset 5, -16
 1074              		.cfi_offset 6, -12
 1075              		.cfi_offset 7, -8
 1076              		.cfi_offset 14, -4
 313:D:/fchai/work/i-cube/I-CUBE-HUAWEI/Middlewares/Third_Party/Huawei/iot_link/oc/oc_mqtt/oc_mqtt_al\oc_mqtt_at.c **** 
 314:D:/fchai/work/i-cube/I-CUBE-HUAWEI/Middlewares/Third_Party/Huawei/iot_link/oc/oc_mqtt/oc_mqtt_al\oc_mqtt_at.c ****     if(NULL != s_client_pk)
 1077              		.loc 1 314 13 view .LVU265
 1078 0002 154E     		ldr	r6, .L102
 310:D:/fchai/work/i-cube/I-CUBE-HUAWEI/Middlewares/Third_Party/Huawei/iot_link/oc/oc_mqtt/oc_mqtt_al\oc_mqtt_at.c ****     int ret = (int)en_oc_mqtt_err_ok;
 1079              		.loc 1 310 1 view .LVU266
 1080 0004 0446     		mov	r4, r0
 312:D:/fchai/work/i-cube/I-CUBE-HUAWEI/Middlewares/Third_Party/Huawei/iot_link/oc/oc_mqtt/oc_mqtt_al\oc_mqtt_at.c **** 
 1081              		.loc 1 312 11 view .LVU267
 1082 0006 0020     		movs	r0, #0
 1083              	.LVL82:
 310:D:/fchai/work/i-cube/I-CUBE-HUAWEI/Middlewares/Third_Party/Huawei/iot_link/oc/oc_mqtt/oc_mqtt_al\oc_mqtt_at.c ****     int ret = (int)en_oc_mqtt_err_ok;
 1084              		.loc 1 310 1 view .LVU268
 1085 0008 0F46     		mov	r7, r1
 312:D:/fchai/work/i-cube/I-CUBE-HUAWEI/Middlewares/Third_Party/Huawei/iot_link/oc/oc_mqtt/oc_mqtt_al\oc_mqtt_at.c **** 
 1086              		.loc 1 312 11 view .LVU269
 1087 000a FFF7FEFF 		bl	link_main
 1088              	.LVL83:
 1089              		.loc 1 314 5 is_stmt 1 view .LVU270
 1090              		.loc 1 314 13 is_stmt 0 view .LVU271
 1091 000e 3068     		ldr	r0, [r6]
 1092              		.loc 1 314 7 view .LVU272
 1093 0010 18B1     		cbz	r0, .L85
 315:D:/fchai/work/i-cube/I-CUBE-HUAWEI/Middlewares/Third_Party/Huawei/iot_link/oc/oc_mqtt/oc_mqtt_al\oc_mqtt_at.c ****     {
 316:D:/fchai/work/i-cube/I-CUBE-HUAWEI/Middlewares/Third_Party/Huawei/iot_link/oc/oc_mqtt/oc_mqtt_al\oc_mqtt_at.c ****         osal_free(s_client_pk);
 1094              		.loc 1 316 9 is_stmt 1 view .LVU273
 1095 0012 FFF7FEFF 		bl	osal_free
 1096              	.LVL84:
 317:D:/fchai/work/i-cube/I-CUBE-HUAWEI/Middlewares/Third_Party/Huawei/iot_link/oc/oc_mqtt/oc_mqtt_al\oc_mqtt_at.c ****         s_client_pk = NULL;
 1097              		.loc 1 317 9 view .LVU274
 1098              		.loc 1 317 21 is_stmt 0 view .LVU275
 1099 0016 0023     		movs	r3, #0
 1100 0018 3360     		str	r3, [r6]
 1101              	.L85:
 318:D:/fchai/work/i-cube/I-CUBE-HUAWEI/Middlewares/Third_Party/Huawei/iot_link/oc/oc_mqtt/oc_mqtt_al\oc_mqtt_at.c ****     }
 319:D:/fchai/work/i-cube/I-CUBE-HUAWEI/Middlewares/Third_Party/Huawei/iot_link/oc/oc_mqtt/oc_mqtt_al\oc_mqtt_at.c **** 
 320:D:/fchai/work/i-cube/I-CUBE-HUAWEI/Middlewares/Third_Party/Huawei/iot_link/oc/oc_mqtt/oc_mqtt_al\oc_mqtt_at.c ****     if(NULL != s_client_pk_pwd)
 1102              		.loc 1 320 5 is_stmt 1 view .LVU276
 1103              		.loc 1 320 13 is_stmt 0 view .LVU277
 1104 001a 104D     		ldr	r5, .L102+4
 1105 001c 2868     		ldr	r0, [r5]
 1106              		.loc 1 320 7 view .LVU278
 1107 001e 18B1     		cbz	r0, .L86
 321:D:/fchai/work/i-cube/I-CUBE-HUAWEI/Middlewares/Third_Party/Huawei/iot_link/oc/oc_mqtt/oc_mqtt_al\oc_mqtt_at.c ****     {
 322:D:/fchai/work/i-cube/I-CUBE-HUAWEI/Middlewares/Third_Party/Huawei/iot_link/oc/oc_mqtt/oc_mqtt_al\oc_mqtt_at.c ****         osal_free(s_client_pk_pwd);
 1108              		.loc 1 322 9 is_stmt 1 view .LVU279
 1109 0020 FFF7FEFF 		bl	osal_free
 1110              	.LVL85:
 323:D:/fchai/work/i-cube/I-CUBE-HUAWEI/Middlewares/Third_Party/Huawei/iot_link/oc/oc_mqtt/oc_mqtt_al\oc_mqtt_at.c ****         s_client_pk_pwd = NULL;
ARM GAS  T:\msys\tmp\ccIDyVks.s 			page 28


 1111              		.loc 1 323 9 view .LVU280
 1112              		.loc 1 323 25 is_stmt 0 view .LVU281
 1113 0024 0023     		movs	r3, #0
 1114 0026 2B60     		str	r3, [r5]
 1115              	.L86:
 324:D:/fchai/work/i-cube/I-CUBE-HUAWEI/Middlewares/Third_Party/Huawei/iot_link/oc/oc_mqtt/oc_mqtt_al\oc_mqtt_at.c ****     }
 325:D:/fchai/work/i-cube/I-CUBE-HUAWEI/Middlewares/Third_Party/Huawei/iot_link/oc/oc_mqtt/oc_mqtt_al\oc_mqtt_at.c **** 
 326:D:/fchai/work/i-cube/I-CUBE-HUAWEI/Middlewares/Third_Party/Huawei/iot_link/oc/oc_mqtt/oc_mqtt_al\oc_mqtt_at.c ****     if( NULL != client_pk)
 1116              		.loc 1 326 5 is_stmt 1 view .LVU282
 1117              		.loc 1 326 7 is_stmt 0 view .LVU283
 1118 0028 5CB1     		cbz	r4, .L89
 327:D:/fchai/work/i-cube/I-CUBE-HUAWEI/Middlewares/Third_Party/Huawei/iot_link/oc/oc_mqtt/oc_mqtt_al\oc_mqtt_at.c ****     {
 328:D:/fchai/work/i-cube/I-CUBE-HUAWEI/Middlewares/Third_Party/Huawei/iot_link/oc/oc_mqtt/oc_mqtt_al\oc_mqtt_at.c ****         s_client_pk = osal_strdup(client_pk);
 1119              		.loc 1 328 9 is_stmt 1 view .LVU284
 1120              		.loc 1 328 23 is_stmt 0 view .LVU285
 1121 002a 2046     		mov	r0, r4
 1122 002c FFF7FEFF 		bl	osal_strdup
 1123              	.LVL86:
 1124              		.loc 1 328 21 view .LVU286
 1125 0030 3060     		str	r0, [r6]
 329:D:/fchai/work/i-cube/I-CUBE-HUAWEI/Middlewares/Third_Party/Huawei/iot_link/oc/oc_mqtt/oc_mqtt_al\oc_mqtt_at.c ****         if(NULL == s_client_pk)
 1126              		.loc 1 329 9 is_stmt 1 view .LVU287
 1127              		.loc 1 329 11 is_stmt 0 view .LVU288
 1128 0032 40B1     		cbz	r0, .L90
 330:D:/fchai/work/i-cube/I-CUBE-HUAWEI/Middlewares/Third_Party/Huawei/iot_link/oc/oc_mqtt/oc_mqtt_al\oc_mqtt_at.c ****         {
 331:D:/fchai/work/i-cube/I-CUBE-HUAWEI/Middlewares/Third_Party/Huawei/iot_link/oc/oc_mqtt/oc_mqtt_al\oc_mqtt_at.c ****             ret = (int)en_oc_mqtt_err_sysmem;
 332:D:/fchai/work/i-cube/I-CUBE-HUAWEI/Middlewares/Third_Party/Huawei/iot_link/oc/oc_mqtt/oc_mqtt_al\oc_mqtt_at.c ****             return ret;
 333:D:/fchai/work/i-cube/I-CUBE-HUAWEI/Middlewares/Third_Party/Huawei/iot_link/oc/oc_mqtt/oc_mqtt_al\oc_mqtt_at.c ****         }
 334:D:/fchai/work/i-cube/I-CUBE-HUAWEI/Middlewares/Third_Party/Huawei/iot_link/oc/oc_mqtt/oc_mqtt_al\oc_mqtt_at.c **** 
 335:D:/fchai/work/i-cube/I-CUBE-HUAWEI/Middlewares/Third_Party/Huawei/iot_link/oc/oc_mqtt/oc_mqtt_al\oc_mqtt_at.c ****         if(NULL != client_pk_pwd)
 1129              		.loc 1 335 9 is_stmt 1 view .LVU289
 1130              		.loc 1 335 11 is_stmt 0 view .LVU290
 1131 0034 2FB1     		cbz	r7, .L89
 336:D:/fchai/work/i-cube/I-CUBE-HUAWEI/Middlewares/Third_Party/Huawei/iot_link/oc/oc_mqtt/oc_mqtt_al\oc_mqtt_at.c ****         {
 337:D:/fchai/work/i-cube/I-CUBE-HUAWEI/Middlewares/Third_Party/Huawei/iot_link/oc/oc_mqtt/oc_mqtt_al\oc_mqtt_at.c ****             s_client_pk_pwd = osal_strdup(client_pk_pwd);
 1132              		.loc 1 337 13 is_stmt 1 view .LVU291
 1133              		.loc 1 337 31 is_stmt 0 view .LVU292
 1134 0036 3846     		mov	r0, r7
 1135 0038 FFF7FEFF 		bl	osal_strdup
 1136              	.LVL87:
 1137 003c 0446     		mov	r4, r0
 1138              	.LVL88:
 1139              		.loc 1 337 29 view .LVU293
 1140 003e 2860     		str	r0, [r5]
 338:D:/fchai/work/i-cube/I-CUBE-HUAWEI/Middlewares/Third_Party/Huawei/iot_link/oc/oc_mqtt/oc_mqtt_al\oc_mqtt_at.c ****             if(NULL == s_client_pk_pwd)
 1141              		.loc 1 338 13 is_stmt 1 view .LVU294
 1142              		.loc 1 338 15 is_stmt 0 view .LVU295
 1143 0040 18B1     		cbz	r0, .L101
 1144              	.L89:
 339:D:/fchai/work/i-cube/I-CUBE-HUAWEI/Middlewares/Third_Party/Huawei/iot_link/oc/oc_mqtt/oc_mqtt_al\oc_mqtt_at.c ****             {
 340:D:/fchai/work/i-cube/I-CUBE-HUAWEI/Middlewares/Third_Party/Huawei/iot_link/oc/oc_mqtt/oc_mqtt_al\oc_mqtt_at.c ****                 osal_free(s_client_pk);
 341:D:/fchai/work/i-cube/I-CUBE-HUAWEI/Middlewares/Third_Party/Huawei/iot_link/oc/oc_mqtt/oc_mqtt_al\oc_mqtt_at.c ****                 s_client_pk = NULL;
 342:D:/fchai/work/i-cube/I-CUBE-HUAWEI/Middlewares/Third_Party/Huawei/iot_link/oc/oc_mqtt/oc_mqtt_al\oc_mqtt_at.c **** 
 343:D:/fchai/work/i-cube/I-CUBE-HUAWEI/Middlewares/Third_Party/Huawei/iot_link/oc/oc_mqtt/oc_mqtt_al\oc_mqtt_at.c ****                 ret = (int)en_oc_mqtt_err_sysmem;
 344:D:/fchai/work/i-cube/I-CUBE-HUAWEI/Middlewares/Third_Party/Huawei/iot_link/oc/oc_mqtt/oc_mqtt_al\oc_mqtt_at.c ****                 return ret;
 345:D:/fchai/work/i-cube/I-CUBE-HUAWEI/Middlewares/Third_Party/Huawei/iot_link/oc/oc_mqtt/oc_mqtt_al\oc_mqtt_at.c ****             }
 346:D:/fchai/work/i-cube/I-CUBE-HUAWEI/Middlewares/Third_Party/Huawei/iot_link/oc/oc_mqtt/oc_mqtt_al\oc_mqtt_at.c ****         }
ARM GAS  T:\msys\tmp\ccIDyVks.s 			page 29


 347:D:/fchai/work/i-cube/I-CUBE-HUAWEI/Middlewares/Third_Party/Huawei/iot_link/oc/oc_mqtt/oc_mqtt_al\oc_mqtt_at.c ****     }
 348:D:/fchai/work/i-cube/I-CUBE-HUAWEI/Middlewares/Third_Party/Huawei/iot_link/oc/oc_mqtt/oc_mqtt_al\oc_mqtt_at.c **** 
 349:D:/fchai/work/i-cube/I-CUBE-HUAWEI/Middlewares/Third_Party/Huawei/iot_link/oc/oc_mqtt/oc_mqtt_al\oc_mqtt_at.c ****     return ret;
 1145              		.loc 1 349 12 view .LVU296
 1146 0042 0020     		movs	r0, #0
 350:D:/fchai/work/i-cube/I-CUBE-HUAWEI/Middlewares/Third_Party/Huawei/iot_link/oc/oc_mqtt/oc_mqtt_al\oc_mqtt_at.c **** }
 1147              		.loc 1 350 1 view .LVU297
 1148 0044 F8BD     		pop	{r3, r4, r5, r6, r7, pc}
 1149              	.LVL89:
 1150              	.L90:
 332:D:/fchai/work/i-cube/I-CUBE-HUAWEI/Middlewares/Third_Party/Huawei/iot_link/oc/oc_mqtt/oc_mqtt_al\oc_mqtt_at.c ****         }
 1151              		.loc 1 332 20 view .LVU298
 1152 0046 0F20     		movs	r0, #15
 1153              	.LVL90:
 1154              		.loc 1 350 1 view .LVU299
 1155 0048 F8BD     		pop	{r3, r4, r5, r6, r7, pc}
 1156              	.LVL91:
 1157              	.L101:
 340:D:/fchai/work/i-cube/I-CUBE-HUAWEI/Middlewares/Third_Party/Huawei/iot_link/oc/oc_mqtt/oc_mqtt_al\oc_mqtt_at.c ****                 s_client_pk = NULL;
 1158              		.loc 1 340 17 is_stmt 1 view .LVU300
 1159 004a 3068     		ldr	r0, [r6]
 1160 004c FFF7FEFF 		bl	osal_free
 1161              	.LVL92:
 341:D:/fchai/work/i-cube/I-CUBE-HUAWEI/Middlewares/Third_Party/Huawei/iot_link/oc/oc_mqtt/oc_mqtt_al\oc_mqtt_at.c **** 
 1162              		.loc 1 341 17 view .LVU301
 341:D:/fchai/work/i-cube/I-CUBE-HUAWEI/Middlewares/Third_Party/Huawei/iot_link/oc/oc_mqtt/oc_mqtt_al\oc_mqtt_at.c **** 
 1163              		.loc 1 341 29 is_stmt 0 view .LVU302
 1164 0050 3460     		str	r4, [r6]
 343:D:/fchai/work/i-cube/I-CUBE-HUAWEI/Middlewares/Third_Party/Huawei/iot_link/oc/oc_mqtt/oc_mqtt_al\oc_mqtt_at.c ****                 return ret;
 1165              		.loc 1 343 17 is_stmt 1 view .LVU303
 1166              	.LVL93:
 344:D:/fchai/work/i-cube/I-CUBE-HUAWEI/Middlewares/Third_Party/Huawei/iot_link/oc/oc_mqtt/oc_mqtt_al\oc_mqtt_at.c ****             }
 1167              		.loc 1 344 17 view .LVU304
 344:D:/fchai/work/i-cube/I-CUBE-HUAWEI/Middlewares/Third_Party/Huawei/iot_link/oc/oc_mqtt/oc_mqtt_al\oc_mqtt_at.c ****             }
 1168              		.loc 1 344 24 is_stmt 0 view .LVU305
 1169 0052 0F20     		movs	r0, #15
 1170              		.loc 1 350 1 view .LVU306
 1171 0054 F8BD     		pop	{r3, r4, r5, r6, r7, pc}
 1172              	.LVL94:
 1173              	.L103:
 1174              		.loc 1 350 1 view .LVU307
 1175 0056 00BF     		.align	2
 1176              	.L102:
 1177 0058 00000000 		.word	.LANCHOR6
 1178 005c 00000000 		.word	.LANCHOR7
 1179              		.cfi_endproc
 1180              	.LFE14:
 1182              		.section	.bss.s_client_ca,"aw",%nobits
 1183              		.align	2
 1184              		.set	.LANCHOR5,. + 0
 1187              	s_client_ca:
 1188 0000 00000000 		.space	4
 1189              		.section	.bss.s_client_pk,"aw",%nobits
 1190              		.align	2
 1191              		.set	.LANCHOR6,. + 0
 1194              	s_client_pk:
 1195 0000 00000000 		.space	4
ARM GAS  T:\msys\tmp\ccIDyVks.s 			page 30


 1196              		.section	.bss.s_client_pk_pwd,"aw",%nobits
 1197              		.align	2
 1198              		.set	.LANCHOR7,. + 0
 1201              	s_client_pk_pwd:
 1202 0000 00000000 		.space	4
 1203              		.section	.bss.s_server_ca,"aw",%nobits
 1204              		.align	2
 1205              		.set	.LANCHOR4,. + 0
 1208              	s_server_ca:
 1209 0000 00000000 		.space	4
 1210              		.section	.bss.time_last.7719,"aw",%nobits
 1211              		.align	3
 1212              		.set	.LANCHOR3,. + 0
 1215              	time_last.7719:
 1216 0000 00000000 		.space	8
 1216      00000000 
 1217              		.section	.rodata.__FUNCTION__.7693,"a"
 1218              		.align	2
 1219              		.set	.LANCHOR1,. + 0
 1222              	__FUNCTION__.7693:
 1223 0000 68776F63 		.ascii	"hwoc_mqtt_recvpub\000"
 1223      5F6D7174 
 1223      745F7265 
 1223      63767075 
 1223      6200
 1224              		.section	.rodata.__FUNCTION__.7697,"a"
 1225              		.align	2
 1226              		.set	.LANCHOR0,. + 0
 1229              	__FUNCTION__.7697:
 1230 0000 68776F63 		.ascii	"hwoc_mqtt_log\000"
 1230      5F6D7174 
 1230      745F6C6F 
 1230      6700
 1231              		.section	.rodata.__FUNCTION__.7703,"a"
 1232              		.align	2
 1233              		.set	.LANCHOR2,. + 0
 1236              	__FUNCTION__.7703:
 1237 0000 6170705F 		.ascii	"app_msg_deal\000"
 1237      6D73675F 
 1237      6465616C 
 1237      00
 1238              		.text
 1239              	.Letext0:
 1240              		.file 2 "t:\\msys\\3rd\\gcc-arm-none-eabi-9-2020-q2-update-win32\\arm-none-eabi\\include\\machine\
 1241              		.file 3 "t:\\msys\\3rd\\gcc-arm-none-eabi-9-2020-q2-update-win32\\lib\\gcc\\arm-none-eabi\\9.3.1\\
 1242              		.file 4 "t:\\msys\\3rd\\gcc-arm-none-eabi-9-2020-q2-update-win32\\arm-none-eabi\\include\\sys\\_ty
 1243              		.file 5 "t:\\msys\\3rd\\gcc-arm-none-eabi-9-2020-q2-update-win32\\arm-none-eabi\\include\\sys\\ree
 1244              		.file 6 "t:\\msys\\3rd\\gcc-arm-none-eabi-9-2020-q2-update-win32\\arm-none-eabi\\include\\sys\\loc
 1245              		.file 7 "t:\\msys\\3rd\\gcc-arm-none-eabi-9-2020-q2-update-win32\\arm-none-eabi\\include\\sys\\_st
 1246              		.file 8 "t:\\msys\\3rd\\gcc-arm-none-eabi-9-2020-q2-update-win32\\arm-none-eabi\\include\\stdlib.h
 1247              		.file 9 "D:/fchai/work/i-cube/I-CUBE-HUAWEI/Middlewares/Third_Party/Huawei/iot_link/inc/link_log.h
 1248              		.file 10 "D:/fchai/work/i-cube/I-CUBE-HUAWEI/Middlewares/Third_Party/Huawei/iot_link/inc/dtls_al.h
 1249              		.file 11 "D:/fchai/work/i-cube/I-CUBE-HUAWEI/Middlewares/Third_Party/Huawei/iot_link/inc/mqtt_al.h
 1250              		.file 12 "D:/fchai/work/i-cube/I-CUBE-HUAWEI/Middlewares/Third_Party/Huawei/iot_link/oc/oc_mqtt/oc
 1251              		.file 13 "D:/fchai/work/i-cube/I-CUBE-HUAWEI/Middlewares/Third_Party/Huawei/iot_link/os/osal/osal.
 1252              		.file 14 "D:/fchai/work/i-cube/I-CUBE-HUAWEI/Middlewares/Third_Party/Huawei/iot_link/link_misc/lin
 1253              		.file 15 "t:\\msys\\3rd\\gcc-arm-none-eabi-9-2020-q2-update-win32\\arm-none-eabi\\include\\string.
ARM GAS  T:\msys\tmp\ccIDyVks.s 			page 31


 1254              		.file 16 "t:\\msys\\3rd\\gcc-arm-none-eabi-9-2020-q2-update-win32\\arm-none-eabi\\include\\stdio.h
 1255              		.file 17 "<built-in>"
ARM GAS  T:\msys\tmp\ccIDyVks.s 			page 32

