ARM GAS  T:\msys\tmp\cc50myQj.s 			page 1


   1              		.cpu cortex-m4
   2              		.eabi_attribute 27, 1
   3              		.eabi_attribute 28, 1
   4              		.eabi_attribute 20, 1
   5              		.eabi_attribute 21, 1
   6              		.eabi_attribute 23, 3
   7              		.eabi_attribute 24, 1
   8              		.eabi_attribute 25, 1
   9              		.eabi_attribute 26, 1
  10              		.eabi_attribute 30, 2
  11              		.eabi_attribute 34, 1
  12              		.eabi_attribute 18, 4
  13              		.file	"lis2mdl.c"
  14              		.text
  15              	.Ltext0:
  16              		.cfi_sections	.debug_frame
  17              		.section	.text.LIS2MDL_GetCapabilities,"ax",%progbits
  18              		.align	1
  19              		.p2align 2,,3
  20              		.global	LIS2MDL_GetCapabilities
  21              		.arch armv7e-m
  22              		.syntax unified
  23              		.thumb
  24              		.thumb_func
  25              		.fpu fpv4-sp-d16
  27              	LIS2MDL_GetCapabilities:
  28              	.LVL0:
  29              	.LFB4:
  30              		.file 1 "D:/fchai/work/i-cube/I-CUBE-HUAWEI/Drivers/BSP/Components/lis2mdl/lis2mdl.c"
   1:D:/fchai/work/i-cube/I-CUBE-HUAWEI/Drivers/BSP/Components/lis2mdl\lis2mdl.c **** /**
   2:D:/fchai/work/i-cube/I-CUBE-HUAWEI/Drivers/BSP/Components/lis2mdl\lis2mdl.c ****  ******************************************************************************
   3:D:/fchai/work/i-cube/I-CUBE-HUAWEI/Drivers/BSP/Components/lis2mdl\lis2mdl.c ****  * @file    lis2mdl.c
   4:D:/fchai/work/i-cube/I-CUBE-HUAWEI/Drivers/BSP/Components/lis2mdl\lis2mdl.c ****  * @author  MEMS Software Solutions Team
   5:D:/fchai/work/i-cube/I-CUBE-HUAWEI/Drivers/BSP/Components/lis2mdl\lis2mdl.c ****  * @brief   LIS2MDL driver file
   6:D:/fchai/work/i-cube/I-CUBE-HUAWEI/Drivers/BSP/Components/lis2mdl\lis2mdl.c ****  ******************************************************************************
   7:D:/fchai/work/i-cube/I-CUBE-HUAWEI/Drivers/BSP/Components/lis2mdl\lis2mdl.c ****  * @attention
   8:D:/fchai/work/i-cube/I-CUBE-HUAWEI/Drivers/BSP/Components/lis2mdl\lis2mdl.c ****  *
   9:D:/fchai/work/i-cube/I-CUBE-HUAWEI/Drivers/BSP/Components/lis2mdl\lis2mdl.c ****  * <h2><center>&copy; Copyright (c) 2019 STMicroelectronics.
  10:D:/fchai/work/i-cube/I-CUBE-HUAWEI/Drivers/BSP/Components/lis2mdl\lis2mdl.c ****  * All rights reserved.</center></h2>
  11:D:/fchai/work/i-cube/I-CUBE-HUAWEI/Drivers/BSP/Components/lis2mdl\lis2mdl.c ****  *
  12:D:/fchai/work/i-cube/I-CUBE-HUAWEI/Drivers/BSP/Components/lis2mdl\lis2mdl.c ****  * This software component is licensed by ST under BSD 3-Clause license,
  13:D:/fchai/work/i-cube/I-CUBE-HUAWEI/Drivers/BSP/Components/lis2mdl\lis2mdl.c ****  * the "License"; You may not use this file except in compliance with the
  14:D:/fchai/work/i-cube/I-CUBE-HUAWEI/Drivers/BSP/Components/lis2mdl\lis2mdl.c ****  * License. You may obtain a copy of the License at:
  15:D:/fchai/work/i-cube/I-CUBE-HUAWEI/Drivers/BSP/Components/lis2mdl\lis2mdl.c ****  *                        opensource.org/licenses/BSD-3-Clause
  16:D:/fchai/work/i-cube/I-CUBE-HUAWEI/Drivers/BSP/Components/lis2mdl\lis2mdl.c ****  *
  17:D:/fchai/work/i-cube/I-CUBE-HUAWEI/Drivers/BSP/Components/lis2mdl\lis2mdl.c ****  ******************************************************************************
  18:D:/fchai/work/i-cube/I-CUBE-HUAWEI/Drivers/BSP/Components/lis2mdl\lis2mdl.c ****  */
  19:D:/fchai/work/i-cube/I-CUBE-HUAWEI/Drivers/BSP/Components/lis2mdl\lis2mdl.c **** 
  20:D:/fchai/work/i-cube/I-CUBE-HUAWEI/Drivers/BSP/Components/lis2mdl\lis2mdl.c **** /* Includes ------------------------------------------------------------------*/
  21:D:/fchai/work/i-cube/I-CUBE-HUAWEI/Drivers/BSP/Components/lis2mdl\lis2mdl.c **** #include "lis2mdl.h"
  22:D:/fchai/work/i-cube/I-CUBE-HUAWEI/Drivers/BSP/Components/lis2mdl\lis2mdl.c **** 
  23:D:/fchai/work/i-cube/I-CUBE-HUAWEI/Drivers/BSP/Components/lis2mdl\lis2mdl.c **** /** @addtogroup BSP BSP
  24:D:/fchai/work/i-cube/I-CUBE-HUAWEI/Drivers/BSP/Components/lis2mdl\lis2mdl.c ****  * @{
  25:D:/fchai/work/i-cube/I-CUBE-HUAWEI/Drivers/BSP/Components/lis2mdl\lis2mdl.c ****  */
  26:D:/fchai/work/i-cube/I-CUBE-HUAWEI/Drivers/BSP/Components/lis2mdl\lis2mdl.c **** 
  27:D:/fchai/work/i-cube/I-CUBE-HUAWEI/Drivers/BSP/Components/lis2mdl\lis2mdl.c **** /** @addtogroup Component Component
  28:D:/fchai/work/i-cube/I-CUBE-HUAWEI/Drivers/BSP/Components/lis2mdl\lis2mdl.c ****  * @{
ARM GAS  T:\msys\tmp\cc50myQj.s 			page 2


  29:D:/fchai/work/i-cube/I-CUBE-HUAWEI/Drivers/BSP/Components/lis2mdl\lis2mdl.c ****  */
  30:D:/fchai/work/i-cube/I-CUBE-HUAWEI/Drivers/BSP/Components/lis2mdl\lis2mdl.c **** 
  31:D:/fchai/work/i-cube/I-CUBE-HUAWEI/Drivers/BSP/Components/lis2mdl\lis2mdl.c **** /** @defgroup LIS2MDL LIS2MDL
  32:D:/fchai/work/i-cube/I-CUBE-HUAWEI/Drivers/BSP/Components/lis2mdl\lis2mdl.c ****  * @{
  33:D:/fchai/work/i-cube/I-CUBE-HUAWEI/Drivers/BSP/Components/lis2mdl\lis2mdl.c ****  */
  34:D:/fchai/work/i-cube/I-CUBE-HUAWEI/Drivers/BSP/Components/lis2mdl\lis2mdl.c **** 
  35:D:/fchai/work/i-cube/I-CUBE-HUAWEI/Drivers/BSP/Components/lis2mdl\lis2mdl.c **** /** @defgroup LIS2MDL_Exported_Variables LIS2MDL Exported Variables
  36:D:/fchai/work/i-cube/I-CUBE-HUAWEI/Drivers/BSP/Components/lis2mdl\lis2mdl.c ****  * @{
  37:D:/fchai/work/i-cube/I-CUBE-HUAWEI/Drivers/BSP/Components/lis2mdl\lis2mdl.c ****  */
  38:D:/fchai/work/i-cube/I-CUBE-HUAWEI/Drivers/BSP/Components/lis2mdl\lis2mdl.c **** 
  39:D:/fchai/work/i-cube/I-CUBE-HUAWEI/Drivers/BSP/Components/lis2mdl\lis2mdl.c **** LIS2MDL_CommonDrv_t LIS2MDL_COMMON_Driver =
  40:D:/fchai/work/i-cube/I-CUBE-HUAWEI/Drivers/BSP/Components/lis2mdl\lis2mdl.c **** {
  41:D:/fchai/work/i-cube/I-CUBE-HUAWEI/Drivers/BSP/Components/lis2mdl\lis2mdl.c ****   LIS2MDL_Init,
  42:D:/fchai/work/i-cube/I-CUBE-HUAWEI/Drivers/BSP/Components/lis2mdl\lis2mdl.c ****   LIS2MDL_DeInit,
  43:D:/fchai/work/i-cube/I-CUBE-HUAWEI/Drivers/BSP/Components/lis2mdl\lis2mdl.c ****   LIS2MDL_ReadID,
  44:D:/fchai/work/i-cube/I-CUBE-HUAWEI/Drivers/BSP/Components/lis2mdl\lis2mdl.c ****   LIS2MDL_GetCapabilities,
  45:D:/fchai/work/i-cube/I-CUBE-HUAWEI/Drivers/BSP/Components/lis2mdl\lis2mdl.c **** };
  46:D:/fchai/work/i-cube/I-CUBE-HUAWEI/Drivers/BSP/Components/lis2mdl\lis2mdl.c **** 
  47:D:/fchai/work/i-cube/I-CUBE-HUAWEI/Drivers/BSP/Components/lis2mdl\lis2mdl.c **** LIS2MDL_MAG_Drv_t LIS2MDL_MAG_Driver =
  48:D:/fchai/work/i-cube/I-CUBE-HUAWEI/Drivers/BSP/Components/lis2mdl\lis2mdl.c **** {
  49:D:/fchai/work/i-cube/I-CUBE-HUAWEI/Drivers/BSP/Components/lis2mdl\lis2mdl.c ****   LIS2MDL_MAG_Enable,
  50:D:/fchai/work/i-cube/I-CUBE-HUAWEI/Drivers/BSP/Components/lis2mdl\lis2mdl.c ****   LIS2MDL_MAG_Disable,
  51:D:/fchai/work/i-cube/I-CUBE-HUAWEI/Drivers/BSP/Components/lis2mdl\lis2mdl.c ****   LIS2MDL_MAG_GetSensitivity,
  52:D:/fchai/work/i-cube/I-CUBE-HUAWEI/Drivers/BSP/Components/lis2mdl\lis2mdl.c ****   LIS2MDL_MAG_GetOutputDataRate,
  53:D:/fchai/work/i-cube/I-CUBE-HUAWEI/Drivers/BSP/Components/lis2mdl\lis2mdl.c ****   LIS2MDL_MAG_SetOutputDataRate,
  54:D:/fchai/work/i-cube/I-CUBE-HUAWEI/Drivers/BSP/Components/lis2mdl\lis2mdl.c ****   LIS2MDL_MAG_GetFullScale,
  55:D:/fchai/work/i-cube/I-CUBE-HUAWEI/Drivers/BSP/Components/lis2mdl\lis2mdl.c ****   LIS2MDL_MAG_SetFullScale,
  56:D:/fchai/work/i-cube/I-CUBE-HUAWEI/Drivers/BSP/Components/lis2mdl\lis2mdl.c ****   LIS2MDL_MAG_GetAxes,
  57:D:/fchai/work/i-cube/I-CUBE-HUAWEI/Drivers/BSP/Components/lis2mdl\lis2mdl.c ****   LIS2MDL_MAG_GetAxesRaw,
  58:D:/fchai/work/i-cube/I-CUBE-HUAWEI/Drivers/BSP/Components/lis2mdl\lis2mdl.c **** };
  59:D:/fchai/work/i-cube/I-CUBE-HUAWEI/Drivers/BSP/Components/lis2mdl\lis2mdl.c **** 
  60:D:/fchai/work/i-cube/I-CUBE-HUAWEI/Drivers/BSP/Components/lis2mdl\lis2mdl.c **** /**
  61:D:/fchai/work/i-cube/I-CUBE-HUAWEI/Drivers/BSP/Components/lis2mdl\lis2mdl.c ****  * @}
  62:D:/fchai/work/i-cube/I-CUBE-HUAWEI/Drivers/BSP/Components/lis2mdl\lis2mdl.c ****  */
  63:D:/fchai/work/i-cube/I-CUBE-HUAWEI/Drivers/BSP/Components/lis2mdl\lis2mdl.c **** 
  64:D:/fchai/work/i-cube/I-CUBE-HUAWEI/Drivers/BSP/Components/lis2mdl\lis2mdl.c **** /** @defgroup LIS2MDL_Private_Function_Prototypes LIS2MDL Private Function Prototypes
  65:D:/fchai/work/i-cube/I-CUBE-HUAWEI/Drivers/BSP/Components/lis2mdl\lis2mdl.c ****  * @{
  66:D:/fchai/work/i-cube/I-CUBE-HUAWEI/Drivers/BSP/Components/lis2mdl\lis2mdl.c ****  */
  67:D:/fchai/work/i-cube/I-CUBE-HUAWEI/Drivers/BSP/Components/lis2mdl\lis2mdl.c **** static int32_t ReadMagRegWrap(void *Handle, uint8_t Reg, uint8_t *pData, uint16_t Length);
  68:D:/fchai/work/i-cube/I-CUBE-HUAWEI/Drivers/BSP/Components/lis2mdl\lis2mdl.c **** static int32_t WriteMagRegWrap(void *Handle, uint8_t Reg, uint8_t *pData, uint16_t Length);
  69:D:/fchai/work/i-cube/I-CUBE-HUAWEI/Drivers/BSP/Components/lis2mdl\lis2mdl.c **** 
  70:D:/fchai/work/i-cube/I-CUBE-HUAWEI/Drivers/BSP/Components/lis2mdl\lis2mdl.c **** /**
  71:D:/fchai/work/i-cube/I-CUBE-HUAWEI/Drivers/BSP/Components/lis2mdl\lis2mdl.c ****  * @}
  72:D:/fchai/work/i-cube/I-CUBE-HUAWEI/Drivers/BSP/Components/lis2mdl\lis2mdl.c ****  */
  73:D:/fchai/work/i-cube/I-CUBE-HUAWEI/Drivers/BSP/Components/lis2mdl\lis2mdl.c **** 
  74:D:/fchai/work/i-cube/I-CUBE-HUAWEI/Drivers/BSP/Components/lis2mdl\lis2mdl.c **** /** @defgroup LIS2MDL_Exported_Functions LIS2MDL Exported Functions
  75:D:/fchai/work/i-cube/I-CUBE-HUAWEI/Drivers/BSP/Components/lis2mdl\lis2mdl.c ****  * @{
  76:D:/fchai/work/i-cube/I-CUBE-HUAWEI/Drivers/BSP/Components/lis2mdl\lis2mdl.c ****  */
  77:D:/fchai/work/i-cube/I-CUBE-HUAWEI/Drivers/BSP/Components/lis2mdl\lis2mdl.c **** 
  78:D:/fchai/work/i-cube/I-CUBE-HUAWEI/Drivers/BSP/Components/lis2mdl\lis2mdl.c **** /**
  79:D:/fchai/work/i-cube/I-CUBE-HUAWEI/Drivers/BSP/Components/lis2mdl\lis2mdl.c ****  * @brief  Register Component Bus IO operations
  80:D:/fchai/work/i-cube/I-CUBE-HUAWEI/Drivers/BSP/Components/lis2mdl\lis2mdl.c ****  * @param  pObj the device pObj
  81:D:/fchai/work/i-cube/I-CUBE-HUAWEI/Drivers/BSP/Components/lis2mdl\lis2mdl.c ****  * @retval 0 in case of success, an error code otherwise
  82:D:/fchai/work/i-cube/I-CUBE-HUAWEI/Drivers/BSP/Components/lis2mdl\lis2mdl.c ****  */
  83:D:/fchai/work/i-cube/I-CUBE-HUAWEI/Drivers/BSP/Components/lis2mdl\lis2mdl.c **** int32_t LIS2MDL_RegisterBusIO(LIS2MDL_Object_t *pObj, LIS2MDL_IO_t *pIO)
  84:D:/fchai/work/i-cube/I-CUBE-HUAWEI/Drivers/BSP/Components/lis2mdl\lis2mdl.c **** {
  85:D:/fchai/work/i-cube/I-CUBE-HUAWEI/Drivers/BSP/Components/lis2mdl\lis2mdl.c ****   int32_t ret = LIS2MDL_OK;
ARM GAS  T:\msys\tmp\cc50myQj.s 			page 3


  86:D:/fchai/work/i-cube/I-CUBE-HUAWEI/Drivers/BSP/Components/lis2mdl\lis2mdl.c **** 
  87:D:/fchai/work/i-cube/I-CUBE-HUAWEI/Drivers/BSP/Components/lis2mdl\lis2mdl.c ****   if (pObj == NULL)
  88:D:/fchai/work/i-cube/I-CUBE-HUAWEI/Drivers/BSP/Components/lis2mdl\lis2mdl.c ****   {
  89:D:/fchai/work/i-cube/I-CUBE-HUAWEI/Drivers/BSP/Components/lis2mdl\lis2mdl.c ****     ret = LIS2MDL_ERROR;
  90:D:/fchai/work/i-cube/I-CUBE-HUAWEI/Drivers/BSP/Components/lis2mdl\lis2mdl.c ****   }
  91:D:/fchai/work/i-cube/I-CUBE-HUAWEI/Drivers/BSP/Components/lis2mdl\lis2mdl.c ****   else
  92:D:/fchai/work/i-cube/I-CUBE-HUAWEI/Drivers/BSP/Components/lis2mdl\lis2mdl.c ****   {
  93:D:/fchai/work/i-cube/I-CUBE-HUAWEI/Drivers/BSP/Components/lis2mdl\lis2mdl.c ****     pObj->IO.Init      = pIO->Init;
  94:D:/fchai/work/i-cube/I-CUBE-HUAWEI/Drivers/BSP/Components/lis2mdl\lis2mdl.c ****     pObj->IO.DeInit    = pIO->DeInit;
  95:D:/fchai/work/i-cube/I-CUBE-HUAWEI/Drivers/BSP/Components/lis2mdl\lis2mdl.c ****     pObj->IO.BusType   = pIO->BusType;
  96:D:/fchai/work/i-cube/I-CUBE-HUAWEI/Drivers/BSP/Components/lis2mdl\lis2mdl.c ****     pObj->IO.Address   = pIO->Address;
  97:D:/fchai/work/i-cube/I-CUBE-HUAWEI/Drivers/BSP/Components/lis2mdl\lis2mdl.c ****     pObj->IO.WriteReg  = pIO->WriteReg;
  98:D:/fchai/work/i-cube/I-CUBE-HUAWEI/Drivers/BSP/Components/lis2mdl\lis2mdl.c ****     pObj->IO.ReadReg   = pIO->ReadReg;
  99:D:/fchai/work/i-cube/I-CUBE-HUAWEI/Drivers/BSP/Components/lis2mdl\lis2mdl.c ****     pObj->IO.GetTick   = pIO->GetTick;
 100:D:/fchai/work/i-cube/I-CUBE-HUAWEI/Drivers/BSP/Components/lis2mdl\lis2mdl.c **** 
 101:D:/fchai/work/i-cube/I-CUBE-HUAWEI/Drivers/BSP/Components/lis2mdl\lis2mdl.c ****     pObj->Ctx.read_reg  = ReadMagRegWrap;
 102:D:/fchai/work/i-cube/I-CUBE-HUAWEI/Drivers/BSP/Components/lis2mdl\lis2mdl.c ****     pObj->Ctx.write_reg = WriteMagRegWrap;
 103:D:/fchai/work/i-cube/I-CUBE-HUAWEI/Drivers/BSP/Components/lis2mdl\lis2mdl.c ****     pObj->Ctx.handle    = pObj;
 104:D:/fchai/work/i-cube/I-CUBE-HUAWEI/Drivers/BSP/Components/lis2mdl\lis2mdl.c **** 
 105:D:/fchai/work/i-cube/I-CUBE-HUAWEI/Drivers/BSP/Components/lis2mdl\lis2mdl.c ****     if (pObj->IO.Init == NULL)
 106:D:/fchai/work/i-cube/I-CUBE-HUAWEI/Drivers/BSP/Components/lis2mdl\lis2mdl.c ****     {
 107:D:/fchai/work/i-cube/I-CUBE-HUAWEI/Drivers/BSP/Components/lis2mdl\lis2mdl.c ****       ret = LIS2MDL_ERROR;
 108:D:/fchai/work/i-cube/I-CUBE-HUAWEI/Drivers/BSP/Components/lis2mdl\lis2mdl.c ****     }
 109:D:/fchai/work/i-cube/I-CUBE-HUAWEI/Drivers/BSP/Components/lis2mdl\lis2mdl.c ****     else if (pObj->IO.Init() != LIS2MDL_OK)
 110:D:/fchai/work/i-cube/I-CUBE-HUAWEI/Drivers/BSP/Components/lis2mdl\lis2mdl.c ****     {
 111:D:/fchai/work/i-cube/I-CUBE-HUAWEI/Drivers/BSP/Components/lis2mdl\lis2mdl.c ****       ret = LIS2MDL_ERROR;
 112:D:/fchai/work/i-cube/I-CUBE-HUAWEI/Drivers/BSP/Components/lis2mdl\lis2mdl.c ****     }
 113:D:/fchai/work/i-cube/I-CUBE-HUAWEI/Drivers/BSP/Components/lis2mdl\lis2mdl.c ****     else
 114:D:/fchai/work/i-cube/I-CUBE-HUAWEI/Drivers/BSP/Components/lis2mdl\lis2mdl.c ****     {
 115:D:/fchai/work/i-cube/I-CUBE-HUAWEI/Drivers/BSP/Components/lis2mdl\lis2mdl.c ****       if (pObj->IO.BusType != LIS2MDL_I2C_BUS) /* If the bus type is not I2C */
 116:D:/fchai/work/i-cube/I-CUBE-HUAWEI/Drivers/BSP/Components/lis2mdl\lis2mdl.c ****       {
 117:D:/fchai/work/i-cube/I-CUBE-HUAWEI/Drivers/BSP/Components/lis2mdl\lis2mdl.c ****         /* Disable I2C interface support and enable eventually SPI 4-Wires only the first time */
 118:D:/fchai/work/i-cube/I-CUBE-HUAWEI/Drivers/BSP/Components/lis2mdl\lis2mdl.c ****         if (pObj->is_initialized == 0U)
 119:D:/fchai/work/i-cube/I-CUBE-HUAWEI/Drivers/BSP/Components/lis2mdl\lis2mdl.c ****         {
 120:D:/fchai/work/i-cube/I-CUBE-HUAWEI/Drivers/BSP/Components/lis2mdl\lis2mdl.c ****           if (pObj->IO.BusType == LIS2MDL_SPI_4WIRES_BUS) /* SPI 4-Wires */
 121:D:/fchai/work/i-cube/I-CUBE-HUAWEI/Drivers/BSP/Components/lis2mdl\lis2mdl.c ****           {
 122:D:/fchai/work/i-cube/I-CUBE-HUAWEI/Drivers/BSP/Components/lis2mdl\lis2mdl.c ****             /* Enable SPI 4-Wires and disable I2C support on the component */
 123:D:/fchai/work/i-cube/I-CUBE-HUAWEI/Drivers/BSP/Components/lis2mdl\lis2mdl.c ****             uint8_t data = 0x34;
 124:D:/fchai/work/i-cube/I-CUBE-HUAWEI/Drivers/BSP/Components/lis2mdl\lis2mdl.c **** 
 125:D:/fchai/work/i-cube/I-CUBE-HUAWEI/Drivers/BSP/Components/lis2mdl\lis2mdl.c ****             if (LIS2MDL_Write_Reg(pObj, LIS2MDL_CFG_REG_C, data) != LIS2MDL_OK)
 126:D:/fchai/work/i-cube/I-CUBE-HUAWEI/Drivers/BSP/Components/lis2mdl\lis2mdl.c ****             {
 127:D:/fchai/work/i-cube/I-CUBE-HUAWEI/Drivers/BSP/Components/lis2mdl\lis2mdl.c ****               return LIS2MDL_ERROR;
 128:D:/fchai/work/i-cube/I-CUBE-HUAWEI/Drivers/BSP/Components/lis2mdl\lis2mdl.c ****             }
 129:D:/fchai/work/i-cube/I-CUBE-HUAWEI/Drivers/BSP/Components/lis2mdl\lis2mdl.c ****           }
 130:D:/fchai/work/i-cube/I-CUBE-HUAWEI/Drivers/BSP/Components/lis2mdl\lis2mdl.c ****           else
 131:D:/fchai/work/i-cube/I-CUBE-HUAWEI/Drivers/BSP/Components/lis2mdl\lis2mdl.c ****           {
 132:D:/fchai/work/i-cube/I-CUBE-HUAWEI/Drivers/BSP/Components/lis2mdl\lis2mdl.c ****             /* Disable I2C interface on the component */
 133:D:/fchai/work/i-cube/I-CUBE-HUAWEI/Drivers/BSP/Components/lis2mdl\lis2mdl.c ****             if (lis2mdl_i2c_interface_set(&(pObj->Ctx), LIS2MDL_I2C_DISABLE) != LIS2MDL_OK)
 134:D:/fchai/work/i-cube/I-CUBE-HUAWEI/Drivers/BSP/Components/lis2mdl\lis2mdl.c ****             {
 135:D:/fchai/work/i-cube/I-CUBE-HUAWEI/Drivers/BSP/Components/lis2mdl\lis2mdl.c ****               return LIS2MDL_ERROR;
 136:D:/fchai/work/i-cube/I-CUBE-HUAWEI/Drivers/BSP/Components/lis2mdl\lis2mdl.c ****             }
 137:D:/fchai/work/i-cube/I-CUBE-HUAWEI/Drivers/BSP/Components/lis2mdl\lis2mdl.c ****           }
 138:D:/fchai/work/i-cube/I-CUBE-HUAWEI/Drivers/BSP/Components/lis2mdl\lis2mdl.c ****         }
 139:D:/fchai/work/i-cube/I-CUBE-HUAWEI/Drivers/BSP/Components/lis2mdl\lis2mdl.c ****       }
 140:D:/fchai/work/i-cube/I-CUBE-HUAWEI/Drivers/BSP/Components/lis2mdl\lis2mdl.c ****     }
 141:D:/fchai/work/i-cube/I-CUBE-HUAWEI/Drivers/BSP/Components/lis2mdl\lis2mdl.c ****   }
 142:D:/fchai/work/i-cube/I-CUBE-HUAWEI/Drivers/BSP/Components/lis2mdl\lis2mdl.c **** 
ARM GAS  T:\msys\tmp\cc50myQj.s 			page 4


 143:D:/fchai/work/i-cube/I-CUBE-HUAWEI/Drivers/BSP/Components/lis2mdl\lis2mdl.c ****   return ret;
 144:D:/fchai/work/i-cube/I-CUBE-HUAWEI/Drivers/BSP/Components/lis2mdl\lis2mdl.c **** }
 145:D:/fchai/work/i-cube/I-CUBE-HUAWEI/Drivers/BSP/Components/lis2mdl\lis2mdl.c **** 
 146:D:/fchai/work/i-cube/I-CUBE-HUAWEI/Drivers/BSP/Components/lis2mdl\lis2mdl.c **** /**
 147:D:/fchai/work/i-cube/I-CUBE-HUAWEI/Drivers/BSP/Components/lis2mdl\lis2mdl.c ****  * @brief  Initialize the LIS2MDL sensor
 148:D:/fchai/work/i-cube/I-CUBE-HUAWEI/Drivers/BSP/Components/lis2mdl\lis2mdl.c ****  * @param  pObj the device pObj
 149:D:/fchai/work/i-cube/I-CUBE-HUAWEI/Drivers/BSP/Components/lis2mdl\lis2mdl.c ****  * @retval 0 in case of success, an error code otherwise
 150:D:/fchai/work/i-cube/I-CUBE-HUAWEI/Drivers/BSP/Components/lis2mdl\lis2mdl.c ****  */
 151:D:/fchai/work/i-cube/I-CUBE-HUAWEI/Drivers/BSP/Components/lis2mdl\lis2mdl.c **** int32_t LIS2MDL_Init(LIS2MDL_Object_t *pObj)
 152:D:/fchai/work/i-cube/I-CUBE-HUAWEI/Drivers/BSP/Components/lis2mdl\lis2mdl.c **** {
 153:D:/fchai/work/i-cube/I-CUBE-HUAWEI/Drivers/BSP/Components/lis2mdl\lis2mdl.c ****   /* Enable BDU */
 154:D:/fchai/work/i-cube/I-CUBE-HUAWEI/Drivers/BSP/Components/lis2mdl\lis2mdl.c ****   if (lis2mdl_block_data_update_set(&(pObj->Ctx), PROPERTY_ENABLE) != LIS2MDL_OK)
 155:D:/fchai/work/i-cube/I-CUBE-HUAWEI/Drivers/BSP/Components/lis2mdl\lis2mdl.c ****   {
 156:D:/fchai/work/i-cube/I-CUBE-HUAWEI/Drivers/BSP/Components/lis2mdl\lis2mdl.c ****     return LIS2MDL_ERROR;
 157:D:/fchai/work/i-cube/I-CUBE-HUAWEI/Drivers/BSP/Components/lis2mdl\lis2mdl.c ****   }
 158:D:/fchai/work/i-cube/I-CUBE-HUAWEI/Drivers/BSP/Components/lis2mdl\lis2mdl.c **** 
 159:D:/fchai/work/i-cube/I-CUBE-HUAWEI/Drivers/BSP/Components/lis2mdl\lis2mdl.c ****   /* Operating mode selection - power down */
 160:D:/fchai/work/i-cube/I-CUBE-HUAWEI/Drivers/BSP/Components/lis2mdl\lis2mdl.c ****   if (lis2mdl_operating_mode_set(&(pObj->Ctx), LIS2MDL_POWER_DOWN) != LIS2MDL_OK)
 161:D:/fchai/work/i-cube/I-CUBE-HUAWEI/Drivers/BSP/Components/lis2mdl\lis2mdl.c ****   {
 162:D:/fchai/work/i-cube/I-CUBE-HUAWEI/Drivers/BSP/Components/lis2mdl\lis2mdl.c ****     return LIS2MDL_ERROR;
 163:D:/fchai/work/i-cube/I-CUBE-HUAWEI/Drivers/BSP/Components/lis2mdl\lis2mdl.c ****   }
 164:D:/fchai/work/i-cube/I-CUBE-HUAWEI/Drivers/BSP/Components/lis2mdl\lis2mdl.c **** 
 165:D:/fchai/work/i-cube/I-CUBE-HUAWEI/Drivers/BSP/Components/lis2mdl\lis2mdl.c ****   /* Output data rate selection */
 166:D:/fchai/work/i-cube/I-CUBE-HUAWEI/Drivers/BSP/Components/lis2mdl\lis2mdl.c ****   if (lis2mdl_data_rate_set(&(pObj->Ctx), LIS2MDL_ODR_100Hz) != LIS2MDL_OK)
 167:D:/fchai/work/i-cube/I-CUBE-HUAWEI/Drivers/BSP/Components/lis2mdl\lis2mdl.c ****   {
 168:D:/fchai/work/i-cube/I-CUBE-HUAWEI/Drivers/BSP/Components/lis2mdl\lis2mdl.c ****     return LIS2MDL_ERROR;
 169:D:/fchai/work/i-cube/I-CUBE-HUAWEI/Drivers/BSP/Components/lis2mdl\lis2mdl.c ****   }
 170:D:/fchai/work/i-cube/I-CUBE-HUAWEI/Drivers/BSP/Components/lis2mdl\lis2mdl.c **** 
 171:D:/fchai/work/i-cube/I-CUBE-HUAWEI/Drivers/BSP/Components/lis2mdl\lis2mdl.c ****   /* Self Test disabled. */
 172:D:/fchai/work/i-cube/I-CUBE-HUAWEI/Drivers/BSP/Components/lis2mdl\lis2mdl.c ****   if (lis2mdl_self_test_set(&(pObj->Ctx), PROPERTY_DISABLE) != LIS2MDL_OK)
 173:D:/fchai/work/i-cube/I-CUBE-HUAWEI/Drivers/BSP/Components/lis2mdl\lis2mdl.c ****   {
 174:D:/fchai/work/i-cube/I-CUBE-HUAWEI/Drivers/BSP/Components/lis2mdl\lis2mdl.c ****     return LIS2MDL_ERROR;
 175:D:/fchai/work/i-cube/I-CUBE-HUAWEI/Drivers/BSP/Components/lis2mdl\lis2mdl.c ****   }
 176:D:/fchai/work/i-cube/I-CUBE-HUAWEI/Drivers/BSP/Components/lis2mdl\lis2mdl.c **** 
 177:D:/fchai/work/i-cube/I-CUBE-HUAWEI/Drivers/BSP/Components/lis2mdl\lis2mdl.c ****   pObj->is_initialized = 1;
 178:D:/fchai/work/i-cube/I-CUBE-HUAWEI/Drivers/BSP/Components/lis2mdl\lis2mdl.c **** 
 179:D:/fchai/work/i-cube/I-CUBE-HUAWEI/Drivers/BSP/Components/lis2mdl\lis2mdl.c ****   return LIS2MDL_OK;
 180:D:/fchai/work/i-cube/I-CUBE-HUAWEI/Drivers/BSP/Components/lis2mdl\lis2mdl.c **** }
 181:D:/fchai/work/i-cube/I-CUBE-HUAWEI/Drivers/BSP/Components/lis2mdl\lis2mdl.c **** 
 182:D:/fchai/work/i-cube/I-CUBE-HUAWEI/Drivers/BSP/Components/lis2mdl\lis2mdl.c **** /**
 183:D:/fchai/work/i-cube/I-CUBE-HUAWEI/Drivers/BSP/Components/lis2mdl\lis2mdl.c ****  * @brief  Deinitialize the LIS2MDL magnetometer sensor
 184:D:/fchai/work/i-cube/I-CUBE-HUAWEI/Drivers/BSP/Components/lis2mdl\lis2mdl.c ****  * @param  pObj the device pObj
 185:D:/fchai/work/i-cube/I-CUBE-HUAWEI/Drivers/BSP/Components/lis2mdl\lis2mdl.c ****  * @retval 0 in case of success, an error code otherwise
 186:D:/fchai/work/i-cube/I-CUBE-HUAWEI/Drivers/BSP/Components/lis2mdl\lis2mdl.c ****  */
 187:D:/fchai/work/i-cube/I-CUBE-HUAWEI/Drivers/BSP/Components/lis2mdl\lis2mdl.c **** int32_t LIS2MDL_DeInit(LIS2MDL_Object_t *pObj)
 188:D:/fchai/work/i-cube/I-CUBE-HUAWEI/Drivers/BSP/Components/lis2mdl\lis2mdl.c **** {
 189:D:/fchai/work/i-cube/I-CUBE-HUAWEI/Drivers/BSP/Components/lis2mdl\lis2mdl.c ****   /* Disable the component */
 190:D:/fchai/work/i-cube/I-CUBE-HUAWEI/Drivers/BSP/Components/lis2mdl\lis2mdl.c ****   if (LIS2MDL_MAG_Disable(pObj) != LIS2MDL_OK)
 191:D:/fchai/work/i-cube/I-CUBE-HUAWEI/Drivers/BSP/Components/lis2mdl\lis2mdl.c ****   {
 192:D:/fchai/work/i-cube/I-CUBE-HUAWEI/Drivers/BSP/Components/lis2mdl\lis2mdl.c ****     return LIS2MDL_ERROR;
 193:D:/fchai/work/i-cube/I-CUBE-HUAWEI/Drivers/BSP/Components/lis2mdl\lis2mdl.c ****   }
 194:D:/fchai/work/i-cube/I-CUBE-HUAWEI/Drivers/BSP/Components/lis2mdl\lis2mdl.c **** 
 195:D:/fchai/work/i-cube/I-CUBE-HUAWEI/Drivers/BSP/Components/lis2mdl\lis2mdl.c ****   pObj->is_initialized = 0;
 196:D:/fchai/work/i-cube/I-CUBE-HUAWEI/Drivers/BSP/Components/lis2mdl\lis2mdl.c **** 
 197:D:/fchai/work/i-cube/I-CUBE-HUAWEI/Drivers/BSP/Components/lis2mdl\lis2mdl.c ****   return LIS2MDL_OK;
 198:D:/fchai/work/i-cube/I-CUBE-HUAWEI/Drivers/BSP/Components/lis2mdl\lis2mdl.c **** }
 199:D:/fchai/work/i-cube/I-CUBE-HUAWEI/Drivers/BSP/Components/lis2mdl\lis2mdl.c **** 
ARM GAS  T:\msys\tmp\cc50myQj.s 			page 5


 200:D:/fchai/work/i-cube/I-CUBE-HUAWEI/Drivers/BSP/Components/lis2mdl\lis2mdl.c **** /**
 201:D:/fchai/work/i-cube/I-CUBE-HUAWEI/Drivers/BSP/Components/lis2mdl\lis2mdl.c ****  * @brief  Read component ID
 202:D:/fchai/work/i-cube/I-CUBE-HUAWEI/Drivers/BSP/Components/lis2mdl\lis2mdl.c ****  * @param  pObj the device pObj
 203:D:/fchai/work/i-cube/I-CUBE-HUAWEI/Drivers/BSP/Components/lis2mdl\lis2mdl.c ****  * @param  Id the WHO_AM_I value
 204:D:/fchai/work/i-cube/I-CUBE-HUAWEI/Drivers/BSP/Components/lis2mdl\lis2mdl.c ****  * @retval 0 in case of success, an error code otherwise
 205:D:/fchai/work/i-cube/I-CUBE-HUAWEI/Drivers/BSP/Components/lis2mdl\lis2mdl.c ****  */
 206:D:/fchai/work/i-cube/I-CUBE-HUAWEI/Drivers/BSP/Components/lis2mdl\lis2mdl.c **** int32_t LIS2MDL_ReadID(LIS2MDL_Object_t *pObj, uint8_t *Id)
 207:D:/fchai/work/i-cube/I-CUBE-HUAWEI/Drivers/BSP/Components/lis2mdl\lis2mdl.c **** {
 208:D:/fchai/work/i-cube/I-CUBE-HUAWEI/Drivers/BSP/Components/lis2mdl\lis2mdl.c ****   if (lis2mdl_device_id_get(&(pObj->Ctx), Id) != LIS2MDL_OK)
 209:D:/fchai/work/i-cube/I-CUBE-HUAWEI/Drivers/BSP/Components/lis2mdl\lis2mdl.c ****   {
 210:D:/fchai/work/i-cube/I-CUBE-HUAWEI/Drivers/BSP/Components/lis2mdl\lis2mdl.c ****     return LIS2MDL_ERROR;
 211:D:/fchai/work/i-cube/I-CUBE-HUAWEI/Drivers/BSP/Components/lis2mdl\lis2mdl.c ****   }
 212:D:/fchai/work/i-cube/I-CUBE-HUAWEI/Drivers/BSP/Components/lis2mdl\lis2mdl.c **** 
 213:D:/fchai/work/i-cube/I-CUBE-HUAWEI/Drivers/BSP/Components/lis2mdl\lis2mdl.c ****   return LIS2MDL_OK;
 214:D:/fchai/work/i-cube/I-CUBE-HUAWEI/Drivers/BSP/Components/lis2mdl\lis2mdl.c **** }
 215:D:/fchai/work/i-cube/I-CUBE-HUAWEI/Drivers/BSP/Components/lis2mdl\lis2mdl.c **** 
 216:D:/fchai/work/i-cube/I-CUBE-HUAWEI/Drivers/BSP/Components/lis2mdl\lis2mdl.c **** /**
 217:D:/fchai/work/i-cube/I-CUBE-HUAWEI/Drivers/BSP/Components/lis2mdl\lis2mdl.c ****  * @brief  Get LIS2MDL magnetometer sensor capabilities
 218:D:/fchai/work/i-cube/I-CUBE-HUAWEI/Drivers/BSP/Components/lis2mdl\lis2mdl.c ****  * @param  pObj Component object pointer
 219:D:/fchai/work/i-cube/I-CUBE-HUAWEI/Drivers/BSP/Components/lis2mdl\lis2mdl.c ****  * @param  Capabilities pointer to LIS2MDL magnetometer sensor capabilities
 220:D:/fchai/work/i-cube/I-CUBE-HUAWEI/Drivers/BSP/Components/lis2mdl\lis2mdl.c ****  * @retval Component status
 221:D:/fchai/work/i-cube/I-CUBE-HUAWEI/Drivers/BSP/Components/lis2mdl\lis2mdl.c ****  */
 222:D:/fchai/work/i-cube/I-CUBE-HUAWEI/Drivers/BSP/Components/lis2mdl\lis2mdl.c **** int32_t LIS2MDL_GetCapabilities(LIS2MDL_Object_t *pObj, LIS2MDL_Capabilities_t *Capabilities)
 223:D:/fchai/work/i-cube/I-CUBE-HUAWEI/Drivers/BSP/Components/lis2mdl\lis2mdl.c **** {
  31              		.loc 1 223 1 view -0
  32              		.cfi_startproc
  33              		@ args = 0, pretend = 0, frame = 0
  34              		@ frame_needed = 0, uses_anonymous_args = 0
  35              		@ link register save eliminated.
 224:D:/fchai/work/i-cube/I-CUBE-HUAWEI/Drivers/BSP/Components/lis2mdl\lis2mdl.c ****   /* Prevent unused argument(s) compilation warning */
 225:D:/fchai/work/i-cube/I-CUBE-HUAWEI/Drivers/BSP/Components/lis2mdl\lis2mdl.c ****   (void)(pObj);
  36              		.loc 1 225 3 view .LVU1
 226:D:/fchai/work/i-cube/I-CUBE-HUAWEI/Drivers/BSP/Components/lis2mdl\lis2mdl.c **** 
 227:D:/fchai/work/i-cube/I-CUBE-HUAWEI/Drivers/BSP/Components/lis2mdl\lis2mdl.c ****   Capabilities->Acc          = 0;
  37              		.loc 1 227 3 view .LVU2
 228:D:/fchai/work/i-cube/I-CUBE-HUAWEI/Drivers/BSP/Components/lis2mdl\lis2mdl.c ****   Capabilities->Gyro         = 0;
  38              		.loc 1 228 3 view .LVU3
 229:D:/fchai/work/i-cube/I-CUBE-HUAWEI/Drivers/BSP/Components/lis2mdl\lis2mdl.c ****   Capabilities->Magneto      = 1;
  39              		.loc 1 229 3 view .LVU4
 230:D:/fchai/work/i-cube/I-CUBE-HUAWEI/Drivers/BSP/Components/lis2mdl\lis2mdl.c ****   Capabilities->LowPower     = 0;
  40              		.loc 1 230 3 view .LVU5
 231:D:/fchai/work/i-cube/I-CUBE-HUAWEI/Drivers/BSP/Components/lis2mdl\lis2mdl.c ****   Capabilities->GyroMaxFS    = 0;
  41              		.loc 1 231 3 view .LVU6
 232:D:/fchai/work/i-cube/I-CUBE-HUAWEI/Drivers/BSP/Components/lis2mdl\lis2mdl.c ****   Capabilities->AccMaxFS     = 0;
  42              		.loc 1 232 3 view .LVU7
 233:D:/fchai/work/i-cube/I-CUBE-HUAWEI/Drivers/BSP/Components/lis2mdl\lis2mdl.c ****   Capabilities->MagMaxFS     = 50;
  43              		.loc 1 233 3 view .LVU8
 234:D:/fchai/work/i-cube/I-CUBE-HUAWEI/Drivers/BSP/Components/lis2mdl\lis2mdl.c ****   Capabilities->GyroMaxOdr   = 0.0f;
  44              		.loc 1 234 3 view .LVU9
 235:D:/fchai/work/i-cube/I-CUBE-HUAWEI/Drivers/BSP/Components/lis2mdl\lis2mdl.c ****   Capabilities->AccMaxOdr    = 0.0f;
  45              		.loc 1 235 3 view .LVU10
 236:D:/fchai/work/i-cube/I-CUBE-HUAWEI/Drivers/BSP/Components/lis2mdl\lis2mdl.c ****   Capabilities->MagMaxOdr    = 100.0f;
  46              		.loc 1 236 3 view .LVU11
  47              		.loc 1 236 30 is_stmt 0 view .LVU12
  48 0000 084A     		ldr	r2, .L4
  49 0002 8A61     		str	r2, [r1, #24]	@ float
 237:D:/fchai/work/i-cube/I-CUBE-HUAWEI/Drivers/BSP/Components/lis2mdl\lis2mdl.c ****   return LIS2MDL_OK;
ARM GAS  T:\msys\tmp\cc50myQj.s 			page 6


  50              		.loc 1 237 3 is_stmt 1 view .LVU13
 223:D:/fchai/work/i-cube/I-CUBE-HUAWEI/Drivers/BSP/Components/lis2mdl\lis2mdl.c ****   /* Prevent unused argument(s) compilation warning */
  51              		.loc 1 223 1 is_stmt 0 view .LVU14
  52 0004 10B4     		push	{r4}
  53              	.LCFI0:
  54              		.cfi_def_cfa_offset 4
  55              		.cfi_offset 4, -4
 234:D:/fchai/work/i-cube/I-CUBE-HUAWEI/Drivers/BSP/Components/lis2mdl\lis2mdl.c ****   Capabilities->AccMaxOdr    = 0.0f;
  56              		.loc 1 234 30 view .LVU15
  57 0006 0023     		movs	r3, #0
 227:D:/fchai/work/i-cube/I-CUBE-HUAWEI/Drivers/BSP/Components/lis2mdl\lis2mdl.c ****   Capabilities->Gyro         = 0;
  58              		.loc 1 227 30 view .LVU16
  59 0008 4FF48034 		mov	r4, #65536
 231:D:/fchai/work/i-cube/I-CUBE-HUAWEI/Drivers/BSP/Components/lis2mdl\lis2mdl.c ****   Capabilities->AccMaxFS     = 0;
  60              		.loc 1 231 30 view .LVU17
  61 000c 0020     		movs	r0, #0
  62              	.LVL1:
 233:D:/fchai/work/i-cube/I-CUBE-HUAWEI/Drivers/BSP/Components/lis2mdl\lis2mdl.c ****   Capabilities->GyroMaxOdr   = 0.0f;
  63              		.loc 1 233 30 view .LVU18
  64 000e 3222     		movs	r2, #50
 227:D:/fchai/work/i-cube/I-CUBE-HUAWEI/Drivers/BSP/Components/lis2mdl\lis2mdl.c ****   Capabilities->Gyro         = 0;
  65              		.loc 1 227 30 view .LVU19
  66 0010 0C60     		str	r4, [r1]
 232:D:/fchai/work/i-cube/I-CUBE-HUAWEI/Drivers/BSP/Components/lis2mdl\lis2mdl.c ****   Capabilities->MagMaxFS     = 50;
  67              		.loc 1 232 30 view .LVU20
  68 0012 C1E90100 		strd	r0, r0, [r1, #4]
 238:D:/fchai/work/i-cube/I-CUBE-HUAWEI/Drivers/BSP/Components/lis2mdl\lis2mdl.c **** }
  69              		.loc 1 238 1 view .LVU21
  70 0016 5DF8044B 		ldr	r4, [sp], #4
  71              	.LCFI1:
  72              		.cfi_restore 4
  73              		.cfi_def_cfa_offset 0
 233:D:/fchai/work/i-cube/I-CUBE-HUAWEI/Drivers/BSP/Components/lis2mdl\lis2mdl.c ****   Capabilities->GyroMaxOdr   = 0.0f;
  74              		.loc 1 233 30 view .LVU22
  75 001a CA60     		str	r2, [r1, #12]
 234:D:/fchai/work/i-cube/I-CUBE-HUAWEI/Drivers/BSP/Components/lis2mdl\lis2mdl.c ****   Capabilities->AccMaxOdr    = 0.0f;
  76              		.loc 1 234 30 view .LVU23
  77 001c 0B61     		str	r3, [r1, #16]	@ float
 235:D:/fchai/work/i-cube/I-CUBE-HUAWEI/Drivers/BSP/Components/lis2mdl\lis2mdl.c ****   Capabilities->MagMaxOdr    = 100.0f;
  78              		.loc 1 235 30 view .LVU24
  79 001e 4B61     		str	r3, [r1, #20]	@ float
  80              		.loc 1 238 1 view .LVU25
  81 0020 7047     		bx	lr
  82              	.L5:
  83 0022 00BF     		.align	2
  84              	.L4:
  85 0024 0000C842 		.word	1120403456
  86              		.cfi_endproc
  87              	.LFE4:
  89              		.section	.text.LIS2MDL_MAG_GetSensitivity,"ax",%progbits
  90              		.align	1
  91              		.p2align 2,,3
  92              		.global	LIS2MDL_MAG_GetSensitivity
  93              		.syntax unified
  94              		.thumb
  95              		.thumb_func
  96              		.fpu fpv4-sp-d16
ARM GAS  T:\msys\tmp\cc50myQj.s 			page 7


  98              	LIS2MDL_MAG_GetSensitivity:
  99              	.LVL2:
 100              	.LFB7:
 239:D:/fchai/work/i-cube/I-CUBE-HUAWEI/Drivers/BSP/Components/lis2mdl\lis2mdl.c **** 
 240:D:/fchai/work/i-cube/I-CUBE-HUAWEI/Drivers/BSP/Components/lis2mdl\lis2mdl.c **** /**
 241:D:/fchai/work/i-cube/I-CUBE-HUAWEI/Drivers/BSP/Components/lis2mdl\lis2mdl.c ****  * @brief Enable the LIS2MDL magnetometer sensor
 242:D:/fchai/work/i-cube/I-CUBE-HUAWEI/Drivers/BSP/Components/lis2mdl\lis2mdl.c ****  * @param pObj the device pObj
 243:D:/fchai/work/i-cube/I-CUBE-HUAWEI/Drivers/BSP/Components/lis2mdl\lis2mdl.c ****  * @retval 0 in case of success, an error code otherwise
 244:D:/fchai/work/i-cube/I-CUBE-HUAWEI/Drivers/BSP/Components/lis2mdl\lis2mdl.c ****  */
 245:D:/fchai/work/i-cube/I-CUBE-HUAWEI/Drivers/BSP/Components/lis2mdl\lis2mdl.c **** int32_t LIS2MDL_MAG_Enable(LIS2MDL_Object_t *pObj)
 246:D:/fchai/work/i-cube/I-CUBE-HUAWEI/Drivers/BSP/Components/lis2mdl\lis2mdl.c **** {
 247:D:/fchai/work/i-cube/I-CUBE-HUAWEI/Drivers/BSP/Components/lis2mdl\lis2mdl.c ****   /* Check if the component is already enabled */
 248:D:/fchai/work/i-cube/I-CUBE-HUAWEI/Drivers/BSP/Components/lis2mdl\lis2mdl.c ****   if (pObj->mag_is_enabled == 1U)
 249:D:/fchai/work/i-cube/I-CUBE-HUAWEI/Drivers/BSP/Components/lis2mdl\lis2mdl.c ****   {
 250:D:/fchai/work/i-cube/I-CUBE-HUAWEI/Drivers/BSP/Components/lis2mdl\lis2mdl.c ****     return LIS2MDL_OK;
 251:D:/fchai/work/i-cube/I-CUBE-HUAWEI/Drivers/BSP/Components/lis2mdl\lis2mdl.c ****   }
 252:D:/fchai/work/i-cube/I-CUBE-HUAWEI/Drivers/BSP/Components/lis2mdl\lis2mdl.c **** 
 253:D:/fchai/work/i-cube/I-CUBE-HUAWEI/Drivers/BSP/Components/lis2mdl\lis2mdl.c ****   /* Output data rate selection. */
 254:D:/fchai/work/i-cube/I-CUBE-HUAWEI/Drivers/BSP/Components/lis2mdl\lis2mdl.c ****   if (lis2mdl_operating_mode_set(&(pObj->Ctx), LIS2MDL_CONTINUOUS_MODE) != LIS2MDL_OK)
 255:D:/fchai/work/i-cube/I-CUBE-HUAWEI/Drivers/BSP/Components/lis2mdl\lis2mdl.c ****   {
 256:D:/fchai/work/i-cube/I-CUBE-HUAWEI/Drivers/BSP/Components/lis2mdl\lis2mdl.c ****     return LIS2MDL_ERROR;
 257:D:/fchai/work/i-cube/I-CUBE-HUAWEI/Drivers/BSP/Components/lis2mdl\lis2mdl.c ****   }
 258:D:/fchai/work/i-cube/I-CUBE-HUAWEI/Drivers/BSP/Components/lis2mdl\lis2mdl.c **** 
 259:D:/fchai/work/i-cube/I-CUBE-HUAWEI/Drivers/BSP/Components/lis2mdl\lis2mdl.c ****   pObj->mag_is_enabled = 1;
 260:D:/fchai/work/i-cube/I-CUBE-HUAWEI/Drivers/BSP/Components/lis2mdl\lis2mdl.c **** 
 261:D:/fchai/work/i-cube/I-CUBE-HUAWEI/Drivers/BSP/Components/lis2mdl\lis2mdl.c ****   return LIS2MDL_OK;
 262:D:/fchai/work/i-cube/I-CUBE-HUAWEI/Drivers/BSP/Components/lis2mdl\lis2mdl.c **** }
 263:D:/fchai/work/i-cube/I-CUBE-HUAWEI/Drivers/BSP/Components/lis2mdl\lis2mdl.c **** 
 264:D:/fchai/work/i-cube/I-CUBE-HUAWEI/Drivers/BSP/Components/lis2mdl\lis2mdl.c **** /**
 265:D:/fchai/work/i-cube/I-CUBE-HUAWEI/Drivers/BSP/Components/lis2mdl\lis2mdl.c ****  * @brief Disable the LIS2MDL magnetometer sensor
 266:D:/fchai/work/i-cube/I-CUBE-HUAWEI/Drivers/BSP/Components/lis2mdl\lis2mdl.c ****  * @param pObj the device pObj
 267:D:/fchai/work/i-cube/I-CUBE-HUAWEI/Drivers/BSP/Components/lis2mdl\lis2mdl.c ****  * @retval 0 in case of success, an error code otherwise
 268:D:/fchai/work/i-cube/I-CUBE-HUAWEI/Drivers/BSP/Components/lis2mdl\lis2mdl.c ****  */
 269:D:/fchai/work/i-cube/I-CUBE-HUAWEI/Drivers/BSP/Components/lis2mdl\lis2mdl.c **** int32_t LIS2MDL_MAG_Disable(LIS2MDL_Object_t *pObj)
 270:D:/fchai/work/i-cube/I-CUBE-HUAWEI/Drivers/BSP/Components/lis2mdl\lis2mdl.c **** {
 271:D:/fchai/work/i-cube/I-CUBE-HUAWEI/Drivers/BSP/Components/lis2mdl\lis2mdl.c ****   /* Check if the component is already disabled */
 272:D:/fchai/work/i-cube/I-CUBE-HUAWEI/Drivers/BSP/Components/lis2mdl\lis2mdl.c ****   if (pObj->mag_is_enabled == 0U)
 273:D:/fchai/work/i-cube/I-CUBE-HUAWEI/Drivers/BSP/Components/lis2mdl\lis2mdl.c ****   {
 274:D:/fchai/work/i-cube/I-CUBE-HUAWEI/Drivers/BSP/Components/lis2mdl\lis2mdl.c ****     return LIS2MDL_OK;
 275:D:/fchai/work/i-cube/I-CUBE-HUAWEI/Drivers/BSP/Components/lis2mdl\lis2mdl.c ****   }
 276:D:/fchai/work/i-cube/I-CUBE-HUAWEI/Drivers/BSP/Components/lis2mdl\lis2mdl.c **** 
 277:D:/fchai/work/i-cube/I-CUBE-HUAWEI/Drivers/BSP/Components/lis2mdl\lis2mdl.c ****   /* Output data rate selection - power down. */
 278:D:/fchai/work/i-cube/I-CUBE-HUAWEI/Drivers/BSP/Components/lis2mdl\lis2mdl.c ****   if (lis2mdl_operating_mode_set(&(pObj->Ctx), LIS2MDL_POWER_DOWN) != LIS2MDL_OK)
 279:D:/fchai/work/i-cube/I-CUBE-HUAWEI/Drivers/BSP/Components/lis2mdl\lis2mdl.c ****   {
 280:D:/fchai/work/i-cube/I-CUBE-HUAWEI/Drivers/BSP/Components/lis2mdl\lis2mdl.c ****     return LIS2MDL_ERROR;
 281:D:/fchai/work/i-cube/I-CUBE-HUAWEI/Drivers/BSP/Components/lis2mdl\lis2mdl.c ****   }
 282:D:/fchai/work/i-cube/I-CUBE-HUAWEI/Drivers/BSP/Components/lis2mdl\lis2mdl.c **** 
 283:D:/fchai/work/i-cube/I-CUBE-HUAWEI/Drivers/BSP/Components/lis2mdl\lis2mdl.c ****   pObj->mag_is_enabled = 0;
 284:D:/fchai/work/i-cube/I-CUBE-HUAWEI/Drivers/BSP/Components/lis2mdl\lis2mdl.c **** 
 285:D:/fchai/work/i-cube/I-CUBE-HUAWEI/Drivers/BSP/Components/lis2mdl\lis2mdl.c ****   return LIS2MDL_OK;
 286:D:/fchai/work/i-cube/I-CUBE-HUAWEI/Drivers/BSP/Components/lis2mdl\lis2mdl.c **** }
 287:D:/fchai/work/i-cube/I-CUBE-HUAWEI/Drivers/BSP/Components/lis2mdl\lis2mdl.c **** 
 288:D:/fchai/work/i-cube/I-CUBE-HUAWEI/Drivers/BSP/Components/lis2mdl\lis2mdl.c **** /**
 289:D:/fchai/work/i-cube/I-CUBE-HUAWEI/Drivers/BSP/Components/lis2mdl\lis2mdl.c ****  * @brief  Get the LIS2MDL magnetometer sensor sensitivity
 290:D:/fchai/work/i-cube/I-CUBE-HUAWEI/Drivers/BSP/Components/lis2mdl\lis2mdl.c ****  * @param  pObj the device pObj
 291:D:/fchai/work/i-cube/I-CUBE-HUAWEI/Drivers/BSP/Components/lis2mdl\lis2mdl.c ****  * @param  Sensitivity pointer
 292:D:/fchai/work/i-cube/I-CUBE-HUAWEI/Drivers/BSP/Components/lis2mdl\lis2mdl.c ****  * @retval 0 in case of success, an error code otherwise
ARM GAS  T:\msys\tmp\cc50myQj.s 			page 8


 293:D:/fchai/work/i-cube/I-CUBE-HUAWEI/Drivers/BSP/Components/lis2mdl\lis2mdl.c ****  */
 294:D:/fchai/work/i-cube/I-CUBE-HUAWEI/Drivers/BSP/Components/lis2mdl\lis2mdl.c **** int32_t LIS2MDL_MAG_GetSensitivity(LIS2MDL_Object_t *pObj, float *Sensitivity)
 295:D:/fchai/work/i-cube/I-CUBE-HUAWEI/Drivers/BSP/Components/lis2mdl\lis2mdl.c **** {
 101              		.loc 1 295 1 is_stmt 1 view -0
 102              		.cfi_startproc
 103              		@ args = 0, pretend = 0, frame = 0
 104              		@ frame_needed = 0, uses_anonymous_args = 0
 105              		@ link register save eliminated.
 296:D:/fchai/work/i-cube/I-CUBE-HUAWEI/Drivers/BSP/Components/lis2mdl\lis2mdl.c ****   *Sensitivity = LIS2MDL_MAG_SENSITIVITY_FS_50GAUSS;
 106              		.loc 1 296 3 view .LVU27
 107              		.loc 1 296 16 is_stmt 0 view .LVU28
 108 0000 4FF07F53 		mov	r3, #1069547520
 109 0004 0B60     		str	r3, [r1]	@ float
 297:D:/fchai/work/i-cube/I-CUBE-HUAWEI/Drivers/BSP/Components/lis2mdl\lis2mdl.c **** 
 298:D:/fchai/work/i-cube/I-CUBE-HUAWEI/Drivers/BSP/Components/lis2mdl\lis2mdl.c ****   return LIS2MDL_OK;
 110              		.loc 1 298 3 is_stmt 1 view .LVU29
 299:D:/fchai/work/i-cube/I-CUBE-HUAWEI/Drivers/BSP/Components/lis2mdl\lis2mdl.c **** }
 111              		.loc 1 299 1 is_stmt 0 view .LVU30
 112 0006 0020     		movs	r0, #0
 113              	.LVL3:
 114              		.loc 1 299 1 view .LVU31
 115 0008 7047     		bx	lr
 116              		.cfi_endproc
 117              	.LFE7:
 119 000a 00BF     		.section	.text.LIS2MDL_MAG_GetFullScale,"ax",%progbits
 120              		.align	1
 121              		.p2align 2,,3
 122              		.global	LIS2MDL_MAG_GetFullScale
 123              		.syntax unified
 124              		.thumb
 125              		.thumb_func
 126              		.fpu fpv4-sp-d16
 128              	LIS2MDL_MAG_GetFullScale:
 129              	.LVL4:
 130              	.LFB10:
 300:D:/fchai/work/i-cube/I-CUBE-HUAWEI/Drivers/BSP/Components/lis2mdl\lis2mdl.c **** 
 301:D:/fchai/work/i-cube/I-CUBE-HUAWEI/Drivers/BSP/Components/lis2mdl\lis2mdl.c **** /**
 302:D:/fchai/work/i-cube/I-CUBE-HUAWEI/Drivers/BSP/Components/lis2mdl\lis2mdl.c ****  * @brief  Get the LIS2MDL magnetometer sensor output data rate
 303:D:/fchai/work/i-cube/I-CUBE-HUAWEI/Drivers/BSP/Components/lis2mdl\lis2mdl.c ****  * @param  pObj the device pObj
 304:D:/fchai/work/i-cube/I-CUBE-HUAWEI/Drivers/BSP/Components/lis2mdl\lis2mdl.c ****  * @param  Odr pointer where the output data rate is written
 305:D:/fchai/work/i-cube/I-CUBE-HUAWEI/Drivers/BSP/Components/lis2mdl\lis2mdl.c ****  * @retval 0 in case of success, an error code otherwise
 306:D:/fchai/work/i-cube/I-CUBE-HUAWEI/Drivers/BSP/Components/lis2mdl\lis2mdl.c ****  */
 307:D:/fchai/work/i-cube/I-CUBE-HUAWEI/Drivers/BSP/Components/lis2mdl\lis2mdl.c **** int32_t LIS2MDL_MAG_GetOutputDataRate(LIS2MDL_Object_t *pObj, float *Odr)
 308:D:/fchai/work/i-cube/I-CUBE-HUAWEI/Drivers/BSP/Components/lis2mdl\lis2mdl.c **** {
 309:D:/fchai/work/i-cube/I-CUBE-HUAWEI/Drivers/BSP/Components/lis2mdl\lis2mdl.c ****   int32_t ret = LIS2MDL_OK;
 310:D:/fchai/work/i-cube/I-CUBE-HUAWEI/Drivers/BSP/Components/lis2mdl\lis2mdl.c ****   lis2mdl_odr_t odr_low_level;
 311:D:/fchai/work/i-cube/I-CUBE-HUAWEI/Drivers/BSP/Components/lis2mdl\lis2mdl.c **** 
 312:D:/fchai/work/i-cube/I-CUBE-HUAWEI/Drivers/BSP/Components/lis2mdl\lis2mdl.c ****   /* Get current output data rate. */
 313:D:/fchai/work/i-cube/I-CUBE-HUAWEI/Drivers/BSP/Components/lis2mdl\lis2mdl.c ****   if (lis2mdl_data_rate_get(&(pObj->Ctx), &odr_low_level) != LIS2MDL_OK)
 314:D:/fchai/work/i-cube/I-CUBE-HUAWEI/Drivers/BSP/Components/lis2mdl\lis2mdl.c ****   {
 315:D:/fchai/work/i-cube/I-CUBE-HUAWEI/Drivers/BSP/Components/lis2mdl\lis2mdl.c ****     return LIS2MDL_ERROR;
 316:D:/fchai/work/i-cube/I-CUBE-HUAWEI/Drivers/BSP/Components/lis2mdl\lis2mdl.c ****   }
 317:D:/fchai/work/i-cube/I-CUBE-HUAWEI/Drivers/BSP/Components/lis2mdl\lis2mdl.c **** 
 318:D:/fchai/work/i-cube/I-CUBE-HUAWEI/Drivers/BSP/Components/lis2mdl\lis2mdl.c ****   switch (odr_low_level)
 319:D:/fchai/work/i-cube/I-CUBE-HUAWEI/Drivers/BSP/Components/lis2mdl\lis2mdl.c ****   {
 320:D:/fchai/work/i-cube/I-CUBE-HUAWEI/Drivers/BSP/Components/lis2mdl\lis2mdl.c ****     case LIS2MDL_ODR_10Hz:
 321:D:/fchai/work/i-cube/I-CUBE-HUAWEI/Drivers/BSP/Components/lis2mdl\lis2mdl.c ****       *Odr = 10.0f;
ARM GAS  T:\msys\tmp\cc50myQj.s 			page 9


 322:D:/fchai/work/i-cube/I-CUBE-HUAWEI/Drivers/BSP/Components/lis2mdl\lis2mdl.c ****       break;
 323:D:/fchai/work/i-cube/I-CUBE-HUAWEI/Drivers/BSP/Components/lis2mdl\lis2mdl.c **** 
 324:D:/fchai/work/i-cube/I-CUBE-HUAWEI/Drivers/BSP/Components/lis2mdl\lis2mdl.c ****     case LIS2MDL_ODR_20Hz:
 325:D:/fchai/work/i-cube/I-CUBE-HUAWEI/Drivers/BSP/Components/lis2mdl\lis2mdl.c ****       *Odr = 20.0f;
 326:D:/fchai/work/i-cube/I-CUBE-HUAWEI/Drivers/BSP/Components/lis2mdl\lis2mdl.c ****       break;
 327:D:/fchai/work/i-cube/I-CUBE-HUAWEI/Drivers/BSP/Components/lis2mdl\lis2mdl.c **** 
 328:D:/fchai/work/i-cube/I-CUBE-HUAWEI/Drivers/BSP/Components/lis2mdl\lis2mdl.c ****     case LIS2MDL_ODR_50Hz:
 329:D:/fchai/work/i-cube/I-CUBE-HUAWEI/Drivers/BSP/Components/lis2mdl\lis2mdl.c ****       *Odr = 50.0f;
 330:D:/fchai/work/i-cube/I-CUBE-HUAWEI/Drivers/BSP/Components/lis2mdl\lis2mdl.c ****       break;
 331:D:/fchai/work/i-cube/I-CUBE-HUAWEI/Drivers/BSP/Components/lis2mdl\lis2mdl.c **** 
 332:D:/fchai/work/i-cube/I-CUBE-HUAWEI/Drivers/BSP/Components/lis2mdl\lis2mdl.c ****     case LIS2MDL_ODR_100Hz:
 333:D:/fchai/work/i-cube/I-CUBE-HUAWEI/Drivers/BSP/Components/lis2mdl\lis2mdl.c ****       *Odr = 100.0f;
 334:D:/fchai/work/i-cube/I-CUBE-HUAWEI/Drivers/BSP/Components/lis2mdl\lis2mdl.c ****       break;
 335:D:/fchai/work/i-cube/I-CUBE-HUAWEI/Drivers/BSP/Components/lis2mdl\lis2mdl.c **** 
 336:D:/fchai/work/i-cube/I-CUBE-HUAWEI/Drivers/BSP/Components/lis2mdl\lis2mdl.c ****     default:
 337:D:/fchai/work/i-cube/I-CUBE-HUAWEI/Drivers/BSP/Components/lis2mdl\lis2mdl.c ****       ret = LIS2MDL_ERROR;
 338:D:/fchai/work/i-cube/I-CUBE-HUAWEI/Drivers/BSP/Components/lis2mdl\lis2mdl.c ****       break;
 339:D:/fchai/work/i-cube/I-CUBE-HUAWEI/Drivers/BSP/Components/lis2mdl\lis2mdl.c ****   }
 340:D:/fchai/work/i-cube/I-CUBE-HUAWEI/Drivers/BSP/Components/lis2mdl\lis2mdl.c **** 
 341:D:/fchai/work/i-cube/I-CUBE-HUAWEI/Drivers/BSP/Components/lis2mdl\lis2mdl.c ****   return ret;
 342:D:/fchai/work/i-cube/I-CUBE-HUAWEI/Drivers/BSP/Components/lis2mdl\lis2mdl.c **** }
 343:D:/fchai/work/i-cube/I-CUBE-HUAWEI/Drivers/BSP/Components/lis2mdl\lis2mdl.c **** 
 344:D:/fchai/work/i-cube/I-CUBE-HUAWEI/Drivers/BSP/Components/lis2mdl\lis2mdl.c **** /**
 345:D:/fchai/work/i-cube/I-CUBE-HUAWEI/Drivers/BSP/Components/lis2mdl\lis2mdl.c ****  * @brief  Set the LIS2MDL magnetometer sensor output data rate
 346:D:/fchai/work/i-cube/I-CUBE-HUAWEI/Drivers/BSP/Components/lis2mdl\lis2mdl.c ****  * @param  pObj the device pObj
 347:D:/fchai/work/i-cube/I-CUBE-HUAWEI/Drivers/BSP/Components/lis2mdl\lis2mdl.c ****  * @param  Odr the output data rate value to be set
 348:D:/fchai/work/i-cube/I-CUBE-HUAWEI/Drivers/BSP/Components/lis2mdl\lis2mdl.c ****  * @retval 0 in case of success, an error code otherwise
 349:D:/fchai/work/i-cube/I-CUBE-HUAWEI/Drivers/BSP/Components/lis2mdl\lis2mdl.c ****  */
 350:D:/fchai/work/i-cube/I-CUBE-HUAWEI/Drivers/BSP/Components/lis2mdl\lis2mdl.c **** int32_t LIS2MDL_MAG_SetOutputDataRate(LIS2MDL_Object_t *pObj, float Odr)
 351:D:/fchai/work/i-cube/I-CUBE-HUAWEI/Drivers/BSP/Components/lis2mdl\lis2mdl.c **** {
 352:D:/fchai/work/i-cube/I-CUBE-HUAWEI/Drivers/BSP/Components/lis2mdl\lis2mdl.c ****   lis2mdl_odr_t new_odr;
 353:D:/fchai/work/i-cube/I-CUBE-HUAWEI/Drivers/BSP/Components/lis2mdl\lis2mdl.c **** 
 354:D:/fchai/work/i-cube/I-CUBE-HUAWEI/Drivers/BSP/Components/lis2mdl\lis2mdl.c ****   new_odr = (Odr <= 10.000f) ? LIS2MDL_ODR_10Hz
 355:D:/fchai/work/i-cube/I-CUBE-HUAWEI/Drivers/BSP/Components/lis2mdl\lis2mdl.c ****             : (Odr <= 20.000f) ? LIS2MDL_ODR_20Hz
 356:D:/fchai/work/i-cube/I-CUBE-HUAWEI/Drivers/BSP/Components/lis2mdl\lis2mdl.c ****             : (Odr <= 50.000f) ? LIS2MDL_ODR_50Hz
 357:D:/fchai/work/i-cube/I-CUBE-HUAWEI/Drivers/BSP/Components/lis2mdl\lis2mdl.c ****             :                    LIS2MDL_ODR_100Hz;
 358:D:/fchai/work/i-cube/I-CUBE-HUAWEI/Drivers/BSP/Components/lis2mdl\lis2mdl.c **** 
 359:D:/fchai/work/i-cube/I-CUBE-HUAWEI/Drivers/BSP/Components/lis2mdl\lis2mdl.c ****   if (lis2mdl_data_rate_set(&(pObj->Ctx), new_odr) != LIS2MDL_OK)
 360:D:/fchai/work/i-cube/I-CUBE-HUAWEI/Drivers/BSP/Components/lis2mdl\lis2mdl.c ****   {
 361:D:/fchai/work/i-cube/I-CUBE-HUAWEI/Drivers/BSP/Components/lis2mdl\lis2mdl.c ****     return LIS2MDL_ERROR;
 362:D:/fchai/work/i-cube/I-CUBE-HUAWEI/Drivers/BSP/Components/lis2mdl\lis2mdl.c ****   }
 363:D:/fchai/work/i-cube/I-CUBE-HUAWEI/Drivers/BSP/Components/lis2mdl\lis2mdl.c **** 
 364:D:/fchai/work/i-cube/I-CUBE-HUAWEI/Drivers/BSP/Components/lis2mdl\lis2mdl.c ****   return LIS2MDL_OK;
 365:D:/fchai/work/i-cube/I-CUBE-HUAWEI/Drivers/BSP/Components/lis2mdl\lis2mdl.c **** }
 366:D:/fchai/work/i-cube/I-CUBE-HUAWEI/Drivers/BSP/Components/lis2mdl\lis2mdl.c **** 
 367:D:/fchai/work/i-cube/I-CUBE-HUAWEI/Drivers/BSP/Components/lis2mdl\lis2mdl.c **** 
 368:D:/fchai/work/i-cube/I-CUBE-HUAWEI/Drivers/BSP/Components/lis2mdl\lis2mdl.c **** /**
 369:D:/fchai/work/i-cube/I-CUBE-HUAWEI/Drivers/BSP/Components/lis2mdl\lis2mdl.c ****  * @brief  Get the LIS2MDL magnetometer sensor full scale
 370:D:/fchai/work/i-cube/I-CUBE-HUAWEI/Drivers/BSP/Components/lis2mdl\lis2mdl.c ****  * @param  pObj the device pObj
 371:D:/fchai/work/i-cube/I-CUBE-HUAWEI/Drivers/BSP/Components/lis2mdl\lis2mdl.c ****  * @param  FullScale pointer where the full scale is written
 372:D:/fchai/work/i-cube/I-CUBE-HUAWEI/Drivers/BSP/Components/lis2mdl\lis2mdl.c ****  * @retval 0 in case of success, an error code otherwise
 373:D:/fchai/work/i-cube/I-CUBE-HUAWEI/Drivers/BSP/Components/lis2mdl\lis2mdl.c ****  */
 374:D:/fchai/work/i-cube/I-CUBE-HUAWEI/Drivers/BSP/Components/lis2mdl\lis2mdl.c **** int32_t LIS2MDL_MAG_GetFullScale(LIS2MDL_Object_t *pObj, int32_t *FullScale)
 375:D:/fchai/work/i-cube/I-CUBE-HUAWEI/Drivers/BSP/Components/lis2mdl\lis2mdl.c **** {
 131              		.loc 1 375 1 is_stmt 1 view -0
 132              		.cfi_startproc
 133              		@ args = 0, pretend = 0, frame = 0
ARM GAS  T:\msys\tmp\cc50myQj.s 			page 10


 134              		@ frame_needed = 0, uses_anonymous_args = 0
 135              		@ link register save eliminated.
 376:D:/fchai/work/i-cube/I-CUBE-HUAWEI/Drivers/BSP/Components/lis2mdl\lis2mdl.c ****   *FullScale = 50;
 136              		.loc 1 376 3 view .LVU33
 137              		.loc 1 376 14 is_stmt 0 view .LVU34
 138 0000 3223     		movs	r3, #50
 139 0002 0B60     		str	r3, [r1]
 377:D:/fchai/work/i-cube/I-CUBE-HUAWEI/Drivers/BSP/Components/lis2mdl\lis2mdl.c **** 
 378:D:/fchai/work/i-cube/I-CUBE-HUAWEI/Drivers/BSP/Components/lis2mdl\lis2mdl.c ****   return LIS2MDL_OK;
 140              		.loc 1 378 3 is_stmt 1 view .LVU35
 379:D:/fchai/work/i-cube/I-CUBE-HUAWEI/Drivers/BSP/Components/lis2mdl\lis2mdl.c **** }
 141              		.loc 1 379 1 is_stmt 0 view .LVU36
 142 0004 0020     		movs	r0, #0
 143              	.LVL5:
 144              		.loc 1 379 1 view .LVU37
 145 0006 7047     		bx	lr
 146              		.cfi_endproc
 147              	.LFE10:
 149              		.section	.text.LIS2MDL_MAG_SetFullScale,"ax",%progbits
 150              		.align	1
 151              		.p2align 2,,3
 152              		.global	LIS2MDL_MAG_SetFullScale
 153              		.syntax unified
 154              		.thumb
 155              		.thumb_func
 156              		.fpu fpv4-sp-d16
 158              	LIS2MDL_MAG_SetFullScale:
 159              	.LVL6:
 160              	.LFB11:
 380:D:/fchai/work/i-cube/I-CUBE-HUAWEI/Drivers/BSP/Components/lis2mdl\lis2mdl.c **** 
 381:D:/fchai/work/i-cube/I-CUBE-HUAWEI/Drivers/BSP/Components/lis2mdl\lis2mdl.c **** /**
 382:D:/fchai/work/i-cube/I-CUBE-HUAWEI/Drivers/BSP/Components/lis2mdl\lis2mdl.c ****  * @brief  Set the LIS2MDL magnetometer sensor full scale
 383:D:/fchai/work/i-cube/I-CUBE-HUAWEI/Drivers/BSP/Components/lis2mdl\lis2mdl.c ****  * @param  pObj the device pObj
 384:D:/fchai/work/i-cube/I-CUBE-HUAWEI/Drivers/BSP/Components/lis2mdl\lis2mdl.c ****  * @param  FullScale the functional full scale to be set
 385:D:/fchai/work/i-cube/I-CUBE-HUAWEI/Drivers/BSP/Components/lis2mdl\lis2mdl.c ****  * @retval 0 in case of success, an error code otherwise
 386:D:/fchai/work/i-cube/I-CUBE-HUAWEI/Drivers/BSP/Components/lis2mdl\lis2mdl.c ****  */
 387:D:/fchai/work/i-cube/I-CUBE-HUAWEI/Drivers/BSP/Components/lis2mdl\lis2mdl.c **** int32_t LIS2MDL_MAG_SetFullScale(LIS2MDL_Object_t *pObj, int32_t FullScale)
 388:D:/fchai/work/i-cube/I-CUBE-HUAWEI/Drivers/BSP/Components/lis2mdl\lis2mdl.c **** {
 161              		.loc 1 388 1 is_stmt 1 view -0
 162              		.cfi_startproc
 163              		@ args = 0, pretend = 0, frame = 0
 164              		@ frame_needed = 0, uses_anonymous_args = 0
 165              		@ link register save eliminated.
 389:D:/fchai/work/i-cube/I-CUBE-HUAWEI/Drivers/BSP/Components/lis2mdl\lis2mdl.c ****   return LIS2MDL_OK;
 166              		.loc 1 389 3 view .LVU39
 390:D:/fchai/work/i-cube/I-CUBE-HUAWEI/Drivers/BSP/Components/lis2mdl\lis2mdl.c **** }
 167              		.loc 1 390 1 is_stmt 0 view .LVU40
 168 0000 0020     		movs	r0, #0
 169              	.LVL7:
 170              		.loc 1 390 1 view .LVU41
 171 0002 7047     		bx	lr
 172              		.cfi_endproc
 173              	.LFE11:
 175              		.section	.text.LIS2MDL_MAG_SetOutputDataRate,"ax",%progbits
 176              		.align	1
 177              		.p2align 2,,3
 178              		.global	LIS2MDL_MAG_SetOutputDataRate
ARM GAS  T:\msys\tmp\cc50myQj.s 			page 11


 179              		.syntax unified
 180              		.thumb
 181              		.thumb_func
 182              		.fpu fpv4-sp-d16
 184              	LIS2MDL_MAG_SetOutputDataRate:
 185              	.LVL8:
 186              	.LFB9:
 351:D:/fchai/work/i-cube/I-CUBE-HUAWEI/Drivers/BSP/Components/lis2mdl\lis2mdl.c ****   lis2mdl_odr_t new_odr;
 187              		.loc 1 351 1 is_stmt 1 view -0
 188              		.cfi_startproc
 189              		@ args = 0, pretend = 0, frame = 0
 190              		@ frame_needed = 0, uses_anonymous_args = 0
 352:D:/fchai/work/i-cube/I-CUBE-HUAWEI/Drivers/BSP/Components/lis2mdl\lis2mdl.c **** 
 191              		.loc 1 352 3 view .LVU43
 354:D:/fchai/work/i-cube/I-CUBE-HUAWEI/Drivers/BSP/Components/lis2mdl\lis2mdl.c ****             : (Odr <= 20.000f) ? LIS2MDL_ODR_20Hz
 192              		.loc 1 354 3 view .LVU44
 355:D:/fchai/work/i-cube/I-CUBE-HUAWEI/Drivers/BSP/Components/lis2mdl\lis2mdl.c ****             : (Odr <= 50.000f) ? LIS2MDL_ODR_50Hz
 193              		.loc 1 355 13 is_stmt 0 view .LVU45
 194 0000 F2EE047A 		vmov.f32	s15, #1.0e+1
 195 0004 B4EEE70A 		vcmpe.f32	s0, s15
 196 0008 F1EE10FA 		vmrs	APSR_nzcv, FPSCR
 351:D:/fchai/work/i-cube/I-CUBE-HUAWEI/Drivers/BSP/Components/lis2mdl\lis2mdl.c ****   lis2mdl_odr_t new_odr;
 197              		.loc 1 351 1 view .LVU46
 198 000c 08B5     		push	{r3, lr}
 199              	.LCFI2:
 200              		.cfi_def_cfa_offset 8
 201              		.cfi_offset 3, -8
 202              		.cfi_offset 14, -4
 355:D:/fchai/work/i-cube/I-CUBE-HUAWEI/Drivers/BSP/Components/lis2mdl\lis2mdl.c ****             : (Odr <= 50.000f) ? LIS2MDL_ODR_50Hz
 203              		.loc 1 355 13 view .LVU47
 204 000e 08D9     		bls	.L11
 355:D:/fchai/work/i-cube/I-CUBE-HUAWEI/Drivers/BSP/Components/lis2mdl\lis2mdl.c ****             : (Odr <= 50.000f) ? LIS2MDL_ODR_50Hz
 205              		.loc 1 355 13 discriminator 2 view .LVU48
 206 0010 F3EE047A 		vmov.f32	s15, #2.0e+1
 207 0014 B4EEE70A 		vcmpe.f32	s0, s15
 208 0018 F1EE10FA 		vmrs	APSR_nzcv, FPSCR
 209 001c 0AD8     		bhi	.L15
 355:D:/fchai/work/i-cube/I-CUBE-HUAWEI/Drivers/BSP/Components/lis2mdl\lis2mdl.c ****             : (Odr <= 50.000f) ? LIS2MDL_ODR_50Hz
 210              		.loc 1 355 13 view .LVU49
 211 001e 0121     		movs	r1, #1
 212 0020 00E0     		b	.L10
 213              	.L11:
 214 0022 0021     		movs	r1, #0
 215              	.L10:
 216              	.LVL9:
 359:D:/fchai/work/i-cube/I-CUBE-HUAWEI/Drivers/BSP/Components/lis2mdl\lis2mdl.c ****   {
 217              		.loc 1 359 3 is_stmt 1 view .LVU50
 359:D:/fchai/work/i-cube/I-CUBE-HUAWEI/Drivers/BSP/Components/lis2mdl\lis2mdl.c ****   {
 218              		.loc 1 359 7 is_stmt 0 view .LVU51
 219 0024 1C30     		adds	r0, r0, #28
 220              	.LVL10:
 359:D:/fchai/work/i-cube/I-CUBE-HUAWEI/Drivers/BSP/Components/lis2mdl\lis2mdl.c ****   {
 221              		.loc 1 359 7 view .LVU52
 222 0026 FFF7FEFF 		bl	lis2mdl_data_rate_set
 223              	.LVL11:
 359:D:/fchai/work/i-cube/I-CUBE-HUAWEI/Drivers/BSP/Components/lis2mdl\lis2mdl.c ****   {
 224              		.loc 1 359 6 view .LVU53
ARM GAS  T:\msys\tmp\cc50myQj.s 			page 12


 225 002a 0038     		subs	r0, r0, #0
 226 002c 18BF     		it	ne
 227 002e 0120     		movne	r0, #1
 365:D:/fchai/work/i-cube/I-CUBE-HUAWEI/Drivers/BSP/Components/lis2mdl\lis2mdl.c **** 
 228              		.loc 1 365 1 view .LVU54
 229 0030 4042     		rsbs	r0, r0, #0
 230 0032 08BD     		pop	{r3, pc}
 231              	.LVL12:
 232              	.L15:
 355:D:/fchai/work/i-cube/I-CUBE-HUAWEI/Drivers/BSP/Components/lis2mdl\lis2mdl.c ****             : (Odr <= 50.000f) ? LIS2MDL_ODR_50Hz
 233              		.loc 1 355 13 discriminator 4 view .LVU55
 234 0034 DFED047A 		vldr.32	s15, .L16
 235 0038 B4EEE70A 		vcmpe.f32	s0, s15
 236 003c F1EE10FA 		vmrs	APSR_nzcv, FPSCR
 237 0040 94BF     		ite	ls
 238 0042 0221     		movls	r1, #2
 239 0044 0321     		movhi	r1, #3
 240 0046 EDE7     		b	.L10
 241              	.L17:
 242              		.align	2
 243              	.L16:
 244 0048 00004842 		.word	1112014848
 245              		.cfi_endproc
 246              	.LFE9:
 248              		.section	.text.LIS2MDL_Init,"ax",%progbits
 249              		.align	1
 250              		.p2align 2,,3
 251              		.global	LIS2MDL_Init
 252              		.syntax unified
 253              		.thumb
 254              		.thumb_func
 255              		.fpu fpv4-sp-d16
 257              	LIS2MDL_Init:
 258              	.LVL13:
 259              	.LFB1:
 152:D:/fchai/work/i-cube/I-CUBE-HUAWEI/Drivers/BSP/Components/lis2mdl\lis2mdl.c ****   /* Enable BDU */
 260              		.loc 1 152 1 is_stmt 1 view -0
 261              		.cfi_startproc
 262              		@ args = 0, pretend = 0, frame = 0
 263              		@ frame_needed = 0, uses_anonymous_args = 0
 154:D:/fchai/work/i-cube/I-CUBE-HUAWEI/Drivers/BSP/Components/lis2mdl\lis2mdl.c ****   {
 264              		.loc 1 154 3 view .LVU57
 152:D:/fchai/work/i-cube/I-CUBE-HUAWEI/Drivers/BSP/Components/lis2mdl\lis2mdl.c ****   /* Enable BDU */
 265              		.loc 1 152 1 is_stmt 0 view .LVU58
 266 0000 38B5     		push	{r3, r4, r5, lr}
 267              	.LCFI3:
 268              		.cfi_def_cfa_offset 16
 269              		.cfi_offset 3, -16
 270              		.cfi_offset 4, -12
 271              		.cfi_offset 5, -8
 272              		.cfi_offset 14, -4
 154:D:/fchai/work/i-cube/I-CUBE-HUAWEI/Drivers/BSP/Components/lis2mdl\lis2mdl.c ****   {
 273              		.loc 1 154 7 view .LVU59
 274 0002 00F11C05 		add	r5, r0, #28
 152:D:/fchai/work/i-cube/I-CUBE-HUAWEI/Drivers/BSP/Components/lis2mdl\lis2mdl.c ****   /* Enable BDU */
 275              		.loc 1 152 1 view .LVU60
 276 0006 0446     		mov	r4, r0
ARM GAS  T:\msys\tmp\cc50myQj.s 			page 13


 154:D:/fchai/work/i-cube/I-CUBE-HUAWEI/Drivers/BSP/Components/lis2mdl\lis2mdl.c ****   {
 277              		.loc 1 154 7 view .LVU61
 278 0008 0121     		movs	r1, #1
 279 000a 2846     		mov	r0, r5
 280              	.LVL14:
 154:D:/fchai/work/i-cube/I-CUBE-HUAWEI/Drivers/BSP/Components/lis2mdl\lis2mdl.c ****   {
 281              		.loc 1 154 7 view .LVU62
 282 000c FFF7FEFF 		bl	lis2mdl_block_data_update_set
 283              	.LVL15:
 154:D:/fchai/work/i-cube/I-CUBE-HUAWEI/Drivers/BSP/Components/lis2mdl\lis2mdl.c ****   {
 284              		.loc 1 154 6 view .LVU63
 285 0010 90B9     		cbnz	r0, .L21
 160:D:/fchai/work/i-cube/I-CUBE-HUAWEI/Drivers/BSP/Components/lis2mdl\lis2mdl.c ****   {
 286              		.loc 1 160 3 is_stmt 1 view .LVU64
 160:D:/fchai/work/i-cube/I-CUBE-HUAWEI/Drivers/BSP/Components/lis2mdl\lis2mdl.c ****   {
 287              		.loc 1 160 7 is_stmt 0 view .LVU65
 288 0012 0221     		movs	r1, #2
 289 0014 2846     		mov	r0, r5
 290 0016 FFF7FEFF 		bl	lis2mdl_operating_mode_set
 291              	.LVL16:
 160:D:/fchai/work/i-cube/I-CUBE-HUAWEI/Drivers/BSP/Components/lis2mdl\lis2mdl.c ****   {
 292              		.loc 1 160 6 view .LVU66
 293 001a 68B9     		cbnz	r0, .L21
 166:D:/fchai/work/i-cube/I-CUBE-HUAWEI/Drivers/BSP/Components/lis2mdl\lis2mdl.c ****   {
 294              		.loc 1 166 3 is_stmt 1 view .LVU67
 166:D:/fchai/work/i-cube/I-CUBE-HUAWEI/Drivers/BSP/Components/lis2mdl\lis2mdl.c ****   {
 295              		.loc 1 166 7 is_stmt 0 view .LVU68
 296 001c 0321     		movs	r1, #3
 297 001e 2846     		mov	r0, r5
 298 0020 FFF7FEFF 		bl	lis2mdl_data_rate_set
 299              	.LVL17:
 166:D:/fchai/work/i-cube/I-CUBE-HUAWEI/Drivers/BSP/Components/lis2mdl\lis2mdl.c ****   {
 300              		.loc 1 166 6 view .LVU69
 301 0024 0146     		mov	r1, r0
 302 0026 38B9     		cbnz	r0, .L21
 172:D:/fchai/work/i-cube/I-CUBE-HUAWEI/Drivers/BSP/Components/lis2mdl\lis2mdl.c ****   {
 303              		.loc 1 172 3 is_stmt 1 view .LVU70
 172:D:/fchai/work/i-cube/I-CUBE-HUAWEI/Drivers/BSP/Components/lis2mdl\lis2mdl.c ****   {
 304              		.loc 1 172 7 is_stmt 0 view .LVU71
 305 0028 2846     		mov	r0, r5
 306 002a FFF7FEFF 		bl	lis2mdl_self_test_set
 307              	.LVL18:
 172:D:/fchai/work/i-cube/I-CUBE-HUAWEI/Drivers/BSP/Components/lis2mdl\lis2mdl.c ****   {
 308              		.loc 1 172 6 view .LVU72
 309 002e 18B9     		cbnz	r0, .L21
 177:D:/fchai/work/i-cube/I-CUBE-HUAWEI/Drivers/BSP/Components/lis2mdl\lis2mdl.c **** 
 310              		.loc 1 177 3 is_stmt 1 view .LVU73
 177:D:/fchai/work/i-cube/I-CUBE-HUAWEI/Drivers/BSP/Components/lis2mdl\lis2mdl.c **** 
 311              		.loc 1 177 24 is_stmt 0 view .LVU74
 312 0030 0123     		movs	r3, #1
 313 0032 84F82830 		strb	r3, [r4, #40]
 179:D:/fchai/work/i-cube/I-CUBE-HUAWEI/Drivers/BSP/Components/lis2mdl\lis2mdl.c **** }
 314              		.loc 1 179 3 is_stmt 1 view .LVU75
 180:D:/fchai/work/i-cube/I-CUBE-HUAWEI/Drivers/BSP/Components/lis2mdl\lis2mdl.c **** 
 315              		.loc 1 180 1 is_stmt 0 view .LVU76
 316 0036 38BD     		pop	{r3, r4, r5, pc}
 317              	.LVL19:
ARM GAS  T:\msys\tmp\cc50myQj.s 			page 14


 318              	.L21:
 156:D:/fchai/work/i-cube/I-CUBE-HUAWEI/Drivers/BSP/Components/lis2mdl\lis2mdl.c ****   }
 319              		.loc 1 156 12 view .LVU77
 320 0038 4FF0FF30 		mov	r0, #-1
 180:D:/fchai/work/i-cube/I-CUBE-HUAWEI/Drivers/BSP/Components/lis2mdl\lis2mdl.c **** 
 321              		.loc 1 180 1 view .LVU78
 322 003c 38BD     		pop	{r3, r4, r5, pc}
 180:D:/fchai/work/i-cube/I-CUBE-HUAWEI/Drivers/BSP/Components/lis2mdl\lis2mdl.c **** 
 323              		.loc 1 180 1 view .LVU79
 324              		.cfi_endproc
 325              	.LFE1:
 327 003e 00BF     		.section	.text.LIS2MDL_ReadID,"ax",%progbits
 328              		.align	1
 329              		.p2align 2,,3
 330              		.global	LIS2MDL_ReadID
 331              		.syntax unified
 332              		.thumb
 333              		.thumb_func
 334              		.fpu fpv4-sp-d16
 336              	LIS2MDL_ReadID:
 337              	.LVL20:
 338              	.LFB3:
 207:D:/fchai/work/i-cube/I-CUBE-HUAWEI/Drivers/BSP/Components/lis2mdl\lis2mdl.c ****   if (lis2mdl_device_id_get(&(pObj->Ctx), Id) != LIS2MDL_OK)
 339              		.loc 1 207 1 is_stmt 1 view -0
 340              		.cfi_startproc
 341              		@ args = 0, pretend = 0, frame = 0
 342              		@ frame_needed = 0, uses_anonymous_args = 0
 208:D:/fchai/work/i-cube/I-CUBE-HUAWEI/Drivers/BSP/Components/lis2mdl\lis2mdl.c ****   {
 343              		.loc 1 208 3 view .LVU81
 207:D:/fchai/work/i-cube/I-CUBE-HUAWEI/Drivers/BSP/Components/lis2mdl\lis2mdl.c ****   if (lis2mdl_device_id_get(&(pObj->Ctx), Id) != LIS2MDL_OK)
 344              		.loc 1 207 1 is_stmt 0 view .LVU82
 345 0000 08B5     		push	{r3, lr}
 346              	.LCFI4:
 347              		.cfi_def_cfa_offset 8
 348              		.cfi_offset 3, -8
 349              		.cfi_offset 14, -4
 208:D:/fchai/work/i-cube/I-CUBE-HUAWEI/Drivers/BSP/Components/lis2mdl\lis2mdl.c ****   {
 350              		.loc 1 208 7 view .LVU83
 351 0002 1C30     		adds	r0, r0, #28
 352              	.LVL21:
 208:D:/fchai/work/i-cube/I-CUBE-HUAWEI/Drivers/BSP/Components/lis2mdl\lis2mdl.c ****   {
 353              		.loc 1 208 7 view .LVU84
 354 0004 FFF7FEFF 		bl	lis2mdl_device_id_get
 355              	.LVL22:
 208:D:/fchai/work/i-cube/I-CUBE-HUAWEI/Drivers/BSP/Components/lis2mdl\lis2mdl.c ****   {
 356              		.loc 1 208 6 view .LVU85
 357 0008 0038     		subs	r0, r0, #0
 358 000a 18BF     		it	ne
 359 000c 0120     		movne	r0, #1
 214:D:/fchai/work/i-cube/I-CUBE-HUAWEI/Drivers/BSP/Components/lis2mdl\lis2mdl.c **** 
 360              		.loc 1 214 1 view .LVU86
 361 000e 4042     		rsbs	r0, r0, #0
 362 0010 08BD     		pop	{r3, pc}
 363              		.cfi_endproc
 364              	.LFE3:
 366 0012 00BF     		.section	.text.LIS2MDL_MAG_GetOutputDataRate,"ax",%progbits
 367              		.align	1
ARM GAS  T:\msys\tmp\cc50myQj.s 			page 15


 368              		.p2align 2,,3
 369              		.global	LIS2MDL_MAG_GetOutputDataRate
 370              		.syntax unified
 371              		.thumb
 372              		.thumb_func
 373              		.fpu fpv4-sp-d16
 375              	LIS2MDL_MAG_GetOutputDataRate:
 376              	.LVL23:
 377              	.LFB8:
 308:D:/fchai/work/i-cube/I-CUBE-HUAWEI/Drivers/BSP/Components/lis2mdl\lis2mdl.c ****   int32_t ret = LIS2MDL_OK;
 378              		.loc 1 308 1 is_stmt 1 view -0
 379              		.cfi_startproc
 380              		@ args = 0, pretend = 0, frame = 8
 381              		@ frame_needed = 0, uses_anonymous_args = 0
 309:D:/fchai/work/i-cube/I-CUBE-HUAWEI/Drivers/BSP/Components/lis2mdl\lis2mdl.c ****   lis2mdl_odr_t odr_low_level;
 382              		.loc 1 309 3 view .LVU88
 310:D:/fchai/work/i-cube/I-CUBE-HUAWEI/Drivers/BSP/Components/lis2mdl\lis2mdl.c **** 
 383              		.loc 1 310 3 view .LVU89
 313:D:/fchai/work/i-cube/I-CUBE-HUAWEI/Drivers/BSP/Components/lis2mdl\lis2mdl.c ****   {
 384              		.loc 1 313 3 view .LVU90
 308:D:/fchai/work/i-cube/I-CUBE-HUAWEI/Drivers/BSP/Components/lis2mdl\lis2mdl.c ****   int32_t ret = LIS2MDL_OK;
 385              		.loc 1 308 1 is_stmt 0 view .LVU91
 386 0000 10B5     		push	{r4, lr}
 387              	.LCFI5:
 388              		.cfi_def_cfa_offset 8
 389              		.cfi_offset 4, -8
 390              		.cfi_offset 14, -4
 391 0002 82B0     		sub	sp, sp, #8
 392              	.LCFI6:
 393              		.cfi_def_cfa_offset 16
 308:D:/fchai/work/i-cube/I-CUBE-HUAWEI/Drivers/BSP/Components/lis2mdl\lis2mdl.c ****   int32_t ret = LIS2MDL_OK;
 394              		.loc 1 308 1 view .LVU92
 395 0004 0C46     		mov	r4, r1
 313:D:/fchai/work/i-cube/I-CUBE-HUAWEI/Drivers/BSP/Components/lis2mdl\lis2mdl.c ****   {
 396              		.loc 1 313 7 view .LVU93
 397 0006 1C30     		adds	r0, r0, #28
 398              	.LVL24:
 313:D:/fchai/work/i-cube/I-CUBE-HUAWEI/Drivers/BSP/Components/lis2mdl\lis2mdl.c ****   {
 399              		.loc 1 313 7 view .LVU94
 400 0008 0DF10701 		add	r1, sp, #7
 401              	.LVL25:
 313:D:/fchai/work/i-cube/I-CUBE-HUAWEI/Drivers/BSP/Components/lis2mdl\lis2mdl.c ****   {
 402              		.loc 1 313 7 view .LVU95
 403 000c FFF7FEFF 		bl	lis2mdl_data_rate_get
 404              	.LVL26:
 313:D:/fchai/work/i-cube/I-CUBE-HUAWEI/Drivers/BSP/Components/lis2mdl\lis2mdl.c ****   {
 405              		.loc 1 313 6 view .LVU96
 406 0010 B8B9     		cbnz	r0, .L33
 318:D:/fchai/work/i-cube/I-CUBE-HUAWEI/Drivers/BSP/Components/lis2mdl\lis2mdl.c ****   {
 407              		.loc 1 318 3 is_stmt 1 view .LVU97
 408 0012 9DF80730 		ldrb	r3, [sp, #7]	@ zero_extendqisi2
 409 0016 032B     		cmp	r3, #3
 410 0018 13D8     		bhi	.L33
 411 001a DFE803F0 		tbb	[pc, r3]
 412              	.L28:
 413 001e 06       		.byte	(.L31-.L28)/2
 414 001f 0A       		.byte	(.L30-.L28)/2
ARM GAS  T:\msys\tmp\cc50myQj.s 			page 16


 415 0020 0E       		.byte	(.L29-.L28)/2
 416 0021 02       		.byte	(.L27-.L28)/2
 417              		.p2align 1
 418              	.L27:
 333:D:/fchai/work/i-cube/I-CUBE-HUAWEI/Drivers/BSP/Components/lis2mdl\lis2mdl.c ****       break;
 419              		.loc 1 333 7 view .LVU98
 333:D:/fchai/work/i-cube/I-CUBE-HUAWEI/Drivers/BSP/Components/lis2mdl\lis2mdl.c ****       break;
 420              		.loc 1 333 12 is_stmt 0 view .LVU99
 421 0022 094B     		ldr	r3, .L35
 422 0024 2360     		str	r3, [r4]	@ float
 334:D:/fchai/work/i-cube/I-CUBE-HUAWEI/Drivers/BSP/Components/lis2mdl\lis2mdl.c **** 
 423              		.loc 1 334 7 is_stmt 1 view .LVU100
 424              	.LVL27:
 425              	.L25:
 342:D:/fchai/work/i-cube/I-CUBE-HUAWEI/Drivers/BSP/Components/lis2mdl\lis2mdl.c **** 
 426              		.loc 1 342 1 is_stmt 0 view .LVU101
 427 0026 02B0     		add	sp, sp, #8
 428              	.LCFI7:
 429              		.cfi_remember_state
 430              		.cfi_def_cfa_offset 8
 431              		@ sp needed
 432 0028 10BD     		pop	{r4, pc}
 433              	.LVL28:
 434              	.L31:
 435              	.LCFI8:
 436              		.cfi_restore_state
 321:D:/fchai/work/i-cube/I-CUBE-HUAWEI/Drivers/BSP/Components/lis2mdl\lis2mdl.c ****       break;
 437              		.loc 1 321 7 is_stmt 1 view .LVU102
 321:D:/fchai/work/i-cube/I-CUBE-HUAWEI/Drivers/BSP/Components/lis2mdl\lis2mdl.c ****       break;
 438              		.loc 1 321 12 is_stmt 0 view .LVU103
 439 002a 084B     		ldr	r3, .L35+4
 440 002c 2360     		str	r3, [r4]	@ float
 322:D:/fchai/work/i-cube/I-CUBE-HUAWEI/Drivers/BSP/Components/lis2mdl\lis2mdl.c **** 
 441              		.loc 1 322 7 is_stmt 1 view .LVU104
 342:D:/fchai/work/i-cube/I-CUBE-HUAWEI/Drivers/BSP/Components/lis2mdl\lis2mdl.c **** 
 442              		.loc 1 342 1 is_stmt 0 view .LVU105
 443 002e 02B0     		add	sp, sp, #8
 444              	.LCFI9:
 445              		.cfi_remember_state
 446              		.cfi_def_cfa_offset 8
 447              		@ sp needed
 448 0030 10BD     		pop	{r4, pc}
 449              	.LVL29:
 450              	.L30:
 451              	.LCFI10:
 452              		.cfi_restore_state
 325:D:/fchai/work/i-cube/I-CUBE-HUAWEI/Drivers/BSP/Components/lis2mdl\lis2mdl.c ****       break;
 453              		.loc 1 325 7 is_stmt 1 view .LVU106
 325:D:/fchai/work/i-cube/I-CUBE-HUAWEI/Drivers/BSP/Components/lis2mdl\lis2mdl.c ****       break;
 454              		.loc 1 325 12 is_stmt 0 view .LVU107
 455 0032 074B     		ldr	r3, .L35+8
 456 0034 2360     		str	r3, [r4]	@ float
 326:D:/fchai/work/i-cube/I-CUBE-HUAWEI/Drivers/BSP/Components/lis2mdl\lis2mdl.c **** 
 457              		.loc 1 326 7 is_stmt 1 view .LVU108
 342:D:/fchai/work/i-cube/I-CUBE-HUAWEI/Drivers/BSP/Components/lis2mdl\lis2mdl.c **** 
 458              		.loc 1 342 1 is_stmt 0 view .LVU109
 459 0036 02B0     		add	sp, sp, #8
ARM GAS  T:\msys\tmp\cc50myQj.s 			page 17


 460              	.LCFI11:
 461              		.cfi_remember_state
 462              		.cfi_def_cfa_offset 8
 463              		@ sp needed
 464 0038 10BD     		pop	{r4, pc}
 465              	.LVL30:
 466              	.L29:
 467              	.LCFI12:
 468              		.cfi_restore_state
 329:D:/fchai/work/i-cube/I-CUBE-HUAWEI/Drivers/BSP/Components/lis2mdl\lis2mdl.c ****       break;
 469              		.loc 1 329 7 is_stmt 1 view .LVU110
 329:D:/fchai/work/i-cube/I-CUBE-HUAWEI/Drivers/BSP/Components/lis2mdl\lis2mdl.c ****       break;
 470              		.loc 1 329 12 is_stmt 0 view .LVU111
 471 003a 064B     		ldr	r3, .L35+12
 472 003c 2360     		str	r3, [r4]	@ float
 330:D:/fchai/work/i-cube/I-CUBE-HUAWEI/Drivers/BSP/Components/lis2mdl\lis2mdl.c **** 
 473              		.loc 1 330 7 is_stmt 1 view .LVU112
 342:D:/fchai/work/i-cube/I-CUBE-HUAWEI/Drivers/BSP/Components/lis2mdl\lis2mdl.c **** 
 474              		.loc 1 342 1 is_stmt 0 view .LVU113
 475 003e 02B0     		add	sp, sp, #8
 476              	.LCFI13:
 477              		.cfi_remember_state
 478              		.cfi_def_cfa_offset 8
 479              		@ sp needed
 480 0040 10BD     		pop	{r4, pc}
 481              	.LVL31:
 482              	.L33:
 483              	.LCFI14:
 484              		.cfi_restore_state
 318:D:/fchai/work/i-cube/I-CUBE-HUAWEI/Drivers/BSP/Components/lis2mdl\lis2mdl.c ****   {
 485              		.loc 1 318 3 view .LVU114
 486 0042 4FF0FF30 		mov	r0, #-1
 487              	.LVL32:
 318:D:/fchai/work/i-cube/I-CUBE-HUAWEI/Drivers/BSP/Components/lis2mdl\lis2mdl.c ****   {
 488              		.loc 1 318 3 view .LVU115
 489 0046 EEE7     		b	.L25
 490              	.L36:
 491              		.align	2
 492              	.L35:
 493 0048 0000C842 		.word	1120403456
 494 004c 00002041 		.word	1092616192
 495 0050 0000A041 		.word	1101004800
 496 0054 00004842 		.word	1112014848
 497              		.cfi_endproc
 498              	.LFE8:
 500              		.section	.text.LIS2MDL_MAG_GetAxesRaw,"ax",%progbits
 501              		.align	1
 502              		.p2align 2,,3
 503              		.global	LIS2MDL_MAG_GetAxesRaw
 504              		.syntax unified
 505              		.thumb
 506              		.thumb_func
 507              		.fpu fpv4-sp-d16
 509              	LIS2MDL_MAG_GetAxesRaw:
 510              	.LVL33:
 511              	.LFB12:
 391:D:/fchai/work/i-cube/I-CUBE-HUAWEI/Drivers/BSP/Components/lis2mdl\lis2mdl.c **** 
ARM GAS  T:\msys\tmp\cc50myQj.s 			page 18


 392:D:/fchai/work/i-cube/I-CUBE-HUAWEI/Drivers/BSP/Components/lis2mdl\lis2mdl.c **** /**
 393:D:/fchai/work/i-cube/I-CUBE-HUAWEI/Drivers/BSP/Components/lis2mdl\lis2mdl.c ****  * @brief  Get the LIS2MDL magnetometer sensor raw axes
 394:D:/fchai/work/i-cube/I-CUBE-HUAWEI/Drivers/BSP/Components/lis2mdl\lis2mdl.c ****  * @param  pObj the device pObj
 395:D:/fchai/work/i-cube/I-CUBE-HUAWEI/Drivers/BSP/Components/lis2mdl\lis2mdl.c ****  * @param  Value pointer where the raw values of the axes are written
 396:D:/fchai/work/i-cube/I-CUBE-HUAWEI/Drivers/BSP/Components/lis2mdl\lis2mdl.c ****  * @retval 0 in case of success, an error code otherwise
 397:D:/fchai/work/i-cube/I-CUBE-HUAWEI/Drivers/BSP/Components/lis2mdl\lis2mdl.c ****  */
 398:D:/fchai/work/i-cube/I-CUBE-HUAWEI/Drivers/BSP/Components/lis2mdl\lis2mdl.c **** int32_t LIS2MDL_MAG_GetAxesRaw(LIS2MDL_Object_t *pObj, LIS2MDL_AxesRaw_t *Value)
 399:D:/fchai/work/i-cube/I-CUBE-HUAWEI/Drivers/BSP/Components/lis2mdl\lis2mdl.c **** {
 512              		.loc 1 399 1 is_stmt 1 view -0
 513              		.cfi_startproc
 514              		@ args = 0, pretend = 0, frame = 8
 515              		@ frame_needed = 0, uses_anonymous_args = 0
 400:D:/fchai/work/i-cube/I-CUBE-HUAWEI/Drivers/BSP/Components/lis2mdl\lis2mdl.c ****   lis2mdl_axis3bit16_t data_raw;
 516              		.loc 1 400 3 view .LVU117
 401:D:/fchai/work/i-cube/I-CUBE-HUAWEI/Drivers/BSP/Components/lis2mdl\lis2mdl.c **** 
 402:D:/fchai/work/i-cube/I-CUBE-HUAWEI/Drivers/BSP/Components/lis2mdl\lis2mdl.c ****   /* Read raw data values. */
 403:D:/fchai/work/i-cube/I-CUBE-HUAWEI/Drivers/BSP/Components/lis2mdl\lis2mdl.c ****   if (lis2mdl_magnetic_raw_get(&(pObj->Ctx), data_raw.u8bit) != LIS2MDL_OK)
 517              		.loc 1 403 3 view .LVU118
 399:D:/fchai/work/i-cube/I-CUBE-HUAWEI/Drivers/BSP/Components/lis2mdl\lis2mdl.c ****   lis2mdl_axis3bit16_t data_raw;
 518              		.loc 1 399 1 is_stmt 0 view .LVU119
 519 0000 10B5     		push	{r4, lr}
 520              	.LCFI15:
 521              		.cfi_def_cfa_offset 8
 522              		.cfi_offset 4, -8
 523              		.cfi_offset 14, -4
 524 0002 82B0     		sub	sp, sp, #8
 525              	.LCFI16:
 526              		.cfi_def_cfa_offset 16
 399:D:/fchai/work/i-cube/I-CUBE-HUAWEI/Drivers/BSP/Components/lis2mdl\lis2mdl.c ****   lis2mdl_axis3bit16_t data_raw;
 527              		.loc 1 399 1 view .LVU120
 528 0004 0C46     		mov	r4, r1
 529              		.loc 1 403 7 view .LVU121
 530 0006 1C30     		adds	r0, r0, #28
 531              	.LVL34:
 532              		.loc 1 403 7 view .LVU122
 533 0008 6946     		mov	r1, sp
 534              	.LVL35:
 535              		.loc 1 403 7 view .LVU123
 536 000a FFF7FEFF 		bl	lis2mdl_magnetic_raw_get
 537              	.LVL36:
 538              		.loc 1 403 6 view .LVU124
 539 000e 50B9     		cbnz	r0, .L39
 404:D:/fchai/work/i-cube/I-CUBE-HUAWEI/Drivers/BSP/Components/lis2mdl\lis2mdl.c ****   {
 405:D:/fchai/work/i-cube/I-CUBE-HUAWEI/Drivers/BSP/Components/lis2mdl\lis2mdl.c ****     return LIS2MDL_ERROR;
 406:D:/fchai/work/i-cube/I-CUBE-HUAWEI/Drivers/BSP/Components/lis2mdl\lis2mdl.c ****   }
 407:D:/fchai/work/i-cube/I-CUBE-HUAWEI/Drivers/BSP/Components/lis2mdl\lis2mdl.c **** 
 408:D:/fchai/work/i-cube/I-CUBE-HUAWEI/Drivers/BSP/Components/lis2mdl\lis2mdl.c ****   /* Format the data. */
 409:D:/fchai/work/i-cube/I-CUBE-HUAWEI/Drivers/BSP/Components/lis2mdl\lis2mdl.c ****   Value->x = data_raw.i16bit[0];
 540              		.loc 1 409 3 is_stmt 1 view .LVU125
 541              		.loc 1 409 12 is_stmt 0 view .LVU126
 542 0010 BDF80010 		ldrh	r1, [sp]
 410:D:/fchai/work/i-cube/I-CUBE-HUAWEI/Drivers/BSP/Components/lis2mdl\lis2mdl.c ****   Value->y = data_raw.i16bit[1];
 543              		.loc 1 410 12 view .LVU127
 544 0014 BDF80220 		ldrh	r2, [sp, #2]
 411:D:/fchai/work/i-cube/I-CUBE-HUAWEI/Drivers/BSP/Components/lis2mdl\lis2mdl.c ****   Value->z = data_raw.i16bit[2];
 545              		.loc 1 411 12 view .LVU128
 546 0018 BDF80430 		ldrh	r3, [sp, #4]
ARM GAS  T:\msys\tmp\cc50myQj.s 			page 19


 409:D:/fchai/work/i-cube/I-CUBE-HUAWEI/Drivers/BSP/Components/lis2mdl\lis2mdl.c ****   Value->y = data_raw.i16bit[1];
 547              		.loc 1 409 12 view .LVU129
 548 001c 2180     		strh	r1, [r4]	@ movhi
 410:D:/fchai/work/i-cube/I-CUBE-HUAWEI/Drivers/BSP/Components/lis2mdl\lis2mdl.c ****   Value->y = data_raw.i16bit[1];
 549              		.loc 1 410 3 is_stmt 1 view .LVU130
 410:D:/fchai/work/i-cube/I-CUBE-HUAWEI/Drivers/BSP/Components/lis2mdl\lis2mdl.c ****   Value->y = data_raw.i16bit[1];
 550              		.loc 1 410 12 is_stmt 0 view .LVU131
 551 001e 6280     		strh	r2, [r4, #2]	@ movhi
 552              		.loc 1 411 3 is_stmt 1 view .LVU132
 553              		.loc 1 411 12 is_stmt 0 view .LVU133
 554 0020 A380     		strh	r3, [r4, #4]	@ movhi
 412:D:/fchai/work/i-cube/I-CUBE-HUAWEI/Drivers/BSP/Components/lis2mdl\lis2mdl.c **** 
 413:D:/fchai/work/i-cube/I-CUBE-HUAWEI/Drivers/BSP/Components/lis2mdl\lis2mdl.c ****   return LIS2MDL_OK;
 555              		.loc 1 413 3 is_stmt 1 view .LVU134
 556              	.L37:
 414:D:/fchai/work/i-cube/I-CUBE-HUAWEI/Drivers/BSP/Components/lis2mdl\lis2mdl.c **** }
 557              		.loc 1 414 1 is_stmt 0 view .LVU135
 558 0022 02B0     		add	sp, sp, #8
 559              	.LCFI17:
 560              		.cfi_remember_state
 561              		.cfi_def_cfa_offset 8
 562              		@ sp needed
 563 0024 10BD     		pop	{r4, pc}
 564              	.LVL37:
 565              	.L39:
 566              	.LCFI18:
 567              		.cfi_restore_state
 405:D:/fchai/work/i-cube/I-CUBE-HUAWEI/Drivers/BSP/Components/lis2mdl\lis2mdl.c ****   }
 568              		.loc 1 405 12 view .LVU136
 569 0026 4FF0FF30 		mov	r0, #-1
 570 002a FAE7     		b	.L37
 571              		.cfi_endproc
 572              	.LFE12:
 574              		.section	.text.LIS2MDL_MAG_GetAxes,"ax",%progbits
 575              		.align	1
 576              		.p2align 2,,3
 577              		.global	LIS2MDL_MAG_GetAxes
 578              		.syntax unified
 579              		.thumb
 580              		.thumb_func
 581              		.fpu fpv4-sp-d16
 583              	LIS2MDL_MAG_GetAxes:
 584              	.LVL38:
 585              	.LFB13:
 415:D:/fchai/work/i-cube/I-CUBE-HUAWEI/Drivers/BSP/Components/lis2mdl\lis2mdl.c **** 
 416:D:/fchai/work/i-cube/I-CUBE-HUAWEI/Drivers/BSP/Components/lis2mdl\lis2mdl.c **** /**
 417:D:/fchai/work/i-cube/I-CUBE-HUAWEI/Drivers/BSP/Components/lis2mdl\lis2mdl.c ****  * @brief  Get the LIS2MDL magnetometer sensor axes
 418:D:/fchai/work/i-cube/I-CUBE-HUAWEI/Drivers/BSP/Components/lis2mdl\lis2mdl.c ****  * @param  pObj the device pObj
 419:D:/fchai/work/i-cube/I-CUBE-HUAWEI/Drivers/BSP/Components/lis2mdl\lis2mdl.c ****  * @param  MagneticField pointer where the values of the axes are written
 420:D:/fchai/work/i-cube/I-CUBE-HUAWEI/Drivers/BSP/Components/lis2mdl\lis2mdl.c ****  * @retval 0 in case of success, an error code otherwise
 421:D:/fchai/work/i-cube/I-CUBE-HUAWEI/Drivers/BSP/Components/lis2mdl\lis2mdl.c ****  */
 422:D:/fchai/work/i-cube/I-CUBE-HUAWEI/Drivers/BSP/Components/lis2mdl\lis2mdl.c **** int32_t LIS2MDL_MAG_GetAxes(LIS2MDL_Object_t *pObj, LIS2MDL_Axes_t *MagneticField)
 423:D:/fchai/work/i-cube/I-CUBE-HUAWEI/Drivers/BSP/Components/lis2mdl\lis2mdl.c **** {
 586              		.loc 1 423 1 is_stmt 1 view -0
 587              		.cfi_startproc
 588              		@ args = 0, pretend = 0, frame = 8
 589              		@ frame_needed = 0, uses_anonymous_args = 0
ARM GAS  T:\msys\tmp\cc50myQj.s 			page 20


 424:D:/fchai/work/i-cube/I-CUBE-HUAWEI/Drivers/BSP/Components/lis2mdl\lis2mdl.c ****   lis2mdl_axis3bit16_t data_raw;
 590              		.loc 1 424 3 view .LVU138
 425:D:/fchai/work/i-cube/I-CUBE-HUAWEI/Drivers/BSP/Components/lis2mdl\lis2mdl.c ****   float sensitivity;
 591              		.loc 1 425 3 view .LVU139
 426:D:/fchai/work/i-cube/I-CUBE-HUAWEI/Drivers/BSP/Components/lis2mdl\lis2mdl.c **** 
 427:D:/fchai/work/i-cube/I-CUBE-HUAWEI/Drivers/BSP/Components/lis2mdl\lis2mdl.c ****   /* Read raw data values. */
 428:D:/fchai/work/i-cube/I-CUBE-HUAWEI/Drivers/BSP/Components/lis2mdl\lis2mdl.c ****   if (lis2mdl_magnetic_raw_get(&(pObj->Ctx), data_raw.u8bit) != LIS2MDL_OK)
 592              		.loc 1 428 3 view .LVU140
 423:D:/fchai/work/i-cube/I-CUBE-HUAWEI/Drivers/BSP/Components/lis2mdl\lis2mdl.c ****   lis2mdl_axis3bit16_t data_raw;
 593              		.loc 1 423 1 is_stmt 0 view .LVU141
 594 0000 10B5     		push	{r4, lr}
 595              	.LCFI19:
 596              		.cfi_def_cfa_offset 8
 597              		.cfi_offset 4, -8
 598              		.cfi_offset 14, -4
 599 0002 82B0     		sub	sp, sp, #8
 600              	.LCFI20:
 601              		.cfi_def_cfa_offset 16
 423:D:/fchai/work/i-cube/I-CUBE-HUAWEI/Drivers/BSP/Components/lis2mdl\lis2mdl.c ****   lis2mdl_axis3bit16_t data_raw;
 602              		.loc 1 423 1 view .LVU142
 603 0004 0C46     		mov	r4, r1
 604              		.loc 1 428 7 view .LVU143
 605 0006 1C30     		adds	r0, r0, #28
 606              	.LVL39:
 607              		.loc 1 428 7 view .LVU144
 608 0008 6946     		mov	r1, sp
 609              	.LVL40:
 610              		.loc 1 428 7 view .LVU145
 611 000a FFF7FEFF 		bl	lis2mdl_magnetic_raw_get
 612              	.LVL41:
 613              		.loc 1 428 6 view .LVU146
 614 000e 38BB     		cbnz	r0, .L43
 429:D:/fchai/work/i-cube/I-CUBE-HUAWEI/Drivers/BSP/Components/lis2mdl\lis2mdl.c ****   {
 430:D:/fchai/work/i-cube/I-CUBE-HUAWEI/Drivers/BSP/Components/lis2mdl\lis2mdl.c ****     return LIS2MDL_ERROR;
 431:D:/fchai/work/i-cube/I-CUBE-HUAWEI/Drivers/BSP/Components/lis2mdl\lis2mdl.c ****   }
 432:D:/fchai/work/i-cube/I-CUBE-HUAWEI/Drivers/BSP/Components/lis2mdl\lis2mdl.c **** 
 433:D:/fchai/work/i-cube/I-CUBE-HUAWEI/Drivers/BSP/Components/lis2mdl\lis2mdl.c ****   /* Get LIS2MDL actual sensitivity. */
 434:D:/fchai/work/i-cube/I-CUBE-HUAWEI/Drivers/BSP/Components/lis2mdl\lis2mdl.c ****   (void)LIS2MDL_MAG_GetSensitivity(pObj, &sensitivity);
 615              		.loc 1 434 3 is_stmt 1 view .LVU147
 616              	.LVL42:
 296:D:/fchai/work/i-cube/I-CUBE-HUAWEI/Drivers/BSP/Components/lis2mdl\lis2mdl.c **** 
 617              		.loc 1 296 3 view .LVU148
 298:D:/fchai/work/i-cube/I-CUBE-HUAWEI/Drivers/BSP/Components/lis2mdl\lis2mdl.c **** }
 618              		.loc 1 298 3 view .LVU149
 435:D:/fchai/work/i-cube/I-CUBE-HUAWEI/Drivers/BSP/Components/lis2mdl\lis2mdl.c **** 
 436:D:/fchai/work/i-cube/I-CUBE-HUAWEI/Drivers/BSP/Components/lis2mdl\lis2mdl.c ****   /* Calculate the data. */
 437:D:/fchai/work/i-cube/I-CUBE-HUAWEI/Drivers/BSP/Components/lis2mdl\lis2mdl.c ****   MagneticField->x = (int32_t)((float)((float)data_raw.i16bit[0] * sensitivity));
 619              		.loc 1 437 3 view .LVU150
 620              		.loc 1 437 40 is_stmt 0 view .LVU151
 621 0010 BDF90030 		ldrsh	r3, [sp]
 622 0014 06EE903A 		vmov	s13, r3	@ int
 438:D:/fchai/work/i-cube/I-CUBE-HUAWEI/Drivers/BSP/Components/lis2mdl\lis2mdl.c ****   MagneticField->y = (int32_t)((float)((float)data_raw.i16bit[1] * sensitivity));
 623              		.loc 1 438 40 view .LVU152
 624 0018 BDF90230 		ldrsh	r3, [sp, #2]
 625 001c 07EE103A 		vmov	s14, r3	@ int
 439:D:/fchai/work/i-cube/I-CUBE-HUAWEI/Drivers/BSP/Components/lis2mdl\lis2mdl.c ****   MagneticField->z = (int32_t)((float)((float)data_raw.i16bit[2] * sensitivity));
 626              		.loc 1 439 40 view .LVU153
ARM GAS  T:\msys\tmp\cc50myQj.s 			page 21


 627 0020 BDF90430 		ldrsh	r3, [sp, #4]
 628 0024 07EE903A 		vmov	s15, r3	@ int
 437:D:/fchai/work/i-cube/I-CUBE-HUAWEI/Drivers/BSP/Components/lis2mdl\lis2mdl.c ****   MagneticField->y = (int32_t)((float)((float)data_raw.i16bit[1] * sensitivity));
 629              		.loc 1 437 40 view .LVU154
 630 0028 F8EEE66A 		vcvt.f32.s32	s13, s13
 438:D:/fchai/work/i-cube/I-CUBE-HUAWEI/Drivers/BSP/Components/lis2mdl\lis2mdl.c ****   MagneticField->y = (int32_t)((float)((float)data_raw.i16bit[1] * sensitivity));
 631              		.loc 1 438 40 view .LVU155
 632 002c B8EEC77A 		vcvt.f32.s32	s14, s14
 633              		.loc 1 439 40 view .LVU156
 634 0030 F8EEE77A 		vcvt.f32.s32	s15, s15
 437:D:/fchai/work/i-cube/I-CUBE-HUAWEI/Drivers/BSP/Components/lis2mdl\lis2mdl.c ****   MagneticField->y = (int32_t)((float)((float)data_raw.i16bit[1] * sensitivity));
 635              		.loc 1 437 32 view .LVU157
 636 0034 B7EE086A 		vmov.f32	s12, #1.5e+0
 637 0038 66EE866A 		vmul.f32	s13, s13, s12
 438:D:/fchai/work/i-cube/I-CUBE-HUAWEI/Drivers/BSP/Components/lis2mdl\lis2mdl.c ****   MagneticField->y = (int32_t)((float)((float)data_raw.i16bit[1] * sensitivity));
 638              		.loc 1 438 32 view .LVU158
 639 003c 27EE067A 		vmul.f32	s14, s14, s12
 640              		.loc 1 439 32 view .LVU159
 641 0040 67EE867A 		vmul.f32	s15, s15, s12
 437:D:/fchai/work/i-cube/I-CUBE-HUAWEI/Drivers/BSP/Components/lis2mdl\lis2mdl.c ****   MagneticField->y = (int32_t)((float)((float)data_raw.i16bit[1] * sensitivity));
 642              		.loc 1 437 22 view .LVU160
 643 0044 FDEEE66A 		vcvt.s32.f32	s13, s13
 438:D:/fchai/work/i-cube/I-CUBE-HUAWEI/Drivers/BSP/Components/lis2mdl\lis2mdl.c ****   MagneticField->y = (int32_t)((float)((float)data_raw.i16bit[1] * sensitivity));
 644              		.loc 1 438 22 view .LVU161
 645 0048 BDEEC77A 		vcvt.s32.f32	s14, s14
 646              		.loc 1 439 22 view .LVU162
 647 004c FDEEE77A 		vcvt.s32.f32	s15, s15
 437:D:/fchai/work/i-cube/I-CUBE-HUAWEI/Drivers/BSP/Components/lis2mdl\lis2mdl.c ****   MagneticField->y = (int32_t)((float)((float)data_raw.i16bit[1] * sensitivity));
 648              		.loc 1 437 22 view .LVU163
 649 0050 C4ED006A 		vstr.32	s13, [r4]	@ int
 438:D:/fchai/work/i-cube/I-CUBE-HUAWEI/Drivers/BSP/Components/lis2mdl\lis2mdl.c ****   MagneticField->y = (int32_t)((float)((float)data_raw.i16bit[1] * sensitivity));
 650              		.loc 1 438 3 is_stmt 1 view .LVU164
 438:D:/fchai/work/i-cube/I-CUBE-HUAWEI/Drivers/BSP/Components/lis2mdl\lis2mdl.c ****   MagneticField->y = (int32_t)((float)((float)data_raw.i16bit[1] * sensitivity));
 651              		.loc 1 438 22 is_stmt 0 view .LVU165
 652 0054 84ED017A 		vstr.32	s14, [r4, #4]	@ int
 653              		.loc 1 439 3 is_stmt 1 view .LVU166
 654              		.loc 1 439 22 is_stmt 0 view .LVU167
 655 0058 C4ED027A 		vstr.32	s15, [r4, #8]	@ int
 440:D:/fchai/work/i-cube/I-CUBE-HUAWEI/Drivers/BSP/Components/lis2mdl\lis2mdl.c **** 
 441:D:/fchai/work/i-cube/I-CUBE-HUAWEI/Drivers/BSP/Components/lis2mdl\lis2mdl.c ****   return LIS2MDL_OK;
 656              		.loc 1 441 3 is_stmt 1 view .LVU168
 657              	.LVL43:
 658              	.L41:
 442:D:/fchai/work/i-cube/I-CUBE-HUAWEI/Drivers/BSP/Components/lis2mdl\lis2mdl.c **** }
 659              		.loc 1 442 1 is_stmt 0 view .LVU169
 660 005c 02B0     		add	sp, sp, #8
 661              	.LCFI21:
 662              		.cfi_remember_state
 663              		.cfi_def_cfa_offset 8
 664              		@ sp needed
 665 005e 10BD     		pop	{r4, pc}
 666              	.LVL44:
 667              	.L43:
 668              	.LCFI22:
 669              		.cfi_restore_state
 430:D:/fchai/work/i-cube/I-CUBE-HUAWEI/Drivers/BSP/Components/lis2mdl\lis2mdl.c ****   }
 670              		.loc 1 430 12 view .LVU170
ARM GAS  T:\msys\tmp\cc50myQj.s 			page 22


 671 0060 4FF0FF30 		mov	r0, #-1
 430:D:/fchai/work/i-cube/I-CUBE-HUAWEI/Drivers/BSP/Components/lis2mdl\lis2mdl.c ****   }
 672              		.loc 1 430 12 view .LVU171
 673 0064 FAE7     		b	.L41
 674              		.cfi_endproc
 675              	.LFE13:
 677 0066 00BF     		.section	.text.ReadMagRegWrap,"ax",%progbits
 678              		.align	1
 679              		.p2align 2,,3
 680              		.syntax unified
 681              		.thumb
 682              		.thumb_func
 683              		.fpu fpv4-sp-d16
 685              	ReadMagRegWrap:
 686              	.LVL45:
 687              	.LFB21:
 443:D:/fchai/work/i-cube/I-CUBE-HUAWEI/Drivers/BSP/Components/lis2mdl\lis2mdl.c **** 
 444:D:/fchai/work/i-cube/I-CUBE-HUAWEI/Drivers/BSP/Components/lis2mdl\lis2mdl.c **** /**
 445:D:/fchai/work/i-cube/I-CUBE-HUAWEI/Drivers/BSP/Components/lis2mdl\lis2mdl.c ****  * @brief  Get the LIS2MDL register value for magnetic sensor
 446:D:/fchai/work/i-cube/I-CUBE-HUAWEI/Drivers/BSP/Components/lis2mdl\lis2mdl.c ****  * @param  pObj the device pObj
 447:D:/fchai/work/i-cube/I-CUBE-HUAWEI/Drivers/BSP/Components/lis2mdl\lis2mdl.c ****  * @param  Reg address to be read
 448:D:/fchai/work/i-cube/I-CUBE-HUAWEI/Drivers/BSP/Components/lis2mdl\lis2mdl.c ****  * @param  Data pointer where the value is written
 449:D:/fchai/work/i-cube/I-CUBE-HUAWEI/Drivers/BSP/Components/lis2mdl\lis2mdl.c ****  * @retval 0 in case of success, an error code otherwise
 450:D:/fchai/work/i-cube/I-CUBE-HUAWEI/Drivers/BSP/Components/lis2mdl\lis2mdl.c ****  */
 451:D:/fchai/work/i-cube/I-CUBE-HUAWEI/Drivers/BSP/Components/lis2mdl\lis2mdl.c **** int32_t LIS2MDL_Read_Reg(LIS2MDL_Object_t *pObj, uint8_t Reg, uint8_t *Data)
 452:D:/fchai/work/i-cube/I-CUBE-HUAWEI/Drivers/BSP/Components/lis2mdl\lis2mdl.c **** {
 453:D:/fchai/work/i-cube/I-CUBE-HUAWEI/Drivers/BSP/Components/lis2mdl\lis2mdl.c ****   if (lis2mdl_read_reg(&(pObj->Ctx), Reg, Data, 1) != LIS2MDL_OK)
 454:D:/fchai/work/i-cube/I-CUBE-HUAWEI/Drivers/BSP/Components/lis2mdl\lis2mdl.c ****   {
 455:D:/fchai/work/i-cube/I-CUBE-HUAWEI/Drivers/BSP/Components/lis2mdl\lis2mdl.c ****     return LIS2MDL_ERROR;
 456:D:/fchai/work/i-cube/I-CUBE-HUAWEI/Drivers/BSP/Components/lis2mdl\lis2mdl.c ****   }
 457:D:/fchai/work/i-cube/I-CUBE-HUAWEI/Drivers/BSP/Components/lis2mdl\lis2mdl.c **** 
 458:D:/fchai/work/i-cube/I-CUBE-HUAWEI/Drivers/BSP/Components/lis2mdl\lis2mdl.c ****   return LIS2MDL_OK;
 459:D:/fchai/work/i-cube/I-CUBE-HUAWEI/Drivers/BSP/Components/lis2mdl\lis2mdl.c **** }
 460:D:/fchai/work/i-cube/I-CUBE-HUAWEI/Drivers/BSP/Components/lis2mdl\lis2mdl.c **** 
 461:D:/fchai/work/i-cube/I-CUBE-HUAWEI/Drivers/BSP/Components/lis2mdl\lis2mdl.c **** /**
 462:D:/fchai/work/i-cube/I-CUBE-HUAWEI/Drivers/BSP/Components/lis2mdl\lis2mdl.c ****  * @brief  Set the LIS2MDL register value for magnetic sensor
 463:D:/fchai/work/i-cube/I-CUBE-HUAWEI/Drivers/BSP/Components/lis2mdl\lis2mdl.c ****  * @param  pObj the device pObj
 464:D:/fchai/work/i-cube/I-CUBE-HUAWEI/Drivers/BSP/Components/lis2mdl\lis2mdl.c ****  * @param  Reg address to be written
 465:D:/fchai/work/i-cube/I-CUBE-HUAWEI/Drivers/BSP/Components/lis2mdl\lis2mdl.c ****  * @param  Data value to be written
 466:D:/fchai/work/i-cube/I-CUBE-HUAWEI/Drivers/BSP/Components/lis2mdl\lis2mdl.c ****  * @retval 0 in case of success, an error code otherwise
 467:D:/fchai/work/i-cube/I-CUBE-HUAWEI/Drivers/BSP/Components/lis2mdl\lis2mdl.c ****  */
 468:D:/fchai/work/i-cube/I-CUBE-HUAWEI/Drivers/BSP/Components/lis2mdl\lis2mdl.c **** int32_t LIS2MDL_Write_Reg(LIS2MDL_Object_t *pObj, uint8_t Reg, uint8_t Data)
 469:D:/fchai/work/i-cube/I-CUBE-HUAWEI/Drivers/BSP/Components/lis2mdl\lis2mdl.c **** {
 470:D:/fchai/work/i-cube/I-CUBE-HUAWEI/Drivers/BSP/Components/lis2mdl\lis2mdl.c ****   if (lis2mdl_write_reg(&(pObj->Ctx), Reg, &Data, 1) != LIS2MDL_OK)
 471:D:/fchai/work/i-cube/I-CUBE-HUAWEI/Drivers/BSP/Components/lis2mdl\lis2mdl.c ****   {
 472:D:/fchai/work/i-cube/I-CUBE-HUAWEI/Drivers/BSP/Components/lis2mdl\lis2mdl.c ****     return LIS2MDL_ERROR;
 473:D:/fchai/work/i-cube/I-CUBE-HUAWEI/Drivers/BSP/Components/lis2mdl\lis2mdl.c ****   }
 474:D:/fchai/work/i-cube/I-CUBE-HUAWEI/Drivers/BSP/Components/lis2mdl\lis2mdl.c **** 
 475:D:/fchai/work/i-cube/I-CUBE-HUAWEI/Drivers/BSP/Components/lis2mdl\lis2mdl.c ****   return LIS2MDL_OK;
 476:D:/fchai/work/i-cube/I-CUBE-HUAWEI/Drivers/BSP/Components/lis2mdl\lis2mdl.c **** }
 477:D:/fchai/work/i-cube/I-CUBE-HUAWEI/Drivers/BSP/Components/lis2mdl\lis2mdl.c **** 
 478:D:/fchai/work/i-cube/I-CUBE-HUAWEI/Drivers/BSP/Components/lis2mdl\lis2mdl.c **** /**
 479:D:/fchai/work/i-cube/I-CUBE-HUAWEI/Drivers/BSP/Components/lis2mdl\lis2mdl.c ****  * @brief  Set self test
 480:D:/fchai/work/i-cube/I-CUBE-HUAWEI/Drivers/BSP/Components/lis2mdl\lis2mdl.c ****  * @param  pObj the device pObj
 481:D:/fchai/work/i-cube/I-CUBE-HUAWEI/Drivers/BSP/Components/lis2mdl\lis2mdl.c ****  * @param  val the value of self_test in reg CFG_REG_C
 482:D:/fchai/work/i-cube/I-CUBE-HUAWEI/Drivers/BSP/Components/lis2mdl\lis2mdl.c ****  * @retval 0 in case of success, an error code otherwise
 483:D:/fchai/work/i-cube/I-CUBE-HUAWEI/Drivers/BSP/Components/lis2mdl\lis2mdl.c ****  */
ARM GAS  T:\msys\tmp\cc50myQj.s 			page 23


 484:D:/fchai/work/i-cube/I-CUBE-HUAWEI/Drivers/BSP/Components/lis2mdl\lis2mdl.c **** int32_t LIS2MDL_MAG_Set_SelfTest(LIS2MDL_Object_t *pObj, uint8_t val)
 485:D:/fchai/work/i-cube/I-CUBE-HUAWEI/Drivers/BSP/Components/lis2mdl\lis2mdl.c **** {
 486:D:/fchai/work/i-cube/I-CUBE-HUAWEI/Drivers/BSP/Components/lis2mdl\lis2mdl.c ****   if (lis2mdl_self_test_set(&(pObj->Ctx), val) != LIS2MDL_OK)
 487:D:/fchai/work/i-cube/I-CUBE-HUAWEI/Drivers/BSP/Components/lis2mdl\lis2mdl.c ****   {
 488:D:/fchai/work/i-cube/I-CUBE-HUAWEI/Drivers/BSP/Components/lis2mdl\lis2mdl.c ****     return LIS2MDL_ERROR;
 489:D:/fchai/work/i-cube/I-CUBE-HUAWEI/Drivers/BSP/Components/lis2mdl\lis2mdl.c ****   }
 490:D:/fchai/work/i-cube/I-CUBE-HUAWEI/Drivers/BSP/Components/lis2mdl\lis2mdl.c **** 
 491:D:/fchai/work/i-cube/I-CUBE-HUAWEI/Drivers/BSP/Components/lis2mdl\lis2mdl.c ****   return LIS2MDL_OK;
 492:D:/fchai/work/i-cube/I-CUBE-HUAWEI/Drivers/BSP/Components/lis2mdl\lis2mdl.c **** }
 493:D:/fchai/work/i-cube/I-CUBE-HUAWEI/Drivers/BSP/Components/lis2mdl\lis2mdl.c **** 
 494:D:/fchai/work/i-cube/I-CUBE-HUAWEI/Drivers/BSP/Components/lis2mdl\lis2mdl.c **** /**
 495:D:/fchai/work/i-cube/I-CUBE-HUAWEI/Drivers/BSP/Components/lis2mdl\lis2mdl.c ****  * @brief  Get the LIS2MDL MAG data ready bit value
 496:D:/fchai/work/i-cube/I-CUBE-HUAWEI/Drivers/BSP/Components/lis2mdl\lis2mdl.c ****  * @param  pObj the device pObj
 497:D:/fchai/work/i-cube/I-CUBE-HUAWEI/Drivers/BSP/Components/lis2mdl\lis2mdl.c ****  * @param  Status the status of data ready bit
 498:D:/fchai/work/i-cube/I-CUBE-HUAWEI/Drivers/BSP/Components/lis2mdl\lis2mdl.c ****  * @retval 0 in case of success, an error code otherwise
 499:D:/fchai/work/i-cube/I-CUBE-HUAWEI/Drivers/BSP/Components/lis2mdl\lis2mdl.c ****  */
 500:D:/fchai/work/i-cube/I-CUBE-HUAWEI/Drivers/BSP/Components/lis2mdl\lis2mdl.c **** int32_t LIS2MDL_MAG_Get_DRDY_Status(LIS2MDL_Object_t *pObj, uint8_t *Status)
 501:D:/fchai/work/i-cube/I-CUBE-HUAWEI/Drivers/BSP/Components/lis2mdl\lis2mdl.c **** {
 502:D:/fchai/work/i-cube/I-CUBE-HUAWEI/Drivers/BSP/Components/lis2mdl\lis2mdl.c ****   if (lis2mdl_mag_data_ready_get(&(pObj->Ctx), Status) != LIS2MDL_OK)
 503:D:/fchai/work/i-cube/I-CUBE-HUAWEI/Drivers/BSP/Components/lis2mdl\lis2mdl.c ****   {
 504:D:/fchai/work/i-cube/I-CUBE-HUAWEI/Drivers/BSP/Components/lis2mdl\lis2mdl.c ****     return LIS2MDL_ERROR;
 505:D:/fchai/work/i-cube/I-CUBE-HUAWEI/Drivers/BSP/Components/lis2mdl\lis2mdl.c ****   }
 506:D:/fchai/work/i-cube/I-CUBE-HUAWEI/Drivers/BSP/Components/lis2mdl\lis2mdl.c **** 
 507:D:/fchai/work/i-cube/I-CUBE-HUAWEI/Drivers/BSP/Components/lis2mdl\lis2mdl.c ****   return LIS2MDL_OK;
 508:D:/fchai/work/i-cube/I-CUBE-HUAWEI/Drivers/BSP/Components/lis2mdl\lis2mdl.c **** }
 509:D:/fchai/work/i-cube/I-CUBE-HUAWEI/Drivers/BSP/Components/lis2mdl\lis2mdl.c **** 
 510:D:/fchai/work/i-cube/I-CUBE-HUAWEI/Drivers/BSP/Components/lis2mdl\lis2mdl.c **** /**
 511:D:/fchai/work/i-cube/I-CUBE-HUAWEI/Drivers/BSP/Components/lis2mdl\lis2mdl.c ****  * @brief  Get the LIS2MDL MAG initialization status
 512:D:/fchai/work/i-cube/I-CUBE-HUAWEI/Drivers/BSP/Components/lis2mdl\lis2mdl.c ****  * @param  pObj the device pObj
 513:D:/fchai/work/i-cube/I-CUBE-HUAWEI/Drivers/BSP/Components/lis2mdl\lis2mdl.c ****  * @param  Status 1 if initialized, 0 otherwise
 514:D:/fchai/work/i-cube/I-CUBE-HUAWEI/Drivers/BSP/Components/lis2mdl\lis2mdl.c ****  * @retval 0 in case of success, an error code otherwise
 515:D:/fchai/work/i-cube/I-CUBE-HUAWEI/Drivers/BSP/Components/lis2mdl\lis2mdl.c ****  */
 516:D:/fchai/work/i-cube/I-CUBE-HUAWEI/Drivers/BSP/Components/lis2mdl\lis2mdl.c **** int32_t LIS2MDL_MAG_Get_Init_Status(LIS2MDL_Object_t *pObj, uint8_t *Status)
 517:D:/fchai/work/i-cube/I-CUBE-HUAWEI/Drivers/BSP/Components/lis2mdl\lis2mdl.c **** {
 518:D:/fchai/work/i-cube/I-CUBE-HUAWEI/Drivers/BSP/Components/lis2mdl\lis2mdl.c ****   if (pObj == NULL)
 519:D:/fchai/work/i-cube/I-CUBE-HUAWEI/Drivers/BSP/Components/lis2mdl\lis2mdl.c ****   {
 520:D:/fchai/work/i-cube/I-CUBE-HUAWEI/Drivers/BSP/Components/lis2mdl\lis2mdl.c ****     return LIS2MDL_ERROR;
 521:D:/fchai/work/i-cube/I-CUBE-HUAWEI/Drivers/BSP/Components/lis2mdl\lis2mdl.c ****   }
 522:D:/fchai/work/i-cube/I-CUBE-HUAWEI/Drivers/BSP/Components/lis2mdl\lis2mdl.c **** 
 523:D:/fchai/work/i-cube/I-CUBE-HUAWEI/Drivers/BSP/Components/lis2mdl\lis2mdl.c ****   *Status = pObj->is_initialized;
 524:D:/fchai/work/i-cube/I-CUBE-HUAWEI/Drivers/BSP/Components/lis2mdl\lis2mdl.c **** 
 525:D:/fchai/work/i-cube/I-CUBE-HUAWEI/Drivers/BSP/Components/lis2mdl\lis2mdl.c ****   return LIS2MDL_OK;
 526:D:/fchai/work/i-cube/I-CUBE-HUAWEI/Drivers/BSP/Components/lis2mdl\lis2mdl.c **** }
 527:D:/fchai/work/i-cube/I-CUBE-HUAWEI/Drivers/BSP/Components/lis2mdl\lis2mdl.c **** 
 528:D:/fchai/work/i-cube/I-CUBE-HUAWEI/Drivers/BSP/Components/lis2mdl\lis2mdl.c **** /**
 529:D:/fchai/work/i-cube/I-CUBE-HUAWEI/Drivers/BSP/Components/lis2mdl\lis2mdl.c ****  * @brief  Set the LIS2MDL filter mode
 530:D:/fchai/work/i-cube/I-CUBE-HUAWEI/Drivers/BSP/Components/lis2mdl\lis2mdl.c ****  * @param  pObj the device pObj
 531:D:/fchai/work/i-cube/I-CUBE-HUAWEI/Drivers/BSP/Components/lis2mdl\lis2mdl.c ****  * @param  FilterMode Value of the filter mode
 532:D:/fchai/work/i-cube/I-CUBE-HUAWEI/Drivers/BSP/Components/lis2mdl\lis2mdl.c ****  * @retval 0 in case of success, an error code otherwise
 533:D:/fchai/work/i-cube/I-CUBE-HUAWEI/Drivers/BSP/Components/lis2mdl\lis2mdl.c ****  */
 534:D:/fchai/work/i-cube/I-CUBE-HUAWEI/Drivers/BSP/Components/lis2mdl\lis2mdl.c **** int32_t LIS2MDL_MAG_Set_Filter_Mode(LIS2MDL_Object_t *pObj, uint8_t FilterMode)
 535:D:/fchai/work/i-cube/I-CUBE-HUAWEI/Drivers/BSP/Components/lis2mdl\lis2mdl.c **** {
 536:D:/fchai/work/i-cube/I-CUBE-HUAWEI/Drivers/BSP/Components/lis2mdl\lis2mdl.c ****   if(lis2mdl_low_pass_bandwidth_set(&(pObj->Ctx), (lis2mdl_lpf_t)FilterMode) != LIS2MDL_OK)
 537:D:/fchai/work/i-cube/I-CUBE-HUAWEI/Drivers/BSP/Components/lis2mdl\lis2mdl.c ****   {
 538:D:/fchai/work/i-cube/I-CUBE-HUAWEI/Drivers/BSP/Components/lis2mdl\lis2mdl.c ****     return LIS2MDL_ERROR;
 539:D:/fchai/work/i-cube/I-CUBE-HUAWEI/Drivers/BSP/Components/lis2mdl\lis2mdl.c ****   }
 540:D:/fchai/work/i-cube/I-CUBE-HUAWEI/Drivers/BSP/Components/lis2mdl\lis2mdl.c **** 
ARM GAS  T:\msys\tmp\cc50myQj.s 			page 24


 541:D:/fchai/work/i-cube/I-CUBE-HUAWEI/Drivers/BSP/Components/lis2mdl\lis2mdl.c ****   return LIS2MDL_OK;
 542:D:/fchai/work/i-cube/I-CUBE-HUAWEI/Drivers/BSP/Components/lis2mdl\lis2mdl.c **** }
 543:D:/fchai/work/i-cube/I-CUBE-HUAWEI/Drivers/BSP/Components/lis2mdl\lis2mdl.c **** 
 544:D:/fchai/work/i-cube/I-CUBE-HUAWEI/Drivers/BSP/Components/lis2mdl\lis2mdl.c **** /**
 545:D:/fchai/work/i-cube/I-CUBE-HUAWEI/Drivers/BSP/Components/lis2mdl\lis2mdl.c ****  * @brief  Set the LIS2MDL power mode
 546:D:/fchai/work/i-cube/I-CUBE-HUAWEI/Drivers/BSP/Components/lis2mdl\lis2mdl.c ****  * @param  pObj the device pObj
 547:D:/fchai/work/i-cube/I-CUBE-HUAWEI/Drivers/BSP/Components/lis2mdl\lis2mdl.c ****  * @param  PowerMode Value of the power mode
 548:D:/fchai/work/i-cube/I-CUBE-HUAWEI/Drivers/BSP/Components/lis2mdl\lis2mdl.c ****  * @retval 0 in case of success, an error code otherwise
 549:D:/fchai/work/i-cube/I-CUBE-HUAWEI/Drivers/BSP/Components/lis2mdl\lis2mdl.c ****  */
 550:D:/fchai/work/i-cube/I-CUBE-HUAWEI/Drivers/BSP/Components/lis2mdl\lis2mdl.c **** int32_t LIS2MDL_MAG_Set_Power_Mode(LIS2MDL_Object_t *pObj, uint8_t PowerMode)
 551:D:/fchai/work/i-cube/I-CUBE-HUAWEI/Drivers/BSP/Components/lis2mdl\lis2mdl.c **** {
 552:D:/fchai/work/i-cube/I-CUBE-HUAWEI/Drivers/BSP/Components/lis2mdl\lis2mdl.c ****   if(lis2mdl_power_mode_set(&(pObj->Ctx), (lis2mdl_lp_t)PowerMode) != LIS2MDL_OK)
 553:D:/fchai/work/i-cube/I-CUBE-HUAWEI/Drivers/BSP/Components/lis2mdl\lis2mdl.c ****   {
 554:D:/fchai/work/i-cube/I-CUBE-HUAWEI/Drivers/BSP/Components/lis2mdl\lis2mdl.c ****     return LIS2MDL_ERROR;
 555:D:/fchai/work/i-cube/I-CUBE-HUAWEI/Drivers/BSP/Components/lis2mdl\lis2mdl.c ****   }
 556:D:/fchai/work/i-cube/I-CUBE-HUAWEI/Drivers/BSP/Components/lis2mdl\lis2mdl.c **** 
 557:D:/fchai/work/i-cube/I-CUBE-HUAWEI/Drivers/BSP/Components/lis2mdl\lis2mdl.c ****   return LIS2MDL_OK;
 558:D:/fchai/work/i-cube/I-CUBE-HUAWEI/Drivers/BSP/Components/lis2mdl\lis2mdl.c **** }
 559:D:/fchai/work/i-cube/I-CUBE-HUAWEI/Drivers/BSP/Components/lis2mdl\lis2mdl.c **** 
 560:D:/fchai/work/i-cube/I-CUBE-HUAWEI/Drivers/BSP/Components/lis2mdl\lis2mdl.c **** /**
 561:D:/fchai/work/i-cube/I-CUBE-HUAWEI/Drivers/BSP/Components/lis2mdl\lis2mdl.c ****  * @}
 562:D:/fchai/work/i-cube/I-CUBE-HUAWEI/Drivers/BSP/Components/lis2mdl\lis2mdl.c ****  */
 563:D:/fchai/work/i-cube/I-CUBE-HUAWEI/Drivers/BSP/Components/lis2mdl\lis2mdl.c **** 
 564:D:/fchai/work/i-cube/I-CUBE-HUAWEI/Drivers/BSP/Components/lis2mdl\lis2mdl.c **** /** @defgroup LIS2MDL_Private_Functions LIS2MDL Private Functions
 565:D:/fchai/work/i-cube/I-CUBE-HUAWEI/Drivers/BSP/Components/lis2mdl\lis2mdl.c ****  * @{
 566:D:/fchai/work/i-cube/I-CUBE-HUAWEI/Drivers/BSP/Components/lis2mdl\lis2mdl.c ****  */
 567:D:/fchai/work/i-cube/I-CUBE-HUAWEI/Drivers/BSP/Components/lis2mdl\lis2mdl.c **** 
 568:D:/fchai/work/i-cube/I-CUBE-HUAWEI/Drivers/BSP/Components/lis2mdl\lis2mdl.c **** /**
 569:D:/fchai/work/i-cube/I-CUBE-HUAWEI/Drivers/BSP/Components/lis2mdl\lis2mdl.c ****  * @brief  Wrap Read register component function to Bus IO function
 570:D:/fchai/work/i-cube/I-CUBE-HUAWEI/Drivers/BSP/Components/lis2mdl\lis2mdl.c ****  * @param  Handle the device handler
 571:D:/fchai/work/i-cube/I-CUBE-HUAWEI/Drivers/BSP/Components/lis2mdl\lis2mdl.c ****  * @param  Reg the register address
 572:D:/fchai/work/i-cube/I-CUBE-HUAWEI/Drivers/BSP/Components/lis2mdl\lis2mdl.c ****  * @param  pData the stored data pointer
 573:D:/fchai/work/i-cube/I-CUBE-HUAWEI/Drivers/BSP/Components/lis2mdl\lis2mdl.c ****  * @param  Length the length
 574:D:/fchai/work/i-cube/I-CUBE-HUAWEI/Drivers/BSP/Components/lis2mdl\lis2mdl.c ****  * @retval 0 in case of success, an error code otherwise
 575:D:/fchai/work/i-cube/I-CUBE-HUAWEI/Drivers/BSP/Components/lis2mdl\lis2mdl.c ****  */
 576:D:/fchai/work/i-cube/I-CUBE-HUAWEI/Drivers/BSP/Components/lis2mdl\lis2mdl.c **** static int32_t ReadMagRegWrap(void *Handle, uint8_t Reg, uint8_t *pData, uint16_t Length)
 577:D:/fchai/work/i-cube/I-CUBE-HUAWEI/Drivers/BSP/Components/lis2mdl\lis2mdl.c **** {
 688              		.loc 1 577 1 is_stmt 1 view -0
 689              		.cfi_startproc
 690              		@ args = 0, pretend = 0, frame = 0
 691              		@ frame_needed = 0, uses_anonymous_args = 0
 692              		@ link register save eliminated.
 578:D:/fchai/work/i-cube/I-CUBE-HUAWEI/Drivers/BSP/Components/lis2mdl\lis2mdl.c ****   LIS2MDL_Object_t *pObj = (LIS2MDL_Object_t *)Handle;
 693              		.loc 1 578 3 view .LVU173
 579:D:/fchai/work/i-cube/I-CUBE-HUAWEI/Drivers/BSP/Components/lis2mdl\lis2mdl.c **** 
 580:D:/fchai/work/i-cube/I-CUBE-HUAWEI/Drivers/BSP/Components/lis2mdl\lis2mdl.c ****   if (pObj->IO.BusType == LIS2MDL_I2C_BUS) /* I2C */
 694              		.loc 1 580 3 view .LVU174
 577:D:/fchai/work/i-cube/I-CUBE-HUAWEI/Drivers/BSP/Components/lis2mdl\lis2mdl.c ****   LIS2MDL_Object_t *pObj = (LIS2MDL_Object_t *)Handle;
 695              		.loc 1 577 1 is_stmt 0 view .LVU175
 696 0000 10B4     		push	{r4}
 697              	.LCFI23:
 698              		.cfi_def_cfa_offset 4
 699              		.cfi_offset 4, -4
 700              		.loc 1 580 6 view .LVU176
 701 0002 8468     		ldr	r4, [r0, #8]
 702 0004 3CB9     		cbnz	r4, .L46
 703              	.LVL46:
ARM GAS  T:\msys\tmp\cc50myQj.s 			page 25


 704              	.LBB11:
 705              	.LBI11:
 576:D:/fchai/work/i-cube/I-CUBE-HUAWEI/Drivers/BSP/Components/lis2mdl\lis2mdl.c **** {
 706              		.loc 1 576 16 is_stmt 1 view .LVU177
 707              	.LBB12:
 581:D:/fchai/work/i-cube/I-CUBE-HUAWEI/Drivers/BSP/Components/lis2mdl\lis2mdl.c ****   {
 582:D:/fchai/work/i-cube/I-CUBE-HUAWEI/Drivers/BSP/Components/lis2mdl\lis2mdl.c ****     /* Enable Multi-byte read */
 583:D:/fchai/work/i-cube/I-CUBE-HUAWEI/Drivers/BSP/Components/lis2mdl\lis2mdl.c ****     return pObj->IO.ReadReg(pObj->IO.Address, (Reg | 0x80U), pData, Length);
 708              		.loc 1 583 5 view .LVU178
 709              		.loc 1 583 12 is_stmt 0 view .LVU179
 710 0006 41F08001 		orr	r1, r1, #128
 711              	.LVL47:
 712              	.L48:
 713              		.loc 1 583 12 view .LVU180
 714              	.LBE12:
 715              	.LBE11:
 584:D:/fchai/work/i-cube/I-CUBE-HUAWEI/Drivers/BSP/Components/lis2mdl\lis2mdl.c ****   }
 585:D:/fchai/work/i-cube/I-CUBE-HUAWEI/Drivers/BSP/Components/lis2mdl\lis2mdl.c ****   else   /* SPI 3-Wires or SPI 4-Wires */
 586:D:/fchai/work/i-cube/I-CUBE-HUAWEI/Drivers/BSP/Components/lis2mdl\lis2mdl.c ****   {
 587:D:/fchai/work/i-cube/I-CUBE-HUAWEI/Drivers/BSP/Components/lis2mdl\lis2mdl.c ****     /* Enable Multi-byte read */
 588:D:/fchai/work/i-cube/I-CUBE-HUAWEI/Drivers/BSP/Components/lis2mdl\lis2mdl.c ****     return pObj->IO.ReadReg(pObj->IO.Address, (Reg | 0x40U), pData, Length);
 716              		.loc 1 588 12 view .LVU181
 717 000a 4469     		ldr	r4, [r0, #20]
 718 000c 007B     		ldrb	r0, [r0, #12]	@ zero_extendqisi2
 719              	.LVL48:
 720              		.loc 1 588 12 view .LVU182
 721 000e A446     		mov	ip, r4
 589:D:/fchai/work/i-cube/I-CUBE-HUAWEI/Drivers/BSP/Components/lis2mdl\lis2mdl.c ****   }
 590:D:/fchai/work/i-cube/I-CUBE-HUAWEI/Drivers/BSP/Components/lis2mdl\lis2mdl.c **** }
 722              		.loc 1 590 1 view .LVU183
 723 0010 5DF8044B 		ldr	r4, [sp], #4
 724              	.LCFI24:
 725              		.cfi_remember_state
 726              		.cfi_restore 4
 727              		.cfi_def_cfa_offset 0
 588:D:/fchai/work/i-cube/I-CUBE-HUAWEI/Drivers/BSP/Components/lis2mdl\lis2mdl.c ****   }
 728              		.loc 1 588 12 view .LVU184
 729 0014 6047     		bx	ip
 730              	.LVL49:
 731              	.L46:
 732              	.LCFI25:
 733              		.cfi_restore_state
 588:D:/fchai/work/i-cube/I-CUBE-HUAWEI/Drivers/BSP/Components/lis2mdl\lis2mdl.c ****   }
 734              		.loc 1 588 5 is_stmt 1 view .LVU185
 588:D:/fchai/work/i-cube/I-CUBE-HUAWEI/Drivers/BSP/Components/lis2mdl\lis2mdl.c ****   }
 735              		.loc 1 588 12 is_stmt 0 view .LVU186
 736 0016 41F04001 		orr	r1, r1, #64
 737              	.LVL50:
 588:D:/fchai/work/i-cube/I-CUBE-HUAWEI/Drivers/BSP/Components/lis2mdl\lis2mdl.c ****   }
 738              		.loc 1 588 12 view .LVU187
 739 001a F6E7     		b	.L48
 740              		.cfi_endproc
 741              	.LFE21:
 743              		.section	.text.WriteMagRegWrap,"ax",%progbits
 744              		.align	1
 745              		.p2align 2,,3
 746              		.syntax unified
ARM GAS  T:\msys\tmp\cc50myQj.s 			page 26


 747              		.thumb
 748              		.thumb_func
 749              		.fpu fpv4-sp-d16
 751              	WriteMagRegWrap:
 752              	.LVL51:
 753              	.LFB22:
 591:D:/fchai/work/i-cube/I-CUBE-HUAWEI/Drivers/BSP/Components/lis2mdl\lis2mdl.c **** 
 592:D:/fchai/work/i-cube/I-CUBE-HUAWEI/Drivers/BSP/Components/lis2mdl\lis2mdl.c **** /**
 593:D:/fchai/work/i-cube/I-CUBE-HUAWEI/Drivers/BSP/Components/lis2mdl\lis2mdl.c ****  * @brief  Wrap Write register component function to Bus IO function
 594:D:/fchai/work/i-cube/I-CUBE-HUAWEI/Drivers/BSP/Components/lis2mdl\lis2mdl.c ****  * @param  Handle the device handler
 595:D:/fchai/work/i-cube/I-CUBE-HUAWEI/Drivers/BSP/Components/lis2mdl\lis2mdl.c ****  * @param  Reg the register address
 596:D:/fchai/work/i-cube/I-CUBE-HUAWEI/Drivers/BSP/Components/lis2mdl\lis2mdl.c ****  * @param  pData the stored data pointer
 597:D:/fchai/work/i-cube/I-CUBE-HUAWEI/Drivers/BSP/Components/lis2mdl\lis2mdl.c ****  * @param  Length the length
 598:D:/fchai/work/i-cube/I-CUBE-HUAWEI/Drivers/BSP/Components/lis2mdl\lis2mdl.c ****  * @retval 0 in case of success, an error code otherwise
 599:D:/fchai/work/i-cube/I-CUBE-HUAWEI/Drivers/BSP/Components/lis2mdl\lis2mdl.c ****  */
 600:D:/fchai/work/i-cube/I-CUBE-HUAWEI/Drivers/BSP/Components/lis2mdl\lis2mdl.c **** static int32_t WriteMagRegWrap(void *Handle, uint8_t Reg, uint8_t *pData, uint16_t Length)
 601:D:/fchai/work/i-cube/I-CUBE-HUAWEI/Drivers/BSP/Components/lis2mdl\lis2mdl.c **** {
 754              		.loc 1 601 1 is_stmt 1 view -0
 755              		.cfi_startproc
 756              		@ args = 0, pretend = 0, frame = 0
 757              		@ frame_needed = 0, uses_anonymous_args = 0
 758              		@ link register save eliminated.
 602:D:/fchai/work/i-cube/I-CUBE-HUAWEI/Drivers/BSP/Components/lis2mdl\lis2mdl.c ****   LIS2MDL_Object_t *pObj = (LIS2MDL_Object_t *)Handle;
 759              		.loc 1 602 3 view .LVU189
 603:D:/fchai/work/i-cube/I-CUBE-HUAWEI/Drivers/BSP/Components/lis2mdl\lis2mdl.c **** 
 604:D:/fchai/work/i-cube/I-CUBE-HUAWEI/Drivers/BSP/Components/lis2mdl\lis2mdl.c ****   if (pObj->IO.BusType == LIS2MDL_I2C_BUS) /* I2C */
 760              		.loc 1 604 3 view .LVU190
 601:D:/fchai/work/i-cube/I-CUBE-HUAWEI/Drivers/BSP/Components/lis2mdl\lis2mdl.c ****   LIS2MDL_Object_t *pObj = (LIS2MDL_Object_t *)Handle;
 761              		.loc 1 601 1 is_stmt 0 view .LVU191
 762 0000 10B4     		push	{r4}
 763              	.LCFI26:
 764              		.cfi_def_cfa_offset 4
 765              		.cfi_offset 4, -4
 766              		.loc 1 604 6 view .LVU192
 767 0002 8468     		ldr	r4, [r0, #8]
 768 0004 3CB9     		cbnz	r4, .L50
 769              	.LVL52:
 770              	.LBB15:
 771              	.LBI15:
 600:D:/fchai/work/i-cube/I-CUBE-HUAWEI/Drivers/BSP/Components/lis2mdl\lis2mdl.c **** {
 772              		.loc 1 600 16 is_stmt 1 view .LVU193
 773              	.LBB16:
 605:D:/fchai/work/i-cube/I-CUBE-HUAWEI/Drivers/BSP/Components/lis2mdl\lis2mdl.c ****   {
 606:D:/fchai/work/i-cube/I-CUBE-HUAWEI/Drivers/BSP/Components/lis2mdl\lis2mdl.c ****     /* Enable Multi-byte write */
 607:D:/fchai/work/i-cube/I-CUBE-HUAWEI/Drivers/BSP/Components/lis2mdl\lis2mdl.c ****     return pObj->IO.WriteReg(pObj->IO.Address, (Reg | 0x80U), pData, Length);
 774              		.loc 1 607 5 view .LVU194
 775              		.loc 1 607 12 is_stmt 0 view .LVU195
 776 0006 41F08001 		orr	r1, r1, #128
 777              	.LVL53:
 778              	.L52:
 779              		.loc 1 607 12 view .LVU196
 780              	.LBE16:
 781              	.LBE15:
 608:D:/fchai/work/i-cube/I-CUBE-HUAWEI/Drivers/BSP/Components/lis2mdl\lis2mdl.c ****   }
 609:D:/fchai/work/i-cube/I-CUBE-HUAWEI/Drivers/BSP/Components/lis2mdl\lis2mdl.c ****   else   /* SPI 3-Wires or SPI 4-Wires */
 610:D:/fchai/work/i-cube/I-CUBE-HUAWEI/Drivers/BSP/Components/lis2mdl\lis2mdl.c ****   {
 611:D:/fchai/work/i-cube/I-CUBE-HUAWEI/Drivers/BSP/Components/lis2mdl\lis2mdl.c ****     /* Enable Multi-byte write */
ARM GAS  T:\msys\tmp\cc50myQj.s 			page 27


 612:D:/fchai/work/i-cube/I-CUBE-HUAWEI/Drivers/BSP/Components/lis2mdl\lis2mdl.c ****     return pObj->IO.WriteReg(pObj->IO.Address, (Reg | 0x40U), pData, Length);
 782              		.loc 1 612 12 view .LVU197
 783 000a 0469     		ldr	r4, [r0, #16]
 784 000c 007B     		ldrb	r0, [r0, #12]	@ zero_extendqisi2
 785              	.LVL54:
 786              		.loc 1 612 12 view .LVU198
 787 000e A446     		mov	ip, r4
 613:D:/fchai/work/i-cube/I-CUBE-HUAWEI/Drivers/BSP/Components/lis2mdl\lis2mdl.c ****   }
 614:D:/fchai/work/i-cube/I-CUBE-HUAWEI/Drivers/BSP/Components/lis2mdl\lis2mdl.c **** }
 788              		.loc 1 614 1 view .LVU199
 789 0010 5DF8044B 		ldr	r4, [sp], #4
 790              	.LCFI27:
 791              		.cfi_remember_state
 792              		.cfi_restore 4
 793              		.cfi_def_cfa_offset 0
 612:D:/fchai/work/i-cube/I-CUBE-HUAWEI/Drivers/BSP/Components/lis2mdl\lis2mdl.c ****   }
 794              		.loc 1 612 12 view .LVU200
 795 0014 6047     		bx	ip
 796              	.LVL55:
 797              	.L50:
 798              	.LCFI28:
 799              		.cfi_restore_state
 612:D:/fchai/work/i-cube/I-CUBE-HUAWEI/Drivers/BSP/Components/lis2mdl\lis2mdl.c ****   }
 800              		.loc 1 612 5 is_stmt 1 view .LVU201
 612:D:/fchai/work/i-cube/I-CUBE-HUAWEI/Drivers/BSP/Components/lis2mdl\lis2mdl.c ****   }
 801              		.loc 1 612 12 is_stmt 0 view .LVU202
 802 0016 41F04001 		orr	r1, r1, #64
 803              	.LVL56:
 612:D:/fchai/work/i-cube/I-CUBE-HUAWEI/Drivers/BSP/Components/lis2mdl\lis2mdl.c ****   }
 804              		.loc 1 612 12 view .LVU203
 805 001a F6E7     		b	.L52
 806              		.cfi_endproc
 807              	.LFE22:
 809              		.section	.text.LIS2MDL_MAG_Enable,"ax",%progbits
 810              		.align	1
 811              		.p2align 2,,3
 812              		.global	LIS2MDL_MAG_Enable
 813              		.syntax unified
 814              		.thumb
 815              		.thumb_func
 816              		.fpu fpv4-sp-d16
 818              	LIS2MDL_MAG_Enable:
 819              	.LVL57:
 820              	.LFB5:
 246:D:/fchai/work/i-cube/I-CUBE-HUAWEI/Drivers/BSP/Components/lis2mdl\lis2mdl.c ****   /* Check if the component is already enabled */
 821              		.loc 1 246 1 is_stmt 1 view -0
 822              		.cfi_startproc
 823              		@ args = 0, pretend = 0, frame = 0
 824              		@ frame_needed = 0, uses_anonymous_args = 0
 248:D:/fchai/work/i-cube/I-CUBE-HUAWEI/Drivers/BSP/Components/lis2mdl\lis2mdl.c ****   {
 825              		.loc 1 248 3 view .LVU205
 248:D:/fchai/work/i-cube/I-CUBE-HUAWEI/Drivers/BSP/Components/lis2mdl\lis2mdl.c ****   {
 826              		.loc 1 248 6 is_stmt 0 view .LVU206
 827 0000 90F82930 		ldrb	r3, [r0, #41]	@ zero_extendqisi2
 828 0004 012B     		cmp	r3, #1
 829 0006 0AD0     		beq	.L55
 830              	.LVL58:
ARM GAS  T:\msys\tmp\cc50myQj.s 			page 28


 831              	.LBB19:
 832              	.LBI19:
 245:D:/fchai/work/i-cube/I-CUBE-HUAWEI/Drivers/BSP/Components/lis2mdl\lis2mdl.c **** {
 833              		.loc 1 245 9 is_stmt 1 view .LVU207
 834              	.LBB20:
 254:D:/fchai/work/i-cube/I-CUBE-HUAWEI/Drivers/BSP/Components/lis2mdl\lis2mdl.c ****   {
 835              		.loc 1 254 3 view .LVU208
 836              	.LBE20:
 837              	.LBE19:
 246:D:/fchai/work/i-cube/I-CUBE-HUAWEI/Drivers/BSP/Components/lis2mdl\lis2mdl.c ****   /* Check if the component is already enabled */
 838              		.loc 1 246 1 is_stmt 0 view .LVU209
 839 0008 10B5     		push	{r4, lr}
 840              	.LCFI29:
 841              		.cfi_def_cfa_offset 8
 842              		.cfi_offset 4, -8
 843              		.cfi_offset 14, -4
 844              	.LBB23:
 845              	.LBB21:
 254:D:/fchai/work/i-cube/I-CUBE-HUAWEI/Drivers/BSP/Components/lis2mdl\lis2mdl.c ****   {
 846              		.loc 1 254 7 view .LVU210
 847 000a 0021     		movs	r1, #0
 848 000c 0446     		mov	r4, r0
 849 000e 1C30     		adds	r0, r0, #28
 850              	.LVL59:
 254:D:/fchai/work/i-cube/I-CUBE-HUAWEI/Drivers/BSP/Components/lis2mdl\lis2mdl.c ****   {
 851              		.loc 1 254 7 view .LVU211
 852 0010 FFF7FEFF 		bl	lis2mdl_operating_mode_set
 853              	.LVL60:
 254:D:/fchai/work/i-cube/I-CUBE-HUAWEI/Drivers/BSP/Components/lis2mdl\lis2mdl.c ****   {
 854              		.loc 1 254 6 view .LVU212
 855 0014 28B9     		cbnz	r0, .L56
 259:D:/fchai/work/i-cube/I-CUBE-HUAWEI/Drivers/BSP/Components/lis2mdl\lis2mdl.c **** 
 856              		.loc 1 259 3 is_stmt 1 view .LVU213
 259:D:/fchai/work/i-cube/I-CUBE-HUAWEI/Drivers/BSP/Components/lis2mdl\lis2mdl.c **** 
 857              		.loc 1 259 24 is_stmt 0 view .LVU214
 858 0016 0123     		movs	r3, #1
 859 0018 84F82930 		strb	r3, [r4, #41]
 261:D:/fchai/work/i-cube/I-CUBE-HUAWEI/Drivers/BSP/Components/lis2mdl\lis2mdl.c **** }
 860              		.loc 1 261 3 is_stmt 1 view .LVU215
 861              	.LBE21:
 862              	.LBE23:
 262:D:/fchai/work/i-cube/I-CUBE-HUAWEI/Drivers/BSP/Components/lis2mdl\lis2mdl.c **** 
 863              		.loc 1 262 1 is_stmt 0 view .LVU216
 864 001c 10BD     		pop	{r4, pc}
 865              	.LVL61:
 866              	.L55:
 867              	.LCFI30:
 868              		.cfi_def_cfa_offset 0
 869              		.cfi_restore 4
 870              		.cfi_restore 14
 250:D:/fchai/work/i-cube/I-CUBE-HUAWEI/Drivers/BSP/Components/lis2mdl\lis2mdl.c ****   }
 871              		.loc 1 250 12 view .LVU217
 872 001e 0020     		movs	r0, #0
 873              	.LVL62:
 262:D:/fchai/work/i-cube/I-CUBE-HUAWEI/Drivers/BSP/Components/lis2mdl\lis2mdl.c **** 
 874              		.loc 1 262 1 view .LVU218
 875 0020 7047     		bx	lr
ARM GAS  T:\msys\tmp\cc50myQj.s 			page 29


 876              	.LVL63:
 877              	.L56:
 878              	.LCFI31:
 879              		.cfi_def_cfa_offset 8
 880              		.cfi_offset 4, -8
 881              		.cfi_offset 14, -4
 882              	.LBB24:
 883              	.LBB22:
 256:D:/fchai/work/i-cube/I-CUBE-HUAWEI/Drivers/BSP/Components/lis2mdl\lis2mdl.c ****   }
 884              		.loc 1 256 12 view .LVU219
 885 0022 4FF0FF30 		mov	r0, #-1
 886              	.LVL64:
 256:D:/fchai/work/i-cube/I-CUBE-HUAWEI/Drivers/BSP/Components/lis2mdl\lis2mdl.c ****   }
 887              		.loc 1 256 12 view .LVU220
 888              	.LBE22:
 889              	.LBE24:
 262:D:/fchai/work/i-cube/I-CUBE-HUAWEI/Drivers/BSP/Components/lis2mdl\lis2mdl.c **** 
 890              		.loc 1 262 1 view .LVU221
 891 0026 10BD     		pop	{r4, pc}
 262:D:/fchai/work/i-cube/I-CUBE-HUAWEI/Drivers/BSP/Components/lis2mdl\lis2mdl.c **** 
 892              		.loc 1 262 1 view .LVU222
 893              		.cfi_endproc
 894              	.LFE5:
 896              		.section	.text.LIS2MDL_DeInit,"ax",%progbits
 897              		.align	1
 898              		.p2align 2,,3
 899              		.global	LIS2MDL_DeInit
 900              		.syntax unified
 901              		.thumb
 902              		.thumb_func
 903              		.fpu fpv4-sp-d16
 905              	LIS2MDL_DeInit:
 906              	.LVL65:
 907              	.LFB2:
 188:D:/fchai/work/i-cube/I-CUBE-HUAWEI/Drivers/BSP/Components/lis2mdl\lis2mdl.c ****   /* Disable the component */
 908              		.loc 1 188 1 is_stmt 1 view -0
 909              		.cfi_startproc
 910              		@ args = 0, pretend = 0, frame = 0
 911              		@ frame_needed = 0, uses_anonymous_args = 0
 190:D:/fchai/work/i-cube/I-CUBE-HUAWEI/Drivers/BSP/Components/lis2mdl\lis2mdl.c ****   {
 912              		.loc 1 190 3 view .LVU224
 188:D:/fchai/work/i-cube/I-CUBE-HUAWEI/Drivers/BSP/Components/lis2mdl\lis2mdl.c ****   /* Disable the component */
 913              		.loc 1 188 1 is_stmt 0 view .LVU225
 914 0000 10B5     		push	{r4, lr}
 915              	.LCFI32:
 916              		.cfi_def_cfa_offset 8
 917              		.cfi_offset 4, -8
 918              		.cfi_offset 14, -4
 919              	.LBB29:
 920              	.LBB30:
 272:D:/fchai/work/i-cube/I-CUBE-HUAWEI/Drivers/BSP/Components/lis2mdl\lis2mdl.c ****   {
 921              		.loc 1 272 6 view .LVU226
 922 0002 90F82930 		ldrb	r3, [r0, #41]	@ zero_extendqisi2
 923              	.LBE30:
 924              	.LBE29:
 188:D:/fchai/work/i-cube/I-CUBE-HUAWEI/Drivers/BSP/Components/lis2mdl\lis2mdl.c ****   /* Disable the component */
 925              		.loc 1 188 1 view .LVU227
ARM GAS  T:\msys\tmp\cc50myQj.s 			page 30


 926 0006 0446     		mov	r4, r0
 927              	.LVL66:
 928              	.LBB35:
 929              	.LBI29:
 269:D:/fchai/work/i-cube/I-CUBE-HUAWEI/Drivers/BSP/Components/lis2mdl\lis2mdl.c **** {
 930              		.loc 1 269 9 is_stmt 1 view .LVU228
 931              	.LBB33:
 272:D:/fchai/work/i-cube/I-CUBE-HUAWEI/Drivers/BSP/Components/lis2mdl\lis2mdl.c ****   {
 932              		.loc 1 272 3 view .LVU229
 272:D:/fchai/work/i-cube/I-CUBE-HUAWEI/Drivers/BSP/Components/lis2mdl\lis2mdl.c ****   {
 933              		.loc 1 272 6 is_stmt 0 view .LVU230
 934 0008 1BB9     		cbnz	r3, .L69
 935              	.LVL67:
 936              	.L62:
 272:D:/fchai/work/i-cube/I-CUBE-HUAWEI/Drivers/BSP/Components/lis2mdl\lis2mdl.c ****   {
 937              		.loc 1 272 6 view .LVU231
 938              	.LBE33:
 939              	.LBE35:
 195:D:/fchai/work/i-cube/I-CUBE-HUAWEI/Drivers/BSP/Components/lis2mdl\lis2mdl.c **** 
 940              		.loc 1 195 3 is_stmt 1 view .LVU232
 195:D:/fchai/work/i-cube/I-CUBE-HUAWEI/Drivers/BSP/Components/lis2mdl\lis2mdl.c **** 
 941              		.loc 1 195 24 is_stmt 0 view .LVU233
 942 000a 0020     		movs	r0, #0
 943 000c 84F82800 		strb	r0, [r4, #40]
 197:D:/fchai/work/i-cube/I-CUBE-HUAWEI/Drivers/BSP/Components/lis2mdl\lis2mdl.c **** }
 944              		.loc 1 197 3 is_stmt 1 view .LVU234
 198:D:/fchai/work/i-cube/I-CUBE-HUAWEI/Drivers/BSP/Components/lis2mdl\lis2mdl.c **** 
 945              		.loc 1 198 1 is_stmt 0 view .LVU235
 946 0010 10BD     		pop	{r4, pc}
 947              	.LVL68:
 948              	.L69:
 949              	.LBB36:
 950              	.LBB34:
 951              	.LBB31:
 952              	.LBI31:
 269:D:/fchai/work/i-cube/I-CUBE-HUAWEI/Drivers/BSP/Components/lis2mdl\lis2mdl.c **** {
 953              		.loc 1 269 9 is_stmt 1 view .LVU236
 954              	.LBB32:
 278:D:/fchai/work/i-cube/I-CUBE-HUAWEI/Drivers/BSP/Components/lis2mdl\lis2mdl.c ****   {
 955              		.loc 1 278 3 view .LVU237
 278:D:/fchai/work/i-cube/I-CUBE-HUAWEI/Drivers/BSP/Components/lis2mdl\lis2mdl.c ****   {
 956              		.loc 1 278 7 is_stmt 0 view .LVU238
 957 0012 0221     		movs	r1, #2
 958 0014 1C30     		adds	r0, r0, #28
 959              	.LVL69:
 278:D:/fchai/work/i-cube/I-CUBE-HUAWEI/Drivers/BSP/Components/lis2mdl\lis2mdl.c ****   {
 960              		.loc 1 278 7 view .LVU239
 961 0016 FFF7FEFF 		bl	lis2mdl_operating_mode_set
 962              	.LVL70:
 278:D:/fchai/work/i-cube/I-CUBE-HUAWEI/Drivers/BSP/Components/lis2mdl\lis2mdl.c ****   {
 963              		.loc 1 278 6 view .LVU240
 964 001a 10B9     		cbnz	r0, .L64
 283:D:/fchai/work/i-cube/I-CUBE-HUAWEI/Drivers/BSP/Components/lis2mdl\lis2mdl.c **** 
 965              		.loc 1 283 3 is_stmt 1 view .LVU241
 283:D:/fchai/work/i-cube/I-CUBE-HUAWEI/Drivers/BSP/Components/lis2mdl\lis2mdl.c **** 
 966              		.loc 1 283 24 is_stmt 0 view .LVU242
 967 001c 84F82900 		strb	r0, [r4, #41]
ARM GAS  T:\msys\tmp\cc50myQj.s 			page 31


 285:D:/fchai/work/i-cube/I-CUBE-HUAWEI/Drivers/BSP/Components/lis2mdl\lis2mdl.c **** }
 968              		.loc 1 285 3 is_stmt 1 view .LVU243
 969              	.LVL71:
 285:D:/fchai/work/i-cube/I-CUBE-HUAWEI/Drivers/BSP/Components/lis2mdl\lis2mdl.c **** }
 970              		.loc 1 285 3 is_stmt 0 view .LVU244
 971 0020 F3E7     		b	.L62
 972              	.LVL72:
 973              	.L64:
 285:D:/fchai/work/i-cube/I-CUBE-HUAWEI/Drivers/BSP/Components/lis2mdl\lis2mdl.c **** }
 974              		.loc 1 285 3 view .LVU245
 975              	.LBE32:
 976              	.LBE31:
 977              	.LBE34:
 978              	.LBE36:
 192:D:/fchai/work/i-cube/I-CUBE-HUAWEI/Drivers/BSP/Components/lis2mdl\lis2mdl.c ****   }
 979              		.loc 1 192 12 view .LVU246
 980 0022 4FF0FF30 		mov	r0, #-1
 981              	.LVL73:
 198:D:/fchai/work/i-cube/I-CUBE-HUAWEI/Drivers/BSP/Components/lis2mdl\lis2mdl.c **** 
 982              		.loc 1 198 1 view .LVU247
 983 0026 10BD     		pop	{r4, pc}
 198:D:/fchai/work/i-cube/I-CUBE-HUAWEI/Drivers/BSP/Components/lis2mdl\lis2mdl.c **** 
 984              		.loc 1 198 1 view .LVU248
 985              		.cfi_endproc
 986              	.LFE2:
 988              		.section	.text.LIS2MDL_MAG_Disable,"ax",%progbits
 989              		.align	1
 990              		.p2align 2,,3
 991              		.global	LIS2MDL_MAG_Disable
 992              		.syntax unified
 993              		.thumb
 994              		.thumb_func
 995              		.fpu fpv4-sp-d16
 997              	LIS2MDL_MAG_Disable:
 998              	.LVL74:
 999              	.LFB6:
 270:D:/fchai/work/i-cube/I-CUBE-HUAWEI/Drivers/BSP/Components/lis2mdl\lis2mdl.c ****   /* Check if the component is already disabled */
 1000              		.loc 1 270 1 is_stmt 1 view -0
 1001              		.cfi_startproc
 1002              		@ args = 0, pretend = 0, frame = 0
 1003              		@ frame_needed = 0, uses_anonymous_args = 0
 272:D:/fchai/work/i-cube/I-CUBE-HUAWEI/Drivers/BSP/Components/lis2mdl\lis2mdl.c ****   {
 1004              		.loc 1 272 3 view .LVU250
 270:D:/fchai/work/i-cube/I-CUBE-HUAWEI/Drivers/BSP/Components/lis2mdl\lis2mdl.c ****   /* Check if the component is already disabled */
 1005              		.loc 1 270 1 is_stmt 0 view .LVU251
 1006 0000 10B5     		push	{r4, lr}
 1007              	.LCFI33:
 1008              		.cfi_def_cfa_offset 8
 1009              		.cfi_offset 4, -8
 1010              		.cfi_offset 14, -4
 270:D:/fchai/work/i-cube/I-CUBE-HUAWEI/Drivers/BSP/Components/lis2mdl\lis2mdl.c ****   /* Check if the component is already disabled */
 1011              		.loc 1 270 1 view .LVU252
 1012 0002 0446     		mov	r4, r0
 272:D:/fchai/work/i-cube/I-CUBE-HUAWEI/Drivers/BSP/Components/lis2mdl\lis2mdl.c ****   {
 1013              		.loc 1 272 6 view .LVU253
 1014 0004 90F82900 		ldrb	r0, [r0, #41]	@ zero_extendqisi2
 1015              	.LVL75:
ARM GAS  T:\msys\tmp\cc50myQj.s 			page 32


 272:D:/fchai/work/i-cube/I-CUBE-HUAWEI/Drivers/BSP/Components/lis2mdl\lis2mdl.c ****   {
 1016              		.loc 1 272 6 view .LVU254
 1017 0008 00B9     		cbnz	r0, .L75
 286:D:/fchai/work/i-cube/I-CUBE-HUAWEI/Drivers/BSP/Components/lis2mdl\lis2mdl.c **** 
 1018              		.loc 1 286 1 view .LVU255
 1019 000a 10BD     		pop	{r4, pc}
 1020              	.LVL76:
 1021              	.L75:
 1022              	.LBB39:
 1023              	.LBI39:
 269:D:/fchai/work/i-cube/I-CUBE-HUAWEI/Drivers/BSP/Components/lis2mdl\lis2mdl.c **** {
 1024              		.loc 1 269 9 is_stmt 1 view .LVU256
 1025              	.LBB40:
 278:D:/fchai/work/i-cube/I-CUBE-HUAWEI/Drivers/BSP/Components/lis2mdl\lis2mdl.c ****   {
 1026              		.loc 1 278 3 view .LVU257
 278:D:/fchai/work/i-cube/I-CUBE-HUAWEI/Drivers/BSP/Components/lis2mdl\lis2mdl.c ****   {
 1027              		.loc 1 278 7 is_stmt 0 view .LVU258
 1028 000c 0221     		movs	r1, #2
 1029 000e 04F11C00 		add	r0, r4, #28
 1030 0012 FFF7FEFF 		bl	lis2mdl_operating_mode_set
 1031              	.LVL77:
 278:D:/fchai/work/i-cube/I-CUBE-HUAWEI/Drivers/BSP/Components/lis2mdl\lis2mdl.c ****   {
 1032              		.loc 1 278 6 view .LVU259
 1033 0016 10B9     		cbnz	r0, .L73
 283:D:/fchai/work/i-cube/I-CUBE-HUAWEI/Drivers/BSP/Components/lis2mdl\lis2mdl.c **** 
 1034              		.loc 1 283 3 is_stmt 1 view .LVU260
 283:D:/fchai/work/i-cube/I-CUBE-HUAWEI/Drivers/BSP/Components/lis2mdl\lis2mdl.c **** 
 1035              		.loc 1 283 24 is_stmt 0 view .LVU261
 1036 0018 84F82900 		strb	r0, [r4, #41]
 285:D:/fchai/work/i-cube/I-CUBE-HUAWEI/Drivers/BSP/Components/lis2mdl\lis2mdl.c **** }
 1037              		.loc 1 285 3 is_stmt 1 view .LVU262
 1038              	.LBE40:
 1039              	.LBE39:
 286:D:/fchai/work/i-cube/I-CUBE-HUAWEI/Drivers/BSP/Components/lis2mdl\lis2mdl.c **** 
 1040              		.loc 1 286 1 is_stmt 0 view .LVU263
 1041 001c 10BD     		pop	{r4, pc}
 1042              	.LVL78:
 1043              	.L73:
 1044              	.LBB42:
 1045              	.LBB41:
 280:D:/fchai/work/i-cube/I-CUBE-HUAWEI/Drivers/BSP/Components/lis2mdl\lis2mdl.c ****   }
 1046              		.loc 1 280 12 view .LVU264
 1047 001e 4FF0FF30 		mov	r0, #-1
 1048              	.LVL79:
 280:D:/fchai/work/i-cube/I-CUBE-HUAWEI/Drivers/BSP/Components/lis2mdl\lis2mdl.c ****   }
 1049              		.loc 1 280 12 view .LVU265
 1050              	.LBE41:
 1051              	.LBE42:
 286:D:/fchai/work/i-cube/I-CUBE-HUAWEI/Drivers/BSP/Components/lis2mdl\lis2mdl.c **** 
 1052              		.loc 1 286 1 view .LVU266
 1053 0022 10BD     		pop	{r4, pc}
 286:D:/fchai/work/i-cube/I-CUBE-HUAWEI/Drivers/BSP/Components/lis2mdl\lis2mdl.c **** 
 1054              		.loc 1 286 1 view .LVU267
 1055              		.cfi_endproc
 1056              	.LFE6:
 1058              		.section	.text.LIS2MDL_RegisterBusIO,"ax",%progbits
 1059              		.align	1
ARM GAS  T:\msys\tmp\cc50myQj.s 			page 33


 1060              		.p2align 2,,3
 1061              		.global	LIS2MDL_RegisterBusIO
 1062              		.syntax unified
 1063              		.thumb
 1064              		.thumb_func
 1065              		.fpu fpv4-sp-d16
 1067              	LIS2MDL_RegisterBusIO:
 1068              	.LVL80:
 1069              	.LFB0:
  84:D:/fchai/work/i-cube/I-CUBE-HUAWEI/Drivers/BSP/Components/lis2mdl\lis2mdl.c ****   int32_t ret = LIS2MDL_OK;
 1070              		.loc 1 84 1 is_stmt 1 view -0
 1071              		.cfi_startproc
 1072              		@ args = 0, pretend = 0, frame = 8
 1073              		@ frame_needed = 0, uses_anonymous_args = 0
  85:D:/fchai/work/i-cube/I-CUBE-HUAWEI/Drivers/BSP/Components/lis2mdl\lis2mdl.c **** 
 1074              		.loc 1 85 3 view .LVU269
  87:D:/fchai/work/i-cube/I-CUBE-HUAWEI/Drivers/BSP/Components/lis2mdl\lis2mdl.c ****   {
 1075              		.loc 1 87 3 view .LVU270
  87:D:/fchai/work/i-cube/I-CUBE-HUAWEI/Drivers/BSP/Components/lis2mdl\lis2mdl.c ****   {
 1076              		.loc 1 87 6 is_stmt 0 view .LVU271
 1077 0000 0028     		cmp	r0, #0
 1078 0002 3AD0     		beq	.L91
  93:D:/fchai/work/i-cube/I-CUBE-HUAWEI/Drivers/BSP/Components/lis2mdl\lis2mdl.c ****     pObj->IO.DeInit    = pIO->DeInit;
 1079              		.loc 1 93 5 is_stmt 1 view .LVU272
  84:D:/fchai/work/i-cube/I-CUBE-HUAWEI/Drivers/BSP/Components/lis2mdl\lis2mdl.c ****   int32_t ret = LIS2MDL_OK;
 1080              		.loc 1 84 1 is_stmt 0 view .LVU273
 1081 0004 30B5     		push	{r4, r5, lr}
 1082              	.LCFI34:
 1083              		.cfi_def_cfa_offset 12
 1084              		.cfi_offset 4, -12
 1085              		.cfi_offset 5, -8
 1086              		.cfi_offset 14, -4
 1087 0006 0446     		mov	r4, r0
  94:D:/fchai/work/i-cube/I-CUBE-HUAWEI/Drivers/BSP/Components/lis2mdl\lis2mdl.c ****     pObj->IO.BusType   = pIO->BusType;
 1088              		.loc 1 94 29 view .LVU274
 1089 0008 D1E90030 		ldrd	r3, r0, [r1]
 1090              	.LVL81:
  95:D:/fchai/work/i-cube/I-CUBE-HUAWEI/Drivers/BSP/Components/lis2mdl\lis2mdl.c ****     pObj->IO.Address   = pIO->Address;
 1091              		.loc 1 95 29 view .LVU275
 1092 000c 8A68     		ldr	r2, [r1, #8]
  95:D:/fchai/work/i-cube/I-CUBE-HUAWEI/Drivers/BSP/Components/lis2mdl\lis2mdl.c ****     pObj->IO.Address   = pIO->Address;
 1093              		.loc 1 95 24 view .LVU276
 1094 000e A260     		str	r2, [r4, #8]
  94:D:/fchai/work/i-cube/I-CUBE-HUAWEI/Drivers/BSP/Components/lis2mdl\lis2mdl.c ****     pObj->IO.BusType   = pIO->BusType;
 1095              		.loc 1 94 24 view .LVU277
 1096 0010 C4E90030 		strd	r3, r0, [r4]
  95:D:/fchai/work/i-cube/I-CUBE-HUAWEI/Drivers/BSP/Components/lis2mdl\lis2mdl.c ****     pObj->IO.Address   = pIO->Address;
 1097              		.loc 1 95 5 is_stmt 1 view .LVU278
  96:D:/fchai/work/i-cube/I-CUBE-HUAWEI/Drivers/BSP/Components/lis2mdl\lis2mdl.c ****     pObj->IO.WriteReg  = pIO->WriteReg;
 1098              		.loc 1 96 5 view .LVU279
  96:D:/fchai/work/i-cube/I-CUBE-HUAWEI/Drivers/BSP/Components/lis2mdl\lis2mdl.c ****     pObj->IO.WriteReg  = pIO->WriteReg;
 1099              		.loc 1 96 29 is_stmt 0 view .LVU280
 1100 0014 0A7B     		ldrb	r2, [r1, #12]	@ zero_extendqisi2
  96:D:/fchai/work/i-cube/I-CUBE-HUAWEI/Drivers/BSP/Components/lis2mdl\lis2mdl.c ****     pObj->IO.WriteReg  = pIO->WriteReg;
 1101              		.loc 1 96 24 view .LVU281
 1102 0016 2273     		strb	r2, [r4, #12]
  97:D:/fchai/work/i-cube/I-CUBE-HUAWEI/Drivers/BSP/Components/lis2mdl\lis2mdl.c ****     pObj->IO.ReadReg   = pIO->ReadReg;
ARM GAS  T:\msys\tmp\cc50myQj.s 			page 34


 1103              		.loc 1 97 5 is_stmt 1 view .LVU282
  98:D:/fchai/work/i-cube/I-CUBE-HUAWEI/Drivers/BSP/Components/lis2mdl\lis2mdl.c ****     pObj->IO.GetTick   = pIO->GetTick;
 1104              		.loc 1 98 29 is_stmt 0 view .LVU283
 1105 0018 D1E90425 		ldrd	r2, r5, [r1, #16]
  99:D:/fchai/work/i-cube/I-CUBE-HUAWEI/Drivers/BSP/Components/lis2mdl\lis2mdl.c **** 
 1106              		.loc 1 99 29 view .LVU284
 1107 001c 8869     		ldr	r0, [r1, #24]
 101:D:/fchai/work/i-cube/I-CUBE-HUAWEI/Drivers/BSP/Components/lis2mdl\lis2mdl.c ****     pObj->Ctx.write_reg = WriteMagRegWrap;
 1108              		.loc 1 101 25 view .LVU285
 1109 001e 1849     		ldr	r1, .L93
 1110              	.LVL82:
  97:D:/fchai/work/i-cube/I-CUBE-HUAWEI/Drivers/BSP/Components/lis2mdl\lis2mdl.c ****     pObj->IO.ReadReg   = pIO->ReadReg;
 1111              		.loc 1 97 24 view .LVU286
 1112 0020 2261     		str	r2, [r4, #16]
  98:D:/fchai/work/i-cube/I-CUBE-HUAWEI/Drivers/BSP/Components/lis2mdl\lis2mdl.c ****     pObj->IO.GetTick   = pIO->GetTick;
 1113              		.loc 1 98 5 is_stmt 1 view .LVU287
 102:D:/fchai/work/i-cube/I-CUBE-HUAWEI/Drivers/BSP/Components/lis2mdl\lis2mdl.c ****     pObj->Ctx.handle    = pObj;
 1114              		.loc 1 102 25 is_stmt 0 view .LVU288
 1115 0022 184A     		ldr	r2, .L93+4
 1116 0024 E261     		str	r2, [r4, #28]
  99:D:/fchai/work/i-cube/I-CUBE-HUAWEI/Drivers/BSP/Components/lis2mdl\lis2mdl.c **** 
 1117              		.loc 1 99 24 view .LVU289
 1118 0026 C4E90550 		strd	r5, r0, [r4, #20]
 101:D:/fchai/work/i-cube/I-CUBE-HUAWEI/Drivers/BSP/Components/lis2mdl\lis2mdl.c ****     pObj->Ctx.write_reg = WriteMagRegWrap;
 1119              		.loc 1 101 5 is_stmt 1 view .LVU290
 101:D:/fchai/work/i-cube/I-CUBE-HUAWEI/Drivers/BSP/Components/lis2mdl\lis2mdl.c ****     pObj->Ctx.write_reg = WriteMagRegWrap;
 1120              		.loc 1 101 25 is_stmt 0 view .LVU291
 1121 002a C4E90814 		strd	r1, r4, [r4, #32]
 102:D:/fchai/work/i-cube/I-CUBE-HUAWEI/Drivers/BSP/Components/lis2mdl\lis2mdl.c ****     pObj->Ctx.handle    = pObj;
 1122              		.loc 1 102 5 is_stmt 1 view .LVU292
 103:D:/fchai/work/i-cube/I-CUBE-HUAWEI/Drivers/BSP/Components/lis2mdl\lis2mdl.c **** 
 1123              		.loc 1 103 5 view .LVU293
 105:D:/fchai/work/i-cube/I-CUBE-HUAWEI/Drivers/BSP/Components/lis2mdl\lis2mdl.c ****     {
 1124              		.loc 1 105 5 view .LVU294
  84:D:/fchai/work/i-cube/I-CUBE-HUAWEI/Drivers/BSP/Components/lis2mdl\lis2mdl.c ****   int32_t ret = LIS2MDL_OK;
 1125              		.loc 1 84 1 is_stmt 0 view .LVU295
 1126 002e 83B0     		sub	sp, sp, #12
 1127              	.LCFI35:
 1128              		.cfi_def_cfa_offset 24
 105:D:/fchai/work/i-cube/I-CUBE-HUAWEI/Drivers/BSP/Components/lis2mdl\lis2mdl.c ****     {
 1129              		.loc 1 105 8 view .LVU296
 1130 0030 03B3     		cbz	r3, .L79
 109:D:/fchai/work/i-cube/I-CUBE-HUAWEI/Drivers/BSP/Components/lis2mdl\lis2mdl.c ****     {
 1131              		.loc 1 109 10 is_stmt 1 view .LVU297
 109:D:/fchai/work/i-cube/I-CUBE-HUAWEI/Drivers/BSP/Components/lis2mdl\lis2mdl.c ****     {
 1132              		.loc 1 109 14 is_stmt 0 view .LVU298
 1133 0032 9847     		blx	r3
 1134              	.LVL83:
 109:D:/fchai/work/i-cube/I-CUBE-HUAWEI/Drivers/BSP/Components/lis2mdl\lis2mdl.c ****     {
 1135              		.loc 1 109 13 view .LVU299
 1136 0034 F0B9     		cbnz	r0, .L79
 115:D:/fchai/work/i-cube/I-CUBE-HUAWEI/Drivers/BSP/Components/lis2mdl\lis2mdl.c ****       {
 1137              		.loc 1 115 7 is_stmt 1 view .LVU300
 115:D:/fchai/work/i-cube/I-CUBE-HUAWEI/Drivers/BSP/Components/lis2mdl\lis2mdl.c ****       {
 1138              		.loc 1 115 19 is_stmt 0 view .LVU301
 1139 0036 A368     		ldr	r3, [r4, #8]
 115:D:/fchai/work/i-cube/I-CUBE-HUAWEI/Drivers/BSP/Components/lis2mdl\lis2mdl.c ****       {
ARM GAS  T:\msys\tmp\cc50myQj.s 			page 35


 1140              		.loc 1 115 10 view .LVU302
 1141 0038 6BB1     		cbz	r3, .L76
 118:D:/fchai/work/i-cube/I-CUBE-HUAWEI/Drivers/BSP/Components/lis2mdl\lis2mdl.c ****         {
 1142              		.loc 1 118 9 is_stmt 1 view .LVU303
 118:D:/fchai/work/i-cube/I-CUBE-HUAWEI/Drivers/BSP/Components/lis2mdl\lis2mdl.c ****         {
 1143              		.loc 1 118 12 is_stmt 0 view .LVU304
 1144 003a 94F82820 		ldrb	r2, [r4, #40]	@ zero_extendqisi2
 1145 003e 52B9     		cbnz	r2, .L76
 120:D:/fchai/work/i-cube/I-CUBE-HUAWEI/Drivers/BSP/Components/lis2mdl\lis2mdl.c ****           {
 1146              		.loc 1 120 11 is_stmt 1 view .LVU305
 120:D:/fchai/work/i-cube/I-CUBE-HUAWEI/Drivers/BSP/Components/lis2mdl\lis2mdl.c ****           {
 1147              		.loc 1 120 14 is_stmt 0 view .LVU306
 1148 0040 012B     		cmp	r3, #1
 1149              	.LBB43:
 1150              	.LBB44:
 1151              	.LBB45:
 470:D:/fchai/work/i-cube/I-CUBE-HUAWEI/Drivers/BSP/Components/lis2mdl\lis2mdl.c ****   {
 1152              		.loc 1 470 7 view .LVU307
 1153 0042 04F11C00 		add	r0, r4, #28
 1154              	.LBE45:
 1155              	.LBE44:
 1156              	.LBE43:
 120:D:/fchai/work/i-cube/I-CUBE-HUAWEI/Drivers/BSP/Components/lis2mdl\lis2mdl.c ****           {
 1157              		.loc 1 120 14 view .LVU308
 1158 0046 08D0     		beq	.L92
 133:D:/fchai/work/i-cube/I-CUBE-HUAWEI/Drivers/BSP/Components/lis2mdl\lis2mdl.c ****             {
 1159              		.loc 1 133 13 is_stmt 1 view .LVU309
 133:D:/fchai/work/i-cube/I-CUBE-HUAWEI/Drivers/BSP/Components/lis2mdl\lis2mdl.c ****             {
 1160              		.loc 1 133 17 is_stmt 0 view .LVU310
 1161 0048 0121     		movs	r1, #1
 1162 004a FFF7FEFF 		bl	lis2mdl_i2c_interface_set
 1163              	.LVL84:
 133:D:/fchai/work/i-cube/I-CUBE-HUAWEI/Drivers/BSP/Components/lis2mdl\lis2mdl.c ****             {
 1164              		.loc 1 133 16 view .LVU311
 1165 004e 0038     		subs	r0, r0, #0
 1166 0050 18BF     		it	ne
 1167 0052 0120     		movne	r0, #1
 1168 0054 4042     		rsbs	r0, r0, #0
 1169              	.LVL85:
 1170              	.L76:
 144:D:/fchai/work/i-cube/I-CUBE-HUAWEI/Drivers/BSP/Components/lis2mdl\lis2mdl.c **** 
 1171              		.loc 1 144 1 view .LVU312
 1172 0056 03B0     		add	sp, sp, #12
 1173              	.LCFI36:
 1174              		.cfi_remember_state
 1175              		.cfi_def_cfa_offset 12
 1176              		@ sp needed
 1177 0058 30BD     		pop	{r4, r5, pc}
 1178              	.LVL86:
 1179              	.L92:
 1180              	.LCFI37:
 1181              		.cfi_restore_state
 1182              	.LBB51:
 123:D:/fchai/work/i-cube/I-CUBE-HUAWEI/Drivers/BSP/Components/lis2mdl\lis2mdl.c **** 
 1183              		.loc 1 123 13 is_stmt 1 view .LVU313
 125:D:/fchai/work/i-cube/I-CUBE-HUAWEI/Drivers/BSP/Components/lis2mdl\lis2mdl.c ****             {
 1184              		.loc 1 125 13 view .LVU314
ARM GAS  T:\msys\tmp\cc50myQj.s 			page 36


 125:D:/fchai/work/i-cube/I-CUBE-HUAWEI/Drivers/BSP/Components/lis2mdl\lis2mdl.c ****             {
 1185              		.loc 1 125 13 is_stmt 0 view .LVU315
 1186 005a 3424     		movs	r4, #52
 1187              	.LVL87:
 1188              	.LBB49:
 1189              	.LBB46:
 470:D:/fchai/work/i-cube/I-CUBE-HUAWEI/Drivers/BSP/Components/lis2mdl\lis2mdl.c ****   {
 1190              		.loc 1 470 7 view .LVU316
 1191 005c 0DF10702 		add	r2, sp, #7
 1192 0060 6221     		movs	r1, #98
 1193 0062 8DF80740 		strb	r4, [sp, #7]
 1194              	.LVL88:
 470:D:/fchai/work/i-cube/I-CUBE-HUAWEI/Drivers/BSP/Components/lis2mdl\lis2mdl.c ****   {
 1195              		.loc 1 470 7 view .LVU317
 1196              	.LBE46:
 1197              	.LBI44:
 468:D:/fchai/work/i-cube/I-CUBE-HUAWEI/Drivers/BSP/Components/lis2mdl\lis2mdl.c **** {
 1198              		.loc 1 468 9 is_stmt 1 view .LVU318
 1199              	.LBB47:
 470:D:/fchai/work/i-cube/I-CUBE-HUAWEI/Drivers/BSP/Components/lis2mdl\lis2mdl.c ****   {
 1200              		.loc 1 470 3 view .LVU319
 470:D:/fchai/work/i-cube/I-CUBE-HUAWEI/Drivers/BSP/Components/lis2mdl\lis2mdl.c ****   {
 1201              		.loc 1 470 7 is_stmt 0 view .LVU320
 1202 0066 FFF7FEFF 		bl	lis2mdl_write_reg
 1203              	.LVL89:
 470:D:/fchai/work/i-cube/I-CUBE-HUAWEI/Drivers/BSP/Components/lis2mdl\lis2mdl.c ****   {
 1204              		.loc 1 470 7 view .LVU321
 1205              	.LBE47:
 1206              	.LBE49:
 127:D:/fchai/work/i-cube/I-CUBE-HUAWEI/Drivers/BSP/Components/lis2mdl\lis2mdl.c ****             }
 1207              		.loc 1 127 22 view .LVU322
 1208 006a 0028     		cmp	r0, #0
 1209 006c 18BF     		it	ne
 1210 006e 4FF0FF30 		movne	r0, #-1
 1211              	.LBB50:
 1212              	.LBB48:
 1213 0072 F0E7     		b	.L76
 1214              	.LVL90:
 1215              	.L79:
 127:D:/fchai/work/i-cube/I-CUBE-HUAWEI/Drivers/BSP/Components/lis2mdl\lis2mdl.c ****             }
 1216              		.loc 1 127 22 view .LVU323
 1217              	.LBE48:
 1218              	.LBE50:
 1219              	.LBE51:
  89:D:/fchai/work/i-cube/I-CUBE-HUAWEI/Drivers/BSP/Components/lis2mdl\lis2mdl.c ****   }
 1220              		.loc 1 89 9 view .LVU324
 1221 0074 4FF0FF30 		mov	r0, #-1
 1222 0078 EDE7     		b	.L76
 1223              	.LVL91:
 1224              	.L91:
 1225              	.LCFI38:
 1226              		.cfi_def_cfa_offset 0
 1227              		.cfi_restore 4
 1228              		.cfi_restore 5
 1229              		.cfi_restore 14
  89:D:/fchai/work/i-cube/I-CUBE-HUAWEI/Drivers/BSP/Components/lis2mdl\lis2mdl.c ****   }
 1230              		.loc 1 89 9 view .LVU325
ARM GAS  T:\msys\tmp\cc50myQj.s 			page 37


 1231 007a 4FF0FF30 		mov	r0, #-1
 1232              	.LVL92:
 144:D:/fchai/work/i-cube/I-CUBE-HUAWEI/Drivers/BSP/Components/lis2mdl\lis2mdl.c **** 
 1233              		.loc 1 144 1 view .LVU326
 1234 007e 7047     		bx	lr
 1235              	.L94:
 1236              		.align	2
 1237              	.L93:
 1238 0080 00000000 		.word	ReadMagRegWrap
 1239 0084 00000000 		.word	WriteMagRegWrap
 1240              		.cfi_endproc
 1241              	.LFE0:
 1243              		.section	.text.LIS2MDL_Read_Reg,"ax",%progbits
 1244              		.align	1
 1245              		.p2align 2,,3
 1246              		.global	LIS2MDL_Read_Reg
 1247              		.syntax unified
 1248              		.thumb
 1249              		.thumb_func
 1250              		.fpu fpv4-sp-d16
 1252              	LIS2MDL_Read_Reg:
 1253              	.LVL93:
 1254              	.LFB14:
 452:D:/fchai/work/i-cube/I-CUBE-HUAWEI/Drivers/BSP/Components/lis2mdl\lis2mdl.c ****   if (lis2mdl_read_reg(&(pObj->Ctx), Reg, Data, 1) != LIS2MDL_OK)
 1255              		.loc 1 452 1 is_stmt 1 view -0
 1256              		.cfi_startproc
 1257              		@ args = 0, pretend = 0, frame = 0
 1258              		@ frame_needed = 0, uses_anonymous_args = 0
 453:D:/fchai/work/i-cube/I-CUBE-HUAWEI/Drivers/BSP/Components/lis2mdl\lis2mdl.c ****   {
 1259              		.loc 1 453 3 view .LVU328
 452:D:/fchai/work/i-cube/I-CUBE-HUAWEI/Drivers/BSP/Components/lis2mdl\lis2mdl.c ****   if (lis2mdl_read_reg(&(pObj->Ctx), Reg, Data, 1) != LIS2MDL_OK)
 1260              		.loc 1 452 1 is_stmt 0 view .LVU329
 1261 0000 08B5     		push	{r3, lr}
 1262              	.LCFI39:
 1263              		.cfi_def_cfa_offset 8
 1264              		.cfi_offset 3, -8
 1265              		.cfi_offset 14, -4
 453:D:/fchai/work/i-cube/I-CUBE-HUAWEI/Drivers/BSP/Components/lis2mdl\lis2mdl.c ****   {
 1266              		.loc 1 453 7 view .LVU330
 1267 0002 1C30     		adds	r0, r0, #28
 1268              	.LVL94:
 453:D:/fchai/work/i-cube/I-CUBE-HUAWEI/Drivers/BSP/Components/lis2mdl\lis2mdl.c ****   {
 1269              		.loc 1 453 7 view .LVU331
 1270 0004 0123     		movs	r3, #1
 1271 0006 FFF7FEFF 		bl	lis2mdl_read_reg
 1272              	.LVL95:
 453:D:/fchai/work/i-cube/I-CUBE-HUAWEI/Drivers/BSP/Components/lis2mdl\lis2mdl.c ****   {
 1273              		.loc 1 453 6 view .LVU332
 1274 000a 0038     		subs	r0, r0, #0
 1275 000c 18BF     		it	ne
 1276 000e 0120     		movne	r0, #1
 459:D:/fchai/work/i-cube/I-CUBE-HUAWEI/Drivers/BSP/Components/lis2mdl\lis2mdl.c **** 
 1277              		.loc 1 459 1 view .LVU333
 1278 0010 4042     		rsbs	r0, r0, #0
 1279 0012 08BD     		pop	{r3, pc}
 1280              		.cfi_endproc
 1281              	.LFE14:
ARM GAS  T:\msys\tmp\cc50myQj.s 			page 38


 1283              		.section	.text.LIS2MDL_Write_Reg,"ax",%progbits
 1284              		.align	1
 1285              		.p2align 2,,3
 1286              		.global	LIS2MDL_Write_Reg
 1287              		.syntax unified
 1288              		.thumb
 1289              		.thumb_func
 1290              		.fpu fpv4-sp-d16
 1292              	LIS2MDL_Write_Reg:
 1293              	.LVL96:
 1294              	.LFB15:
 469:D:/fchai/work/i-cube/I-CUBE-HUAWEI/Drivers/BSP/Components/lis2mdl\lis2mdl.c ****   if (lis2mdl_write_reg(&(pObj->Ctx), Reg, &Data, 1) != LIS2MDL_OK)
 1295              		.loc 1 469 1 is_stmt 1 view -0
 1296              		.cfi_startproc
 1297              		@ args = 0, pretend = 0, frame = 8
 1298              		@ frame_needed = 0, uses_anonymous_args = 0
 470:D:/fchai/work/i-cube/I-CUBE-HUAWEI/Drivers/BSP/Components/lis2mdl\lis2mdl.c ****   {
 1299              		.loc 1 470 3 view .LVU335
 469:D:/fchai/work/i-cube/I-CUBE-HUAWEI/Drivers/BSP/Components/lis2mdl\lis2mdl.c ****   if (lis2mdl_write_reg(&(pObj->Ctx), Reg, &Data, 1) != LIS2MDL_OK)
 1300              		.loc 1 469 1 is_stmt 0 view .LVU336
 1301 0000 10B5     		push	{r4, lr}
 1302              	.LCFI40:
 1303              		.cfi_def_cfa_offset 8
 1304              		.cfi_offset 4, -8
 1305              		.cfi_offset 14, -4
 1306 0002 82B0     		sub	sp, sp, #8
 1307              	.LCFI41:
 1308              		.cfi_def_cfa_offset 16
 469:D:/fchai/work/i-cube/I-CUBE-HUAWEI/Drivers/BSP/Components/lis2mdl\lis2mdl.c ****   if (lis2mdl_write_reg(&(pObj->Ctx), Reg, &Data, 1) != LIS2MDL_OK)
 1309              		.loc 1 469 1 view .LVU337
 1310 0004 1446     		mov	r4, r2
 470:D:/fchai/work/i-cube/I-CUBE-HUAWEI/Drivers/BSP/Components/lis2mdl\lis2mdl.c ****   {
 1311              		.loc 1 470 7 view .LVU338
 1312 0006 0123     		movs	r3, #1
 1313 0008 0DF10702 		add	r2, sp, #7
 1314              	.LVL97:
 470:D:/fchai/work/i-cube/I-CUBE-HUAWEI/Drivers/BSP/Components/lis2mdl\lis2mdl.c ****   {
 1315              		.loc 1 470 7 view .LVU339
 1316 000c 1C30     		adds	r0, r0, #28
 1317              	.LVL98:
 469:D:/fchai/work/i-cube/I-CUBE-HUAWEI/Drivers/BSP/Components/lis2mdl\lis2mdl.c ****   if (lis2mdl_write_reg(&(pObj->Ctx), Reg, &Data, 1) != LIS2MDL_OK)
 1318              		.loc 1 469 1 view .LVU340
 1319 000e 8DF80740 		strb	r4, [sp, #7]
 470:D:/fchai/work/i-cube/I-CUBE-HUAWEI/Drivers/BSP/Components/lis2mdl\lis2mdl.c ****   {
 1320              		.loc 1 470 7 view .LVU341
 1321 0012 FFF7FEFF 		bl	lis2mdl_write_reg
 1322              	.LVL99:
 470:D:/fchai/work/i-cube/I-CUBE-HUAWEI/Drivers/BSP/Components/lis2mdl\lis2mdl.c ****   {
 1323              		.loc 1 470 6 view .LVU342
 1324 0016 0038     		subs	r0, r0, #0
 1325 0018 18BF     		it	ne
 1326 001a 0120     		movne	r0, #1
 476:D:/fchai/work/i-cube/I-CUBE-HUAWEI/Drivers/BSP/Components/lis2mdl\lis2mdl.c **** 
 1327              		.loc 1 476 1 view .LVU343
 1328 001c 4042     		rsbs	r0, r0, #0
 1329 001e 02B0     		add	sp, sp, #8
 1330              	.LCFI42:
ARM GAS  T:\msys\tmp\cc50myQj.s 			page 39


 1331              		.cfi_def_cfa_offset 8
 1332              		@ sp needed
 1333 0020 10BD     		pop	{r4, pc}
 1334              		.cfi_endproc
 1335              	.LFE15:
 1337 0022 00BF     		.section	.text.LIS2MDL_MAG_Set_SelfTest,"ax",%progbits
 1338              		.align	1
 1339              		.p2align 2,,3
 1340              		.global	LIS2MDL_MAG_Set_SelfTest
 1341              		.syntax unified
 1342              		.thumb
 1343              		.thumb_func
 1344              		.fpu fpv4-sp-d16
 1346              	LIS2MDL_MAG_Set_SelfTest:
 1347              	.LVL100:
 1348              	.LFB16:
 485:D:/fchai/work/i-cube/I-CUBE-HUAWEI/Drivers/BSP/Components/lis2mdl\lis2mdl.c ****   if (lis2mdl_self_test_set(&(pObj->Ctx), val) != LIS2MDL_OK)
 1349              		.loc 1 485 1 is_stmt 1 view -0
 1350              		.cfi_startproc
 1351              		@ args = 0, pretend = 0, frame = 0
 1352              		@ frame_needed = 0, uses_anonymous_args = 0
 486:D:/fchai/work/i-cube/I-CUBE-HUAWEI/Drivers/BSP/Components/lis2mdl\lis2mdl.c ****   {
 1353              		.loc 1 486 3 view .LVU345
 485:D:/fchai/work/i-cube/I-CUBE-HUAWEI/Drivers/BSP/Components/lis2mdl\lis2mdl.c ****   if (lis2mdl_self_test_set(&(pObj->Ctx), val) != LIS2MDL_OK)
 1354              		.loc 1 485 1 is_stmt 0 view .LVU346
 1355 0000 08B5     		push	{r3, lr}
 1356              	.LCFI43:
 1357              		.cfi_def_cfa_offset 8
 1358              		.cfi_offset 3, -8
 1359              		.cfi_offset 14, -4
 486:D:/fchai/work/i-cube/I-CUBE-HUAWEI/Drivers/BSP/Components/lis2mdl\lis2mdl.c ****   {
 1360              		.loc 1 486 7 view .LVU347
 1361 0002 1C30     		adds	r0, r0, #28
 1362              	.LVL101:
 486:D:/fchai/work/i-cube/I-CUBE-HUAWEI/Drivers/BSP/Components/lis2mdl\lis2mdl.c ****   {
 1363              		.loc 1 486 7 view .LVU348
 1364 0004 FFF7FEFF 		bl	lis2mdl_self_test_set
 1365              	.LVL102:
 486:D:/fchai/work/i-cube/I-CUBE-HUAWEI/Drivers/BSP/Components/lis2mdl\lis2mdl.c ****   {
 1366              		.loc 1 486 6 view .LVU349
 1367 0008 0038     		subs	r0, r0, #0
 1368 000a 18BF     		it	ne
 1369 000c 0120     		movne	r0, #1
 492:D:/fchai/work/i-cube/I-CUBE-HUAWEI/Drivers/BSP/Components/lis2mdl\lis2mdl.c **** 
 1370              		.loc 1 492 1 view .LVU350
 1371 000e 4042     		rsbs	r0, r0, #0
 1372 0010 08BD     		pop	{r3, pc}
 1373              		.cfi_endproc
 1374              	.LFE16:
 1376 0012 00BF     		.section	.text.LIS2MDL_MAG_Get_DRDY_Status,"ax",%progbits
 1377              		.align	1
 1378              		.p2align 2,,3
 1379              		.global	LIS2MDL_MAG_Get_DRDY_Status
 1380              		.syntax unified
 1381              		.thumb
 1382              		.thumb_func
 1383              		.fpu fpv4-sp-d16
ARM GAS  T:\msys\tmp\cc50myQj.s 			page 40


 1385              	LIS2MDL_MAG_Get_DRDY_Status:
 1386              	.LVL103:
 1387              	.LFB17:
 501:D:/fchai/work/i-cube/I-CUBE-HUAWEI/Drivers/BSP/Components/lis2mdl\lis2mdl.c ****   if (lis2mdl_mag_data_ready_get(&(pObj->Ctx), Status) != LIS2MDL_OK)
 1388              		.loc 1 501 1 is_stmt 1 view -0
 1389              		.cfi_startproc
 1390              		@ args = 0, pretend = 0, frame = 0
 1391              		@ frame_needed = 0, uses_anonymous_args = 0
 502:D:/fchai/work/i-cube/I-CUBE-HUAWEI/Drivers/BSP/Components/lis2mdl\lis2mdl.c ****   {
 1392              		.loc 1 502 3 view .LVU352
 501:D:/fchai/work/i-cube/I-CUBE-HUAWEI/Drivers/BSP/Components/lis2mdl\lis2mdl.c ****   if (lis2mdl_mag_data_ready_get(&(pObj->Ctx), Status) != LIS2MDL_OK)
 1393              		.loc 1 501 1 is_stmt 0 view .LVU353
 1394 0000 08B5     		push	{r3, lr}
 1395              	.LCFI44:
 1396              		.cfi_def_cfa_offset 8
 1397              		.cfi_offset 3, -8
 1398              		.cfi_offset 14, -4
 502:D:/fchai/work/i-cube/I-CUBE-HUAWEI/Drivers/BSP/Components/lis2mdl\lis2mdl.c ****   {
 1399              		.loc 1 502 7 view .LVU354
 1400 0002 1C30     		adds	r0, r0, #28
 1401              	.LVL104:
 502:D:/fchai/work/i-cube/I-CUBE-HUAWEI/Drivers/BSP/Components/lis2mdl\lis2mdl.c ****   {
 1402              		.loc 1 502 7 view .LVU355
 1403 0004 FFF7FEFF 		bl	lis2mdl_mag_data_ready_get
 1404              	.LVL105:
 502:D:/fchai/work/i-cube/I-CUBE-HUAWEI/Drivers/BSP/Components/lis2mdl\lis2mdl.c ****   {
 1405              		.loc 1 502 6 view .LVU356
 1406 0008 0038     		subs	r0, r0, #0
 1407 000a 18BF     		it	ne
 1408 000c 0120     		movne	r0, #1
 508:D:/fchai/work/i-cube/I-CUBE-HUAWEI/Drivers/BSP/Components/lis2mdl\lis2mdl.c **** 
 1409              		.loc 1 508 1 view .LVU357
 1410 000e 4042     		rsbs	r0, r0, #0
 1411 0010 08BD     		pop	{r3, pc}
 1412              		.cfi_endproc
 1413              	.LFE17:
 1415 0012 00BF     		.section	.text.LIS2MDL_MAG_Get_Init_Status,"ax",%progbits
 1416              		.align	1
 1417              		.p2align 2,,3
 1418              		.global	LIS2MDL_MAG_Get_Init_Status
 1419              		.syntax unified
 1420              		.thumb
 1421              		.thumb_func
 1422              		.fpu fpv4-sp-d16
 1424              	LIS2MDL_MAG_Get_Init_Status:
 1425              	.LVL106:
 1426              	.LFB18:
 517:D:/fchai/work/i-cube/I-CUBE-HUAWEI/Drivers/BSP/Components/lis2mdl\lis2mdl.c ****   if (pObj == NULL)
 1427              		.loc 1 517 1 is_stmt 1 view -0
 1428              		.cfi_startproc
 1429              		@ args = 0, pretend = 0, frame = 0
 1430              		@ frame_needed = 0, uses_anonymous_args = 0
 1431              		@ link register save eliminated.
 518:D:/fchai/work/i-cube/I-CUBE-HUAWEI/Drivers/BSP/Components/lis2mdl\lis2mdl.c ****   {
 1432              		.loc 1 518 3 view .LVU359
 518:D:/fchai/work/i-cube/I-CUBE-HUAWEI/Drivers/BSP/Components/lis2mdl\lis2mdl.c ****   {
 1433              		.loc 1 518 6 is_stmt 0 view .LVU360
ARM GAS  T:\msys\tmp\cc50myQj.s 			page 41


 1434 0000 20B1     		cbz	r0, .L105
 523:D:/fchai/work/i-cube/I-CUBE-HUAWEI/Drivers/BSP/Components/lis2mdl\lis2mdl.c **** 
 1435              		.loc 1 523 3 is_stmt 1 view .LVU361
 523:D:/fchai/work/i-cube/I-CUBE-HUAWEI/Drivers/BSP/Components/lis2mdl\lis2mdl.c **** 
 1436              		.loc 1 523 17 is_stmt 0 view .LVU362
 1437 0002 90F82830 		ldrb	r3, [r0, #40]	@ zero_extendqisi2
 523:D:/fchai/work/i-cube/I-CUBE-HUAWEI/Drivers/BSP/Components/lis2mdl\lis2mdl.c **** 
 1438              		.loc 1 523 11 view .LVU363
 1439 0006 0B70     		strb	r3, [r1]
 525:D:/fchai/work/i-cube/I-CUBE-HUAWEI/Drivers/BSP/Components/lis2mdl\lis2mdl.c **** }
 1440              		.loc 1 525 3 is_stmt 1 view .LVU364
 525:D:/fchai/work/i-cube/I-CUBE-HUAWEI/Drivers/BSP/Components/lis2mdl\lis2mdl.c **** }
 1441              		.loc 1 525 10 is_stmt 0 view .LVU365
 1442 0008 0020     		movs	r0, #0
 1443              	.LVL107:
 525:D:/fchai/work/i-cube/I-CUBE-HUAWEI/Drivers/BSP/Components/lis2mdl\lis2mdl.c **** }
 1444              		.loc 1 525 10 view .LVU366
 1445 000a 7047     		bx	lr
 1446              	.LVL108:
 1447              	.L105:
 520:D:/fchai/work/i-cube/I-CUBE-HUAWEI/Drivers/BSP/Components/lis2mdl\lis2mdl.c ****   }
 1448              		.loc 1 520 12 view .LVU367
 1449 000c 4FF0FF30 		mov	r0, #-1
 1450              	.LVL109:
 526:D:/fchai/work/i-cube/I-CUBE-HUAWEI/Drivers/BSP/Components/lis2mdl\lis2mdl.c **** 
 1451              		.loc 1 526 1 view .LVU368
 1452 0010 7047     		bx	lr
 1453              		.cfi_endproc
 1454              	.LFE18:
 1456 0012 00BF     		.section	.text.LIS2MDL_MAG_Set_Filter_Mode,"ax",%progbits
 1457              		.align	1
 1458              		.p2align 2,,3
 1459              		.global	LIS2MDL_MAG_Set_Filter_Mode
 1460              		.syntax unified
 1461              		.thumb
 1462              		.thumb_func
 1463              		.fpu fpv4-sp-d16
 1465              	LIS2MDL_MAG_Set_Filter_Mode:
 1466              	.LVL110:
 1467              	.LFB19:
 535:D:/fchai/work/i-cube/I-CUBE-HUAWEI/Drivers/BSP/Components/lis2mdl\lis2mdl.c ****   if(lis2mdl_low_pass_bandwidth_set(&(pObj->Ctx), (lis2mdl_lpf_t)FilterMode) != LIS2MDL_OK)
 1468              		.loc 1 535 1 is_stmt 1 view -0
 1469              		.cfi_startproc
 1470              		@ args = 0, pretend = 0, frame = 0
 1471              		@ frame_needed = 0, uses_anonymous_args = 0
 536:D:/fchai/work/i-cube/I-CUBE-HUAWEI/Drivers/BSP/Components/lis2mdl\lis2mdl.c ****   {
 1472              		.loc 1 536 3 view .LVU370
 535:D:/fchai/work/i-cube/I-CUBE-HUAWEI/Drivers/BSP/Components/lis2mdl\lis2mdl.c ****   if(lis2mdl_low_pass_bandwidth_set(&(pObj->Ctx), (lis2mdl_lpf_t)FilterMode) != LIS2MDL_OK)
 1473              		.loc 1 535 1 is_stmt 0 view .LVU371
 1474 0000 08B5     		push	{r3, lr}
 1475              	.LCFI45:
 1476              		.cfi_def_cfa_offset 8
 1477              		.cfi_offset 3, -8
 1478              		.cfi_offset 14, -4
 536:D:/fchai/work/i-cube/I-CUBE-HUAWEI/Drivers/BSP/Components/lis2mdl\lis2mdl.c ****   {
 1479              		.loc 1 536 6 view .LVU372
 1480 0002 1C30     		adds	r0, r0, #28
ARM GAS  T:\msys\tmp\cc50myQj.s 			page 42


 1481              	.LVL111:
 536:D:/fchai/work/i-cube/I-CUBE-HUAWEI/Drivers/BSP/Components/lis2mdl\lis2mdl.c ****   {
 1482              		.loc 1 536 6 view .LVU373
 1483 0004 FFF7FEFF 		bl	lis2mdl_low_pass_bandwidth_set
 1484              	.LVL112:
 536:D:/fchai/work/i-cube/I-CUBE-HUAWEI/Drivers/BSP/Components/lis2mdl\lis2mdl.c ****   {
 1485              		.loc 1 536 5 view .LVU374
 1486 0008 0038     		subs	r0, r0, #0
 1487 000a 18BF     		it	ne
 1488 000c 0120     		movne	r0, #1
 542:D:/fchai/work/i-cube/I-CUBE-HUAWEI/Drivers/BSP/Components/lis2mdl\lis2mdl.c **** 
 1489              		.loc 1 542 1 view .LVU375
 1490 000e 4042     		rsbs	r0, r0, #0
 1491 0010 08BD     		pop	{r3, pc}
 1492              		.cfi_endproc
 1493              	.LFE19:
 1495 0012 00BF     		.section	.text.LIS2MDL_MAG_Set_Power_Mode,"ax",%progbits
 1496              		.align	1
 1497              		.p2align 2,,3
 1498              		.global	LIS2MDL_MAG_Set_Power_Mode
 1499              		.syntax unified
 1500              		.thumb
 1501              		.thumb_func
 1502              		.fpu fpv4-sp-d16
 1504              	LIS2MDL_MAG_Set_Power_Mode:
 1505              	.LVL113:
 1506              	.LFB20:
 551:D:/fchai/work/i-cube/I-CUBE-HUAWEI/Drivers/BSP/Components/lis2mdl\lis2mdl.c ****   if(lis2mdl_power_mode_set(&(pObj->Ctx), (lis2mdl_lp_t)PowerMode) != LIS2MDL_OK)
 1507              		.loc 1 551 1 is_stmt 1 view -0
 1508              		.cfi_startproc
 1509              		@ args = 0, pretend = 0, frame = 0
 1510              		@ frame_needed = 0, uses_anonymous_args = 0
 552:D:/fchai/work/i-cube/I-CUBE-HUAWEI/Drivers/BSP/Components/lis2mdl\lis2mdl.c ****   {
 1511              		.loc 1 552 3 view .LVU377
 551:D:/fchai/work/i-cube/I-CUBE-HUAWEI/Drivers/BSP/Components/lis2mdl\lis2mdl.c ****   if(lis2mdl_power_mode_set(&(pObj->Ctx), (lis2mdl_lp_t)PowerMode) != LIS2MDL_OK)
 1512              		.loc 1 551 1 is_stmt 0 view .LVU378
 1513 0000 08B5     		push	{r3, lr}
 1514              	.LCFI46:
 1515              		.cfi_def_cfa_offset 8
 1516              		.cfi_offset 3, -8
 1517              		.cfi_offset 14, -4
 552:D:/fchai/work/i-cube/I-CUBE-HUAWEI/Drivers/BSP/Components/lis2mdl\lis2mdl.c ****   {
 1518              		.loc 1 552 6 view .LVU379
 1519 0002 1C30     		adds	r0, r0, #28
 1520              	.LVL114:
 552:D:/fchai/work/i-cube/I-CUBE-HUAWEI/Drivers/BSP/Components/lis2mdl\lis2mdl.c ****   {
 1521              		.loc 1 552 6 view .LVU380
 1522 0004 FFF7FEFF 		bl	lis2mdl_power_mode_set
 1523              	.LVL115:
 552:D:/fchai/work/i-cube/I-CUBE-HUAWEI/Drivers/BSP/Components/lis2mdl\lis2mdl.c ****   {
 1524              		.loc 1 552 5 view .LVU381
 1525 0008 0038     		subs	r0, r0, #0
 1526 000a 18BF     		it	ne
 1527 000c 0120     		movne	r0, #1
 558:D:/fchai/work/i-cube/I-CUBE-HUAWEI/Drivers/BSP/Components/lis2mdl\lis2mdl.c **** 
 1528              		.loc 1 558 1 view .LVU382
 1529 000e 4042     		rsbs	r0, r0, #0
ARM GAS  T:\msys\tmp\cc50myQj.s 			page 43


 1530 0010 08BD     		pop	{r3, pc}
 1531              		.cfi_endproc
 1532              	.LFE20:
 1534              		.global	LIS2MDL_MAG_Driver
 1535              		.global	LIS2MDL_COMMON_Driver
 1536 0012 00BF     		.section	.data.LIS2MDL_COMMON_Driver,"aw"
 1537              		.align	2
 1540              	LIS2MDL_COMMON_Driver:
 1541 0000 00000000 		.word	LIS2MDL_Init
 1542 0004 00000000 		.word	LIS2MDL_DeInit
 1543 0008 00000000 		.word	LIS2MDL_ReadID
 1544 000c 00000000 		.word	LIS2MDL_GetCapabilities
 1545              		.section	.data.LIS2MDL_MAG_Driver,"aw"
 1546              		.align	2
 1549              	LIS2MDL_MAG_Driver:
 1550 0000 00000000 		.word	LIS2MDL_MAG_Enable
 1551 0004 00000000 		.word	LIS2MDL_MAG_Disable
 1552 0008 00000000 		.word	LIS2MDL_MAG_GetSensitivity
 1553 000c 00000000 		.word	LIS2MDL_MAG_GetOutputDataRate
 1554 0010 00000000 		.word	LIS2MDL_MAG_SetOutputDataRate
 1555 0014 00000000 		.word	LIS2MDL_MAG_GetFullScale
 1556 0018 00000000 		.word	LIS2MDL_MAG_SetFullScale
 1557 001c 00000000 		.word	LIS2MDL_MAG_GetAxes
 1558 0020 00000000 		.word	LIS2MDL_MAG_GetAxesRaw
 1559              		.text
 1560              	.Letext0:
 1561              		.file 2 "t:\\msys\\3rd\\gcc-arm-none-eabi-9-2020-q2-update-win32\\arm-none-eabi\\include\\machine\
 1562              		.file 3 "t:\\msys\\3rd\\gcc-arm-none-eabi-9-2020-q2-update-win32\\arm-none-eabi\\include\\sys\\_st
 1563              		.file 4 "t:\\msys\\3rd\\gcc-arm-none-eabi-9-2020-q2-update-win32\\lib\\gcc\\arm-none-eabi\\9.3.1\\
 1564              		.file 5 "t:\\msys\\3rd\\gcc-arm-none-eabi-9-2020-q2-update-win32\\arm-none-eabi\\include\\sys\\_ty
 1565              		.file 6 "t:\\msys\\3rd\\gcc-arm-none-eabi-9-2020-q2-update-win32\\arm-none-eabi\\include\\sys\\ree
 1566              		.file 7 "t:\\msys\\3rd\\gcc-arm-none-eabi-9-2020-q2-update-win32\\arm-none-eabi\\include\\sys\\loc
 1567              		.file 8 "t:\\msys\\3rd\\gcc-arm-none-eabi-9-2020-q2-update-win32\\arm-none-eabi\\include\\math.h"
 1568              		.file 9 "D:/fchai/work/i-cube/I-CUBE-HUAWEI/Drivers/BSP/Components/lis2mdl/lis2mdl_reg.h"
 1569              		.file 10 "D:/fchai/work/i-cube/I-CUBE-HUAWEI/Drivers/BSP/Components/lis2mdl/lis2mdl.h"
ARM GAS  T:\msys\tmp\cc50myQj.s 			page 44

